ARM GAS  /tmp/ccMboyVS.s 			page 1


   1              		.cpu cortex-m4
   2              		.eabi_attribute 27, 1
   3              		.eabi_attribute 28, 1
   4              		.eabi_attribute 20, 1
   5              		.eabi_attribute 21, 1
   6              		.eabi_attribute 23, 3
   7              		.eabi_attribute 24, 1
   8              		.eabi_attribute 25, 1
   9              		.eabi_attribute 26, 1
  10              		.eabi_attribute 30, 2
  11              		.eabi_attribute 34, 1
  12              		.eabi_attribute 18, 4
  13              		.file	"fundamental.c"
  14              		.text
  15              	.Ltext0:
  16              		.cfi_sections	.debug_frame
  17              		.section	.text.struct_eq,"ax",%progbits
  18              		.align	1
  19              		.p2align 4,,15
  20              		.syntax unified
  21              		.thumb
  22              		.thumb_func
  23              		.fpu fpv4-sp-d16
  24              		.type	struct_eq, %function
  25              	struct_eq:
  26              	.LFB52:
  27              		.file 1 "lispBM/lispBM/src/fundamental.c"
  28              		.loc 1 190 0
  29              		.cfi_startproc
  30              		@ args = 0, pretend = 0, frame = 0
  31              		@ frame_needed = 0, uses_anonymous_args = 0
  32              	.LVL0:
  33 0000 70B5     		push	{r4, r5, r6, lr}
  34              		.cfi_def_cfa_offset 16
  35              		.cfi_offset 4, -16
  36              		.cfi_offset 5, -12
  37              		.cfi_offset 6, -8
  38              		.cfi_offset 14, -4
  39              		.loc 1 192 0
  40 0002 C307     		lsls	r3, r0, #31
  41              		.loc 1 190 0
  42 0004 2DED028B 		vpush.64	{d8}
  43              		.cfi_def_cfa_offset 24
  44              		.cfi_offset 80, -24
  45              		.cfi_offset 81, -20
  46              		.loc 1 190 0
  47 0008 0546     		mov	r5, r0
  48 000a 01F00102 		and	r2, r1, #1
  49              		.loc 1 192 0
  50 000e 0AD5     		bpl	.L49
  51              		.loc 1 212 0
  52 0010 2AB1     		cbz	r2, .L6
  53              	.LVL1:
  54              	.LBB667:
  55              	.LBB668:
  56              		.file 2 "lispBM/lispBM/include/heap.h"
  57              		.loc 2 461 0
ARM GAS  /tmp/ccMboyVS.s 			page 2


  58 0012 01F07C42 		and	r2, r1, #-67108864
  59              	.LVL2:
  60              	.LBE668:
  61              	.LBE667:
  62              	.LBB669:
  63              	.LBB670:
  64 0016 00F07C44 		and	r4, r0, #-67108864
  65              	.LBE670:
  66              	.LBE669:
  67              		.loc 1 213 0
  68 001a A242     		cmp	r2, r4
  69 001c 2AD0     		beq	.L50
  70              	.LVL3:
  71              	.L6:
  72              		.loc 1 204 0
  73 001e 0020     		movs	r0, #0
  74              	.L4:
  75              		.loc 1 232 0
  76 0020 BDEC028B 		vldm	sp!, {d8}
  77              		.cfi_remember_state
  78              		.cfi_restore 80
  79              		.cfi_restore 81
  80              		.cfi_def_cfa_offset 16
  81 0024 70BD     		pop	{r4, r5, r6, pc}
  82              	.LVL4:
  83              	.L49:
  84              		.cfi_restore_state
  85              		.loc 1 192 0
  86 0026 002A     		cmp	r2, #0
  87 0028 F9D1     		bne	.L6
  88              	.LVL5:
  89              	.LBB671:
  90              	.LBB672:
  91              		.loc 2 461 0
  92 002a 00F00C02 		and	r2, r0, #12
  93              	.LVL6:
  94              	.LBE672:
  95              	.LBE671:
  96              	.LBB673:
  97              	.LBB674:
  98 002e 01F00C00 		and	r0, r1, #12
  99              	.LVL7:
 100              	.LBE674:
 101              	.LBE673:
 102              		.loc 1 193 0
 103 0032 8242     		cmp	r2, r0
 104 0034 F3D1     		bne	.L6
 105              		.loc 1 194 0
 106 0036 0C2A     		cmp	r2, #12
 107 0038 F1D8     		bhi	.L6
 108 003a 01A3     		adr	r3, .L8
 109 003c 53F822F0 		ldr	pc, [r3, r2, lsl #2]
 110              		.p2align 2
 111              	.L8:
 112 0040 A3000000 		.word	.L7+1
 113 0044 1F000000 		.word	.L6+1
 114 0048 1F000000 		.word	.L6+1
ARM GAS  /tmp/ccMboyVS.s 			page 3


 115 004c 1F000000 		.word	.L6+1
 116 0050 0B010000 		.word	.L9+1
 117 0054 1F000000 		.word	.L6+1
 118 0058 1F000000 		.word	.L6+1
 119 005c 1F000000 		.word	.L6+1
 120 0060 A3000000 		.word	.L7+1
 121 0064 1F000000 		.word	.L6+1
 122 0068 1F000000 		.word	.L6+1
 123 006c 1F000000 		.word	.L6+1
 124 0070 FD000000 		.word	.L10+1
 125              	.LVL8:
 126              		.p2align 1
 127              	.L50:
 128              		.loc 1 214 0
 129 0074 B2F1405F 		cmp	r2, #805306368
 130 0078 0C46     		mov	r4, r1
 131 007a 06D0     		beq	.L11
 132 007c 18D8     		bhi	.L12
 133 007e B2F1805F 		cmp	r2, #268435456
 134 0082 60D0     		beq	.L13
 135 0084 B2F1005F 		cmp	r2, #536870912
 136 0088 C9D1     		bne	.L6
 137              	.L11:
 138              		.loc 1 219 0
 139 008a 2846     		mov	r0, r5
 140              	.LVL9:
 141 008c FFF7FEFF 		bl	lbm_car
 142              	.LVL10:
 143 0090 0546     		mov	r5, r0
 144              	.LVL11:
 145 0092 2046     		mov	r0, r4
 146 0094 FFF7FEFF 		bl	lbm_car
 147              	.LVL12:
 148 0098 281A     		subs	r0, r5, r0
 149 009a B0FA80F0 		clz	r0, r0
 150 009e 4009     		lsrs	r0, r0, #5
 151 00a0 BEE7     		b	.L4
 152              	.LVL13:
 153              	.L7:
 154              	.LBB675:
 155              	.LBB676:
 156              		.loc 2 529 0
 157 00a2 0909     		lsrs	r1, r1, #4
 158              	.LVL14:
 159              	.LBE676:
 160              	.LBE675:
 161              		.loc 1 196 0
 162 00a4 B1EB151F 		cmp	r1, r5, lsr #4
 163 00a8 0CBF     		ite	eq
 164 00aa 0120     		moveq	r0, #1
 165 00ac 0020     		movne	r0, #0
 166 00ae B7E7     		b	.L4
 167              	.LVL15:
 168              	.L12:
 169              		.loc 1 214 0
 170 00b0 B2F1804F 		cmp	r2, #1073741824
 171 00b4 32D0     		beq	.L14
ARM GAS  /tmp/ccMboyVS.s 			page 4


 172 00b6 B2F1504F 		cmp	r2, #-805306368
 173 00ba B0D1     		bne	.L6
 174              	.LVL16:
 175              	.LBB677:
 176              	.LBB678:
 177              		.loc 1 162 0
 178 00bc FFF7FEFF 		bl	lbm_car
 179              	.LVL17:
 180 00c0 0546     		mov	r5, r0
 181              	.LVL18:
 182              		.loc 1 163 0
 183 00c2 2046     		mov	r0, r4
 184              	.LVL19:
 185 00c4 FFF7FEFF 		bl	lbm_car
 186              	.LVL20:
 187              		.loc 1 165 0
 188 00c8 2B68     		ldr	r3, [r5]
 189 00ca 0268     		ldr	r2, [r0]
 190 00cc 9342     		cmp	r3, r2
 191 00ce A6D1     		bne	.L6
 192              		.loc 1 166 0
 193 00d0 6A68     		ldr	r2, [r5, #4]
 194              		.loc 1 165 0
 195 00d2 4168     		ldr	r1, [r0, #4]
 196 00d4 8A42     		cmp	r2, r1
 197 00d6 A2D1     		bne	.L6
 198              		.loc 1 167 0
 199 00d8 0C2B     		cmp	r3, #12
 200 00da 06D0     		beq	.L21
 201 00dc 51D9     		bls	.L51
 202 00de B3F1405F 		cmp	r3, #805306368
 203 00e2 02D0     		beq	.L21
 204 00e4 B3F1804F 		cmp	r3, #1073741824
 205 00e8 46D1     		bne	.L52
 206              	.L21:
 207              		.loc 1 180 0
 208 00ea 9200     		lsls	r2, r2, #2
 209              	.L47:
 210 00ec 8168     		ldr	r1, [r0, #8]
 211 00ee A868     		ldr	r0, [r5, #8]
 212              	.LVL21:
 213 00f0 FFF7FEFF 		bl	memcmp
 214              	.LVL22:
 215 00f4 B0FA80F0 		clz	r0, r0
 216 00f8 4009     		lsrs	r0, r0, #5
 217 00fa 91E7     		b	.L4
 218              	.LVL23:
 219              	.L10:
 220              	.LBE678:
 221              	.LBE677:
 222              	.LBB680:
 223              	.LBB681:
 224              		.loc 2 517 0
 225 00fc 2B11     		asrs	r3, r5, #4
 226              	.LBE681:
 227              	.LBE680:
 228              		.loc 1 198 0
ARM GAS  /tmp/ccMboyVS.s 			page 5


 229 00fe B3EB211F 		cmp	r3, r1, asr #4
 230 0102 0CBF     		ite	eq
 231 0104 0120     		moveq	r0, #1
 232 0106 0020     		movne	r0, #0
 233 0108 8AE7     		b	.L4
 234              	.L9:
 235              		.loc 1 202 0
 236 010a C1F30711 		ubfx	r1, r1, #4, #8
 237              	.LVL24:
 238 010e C5F30713 		ubfx	r3, r5, #4, #8
 239 0112 C81A     		subs	r0, r1, r3
 240 0114 B0FA80F0 		clz	r0, r0
 241 0118 4009     		lsrs	r0, r0, #5
 242 011a 81E7     		b	.L4
 243              	.LVL25:
 244              	.L14:
 245              		.loc 1 223 0
 246 011c FFF7FEFF 		bl	lbm_car
 247              	.LVL26:
 248 0120 08EE100A 		vmov	s16, r0	@ int
 249 0124 2046     		mov	r0, r4
 250 0126 FFF7FEFF 		bl	lbm_car
 251              	.LVL27:
 252 012a 07EE900A 		vmov	s15, r0	@ int
 253 012e B8EE488A 		vcvt.f32.u32	s16, s16
 254 0132 F8EE677A 		vcvt.f32.u32	s15, s15
 255 0136 B4EE678A 		vcmp.f32	s16, s15
 256 013a F1EE10FA 		vmrs	APSR_nzcv, FPSCR
 257 013e 0CBF     		ite	eq
 258 0140 0120     		moveq	r0, #1
 259 0142 0020     		movne	r0, #0
 260 0144 6CE7     		b	.L4
 261              	.LVL28:
 262              	.L13:
 263              		.loc 1 216 0
 264 0146 FFF7FEFF 		bl	lbm_car
 265              	.LVL29:
 266 014a 0646     		mov	r6, r0
 267 014c 2046     		mov	r0, r4
 268 014e FFF7FEFF 		bl	lbm_car
 269              	.LVL30:
 270 0152 0146     		mov	r1, r0
 271 0154 3046     		mov	r0, r6
 272 0156 FFF753FF 		bl	struct_eq
 273              	.LVL31:
 274 015a 0028     		cmp	r0, #0
 275 015c 3FF460AF 		beq	.L4
 276              		.loc 1 217 0 discriminator 1
 277 0160 2846     		mov	r0, r5
 278 0162 FFF7FEFF 		bl	lbm_cdr
 279              	.LVL32:
 280 0166 0546     		mov	r5, r0
 281              	.LVL33:
 282 0168 2046     		mov	r0, r4
 283 016a FFF7FEFF 		bl	lbm_cdr
 284              	.LVL34:
 285 016e 0146     		mov	r1, r0
ARM GAS  /tmp/ccMboyVS.s 			page 6


 286 0170 2846     		mov	r0, r5
 287 0172 FFF745FF 		bl	struct_eq
 288              	.LVL35:
 289              		.loc 1 216 0 discriminator 1
 290 0176 53E7     		b	.L4
 291              	.LVL36:
 292              	.L52:
 293              	.LBB682:
 294              	.LBB679:
 295              		.loc 1 167 0
 296 0178 B3F1005F 		cmp	r3, #536870912
 297 017c 7FF44FAF 		bne	.L6
 298 0180 B3E7     		b	.L21
 299              	.L51:
 300 0182 042B     		cmp	r3, #4
 301 0184 B2D0     		beq	.L47
 302 0186 082B     		cmp	r3, #8
 303 0188 AFD0     		beq	.L21
 304 018a 48E7     		b	.L6
 305              	.LBE679:
 306              	.LBE682:
 307              		.cfi_endproc
 308              	.LFE52:
 309              		.size	struct_eq, .-struct_eq
 310              		.section	.text.array_read.part.0,"ax",%progbits
 311              		.align	1
 312              		.p2align 4,,15
 313              		.syntax unified
 314              		.thumb
 315              		.thumb_func
 316              		.fpu fpv4-sp-d16
 317              		.type	array_read.part.0, %function
 318              	array_read.part.0:
 319              	.LFB61:
 320              		.loc 1 271 0
 321              		.cfi_startproc
 322              		@ args = 0, pretend = 0, frame = 0
 323              		@ frame_needed = 0, uses_anonymous_args = 0
 324              	.LVL37:
 325 0000 2DE9F84F 		push	{r3, r4, r5, r6, r7, r8, r9, r10, fp, lr}
 326              		.cfi_def_cfa_offset 40
 327              		.cfi_offset 3, -40
 328              		.cfi_offset 4, -36
 329              		.cfi_offset 5, -32
 330              		.cfi_offset 6, -28
 331              		.cfi_offset 7, -24
 332              		.cfi_offset 8, -20
 333              		.cfi_offset 9, -16
 334              		.cfi_offset 10, -12
 335              		.cfi_offset 11, -8
 336              		.cfi_offset 14, -4
 337              		.loc 1 276 0
 338 0004 4368     		ldr	r3, [r0, #4]
 339              	.LVL38:
 340              		.loc 1 282 0
 341 0006 0229     		cmp	r1, #2
 342              		.loc 1 283 0
ARM GAS  /tmp/ccMboyVS.s 			page 7


 343 0008 87BF     		ittee	hi
 344 000a 8468     		ldrhi	r4, [r0, #8]
 345              	.LVL39:
 346              		.loc 1 284 0
 347 000c 4FF00108 		movhi	r8, #1
 348              		.loc 1 276 0
 349 0010 1C46     		movls	r4, r3
 350              	.LVL40:
 351              		.loc 1 280 0
 352 0012 4FF00008 		movls	r8, #0
 353              	.LVL41:
 354              	.LBB683:
 355              	.LBB684:
 356              	.LBB685:
 357              	.LBB686:
 358              		.loc 2 461 0
 359 0016 DD07     		lsls	r5, r3, #31
 360 0018 4CBF     		ite	mi
 361 001a 03F07C41 		andmi	r1, r3, #-67108864
 362              	.LVL42:
 363 001e 03F00C01 		andpl	r1, r3, #12
 364              	.LVL43:
 365              	.LBE686:
 366              	.LBE685:
 367              		.loc 2 561 0
 368 0022 0829     		cmp	r1, #8
 369 0024 0DD0     		beq	.L57
 370              		.loc 2 562 0
 371 0026 21F00805 		bic	r5, r1, #8
 372 002a 042D     		cmp	r5, #4
 373 002c 09D0     		beq	.L57
 374              		.loc 2 564 0
 375 002e 21F08055 		bic	r5, r1, #268435456
 376 0032 B5F1005F 		cmp	r5, #536870912
 377 0036 04D0     		beq	.L57
 378              		.loc 2 565 0
 379 0038 B1F1804F 		cmp	r1, #1073741824
 380 003c 01D0     		beq	.L57
 381              	.LVL44:
 382              	.L53:
 383              	.LBE684:
 384              	.LBE683:
 385              		.loc 1 356 0
 386 003e BDE8F88F 		pop	{r3, r4, r5, r6, r7, r8, r9, r10, fp, pc}
 387              	.LVL45:
 388              	.L57:
 389              	.LBB687:
 390              	.LBB688:
 391              	.LBB689:
 392              	.LBB690:
 393              		.loc 2 461 0
 394 0042 E107     		lsls	r1, r4, #31
 395 0044 2BD4     		bmi	.L84
 396 0046 04F00C01 		and	r1, r4, #12
 397              	.L59:
 398              	.LVL46:
 399              	.LBE690:
ARM GAS  /tmp/ccMboyVS.s 			page 8


 400              	.LBE689:
 401              		.loc 2 561 0
 402 004a 0829     		cmp	r1, #8
 403 004c 0BD0     		beq	.L60
 404              		.loc 2 562 0
 405 004e 21F00805 		bic	r5, r1, #8
 406 0052 042D     		cmp	r5, #4
 407 0054 07D0     		beq	.L60
 408              		.loc 2 564 0
 409 0056 21F08055 		bic	r5, r1, #268435456
 410 005a B5F1005F 		cmp	r5, #536870912
 411 005e 02D0     		beq	.L60
 412              		.loc 2 565 0
 413 0060 B1F1804F 		cmp	r1, #1073741824
 414 0064 EBD1     		bne	.L53
 415              	.L60:
 416 0066 1646     		mov	r6, r2
 417 0068 0246     		mov	r2, r0
 418              	.LVL47:
 419              	.LBE688:
 420              	.LBE687:
 421              		.loc 1 292 0
 422 006a 1846     		mov	r0, r3
 423              	.LVL48:
 424              		.loc 1 275 0
 425 006c 1568     		ldr	r5, [r2]
 426              	.LVL49:
 427              		.loc 1 292 0
 428 006e FFF7FEFF 		bl	lbm_dec_as_u
 429              	.LVL50:
 430 0072 0746     		mov	r7, r0
 431              	.LVL51:
 432              		.loc 1 293 0
 433 0074 2046     		mov	r0, r4
 434              	.LVL52:
 435 0076 FFF7FEFF 		bl	lbm_dec_as_u
 436              	.LVL53:
 437              		.loc 1 298 0
 438 007a 8742     		cmp	r7, r0
 439              		.loc 1 293 0
 440 007c 0446     		mov	r4, r0
 441              	.LVL54:
 442              		.loc 1 298 0
 443 007e 02D9     		bls	.L86
 444 0080 3B46     		mov	r3, r7
 445 0082 1C46     		mov	r4, r3
 446 0084 0746     		mov	r7, r0
 447              	.LVL55:
 448              	.L86:
 449              	.LBB694:
 450              	.LBB695:
 451              		.loc 2 461 0
 452 0086 E907     		lsls	r1, r5, #31
 453 0088 0CD4     		bmi	.L62
 454              	.L64:
 455              	.LBE695:
 456              	.LBE694:
ARM GAS  /tmp/ccMboyVS.s 			page 9


 457              		.loc 1 279 0
 458 008a 9025     		movs	r5, #144
 459              		.loc 1 278 0
 460 008c 4FF0000B 		mov	fp, #0
 461              	.LVL56:
 462              	.L63:
 463              		.loc 1 352 0
 464 0090 B8F1000F 		cmp	r8, #0
 465 0094 18BF     		it	ne
 466 0096 5D46     		movne	r5, fp
 467 0098 3560     		str	r5, [r6]
 468              		.loc 1 356 0
 469 009a BDE8F88F 		pop	{r3, r4, r5, r6, r7, r8, r9, r10, fp, pc}
 470              	.LVL57:
 471              	.L84:
 472              	.LBB697:
 473              	.LBB693:
 474              	.LBB692:
 475              	.LBB691:
 476              		.loc 2 461 0
 477 009e 04F07C41 		and	r1, r4, #-67108864
 478 00a2 D2E7     		b	.L59
 479              	.LVL58:
 480              	.L62:
 481              	.LBE691:
 482              	.LBE692:
 483              	.LBE693:
 484              	.LBE697:
 485              	.LBB698:
 486              	.LBB696:
 487 00a4 05F07C43 		and	r3, r5, #-67108864
 488              	.LBE696:
 489              	.LBE698:
 490              		.loc 1 304 0
 491 00a8 B3F1504F 		cmp	r3, #-805306368
 492 00ac EDD1     		bne	.L64
 493              	.LBB699:
 494              		.loc 1 305 0
 495 00ae 2846     		mov	r0, r5
 496 00b0 FFF7FEFF 		bl	lbm_car
 497              	.LVL59:
 498              	.LBB700:
 499              		.loc 1 309 0
 500 00b4 BC42     		cmp	r4, r7
 501              	.LBE700:
 502              		.loc 1 305 0
 503 00b6 8246     		mov	r10, r0
 504              	.LVL60:
 505              		.loc 1 306 0
 506 00b8 D0F80890 		ldr	r9, [r0, #8]
 507              	.LVL61:
 508              	.LBB719:
 509              		.loc 1 309 0
 510 00bc E5DB     		blt	.L64
 511              		.loc 1 311 0
 512 00be 4268     		ldr	r2, [r0, #4]
 513 00c0 9442     		cmp	r4, r2
ARM GAS  /tmp/ccMboyVS.s 			page 10


 514 00c2 1AD2     		bcs	.L65
 515              	.LBE719:
 516              	.LBE699:
 517              		.loc 1 278 0
 518 00c4 4FF0000B 		mov	fp, #0
 519              	.LVL62:
 520              	.L66:
 521              	.LBB721:
 522              	.LBB720:
 523              		.loc 1 317 0
 524 00c8 DAF80010 		ldr	r1, [r10]
 525 00cc 0C29     		cmp	r1, #12
 526 00ce 60D0     		beq	.L68
 527 00d0 16D9     		bls	.L128
 528 00d2 B1F1405F 		cmp	r1, #805306368
 529 00d6 62D0     		beq	.L72
 530 00d8 B1F1804F 		cmp	r1, #1073741824
 531 00dc 40D0     		beq	.L73
 532 00de B1F1005F 		cmp	r1, #536870912
 533 00e2 25D0     		beq	.L129
 534              	.L88:
 535              		.loc 1 343 0
 536 00e4 9025     		movs	r5, #144
 537              	.LVL63:
 538              	.L67:
 539              		.loc 1 346 0
 540 00e6 B8F1000F 		cmp	r8, #0
 541 00ea 15D1     		bne	.L130
 542              	.L81:
 543              		.loc 1 309 0
 544 00ec 013C     		subs	r4, r4, #1
 545              	.LVL64:
 546 00ee BC42     		cmp	r4, r7
 547 00f0 CEDB     		blt	.L63
 548              		.loc 1 311 0
 549 00f2 DAF80410 		ldr	r1, [r10, #4]
 550 00f6 A142     		cmp	r1, r4
 551 00f8 E6D8     		bhi	.L66
 552              	.L65:
 553              		.loc 1 313 0
 554 00fa 0023     		movs	r3, #0
 555 00fc 3360     		str	r3, [r6]
 556 00fe 9EE7     		b	.L53
 557              	.LVL65:
 558              	.L128:
 559              		.loc 1 317 0
 560 0100 0429     		cmp	r1, #4
 561 0102 0FD0     		beq	.L70
 562 0104 0829     		cmp	r1, #8
 563 0106 EDD1     		bne	.L88
 564              	.LVL66:
 565              	.LBB701:
 566              	.LBB702:
 567              		.loc 2 489 0
 568 0108 59F82450 		ldr	r5, [r9, r4, lsl #2]
 569 010c 2D01     		lsls	r5, r5, #4
 570 010e 45F00805 		orr	r5, r5, #8
ARM GAS  /tmp/ccMboyVS.s 			page 11


 571              	.LVL67:
 572              	.LBE702:
 573              	.LBE701:
 574              		.loc 1 346 0
 575 0112 B8F1000F 		cmp	r8, #0
 576 0116 E9D0     		beq	.L81
 577              	.LVL68:
 578              	.L130:
 579              		.loc 1 347 0
 580 0118 5946     		mov	r1, fp
 581 011a 2846     		mov	r0, r5
 582 011c FFF7FEFF 		bl	lbm_cons
 583              	.LVL69:
 584 0120 8346     		mov	fp, r0
 585 0122 E3E7     		b	.L81
 586              	.LVL70:
 587              	.L70:
 588              	.LBB703:
 589              	.LBB704:
 590              		.loc 2 513 0
 591 0124 19F80450 		ldrb	r5, [r9, r4]	@ zero_extendqisi2
 592 0128 2D01     		lsls	r5, r5, #4
 593 012a 45F00405 		orr	r5, r5, #4
 594              	.LVL71:
 595 012e DAE7     		b	.L67
 596              	.LVL72:
 597              	.L129:
 598              	.LBE704:
 599              	.LBE703:
 600              		.loc 1 328 0
 601 0130 4FF40871 		mov	r1, #544
 602 0134 59F82400 		ldr	r0, [r9, r4, lsl #2]
 603 0138 FFF7FEFF 		bl	lbm_cons
 604              	.LVL73:
 605              	.LBB705:
 606              	.LBB706:
 607              		.loc 2 461 0
 608 013c C207     		lsls	r2, r0, #31
 609 013e 4CBF     		ite	mi
 610 0140 00F07C41 		andmi	r1, r0, #-67108864
 611 0144 00F00C01 		andpl	r1, r0, #12
 612              	.LBE706:
 613              	.LBE705:
 614              		.loc 1 329 0
 615 0148 0029     		cmp	r1, #0
 616 014a 3FF478AF 		beq	.L53
 617              	.LVL74:
 618              	.LBB707:
 619              	.LBB708:
 620              		.loc 2 477 0
 621 014e 20F07C40 		bic	r0, r0, #-67108864
 622              	.LVL75:
 623 0152 20F00700 		bic	r0, r0, #7
 624 0156 40F00055 		orr	r5, r0, #536870912
 625 015a 45F00105 		orr	r5, r5, #1
 626              	.LVL76:
 627 015e C2E7     		b	.L67
ARM GAS  /tmp/ccMboyVS.s 			page 12


 628              	.LVL77:
 629              	.L73:
 630              	.LBE708:
 631              	.LBE707:
 632              		.loc 1 338 0
 633 0160 4FF40C71 		mov	r1, #560
 634 0164 59F82400 		ldr	r0, [r9, r4, lsl #2]
 635 0168 FFF7FEFF 		bl	lbm_cons
 636              	.LVL78:
 637              		.loc 1 339 0
 638 016c 3168     		ldr	r1, [r6]
 639              	.LVL79:
 640              	.LBB709:
 641              	.LBB710:
 642              		.loc 2 461 0
 643 016e CD07     		lsls	r5, r1, #31
 644 0170 4CBF     		ite	mi
 645 0172 01F07C41 		andmi	r1, r1, #-67108864
 646 0176 01F00C01 		andpl	r1, r1, #12
 647              	.LBE710:
 648              	.LBE709:
 649              		.loc 1 339 0
 650 017a 0029     		cmp	r1, #0
 651 017c 3FF45FAF 		beq	.L53
 652              	.LVL80:
 653              	.LBB711:
 654              	.LBB712:
 655              		.loc 2 477 0
 656 0180 20F07C40 		bic	r0, r0, #-67108864
 657              	.LVL81:
 658 0184 20F00700 		bic	r0, r0, #7
 659 0188 40F08045 		orr	r5, r0, #1073741824
 660 018c 45F00105 		orr	r5, r5, #1
 661              	.LVL82:
 662 0190 A9E7     		b	.L67
 663              	.LVL83:
 664              	.L68:
 665              	.LBE712:
 666              	.LBE711:
 667              	.LBB713:
 668              	.LBB714:
 669              		.loc 2 485 0
 670 0192 59F82450 		ldr	r5, [r9, r4, lsl #2]
 671 0196 2D01     		lsls	r5, r5, #4
 672 0198 45F00C05 		orr	r5, r5, #12
 673              	.LVL84:
 674 019c A3E7     		b	.L67
 675              	.LVL85:
 676              	.L72:
 677              	.LBE714:
 678              	.LBE713:
 679              		.loc 1 333 0
 680 019e 4FF40471 		mov	r1, #528
 681 01a2 59F82400 		ldr	r0, [r9, r4, lsl #2]
 682 01a6 FFF7FEFF 		bl	lbm_cons
 683              	.LVL86:
 684              	.LBB715:
ARM GAS  /tmp/ccMboyVS.s 			page 13


 685              	.LBB716:
 686              		.loc 2 461 0
 687 01aa C307     		lsls	r3, r0, #31
 688 01ac 4CBF     		ite	mi
 689 01ae 00F07C41 		andmi	r1, r0, #-67108864
 690 01b2 00F00C01 		andpl	r1, r0, #12
 691              	.LBE716:
 692              	.LBE715:
 693              		.loc 1 334 0
 694 01b6 0029     		cmp	r1, #0
 695 01b8 3FF441AF 		beq	.L53
 696              	.LVL87:
 697              	.LBB717:
 698              	.LBB718:
 699              		.loc 2 477 0
 700 01bc 20F07C40 		bic	r0, r0, #-67108864
 701              	.LVL88:
 702 01c0 20F00700 		bic	r0, r0, #7
 703 01c4 40F04055 		orr	r5, r0, #805306368
 704 01c8 45F00105 		orr	r5, r5, #1
 705              	.LVL89:
 706 01cc 8BE7     		b	.L67
 707              	.LBE718:
 708              	.LBE717:
 709              	.LBE720:
 710              	.LBE721:
 711              		.cfi_endproc
 712              	.LFE61:
 713              		.size	array_read.part.0, .-array_read.part.0
 714 01ce 00BF     		.section	.text.array_read,"ax",%progbits
 715              		.align	1
 716              		.p2align 4,,15
 717              		.global	array_read
 718              		.syntax unified
 719              		.thumb
 720              		.thumb_func
 721              		.fpu fpv4-sp-d16
 722              		.type	array_read, %function
 723              	array_read:
 724              	.LFB57:
 725              		.loc 1 271 0
 726              		.cfi_startproc
 727              		@ args = 0, pretend = 0, frame = 0
 728              		@ frame_needed = 0, uses_anonymous_args = 0
 729              		@ link register save eliminated.
 730              	.LVL90:
 731              		.loc 1 273 0
 732 0000 0129     		cmp	r1, #1
 733 0002 01D9     		bls	.L131
 734 0004 FFF7FEBF 		b	array_read.part.0
 735              	.LVL91:
 736              	.L131:
 737              		.loc 1 356 0
 738 0008 7047     		bx	lr
 739              		.cfi_endproc
 740              	.LFE57:
 741              		.size	array_read, .-array_read
ARM GAS  /tmp/ccMboyVS.s 			page 14


 742 000a 00BF     		.section	.text.array_write,"ax",%progbits
 743              		.align	1
 744              		.p2align 4,,15
 745              		.global	array_write
 746              		.syntax unified
 747              		.thumb
 748              		.thumb_func
 749              		.fpu fpv4-sp-d16
 750              		.type	array_write, %function
 751              	array_write:
 752              	.LFB58:
 753              		.loc 1 358 0
 754              		.cfi_startproc
 755              		@ args = 0, pretend = 0, frame = 0
 756              		@ frame_needed = 0, uses_anonymous_args = 0
 757              	.LVL92:
 758 0000 F8B5     		push	{r3, r4, r5, r6, r7, lr}
 759              		.cfi_def_cfa_offset 24
 760              		.cfi_offset 3, -24
 761              		.cfi_offset 4, -20
 762              		.cfi_offset 5, -16
 763              		.cfi_offset 6, -12
 764              		.cfi_offset 7, -8
 765              		.cfi_offset 14, -4
 766              		.loc 1 360 0
 767 0002 D0E90053 		ldrd	r5, r3, [r0]
 768              	.LVL93:
 769              		.loc 1 365 0
 770 0006 9021     		movs	r1, #144
 771              	.LVL94:
 772              		.loc 1 362 0
 773 0008 8668     		ldr	r6, [r0, #8]
 774              	.LVL95:
 775              		.loc 1 365 0
 776 000a 1160     		str	r1, [r2]
 777              	.LVL96:
 778              	.LBB722:
 779              	.LBB723:
 780              	.LBB724:
 781              	.LBB725:
 782              		.loc 2 461 0
 783 000c D907     		lsls	r1, r3, #31
 784 000e 4CBF     		ite	mi
 785 0010 03F07C41 		andmi	r1, r3, #-67108864
 786 0014 03F00C01 		andpl	r1, r3, #12
 787              	.LVL97:
 788              	.LBE725:
 789              	.LBE724:
 790              		.loc 2 561 0
 791 0018 0829     		cmp	r1, #8
 792 001a 0CD0     		beq	.L136
 793              		.loc 2 562 0
 794 001c 21F00800 		bic	r0, r1, #8
 795              	.LVL98:
 796 0020 0428     		cmp	r0, #4
 797 0022 08D0     		beq	.L136
 798              		.loc 2 564 0
ARM GAS  /tmp/ccMboyVS.s 			page 15


 799 0024 21F08050 		bic	r0, r1, #268435456
 800 0028 B0F1005F 		cmp	r0, #536870912
 801 002c 03D0     		beq	.L136
 802              		.loc 2 565 0
 803 002e B1F1804F 		cmp	r1, #1073741824
 804 0032 00D0     		beq	.L136
 805              	.LVL99:
 806              	.L133:
 807              	.LBE723:
 808              	.LBE722:
 809              		.loc 1 423 0
 810 0034 F8BD     		pop	{r3, r4, r5, r6, r7, pc}
 811              	.LVL100:
 812              	.L136:
 813              		.loc 1 368 0
 814 0036 1846     		mov	r0, r3
 815 0038 1446     		mov	r4, r2
 816 003a FFF7FEFF 		bl	lbm_dec_as_u
 817              	.LVL101:
 818              	.LBB726:
 819              	.LBB727:
 820              		.loc 2 461 0
 821 003e EB07     		lsls	r3, r5, #31
 822              	.LBE727:
 823              	.LBE726:
 824              		.loc 1 368 0
 825 0040 0746     		mov	r7, r0
 826              	.LVL102:
 827              	.LBB729:
 828              	.LBB728:
 829              		.loc 2 461 0
 830 0042 F7D5     		bpl	.L133
 831              	.LVL103:
 832 0044 05F07C43 		and	r3, r5, #-67108864
 833              	.LBE728:
 834              	.LBE729:
 835              		.loc 1 373 0
 836 0048 B3F1504F 		cmp	r3, #-805306368
 837 004c F2D1     		bne	.L133
 838              	.LBB730:
 839              		.loc 1 374 0
 840 004e 2846     		mov	r0, r5
 841              	.LVL104:
 842 0050 FFF7FEFF 		bl	lbm_car
 843              	.LVL105:
 844              	.LBB731:
 845              	.LBB732:
 846              		.loc 2 461 0
 847 0054 F207     		lsls	r2, r6, #31
 848              	.LBE732:
 849              	.LBE731:
 850              		.loc 1 377 0
 851 0056 0168     		ldr	r1, [r0]
 852              	.LBB734:
 853              	.LBB733:
 854              		.loc 2 461 0
 855 0058 4CBF     		ite	mi
ARM GAS  /tmp/ccMboyVS.s 			page 16


 856 005a 06F07C42 		andmi	r2, r6, #-67108864
 857 005e 06F00C02 		andpl	r2, r6, #12
 858              	.LBE733:
 859              	.LBE734:
 860              		.loc 1 377 0
 861 0062 9142     		cmp	r1, r2
 862              		.loc 1 374 0
 863 0064 0346     		mov	r3, r0
 864              	.LVL106:
 865              		.loc 1 377 0
 866 0066 02D0     		beq	.L165
 867              	.L141:
 868              		.loc 1 379 0
 869 0068 0023     		movs	r3, #0
 870 006a 2360     		str	r3, [r4]
 871              	.LBE730:
 872              		.loc 1 423 0
 873 006c F8BD     		pop	{r3, r4, r5, r6, r7, pc}
 874              	.LVL107:
 875              	.L165:
 876              	.LBB745:
 877              		.loc 1 377 0 discriminator 1
 878 006e 4168     		ldr	r1, [r0, #4]
 879 0070 B942     		cmp	r1, r7
 880 0072 F9D9     		bls	.L141
 881              		.loc 1 383 0
 882 0074 0C2A     		cmp	r2, #12
 883 0076 1BD0     		beq	.L144
 884 0078 11D9     		bls	.L166
 885 007a B2F1405F 		cmp	r2, #805306368
 886 007e 07D0     		beq	.L149
 887 0080 B2F1804F 		cmp	r2, #1073741824
 888 0084 04D0     		beq	.L149
 889 0086 B2F1005F 		cmp	r2, #536870912
 890 008a 01D0     		beq	.L149
 891              	.LVL108:
 892              	.L143:
 893              		.loc 1 420 0
 894 008c 2560     		str	r5, [r4]
 895              	.LBE745:
 896              		.loc 1 423 0
 897 008e F8BD     		pop	{r3, r4, r5, r6, r7, pc}
 898              	.LVL109:
 899              	.L149:
 900              	.LBB746:
 901              	.LBB735:
 902              		.loc 1 413 0
 903 0090 3046     		mov	r0, r6
 904              	.LVL110:
 905 0092 9E68     		ldr	r6, [r3, #8]
 906              	.LVL111:
 907 0094 FFF7FEFF 		bl	lbm_car
 908              	.LVL112:
 909 0098 46F82700 		str	r0, [r6, r7, lsl #2]
 910              		.loc 1 414 0
 911 009c F6E7     		b	.L143
 912              	.LVL113:
ARM GAS  /tmp/ccMboyVS.s 			page 17


 913              	.L166:
 914              	.LBE735:
 915              		.loc 1 383 0
 916 009e 042A     		cmp	r2, #4
 917 00a0 0BD0     		beq	.L146
 918 00a2 082A     		cmp	r2, #8
 919 00a4 F2D1     		bne	.L143
 920              	.LVL114:
 921              	.LBB736:
 922              		.loc 1 391 0
 923 00a6 8368     		ldr	r3, [r0, #8]
 924              	.LBB737:
 925              	.LBB738:
 926              		.loc 2 521 0
 927 00a8 3609     		lsrs	r6, r6, #4
 928              	.LVL115:
 929              	.LBE738:
 930              	.LBE737:
 931              		.loc 1 391 0
 932 00aa 43F82760 		str	r6, [r3, r7, lsl #2]
 933              		.loc 1 392 0
 934 00ae EDE7     		b	.L143
 935              	.LVL116:
 936              	.L144:
 937              	.LBE736:
 938              	.LBB739:
 939              		.loc 1 396 0
 940 00b0 8368     		ldr	r3, [r0, #8]
 941              	.LBB740:
 942              	.LBB741:
 943              		.loc 2 517 0
 944 00b2 3611     		asrs	r6, r6, #4
 945              	.LVL117:
 946              	.LBE741:
 947              	.LBE740:
 948              		.loc 1 396 0
 949 00b4 43F82760 		str	r6, [r3, r7, lsl #2]
 950              		.loc 1 397 0
 951 00b8 E8E7     		b	.L143
 952              	.LVL118:
 953              	.L146:
 954              	.LBE739:
 955              	.LBB742:
 956              		.loc 1 386 0
 957 00ba 8368     		ldr	r3, [r0, #8]
 958              	.LBB743:
 959              	.LBB744:
 960              		.loc 2 525 0
 961 00bc 3609     		lsrs	r6, r6, #4
 962              	.LVL119:
 963 00be DE55     		strb	r6, [r3, r7]
 964              	.LVL120:
 965              	.LBE744:
 966              	.LBE743:
 967              		.loc 1 387 0
 968 00c0 E4E7     		b	.L143
 969              	.LBE742:
ARM GAS  /tmp/ccMboyVS.s 			page 18


 970              	.LBE746:
 971              		.cfi_endproc
 972              	.LFE58:
 973              		.size	array_write, .-array_write
 974 00c2 00BF     		.section	.text.index_list,"ax",%progbits
 975              		.align	1
 976              		.p2align 4,,15
 977              		.global	index_list
 978              		.syntax unified
 979              		.thumb
 980              		.thumb_func
 981              		.fpu fpv4-sp-d16
 982              		.type	index_list, %function
 983              	index_list:
 984              	.LFB59:
 985              		.loc 1 434 0
 986              		.cfi_startproc
 987              		@ args = 0, pretend = 0, frame = 0
 988              		@ frame_needed = 0, uses_anonymous_args = 0
 989              	.LVL121:
 990              	.LBB747:
 991              	.LBB748:
 992              		.loc 2 461 0
 993 0000 C307     		lsls	r3, r0, #31
 994 0002 01D4     		bmi	.L188
 995              	.LVL122:
 996              	.L184:
 997              	.LBE748:
 998              	.LBE747:
 999              		.loc 1 446 0
 1000 0004 0020     		movs	r0, #0
 1001              	.LVL123:
 1002 0006 7047     		bx	lr
 1003              	.LVL124:
 1004              	.L188:
 1005              	.LBB752:
 1006              	.LBB749:
 1007              		.loc 2 461 0
 1008 0008 00F07C43 		and	r3, r0, #-67108864
 1009              	.LBE749:
 1010              	.LBE752:
 1011              		.loc 1 436 0
 1012 000c B3F1805F 		cmp	r3, #268435456
 1013 0010 F8D1     		bne	.L184
 1014              		.loc 1 434 0
 1015 0012 10B5     		push	{r4, lr}
 1016              		.cfi_def_cfa_offset 8
 1017              		.cfi_offset 4, -8
 1018              		.cfi_offset 14, -4
 1019 0014 0C46     		mov	r4, r1
 1020              		.loc 1 436 0
 1021 0016 74B1     		cbz	r4, .L169
 1022              	.LVL125:
 1023              	.L190:
 1024              		.loc 1 438 0
 1025 0018 FFF7FEFF 		bl	lbm_cdr
 1026              	.LVL126:
ARM GAS  /tmp/ccMboyVS.s 			page 19


 1027              	.LBB753:
 1028              	.LBB750:
 1029              		.loc 2 461 0
 1030 001c C207     		lsls	r2, r0, #31
 1031 001e 00F07C43 		and	r3, r0, #-67108864
 1032              	.LBE750:
 1033              	.LBE753:
 1034              		.loc 1 439 0
 1035 0022 04F1FF34 		add	r4, r4, #-1
 1036              	.LVL127:
 1037              	.LBB754:
 1038              	.LBB751:
 1039              		.loc 2 461 0
 1040 0026 01D4     		bmi	.L189
 1041              	.L178:
 1042              	.LBE751:
 1043              	.LBE754:
 1044              		.loc 1 446 0
 1045 0028 0020     		movs	r0, #0
 1046              	.LVL128:
 1047 002a 10BD     		pop	{r4, pc}
 1048              	.LVL129:
 1049              	.L189:
 1050              		.loc 1 436 0
 1051 002c B3F1805F 		cmp	r3, #268435456
 1052 0030 FAD1     		bne	.L178
 1053 0032 002C     		cmp	r4, #0
 1054 0034 F0D1     		bne	.L190
 1055              	.LVL130:
 1056              	.L169:
 1057              		.loc 1 446 0
 1058 0036 BDE81040 		pop	{r4, lr}
 1059              		.cfi_restore 14
 1060              		.cfi_restore 4
 1061              		.cfi_def_cfa_offset 0
 1062              		.loc 1 442 0
 1063 003a FFF7FEBF 		b	lbm_car
 1064              	.LVL131:
 1065              		.cfi_endproc
 1066              	.LFE59:
 1067              		.size	index_list, .-index_list
 1068 003e 00BF     		.section	.text.lbm_fundamental,"ax",%progbits
 1069              		.align	1
 1070              		.p2align 4,,15
 1071              		.global	lbm_fundamental
 1072              		.syntax unified
 1073              		.thumb
 1074              		.thumb_func
 1075              		.fpu fpv4-sp-d16
 1076              		.type	lbm_fundamental, %function
 1077              	lbm_fundamental:
 1078              	.LFB60:
 1079              		.loc 1 448 0
 1080              		.cfi_startproc
 1081              		@ args = 0, pretend = 0, frame = 16
 1082              		@ frame_needed = 0, uses_anonymous_args = 0
 1083              	.LVL132:
ARM GAS  /tmp/ccMboyVS.s 			page 20


 1084 0000 2DE9F04F 		push	{r4, r5, r6, r7, r8, r9, r10, fp, lr}
 1085              		.cfi_def_cfa_offset 36
 1086              		.cfi_offset 4, -36
 1087              		.cfi_offset 5, -32
 1088              		.cfi_offset 6, -28
 1089              		.cfi_offset 7, -24
 1090              		.cfi_offset 8, -20
 1091              		.cfi_offset 9, -16
 1092              		.cfi_offset 10, -12
 1093              		.cfi_offset 11, -8
 1094              		.cfi_offset 14, -4
 1095 0004 2DED028B 		vpush.64	{d8}
 1096              		.cfi_def_cfa_offset 44
 1097              		.cfi_offset 80, -44
 1098              		.cfi_offset 81, -40
 1099              	.LBB1141:
 1100              	.LBB1142:
 1101              		.loc 2 529 0
 1102 0008 1209     		lsrs	r2, r2, #4
 1103              	.LVL133:
 1104              	.LBE1142:
 1105              	.LBE1141:
 1106              		.loc 1 448 0
 1107 000a 85B0     		sub	sp, sp, #20
 1108              		.cfi_def_cfa_offset 64
 1109              		.loc 1 450 0
 1110 000c 9023     		movs	r3, #144
 1111              		.loc 1 453 0
 1112 000e A2F58072 		sub	r2, r2, #256
 1113              		.loc 1 448 0
 1114 0012 0E46     		mov	r6, r1
 1115              		.loc 1 450 0
 1116 0014 0293     		str	r3, [sp, #8]
 1117              	.LVL134:
 1118              		.loc 1 453 0
 1119 0016 B2F5807F 		cmp	r2, #256
 1120 001a 00F2D282 		bhi	.L482
 1121 001e DFE812F0 		tbh	[pc, r2, lsl #1]
 1122              	.L194:
 1123 0022 4C01     		.2byte	(.L193-.L194)/2
 1124 0024 E301     		.2byte	(.L195-.L194)/2
 1125 0026 7401     		.2byte	(.L196-.L194)/2
 1126 0028 0F02     		.2byte	(.L197-.L194)/2
 1127 002a 2501     		.2byte	(.L198-.L194)/2
 1128 002c 7202     		.2byte	(.L199-.L194)/2
 1129 002e 0101     		.2byte	(.L483-.L194)/2
 1130 0030 CD02     		.2byte	(.L201-.L194)/2
 1131 0032 A102     		.2byte	(.L202-.L194)/2
 1132 0034 D002     		.2byte	(.L482-.L194)/2
 1133 0036 D002     		.2byte	(.L482-.L194)/2
 1134 0038 D002     		.2byte	(.L482-.L194)/2
 1135 003a D002     		.2byte	(.L482-.L194)/2
 1136 003c D002     		.2byte	(.L482-.L194)/2
 1137 003e D002     		.2byte	(.L482-.L194)/2
 1138 0040 D002     		.2byte	(.L482-.L194)/2
 1139 0042 D002     		.2byte	(.L482-.L194)/2
 1140 0044 D002     		.2byte	(.L482-.L194)/2
ARM GAS  /tmp/ccMboyVS.s 			page 21


 1141 0046 BD02     		.2byte	(.L203-.L194)/2
 1142 0048 D002     		.2byte	(.L482-.L194)/2
 1143 004a D002     		.2byte	(.L482-.L194)/2
 1144 004c D002     		.2byte	(.L482-.L194)/2
 1145 004e D002     		.2byte	(.L482-.L194)/2
 1146 0050 D002     		.2byte	(.L482-.L194)/2
 1147 0052 D002     		.2byte	(.L482-.L194)/2
 1148 0054 D002     		.2byte	(.L482-.L194)/2
 1149 0056 D002     		.2byte	(.L482-.L194)/2
 1150 0058 D002     		.2byte	(.L482-.L194)/2
 1151 005a D002     		.2byte	(.L482-.L194)/2
 1152 005c D002     		.2byte	(.L482-.L194)/2
 1153 005e D002     		.2byte	(.L482-.L194)/2
 1154 0060 D002     		.2byte	(.L482-.L194)/2
 1155 0062 6702     		.2byte	(.L204-.L194)/2
 1156 0064 B102     		.2byte	(.L205-.L194)/2
 1157 0066 5302     		.2byte	(.L206-.L194)/2
 1158 0068 9C01     		.2byte	(.L207-.L194)/2
 1159 006a 6D02     		.2byte	(.L208-.L194)/2
 1160 006c D002     		.2byte	(.L482-.L194)/2
 1161 006e D002     		.2byte	(.L482-.L194)/2
 1162 0070 D002     		.2byte	(.L482-.L194)/2
 1163 0072 D002     		.2byte	(.L482-.L194)/2
 1164 0074 D002     		.2byte	(.L482-.L194)/2
 1165 0076 D002     		.2byte	(.L482-.L194)/2
 1166 0078 D002     		.2byte	(.L482-.L194)/2
 1167 007a D002     		.2byte	(.L482-.L194)/2
 1168 007c D002     		.2byte	(.L482-.L194)/2
 1169 007e D002     		.2byte	(.L482-.L194)/2
 1170 0080 D002     		.2byte	(.L482-.L194)/2
 1171 0082 9C02     		.2byte	(.L209-.L194)/2
 1172 0084 9702     		.2byte	(.L210-.L194)/2
 1173 0086 D002     		.2byte	(.L482-.L194)/2
 1174 0088 D002     		.2byte	(.L482-.L194)/2
 1175 008a D002     		.2byte	(.L482-.L194)/2
 1176 008c D002     		.2byte	(.L482-.L194)/2
 1177 008e D002     		.2byte	(.L482-.L194)/2
 1178 0090 D002     		.2byte	(.L482-.L194)/2
 1179 0092 D002     		.2byte	(.L482-.L194)/2
 1180 0094 D002     		.2byte	(.L482-.L194)/2
 1181 0096 D002     		.2byte	(.L482-.L194)/2
 1182 0098 D002     		.2byte	(.L482-.L194)/2
 1183 009a D002     		.2byte	(.L482-.L194)/2
 1184 009c D002     		.2byte	(.L482-.L194)/2
 1185 009e D002     		.2byte	(.L482-.L194)/2
 1186 00a0 D002     		.2byte	(.L482-.L194)/2
 1187 00a2 A402     		.2byte	(.L211-.L194)/2
 1188 00a4 4E02     		.2byte	(.L212-.L194)/2
 1189 00a6 3F02     		.2byte	(.L213-.L194)/2
 1190 00a8 8B02     		.2byte	(.L214-.L194)/2
 1191 00aa D002     		.2byte	(.L482-.L194)/2
 1192 00ac 5D02     		.2byte	(.L215-.L194)/2
 1193 00ae 5802     		.2byte	(.L216-.L194)/2
 1194 00b0 D002     		.2byte	(.L482-.L194)/2
 1195 00b2 D002     		.2byte	(.L482-.L194)/2
 1196 00b4 D002     		.2byte	(.L482-.L194)/2
 1197 00b6 D002     		.2byte	(.L482-.L194)/2
ARM GAS  /tmp/ccMboyVS.s 			page 22


 1198 00b8 D002     		.2byte	(.L482-.L194)/2
 1199 00ba D002     		.2byte	(.L482-.L194)/2
 1200 00bc D002     		.2byte	(.L482-.L194)/2
 1201 00be D002     		.2byte	(.L482-.L194)/2
 1202 00c0 D002     		.2byte	(.L482-.L194)/2
 1203 00c2 CD01     		.2byte	(.L217-.L194)/2
 1204 00c4 C301     		.2byte	(.L218-.L194)/2
 1205 00c6 C801     		.2byte	(.L219-.L194)/2
 1206 00c8 BE01     		.2byte	(.L220-.L194)/2
 1207 00ca B901     		.2byte	(.L221-.L194)/2
 1208 00cc 3A02     		.2byte	(.L222-.L194)/2
 1209 00ce D002     		.2byte	(.L482-.L194)/2
 1210 00d0 D002     		.2byte	(.L482-.L194)/2
 1211 00d2 D002     		.2byte	(.L482-.L194)/2
 1212 00d4 D002     		.2byte	(.L482-.L194)/2
 1213 00d6 D002     		.2byte	(.L482-.L194)/2
 1214 00d8 D002     		.2byte	(.L482-.L194)/2
 1215 00da D002     		.2byte	(.L482-.L194)/2
 1216 00dc D002     		.2byte	(.L482-.L194)/2
 1217 00de D002     		.2byte	(.L482-.L194)/2
 1218 00e0 D002     		.2byte	(.L482-.L194)/2
 1219 00e2 D002     		.2byte	(.L482-.L194)/2
 1220 00e4 D002     		.2byte	(.L482-.L194)/2
 1221 00e6 D002     		.2byte	(.L482-.L194)/2
 1222 00e8 D002     		.2byte	(.L482-.L194)/2
 1223 00ea D002     		.2byte	(.L482-.L194)/2
 1224 00ec D002     		.2byte	(.L482-.L194)/2
 1225 00ee D002     		.2byte	(.L482-.L194)/2
 1226 00f0 D002     		.2byte	(.L482-.L194)/2
 1227 00f2 D002     		.2byte	(.L482-.L194)/2
 1228 00f4 D002     		.2byte	(.L482-.L194)/2
 1229 00f6 D002     		.2byte	(.L482-.L194)/2
 1230 00f8 D002     		.2byte	(.L482-.L194)/2
 1231 00fa D002     		.2byte	(.L482-.L194)/2
 1232 00fc D002     		.2byte	(.L482-.L194)/2
 1233 00fe D002     		.2byte	(.L482-.L194)/2
 1234 0100 D002     		.2byte	(.L482-.L194)/2
 1235 0102 D002     		.2byte	(.L482-.L194)/2
 1236 0104 D002     		.2byte	(.L482-.L194)/2
 1237 0106 D002     		.2byte	(.L482-.L194)/2
 1238 0108 D002     		.2byte	(.L482-.L194)/2
 1239 010a D002     		.2byte	(.L482-.L194)/2
 1240 010c D002     		.2byte	(.L482-.L194)/2
 1241 010e D002     		.2byte	(.L482-.L194)/2
 1242 0110 D002     		.2byte	(.L482-.L194)/2
 1243 0112 D002     		.2byte	(.L482-.L194)/2
 1244 0114 D002     		.2byte	(.L482-.L194)/2
 1245 0116 D002     		.2byte	(.L482-.L194)/2
 1246 0118 D002     		.2byte	(.L482-.L194)/2
 1247 011a D002     		.2byte	(.L482-.L194)/2
 1248 011c D002     		.2byte	(.L482-.L194)/2
 1249 011e D002     		.2byte	(.L482-.L194)/2
 1250 0120 D002     		.2byte	(.L482-.L194)/2
 1251 0122 D002     		.2byte	(.L482-.L194)/2
 1252 0124 D002     		.2byte	(.L482-.L194)/2
 1253 0126 D002     		.2byte	(.L482-.L194)/2
 1254 0128 D002     		.2byte	(.L482-.L194)/2
ARM GAS  /tmp/ccMboyVS.s 			page 23


 1255 012a D002     		.2byte	(.L482-.L194)/2
 1256 012c D002     		.2byte	(.L482-.L194)/2
 1257 012e D002     		.2byte	(.L482-.L194)/2
 1258 0130 D002     		.2byte	(.L482-.L194)/2
 1259 0132 D002     		.2byte	(.L482-.L194)/2
 1260 0134 D002     		.2byte	(.L482-.L194)/2
 1261 0136 D002     		.2byte	(.L482-.L194)/2
 1262 0138 D002     		.2byte	(.L482-.L194)/2
 1263 013a D002     		.2byte	(.L482-.L194)/2
 1264 013c D002     		.2byte	(.L482-.L194)/2
 1265 013e D002     		.2byte	(.L482-.L194)/2
 1266 0140 D002     		.2byte	(.L482-.L194)/2
 1267 0142 D002     		.2byte	(.L482-.L194)/2
 1268 0144 D002     		.2byte	(.L482-.L194)/2
 1269 0146 D002     		.2byte	(.L482-.L194)/2
 1270 0148 D002     		.2byte	(.L482-.L194)/2
 1271 014a D002     		.2byte	(.L482-.L194)/2
 1272 014c D002     		.2byte	(.L482-.L194)/2
 1273 014e D002     		.2byte	(.L482-.L194)/2
 1274 0150 D002     		.2byte	(.L482-.L194)/2
 1275 0152 D002     		.2byte	(.L482-.L194)/2
 1276 0154 D002     		.2byte	(.L482-.L194)/2
 1277 0156 D002     		.2byte	(.L482-.L194)/2
 1278 0158 D002     		.2byte	(.L482-.L194)/2
 1279 015a D002     		.2byte	(.L482-.L194)/2
 1280 015c D002     		.2byte	(.L482-.L194)/2
 1281 015e D002     		.2byte	(.L482-.L194)/2
 1282 0160 D002     		.2byte	(.L482-.L194)/2
 1283 0162 D002     		.2byte	(.L482-.L194)/2
 1284 0164 D002     		.2byte	(.L482-.L194)/2
 1285 0166 D002     		.2byte	(.L482-.L194)/2
 1286 0168 D002     		.2byte	(.L482-.L194)/2
 1287 016a D002     		.2byte	(.L482-.L194)/2
 1288 016c D002     		.2byte	(.L482-.L194)/2
 1289 016e D002     		.2byte	(.L482-.L194)/2
 1290 0170 D002     		.2byte	(.L482-.L194)/2
 1291 0172 D002     		.2byte	(.L482-.L194)/2
 1292 0174 D002     		.2byte	(.L482-.L194)/2
 1293 0176 D002     		.2byte	(.L482-.L194)/2
 1294 0178 D002     		.2byte	(.L482-.L194)/2
 1295 017a D002     		.2byte	(.L482-.L194)/2
 1296 017c D002     		.2byte	(.L482-.L194)/2
 1297 017e D002     		.2byte	(.L482-.L194)/2
 1298 0180 D002     		.2byte	(.L482-.L194)/2
 1299 0182 D002     		.2byte	(.L482-.L194)/2
 1300 0184 D002     		.2byte	(.L482-.L194)/2
 1301 0186 D002     		.2byte	(.L482-.L194)/2
 1302 0188 D002     		.2byte	(.L482-.L194)/2
 1303 018a D002     		.2byte	(.L482-.L194)/2
 1304 018c D002     		.2byte	(.L482-.L194)/2
 1305 018e D002     		.2byte	(.L482-.L194)/2
 1306 0190 D002     		.2byte	(.L482-.L194)/2
 1307 0192 D002     		.2byte	(.L482-.L194)/2
 1308 0194 D002     		.2byte	(.L482-.L194)/2
 1309 0196 D002     		.2byte	(.L482-.L194)/2
 1310 0198 D002     		.2byte	(.L482-.L194)/2
 1311 019a D002     		.2byte	(.L482-.L194)/2
ARM GAS  /tmp/ccMboyVS.s 			page 24


 1312 019c D002     		.2byte	(.L482-.L194)/2
 1313 019e D002     		.2byte	(.L482-.L194)/2
 1314 01a0 D002     		.2byte	(.L482-.L194)/2
 1315 01a2 D002     		.2byte	(.L482-.L194)/2
 1316 01a4 D002     		.2byte	(.L482-.L194)/2
 1317 01a6 D002     		.2byte	(.L482-.L194)/2
 1318 01a8 D002     		.2byte	(.L482-.L194)/2
 1319 01aa D002     		.2byte	(.L482-.L194)/2
 1320 01ac D002     		.2byte	(.L482-.L194)/2
 1321 01ae D002     		.2byte	(.L482-.L194)/2
 1322 01b0 D002     		.2byte	(.L482-.L194)/2
 1323 01b2 D002     		.2byte	(.L482-.L194)/2
 1324 01b4 D002     		.2byte	(.L482-.L194)/2
 1325 01b6 D002     		.2byte	(.L482-.L194)/2
 1326 01b8 D002     		.2byte	(.L482-.L194)/2
 1327 01ba D002     		.2byte	(.L482-.L194)/2
 1328 01bc D002     		.2byte	(.L482-.L194)/2
 1329 01be D002     		.2byte	(.L482-.L194)/2
 1330 01c0 D002     		.2byte	(.L482-.L194)/2
 1331 01c2 D002     		.2byte	(.L482-.L194)/2
 1332 01c4 D002     		.2byte	(.L482-.L194)/2
 1333 01c6 D002     		.2byte	(.L482-.L194)/2
 1334 01c8 D002     		.2byte	(.L482-.L194)/2
 1335 01ca D002     		.2byte	(.L482-.L194)/2
 1336 01cc D002     		.2byte	(.L482-.L194)/2
 1337 01ce D002     		.2byte	(.L482-.L194)/2
 1338 01d0 D002     		.2byte	(.L482-.L194)/2
 1339 01d2 D002     		.2byte	(.L482-.L194)/2
 1340 01d4 D002     		.2byte	(.L482-.L194)/2
 1341 01d6 D002     		.2byte	(.L482-.L194)/2
 1342 01d8 D002     		.2byte	(.L482-.L194)/2
 1343 01da D002     		.2byte	(.L482-.L194)/2
 1344 01dc D002     		.2byte	(.L482-.L194)/2
 1345 01de D002     		.2byte	(.L482-.L194)/2
 1346 01e0 D002     		.2byte	(.L482-.L194)/2
 1347 01e2 D002     		.2byte	(.L482-.L194)/2
 1348 01e4 D002     		.2byte	(.L482-.L194)/2
 1349 01e6 D002     		.2byte	(.L482-.L194)/2
 1350 01e8 D002     		.2byte	(.L482-.L194)/2
 1351 01ea D002     		.2byte	(.L482-.L194)/2
 1352 01ec D002     		.2byte	(.L482-.L194)/2
 1353 01ee D002     		.2byte	(.L482-.L194)/2
 1354 01f0 D002     		.2byte	(.L482-.L194)/2
 1355 01f2 D002     		.2byte	(.L482-.L194)/2
 1356 01f4 D002     		.2byte	(.L482-.L194)/2
 1357 01f6 D002     		.2byte	(.L482-.L194)/2
 1358 01f8 D002     		.2byte	(.L482-.L194)/2
 1359 01fa D002     		.2byte	(.L482-.L194)/2
 1360 01fc D002     		.2byte	(.L482-.L194)/2
 1361 01fe D002     		.2byte	(.L482-.L194)/2
 1362 0200 D002     		.2byte	(.L482-.L194)/2
 1363 0202 D002     		.2byte	(.L482-.L194)/2
 1364 0204 D002     		.2byte	(.L482-.L194)/2
 1365 0206 D002     		.2byte	(.L482-.L194)/2
 1366 0208 D002     		.2byte	(.L482-.L194)/2
 1367 020a D002     		.2byte	(.L482-.L194)/2
 1368 020c D002     		.2byte	(.L482-.L194)/2
ARM GAS  /tmp/ccMboyVS.s 			page 25


 1369 020e D002     		.2byte	(.L482-.L194)/2
 1370 0210 D002     		.2byte	(.L482-.L194)/2
 1371 0212 D002     		.2byte	(.L482-.L194)/2
 1372 0214 D002     		.2byte	(.L482-.L194)/2
 1373 0216 D002     		.2byte	(.L482-.L194)/2
 1374 0218 D002     		.2byte	(.L482-.L194)/2
 1375 021a D002     		.2byte	(.L482-.L194)/2
 1376 021c D002     		.2byte	(.L482-.L194)/2
 1377 021e D002     		.2byte	(.L482-.L194)/2
 1378 0220 D002     		.2byte	(.L482-.L194)/2
 1379 0222 6202     		.2byte	(.L223-.L194)/2
 1380              		.p2align 1
 1381              	.L483:
 1382              	.LBB1143:
 1383              		.loc 1 763 0
 1384 0224 4FF00009 		mov	r9, #0
 1385              	.L200:
 1386              	.LVL135:
 1387              	.LBB1144:
 1388              		.loc 1 769 0
 1389 0228 D0F80080 		ldr	r8, [r0]
 1390              	.LVL136:
 1391              	.LBB1145:
 1392              	.LBB1146:
 1393              	.LBB1147:
 1394              	.LBB1148:
 1395              		.loc 2 461 0
 1396 022c 18F0010F 		tst	r8, #1
 1397 0230 14BF     		ite	ne
 1398 0232 08F07C47 		andne	r7, r8, #-67108864
 1399 0236 08F00C07 		andeq	r7, r8, #12
 1400              	.LVL137:
 1401              	.LBE1148:
 1402              	.LBE1147:
 1403              		.loc 2 561 0
 1404 023a 082F     		cmp	r7, #8
 1405 023c 00F0CA82 		beq	.L421
 1406              		.loc 2 562 0
 1407 0240 27F00803 		bic	r3, r7, #8
 1408 0244 042B     		cmp	r3, #4
 1409 0246 00F0C582 		beq	.L421
 1410              		.loc 2 564 0
 1411 024a 27F08053 		bic	r3, r7, #268435456
 1412 024e B3F1005F 		cmp	r3, #536870912
 1413 0252 00F0BF82 		beq	.L421
 1414              		.loc 2 565 0
 1415 0256 B7F1804F 		cmp	r7, #1073741824
 1416 025a 00F0BB82 		beq	.L421
 1417              	.LVL138:
 1418              	.L422:
 1419              	.LBE1146:
 1420              	.LBE1145:
 1421              	.LBE1144:
 1422              		.loc 1 559 0
 1423 025e 8024     		movs	r4, #128
 1424              	.LVL139:
 1425              	.L191:
ARM GAS  /tmp/ccMboyVS.s 			page 26


 1426              	.LBE1143:
 1427              		.loc 1 853 0
 1428 0260 2046     		mov	r0, r4
 1429 0262 05B0     		add	sp, sp, #20
 1430              		.cfi_remember_state
 1431              		.cfi_def_cfa_offset 44
 1432              		@ sp needed
 1433 0264 BDEC028B 		vldm	sp!, {d8}
 1434              		.cfi_restore 80
 1435              		.cfi_restore 81
 1436              		.cfi_def_cfa_offset 36
 1437 0268 BDE8F08F 		pop	{r4, r5, r6, r7, r8, r9, r10, fp, pc}
 1438              	.LVL140:
 1439              	.L198:
 1440              		.cfi_restore_state
 1441              	.LBB1919:
 1442              	.LBB1188:
 1443              	.LBB1189:
 1444              		.loc 1 737 0
 1445 026c 0129     		cmp	r1, #1
 1446              	.LBE1189:
 1447              		.loc 1 736 0
 1448 026e 0468     		ldr	r4, [r0]
 1449              	.LVL141:
 1450              	.LBB1278:
 1451              		.loc 1 737 0
 1452 0270 F6D9     		bls	.L191
 1453              	.LBB1190:
 1454              	.LBB1191:
 1455              	.LBB1192:
 1456              	.LBB1193:
 1457              	.LBB1194:
 1458              	.LBB1195:
 1459              		.loc 2 477 0
 1460 0272 C74D     		ldr	r5, .L987
 1461 0274 DFF81C83 		ldr	r8, .L987+4
 1462              	.LBE1195:
 1463              	.LBE1194:
 1464              	.LBE1193:
 1465              	.LBE1192:
 1466              	.LBB1204:
 1467              	.LBB1205:
 1468              	.LBB1206:
 1469              	.LBB1207:
 1470 0278 DFF81CB3 		ldr	fp, .L987+8
 1471 027c 8146     		mov	r9, r0
 1472              	.LBE1207:
 1473              	.LBE1206:
 1474              	.LBE1205:
 1475              	.LBE1204:
 1476              	.LBE1191:
 1477              	.LBE1190:
 1478              		.loc 1 737 0
 1479 027e 4FF0010A 		mov	r10, #1
 1480              	.LVL142:
 1481              	.L413:
 1482              	.LBB1265:
ARM GAS  /tmp/ccMboyVS.s 			page 27


 1483              	.LBB1252:
 1484              	.LBB1217:
 1485              	.LBB1218:
 1486              	.LBB1219:
 1487              	.LBB1220:
 1488              		.loc 2 461 0
 1489 0282 E307     		lsls	r3, r4, #31
 1490 0284 4CBF     		ite	mi
 1491 0286 04F07C43 		andmi	r3, r4, #-67108864
 1492 028a 04F00C03 		andpl	r3, r4, #12
 1493              	.LBE1220:
 1494              	.LBE1219:
 1495              		.loc 2 561 0
 1496 028e 082B     		cmp	r3, #8
 1497              	.LBE1218:
 1498              	.LBE1217:
 1499              	.LBE1252:
 1500              	.LBE1265:
 1501              		.loc 1 738 0
 1502 0290 59F8047F 		ldr	r7, [r9, #4]!
 1503              	.LVL143:
 1504              	.LBB1266:
 1505              	.LBB1253:
 1506              	.LBB1222:
 1507              	.LBB1221:
 1508              		.loc 2 561 0
 1509 0294 00F0AD81 		beq	.L393
 1510              		.loc 2 562 0
 1511 0298 23F00802 		bic	r2, r3, #8
 1512 029c 042A     		cmp	r2, #4
 1513 029e 00F0A881 		beq	.L393
 1514              		.loc 2 564 0
 1515 02a2 23F08052 		bic	r2, r3, #268435456
 1516 02a6 B2F1005F 		cmp	r2, #536870912
 1517 02aa 00F0A281 		beq	.L393
 1518              		.loc 2 565 0
 1519 02ae B3F1804F 		cmp	r3, #1073741824
 1520 02b2 00F09E81 		beq	.L393
 1521 02b6 8024     		movs	r4, #128
 1522              	.LVL144:
 1523 02b8 D2E7     		b	.L191
 1524              	.LVL145:
 1525              	.L193:
 1526              	.LBE1221:
 1527              	.LBE1222:
 1528              	.LBE1253:
 1529              	.LBE1266:
 1530              	.LBE1278:
 1531              	.LBE1188:
 1532              	.LBB1290:
 1533              		.loc 1 684 0
 1534 02ba 0824     		movs	r4, #8
 1535              	.LBB1291:
 1536              		.loc 1 685 0
 1537 02bc 0029     		cmp	r1, #0
 1538 02be CFD0     		beq	.L191
 1539              	.LBB1292:
ARM GAS  /tmp/ccMboyVS.s 			page 28


 1540              	.LBB1293:
 1541              	.LBB1294:
 1542              	.LBB1295:
 1543              	.LBB1296:
 1544              	.LBB1297:
 1545              		.loc 2 477 0
 1546 02c0 B34F     		ldr	r7, .L987
 1547 02c2 DFF8D092 		ldr	r9, .L987+4
 1548              	.LBE1297:
 1549              	.LBE1296:
 1550              	.LBE1295:
 1551              	.LBE1294:
 1552              	.LBB1306:
 1553              	.LBB1307:
 1554              	.LBB1308:
 1555              	.LBB1309:
 1556 02c6 DFF8D082 		ldr	r8, .L987+8
 1557 02ca 051F     		subs	r5, r0, #4
 1558              	.LBE1309:
 1559              	.LBE1308:
 1560              	.LBE1307:
 1561              	.LBE1306:
 1562              	.LBE1293:
 1563              	.LBE1292:
 1564              		.loc 1 685 0
 1565 02cc 4FF0000A 		mov	r10, #0
 1566              	.LBE1291:
 1567              		.loc 1 684 0
 1568 02d0 0824     		movs	r4, #8
 1569              	.LVL146:
 1570              	.L310:
 1571              	.LBB1374:
 1572              	.LBB1362:
 1573              	.LBB1350:
 1574              	.LBB1318:
 1575              	.LBB1319:
 1576              	.LBB1320:
 1577              	.LBB1321:
 1578              		.loc 2 461 0
 1579 02d2 E007     		lsls	r0, r4, #31
 1580 02d4 4CBF     		ite	mi
 1581 02d6 04F07C43 		andmi	r3, r4, #-67108864
 1582 02da 04F00C03 		andpl	r3, r4, #12
 1583              	.LBE1321:
 1584              	.LBE1320:
 1585              		.loc 2 561 0
 1586 02de 082B     		cmp	r3, #8
 1587              	.LBE1319:
 1588              	.LBE1318:
 1589              	.LBE1350:
 1590              	.LBE1362:
 1591              		.loc 1 686 0
 1592 02e0 55F804BF 		ldr	fp, [r5, #4]!
 1593              	.LVL147:
 1594              	.LBB1363:
 1595              	.LBB1351:
 1596              	.LBB1323:
ARM GAS  /tmp/ccMboyVS.s 			page 29


 1597              	.LBB1322:
 1598              		.loc 2 561 0
 1599 02e4 00F06F81 		beq	.L293
 1600              		.loc 2 562 0
 1601 02e8 23F00802 		bic	r2, r3, #8
 1602 02ec 042A     		cmp	r2, #4
 1603 02ee 00F06A81 		beq	.L293
 1604              		.loc 2 564 0
 1605 02f2 23F08052 		bic	r2, r3, #268435456
 1606 02f6 B2F1005F 		cmp	r2, #536870912
 1607 02fa 00F06481 		beq	.L293
 1608              		.loc 2 565 0
 1609 02fe B3F1804F 		cmp	r3, #1073741824
 1610 0302 00F06081 		beq	.L293
 1611 0306 8024     		movs	r4, #128
 1612              	.LVL148:
 1613 0308 AAE7     		b	.L191
 1614              	.LVL149:
 1615              	.L196:
 1616              	.LBE1322:
 1617              	.LBE1323:
 1618              	.LBE1351:
 1619              	.LBE1363:
 1620              	.LBE1374:
 1621              	.LBE1290:
 1622              	.LBB1385:
 1623              		.loc 1 710 0
 1624 030a 1824     		movs	r4, #24
 1625              	.LBB1386:
 1626              		.loc 1 711 0
 1627 030c 0029     		cmp	r1, #0
 1628 030e A7D0     		beq	.L191
 1629              	.LBB1387:
 1630              	.LBB1388:
 1631              	.LBB1389:
 1632              	.LBB1390:
 1633              	.LBB1391:
 1634              	.LBB1392:
 1635              		.loc 2 477 0
 1636 0310 9F4F     		ldr	r7, .L987
 1637 0312 DFF88092 		ldr	r9, .L987+4
 1638              	.LBE1392:
 1639              	.LBE1391:
 1640              	.LBE1390:
 1641              	.LBE1389:
 1642              	.LBB1401:
 1643              	.LBB1402:
 1644              	.LBB1403:
 1645              	.LBB1404:
 1646 0316 DFF88082 		ldr	r8, .L987+8
 1647 031a 051F     		subs	r5, r0, #4
 1648              	.LBE1404:
 1649              	.LBE1403:
 1650              	.LBE1402:
 1651              	.LBE1401:
 1652              	.LBE1388:
 1653              	.LBE1387:
ARM GAS  /tmp/ccMboyVS.s 			page 30


 1654              		.loc 1 711 0
 1655 031c 4FF0000A 		mov	r10, #0
 1656              	.LBE1386:
 1657              		.loc 1 710 0
 1658 0320 1824     		movs	r4, #24
 1659              	.LVL150:
 1660              	.L366:
 1661              	.LBB1467:
 1662              	.LBB1455:
 1663              	.LBB1443:
 1664              	.LBB1413:
 1665              	.LBB1414:
 1666              	.LBB1415:
 1667              	.LBB1416:
 1668              		.loc 2 461 0
 1669 0322 E307     		lsls	r3, r4, #31
 1670 0324 4CBF     		ite	mi
 1671 0326 04F07C43 		andmi	r3, r4, #-67108864
 1672 032a 04F00C03 		andpl	r3, r4, #12
 1673              	.LBE1416:
 1674              	.LBE1415:
 1675              		.loc 2 561 0
 1676 032e 082B     		cmp	r3, #8
 1677              	.LBE1414:
 1678              	.LBE1413:
 1679              	.LBE1443:
 1680              	.LBE1455:
 1681              		.loc 1 712 0
 1682 0330 55F804BF 		ldr	fp, [r5, #4]!
 1683              	.LVL151:
 1684              	.LBB1456:
 1685              	.LBB1444:
 1686              	.LBB1418:
 1687              	.LBB1417:
 1688              		.loc 2 561 0
 1689 0334 00F07281 		beq	.L349
 1690              		.loc 2 562 0
 1691 0338 23F00802 		bic	r2, r3, #8
 1692 033c 042A     		cmp	r2, #4
 1693 033e 00F06D81 		beq	.L349
 1694              		.loc 2 564 0
 1695 0342 23F08052 		bic	r2, r3, #268435456
 1696 0346 B2F1005F 		cmp	r2, #536870912
 1697 034a 00F06781 		beq	.L349
 1698              		.loc 2 565 0
 1699 034e B3F1804F 		cmp	r3, #1073741824
 1700 0352 00F06381 		beq	.L349
 1701 0356 8024     		movs	r4, #128
 1702              	.LVL152:
 1703 0358 82E7     		b	.L191
 1704              	.LVL153:
 1705              	.L207:
 1706              	.LBE1417:
 1707              	.LBE1418:
 1708              	.LBE1444:
 1709              	.LBE1456:
 1710              	.LBE1467:
ARM GAS  /tmp/ccMboyVS.s 			page 31


 1711              	.LBE1385:
 1712              		.loc 1 654 0
 1713 035a 0024     		movs	r4, #0
 1714 035c 0294     		str	r4, [sp, #8]
 1715              	.LVL154:
 1716              	.LBB1478:
 1717              		.loc 1 655 0
 1718 035e 0029     		cmp	r1, #0
 1719 0360 00F0E687 		beq	.L500
 1720 0364 00EB8107 		add	r7, r0, r1, lsl #2
 1721 0368 0125     		movs	r5, #1
 1722 036a 02E0     		b	.L285
 1723              	.LVL155:
 1724              	.L960:
 1725              		.loc 1 655 0 is_stmt 0 discriminator 2
 1726 036c AE42     		cmp	r6, r5
 1727 036e FFF477AF 		bcc	.L191
 1728              	.LVL156:
 1729              	.L285:
 1730              		.loc 1 656 0 is_stmt 1
 1731 0372 2146     		mov	r1, r4
 1732 0374 57F8040D 		ldr	r0, [r7, #-4]!
 1733 0378 FFF7FEFF 		bl	lbm_cons
 1734              	.LVL157:
 1735              	.LBB1479:
 1736              	.LBB1480:
 1737              		.loc 2 461 0
 1738 037c C307     		lsls	r3, r0, #31
 1739 037e 4CBF     		ite	mi
 1740 0380 00F07C43 		andmi	r3, r0, #-67108864
 1741 0384 00F00C03 		andpl	r3, r0, #12
 1742              	.LBE1480:
 1743              	.LBE1479:
 1744              		.loc 1 656 0
 1745 0388 0446     		mov	r4, r0
 1746 038a 0290     		str	r0, [sp, #8]
 1747              	.LVL158:
 1748              		.loc 1 655 0
 1749 038c 0135     		adds	r5, r5, #1
 1750              	.LVL159:
 1751              		.loc 1 657 0
 1752 038e 002B     		cmp	r3, #0
 1753 0390 ECD1     		bne	.L960
 1754              		.loc 1 655 0
 1755 0392 65E7     		b	.L191
 1756              	.LVL160:
 1757              	.L221:
 1758              	.LBE1478:
 1759              		.loc 1 536 0
 1760 0394 0129     		cmp	r1, #1
 1761 0396 00F03C85 		beq	.L961
 1762 039a 9024     		movs	r4, #144
 1763 039c 60E7     		b	.L191
 1764              	.L220:
 1765              		.loc 1 516 0
 1766 039e 0129     		cmp	r1, #1
 1767 03a0 00F09385 		beq	.L962
ARM GAS  /tmp/ccMboyVS.s 			page 32


 1768 03a4 9024     		movs	r4, #144
 1769 03a6 5BE7     		b	.L191
 1770              	.L218:
 1771              		.loc 1 455 0
 1772 03a8 0229     		cmp	r1, #2
 1773 03aa 00F07285 		beq	.L963
 1774 03ae 9024     		movs	r4, #144
 1775 03b0 56E7     		b	.L191
 1776              	.L219:
 1777              		.loc 1 496 0
 1778 03b2 0129     		cmp	r1, #1
 1779 03b4 00F0C985 		beq	.L964
 1780 03b8 9024     		movs	r4, #144
 1781 03ba 51E7     		b	.L191
 1782              	.L217:
 1783              		.loc 1 557 0
 1784 03bc 0029     		cmp	r1, #0
 1785 03be 00F0FB80 		beq	.L263
 1786              		.loc 1 558 0 discriminator 1
 1787 03c2 0368     		ldr	r3, [r0]
 1788              	.LVL161:
 1789              	.LBB1481:
 1790              	.LBB1482:
 1791              		.loc 2 461 0 discriminator 1
 1792 03c4 DD07     		lsls	r5, r3, #31
 1793 03c6 4CBF     		ite	mi
 1794 03c8 03F07C42 		andmi	r2, r3, #-67108864
 1795 03cc 03F00C02 		andpl	r2, r3, #12
 1796              	.LBE1482:
 1797              	.LBE1481:
 1798              		.loc 1 557 0 discriminator 1
 1799 03d0 002A     		cmp	r2, #0
 1800 03d2 40F0F180 		bne	.L263
 1801              	.LVL162:
 1802              	.LBB1483:
 1803              	.LBB1484:
 1804              	.LBB1485:
 1805              	.LBB1486:
 1806              		.loc 2 529 0
 1807 03d6 1B09     		lsrs	r3, r3, #4
 1808              	.LVL163:
 1809              	.LBE1486:
 1810              	.LBE1485:
 1811              		.loc 2 580 0
 1812 03d8 A3F58073 		sub	r3, r3, #256
 1813 03dc B3F5807F 		cmp	r3, #256
 1814 03e0 00F2EA80 		bhi	.L263
 1815              	.LVL164:
 1816              	.L267:
 1817              	.LBE1484:
 1818              	.LBE1483:
 1819 03e4 2024     		movs	r4, #32
 1820 03e6 3BE7     		b	.L191
 1821              	.LVL165:
 1822              	.L195:
 1823              	.LBB1487:
 1824              		.loc 1 695 0
ARM GAS  /tmp/ccMboyVS.s 			page 33


 1825 03e8 0029     		cmp	r1, #0
 1826 03ea 00F07184 		beq	.L503
 1827              		.loc 1 697 0 discriminator 2
 1828 03ee 0129     		cmp	r1, #1
 1829              		.loc 1 695 0 discriminator 2
 1830 03f0 0468     		ldr	r4, [r0]
 1831              	.LVL166:
 1832              		.loc 1 697 0 discriminator 2
 1833 03f2 00F01B87 		beq	.L965
 1834              	.LVL167:
 1835              	.LBB1488:
 1836              	.LBB1489:
 1837              	.LBB1490:
 1838              	.LBB1491:
 1839              	.LBB1492:
 1840              	.LBB1493:
 1841              	.LBB1494:
 1842              		.loc 2 477 0
 1843 03f6 DFF898B1 		ldr	fp, .L987
 1844 03fa DFF89891 		ldr	r9, .L987+4
 1845              	.LBE1494:
 1846              	.LBE1493:
 1847              	.LBE1492:
 1848              	.LBE1491:
 1849              	.LBB1503:
 1850              	.LBB1504:
 1851              	.LBB1505:
 1852              	.LBB1506:
 1853 03fe DFF89881 		ldr	r8, .L987+8
 1854 0402 0546     		mov	r5, r0
 1855              	.LBE1506:
 1856              	.LBE1505:
 1857              	.LBE1504:
 1858              	.LBE1503:
 1859              	.LBE1490:
 1860              	.LBE1489:
 1861              	.LBE1488:
 1862              		.loc 1 697 0
 1863 0404 4FF0010A 		mov	r10, #1
 1864              	.LVL168:
 1865              	.L346:
 1866              	.LBB1565:
 1867              	.LBB1555:
 1868              	.LBB1545:
 1869              	.LBB1515:
 1870              	.LBB1516:
 1871              	.LBB1517:
 1872              	.LBB1518:
 1873              		.loc 2 461 0
 1874 0408 E307     		lsls	r3, r4, #31
 1875 040a 4CBF     		ite	mi
 1876 040c 04F07C43 		andmi	r3, r4, #-67108864
 1877 0410 04F00C03 		andpl	r3, r4, #12
 1878              	.LBE1518:
 1879              	.LBE1517:
 1880              		.loc 2 561 0
 1881 0414 082B     		cmp	r3, #8
ARM GAS  /tmp/ccMboyVS.s 			page 34


 1882              	.LBE1516:
 1883              	.LBE1515:
 1884              	.LBE1545:
 1885              	.LBE1555:
 1886              		.loc 1 701 0
 1887 0416 55F8047F 		ldr	r7, [r5, #4]!
 1888              	.LVL169:
 1889              	.LBB1556:
 1890              	.LBB1546:
 1891              	.LBB1520:
 1892              	.LBB1519:
 1893              		.loc 2 561 0
 1894 041a 00F01581 		beq	.L329
 1895              		.loc 2 562 0
 1896 041e 23F00802 		bic	r2, r3, #8
 1897 0422 042A     		cmp	r2, #4
 1898 0424 00F01081 		beq	.L329
 1899              		.loc 2 564 0
 1900 0428 23F08052 		bic	r2, r3, #268435456
 1901 042c B2F1005F 		cmp	r2, #536870912
 1902 0430 00F00A81 		beq	.L329
 1903              		.loc 2 565 0
 1904 0434 B3F1804F 		cmp	r3, #1073741824
 1905 0438 00F00681 		beq	.L329
 1906 043c 8024     		movs	r4, #128
 1907              	.LVL170:
 1908 043e 0FE7     		b	.L191
 1909              	.LVL171:
 1910              	.L197:
 1911              	.LBE1519:
 1912              	.LBE1520:
 1913              	.LBE1546:
 1914              	.LBE1556:
 1915              	.LBE1565:
 1916              	.LBE1487:
 1917              		.loc 1 721 0
 1918 0440 0029     		cmp	r1, #0
 1919 0442 00F04284 		beq	.L506
 1920              	.LBB1612:
 1921              	.LBB1613:
 1922              		.loc 1 723 0
 1923 0446 0129     		cmp	r1, #1
 1924              	.LBE1613:
 1925              		.loc 1 722 0
 1926 0448 0468     		ldr	r4, [r0]
 1927              	.LVL172:
 1928              	.LBB1694:
 1929              		.loc 1 723 0
 1930 044a 7FF609AF 		bls	.L191
 1931              	.LBB1614:
 1932              	.LBB1615:
 1933              	.LBB1616:
 1934              	.LBB1617:
 1935              	.LBB1618:
 1936              	.LBB1619:
 1937              		.loc 2 477 0
 1938 044e 504D     		ldr	r5, .L987
ARM GAS  /tmp/ccMboyVS.s 			page 35


 1939 0450 DFF84081 		ldr	r8, .L987+4
 1940              	.LBE1619:
 1941              	.LBE1618:
 1942              	.LBE1617:
 1943              	.LBE1616:
 1944              	.LBB1628:
 1945              	.LBB1629:
 1946              	.LBB1630:
 1947              	.LBB1631:
 1948 0454 DFF840B1 		ldr	fp, .L987+8
 1949 0458 8146     		mov	r9, r0
 1950              	.LBE1631:
 1951              	.LBE1630:
 1952              	.LBE1629:
 1953              	.LBE1628:
 1954              	.LBE1615:
 1955              	.LBE1614:
 1956              		.loc 1 723 0
 1957 045a 4FF0010A 		mov	r10, #1
 1958              	.LVL173:
 1959              	.L389:
 1960              	.LBB1683:
 1961              	.LBB1672:
 1962              	.LBB1640:
 1963              	.LBB1641:
 1964              	.LBB1642:
 1965              	.LBB1643:
 1966              		.loc 2 461 0
 1967 045e E307     		lsls	r3, r4, #31
 1968 0460 4CBF     		ite	mi
 1969 0462 04F07C43 		andmi	r3, r4, #-67108864
 1970 0466 04F00C03 		andpl	r3, r4, #12
 1971              	.LBE1643:
 1972              	.LBE1642:
 1973              		.loc 2 561 0
 1974 046a 082B     		cmp	r3, #8
 1975              	.LBE1641:
 1976              	.LBE1640:
 1977              	.LBE1672:
 1978              	.LBE1683:
 1979              		.loc 1 724 0
 1980 046c 59F8047F 		ldr	r7, [r9, #4]!
 1981              	.LVL174:
 1982              	.LBB1684:
 1983              	.LBB1673:
 1984              	.LBB1645:
 1985              	.LBB1644:
 1986              		.loc 2 561 0
 1987 0470 00F09B81 		beq	.L370
 1988              		.loc 2 562 0
 1989 0474 23F00802 		bic	r2, r3, #8
 1990 0478 042A     		cmp	r2, #4
 1991 047a 00F09681 		beq	.L370
 1992              		.loc 2 564 0
 1993 047e 23F08052 		bic	r2, r3, #268435456
 1994 0482 B2F1005F 		cmp	r2, #536870912
 1995 0486 00F09081 		beq	.L370
ARM GAS  /tmp/ccMboyVS.s 			page 36


 1996              		.loc 2 565 0
 1997 048a B3F1804F 		cmp	r3, #1073741824
 1998 048e 00F08C81 		beq	.L370
 1999 0492 8024     		movs	r4, #128
 2000              	.LVL175:
 2001 0494 E4E6     		b	.L191
 2002              	.LVL176:
 2003              	.L222:
 2004              	.LBE1644:
 2005              	.LBE1645:
 2006              	.LBE1673:
 2007              	.LBE1684:
 2008              	.LBE1694:
 2009              	.LBE1612:
 2010              		.loc 1 460 0
 2011 0496 0129     		cmp	r1, #1
 2012 0498 00F09785 		beq	.L966
 2013 049c 9024     		movs	r4, #144
 2014 049e DFE6     		b	.L191
 2015              	.L213:
 2016              	.LBB1704:
 2017              		.loc 1 606 0
 2018 04a0 0468     		ldr	r4, [r0]
 2019              	.LVL177:
 2020              	.LBB1705:
 2021              	.LBB1706:
 2022              		.loc 2 461 0
 2023 04a2 E107     		lsls	r1, r4, #31
 2024              	.LVL178:
 2025 04a4 4CBF     		ite	mi
 2026 04a6 04F07C43 		andmi	r3, r4, #-67108864
 2027 04aa 04F00C03 		andpl	r3, r4, #12
 2028              	.LBE1706:
 2029              	.LBE1705:
 2030              		.loc 1 607 0
 2031 04ae 002B     		cmp	r3, #0
 2032 04b0 40F01184 		bne	.L496
 2033              	.LBB1707:
 2034              	.LBB1708:
 2035              		.loc 2 489 0
 2036 04b4 24F00F04 		bic	r4, r4, #15
 2037              	.LVL179:
 2038 04b8 44F00804 		orr	r4, r4, #8
 2039              	.LVL180:
 2040              	.LBE1708:
 2041              	.LBE1707:
 2042 04bc D0E6     		b	.L191
 2043              	.LVL181:
 2044              	.L212:
 2045              	.LBE1704:
 2046              	.LBB1709:
 2047              		.loc 1 590 0
 2048 04be 0029     		cmp	r1, #0
 2049 04c0 40F0A285 		bne	.L967
 2050 04c4 9024     		movs	r4, #144
 2051 04c6 CBE6     		b	.L191
 2052              	.L206:
ARM GAS  /tmp/ccMboyVS.s 			page 37


 2053              	.LBE1709:
 2054              		.loc 1 650 0
 2055 04c8 0068     		ldr	r0, [r0]
 2056              	.LVL182:
 2057 04ca FFF7FEFF 		bl	lbm_cdr
 2058              	.LVL183:
 2059 04ce 0446     		mov	r4, r0
 2060              	.LVL184:
 2061              		.loc 1 651 0
 2062 04d0 C6E6     		b	.L191
 2063              	.LVL185:
 2064              	.L216:
 2065              		.loc 1 631 0
 2066 04d2 0229     		cmp	r1, #2
 2067 04d4 00F0DF86 		beq	.L968
 2068 04d8 9024     		movs	r4, #144
 2069 04da C1E6     		b	.L191
 2070              	.L215:
 2071              		.loc 1 622 0
 2072 04dc 0229     		cmp	r1, #2
 2073 04de 00F0C686 		beq	.L969
 2074 04e2 9024     		movs	r4, #144
 2075 04e4 BCE6     		b	.L191
 2076              	.L223:
 2077              		.loc 1 821 0
 2078 04e6 0129     		cmp	r1, #1
 2079 04e8 00F04584 		beq	.L970
 2080              	.LBB1714:
 2081              		.loc 1 799 0
 2082 04ec 0024     		movs	r4, #0
 2083 04ee B7E6     		b	.L191
 2084              	.L204:
 2085              	.LVL186:
 2086              	.LBE1714:
 2087              	.LBB1717:
 2088              		.loc 1 642 0
 2089 04f0 D0E90001 		ldrd	r0, r1, [r0]
 2090              	.LVL187:
 2091 04f4 FFF7FEFF 		bl	lbm_cons
 2092              	.LVL188:
 2093 04f8 0446     		mov	r4, r0
 2094              	.LVL189:
 2095              		.loc 1 643 0
 2096 04fa B1E6     		b	.L191
 2097              	.LVL190:
 2098              	.L208:
 2099              	.LBE1717:
 2100              	.LBB1718:
 2101              		.loc 1 663 0
 2102 04fc 0229     		cmp	r1, #2
 2103 04fe 00F05684 		beq	.L971
 2104              	.LBE1718:
 2105              	.LBE1919:
 2106              		.loc 1 852 0
 2107 0502 9024     		movs	r4, #144
 2108 0504 ACE6     		b	.L191
 2109              	.L199:
ARM GAS  /tmp/ccMboyVS.s 			page 38


 2110              	.LBB1920:
 2111              	.LBB1730:
 2112              	.LBB1731:
 2113              		.loc 1 751 0
 2114 0506 0129     		cmp	r1, #1
 2115              	.LBE1731:
 2116              		.loc 1 747 0
 2117 0508 0568     		ldr	r5, [r0]
 2118              	.LVL191:
 2119              	.LBB1732:
 2120              		.loc 1 751 0
 2121 050a 7FF66BAF 		bls	.L267
 2122 050e 00EB8106 		add	r6, r0, r1, lsl #2
 2123              	.LVL192:
 2124 0512 041D     		adds	r4, r0, #4
 2125              	.LVL193:
 2126              	.L415:
 2127              		.loc 1 753 0 discriminator 1
 2128 0514 54F8041B 		ldr	r1, [r4], #4
 2129 0518 2846     		mov	r0, r5
 2130 051a FFF7FEFF 		bl	struct_eq
 2131              	.LVL194:
 2132              		.loc 1 751 0 discriminator 1
 2133 051e A642     		cmp	r6, r4
 2134 0520 00F07B81 		beq	.L959
 2135              		.loc 1 753 0
 2136 0524 0028     		cmp	r0, #0
 2137 0526 F5D1     		bne	.L415
 2138              	.L416:
 2139              		.loc 1 751 0
 2140 0528 231D     		adds	r3, r4, #4
 2141 052a B342     		cmp	r3, r6
 2142 052c 04F10804 		add	r4, r4, #8
 2143 0530 42D0     		beq	.L263
 2144 0532 B442     		cmp	r4, r6
 2145 0534 F8D1     		bne	.L416
 2146 0536 3FE0     		b	.L263
 2147              	.LVL195:
 2148              	.L214:
 2149              	.LBE1732:
 2150              	.LBE1730:
 2151              	.LBB1733:
 2152              		.loc 1 614 0
 2153 0538 0468     		ldr	r4, [r0]
 2154              	.LVL196:
 2155              	.LBB1734:
 2156              	.LBB1735:
 2157              		.loc 2 461 0
 2158 053a E207     		lsls	r2, r4, #31
 2159 053c 4CBF     		ite	mi
 2160 053e 04F07C43 		andmi	r3, r4, #-67108864
 2161 0542 04F00C03 		andpl	r3, r4, #12
 2162              	.LVL197:
 2163              	.LBE1735:
 2164              	.LBE1734:
 2165              		.loc 1 615 0
 2166 0546 082B     		cmp	r3, #8
ARM GAS  /tmp/ccMboyVS.s 			page 39


 2167 0548 00F03B85 		beq	.L972
 2168 054c 9024     		movs	r4, #144
 2169              	.LVL198:
 2170 054e 87E6     		b	.L191
 2171              	.LVL199:
 2172              	.L210:
 2173              	.LBE1733:
 2174              		.loc 1 815 0
 2175 0550 02AA     		add	r2, sp, #8
 2176 0552 FFF7FEFF 		bl	array_write
 2177              	.LVL200:
 2178 0556 029C     		ldr	r4, [sp, #8]
 2179              		.loc 1 816 0
 2180 0558 82E6     		b	.L191
 2181              	.LVL201:
 2182              	.L209:
 2183              	.LBB1738:
 2184              	.LBB1739:
 2185              		.loc 1 273 0
 2186 055a 0129     		cmp	r1, #1
 2187 055c 00F2BE83 		bhi	.L973
 2188 0560 9024     		movs	r4, #144
 2189              	.LBE1739:
 2190              	.LBE1738:
 2191              	.LBE1920:
 2192              		.loc 1 852 0
 2193 0562 7DE6     		b	.L191
 2194              	.LVL202:
 2195              	.L202:
 2196              	.LBB1921:
 2197              		.loc 1 766 0
 2198 0564 4FF00109 		mov	r9, #1
 2199 0568 5EE6     		b	.L200
 2200              	.L211:
 2201              	.LBB1741:
 2202              		.loc 1 567 0
 2203 056a 49B1     		cbz	r1, .L268
 2204              		.loc 1 568 0 discriminator 1
 2205 056c 0068     		ldr	r0, [r0]
 2206              	.LVL203:
 2207              	.LBB1742:
 2208              	.LBB1743:
 2209              		.loc 2 461 0 discriminator 1
 2210 056e C407     		lsls	r4, r0, #31
 2211 0570 4CBF     		ite	mi
 2212 0572 00F07C44 		andmi	r4, r0, #-67108864
 2213 0576 00F00C04 		andpl	r4, r0, #12
 2214              	.LBE1743:
 2215              	.LBE1742:
 2216              		.loc 1 567 0 discriminator 1
 2217 057a 002C     		cmp	r4, #0
 2218 057c 00F09486 		beq	.L974
 2219              	.LVL204:
 2220              	.L268:
 2221              		.loc 1 569 0
 2222 0580 0024     		movs	r4, #0
 2223 0582 6DE6     		b	.L191
ARM GAS  /tmp/ccMboyVS.s 			page 40


 2224              	.LVL205:
 2225              	.L205:
 2226              	.LBE1741:
 2227              		.loc 1 646 0
 2228 0584 0068     		ldr	r0, [r0]
 2229              	.LVL206:
 2230 0586 FFF7FEFF 		bl	lbm_car
 2231              	.LVL207:
 2232 058a 0446     		mov	r4, r0
 2233              	.LVL208:
 2234              		.loc 1 647 0
 2235 058c 68E6     		b	.L191
 2236              	.L988:
 2237 058e 00BF     		.align	2
 2238              	.L987:
 2239 0590 F8FFFF03 		.word	67108856
 2240 0594 01000040 		.word	1073741825
 2241 0598 01000030 		.word	805306369
 2242              	.LVL209:
 2243              	.L203:
 2244              	.LBB1745:
 2245              		.loc 1 798 0
 2246 059c 0029     		cmp	r1, #0
 2247 059e 00F0A383 		beq	.L507
 2248              		.loc 1 802 0
 2249 05a2 0368     		ldr	r3, [r0]
 2250              	.LVL210:
 2251              	.LBB1715:
 2252              	.LBB1716:
 2253              		.loc 2 461 0
 2254 05a4 D807     		lsls	r0, r3, #31
 2255              	.LVL211:
 2256 05a6 4CBF     		ite	mi
 2257 05a8 03F07C42 		andmi	r2, r3, #-67108864
 2258 05ac 03F00C02 		andpl	r2, r3, #12
 2259              	.LBE1716:
 2260              	.LBE1715:
 2261              		.loc 1 803 0
 2262 05b0 12B9     		cbnz	r2, .L263
 2263 05b2 1B09     		lsrs	r3, r3, #4
 2264              	.LVL212:
 2265 05b4 3FF416AF 		beq	.L267
 2266              	.LVL213:
 2267              	.L263:
 2268              	.LBE1745:
 2269              		.loc 1 559 0
 2270 05b8 0024     		movs	r4, #0
 2271 05ba 51E6     		b	.L191
 2272              	.LVL214:
 2273              	.L201:
 2274              	.LBE1921:
 2275              		.loc 1 451 0
 2276 05bc 4FF0FF39 		mov	r9, #-1
 2277 05c0 32E6     		b	.L200
 2278              	.L482:
 2279              		.loc 1 453 0
 2280 05c2 9024     		movs	r4, #144
ARM GAS  /tmp/ccMboyVS.s 			page 41


 2281 05c4 4CE6     		b	.L191
 2282              	.LVL215:
 2283              	.L293:
 2284              	.LBB1922:
 2285              	.LBB1746:
 2286              	.LBB1375:
 2287              	.LBB1364:
 2288              	.LBB1352:
 2289              	.LBB1324:
 2290              	.LBB1325:
 2291              	.LBB1326:
 2292              	.LBB1327:
 2293              		.loc 2 461 0
 2294 05c6 1BF0010F 		tst	fp, #1
 2295 05ca 00F03081 		beq	.L975
 2296 05ce 0BF07C42 		and	r2, fp, #-67108864
 2297              	.L294:
 2298              	.LVL216:
 2299              	.LBE1327:
 2300              	.LBE1326:
 2301              		.loc 2 561 0
 2302 05d2 082A     		cmp	r2, #8
 2303 05d4 79D0     		beq	.L295
 2304              		.loc 2 562 0
 2305 05d6 22F00801 		bic	r1, r2, #8
 2306 05da 0429     		cmp	r1, #4
 2307 05dc 75D0     		beq	.L295
 2308              		.loc 2 564 0
 2309 05de 22F08051 		bic	r1, r2, #268435456
 2310 05e2 B1F1005F 		cmp	r1, #536870912
 2311 05e6 70D0     		beq	.L295
 2312              		.loc 2 565 0
 2313 05e8 B2F1804F 		cmp	r2, #1073741824
 2314 05ec 6DD0     		beq	.L295
 2315 05ee 8024     		movs	r4, #128
 2316              	.LVL217:
 2317 05f0 36E6     		b	.L191
 2318              	.LVL218:
 2319              	.L393:
 2320              	.LBE1325:
 2321              	.LBE1324:
 2322              	.LBE1352:
 2323              	.LBE1364:
 2324              	.LBE1375:
 2325              	.LBE1746:
 2326              	.LBB1747:
 2327              	.LBB1279:
 2328              	.LBB1267:
 2329              	.LBB1254:
 2330              	.LBB1223:
 2331              	.LBB1224:
 2332              	.LBB1225:
 2333              	.LBB1226:
 2334              		.loc 2 461 0
 2335 05f2 FA07     		lsls	r2, r7, #31
 2336 05f4 40F11581 		bpl	.L976
 2337 05f8 07F07C42 		and	r2, r7, #-67108864
ARM GAS  /tmp/ccMboyVS.s 			page 42


 2338              	.L394:
 2339              	.LVL219:
 2340              	.LBE1226:
 2341              	.LBE1225:
 2342              		.loc 2 561 0
 2343 05fc 082A     		cmp	r2, #8
 2344 05fe 39D0     		beq	.L395
 2345              		.loc 2 562 0
 2346 0600 22F00801 		bic	r1, r2, #8
 2347 0604 0429     		cmp	r1, #4
 2348 0606 35D0     		beq	.L395
 2349              		.loc 2 564 0
 2350 0608 22F08051 		bic	r1, r2, #268435456
 2351 060c B1F1005F 		cmp	r1, #536870912
 2352 0610 30D0     		beq	.L395
 2353              		.loc 2 565 0
 2354 0612 B2F1804F 		cmp	r2, #1073741824
 2355 0616 2DD0     		beq	.L395
 2356 0618 8024     		movs	r4, #128
 2357              	.LVL220:
 2358 061a 21E6     		b	.L191
 2359              	.LVL221:
 2360              	.L349:
 2361              	.LBE1224:
 2362              	.LBE1223:
 2363              	.LBE1254:
 2364              	.LBE1267:
 2365              	.LBE1279:
 2366              	.LBE1747:
 2367              	.LBB1748:
 2368              	.LBB1468:
 2369              	.LBB1457:
 2370              	.LBB1445:
 2371              	.LBB1419:
 2372              	.LBB1420:
 2373              	.LBB1421:
 2374              	.LBB1422:
 2375              		.loc 2 461 0
 2376 061c 1BF0010F 		tst	fp, #1
 2377 0620 00F00281 		beq	.L977
 2378 0624 0BF07C42 		and	r2, fp, #-67108864
 2379              	.L350:
 2380              	.LVL222:
 2381              	.LBE1422:
 2382              	.LBE1421:
 2383              		.loc 2 561 0
 2384 0628 082A     		cmp	r2, #8
 2385 062a 73D0     		beq	.L351
 2386              		.loc 2 562 0
 2387 062c 22F00801 		bic	r1, r2, #8
 2388 0630 0429     		cmp	r1, #4
 2389 0632 6FD0     		beq	.L351
 2390              		.loc 2 564 0
 2391 0634 22F08051 		bic	r1, r2, #268435456
 2392 0638 B1F1005F 		cmp	r1, #536870912
 2393 063c 6AD0     		beq	.L351
 2394              		.loc 2 565 0
ARM GAS  /tmp/ccMboyVS.s 			page 43


 2395 063e B2F1804F 		cmp	r2, #1073741824
 2396 0642 67D0     		beq	.L351
 2397 0644 8024     		movs	r4, #128
 2398              	.LVL223:
 2399 0646 0BE6     		b	.L191
 2400              	.LVL224:
 2401              	.L329:
 2402              	.LBE1420:
 2403              	.LBE1419:
 2404              	.LBE1445:
 2405              	.LBE1457:
 2406              	.LBE1468:
 2407              	.LBE1748:
 2408              	.LBB1749:
 2409              	.LBB1566:
 2410              	.LBB1557:
 2411              	.LBB1547:
 2412              	.LBB1521:
 2413              	.LBB1522:
 2414              	.LBB1523:
 2415              	.LBB1524:
 2416              		.loc 2 461 0
 2417 0648 F807     		lsls	r0, r7, #31
 2418 064a 40F16381 		bpl	.L978
 2419 064e 07F07C42 		and	r2, r7, #-67108864
 2420              	.L330:
 2421              	.LVL225:
 2422              	.LBE1524:
 2423              	.LBE1523:
 2424              		.loc 2 561 0
 2425 0652 082A     		cmp	r2, #8
 2426 0654 00F08480 		beq	.L331
 2427              		.loc 2 562 0
 2428 0658 22F00801 		bic	r1, r2, #8
 2429 065c 0429     		cmp	r1, #4
 2430 065e 7FD0     		beq	.L331
 2431              		.loc 2 564 0
 2432 0660 22F08051 		bic	r1, r2, #268435456
 2433 0664 B1F1005F 		cmp	r1, #536870912
 2434 0668 7AD0     		beq	.L331
 2435              		.loc 2 565 0
 2436 066a B2F1804F 		cmp	r2, #1073741824
 2437 066e 77D0     		beq	.L331
 2438 0670 8024     		movs	r4, #128
 2439              	.LVL226:
 2440 0672 F5E5     		b	.L191
 2441              	.LVL227:
 2442              	.L395:
 2443              	.LBE1522:
 2444              	.LBE1521:
 2445              	.LBE1547:
 2446              	.LBE1557:
 2447              	.LBE1566:
 2448              	.LBE1749:
 2449              	.LBB1750:
 2450              	.LBB1280:
 2451              	.LBB1268:
ARM GAS  /tmp/ccMboyVS.s 			page 44


 2452              	.LBB1255:
 2453              		.loc 1 94 0
 2454 0674 9342     		cmp	r3, r2
 2455 0676 38BF     		it	cc
 2456 0678 1346     		movcc	r3, r2
 2457              	.LVL228:
 2458 067a B3F1005F 		cmp	r3, #536870912
 2459 067e 00F00183 		beq	.L401
 2460 0682 00F24A81 		bhi	.L473
 2461 0686 082B     		cmp	r3, #8
 2462 0688 00F0BE82 		beq	.L399
 2463 068c 0C2B     		cmp	r3, #12
 2464 068e 40F02E82 		bne	.L515
 2465              		.loc 1 95 0
 2466 0692 3B09     		lsrs	r3, r7, #4
 2467 0694 00F0EF81 		beq	.L400
 2468 0698 2046     		mov	r0, r4
 2469 069a FFF7FEFF 		bl	lbm_dec_as_i
 2470              	.LVL229:
 2471 069e 0446     		mov	r4, r0
 2472              	.LVL230:
 2473 06a0 3846     		mov	r0, r7
 2474 06a2 FFF7FEFF 		bl	lbm_dec_as_i
 2475              	.LVL231:
 2476 06a6 94FBF0F3 		sdiv	r3, r4, r0
 2477 06aa 03FB1044 		mls	r4, r3, r0, r4
 2478              	.LVL232:
 2479              	.LBB1231:
 2480              	.LBB1232:
 2481              		.loc 2 485 0
 2482 06ae 2401     		lsls	r4, r4, #4
 2483 06b0 44F00C04 		orr	r4, r4, #12
 2484              	.LVL233:
 2485              	.L398:
 2486 06b4 04F00C03 		and	r3, r4, #12
 2487              	.L412:
 2488              	.LBE1232:
 2489              	.LBE1231:
 2490              	.LBE1255:
 2491              	.LBE1268:
 2492              		.loc 1 739 0
 2493 06b8 002B     		cmp	r3, #0
 2494 06ba 3FF4D1AD 		beq	.L191
 2495              		.loc 1 737 0 discriminator 2
 2496 06be 0AF1010A 		add	r10, r10, #1
 2497              	.LVL234:
 2498 06c2 5645     		cmp	r6, r10
 2499 06c4 7FF4DDAD 		bne	.L413
 2500 06c8 CAE5     		b	.L191
 2501              	.LVL235:
 2502              	.L295:
 2503              	.LBE1280:
 2504              	.LBE1750:
 2505              	.LBB1751:
 2506              	.LBB1376:
 2507              	.LBB1365:
 2508              	.LBB1353:
ARM GAS  /tmp/ccMboyVS.s 			page 45


 2509              		.loc 1 37 0
 2510 06ca 9342     		cmp	r3, r2
 2511 06cc 38BF     		it	cc
 2512 06ce 1346     		movcc	r3, r2
 2513              	.LVL236:
 2514 06d0 B3F1005F 		cmp	r3, #536870912
 2515 06d4 00F01A82 		beq	.L299
 2516 06d8 00F25B81 		bhi	.L461
 2517 06dc 082B     		cmp	r3, #8
 2518 06de 00F0A882 		beq	.L298
 2519 06e2 0C2B     		cmp	r3, #12
 2520 06e4 40F00682 		bne	.L511
 2521              		.loc 1 38 0
 2522 06e8 2046     		mov	r0, r4
 2523 06ea FFF7FEFF 		bl	lbm_dec_as_i
 2524              	.LVL237:
 2525 06ee 0446     		mov	r4, r0
 2526              	.LVL238:
 2527 06f0 5846     		mov	r0, fp
 2528 06f2 FFF7FEFF 		bl	lbm_dec_as_i
 2529              	.LVL239:
 2530 06f6 0444     		add	r4, r4, r0
 2531              	.LVL240:
 2532              	.LBB1331:
 2533              	.LBB1332:
 2534              		.loc 2 485 0
 2535 06f8 2401     		lsls	r4, r4, #4
 2536              	.LVL241:
 2537 06fa 44F00C04 		orr	r4, r4, #12
 2538              	.LVL242:
 2539              	.L297:
 2540 06fe 04F00C03 		and	r3, r4, #12
 2541              	.L309:
 2542              	.LBE1332:
 2543              	.LBE1331:
 2544              	.LBE1353:
 2545              	.LBE1365:
 2546              		.loc 1 687 0
 2547 0702 002B     		cmp	r3, #0
 2548 0704 3FF4ACAD 		beq	.L191
 2549              		.loc 1 685 0 discriminator 2
 2550 0708 0AF1010A 		add	r10, r10, #1
 2551              	.LVL243:
 2552 070c 5645     		cmp	r6, r10
 2553 070e 7FF4E0AD 		bne	.L310
 2554 0712 A5E5     		b	.L191
 2555              	.LVL244:
 2556              	.L351:
 2557              	.LBE1376:
 2558              	.LBE1751:
 2559              	.LBB1752:
 2560              	.LBB1469:
 2561              	.LBB1458:
 2562              	.LBB1446:
 2563              		.loc 1 56 0
 2564 0714 9342     		cmp	r3, r2
 2565 0716 38BF     		it	cc
ARM GAS  /tmp/ccMboyVS.s 			page 46


 2566 0718 1346     		movcc	r3, r2
 2567              	.LVL245:
 2568 071a B3F1005F 		cmp	r3, #536870912
 2569 071e 00F09482 		beq	.L355
 2570 0722 00F25C81 		bhi	.L467
 2571 0726 082B     		cmp	r3, #8
 2572 0728 00F04682 		beq	.L354
 2573 072c 0C2B     		cmp	r3, #12
 2574 072e 40F0E481 		bne	.L513
 2575              		.loc 1 57 0
 2576 0732 2046     		mov	r0, r4
 2577 0734 FFF7FEFF 		bl	lbm_dec_as_i
 2578              	.LVL246:
 2579 0738 0446     		mov	r4, r0
 2580              	.LVL247:
 2581 073a 5846     		mov	r0, fp
 2582 073c FFF7FEFF 		bl	lbm_dec_as_i
 2583              	.LVL248:
 2584 0740 00FB04F4 		mul	r4, r0, r4
 2585              	.LVL249:
 2586              	.LBB1426:
 2587              	.LBB1427:
 2588              		.loc 2 485 0
 2589 0744 2401     		lsls	r4, r4, #4
 2590              	.LVL250:
 2591 0746 44F00C04 		orr	r4, r4, #12
 2592              	.LVL251:
 2593              	.L353:
 2594 074a 04F00C03 		and	r3, r4, #12
 2595              	.L365:
 2596              	.LBE1427:
 2597              	.LBE1426:
 2598              	.LBE1446:
 2599              	.LBE1458:
 2600              		.loc 1 713 0
 2601 074e 002B     		cmp	r3, #0
 2602 0750 3FF486AD 		beq	.L191
 2603              		.loc 1 711 0 discriminator 2
 2604 0754 0AF1010A 		add	r10, r10, #1
 2605              	.LVL252:
 2606 0758 5645     		cmp	r6, r10
 2607 075a 7FF4E2AD 		bne	.L366
 2608 075e 7FE5     		b	.L191
 2609              	.LVL253:
 2610              	.L331:
 2611              	.LBE1469:
 2612              	.LBE1752:
 2613              	.LBB1753:
 2614              	.LBB1567:
 2615              	.LBB1558:
 2616              	.LBB1548:
 2617              		.loc 1 149 0
 2618 0760 9342     		cmp	r3, r2
 2619 0762 38BF     		it	cc
 2620 0764 1346     		movcc	r3, r2
 2621              	.LVL254:
 2622 0766 B3F1005F 		cmp	r3, #536870912
ARM GAS  /tmp/ccMboyVS.s 			page 47


 2623 076a 00F0E782 		beq	.L335
 2624 076e 00F25C81 		bhi	.L464
 2625 0772 082B     		cmp	r3, #8
 2626 0774 00F0D682 		beq	.L334
 2627 0778 0C2B     		cmp	r3, #12
 2628 077a 40F0C481 		bne	.L512
 2629              		.loc 1 150 0
 2630 077e 2046     		mov	r0, r4
 2631 0780 FFF7FEFF 		bl	lbm_dec_as_i
 2632              	.LVL255:
 2633 0784 0446     		mov	r4, r0
 2634              	.LVL256:
 2635 0786 3846     		mov	r0, r7
 2636 0788 FFF7FEFF 		bl	lbm_dec_as_i
 2637              	.LVL257:
 2638 078c 241A     		subs	r4, r4, r0
 2639              	.LVL258:
 2640              	.LBB1528:
 2641              	.LBB1529:
 2642              		.loc 2 485 0
 2643 078e 2401     		lsls	r4, r4, #4
 2644              	.LVL259:
 2645 0790 44F00C04 		orr	r4, r4, #12
 2646              	.LVL260:
 2647              	.L333:
 2648 0794 04F00C03 		and	r3, r4, #12
 2649              	.L345:
 2650              	.LBE1529:
 2651              	.LBE1528:
 2652              	.LBE1548:
 2653              	.LBE1558:
 2654              		.loc 1 702 0
 2655 0798 002B     		cmp	r3, #0
 2656 079a 3FF461AD 		beq	.L191
 2657              		.loc 1 700 0 discriminator 2
 2658 079e 0AF1010A 		add	r10, r10, #1
 2659              	.LVL261:
 2660 07a2 5645     		cmp	r6, r10
 2661 07a4 7FF430AE 		bne	.L346
 2662 07a8 5AE5     		b	.L191
 2663              	.LVL262:
 2664              	.L370:
 2665              	.LBE1567:
 2666              	.LBE1753:
 2667              	.LBB1754:
 2668              	.LBB1695:
 2669              	.LBB1685:
 2670              	.LBB1674:
 2671              	.LBB1646:
 2672              	.LBB1647:
 2673              	.LBB1648:
 2674              	.LBB1649:
 2675              		.loc 2 461 0
 2676 07aa F907     		lsls	r1, r7, #31
 2677 07ac 40F16681 		bpl	.L979
 2678 07b0 07F07C42 		and	r2, r7, #-67108864
 2679              	.L371:
ARM GAS  /tmp/ccMboyVS.s 			page 48


 2680              	.LVL263:
 2681              	.LBE1649:
 2682              	.LBE1648:
 2683              		.loc 2 561 0
 2684 07b4 082A     		cmp	r2, #8
 2685 07b6 3DD0     		beq	.L372
 2686              		.loc 2 562 0
 2687 07b8 22F00801 		bic	r1, r2, #8
 2688 07bc 0429     		cmp	r1, #4
 2689 07be 39D0     		beq	.L372
 2690              		.loc 2 564 0
 2691 07c0 22F08051 		bic	r1, r2, #268435456
 2692 07c4 B1F1005F 		cmp	r1, #536870912
 2693 07c8 34D0     		beq	.L372
 2694              		.loc 2 565 0
 2695 07ca B2F1804F 		cmp	r2, #1073741824
 2696 07ce 31D0     		beq	.L372
 2697 07d0 8024     		movs	r4, #128
 2698              	.LVL264:
 2699 07d2 45E5     		b	.L191
 2700              	.LVL265:
 2701              	.L421:
 2702              	.LBE1647:
 2703              	.LBE1646:
 2704              	.LBE1674:
 2705              	.LBE1685:
 2706              	.LBE1695:
 2707              	.LBE1754:
 2708              	.LBB1755:
 2709              	.LBB1149:
 2710              		.loc 1 778 0
 2711 07d4 012E     		cmp	r6, #1
 2712 07d6 7FF605AE 		bls	.L267
 2713 07da 0125     		movs	r5, #1
 2714 07dc 0446     		mov	r4, r0
 2715              	.LBB1150:
 2716              	.LBB1151:
 2717              	.LBB1152:
 2718              	.LBB1153:
 2719              		.loc 2 562 0
 2720 07de 27F0080A 		bic	r10, r7, #8
 2721              	.LBE1153:
 2722              	.LBE1152:
 2723              	.LBE1151:
 2724              	.LBE1150:
 2725              		.loc 1 778 0
 2726 07e2 2846     		mov	r0, r5
 2727              	.LVL266:
 2728              	.L437:
 2729              		.loc 1 779 0
 2730 07e4 54F8042F 		ldr	r2, [r4, #4]!
 2731              	.LVL267:
 2732              	.LBB1175:
 2733              	.LBB1176:
 2734              	.LBB1177:
 2735              	.LBB1178:
 2736              		.loc 2 461 0
ARM GAS  /tmp/ccMboyVS.s 			page 49


 2737 07e8 D307     		lsls	r3, r2, #31
 2738 07ea 4CBF     		ite	mi
 2739 07ec 02F07C43 		andmi	r3, r2, #-67108864
 2740 07f0 02F00C03 		andpl	r3, r2, #12
 2741              	.LVL268:
 2742              	.LBE1178:
 2743              	.LBE1177:
 2744              		.loc 2 561 0
 2745 07f4 082B     		cmp	r3, #8
 2746 07f6 0CD0     		beq	.L425
 2747              		.loc 2 562 0
 2748 07f8 23F00801 		bic	r1, r3, #8
 2749 07fc 0429     		cmp	r1, #4
 2750 07fe 08D0     		beq	.L425
 2751              		.loc 2 564 0
 2752 0800 23F08051 		bic	r1, r3, #268435456
 2753 0804 B1F1005F 		cmp	r1, #536870912
 2754 0808 03D0     		beq	.L425
 2755              		.loc 2 565 0
 2756 080a B3F1804F 		cmp	r3, #1073741824
 2757 080e 7FF426AD 		bne	.L422
 2758              	.L425:
 2759              	.LVL269:
 2760              	.LBE1176:
 2761              	.LBE1175:
 2762              		.loc 1 784 0
 2763 0812 C0BB     		cbnz	r0, .L980
 2764              	.LVL270:
 2765              	.L475:
 2766              		.loc 1 778 0 discriminator 6
 2767 0814 0135     		adds	r5, r5, #1
 2768              	.LVL271:
 2769 0816 AE42     		cmp	r6, r5
 2770 0818 E4D1     		bne	.L437
 2771              	.LVL272:
 2772              	.L959:
 2773              	.LBE1149:
 2774              	.LBE1755:
 2775              		.loc 1 623 0
 2776 081a 0028     		cmp	r0, #0
 2777 081c 3FF4CCAE 		beq	.L263
 2778 0820 E0E5     		b	.L267
 2779              	.LVL273:
 2780              	.L976:
 2781              	.LBB1756:
 2782              	.LBB1281:
 2783              	.LBB1269:
 2784              	.LBB1256:
 2785              	.LBB1233:
 2786              	.LBB1229:
 2787              	.LBB1228:
 2788              	.LBB1227:
 2789              		.loc 2 461 0
 2790 0822 07F00C02 		and	r2, r7, #12
 2791 0826 E9E6     		b	.L394
 2792              	.LVL274:
 2793              	.L977:
ARM GAS  /tmp/ccMboyVS.s 			page 50


 2794              	.LBE1227:
 2795              	.LBE1228:
 2796              	.LBE1229:
 2797              	.LBE1233:
 2798              	.LBE1256:
 2799              	.LBE1269:
 2800              	.LBE1281:
 2801              	.LBE1756:
 2802              	.LBB1757:
 2803              	.LBB1470:
 2804              	.LBB1459:
 2805              	.LBB1447:
 2806              	.LBB1428:
 2807              	.LBB1425:
 2808              	.LBB1424:
 2809              	.LBB1423:
 2810 0828 0BF00C02 		and	r2, fp, #12
 2811 082c FCE6     		b	.L350
 2812              	.LVL275:
 2813              	.L975:
 2814              	.LBE1423:
 2815              	.LBE1424:
 2816              	.LBE1425:
 2817              	.LBE1428:
 2818              	.LBE1447:
 2819              	.LBE1459:
 2820              	.LBE1470:
 2821              	.LBE1757:
 2822              	.LBB1758:
 2823              	.LBB1377:
 2824              	.LBB1366:
 2825              	.LBB1354:
 2826              	.LBB1333:
 2827              	.LBB1330:
 2828              	.LBB1329:
 2829              	.LBB1328:
 2830 082e 0BF00C02 		and	r2, fp, #12
 2831 0832 CEE6     		b	.L294
 2832              	.LVL276:
 2833              	.L372:
 2834              	.LBE1328:
 2835              	.LBE1329:
 2836              	.LBE1330:
 2837              	.LBE1333:
 2838              	.LBE1354:
 2839              	.LBE1366:
 2840              	.LBE1377:
 2841              	.LBE1758:
 2842              	.LBB1759:
 2843              	.LBB1696:
 2844              	.LBB1686:
 2845              	.LBB1675:
 2846              		.loc 1 75 0
 2847 0834 9342     		cmp	r3, r2
 2848 0836 38BF     		it	cc
 2849 0838 1346     		movcc	r3, r2
 2850              	.LVL277:
ARM GAS  /tmp/ccMboyVS.s 			page 51


 2851 083a B3F1005F 		cmp	r3, #536870912
 2852 083e 00F06D84 		beq	.L378
 2853 0842 00F21E81 		bhi	.L470
 2854 0846 082B     		cmp	r3, #8
 2855 0848 00F08C84 		beq	.L376
 2856 084c 0C2B     		cmp	r3, #12
 2857 084e 40F0D883 		bne	.L514
 2858              		.loc 1 76 0
 2859 0852 3B09     		lsrs	r3, r7, #4
 2860 0854 00F05481 		beq	.L377
 2861 0858 2046     		mov	r0, r4
 2862 085a FFF7FEFF 		bl	lbm_dec_as_i
 2863              	.LVL278:
 2864 085e 0446     		mov	r4, r0
 2865              	.LVL279:
 2866 0860 3846     		mov	r0, r7
 2867 0862 FFF7FEFF 		bl	lbm_dec_as_i
 2868              	.LVL280:
 2869 0866 94FBF0F4 		sdiv	r4, r4, r0
 2870              	.LVL281:
 2871              	.LBB1654:
 2872              	.LBB1655:
 2873              		.loc 2 485 0
 2874 086a 2401     		lsls	r4, r4, #4
 2875              	.LVL282:
 2876 086c 44F00C04 		orr	r4, r4, #12
 2877              	.LVL283:
 2878              	.L375:
 2879 0870 04F00C03 		and	r3, r4, #12
 2880              	.L388:
 2881              	.LBE1655:
 2882              	.LBE1654:
 2883              	.LBE1675:
 2884              	.LBE1686:
 2885              		.loc 1 725 0
 2886 0874 002B     		cmp	r3, #0
 2887 0876 3FF4F3AC 		beq	.L191
 2888              		.loc 1 723 0 discriminator 2
 2889 087a 0AF1010A 		add	r10, r10, #1
 2890              	.LVL284:
 2891 087e 5645     		cmp	r6, r10
 2892 0880 7FF4EDAD 		bne	.L389
 2893 0884 ECE4     		b	.L191
 2894              	.LVL285:
 2895              	.L980:
 2896              	.LBE1696:
 2897              	.LBE1759:
 2898              	.LBB1760:
 2899              	.LBB1184:
 2900              	.LBB1179:
 2901              	.LBB1170:
 2902              	.LBB1155:
 2903              	.LBB1154:
 2904              		.loc 2 561 0
 2905 0886 082F     		cmp	r7, #8
 2906 0888 15D0     		beq	.L426
 2907              		.loc 2 562 0
ARM GAS  /tmp/ccMboyVS.s 			page 52


 2908 088a BAF1040F 		cmp	r10, #4
 2909 088e 12D0     		beq	.L426
 2910              		.loc 2 563 0
 2911 0890 B7F1405F 		cmp	r7, #805306368
 2912 0894 00F02B84 		beq	.L427
 2913              		.loc 2 564 0
 2914 0898 B7F1005F 		cmp	r7, #536870912
 2915 089c 00F00E84 		beq	.L428
 2916              		.loc 2 565 0
 2917 08a0 B7F1804F 		cmp	r7, #1073741824
 2918 08a4 00F03D85 		beq	.L429
 2919              	.L516:
 2920              	.LBE1154:
 2921              	.LBE1155:
 2922              		.loc 1 253 0
 2923 08a8 0020     		movs	r0, #0
 2924              	.LVL286:
 2925              	.L430:
 2926              	.LBE1170:
 2927              	.LBE1179:
 2928              		.loc 1 784 0
 2929 08aa A9EB0000 		sub	r0, r9, r0
 2930 08ae B0FA80F0 		clz	r0, r0
 2931 08b2 4009     		lsrs	r0, r0, #5
 2932 08b4 AEE7     		b	.L475
 2933              	.LVL287:
 2934              	.L426:
 2935              	.LBB1180:
 2936              	.LBB1171:
 2937              	.LBB1156:
 2938              	.LBB1157:
 2939              		.loc 2 565 0
 2940 08b6 0C2B     		cmp	r3, #12
 2941 08b8 19D0     		beq	.L435
 2942              		.loc 2 561 0
 2943 08ba 082B     		cmp	r3, #8
 2944 08bc 09D0     		beq	.L431
 2945              	.L481:
 2946              		.loc 2 562 0
 2947 08be 042B     		cmp	r3, #4
 2948 08c0 07D0     		beq	.L431
 2949              		.loc 2 564 0
 2950 08c2 23F08051 		bic	r1, r3, #268435456
 2951 08c6 B1F1005F 		cmp	r1, #536870912
 2952 08ca 02D0     		beq	.L431
 2953              		.loc 2 565 0
 2954 08cc B3F1804F 		cmp	r3, #1073741824
 2955 08d0 EAD1     		bne	.L516
 2956              	.L431:
 2957              	.LVL288:
 2958              	.LBE1157:
 2959              	.LBE1156:
 2960              		.loc 1 260 0
 2961 08d2 BB42     		cmp	r3, r7
 2962 08d4 38BF     		it	cc
 2963 08d6 3B46     		movcc	r3, r7
 2964              	.LVL289:
ARM GAS  /tmp/ccMboyVS.s 			page 53


 2965 08d8 B3F1005F 		cmp	r3, #536870912
 2966 08dc 00F0F383 		beq	.L434
 2967 08e0 00F28584 		bhi	.L476
 2968 08e4 082B     		cmp	r3, #8
 2969 08e6 00F0EE83 		beq	.L434
 2970 08ea 0C2B     		cmp	r3, #12
 2971 08ec DCD1     		bne	.L516
 2972              	.L435:
 2973              	.LVL290:
 2974              		.loc 1 264 0
 2975 08ee 4046     		mov	r0, r8
 2976              	.LVL291:
 2977 08f0 0192     		str	r2, [sp, #4]
 2978 08f2 FFF7FEFF 		bl	lbm_dec_as_i
 2979              	.LVL292:
 2980 08f6 019A     		ldr	r2, [sp, #4]
 2981 08f8 8346     		mov	fp, r0
 2982 08fa 1046     		mov	r0, r2
 2983 08fc FFF7FEFF 		bl	lbm_dec_as_i
 2984              	.LVL293:
 2985              	.LBB1161:
 2986              	.LBB1162:
 2987              		.loc 1 235 0
 2988 0900 8345     		cmp	fp, r0
 2989 0902 ACBF     		ite	ge
 2990 0904 0023     		movge	r3, #0
 2991 0906 0123     		movlt	r3, #1
 2992 0908 8345     		cmp	fp, r0
 2993 090a D4BF     		ite	le
 2994 090c 5842     		rsble	r0, r3, #0
 2995 090e C3F10100 		rsbgt	r0, r3, #1
 2996              	.LVL294:
 2997 0912 CAE7     		b	.L430
 2998              	.LVL295:
 2999              	.L978:
 3000              	.LBE1162:
 3001              	.LBE1161:
 3002              	.LBE1171:
 3003              	.LBE1180:
 3004              	.LBE1184:
 3005              	.LBE1760:
 3006              	.LBB1761:
 3007              	.LBB1568:
 3008              	.LBB1559:
 3009              	.LBB1549:
 3010              	.LBB1530:
 3011              	.LBB1527:
 3012              	.LBB1526:
 3013              	.LBB1525:
 3014              		.loc 2 461 0
 3015 0914 07F00C02 		and	r2, r7, #12
 3016 0918 9BE6     		b	.L330
 3017              	.LVL296:
 3018              	.L473:
 3019              	.LBE1525:
 3020              	.LBE1526:
 3021              	.LBE1527:
ARM GAS  /tmp/ccMboyVS.s 			page 54


 3022              	.LBE1530:
 3023              	.LBE1549:
 3024              	.LBE1559:
 3025              	.LBE1568:
 3026              	.LBE1761:
 3027              	.LBB1762:
 3028              	.LBB1282:
 3029              	.LBB1270:
 3030              	.LBB1257:
 3031              		.loc 1 94 0
 3032 091a B3F1405F 		cmp	r3, #805306368
 3033 091e 00F01181 		beq	.L406
 3034 0922 B3F1804F 		cmp	r3, #1073741824
 3035 0926 40F0E280 		bne	.L515
 3036              		.loc 1 99 0
 3037 092a 3846     		mov	r0, r7
 3038 092c FFF7FEFF 		bl	lbm_dec_as_f
 3039              	.LVL297:
 3040 0930 B5EE400A 		vcmp.f32	s0, #0
 3041 0934 F1EE10FA 		vmrs	APSR_nzcv, FPSCR
 3042 0938 00F09D80 		beq	.L400
 3043 093c 3846     		mov	r0, r7
 3044 093e FFF7FEFF 		bl	lbm_dec_as_f
 3045              	.LVL298:
 3046 0942 B5EE400A 		vcmp.f32	s0, #0
 3047 0946 F1EE10FA 		vmrs	APSR_nzcv, FPSCR
 3048 094a 00F09480 		beq	.L400
 3049 094e 2046     		mov	r0, r4
 3050 0950 FFF7FEFF 		bl	lbm_dec_as_f
 3051              	.LVL299:
 3052 0954 3846     		mov	r0, r7
 3053 0956 B0EE408A 		vmov.f32	s16, s0
 3054 095a FFF7FEFF 		bl	lbm_dec_as_f
 3055              	.LVL300:
 3056 095e F0EE400A 		vmov.f32	s1, s0
 3057 0962 B0EE480A 		vmov.f32	s0, s16
 3058 0966 FFF7FEFF 		bl	fmodf
 3059              	.LVL301:
 3060              	.LBB1234:
 3061              	.LBB1202:
 3062              		.loc 2 507 0
 3063 096a 4FF40C71 		mov	r1, #560
 3064 096e 10EE100A 		vmov	r0, s0	@ int
 3065 0972 FFF7FEFF 		bl	lbm_cons
 3066              	.LVL302:
 3067              	.LBB1197:
 3068              	.LBB1198:
 3069              		.loc 2 461 0
 3070 0976 C207     		lsls	r2, r0, #31
 3071              	.LBE1198:
 3072              	.LBE1197:
 3073              		.loc 2 507 0
 3074 0978 0446     		mov	r4, r0
 3075              	.LVL303:
 3076              	.LBB1200:
 3077              	.LBB1199:
 3078              		.loc 2 461 0
ARM GAS  /tmp/ccMboyVS.s 			page 55


 3079 097a 40F1DC84 		bpl	.L410
 3080              	.LVL304:
 3081              	.LBE1199:
 3082              	.LBE1200:
 3083              		.loc 2 508 0
 3084 097e 10F07C4F 		tst	r0, #-67108864
 3085 0982 3FF46DAC 		beq	.L191
 3086              	.L411:
 3087              	.LVL305:
 3088              	.LBB1201:
 3089              	.LBB1196:
 3090              		.loc 2 477 0
 3091 0986 2C40     		ands	r4, r4, r5
 3092 0988 44EA0804 		orr	r4, r4, r8
 3093              	.LVL306:
 3094              	.L405:
 3095 098c 04F07C43 		and	r3, r4, #-67108864
 3096 0990 92E6     		b	.L412
 3097              	.LVL307:
 3098              	.L461:
 3099              	.LBE1196:
 3100              	.LBE1201:
 3101              	.LBE1202:
 3102              	.LBE1234:
 3103              	.LBE1257:
 3104              	.LBE1270:
 3105              	.LBE1282:
 3106              	.LBE1762:
 3107              	.LBB1763:
 3108              	.LBB1378:
 3109              	.LBB1367:
 3110              	.LBB1355:
 3111              		.loc 1 37 0
 3112 0992 B3F1405F 		cmp	r3, #805306368
 3113 0996 00F0F580 		beq	.L303
 3114 099a B3F1804F 		cmp	r3, #1073741824
 3115 099e 40F0A980 		bne	.L511
 3116              		.loc 1 42 0
 3117 09a2 2046     		mov	r0, r4
 3118 09a4 FFF7FEFF 		bl	lbm_dec_as_f
 3119              	.LVL308:
 3120 09a8 5846     		mov	r0, fp
 3121 09aa B0EE408A 		vmov.f32	s16, s0
 3122 09ae FFF7FEFF 		bl	lbm_dec_as_f
 3123              	.LVL309:
 3124              	.LBB1334:
 3125              	.LBB1304:
 3126              		.loc 2 507 0
 3127 09b2 78EE007A 		vadd.f32	s15, s16, s0
 3128              	.LVL310:
 3129 09b6 4FF40C71 		mov	r1, #560
 3130 09ba 17EE900A 		vmov	r0, s15
 3131 09be FFF7FEFF 		bl	lbm_cons
 3132              	.LVL311:
 3133              	.LBB1299:
 3134              	.LBB1300:
 3135              		.loc 2 461 0
ARM GAS  /tmp/ccMboyVS.s 			page 56


 3136 09c2 C307     		lsls	r3, r0, #31
 3137              	.LBE1300:
 3138              	.LBE1299:
 3139              		.loc 2 507 0
 3140 09c4 0446     		mov	r4, r0
 3141              	.LVL312:
 3142              	.LBB1302:
 3143              	.LBB1301:
 3144              		.loc 2 461 0
 3145 09c6 40F19F83 		bpl	.L307
 3146              	.LVL313:
 3147              	.LBE1301:
 3148              	.LBE1302:
 3149              		.loc 2 508 0
 3150 09ca 10F07C43 		ands	r3, r0, #-67108864
 3151 09ce 3FF498AE 		beq	.L309
 3152              	.L308:
 3153              	.LVL314:
 3154              	.LBB1303:
 3155              	.LBB1298:
 3156              		.loc 2 477 0
 3157 09d2 3C40     		ands	r4, r4, r7
 3158 09d4 44EA0904 		orr	r4, r4, r9
 3159              	.LVL315:
 3160 09d8 04F07C43 		and	r3, r4, #-67108864
 3161 09dc 91E6     		b	.L309
 3162              	.LVL316:
 3163              	.L467:
 3164              	.LBE1298:
 3165              	.LBE1303:
 3166              	.LBE1304:
 3167              	.LBE1334:
 3168              	.LBE1355:
 3169              	.LBE1367:
 3170              	.LBE1378:
 3171              	.LBE1763:
 3172              	.LBB1764:
 3173              	.LBB1471:
 3174              	.LBB1460:
 3175              	.LBB1448:
 3176              		.loc 1 56 0
 3177 09de B3F1405F 		cmp	r3, #805306368
 3178 09e2 00F0F680 		beq	.L359
 3179 09e6 B3F1804F 		cmp	r3, #1073741824
 3180 09ea 40F08680 		bne	.L513
 3181              		.loc 1 61 0
 3182 09ee 2046     		mov	r0, r4
 3183 09f0 FFF7FEFF 		bl	lbm_dec_as_f
 3184              	.LVL317:
 3185 09f4 5846     		mov	r0, fp
 3186 09f6 B0EE408A 		vmov.f32	s16, s0
 3187 09fa FFF7FEFF 		bl	lbm_dec_as_f
 3188              	.LVL318:
 3189              	.LBB1429:
 3190              	.LBB1399:
 3191              		.loc 2 507 0
 3192 09fe 68EE007A 		vmul.f32	s15, s16, s0
ARM GAS  /tmp/ccMboyVS.s 			page 57


 3193              	.LVL319:
 3194 0a02 4FF40C71 		mov	r1, #560
 3195 0a06 17EE900A 		vmov	r0, s15
 3196 0a0a FFF7FEFF 		bl	lbm_cons
 3197              	.LVL320:
 3198              	.LBB1394:
 3199              	.LBB1395:
 3200              		.loc 2 461 0
 3201 0a0e C207     		lsls	r2, r0, #31
 3202              	.LBE1395:
 3203              	.LBE1394:
 3204              		.loc 2 507 0
 3205 0a10 0446     		mov	r4, r0
 3206              	.LVL321:
 3207              	.LBB1397:
 3208              	.LBB1396:
 3209              		.loc 2 461 0
 3210 0a12 40F1BB83 		bpl	.L363
 3211              	.LVL322:
 3212              	.LBE1396:
 3213              	.LBE1397:
 3214              		.loc 2 508 0
 3215 0a16 10F07C43 		ands	r3, r0, #-67108864
 3216 0a1a 3FF498AE 		beq	.L365
 3217              	.L364:
 3218              	.LVL323:
 3219              	.LBB1398:
 3220              	.LBB1393:
 3221              		.loc 2 477 0
 3222 0a1e 3C40     		ands	r4, r4, r7
 3223 0a20 44EA0904 		orr	r4, r4, r9
 3224              	.LVL324:
 3225 0a24 04F07C43 		and	r3, r4, #-67108864
 3226 0a28 91E6     		b	.L365
 3227              	.LVL325:
 3228              	.L464:
 3229              	.LBE1393:
 3230              	.LBE1398:
 3231              	.LBE1399:
 3232              	.LBE1429:
 3233              	.LBE1448:
 3234              	.LBE1460:
 3235              	.LBE1471:
 3236              	.LBE1764:
 3237              	.LBB1765:
 3238              	.LBB1569:
 3239              	.LBB1560:
 3240              	.LBB1550:
 3241              		.loc 1 149 0
 3242 0a2a B3F1405F 		cmp	r3, #805306368
 3243 0a2e 00F05E81 		beq	.L339
 3244 0a32 B3F1804F 		cmp	r3, #1073741824
 3245 0a36 66D1     		bne	.L512
 3246              		.loc 1 154 0
 3247 0a38 2046     		mov	r0, r4
 3248 0a3a FFF7FEFF 		bl	lbm_dec_as_f
 3249              	.LVL326:
ARM GAS  /tmp/ccMboyVS.s 			page 58


 3250 0a3e 3846     		mov	r0, r7
 3251 0a40 B0EE408A 		vmov.f32	s16, s0
 3252 0a44 FFF7FEFF 		bl	lbm_dec_as_f
 3253              	.LVL327:
 3254              	.LBB1531:
 3255              	.LBB1501:
 3256              		.loc 2 507 0
 3257 0a48 78EE407A 		vsub.f32	s15, s16, s0
 3258              	.LVL328:
 3259 0a4c 4FF40C71 		mov	r1, #560
 3260 0a50 17EE900A 		vmov	r0, s15
 3261 0a54 FFF7FEFF 		bl	lbm_cons
 3262              	.LVL329:
 3263              	.LBB1496:
 3264              	.LBB1497:
 3265              		.loc 2 461 0
 3266 0a58 C207     		lsls	r2, r0, #31
 3267              	.LBE1497:
 3268              	.LBE1496:
 3269              		.loc 2 507 0
 3270 0a5a 0446     		mov	r4, r0
 3271              	.LVL330:
 3272              	.LBB1499:
 3273              	.LBB1498:
 3274              		.loc 2 461 0
 3275 0a5c 40F11084 		bpl	.L343
 3276              	.LVL331:
 3277              	.LBE1498:
 3278              	.LBE1499:
 3279              		.loc 2 508 0
 3280 0a60 10F07C43 		ands	r3, r0, #-67108864
 3281 0a64 3FF498AE 		beq	.L345
 3282              	.L344:
 3283              	.LVL332:
 3284              	.LBB1500:
 3285              	.LBB1495:
 3286              		.loc 2 477 0
 3287 0a68 04EA0B04 		and	r4, r4, fp
 3288 0a6c 44EA0904 		orr	r4, r4, r9
 3289              	.LVL333:
 3290 0a70 04F07C43 		and	r3, r4, #-67108864
 3291 0a74 90E6     		b	.L345
 3292              	.LVL334:
 3293              	.L400:
 3294              	.LBE1495:
 3295              	.LBE1500:
 3296              	.LBE1501:
 3297              	.LBE1531:
 3298              	.LBE1550:
 3299              	.LBE1560:
 3300              	.LBE1569:
 3301              	.LBE1765:
 3302              	.LBB1766:
 3303              	.LBB1283:
 3304              	.LBB1271:
 3305              	.LBB1258:
 3306              	.LBB1235:
ARM GAS  /tmp/ccMboyVS.s 			page 59


 3307              	.LBB1230:
 3308              		.loc 2 565 0
 3309 0a76 B024     		movs	r4, #176
 3310 0a78 FFF7F2BB 		b	.L191
 3311              	.LVL335:
 3312              	.L979:
 3313              	.LBE1230:
 3314              	.LBE1235:
 3315              	.LBE1258:
 3316              	.LBE1271:
 3317              	.LBE1283:
 3318              	.LBE1766:
 3319              	.LBB1767:
 3320              	.LBB1697:
 3321              	.LBB1687:
 3322              	.LBB1676:
 3323              	.LBB1656:
 3324              	.LBB1652:
 3325              	.LBB1651:
 3326              	.LBB1650:
 3327              		.loc 2 461 0
 3328 0a7c 07F00C02 		and	r2, r7, #12
 3329 0a80 98E6     		b	.L371
 3330              	.LVL336:
 3331              	.L470:
 3332              	.LBE1650:
 3333              	.LBE1651:
 3334              	.LBE1652:
 3335              	.LBE1656:
 3336              		.loc 1 75 0
 3337 0a82 B3F1405F 		cmp	r3, #805306368
 3338 0a86 00F08683 		beq	.L382
 3339 0a8a B3F1804F 		cmp	r3, #1073741824
 3340 0a8e 40F0B882 		bne	.L514
 3341              		.loc 1 80 0
 3342 0a92 3846     		mov	r0, r7
 3343 0a94 FFF7FEFF 		bl	lbm_dec_as_f
 3344              	.LVL337:
 3345 0a98 B5EE400A 		vcmp.f32	s0, #0
 3346 0a9c F1EE10FA 		vmrs	APSR_nzcv, FPSCR
 3347 0aa0 2ED0     		beq	.L377
 3348 0aa2 3846     		mov	r0, r7
 3349 0aa4 FFF7FEFF 		bl	lbm_dec_as_f
 3350              	.LVL338:
 3351 0aa8 B5EE400A 		vcmp.f32	s0, #0
 3352 0aac F1EE10FA 		vmrs	APSR_nzcv, FPSCR
 3353 0ab0 26D0     		beq	.L377
 3354 0ab2 2046     		mov	r0, r4
 3355 0ab4 FFF7FEFF 		bl	lbm_dec_as_f
 3356              	.LVL339:
 3357 0ab8 3846     		mov	r0, r7
 3358 0aba B0EE408A 		vmov.f32	s16, s0
 3359 0abe FFF7FEFF 		bl	lbm_dec_as_f
 3360              	.LVL340:
 3361              	.LBB1657:
 3362              	.LBB1626:
 3363              		.loc 2 507 0
ARM GAS  /tmp/ccMboyVS.s 			page 60


 3364 0ac2 C8EE007A 		vdiv.f32	s15, s16, s0
 3365              	.LVL341:
 3366 0ac6 4FF40C71 		mov	r1, #560
 3367 0aca 17EE900A 		vmov	r0, s15
 3368 0ace FFF7FEFF 		bl	lbm_cons
 3369              	.LVL342:
 3370              	.LBB1621:
 3371              	.LBB1622:
 3372              		.loc 2 461 0
 3373 0ad2 C207     		lsls	r2, r0, #31
 3374              	.LBE1622:
 3375              	.LBE1621:
 3376              		.loc 2 507 0
 3377 0ad4 0446     		mov	r4, r0
 3378              	.LVL343:
 3379              	.LBB1624:
 3380              	.LBB1623:
 3381              		.loc 2 461 0
 3382 0ad6 40F13485 		bpl	.L386
 3383              	.LVL344:
 3384              	.LBE1623:
 3385              	.LBE1624:
 3386              		.loc 2 508 0
 3387 0ada 10F07C43 		ands	r3, r0, #-67108864
 3388 0ade 3FF4C9AE 		beq	.L388
 3389              	.L387:
 3390              	.LVL345:
 3391              	.LBB1625:
 3392              	.LBB1620:
 3393              		.loc 2 477 0
 3394 0ae2 2C40     		ands	r4, r4, r5
 3395 0ae4 44EA0804 		orr	r4, r4, r8
 3396              	.LVL346:
 3397 0ae8 04F07C43 		and	r3, r4, #-67108864
 3398 0aec C2E6     		b	.L388
 3399              	.LVL347:
 3400              	.L515:
 3401              	.LBE1620:
 3402              	.LBE1625:
 3403              	.LBE1626:
 3404              	.LBE1657:
 3405              	.LBE1676:
 3406              	.LBE1687:
 3407              	.LBE1697:
 3408              	.LBE1767:
 3409              	.LBB1768:
 3410              	.LBB1284:
 3411              	.LBB1272:
 3412              	.LBB1259:
 3413              		.loc 1 87 0
 3414 0aee 8024     		movs	r4, #128
 3415              	.LVL348:
 3416              	.LBE1259:
 3417              	.LBE1272:
 3418              	.LBE1284:
 3419              		.loc 1 744 0
 3420 0af0 FFF7B6BB 		b	.L191
ARM GAS  /tmp/ccMboyVS.s 			page 61


 3421              	.LVL349:
 3422              	.L511:
 3423              	.LBE1768:
 3424              	.LBB1769:
 3425              	.LBB1379:
 3426              	.LBB1368:
 3427              	.LBB1356:
 3428              		.loc 1 30 0
 3429 0af4 8024     		movs	r4, #128
 3430              	.LVL350:
 3431              	.LBE1356:
 3432              	.LBE1368:
 3433              	.LBE1379:
 3434              		.loc 1 692 0
 3435 0af6 FFF7B3BB 		b	.L191
 3436              	.LVL351:
 3437              	.L513:
 3438              	.LBE1769:
 3439              	.LBB1770:
 3440              	.LBB1472:
 3441              	.LBB1461:
 3442              	.LBB1449:
 3443              		.loc 1 49 0
 3444 0afa 8024     		movs	r4, #128
 3445              	.LVL352:
 3446              	.LBE1449:
 3447              	.LBE1461:
 3448              	.LBE1472:
 3449              		.loc 1 718 0
 3450 0afc FFF7B0BB 		b	.L191
 3451              	.LVL353:
 3452              	.L377:
 3453              	.LBE1770:
 3454              	.LBB1771:
 3455              	.LBB1698:
 3456              	.LBB1688:
 3457              	.LBB1677:
 3458              	.LBB1658:
 3459              	.LBB1653:
 3460              		.loc 2 565 0
 3461 0b00 B024     		movs	r4, #176
 3462 0b02 FFF7ADBB 		b	.L191
 3463              	.LVL354:
 3464              	.L512:
 3465              	.LBE1653:
 3466              	.LBE1658:
 3467              	.LBE1677:
 3468              	.LBE1688:
 3469              	.LBE1698:
 3470              	.LBE1771:
 3471              	.LBB1772:
 3472              	.LBB1570:
 3473              	.LBB1561:
 3474              	.LBB1551:
 3475              		.loc 1 142 0
 3476 0b06 8024     		movs	r4, #128
 3477              	.LVL355:
ARM GAS  /tmp/ccMboyVS.s 			page 62


 3478              	.LBE1551:
 3479              	.LBE1561:
 3480              	.LBE1570:
 3481              		.loc 1 707 0
 3482 0b08 FFF7AABB 		b	.L191
 3483              	.LVL356:
 3484              	.L299:
 3485              	.LBE1772:
 3486              	.LBB1773:
 3487              	.LBB1380:
 3488              	.LBB1369:
 3489              	.LBB1357:
 3490              		.loc 1 40 0
 3491 0b0c 2046     		mov	r0, r4
 3492 0b0e FFF7FEFF 		bl	lbm_dec_as_u
 3493              	.LVL357:
 3494 0b12 0446     		mov	r4, r0
 3495              	.LVL358:
 3496 0b14 5846     		mov	r0, fp
 3497 0b16 FFF7FEFF 		bl	lbm_dec_as_u
 3498              	.LVL359:
 3499              	.LBB1335:
 3500              	.LBB1336:
 3501              		.loc 2 499 0
 3502 0b1a 4FF40871 		mov	r1, #544
 3503 0b1e 2044     		add	r0, r0, r4
 3504              	.LVL360:
 3505 0b20 FFF7FEFF 		bl	lbm_cons
 3506              	.LVL361:
 3507              	.LBB1337:
 3508              	.LBB1338:
 3509              		.loc 2 461 0
 3510 0b24 C107     		lsls	r1, r0, #31
 3511              	.LBE1338:
 3512              	.LBE1337:
 3513              		.loc 2 499 0
 3514 0b26 0446     		mov	r4, r0
 3515              	.LVL362:
 3516              	.LBB1340:
 3517              	.LBB1339:
 3518              		.loc 2 461 0
 3519 0b28 40F15C83 		bpl	.L300
 3520              	.LVL363:
 3521              	.LBE1339:
 3522              	.LBE1340:
 3523              		.loc 2 500 0
 3524 0b2c 10F07C43 		ands	r3, r0, #-67108864
 3525 0b30 3FF4E7AD 		beq	.L309
 3526              	.L302:
 3527              	.LVL364:
 3528              	.LBB1341:
 3529              	.LBB1342:
 3530              		.loc 2 477 0
 3531 0b34 3C40     		ands	r4, r4, r7
 3532 0b36 44F00054 		orr	r4, r4, #536870912
 3533 0b3a 44F00104 		orr	r4, r4, #1
 3534              	.LVL365:
ARM GAS  /tmp/ccMboyVS.s 			page 63


 3535 0b3e 04F07C43 		and	r3, r4, #-67108864
 3536 0b42 DEE5     		b	.L309
 3537              	.LVL366:
 3538              	.L406:
 3539              	.LBE1342:
 3540              	.LBE1341:
 3541              	.LBE1336:
 3542              	.LBE1335:
 3543              	.LBE1357:
 3544              	.LBE1369:
 3545              	.LBE1380:
 3546              	.LBE1773:
 3547              	.LBB1774:
 3548              	.LBB1285:
 3549              	.LBB1273:
 3550              	.LBB1260:
 3551              		.loc 1 98 0
 3552 0b44 3846     		mov	r0, r7
 3553 0b46 FFF7FEFF 		bl	lbm_dec_as_i
 3554              	.LVL367:
 3555 0b4a 0028     		cmp	r0, #0
 3556 0b4c 93D0     		beq	.L400
 3557 0b4e 2046     		mov	r0, r4
 3558 0b50 FFF7FEFF 		bl	lbm_dec_as_i
 3559              	.LVL368:
 3560 0b54 0446     		mov	r4, r0
 3561              	.LVL369:
 3562 0b56 3846     		mov	r0, r7
 3563 0b58 FFF7FEFF 		bl	lbm_dec_as_i
 3564              	.LVL370:
 3565              	.LBB1236:
 3566              	.LBB1214:
 3567              		.loc 2 493 0
 3568 0b5c 4FF40471 		mov	r1, #528
 3569              	.LBE1214:
 3570              	.LBE1236:
 3571              		.loc 1 98 0
 3572 0b60 94FBF0F3 		sdiv	r3, r4, r0
 3573              	.LBB1237:
 3574              	.LBB1215:
 3575              		.loc 2 493 0
 3576 0b64 03FB1040 		mls	r0, r3, r0, r4
 3577              	.LVL371:
 3578 0b68 FFF7FEFF 		bl	lbm_cons
 3579              	.LVL372:
 3580              	.LBB1209:
 3581              	.LBB1210:
 3582              		.loc 2 461 0
 3583 0b6c C107     		lsls	r1, r0, #31
 3584              	.LBE1210:
 3585              	.LBE1209:
 3586              		.loc 2 493 0
 3587 0b6e 0446     		mov	r4, r0
 3588              	.LVL373:
 3589              	.LBB1212:
 3590              	.LBB1211:
 3591              		.loc 2 461 0
ARM GAS  /tmp/ccMboyVS.s 			page 64


 3592 0b70 40F1CB83 		bpl	.L407
 3593              	.LVL374:
 3594              	.LBE1211:
 3595              	.LBE1212:
 3596              		.loc 2 494 0
 3597 0b74 10F07C4F 		tst	r0, #-67108864
 3598 0b78 3FF472AB 		beq	.L191
 3599              	.L408:
 3600              	.LVL375:
 3601              	.LBB1213:
 3602              	.LBB1208:
 3603              		.loc 2 477 0
 3604 0b7c 2C40     		ands	r4, r4, r5
 3605 0b7e 44EA0B04 		orr	r4, r4, fp
 3606              	.LVL376:
 3607 0b82 03E7     		b	.L405
 3608              	.LVL377:
 3609              	.L303:
 3610              	.LBE1208:
 3611              	.LBE1213:
 3612              	.LBE1215:
 3613              	.LBE1237:
 3614              	.LBE1260:
 3615              	.LBE1273:
 3616              	.LBE1285:
 3617              	.LBE1774:
 3618              	.LBB1775:
 3619              	.LBB1381:
 3620              	.LBB1370:
 3621              	.LBB1358:
 3622              		.loc 1 41 0
 3623 0b84 2046     		mov	r0, r4
 3624 0b86 FFF7FEFF 		bl	lbm_dec_as_i
 3625              	.LVL378:
 3626 0b8a 0446     		mov	r4, r0
 3627              	.LVL379:
 3628 0b8c 5846     		mov	r0, fp
 3629 0b8e FFF7FEFF 		bl	lbm_dec_as_i
 3630              	.LVL380:
 3631              	.LBB1344:
 3632              	.LBB1316:
 3633              		.loc 2 493 0
 3634 0b92 4FF40471 		mov	r1, #528
 3635 0b96 2044     		add	r0, r0, r4
 3636              	.LVL381:
 3637 0b98 FFF7FEFF 		bl	lbm_cons
 3638              	.LVL382:
 3639              	.LBB1311:
 3640              	.LBB1312:
 3641              		.loc 2 461 0
 3642 0b9c C207     		lsls	r2, r0, #31
 3643              	.LBE1312:
 3644              	.LBE1311:
 3645              		.loc 2 493 0
 3646 0b9e 0446     		mov	r4, r0
 3647              	.LVL383:
 3648              	.LBB1314:
ARM GAS  /tmp/ccMboyVS.s 			page 65


 3649              	.LBB1313:
 3650              		.loc 2 461 0
 3651 0ba0 40F11B83 		bpl	.L304
 3652              	.LVL384:
 3653              	.LBE1313:
 3654              	.LBE1314:
 3655              		.loc 2 494 0
 3656 0ba4 10F07C43 		ands	r3, r0, #-67108864
 3657 0ba8 3FF4ABAD 		beq	.L309
 3658              	.L305:
 3659              	.LVL385:
 3660              	.LBB1315:
 3661              	.LBB1310:
 3662              		.loc 2 477 0
 3663 0bac 3C40     		ands	r4, r4, r7
 3664 0bae 44EA0804 		orr	r4, r4, r8
 3665              	.LVL386:
 3666 0bb2 04F07C43 		and	r3, r4, #-67108864
 3667 0bb6 A4E5     		b	.L309
 3668              	.LVL387:
 3669              	.L354:
 3670              	.LBE1310:
 3671              	.LBE1315:
 3672              	.LBE1316:
 3673              	.LBE1344:
 3674              	.LBE1358:
 3675              	.LBE1370:
 3676              	.LBE1381:
 3677              	.LBE1775:
 3678              	.LBB1776:
 3679              	.LBB1473:
 3680              	.LBB1462:
 3681              	.LBB1450:
 3682              		.loc 1 58 0
 3683 0bb8 2046     		mov	r0, r4
 3684 0bba FFF7FEFF 		bl	lbm_dec_as_u
 3685              	.LVL388:
 3686 0bbe 0446     		mov	r4, r0
 3687              	.LVL389:
 3688 0bc0 5846     		mov	r0, fp
 3689 0bc2 FFF7FEFF 		bl	lbm_dec_as_u
 3690              	.LVL390:
 3691 0bc6 00FB04F4 		mul	r4, r0, r4
 3692              	.LVL391:
 3693              	.LBB1430:
 3694              	.LBB1431:
 3695              		.loc 2 489 0
 3696 0bca 2401     		lsls	r4, r4, #4
 3697              	.LVL392:
 3698 0bcc 44F00804 		orr	r4, r4, #8
 3699              	.LVL393:
 3700 0bd0 BBE5     		b	.L353
 3701              	.LVL394:
 3702              	.L359:
 3703              	.LBE1431:
 3704              	.LBE1430:
 3705              		.loc 1 60 0
ARM GAS  /tmp/ccMboyVS.s 			page 66


 3706 0bd2 2046     		mov	r0, r4
 3707 0bd4 FFF7FEFF 		bl	lbm_dec_as_i
 3708              	.LVL395:
 3709 0bd8 0446     		mov	r4, r0
 3710              	.LVL396:
 3711 0bda 5846     		mov	r0, fp
 3712 0bdc FFF7FEFF 		bl	lbm_dec_as_i
 3713              	.LVL397:
 3714              	.LBB1432:
 3715              	.LBB1411:
 3716              		.loc 2 493 0
 3717 0be0 4FF40471 		mov	r1, #528
 3718 0be4 00FB04F0 		mul	r0, r0, r4
 3719              	.LVL398:
 3720 0be8 FFF7FEFF 		bl	lbm_cons
 3721              	.LVL399:
 3722              	.LBB1406:
 3723              	.LBB1407:
 3724              		.loc 2 461 0
 3725 0bec C107     		lsls	r1, r0, #31
 3726              	.LBE1407:
 3727              	.LBE1406:
 3728              		.loc 2 493 0
 3729 0bee 0446     		mov	r4, r0
 3730              	.LVL400:
 3731              	.LBB1409:
 3732              	.LBB1408:
 3733              		.loc 2 461 0
 3734 0bf0 40F18582 		bpl	.L360
 3735              	.LVL401:
 3736              	.LBE1408:
 3737              	.LBE1409:
 3738              		.loc 2 494 0
 3739 0bf4 10F07C43 		ands	r3, r0, #-67108864
 3740 0bf8 3FF4A9AD 		beq	.L365
 3741              	.L361:
 3742              	.LVL402:
 3743              	.LBB1410:
 3744              	.LBB1405:
 3745              		.loc 2 477 0
 3746 0bfc 3C40     		ands	r4, r4, r7
 3747 0bfe 44EA0804 		orr	r4, r4, r8
 3748              	.LVL403:
 3749 0c02 04F07C43 		and	r3, r4, #-67108864
 3750 0c06 A2E5     		b	.L365
 3751              	.LVL404:
 3752              	.L399:
 3753              	.LBE1405:
 3754              	.LBE1410:
 3755              	.LBE1411:
 3756              	.LBE1432:
 3757              	.LBE1450:
 3758              	.LBE1462:
 3759              	.LBE1473:
 3760              	.LBE1776:
 3761              	.LBB1777:
 3762              	.LBB1286:
ARM GAS  /tmp/ccMboyVS.s 			page 67


 3763              	.LBB1274:
 3764              	.LBB1261:
 3765              		.loc 1 96 0
 3766 0c08 3846     		mov	r0, r7
 3767 0c0a FFF7FEFF 		bl	lbm_dec_as_u
 3768              	.LVL405:
 3769 0c0e 0028     		cmp	r0, #0
 3770 0c10 3FF431AF 		beq	.L400
 3771 0c14 2046     		mov	r0, r4
 3772 0c16 FFF7FEFF 		bl	lbm_dec_as_u
 3773              	.LVL406:
 3774 0c1a 0446     		mov	r4, r0
 3775              	.LVL407:
 3776 0c1c 3846     		mov	r0, r7
 3777 0c1e FFF7FEFF 		bl	lbm_dec_as_u
 3778              	.LVL408:
 3779 0c22 B4FBF0F3 		udiv	r3, r4, r0
 3780 0c26 03FB1044 		mls	r4, r3, r0, r4
 3781              	.LVL409:
 3782              	.LBB1238:
 3783              	.LBB1239:
 3784              		.loc 2 489 0
 3785 0c2a 2401     		lsls	r4, r4, #4
 3786 0c2c 44F00804 		orr	r4, r4, #8
 3787              	.LVL410:
 3788 0c30 40E5     		b	.L398
 3789              	.LVL411:
 3790              	.L298:
 3791              	.LBE1239:
 3792              	.LBE1238:
 3793              	.LBE1261:
 3794              	.LBE1274:
 3795              	.LBE1286:
 3796              	.LBE1777:
 3797              	.LBB1778:
 3798              	.LBB1382:
 3799              	.LBB1371:
 3800              	.LBB1359:
 3801              		.loc 1 39 0
 3802 0c32 2046     		mov	r0, r4
 3803 0c34 FFF7FEFF 		bl	lbm_dec_as_u
 3804              	.LVL412:
 3805 0c38 0446     		mov	r4, r0
 3806              	.LVL413:
 3807 0c3a 5846     		mov	r0, fp
 3808 0c3c FFF7FEFF 		bl	lbm_dec_as_u
 3809              	.LVL414:
 3810 0c40 0444     		add	r4, r4, r0
 3811              	.LVL415:
 3812              	.LBB1345:
 3813              	.LBB1346:
 3814              		.loc 2 489 0
 3815 0c42 2401     		lsls	r4, r4, #4
 3816              	.LVL416:
 3817 0c44 44F00804 		orr	r4, r4, #8
 3818              	.LVL417:
 3819 0c48 59E5     		b	.L297
ARM GAS  /tmp/ccMboyVS.s 			page 68


 3820              	.LVL418:
 3821              	.L355:
 3822              	.LBE1346:
 3823              	.LBE1345:
 3824              	.LBE1359:
 3825              	.LBE1371:
 3826              	.LBE1382:
 3827              	.LBE1778:
 3828              	.LBB1779:
 3829              	.LBB1474:
 3830              	.LBB1463:
 3831              	.LBB1451:
 3832              		.loc 1 59 0
 3833 0c4a 2046     		mov	r0, r4
 3834 0c4c FFF7FEFF 		bl	lbm_dec_as_u
 3835              	.LVL419:
 3836 0c50 0446     		mov	r4, r0
 3837              	.LVL420:
 3838 0c52 5846     		mov	r0, fp
 3839 0c54 FFF7FEFF 		bl	lbm_dec_as_u
 3840              	.LVL421:
 3841              	.LBB1433:
 3842              	.LBB1434:
 3843              		.loc 2 499 0
 3844 0c58 4FF40871 		mov	r1, #544
 3845 0c5c 00FB04F0 		mul	r0, r0, r4
 3846              	.LVL422:
 3847 0c60 FFF7FEFF 		bl	lbm_cons
 3848              	.LVL423:
 3849 0c64 0446     		mov	r4, r0
 3850              	.LVL424:
 3851              	.LBB1435:
 3852              	.LBB1436:
 3853              		.loc 2 461 0
 3854 0c66 E007     		lsls	r0, r4, #31
 3855              	.LVL425:
 3856 0c68 40F15382 		bpl	.L356
 3857              	.LVL426:
 3858              	.LBE1436:
 3859              	.LBE1435:
 3860              		.loc 2 500 0
 3861 0c6c 14F07C43 		ands	r3, r4, #-67108864
 3862 0c70 3FF46DAD 		beq	.L365
 3863              	.L358:
 3864              	.LVL427:
 3865              	.LBB1437:
 3866              	.LBB1438:
 3867              		.loc 2 477 0
 3868 0c74 3C40     		ands	r4, r4, r7
 3869              	.LVL428:
 3870 0c76 44F00054 		orr	r4, r4, #536870912
 3871 0c7a 44F00104 		orr	r4, r4, #1
 3872              	.LVL429:
 3873 0c7e 04F07C43 		and	r3, r4, #-67108864
 3874 0c82 64E5     		b	.L365
 3875              	.LVL430:
 3876              	.L401:
ARM GAS  /tmp/ccMboyVS.s 			page 69


 3877              	.LBE1438:
 3878              	.LBE1437:
 3879              	.LBE1434:
 3880              	.LBE1433:
 3881              	.LBE1451:
 3882              	.LBE1463:
 3883              	.LBE1474:
 3884              	.LBE1779:
 3885              	.LBB1780:
 3886              	.LBB1287:
 3887              	.LBB1275:
 3888              	.LBB1262:
 3889              		.loc 1 97 0
 3890 0c84 3846     		mov	r0, r7
 3891 0c86 FFF7FEFF 		bl	lbm_dec_as_u
 3892              	.LVL431:
 3893 0c8a 0028     		cmp	r0, #0
 3894 0c8c 3FF4F3AE 		beq	.L400
 3895 0c90 2046     		mov	r0, r4
 3896 0c92 FFF7FEFF 		bl	lbm_dec_as_u
 3897              	.LVL432:
 3898 0c96 0446     		mov	r4, r0
 3899              	.LVL433:
 3900 0c98 3846     		mov	r0, r7
 3901 0c9a FFF7FEFF 		bl	lbm_dec_as_u
 3902              	.LVL434:
 3903              	.LBB1240:
 3904              	.LBB1241:
 3905              		.loc 2 499 0
 3906 0c9e 4FF40871 		mov	r1, #544
 3907              	.LBE1241:
 3908              	.LBE1240:
 3909              		.loc 1 97 0
 3910 0ca2 B4FBF0F3 		udiv	r3, r4, r0
 3911              	.LBB1248:
 3912              	.LBB1246:
 3913              		.loc 2 499 0
 3914 0ca6 03FB1040 		mls	r0, r3, r0, r4
 3915              	.LVL435:
 3916 0caa FFF7FEFF 		bl	lbm_cons
 3917              	.LVL436:
 3918 0cae 0446     		mov	r4, r0
 3919              	.LVL437:
 3920              	.LBB1242:
 3921              	.LBB1243:
 3922              		.loc 2 461 0
 3923 0cb0 E007     		lsls	r0, r4, #31
 3924              	.LVL438:
 3925 0cb2 40F13083 		bpl	.L402
 3926              	.LVL439:
 3927              	.LBE1243:
 3928              	.LBE1242:
 3929              		.loc 2 500 0
 3930 0cb6 14F07C4F 		tst	r4, #-67108864
 3931 0cba 3FF4D1AA 		beq	.L191
 3932              	.L404:
 3933              	.LVL440:
ARM GAS  /tmp/ccMboyVS.s 			page 70


 3934              	.LBB1244:
 3935              	.LBB1245:
 3936              		.loc 2 477 0
 3937 0cbe 2C40     		ands	r4, r4, r5
 3938              	.LVL441:
 3939 0cc0 44F00054 		orr	r4, r4, #536870912
 3940 0cc4 44F00104 		orr	r4, r4, #1
 3941              	.LVL442:
 3942 0cc8 60E6     		b	.L405
 3943              	.LVL443:
 3944              	.L506:
 3945              	.LBE1245:
 3946              	.LBE1244:
 3947              	.LBE1246:
 3948              	.LBE1248:
 3949              	.LBE1262:
 3950              	.LBE1275:
 3951              	.LBE1287:
 3952              	.LBE1780:
 3953 0cca 9024     		movs	r4, #144
 3954 0ccc FFF7C8BA 		b	.L191
 3955              	.L503:
 3956              	.LBB1781:
 3957              		.loc 1 695 0
 3958 0cd0 0824     		movs	r4, #8
 3959 0cd2 FFF7C5BA 		b	.L191
 3960              	.LVL444:
 3961              	.L496:
 3962              	.LBE1781:
 3963              	.LBB1782:
 3964 0cd6 9024     		movs	r4, #144
 3965              	.LVL445:
 3966 0cd8 FFF7C2BA 		b	.L191
 3967              	.LVL446:
 3968              	.L973:
 3969              	.LBE1782:
 3970              	.LBB1783:
 3971              	.LBB1740:
 3972 0cdc 02AA     		add	r2, sp, #8
 3973              	.LVL447:
 3974 0cde FFF7FEFF 		bl	array_read.part.0
 3975              	.LVL448:
 3976 0ce2 029C     		ldr	r4, [sp, #8]
 3977 0ce4 FFF7BCBA 		b	.L191
 3978              	.LVL449:
 3979              	.L507:
 3980              	.LBE1740:
 3981              	.LBE1783:
 3982              	.LBB1784:
 3983              		.loc 1 799 0
 3984 0ce8 0C46     		mov	r4, r1
 3985 0cea FFF7B9BA 		b	.L191
 3986              	.LVL450:
 3987              	.L339:
 3988              	.LBE1784:
 3989              	.LBB1785:
 3990              	.LBB1571:
ARM GAS  /tmp/ccMboyVS.s 			page 71


 3991              	.LBB1562:
 3992              	.LBB1552:
 3993              		.loc 1 153 0
 3994 0cee 2046     		mov	r0, r4
 3995 0cf0 FFF7FEFF 		bl	lbm_dec_as_i
 3996              	.LVL451:
 3997 0cf4 0446     		mov	r4, r0
 3998              	.LVL452:
 3999 0cf6 3846     		mov	r0, r7
 4000 0cf8 FFF7FEFF 		bl	lbm_dec_as_i
 4001              	.LVL453:
 4002              	.LBB1532:
 4003              	.LBB1513:
 4004              		.loc 2 493 0
 4005 0cfc 4FF40471 		mov	r1, #528
 4006 0d00 201A     		subs	r0, r4, r0
 4007              	.LVL454:
 4008 0d02 FFF7FEFF 		bl	lbm_cons
 4009              	.LVL455:
 4010              	.LBB1508:
 4011              	.LBB1509:
 4012              		.loc 2 461 0
 4013 0d06 C107     		lsls	r1, r0, #31
 4014              	.LBE1509:
 4015              	.LBE1508:
 4016              		.loc 2 493 0
 4017 0d08 0446     		mov	r4, r0
 4018              	.LVL456:
 4019              	.LBB1511:
 4020              	.LBB1510:
 4021              		.loc 2 461 0
 4022 0d0a 40F1AB82 		bpl	.L340
 4023              	.LVL457:
 4024              	.LBE1510:
 4025              	.LBE1511:
 4026              		.loc 2 494 0
 4027 0d0e 10F07C43 		ands	r3, r0, #-67108864
 4028 0d12 3FF441AD 		beq	.L345
 4029              	.L341:
 4030              	.LVL458:
 4031              	.LBB1512:
 4032              	.LBB1507:
 4033              		.loc 2 477 0
 4034 0d16 04EA0B04 		and	r4, r4, fp
 4035 0d1a 44EA0804 		orr	r4, r4, r8
 4036              	.LVL459:
 4037 0d1e 04F07C43 		and	r3, r4, #-67108864
 4038 0d22 39E5     		b	.L345
 4039              	.LVL460:
 4040              	.L334:
 4041              	.LBE1507:
 4042              	.LBE1512:
 4043              	.LBE1513:
 4044              	.LBE1532:
 4045              		.loc 1 151 0
 4046 0d24 2046     		mov	r0, r4
 4047 0d26 FFF7FEFF 		bl	lbm_dec_as_u
ARM GAS  /tmp/ccMboyVS.s 			page 72


 4048              	.LVL461:
 4049 0d2a 0446     		mov	r4, r0
 4050              	.LVL462:
 4051 0d2c 3846     		mov	r0, r7
 4052 0d2e FFF7FEFF 		bl	lbm_dec_as_u
 4053              	.LVL463:
 4054 0d32 241A     		subs	r4, r4, r0
 4055              	.LVL464:
 4056              	.LBB1533:
 4057              	.LBB1534:
 4058              		.loc 2 489 0
 4059 0d34 2401     		lsls	r4, r4, #4
 4060              	.LVL465:
 4061 0d36 44F00804 		orr	r4, r4, #8
 4062              	.LVL466:
 4063 0d3a 2BE5     		b	.L333
 4064              	.LVL467:
 4065              	.L335:
 4066              	.LBE1534:
 4067              	.LBE1533:
 4068              		.loc 1 152 0
 4069 0d3c 2046     		mov	r0, r4
 4070 0d3e FFF7FEFF 		bl	lbm_dec_as_u
 4071              	.LVL468:
 4072 0d42 0446     		mov	r4, r0
 4073              	.LVL469:
 4074 0d44 3846     		mov	r0, r7
 4075 0d46 FFF7FEFF 		bl	lbm_dec_as_u
 4076              	.LVL470:
 4077              	.LBB1535:
 4078              	.LBB1536:
 4079              		.loc 2 499 0
 4080 0d4a 4FF40871 		mov	r1, #544
 4081 0d4e 201A     		subs	r0, r4, r0
 4082              	.LVL471:
 4083 0d50 FFF7FEFF 		bl	lbm_cons
 4084              	.LVL472:
 4085 0d54 0446     		mov	r4, r0
 4086              	.LVL473:
 4087              	.LBB1537:
 4088              	.LBB1538:
 4089              		.loc 2 461 0
 4090 0d56 E007     		lsls	r0, r4, #31
 4091              	.LVL474:
 4092 0d58 40F19882 		bpl	.L336
 4093              	.LVL475:
 4094              	.LBE1538:
 4095              	.LBE1537:
 4096              		.loc 2 500 0
 4097 0d5c 14F07C43 		ands	r3, r4, #-67108864
 4098 0d60 3FF41AAD 		beq	.L345
 4099              	.L338:
 4100              	.LVL476:
 4101              	.LBB1539:
 4102              	.LBB1540:
 4103              		.loc 2 477 0
 4104 0d64 04EA0B04 		and	r4, r4, fp
ARM GAS  /tmp/ccMboyVS.s 			page 73


 4105              	.LVL477:
 4106 0d68 44F00054 		orr	r4, r4, #536870912
 4107 0d6c 44F00104 		orr	r4, r4, #1
 4108              	.LVL478:
 4109 0d70 04F07C43 		and	r3, r4, #-67108864
 4110 0d74 10E5     		b	.L345
 4111              	.LVL479:
 4112              	.L970:
 4113              	.LBE1540:
 4114              	.LBE1539:
 4115              	.LBE1536:
 4116              	.LBE1535:
 4117              	.LBE1552:
 4118              	.LBE1562:
 4119              	.LBE1571:
 4120              	.LBE1785:
 4121              		.loc 1 822 0
 4122 0d76 0368     		ldr	r3, [r0]
 4123              	.LVL480:
 4124              	.LBB1786:
 4125              	.LBB1787:
 4126              		.loc 2 461 0
 4127 0d78 D907     		lsls	r1, r3, #31
 4128              	.LVL481:
 4129 0d7a 4CBF     		ite	mi
 4130 0d7c 03F07C43 		andmi	r3, r3, #-67108864
 4131              	.LVL482:
 4132 0d80 03F00C03 		andpl	r3, r3, #12
 4133              	.LVL483:
 4134              	.LBE1787:
 4135              	.LBE1786:
 4136              		.loc 1 823 0
 4137 0d84 B3F1805F 		cmp	r3, #268435456
 4138 0d88 00F0C483 		beq	.L445
 4139 0d8c 00F2A282 		bhi	.L446
 4140 0d90 042B     		cmp	r3, #4
 4141 0d92 00F0C383 		beq	.L447
 4142 0d96 40F29D83 		bls	.L981
 4143 0d9a 082B     		cmp	r3, #8
 4144 0d9c 00F0C583 		beq	.L450
 4145 0da0 0C2B     		cmp	r3, #12
 4146 0da2 40F0BF83 		bne	.L444
 4147              		.loc 1 835 0
 4148 0da6 4FF4A264 		mov	r4, #1296
 4149 0daa FFF759BA 		b	.L191
 4150              	.LVL484:
 4151              	.L971:
 4152              	.LBB1788:
 4153              		.loc 1 666 0
 4154 0dae D0E90064 		ldrd	r6, r4, [r0]
 4155              	.LVL485:
 4156              	.LBB1719:
 4157              	.LBB1720:
 4158              		.loc 2 461 0
 4159 0db2 F007     		lsls	r0, r6, #31
 4160              	.LVL486:
 4161              	.LBE1720:
ARM GAS  /tmp/ccMboyVS.s 			page 74


 4162              	.LBE1719:
 4163              		.loc 1 668 0
 4164 0db4 0294     		str	r4, [sp, #8]
 4165              	.LVL487:
 4166              	.LBB1724:
 4167              	.LBB1721:
 4168              		.loc 2 461 0
 4169 0db6 7FF553AA 		bpl	.L191
 4170              	.LVL488:
 4171 0dba 06F07C43 		and	r3, r6, #-67108864
 4172              	.LBE1721:
 4173              	.LBE1724:
 4174              		.loc 1 671 0
 4175 0dbe B3F1805F 		cmp	r3, #268435456
 4176 0dc2 7FF44DAA 		bne	.L191
 4177 0dc6 3046     		mov	r0, r6
 4178              		.loc 1 670 0
 4179 0dc8 0025     		movs	r5, #0
 4180              	.LVL489:
 4181              	.L287:
 4182              		.loc 1 673 0
 4183 0dca FFF7FEFF 		bl	lbm_cdr
 4184              	.LVL490:
 4185              	.LBB1725:
 4186              	.LBB1722:
 4187              		.loc 2 461 0
 4188 0dce C107     		lsls	r1, r0, #31
 4189 0dd0 00F07C43 		and	r3, r0, #-67108864
 4190              	.LBE1722:
 4191              	.LBE1725:
 4192              		.loc 1 672 0
 4193 0dd4 05F10102 		add	r2, r5, #1
 4194              	.LVL491:
 4195              	.LBB1726:
 4196              	.LBB1723:
 4197              		.loc 2 461 0
 4198 0dd8 07D5     		bpl	.L290
 4199              	.LBE1723:
 4200              	.LBE1726:
 4201              		.loc 1 671 0
 4202 0dda B3F1805F 		cmp	r3, #268435456
 4203 0dde 04D1     		bne	.L290
 4204              		.loc 1 672 0
 4205 0de0 1546     		mov	r5, r2
 4206 0de2 F2E7     		b	.L287
 4207              	.LVL492:
 4208              	.L982:
 4209              	.LBB1727:
 4210              		.loc 1 676 0 discriminator 2
 4211 0de4 6F1C     		adds	r7, r5, #1
 4212 0de6 3FF43BAA 		beq	.L191
 4213              	.LVL493:
 4214              	.L290:
 4215              		.loc 1 677 0
 4216 0dea 2946     		mov	r1, r5
 4217 0dec 3046     		mov	r0, r6
 4218 0dee FFF7FEFF 		bl	index_list
ARM GAS  /tmp/ccMboyVS.s 			page 75


 4219              	.LVL494:
 4220 0df2 0299     		ldr	r1, [sp, #8]
 4221 0df4 FFF7FEFF 		bl	lbm_cons
 4222              	.LVL495:
 4223              	.LBB1728:
 4224              	.LBB1729:
 4225              		.loc 2 461 0
 4226 0df8 C307     		lsls	r3, r0, #31
 4227 0dfa 4CBF     		ite	mi
 4228 0dfc 00F07C43 		andmi	r3, r0, #-67108864
 4229 0e00 00F00C03 		andpl	r3, r0, #12
 4230              	.LBE1729:
 4231              	.LBE1728:
 4232              		.loc 1 677 0
 4233 0e04 0446     		mov	r4, r0
 4234 0e06 0290     		str	r0, [sp, #8]
 4235              	.LVL496:
 4236              		.loc 1 676 0
 4237 0e08 013D     		subs	r5, r5, #1
 4238              	.LVL497:
 4239              		.loc 1 678 0
 4240 0e0a 002B     		cmp	r3, #0
 4241 0e0c EAD1     		bne	.L982
 4242 0e0e FFF727BA 		b	.L191
 4243              	.LVL498:
 4244              	.L961:
 4245              	.LBE1727:
 4246              	.LBE1788:
 4247              		.loc 1 536 0 discriminator 1
 4248 0e12 0468     		ldr	r4, [r0]
 4249              	.LVL499:
 4250              	.LBB1789:
 4251              	.LBB1790:
 4252              		.loc 2 461 0 discriminator 1
 4253 0e14 E307     		lsls	r3, r4, #31
 4254 0e16 40F16F82 		bpl	.L493
 4255              	.LVL500:
 4256              		.loc 2 461 0 is_stmt 0
 4257 0e1a 04F07C43 		and	r3, r4, #-67108864
 4258              	.LBE1790:
 4259              	.LBE1789:
 4260              		.loc 1 536 0 is_stmt 1
 4261 0e1e B3F1805F 		cmp	r3, #268435456
 4262 0e22 40F04E83 		bne	.L983
 4263 0e26 0426     		movs	r6, #4
 4264              	.LBB1792:
 4265              		.loc 1 538 0
 4266 0e28 0025     		movs	r5, #0
 4267              	.LVL501:
 4268              	.L254:
 4269              		.loc 1 543 0
 4270 0e2a 2046     		mov	r0, r4
 4271 0e2c FFF7FEFF 		bl	lbm_car
 4272              	.LVL502:
 4273              	.LBB1793:
 4274              	.LBB1794:
 4275              	.LBB1795:
ARM GAS  /tmp/ccMboyVS.s 			page 76


 4276              	.LBB1796:
 4277              		.loc 2 461 0
 4278 0e30 C707     		lsls	r7, r0, #31
 4279 0e32 4CBF     		ite	mi
 4280 0e34 00F07C40 		andmi	r0, r0, #-67108864
 4281              	.LVL503:
 4282 0e38 00F00C00 		andpl	r0, r0, #12
 4283              	.LBE1796:
 4284              	.LBE1795:
 4285              		.loc 2 561 0
 4286 0e3c 0828     		cmp	r0, #8
 4287 0e3e 00F02581 		beq	.L257
 4288              		.loc 2 562 0
 4289 0e42 20F00803 		bic	r3, r0, #8
 4290 0e46 042B     		cmp	r3, #4
 4291 0e48 00F02081 		beq	.L257
 4292              		.loc 2 564 0
 4293 0e4c 20F08053 		bic	r3, r0, #268435456
 4294 0e50 B3F1005F 		cmp	r3, #536870912
 4295 0e54 00F01A81 		beq	.L257
 4296              		.loc 2 565 0
 4297 0e58 B0F1804F 		cmp	r0, #1073741824
 4298 0e5c 00F01681 		beq	.L257
 4299              	.L258:
 4300              	.LVL504:
 4301              	.LBE1794:
 4302              	.LBE1793:
 4303              	.LBB1797:
 4304              	.LBB1798:
 4305              		.loc 2 507 0
 4306 0e60 2846     		mov	r0, r5
 4307 0e62 4FF40C71 		mov	r1, #560
 4308 0e66 FFF7FEFF 		bl	lbm_cons
 4309              	.LVL505:
 4310              	.LBB1799:
 4311              	.LBB1800:
 4312              		.loc 2 461 0
 4313 0e6a C607     		lsls	r6, r0, #31
 4314 0e6c 4CBF     		ite	mi
 4315 0e6e 00F07C43 		andmi	r3, r0, #-67108864
 4316 0e72 00F00C03 		andpl	r3, r0, #12
 4317              	.LBE1800:
 4318              	.LBE1799:
 4319              		.loc 2 507 0
 4320 0e76 0446     		mov	r4, r0
 4321              	.LVL506:
 4322              		.loc 2 508 0
 4323 0e78 002B     		cmp	r3, #0
 4324 0e7a 3FF4F1A9 		beq	.L191
 4325              	.LVL507:
 4326              	.LBB1801:
 4327              	.LBB1802:
 4328              		.loc 2 477 0
 4329 0e7e 20F07C44 		bic	r4, r0, #-67108864
 4330 0e82 24F00704 		bic	r4, r4, #7
 4331 0e86 44F08044 		orr	r4, r4, #1073741824
 4332 0e8a 44F00104 		orr	r4, r4, #1
ARM GAS  /tmp/ccMboyVS.s 			page 77


 4333              	.LVL508:
 4334 0e8e FFF7E7B9 		b	.L191
 4335              	.LVL509:
 4336              	.L963:
 4337              	.LBE1802:
 4338              	.LBE1801:
 4339              	.LBE1798:
 4340              	.LBE1797:
 4341              	.LBE1792:
 4342              		.loc 1 455 0 discriminator 1
 4343 0e92 0368     		ldr	r3, [r0]
 4344              	.LVL510:
 4345              	.LBB1809:
 4346              	.LBB1810:
 4347              	.LBB1811:
 4348              	.LBB1812:
 4349              		.loc 2 461 0 discriminator 1
 4350 0e94 D907     		lsls	r1, r3, #31
 4351              	.LVL511:
 4352 0e96 4CBF     		ite	mi
 4353 0e98 03F07C42 		andmi	r2, r3, #-67108864
 4354 0e9c 03F00C02 		andpl	r2, r3, #12
 4355              	.LVL512:
 4356              	.LBE1812:
 4357              	.LBE1811:
 4358              		.loc 2 561 0 discriminator 1
 4359 0ea0 082A     		cmp	r2, #8
 4360 0ea2 00F0BB80 		beq	.L230
 4361              		.loc 2 562 0
 4362 0ea6 22F00801 		bic	r1, r2, #8
 4363 0eaa 0429     		cmp	r1, #4
 4364 0eac 00F0B680 		beq	.L230
 4365              		.loc 2 564 0
 4366 0eb0 22F08051 		bic	r1, r2, #268435456
 4367 0eb4 B1F1005F 		cmp	r1, #536870912
 4368 0eb8 00F0B080 		beq	.L230
 4369              		.loc 2 565 0
 4370 0ebc B2F1804F 		cmp	r2, #1073741824
 4371 0ec0 00F0AC80 		beq	.L230
 4372 0ec4 9024     		movs	r4, #144
 4373 0ec6 FFF7CBB9 		b	.L191
 4374              	.LVL513:
 4375              	.L962:
 4376              	.LBE1810:
 4377              	.LBE1809:
 4378              		.loc 1 516 0 discriminator 1
 4379 0eca 0468     		ldr	r4, [r0]
 4380              	.LVL514:
 4381              	.LBB1813:
 4382              	.LBB1814:
 4383              		.loc 2 461 0 discriminator 1
 4384 0ecc E007     		lsls	r0, r4, #31
 4385              	.LVL515:
 4386 0ece 40F11982 		bpl	.L490
 4387              	.LVL516:
 4388              		.loc 2 461 0 is_stmt 0
 4389 0ed2 04F07C43 		and	r3, r4, #-67108864
ARM GAS  /tmp/ccMboyVS.s 			page 78


 4390              	.LBE1814:
 4391              	.LBE1813:
 4392              		.loc 1 516 0 is_stmt 1
 4393 0ed6 B3F1805F 		cmp	r3, #268435456
 4394 0eda 40F0F582 		bne	.L984
 4395 0ede 0426     		movs	r6, #4
 4396              	.LBB1816:
 4397              		.loc 1 518 0
 4398 0ee0 0025     		movs	r5, #0
 4399              	.LVL517:
 4400              	.L245:
 4401              		.loc 1 522 0
 4402 0ee2 2046     		mov	r0, r4
 4403 0ee4 FFF7FEFF 		bl	lbm_car
 4404              	.LVL518:
 4405              	.LBB1817:
 4406              	.LBB1818:
 4407              	.LBB1819:
 4408              	.LBB1820:
 4409              		.loc 2 461 0
 4410 0ee8 C107     		lsls	r1, r0, #31
 4411 0eea 4CBF     		ite	mi
 4412 0eec 00F07C40 		andmi	r0, r0, #-67108864
 4413              	.LVL519:
 4414 0ef0 00F00C00 		andpl	r0, r0, #12
 4415              	.LBE1820:
 4416              	.LBE1819:
 4417              		.loc 2 561 0
 4418 0ef4 0828     		cmp	r0, #8
 4419 0ef6 00F09C80 		beq	.L248
 4420              		.loc 2 562 0
 4421 0efa 20F00803 		bic	r3, r0, #8
 4422 0efe 042B     		cmp	r3, #4
 4423 0f00 00F09780 		beq	.L248
 4424              		.loc 2 564 0
 4425 0f04 20F08053 		bic	r3, r0, #268435456
 4426 0f08 B3F1005F 		cmp	r3, #536870912
 4427 0f0c 00F09180 		beq	.L248
 4428              		.loc 2 565 0
 4429 0f10 B0F1804F 		cmp	r0, #1073741824
 4430 0f14 00F08D80 		beq	.L248
 4431              	.L249:
 4432              	.LVL520:
 4433              	.LBE1818:
 4434              	.LBE1817:
 4435              	.LBB1821:
 4436              	.LBB1822:
 4437              		.loc 2 499 0
 4438 0f18 2846     		mov	r0, r5
 4439 0f1a 4FF40871 		mov	r1, #544
 4440 0f1e FFF7FEFF 		bl	lbm_cons
 4441              	.LVL521:
 4442              	.LBB1823:
 4443              	.LBB1824:
 4444              		.loc 2 461 0
 4445 0f22 C207     		lsls	r2, r0, #31
 4446 0f24 4CBF     		ite	mi
ARM GAS  /tmp/ccMboyVS.s 			page 79


 4447 0f26 00F07C43 		andmi	r3, r0, #-67108864
 4448 0f2a 00F00C03 		andpl	r3, r0, #12
 4449              	.LBE1824:
 4450              	.LBE1823:
 4451              		.loc 2 499 0
 4452 0f2e 0446     		mov	r4, r0
 4453              	.LVL522:
 4454              		.loc 2 500 0
 4455 0f30 002B     		cmp	r3, #0
 4456 0f32 3FF495A9 		beq	.L191
 4457              	.LVL523:
 4458              	.LBB1825:
 4459              	.LBB1826:
 4460              		.loc 2 477 0
 4461 0f36 20F07C44 		bic	r4, r0, #-67108864
 4462 0f3a 24F00704 		bic	r4, r4, #7
 4463 0f3e 44F00054 		orr	r4, r4, #536870912
 4464 0f42 44F00104 		orr	r4, r4, #1
 4465              	.LVL524:
 4466 0f46 FFF78BB9 		b	.L191
 4467              	.LVL525:
 4468              	.L964:
 4469              	.LBE1826:
 4470              	.LBE1825:
 4471              	.LBE1822:
 4472              	.LBE1821:
 4473              	.LBE1816:
 4474              		.loc 1 496 0 discriminator 1
 4475 0f4a 0468     		ldr	r4, [r0]
 4476              	.LVL526:
 4477              	.LBB1833:
 4478              	.LBB1834:
 4479              		.loc 2 461 0 discriminator 1
 4480 0f4c E307     		lsls	r3, r4, #31
 4481 0f4e 40F1D681 		bpl	.L487
 4482              	.LVL527:
 4483              		.loc 2 461 0 is_stmt 0
 4484 0f52 04F07C43 		and	r3, r4, #-67108864
 4485              	.LBE1834:
 4486              	.LBE1833:
 4487              		.loc 1 496 0 is_stmt 1
 4488 0f56 B3F1805F 		cmp	r3, #268435456
 4489 0f5a 40F0B882 		bne	.L985
 4490 0f5e 0426     		movs	r6, #4
 4491              	.LBB1836:
 4492              		.loc 1 498 0
 4493 0f60 0025     		movs	r5, #0
 4494              	.LVL528:
 4495              	.L236:
 4496              		.loc 1 502 0
 4497 0f62 2046     		mov	r0, r4
 4498 0f64 FFF7FEFF 		bl	lbm_car
 4499              	.LVL529:
 4500              	.LBB1837:
 4501              	.LBB1838:
 4502              	.LBB1839:
 4503              	.LBB1840:
ARM GAS  /tmp/ccMboyVS.s 			page 80


 4504              		.loc 2 461 0
 4505 0f68 C707     		lsls	r7, r0, #31
 4506 0f6a 4CBF     		ite	mi
 4507 0f6c 00F07C40 		andmi	r0, r0, #-67108864
 4508              	.LVL530:
 4509 0f70 00F00C00 		andpl	r0, r0, #12
 4510              	.LBE1840:
 4511              	.LBE1839:
 4512              		.loc 2 561 0
 4513 0f74 0828     		cmp	r0, #8
 4514 0f76 74D0     		beq	.L239
 4515              		.loc 2 562 0
 4516 0f78 20F00803 		bic	r3, r0, #8
 4517 0f7c 042B     		cmp	r3, #4
 4518 0f7e 70D0     		beq	.L239
 4519              		.loc 2 564 0
 4520 0f80 20F08053 		bic	r3, r0, #268435456
 4521 0f84 B3F1005F 		cmp	r3, #536870912
 4522 0f88 6BD0     		beq	.L239
 4523              		.loc 2 565 0
 4524 0f8a B0F1804F 		cmp	r0, #1073741824
 4525 0f8e 68D0     		beq	.L239
 4526              	.L240:
 4527              	.LVL531:
 4528              	.LBE1838:
 4529              	.LBE1837:
 4530              	.LBB1841:
 4531              	.LBB1842:
 4532              		.loc 2 493 0
 4533 0f90 2846     		mov	r0, r5
 4534 0f92 4FF40471 		mov	r1, #528
 4535 0f96 FFF7FEFF 		bl	lbm_cons
 4536              	.LVL532:
 4537              	.LBB1843:
 4538              	.LBB1844:
 4539              		.loc 2 461 0
 4540 0f9a C507     		lsls	r5, r0, #31
 4541              	.LVL533:
 4542 0f9c 4CBF     		ite	mi
 4543 0f9e 00F07C43 		andmi	r3, r0, #-67108864
 4544 0fa2 00F00C03 		andpl	r3, r0, #12
 4545              	.LBE1844:
 4546              	.LBE1843:
 4547              		.loc 2 493 0
 4548 0fa6 0446     		mov	r4, r0
 4549              	.LVL534:
 4550              		.loc 2 494 0
 4551 0fa8 002B     		cmp	r3, #0
 4552 0faa 3FF459A9 		beq	.L191
 4553              	.LVL535:
 4554              	.LBB1845:
 4555              	.LBB1846:
 4556              		.loc 2 477 0
 4557 0fae 20F07C44 		bic	r4, r0, #-67108864
 4558 0fb2 24F00704 		bic	r4, r4, #7
 4559 0fb6 44F04054 		orr	r4, r4, #805306368
 4560 0fba 44F00104 		orr	r4, r4, #1
ARM GAS  /tmp/ccMboyVS.s 			page 81


 4561              	.LVL536:
 4562 0fbe FFF74FB9 		b	.L191
 4563              	.LVL537:
 4564              	.L972:
 4565              	.LBE1846:
 4566              	.LBE1845:
 4567              	.LBE1842:
 4568              	.LBE1841:
 4569              	.LBE1836:
 4570              	.LBB1853:
 4571              	.LBB1736:
 4572              	.LBB1737:
 4573              		.loc 2 481 0
 4574 0fc2 24F00F04 		bic	r4, r4, #15
 4575              	.LVL538:
 4576              	.LBE1737:
 4577              	.LBE1736:
 4578 0fc6 FFF74BB9 		b	.L191
 4579              	.LVL539:
 4580              	.L966:
 4581              	.LBE1853:
 4582              		.loc 1 460 0 discriminator 1
 4583 0fca 0068     		ldr	r0, [r0]
 4584              	.LVL540:
 4585              	.LBB1854:
 4586              	.LBB1855:
 4587              	.LBB1856:
 4588              	.LBB1857:
 4589              		.loc 2 461 0 discriminator 1
 4590 0fcc C207     		lsls	r2, r0, #31
 4591 0fce 4CBF     		ite	mi
 4592 0fd0 00F07C43 		andmi	r3, r0, #-67108864
 4593 0fd4 00F00C03 		andpl	r3, r0, #12
 4594              	.LVL541:
 4595              	.LBE1857:
 4596              	.LBE1856:
 4597              		.loc 2 561 0 discriminator 1
 4598 0fd8 082B     		cmp	r3, #8
 4599 0fda 00F0F781 		beq	.L233
 4600              		.loc 2 562 0
 4601 0fde 23F00802 		bic	r2, r3, #8
 4602 0fe2 042A     		cmp	r2, #4
 4603 0fe4 00F0F281 		beq	.L233
 4604              		.loc 2 564 0
 4605 0fe8 23F08052 		bic	r2, r3, #268435456
 4606 0fec B2F1005F 		cmp	r2, #536870912
 4607 0ff0 00F0C181 		beq	.L234
 4608              		.loc 2 565 0
 4609 0ff4 B3F1804F 		cmp	r3, #1073741824
 4610 0ff8 00F01482 		beq	.L235
 4611 0ffc 9024     		movs	r4, #144
 4612 0ffe FFF72FB9 		b	.L191
 4613              	.LVL542:
 4614              	.L514:
 4615              	.LBE1855:
 4616              	.LBE1854:
 4617              	.LBB1858:
ARM GAS  /tmp/ccMboyVS.s 			page 82


 4618              	.LBB1699:
 4619              	.LBB1689:
 4620              	.LBB1678:
 4621              		.loc 1 68 0
 4622 1002 8024     		movs	r4, #128
 4623              	.LVL543:
 4624 1004 FFF72CB9 		b	.L191
 4625              	.LVL544:
 4626              	.L967:
 4627              	.LBE1678:
 4628              	.LBE1689:
 4629              	.LBE1699:
 4630              	.LBE1858:
 4631              	.LBB1859:
 4632              		.loc 1 593 0 discriminator 1
 4633 1008 0068     		ldr	r0, [r0]
 4634              	.LVL545:
 4635 100a FFF7FEFF 		bl	lbm_car
 4636              	.LVL546:
 4637              		.loc 1 594 0 discriminator 1
 4638 100e 0368     		ldr	r3, [r0]
 4639 1010 042B     		cmp	r3, #4
 4640 1012 00F09681 		beq	.L276
 4641 1016 029C     		ldr	r4, [sp, #8]
 4642 1018 FFF722B9 		b	.L191
 4643              	.LVL547:
 4644              	.L230:
 4645              	.LBE1859:
 4646              		.loc 1 456 0
 4647 101c 4468     		ldr	r4, [r0, #4]
 4648 101e 1846     		mov	r0, r3
 4649              	.LVL548:
 4650 1020 FFF7FEFF 		bl	lbm_dec_as_u
 4651              	.LVL549:
 4652 1024 0146     		mov	r1, r0
 4653 1026 2046     		mov	r0, r4
 4654 1028 FFF7FEFF 		bl	index_list
 4655              	.LVL550:
 4656 102c 0446     		mov	r4, r0
 4657              	.LVL551:
 4658 102e FFF717B9 		b	.L191
 4659              	.LVL552:
 4660              	.L248:
 4661              	.LBB1860:
 4662              	.LBB1827:
 4663              		.loc 1 523 0
 4664 1032 2046     		mov	r0, r4
 4665 1034 FFF7FEFF 		bl	lbm_car
 4666              	.LVL553:
 4667 1038 FFF7FEFF 		bl	lbm_dec_as_u
 4668              	.LVL554:
 4669              		.loc 1 524 0
 4670 103c 0543     		orrs	r5, r5, r0
 4671              	.LVL555:
 4672              		.loc 1 526 0
 4673 103e 2046     		mov	r0, r4
 4674              	.LVL556:
ARM GAS  /tmp/ccMboyVS.s 			page 83


 4675 1040 FFF7FEFF 		bl	lbm_cdr
 4676              	.LVL557:
 4677              	.LBE1827:
 4678              	.LBB1828:
 4679              	.LBB1829:
 4680              		.loc 2 461 0
 4681 1044 C307     		lsls	r3, r0, #31
 4682              	.LBE1829:
 4683              	.LBE1828:
 4684              	.LBB1831:
 4685              		.loc 1 526 0
 4686 1046 0446     		mov	r4, r0
 4687              	.LVL558:
 4688              	.LBE1831:
 4689              	.LBB1832:
 4690              	.LBB1830:
 4691              		.loc 2 461 0
 4692 1048 7FF566AF 		bpl	.L249
 4693              	.LVL559:
 4694 104c 04F07C43 		and	r3, r4, #-67108864
 4695              	.LBE1830:
 4696              	.LBE1832:
 4697              		.loc 1 520 0
 4698 1050 B3F1805F 		cmp	r3, #268435456
 4699 1054 7FF460AF 		bne	.L249
 4700              		.loc 1 520 0 is_stmt 0 discriminator 1
 4701 1058 013E     		subs	r6, r6, #1
 4702              	.LVL560:
 4703 105a 3FF45DAF 		beq	.L249
 4704              		.loc 1 521 0 is_stmt 1 discriminator 1
 4705 105e 2D02     		lsls	r5, r5, #8
 4706              	.LVL561:
 4707 1060 3FE7     		b	.L245
 4708              	.LVL562:
 4709              	.L239:
 4710              	.LBE1860:
 4711              	.LBB1861:
 4712              	.LBB1847:
 4713              		.loc 1 503 0
 4714 1062 2046     		mov	r0, r4
 4715 1064 FFF7FEFF 		bl	lbm_car
 4716              	.LVL563:
 4717 1068 FFF7FEFF 		bl	lbm_dec_as_u
 4718              	.LVL564:
 4719              		.loc 1 504 0
 4720 106c 0543     		orrs	r5, r5, r0
 4721              	.LVL565:
 4722              		.loc 1 506 0
 4723 106e 2046     		mov	r0, r4
 4724              	.LVL566:
 4725 1070 FFF7FEFF 		bl	lbm_cdr
 4726              	.LVL567:
 4727              	.LBE1847:
 4728              	.LBB1848:
 4729              	.LBB1849:
 4730              		.loc 2 461 0
 4731 1074 C207     		lsls	r2, r0, #31
ARM GAS  /tmp/ccMboyVS.s 			page 84


 4732              	.LBE1849:
 4733              	.LBE1848:
 4734              	.LBB1851:
 4735              		.loc 1 506 0
 4736 1076 0446     		mov	r4, r0
 4737              	.LVL568:
 4738              	.LBE1851:
 4739              	.LBB1852:
 4740              	.LBB1850:
 4741              		.loc 2 461 0
 4742 1078 8AD5     		bpl	.L240
 4743              	.LVL569:
 4744 107a 04F07C43 		and	r3, r4, #-67108864
 4745              	.LBE1850:
 4746              	.LBE1852:
 4747              		.loc 1 500 0
 4748 107e B3F1805F 		cmp	r3, #268435456
 4749 1082 85D1     		bne	.L240
 4750              		.loc 1 500 0 is_stmt 0 discriminator 1
 4751 1084 013E     		subs	r6, r6, #1
 4752              	.LVL570:
 4753 1086 83D0     		beq	.L240
 4754              		.loc 1 501 0 is_stmt 1 discriminator 1
 4755 1088 2D02     		lsls	r5, r5, #8
 4756              	.LVL571:
 4757 108a 6AE7     		b	.L236
 4758              	.LVL572:
 4759              	.L257:
 4760              	.LBE1861:
 4761              	.LBB1862:
 4762              	.LBB1803:
 4763              		.loc 1 544 0
 4764 108c 2046     		mov	r0, r4
 4765 108e FFF7FEFF 		bl	lbm_car
 4766              	.LVL573:
 4767 1092 FFF7FEFF 		bl	lbm_dec_as_u
 4768              	.LVL574:
 4769              		.loc 1 545 0
 4770 1096 0543     		orrs	r5, r5, r0
 4771              	.LVL575:
 4772              		.loc 1 547 0
 4773 1098 2046     		mov	r0, r4
 4774              	.LVL576:
 4775 109a FFF7FEFF 		bl	lbm_cdr
 4776              	.LVL577:
 4777              	.LBE1803:
 4778              	.LBB1804:
 4779              	.LBB1805:
 4780              		.loc 2 461 0
 4781 109e C707     		lsls	r7, r0, #31
 4782              	.LBE1805:
 4783              	.LBE1804:
 4784              	.LBB1807:
 4785              		.loc 1 547 0
 4786 10a0 0446     		mov	r4, r0
 4787              	.LVL578:
 4788              	.LBE1807:
ARM GAS  /tmp/ccMboyVS.s 			page 85


 4789              	.LBB1808:
 4790              	.LBB1806:
 4791              		.loc 2 461 0
 4792 10a2 7FF5DDAE 		bpl	.L258
 4793              	.LVL579:
 4794 10a6 04F07C43 		and	r3, r4, #-67108864
 4795              	.LBE1806:
 4796              	.LBE1808:
 4797              		.loc 1 541 0
 4798 10aa B3F1805F 		cmp	r3, #268435456
 4799 10ae 7FF4D7AE 		bne	.L258
 4800              		.loc 1 541 0 is_stmt 0 discriminator 1
 4801 10b2 013E     		subs	r6, r6, #1
 4802              	.LVL580:
 4803 10b4 3FF4D4AE 		beq	.L258
 4804              	.LVL581:
 4805              		.loc 1 542 0 is_stmt 1 discriminator 1
 4806 10b8 2D02     		lsls	r5, r5, #8
 4807              	.LVL582:
 4808 10ba B6E6     		b	.L254
 4809              	.LVL583:
 4810              	.L428:
 4811              	.LBE1862:
 4812              	.LBB1863:
 4813              	.LBB1185:
 4814              	.LBB1181:
 4815              	.LBB1172:
 4816              	.LBB1163:
 4817              	.LBB1158:
 4818              		.loc 2 565 0
 4819 10bc 0C2B     		cmp	r3, #12
 4820 10be 02D0     		beq	.L434
 4821              		.loc 2 561 0
 4822 10c0 082B     		cmp	r3, #8
 4823 10c2 7FF4FCAB 		bne	.L481
 4824              	.LVL584:
 4825              	.L434:
 4826              	.LBE1158:
 4827              	.LBE1163:
 4828              		.loc 1 263 0
 4829 10c6 4046     		mov	r0, r8
 4830              	.LVL585:
 4831 10c8 0192     		str	r2, [sp, #4]
 4832 10ca FFF7FEFF 		bl	lbm_dec_as_u
 4833              	.LVL586:
 4834 10ce 019A     		ldr	r2, [sp, #4]
 4835 10d0 8346     		mov	fp, r0
 4836 10d2 1046     		mov	r0, r2
 4837 10d4 FFF7FEFF 		bl	lbm_dec_as_u
 4838              	.LVL587:
 4839              	.LBB1164:
 4840              	.LBB1165:
 4841              		.loc 1 240 0
 4842 10d8 8345     		cmp	fp, r0
 4843 10da 2CBF     		ite	cs
 4844 10dc 0023     		movcs	r3, #0
 4845 10de 0123     		movcc	r3, #1
ARM GAS  /tmp/ccMboyVS.s 			page 86


 4846 10e0 8345     		cmp	fp, r0
 4847 10e2 94BF     		ite	ls
 4848 10e4 5842     		rsbls	r0, r3, #0
 4849 10e6 C3F10100 		rsbhi	r0, r3, #1
 4850              	.LVL588:
 4851 10ea FFF7DEBB 		b	.L430
 4852              	.LVL589:
 4853              	.L427:
 4854              	.LBE1165:
 4855              	.LBE1164:
 4856              	.LBB1166:
 4857              	.LBB1159:
 4858              		.loc 2 565 0
 4859 10ee 0C2B     		cmp	r3, #12
 4860 10f0 3FF4FDAB 		beq	.L435
 4861              		.loc 2 561 0
 4862 10f4 082B     		cmp	r3, #8
 4863 10f6 7FF4E2AB 		bne	.L481
 4864 10fa FFF7F8BB 		b	.L435
 4865              	.LVL590:
 4866              	.L360:
 4867              	.LBE1159:
 4868              	.LBE1166:
 4869              	.LBE1172:
 4870              	.LBE1181:
 4871              	.LBE1185:
 4872              	.LBE1863:
 4873              	.LBB1864:
 4874              	.LBB1475:
 4875              	.LBB1464:
 4876              	.LBB1452:
 4877              	.LBB1440:
 4878              	.LBB1412:
 4879              		.loc 2 494 0
 4880 10fe 10F00C0F 		tst	r0, #12
 4881 1102 3FF4ADA8 		beq	.L191
 4882 1106 79E5     		b	.L361
 4883              	.LVL591:
 4884              	.L307:
 4885              	.LBE1412:
 4886              	.LBE1440:
 4887              	.LBE1452:
 4888              	.LBE1464:
 4889              	.LBE1475:
 4890              	.LBE1864:
 4891              	.LBB1865:
 4892              	.LBB1383:
 4893              	.LBB1372:
 4894              	.LBB1360:
 4895              	.LBB1347:
 4896              	.LBB1305:
 4897              		.loc 2 508 0
 4898 1108 10F00C0F 		tst	r0, #12
 4899 110c 3FF4A8A8 		beq	.L191
 4900 1110 5FE4     		b	.L308
 4901              	.LVL592:
 4902              	.L356:
ARM GAS  /tmp/ccMboyVS.s 			page 87


 4903              	.LBE1305:
 4904              	.LBE1347:
 4905              	.LBE1360:
 4906              	.LBE1372:
 4907              	.LBE1383:
 4908              	.LBE1865:
 4909              	.LBB1866:
 4910              	.LBB1476:
 4911              	.LBB1465:
 4912              	.LBB1453:
 4913              	.LBB1441:
 4914              	.LBB1439:
 4915              		.loc 2 500 0
 4916 1112 14F00C0F 		tst	r4, #12
 4917 1116 3FF4A3A8 		beq	.L191
 4918 111a ABE5     		b	.L358
 4919              	.LVL593:
 4920              	.L378:
 4921              	.LBE1439:
 4922              	.LBE1441:
 4923              	.LBE1453:
 4924              	.LBE1465:
 4925              	.LBE1476:
 4926              	.LBE1866:
 4927              	.LBB1867:
 4928              	.LBB1700:
 4929              	.LBB1690:
 4930              	.LBB1679:
 4931              		.loc 1 78 0
 4932 111c 3846     		mov	r0, r7
 4933 111e FFF7FEFF 		bl	lbm_dec_as_u
 4934              	.LVL594:
 4935 1122 0028     		cmp	r0, #0
 4936 1124 3FF4ECAC 		beq	.L377
 4937 1128 2046     		mov	r0, r4
 4938 112a FFF7FEFF 		bl	lbm_dec_as_u
 4939              	.LVL595:
 4940 112e 0446     		mov	r4, r0
 4941              	.LVL596:
 4942 1130 3846     		mov	r0, r7
 4943 1132 FFF7FEFF 		bl	lbm_dec_as_u
 4944              	.LVL597:
 4945              	.LBB1659:
 4946              	.LBB1660:
 4947              		.loc 2 499 0
 4948 1136 4FF40871 		mov	r1, #544
 4949 113a B4FBF0F0 		udiv	r0, r4, r0
 4950              	.LVL598:
 4951 113e FFF7FEFF 		bl	lbm_cons
 4952              	.LVL599:
 4953 1142 0446     		mov	r4, r0
 4954              	.LVL600:
 4955              	.LBB1661:
 4956              	.LBB1662:
 4957              		.loc 2 461 0
 4958 1144 E007     		lsls	r0, r4, #31
 4959              	.LVL601:
ARM GAS  /tmp/ccMboyVS.s 			page 88


 4960 1146 40F10E81 		bpl	.L379
 4961              	.LVL602:
 4962              	.LBE1662:
 4963              	.LBE1661:
 4964              		.loc 2 500 0
 4965 114a 14F07C43 		ands	r3, r4, #-67108864
 4966 114e 3FF491AB 		beq	.L388
 4967              	.L381:
 4968              	.LVL603:
 4969              	.LBB1663:
 4970              	.LBB1664:
 4971              		.loc 2 477 0
 4972 1152 2C40     		ands	r4, r4, r5
 4973              	.LVL604:
 4974 1154 44F00054 		orr	r4, r4, #536870912
 4975 1158 44F00104 		orr	r4, r4, #1
 4976              	.LVL605:
 4977 115c 04F07C43 		and	r3, r4, #-67108864
 4978 1160 FFF788BB 		b	.L388
 4979              	.LVL606:
 4980              	.L376:
 4981              	.LBE1664:
 4982              	.LBE1663:
 4983              	.LBE1660:
 4984              	.LBE1659:
 4985              		.loc 1 77 0
 4986 1164 3846     		mov	r0, r7
 4987 1166 FFF7FEFF 		bl	lbm_dec_as_u
 4988              	.LVL607:
 4989 116a 0028     		cmp	r0, #0
 4990 116c 3FF4C8AC 		beq	.L377
 4991 1170 2046     		mov	r0, r4
 4992 1172 FFF7FEFF 		bl	lbm_dec_as_u
 4993              	.LVL608:
 4994 1176 0446     		mov	r4, r0
 4995              	.LVL609:
 4996 1178 3846     		mov	r0, r7
 4997 117a FFF7FEFF 		bl	lbm_dec_as_u
 4998              	.LVL610:
 4999 117e B4FBF0F4 		udiv	r4, r4, r0
 5000              	.LVL611:
 5001              	.LBB1666:
 5002              	.LBB1667:
 5003              		.loc 2 489 0
 5004 1182 2401     		lsls	r4, r4, #4
 5005              	.LVL612:
 5006 1184 44F00804 		orr	r4, r4, #8
 5007              	.LVL613:
 5008 1188 FFF772BB 		b	.L375
 5009              	.LVL614:
 5010              	.L363:
 5011              	.LBE1667:
 5012              	.LBE1666:
 5013              	.LBE1679:
 5014              	.LBE1690:
 5015              	.LBE1700:
 5016              	.LBE1867:
ARM GAS  /tmp/ccMboyVS.s 			page 89


 5017              	.LBB1868:
 5018              	.LBB1477:
 5019              	.LBB1466:
 5020              	.LBB1454:
 5021              	.LBB1442:
 5022              	.LBB1400:
 5023              		.loc 2 508 0
 5024 118c 10F00C0F 		tst	r0, #12
 5025 1190 3FF466A8 		beq	.L191
 5026 1194 43E4     		b	.L364
 5027              	.LVL615:
 5028              	.L382:
 5029              	.LBE1400:
 5030              	.LBE1442:
 5031              	.LBE1454:
 5032              	.LBE1466:
 5033              	.LBE1477:
 5034              	.LBE1868:
 5035              	.LBB1869:
 5036              	.LBB1701:
 5037              	.LBB1691:
 5038              	.LBB1680:
 5039              		.loc 1 79 0
 5040 1196 3846     		mov	r0, r7
 5041 1198 FFF7FEFF 		bl	lbm_dec_as_i
 5042              	.LVL616:
 5043 119c 0028     		cmp	r0, #0
 5044 119e 3FF4AFAC 		beq	.L377
 5045 11a2 2046     		mov	r0, r4
 5046 11a4 FFF7FEFF 		bl	lbm_dec_as_i
 5047              	.LVL617:
 5048 11a8 0446     		mov	r4, r0
 5049              	.LVL618:
 5050 11aa 3846     		mov	r0, r7
 5051 11ac FFF7FEFF 		bl	lbm_dec_as_i
 5052              	.LVL619:
 5053              	.LBB1668:
 5054              	.LBB1638:
 5055              		.loc 2 493 0
 5056 11b0 4FF40471 		mov	r1, #528
 5057 11b4 94FBF0F0 		sdiv	r0, r4, r0
 5058              	.LVL620:
 5059 11b8 FFF7FEFF 		bl	lbm_cons
 5060              	.LVL621:
 5061              	.LBB1633:
 5062              	.LBB1634:
 5063              		.loc 2 461 0
 5064 11bc C107     		lsls	r1, r0, #31
 5065              	.LBE1634:
 5066              	.LBE1633:
 5067              		.loc 2 493 0
 5068 11be 0446     		mov	r4, r0
 5069              	.LVL622:
 5070              	.LBB1636:
 5071              	.LBB1635:
 5072              		.loc 2 461 0
 5073 11c0 40F1CC80 		bpl	.L383
ARM GAS  /tmp/ccMboyVS.s 			page 90


 5074              	.LVL623:
 5075              	.LBE1635:
 5076              	.LBE1636:
 5077              		.loc 2 494 0
 5078 11c4 10F07C43 		ands	r3, r0, #-67108864
 5079 11c8 3FF454AB 		beq	.L388
 5080              	.L384:
 5081              	.LVL624:
 5082              	.LBB1637:
 5083              	.LBB1632:
 5084              		.loc 2 477 0
 5085 11cc 2C40     		ands	r4, r4, r5
 5086 11ce 44EA0B04 		orr	r4, r4, fp
 5087              	.LVL625:
 5088 11d2 04F07C43 		and	r3, r4, #-67108864
 5089 11d6 FFF74DBB 		b	.L388
 5090              	.LVL626:
 5091              	.L304:
 5092              	.LBE1632:
 5093              	.LBE1637:
 5094              	.LBE1638:
 5095              	.LBE1668:
 5096              	.LBE1680:
 5097              	.LBE1691:
 5098              	.LBE1701:
 5099              	.LBE1869:
 5100              	.LBB1870:
 5101              	.LBB1384:
 5102              	.LBB1373:
 5103              	.LBB1361:
 5104              	.LBB1348:
 5105              	.LBB1317:
 5106              		.loc 2 494 0
 5107 11da 10F00C0F 		tst	r0, #12
 5108 11de 3FF43FA8 		beq	.L191
 5109 11e2 E3E4     		b	.L305
 5110              	.LVL627:
 5111              	.L300:
 5112              	.LBE1317:
 5113              	.LBE1348:
 5114              	.LBB1349:
 5115              	.LBB1343:
 5116              		.loc 2 500 0
 5117 11e4 10F00C0F 		tst	r0, #12
 5118 11e8 3FF43AA8 		beq	.L191
 5119 11ec A2E4     		b	.L302
 5120              	.LVL628:
 5121              	.L476:
 5122              	.LBE1343:
 5123              	.LBE1349:
 5124              	.LBE1361:
 5125              	.LBE1373:
 5126              	.LBE1384:
 5127              	.LBE1870:
 5128              	.LBB1871:
 5129              	.LBB1186:
 5130              	.LBB1182:
ARM GAS  /tmp/ccMboyVS.s 			page 91


 5131              	.LBB1173:
 5132              		.loc 1 260 0
 5133 11ee B3F1405F 		cmp	r3, #805306368
 5134 11f2 3FF47CAB 		beq	.L435
 5135 11f6 B3F1804F 		cmp	r3, #1073741824
 5136 11fa 7FF455AB 		bne	.L516
 5137              	.L436:
 5138              	.LVL629:
 5139              		.loc 1 265 0
 5140 11fe 4046     		mov	r0, r8
 5141              	.LVL630:
 5142 1200 0192     		str	r2, [sp, #4]
 5143 1202 FFF7FEFF 		bl	lbm_dec_as_f
 5144              	.LVL631:
 5145 1206 019A     		ldr	r2, [sp, #4]
 5146 1208 1046     		mov	r0, r2
 5147 120a B0EE408A 		vmov.f32	s16, s0
 5148 120e FFF7FEFF 		bl	lbm_dec_as_f
 5149              	.LVL632:
 5150              	.LBB1167:
 5151              	.LBB1168:
 5152              		.loc 1 245 0
 5153 1212 B4EEC08A 		vcmpe.f32	s16, s0
 5154 1216 F1EE10FA 		vmrs	APSR_nzcv, FPSCR
 5155 121a CCBF     		ite	gt
 5156 121c 0120     		movgt	r0, #1
 5157 121e 0020     		movle	r0, #0
 5158 1220 4CBF     		ite	mi
 5159 1222 0123     		movmi	r3, #1
 5160 1224 0023     		movpl	r3, #0
 5161 1226 C01A     		subs	r0, r0, r3
 5162              	.LVL633:
 5163 1228 FFF73FBB 		b	.L430
 5164              	.LVL634:
 5165              	.L965:
 5166              	.LBE1168:
 5167              	.LBE1167:
 5168              	.LBE1173:
 5169              	.LBE1182:
 5170              	.LBE1186:
 5171              	.LBE1871:
 5172              	.LBB1872:
 5173              	.LBB1572:
 5174              	.LBB1573:
 5175              	.LBB1574:
 5176              	.LBB1575:
 5177              		.loc 2 461 0
 5178 122c E507     		lsls	r5, r4, #31
 5179 122e 4CBF     		ite	mi
 5180 1230 04F07C43 		andmi	r3, r4, #-67108864
 5181 1234 04F00C03 		andpl	r3, r4, #12
 5182              	.LVL635:
 5183              	.LBE1575:
 5184              	.LBE1574:
 5185              		.loc 1 111 0
 5186 1238 042B     		cmp	r3, #4
 5187 123a 40F29980 		bls	.L504
ARM GAS  /tmp/ccMboyVS.s 			page 92


 5188              		.loc 1 112 0
 5189 123e B3F1005F 		cmp	r3, #536870912
 5190 1242 00F0A081 		beq	.L315
 5191 1246 00F21881 		bhi	.L316
 5192 124a 082B     		cmp	r3, #8
 5193 124c 00F0B781 		beq	.L317
 5194 1250 0C2B     		cmp	r3, #12
 5195 1252 40F0BB81 		bne	.L505
 5196              	.LVL636:
 5197              		.loc 1 115 0
 5198 1256 24F00F04 		bic	r4, r4, #15
 5199              	.LVL637:
 5200              	.LBB1576:
 5201              	.LBB1577:
 5202              		.loc 2 485 0
 5203 125a 6442     		negs	r4, r4
 5204 125c 44F00C04 		orr	r4, r4, #12
 5205              	.LVL638:
 5206 1260 FEF7FEBF 		b	.L191
 5207              	.LVL639:
 5208              	.L340:
 5209              	.LBE1577:
 5210              	.LBE1576:
 5211              	.LBE1573:
 5212              	.LBE1572:
 5213              	.LBB1607:
 5214              	.LBB1563:
 5215              	.LBB1553:
 5216              	.LBB1542:
 5217              	.LBB1514:
 5218              		.loc 2 494 0
 5219 1264 10F00C0F 		tst	r0, #12
 5220 1268 3EF4FAAF 		beq	.L191
 5221 126c 53E5     		b	.L341
 5222              	.LVL640:
 5223              	.L969:
 5224              	.LBE1514:
 5225              	.LBE1542:
 5226              	.LBE1553:
 5227              	.LBE1563:
 5228              	.LBE1607:
 5229              	.LBE1872:
 5230              		.loc 1 623 0
 5231 126e D0E90001 		ldrd	r0, r1, [r0]
 5232              	.LVL641:
 5233 1272 FFF7FEFF 		bl	lbm_set_car
 5234              	.LVL642:
 5235 1276 0028     		cmp	r0, #0
 5236 1278 3FF49EA9 		beq	.L263
 5237 127c FFF7B2B8 		b	.L267
 5238              	.LVL643:
 5239              	.L343:
 5240              	.LBB1873:
 5241              	.LBB1608:
 5242              	.LBB1564:
 5243              	.LBB1554:
 5244              	.LBB1543:
ARM GAS  /tmp/ccMboyVS.s 			page 93


 5245              	.LBB1502:
 5246              		.loc 2 508 0
 5247 1280 10F00C0F 		tst	r0, #12
 5248 1284 3EF4ECAF 		beq	.L191
 5249 1288 FFF7EEBB 		b	.L344
 5250              	.LVL644:
 5251              	.L336:
 5252              	.LBE1502:
 5253              	.LBE1543:
 5254              	.LBB1544:
 5255              	.LBB1541:
 5256              		.loc 2 500 0
 5257 128c 14F00C0F 		tst	r4, #12
 5258 1290 3EF4E6AF 		beq	.L191
 5259 1294 66E5     		b	.L338
 5260              	.LVL645:
 5261              	.L968:
 5262              	.LBE1541:
 5263              	.LBE1544:
 5264              	.LBE1554:
 5265              	.LBE1564:
 5266              	.LBE1608:
 5267              	.LBE1873:
 5268              		.loc 1 632 0
 5269 1296 D0E90001 		ldrd	r0, r1, [r0]
 5270              	.LVL646:
 5271 129a FFF7FEFF 		bl	lbm_set_cdr
 5272              	.LVL647:
 5273 129e 0028     		cmp	r0, #0
 5274 12a0 7FF4A0A8 		bne	.L267
 5275 12a4 FFF788B9 		b	.L263
 5276              	.LVL648:
 5277              	.L974:
 5278              	.LBB1874:
 5279              		.loc 1 571 0
 5280 12a8 0009     		lsrs	r0, r0, #4
 5281              	.LVL649:
 5282 12aa FFF7FEFF 		bl	lbm_get_name_by_symbol
 5283              	.LVL650:
 5284              		.loc 1 572 0
 5285 12ae 0546     		mov	r5, r0
 5286 12b0 0028     		cmp	r0, #0
 5287 12b2 3FF465A9 		beq	.L268
 5288              		.loc 1 573 0
 5289 12b6 FFF7FEFF 		bl	strlen
 5290              	.LVL651:
 5291              		.loc 1 576 0
 5292 12ba 471C     		adds	r7, r0, #1
 5293              		.loc 1 573 0
 5294 12bc 0646     		mov	r6, r0
 5295              	.LVL652:
 5296              		.loc 1 576 0
 5297 12be 3946     		mov	r1, r7
 5298 12c0 0422     		movs	r2, #4
 5299 12c2 03A8     		add	r0, sp, #12
 5300              	.LVL653:
 5301 12c4 FFF7FEFF 		bl	lbm_heap_allocate_array
ARM GAS  /tmp/ccMboyVS.s 			page 94


 5302              	.LVL654:
 5303 12c8 0028     		cmp	r0, #0
 5304 12ca 40F00F81 		bne	.L271
 5305              	.L273:
 5306              		.loc 1 583 0
 5307 12ce A024     		movs	r4, #160
 5308 12d0 FEF7C6BF 		b	.L191
 5309              	.LVL655:
 5310              	.L446:
 5311              	.LBE1874:
 5312              		.loc 1 823 0
 5313 12d4 B3F1405F 		cmp	r3, #805306368
 5314 12d8 00F02B81 		beq	.L452
 5315 12dc 40F2FF80 		bls	.L986
 5316 12e0 B3F1804F 		cmp	r3, #1073741824
 5317 12e4 00F02981 		beq	.L455
 5318 12e8 B3F1504F 		cmp	r3, #-805306368
 5319 12ec 40F01A81 		bne	.L444
 5320              		.loc 1 827 0
 5321 12f0 4FF4AC64 		mov	r4, #1376
 5322 12f4 FEF7B4BF 		b	.L191
 5323              	.LVL656:
 5324              	.L493:
 5325              	.LBB1875:
 5326              	.LBB1791:
 5327              		.loc 2 461 0
 5328 12f8 9024     		movs	r4, #144
 5329              	.LVL657:
 5330 12fa FEF7B1BF 		b	.L191
 5331              	.LVL658:
 5332              	.L487:
 5333              	.LBE1791:
 5334              	.LBE1875:
 5335              	.LBB1876:
 5336              	.LBB1835:
 5337 12fe 9024     		movs	r4, #144
 5338              	.LVL659:
 5339 1300 FEF7AEBF 		b	.L191
 5340              	.LVL660:
 5341              	.L490:
 5342              	.LBE1835:
 5343              	.LBE1876:
 5344              	.LBB1877:
 5345              	.LBB1815:
 5346 1304 9024     		movs	r4, #144
 5347              	.LVL661:
 5348 1306 FEF7ABBF 		b	.L191
 5349              	.LVL662:
 5350              	.L407:
 5351              	.LBE1815:
 5352              	.LBE1877:
 5353              	.LBB1878:
 5354              	.LBB1288:
 5355              	.LBB1276:
 5356              	.LBB1263:
 5357              	.LBB1249:
 5358              	.LBB1216:
ARM GAS  /tmp/ccMboyVS.s 			page 95


 5359              		.loc 2 494 0
 5360 130a 10F00C0F 		tst	r0, #12
 5361 130e 7FF435AC 		bne	.L408
 5362 1312 FEF7A5BF 		b	.L191
 5363              	.LVL663:
 5364              	.L402:
 5365              	.LBE1216:
 5366              	.LBE1249:
 5367              	.LBB1250:
 5368              	.LBB1247:
 5369              		.loc 2 500 0
 5370 1316 14F00C0F 		tst	r4, #12
 5371 131a 7FF4D0AC 		bne	.L404
 5372 131e FEF79FBF 		b	.L191
 5373              	.LVL664:
 5374              	.L429:
 5375              	.LBE1247:
 5376              	.LBE1250:
 5377              	.LBE1263:
 5378              	.LBE1276:
 5379              	.LBE1288:
 5380              	.LBE1878:
 5381              	.LBB1879:
 5382              	.LBB1187:
 5383              	.LBB1183:
 5384              	.LBB1174:
 5385              	.LBB1169:
 5386              	.LBB1160:
 5387              		.loc 2 565 0
 5388 1322 0C2B     		cmp	r3, #12
 5389 1324 3FF46BAF 		beq	.L436
 5390              		.loc 2 561 0
 5391 1328 082B     		cmp	r3, #8
 5392 132a 7FF4C8AA 		bne	.L481
 5393 132e 66E7     		b	.L436
 5394              	.LVL665:
 5395              	.L500:
 5396              	.LBE1160:
 5397              	.LBE1169:
 5398              	.LBE1174:
 5399              	.LBE1183:
 5400              	.LBE1187:
 5401              	.LBE1879:
 5402              	.LBB1880:
 5403              		.loc 1 655 0
 5404 1330 0C46     		mov	r4, r1
 5405 1332 FEF795BF 		b	.L191
 5406              	.LVL666:
 5407              	.L410:
 5408              	.LBE1880:
 5409              	.LBB1881:
 5410              	.LBB1289:
 5411              	.LBB1277:
 5412              	.LBB1264:
 5413              	.LBB1251:
 5414              	.LBB1203:
 5415              		.loc 2 508 0
ARM GAS  /tmp/ccMboyVS.s 			page 96


 5416 1336 10F00C0F 		tst	r0, #12
 5417 133a 7FF424AB 		bne	.L411
 5418 133e FEF78FBF 		b	.L191
 5419              	.LVL667:
 5420              	.L276:
 5421              	.LBE1203:
 5422              	.LBE1251:
 5423              	.LBE1264:
 5424              	.LBE1277:
 5425              	.LBE1289:
 5426              	.LBE1881:
 5427              	.LBB1882:
 5428              		.loc 1 596 0
 5429 1342 00F10804 		add	r4, r0, #8
 5430              	.LVL668:
 5431              		.loc 1 598 0
 5432 1346 2046     		mov	r0, r4
 5433              	.LVL669:
 5434 1348 03A9     		add	r1, sp, #12
 5435 134a FFF7FEFF 		bl	lbm_get_symbol_by_name
 5436              	.LVL670:
 5437 134e 0028     		cmp	r0, #0
 5438 1350 00F03F81 		beq	.L277
 5439              	.LVL671:
 5440              	.LBB1710:
 5441              	.LBB1711:
 5442              		.loc 2 481 0
 5443 1354 039C     		ldr	r4, [sp, #12]
 5444              	.LVL672:
 5445 1356 2401     		lsls	r4, r4, #4
 5446              	.LVL673:
 5447              	.LBE1711:
 5448              	.LBE1710:
 5449 1358 FEF782BF 		b	.L191
 5450              	.LVL674:
 5451              	.L383:
 5452              	.LBE1882:
 5453              	.LBB1883:
 5454              	.LBB1702:
 5455              	.LBB1692:
 5456              	.LBB1681:
 5457              	.LBB1669:
 5458              	.LBB1639:
 5459              		.loc 2 494 0
 5460 135c 10F00C0F 		tst	r0, #12
 5461 1360 3EF47EAF 		beq	.L191
 5462 1364 32E7     		b	.L384
 5463              	.LVL675:
 5464              	.L379:
 5465              	.LBE1639:
 5466              	.LBE1669:
 5467              	.LBB1670:
 5468              	.LBB1665:
 5469              		.loc 2 500 0
 5470 1366 14F00C0F 		tst	r4, #12
 5471 136a 3EF479AF 		beq	.L191
 5472 136e F0E6     		b	.L381
ARM GAS  /tmp/ccMboyVS.s 			page 97


 5473              	.LVL676:
 5474              	.L504:
 5475              	.LBE1665:
 5476              	.LBE1670:
 5477              	.LBE1681:
 5478              	.LBE1692:
 5479              	.LBE1702:
 5480              	.LBE1883:
 5481              	.LBB1884:
 5482              	.LBB1609:
 5483              	.LBB1604:
 5484              		.loc 1 106 0
 5485 1370 8024     		movs	r4, #128
 5486              	.LVL677:
 5487 1372 FEF775BF 		b	.L191
 5488              	.LVL678:
 5489              	.L234:
 5490              	.LBE1604:
 5491              	.LBE1609:
 5492              	.LBE1884:
 5493              	.LBB1885:
 5494              		.loc 1 486 0
 5495 1376 FFF7FEFF 		bl	lbm_dec_as_u
 5496              	.LVL679:
 5497 137a 0446     		mov	r4, r0
 5498              	.LVL680:
 5499              	.LBB1886:
 5500              	.LBB1887:
 5501              		.loc 2 489 0
 5502 137c 0001     		lsls	r0, r0, #4
 5503              	.LVL681:
 5504 137e 00F47F60 		and	r0, r0, #4080
 5505              	.LBE1887:
 5506              	.LBE1886:
 5507              		.loc 1 487 0
 5508 1382 0021     		movs	r1, #0
 5509 1384 40F00800 		orr	r0, r0, #8
 5510 1388 FFF7FEFF 		bl	lbm_cons
 5511              	.LVL682:
 5512 138c 0346     		mov	r3, r0
 5513              	.LBB1888:
 5514              	.LBB1889:
 5515              		.loc 2 489 0
 5516 138e 2009     		lsrs	r0, r4, #4
 5517 1390 00F47F60 		and	r0, r0, #4080
 5518              	.LBE1889:
 5519              	.LBE1888:
 5520              		.loc 1 488 0
 5521 1394 1946     		mov	r1, r3
 5522 1396 40F00800 		orr	r0, r0, #8
 5523              		.loc 1 487 0
 5524 139a 0293     		str	r3, [sp, #8]
 5525              		.loc 1 488 0
 5526 139c FFF7FEFF 		bl	lbm_cons
 5527              	.LVL683:
 5528 13a0 0346     		mov	r3, r0
 5529              	.LBB1890:
ARM GAS  /tmp/ccMboyVS.s 			page 98


 5530              	.LBB1891:
 5531              		.loc 2 489 0
 5532 13a2 200B     		lsrs	r0, r4, #12
 5533 13a4 00F47F60 		and	r0, r0, #4080
 5534              	.LBE1891:
 5535              	.LBE1890:
 5536              		.loc 1 489 0
 5537 13a8 1946     		mov	r1, r3
 5538 13aa 40F00800 		orr	r0, r0, #8
 5539              		.loc 1 488 0
 5540 13ae 0293     		str	r3, [sp, #8]
 5541              		.loc 1 489 0
 5542 13b0 FFF7FEFF 		bl	lbm_cons
 5543              	.LVL684:
 5544 13b4 0346     		mov	r3, r0
 5545              		.loc 1 490 0
 5546 13b6 200E     		lsrs	r0, r4, #24
 5547              	.LBB1892:
 5548              	.LBB1893:
 5549              		.loc 2 489 0
 5550 13b8 0001     		lsls	r0, r0, #4
 5551              	.LBE1893:
 5552              	.LBE1892:
 5553              		.loc 1 490 0
 5554 13ba 40F00800 		orr	r0, r0, #8
 5555 13be 1946     		mov	r1, r3
 5556              		.loc 1 489 0
 5557 13c0 0293     		str	r3, [sp, #8]
 5558              		.loc 1 490 0
 5559 13c2 FFF7FEFF 		bl	lbm_cons
 5560              	.LVL685:
 5561 13c6 0446     		mov	r4, r0
 5562              	.LVL686:
 5563              	.LBE1885:
 5564              		.loc 1 491 0
 5565 13c8 FEF74ABF 		b	.L191
 5566              	.LVL687:
 5567              	.L233:
 5568              	.LBB1894:
 5569              		.loc 1 468 0
 5570 13cc FFF7FEFF 		bl	lbm_dec_as_u
 5571              	.LVL688:
 5572 13d0 0446     		mov	r4, r0
 5573              	.LVL689:
 5574              	.LBB1895:
 5575              	.LBB1896:
 5576              		.loc 2 489 0
 5577 13d2 0001     		lsls	r0, r0, #4
 5578              	.LVL690:
 5579 13d4 00F47F60 		and	r0, r0, #4080
 5580              	.LBE1896:
 5581              	.LBE1895:
 5582              		.loc 1 469 0
 5583 13d8 0021     		movs	r1, #0
 5584 13da 40F00800 		orr	r0, r0, #8
 5585 13de FFF7FEFF 		bl	lbm_cons
 5586              	.LVL691:
ARM GAS  /tmp/ccMboyVS.s 			page 99


 5587 13e2 0346     		mov	r3, r0
 5588              	.LBB1897:
 5589              	.LBB1898:
 5590              		.loc 2 489 0
 5591 13e4 2009     		lsrs	r0, r4, #4
 5592 13e6 00F47F60 		and	r0, r0, #4080
 5593              	.LBE1898:
 5594              	.LBE1897:
 5595              		.loc 1 470 0
 5596 13ea 1946     		mov	r1, r3
 5597 13ec 40F00800 		orr	r0, r0, #8
 5598              		.loc 1 469 0
 5599 13f0 0293     		str	r3, [sp, #8]
 5600              		.loc 1 470 0
 5601 13f2 FFF7FEFF 		bl	lbm_cons
 5602              	.LVL692:
 5603 13f6 0346     		mov	r3, r0
 5604              	.LBB1899:
 5605              	.LBB1900:
 5606              		.loc 2 489 0
 5607 13f8 200B     		lsrs	r0, r4, #12
 5608 13fa 00F47F60 		and	r0, r0, #4080
 5609              	.LBE1900:
 5610              	.LBE1899:
 5611              		.loc 1 471 0
 5612 13fe 1946     		mov	r1, r3
 5613 1400 40F00800 		orr	r0, r0, #8
 5614              		.loc 1 470 0
 5615 1404 0293     		str	r3, [sp, #8]
 5616              		.loc 1 471 0
 5617 1406 FFF7FEFF 		bl	lbm_cons
 5618              	.LVL693:
 5619 140a 0346     		mov	r3, r0
 5620              	.LBB1901:
 5621              	.LBB1902:
 5622              		.loc 2 489 0
 5623 140c 200D     		lsrs	r0, r4, #20
 5624 140e 00F0F000 		and	r0, r0, #240
 5625              	.LBE1902:
 5626              	.LBE1901:
 5627              		.loc 1 472 0
 5628 1412 40F00800 		orr	r0, r0, #8
 5629 1416 1946     		mov	r1, r3
 5630              		.loc 1 471 0
 5631 1418 0293     		str	r3, [sp, #8]
 5632              		.loc 1 472 0
 5633 141a FFF7FEFF 		bl	lbm_cons
 5634              	.LVL694:
 5635 141e 0446     		mov	r4, r0
 5636              	.LVL695:
 5637              	.LBE1894:
 5638              		.loc 1 473 0
 5639 1420 FEF71EBF 		b	.L191
 5640              	.LVL696:
 5641              	.L235:
 5642              	.LBB1903:
 5643              	.LBB1904:
ARM GAS  /tmp/ccMboyVS.s 			page 100


 5644              	.LBB1905:
 5645              		.loc 2 534 0
 5646 1424 FFF7FEFF 		bl	lbm_car
 5647              	.LVL697:
 5648 1428 0446     		mov	r4, r0
 5649              	.LVL698:
 5650              	.LBE1905:
 5651              	.LBE1904:
 5652              	.LBB1906:
 5653              	.LBB1907:
 5654              		.loc 2 489 0
 5655 142a 0001     		lsls	r0, r0, #4
 5656              	.LVL699:
 5657 142c 00F47F60 		and	r0, r0, #4080
 5658              	.LBE1907:
 5659              	.LBE1906:
 5660              		.loc 1 478 0
 5661 1430 0021     		movs	r1, #0
 5662 1432 40F00800 		orr	r0, r0, #8
 5663 1436 FFF7FEFF 		bl	lbm_cons
 5664              	.LVL700:
 5665 143a 0346     		mov	r3, r0
 5666              	.LBB1908:
 5667              	.LBB1909:
 5668              		.loc 2 489 0
 5669 143c 2009     		lsrs	r0, r4, #4
 5670 143e 00F47F60 		and	r0, r0, #4080
 5671              	.LBE1909:
 5672              	.LBE1908:
 5673              		.loc 1 479 0
 5674 1442 1946     		mov	r1, r3
 5675 1444 40F00800 		orr	r0, r0, #8
 5676              		.loc 1 478 0
 5677 1448 0293     		str	r3, [sp, #8]
 5678              		.loc 1 479 0
 5679 144a FFF7FEFF 		bl	lbm_cons
 5680              	.LVL701:
 5681 144e 0346     		mov	r3, r0
 5682              	.LBB1910:
 5683              	.LBB1911:
 5684              		.loc 2 489 0
 5685 1450 200B     		lsrs	r0, r4, #12
 5686 1452 00F47F60 		and	r0, r0, #4080
 5687              	.LBE1911:
 5688              	.LBE1910:
 5689              		.loc 1 480 0
 5690 1456 1946     		mov	r1, r3
 5691 1458 40F00800 		orr	r0, r0, #8
 5692              		.loc 1 479 0
 5693 145c 0293     		str	r3, [sp, #8]
 5694              		.loc 1 480 0
 5695 145e FFF7FEFF 		bl	lbm_cons
 5696              	.LVL702:
 5697 1462 0346     		mov	r3, r0
 5698              		.loc 1 481 0
 5699 1464 200E     		lsrs	r0, r4, #24
 5700              	.LBB1912:
ARM GAS  /tmp/ccMboyVS.s 			page 101


 5701              	.LBB1913:
 5702              		.loc 2 489 0
 5703 1466 0001     		lsls	r0, r0, #4
 5704              	.LBE1913:
 5705              	.LBE1912:
 5706              		.loc 1 481 0
 5707 1468 40F00800 		orr	r0, r0, #8
 5708 146c 1946     		mov	r1, r3
 5709              		.loc 1 480 0
 5710 146e 0293     		str	r3, [sp, #8]
 5711              		.loc 1 481 0
 5712 1470 FFF7FEFF 		bl	lbm_cons
 5713              	.LVL703:
 5714 1474 0446     		mov	r4, r0
 5715              	.LVL704:
 5716              	.LBE1903:
 5717              		.loc 1 482 0
 5718 1476 FEF7F3BE 		b	.L191
 5719              	.LVL705:
 5720              	.L316:
 5721              	.LBB1914:
 5722              	.LBB1610:
 5723              	.LBB1605:
 5724              		.loc 1 112 0
 5725 147a B3F1405F 		cmp	r3, #805306368
 5726 147e 66D0     		beq	.L319
 5727 1480 B3F1804F 		cmp	r3, #1073741824
 5728 1484 40F0A280 		bne	.L505
 5729              	.LVL706:
 5730              	.LBB1578:
 5731              	.LBB1579:
 5732              		.loc 2 534 0
 5733 1488 2046     		mov	r0, r4
 5734              	.LVL707:
 5735 148a FFF7FEFF 		bl	lbm_car
 5736              	.LVL708:
 5737              	.LBE1579:
 5738              	.LBE1578:
 5739              	.LBB1580:
 5740              	.LBB1581:
 5741              		.loc 2 507 0
 5742 148e 4FF40C71 		mov	r1, #560
 5743 1492 80F00040 		eor	r0, r0, #-2147483648
 5744              	.LVL709:
 5745 1496 FFF7FEFF 		bl	lbm_cons
 5746              	.LVL710:
 5747              	.LBB1582:
 5748              	.LBB1583:
 5749              		.loc 2 461 0
 5750 149a C207     		lsls	r2, r0, #31
 5751 149c 4CBF     		ite	mi
 5752 149e 00F07C43 		andmi	r3, r0, #-67108864
 5753 14a2 00F00C03 		andpl	r3, r0, #12
 5754              	.LBE1583:
 5755              	.LBE1582:
 5756              		.loc 2 507 0
 5757 14a6 0446     		mov	r4, r0
ARM GAS  /tmp/ccMboyVS.s 			page 102


 5758              	.LVL711:
 5759              		.loc 2 508 0
 5760 14a8 002B     		cmp	r3, #0
 5761 14aa 3EF4D9AE 		beq	.L191
 5762              	.LVL712:
 5763              	.LBB1584:
 5764              	.LBB1585:
 5765              		.loc 2 477 0
 5766 14ae 20F07C44 		bic	r4, r0, #-67108864
 5767 14b2 24F00704 		bic	r4, r4, #7
 5768 14b6 44F08044 		orr	r4, r4, #1073741824
 5769 14ba 44F00104 		orr	r4, r4, #1
 5770              	.LVL713:
 5771 14be FEF7CFBE 		b	.L191
 5772              	.LVL714:
 5773              	.L983:
 5774              	.LBE1585:
 5775              	.LBE1584:
 5776              	.LBE1581:
 5777              	.LBE1580:
 5778              	.LBE1605:
 5779              	.LBE1610:
 5780              	.LBE1914:
 5781 14c2 9024     		movs	r4, #144
 5782 14c4 FEF7CCBE 		b	.L191
 5783              	.LVL715:
 5784              	.L984:
 5785 14c8 9024     		movs	r4, #144
 5786 14ca FEF7C9BE 		b	.L191
 5787              	.LVL716:
 5788              	.L985:
 5789 14ce 9024     		movs	r4, #144
 5790 14d0 FEF7C6BE 		b	.L191
 5791              	.LVL717:
 5792              	.L981:
 5793              		.loc 1 823 0
 5794 14d4 33BB     		cbnz	r3, .L444
 5795              		.loc 1 841 0
 5796 14d6 4FF4AE64 		mov	r4, #1392
 5797 14da FEF7C1BE 		b	.L191
 5798              	.L986:
 5799              		.loc 1 823 0
 5800 14de B3F1005F 		cmp	r3, #536870912
 5801 14e2 1FD1     		bne	.L444
 5802              		.loc 1 831 0
 5803 14e4 4FF4AA64 		mov	r4, #1360
 5804 14e8 FEF7BABE 		b	.L191
 5805              	.LVL718:
 5806              	.L271:
 5807              	.LBB1915:
 5808              	.LBB1744:
 5809              		.loc 1 577 0
 5810 14ec 0398     		ldr	r0, [sp, #12]
 5811 14ee FFF7FEFF 		bl	lbm_car
 5812              	.LVL719:
 5813              		.loc 1 578 0
 5814 14f2 0028     		cmp	r0, #0
ARM GAS  /tmp/ccMboyVS.s 			page 103


 5815 14f4 3FF4EBAE 		beq	.L273
 5816              		.loc 1 579 0
 5817 14f8 00F10803 		add	r3, r0, #8
 5818              	.LVL720:
 5819              		.loc 1 580 0
 5820 14fc 2146     		mov	r1, r4
 5821 14fe 3A46     		mov	r2, r7
 5822 1500 1846     		mov	r0, r3
 5823              	.LVL721:
 5824 1502 FFF7FEFF 		bl	memset
 5825              	.LVL722:
 5826              		.loc 1 581 0
 5827 1506 3246     		mov	r2, r6
 5828 1508 2946     		mov	r1, r5
 5829 150a FFF7FEFF 		bl	memcpy
 5830              	.LVL723:
 5831              	.LBE1744:
 5832              		.loc 1 585 0
 5833 150e 039C     		ldr	r4, [sp, #12]
 5834              	.LVL724:
 5835 1510 FEF7A6BE 		b	.L191
 5836              	.LVL725:
 5837              	.L445:
 5838              	.LBE1915:
 5839              		.loc 1 825 0
 5840 1514 4FF4A064 		mov	r4, #1280
 5841 1518 FEF7A2BE 		b	.L191
 5842              	.L447:
 5843              		.loc 1 839 0
 5844 151c 4FF4B064 		mov	r4, #1408
 5845 1520 FEF79EBE 		b	.L191
 5846              	.L444:
 5847              		.loc 1 843 0
 5848 1524 8024     		movs	r4, #128
 5849 1526 FEF79BBE 		b	.L191
 5850              	.L450:
 5851              		.loc 1 837 0
 5852 152a 4FF4A464 		mov	r4, #1312
 5853 152e FEF797BE 		b	.L191
 5854              	.L452:
 5855              		.loc 1 829 0
 5856 1532 4FF4A864 		mov	r4, #1344
 5857 1536 FEF793BE 		b	.L191
 5858              	.L455:
 5859              		.loc 1 833 0
 5860 153a 4FF4A664 		mov	r4, #1328
 5861 153e FEF78FBE 		b	.L191
 5862              	.LVL726:
 5863              	.L386:
 5864              	.LBB1916:
 5865              	.LBB1703:
 5866              	.LBB1693:
 5867              	.LBB1682:
 5868              	.LBB1671:
 5869              	.LBB1627:
 5870              		.loc 2 508 0
 5871 1542 10F00C0F 		tst	r0, #12
ARM GAS  /tmp/ccMboyVS.s 			page 104


 5872 1546 3EF48BAE 		beq	.L191
 5873 154a FFF7CABA 		b	.L387
 5874              	.LVL727:
 5875              	.L319:
 5876              	.LBE1627:
 5877              	.LBE1671:
 5878              	.LBE1682:
 5879              	.LBE1693:
 5880              	.LBE1703:
 5881              	.LBE1916:
 5882              	.LBB1917:
 5883              	.LBB1611:
 5884              	.LBB1606:
 5885              	.LBB1586:
 5886              	.LBB1587:
 5887              		.loc 2 544 0
 5888 154e 2046     		mov	r0, r4
 5889              	.LVL728:
 5890 1550 FFF7FEFF 		bl	lbm_car
 5891              	.LVL729:
 5892              	.LBE1587:
 5893              	.LBE1586:
 5894              	.LBB1588:
 5895              	.LBB1589:
 5896              		.loc 2 493 0
 5897 1554 4FF40471 		mov	r1, #528
 5898 1558 4042     		negs	r0, r0
 5899              	.LVL730:
 5900 155a FFF7FEFF 		bl	lbm_cons
 5901              	.LVL731:
 5902              	.LBB1590:
 5903              	.LBB1591:
 5904              		.loc 2 461 0
 5905 155e C107     		lsls	r1, r0, #31
 5906 1560 4CBF     		ite	mi
 5907 1562 00F07C43 		andmi	r3, r0, #-67108864
 5908 1566 00F00C03 		andpl	r3, r0, #12
 5909              	.LBE1591:
 5910              	.LBE1590:
 5911              		.loc 2 493 0
 5912 156a 0446     		mov	r4, r0
 5913              	.LVL732:
 5914              		.loc 2 494 0
 5915 156c 002B     		cmp	r3, #0
 5916 156e 3EF477AE 		beq	.L191
 5917              	.LVL733:
 5918              	.LBB1592:
 5919              	.LBB1593:
 5920              		.loc 2 477 0
 5921 1572 20F07C44 		bic	r4, r0, #-67108864
 5922 1576 24F00704 		bic	r4, r4, #7
 5923 157a 44F04054 		orr	r4, r4, #805306368
 5924 157e 44F00104 		orr	r4, r4, #1
 5925              	.LVL734:
 5926 1582 FEF76DBE 		b	.L191
 5927              	.LVL735:
 5928              	.L315:
ARM GAS  /tmp/ccMboyVS.s 			page 105


 5929              	.LBE1593:
 5930              	.LBE1592:
 5931              	.LBE1589:
 5932              	.LBE1588:
 5933              	.LBB1594:
 5934              	.LBB1595:
 5935              		.loc 2 540 0
 5936 1586 2046     		mov	r0, r4
 5937              	.LVL736:
 5938 1588 FFF7FEFF 		bl	lbm_car
 5939              	.LVL737:
 5940              	.LBE1595:
 5941              	.LBE1594:
 5942              	.LBB1596:
 5943              	.LBB1597:
 5944              		.loc 2 499 0
 5945 158c 4FF40871 		mov	r1, #544
 5946 1590 4042     		negs	r0, r0
 5947              	.LVL738:
 5948 1592 FFF7FEFF 		bl	lbm_cons
 5949              	.LVL739:
 5950 1596 0446     		mov	r4, r0
 5951              	.LVL740:
 5952              	.LBB1598:
 5953              	.LBB1599:
 5954              		.loc 2 461 0
 5955 1598 E007     		lsls	r0, r4, #31
 5956              	.LVL741:
 5957 159a 4CBF     		ite	mi
 5958 159c 04F07C43 		andmi	r3, r4, #-67108864
 5959 15a0 04F00C03 		andpl	r3, r4, #12
 5960              	.LBE1599:
 5961              	.LBE1598:
 5962              		.loc 2 500 0
 5963 15a4 002B     		cmp	r3, #0
 5964 15a6 3EF45BAE 		beq	.L191
 5965              	.LVL742:
 5966              	.LBB1600:
 5967              	.LBB1601:
 5968              		.loc 2 477 0
 5969 15aa 24F07C44 		bic	r4, r4, #-67108864
 5970              	.LVL743:
 5971 15ae 24F00704 		bic	r4, r4, #7
 5972 15b2 44F00054 		orr	r4, r4, #536870912
 5973 15b6 44F00104 		orr	r4, r4, #1
 5974              	.LVL744:
 5975 15ba FEF751BE 		b	.L191
 5976              	.LVL745:
 5977              	.L317:
 5978              	.LBE1601:
 5979              	.LBE1600:
 5980              	.LBE1597:
 5981              	.LBE1596:
 5982              		.loc 1 119 0
 5983 15be 24F00F04 		bic	r4, r4, #15
 5984              	.LVL746:
 5985              	.LBB1602:
ARM GAS  /tmp/ccMboyVS.s 			page 106


 5986              	.LBB1603:
 5987              		.loc 2 489 0
 5988 15c2 6442     		negs	r4, r4
 5989 15c4 44F00804 		orr	r4, r4, #8
 5990              	.LVL747:
 5991 15c8 FEF74ABE 		b	.L191
 5992              	.LVL748:
 5993              	.L505:
 5994              	.LBE1603:
 5995              	.LBE1602:
 5996              		.loc 1 106 0
 5997 15cc 8024     		movs	r4, #128
 5998              	.LVL749:
 5999 15ce FEF747BE 		b	.L191
 6000              	.LVL750:
 6001              	.L277:
 6002              	.LBE1606:
 6003              	.LBE1611:
 6004              	.LBE1917:
 6005              	.LBB1918:
 6006              		.loc 1 600 0
 6007 15d2 03A9     		add	r1, sp, #12
 6008 15d4 2046     		mov	r0, r4
 6009 15d6 FFF7FEFF 		bl	lbm_add_symbol
 6010              	.LVL751:
 6011 15da 10B9     		cbnz	r0, .L278
 6012 15dc 029C     		ldr	r4, [sp, #8]
 6013              	.LVL752:
 6014 15de FEF73FBE 		b	.L191
 6015              	.LVL753:
 6016              	.L278:
 6017              	.LBB1712:
 6018              	.LBB1713:
 6019              		.loc 2 481 0
 6020 15e2 039C     		ldr	r4, [sp, #12]
 6021              	.LVL754:
 6022 15e4 2401     		lsls	r4, r4, #4
 6023              	.LVL755:
 6024 15e6 FEF73BBE 		b	.L191
 6025              	.LBE1713:
 6026              	.LBE1712:
 6027              	.LBE1918:
 6028              	.LBE1922:
 6029              		.cfi_endproc
 6030              	.LFE60:
 6031              		.size	lbm_fundamental, .-lbm_fundamental
 6032 15ea 00BF     		.text
 6033              	.Letext0:
 6034              		.file 3 "/usr/arm-none-eabi/include/machine/_default_types.h"
 6035              		.file 4 "/usr/arm-none-eabi/include/sys/_stdint.h"
 6036              		.file 5 "lispBM/lispBM/include/lbm_types.h"
 6037              		.file 6 "/usr/lib/gcc/arm-none-eabi/7.3.1/include/stddef.h"
 6038              		.file 7 "/usr/arm-none-eabi/include/sys/lock.h"
 6039              		.file 8 "/usr/arm-none-eabi/include/sys/_types.h"
 6040              		.file 9 "/usr/arm-none-eabi/include/sys/reent.h"
 6041              		.file 10 "/usr/arm-none-eabi/include/stdlib.h"
 6042              		.file 11 "/usr/arm-none-eabi/include/math.h"
ARM GAS  /tmp/ccMboyVS.s 			page 107


 6043              		.file 12 "<built-in>"
 6044              		.file 13 "lispBM/lispBM/include/symrepr.h"
 6045              		.file 14 "/usr/arm-none-eabi/include/string.h"
 6046              		.section	.debug_info,"",%progbits
 6047              	.Ldebug_info0:
 6048 0000 B43D0000 		.4byte	0x3db4
 6049 0004 0400     		.2byte	0x4
 6050 0006 00000000 		.4byte	.Ldebug_abbrev0
 6051 000a 04       		.byte	0x4
 6052 000b 01       		.uleb128 0x1
 6053 000c 72010000 		.4byte	.LASF211
 6054 0010 0C       		.byte	0xc
 6055 0011 1F070000 		.4byte	.LASF212
 6056 0015 B6050000 		.4byte	.LASF213
 6057 0019 980F0000 		.4byte	.Ldebug_ranges0+0xf98
 6058 001d 00000000 		.4byte	0
 6059 0021 00000000 		.4byte	.Ldebug_line0
 6060 0025 02       		.uleb128 0x2
 6061 0026 04       		.byte	0x4
 6062 0027 04       		.byte	0x4
 6063 0028 50010000 		.4byte	.LASF0
 6064 002c 02       		.uleb128 0x2
 6065 002d 04       		.byte	0x4
 6066 002e 07       		.byte	0x7
 6067 002f 63000000 		.4byte	.LASF1
 6068 0033 02       		.uleb128 0x2
 6069 0034 01       		.byte	0x1
 6070 0035 06       		.byte	0x6
 6071 0036 7F080000 		.4byte	.LASF2
 6072 003a 02       		.uleb128 0x2
 6073 003b 01       		.byte	0x1
 6074 003c 08       		.byte	0x8
 6075 003d AE070000 		.4byte	.LASF3
 6076 0041 02       		.uleb128 0x2
 6077 0042 02       		.byte	0x2
 6078 0043 05       		.byte	0x5
 6079 0044 28060000 		.4byte	.LASF4
 6080 0048 02       		.uleb128 0x2
 6081 0049 02       		.byte	0x2
 6082 004a 07       		.byte	0x7
 6083 004b 9C080000 		.4byte	.LASF5
 6084 004f 03       		.uleb128 0x3
 6085 0050 86000000 		.4byte	.LASF7
 6086 0054 03       		.byte	0x3
 6087 0055 4D       		.byte	0x4d
 6088 0056 5A000000 		.4byte	0x5a
 6089 005a 02       		.uleb128 0x2
 6090 005b 04       		.byte	0x4
 6091 005c 05       		.byte	0x5
 6092 005d 37060000 		.4byte	.LASF6
 6093 0061 03       		.uleb128 0x3
 6094 0062 BC070000 		.4byte	.LASF8
 6095 0066 03       		.byte	0x3
 6096 0067 4F       		.byte	0x4f
 6097 0068 6C000000 		.4byte	0x6c
 6098 006c 02       		.uleb128 0x2
 6099 006d 04       		.byte	0x4
ARM GAS  /tmp/ccMboyVS.s 			page 108


 6100 006e 07       		.byte	0x7
 6101 006f 3F070000 		.4byte	.LASF9
 6102 0073 02       		.uleb128 0x2
 6103 0074 08       		.byte	0x8
 6104 0075 05       		.byte	0x5
 6105 0076 B4040000 		.4byte	.LASF10
 6106 007a 02       		.uleb128 0x2
 6107 007b 08       		.byte	0x8
 6108 007c 07       		.byte	0x7
 6109 007d CC020000 		.4byte	.LASF11
 6110 0081 04       		.uleb128 0x4
 6111 0082 04       		.byte	0x4
 6112 0083 05       		.byte	0x5
 6113 0084 696E7400 		.ascii	"int\000"
 6114 0088 03       		.uleb128 0x3
 6115 0089 66070000 		.4byte	.LASF12
 6116 008d 04       		.byte	0x4
 6117 008e 2C       		.byte	0x2c
 6118 008f 4F000000 		.4byte	0x4f
 6119 0093 03       		.uleb128 0x3
 6120 0094 26010000 		.4byte	.LASF13
 6121 0098 04       		.byte	0x4
 6122 0099 30       		.byte	0x30
 6123 009a 61000000 		.4byte	0x61
 6124 009e 05       		.uleb128 0x5
 6125 009f 04       		.byte	0x4
 6126 00a0 A4000000 		.4byte	0xa4
 6127 00a4 06       		.uleb128 0x6
 6128 00a5 51090000 		.4byte	.LASF23
 6129 00a9 03       		.uleb128 0x3
 6130 00aa 70030000 		.4byte	.LASF14
 6131 00ae 05       		.byte	0x5
 6132 00af 1E       		.byte	0x1e
 6133 00b0 93000000 		.4byte	0x93
 6134 00b4 03       		.uleb128 0x3
 6135 00b5 1F050000 		.4byte	.LASF15
 6136 00b9 05       		.byte	0x5
 6137 00ba 20       		.byte	0x20
 6138 00bb 93000000 		.4byte	0x93
 6139 00bf 03       		.uleb128 0x3
 6140 00c0 FD050000 		.4byte	.LASF16
 6141 00c4 05       		.byte	0x5
 6142 00c5 22       		.byte	0x22
 6143 00c6 93000000 		.4byte	0x93
 6144 00ca 03       		.uleb128 0x3
 6145 00cb 0C080000 		.4byte	.LASF17
 6146 00cf 05       		.byte	0x5
 6147 00d0 23       		.byte	0x23
 6148 00d1 88000000 		.4byte	0x88
 6149 00d5 03       		.uleb128 0x3
 6150 00d6 C7000000 		.4byte	.LASF18
 6151 00da 05       		.byte	0x5
 6152 00db 24       		.byte	0x24
 6153 00dc 25000000 		.4byte	0x25
 6154 00e0 07       		.uleb128 0x7
 6155 00e1 04       		.byte	0x4
 6156 00e2 02       		.uleb128 0x2
ARM GAS  /tmp/ccMboyVS.s 			page 109


 6157 00e3 01       		.byte	0x1
 6158 00e4 02       		.byte	0x2
 6159 00e5 9C030000 		.4byte	.LASF19
 6160 00e9 02       		.uleb128 0x2
 6161 00ea 01       		.byte	0x1
 6162 00eb 08       		.byte	0x8
 6163 00ec 0F040000 		.4byte	.LASF20
 6164 00f0 08       		.uleb128 0x8
 6165 00f1 E9000000 		.4byte	0xe9
 6166 00f5 03       		.uleb128 0x3
 6167 00f6 69030000 		.4byte	.LASF21
 6168 00fa 06       		.byte	0x6
 6169 00fb D8       		.byte	0xd8
 6170 00fc 2C000000 		.4byte	0x2c
 6171 0100 03       		.uleb128 0x3
 6172 0101 D7050000 		.4byte	.LASF22
 6173 0105 07       		.byte	0x7
 6174 0106 22       		.byte	0x22
 6175 0107 0B010000 		.4byte	0x10b
 6176 010b 05       		.uleb128 0x5
 6177 010c 04       		.byte	0x4
 6178 010d 11010000 		.4byte	0x111
 6179 0111 06       		.uleb128 0x6
 6180 0112 88070000 		.4byte	.LASF24
 6181 0116 03       		.uleb128 0x3
 6182 0117 F7080000 		.4byte	.LASF25
 6183 011b 08       		.byte	0x8
 6184 011c 2C       		.byte	0x2c
 6185 011d 5A000000 		.4byte	0x5a
 6186 0121 03       		.uleb128 0x3
 6187 0122 EA000000 		.4byte	.LASF26
 6188 0126 08       		.byte	0x8
 6189 0127 72       		.byte	0x72
 6190 0128 5A000000 		.4byte	0x5a
 6191 012c 09       		.uleb128 0x9
 6192 012d 5F070000 		.4byte	.LASF27
 6193 0131 06       		.byte	0x6
 6194 0132 6501     		.2byte	0x165
 6195 0134 2C000000 		.4byte	0x2c
 6196 0138 0A       		.uleb128 0xa
 6197 0139 04       		.byte	0x4
 6198 013a 08       		.byte	0x8
 6199 013b A6       		.byte	0xa6
 6200 013c 57010000 		.4byte	0x157
 6201 0140 0B       		.uleb128 0xb
 6202 0141 50040000 		.4byte	.LASF28
 6203 0145 08       		.byte	0x8
 6204 0146 A8       		.byte	0xa8
 6205 0147 2C010000 		.4byte	0x12c
 6206 014b 0B       		.uleb128 0xb
 6207 014c 6F060000 		.4byte	.LASF29
 6208 0150 08       		.byte	0x8
 6209 0151 A9       		.byte	0xa9
 6210 0152 57010000 		.4byte	0x157
 6211 0156 00       		.byte	0
 6212 0157 0C       		.uleb128 0xc
 6213 0158 3A000000 		.4byte	0x3a
ARM GAS  /tmp/ccMboyVS.s 			page 110


 6214 015c 67010000 		.4byte	0x167
 6215 0160 0D       		.uleb128 0xd
 6216 0161 2C000000 		.4byte	0x2c
 6217 0165 03       		.byte	0x3
 6218 0166 00       		.byte	0
 6219 0167 0E       		.uleb128 0xe
 6220 0168 08       		.byte	0x8
 6221 0169 08       		.byte	0x8
 6222 016a A3       		.byte	0xa3
 6223 016b 88010000 		.4byte	0x188
 6224 016f 0F       		.uleb128 0xf
 6225 0170 39010000 		.4byte	.LASF30
 6226 0174 08       		.byte	0x8
 6227 0175 A5       		.byte	0xa5
 6228 0176 81000000 		.4byte	0x81
 6229 017a 00       		.byte	0
 6230 017b 0F       		.uleb128 0xf
 6231 017c D4030000 		.4byte	.LASF31
 6232 0180 08       		.byte	0x8
 6233 0181 AA       		.byte	0xaa
 6234 0182 38010000 		.4byte	0x138
 6235 0186 04       		.byte	0x4
 6236 0187 00       		.byte	0
 6237 0188 03       		.uleb128 0x3
 6238 0189 67050000 		.4byte	.LASF32
 6239 018d 08       		.byte	0x8
 6240 018e AB       		.byte	0xab
 6241 018f 67010000 		.4byte	0x167
 6242 0193 03       		.uleb128 0x3
 6243 0194 47040000 		.4byte	.LASF33
 6244 0198 08       		.byte	0x8
 6245 0199 AF       		.byte	0xaf
 6246 019a 00010000 		.4byte	0x100
 6247 019e 05       		.uleb128 0x5
 6248 019f 04       		.byte	0x4
 6249 01a0 E9000000 		.4byte	0xe9
 6250 01a4 03       		.uleb128 0x3
 6251 01a5 E3040000 		.4byte	.LASF34
 6252 01a9 09       		.byte	0x9
 6253 01aa 16       		.byte	0x16
 6254 01ab 6C000000 		.4byte	0x6c
 6255 01af 10       		.uleb128 0x10
 6256 01b0 FF000000 		.4byte	.LASF39
 6257 01b4 18       		.byte	0x18
 6258 01b5 09       		.byte	0x9
 6259 01b6 2F       		.byte	0x2f
 6260 01b7 02020000 		.4byte	0x202
 6261 01bb 0F       		.uleb128 0xf
 6262 01bc AE030000 		.4byte	.LASF35
 6263 01c0 09       		.byte	0x9
 6264 01c1 31       		.byte	0x31
 6265 01c2 02020000 		.4byte	0x202
 6266 01c6 00       		.byte	0
 6267 01c7 11       		.uleb128 0x11
 6268 01c8 5F6B00   		.ascii	"_k\000"
 6269 01cb 09       		.byte	0x9
 6270 01cc 32       		.byte	0x32
ARM GAS  /tmp/ccMboyVS.s 			page 111


 6271 01cd 81000000 		.4byte	0x81
 6272 01d1 04       		.byte	0x4
 6273 01d2 0F       		.uleb128 0xf
 6274 01d3 D9060000 		.4byte	.LASF36
 6275 01d7 09       		.byte	0x9
 6276 01d8 32       		.byte	0x32
 6277 01d9 81000000 		.4byte	0x81
 6278 01dd 08       		.byte	0x8
 6279 01de 0F       		.uleb128 0xf
 6280 01df 4F060000 		.4byte	.LASF37
 6281 01e3 09       		.byte	0x9
 6282 01e4 32       		.byte	0x32
 6283 01e5 81000000 		.4byte	0x81
 6284 01e9 0C       		.byte	0xc
 6285 01ea 0F       		.uleb128 0xf
 6286 01eb F8020000 		.4byte	.LASF38
 6287 01ef 09       		.byte	0x9
 6288 01f0 32       		.byte	0x32
 6289 01f1 81000000 		.4byte	0x81
 6290 01f5 10       		.byte	0x10
 6291 01f6 11       		.uleb128 0x11
 6292 01f7 5F7800   		.ascii	"_x\000"
 6293 01fa 09       		.byte	0x9
 6294 01fb 33       		.byte	0x33
 6295 01fc 08020000 		.4byte	0x208
 6296 0200 14       		.byte	0x14
 6297 0201 00       		.byte	0
 6298 0202 05       		.uleb128 0x5
 6299 0203 04       		.byte	0x4
 6300 0204 AF010000 		.4byte	0x1af
 6301 0208 0C       		.uleb128 0xc
 6302 0209 A4010000 		.4byte	0x1a4
 6303 020d 18020000 		.4byte	0x218
 6304 0211 0D       		.uleb128 0xd
 6305 0212 2C000000 		.4byte	0x2c
 6306 0216 00       		.byte	0
 6307 0217 00       		.byte	0
 6308 0218 10       		.uleb128 0x10
 6309 0219 0F070000 		.4byte	.LASF40
 6310 021d 24       		.byte	0x24
 6311 021e 09       		.byte	0x9
 6312 021f 37       		.byte	0x37
 6313 0220 91020000 		.4byte	0x291
 6314 0224 0F       		.uleb128 0xf
 6315 0225 7A030000 		.4byte	.LASF41
 6316 0229 09       		.byte	0x9
 6317 022a 39       		.byte	0x39
 6318 022b 81000000 		.4byte	0x81
 6319 022f 00       		.byte	0
 6320 0230 0F       		.uleb128 0xf
 6321 0231 56010000 		.4byte	.LASF42
 6322 0235 09       		.byte	0x9
 6323 0236 3A       		.byte	0x3a
 6324 0237 81000000 		.4byte	0x81
 6325 023b 04       		.byte	0x4
 6326 023c 0F       		.uleb128 0xf
 6327 023d 2F010000 		.4byte	.LASF43
ARM GAS  /tmp/ccMboyVS.s 			page 112


 6328 0241 09       		.byte	0x9
 6329 0242 3B       		.byte	0x3b
 6330 0243 81000000 		.4byte	0x81
 6331 0247 08       		.byte	0x8
 6332 0248 0F       		.uleb128 0xf
 6333 0249 14040000 		.4byte	.LASF44
 6334 024d 09       		.byte	0x9
 6335 024e 3C       		.byte	0x3c
 6336 024f 81000000 		.4byte	0x81
 6337 0253 0C       		.byte	0xc
 6338 0254 0F       		.uleb128 0xf
 6339 0255 BC050000 		.4byte	.LASF45
 6340 0259 09       		.byte	0x9
 6341 025a 3D       		.byte	0x3d
 6342 025b 81000000 		.4byte	0x81
 6343 025f 10       		.byte	0x10
 6344 0260 0F       		.uleb128 0xf
 6345 0261 93060000 		.4byte	.LASF46
 6346 0265 09       		.byte	0x9
 6347 0266 3E       		.byte	0x3e
 6348 0267 81000000 		.4byte	0x81
 6349 026b 14       		.byte	0x14
 6350 026c 0F       		.uleb128 0xf
 6351 026d 07010000 		.4byte	.LASF47
 6352 0271 09       		.byte	0x9
 6353 0272 3F       		.byte	0x3f
 6354 0273 81000000 		.4byte	0x81
 6355 0277 18       		.byte	0x18
 6356 0278 0F       		.uleb128 0xf
 6357 0279 8D030000 		.4byte	.LASF48
 6358 027d 09       		.byte	0x9
 6359 027e 40       		.byte	0x40
 6360 027f 81000000 		.4byte	0x81
 6361 0283 1C       		.byte	0x1c
 6362 0284 0F       		.uleb128 0xf
 6363 0285 8C050000 		.4byte	.LASF49
 6364 0289 09       		.byte	0x9
 6365 028a 41       		.byte	0x41
 6366 028b 81000000 		.4byte	0x81
 6367 028f 20       		.byte	0x20
 6368 0290 00       		.byte	0
 6369 0291 12       		.uleb128 0x12
 6370 0292 1E000000 		.4byte	.LASF50
 6371 0296 0801     		.2byte	0x108
 6372 0298 09       		.byte	0x9
 6373 0299 4A       		.byte	0x4a
 6374 029a D1020000 		.4byte	0x2d1
 6375 029e 0F       		.uleb128 0xf
 6376 029f 77080000 		.4byte	.LASF51
 6377 02a3 09       		.byte	0x9
 6378 02a4 4B       		.byte	0x4b
 6379 02a5 D1020000 		.4byte	0x2d1
 6380 02a9 00       		.byte	0
 6381 02aa 0F       		.uleb128 0xf
 6382 02ab 7C070000 		.4byte	.LASF52
 6383 02af 09       		.byte	0x9
 6384 02b0 4C       		.byte	0x4c
ARM GAS  /tmp/ccMboyVS.s 			page 113


 6385 02b1 D1020000 		.4byte	0x2d1
 6386 02b5 80       		.byte	0x80
 6387 02b6 13       		.uleb128 0x13
 6388 02b7 C1080000 		.4byte	.LASF53
 6389 02bb 09       		.byte	0x9
 6390 02bc 4E       		.byte	0x4e
 6391 02bd A4010000 		.4byte	0x1a4
 6392 02c1 0001     		.2byte	0x100
 6393 02c3 13       		.uleb128 0x13
 6394 02c4 32090000 		.4byte	.LASF54
 6395 02c8 09       		.byte	0x9
 6396 02c9 51       		.byte	0x51
 6397 02ca A4010000 		.4byte	0x1a4
 6398 02ce 0401     		.2byte	0x104
 6399 02d0 00       		.byte	0
 6400 02d1 0C       		.uleb128 0xc
 6401 02d2 E0000000 		.4byte	0xe0
 6402 02d6 E1020000 		.4byte	0x2e1
 6403 02da 0D       		.uleb128 0xd
 6404 02db 2C000000 		.4byte	0x2c
 6405 02df 1F       		.byte	0x1f
 6406 02e0 00       		.byte	0
 6407 02e1 12       		.uleb128 0x12
 6408 02e2 0E060000 		.4byte	.LASF55
 6409 02e6 9001     		.2byte	0x190
 6410 02e8 09       		.byte	0x9
 6411 02e9 5D       		.byte	0x5d
 6412 02ea 1F030000 		.4byte	0x31f
 6413 02ee 0F       		.uleb128 0xf
 6414 02ef AE030000 		.4byte	.LASF35
 6415 02f3 09       		.byte	0x9
 6416 02f4 5E       		.byte	0x5e
 6417 02f5 1F030000 		.4byte	0x31f
 6418 02f9 00       		.byte	0
 6419 02fa 0F       		.uleb128 0xf
 6420 02fb A3050000 		.4byte	.LASF56
 6421 02ff 09       		.byte	0x9
 6422 0300 5F       		.byte	0x5f
 6423 0301 81000000 		.4byte	0x81
 6424 0305 04       		.byte	0x4
 6425 0306 0F       		.uleb128 0xf
 6426 0307 F2000000 		.4byte	.LASF57
 6427 030b 09       		.byte	0x9
 6428 030c 61       		.byte	0x61
 6429 030d 25030000 		.4byte	0x325
 6430 0311 08       		.byte	0x8
 6431 0312 0F       		.uleb128 0xf
 6432 0313 1E000000 		.4byte	.LASF50
 6433 0317 09       		.byte	0x9
 6434 0318 62       		.byte	0x62
 6435 0319 91020000 		.4byte	0x291
 6436 031d 88       		.byte	0x88
 6437 031e 00       		.byte	0
 6438 031f 05       		.uleb128 0x5
 6439 0320 04       		.byte	0x4
 6440 0321 E1020000 		.4byte	0x2e1
 6441 0325 0C       		.uleb128 0xc
ARM GAS  /tmp/ccMboyVS.s 			page 114


 6442 0326 35030000 		.4byte	0x335
 6443 032a 35030000 		.4byte	0x335
 6444 032e 0D       		.uleb128 0xd
 6445 032f 2C000000 		.4byte	0x2c
 6446 0333 1F       		.byte	0x1f
 6447 0334 00       		.byte	0
 6448 0335 05       		.uleb128 0x5
 6449 0336 04       		.byte	0x4
 6450 0337 3B030000 		.4byte	0x33b
 6451 033b 14       		.uleb128 0x14
 6452 033c 10       		.uleb128 0x10
 6453 033d 05080000 		.4byte	.LASF58
 6454 0341 08       		.byte	0x8
 6455 0342 09       		.byte	0x9
 6456 0343 75       		.byte	0x75
 6457 0344 61030000 		.4byte	0x361
 6458 0348 0F       		.uleb128 0xf
 6459 0349 CD040000 		.4byte	.LASF59
 6460 034d 09       		.byte	0x9
 6461 034e 76       		.byte	0x76
 6462 034f 61030000 		.4byte	0x361
 6463 0353 00       		.byte	0
 6464 0354 0F       		.uleb128 0xf
 6465 0355 EA080000 		.4byte	.LASF60
 6466 0359 09       		.byte	0x9
 6467 035a 77       		.byte	0x77
 6468 035b 81000000 		.4byte	0x81
 6469 035f 04       		.byte	0x4
 6470 0360 00       		.byte	0
 6471 0361 05       		.uleb128 0x5
 6472 0362 04       		.byte	0x4
 6473 0363 3A000000 		.4byte	0x3a
 6474 0367 10       		.uleb128 0x10
 6475 0368 F0020000 		.4byte	.LASF61
 6476 036c 68       		.byte	0x68
 6477 036d 09       		.byte	0x9
 6478 036e B5       		.byte	0xb5
 6479 036f 91040000 		.4byte	0x491
 6480 0373 11       		.uleb128 0x11
 6481 0374 5F7000   		.ascii	"_p\000"
 6482 0377 09       		.byte	0x9
 6483 0378 B6       		.byte	0xb6
 6484 0379 61030000 		.4byte	0x361
 6485 037d 00       		.byte	0
 6486 037e 11       		.uleb128 0x11
 6487 037f 5F7200   		.ascii	"_r\000"
 6488 0382 09       		.byte	0x9
 6489 0383 B7       		.byte	0xb7
 6490 0384 81000000 		.4byte	0x81
 6491 0388 04       		.byte	0x4
 6492 0389 11       		.uleb128 0x11
 6493 038a 5F7700   		.ascii	"_w\000"
 6494 038d 09       		.byte	0x9
 6495 038e B8       		.byte	0xb8
 6496 038f 81000000 		.4byte	0x81
 6497 0393 08       		.byte	0x8
 6498 0394 0F       		.uleb128 0xf
ARM GAS  /tmp/ccMboyVS.s 			page 115


 6499 0395 79000000 		.4byte	.LASF62
 6500 0399 09       		.byte	0x9
 6501 039a B9       		.byte	0xb9
 6502 039b 41000000 		.4byte	0x41
 6503 039f 0C       		.byte	0xc
 6504 03a0 0F       		.uleb128 0xf
 6505 03a1 19050000 		.4byte	.LASF63
 6506 03a5 09       		.byte	0x9
 6507 03a6 BA       		.byte	0xba
 6508 03a7 41000000 		.4byte	0x41
 6509 03ab 0E       		.byte	0xe
 6510 03ac 11       		.uleb128 0x11
 6511 03ad 5F626600 		.ascii	"_bf\000"
 6512 03b1 09       		.byte	0x9
 6513 03b2 BB       		.byte	0xbb
 6514 03b3 3C030000 		.4byte	0x33c
 6515 03b7 10       		.byte	0x10
 6516 03b8 0F       		.uleb128 0xf
 6517 03b9 70000000 		.4byte	.LASF64
 6518 03bd 09       		.byte	0x9
 6519 03be BC       		.byte	0xbc
 6520 03bf 81000000 		.4byte	0x81
 6521 03c3 18       		.byte	0x18
 6522 03c4 0F       		.uleb128 0xf
 6523 03c5 F7000000 		.4byte	.LASF65
 6524 03c9 09       		.byte	0x9
 6525 03ca C3       		.byte	0xc3
 6526 03cb E0000000 		.4byte	0xe0
 6527 03cf 1C       		.byte	0x1c
 6528 03d0 0F       		.uleb128 0xf
 6529 03d1 B3000000 		.4byte	.LASF66
 6530 03d5 09       		.byte	0x9
 6531 03d6 C5       		.byte	0xc5
 6532 03d7 EC050000 		.4byte	0x5ec
 6533 03db 20       		.byte	0x20
 6534 03dc 0F       		.uleb128 0xf
 6535 03dd F6050000 		.4byte	.LASF67
 6536 03e1 09       		.byte	0x9
 6537 03e2 C7       		.byte	0xc7
 6538 03e3 16060000 		.4byte	0x616
 6539 03e7 24       		.byte	0x24
 6540 03e8 0F       		.uleb128 0xf
 6541 03e9 5C090000 		.4byte	.LASF68
 6542 03ed 09       		.byte	0x9
 6543 03ee CA       		.byte	0xca
 6544 03ef 3A060000 		.4byte	0x63a
 6545 03f3 28       		.byte	0x28
 6546 03f4 0F       		.uleb128 0xf
 6547 03f5 77040000 		.4byte	.LASF69
 6548 03f9 09       		.byte	0x9
 6549 03fa CB       		.byte	0xcb
 6550 03fb 54060000 		.4byte	0x654
 6551 03ff 2C       		.byte	0x2c
 6552 0400 11       		.uleb128 0x11
 6553 0401 5F756200 		.ascii	"_ub\000"
 6554 0405 09       		.byte	0x9
 6555 0406 CE       		.byte	0xce
ARM GAS  /tmp/ccMboyVS.s 			page 116


 6556 0407 3C030000 		.4byte	0x33c
 6557 040b 30       		.byte	0x30
 6558 040c 11       		.uleb128 0x11
 6559 040d 5F757000 		.ascii	"_up\000"
 6560 0411 09       		.byte	0x9
 6561 0412 CF       		.byte	0xcf
 6562 0413 61030000 		.4byte	0x361
 6563 0417 38       		.byte	0x38
 6564 0418 11       		.uleb128 0x11
 6565 0419 5F757200 		.ascii	"_ur\000"
 6566 041d 09       		.byte	0x9
 6567 041e D0       		.byte	0xd0
 6568 041f 81000000 		.4byte	0x81
 6569 0423 3C       		.byte	0x3c
 6570 0424 0F       		.uleb128 0xf
 6571 0425 73090000 		.4byte	.LASF70
 6572 0429 09       		.byte	0x9
 6573 042a D3       		.byte	0xd3
 6574 042b 5A060000 		.4byte	0x65a
 6575 042f 40       		.byte	0x40
 6576 0430 0F       		.uleb128 0xf
 6577 0431 FE080000 		.4byte	.LASF71
 6578 0435 09       		.byte	0x9
 6579 0436 D4       		.byte	0xd4
 6580 0437 6A060000 		.4byte	0x66a
 6581 043b 43       		.byte	0x43
 6582 043c 11       		.uleb128 0x11
 6583 043d 5F6C6200 		.ascii	"_lb\000"
 6584 0441 09       		.byte	0x9
 6585 0442 D7       		.byte	0xd7
 6586 0443 3C030000 		.4byte	0x33c
 6587 0447 44       		.byte	0x44
 6588 0448 0F       		.uleb128 0xf
 6589 0449 06070000 		.4byte	.LASF72
 6590 044d 09       		.byte	0x9
 6591 044e DA       		.byte	0xda
 6592 044f 81000000 		.4byte	0x81
 6593 0453 4C       		.byte	0x4c
 6594 0454 0F       		.uleb128 0xf
 6595 0455 1C030000 		.4byte	.LASF73
 6596 0459 09       		.byte	0x9
 6597 045a DB       		.byte	0xdb
 6598 045b 16010000 		.4byte	0x116
 6599 045f 50       		.byte	0x50
 6600 0460 0F       		.uleb128 0xf
 6601 0461 69060000 		.4byte	.LASF74
 6602 0465 09       		.byte	0x9
 6603 0466 DE       		.byte	0xde
 6604 0467 AF040000 		.4byte	0x4af
 6605 046b 54       		.byte	0x54
 6606 046c 0F       		.uleb128 0xf
 6607 046d 14070000 		.4byte	.LASF75
 6608 0471 09       		.byte	0x9
 6609 0472 E2       		.byte	0xe2
 6610 0473 93010000 		.4byte	0x193
 6611 0477 58       		.byte	0x58
 6612 0478 0F       		.uleb128 0xf
ARM GAS  /tmp/ccMboyVS.s 			page 117


 6613 0479 97000000 		.4byte	.LASF76
 6614 047d 09       		.byte	0x9
 6615 047e E4       		.byte	0xe4
 6616 047f 88010000 		.4byte	0x188
 6617 0483 5C       		.byte	0x5c
 6618 0484 0F       		.uleb128 0xf
 6619 0485 2A090000 		.4byte	.LASF77
 6620 0489 09       		.byte	0x9
 6621 048a E5       		.byte	0xe5
 6622 048b 81000000 		.4byte	0x81
 6623 048f 64       		.byte	0x64
 6624 0490 00       		.byte	0
 6625 0491 15       		.uleb128 0x15
 6626 0492 81000000 		.4byte	0x81
 6627 0496 AF040000 		.4byte	0x4af
 6628 049a 16       		.uleb128 0x16
 6629 049b AF040000 		.4byte	0x4af
 6630 049f 16       		.uleb128 0x16
 6631 04a0 E0000000 		.4byte	0xe0
 6632 04a4 16       		.uleb128 0x16
 6633 04a5 9E010000 		.4byte	0x19e
 6634 04a9 16       		.uleb128 0x16
 6635 04aa 81000000 		.4byte	0x81
 6636 04ae 00       		.byte	0
 6637 04af 05       		.uleb128 0x5
 6638 04b0 04       		.byte	0x4
 6639 04b1 BA040000 		.4byte	0x4ba
 6640 04b5 08       		.uleb128 0x8
 6641 04b6 AF040000 		.4byte	0x4af
 6642 04ba 17       		.uleb128 0x17
 6643 04bb 95080000 		.4byte	.LASF78
 6644 04bf 2804     		.2byte	0x428
 6645 04c1 09       		.byte	0x9
 6646 04c2 6002     		.2byte	0x260
 6647 04c4 EC050000 		.4byte	0x5ec
 6648 04c8 18       		.uleb128 0x18
 6649 04c9 90000000 		.4byte	.LASF79
 6650 04cd 09       		.byte	0x9
 6651 04ce 6202     		.2byte	0x262
 6652 04d0 81000000 		.4byte	0x81
 6653 04d4 00       		.byte	0
 6654 04d5 18       		.uleb128 0x18
 6655 04d6 9E040000 		.4byte	.LASF80
 6656 04da 09       		.byte	0x9
 6657 04db 6702     		.2byte	0x267
 6658 04dd C1060000 		.4byte	0x6c1
 6659 04e1 04       		.byte	0x4
 6660 04e2 18       		.uleb128 0x18
 6661 04e3 E2000000 		.4byte	.LASF81
 6662 04e7 09       		.byte	0x9
 6663 04e8 6702     		.2byte	0x267
 6664 04ea C1060000 		.4byte	0x6c1
 6665 04ee 08       		.byte	0x8
 6666 04ef 18       		.uleb128 0x18
 6667 04f0 62090000 		.4byte	.LASF82
 6668 04f4 09       		.byte	0x9
 6669 04f5 6702     		.2byte	0x267
ARM GAS  /tmp/ccMboyVS.s 			page 118


 6670 04f7 C1060000 		.4byte	0x6c1
 6671 04fb 0C       		.byte	0xc
 6672 04fc 18       		.uleb128 0x18
 6673 04fd 97030000 		.4byte	.LASF83
 6674 0501 09       		.byte	0x9
 6675 0502 6902     		.2byte	0x269
 6676 0504 81000000 		.4byte	0x81
 6677 0508 10       		.byte	0x10
 6678 0509 18       		.uleb128 0x18
 6679 050a 41030000 		.4byte	.LASF84
 6680 050e 09       		.byte	0x9
 6681 050f 6A02     		.2byte	0x26a
 6682 0511 A3080000 		.4byte	0x8a3
 6683 0515 14       		.byte	0x14
 6684 0516 18       		.uleb128 0x18
 6685 0517 11090000 		.4byte	.LASF85
 6686 051b 09       		.byte	0x9
 6687 051c 6D02     		.2byte	0x26d
 6688 051e 81000000 		.4byte	0x81
 6689 0522 30       		.byte	0x30
 6690 0523 18       		.uleb128 0x18
 6691 0524 6F080000 		.4byte	.LASF86
 6692 0528 09       		.byte	0x9
 6693 0529 6E02     		.2byte	0x26e
 6694 052b 9E000000 		.4byte	0x9e
 6695 052f 34       		.byte	0x34
 6696 0530 18       		.uleb128 0x18
 6697 0531 7E040000 		.4byte	.LASF87
 6698 0535 09       		.byte	0x9
 6699 0536 7002     		.2byte	0x270
 6700 0538 81000000 		.4byte	0x81
 6701 053c 38       		.byte	0x38
 6702 053d 18       		.uleb128 0x18
 6703 053e 2F050000 		.4byte	.LASF88
 6704 0542 09       		.byte	0x9
 6705 0543 7202     		.2byte	0x272
 6706 0545 BE080000 		.4byte	0x8be
 6707 0549 3C       		.byte	0x3c
 6708 054a 18       		.uleb128 0x18
 6709 054b 11010000 		.4byte	.LASF89
 6710 054f 09       		.byte	0x9
 6711 0550 7502     		.2byte	0x275
 6712 0552 02020000 		.4byte	0x202
 6713 0556 40       		.byte	0x40
 6714 0557 18       		.uleb128 0x18
 6715 0558 C2020000 		.4byte	.LASF90
 6716 055c 09       		.byte	0x9
 6717 055d 7602     		.2byte	0x276
 6718 055f 81000000 		.4byte	0x81
 6719 0563 44       		.byte	0x44
 6720 0564 18       		.uleb128 0x18
 6721 0565 DC030000 		.4byte	.LASF91
 6722 0569 09       		.byte	0x9
 6723 056a 7702     		.2byte	0x277
 6724 056c 02020000 		.4byte	0x202
 6725 0570 48       		.byte	0x48
 6726 0571 18       		.uleb128 0x18
ARM GAS  /tmp/ccMboyVS.s 			page 119


 6727 0572 D3040000 		.4byte	.LASF92
 6728 0576 09       		.byte	0x9
 6729 0577 7802     		.2byte	0x278
 6730 0579 C4080000 		.4byte	0x8c4
 6731 057d 4C       		.byte	0x4c
 6732 057e 18       		.uleb128 0x18
 6733 057f D1060000 		.4byte	.LASF93
 6734 0583 09       		.byte	0x9
 6735 0584 7B02     		.2byte	0x27b
 6736 0586 81000000 		.4byte	0x81
 6737 058a 50       		.byte	0x50
 6738 058b 18       		.uleb128 0x18
 6739 058c A6070000 		.4byte	.LASF94
 6740 0590 09       		.byte	0x9
 6741 0591 7C02     		.2byte	0x27c
 6742 0593 9E010000 		.4byte	0x19e
 6743 0597 54       		.byte	0x54
 6744 0598 18       		.uleb128 0x18
 6745 0599 CC060000 		.4byte	.LASF95
 6746 059d 09       		.byte	0x9
 6747 059e 9F02     		.2byte	0x29f
 6748 05a0 81080000 		.4byte	0x881
 6749 05a4 58       		.byte	0x58
 6750 05a5 19       		.uleb128 0x19
 6751 05a6 0E060000 		.4byte	.LASF55
 6752 05aa 09       		.byte	0x9
 6753 05ab A302     		.2byte	0x2a3
 6754 05ad 1F030000 		.4byte	0x31f
 6755 05b1 4801     		.2byte	0x148
 6756 05b3 19       		.uleb128 0x19
 6757 05b4 3E040000 		.4byte	.LASF96
 6758 05b8 09       		.byte	0x9
 6759 05b9 A402     		.2byte	0x2a4
 6760 05bb E1020000 		.4byte	0x2e1
 6761 05bf 4C01     		.2byte	0x14c
 6762 05c1 19       		.uleb128 0x19
 6763 05c2 25040000 		.4byte	.LASF97
 6764 05c6 09       		.byte	0x9
 6765 05c7 A802     		.2byte	0x2a8
 6766 05c9 D5080000 		.4byte	0x8d5
 6767 05cd DC02     		.2byte	0x2dc
 6768 05cf 19       		.uleb128 0x19
 6769 05d0 35080000 		.4byte	.LASF98
 6770 05d4 09       		.byte	0x9
 6771 05d5 AD02     		.2byte	0x2ad
 6772 05d7 86060000 		.4byte	0x686
 6773 05db E002     		.2byte	0x2e0
 6774 05dd 19       		.uleb128 0x19
 6775 05de 4A060000 		.4byte	.LASF99
 6776 05e2 09       		.byte	0x9
 6777 05e3 AF02     		.2byte	0x2af
 6778 05e5 E1080000 		.4byte	0x8e1
 6779 05e9 EC02     		.2byte	0x2ec
 6780 05eb 00       		.byte	0
 6781 05ec 05       		.uleb128 0x5
 6782 05ed 04       		.byte	0x4
 6783 05ee 91040000 		.4byte	0x491
ARM GAS  /tmp/ccMboyVS.s 			page 120


 6784 05f2 15       		.uleb128 0x15
 6785 05f3 81000000 		.4byte	0x81
 6786 05f7 10060000 		.4byte	0x610
 6787 05fb 16       		.uleb128 0x16
 6788 05fc AF040000 		.4byte	0x4af
 6789 0600 16       		.uleb128 0x16
 6790 0601 E0000000 		.4byte	0xe0
 6791 0605 16       		.uleb128 0x16
 6792 0606 10060000 		.4byte	0x610
 6793 060a 16       		.uleb128 0x16
 6794 060b 81000000 		.4byte	0x81
 6795 060f 00       		.byte	0
 6796 0610 05       		.uleb128 0x5
 6797 0611 04       		.byte	0x4
 6798 0612 F0000000 		.4byte	0xf0
 6799 0616 05       		.uleb128 0x5
 6800 0617 04       		.byte	0x4
 6801 0618 F2050000 		.4byte	0x5f2
 6802 061c 15       		.uleb128 0x15
 6803 061d 21010000 		.4byte	0x121
 6804 0621 3A060000 		.4byte	0x63a
 6805 0625 16       		.uleb128 0x16
 6806 0626 AF040000 		.4byte	0x4af
 6807 062a 16       		.uleb128 0x16
 6808 062b E0000000 		.4byte	0xe0
 6809 062f 16       		.uleb128 0x16
 6810 0630 21010000 		.4byte	0x121
 6811 0634 16       		.uleb128 0x16
 6812 0635 81000000 		.4byte	0x81
 6813 0639 00       		.byte	0
 6814 063a 05       		.uleb128 0x5
 6815 063b 04       		.byte	0x4
 6816 063c 1C060000 		.4byte	0x61c
 6817 0640 15       		.uleb128 0x15
 6818 0641 81000000 		.4byte	0x81
 6819 0645 54060000 		.4byte	0x654
 6820 0649 16       		.uleb128 0x16
 6821 064a AF040000 		.4byte	0x4af
 6822 064e 16       		.uleb128 0x16
 6823 064f E0000000 		.4byte	0xe0
 6824 0653 00       		.byte	0
 6825 0654 05       		.uleb128 0x5
 6826 0655 04       		.byte	0x4
 6827 0656 40060000 		.4byte	0x640
 6828 065a 0C       		.uleb128 0xc
 6829 065b 3A000000 		.4byte	0x3a
 6830 065f 6A060000 		.4byte	0x66a
 6831 0663 0D       		.uleb128 0xd
 6832 0664 2C000000 		.4byte	0x2c
 6833 0668 02       		.byte	0x2
 6834 0669 00       		.byte	0
 6835 066a 0C       		.uleb128 0xc
 6836 066b 3A000000 		.4byte	0x3a
 6837 066f 7A060000 		.4byte	0x67a
 6838 0673 0D       		.uleb128 0xd
 6839 0674 2C000000 		.4byte	0x2c
 6840 0678 00       		.byte	0
ARM GAS  /tmp/ccMboyVS.s 			page 121


 6841 0679 00       		.byte	0
 6842 067a 09       		.uleb128 0x9
 6843 067b FD020000 		.4byte	.LASF100
 6844 067f 09       		.byte	0x9
 6845 0680 1F01     		.2byte	0x11f
 6846 0682 67030000 		.4byte	0x367
 6847 0686 1A       		.uleb128 0x1a
 6848 0687 14080000 		.4byte	.LASF101
 6849 068b 0C       		.byte	0xc
 6850 068c 09       		.byte	0x9
 6851 068d 2301     		.2byte	0x123
 6852 068f BB060000 		.4byte	0x6bb
 6853 0693 18       		.uleb128 0x18
 6854 0694 AE030000 		.4byte	.LASF35
 6855 0698 09       		.byte	0x9
 6856 0699 2501     		.2byte	0x125
 6857 069b BB060000 		.4byte	0x6bb
 6858 069f 00       		.byte	0
 6859 06a0 18       		.uleb128 0x18
 6860 06a1 58070000 		.4byte	.LASF102
 6861 06a5 09       		.byte	0x9
 6862 06a6 2601     		.2byte	0x126
 6863 06a8 81000000 		.4byte	0x81
 6864 06ac 04       		.byte	0x4
 6865 06ad 18       		.uleb128 0x18
 6866 06ae 56040000 		.4byte	.LASF103
 6867 06b2 09       		.byte	0x9
 6868 06b3 2701     		.2byte	0x127
 6869 06b5 C1060000 		.4byte	0x6c1
 6870 06b9 08       		.byte	0x8
 6871 06ba 00       		.byte	0
 6872 06bb 05       		.uleb128 0x5
 6873 06bc 04       		.byte	0x4
 6874 06bd 86060000 		.4byte	0x686
 6875 06c1 05       		.uleb128 0x5
 6876 06c2 04       		.byte	0x4
 6877 06c3 7A060000 		.4byte	0x67a
 6878 06c7 1A       		.uleb128 0x1a
 6879 06c8 9B020000 		.4byte	.LASF104
 6880 06cc 0E       		.byte	0xe
 6881 06cd 09       		.byte	0x9
 6882 06ce 3F01     		.2byte	0x13f
 6883 06d0 FC060000 		.4byte	0x6fc
 6884 06d4 18       		.uleb128 0x18
 6885 06d5 3A090000 		.4byte	.LASF105
 6886 06d9 09       		.byte	0x9
 6887 06da 4001     		.2byte	0x140
 6888 06dc FC060000 		.4byte	0x6fc
 6889 06e0 00       		.byte	0
 6890 06e1 18       		.uleb128 0x18
 6891 06e2 DD040000 		.4byte	.LASF106
 6892 06e6 09       		.byte	0x9
 6893 06e7 4101     		.2byte	0x141
 6894 06e9 FC060000 		.4byte	0x6fc
 6895 06ed 06       		.byte	0x6
 6896 06ee 18       		.uleb128 0x18
 6897 06ef EC070000 		.4byte	.LASF107
ARM GAS  /tmp/ccMboyVS.s 			page 122


 6898 06f3 09       		.byte	0x9
 6899 06f4 4201     		.2byte	0x142
 6900 06f6 48000000 		.4byte	0x48
 6901 06fa 0C       		.byte	0xc
 6902 06fb 00       		.byte	0
 6903 06fc 0C       		.uleb128 0xc
 6904 06fd 48000000 		.4byte	0x48
 6905 0701 0C070000 		.4byte	0x70c
 6906 0705 0D       		.uleb128 0xd
 6907 0706 2C000000 		.4byte	0x2c
 6908 070a 02       		.byte	0x2
 6909 070b 00       		.byte	0
 6910 070c 1B       		.uleb128 0x1b
 6911 070d D0       		.byte	0xd0
 6912 070e 09       		.byte	0x9
 6913 070f 8002     		.2byte	0x280
 6914 0711 0D080000 		.4byte	0x80d
 6915 0715 18       		.uleb128 0x18
 6916 0716 04090000 		.4byte	.LASF108
 6917 071a 09       		.byte	0x9
 6918 071b 8202     		.2byte	0x282
 6919 071d 2C000000 		.4byte	0x2c
 6920 0721 00       		.byte	0
 6921 0722 18       		.uleb128 0x18
 6922 0723 3D080000 		.4byte	.LASF109
 6923 0727 09       		.byte	0x9
 6924 0728 8302     		.2byte	0x283
 6925 072a 9E010000 		.4byte	0x19e
 6926 072e 04       		.byte	0x4
 6927 072f 18       		.uleb128 0x18
 6928 0730 E3020000 		.4byte	.LASF110
 6929 0734 09       		.byte	0x9
 6930 0735 8402     		.2byte	0x284
 6931 0737 0D080000 		.4byte	0x80d
 6932 073b 08       		.byte	0x8
 6933 073c 18       		.uleb128 0x18
 6934 073d AB060000 		.4byte	.LASF111
 6935 0741 09       		.byte	0x9
 6936 0742 8502     		.2byte	0x285
 6937 0744 18020000 		.4byte	0x218
 6938 0748 24       		.byte	0x24
 6939 0749 18       		.uleb128 0x18
 6940 074a A5040000 		.4byte	.LASF112
 6941 074e 09       		.byte	0x9
 6942 074f 8602     		.2byte	0x286
 6943 0751 81000000 		.4byte	0x81
 6944 0755 48       		.byte	0x48
 6945 0756 18       		.uleb128 0x18
 6946 0757 46090000 		.4byte	.LASF113
 6947 075b 09       		.byte	0x9
 6948 075c 8702     		.2byte	0x287
 6949 075e 7A000000 		.4byte	0x7a
 6950 0762 50       		.byte	0x50
 6951 0763 18       		.uleb128 0x18
 6952 0764 52000000 		.4byte	.LASF114
 6953 0768 09       		.byte	0x9
 6954 0769 8802     		.2byte	0x288
ARM GAS  /tmp/ccMboyVS.s 			page 123


 6955 076b C7060000 		.4byte	0x6c7
 6956 076f 58       		.byte	0x58
 6957 0770 18       		.uleb128 0x18
 6958 0771 FC030000 		.4byte	.LASF115
 6959 0775 09       		.byte	0x9
 6960 0776 8902     		.2byte	0x289
 6961 0778 88010000 		.4byte	0x188
 6962 077c 68       		.byte	0x68
 6963 077d 18       		.uleb128 0x18
 6964 077e 4A080000 		.4byte	.LASF116
 6965 0782 09       		.byte	0x9
 6966 0783 8A02     		.2byte	0x28a
 6967 0785 88010000 		.4byte	0x188
 6968 0789 70       		.byte	0x70
 6969 078a 18       		.uleb128 0x18
 6970 078b 2C000000 		.4byte	.LASF117
 6971 078f 09       		.byte	0x9
 6972 0790 8B02     		.2byte	0x28b
 6973 0792 88010000 		.4byte	0x188
 6974 0796 78       		.byte	0x78
 6975 0797 18       		.uleb128 0x18
 6976 0798 E1060000 		.4byte	.LASF118
 6977 079c 09       		.byte	0x9
 6978 079d 8C02     		.2byte	0x28c
 6979 079f 1D080000 		.4byte	0x81d
 6980 07a3 80       		.byte	0x80
 6981 07a4 18       		.uleb128 0x18
 6982 07a5 57000000 		.4byte	.LASF119
 6983 07a9 09       		.byte	0x9
 6984 07aa 8D02     		.2byte	0x28d
 6985 07ac 2D080000 		.4byte	0x82d
 6986 07b0 88       		.byte	0x88
 6987 07b1 18       		.uleb128 0x18
 6988 07b2 DF070000 		.4byte	.LASF120
 6989 07b6 09       		.byte	0x9
 6990 07b7 8E02     		.2byte	0x28e
 6991 07b9 81000000 		.4byte	0x81
 6992 07bd A0       		.byte	0xa0
 6993 07be 18       		.uleb128 0x18
 6994 07bf B9000000 		.4byte	.LASF121
 6995 07c3 09       		.byte	0x9
 6996 07c4 8F02     		.2byte	0x28f
 6997 07c6 88010000 		.4byte	0x188
 6998 07ca A4       		.byte	0xa4
 6999 07cb 18       		.uleb128 0x18
 7000 07cc 2F040000 		.4byte	.LASF122
 7001 07d0 09       		.byte	0x9
 7002 07d1 9002     		.2byte	0x290
 7003 07d3 88010000 		.4byte	0x188
 7004 07d7 AC       		.byte	0xac
 7005 07d8 18       		.uleb128 0x18
 7006 07d9 B4030000 		.4byte	.LASF123
 7007 07dd 09       		.byte	0x9
 7008 07de 9102     		.2byte	0x291
 7009 07e0 88010000 		.4byte	0x188
 7010 07e4 B4       		.byte	0xb4
 7011 07e5 18       		.uleb128 0x18
ARM GAS  /tmp/ccMboyVS.s 			page 124


 7012 07e6 0A050000 		.4byte	.LASF124
 7013 07ea 09       		.byte	0x9
 7014 07eb 9202     		.2byte	0x292
 7015 07ed 88010000 		.4byte	0x188
 7016 07f1 BC       		.byte	0xbc
 7017 07f2 18       		.uleb128 0x18
 7018 07f3 EB030000 		.4byte	.LASF125
 7019 07f7 09       		.byte	0x9
 7020 07f8 9302     		.2byte	0x293
 7021 07fa 88010000 		.4byte	0x188
 7022 07fe C4       		.byte	0xc4
 7023 07ff 18       		.uleb128 0x18
 7024 0800 04030000 		.4byte	.LASF126
 7025 0804 09       		.byte	0x9
 7026 0805 9402     		.2byte	0x294
 7027 0807 81000000 		.4byte	0x81
 7028 080b CC       		.byte	0xcc
 7029 080c 00       		.byte	0
 7030 080d 0C       		.uleb128 0xc
 7031 080e E9000000 		.4byte	0xe9
 7032 0812 1D080000 		.4byte	0x81d
 7033 0816 0D       		.uleb128 0xd
 7034 0817 2C000000 		.4byte	0x2c
 7035 081b 19       		.byte	0x19
 7036 081c 00       		.byte	0
 7037 081d 0C       		.uleb128 0xc
 7038 081e E9000000 		.4byte	0xe9
 7039 0822 2D080000 		.4byte	0x82d
 7040 0826 0D       		.uleb128 0xd
 7041 0827 2C000000 		.4byte	0x2c
 7042 082b 07       		.byte	0x7
 7043 082c 00       		.byte	0
 7044 082d 0C       		.uleb128 0xc
 7045 082e E9000000 		.4byte	0xe9
 7046 0832 3D080000 		.4byte	0x83d
 7047 0836 0D       		.uleb128 0xd
 7048 0837 2C000000 		.4byte	0x2c
 7049 083b 17       		.byte	0x17
 7050 083c 00       		.byte	0
 7051 083d 1B       		.uleb128 0x1b
 7052 083e F0       		.byte	0xf0
 7053 083f 09       		.byte	0x9
 7054 0840 9902     		.2byte	0x299
 7055 0842 61080000 		.4byte	0x861
 7056 0846 18       		.uleb128 0x18
 7057 0847 6B010000 		.4byte	.LASF127
 7058 084b 09       		.byte	0x9
 7059 084c 9C02     		.2byte	0x29c
 7060 084e 61080000 		.4byte	0x861
 7061 0852 00       		.byte	0
 7062 0853 18       		.uleb128 0x18
 7063 0854 6A090000 		.4byte	.LASF128
 7064 0858 09       		.byte	0x9
 7065 0859 9D02     		.2byte	0x29d
 7066 085b 71080000 		.4byte	0x871
 7067 085f 78       		.byte	0x78
 7068 0860 00       		.byte	0
ARM GAS  /tmp/ccMboyVS.s 			page 125


 7069 0861 0C       		.uleb128 0xc
 7070 0862 61030000 		.4byte	0x361
 7071 0866 71080000 		.4byte	0x871
 7072 086a 0D       		.uleb128 0xd
 7073 086b 2C000000 		.4byte	0x2c
 7074 086f 1D       		.byte	0x1d
 7075 0870 00       		.byte	0
 7076 0871 0C       		.uleb128 0xc
 7077 0872 2C000000 		.4byte	0x2c
 7078 0876 81080000 		.4byte	0x881
 7079 087a 0D       		.uleb128 0xd
 7080 087b 2C000000 		.4byte	0x2c
 7081 087f 1D       		.byte	0x1d
 7082 0880 00       		.byte	0
 7083 0881 1C       		.uleb128 0x1c
 7084 0882 F0       		.byte	0xf0
 7085 0883 09       		.byte	0x9
 7086 0884 7E02     		.2byte	0x27e
 7087 0886 A3080000 		.4byte	0x8a3
 7088 088a 1D       		.uleb128 0x1d
 7089 088b 95080000 		.4byte	.LASF78
 7090 088f 09       		.byte	0x9
 7091 0890 9502     		.2byte	0x295
 7092 0892 0C070000 		.4byte	0x70c
 7093 0896 1D       		.uleb128 0x1d
 7094 0897 C4060000 		.4byte	.LASF129
 7095 089b 09       		.byte	0x9
 7096 089c 9E02     		.2byte	0x29e
 7097 089e 3D080000 		.4byte	0x83d
 7098 08a2 00       		.byte	0
 7099 08a3 0C       		.uleb128 0xc
 7100 08a4 E9000000 		.4byte	0xe9
 7101 08a8 B3080000 		.4byte	0x8b3
 7102 08ac 0D       		.uleb128 0xd
 7103 08ad 2C000000 		.4byte	0x2c
 7104 08b1 18       		.byte	0x18
 7105 08b2 00       		.byte	0
 7106 08b3 1E       		.uleb128 0x1e
 7107 08b4 BE080000 		.4byte	0x8be
 7108 08b8 16       		.uleb128 0x16
 7109 08b9 AF040000 		.4byte	0x4af
 7110 08bd 00       		.byte	0
 7111 08be 05       		.uleb128 0x5
 7112 08bf 04       		.byte	0x4
 7113 08c0 B3080000 		.4byte	0x8b3
 7114 08c4 05       		.uleb128 0x5
 7115 08c5 04       		.byte	0x4
 7116 08c6 02020000 		.4byte	0x202
 7117 08ca 1E       		.uleb128 0x1e
 7118 08cb D5080000 		.4byte	0x8d5
 7119 08cf 16       		.uleb128 0x16
 7120 08d0 81000000 		.4byte	0x81
 7121 08d4 00       		.byte	0
 7122 08d5 05       		.uleb128 0x5
 7123 08d6 04       		.byte	0x4
 7124 08d7 DB080000 		.4byte	0x8db
 7125 08db 05       		.uleb128 0x5
ARM GAS  /tmp/ccMboyVS.s 			page 126


 7126 08dc 04       		.byte	0x4
 7127 08dd CA080000 		.4byte	0x8ca
 7128 08e1 0C       		.uleb128 0xc
 7129 08e2 7A060000 		.4byte	0x67a
 7130 08e6 F1080000 		.4byte	0x8f1
 7131 08ea 0D       		.uleb128 0xd
 7132 08eb 2C000000 		.4byte	0x2c
 7133 08ef 02       		.byte	0x2
 7134 08f0 00       		.byte	0
 7135 08f1 1F       		.uleb128 0x1f
 7136 08f2 5F010000 		.4byte	.LASF130
 7137 08f6 09       		.byte	0x9
 7138 08f7 2E03     		.2byte	0x32e
 7139 08f9 AF040000 		.4byte	0x4af
 7140 08fd 1F       		.uleb128 0x1f
 7141 08fe 76060000 		.4byte	.LASF131
 7142 0902 09       		.byte	0x9
 7143 0903 2F03     		.2byte	0x32f
 7144 0905 B5040000 		.4byte	0x4b5
 7145 0909 20       		.uleb128 0x20
 7146 090a 83030000 		.4byte	.LASF132
 7147 090e 0A       		.byte	0xa
 7148 090f 63       		.byte	0x63
 7149 0910 9E010000 		.4byte	0x19e
 7150 0914 05       		.uleb128 0x5
 7151 0915 04       		.byte	0x4
 7152 0916 BF000000 		.4byte	0xbf
 7153 091a 0E       		.uleb128 0xe
 7154 091b 0C       		.byte	0xc
 7155 091c 02       		.byte	0x2
 7156 091d FB       		.byte	0xfb
 7157 091e 47090000 		.4byte	0x947
 7158 0922 0F       		.uleb128 0xf
 7159 0923 6E070000 		.4byte	.LASF133
 7160 0927 02       		.byte	0x2
 7161 0928 FC       		.byte	0xfc
 7162 0929 B4000000 		.4byte	0xb4
 7163 092d 00       		.byte	0
 7164 092e 0F       		.uleb128 0xf
 7165 092f 7F050000 		.4byte	.LASF134
 7166 0933 02       		.byte	0x2
 7167 0934 FD       		.byte	0xfd
 7168 0935 93000000 		.4byte	0x93
 7169 0939 04       		.byte	0x4
 7170 093a 0F       		.uleb128 0xf
 7171 093b B1050000 		.4byte	.LASF135
 7172 093f 02       		.byte	0x2
 7173 0940 FE       		.byte	0xfe
 7174 0941 47090000 		.4byte	0x947
 7175 0945 08       		.byte	0x8
 7176 0946 00       		.byte	0
 7177 0947 05       		.uleb128 0x5
 7178 0948 04       		.byte	0x4
 7179 0949 93000000 		.4byte	0x93
 7180 094d 03       		.uleb128 0x3
 7181 094e A0000000 		.4byte	.LASF136
 7182 0952 02       		.byte	0x2
ARM GAS  /tmp/ccMboyVS.s 			page 127


 7183 0953 FF       		.byte	0xff
 7184 0954 1A090000 		.4byte	0x91a
 7185 0958 02       		.uleb128 0x2
 7186 0959 08       		.byte	0x8
 7187 095a 04       		.byte	0x4
 7188 095b F0080000 		.4byte	.LASF137
 7189 095f 21       		.uleb128 0x21
 7190 0960 24080000 		.4byte	.LASF214
 7191 0964 05       		.byte	0x5
 7192 0965 01       		.byte	0x1
 7193 0966 33000000 		.4byte	0x33
 7194 096a 0B       		.byte	0xb
 7195 096b 8202     		.2byte	0x282
 7196 096d 8A090000 		.4byte	0x98a
 7197 0971 22       		.uleb128 0x22
 7198 0972 9D060000 		.4byte	.LASF138
 7199 0976 7F       		.sleb128 -1
 7200 0977 23       		.uleb128 0x23
 7201 0978 EB040000 		.4byte	.LASF139
 7202 097c 00       		.byte	0
 7203 097d 23       		.uleb128 0x23
 7204 097e 00000000 		.4byte	.LASF140
 7205 0982 01       		.byte	0x1
 7206 0983 23       		.uleb128 0x23
 7207 0984 0D030000 		.4byte	.LASF141
 7208 0988 02       		.byte	0x2
 7209 0989 00       		.byte	0
 7210 098a 1F       		.uleb128 0x1f
 7211 098b 39050000 		.4byte	.LASF142
 7212 098f 0B       		.byte	0xb
 7213 0990 8D02     		.2byte	0x28d
 7214 0992 5F090000 		.4byte	0x95f
 7215 0996 24       		.uleb128 0x24
 7216 0997 C7070000 		.4byte	.LASF150
 7217 099b 01       		.byte	0x1
 7218 099c C001     		.2byte	0x1c0
 7219 099e A9000000 		.4byte	0xa9
 7220 09a2 00000000 		.4byte	.LFB60
 7221 09a6 EA150000 		.4byte	.LFE60-.LFB60
 7222 09aa 01       		.uleb128 0x1
 7223 09ab 9C       		.byte	0x9c
 7224 09ac 532F0000 		.4byte	0x2f53
 7225 09b0 25       		.uleb128 0x25
 7226 09b1 C5050000 		.4byte	.LASF143
 7227 09b5 01       		.byte	0x1
 7228 09b6 C001     		.2byte	0x1c0
 7229 09b8 532F0000 		.4byte	0x2f53
 7230 09bc 00000000 		.4byte	.LLST53
 7231 09c0 25       		.uleb128 0x25
 7232 09c1 22060000 		.4byte	.LASF144
 7233 09c5 01       		.byte	0x1
 7234 09c6 C001     		.2byte	0x1c0
 7235 09c8 BF000000 		.4byte	0xbf
 7236 09cc D7030000 		.4byte	.LLST54
 7237 09d0 26       		.uleb128 0x26
 7238 09d1 6F7000   		.ascii	"op\000"
 7239 09d4 01       		.byte	0x1
ARM GAS  /tmp/ccMboyVS.s 			page 128


 7240 09d5 C001     		.2byte	0x1c0
 7241 09d7 A9000000 		.4byte	0xa9
 7242 09db 18080000 		.4byte	.LLST55
 7243 09df 27       		.uleb128 0x27
 7244 09e0 A3020000 		.4byte	.LASF145
 7245 09e4 01       		.byte	0x1
 7246 09e5 C201     		.2byte	0x1c2
 7247 09e7 BF000000 		.4byte	0xbf
 7248 09eb 39080000 		.4byte	.LLST56
 7249 09ef 27       		.uleb128 0x27
 7250 09f0 90040000 		.4byte	.LASF146
 7251 09f4 01       		.byte	0x1
 7252 09f5 C301     		.2byte	0x1c3
 7253 09f7 81000000 		.4byte	0x81
 7254 09fb 4D090000 		.4byte	.LLST57
 7255 09ff 28       		.uleb128 0x28
 7256 0a00 10010000 		.4byte	.Ldebug_ranges0+0x110
 7257 0a04 3C2F0000 		.4byte	0x2f3c
 7258 0a08 29       		.uleb128 0x29
 7259 0a09 76616C00 		.ascii	"val\000"
 7260 0a0d 01       		.byte	0x1
 7261 0a0e 3603     		.2byte	0x336
 7262 0a10 A9000000 		.4byte	0xa9
 7263 0a14 0C0A0000 		.4byte	.LLST58
 7264 0a18 2A       		.uleb128 0x2a
 7265 0a19 CC130000 		.4byte	.LBB1894
 7266 0a1d 54000000 		.4byte	.LBE1894-.LBB1894
 7267 0a21 150B0000 		.4byte	0xb15
 7268 0a25 29       		.uleb128 0x29
 7269 0a26 7600     		.ascii	"v\000"
 7270 0a28 01       		.byte	0x1
 7271 0a29 D401     		.2byte	0x1d4
 7272 0a2b BF000000 		.4byte	0xbf
 7273 0a2f 4F0A0000 		.4byte	.LLST300
 7274 0a33 2B       		.uleb128 0x2b
 7275 0a34 D5380000 		.4byte	0x38d5
 7276 0a38 D2130000 		.4byte	.LBB1895
 7277 0a3c 06000000 		.4byte	.LBE1895-.LBB1895
 7278 0a40 01       		.byte	0x1
 7279 0a41 D501     		.2byte	0x1d5
 7280 0a43 4D0A0000 		.4byte	0xa4d
 7281 0a47 2C       		.uleb128 0x2c
 7282 0a48 E6380000 		.4byte	0x38e6
 7283 0a4c 00       		.byte	0
 7284 0a4d 2B       		.uleb128 0x2b
 7285 0a4e D5380000 		.4byte	0x38d5
 7286 0a52 E4130000 		.4byte	.LBB1897
 7287 0a56 06000000 		.4byte	.LBE1897-.LBB1897
 7288 0a5a 01       		.byte	0x1
 7289 0a5b D601     		.2byte	0x1d6
 7290 0a5d 670A0000 		.4byte	0xa67
 7291 0a61 2C       		.uleb128 0x2c
 7292 0a62 E6380000 		.4byte	0x38e6
 7293 0a66 00       		.byte	0
 7294 0a67 2B       		.uleb128 0x2b
 7295 0a68 D5380000 		.4byte	0x38d5
 7296 0a6c F8130000 		.4byte	.LBB1899
ARM GAS  /tmp/ccMboyVS.s 			page 129


 7297 0a70 06000000 		.4byte	.LBE1899-.LBB1899
 7298 0a74 01       		.byte	0x1
 7299 0a75 D701     		.2byte	0x1d7
 7300 0a77 810A0000 		.4byte	0xa81
 7301 0a7b 2C       		.uleb128 0x2c
 7302 0a7c E6380000 		.4byte	0x38e6
 7303 0a80 00       		.byte	0
 7304 0a81 2B       		.uleb128 0x2b
 7305 0a82 D5380000 		.4byte	0x38d5
 7306 0a86 0C140000 		.4byte	.LBB1901
 7307 0a8a 06000000 		.4byte	.LBE1901-.LBB1901
 7308 0a8e 01       		.byte	0x1
 7309 0a8f D801     		.2byte	0x1d8
 7310 0a91 9B0A0000 		.4byte	0xa9b
 7311 0a95 2C       		.uleb128 0x2c
 7312 0a96 E6380000 		.4byte	0x38e6
 7313 0a9a 00       		.byte	0
 7314 0a9b 2D       		.uleb128 0x2d
 7315 0a9c D0130000 		.4byte	.LVL688
 7316 0aa0 E63C0000 		.4byte	0x3ce6
 7317 0aa4 2E       		.uleb128 0x2e
 7318 0aa5 E2130000 		.4byte	.LVL691
 7319 0aa9 F23C0000 		.4byte	0x3cf2
 7320 0aad C50A0000 		.4byte	0xac5
 7321 0ab1 2F       		.uleb128 0x2f
 7322 0ab2 01       		.uleb128 0x1
 7323 0ab3 50       		.byte	0x50
 7324 0ab4 0A       		.uleb128 0xa
 7325 0ab5 74       		.byte	0x74
 7326 0ab6 00       		.sleb128 0
 7327 0ab7 34       		.byte	0x34
 7328 0ab8 24       		.byte	0x24
 7329 0ab9 0A       		.byte	0xa
 7330 0aba F00F     		.2byte	0xff0
 7331 0abc 1A       		.byte	0x1a
 7332 0abd 38       		.byte	0x38
 7333 0abe 21       		.byte	0x21
 7334 0abf 2F       		.uleb128 0x2f
 7335 0ac0 01       		.uleb128 0x1
 7336 0ac1 51       		.byte	0x51
 7337 0ac2 01       		.uleb128 0x1
 7338 0ac3 30       		.byte	0x30
 7339 0ac4 00       		.byte	0
 7340 0ac5 2E       		.uleb128 0x2e
 7341 0ac6 F6130000 		.4byte	.LVL692
 7342 0aca F23C0000 		.4byte	0x3cf2
 7343 0ace E10A0000 		.4byte	0xae1
 7344 0ad2 2F       		.uleb128 0x2f
 7345 0ad3 01       		.uleb128 0x1
 7346 0ad4 50       		.byte	0x50
 7347 0ad5 0A       		.uleb128 0xa
 7348 0ad6 74       		.byte	0x74
 7349 0ad7 00       		.sleb128 0
 7350 0ad8 34       		.byte	0x34
 7351 0ad9 25       		.byte	0x25
 7352 0ada 0A       		.byte	0xa
 7353 0adb F00F     		.2byte	0xff0
ARM GAS  /tmp/ccMboyVS.s 			page 130


 7354 0add 1A       		.byte	0x1a
 7355 0ade 38       		.byte	0x38
 7356 0adf 21       		.byte	0x21
 7357 0ae0 00       		.byte	0
 7358 0ae1 2E       		.uleb128 0x2e
 7359 0ae2 0A140000 		.4byte	.LVL693
 7360 0ae6 F23C0000 		.4byte	0x3cf2
 7361 0aea FD0A0000 		.4byte	0xafd
 7362 0aee 2F       		.uleb128 0x2f
 7363 0aef 01       		.uleb128 0x1
 7364 0af0 50       		.byte	0x50
 7365 0af1 0A       		.uleb128 0xa
 7366 0af2 74       		.byte	0x74
 7367 0af3 00       		.sleb128 0
 7368 0af4 3C       		.byte	0x3c
 7369 0af5 25       		.byte	0x25
 7370 0af6 0A       		.byte	0xa
 7371 0af7 F00F     		.2byte	0xff0
 7372 0af9 1A       		.byte	0x1a
 7373 0afa 38       		.byte	0x38
 7374 0afb 21       		.byte	0x21
 7375 0afc 00       		.byte	0
 7376 0afd 30       		.uleb128 0x30
 7377 0afe 1E140000 		.4byte	.LVL694
 7378 0b02 F23C0000 		.4byte	0x3cf2
 7379 0b06 2F       		.uleb128 0x2f
 7380 0b07 01       		.uleb128 0x1
 7381 0b08 50       		.byte	0x50
 7382 0b09 09       		.uleb128 0x9
 7383 0b0a 74       		.byte	0x74
 7384 0b0b 00       		.sleb128 0
 7385 0b0c 44       		.byte	0x44
 7386 0b0d 25       		.byte	0x25
 7387 0b0e 08       		.byte	0x8
 7388 0b0f F0       		.byte	0xf0
 7389 0b10 1A       		.byte	0x1a
 7390 0b11 38       		.byte	0x38
 7391 0b12 21       		.byte	0x21
 7392 0b13 00       		.byte	0
 7393 0b14 00       		.byte	0
 7394 0b15 2A       		.uleb128 0x2a
 7395 0b16 24140000 		.4byte	.LBB1903
 7396 0b1a 52000000 		.4byte	.LBE1903-.LBB1903
 7397 0b1e 530C0000 		.4byte	0xc53
 7398 0b22 29       		.uleb128 0x29
 7399 0b23 746D7000 		.ascii	"tmp\000"
 7400 0b27 01       		.byte	0x1
 7401 0b28 DB01     		.2byte	0x1db
 7402 0b2a D5000000 		.4byte	0xd5
 7403 0b2e 6D0A0000 		.4byte	.LLST301
 7404 0b32 29       		.uleb128 0x29
 7405 0b33 7600     		.ascii	"v\000"
 7406 0b35 01       		.byte	0x1
 7407 0b36 DC01     		.2byte	0x1dc
 7408 0b38 BF000000 		.4byte	0xbf
 7409 0b3c 800A0000 		.4byte	.LLST302
 7410 0b40 2B       		.uleb128 0x2b
ARM GAS  /tmp/ccMboyVS.s 			page 131


 7411 0b41 99370000 		.4byte	0x3799
 7412 0b45 24140000 		.4byte	.LBB1904
 7413 0b49 06000000 		.4byte	.LBE1904-.LBB1904
 7414 0b4d 01       		.byte	0x1
 7415 0b4e DB01     		.2byte	0x1db
 7416 0b50 7B0B0000 		.4byte	0xb7b
 7417 0b54 31       		.uleb128 0x31
 7418 0b55 AA370000 		.4byte	0x37aa
 7419 0b59 9E0A0000 		.4byte	.LLST303
 7420 0b5d 32       		.uleb128 0x32
 7421 0b5e 24140000 		.4byte	.LBB1905
 7422 0b62 06000000 		.4byte	.LBE1905-.LBB1905
 7423 0b66 33       		.uleb128 0x33
 7424 0b67 B4370000 		.4byte	0x37b4
 7425 0b6b 33       		.uleb128 0x33
 7426 0b6c C0370000 		.4byte	0x37c0
 7427 0b70 2D       		.uleb128 0x2d
 7428 0b71 28140000 		.4byte	.LVL697
 7429 0b75 FE3C0000 		.4byte	0x3cfe
 7430 0b79 00       		.byte	0
 7431 0b7a 00       		.byte	0
 7432 0b7b 2B       		.uleb128 0x2b
 7433 0b7c D5380000 		.4byte	0x38d5
 7434 0b80 2A140000 		.4byte	.LBB1906
 7435 0b84 06000000 		.4byte	.LBE1906-.LBB1906
 7436 0b88 01       		.byte	0x1
 7437 0b89 DE01     		.2byte	0x1de
 7438 0b8b 950B0000 		.4byte	0xb95
 7439 0b8f 2C       		.uleb128 0x2c
 7440 0b90 E6380000 		.4byte	0x38e6
 7441 0b94 00       		.byte	0
 7442 0b95 2B       		.uleb128 0x2b
 7443 0b96 D5380000 		.4byte	0x38d5
 7444 0b9a 3C140000 		.4byte	.LBB1908
 7445 0b9e 06000000 		.4byte	.LBE1908-.LBB1908
 7446 0ba2 01       		.byte	0x1
 7447 0ba3 DF01     		.2byte	0x1df
 7448 0ba5 AF0B0000 		.4byte	0xbaf
 7449 0ba9 2C       		.uleb128 0x2c
 7450 0baa E6380000 		.4byte	0x38e6
 7451 0bae 00       		.byte	0
 7452 0baf 2B       		.uleb128 0x2b
 7453 0bb0 D5380000 		.4byte	0x38d5
 7454 0bb4 50140000 		.4byte	.LBB1910
 7455 0bb8 06000000 		.4byte	.LBE1910-.LBB1910
 7456 0bbc 01       		.byte	0x1
 7457 0bbd E001     		.2byte	0x1e0
 7458 0bbf C90B0000 		.4byte	0xbc9
 7459 0bc3 2C       		.uleb128 0x2c
 7460 0bc4 E6380000 		.4byte	0x38e6
 7461 0bc8 00       		.byte	0
 7462 0bc9 2B       		.uleb128 0x2b
 7463 0bca D5380000 		.4byte	0x38d5
 7464 0bce 66140000 		.4byte	.LBB1912
 7465 0bd2 02000000 		.4byte	.LBE1912-.LBB1912
 7466 0bd6 01       		.byte	0x1
 7467 0bd7 E101     		.2byte	0x1e1
ARM GAS  /tmp/ccMboyVS.s 			page 132


 7468 0bd9 E30B0000 		.4byte	0xbe3
 7469 0bdd 2C       		.uleb128 0x2c
 7470 0bde E6380000 		.4byte	0x38e6
 7471 0be2 00       		.byte	0
 7472 0be3 2E       		.uleb128 0x2e
 7473 0be4 3A140000 		.4byte	.LVL700
 7474 0be8 F23C0000 		.4byte	0x3cf2
 7475 0bec 040C0000 		.4byte	0xc04
 7476 0bf0 2F       		.uleb128 0x2f
 7477 0bf1 01       		.uleb128 0x1
 7478 0bf2 50       		.byte	0x50
 7479 0bf3 0A       		.uleb128 0xa
 7480 0bf4 74       		.byte	0x74
 7481 0bf5 00       		.sleb128 0
 7482 0bf6 34       		.byte	0x34
 7483 0bf7 24       		.byte	0x24
 7484 0bf8 0A       		.byte	0xa
 7485 0bf9 F00F     		.2byte	0xff0
 7486 0bfb 1A       		.byte	0x1a
 7487 0bfc 38       		.byte	0x38
 7488 0bfd 21       		.byte	0x21
 7489 0bfe 2F       		.uleb128 0x2f
 7490 0bff 01       		.uleb128 0x1
 7491 0c00 51       		.byte	0x51
 7492 0c01 01       		.uleb128 0x1
 7493 0c02 30       		.byte	0x30
 7494 0c03 00       		.byte	0
 7495 0c04 2E       		.uleb128 0x2e
 7496 0c05 4E140000 		.4byte	.LVL701
 7497 0c09 F23C0000 		.4byte	0x3cf2
 7498 0c0d 200C0000 		.4byte	0xc20
 7499 0c11 2F       		.uleb128 0x2f
 7500 0c12 01       		.uleb128 0x1
 7501 0c13 50       		.byte	0x50
 7502 0c14 0A       		.uleb128 0xa
 7503 0c15 74       		.byte	0x74
 7504 0c16 00       		.sleb128 0
 7505 0c17 34       		.byte	0x34
 7506 0c18 25       		.byte	0x25
 7507 0c19 0A       		.byte	0xa
 7508 0c1a F00F     		.2byte	0xff0
 7509 0c1c 1A       		.byte	0x1a
 7510 0c1d 38       		.byte	0x38
 7511 0c1e 21       		.byte	0x21
 7512 0c1f 00       		.byte	0
 7513 0c20 2E       		.uleb128 0x2e
 7514 0c21 62140000 		.4byte	.LVL702
 7515 0c25 F23C0000 		.4byte	0x3cf2
 7516 0c29 3C0C0000 		.4byte	0xc3c
 7517 0c2d 2F       		.uleb128 0x2f
 7518 0c2e 01       		.uleb128 0x1
 7519 0c2f 50       		.byte	0x50
 7520 0c30 0A       		.uleb128 0xa
 7521 0c31 74       		.byte	0x74
 7522 0c32 00       		.sleb128 0
 7523 0c33 3C       		.byte	0x3c
 7524 0c34 25       		.byte	0x25
ARM GAS  /tmp/ccMboyVS.s 			page 133


 7525 0c35 0A       		.byte	0xa
 7526 0c36 F00F     		.2byte	0xff0
 7527 0c38 1A       		.byte	0x1a
 7528 0c39 38       		.byte	0x38
 7529 0c3a 21       		.byte	0x21
 7530 0c3b 00       		.byte	0
 7531 0c3c 30       		.uleb128 0x30
 7532 0c3d 74140000 		.4byte	.LVL703
 7533 0c41 F23C0000 		.4byte	0x3cf2
 7534 0c45 2F       		.uleb128 0x2f
 7535 0c46 01       		.uleb128 0x1
 7536 0c47 50       		.byte	0x50
 7537 0c48 08       		.uleb128 0x8
 7538 0c49 74       		.byte	0x74
 7539 0c4a 00       		.sleb128 0
 7540 0c4b 48       		.byte	0x48
 7541 0c4c 25       		.byte	0x25
 7542 0c4d 34       		.byte	0x34
 7543 0c4e 24       		.byte	0x24
 7544 0c4f 38       		.byte	0x38
 7545 0c50 21       		.byte	0x21
 7546 0c51 00       		.byte	0
 7547 0c52 00       		.byte	0
 7548 0c53 2A       		.uleb128 0x2a
 7549 0c54 76130000 		.4byte	.LBB1885
 7550 0c58 52000000 		.4byte	.LBE1885-.LBB1885
 7551 0c5c 4F0D0000 		.4byte	0xd4f
 7552 0c60 29       		.uleb128 0x29
 7553 0c61 7600     		.ascii	"v\000"
 7554 0c63 01       		.byte	0x1
 7555 0c64 E601     		.2byte	0x1e6
 7556 0c66 BF000000 		.4byte	0xbf
 7557 0c6a B10A0000 		.4byte	.LLST299
 7558 0c6e 2B       		.uleb128 0x2b
 7559 0c6f D5380000 		.4byte	0x38d5
 7560 0c73 7C130000 		.4byte	.LBB1886
 7561 0c77 06000000 		.4byte	.LBE1886-.LBB1886
 7562 0c7b 01       		.byte	0x1
 7563 0c7c E701     		.2byte	0x1e7
 7564 0c7e 880C0000 		.4byte	0xc88
 7565 0c82 2C       		.uleb128 0x2c
 7566 0c83 E6380000 		.4byte	0x38e6
 7567 0c87 00       		.byte	0
 7568 0c88 2B       		.uleb128 0x2b
 7569 0c89 D5380000 		.4byte	0x38d5
 7570 0c8d 8E130000 		.4byte	.LBB1888
 7571 0c91 06000000 		.4byte	.LBE1888-.LBB1888
 7572 0c95 01       		.byte	0x1
 7573 0c96 E801     		.2byte	0x1e8
 7574 0c98 A20C0000 		.4byte	0xca2
 7575 0c9c 2C       		.uleb128 0x2c
 7576 0c9d E6380000 		.4byte	0x38e6
 7577 0ca1 00       		.byte	0
 7578 0ca2 2B       		.uleb128 0x2b
 7579 0ca3 D5380000 		.4byte	0x38d5
 7580 0ca7 A2130000 		.4byte	.LBB1890
 7581 0cab 06000000 		.4byte	.LBE1890-.LBB1890
ARM GAS  /tmp/ccMboyVS.s 			page 134


 7582 0caf 01       		.byte	0x1
 7583 0cb0 E901     		.2byte	0x1e9
 7584 0cb2 BC0C0000 		.4byte	0xcbc
 7585 0cb6 2C       		.uleb128 0x2c
 7586 0cb7 E6380000 		.4byte	0x38e6
 7587 0cbb 00       		.byte	0
 7588 0cbc 2B       		.uleb128 0x2b
 7589 0cbd D5380000 		.4byte	0x38d5
 7590 0cc1 B8130000 		.4byte	.LBB1892
 7591 0cc5 02000000 		.4byte	.LBE1892-.LBB1892
 7592 0cc9 01       		.byte	0x1
 7593 0cca EA01     		.2byte	0x1ea
 7594 0ccc D60C0000 		.4byte	0xcd6
 7595 0cd0 2C       		.uleb128 0x2c
 7596 0cd1 E6380000 		.4byte	0x38e6
 7597 0cd5 00       		.byte	0
 7598 0cd6 2D       		.uleb128 0x2d
 7599 0cd7 7A130000 		.4byte	.LVL679
 7600 0cdb E63C0000 		.4byte	0x3ce6
 7601 0cdf 2E       		.uleb128 0x2e
 7602 0ce0 8C130000 		.4byte	.LVL682
 7603 0ce4 F23C0000 		.4byte	0x3cf2
 7604 0ce8 000D0000 		.4byte	0xd00
 7605 0cec 2F       		.uleb128 0x2f
 7606 0ced 01       		.uleb128 0x1
 7607 0cee 50       		.byte	0x50
 7608 0cef 0A       		.uleb128 0xa
 7609 0cf0 74       		.byte	0x74
 7610 0cf1 00       		.sleb128 0
 7611 0cf2 34       		.byte	0x34
 7612 0cf3 24       		.byte	0x24
 7613 0cf4 0A       		.byte	0xa
 7614 0cf5 F00F     		.2byte	0xff0
 7615 0cf7 1A       		.byte	0x1a
 7616 0cf8 38       		.byte	0x38
 7617 0cf9 21       		.byte	0x21
 7618 0cfa 2F       		.uleb128 0x2f
 7619 0cfb 01       		.uleb128 0x1
 7620 0cfc 51       		.byte	0x51
 7621 0cfd 01       		.uleb128 0x1
 7622 0cfe 30       		.byte	0x30
 7623 0cff 00       		.byte	0
 7624 0d00 2E       		.uleb128 0x2e
 7625 0d01 A0130000 		.4byte	.LVL683
 7626 0d05 F23C0000 		.4byte	0x3cf2
 7627 0d09 1C0D0000 		.4byte	0xd1c
 7628 0d0d 2F       		.uleb128 0x2f
 7629 0d0e 01       		.uleb128 0x1
 7630 0d0f 50       		.byte	0x50
 7631 0d10 0A       		.uleb128 0xa
 7632 0d11 74       		.byte	0x74
 7633 0d12 00       		.sleb128 0
 7634 0d13 34       		.byte	0x34
 7635 0d14 25       		.byte	0x25
 7636 0d15 0A       		.byte	0xa
 7637 0d16 F00F     		.2byte	0xff0
 7638 0d18 1A       		.byte	0x1a
ARM GAS  /tmp/ccMboyVS.s 			page 135


 7639 0d19 38       		.byte	0x38
 7640 0d1a 21       		.byte	0x21
 7641 0d1b 00       		.byte	0
 7642 0d1c 2E       		.uleb128 0x2e
 7643 0d1d B4130000 		.4byte	.LVL684
 7644 0d21 F23C0000 		.4byte	0x3cf2
 7645 0d25 380D0000 		.4byte	0xd38
 7646 0d29 2F       		.uleb128 0x2f
 7647 0d2a 01       		.uleb128 0x1
 7648 0d2b 50       		.byte	0x50
 7649 0d2c 0A       		.uleb128 0xa
 7650 0d2d 74       		.byte	0x74
 7651 0d2e 00       		.sleb128 0
 7652 0d2f 3C       		.byte	0x3c
 7653 0d30 25       		.byte	0x25
 7654 0d31 0A       		.byte	0xa
 7655 0d32 F00F     		.2byte	0xff0
 7656 0d34 1A       		.byte	0x1a
 7657 0d35 38       		.byte	0x38
 7658 0d36 21       		.byte	0x21
 7659 0d37 00       		.byte	0
 7660 0d38 30       		.uleb128 0x30
 7661 0d39 C6130000 		.4byte	.LVL685
 7662 0d3d F23C0000 		.4byte	0x3cf2
 7663 0d41 2F       		.uleb128 0x2f
 7664 0d42 01       		.uleb128 0x1
 7665 0d43 50       		.byte	0x50
 7666 0d44 08       		.uleb128 0x8
 7667 0d45 74       		.byte	0x74
 7668 0d46 00       		.sleb128 0
 7669 0d47 48       		.byte	0x48
 7670 0d48 25       		.byte	0x25
 7671 0d49 34       		.byte	0x34
 7672 0d4a 24       		.byte	0x24
 7673 0d4b 38       		.byte	0x38
 7674 0d4c 21       		.byte	0x21
 7675 0d4d 00       		.byte	0
 7676 0d4e 00       		.byte	0
 7677 0d4f 28       		.uleb128 0x28
 7678 0d50 500F0000 		.4byte	.Ldebug_ranges0+0xf50
 7679 0d54 C80E0000 		.4byte	0xec8
 7680 0d58 27       		.uleb128 0x27
 7681 0d59 32060000 		.4byte	.LASF147
 7682 0d5d 01       		.byte	0x1
 7683 0d5e F101     		.2byte	0x1f1
 7684 0d60 A9000000 		.4byte	0xa9
 7685 0d64 CF0A0000 		.4byte	.LLST286
 7686 0d68 29       		.uleb128 0x29
 7687 0d69 7200     		.ascii	"r\000"
 7688 0d6b 01       		.byte	0x1
 7689 0d6c F201     		.2byte	0x1f2
 7690 0d6e BF000000 		.4byte	0xbf
 7691 0d72 E20A0000 		.4byte	.LLST287
 7692 0d76 29       		.uleb128 0x29
 7693 0d77 6E00     		.ascii	"n\000"
 7694 0d79 01       		.byte	0x1
 7695 0d7a F301     		.2byte	0x1f3
ARM GAS  /tmp/ccMboyVS.s 			page 136


 7696 0d7c 81000000 		.4byte	0x81
 7697 0d80 000B0000 		.4byte	.LLST288
 7698 0d84 28       		.uleb128 0x28
 7699 0d85 680F0000 		.4byte	.Ldebug_ranges0+0xf68
 7700 0d89 C90D0000 		.4byte	0xdc9
 7701 0d8d 29       		.uleb128 0x29
 7702 0d8e 7600     		.ascii	"v\000"
 7703 0d90 01       		.byte	0x1
 7704 0d91 F701     		.2byte	0x1f7
 7705 0d93 93000000 		.4byte	0x93
 7706 0d97 200B0000 		.4byte	.LLST295
 7707 0d9b 2E       		.uleb128 0x2e
 7708 0d9c 68100000 		.4byte	.LVL563
 7709 0da0 FE3C0000 		.4byte	0x3cfe
 7710 0da4 AF0D0000 		.4byte	0xdaf
 7711 0da8 2F       		.uleb128 0x2f
 7712 0da9 01       		.uleb128 0x1
 7713 0daa 50       		.byte	0x50
 7714 0dab 02       		.uleb128 0x2
 7715 0dac 74       		.byte	0x74
 7716 0dad 00       		.sleb128 0
 7717 0dae 00       		.byte	0
 7718 0daf 2D       		.uleb128 0x2d
 7719 0db0 6C100000 		.4byte	.LVL564
 7720 0db4 E63C0000 		.4byte	0x3ce6
 7721 0db8 30       		.uleb128 0x30
 7722 0db9 74100000 		.4byte	.LVL567
 7723 0dbd 0A3D0000 		.4byte	0x3d0a
 7724 0dc1 2F       		.uleb128 0x2f
 7725 0dc2 01       		.uleb128 0x1
 7726 0dc3 50       		.byte	0x50
 7727 0dc4 02       		.uleb128 0x2
 7728 0dc5 74       		.byte	0x74
 7729 0dc6 00       		.sleb128 0
 7730 0dc7 00       		.byte	0
 7731 0dc8 00       		.byte	0
 7732 0dc9 2B       		.uleb128 0x2b
 7733 0dca 3B370000 		.4byte	0x373b
 7734 0dce 680F0000 		.4byte	.LBB1837
 7735 0dd2 28000000 		.4byte	.LBE1837-.LBB1837
 7736 0dd6 01       		.byte	0x1
 7737 0dd7 F601     		.2byte	0x1f6
 7738 0dd9 100E0000 		.4byte	0xe10
 7739 0ddd 31       		.uleb128 0x31
 7740 0dde 4C370000 		.4byte	0x374c
 7741 0de2 330B0000 		.4byte	.LLST289
 7742 0de6 32       		.uleb128 0x32
 7743 0de7 680F0000 		.4byte	.LBB1838
 7744 0deb 28000000 		.4byte	.LBE1838-.LBB1838
 7745 0def 33       		.uleb128 0x33
 7746 0df0 56370000 		.4byte	0x3756
 7747 0df4 34       		.uleb128 0x34
 7748 0df5 6B390000 		.4byte	0x396b
 7749 0df9 680F0000 		.4byte	.LBB1839
 7750 0dfd 0C000000 		.4byte	.LBE1839-.LBB1839
 7751 0e01 02       		.byte	0x2
 7752 0e02 3002     		.2byte	0x230
ARM GAS  /tmp/ccMboyVS.s 			page 137


 7753 0e04 31       		.uleb128 0x31
 7754 0e05 7C390000 		.4byte	0x397c
 7755 0e09 330B0000 		.4byte	.LLST289
 7756 0e0d 00       		.byte	0
 7757 0e0e 00       		.byte	0
 7758 0e0f 00       		.byte	0
 7759 0e10 2B       		.uleb128 0x2b
 7760 0e11 AF380000 		.4byte	0x38af
 7761 0e15 900F0000 		.4byte	.LBB1841
 7762 0e19 32000000 		.4byte	.LBE1841-.LBB1841
 7763 0e1d 01       		.byte	0x1
 7764 0e1e FF01     		.2byte	0x1ff
 7765 0e20 990E0000 		.4byte	0xe99
 7766 0e24 31       		.uleb128 0x31
 7767 0e25 C0380000 		.4byte	0x38c0
 7768 0e29 460B0000 		.4byte	.LLST291
 7769 0e2d 32       		.uleb128 0x32
 7770 0e2e 900F0000 		.4byte	.LBB1842
 7771 0e32 32000000 		.4byte	.LBE1842-.LBB1842
 7772 0e36 35       		.uleb128 0x35
 7773 0e37 CA380000 		.4byte	0x38ca
 7774 0e3b 590B0000 		.4byte	.LLST292
 7775 0e3f 2B       		.uleb128 0x2b
 7776 0e40 6B390000 		.4byte	0x396b
 7777 0e44 9A0F0000 		.4byte	.LBB1843
 7778 0e48 0C000000 		.4byte	.LBE1843-.LBB1843
 7779 0e4c 02       		.byte	0x2
 7780 0e4d EE01     		.2byte	0x1ee
 7781 0e4f 590E0000 		.4byte	0xe59
 7782 0e53 2C       		.uleb128 0x2c
 7783 0e54 7C390000 		.4byte	0x397c
 7784 0e58 00       		.byte	0
 7785 0e59 2B       		.uleb128 0x2b
 7786 0e5a 29390000 		.4byte	0x3929
 7787 0e5e AE0F0000 		.4byte	.LBB1845
 7788 0e62 14000000 		.4byte	.LBE1845-.LBB1845
 7789 0e66 02       		.byte	0x2
 7790 0e67 EF01     		.2byte	0x1ef
 7791 0e69 800E0000 		.4byte	0xe80
 7792 0e6d 31       		.uleb128 0x31
 7793 0e6e 44390000 		.4byte	0x3944
 7794 0e72 6C0B0000 		.4byte	.LLST293
 7795 0e76 31       		.uleb128 0x31
 7796 0e77 3A390000 		.4byte	0x393a
 7797 0e7b 820B0000 		.4byte	.LLST294
 7798 0e7f 00       		.byte	0
 7799 0e80 30       		.uleb128 0x30
 7800 0e81 9A0F0000 		.4byte	.LVL532
 7801 0e85 F23C0000 		.4byte	0x3cf2
 7802 0e89 2F       		.uleb128 0x2f
 7803 0e8a 01       		.uleb128 0x1
 7804 0e8b 50       		.byte	0x50
 7805 0e8c 02       		.uleb128 0x2
 7806 0e8d 75       		.byte	0x75
 7807 0e8e 00       		.sleb128 0
 7808 0e8f 2F       		.uleb128 0x2f
 7809 0e90 01       		.uleb128 0x1
ARM GAS  /tmp/ccMboyVS.s 			page 138


 7810 0e91 51       		.byte	0x51
 7811 0e92 03       		.uleb128 0x3
 7812 0e93 0A       		.byte	0xa
 7813 0e94 1002     		.2byte	0x210
 7814 0e96 00       		.byte	0
 7815 0e97 00       		.byte	0
 7816 0e98 00       		.byte	0
 7817 0e99 36       		.uleb128 0x36
 7818 0e9a 6B390000 		.4byte	0x396b
 7819 0e9e 74100000 		.4byte	.LBB1848
 7820 0ea2 800F0000 		.4byte	.Ldebug_ranges0+0xf80
 7821 0ea6 01       		.byte	0x1
 7822 0ea7 F401     		.2byte	0x1f4
 7823 0ea9 B70E0000 		.4byte	0xeb7
 7824 0ead 31       		.uleb128 0x31
 7825 0eae 7C390000 		.4byte	0x397c
 7826 0eb2 950B0000 		.4byte	.LLST296
 7827 0eb6 00       		.byte	0
 7828 0eb7 30       		.uleb128 0x30
 7829 0eb8 680F0000 		.4byte	.LVL529
 7830 0ebc FE3C0000 		.4byte	0x3cfe
 7831 0ec0 2F       		.uleb128 0x2f
 7832 0ec1 01       		.uleb128 0x1
 7833 0ec2 50       		.byte	0x50
 7834 0ec3 02       		.uleb128 0x2
 7835 0ec4 74       		.byte	0x74
 7836 0ec5 00       		.sleb128 0
 7837 0ec6 00       		.byte	0
 7838 0ec7 00       		.byte	0
 7839 0ec8 28       		.uleb128 0x28
 7840 0ec9 F00E0000 		.4byte	.Ldebug_ranges0+0xef0
 7841 0ecd 41100000 		.4byte	0x1041
 7842 0ed1 27       		.uleb128 0x27
 7843 0ed2 32060000 		.4byte	.LASF147
 7844 0ed6 01       		.byte	0x1
 7845 0ed7 0502     		.2byte	0x205
 7846 0ed9 A9000000 		.4byte	0xa9
 7847 0edd A80B0000 		.4byte	.LLST274
 7848 0ee1 29       		.uleb128 0x29
 7849 0ee2 7200     		.ascii	"r\000"
 7850 0ee4 01       		.byte	0x1
 7851 0ee5 0602     		.2byte	0x206
 7852 0ee7 BF000000 		.4byte	0xbf
 7853 0eeb BB0B0000 		.4byte	.LLST275
 7854 0eef 29       		.uleb128 0x29
 7855 0ef0 6E00     		.ascii	"n\000"
 7856 0ef2 01       		.byte	0x1
 7857 0ef3 0702     		.2byte	0x207
 7858 0ef5 81000000 		.4byte	0x81
 7859 0ef9 D90B0000 		.4byte	.LLST276
 7860 0efd 28       		.uleb128 0x28
 7861 0efe 080F0000 		.4byte	.Ldebug_ranges0+0xf08
 7862 0f02 420F0000 		.4byte	0xf42
 7863 0f06 29       		.uleb128 0x29
 7864 0f07 7600     		.ascii	"v\000"
 7865 0f09 01       		.byte	0x1
 7866 0f0a 0B02     		.2byte	0x20b
ARM GAS  /tmp/ccMboyVS.s 			page 139


 7867 0f0c 93000000 		.4byte	0x93
 7868 0f10 F90B0000 		.4byte	.LLST283
 7869 0f14 2E       		.uleb128 0x2e
 7870 0f15 38100000 		.4byte	.LVL553
 7871 0f19 FE3C0000 		.4byte	0x3cfe
 7872 0f1d 280F0000 		.4byte	0xf28
 7873 0f21 2F       		.uleb128 0x2f
 7874 0f22 01       		.uleb128 0x1
 7875 0f23 50       		.byte	0x50
 7876 0f24 02       		.uleb128 0x2
 7877 0f25 74       		.byte	0x74
 7878 0f26 00       		.sleb128 0
 7879 0f27 00       		.byte	0
 7880 0f28 2D       		.uleb128 0x2d
 7881 0f29 3C100000 		.4byte	.LVL554
 7882 0f2d E63C0000 		.4byte	0x3ce6
 7883 0f31 30       		.uleb128 0x30
 7884 0f32 44100000 		.4byte	.LVL557
 7885 0f36 0A3D0000 		.4byte	0x3d0a
 7886 0f3a 2F       		.uleb128 0x2f
 7887 0f3b 01       		.uleb128 0x1
 7888 0f3c 50       		.byte	0x50
 7889 0f3d 02       		.uleb128 0x2
 7890 0f3e 74       		.byte	0x74
 7891 0f3f 00       		.sleb128 0
 7892 0f40 00       		.byte	0
 7893 0f41 00       		.byte	0
 7894 0f42 2B       		.uleb128 0x2b
 7895 0f43 3B370000 		.4byte	0x373b
 7896 0f47 E80E0000 		.4byte	.LBB1817
 7897 0f4b 30000000 		.4byte	.LBE1817-.LBB1817
 7898 0f4f 01       		.byte	0x1
 7899 0f50 0A02     		.2byte	0x20a
 7900 0f52 890F0000 		.4byte	0xf89
 7901 0f56 31       		.uleb128 0x31
 7902 0f57 4C370000 		.4byte	0x374c
 7903 0f5b 0C0C0000 		.4byte	.LLST277
 7904 0f5f 32       		.uleb128 0x32
 7905 0f60 E80E0000 		.4byte	.LBB1818
 7906 0f64 30000000 		.4byte	.LBE1818-.LBB1818
 7907 0f68 33       		.uleb128 0x33
 7908 0f69 56370000 		.4byte	0x3756
 7909 0f6d 34       		.uleb128 0x34
 7910 0f6e 6B390000 		.4byte	0x396b
 7911 0f72 E80E0000 		.4byte	.LBB1819
 7912 0f76 0C000000 		.4byte	.LBE1819-.LBB1819
 7913 0f7a 02       		.byte	0x2
 7914 0f7b 3002     		.2byte	0x230
 7915 0f7d 31       		.uleb128 0x31
 7916 0f7e 7C390000 		.4byte	0x397c
 7917 0f82 0C0C0000 		.4byte	.LLST277
 7918 0f86 00       		.byte	0
 7919 0f87 00       		.byte	0
 7920 0f88 00       		.byte	0
 7921 0f89 2B       		.uleb128 0x2b
 7922 0f8a 89380000 		.4byte	0x3889
 7923 0f8e 180F0000 		.4byte	.LBB1821
ARM GAS  /tmp/ccMboyVS.s 			page 140


 7924 0f92 32000000 		.4byte	.LBE1821-.LBB1821
 7925 0f96 01       		.byte	0x1
 7926 0f97 1302     		.2byte	0x213
 7927 0f99 12100000 		.4byte	0x1012
 7928 0f9d 31       		.uleb128 0x31
 7929 0f9e 9A380000 		.4byte	0x389a
 7930 0fa2 1F0C0000 		.4byte	.LLST279
 7931 0fa6 32       		.uleb128 0x32
 7932 0fa7 180F0000 		.4byte	.LBB1822
 7933 0fab 32000000 		.4byte	.LBE1822-.LBB1822
 7934 0faf 35       		.uleb128 0x35
 7935 0fb0 A4380000 		.4byte	0x38a4
 7936 0fb4 320C0000 		.4byte	.LLST280
 7937 0fb8 2B       		.uleb128 0x2b
 7938 0fb9 6B390000 		.4byte	0x396b
 7939 0fbd 220F0000 		.4byte	.LBB1823
 7940 0fc1 0C000000 		.4byte	.LBE1823-.LBB1823
 7941 0fc5 02       		.byte	0x2
 7942 0fc6 F401     		.2byte	0x1f4
 7943 0fc8 D20F0000 		.4byte	0xfd2
 7944 0fcc 2C       		.uleb128 0x2c
 7945 0fcd 7C390000 		.4byte	0x397c
 7946 0fd1 00       		.byte	0
 7947 0fd2 2B       		.uleb128 0x2b
 7948 0fd3 29390000 		.4byte	0x3929
 7949 0fd7 360F0000 		.4byte	.LBB1825
 7950 0fdb 14000000 		.4byte	.LBE1825-.LBB1825
 7951 0fdf 02       		.byte	0x2
 7952 0fe0 F501     		.2byte	0x1f5
 7953 0fe2 F90F0000 		.4byte	0xff9
 7954 0fe6 31       		.uleb128 0x31
 7955 0fe7 44390000 		.4byte	0x3944
 7956 0feb 450C0000 		.4byte	.LLST281
 7957 0fef 31       		.uleb128 0x31
 7958 0ff0 3A390000 		.4byte	0x393a
 7959 0ff4 5B0C0000 		.4byte	.LLST282
 7960 0ff8 00       		.byte	0
 7961 0ff9 30       		.uleb128 0x30
 7962 0ffa 220F0000 		.4byte	.LVL521
 7963 0ffe F23C0000 		.4byte	0x3cf2
 7964 1002 2F       		.uleb128 0x2f
 7965 1003 01       		.uleb128 0x1
 7966 1004 50       		.byte	0x50
 7967 1005 02       		.uleb128 0x2
 7968 1006 75       		.byte	0x75
 7969 1007 00       		.sleb128 0
 7970 1008 2F       		.uleb128 0x2f
 7971 1009 01       		.uleb128 0x1
 7972 100a 51       		.byte	0x51
 7973 100b 03       		.uleb128 0x3
 7974 100c 0A       		.byte	0xa
 7975 100d 2002     		.2byte	0x220
 7976 100f 00       		.byte	0
 7977 1010 00       		.byte	0
 7978 1011 00       		.byte	0
 7979 1012 36       		.uleb128 0x36
 7980 1013 6B390000 		.4byte	0x396b
ARM GAS  /tmp/ccMboyVS.s 			page 141


 7981 1017 44100000 		.4byte	.LBB1828
 7982 101b 200F0000 		.4byte	.Ldebug_ranges0+0xf20
 7983 101f 01       		.byte	0x1
 7984 1020 0802     		.2byte	0x208
 7985 1022 30100000 		.4byte	0x1030
 7986 1026 31       		.uleb128 0x31
 7987 1027 7C390000 		.4byte	0x397c
 7988 102b 6E0C0000 		.4byte	.LLST284
 7989 102f 00       		.byte	0
 7990 1030 30       		.uleb128 0x30
 7991 1031 E80E0000 		.4byte	.LVL518
 7992 1035 FE3C0000 		.4byte	0x3cfe
 7993 1039 2F       		.uleb128 0x2f
 7994 103a 01       		.uleb128 0x1
 7995 103b 50       		.byte	0x50
 7996 103c 02       		.uleb128 0x2
 7997 103d 74       		.byte	0x74
 7998 103e 00       		.sleb128 0
 7999 103f 00       		.byte	0
 8000 1040 00       		.byte	0
 8001 1041 28       		.uleb128 0x28
 8002 1042 900E0000 		.4byte	.Ldebug_ranges0+0xe90
 8003 1046 CD110000 		.4byte	0x11cd
 8004 104a 27       		.uleb128 0x27
 8005 104b 32060000 		.4byte	.LASF147
 8006 104f 01       		.byte	0x1
 8007 1050 1902     		.2byte	0x219
 8008 1052 A9000000 		.4byte	0xa9
 8009 1056 810C0000 		.4byte	.LLST259
 8010 105a 29       		.uleb128 0x29
 8011 105b 7200     		.ascii	"r\000"
 8012 105d 01       		.byte	0x1
 8013 105e 1A02     		.2byte	0x21a
 8014 1060 BF000000 		.4byte	0xbf
 8015 1064 940C0000 		.4byte	.LLST260
 8016 1068 37       		.uleb128 0x37
 8017 1069 6600     		.ascii	"f\000"
 8018 106b 01       		.byte	0x1
 8019 106c 1B02     		.2byte	0x21b
 8020 106e D5000000 		.4byte	0xd5
 8021 1072 29       		.uleb128 0x29
 8022 1073 6E00     		.ascii	"n\000"
 8023 1075 01       		.byte	0x1
 8024 1076 1C02     		.2byte	0x21c
 8025 1078 81000000 		.4byte	0x81
 8026 107c CC0C0000 		.4byte	.LLST261
 8027 1080 28       		.uleb128 0x28
 8028 1081 A80E0000 		.4byte	.Ldebug_ranges0+0xea8
 8029 1085 C5100000 		.4byte	0x10c5
 8030 1089 29       		.uleb128 0x29
 8031 108a 7600     		.ascii	"v\000"
 8032 108c 01       		.byte	0x1
 8033 108d 2002     		.2byte	0x220
 8034 108f 93000000 		.4byte	0x93
 8035 1093 EC0C0000 		.4byte	.LLST269
 8036 1097 2E       		.uleb128 0x2e
 8037 1098 92100000 		.4byte	.LVL573
ARM GAS  /tmp/ccMboyVS.s 			page 142


 8038 109c FE3C0000 		.4byte	0x3cfe
 8039 10a0 AB100000 		.4byte	0x10ab
 8040 10a4 2F       		.uleb128 0x2f
 8041 10a5 01       		.uleb128 0x1
 8042 10a6 50       		.byte	0x50
 8043 10a7 02       		.uleb128 0x2
 8044 10a8 74       		.byte	0x74
 8045 10a9 00       		.sleb128 0
 8046 10aa 00       		.byte	0
 8047 10ab 2D       		.uleb128 0x2d
 8048 10ac 96100000 		.4byte	.LVL574
 8049 10b0 E63C0000 		.4byte	0x3ce6
 8050 10b4 30       		.uleb128 0x30
 8051 10b5 9E100000 		.4byte	.LVL577
 8052 10b9 0A3D0000 		.4byte	0x3d0a
 8053 10bd 2F       		.uleb128 0x2f
 8054 10be 01       		.uleb128 0x1
 8055 10bf 50       		.byte	0x50
 8056 10c0 02       		.uleb128 0x2
 8057 10c1 74       		.byte	0x74
 8058 10c2 00       		.sleb128 0
 8059 10c3 00       		.byte	0
 8060 10c4 00       		.byte	0
 8061 10c5 2B       		.uleb128 0x2b
 8062 10c6 3B370000 		.4byte	0x373b
 8063 10ca 300E0000 		.4byte	.LBB1793
 8064 10ce 30000000 		.4byte	.LBE1793-.LBB1793
 8065 10d2 01       		.byte	0x1
 8066 10d3 1F02     		.2byte	0x21f
 8067 10d5 0C110000 		.4byte	0x110c
 8068 10d9 31       		.uleb128 0x31
 8069 10da 4C370000 		.4byte	0x374c
 8070 10de FF0C0000 		.4byte	.LLST262
 8071 10e2 32       		.uleb128 0x32
 8072 10e3 300E0000 		.4byte	.LBB1794
 8073 10e7 30000000 		.4byte	.LBE1794-.LBB1794
 8074 10eb 33       		.uleb128 0x33
 8075 10ec 56370000 		.4byte	0x3756
 8076 10f0 34       		.uleb128 0x34
 8077 10f1 6B390000 		.4byte	0x396b
 8078 10f5 300E0000 		.4byte	.LBB1795
 8079 10f9 0C000000 		.4byte	.LBE1795-.LBB1795
 8080 10fd 02       		.byte	0x2
 8081 10fe 3002     		.2byte	0x230
 8082 1100 31       		.uleb128 0x31
 8083 1101 7C390000 		.4byte	0x397c
 8084 1105 FF0C0000 		.4byte	.LLST262
 8085 1109 00       		.byte	0
 8086 110a 00       		.byte	0
 8087 110b 00       		.byte	0
 8088 110c 2B       		.uleb128 0x2b
 8089 110d 59380000 		.4byte	0x3859
 8090 1111 600E0000 		.4byte	.LBB1797
 8091 1115 32000000 		.4byte	.LBE1797-.LBB1797
 8092 1119 01       		.byte	0x1
 8093 111a 2902     		.2byte	0x229
 8094 111c 9E110000 		.4byte	0x119e
ARM GAS  /tmp/ccMboyVS.s 			page 143


 8095 1120 31       		.uleb128 0x31
 8096 1121 6A380000 		.4byte	0x386a
 8097 1125 120D0000 		.4byte	.LLST264
 8098 1129 32       		.uleb128 0x32
 8099 112a 600E0000 		.4byte	.LBB1798
 8100 112e 32000000 		.4byte	.LBE1798-.LBB1798
 8101 1132 35       		.uleb128 0x35
 8102 1133 74380000 		.4byte	0x3874
 8103 1137 120D0000 		.4byte	.LLST264
 8104 113b 35       		.uleb128 0x35
 8105 113c 7E380000 		.4byte	0x387e
 8106 1140 250D0000 		.4byte	.LLST266
 8107 1144 2B       		.uleb128 0x2b
 8108 1145 6B390000 		.4byte	0x396b
 8109 1149 6A0E0000 		.4byte	.LBB1799
 8110 114d 0C000000 		.4byte	.LBE1799-.LBB1799
 8111 1151 02       		.byte	0x2
 8112 1152 FC01     		.2byte	0x1fc
 8113 1154 5E110000 		.4byte	0x115e
 8114 1158 2C       		.uleb128 0x2c
 8115 1159 7C390000 		.4byte	0x397c
 8116 115d 00       		.byte	0
 8117 115e 2B       		.uleb128 0x2b
 8118 115f 29390000 		.4byte	0x3929
 8119 1163 7E0E0000 		.4byte	.LBB1801
 8120 1167 14000000 		.4byte	.LBE1801-.LBB1801
 8121 116b 02       		.byte	0x2
 8122 116c FD01     		.2byte	0x1fd
 8123 116e 85110000 		.4byte	0x1185
 8124 1172 31       		.uleb128 0x31
 8125 1173 44390000 		.4byte	0x3944
 8126 1177 380D0000 		.4byte	.LLST267
 8127 117b 31       		.uleb128 0x31
 8128 117c 3A390000 		.4byte	0x393a
 8129 1180 4E0D0000 		.4byte	.LLST268
 8130 1184 00       		.byte	0
 8131 1185 30       		.uleb128 0x30
 8132 1186 6A0E0000 		.4byte	.LVL505
 8133 118a F23C0000 		.4byte	0x3cf2
 8134 118e 2F       		.uleb128 0x2f
 8135 118f 01       		.uleb128 0x1
 8136 1190 50       		.byte	0x50
 8137 1191 02       		.uleb128 0x2
 8138 1192 75       		.byte	0x75
 8139 1193 00       		.sleb128 0
 8140 1194 2F       		.uleb128 0x2f
 8141 1195 01       		.uleb128 0x1
 8142 1196 51       		.byte	0x51
 8143 1197 03       		.uleb128 0x3
 8144 1198 0A       		.byte	0xa
 8145 1199 3002     		.2byte	0x230
 8146 119b 00       		.byte	0
 8147 119c 00       		.byte	0
 8148 119d 00       		.byte	0
 8149 119e 36       		.uleb128 0x36
 8150 119f 6B390000 		.4byte	0x396b
 8151 11a3 9E100000 		.4byte	.LBB1804
ARM GAS  /tmp/ccMboyVS.s 			page 144


 8152 11a7 C00E0000 		.4byte	.Ldebug_ranges0+0xec0
 8153 11ab 01       		.byte	0x1
 8154 11ac 1D02     		.2byte	0x21d
 8155 11ae BC110000 		.4byte	0x11bc
 8156 11b2 31       		.uleb128 0x31
 8157 11b3 7C390000 		.4byte	0x397c
 8158 11b7 610D0000 		.4byte	.LLST270
 8159 11bb 00       		.byte	0
 8160 11bc 30       		.uleb128 0x30
 8161 11bd 300E0000 		.4byte	.LVL502
 8162 11c1 FE3C0000 		.4byte	0x3cfe
 8163 11c5 2F       		.uleb128 0x2f
 8164 11c6 01       		.uleb128 0x1
 8165 11c7 50       		.byte	0x50
 8166 11c8 02       		.uleb128 0x2
 8167 11c9 74       		.byte	0x74
 8168 11ca 00       		.sleb128 0
 8169 11cb 00       		.byte	0
 8170 11cc 00       		.byte	0
 8171 11cd 28       		.uleb128 0x28
 8172 11ce 580E0000 		.4byte	.Ldebug_ranges0+0xe58
 8173 11d2 CD120000 		.4byte	0x12cd
 8174 11d6 29       		.uleb128 0x29
 8175 11d7 73796D00 		.ascii	"sym\000"
 8176 11db 01       		.byte	0x1
 8177 11dc 3A02     		.2byte	0x23a
 8178 11de A9000000 		.4byte	0xa9
 8179 11e2 740D0000 		.4byte	.LLST252
 8180 11e6 27       		.uleb128 0x27
 8181 11e7 0F000000 		.4byte	.LASF148
 8182 11eb 01       		.byte	0x1
 8183 11ec 3B02     		.2byte	0x23b
 8184 11ee 10060000 		.4byte	0x610
 8185 11f2 940D0000 		.4byte	.LLST253
 8186 11f6 29       		.uleb128 0x29
 8187 11f7 6C656E00 		.ascii	"len\000"
 8188 11fb 01       		.byte	0x1
 8189 11fc 3D02     		.2byte	0x23d
 8190 11fe F5000000 		.4byte	0xf5
 8191 1202 BD0D0000 		.4byte	.LLST254
 8192 1206 38       		.uleb128 0x38
 8193 1207 7600     		.ascii	"v\000"
 8194 1209 01       		.byte	0x1
 8195 120a 3F02     		.2byte	0x23f
 8196 120c A9000000 		.4byte	0xa9
 8197 1210 02       		.uleb128 0x2
 8198 1211 91       		.byte	0x91
 8199 1212 4C       		.sleb128 -52
 8200 1213 2A       		.uleb128 0x2a
 8201 1214 EC140000 		.4byte	.LBB1744
 8202 1218 22000000 		.4byte	.LBE1744-.LBB1744
 8203 121c 7A120000 		.4byte	0x127a
 8204 1220 29       		.uleb128 0x29
 8205 1221 61727200 		.ascii	"arr\000"
 8206 1225 01       		.byte	0x1
 8207 1226 4102     		.2byte	0x241
 8208 1228 592F0000 		.4byte	0x2f59
ARM GAS  /tmp/ccMboyVS.s 			page 145


 8209 122c E60D0000 		.4byte	.LLST255
 8210 1230 27       		.uleb128 0x27
 8211 1231 B1050000 		.4byte	.LASF135
 8212 1235 01       		.byte	0x1
 8213 1236 4302     		.2byte	0x243
 8214 1238 9E010000 		.4byte	0x19e
 8215 123c 060E0000 		.4byte	.LLST256
 8216 1240 2D       		.uleb128 0x2d
 8217 1241 F2140000 		.4byte	.LVL719
 8218 1245 FE3C0000 		.4byte	0x3cfe
 8219 1249 2E       		.uleb128 0x2e
 8220 124a 06150000 		.4byte	.LVL722
 8221 124e 163D0000 		.4byte	0x3d16
 8222 1252 63120000 		.4byte	0x1263
 8223 1256 2F       		.uleb128 0x2f
 8224 1257 01       		.uleb128 0x1
 8225 1258 51       		.byte	0x51
 8226 1259 02       		.uleb128 0x2
 8227 125a 74       		.byte	0x74
 8228 125b 00       		.sleb128 0
 8229 125c 2F       		.uleb128 0x2f
 8230 125d 01       		.uleb128 0x1
 8231 125e 52       		.byte	0x52
 8232 125f 02       		.uleb128 0x2
 8233 1260 77       		.byte	0x77
 8234 1261 00       		.sleb128 0
 8235 1262 00       		.byte	0
 8236 1263 30       		.uleb128 0x30
 8237 1264 0E150000 		.4byte	.LVL723
 8238 1268 253D0000 		.4byte	0x3d25
 8239 126c 2F       		.uleb128 0x2f
 8240 126d 01       		.uleb128 0x1
 8241 126e 51       		.byte	0x51
 8242 126f 02       		.uleb128 0x2
 8243 1270 75       		.byte	0x75
 8244 1271 00       		.sleb128 0
 8245 1272 2F       		.uleb128 0x2f
 8246 1273 01       		.uleb128 0x1
 8247 1274 52       		.byte	0x52
 8248 1275 02       		.uleb128 0x2
 8249 1276 76       		.byte	0x76
 8250 1277 00       		.sleb128 0
 8251 1278 00       		.byte	0
 8252 1279 00       		.byte	0
 8253 127a 2B       		.uleb128 0x2b
 8254 127b 6B390000 		.4byte	0x396b
 8255 127f 6E050000 		.4byte	.LBB1742
 8256 1283 0C000000 		.4byte	.LBE1742-.LBB1742
 8257 1287 01       		.byte	0x1
 8258 1288 3802     		.2byte	0x238
 8259 128a 94120000 		.4byte	0x1294
 8260 128e 2C       		.uleb128 0x2c
 8261 128f 7C390000 		.4byte	0x397c
 8262 1293 00       		.byte	0
 8263 1294 2D       		.uleb128 0x2d
 8264 1295 AE120000 		.4byte	.LVL650
 8265 1299 343D0000 		.4byte	0x3d34
ARM GAS  /tmp/ccMboyVS.s 			page 146


 8266 129d 2E       		.uleb128 0x2e
 8267 129e BA120000 		.4byte	.LVL651
 8268 12a2 3F3D0000 		.4byte	0x3d3f
 8269 12a6 B1120000 		.4byte	0x12b1
 8270 12aa 2F       		.uleb128 0x2f
 8271 12ab 01       		.uleb128 0x1
 8272 12ac 50       		.byte	0x50
 8273 12ad 02       		.uleb128 0x2
 8274 12ae 75       		.byte	0x75
 8275 12af 00       		.sleb128 0
 8276 12b0 00       		.byte	0
 8277 12b1 30       		.uleb128 0x30
 8278 12b2 C8120000 		.4byte	.LVL654
 8279 12b6 4A3D0000 		.4byte	0x3d4a
 8280 12ba 2F       		.uleb128 0x2f
 8281 12bb 01       		.uleb128 0x1
 8282 12bc 50       		.byte	0x50
 8283 12bd 02       		.uleb128 0x2
 8284 12be 91       		.byte	0x91
 8285 12bf 4C       		.sleb128 -52
 8286 12c0 2F       		.uleb128 0x2f
 8287 12c1 01       		.uleb128 0x1
 8288 12c2 51       		.byte	0x51
 8289 12c3 02       		.uleb128 0x2
 8290 12c4 77       		.byte	0x77
 8291 12c5 00       		.sleb128 0
 8292 12c6 2F       		.uleb128 0x2f
 8293 12c7 01       		.uleb128 0x1
 8294 12c8 52       		.byte	0x52
 8295 12c9 01       		.uleb128 0x1
 8296 12ca 34       		.byte	0x34
 8297 12cb 00       		.byte	0
 8298 12cc 00       		.byte	0
 8299 12cd 28       		.uleb128 0x28
 8300 12ce 880D0000 		.4byte	.Ldebug_ranges0+0xd88
 8301 12d2 7B130000 		.4byte	0x137b
 8302 12d6 29       		.uleb128 0x29
 8303 12d7 61727200 		.ascii	"arr\000"
 8304 12db 01       		.byte	0x1
 8305 12dc 5102     		.2byte	0x251
 8306 12de 592F0000 		.4byte	0x2f59
 8307 12e2 190E0000 		.4byte	.LLST232
 8308 12e6 29       		.uleb128 0x29
 8309 12e7 73747200 		.ascii	"str\000"
 8310 12eb 01       		.byte	0x1
 8311 12ec 5402     		.2byte	0x254
 8312 12ee 9E010000 		.4byte	0x19e
 8313 12f2 5E0E0000 		.4byte	.LLST233
 8314 12f6 38       		.uleb128 0x38
 8315 12f7 73796D00 		.ascii	"sym\000"
 8316 12fb 01       		.byte	0x1
 8317 12fc 5502     		.2byte	0x255
 8318 12fe BF000000 		.4byte	0xbf
 8319 1302 02       		.uleb128 0x2
 8320 1303 91       		.byte	0x91
 8321 1304 4C       		.sleb128 -52
 8322 1305 2B       		.uleb128 0x2b
ARM GAS  /tmp/ccMboyVS.s 			page 147


 8323 1306 0D390000 		.4byte	0x390d
 8324 130a 54130000 		.4byte	.LBB1710
 8325 130e 04000000 		.4byte	.LBE1710-.LBB1710
 8326 1312 01       		.byte	0x1
 8327 1313 5702     		.2byte	0x257
 8328 1315 23130000 		.4byte	0x1323
 8329 1319 31       		.uleb128 0x31
 8330 131a 1E390000 		.4byte	0x391e
 8331 131e 870E0000 		.4byte	.LLST234
 8332 1322 00       		.byte	0
 8333 1323 2B       		.uleb128 0x2b
 8334 1324 0D390000 		.4byte	0x390d
 8335 1328 E2150000 		.4byte	.LBB1712
 8336 132c 08000000 		.4byte	.LBE1712-.LBB1712
 8337 1330 01       		.byte	0x1
 8338 1331 5902     		.2byte	0x259
 8339 1333 41130000 		.4byte	0x1341
 8340 1337 31       		.uleb128 0x31
 8341 1338 1E390000 		.4byte	0x391e
 8342 133c 9B0E0000 		.4byte	.LLST235
 8343 1340 00       		.byte	0
 8344 1341 2D       		.uleb128 0x2d
 8345 1342 0E100000 		.4byte	.LVL546
 8346 1346 FE3C0000 		.4byte	0x3cfe
 8347 134a 2E       		.uleb128 0x2e
 8348 134b 4E130000 		.4byte	.LVL670
 8349 134f 563D0000 		.4byte	0x3d56
 8350 1353 64130000 		.4byte	0x1364
 8351 1357 2F       		.uleb128 0x2f
 8352 1358 01       		.uleb128 0x1
 8353 1359 50       		.byte	0x50
 8354 135a 02       		.uleb128 0x2
 8355 135b 74       		.byte	0x74
 8356 135c 00       		.sleb128 0
 8357 135d 2F       		.uleb128 0x2f
 8358 135e 01       		.uleb128 0x1
 8359 135f 51       		.byte	0x51
 8360 1360 02       		.uleb128 0x2
 8361 1361 91       		.byte	0x91
 8362 1362 4C       		.sleb128 -52
 8363 1363 00       		.byte	0
 8364 1364 30       		.uleb128 0x30
 8365 1365 DA150000 		.4byte	.LVL751
 8366 1369 613D0000 		.4byte	0x3d61
 8367 136d 2F       		.uleb128 0x2f
 8368 136e 01       		.uleb128 0x1
 8369 136f 50       		.byte	0x50
 8370 1370 02       		.uleb128 0x2
 8371 1371 74       		.byte	0x74
 8372 1372 00       		.sleb128 0
 8373 1373 2F       		.uleb128 0x2f
 8374 1374 01       		.uleb128 0x1
 8375 1375 51       		.byte	0x51
 8376 1376 02       		.uleb128 0x2
 8377 1377 91       		.byte	0x91
 8378 1378 4C       		.sleb128 -52
 8379 1379 00       		.byte	0
ARM GAS  /tmp/ccMboyVS.s 			page 148


 8380 137a 00       		.byte	0
 8381 137b 28       		.uleb128 0x28
 8382 137c 700D0000 		.4byte	.Ldebug_ranges0+0xd70
 8383 1380 C3130000 		.4byte	0x13c3
 8384 1384 29       		.uleb128 0x29
 8385 1385 7300     		.ascii	"s\000"
 8386 1387 01       		.byte	0x1
 8387 1388 5E02     		.2byte	0x25e
 8388 138a A9000000 		.4byte	0xa9
 8389 138e AF0E0000 		.4byte	.LLST231
 8390 1392 2B       		.uleb128 0x2b
 8391 1393 6B390000 		.4byte	0x396b
 8392 1397 A2040000 		.4byte	.LBB1705
 8393 139b 0C000000 		.4byte	.LBE1705-.LBB1705
 8394 139f 01       		.byte	0x1
 8395 13a0 5F02     		.2byte	0x25f
 8396 13a2 AC130000 		.4byte	0x13ac
 8397 13a6 2C       		.uleb128 0x2c
 8398 13a7 7C390000 		.4byte	0x397c
 8399 13ab 00       		.byte	0
 8400 13ac 34       		.uleb128 0x34
 8401 13ad D5380000 		.4byte	0x38d5
 8402 13b1 B4040000 		.4byte	.LBB1707
 8403 13b5 08000000 		.4byte	.LBE1707-.LBB1707
 8404 13b9 01       		.byte	0x1
 8405 13ba 6002     		.2byte	0x260
 8406 13bc 2C       		.uleb128 0x2c
 8407 13bd E6380000 		.4byte	0x38e6
 8408 13c1 00       		.byte	0
 8409 13c2 00       		.byte	0
 8410 13c3 28       		.uleb128 0x28
 8411 13c4 280E0000 		.4byte	.Ldebug_ranges0+0xe28
 8412 13c8 0F140000 		.4byte	0x140f
 8413 13cc 29       		.uleb128 0x29
 8414 13cd 7300     		.ascii	"s\000"
 8415 13cf 01       		.byte	0x1
 8416 13d0 6602     		.2byte	0x266
 8417 13d2 A9000000 		.4byte	0xa9
 8418 13d6 E50E0000 		.4byte	.LLST247
 8419 13da 2B       		.uleb128 0x2b
 8420 13db 6B390000 		.4byte	0x396b
 8421 13df 3A050000 		.4byte	.LBB1734
 8422 13e3 0C000000 		.4byte	.LBE1734-.LBB1734
 8423 13e7 01       		.byte	0x1
 8424 13e8 6702     		.2byte	0x267
 8425 13ea F8130000 		.4byte	0x13f8
 8426 13ee 31       		.uleb128 0x31
 8427 13ef 7C390000 		.4byte	0x397c
 8428 13f3 1B0F0000 		.4byte	.LLST248
 8429 13f7 00       		.byte	0
 8430 13f8 34       		.uleb128 0x34
 8431 13f9 0D390000 		.4byte	0x390d
 8432 13fd C20F0000 		.4byte	.LBB1736
 8433 1401 04000000 		.4byte	.LBE1736-.LBB1736
 8434 1405 01       		.byte	0x1
 8435 1406 6802     		.2byte	0x268
 8436 1408 2C       		.uleb128 0x2c
ARM GAS  /tmp/ccMboyVS.s 			page 149


 8437 1409 1E390000 		.4byte	0x391e
 8438 140d 00       		.byte	0
 8439 140e 00       		.byte	0
 8440 140f 2A       		.uleb128 0x2a
 8441 1410 F0040000 		.4byte	.LBB1717
 8442 1414 0C000000 		.4byte	.LBE1717-.LBB1717
 8443 1418 42140000 		.4byte	0x1442
 8444 141c 29       		.uleb128 0x29
 8445 141d 6100     		.ascii	"a\000"
 8446 141f 01       		.byte	0x1
 8447 1420 8002     		.2byte	0x280
 8448 1422 BF000000 		.4byte	0xbf
 8449 1426 2E0F0000 		.4byte	.LLST237
 8450 142a 29       		.uleb128 0x29
 8451 142b 6200     		.ascii	"b\000"
 8452 142d 01       		.byte	0x1
 8453 142e 8102     		.2byte	0x281
 8454 1430 BF000000 		.4byte	0xbf
 8455 1434 4F0F0000 		.4byte	.LLST238
 8456 1438 2D       		.uleb128 0x2d
 8457 1439 F8040000 		.4byte	.LVL188
 8458 143d F23C0000 		.4byte	0x3cf2
 8459 1441 00       		.byte	0
 8460 1442 28       		.uleb128 0x28
 8461 1443 E0080000 		.4byte	.Ldebug_ranges0+0x8e0
 8462 1447 84140000 		.4byte	0x1484
 8463 144b 29       		.uleb128 0x29
 8464 144c 6900     		.ascii	"i\000"
 8465 144e 01       		.byte	0x1
 8466 144f 8F02     		.2byte	0x28f
 8467 1451 BF000000 		.4byte	0xbf
 8468 1455 720F0000 		.4byte	.LLST156
 8469 1459 2B       		.uleb128 0x2b
 8470 145a 6B390000 		.4byte	0x396b
 8471 145e 7C030000 		.4byte	.LBB1479
 8472 1462 0C000000 		.4byte	.LBE1479-.LBB1479
 8473 1466 01       		.byte	0x1
 8474 1467 9102     		.2byte	0x291
 8475 1469 73140000 		.4byte	0x1473
 8476 146d 2C       		.uleb128 0x2c
 8477 146e 7C390000 		.4byte	0x397c
 8478 1472 00       		.byte	0
 8479 1473 30       		.uleb128 0x30
 8480 1474 7C030000 		.4byte	.LVL157
 8481 1478 F23C0000 		.4byte	0x3cf2
 8482 147c 2F       		.uleb128 0x2f
 8483 147d 01       		.uleb128 0x1
 8484 147e 51       		.byte	0x51
 8485 147f 02       		.uleb128 0x2
 8486 1480 74       		.byte	0x74
 8487 1481 00       		.sleb128 0
 8488 1482 00       		.byte	0
 8489 1483 00       		.byte	0
 8490 1484 28       		.uleb128 0x28
 8491 1485 D00D0000 		.4byte	.Ldebug_ranges0+0xdd0
 8492 1489 46150000 		.4byte	0x1546
 8493 148d 38       		.uleb128 0x38
ARM GAS  /tmp/ccMboyVS.s 			page 150


 8494 148e 6100     		.ascii	"a\000"
 8495 1490 01       		.byte	0x1
 8496 1491 9902     		.2byte	0x299
 8497 1493 A9000000 		.4byte	0xa9
 8498 1497 01       		.uleb128 0x1
 8499 1498 56       		.byte	0x56
 8500 1499 29       		.uleb128 0x29
 8501 149a 6200     		.ascii	"b\000"
 8502 149c 01       		.byte	0x1
 8503 149d 9A02     		.2byte	0x29a
 8504 149f A9000000 		.4byte	0xa9
 8505 14a3 9D0F0000 		.4byte	.LLST239
 8506 14a7 27       		.uleb128 0x27
 8507 14a8 32060000 		.4byte	.LASF147
 8508 14ac 01       		.byte	0x1
 8509 14ad 9D02     		.2byte	0x29d
 8510 14af A9000000 		.4byte	0xa9
 8511 14b3 B00F0000 		.4byte	.LLST240
 8512 14b7 29       		.uleb128 0x29
 8513 14b8 6E00     		.ascii	"n\000"
 8514 14ba 01       		.byte	0x1
 8515 14bb 9E02     		.2byte	0x29e
 8516 14bd 81000000 		.4byte	0x81
 8517 14c1 D90F0000 		.4byte	.LLST241
 8518 14c5 2A       		.uleb128 0x2a
 8519 14c6 E40D0000 		.4byte	.LBB1727
 8520 14ca 2E000000 		.4byte	.LBE1727-.LBB1727
 8521 14ce 1E150000 		.4byte	0x151e
 8522 14d2 29       		.uleb128 0x29
 8523 14d3 6900     		.ascii	"i\000"
 8524 14d5 01       		.byte	0x1
 8525 14d6 A402     		.2byte	0x2a4
 8526 14d8 81000000 		.4byte	0x81
 8527 14dc 03100000 		.4byte	.LLST243
 8528 14e0 2B       		.uleb128 0x2b
 8529 14e1 6B390000 		.4byte	0x396b
 8530 14e5 F80D0000 		.4byte	.LBB1728
 8531 14e9 0C000000 		.4byte	.LBE1728-.LBB1728
 8532 14ed 01       		.byte	0x1
 8533 14ee A602     		.2byte	0x2a6
 8534 14f0 FA140000 		.4byte	0x14fa
 8535 14f4 2C       		.uleb128 0x2c
 8536 14f5 7C390000 		.4byte	0x397c
 8537 14f9 00       		.byte	0
 8538 14fa 2E       		.uleb128 0x2e
 8539 14fb F20D0000 		.4byte	.LVL494
 8540 14ff 5F2F0000 		.4byte	0x2f5f
 8541 1503 14150000 		.4byte	0x1514
 8542 1507 2F       		.uleb128 0x2f
 8543 1508 01       		.uleb128 0x1
 8544 1509 50       		.byte	0x50
 8545 150a 02       		.uleb128 0x2
 8546 150b 76       		.byte	0x76
 8547 150c 00       		.sleb128 0
 8548 150d 2F       		.uleb128 0x2f
 8549 150e 01       		.uleb128 0x1
 8550 150f 51       		.byte	0x51
ARM GAS  /tmp/ccMboyVS.s 			page 151


 8551 1510 02       		.uleb128 0x2
 8552 1511 75       		.byte	0x75
 8553 1512 00       		.sleb128 0
 8554 1513 00       		.byte	0
 8555 1514 2D       		.uleb128 0x2d
 8556 1515 F80D0000 		.4byte	.LVL495
 8557 1519 F23C0000 		.4byte	0x3cf2
 8558 151d 00       		.byte	0
 8559 151e 36       		.uleb128 0x36
 8560 151f 6B390000 		.4byte	0x396b
 8561 1523 B20D0000 		.4byte	.LBB1719
 8562 1527 E80D0000 		.4byte	.Ldebug_ranges0+0xde8
 8563 152b 01       		.byte	0x1
 8564 152c 9F02     		.2byte	0x29f
 8565 152e 3C150000 		.4byte	0x153c
 8566 1532 31       		.uleb128 0x31
 8567 1533 7C390000 		.4byte	0x397c
 8568 1537 16100000 		.4byte	.LLST242
 8569 153b 00       		.byte	0
 8570 153c 2D       		.uleb128 0x2d
 8571 153d CE0D0000 		.4byte	.LVL490
 8572 1541 0A3D0000 		.4byte	0x3d0a
 8573 1545 00       		.byte	0
 8574 1546 28       		.uleb128 0x28
 8575 1547 58040000 		.4byte	.Ldebug_ranges0+0x458
 8576 154b B8180000 		.4byte	0x18b8
 8577 154f 29       		.uleb128 0x29
 8578 1550 73756D00 		.ascii	"sum\000"
 8579 1554 01       		.byte	0x1
 8580 1555 AC02     		.2byte	0x2ac
 8581 1557 BF000000 		.4byte	0xbf
 8582 155b 34100000 		.4byte	.LLST104
 8583 155f 39       		.uleb128 0x39
 8584 1560 B8040000 		.4byte	.Ldebug_ranges0+0x4b8
 8585 1564 29       		.uleb128 0x29
 8586 1565 6900     		.ascii	"i\000"
 8587 1567 01       		.byte	0x1
 8588 1568 AD02     		.2byte	0x2ad
 8589 156a BF000000 		.4byte	0xbf
 8590 156e C3100000 		.4byte	.LLST105
 8591 1572 3A       		.uleb128 0x3a
 8592 1573 C0360000 		.4byte	0x36c0
 8593 1577 C0020000 		.4byte	.LBB1292
 8594 157b 20050000 		.4byte	.Ldebug_ranges0+0x520
 8595 157f 01       		.byte	0x1
 8596 1580 AE02     		.2byte	0x2ae
 8597 1582 31       		.uleb128 0x31
 8598 1583 D9360000 		.4byte	0x36d9
 8599 1587 50110000 		.4byte	.LLST106
 8600 158b 31       		.uleb128 0x31
 8601 158c D0360000 		.4byte	0x36d0
 8602 1590 D1110000 		.4byte	.LLST107
 8603 1594 39       		.uleb128 0x39
 8604 1595 20050000 		.4byte	.Ldebug_ranges0+0x520
 8605 1599 33       		.uleb128 0x33
 8606 159a E2360000 		.4byte	0x36e2
 8607 159e 35       		.uleb128 0x35
ARM GAS  /tmp/ccMboyVS.s 			page 152


 8608 159f ED360000 		.4byte	0x36ed
 8609 15a3 3C120000 		.4byte	.LLST108
 8610 15a7 3B       		.uleb128 0x3b
 8611 15a8 59380000 		.4byte	0x3859
 8612 15ac C0020000 		.4byte	.LBB1294
 8613 15b0 90050000 		.4byte	.Ldebug_ranges0+0x590
 8614 15b4 01       		.byte	0x1
 8615 15b5 2A       		.byte	0x2a
 8616 15b6 32160000 		.4byte	0x1632
 8617 15ba 31       		.uleb128 0x31
 8618 15bb 6A380000 		.4byte	0x386a
 8619 15bf 64120000 		.4byte	.LLST109
 8620 15c3 39       		.uleb128 0x39
 8621 15c4 90050000 		.4byte	.Ldebug_ranges0+0x590
 8622 15c8 35       		.uleb128 0x35
 8623 15c9 74380000 		.4byte	0x3874
 8624 15cd 8A120000 		.4byte	.LLST110
 8625 15d1 35       		.uleb128 0x35
 8626 15d2 7E380000 		.4byte	0x387e
 8627 15d6 A8120000 		.4byte	.LLST111
 8628 15da 36       		.uleb128 0x36
 8629 15db 29390000 		.4byte	0x3929
 8630 15df C0020000 		.4byte	.LBB1296
 8631 15e3 B0050000 		.4byte	.Ldebug_ranges0+0x5b0
 8632 15e7 02       		.byte	0x2
 8633 15e8 FD01     		.2byte	0x1fd
 8634 15ea 01160000 		.4byte	0x1601
 8635 15ee 31       		.uleb128 0x31
 8636 15ef 44390000 		.4byte	0x3944
 8637 15f3 C6120000 		.4byte	.LLST112
 8638 15f7 31       		.uleb128 0x31
 8639 15f8 3A390000 		.4byte	0x393a
 8640 15fc DC120000 		.4byte	.LLST113
 8641 1600 00       		.byte	0
 8642 1601 36       		.uleb128 0x36
 8643 1602 6B390000 		.4byte	0x396b
 8644 1606 C2090000 		.4byte	.LBB1299
 8645 160a C8050000 		.4byte	.Ldebug_ranges0+0x5c8
 8646 160e 02       		.byte	0x2
 8647 160f FC01     		.2byte	0x1fc
 8648 1611 1F160000 		.4byte	0x161f
 8649 1615 31       		.uleb128 0x31
 8650 1616 7C390000 		.4byte	0x397c
 8651 161a EF120000 		.4byte	.LLST114
 8652 161e 00       		.byte	0
 8653 161f 30       		.uleb128 0x30
 8654 1620 C2090000 		.4byte	.LVL311
 8655 1624 F23C0000 		.4byte	0x3cf2
 8656 1628 2F       		.uleb128 0x2f
 8657 1629 01       		.uleb128 0x1
 8658 162a 51       		.byte	0x51
 8659 162b 03       		.uleb128 0x3
 8660 162c 0A       		.byte	0xa
 8661 162d 3002     		.2byte	0x230
 8662 162f 00       		.byte	0
 8663 1630 00       		.byte	0
 8664 1631 00       		.byte	0
ARM GAS  /tmp/ccMboyVS.s 			page 153


 8665 1632 3B       		.uleb128 0x3b
 8666 1633 AF380000 		.4byte	0x38af
 8667 1637 C6020000 		.4byte	.LBB1306
 8668 163b E0050000 		.4byte	.Ldebug_ranges0+0x5e0
 8669 163f 01       		.byte	0x1
 8670 1640 29       		.byte	0x29
 8671 1641 B4160000 		.4byte	0x16b4
 8672 1645 31       		.uleb128 0x31
 8673 1646 C0380000 		.4byte	0x38c0
 8674 164a 02130000 		.4byte	.LLST115
 8675 164e 39       		.uleb128 0x39
 8676 164f E0050000 		.4byte	.Ldebug_ranges0+0x5e0
 8677 1653 35       		.uleb128 0x35
 8678 1654 CA380000 		.4byte	0x38ca
 8679 1658 25130000 		.4byte	.LLST116
 8680 165c 36       		.uleb128 0x36
 8681 165d 29390000 		.4byte	0x3929
 8682 1661 C6020000 		.4byte	.LBB1308
 8683 1665 00060000 		.4byte	.Ldebug_ranges0+0x600
 8684 1669 02       		.byte	0x2
 8685 166a EF01     		.2byte	0x1ef
 8686 166c 83160000 		.4byte	0x1683
 8687 1670 31       		.uleb128 0x31
 8688 1671 44390000 		.4byte	0x3944
 8689 1675 43130000 		.4byte	.LLST117
 8690 1679 31       		.uleb128 0x31
 8691 167a 3A390000 		.4byte	0x393a
 8692 167e 59130000 		.4byte	.LLST118
 8693 1682 00       		.byte	0
 8694 1683 36       		.uleb128 0x36
 8695 1684 6B390000 		.4byte	0x396b
 8696 1688 9C0B0000 		.4byte	.LBB1311
 8697 168c 18060000 		.4byte	.Ldebug_ranges0+0x618
 8698 1690 02       		.byte	0x2
 8699 1691 EE01     		.2byte	0x1ee
 8700 1693 A1160000 		.4byte	0x16a1
 8701 1697 31       		.uleb128 0x31
 8702 1698 7C390000 		.4byte	0x397c
 8703 169c 6C130000 		.4byte	.LLST119
 8704 16a0 00       		.byte	0
 8705 16a1 30       		.uleb128 0x30
 8706 16a2 9C0B0000 		.4byte	.LVL382
 8707 16a6 F23C0000 		.4byte	0x3cf2
 8708 16aa 2F       		.uleb128 0x2f
 8709 16ab 01       		.uleb128 0x1
 8710 16ac 51       		.byte	0x51
 8711 16ad 03       		.uleb128 0x3
 8712 16ae 0A       		.byte	0xa
 8713 16af 1002     		.2byte	0x210
 8714 16b1 00       		.byte	0
 8715 16b2 00       		.byte	0
 8716 16b3 00       		.byte	0
 8717 16b4 3B       		.uleb128 0x3b
 8718 16b5 3B370000 		.4byte	0x373b
 8719 16b9 D2020000 		.4byte	.LBB1318
 8720 16bd 30060000 		.4byte	.Ldebug_ranges0+0x630
 8721 16c1 01       		.byte	0x1
ARM GAS  /tmp/ccMboyVS.s 			page 154


 8722 16c2 20       		.byte	0x20
 8723 16c3 F2160000 		.4byte	0x16f2
 8724 16c7 31       		.uleb128 0x31
 8725 16c8 4C370000 		.4byte	0x374c
 8726 16cc 7F130000 		.4byte	.LLST120
 8727 16d0 39       		.uleb128 0x39
 8728 16d1 30060000 		.4byte	.Ldebug_ranges0+0x630
 8729 16d5 33       		.uleb128 0x33
 8730 16d6 56370000 		.4byte	0x3756
 8731 16da 34       		.uleb128 0x34
 8732 16db 6B390000 		.4byte	0x396b
 8733 16df D2020000 		.4byte	.LBB1320
 8734 16e3 0C000000 		.4byte	.LBE1320-.LBB1320
 8735 16e7 02       		.byte	0x2
 8736 16e8 3002     		.2byte	0x230
 8737 16ea 2C       		.uleb128 0x2c
 8738 16eb 7C390000 		.4byte	0x397c
 8739 16ef 00       		.byte	0
 8740 16f0 00       		.byte	0
 8741 16f1 00       		.byte	0
 8742 16f2 3B       		.uleb128 0x3b
 8743 16f3 3B370000 		.4byte	0x373b
 8744 16f7 C6050000 		.4byte	.LBB1324
 8745 16fb 48060000 		.4byte	.Ldebug_ranges0+0x648
 8746 16ff 01       		.byte	0x1
 8747 1700 20       		.byte	0x20
 8748 1701 34170000 		.4byte	0x1734
 8749 1705 31       		.uleb128 0x31
 8750 1706 4C370000 		.4byte	0x374c
 8751 170a 92130000 		.4byte	.LLST121
 8752 170e 39       		.uleb128 0x39
 8753 170f 48060000 		.4byte	.Ldebug_ranges0+0x648
 8754 1713 33       		.uleb128 0x33
 8755 1714 56370000 		.4byte	0x3756
 8756 1718 3A       		.uleb128 0x3a
 8757 1719 6B390000 		.4byte	0x396b
 8758 171d C6050000 		.4byte	.LBB1326
 8759 1721 60060000 		.4byte	.Ldebug_ranges0+0x660
 8760 1725 02       		.byte	0x2
 8761 1726 3002     		.2byte	0x230
 8762 1728 31       		.uleb128 0x31
 8763 1729 7C390000 		.4byte	0x397c
 8764 172d B0130000 		.4byte	.LLST122
 8765 1731 00       		.byte	0
 8766 1732 00       		.byte	0
 8767 1733 00       		.byte	0
 8768 1734 3C       		.uleb128 0x3c
 8769 1735 F1380000 		.4byte	0x38f1
 8770 1739 F8060000 		.4byte	.LBB1331
 8771 173d 0A000000 		.4byte	.LBE1331-.LBB1331
 8772 1741 01       		.byte	0x1
 8773 1742 26       		.byte	0x26
 8774 1743 51170000 		.4byte	0x1751
 8775 1747 31       		.uleb128 0x31
 8776 1748 02390000 		.4byte	0x3902
 8777 174c CE130000 		.4byte	.LLST123
 8778 1750 00       		.byte	0
ARM GAS  /tmp/ccMboyVS.s 			page 155


 8779 1751 3B       		.uleb128 0x3b
 8780 1752 89380000 		.4byte	0x3889
 8781 1756 1A0B0000 		.4byte	.LBB1335
 8782 175a 78060000 		.4byte	.Ldebug_ranges0+0x678
 8783 175e 01       		.byte	0x1
 8784 175f 28       		.byte	0x28
 8785 1760 D3170000 		.4byte	0x17d3
 8786 1764 31       		.uleb128 0x31
 8787 1765 9A380000 		.4byte	0x389a
 8788 1769 F1130000 		.4byte	.LLST124
 8789 176d 39       		.uleb128 0x39
 8790 176e 78060000 		.4byte	.Ldebug_ranges0+0x678
 8791 1772 35       		.uleb128 0x35
 8792 1773 A4380000 		.4byte	0x38a4
 8793 1777 14140000 		.4byte	.LLST125
 8794 177b 36       		.uleb128 0x36
 8795 177c 6B390000 		.4byte	0x396b
 8796 1780 240B0000 		.4byte	.LBB1337
 8797 1784 90060000 		.4byte	.Ldebug_ranges0+0x690
 8798 1788 02       		.byte	0x2
 8799 1789 F401     		.2byte	0x1f4
 8800 178b 99170000 		.4byte	0x1799
 8801 178f 31       		.uleb128 0x31
 8802 1790 7C390000 		.4byte	0x397c
 8803 1794 32140000 		.4byte	.LLST126
 8804 1798 00       		.byte	0
 8805 1799 2B       		.uleb128 0x2b
 8806 179a 29390000 		.4byte	0x3929
 8807 179e 340B0000 		.4byte	.LBB1341
 8808 17a2 10000000 		.4byte	.LBE1341-.LBB1341
 8809 17a6 02       		.byte	0x2
 8810 17a7 F501     		.2byte	0x1f5
 8811 17a9 C0170000 		.4byte	0x17c0
 8812 17ad 31       		.uleb128 0x31
 8813 17ae 44390000 		.4byte	0x3944
 8814 17b2 45140000 		.4byte	.LLST127
 8815 17b6 31       		.uleb128 0x31
 8816 17b7 3A390000 		.4byte	0x393a
 8817 17bb 5B140000 		.4byte	.LLST128
 8818 17bf 00       		.byte	0
 8819 17c0 30       		.uleb128 0x30
 8820 17c1 240B0000 		.4byte	.LVL361
 8821 17c5 F23C0000 		.4byte	0x3cf2
 8822 17c9 2F       		.uleb128 0x2f
 8823 17ca 01       		.uleb128 0x1
 8824 17cb 51       		.byte	0x51
 8825 17cc 03       		.uleb128 0x3
 8826 17cd 0A       		.byte	0xa
 8827 17ce 2002     		.2byte	0x220
 8828 17d0 00       		.byte	0
 8829 17d1 00       		.byte	0
 8830 17d2 00       		.byte	0
 8831 17d3 3C       		.uleb128 0x3c
 8832 17d4 D5380000 		.4byte	0x38d5
 8833 17d8 420C0000 		.4byte	.LBB1345
 8834 17dc 08000000 		.4byte	.LBE1345-.LBB1345
 8835 17e0 01       		.byte	0x1
ARM GAS  /tmp/ccMboyVS.s 			page 156


 8836 17e1 27       		.byte	0x27
 8837 17e2 F0170000 		.4byte	0x17f0
 8838 17e6 31       		.uleb128 0x31
 8839 17e7 E6380000 		.4byte	0x38e6
 8840 17eb 6E140000 		.4byte	.LLST129
 8841 17ef 00       		.byte	0
 8842 17f0 2E       		.uleb128 0x2e
 8843 17f1 EE060000 		.4byte	.LVL237
 8844 17f5 6C3D0000 		.4byte	0x3d6c
 8845 17f9 04180000 		.4byte	0x1804
 8846 17fd 2F       		.uleb128 0x2f
 8847 17fe 01       		.uleb128 0x1
 8848 17ff 50       		.byte	0x50
 8849 1800 02       		.uleb128 0x2
 8850 1801 74       		.byte	0x74
 8851 1802 00       		.sleb128 0
 8852 1803 00       		.byte	0
 8853 1804 2E       		.uleb128 0x2e
 8854 1805 F6060000 		.4byte	.LVL239
 8855 1809 6C3D0000 		.4byte	0x3d6c
 8856 180d 18180000 		.4byte	0x1818
 8857 1811 2F       		.uleb128 0x2f
 8858 1812 01       		.uleb128 0x1
 8859 1813 50       		.byte	0x50
 8860 1814 02       		.uleb128 0x2
 8861 1815 7B       		.byte	0x7b
 8862 1816 00       		.sleb128 0
 8863 1817 00       		.byte	0
 8864 1818 2E       		.uleb128 0x2e
 8865 1819 A8090000 		.4byte	.LVL308
 8866 181d 783D0000 		.4byte	0x3d78
 8867 1821 2C180000 		.4byte	0x182c
 8868 1825 2F       		.uleb128 0x2f
 8869 1826 01       		.uleb128 0x1
 8870 1827 50       		.byte	0x50
 8871 1828 02       		.uleb128 0x2
 8872 1829 74       		.byte	0x74
 8873 182a 00       		.sleb128 0
 8874 182b 00       		.byte	0
 8875 182c 2E       		.uleb128 0x2e
 8876 182d B2090000 		.4byte	.LVL309
 8877 1831 783D0000 		.4byte	0x3d78
 8878 1835 40180000 		.4byte	0x1840
 8879 1839 2F       		.uleb128 0x2f
 8880 183a 01       		.uleb128 0x1
 8881 183b 50       		.byte	0x50
 8882 183c 02       		.uleb128 0x2
 8883 183d 7B       		.byte	0x7b
 8884 183e 00       		.sleb128 0
 8885 183f 00       		.byte	0
 8886 1840 2E       		.uleb128 0x2e
 8887 1841 120B0000 		.4byte	.LVL357
 8888 1845 E63C0000 		.4byte	0x3ce6
 8889 1849 54180000 		.4byte	0x1854
 8890 184d 2F       		.uleb128 0x2f
 8891 184e 01       		.uleb128 0x1
 8892 184f 50       		.byte	0x50
ARM GAS  /tmp/ccMboyVS.s 			page 157


 8893 1850 02       		.uleb128 0x2
 8894 1851 74       		.byte	0x74
 8895 1852 00       		.sleb128 0
 8896 1853 00       		.byte	0
 8897 1854 2E       		.uleb128 0x2e
 8898 1855 1A0B0000 		.4byte	.LVL359
 8899 1859 E63C0000 		.4byte	0x3ce6
 8900 185d 68180000 		.4byte	0x1868
 8901 1861 2F       		.uleb128 0x2f
 8902 1862 01       		.uleb128 0x1
 8903 1863 50       		.byte	0x50
 8904 1864 02       		.uleb128 0x2
 8905 1865 7B       		.byte	0x7b
 8906 1866 00       		.sleb128 0
 8907 1867 00       		.byte	0
 8908 1868 2E       		.uleb128 0x2e
 8909 1869 8A0B0000 		.4byte	.LVL378
 8910 186d 6C3D0000 		.4byte	0x3d6c
 8911 1871 7C180000 		.4byte	0x187c
 8912 1875 2F       		.uleb128 0x2f
 8913 1876 01       		.uleb128 0x1
 8914 1877 50       		.byte	0x50
 8915 1878 02       		.uleb128 0x2
 8916 1879 74       		.byte	0x74
 8917 187a 00       		.sleb128 0
 8918 187b 00       		.byte	0
 8919 187c 2E       		.uleb128 0x2e
 8920 187d 920B0000 		.4byte	.LVL380
 8921 1881 6C3D0000 		.4byte	0x3d6c
 8922 1885 90180000 		.4byte	0x1890
 8923 1889 2F       		.uleb128 0x2f
 8924 188a 01       		.uleb128 0x1
 8925 188b 50       		.byte	0x50
 8926 188c 02       		.uleb128 0x2
 8927 188d 7B       		.byte	0x7b
 8928 188e 00       		.sleb128 0
 8929 188f 00       		.byte	0
 8930 1890 2E       		.uleb128 0x2e
 8931 1891 380C0000 		.4byte	.LVL412
 8932 1895 E63C0000 		.4byte	0x3ce6
 8933 1899 A4180000 		.4byte	0x18a4
 8934 189d 2F       		.uleb128 0x2f
 8935 189e 01       		.uleb128 0x1
 8936 189f 50       		.byte	0x50
 8937 18a0 02       		.uleb128 0x2
 8938 18a1 74       		.byte	0x74
 8939 18a2 00       		.sleb128 0
 8940 18a3 00       		.byte	0
 8941 18a4 30       		.uleb128 0x30
 8942 18a5 400C0000 		.4byte	.LVL414
 8943 18a9 E63C0000 		.4byte	0x3ce6
 8944 18ad 2F       		.uleb128 0x2f
 8945 18ae 01       		.uleb128 0x1
 8946 18af 50       		.byte	0x50
 8947 18b0 02       		.uleb128 0x2
 8948 18b1 7B       		.byte	0x7b
 8949 18b2 00       		.sleb128 0
ARM GAS  /tmp/ccMboyVS.s 			page 158


 8950 18b3 00       		.byte	0
 8951 18b4 00       		.byte	0
 8952 18b5 00       		.byte	0
 8953 18b6 00       		.byte	0
 8954 18b7 00       		.byte	0
 8955 18b8 28       		.uleb128 0x28
 8956 18b9 F8080000 		.4byte	.Ldebug_ranges0+0x8f8
 8957 18bd E31E0000 		.4byte	0x1ee3
 8958 18c1 29       		.uleb128 0x29
 8959 18c2 72657300 		.ascii	"res\000"
 8960 18c6 01       		.byte	0x1
 8961 18c7 B702     		.2byte	0x2b7
 8962 18c9 BF000000 		.4byte	0xbf
 8963 18cd 91140000 		.4byte	.LLST158
 8964 18d1 28       		.uleb128 0x28
 8965 18d2 68090000 		.4byte	.Ldebug_ranges0+0x968
 8966 18d6 2D1C0000 		.4byte	0x1c2d
 8967 18da 29       		.uleb128 0x29
 8968 18db 6900     		.ascii	"i\000"
 8969 18dd 01       		.byte	0x1
 8970 18de BC02     		.2byte	0x2bc
 8971 18e0 BF000000 		.4byte	0xbf
 8972 18e4 91150000 		.4byte	.LLST159
 8973 18e8 3A       		.uleb128 0x3a
 8974 18e9 A1350000 		.4byte	0x35a1
 8975 18ed F6030000 		.4byte	.LBB1489
 8976 18f1 C0090000 		.4byte	.Ldebug_ranges0+0x9c0
 8977 18f5 01       		.byte	0x1
 8978 18f6 BD02     		.2byte	0x2bd
 8979 18f8 31       		.uleb128 0x31
 8980 18f9 BA350000 		.4byte	0x35ba
 8981 18fd 08160000 		.4byte	.LLST160
 8982 1901 31       		.uleb128 0x31
 8983 1902 B1350000 		.4byte	0x35b1
 8984 1906 89160000 		.4byte	.LLST161
 8985 190a 39       		.uleb128 0x39
 8986 190b C0090000 		.4byte	.Ldebug_ranges0+0x9c0
 8987 190f 33       		.uleb128 0x33
 8988 1910 C3350000 		.4byte	0x35c3
 8989 1914 35       		.uleb128 0x35
 8990 1915 CE350000 		.4byte	0x35ce
 8991 1919 F4160000 		.4byte	.LLST162
 8992 191d 3B       		.uleb128 0x3b
 8993 191e 59380000 		.4byte	0x3859
 8994 1922 F6030000 		.4byte	.LBB1491
 8995 1926 200A0000 		.4byte	.Ldebug_ranges0+0xa20
 8996 192a 01       		.byte	0x1
 8997 192b 9A       		.byte	0x9a
 8998 192c A8190000 		.4byte	0x19a8
 8999 1930 31       		.uleb128 0x31
 9000 1931 6A380000 		.4byte	0x386a
 9001 1935 1C170000 		.4byte	.LLST163
 9002 1939 39       		.uleb128 0x39
 9003 193a 200A0000 		.4byte	.Ldebug_ranges0+0xa20
 9004 193e 35       		.uleb128 0x35
 9005 193f 74380000 		.4byte	0x3874
 9006 1943 42170000 		.4byte	.LLST164
ARM GAS  /tmp/ccMboyVS.s 			page 159


 9007 1947 35       		.uleb128 0x35
 9008 1948 7E380000 		.4byte	0x387e
 9009 194c 60170000 		.4byte	.LLST165
 9010 1950 36       		.uleb128 0x36
 9011 1951 29390000 		.4byte	0x3929
 9012 1955 F6030000 		.4byte	.LBB1493
 9013 1959 400A0000 		.4byte	.Ldebug_ranges0+0xa40
 9014 195d 02       		.byte	0x2
 9015 195e FD01     		.2byte	0x1fd
 9016 1960 77190000 		.4byte	0x1977
 9017 1964 31       		.uleb128 0x31
 9018 1965 44390000 		.4byte	0x3944
 9019 1969 7E170000 		.4byte	.LLST166
 9020 196d 31       		.uleb128 0x31
 9021 196e 3A390000 		.4byte	0x393a
 9022 1972 94170000 		.4byte	.LLST167
 9023 1976 00       		.byte	0
 9024 1977 36       		.uleb128 0x36
 9025 1978 6B390000 		.4byte	0x396b
 9026 197c 580A0000 		.4byte	.LBB1496
 9027 1980 580A0000 		.4byte	.Ldebug_ranges0+0xa58
 9028 1984 02       		.byte	0x2
 9029 1985 FC01     		.2byte	0x1fc
 9030 1987 95190000 		.4byte	0x1995
 9031 198b 31       		.uleb128 0x31
 9032 198c 7C390000 		.4byte	0x397c
 9033 1990 A7170000 		.4byte	.LLST168
 9034 1994 00       		.byte	0
 9035 1995 30       		.uleb128 0x30
 9036 1996 580A0000 		.4byte	.LVL329
 9037 199a F23C0000 		.4byte	0x3cf2
 9038 199e 2F       		.uleb128 0x2f
 9039 199f 01       		.uleb128 0x1
 9040 19a0 51       		.byte	0x51
 9041 19a1 03       		.uleb128 0x3
 9042 19a2 0A       		.byte	0xa
 9043 19a3 3002     		.2byte	0x230
 9044 19a5 00       		.byte	0
 9045 19a6 00       		.byte	0
 9046 19a7 00       		.byte	0
 9047 19a8 3B       		.uleb128 0x3b
 9048 19a9 AF380000 		.4byte	0x38af
 9049 19ad FE030000 		.4byte	.LBB1503
 9050 19b1 700A0000 		.4byte	.Ldebug_ranges0+0xa70
 9051 19b5 01       		.byte	0x1
 9052 19b6 99       		.byte	0x99
 9053 19b7 2A1A0000 		.4byte	0x1a2a
 9054 19bb 31       		.uleb128 0x31
 9055 19bc C0380000 		.4byte	0x38c0
 9056 19c0 BA170000 		.4byte	.LLST169
 9057 19c4 39       		.uleb128 0x39
 9058 19c5 700A0000 		.4byte	.Ldebug_ranges0+0xa70
 9059 19c9 35       		.uleb128 0x35
 9060 19ca CA380000 		.4byte	0x38ca
 9061 19ce DD170000 		.4byte	.LLST170
 9062 19d2 36       		.uleb128 0x36
 9063 19d3 29390000 		.4byte	0x3929
ARM GAS  /tmp/ccMboyVS.s 			page 160


 9064 19d7 FE030000 		.4byte	.LBB1505
 9065 19db 900A0000 		.4byte	.Ldebug_ranges0+0xa90
 9066 19df 02       		.byte	0x2
 9067 19e0 EF01     		.2byte	0x1ef
 9068 19e2 F9190000 		.4byte	0x19f9
 9069 19e6 31       		.uleb128 0x31
 9070 19e7 44390000 		.4byte	0x3944
 9071 19eb FB170000 		.4byte	.LLST171
 9072 19ef 31       		.uleb128 0x31
 9073 19f0 3A390000 		.4byte	0x393a
 9074 19f4 11180000 		.4byte	.LLST172
 9075 19f8 00       		.byte	0
 9076 19f9 36       		.uleb128 0x36
 9077 19fa 6B390000 		.4byte	0x396b
 9078 19fe 060D0000 		.4byte	.LBB1508
 9079 1a02 A80A0000 		.4byte	.Ldebug_ranges0+0xaa8
 9080 1a06 02       		.byte	0x2
 9081 1a07 EE01     		.2byte	0x1ee
 9082 1a09 171A0000 		.4byte	0x1a17
 9083 1a0d 31       		.uleb128 0x31
 9084 1a0e 7C390000 		.4byte	0x397c
 9085 1a12 24180000 		.4byte	.LLST173
 9086 1a16 00       		.byte	0
 9087 1a17 30       		.uleb128 0x30
 9088 1a18 060D0000 		.4byte	.LVL455
 9089 1a1c F23C0000 		.4byte	0x3cf2
 9090 1a20 2F       		.uleb128 0x2f
 9091 1a21 01       		.uleb128 0x1
 9092 1a22 51       		.byte	0x51
 9093 1a23 03       		.uleb128 0x3
 9094 1a24 0A       		.byte	0xa
 9095 1a25 1002     		.2byte	0x210
 9096 1a27 00       		.byte	0
 9097 1a28 00       		.byte	0
 9098 1a29 00       		.byte	0
 9099 1a2a 3B       		.uleb128 0x3b
 9100 1a2b 3B370000 		.4byte	0x373b
 9101 1a2f 08040000 		.4byte	.LBB1515
 9102 1a33 C00A0000 		.4byte	.Ldebug_ranges0+0xac0
 9103 1a37 01       		.byte	0x1
 9104 1a38 90       		.byte	0x90
 9105 1a39 681A0000 		.4byte	0x1a68
 9106 1a3d 31       		.uleb128 0x31
 9107 1a3e 4C370000 		.4byte	0x374c
 9108 1a42 37180000 		.4byte	.LLST174
 9109 1a46 39       		.uleb128 0x39
 9110 1a47 C00A0000 		.4byte	.Ldebug_ranges0+0xac0
 9111 1a4b 33       		.uleb128 0x33
 9112 1a4c 56370000 		.4byte	0x3756
 9113 1a50 34       		.uleb128 0x34
 9114 1a51 6B390000 		.4byte	0x396b
 9115 1a55 08040000 		.4byte	.LBB1517
 9116 1a59 0C000000 		.4byte	.LBE1517-.LBB1517
 9117 1a5d 02       		.byte	0x2
 9118 1a5e 3002     		.2byte	0x230
 9119 1a60 2C       		.uleb128 0x2c
 9120 1a61 7C390000 		.4byte	0x397c
ARM GAS  /tmp/ccMboyVS.s 			page 161


 9121 1a65 00       		.byte	0
 9122 1a66 00       		.byte	0
 9123 1a67 00       		.byte	0
 9124 1a68 3B       		.uleb128 0x3b
 9125 1a69 3B370000 		.4byte	0x373b
 9126 1a6d 48060000 		.4byte	.LBB1521
 9127 1a71 D80A0000 		.4byte	.Ldebug_ranges0+0xad8
 9128 1a75 01       		.byte	0x1
 9129 1a76 90       		.byte	0x90
 9130 1a77 AA1A0000 		.4byte	0x1aaa
 9131 1a7b 31       		.uleb128 0x31
 9132 1a7c 4C370000 		.4byte	0x374c
 9133 1a80 4A180000 		.4byte	.LLST175
 9134 1a84 39       		.uleb128 0x39
 9135 1a85 D80A0000 		.4byte	.Ldebug_ranges0+0xad8
 9136 1a89 33       		.uleb128 0x33
 9137 1a8a 56370000 		.4byte	0x3756
 9138 1a8e 3A       		.uleb128 0x3a
 9139 1a8f 6B390000 		.4byte	0x396b
 9140 1a93 48060000 		.4byte	.LBB1523
 9141 1a97 F00A0000 		.4byte	.Ldebug_ranges0+0xaf0
 9142 1a9b 02       		.byte	0x2
 9143 1a9c 3002     		.2byte	0x230
 9144 1a9e 31       		.uleb128 0x31
 9145 1a9f 7C390000 		.4byte	0x397c
 9146 1aa3 68180000 		.4byte	.LLST176
 9147 1aa7 00       		.byte	0
 9148 1aa8 00       		.byte	0
 9149 1aa9 00       		.byte	0
 9150 1aaa 3C       		.uleb128 0x3c
 9151 1aab F1380000 		.4byte	0x38f1
 9152 1aaf 8E070000 		.4byte	.LBB1528
 9153 1ab3 0A000000 		.4byte	.LBE1528-.LBB1528
 9154 1ab7 01       		.byte	0x1
 9155 1ab8 96       		.byte	0x96
 9156 1ab9 C71A0000 		.4byte	0x1ac7
 9157 1abd 31       		.uleb128 0x31
 9158 1abe 02390000 		.4byte	0x3902
 9159 1ac2 86180000 		.4byte	.LLST177
 9160 1ac6 00       		.byte	0
 9161 1ac7 3C       		.uleb128 0x3c
 9162 1ac8 D5380000 		.4byte	0x38d5
 9163 1acc 340D0000 		.4byte	.LBB1533
 9164 1ad0 08000000 		.4byte	.LBE1533-.LBB1533
 9165 1ad4 01       		.byte	0x1
 9166 1ad5 97       		.byte	0x97
 9167 1ad6 E41A0000 		.4byte	0x1ae4
 9168 1ada 31       		.uleb128 0x31
 9169 1adb E6380000 		.4byte	0x38e6
 9170 1adf A9180000 		.4byte	.LLST178
 9171 1ae3 00       		.byte	0
 9172 1ae4 3B       		.uleb128 0x3b
 9173 1ae5 89380000 		.4byte	0x3889
 9174 1ae9 4A0D0000 		.4byte	.LBB1535
 9175 1aed 080B0000 		.4byte	.Ldebug_ranges0+0xb08
 9176 1af1 01       		.byte	0x1
 9177 1af2 98       		.byte	0x98
ARM GAS  /tmp/ccMboyVS.s 			page 162


 9178 1af3 661B0000 		.4byte	0x1b66
 9179 1af7 31       		.uleb128 0x31
 9180 1af8 9A380000 		.4byte	0x389a
 9181 1afc CC180000 		.4byte	.LLST179
 9182 1b00 39       		.uleb128 0x39
 9183 1b01 080B0000 		.4byte	.Ldebug_ranges0+0xb08
 9184 1b05 35       		.uleb128 0x35
 9185 1b06 A4380000 		.4byte	0x38a4
 9186 1b0a EF180000 		.4byte	.LLST180
 9187 1b0e 2B       		.uleb128 0x2b
 9188 1b0f 6B390000 		.4byte	0x396b
 9189 1b13 560D0000 		.4byte	.LBB1537
 9190 1b17 06000000 		.4byte	.LBE1537-.LBB1537
 9191 1b1b 02       		.byte	0x2
 9192 1b1c F401     		.2byte	0x1f4
 9193 1b1e 2C1B0000 		.4byte	0x1b2c
 9194 1b22 31       		.uleb128 0x31
 9195 1b23 7C390000 		.4byte	0x397c
 9196 1b27 18190000 		.4byte	.LLST181
 9197 1b2b 00       		.byte	0
 9198 1b2c 2B       		.uleb128 0x2b
 9199 1b2d 29390000 		.4byte	0x3929
 9200 1b31 640D0000 		.4byte	.LBB1539
 9201 1b35 12000000 		.4byte	.LBE1539-.LBB1539
 9202 1b39 02       		.byte	0x2
 9203 1b3a F501     		.2byte	0x1f5
 9204 1b3c 531B0000 		.4byte	0x1b53
 9205 1b40 31       		.uleb128 0x31
 9206 1b41 44390000 		.4byte	0x3944
 9207 1b45 36190000 		.4byte	.LLST182
 9208 1b49 31       		.uleb128 0x31
 9209 1b4a 3A390000 		.4byte	0x393a
 9210 1b4e 4C190000 		.4byte	.LLST183
 9211 1b52 00       		.byte	0
 9212 1b53 30       		.uleb128 0x30
 9213 1b54 540D0000 		.4byte	.LVL472
 9214 1b58 F23C0000 		.4byte	0x3cf2
 9215 1b5c 2F       		.uleb128 0x2f
 9216 1b5d 01       		.uleb128 0x1
 9217 1b5e 51       		.byte	0x51
 9218 1b5f 03       		.uleb128 0x3
 9219 1b60 0A       		.byte	0xa
 9220 1b61 2002     		.2byte	0x220
 9221 1b63 00       		.byte	0
 9222 1b64 00       		.byte	0
 9223 1b65 00       		.byte	0
 9224 1b66 2E       		.uleb128 0x2e
 9225 1b67 84070000 		.4byte	.LVL255
 9226 1b6b 6C3D0000 		.4byte	0x3d6c
 9227 1b6f 7A1B0000 		.4byte	0x1b7a
 9228 1b73 2F       		.uleb128 0x2f
 9229 1b74 01       		.uleb128 0x1
 9230 1b75 50       		.byte	0x50
 9231 1b76 02       		.uleb128 0x2
 9232 1b77 74       		.byte	0x74
 9233 1b78 00       		.sleb128 0
 9234 1b79 00       		.byte	0
ARM GAS  /tmp/ccMboyVS.s 			page 163


 9235 1b7a 2E       		.uleb128 0x2e
 9236 1b7b 8C070000 		.4byte	.LVL257
 9237 1b7f 6C3D0000 		.4byte	0x3d6c
 9238 1b83 8E1B0000 		.4byte	0x1b8e
 9239 1b87 2F       		.uleb128 0x2f
 9240 1b88 01       		.uleb128 0x1
 9241 1b89 50       		.byte	0x50
 9242 1b8a 02       		.uleb128 0x2
 9243 1b8b 77       		.byte	0x77
 9244 1b8c 00       		.sleb128 0
 9245 1b8d 00       		.byte	0
 9246 1b8e 2E       		.uleb128 0x2e
 9247 1b8f 3E0A0000 		.4byte	.LVL326
 9248 1b93 783D0000 		.4byte	0x3d78
 9249 1b97 A21B0000 		.4byte	0x1ba2
 9250 1b9b 2F       		.uleb128 0x2f
 9251 1b9c 01       		.uleb128 0x1
 9252 1b9d 50       		.byte	0x50
 9253 1b9e 02       		.uleb128 0x2
 9254 1b9f 74       		.byte	0x74
 9255 1ba0 00       		.sleb128 0
 9256 1ba1 00       		.byte	0
 9257 1ba2 2E       		.uleb128 0x2e
 9258 1ba3 480A0000 		.4byte	.LVL327
 9259 1ba7 783D0000 		.4byte	0x3d78
 9260 1bab B61B0000 		.4byte	0x1bb6
 9261 1baf 2F       		.uleb128 0x2f
 9262 1bb0 01       		.uleb128 0x1
 9263 1bb1 50       		.byte	0x50
 9264 1bb2 02       		.uleb128 0x2
 9265 1bb3 77       		.byte	0x77
 9266 1bb4 00       		.sleb128 0
 9267 1bb5 00       		.byte	0
 9268 1bb6 2E       		.uleb128 0x2e
 9269 1bb7 F40C0000 		.4byte	.LVL451
 9270 1bbb 6C3D0000 		.4byte	0x3d6c
 9271 1bbf CA1B0000 		.4byte	0x1bca
 9272 1bc3 2F       		.uleb128 0x2f
 9273 1bc4 01       		.uleb128 0x1
 9274 1bc5 50       		.byte	0x50
 9275 1bc6 02       		.uleb128 0x2
 9276 1bc7 74       		.byte	0x74
 9277 1bc8 00       		.sleb128 0
 9278 1bc9 00       		.byte	0
 9279 1bca 2E       		.uleb128 0x2e
 9280 1bcb FC0C0000 		.4byte	.LVL453
 9281 1bcf 6C3D0000 		.4byte	0x3d6c
 9282 1bd3 DE1B0000 		.4byte	0x1bde
 9283 1bd7 2F       		.uleb128 0x2f
 9284 1bd8 01       		.uleb128 0x1
 9285 1bd9 50       		.byte	0x50
 9286 1bda 02       		.uleb128 0x2
 9287 1bdb 77       		.byte	0x77
 9288 1bdc 00       		.sleb128 0
 9289 1bdd 00       		.byte	0
 9290 1bde 2E       		.uleb128 0x2e
 9291 1bdf 2A0D0000 		.4byte	.LVL461
ARM GAS  /tmp/ccMboyVS.s 			page 164


 9292 1be3 E63C0000 		.4byte	0x3ce6
 9293 1be7 F21B0000 		.4byte	0x1bf2
 9294 1beb 2F       		.uleb128 0x2f
 9295 1bec 01       		.uleb128 0x1
 9296 1bed 50       		.byte	0x50
 9297 1bee 02       		.uleb128 0x2
 9298 1bef 74       		.byte	0x74
 9299 1bf0 00       		.sleb128 0
 9300 1bf1 00       		.byte	0
 9301 1bf2 2E       		.uleb128 0x2e
 9302 1bf3 320D0000 		.4byte	.LVL463
 9303 1bf7 E63C0000 		.4byte	0x3ce6
 9304 1bfb 061C0000 		.4byte	0x1c06
 9305 1bff 2F       		.uleb128 0x2f
 9306 1c00 01       		.uleb128 0x1
 9307 1c01 50       		.byte	0x50
 9308 1c02 02       		.uleb128 0x2
 9309 1c03 77       		.byte	0x77
 9310 1c04 00       		.sleb128 0
 9311 1c05 00       		.byte	0
 9312 1c06 2E       		.uleb128 0x2e
 9313 1c07 420D0000 		.4byte	.LVL468
 9314 1c0b E63C0000 		.4byte	0x3ce6
 9315 1c0f 1A1C0000 		.4byte	0x1c1a
 9316 1c13 2F       		.uleb128 0x2f
 9317 1c14 01       		.uleb128 0x1
 9318 1c15 50       		.byte	0x50
 9319 1c16 02       		.uleb128 0x2
 9320 1c17 74       		.byte	0x74
 9321 1c18 00       		.sleb128 0
 9322 1c19 00       		.byte	0
 9323 1c1a 30       		.uleb128 0x30
 9324 1c1b 4A0D0000 		.4byte	.LVL470
 9325 1c1f E63C0000 		.4byte	0x3ce6
 9326 1c23 2F       		.uleb128 0x2f
 9327 1c24 01       		.uleb128 0x1
 9328 1c25 50       		.byte	0x50
 9329 1c26 02       		.uleb128 0x2
 9330 1c27 77       		.byte	0x77
 9331 1c28 00       		.sleb128 0
 9332 1c29 00       		.byte	0
 9333 1c2a 00       		.byte	0
 9334 1c2b 00       		.byte	0
 9335 1c2c 00       		.byte	0
 9336 1c2d 3A       		.uleb128 0x3a
 9337 1c2e D8350000 		.4byte	0x35d8
 9338 1c32 2C120000 		.4byte	.LBB1572
 9339 1c36 200B0000 		.4byte	.Ldebug_ranges0+0xb20
 9340 1c3a 01       		.byte	0x1
 9341 1c3b BA02     		.2byte	0x2ba
 9342 1c3d 31       		.uleb128 0x31
 9343 1c3e E8350000 		.4byte	0x35e8
 9344 1c42 5F190000 		.4byte	.LLST184
 9345 1c46 39       		.uleb128 0x39
 9346 1c47 200B0000 		.4byte	.Ldebug_ranges0+0xb20
 9347 1c4b 33       		.uleb128 0x33
 9348 1c4c F1350000 		.4byte	0x35f1
ARM GAS  /tmp/ccMboyVS.s 			page 165


 9349 1c50 33       		.uleb128 0x33
 9350 1c51 FC350000 		.4byte	0x35fc
 9351 1c55 33       		.uleb128 0x33
 9352 1c56 06360000 		.4byte	0x3606
 9353 1c5a 35       		.uleb128 0x35
 9354 1c5b 10360000 		.4byte	0x3610
 9355 1c5f E4190000 		.4byte	.LLST185
 9356 1c63 3C       		.uleb128 0x3c
 9357 1c64 6B390000 		.4byte	0x396b
 9358 1c68 2C120000 		.4byte	.LBB1574
 9359 1c6c 0C000000 		.4byte	.LBE1574-.LBB1574
 9360 1c70 01       		.byte	0x1
 9361 1c71 6F       		.byte	0x6f
 9362 1c72 801C0000 		.4byte	0x1c80
 9363 1c76 31       		.uleb128 0x31
 9364 1c77 7C390000 		.4byte	0x397c
 9365 1c7b 061A0000 		.4byte	.LLST186
 9366 1c7f 00       		.byte	0
 9367 1c80 3C       		.uleb128 0x3c
 9368 1c81 F1380000 		.4byte	0x38f1
 9369 1c85 5A120000 		.4byte	.LBB1576
 9370 1c89 0A000000 		.4byte	.LBE1576-.LBB1576
 9371 1c8d 01       		.byte	0x1
 9372 1c8e 73       		.byte	0x73
 9373 1c8f 9D1C0000 		.4byte	0x1c9d
 9374 1c93 31       		.uleb128 0x31
 9375 1c94 02390000 		.4byte	0x3902
 9376 1c98 191A0000 		.4byte	.LLST187
 9377 1c9c 00       		.byte	0
 9378 1c9d 3C       		.uleb128 0x3c
 9379 1c9e 99370000 		.4byte	0x3799
 9380 1ca2 88140000 		.4byte	.LBB1578
 9381 1ca6 06000000 		.4byte	.LBE1578-.LBB1578
 9382 1caa 01       		.byte	0x1
 9383 1cab 82       		.byte	0x82
 9384 1cac DE1C0000 		.4byte	0x1cde
 9385 1cb0 31       		.uleb128 0x31
 9386 1cb1 AA370000 		.4byte	0x37aa
 9387 1cb5 421A0000 		.4byte	.LLST188
 9388 1cb9 32       		.uleb128 0x32
 9389 1cba 88140000 		.4byte	.LBB1579
 9390 1cbe 06000000 		.4byte	.LBE1579-.LBB1579
 9391 1cc2 33       		.uleb128 0x33
 9392 1cc3 B4370000 		.4byte	0x37b4
 9393 1cc7 33       		.uleb128 0x33
 9394 1cc8 C0370000 		.4byte	0x37c0
 9395 1ccc 30       		.uleb128 0x30
 9396 1ccd 8E140000 		.4byte	.LVL708
 9397 1cd1 FE3C0000 		.4byte	0x3cfe
 9398 1cd5 2F       		.uleb128 0x2f
 9399 1cd6 01       		.uleb128 0x1
 9400 1cd7 50       		.byte	0x50
 9401 1cd8 02       		.uleb128 0x2
 9402 1cd9 74       		.byte	0x74
 9403 1cda 00       		.sleb128 0
 9404 1cdb 00       		.byte	0
 9405 1cdc 00       		.byte	0
ARM GAS  /tmp/ccMboyVS.s 			page 166


 9406 1cdd 00       		.byte	0
 9407 1cde 3C       		.uleb128 0x3c
 9408 1cdf 59380000 		.4byte	0x3859
 9409 1ce3 8E140000 		.4byte	.LBB1580
 9410 1ce7 34000000 		.4byte	.LBE1580-.LBB1580
 9411 1ceb 01       		.byte	0x1
 9412 1cec 85       		.byte	0x85
 9413 1ced 691D0000 		.4byte	0x1d69
 9414 1cf1 31       		.uleb128 0x31
 9415 1cf2 6A380000 		.4byte	0x386a
 9416 1cf6 E4190000 		.4byte	.LLST185
 9417 1cfa 32       		.uleb128 0x32
 9418 1cfb 8E140000 		.4byte	.LBB1581
 9419 1cff 34000000 		.4byte	.LBE1581-.LBB1581
 9420 1d03 35       		.uleb128 0x35
 9421 1d04 74380000 		.4byte	0x3874
 9422 1d08 551A0000 		.4byte	.LLST190
 9423 1d0c 35       		.uleb128 0x35
 9424 1d0d 7E380000 		.4byte	0x387e
 9425 1d11 701A0000 		.4byte	.LLST191
 9426 1d15 2B       		.uleb128 0x2b
 9427 1d16 6B390000 		.4byte	0x396b
 9428 1d1a 9A140000 		.4byte	.LBB1582
 9429 1d1e 0C000000 		.4byte	.LBE1582-.LBB1582
 9430 1d22 02       		.byte	0x2
 9431 1d23 FC01     		.2byte	0x1fc
 9432 1d25 2F1D0000 		.4byte	0x1d2f
 9433 1d29 2C       		.uleb128 0x2c
 9434 1d2a 7C390000 		.4byte	0x397c
 9435 1d2e 00       		.byte	0
 9436 1d2f 2B       		.uleb128 0x2b
 9437 1d30 29390000 		.4byte	0x3929
 9438 1d34 AE140000 		.4byte	.LBB1584
 9439 1d38 14000000 		.4byte	.LBE1584-.LBB1584
 9440 1d3c 02       		.byte	0x2
 9441 1d3d FD01     		.2byte	0x1fd
 9442 1d3f 561D0000 		.4byte	0x1d56
 9443 1d43 31       		.uleb128 0x31
 9444 1d44 44390000 		.4byte	0x3944
 9445 1d48 831A0000 		.4byte	.LLST192
 9446 1d4c 31       		.uleb128 0x31
 9447 1d4d 3A390000 		.4byte	0x393a
 9448 1d51 991A0000 		.4byte	.LLST193
 9449 1d55 00       		.byte	0
 9450 1d56 30       		.uleb128 0x30
 9451 1d57 9A140000 		.4byte	.LVL710
 9452 1d5b F23C0000 		.4byte	0x3cf2
 9453 1d5f 2F       		.uleb128 0x2f
 9454 1d60 01       		.uleb128 0x1
 9455 1d61 51       		.byte	0x51
 9456 1d62 03       		.uleb128 0x3
 9457 1d63 0A       		.byte	0xa
 9458 1d64 3002     		.2byte	0x230
 9459 1d66 00       		.byte	0
 9460 1d67 00       		.byte	0
 9461 1d68 00       		.byte	0
 9462 1d69 3C       		.uleb128 0x3c
ARM GAS  /tmp/ccMboyVS.s 			page 167


 9463 1d6a 61370000 		.4byte	0x3761
 9464 1d6e 4E150000 		.4byte	.LBB1586
 9465 1d72 06000000 		.4byte	.LBE1586-.LBB1586
 9466 1d76 01       		.byte	0x1
 9467 1d77 7E       		.byte	0x7e
 9468 1d78 961D0000 		.4byte	0x1d96
 9469 1d7c 31       		.uleb128 0x31
 9470 1d7d 72370000 		.4byte	0x3772
 9471 1d81 AC1A0000 		.4byte	.LLST194
 9472 1d85 30       		.uleb128 0x30
 9473 1d86 54150000 		.4byte	.LVL729
 9474 1d8a FE3C0000 		.4byte	0x3cfe
 9475 1d8e 2F       		.uleb128 0x2f
 9476 1d8f 01       		.uleb128 0x1
 9477 1d90 50       		.byte	0x50
 9478 1d91 02       		.uleb128 0x2
 9479 1d92 74       		.byte	0x74
 9480 1d93 00       		.sleb128 0
 9481 1d94 00       		.byte	0
 9482 1d95 00       		.byte	0
 9483 1d96 3C       		.uleb128 0x3c
 9484 1d97 AF380000 		.4byte	0x38af
 9485 1d9b 54150000 		.4byte	.LBB1588
 9486 1d9f 32000000 		.4byte	.LBE1588-.LBB1588
 9487 1da3 01       		.byte	0x1
 9488 1da4 7F       		.byte	0x7f
 9489 1da5 181E0000 		.4byte	0x1e18
 9490 1da9 31       		.uleb128 0x31
 9491 1daa C0380000 		.4byte	0x38c0
 9492 1dae BF1A0000 		.4byte	.LLST195
 9493 1db2 32       		.uleb128 0x32
 9494 1db3 54150000 		.4byte	.LBB1589
 9495 1db7 32000000 		.4byte	.LBE1589-.LBB1589
 9496 1dbb 35       		.uleb128 0x35
 9497 1dbc CA380000 		.4byte	0x38ca
 9498 1dc0 E01A0000 		.4byte	.LLST196
 9499 1dc4 2B       		.uleb128 0x2b
 9500 1dc5 6B390000 		.4byte	0x396b
 9501 1dc9 5E150000 		.4byte	.LBB1590
 9502 1dcd 0C000000 		.4byte	.LBE1590-.LBB1590
 9503 1dd1 02       		.byte	0x2
 9504 1dd2 EE01     		.2byte	0x1ee
 9505 1dd4 DE1D0000 		.4byte	0x1dde
 9506 1dd8 2C       		.uleb128 0x2c
 9507 1dd9 7C390000 		.4byte	0x397c
 9508 1ddd 00       		.byte	0
 9509 1dde 2B       		.uleb128 0x2b
 9510 1ddf 29390000 		.4byte	0x3929
 9511 1de3 72150000 		.4byte	.LBB1592
 9512 1de7 14000000 		.4byte	.LBE1592-.LBB1592
 9513 1deb 02       		.byte	0x2
 9514 1dec EF01     		.2byte	0x1ef
 9515 1dee 051E0000 		.4byte	0x1e05
 9516 1df2 31       		.uleb128 0x31
 9517 1df3 44390000 		.4byte	0x3944
 9518 1df7 F31A0000 		.4byte	.LLST197
 9519 1dfb 31       		.uleb128 0x31
ARM GAS  /tmp/ccMboyVS.s 			page 168


 9520 1dfc 3A390000 		.4byte	0x393a
 9521 1e00 091B0000 		.4byte	.LLST198
 9522 1e04 00       		.byte	0
 9523 1e05 30       		.uleb128 0x30
 9524 1e06 5E150000 		.4byte	.LVL731
 9525 1e0a F23C0000 		.4byte	0x3cf2
 9526 1e0e 2F       		.uleb128 0x2f
 9527 1e0f 01       		.uleb128 0x1
 9528 1e10 51       		.byte	0x51
 9529 1e11 03       		.uleb128 0x3
 9530 1e12 0A       		.byte	0xa
 9531 1e13 1002     		.2byte	0x210
 9532 1e15 00       		.byte	0
 9533 1e16 00       		.byte	0
 9534 1e17 00       		.byte	0
 9535 1e18 3C       		.uleb128 0x3c
 9536 1e19 7D370000 		.4byte	0x377d
 9537 1e1d 86150000 		.4byte	.LBB1594
 9538 1e21 06000000 		.4byte	.LBE1594-.LBB1594
 9539 1e25 01       		.byte	0x1
 9540 1e26 7A       		.byte	0x7a
 9541 1e27 451E0000 		.4byte	0x1e45
 9542 1e2b 31       		.uleb128 0x31
 9543 1e2c 8E370000 		.4byte	0x378e
 9544 1e30 1C1B0000 		.4byte	.LLST199
 9545 1e34 30       		.uleb128 0x30
 9546 1e35 8C150000 		.4byte	.LVL737
 9547 1e39 FE3C0000 		.4byte	0x3cfe
 9548 1e3d 2F       		.uleb128 0x2f
 9549 1e3e 01       		.uleb128 0x1
 9550 1e3f 50       		.byte	0x50
 9551 1e40 02       		.uleb128 0x2
 9552 1e41 74       		.byte	0x74
 9553 1e42 00       		.sleb128 0
 9554 1e43 00       		.byte	0
 9555 1e44 00       		.byte	0
 9556 1e45 3C       		.uleb128 0x3c
 9557 1e46 89380000 		.4byte	0x3889
 9558 1e4a 8C150000 		.4byte	.LBB1596
 9559 1e4e 32000000 		.4byte	.LBE1596-.LBB1596
 9560 1e52 01       		.byte	0x1
 9561 1e53 7B       		.byte	0x7b
 9562 1e54 C71E0000 		.4byte	0x1ec7
 9563 1e58 31       		.uleb128 0x31
 9564 1e59 9A380000 		.4byte	0x389a
 9565 1e5d 2F1B0000 		.4byte	.LLST200
 9566 1e61 32       		.uleb128 0x32
 9567 1e62 8C150000 		.4byte	.LBB1597
 9568 1e66 32000000 		.4byte	.LBE1597-.LBB1597
 9569 1e6a 35       		.uleb128 0x35
 9570 1e6b A4380000 		.4byte	0x38a4
 9571 1e6f 501B0000 		.4byte	.LLST201
 9572 1e73 2B       		.uleb128 0x2b
 9573 1e74 6B390000 		.4byte	0x396b
 9574 1e78 98150000 		.4byte	.LBB1598
 9575 1e7c 0C000000 		.4byte	.LBE1598-.LBB1598
 9576 1e80 02       		.byte	0x2
ARM GAS  /tmp/ccMboyVS.s 			page 169


 9577 1e81 F401     		.2byte	0x1f4
 9578 1e83 8D1E0000 		.4byte	0x1e8d
 9579 1e87 2C       		.uleb128 0x2c
 9580 1e88 7C390000 		.4byte	0x397c
 9581 1e8c 00       		.byte	0
 9582 1e8d 2B       		.uleb128 0x2b
 9583 1e8e 29390000 		.4byte	0x3929
 9584 1e92 AA150000 		.4byte	.LBB1600
 9585 1e96 14000000 		.4byte	.LBE1600-.LBB1600
 9586 1e9a 02       		.byte	0x2
 9587 1e9b F501     		.2byte	0x1f5
 9588 1e9d B41E0000 		.4byte	0x1eb4
 9589 1ea1 31       		.uleb128 0x31
 9590 1ea2 44390000 		.4byte	0x3944
 9591 1ea6 6E1B0000 		.4byte	.LLST202
 9592 1eaa 31       		.uleb128 0x31
 9593 1eab 3A390000 		.4byte	0x393a
 9594 1eaf 841B0000 		.4byte	.LLST203
 9595 1eb3 00       		.byte	0
 9596 1eb4 30       		.uleb128 0x30
 9597 1eb5 96150000 		.4byte	.LVL739
 9598 1eb9 F23C0000 		.4byte	0x3cf2
 9599 1ebd 2F       		.uleb128 0x2f
 9600 1ebe 01       		.uleb128 0x1
 9601 1ebf 51       		.byte	0x51
 9602 1ec0 03       		.uleb128 0x3
 9603 1ec1 0A       		.byte	0xa
 9604 1ec2 2002     		.2byte	0x220
 9605 1ec4 00       		.byte	0
 9606 1ec5 00       		.byte	0
 9607 1ec6 00       		.byte	0
 9608 1ec7 3D       		.uleb128 0x3d
 9609 1ec8 D5380000 		.4byte	0x38d5
 9610 1ecc C2150000 		.4byte	.LBB1602
 9611 1ed0 0A000000 		.4byte	.LBE1602-.LBB1602
 9612 1ed4 01       		.byte	0x1
 9613 1ed5 77       		.byte	0x77
 9614 1ed6 31       		.uleb128 0x31
 9615 1ed7 E6380000 		.4byte	0x38e6
 9616 1edb 971B0000 		.4byte	.LLST204
 9617 1edf 00       		.byte	0
 9618 1ee0 00       		.byte	0
 9619 1ee1 00       		.byte	0
 9620 1ee2 00       		.byte	0
 9621 1ee3 28       		.uleb128 0x28
 9622 1ee4 A8060000 		.4byte	.Ldebug_ranges0+0x6a8
 9623 1ee8 55220000 		.4byte	0x2255
 9624 1eec 27       		.uleb128 0x27
 9625 1eed 1A070000 		.4byte	.LASF149
 9626 1ef1 01       		.byte	0x1
 9627 1ef2 C602     		.2byte	0x2c6
 9628 1ef4 BF000000 		.4byte	0xbf
 9629 1ef8 C01B0000 		.4byte	.LLST130
 9630 1efc 39       		.uleb128 0x39
 9631 1efd 08070000 		.4byte	.Ldebug_ranges0+0x708
 9632 1f01 29       		.uleb128 0x29
 9633 1f02 6900     		.ascii	"i\000"
ARM GAS  /tmp/ccMboyVS.s 			page 170


 9634 1f04 01       		.byte	0x1
 9635 1f05 C702     		.2byte	0x2c7
 9636 1f07 BF000000 		.4byte	0xbf
 9637 1f0b 4F1C0000 		.4byte	.LLST131
 9638 1f0f 3A       		.uleb128 0x3a
 9639 1f10 89360000 		.4byte	0x3689
 9640 1f14 10030000 		.4byte	.LBB1387
 9641 1f18 70070000 		.4byte	.Ldebug_ranges0+0x770
 9642 1f1c 01       		.byte	0x1
 9643 1f1d C802     		.2byte	0x2c8
 9644 1f1f 31       		.uleb128 0x31
 9645 1f20 A2360000 		.4byte	0x36a2
 9646 1f24 DC1C0000 		.4byte	.LLST132
 9647 1f28 31       		.uleb128 0x31
 9648 1f29 99360000 		.4byte	0x3699
 9649 1f2d 681D0000 		.4byte	.LLST133
 9650 1f31 39       		.uleb128 0x39
 9651 1f32 70070000 		.4byte	.Ldebug_ranges0+0x770
 9652 1f36 33       		.uleb128 0x33
 9653 1f37 AB360000 		.4byte	0x36ab
 9654 1f3b 35       		.uleb128 0x35
 9655 1f3c B6360000 		.4byte	0x36b6
 9656 1f40 D31D0000 		.4byte	.LLST134
 9657 1f44 3B       		.uleb128 0x3b
 9658 1f45 59380000 		.4byte	0x3859
 9659 1f49 10030000 		.4byte	.LBB1389
 9660 1f4d E0070000 		.4byte	.Ldebug_ranges0+0x7e0
 9661 1f51 01       		.byte	0x1
 9662 1f52 3D       		.byte	0x3d
 9663 1f53 CF1F0000 		.4byte	0x1fcf
 9664 1f57 31       		.uleb128 0x31
 9665 1f58 6A380000 		.4byte	0x386a
 9666 1f5c FB1D0000 		.4byte	.LLST135
 9667 1f60 39       		.uleb128 0x39
 9668 1f61 E0070000 		.4byte	.Ldebug_ranges0+0x7e0
 9669 1f65 35       		.uleb128 0x35
 9670 1f66 74380000 		.4byte	0x3874
 9671 1f6a 211E0000 		.4byte	.LLST136
 9672 1f6e 35       		.uleb128 0x35
 9673 1f6f 7E380000 		.4byte	0x387e
 9674 1f73 3F1E0000 		.4byte	.LLST137
 9675 1f77 36       		.uleb128 0x36
 9676 1f78 29390000 		.4byte	0x3929
 9677 1f7c 10030000 		.4byte	.LBB1391
 9678 1f80 00080000 		.4byte	.Ldebug_ranges0+0x800
 9679 1f84 02       		.byte	0x2
 9680 1f85 FD01     		.2byte	0x1fd
 9681 1f87 9E1F0000 		.4byte	0x1f9e
 9682 1f8b 31       		.uleb128 0x31
 9683 1f8c 44390000 		.4byte	0x3944
 9684 1f90 5D1E0000 		.4byte	.LLST138
 9685 1f94 31       		.uleb128 0x31
 9686 1f95 3A390000 		.4byte	0x393a
 9687 1f99 731E0000 		.4byte	.LLST139
 9688 1f9d 00       		.byte	0
 9689 1f9e 36       		.uleb128 0x36
 9690 1f9f 6B390000 		.4byte	0x396b
ARM GAS  /tmp/ccMboyVS.s 			page 171


 9691 1fa3 0E0A0000 		.4byte	.LBB1394
 9692 1fa7 18080000 		.4byte	.Ldebug_ranges0+0x818
 9693 1fab 02       		.byte	0x2
 9694 1fac FC01     		.2byte	0x1fc
 9695 1fae BC1F0000 		.4byte	0x1fbc
 9696 1fb2 31       		.uleb128 0x31
 9697 1fb3 7C390000 		.4byte	0x397c
 9698 1fb7 861E0000 		.4byte	.LLST140
 9699 1fbb 00       		.byte	0
 9700 1fbc 30       		.uleb128 0x30
 9701 1fbd 0E0A0000 		.4byte	.LVL320
 9702 1fc1 F23C0000 		.4byte	0x3cf2
 9703 1fc5 2F       		.uleb128 0x2f
 9704 1fc6 01       		.uleb128 0x1
 9705 1fc7 51       		.byte	0x51
 9706 1fc8 03       		.uleb128 0x3
 9707 1fc9 0A       		.byte	0xa
 9708 1fca 3002     		.2byte	0x230
 9709 1fcc 00       		.byte	0
 9710 1fcd 00       		.byte	0
 9711 1fce 00       		.byte	0
 9712 1fcf 3B       		.uleb128 0x3b
 9713 1fd0 AF380000 		.4byte	0x38af
 9714 1fd4 16030000 		.4byte	.LBB1401
 9715 1fd8 30080000 		.4byte	.Ldebug_ranges0+0x830
 9716 1fdc 01       		.byte	0x1
 9717 1fdd 3C       		.byte	0x3c
 9718 1fde 51200000 		.4byte	0x2051
 9719 1fe2 31       		.uleb128 0x31
 9720 1fe3 C0380000 		.4byte	0x38c0
 9721 1fe7 991E0000 		.4byte	.LLST141
 9722 1feb 39       		.uleb128 0x39
 9723 1fec 30080000 		.4byte	.Ldebug_ranges0+0x830
 9724 1ff0 35       		.uleb128 0x35
 9725 1ff1 CA380000 		.4byte	0x38ca
 9726 1ff5 BC1E0000 		.4byte	.LLST142
 9727 1ff9 36       		.uleb128 0x36
 9728 1ffa 29390000 		.4byte	0x3929
 9729 1ffe 16030000 		.4byte	.LBB1403
 9730 2002 50080000 		.4byte	.Ldebug_ranges0+0x850
 9731 2006 02       		.byte	0x2
 9732 2007 EF01     		.2byte	0x1ef
 9733 2009 20200000 		.4byte	0x2020
 9734 200d 31       		.uleb128 0x31
 9735 200e 44390000 		.4byte	0x3944
 9736 2012 DA1E0000 		.4byte	.LLST143
 9737 2016 31       		.uleb128 0x31
 9738 2017 3A390000 		.4byte	0x393a
 9739 201b F01E0000 		.4byte	.LLST144
 9740 201f 00       		.byte	0
 9741 2020 36       		.uleb128 0x36
 9742 2021 6B390000 		.4byte	0x396b
 9743 2025 EC0B0000 		.4byte	.LBB1406
 9744 2029 68080000 		.4byte	.Ldebug_ranges0+0x868
 9745 202d 02       		.byte	0x2
 9746 202e EE01     		.2byte	0x1ee
 9747 2030 3E200000 		.4byte	0x203e
ARM GAS  /tmp/ccMboyVS.s 			page 172


 9748 2034 31       		.uleb128 0x31
 9749 2035 7C390000 		.4byte	0x397c
 9750 2039 031F0000 		.4byte	.LLST145
 9751 203d 00       		.byte	0
 9752 203e 30       		.uleb128 0x30
 9753 203f EC0B0000 		.4byte	.LVL399
 9754 2043 F23C0000 		.4byte	0x3cf2
 9755 2047 2F       		.uleb128 0x2f
 9756 2048 01       		.uleb128 0x1
 9757 2049 51       		.byte	0x51
 9758 204a 03       		.uleb128 0x3
 9759 204b 0A       		.byte	0xa
 9760 204c 1002     		.2byte	0x210
 9761 204e 00       		.byte	0
 9762 204f 00       		.byte	0
 9763 2050 00       		.byte	0
 9764 2051 3B       		.uleb128 0x3b
 9765 2052 3B370000 		.4byte	0x373b
 9766 2056 22030000 		.4byte	.LBB1413
 9767 205a 80080000 		.4byte	.Ldebug_ranges0+0x880
 9768 205e 01       		.byte	0x1
 9769 205f 33       		.byte	0x33
 9770 2060 8F200000 		.4byte	0x208f
 9771 2064 31       		.uleb128 0x31
 9772 2065 4C370000 		.4byte	0x374c
 9773 2069 161F0000 		.4byte	.LLST146
 9774 206d 39       		.uleb128 0x39
 9775 206e 80080000 		.4byte	.Ldebug_ranges0+0x880
 9776 2072 33       		.uleb128 0x33
 9777 2073 56370000 		.4byte	0x3756
 9778 2077 34       		.uleb128 0x34
 9779 2078 6B390000 		.4byte	0x396b
 9780 207c 22030000 		.4byte	.LBB1415
 9781 2080 0C000000 		.4byte	.LBE1415-.LBB1415
 9782 2084 02       		.byte	0x2
 9783 2085 3002     		.2byte	0x230
 9784 2087 2C       		.uleb128 0x2c
 9785 2088 7C390000 		.4byte	0x397c
 9786 208c 00       		.byte	0
 9787 208d 00       		.byte	0
 9788 208e 00       		.byte	0
 9789 208f 3B       		.uleb128 0x3b
 9790 2090 3B370000 		.4byte	0x373b
 9791 2094 1C060000 		.4byte	.LBB1419
 9792 2098 98080000 		.4byte	.Ldebug_ranges0+0x898
 9793 209c 01       		.byte	0x1
 9794 209d 33       		.byte	0x33
 9795 209e D1200000 		.4byte	0x20d1
 9796 20a2 31       		.uleb128 0x31
 9797 20a3 4C370000 		.4byte	0x374c
 9798 20a7 291F0000 		.4byte	.LLST147
 9799 20ab 39       		.uleb128 0x39
 9800 20ac 98080000 		.4byte	.Ldebug_ranges0+0x898
 9801 20b0 33       		.uleb128 0x33
 9802 20b1 56370000 		.4byte	0x3756
 9803 20b5 3A       		.uleb128 0x3a
 9804 20b6 6B390000 		.4byte	0x396b
ARM GAS  /tmp/ccMboyVS.s 			page 173


 9805 20ba 1C060000 		.4byte	.LBB1421
 9806 20be B0080000 		.4byte	.Ldebug_ranges0+0x8b0
 9807 20c2 02       		.byte	0x2
 9808 20c3 3002     		.2byte	0x230
 9809 20c5 31       		.uleb128 0x31
 9810 20c6 7C390000 		.4byte	0x397c
 9811 20ca 471F0000 		.4byte	.LLST148
 9812 20ce 00       		.byte	0
 9813 20cf 00       		.byte	0
 9814 20d0 00       		.byte	0
 9815 20d1 3C       		.uleb128 0x3c
 9816 20d2 F1380000 		.4byte	0x38f1
 9817 20d6 44070000 		.4byte	.LBB1426
 9818 20da 0A000000 		.4byte	.LBE1426-.LBB1426
 9819 20de 01       		.byte	0x1
 9820 20df 39       		.byte	0x39
 9821 20e0 EE200000 		.4byte	0x20ee
 9822 20e4 31       		.uleb128 0x31
 9823 20e5 02390000 		.4byte	0x3902
 9824 20e9 651F0000 		.4byte	.LLST149
 9825 20ed 00       		.byte	0
 9826 20ee 3C       		.uleb128 0x3c
 9827 20ef D5380000 		.4byte	0x38d5
 9828 20f3 CA0B0000 		.4byte	.LBB1430
 9829 20f7 08000000 		.4byte	.LBE1430-.LBB1430
 9830 20fb 01       		.byte	0x1
 9831 20fc 3A       		.byte	0x3a
 9832 20fd 0B210000 		.4byte	0x210b
 9833 2101 31       		.uleb128 0x31
 9834 2102 E6380000 		.4byte	0x38e6
 9835 2106 881F0000 		.4byte	.LLST150
 9836 210a 00       		.byte	0
 9837 210b 3B       		.uleb128 0x3b
 9838 210c 89380000 		.4byte	0x3889
 9839 2110 580C0000 		.4byte	.LBB1433
 9840 2114 C8080000 		.4byte	.Ldebug_ranges0+0x8c8
 9841 2118 01       		.byte	0x1
 9842 2119 3B       		.byte	0x3b
 9843 211a 8D210000 		.4byte	0x218d
 9844 211e 31       		.uleb128 0x31
 9845 211f 9A380000 		.4byte	0x389a
 9846 2123 AB1F0000 		.4byte	.LLST151
 9847 2127 39       		.uleb128 0x39
 9848 2128 C8080000 		.4byte	.Ldebug_ranges0+0x8c8
 9849 212c 35       		.uleb128 0x35
 9850 212d A4380000 		.4byte	0x38a4
 9851 2131 CE1F0000 		.4byte	.LLST152
 9852 2135 2B       		.uleb128 0x2b
 9853 2136 6B390000 		.4byte	0x396b
 9854 213a 660C0000 		.4byte	.LBB1435
 9855 213e 06000000 		.4byte	.LBE1435-.LBB1435
 9856 2142 02       		.byte	0x2
 9857 2143 F401     		.2byte	0x1f4
 9858 2145 53210000 		.4byte	0x2153
 9859 2149 31       		.uleb128 0x31
 9860 214a 7C390000 		.4byte	0x397c
 9861 214e F71F0000 		.4byte	.LLST153
ARM GAS  /tmp/ccMboyVS.s 			page 174


 9862 2152 00       		.byte	0
 9863 2153 2B       		.uleb128 0x2b
 9864 2154 29390000 		.4byte	0x3929
 9865 2158 740C0000 		.4byte	.LBB1437
 9866 215c 10000000 		.4byte	.LBE1437-.LBB1437
 9867 2160 02       		.byte	0x2
 9868 2161 F501     		.2byte	0x1f5
 9869 2163 7A210000 		.4byte	0x217a
 9870 2167 31       		.uleb128 0x31
 9871 2168 44390000 		.4byte	0x3944
 9872 216c 15200000 		.4byte	.LLST154
 9873 2170 31       		.uleb128 0x31
 9874 2171 3A390000 		.4byte	0x393a
 9875 2175 2B200000 		.4byte	.LLST155
 9876 2179 00       		.byte	0
 9877 217a 30       		.uleb128 0x30
 9878 217b 640C0000 		.4byte	.LVL423
 9879 217f F23C0000 		.4byte	0x3cf2
 9880 2183 2F       		.uleb128 0x2f
 9881 2184 01       		.uleb128 0x1
 9882 2185 51       		.byte	0x51
 9883 2186 03       		.uleb128 0x3
 9884 2187 0A       		.byte	0xa
 9885 2188 2002     		.2byte	0x220
 9886 218a 00       		.byte	0
 9887 218b 00       		.byte	0
 9888 218c 00       		.byte	0
 9889 218d 2E       		.uleb128 0x2e
 9890 218e 38070000 		.4byte	.LVL246
 9891 2192 6C3D0000 		.4byte	0x3d6c
 9892 2196 A1210000 		.4byte	0x21a1
 9893 219a 2F       		.uleb128 0x2f
 9894 219b 01       		.uleb128 0x1
 9895 219c 50       		.byte	0x50
 9896 219d 02       		.uleb128 0x2
 9897 219e 74       		.byte	0x74
 9898 219f 00       		.sleb128 0
 9899 21a0 00       		.byte	0
 9900 21a1 2E       		.uleb128 0x2e
 9901 21a2 40070000 		.4byte	.LVL248
 9902 21a6 6C3D0000 		.4byte	0x3d6c
 9903 21aa B5210000 		.4byte	0x21b5
 9904 21ae 2F       		.uleb128 0x2f
 9905 21af 01       		.uleb128 0x1
 9906 21b0 50       		.byte	0x50
 9907 21b1 02       		.uleb128 0x2
 9908 21b2 7B       		.byte	0x7b
 9909 21b3 00       		.sleb128 0
 9910 21b4 00       		.byte	0
 9911 21b5 2E       		.uleb128 0x2e
 9912 21b6 F4090000 		.4byte	.LVL317
 9913 21ba 783D0000 		.4byte	0x3d78
 9914 21be C9210000 		.4byte	0x21c9
 9915 21c2 2F       		.uleb128 0x2f
 9916 21c3 01       		.uleb128 0x1
 9917 21c4 50       		.byte	0x50
 9918 21c5 02       		.uleb128 0x2
ARM GAS  /tmp/ccMboyVS.s 			page 175


 9919 21c6 74       		.byte	0x74
 9920 21c7 00       		.sleb128 0
 9921 21c8 00       		.byte	0
 9922 21c9 2E       		.uleb128 0x2e
 9923 21ca FE090000 		.4byte	.LVL318
 9924 21ce 783D0000 		.4byte	0x3d78
 9925 21d2 DD210000 		.4byte	0x21dd
 9926 21d6 2F       		.uleb128 0x2f
 9927 21d7 01       		.uleb128 0x1
 9928 21d8 50       		.byte	0x50
 9929 21d9 02       		.uleb128 0x2
 9930 21da 7B       		.byte	0x7b
 9931 21db 00       		.sleb128 0
 9932 21dc 00       		.byte	0
 9933 21dd 2E       		.uleb128 0x2e
 9934 21de BE0B0000 		.4byte	.LVL388
 9935 21e2 E63C0000 		.4byte	0x3ce6
 9936 21e6 F1210000 		.4byte	0x21f1
 9937 21ea 2F       		.uleb128 0x2f
 9938 21eb 01       		.uleb128 0x1
 9939 21ec 50       		.byte	0x50
 9940 21ed 02       		.uleb128 0x2
 9941 21ee 74       		.byte	0x74
 9942 21ef 00       		.sleb128 0
 9943 21f0 00       		.byte	0
 9944 21f1 2E       		.uleb128 0x2e
 9945 21f2 C60B0000 		.4byte	.LVL390
 9946 21f6 E63C0000 		.4byte	0x3ce6
 9947 21fa 05220000 		.4byte	0x2205
 9948 21fe 2F       		.uleb128 0x2f
 9949 21ff 01       		.uleb128 0x1
 9950 2200 50       		.byte	0x50
 9951 2201 02       		.uleb128 0x2
 9952 2202 7B       		.byte	0x7b
 9953 2203 00       		.sleb128 0
 9954 2204 00       		.byte	0
 9955 2205 2E       		.uleb128 0x2e
 9956 2206 D80B0000 		.4byte	.LVL395
 9957 220a 6C3D0000 		.4byte	0x3d6c
 9958 220e 19220000 		.4byte	0x2219
 9959 2212 2F       		.uleb128 0x2f
 9960 2213 01       		.uleb128 0x1
 9961 2214 50       		.byte	0x50
 9962 2215 02       		.uleb128 0x2
 9963 2216 74       		.byte	0x74
 9964 2217 00       		.sleb128 0
 9965 2218 00       		.byte	0
 9966 2219 2E       		.uleb128 0x2e
 9967 221a E00B0000 		.4byte	.LVL397
 9968 221e 6C3D0000 		.4byte	0x3d6c
 9969 2222 2D220000 		.4byte	0x222d
 9970 2226 2F       		.uleb128 0x2f
 9971 2227 01       		.uleb128 0x1
 9972 2228 50       		.byte	0x50
 9973 2229 02       		.uleb128 0x2
 9974 222a 7B       		.byte	0x7b
 9975 222b 00       		.sleb128 0
ARM GAS  /tmp/ccMboyVS.s 			page 176


 9976 222c 00       		.byte	0
 9977 222d 2E       		.uleb128 0x2e
 9978 222e 500C0000 		.4byte	.LVL419
 9979 2232 E63C0000 		.4byte	0x3ce6
 9980 2236 41220000 		.4byte	0x2241
 9981 223a 2F       		.uleb128 0x2f
 9982 223b 01       		.uleb128 0x1
 9983 223c 50       		.byte	0x50
 9984 223d 02       		.uleb128 0x2
 9985 223e 74       		.byte	0x74
 9986 223f 00       		.sleb128 0
 9987 2240 00       		.byte	0
 9988 2241 30       		.uleb128 0x30
 9989 2242 580C0000 		.4byte	.LVL421
 9990 2246 E63C0000 		.4byte	0x3ce6
 9991 224a 2F       		.uleb128 0x2f
 9992 224b 01       		.uleb128 0x1
 9993 224c 50       		.byte	0x50
 9994 224d 02       		.uleb128 0x2
 9995 224e 7B       		.byte	0x7b
 9996 224f 00       		.sleb128 0
 9997 2250 00       		.byte	0
 9998 2251 00       		.byte	0
 9999 2252 00       		.byte	0
 10000 2253 00       		.byte	0
 10001 2254 00       		.byte	0
 10002 2255 28       		.uleb128 0x28
 10003 2256 480B0000 		.4byte	.Ldebug_ranges0+0xb48
 10004 225a 2B260000 		.4byte	0x262b
 10005 225e 29       		.uleb128 0x29
 10006 225f 72657300 		.ascii	"res\000"
 10007 2263 01       		.byte	0x1
 10008 2264 D202     		.2byte	0x2d2
 10009 2266 BF000000 		.4byte	0xbf
 10010 226a 3E200000 		.4byte	.LLST205
 10011 226e 39       		.uleb128 0x39
 10012 226f A00B0000 		.4byte	.Ldebug_ranges0+0xba0
 10013 2273 29       		.uleb128 0x29
 10014 2274 6900     		.ascii	"i\000"
 10015 2276 01       		.byte	0x1
 10016 2277 D302     		.2byte	0x2d3
 10017 2279 BF000000 		.4byte	0xbf
 10018 227d B6200000 		.4byte	.LLST206
 10019 2281 3A       		.uleb128 0x3a
 10020 2282 52360000 		.4byte	0x3652
 10021 2286 4E040000 		.4byte	.LBB1614
 10022 228a 000C0000 		.4byte	.Ldebug_ranges0+0xc00
 10023 228e 01       		.byte	0x1
 10024 228f D402     		.2byte	0x2d4
 10025 2291 31       		.uleb128 0x31
 10026 2292 6B360000 		.4byte	0x366b
 10027 2296 38210000 		.4byte	.LLST207
 10028 229a 31       		.uleb128 0x31
 10029 229b 62360000 		.4byte	0x3662
 10030 229f AE210000 		.4byte	.LLST208
 10031 22a3 39       		.uleb128 0x39
 10032 22a4 000C0000 		.4byte	.Ldebug_ranges0+0xc00
ARM GAS  /tmp/ccMboyVS.s 			page 177


 10033 22a8 33       		.uleb128 0x33
 10034 22a9 74360000 		.4byte	0x3674
 10035 22ad 35       		.uleb128 0x35
 10036 22ae 7F360000 		.4byte	0x367f
 10037 22b2 0E220000 		.4byte	.LLST209
 10038 22b6 3B       		.uleb128 0x3b
 10039 22b7 59380000 		.4byte	0x3859
 10040 22bb 4E040000 		.4byte	.LBB1616
 10041 22bf 680C0000 		.4byte	.Ldebug_ranges0+0xc68
 10042 22c3 01       		.byte	0x1
 10043 22c4 50       		.byte	0x50
 10044 22c5 41230000 		.4byte	0x2341
 10045 22c9 31       		.uleb128 0x31
 10046 22ca 6A380000 		.4byte	0x386a
 10047 22ce 36220000 		.4byte	.LLST210
 10048 22d2 39       		.uleb128 0x39
 10049 22d3 680C0000 		.4byte	.Ldebug_ranges0+0xc68
 10050 22d7 35       		.uleb128 0x35
 10051 22d8 74380000 		.4byte	0x3874
 10052 22dc 5C220000 		.4byte	.LLST211
 10053 22e0 35       		.uleb128 0x35
 10054 22e1 7E380000 		.4byte	0x387e
 10055 22e5 7A220000 		.4byte	.LLST212
 10056 22e9 36       		.uleb128 0x36
 10057 22ea 29390000 		.4byte	0x3929
 10058 22ee 4E040000 		.4byte	.LBB1618
 10059 22f2 880C0000 		.4byte	.Ldebug_ranges0+0xc88
 10060 22f6 02       		.byte	0x2
 10061 22f7 FD01     		.2byte	0x1fd
 10062 22f9 10230000 		.4byte	0x2310
 10063 22fd 31       		.uleb128 0x31
 10064 22fe 44390000 		.4byte	0x3944
 10065 2302 98220000 		.4byte	.LLST213
 10066 2306 31       		.uleb128 0x31
 10067 2307 3A390000 		.4byte	0x393a
 10068 230b AE220000 		.4byte	.LLST214
 10069 230f 00       		.byte	0
 10070 2310 36       		.uleb128 0x36
 10071 2311 6B390000 		.4byte	0x396b
 10072 2315 D20A0000 		.4byte	.LBB1621
 10073 2319 A00C0000 		.4byte	.Ldebug_ranges0+0xca0
 10074 231d 02       		.byte	0x2
 10075 231e FC01     		.2byte	0x1fc
 10076 2320 2E230000 		.4byte	0x232e
 10077 2324 31       		.uleb128 0x31
 10078 2325 7C390000 		.4byte	0x397c
 10079 2329 C1220000 		.4byte	.LLST215
 10080 232d 00       		.byte	0
 10081 232e 30       		.uleb128 0x30
 10082 232f D20A0000 		.4byte	.LVL342
 10083 2333 F23C0000 		.4byte	0x3cf2
 10084 2337 2F       		.uleb128 0x2f
 10085 2338 01       		.uleb128 0x1
 10086 2339 51       		.byte	0x51
 10087 233a 03       		.uleb128 0x3
 10088 233b 0A       		.byte	0xa
 10089 233c 3002     		.2byte	0x230
ARM GAS  /tmp/ccMboyVS.s 			page 178


 10090 233e 00       		.byte	0
 10091 233f 00       		.byte	0
 10092 2340 00       		.byte	0
 10093 2341 3B       		.uleb128 0x3b
 10094 2342 AF380000 		.4byte	0x38af
 10095 2346 54040000 		.4byte	.LBB1628
 10096 234a B80C0000 		.4byte	.Ldebug_ranges0+0xcb8
 10097 234e 01       		.byte	0x1
 10098 234f 4F       		.byte	0x4f
 10099 2350 C3230000 		.4byte	0x23c3
 10100 2354 31       		.uleb128 0x31
 10101 2355 C0380000 		.4byte	0x38c0
 10102 2359 D4220000 		.4byte	.LLST216
 10103 235d 39       		.uleb128 0x39
 10104 235e B80C0000 		.4byte	.Ldebug_ranges0+0xcb8
 10105 2362 35       		.uleb128 0x35
 10106 2363 CA380000 		.4byte	0x38ca
 10107 2367 F7220000 		.4byte	.LLST217
 10108 236b 36       		.uleb128 0x36
 10109 236c 29390000 		.4byte	0x3929
 10110 2370 54040000 		.4byte	.LBB1630
 10111 2374 D80C0000 		.4byte	.Ldebug_ranges0+0xcd8
 10112 2378 02       		.byte	0x2
 10113 2379 EF01     		.2byte	0x1ef
 10114 237b 92230000 		.4byte	0x2392
 10115 237f 31       		.uleb128 0x31
 10116 2380 44390000 		.4byte	0x3944
 10117 2384 15230000 		.4byte	.LLST218
 10118 2388 31       		.uleb128 0x31
 10119 2389 3A390000 		.4byte	0x393a
 10120 238d 2B230000 		.4byte	.LLST219
 10121 2391 00       		.byte	0
 10122 2392 36       		.uleb128 0x36
 10123 2393 6B390000 		.4byte	0x396b
 10124 2397 BC110000 		.4byte	.LBB1633
 10125 239b F00C0000 		.4byte	.Ldebug_ranges0+0xcf0
 10126 239f 02       		.byte	0x2
 10127 23a0 EE01     		.2byte	0x1ee
 10128 23a2 B0230000 		.4byte	0x23b0
 10129 23a6 31       		.uleb128 0x31
 10130 23a7 7C390000 		.4byte	0x397c
 10131 23ab 3E230000 		.4byte	.LLST220
 10132 23af 00       		.byte	0
 10133 23b0 30       		.uleb128 0x30
 10134 23b1 BC110000 		.4byte	.LVL621
 10135 23b5 F23C0000 		.4byte	0x3cf2
 10136 23b9 2F       		.uleb128 0x2f
 10137 23ba 01       		.uleb128 0x1
 10138 23bb 51       		.byte	0x51
 10139 23bc 03       		.uleb128 0x3
 10140 23bd 0A       		.byte	0xa
 10141 23be 1002     		.2byte	0x210
 10142 23c0 00       		.byte	0
 10143 23c1 00       		.byte	0
 10144 23c2 00       		.byte	0
 10145 23c3 3B       		.uleb128 0x3b
 10146 23c4 3B370000 		.4byte	0x373b
ARM GAS  /tmp/ccMboyVS.s 			page 179


 10147 23c8 5E040000 		.4byte	.LBB1640
 10148 23cc 080D0000 		.4byte	.Ldebug_ranges0+0xd08
 10149 23d0 01       		.byte	0x1
 10150 23d1 46       		.byte	0x46
 10151 23d2 01240000 		.4byte	0x2401
 10152 23d6 31       		.uleb128 0x31
 10153 23d7 4C370000 		.4byte	0x374c
 10154 23db 51230000 		.4byte	.LLST221
 10155 23df 39       		.uleb128 0x39
 10156 23e0 080D0000 		.4byte	.Ldebug_ranges0+0xd08
 10157 23e4 33       		.uleb128 0x33
 10158 23e5 56370000 		.4byte	0x3756
 10159 23e9 34       		.uleb128 0x34
 10160 23ea 6B390000 		.4byte	0x396b
 10161 23ee 5E040000 		.4byte	.LBB1642
 10162 23f2 0C000000 		.4byte	.LBE1642-.LBB1642
 10163 23f6 02       		.byte	0x2
 10164 23f7 3002     		.2byte	0x230
 10165 23f9 2C       		.uleb128 0x2c
 10166 23fa 7C390000 		.4byte	0x397c
 10167 23fe 00       		.byte	0
 10168 23ff 00       		.byte	0
 10169 2400 00       		.byte	0
 10170 2401 3B       		.uleb128 0x3b
 10171 2402 3B370000 		.4byte	0x373b
 10172 2406 AA070000 		.4byte	.LBB1646
 10173 240a 200D0000 		.4byte	.Ldebug_ranges0+0xd20
 10174 240e 01       		.byte	0x1
 10175 240f 46       		.byte	0x46
 10176 2410 43240000 		.4byte	0x2443
 10177 2414 31       		.uleb128 0x31
 10178 2415 4C370000 		.4byte	0x374c
 10179 2419 64230000 		.4byte	.LLST222
 10180 241d 39       		.uleb128 0x39
 10181 241e 200D0000 		.4byte	.Ldebug_ranges0+0xd20
 10182 2422 33       		.uleb128 0x33
 10183 2423 56370000 		.4byte	0x3756
 10184 2427 3A       		.uleb128 0x3a
 10185 2428 6B390000 		.4byte	0x396b
 10186 242c AA070000 		.4byte	.LBB1648
 10187 2430 400D0000 		.4byte	.Ldebug_ranges0+0xd40
 10188 2434 02       		.byte	0x2
 10189 2435 3002     		.2byte	0x230
 10190 2437 31       		.uleb128 0x31
 10191 2438 7C390000 		.4byte	0x397c
 10192 243c 82230000 		.4byte	.LLST223
 10193 2440 00       		.byte	0
 10194 2441 00       		.byte	0
 10195 2442 00       		.byte	0
 10196 2443 3C       		.uleb128 0x3c
 10197 2444 F1380000 		.4byte	0x38f1
 10198 2448 6A080000 		.4byte	.LBB1654
 10199 244c 0A000000 		.4byte	.LBE1654-.LBB1654
 10200 2450 01       		.byte	0x1
 10201 2451 4C       		.byte	0x4c
 10202 2452 60240000 		.4byte	0x2460
 10203 2456 31       		.uleb128 0x31
ARM GAS  /tmp/ccMboyVS.s 			page 180


 10204 2457 02390000 		.4byte	0x3902
 10205 245b A0230000 		.4byte	.LLST224
 10206 245f 00       		.byte	0
 10207 2460 3B       		.uleb128 0x3b
 10208 2461 89380000 		.4byte	0x3889
 10209 2465 36110000 		.4byte	.LBB1659
 10210 2469 580D0000 		.4byte	.Ldebug_ranges0+0xd58
 10211 246d 01       		.byte	0x1
 10212 246e 4E       		.byte	0x4e
 10213 246f E2240000 		.4byte	0x24e2
 10214 2473 31       		.uleb128 0x31
 10215 2474 9A380000 		.4byte	0x389a
 10216 2478 C3230000 		.4byte	.LLST225
 10217 247c 39       		.uleb128 0x39
 10218 247d 580D0000 		.4byte	.Ldebug_ranges0+0xd58
 10219 2481 35       		.uleb128 0x35
 10220 2482 A4380000 		.4byte	0x38a4
 10221 2486 EC230000 		.4byte	.LLST226
 10222 248a 2B       		.uleb128 0x2b
 10223 248b 6B390000 		.4byte	0x396b
 10224 248f 44110000 		.4byte	.LBB1661
 10225 2493 06000000 		.4byte	.LBE1661-.LBB1661
 10226 2497 02       		.byte	0x2
 10227 2498 F401     		.2byte	0x1f4
 10228 249a A8240000 		.4byte	0x24a8
 10229 249e 31       		.uleb128 0x31
 10230 249f 7C390000 		.4byte	0x397c
 10231 24a3 15240000 		.4byte	.LLST227
 10232 24a7 00       		.byte	0
 10233 24a8 2B       		.uleb128 0x2b
 10234 24a9 29390000 		.4byte	0x3929
 10235 24ad 52110000 		.4byte	.LBB1663
 10236 24b1 12000000 		.4byte	.LBE1663-.LBB1663
 10237 24b5 02       		.byte	0x2
 10238 24b6 F501     		.2byte	0x1f5
 10239 24b8 CF240000 		.4byte	0x24cf
 10240 24bc 31       		.uleb128 0x31
 10241 24bd 44390000 		.4byte	0x3944
 10242 24c1 33240000 		.4byte	.LLST228
 10243 24c5 31       		.uleb128 0x31
 10244 24c6 3A390000 		.4byte	0x393a
 10245 24ca 49240000 		.4byte	.LLST229
 10246 24ce 00       		.byte	0
 10247 24cf 30       		.uleb128 0x30
 10248 24d0 42110000 		.4byte	.LVL599
 10249 24d4 F23C0000 		.4byte	0x3cf2
 10250 24d8 2F       		.uleb128 0x2f
 10251 24d9 01       		.uleb128 0x1
 10252 24da 51       		.byte	0x51
 10253 24db 03       		.uleb128 0x3
 10254 24dc 0A       		.byte	0xa
 10255 24dd 2002     		.2byte	0x220
 10256 24df 00       		.byte	0
 10257 24e0 00       		.byte	0
 10258 24e1 00       		.byte	0
 10259 24e2 3C       		.uleb128 0x3c
 10260 24e3 D5380000 		.4byte	0x38d5
ARM GAS  /tmp/ccMboyVS.s 			page 181


 10261 24e7 82110000 		.4byte	.LBB1666
 10262 24eb 0A000000 		.4byte	.LBE1666-.LBB1666
 10263 24ef 01       		.byte	0x1
 10264 24f0 4D       		.byte	0x4d
 10265 24f1 FF240000 		.4byte	0x24ff
 10266 24f5 31       		.uleb128 0x31
 10267 24f6 E6380000 		.4byte	0x38e6
 10268 24fa 5C240000 		.4byte	.LLST230
 10269 24fe 00       		.byte	0
 10270 24ff 2E       		.uleb128 0x2e
 10271 2500 5E080000 		.4byte	.LVL278
 10272 2504 6C3D0000 		.4byte	0x3d6c
 10273 2508 13250000 		.4byte	0x2513
 10274 250c 2F       		.uleb128 0x2f
 10275 250d 01       		.uleb128 0x1
 10276 250e 50       		.byte	0x50
 10277 250f 02       		.uleb128 0x2
 10278 2510 74       		.byte	0x74
 10279 2511 00       		.sleb128 0
 10280 2512 00       		.byte	0
 10281 2513 2E       		.uleb128 0x2e
 10282 2514 66080000 		.4byte	.LVL280
 10283 2518 6C3D0000 		.4byte	0x3d6c
 10284 251c 27250000 		.4byte	0x2527
 10285 2520 2F       		.uleb128 0x2f
 10286 2521 01       		.uleb128 0x1
 10287 2522 50       		.byte	0x50
 10288 2523 02       		.uleb128 0x2
 10289 2524 77       		.byte	0x77
 10290 2525 00       		.sleb128 0
 10291 2526 00       		.byte	0
 10292 2527 2E       		.uleb128 0x2e
 10293 2528 980A0000 		.4byte	.LVL337
 10294 252c 783D0000 		.4byte	0x3d78
 10295 2530 3B250000 		.4byte	0x253b
 10296 2534 2F       		.uleb128 0x2f
 10297 2535 01       		.uleb128 0x1
 10298 2536 50       		.byte	0x50
 10299 2537 02       		.uleb128 0x2
 10300 2538 77       		.byte	0x77
 10301 2539 00       		.sleb128 0
 10302 253a 00       		.byte	0
 10303 253b 2E       		.uleb128 0x2e
 10304 253c A80A0000 		.4byte	.LVL338
 10305 2540 783D0000 		.4byte	0x3d78
 10306 2544 4F250000 		.4byte	0x254f
 10307 2548 2F       		.uleb128 0x2f
 10308 2549 01       		.uleb128 0x1
 10309 254a 50       		.byte	0x50
 10310 254b 02       		.uleb128 0x2
 10311 254c 77       		.byte	0x77
 10312 254d 00       		.sleb128 0
 10313 254e 00       		.byte	0
 10314 254f 2E       		.uleb128 0x2e
 10315 2550 B80A0000 		.4byte	.LVL339
 10316 2554 783D0000 		.4byte	0x3d78
 10317 2558 63250000 		.4byte	0x2563
ARM GAS  /tmp/ccMboyVS.s 			page 182


 10318 255c 2F       		.uleb128 0x2f
 10319 255d 01       		.uleb128 0x1
 10320 255e 50       		.byte	0x50
 10321 255f 02       		.uleb128 0x2
 10322 2560 74       		.byte	0x74
 10323 2561 00       		.sleb128 0
 10324 2562 00       		.byte	0
 10325 2563 2E       		.uleb128 0x2e
 10326 2564 C20A0000 		.4byte	.LVL340
 10327 2568 783D0000 		.4byte	0x3d78
 10328 256c 77250000 		.4byte	0x2577
 10329 2570 2F       		.uleb128 0x2f
 10330 2571 01       		.uleb128 0x1
 10331 2572 50       		.byte	0x50
 10332 2573 02       		.uleb128 0x2
 10333 2574 77       		.byte	0x77
 10334 2575 00       		.sleb128 0
 10335 2576 00       		.byte	0
 10336 2577 2E       		.uleb128 0x2e
 10337 2578 22110000 		.4byte	.LVL594
 10338 257c E63C0000 		.4byte	0x3ce6
 10339 2580 8B250000 		.4byte	0x258b
 10340 2584 2F       		.uleb128 0x2f
 10341 2585 01       		.uleb128 0x1
 10342 2586 50       		.byte	0x50
 10343 2587 02       		.uleb128 0x2
 10344 2588 77       		.byte	0x77
 10345 2589 00       		.sleb128 0
 10346 258a 00       		.byte	0
 10347 258b 2E       		.uleb128 0x2e
 10348 258c 2E110000 		.4byte	.LVL595
 10349 2590 E63C0000 		.4byte	0x3ce6
 10350 2594 9F250000 		.4byte	0x259f
 10351 2598 2F       		.uleb128 0x2f
 10352 2599 01       		.uleb128 0x1
 10353 259a 50       		.byte	0x50
 10354 259b 02       		.uleb128 0x2
 10355 259c 74       		.byte	0x74
 10356 259d 00       		.sleb128 0
 10357 259e 00       		.byte	0
 10358 259f 2E       		.uleb128 0x2e
 10359 25a0 36110000 		.4byte	.LVL597
 10360 25a4 E63C0000 		.4byte	0x3ce6
 10361 25a8 B3250000 		.4byte	0x25b3
 10362 25ac 2F       		.uleb128 0x2f
 10363 25ad 01       		.uleb128 0x1
 10364 25ae 50       		.byte	0x50
 10365 25af 02       		.uleb128 0x2
 10366 25b0 77       		.byte	0x77
 10367 25b1 00       		.sleb128 0
 10368 25b2 00       		.byte	0
 10369 25b3 2E       		.uleb128 0x2e
 10370 25b4 6A110000 		.4byte	.LVL607
 10371 25b8 E63C0000 		.4byte	0x3ce6
 10372 25bc C7250000 		.4byte	0x25c7
 10373 25c0 2F       		.uleb128 0x2f
 10374 25c1 01       		.uleb128 0x1
ARM GAS  /tmp/ccMboyVS.s 			page 183


 10375 25c2 50       		.byte	0x50
 10376 25c3 02       		.uleb128 0x2
 10377 25c4 77       		.byte	0x77
 10378 25c5 00       		.sleb128 0
 10379 25c6 00       		.byte	0
 10380 25c7 2E       		.uleb128 0x2e
 10381 25c8 76110000 		.4byte	.LVL608
 10382 25cc E63C0000 		.4byte	0x3ce6
 10383 25d0 DB250000 		.4byte	0x25db
 10384 25d4 2F       		.uleb128 0x2f
 10385 25d5 01       		.uleb128 0x1
 10386 25d6 50       		.byte	0x50
 10387 25d7 02       		.uleb128 0x2
 10388 25d8 74       		.byte	0x74
 10389 25d9 00       		.sleb128 0
 10390 25da 00       		.byte	0
 10391 25db 2E       		.uleb128 0x2e
 10392 25dc 7E110000 		.4byte	.LVL610
 10393 25e0 E63C0000 		.4byte	0x3ce6
 10394 25e4 EF250000 		.4byte	0x25ef
 10395 25e8 2F       		.uleb128 0x2f
 10396 25e9 01       		.uleb128 0x1
 10397 25ea 50       		.byte	0x50
 10398 25eb 02       		.uleb128 0x2
 10399 25ec 77       		.byte	0x77
 10400 25ed 00       		.sleb128 0
 10401 25ee 00       		.byte	0
 10402 25ef 2E       		.uleb128 0x2e
 10403 25f0 9C110000 		.4byte	.LVL616
 10404 25f4 6C3D0000 		.4byte	0x3d6c
 10405 25f8 03260000 		.4byte	0x2603
 10406 25fc 2F       		.uleb128 0x2f
 10407 25fd 01       		.uleb128 0x1
 10408 25fe 50       		.byte	0x50
 10409 25ff 02       		.uleb128 0x2
 10410 2600 77       		.byte	0x77
 10411 2601 00       		.sleb128 0
 10412 2602 00       		.byte	0
 10413 2603 2E       		.uleb128 0x2e
 10414 2604 A8110000 		.4byte	.LVL617
 10415 2608 6C3D0000 		.4byte	0x3d6c
 10416 260c 17260000 		.4byte	0x2617
 10417 2610 2F       		.uleb128 0x2f
 10418 2611 01       		.uleb128 0x1
 10419 2612 50       		.byte	0x50
 10420 2613 02       		.uleb128 0x2
 10421 2614 74       		.byte	0x74
 10422 2615 00       		.sleb128 0
 10423 2616 00       		.byte	0
 10424 2617 30       		.uleb128 0x30
 10425 2618 B0110000 		.4byte	.LVL619
 10426 261c 6C3D0000 		.4byte	0x3d6c
 10427 2620 2F       		.uleb128 0x2f
 10428 2621 01       		.uleb128 0x1
 10429 2622 50       		.byte	0x50
 10430 2623 02       		.uleb128 0x2
 10431 2624 77       		.byte	0x77
ARM GAS  /tmp/ccMboyVS.s 			page 184


 10432 2625 00       		.sleb128 0
 10433 2626 00       		.byte	0
 10434 2627 00       		.byte	0
 10435 2628 00       		.byte	0
 10436 2629 00       		.byte	0
 10437 262a 00       		.byte	0
 10438 262b 28       		.uleb128 0x28
 10439 262c F0010000 		.4byte	.Ldebug_ranges0+0x1f0
 10440 2630 172A0000 		.4byte	0x2a17
 10441 2634 29       		.uleb128 0x29
 10442 2635 72657300 		.ascii	"res\000"
 10443 2639 01       		.byte	0x1
 10444 263a E002     		.2byte	0x2e0
 10445 263c BF000000 		.4byte	0xbf
 10446 2640 85240000 		.4byte	.LLST78
 10447 2644 39       		.uleb128 0x39
 10448 2645 58020000 		.4byte	.Ldebug_ranges0+0x258
 10449 2649 29       		.uleb128 0x29
 10450 264a 6900     		.ascii	"i\000"
 10451 264c 01       		.byte	0x1
 10452 264d E102     		.2byte	0x2e1
 10453 264f BF000000 		.4byte	0xbf
 10454 2653 08250000 		.4byte	.LLST79
 10455 2657 3A       		.uleb128 0x3a
 10456 2658 1B360000 		.4byte	0x361b
 10457 265c 72020000 		.4byte	.LBB1190
 10458 2660 C8020000 		.4byte	.Ldebug_ranges0+0x2c8
 10459 2664 01       		.byte	0x1
 10460 2665 E202     		.2byte	0x2e2
 10461 2667 31       		.uleb128 0x31
 10462 2668 34360000 		.4byte	0x3634
 10463 266c A0250000 		.4byte	.LLST80
 10464 2670 31       		.uleb128 0x31
 10465 2671 2B360000 		.4byte	0x362b
 10466 2675 21260000 		.4byte	.LLST81
 10467 2679 39       		.uleb128 0x39
 10468 267a C8020000 		.4byte	.Ldebug_ranges0+0x2c8
 10469 267e 33       		.uleb128 0x33
 10470 267f 3D360000 		.4byte	0x363d
 10471 2683 35       		.uleb128 0x35
 10472 2684 48360000 		.4byte	0x3648
 10473 2688 8C260000 		.4byte	.LLST82
 10474 268c 3B       		.uleb128 0x3b
 10475 268d 59380000 		.4byte	0x3859
 10476 2691 72020000 		.4byte	.LBB1192
 10477 2695 40030000 		.4byte	.Ldebug_ranges0+0x340
 10478 2699 01       		.byte	0x1
 10479 269a 63       		.byte	0x63
 10480 269b 17270000 		.4byte	0x2717
 10481 269f 31       		.uleb128 0x31
 10482 26a0 6A380000 		.4byte	0x386a
 10483 26a4 B4260000 		.4byte	.LLST83
 10484 26a8 39       		.uleb128 0x39
 10485 26a9 40030000 		.4byte	.Ldebug_ranges0+0x340
 10486 26ad 35       		.uleb128 0x35
 10487 26ae 74380000 		.4byte	0x3874
 10488 26b2 B4260000 		.4byte	.LLST83
ARM GAS  /tmp/ccMboyVS.s 			page 185


 10489 26b6 35       		.uleb128 0x35
 10490 26b7 7E380000 		.4byte	0x387e
 10491 26bb C8260000 		.4byte	.LLST85
 10492 26bf 36       		.uleb128 0x36
 10493 26c0 29390000 		.4byte	0x3929
 10494 26c4 72020000 		.4byte	.LBB1194
 10495 26c8 60030000 		.4byte	.Ldebug_ranges0+0x360
 10496 26cc 02       		.byte	0x2
 10497 26cd FD01     		.2byte	0x1fd
 10498 26cf E6260000 		.4byte	0x26e6
 10499 26d3 31       		.uleb128 0x31
 10500 26d4 44390000 		.4byte	0x3944
 10501 26d8 E6260000 		.4byte	.LLST86
 10502 26dc 31       		.uleb128 0x31
 10503 26dd 3A390000 		.4byte	0x393a
 10504 26e1 FC260000 		.4byte	.LLST87
 10505 26e5 00       		.byte	0
 10506 26e6 36       		.uleb128 0x36
 10507 26e7 6B390000 		.4byte	0x396b
 10508 26eb 76090000 		.4byte	.LBB1197
 10509 26ef 78030000 		.4byte	.Ldebug_ranges0+0x378
 10510 26f3 02       		.byte	0x2
 10511 26f4 FC01     		.2byte	0x1fc
 10512 26f6 04270000 		.4byte	0x2704
 10513 26fa 31       		.uleb128 0x31
 10514 26fb 7C390000 		.4byte	0x397c
 10515 26ff 0F270000 		.4byte	.LLST88
 10516 2703 00       		.byte	0
 10517 2704 30       		.uleb128 0x30
 10518 2705 76090000 		.4byte	.LVL302
 10519 2709 F23C0000 		.4byte	0x3cf2
 10520 270d 2F       		.uleb128 0x2f
 10521 270e 01       		.uleb128 0x1
 10522 270f 51       		.byte	0x51
 10523 2710 03       		.uleb128 0x3
 10524 2711 0A       		.byte	0xa
 10525 2712 3002     		.2byte	0x230
 10526 2714 00       		.byte	0
 10527 2715 00       		.byte	0
 10528 2716 00       		.byte	0
 10529 2717 3B       		.uleb128 0x3b
 10530 2718 AF380000 		.4byte	0x38af
 10531 271c 78020000 		.4byte	.LBB1204
 10532 2720 90030000 		.4byte	.Ldebug_ranges0+0x390
 10533 2724 01       		.byte	0x1
 10534 2725 62       		.byte	0x62
 10535 2726 99270000 		.4byte	0x2799
 10536 272a 31       		.uleb128 0x31
 10537 272b C0380000 		.4byte	0x38c0
 10538 272f 22270000 		.4byte	.LLST89
 10539 2733 39       		.uleb128 0x39
 10540 2734 90030000 		.4byte	.Ldebug_ranges0+0x390
 10541 2738 35       		.uleb128 0x35
 10542 2739 CA380000 		.4byte	0x38ca
 10543 273d 3E270000 		.4byte	.LLST90
 10544 2741 36       		.uleb128 0x36
 10545 2742 29390000 		.4byte	0x3929
ARM GAS  /tmp/ccMboyVS.s 			page 186


 10546 2746 78020000 		.4byte	.LBB1206
 10547 274a B8030000 		.4byte	.Ldebug_ranges0+0x3b8
 10548 274e 02       		.byte	0x2
 10549 274f EF01     		.2byte	0x1ef
 10550 2751 68270000 		.4byte	0x2768
 10551 2755 31       		.uleb128 0x31
 10552 2756 44390000 		.4byte	0x3944
 10553 275a 5C270000 		.4byte	.LLST91
 10554 275e 31       		.uleb128 0x31
 10555 275f 3A390000 		.4byte	0x393a
 10556 2763 72270000 		.4byte	.LLST92
 10557 2767 00       		.byte	0
 10558 2768 36       		.uleb128 0x36
 10559 2769 6B390000 		.4byte	0x396b
 10560 276d 6C0B0000 		.4byte	.LBB1209
 10561 2771 D0030000 		.4byte	.Ldebug_ranges0+0x3d0
 10562 2775 02       		.byte	0x2
 10563 2776 EE01     		.2byte	0x1ee
 10564 2778 86270000 		.4byte	0x2786
 10565 277c 31       		.uleb128 0x31
 10566 277d 7C390000 		.4byte	0x397c
 10567 2781 85270000 		.4byte	.LLST93
 10568 2785 00       		.byte	0
 10569 2786 30       		.uleb128 0x30
 10570 2787 6C0B0000 		.4byte	.LVL372
 10571 278b F23C0000 		.4byte	0x3cf2
 10572 278f 2F       		.uleb128 0x2f
 10573 2790 01       		.uleb128 0x1
 10574 2791 51       		.byte	0x51
 10575 2792 03       		.uleb128 0x3
 10576 2793 0A       		.byte	0xa
 10577 2794 1002     		.2byte	0x210
 10578 2796 00       		.byte	0
 10579 2797 00       		.byte	0
 10580 2798 00       		.byte	0
 10581 2799 3B       		.uleb128 0x3b
 10582 279a 3B370000 		.4byte	0x373b
 10583 279e 82020000 		.4byte	.LBB1217
 10584 27a2 E8030000 		.4byte	.Ldebug_ranges0+0x3e8
 10585 27a6 01       		.byte	0x1
 10586 27a7 59       		.byte	0x59
 10587 27a8 D7270000 		.4byte	0x27d7
 10588 27ac 31       		.uleb128 0x31
 10589 27ad 4C370000 		.4byte	0x374c
 10590 27b1 98270000 		.4byte	.LLST94
 10591 27b5 39       		.uleb128 0x39
 10592 27b6 E8030000 		.4byte	.Ldebug_ranges0+0x3e8
 10593 27ba 33       		.uleb128 0x33
 10594 27bb 56370000 		.4byte	0x3756
 10595 27bf 34       		.uleb128 0x34
 10596 27c0 6B390000 		.4byte	0x396b
 10597 27c4 82020000 		.4byte	.LBB1219
 10598 27c8 0C000000 		.4byte	.LBE1219-.LBB1219
 10599 27cc 02       		.byte	0x2
 10600 27cd 3002     		.2byte	0x230
 10601 27cf 2C       		.uleb128 0x2c
 10602 27d0 7C390000 		.4byte	0x397c
ARM GAS  /tmp/ccMboyVS.s 			page 187


 10603 27d4 00       		.byte	0
 10604 27d5 00       		.byte	0
 10605 27d6 00       		.byte	0
 10606 27d7 3B       		.uleb128 0x3b
 10607 27d8 3B370000 		.4byte	0x373b
 10608 27dc F2050000 		.4byte	.LBB1223
 10609 27e0 00040000 		.4byte	.Ldebug_ranges0+0x400
 10610 27e4 01       		.byte	0x1
 10611 27e5 59       		.byte	0x59
 10612 27e6 19280000 		.4byte	0x2819
 10613 27ea 31       		.uleb128 0x31
 10614 27eb 4C370000 		.4byte	0x374c
 10615 27ef AB270000 		.4byte	.LLST95
 10616 27f3 39       		.uleb128 0x39
 10617 27f4 00040000 		.4byte	.Ldebug_ranges0+0x400
 10618 27f8 33       		.uleb128 0x33
 10619 27f9 56370000 		.4byte	0x3756
 10620 27fd 3A       		.uleb128 0x3a
 10621 27fe 6B390000 		.4byte	0x396b
 10622 2802 F2050000 		.4byte	.LBB1225
 10623 2806 20040000 		.4byte	.Ldebug_ranges0+0x420
 10624 280a 02       		.byte	0x2
 10625 280b 3002     		.2byte	0x230
 10626 280d 31       		.uleb128 0x31
 10627 280e 7C390000 		.4byte	0x397c
 10628 2812 C9270000 		.4byte	.LLST96
 10629 2816 00       		.byte	0
 10630 2817 00       		.byte	0
 10631 2818 00       		.byte	0
 10632 2819 3C       		.uleb128 0x3c
 10633 281a F1380000 		.4byte	0x38f1
 10634 281e AE060000 		.4byte	.LBB1231
 10635 2822 0A000000 		.4byte	.LBE1231-.LBB1231
 10636 2826 01       		.byte	0x1
 10637 2827 5F       		.byte	0x5f
 10638 2828 36280000 		.4byte	0x2836
 10639 282c 31       		.uleb128 0x31
 10640 282d 02390000 		.4byte	0x3902
 10641 2831 E7270000 		.4byte	.LLST97
 10642 2835 00       		.byte	0
 10643 2836 3C       		.uleb128 0x3c
 10644 2837 D5380000 		.4byte	0x38d5
 10645 283b 2A0C0000 		.4byte	.LBB1238
 10646 283f 08000000 		.4byte	.LBE1238-.LBB1238
 10647 2843 01       		.byte	0x1
 10648 2844 60       		.byte	0x60
 10649 2845 53280000 		.4byte	0x2853
 10650 2849 31       		.uleb128 0x31
 10651 284a E6380000 		.4byte	0x38e6
 10652 284e 03280000 		.4byte	.LLST98
 10653 2852 00       		.byte	0
 10654 2853 3B       		.uleb128 0x3b
 10655 2854 89380000 		.4byte	0x3889
 10656 2858 9E0C0000 		.4byte	.LBB1240
 10657 285c 38040000 		.4byte	.Ldebug_ranges0+0x438
 10658 2860 01       		.byte	0x1
 10659 2861 61       		.byte	0x61
ARM GAS  /tmp/ccMboyVS.s 			page 188


 10660 2862 D5280000 		.4byte	0x28d5
 10661 2866 31       		.uleb128 0x31
 10662 2867 9A380000 		.4byte	0x389a
 10663 286b 1B280000 		.4byte	.LLST99
 10664 286f 39       		.uleb128 0x39
 10665 2870 38040000 		.4byte	.Ldebug_ranges0+0x438
 10666 2874 35       		.uleb128 0x35
 10667 2875 A4380000 		.4byte	0x38a4
 10668 2879 33280000 		.4byte	.LLST100
 10669 287d 2B       		.uleb128 0x2b
 10670 287e 6B390000 		.4byte	0x396b
 10671 2882 B00C0000 		.4byte	.LBB1242
 10672 2886 06000000 		.4byte	.LBE1242-.LBB1242
 10673 288a 02       		.byte	0x2
 10674 288b F401     		.2byte	0x1f4
 10675 288d 9B280000 		.4byte	0x289b
 10676 2891 31       		.uleb128 0x31
 10677 2892 7C390000 		.4byte	0x397c
 10678 2896 5C280000 		.4byte	.LLST101
 10679 289a 00       		.byte	0
 10680 289b 2B       		.uleb128 0x2b
 10681 289c 29390000 		.4byte	0x3929
 10682 28a0 BE0C0000 		.4byte	.LBB1244
 10683 28a4 0C000000 		.4byte	.LBE1244-.LBB1244
 10684 28a8 02       		.byte	0x2
 10685 28a9 F501     		.2byte	0x1f5
 10686 28ab C2280000 		.4byte	0x28c2
 10687 28af 31       		.uleb128 0x31
 10688 28b0 44390000 		.4byte	0x3944
 10689 28b4 7A280000 		.4byte	.LLST102
 10690 28b8 31       		.uleb128 0x31
 10691 28b9 3A390000 		.4byte	0x393a
 10692 28bd 90280000 		.4byte	.LLST103
 10693 28c1 00       		.byte	0
 10694 28c2 30       		.uleb128 0x30
 10695 28c3 AE0C0000 		.4byte	.LVL436
 10696 28c7 F23C0000 		.4byte	0x3cf2
 10697 28cb 2F       		.uleb128 0x2f
 10698 28cc 01       		.uleb128 0x1
 10699 28cd 51       		.byte	0x51
 10700 28ce 03       		.uleb128 0x3
 10701 28cf 0A       		.byte	0xa
 10702 28d0 2002     		.2byte	0x220
 10703 28d2 00       		.byte	0
 10704 28d3 00       		.byte	0
 10705 28d4 00       		.byte	0
 10706 28d5 2E       		.uleb128 0x2e
 10707 28d6 9E060000 		.4byte	.LVL229
 10708 28da 6C3D0000 		.4byte	0x3d6c
 10709 28de E9280000 		.4byte	0x28e9
 10710 28e2 2F       		.uleb128 0x2f
 10711 28e3 01       		.uleb128 0x1
 10712 28e4 50       		.byte	0x50
 10713 28e5 02       		.uleb128 0x2
 10714 28e6 74       		.byte	0x74
 10715 28e7 00       		.sleb128 0
 10716 28e8 00       		.byte	0
ARM GAS  /tmp/ccMboyVS.s 			page 189


 10717 28e9 2E       		.uleb128 0x2e
 10718 28ea A6060000 		.4byte	.LVL231
 10719 28ee 6C3D0000 		.4byte	0x3d6c
 10720 28f2 FD280000 		.4byte	0x28fd
 10721 28f6 2F       		.uleb128 0x2f
 10722 28f7 01       		.uleb128 0x1
 10723 28f8 50       		.byte	0x50
 10724 28f9 02       		.uleb128 0x2
 10725 28fa 77       		.byte	0x77
 10726 28fb 00       		.sleb128 0
 10727 28fc 00       		.byte	0
 10728 28fd 2E       		.uleb128 0x2e
 10729 28fe 30090000 		.4byte	.LVL297
 10730 2902 783D0000 		.4byte	0x3d78
 10731 2906 11290000 		.4byte	0x2911
 10732 290a 2F       		.uleb128 0x2f
 10733 290b 01       		.uleb128 0x1
 10734 290c 50       		.byte	0x50
 10735 290d 02       		.uleb128 0x2
 10736 290e 77       		.byte	0x77
 10737 290f 00       		.sleb128 0
 10738 2910 00       		.byte	0
 10739 2911 2E       		.uleb128 0x2e
 10740 2912 42090000 		.4byte	.LVL298
 10741 2916 783D0000 		.4byte	0x3d78
 10742 291a 25290000 		.4byte	0x2925
 10743 291e 2F       		.uleb128 0x2f
 10744 291f 01       		.uleb128 0x1
 10745 2920 50       		.byte	0x50
 10746 2921 02       		.uleb128 0x2
 10747 2922 77       		.byte	0x77
 10748 2923 00       		.sleb128 0
 10749 2924 00       		.byte	0
 10750 2925 2E       		.uleb128 0x2e
 10751 2926 54090000 		.4byte	.LVL299
 10752 292a 783D0000 		.4byte	0x3d78
 10753 292e 39290000 		.4byte	0x2939
 10754 2932 2F       		.uleb128 0x2f
 10755 2933 01       		.uleb128 0x1
 10756 2934 50       		.byte	0x50
 10757 2935 02       		.uleb128 0x2
 10758 2936 74       		.byte	0x74
 10759 2937 00       		.sleb128 0
 10760 2938 00       		.byte	0
 10761 2939 2E       		.uleb128 0x2e
 10762 293a 5E090000 		.4byte	.LVL300
 10763 293e 783D0000 		.4byte	0x3d78
 10764 2942 4D290000 		.4byte	0x294d
 10765 2946 2F       		.uleb128 0x2f
 10766 2947 01       		.uleb128 0x1
 10767 2948 50       		.byte	0x50
 10768 2949 02       		.uleb128 0x2
 10769 294a 77       		.byte	0x77
 10770 294b 00       		.sleb128 0
 10771 294c 00       		.byte	0
 10772 294d 2E       		.uleb128 0x2e
 10773 294e 6A090000 		.4byte	.LVL301
ARM GAS  /tmp/ccMboyVS.s 			page 190


 10774 2952 843D0000 		.4byte	0x3d84
 10775 2956 63290000 		.4byte	0x2963
 10776 295a 2F       		.uleb128 0x2f
 10777 295b 02       		.uleb128 0x2
 10778 295c 90       		.byte	0x90
 10779 295d 40       		.uleb128 0x40
 10780 295e 03       		.uleb128 0x3
 10781 295f F5       		.byte	0xf5
 10782 2960 50       		.uleb128 0x50
 10783 2961 25       		.uleb128 0x25
 10784 2962 00       		.byte	0
 10785 2963 2E       		.uleb128 0x2e
 10786 2964 4A0B0000 		.4byte	.LVL367
 10787 2968 6C3D0000 		.4byte	0x3d6c
 10788 296c 77290000 		.4byte	0x2977
 10789 2970 2F       		.uleb128 0x2f
 10790 2971 01       		.uleb128 0x1
 10791 2972 50       		.byte	0x50
 10792 2973 02       		.uleb128 0x2
 10793 2974 77       		.byte	0x77
 10794 2975 00       		.sleb128 0
 10795 2976 00       		.byte	0
 10796 2977 2E       		.uleb128 0x2e
 10797 2978 540B0000 		.4byte	.LVL368
 10798 297c 6C3D0000 		.4byte	0x3d6c
 10799 2980 8B290000 		.4byte	0x298b
 10800 2984 2F       		.uleb128 0x2f
 10801 2985 01       		.uleb128 0x1
 10802 2986 50       		.byte	0x50
 10803 2987 02       		.uleb128 0x2
 10804 2988 74       		.byte	0x74
 10805 2989 00       		.sleb128 0
 10806 298a 00       		.byte	0
 10807 298b 2E       		.uleb128 0x2e
 10808 298c 5C0B0000 		.4byte	.LVL370
 10809 2990 6C3D0000 		.4byte	0x3d6c
 10810 2994 9F290000 		.4byte	0x299f
 10811 2998 2F       		.uleb128 0x2f
 10812 2999 01       		.uleb128 0x1
 10813 299a 50       		.byte	0x50
 10814 299b 02       		.uleb128 0x2
 10815 299c 77       		.byte	0x77
 10816 299d 00       		.sleb128 0
 10817 299e 00       		.byte	0
 10818 299f 2E       		.uleb128 0x2e
 10819 29a0 0E0C0000 		.4byte	.LVL405
 10820 29a4 E63C0000 		.4byte	0x3ce6
 10821 29a8 B3290000 		.4byte	0x29b3
 10822 29ac 2F       		.uleb128 0x2f
 10823 29ad 01       		.uleb128 0x1
 10824 29ae 50       		.byte	0x50
 10825 29af 02       		.uleb128 0x2
 10826 29b0 77       		.byte	0x77
 10827 29b1 00       		.sleb128 0
 10828 29b2 00       		.byte	0
 10829 29b3 2E       		.uleb128 0x2e
 10830 29b4 1A0C0000 		.4byte	.LVL406
ARM GAS  /tmp/ccMboyVS.s 			page 191


 10831 29b8 E63C0000 		.4byte	0x3ce6
 10832 29bc C7290000 		.4byte	0x29c7
 10833 29c0 2F       		.uleb128 0x2f
 10834 29c1 01       		.uleb128 0x1
 10835 29c2 50       		.byte	0x50
 10836 29c3 02       		.uleb128 0x2
 10837 29c4 74       		.byte	0x74
 10838 29c5 00       		.sleb128 0
 10839 29c6 00       		.byte	0
 10840 29c7 2E       		.uleb128 0x2e
 10841 29c8 220C0000 		.4byte	.LVL408
 10842 29cc E63C0000 		.4byte	0x3ce6
 10843 29d0 DB290000 		.4byte	0x29db
 10844 29d4 2F       		.uleb128 0x2f
 10845 29d5 01       		.uleb128 0x1
 10846 29d6 50       		.byte	0x50
 10847 29d7 02       		.uleb128 0x2
 10848 29d8 77       		.byte	0x77
 10849 29d9 00       		.sleb128 0
 10850 29da 00       		.byte	0
 10851 29db 2E       		.uleb128 0x2e
 10852 29dc 8A0C0000 		.4byte	.LVL431
 10853 29e0 E63C0000 		.4byte	0x3ce6
 10854 29e4 EF290000 		.4byte	0x29ef
 10855 29e8 2F       		.uleb128 0x2f
 10856 29e9 01       		.uleb128 0x1
 10857 29ea 50       		.byte	0x50
 10858 29eb 02       		.uleb128 0x2
 10859 29ec 77       		.byte	0x77
 10860 29ed 00       		.sleb128 0
 10861 29ee 00       		.byte	0
 10862 29ef 2E       		.uleb128 0x2e
 10863 29f0 960C0000 		.4byte	.LVL432
 10864 29f4 E63C0000 		.4byte	0x3ce6
 10865 29f8 032A0000 		.4byte	0x2a03
 10866 29fc 2F       		.uleb128 0x2f
 10867 29fd 01       		.uleb128 0x1
 10868 29fe 50       		.byte	0x50
 10869 29ff 02       		.uleb128 0x2
 10870 2a00 74       		.byte	0x74
 10871 2a01 00       		.sleb128 0
 10872 2a02 00       		.byte	0
 10873 2a03 30       		.uleb128 0x30
 10874 2a04 9E0C0000 		.4byte	.LVL434
 10875 2a08 E63C0000 		.4byte	0x3ce6
 10876 2a0c 2F       		.uleb128 0x2f
 10877 2a0d 01       		.uleb128 0x1
 10878 2a0e 50       		.byte	0x50
 10879 2a0f 02       		.uleb128 0x2
 10880 2a10 77       		.byte	0x77
 10881 2a11 00       		.sleb128 0
 10882 2a12 00       		.byte	0
 10883 2a13 00       		.byte	0
 10884 2a14 00       		.byte	0
 10885 2a15 00       		.byte	0
 10886 2a16 00       		.byte	0
 10887 2a17 2A       		.uleb128 0x2a
ARM GAS  /tmp/ccMboyVS.s 			page 192


 10888 2a18 06050000 		.4byte	.LBB1730
 10889 2a1c 32000000 		.4byte	.LBE1730-.LBB1730
 10890 2a20 6F2A0000 		.4byte	0x2a6f
 10891 2a24 29       		.uleb128 0x29
 10892 2a25 6100     		.ascii	"a\000"
 10893 2a27 01       		.byte	0x1
 10894 2a28 EB02     		.2byte	0x2eb
 10895 2a2a BF000000 		.4byte	0xbf
 10896 2a2e A3280000 		.4byte	.LLST244
 10897 2a32 37       		.uleb128 0x37
 10898 2a33 6200     		.ascii	"b\000"
 10899 2a35 01       		.byte	0x1
 10900 2a36 EC02     		.2byte	0x2ec
 10901 2a38 BF000000 		.4byte	0xbf
 10902 2a3c 29       		.uleb128 0x29
 10903 2a3d 7200     		.ascii	"r\000"
 10904 2a3f 01       		.byte	0x1
 10905 2a40 ED02     		.2byte	0x2ed
 10906 2a42 E2000000 		.4byte	0xe2
 10907 2a46 B6280000 		.4byte	.LLST245
 10908 2a4a 39       		.uleb128 0x39
 10909 2a4b 100E0000 		.4byte	.Ldebug_ranges0+0xe10
 10910 2a4f 29       		.uleb128 0x29
 10911 2a50 6900     		.ascii	"i\000"
 10912 2a52 01       		.byte	0x1
 10913 2a53 EF02     		.2byte	0x2ef
 10914 2a55 BF000000 		.4byte	0xbf
 10915 2a59 CA280000 		.4byte	.LLST246
 10916 2a5d 30       		.uleb128 0x30
 10917 2a5e 1E050000 		.4byte	.LVL194
 10918 2a62 84330000 		.4byte	0x3384
 10919 2a66 2F       		.uleb128 0x2f
 10920 2a67 01       		.uleb128 0x1
 10921 2a68 50       		.byte	0x50
 10922 2a69 02       		.uleb128 0x2
 10923 2a6a 75       		.byte	0x75
 10924 2a6b 00       		.sleb128 0
 10925 2a6c 00       		.byte	0
 10926 2a6d 00       		.byte	0
 10927 2a6e 00       		.byte	0
 10928 2a6f 28       		.uleb128 0x28
 10929 2a70 40010000 		.4byte	.Ldebug_ranges0+0x140
 10930 2a74 F62C0000 		.4byte	0x2cf6
 10931 2a78 29       		.uleb128 0x29
 10932 2a79 6100     		.ascii	"a\000"
 10933 2a7b 01       		.byte	0x1
 10934 2a7c 0103     		.2byte	0x301
 10935 2a7e BF000000 		.4byte	0xbf
 10936 2a82 DE280000 		.4byte	.LLST59
 10937 2a86 29       		.uleb128 0x29
 10938 2a87 6200     		.ascii	"b\000"
 10939 2a89 01       		.byte	0x1
 10940 2a8a 0203     		.2byte	0x302
 10941 2a8c BF000000 		.4byte	0xbf
 10942 2a90 28290000 		.4byte	.LLST60
 10943 2a94 29       		.uleb128 0x29
 10944 2a95 7200     		.ascii	"r\000"
ARM GAS  /tmp/ccMboyVS.s 			page 193


 10945 2a97 01       		.byte	0x1
 10946 2a98 0303     		.2byte	0x303
 10947 2a9a E2000000 		.4byte	0xe2
 10948 2a9e A1290000 		.4byte	.LLST61
 10949 2aa2 29       		.uleb128 0x29
 10950 2aa3 6F6B00   		.ascii	"ok\000"
 10951 2aa6 01       		.byte	0x1
 10952 2aa7 0403     		.2byte	0x304
 10953 2aa9 E2000000 		.4byte	0xe2
 10954 2aad 0E2A0000 		.4byte	.LLST62
 10955 2ab1 28       		.uleb128 0x28
 10956 2ab2 48010000 		.4byte	.Ldebug_ranges0+0x148
 10957 2ab6 B22C0000 		.4byte	0x2cb2
 10958 2aba 29       		.uleb128 0x29
 10959 2abb 6900     		.ascii	"i\000"
 10960 2abd 01       		.byte	0x1
 10961 2abe 0A03     		.2byte	0x30a
 10962 2ac0 BF000000 		.4byte	0xbf
 10963 2ac4 6A2A0000 		.4byte	.LLST65
 10964 2ac8 36       		.uleb128 0x36
 10965 2ac9 C2320000 		.4byte	0x32c2
 10966 2acd DE070000 		.4byte	.LBB1150
 10967 2ad1 78010000 		.4byte	.Ldebug_ranges0+0x178
 10968 2ad5 01       		.byte	0x1
 10969 2ad6 1003     		.2byte	0x310
 10970 2ad8 6E2C0000 		.4byte	0x2c6e
 10971 2adc 31       		.uleb128 0x31
 10972 2add DB320000 		.4byte	0x32db
 10973 2ae1 B52A0000 		.4byte	.LLST66
 10974 2ae5 2C       		.uleb128 0x2c
 10975 2ae6 D2320000 		.4byte	0x32d2
 10976 2aea 39       		.uleb128 0x39
 10977 2aeb 78010000 		.4byte	.Ldebug_ranges0+0x178
 10978 2aef 35       		.uleb128 0x35
 10979 2af0 E4320000 		.4byte	0x32e4
 10980 2af4 232B0000 		.4byte	.LLST67
 10981 2af8 35       		.uleb128 0x35
 10982 2af9 EF320000 		.4byte	0x32ef
 10983 2afd 732B0000 		.4byte	.LLST68
 10984 2b01 3B       		.uleb128 0x3b
 10985 2b02 3B370000 		.4byte	0x373b
 10986 2b06 DE070000 		.4byte	.LBB1152
 10987 2b0a B0010000 		.4byte	.Ldebug_ranges0+0x1b0
 10988 2b0e 01       		.byte	0x1
 10989 2b0f FF       		.byte	0xff
 10990 2b10 252B0000 		.4byte	0x2b25
 10991 2b14 2C       		.uleb128 0x2c
 10992 2b15 4C370000 		.4byte	0x374c
 10993 2b19 39       		.uleb128 0x39
 10994 2b1a B0010000 		.4byte	.Ldebug_ranges0+0x1b0
 10995 2b1e 33       		.uleb128 0x33
 10996 2b1f 56370000 		.4byte	0x3756
 10997 2b23 00       		.byte	0
 10998 2b24 00       		.byte	0
 10999 2b25 3B       		.uleb128 0x3b
 11000 2b26 3B370000 		.4byte	0x373b
 11001 2b2a B6080000 		.4byte	.LBB1156
ARM GAS  /tmp/ccMboyVS.s 			page 194


 11002 2b2e C8010000 		.4byte	.Ldebug_ranges0+0x1c8
 11003 2b32 01       		.byte	0x1
 11004 2b33 FF       		.byte	0xff
 11005 2b34 4D2B0000 		.4byte	0x2b4d
 11006 2b38 31       		.uleb128 0x31
 11007 2b39 4C370000 		.4byte	0x374c
 11008 2b3d C52B0000 		.4byte	.LLST69
 11009 2b41 39       		.uleb128 0x39
 11010 2b42 C8010000 		.4byte	.Ldebug_ranges0+0x1c8
 11011 2b46 33       		.uleb128 0x33
 11012 2b47 56370000 		.4byte	0x3756
 11013 2b4b 00       		.byte	0
 11014 2b4c 00       		.byte	0
 11015 2b4d 2B       		.uleb128 0x2b
 11016 2b4e 56330000 		.4byte	0x3356
 11017 2b52 00090000 		.4byte	.LBB1161
 11018 2b56 14000000 		.4byte	.LBE1161-.LBB1161
 11019 2b5a 01       		.byte	0x1
 11020 2b5b 0801     		.2byte	0x108
 11021 2b5d 852B0000 		.4byte	0x2b85
 11022 2b61 31       		.uleb128 0x31
 11023 2b62 6F330000 		.4byte	0x336f
 11024 2b66 F92B0000 		.4byte	.LLST70
 11025 2b6a 31       		.uleb128 0x31
 11026 2b6b 66330000 		.4byte	0x3366
 11027 2b6f 0C2C0000 		.4byte	.LLST71
 11028 2b73 32       		.uleb128 0x32
 11029 2b74 00090000 		.4byte	.LBB1162
 11030 2b78 14000000 		.4byte	.LBE1162-.LBB1162
 11031 2b7c 3E       		.uleb128 0x3e
 11032 2b7d 78330000 		.4byte	0x3378
 11033 2b81 01       		.uleb128 0x1
 11034 2b82 50       		.byte	0x50
 11035 2b83 00       		.byte	0
 11036 2b84 00       		.byte	0
 11037 2b85 2B       		.uleb128 0x2b
 11038 2b86 28330000 		.4byte	0x3328
 11039 2b8a D8100000 		.4byte	.LBB1164
 11040 2b8e 16000000 		.4byte	.LBE1164-.LBB1164
 11041 2b92 01       		.byte	0x1
 11042 2b93 0701     		.2byte	0x107
 11043 2b95 BD2B0000 		.4byte	0x2bbd
 11044 2b99 31       		.uleb128 0x31
 11045 2b9a 41330000 		.4byte	0x3341
 11046 2b9e 1F2C0000 		.4byte	.LLST72
 11047 2ba2 31       		.uleb128 0x31
 11048 2ba3 38330000 		.4byte	0x3338
 11049 2ba7 322C0000 		.4byte	.LLST73
 11050 2bab 32       		.uleb128 0x32
 11051 2bac D8100000 		.4byte	.LBB1165
 11052 2bb0 16000000 		.4byte	.LBE1165-.LBB1165
 11053 2bb4 3E       		.uleb128 0x3e
 11054 2bb5 4A330000 		.4byte	0x334a
 11055 2bb9 01       		.uleb128 0x1
 11056 2bba 50       		.byte	0x50
 11057 2bbb 00       		.byte	0
 11058 2bbc 00       		.byte	0
ARM GAS  /tmp/ccMboyVS.s 			page 195


 11059 2bbd 2B       		.uleb128 0x2b
 11060 2bbe FA320000 		.4byte	0x32fa
 11061 2bc2 12120000 		.4byte	.LBB1167
 11062 2bc6 1A000000 		.4byte	.LBE1167-.LBB1167
 11063 2bca 01       		.byte	0x1
 11064 2bcb 0901     		.2byte	0x109
 11065 2bcd F52B0000 		.4byte	0x2bf5
 11066 2bd1 31       		.uleb128 0x31
 11067 2bd2 13330000 		.4byte	0x3313
 11068 2bd6 452C0000 		.4byte	.LLST74
 11069 2bda 31       		.uleb128 0x31
 11070 2bdb 0A330000 		.4byte	0x330a
 11071 2bdf 592C0000 		.4byte	.LLST75
 11072 2be3 32       		.uleb128 0x32
 11073 2be4 12120000 		.4byte	.LBB1168
 11074 2be8 1A000000 		.4byte	.LBE1168-.LBB1168
 11075 2bec 3E       		.uleb128 0x3e
 11076 2bed 1C330000 		.4byte	0x331c
 11077 2bf1 01       		.uleb128 0x1
 11078 2bf2 50       		.byte	0x50
 11079 2bf3 00       		.byte	0
 11080 2bf4 00       		.byte	0
 11081 2bf5 2E       		.uleb128 0x2e
 11082 2bf6 F6080000 		.4byte	.LVL292
 11083 2bfa 6C3D0000 		.4byte	0x3d6c
 11084 2bfe 092C0000 		.4byte	0x2c09
 11085 2c02 2F       		.uleb128 0x2f
 11086 2c03 01       		.uleb128 0x1
 11087 2c04 50       		.byte	0x50
 11088 2c05 02       		.uleb128 0x2
 11089 2c06 78       		.byte	0x78
 11090 2c07 00       		.sleb128 0
 11091 2c08 00       		.byte	0
 11092 2c09 2E       		.uleb128 0x2e
 11093 2c0a 00090000 		.4byte	.LVL293
 11094 2c0e 6C3D0000 		.4byte	0x3d6c
 11095 2c12 1E2C0000 		.4byte	0x2c1e
 11096 2c16 2F       		.uleb128 0x2f
 11097 2c17 01       		.uleb128 0x1
 11098 2c18 50       		.byte	0x50
 11099 2c19 03       		.uleb128 0x3
 11100 2c1a 91       		.byte	0x91
 11101 2c1b 44       		.sleb128 -60
 11102 2c1c 06       		.byte	0x6
 11103 2c1d 00       		.byte	0
 11104 2c1e 2E       		.uleb128 0x2e
 11105 2c1f CE100000 		.4byte	.LVL586
 11106 2c23 E63C0000 		.4byte	0x3ce6
 11107 2c27 322C0000 		.4byte	0x2c32
 11108 2c2b 2F       		.uleb128 0x2f
 11109 2c2c 01       		.uleb128 0x1
 11110 2c2d 50       		.byte	0x50
 11111 2c2e 02       		.uleb128 0x2
 11112 2c2f 78       		.byte	0x78
 11113 2c30 00       		.sleb128 0
 11114 2c31 00       		.byte	0
 11115 2c32 2E       		.uleb128 0x2e
ARM GAS  /tmp/ccMboyVS.s 			page 196


 11116 2c33 D8100000 		.4byte	.LVL587
 11117 2c37 E63C0000 		.4byte	0x3ce6
 11118 2c3b 472C0000 		.4byte	0x2c47
 11119 2c3f 2F       		.uleb128 0x2f
 11120 2c40 01       		.uleb128 0x1
 11121 2c41 50       		.byte	0x50
 11122 2c42 03       		.uleb128 0x3
 11123 2c43 91       		.byte	0x91
 11124 2c44 44       		.sleb128 -60
 11125 2c45 06       		.byte	0x6
 11126 2c46 00       		.byte	0
 11127 2c47 2E       		.uleb128 0x2e
 11128 2c48 06120000 		.4byte	.LVL631
 11129 2c4c 783D0000 		.4byte	0x3d78
 11130 2c50 5B2C0000 		.4byte	0x2c5b
 11131 2c54 2F       		.uleb128 0x2f
 11132 2c55 01       		.uleb128 0x1
 11133 2c56 50       		.byte	0x50
 11134 2c57 02       		.uleb128 0x2
 11135 2c58 78       		.byte	0x78
 11136 2c59 00       		.sleb128 0
 11137 2c5a 00       		.byte	0
 11138 2c5b 30       		.uleb128 0x30
 11139 2c5c 12120000 		.4byte	.LVL632
 11140 2c60 783D0000 		.4byte	0x3d78
 11141 2c64 2F       		.uleb128 0x2f
 11142 2c65 01       		.uleb128 0x1
 11143 2c66 50       		.byte	0x50
 11144 2c67 03       		.uleb128 0x3
 11145 2c68 91       		.byte	0x91
 11146 2c69 44       		.sleb128 -60
 11147 2c6a 06       		.byte	0x6
 11148 2c6b 00       		.byte	0
 11149 2c6c 00       		.byte	0
 11150 2c6d 00       		.byte	0
 11151 2c6e 34       		.uleb128 0x34
 11152 2c6f 3B370000 		.4byte	0x373b
 11153 2c73 E8070000 		.4byte	.LBB1175
 11154 2c77 2A000000 		.4byte	.LBE1175-.LBB1175
 11155 2c7b 01       		.byte	0x1
 11156 2c7c 0C03     		.2byte	0x30c
 11157 2c7e 31       		.uleb128 0x31
 11158 2c7f 4C370000 		.4byte	0x374c
 11159 2c83 6D2C0000 		.4byte	.LLST76
 11160 2c87 32       		.uleb128 0x32
 11161 2c88 E8070000 		.4byte	.LBB1176
 11162 2c8c 2A000000 		.4byte	.LBE1176-.LBB1176
 11163 2c90 33       		.uleb128 0x33
 11164 2c91 56370000 		.4byte	0x3756
 11165 2c95 34       		.uleb128 0x34
 11166 2c96 6B390000 		.4byte	0x396b
 11167 2c9a E8070000 		.4byte	.LBB1177
 11168 2c9e 0C000000 		.4byte	.LBE1177-.LBB1177
 11169 2ca2 02       		.byte	0x2
 11170 2ca3 3002     		.2byte	0x230
 11171 2ca5 31       		.uleb128 0x31
 11172 2ca6 7C390000 		.4byte	0x397c
ARM GAS  /tmp/ccMboyVS.s 			page 197


 11173 2caa 802C0000 		.4byte	.LLST77
 11174 2cae 00       		.byte	0
 11175 2caf 00       		.byte	0
 11176 2cb0 00       		.byte	0
 11177 2cb1 00       		.byte	0
 11178 2cb2 34       		.uleb128 0x34
 11179 2cb3 3B370000 		.4byte	0x373b
 11180 2cb7 2C020000 		.4byte	.LBB1145
 11181 2cbb 32000000 		.4byte	.LBE1145-.LBB1145
 11182 2cbf 01       		.byte	0x1
 11183 2cc0 0603     		.2byte	0x306
 11184 2cc2 31       		.uleb128 0x31
 11185 2cc3 4C370000 		.4byte	0x374c
 11186 2cc7 DE280000 		.4byte	.LLST59
 11187 2ccb 32       		.uleb128 0x32
 11188 2ccc 2C020000 		.4byte	.LBB1146
 11189 2cd0 32000000 		.4byte	.LBE1146-.LBB1146
 11190 2cd4 33       		.uleb128 0x33
 11191 2cd5 56370000 		.4byte	0x3756
 11192 2cd9 34       		.uleb128 0x34
 11193 2cda 6B390000 		.4byte	0x396b
 11194 2cde 2C020000 		.4byte	.LBB1147
 11195 2ce2 0E000000 		.4byte	.LBE1147-.LBB1147
 11196 2ce6 02       		.byte	0x2
 11197 2ce7 3002     		.2byte	0x230
 11198 2ce9 31       		.uleb128 0x31
 11199 2cea 7C390000 		.4byte	0x397c
 11200 2cee 932C0000 		.4byte	.LLST64
 11201 2cf2 00       		.byte	0
 11202 2cf3 00       		.byte	0
 11203 2cf4 00       		.byte	0
 11204 2cf5 00       		.byte	0
 11205 2cf6 28       		.uleb128 0x28
 11206 2cf7 B00D0000 		.4byte	.Ldebug_ranges0+0xdb0
 11207 2cfb 242D0000 		.4byte	0x2d24
 11208 2cff 29       		.uleb128 0x29
 11209 2d00 6100     		.ascii	"a\000"
 11210 2d02 01       		.byte	0x1
 11211 2d03 2203     		.2byte	0x322
 11212 2d05 BF000000 		.4byte	0xbf
 11213 2d09 A62C0000 		.4byte	.LLST236
 11214 2d0d 34       		.uleb128 0x34
 11215 2d0e 6B390000 		.4byte	0x396b
 11216 2d12 A4050000 		.4byte	.LBB1715
 11217 2d16 0C000000 		.4byte	.LBE1715-.LBB1715
 11218 2d1a 01       		.byte	0x1
 11219 2d1b 2303     		.2byte	0x323
 11220 2d1d 2C       		.uleb128 0x2c
 11221 2d1e 7C390000 		.4byte	0x397c
 11222 2d22 00       		.byte	0
 11223 2d23 00       		.byte	0
 11224 2d24 2B       		.uleb128 0x2b
 11225 2d25 6B390000 		.4byte	0x396b
 11226 2d29 C4030000 		.4byte	.LBB1481
 11227 2d2d 0C000000 		.4byte	.LBE1481-.LBB1481
 11228 2d31 01       		.byte	0x1
 11229 2d32 2E02     		.2byte	0x22e
ARM GAS  /tmp/ccMboyVS.s 			page 198


 11230 2d34 3E2D0000 		.4byte	0x2d3e
 11231 2d38 2C       		.uleb128 0x2c
 11232 2d39 7C390000 		.4byte	0x397c
 11233 2d3d 00       		.byte	0
 11234 2d3e 2B       		.uleb128 0x2b
 11235 2d3f F7360000 		.4byte	0x36f7
 11236 2d43 D6030000 		.4byte	.LBB1483
 11237 2d47 0E000000 		.4byte	.LBE1483-.LBB1483
 11238 2d4b 01       		.byte	0x1
 11239 2d4c 3002     		.2byte	0x230
 11240 2d4e 722D0000 		.4byte	0x2d72
 11241 2d52 31       		.uleb128 0x31
 11242 2d53 08370000 		.4byte	0x3708
 11243 2d57 C62C0000 		.4byte	.LLST157
 11244 2d5b 34       		.uleb128 0x34
 11245 2d5c CD370000 		.4byte	0x37cd
 11246 2d60 D6030000 		.4byte	.LBB1485
 11247 2d64 02000000 		.4byte	.LBE1485-.LBB1485
 11248 2d68 02       		.byte	0x2
 11249 2d69 4502     		.2byte	0x245
 11250 2d6b 2C       		.uleb128 0x2c
 11251 2d6c DE370000 		.4byte	0x37de
 11252 2d70 00       		.byte	0
 11253 2d71 00       		.byte	0
 11254 2d72 36       		.uleb128 0x36
 11255 2d73 F9310000 		.4byte	0x31f9
 11256 2d77 5A050000 		.4byte	.LBB1738
 11257 2d7b 400E0000 		.4byte	.Ldebug_ranges0+0xe40
 11258 2d7f 01       		.byte	0x1
 11259 2d80 2C03     		.2byte	0x32c
 11260 2d82 E02D0000 		.4byte	0x2de0
 11261 2d86 31       		.uleb128 0x31
 11262 2d87 1E320000 		.4byte	0x321e
 11263 2d8b E52C0000 		.4byte	.LLST249
 11264 2d8f 31       		.uleb128 0x31
 11265 2d90 12320000 		.4byte	0x3212
 11266 2d94 1F2D0000 		.4byte	.LLST250
 11267 2d98 31       		.uleb128 0x31
 11268 2d99 06320000 		.4byte	0x3206
 11269 2d9d 482D0000 		.4byte	.LLST251
 11270 2da1 39       		.uleb128 0x39
 11271 2da2 400E0000 		.4byte	.Ldebug_ranges0+0xe40
 11272 2da6 33       		.uleb128 0x33
 11273 2da7 9E3C0000 		.4byte	0x3c9e
 11274 2dab 33       		.uleb128 0x33
 11275 2dac A33C0000 		.4byte	0x3ca3
 11276 2db0 33       		.uleb128 0x33
 11277 2db1 A83C0000 		.4byte	0x3ca8
 11278 2db5 33       		.uleb128 0x33
 11279 2db6 AD3C0000 		.4byte	0x3cad
 11280 2dba 33       		.uleb128 0x33
 11281 2dbb B23C0000 		.4byte	0x3cb2
 11282 2dbf 33       		.uleb128 0x33
 11283 2dc0 B73C0000 		.4byte	0x3cb7
 11284 2dc4 33       		.uleb128 0x33
 11285 2dc5 BC3C0000 		.4byte	0x3cbc
 11286 2dc9 33       		.uleb128 0x33
ARM GAS  /tmp/ccMboyVS.s 			page 199


 11287 2dca C13C0000 		.4byte	0x3cc1
 11288 2dce 30       		.uleb128 0x30
 11289 2dcf E20C0000 		.4byte	.LVL448
 11290 2dd3 87390000 		.4byte	0x3987
 11291 2dd7 2F       		.uleb128 0x2f
 11292 2dd8 01       		.uleb128 0x1
 11293 2dd9 52       		.byte	0x52
 11294 2dda 02       		.uleb128 0x2
 11295 2ddb 91       		.byte	0x91
 11296 2ddc 48       		.sleb128 -56
 11297 2ddd 00       		.byte	0
 11298 2dde 00       		.byte	0
 11299 2ddf 00       		.byte	0
 11300 2de0 2B       		.uleb128 0x2b
 11301 2de1 6B390000 		.4byte	0x396b
 11302 2de5 780D0000 		.4byte	.LBB1786
 11303 2de9 0C000000 		.4byte	.LBE1786-.LBB1786
 11304 2ded 01       		.byte	0x1
 11305 2dee 3703     		.2byte	0x337
 11306 2df0 FE2D0000 		.4byte	0x2dfe
 11307 2df4 31       		.uleb128 0x31
 11308 2df5 7C390000 		.4byte	0x397c
 11309 2df9 742D0000 		.4byte	.LLST257
 11310 2dfd 00       		.byte	0
 11311 2dfe 36       		.uleb128 0x36
 11312 2dff 6B390000 		.4byte	0x396b
 11313 2e03 140E0000 		.4byte	.LBB1789
 11314 2e07 780E0000 		.4byte	.Ldebug_ranges0+0xe78
 11315 2e0b 01       		.byte	0x1
 11316 2e0c 1802     		.2byte	0x218
 11317 2e0e 1C2E0000 		.4byte	0x2e1c
 11318 2e12 31       		.uleb128 0x31
 11319 2e13 7C390000 		.4byte	0x397c
 11320 2e17 932D0000 		.4byte	.LLST258
 11321 2e1b 00       		.byte	0
 11322 2e1c 2B       		.uleb128 0x2b
 11323 2e1d 3B370000 		.4byte	0x373b
 11324 2e21 940E0000 		.4byte	.LBB1809
 11325 2e25 36000000 		.4byte	.LBE1809-.LBB1809
 11326 2e29 01       		.byte	0x1
 11327 2e2a C701     		.2byte	0x1c7
 11328 2e2c 632E0000 		.4byte	0x2e63
 11329 2e30 31       		.uleb128 0x31
 11330 2e31 4C370000 		.4byte	0x374c
 11331 2e35 BD2D0000 		.4byte	.LLST271
 11332 2e39 32       		.uleb128 0x32
 11333 2e3a 940E0000 		.4byte	.LBB1810
 11334 2e3e 36000000 		.4byte	.LBE1810-.LBB1810
 11335 2e42 33       		.uleb128 0x33
 11336 2e43 56370000 		.4byte	0x3756
 11337 2e47 34       		.uleb128 0x34
 11338 2e48 6B390000 		.4byte	0x396b
 11339 2e4c 940E0000 		.4byte	.LBB1811
 11340 2e50 0C000000 		.4byte	.LBE1811-.LBB1811
 11341 2e54 02       		.byte	0x2
 11342 2e55 3002     		.2byte	0x230
 11343 2e57 31       		.uleb128 0x31
ARM GAS  /tmp/ccMboyVS.s 			page 200


 11344 2e58 7C390000 		.4byte	0x397c
 11345 2e5c D02D0000 		.4byte	.LLST272
 11346 2e60 00       		.byte	0
 11347 2e61 00       		.byte	0
 11348 2e62 00       		.byte	0
 11349 2e63 36       		.uleb128 0x36
 11350 2e64 6B390000 		.4byte	0x396b
 11351 2e68 CC0E0000 		.4byte	.LBB1813
 11352 2e6c D80E0000 		.4byte	.Ldebug_ranges0+0xed8
 11353 2e70 01       		.byte	0x1
 11354 2e71 0402     		.2byte	0x204
 11355 2e73 812E0000 		.4byte	0x2e81
 11356 2e77 31       		.uleb128 0x31
 11357 2e78 7C390000 		.4byte	0x397c
 11358 2e7c E32D0000 		.4byte	.LLST273
 11359 2e80 00       		.byte	0
 11360 2e81 36       		.uleb128 0x36
 11361 2e82 6B390000 		.4byte	0x396b
 11362 2e86 4C0F0000 		.4byte	.LBB1833
 11363 2e8a 380F0000 		.4byte	.Ldebug_ranges0+0xf38
 11364 2e8e 01       		.byte	0x1
 11365 2e8f F001     		.2byte	0x1f0
 11366 2e91 9F2E0000 		.4byte	0x2e9f
 11367 2e95 31       		.uleb128 0x31
 11368 2e96 7C390000 		.4byte	0x397c
 11369 2e9a 0E2E0000 		.4byte	.LLST285
 11370 2e9e 00       		.byte	0
 11371 2e9f 2B       		.uleb128 0x2b
 11372 2ea0 3B370000 		.4byte	0x373b
 11373 2ea4 CC0F0000 		.4byte	.LBB1854
 11374 2ea8 36000000 		.4byte	.LBE1854-.LBB1854
 11375 2eac 01       		.byte	0x1
 11376 2ead CC01     		.2byte	0x1cc
 11377 2eaf E62E0000 		.4byte	0x2ee6
 11378 2eb3 31       		.uleb128 0x31
 11379 2eb4 4C370000 		.4byte	0x374c
 11380 2eb8 382E0000 		.4byte	.LLST297
 11381 2ebc 32       		.uleb128 0x32
 11382 2ebd CC0F0000 		.4byte	.LBB1855
 11383 2ec1 36000000 		.4byte	.LBE1855-.LBB1855
 11384 2ec5 33       		.uleb128 0x33
 11385 2ec6 56370000 		.4byte	0x3756
 11386 2eca 34       		.uleb128 0x34
 11387 2ecb 6B390000 		.4byte	0x396b
 11388 2ecf CC0F0000 		.4byte	.LBB1856
 11389 2ed3 0C000000 		.4byte	.LBE1856-.LBB1856
 11390 2ed7 02       		.byte	0x2
 11391 2ed8 3002     		.2byte	0x230
 11392 2eda 31       		.uleb128 0x31
 11393 2edb 7C390000 		.4byte	0x397c
 11394 2edf 4B2E0000 		.4byte	.LLST298
 11395 2ee3 00       		.byte	0
 11396 2ee4 00       		.byte	0
 11397 2ee5 00       		.byte	0
 11398 2ee6 2D       		.uleb128 0x2d
 11399 2ee7 CE040000 		.4byte	.LVL183
 11400 2eeb 0A3D0000 		.4byte	0x3d0a
ARM GAS  /tmp/ccMboyVS.s 			page 201


 11401 2eef 2E       		.uleb128 0x2e
 11402 2ef0 56050000 		.4byte	.LVL200
 11403 2ef4 D62F0000 		.4byte	0x2fd6
 11404 2ef8 032F0000 		.4byte	0x2f03
 11405 2efc 2F       		.uleb128 0x2f
 11406 2efd 01       		.uleb128 0x1
 11407 2efe 52       		.byte	0x52
 11408 2eff 02       		.uleb128 0x2
 11409 2f00 91       		.byte	0x91
 11410 2f01 48       		.sleb128 -56
 11411 2f02 00       		.byte	0
 11412 2f03 2D       		.uleb128 0x2d
 11413 2f04 8A050000 		.4byte	.LVL207
 11414 2f08 FE3C0000 		.4byte	0x3cfe
 11415 2f0c 2D       		.uleb128 0x2d
 11416 2f0d 24100000 		.4byte	.LVL549
 11417 2f11 E63C0000 		.4byte	0x3ce6
 11418 2f15 2E       		.uleb128 0x2e
 11419 2f16 2C100000 		.4byte	.LVL550
 11420 2f1a 5F2F0000 		.4byte	0x2f5f
 11421 2f1e 292F0000 		.4byte	0x2f29
 11422 2f22 2F       		.uleb128 0x2f
 11423 2f23 01       		.uleb128 0x1
 11424 2f24 50       		.byte	0x50
 11425 2f25 02       		.uleb128 0x2
 11426 2f26 74       		.byte	0x74
 11427 2f27 00       		.sleb128 0
 11428 2f28 00       		.byte	0
 11429 2f29 2D       		.uleb128 0x2d
 11430 2f2a 76120000 		.4byte	.LVL642
 11431 2f2e 903D0000 		.4byte	0x3d90
 11432 2f32 2D       		.uleb128 0x2d
 11433 2f33 9E120000 		.4byte	.LVL647
 11434 2f37 9C3D0000 		.4byte	0x3d9c
 11435 2f3b 00       		.byte	0
 11436 2f3c 34       		.uleb128 0x34
 11437 2f3d CD370000 		.4byte	0x37cd
 11438 2f41 08000000 		.4byte	.LBB1141
 11439 2f45 02000000 		.4byte	.LBE1141-.LBB1141
 11440 2f49 01       		.byte	0x1
 11441 2f4a C501     		.2byte	0x1c5
 11442 2f4c 2C       		.uleb128 0x2c
 11443 2f4d DE370000 		.4byte	0x37de
 11444 2f51 00       		.byte	0
 11445 2f52 00       		.byte	0
 11446 2f53 05       		.uleb128 0x5
 11447 2f54 04       		.byte	0x4
 11448 2f55 A9000000 		.4byte	0xa9
 11449 2f59 05       		.uleb128 0x5
 11450 2f5a 04       		.byte	0x4
 11451 2f5b 4D090000 		.4byte	0x94d
 11452 2f5f 24       		.uleb128 0x24
 11453 2f60 C2040000 		.4byte	.LASF151
 11454 2f64 01       		.byte	0x1
 11455 2f65 B201     		.2byte	0x1b2
 11456 2f67 A9000000 		.4byte	0xa9
 11457 2f6b 00000000 		.4byte	.LFB59
ARM GAS  /tmp/ccMboyVS.s 			page 202


 11458 2f6f 3E000000 		.4byte	.LFE59-.LFB59
 11459 2f73 01       		.uleb128 0x1
 11460 2f74 9C       		.byte	0x9c
 11461 2f75 D62F0000 		.4byte	0x2fd6
 11462 2f79 26       		.uleb128 0x26
 11463 2f7a 6C00     		.ascii	"l\000"
 11464 2f7c 01       		.byte	0x1
 11465 2f7d B201     		.2byte	0x1b2
 11466 2f7f A9000000 		.4byte	0xa9
 11467 2f83 5E2E0000 		.4byte	.LLST49
 11468 2f87 26       		.uleb128 0x26
 11469 2f88 6E00     		.ascii	"n\000"
 11470 2f8a 01       		.byte	0x1
 11471 2f8b B201     		.2byte	0x1b2
 11472 2f8d 2C000000 		.4byte	0x2c
 11473 2f91 982E0000 		.4byte	.LLST50
 11474 2f95 27       		.uleb128 0x27
 11475 2f96 32060000 		.4byte	.LASF147
 11476 2f9a 01       		.byte	0x1
 11477 2f9b B301     		.2byte	0x1b3
 11478 2f9d A9000000 		.4byte	0xa9
 11479 2fa1 B62E0000 		.4byte	.LLST51
 11480 2fa5 36       		.uleb128 0x36
 11481 2fa6 6B390000 		.4byte	0x396b
 11482 2faa 00000000 		.4byte	.LBB747
 11483 2fae E8000000 		.4byte	.Ldebug_ranges0+0xe8
 11484 2fb2 01       		.byte	0x1
 11485 2fb3 B401     		.2byte	0x1b4
 11486 2fb5 C32F0000 		.4byte	0x2fc3
 11487 2fb9 31       		.uleb128 0x31
 11488 2fba 7C390000 		.4byte	0x397c
 11489 2fbe F82E0000 		.4byte	.LLST52
 11490 2fc2 00       		.byte	0
 11491 2fc3 2D       		.uleb128 0x2d
 11492 2fc4 1C000000 		.4byte	.LVL126
 11493 2fc8 0A3D0000 		.4byte	0x3d0a
 11494 2fcc 3F       		.uleb128 0x3f
 11495 2fcd 3E000000 		.4byte	.LVL131
 11496 2fd1 FE3C0000 		.4byte	0x3cfe
 11497 2fd5 00       		.byte	0
 11498 2fd6 40       		.uleb128 0x40
 11499 2fd7 16060000 		.4byte	.LASF215
 11500 2fdb 01       		.byte	0x1
 11501 2fdc 6601     		.2byte	0x166
 11502 2fde 00000000 		.4byte	.LFB58
 11503 2fe2 C2000000 		.4byte	.LFE58-.LFB58
 11504 2fe6 01       		.uleb128 0x1
 11505 2fe7 9C       		.byte	0x9c
 11506 2fe8 F3310000 		.4byte	0x31f3
 11507 2fec 25       		.uleb128 0x25
 11508 2fed C5050000 		.4byte	.LASF143
 11509 2ff1 01       		.byte	0x1
 11510 2ff2 6601     		.2byte	0x166
 11511 2ff4 532F0000 		.4byte	0x2f53
 11512 2ff8 212F0000 		.4byte	.LLST35
 11513 2ffc 25       		.uleb128 0x25
 11514 2ffd 22060000 		.4byte	.LASF144
ARM GAS  /tmp/ccMboyVS.s 			page 203


 11515 3001 01       		.byte	0x1
 11516 3002 6601     		.2byte	0x166
 11517 3004 BF000000 		.4byte	0xbf
 11518 3008 422F0000 		.4byte	.LLST36
 11519 300c 25       		.uleb128 0x25
 11520 300d A3020000 		.4byte	.LASF145
 11521 3011 01       		.byte	0x1
 11522 3012 6601     		.2byte	0x166
 11523 3014 14090000 		.4byte	0x914
 11524 3018 632F0000 		.4byte	.LLST37
 11525 301c 38       		.uleb128 0x38
 11526 301d 61727200 		.ascii	"arr\000"
 11527 3021 01       		.byte	0x1
 11528 3022 6801     		.2byte	0x168
 11529 3024 A9000000 		.4byte	0xa9
 11530 3028 01       		.uleb128 0x1
 11531 3029 55       		.byte	0x55
 11532 302a 27       		.uleb128 0x27
 11533 302b 80000000 		.4byte	.LASF152
 11534 302f 01       		.byte	0x1
 11535 3030 6901     		.2byte	0x169
 11536 3032 A9000000 		.4byte	0xa9
 11537 3036 9A2F0000 		.4byte	.LLST38
 11538 303a 29       		.uleb128 0x29
 11539 303b 76616C00 		.ascii	"val\000"
 11540 303f 01       		.byte	0x1
 11541 3040 6A01     		.2byte	0x16a
 11542 3042 A9000000 		.4byte	0xa9
 11543 3046 B82F0000 		.4byte	.LLST39
 11544 304a 29       		.uleb128 0x29
 11545 304b 697800   		.ascii	"ix\000"
 11546 304e 01       		.byte	0x1
 11547 304f 6B01     		.2byte	0x16b
 11548 3051 BF000000 		.4byte	0xbf
 11549 3055 02300000 		.4byte	.LLST40
 11550 3059 28       		.uleb128 0x28
 11551 305a B0000000 		.4byte	.Ldebug_ranges0+0xb0
 11552 305e 84310000 		.4byte	0x3184
 11553 3062 27       		.uleb128 0x27
 11554 3063 09040000 		.4byte	.LASF153
 11555 3067 01       		.byte	0x1
 11556 3068 7601     		.2byte	0x176
 11557 306a 592F0000 		.4byte	0x2f59
 11558 306e 20300000 		.4byte	.LLST44
 11559 3072 2A       		.uleb128 0x2a
 11560 3073 BA000000 		.4byte	.LBB742
 11561 3077 08000000 		.4byte	.LBE742-.LBB742
 11562 307b A6300000 		.4byte	0x30a6
 11563 307f 27       		.uleb128 0x27
 11564 3080 B1050000 		.4byte	.LASF135
 11565 3084 01       		.byte	0x1
 11566 3085 8101     		.2byte	0x181
 11567 3087 9E010000 		.4byte	0x19e
 11568 308b 54300000 		.4byte	.LLST48
 11569 308f 34       		.uleb128 0x34
 11570 3090 E9370000 		.4byte	0x37e9
 11571 3094 BC000000 		.4byte	.LBB743
ARM GAS  /tmp/ccMboyVS.s 			page 204


 11572 3098 04000000 		.4byte	.LBE743-.LBB743
 11573 309c 01       		.byte	0x1
 11574 309d 8201     		.2byte	0x182
 11575 309f 2C       		.uleb128 0x2c
 11576 30a0 FA370000 		.4byte	0x37fa
 11577 30a4 00       		.byte	0
 11578 30a5 00       		.byte	0
 11579 30a6 2A       		.uleb128 0x2a
 11580 30a7 A6000000 		.4byte	.LBB736
 11581 30ab 0A000000 		.4byte	.LBE736-.LBB736
 11582 30af DA300000 		.4byte	0x30da
 11583 30b3 27       		.uleb128 0x27
 11584 30b4 B1050000 		.4byte	.LASF135
 11585 30b8 01       		.byte	0x1
 11586 30b9 8601     		.2byte	0x186
 11587 30bb 14090000 		.4byte	0x914
 11588 30bf 73300000 		.4byte	.LLST46
 11589 30c3 34       		.uleb128 0x34
 11590 30c4 05380000 		.4byte	0x3805
 11591 30c8 A8000000 		.4byte	.LBB737
 11592 30cc 02000000 		.4byte	.LBE737-.LBB737
 11593 30d0 01       		.byte	0x1
 11594 30d1 8701     		.2byte	0x187
 11595 30d3 2C       		.uleb128 0x2c
 11596 30d4 16380000 		.4byte	0x3816
 11597 30d8 00       		.byte	0
 11598 30d9 00       		.byte	0
 11599 30da 2A       		.uleb128 0x2a
 11600 30db B0000000 		.4byte	.LBB739
 11601 30df 0A000000 		.4byte	.LBE739-.LBB739
 11602 30e3 0E310000 		.4byte	0x310e
 11603 30e7 27       		.uleb128 0x27
 11604 30e8 B1050000 		.4byte	.LASF135
 11605 30ec 01       		.byte	0x1
 11606 30ed 8B01     		.2byte	0x18b
 11607 30ef F3310000 		.4byte	0x31f3
 11608 30f3 87300000 		.4byte	.LLST47
 11609 30f7 34       		.uleb128 0x34
 11610 30f8 21380000 		.4byte	0x3821
 11611 30fc B2000000 		.4byte	.LBB740
 11612 3100 02000000 		.4byte	.LBE740-.LBB740
 11613 3104 01       		.byte	0x1
 11614 3105 8C01     		.2byte	0x18c
 11615 3107 2C       		.uleb128 0x2c
 11616 3108 32380000 		.4byte	0x3832
 11617 310c 00       		.byte	0
 11618 310d 00       		.byte	0
 11619 310e 41       		.uleb128 0x41
 11620 310f 20310000 		.4byte	0x3120
 11621 3113 42       		.uleb128 0x42
 11622 3114 B1050000 		.4byte	.LASF135
 11623 3118 01       		.byte	0x1
 11624 3119 9001     		.2byte	0x190
 11625 311b 14090000 		.4byte	0x914
 11626 311f 00       		.byte	0
 11627 3120 41       		.uleb128 0x41
 11628 3121 32310000 		.4byte	0x3132
ARM GAS  /tmp/ccMboyVS.s 			page 205


 11629 3125 42       		.uleb128 0x42
 11630 3126 B1050000 		.4byte	.LASF135
 11631 312a 01       		.byte	0x1
 11632 312b 9501     		.2byte	0x195
 11633 312d F3310000 		.4byte	0x31f3
 11634 3131 00       		.byte	0
 11635 3132 2A       		.uleb128 0x2a
 11636 3133 90000000 		.4byte	.LBB735
 11637 3137 0E000000 		.4byte	.LBE735-.LBB735
 11638 313b 59310000 		.4byte	0x3159
 11639 313f 27       		.uleb128 0x27
 11640 3140 B1050000 		.4byte	.LASF135
 11641 3144 01       		.byte	0x1
 11642 3145 9C01     		.2byte	0x19c
 11643 3147 14090000 		.4byte	0x914
 11644 314b 9B300000 		.4byte	.LLST45
 11645 314f 2D       		.uleb128 0x2d
 11646 3150 98000000 		.4byte	.LVL112
 11647 3154 FE3C0000 		.4byte	0x3cfe
 11648 3158 00       		.byte	0
 11649 3159 36       		.uleb128 0x36
 11650 315a 6B390000 		.4byte	0x396b
 11651 315e 54000000 		.4byte	.LBB731
 11652 3162 D0000000 		.4byte	.Ldebug_ranges0+0xd0
 11653 3166 01       		.byte	0x1
 11654 3167 7901     		.2byte	0x179
 11655 3169 73310000 		.4byte	0x3173
 11656 316d 2C       		.uleb128 0x2c
 11657 316e 7C390000 		.4byte	0x397c
 11658 3172 00       		.byte	0
 11659 3173 30       		.uleb128 0x30
 11660 3174 54000000 		.4byte	.LVL105
 11661 3178 FE3C0000 		.4byte	0x3cfe
 11662 317c 2F       		.uleb128 0x2f
 11663 317d 01       		.uleb128 0x1
 11664 317e 50       		.byte	0x50
 11665 317f 02       		.uleb128 0x2
 11666 3180 75       		.byte	0x75
 11667 3181 00       		.sleb128 0
 11668 3182 00       		.byte	0
 11669 3183 00       		.byte	0
 11670 3184 2B       		.uleb128 0x2b
 11671 3185 3B370000 		.4byte	0x373b
 11672 3189 0C000000 		.4byte	.LBB722
 11673 318d 28000000 		.4byte	.LBE722-.LBB722
 11674 3191 01       		.byte	0x1
 11675 3192 6F01     		.2byte	0x16f
 11676 3194 CB310000 		.4byte	0x31cb
 11677 3198 31       		.uleb128 0x31
 11678 3199 4C370000 		.4byte	0x374c
 11679 319d C6300000 		.4byte	.LLST41
 11680 31a1 32       		.uleb128 0x32
 11681 31a2 0C000000 		.4byte	.LBB723
 11682 31a6 28000000 		.4byte	.LBE723-.LBB723
 11683 31aa 33       		.uleb128 0x33
 11684 31ab 56370000 		.4byte	0x3756
 11685 31af 34       		.uleb128 0x34
ARM GAS  /tmp/ccMboyVS.s 			page 206


 11686 31b0 6B390000 		.4byte	0x396b
 11687 31b4 0C000000 		.4byte	.LBB724
 11688 31b8 0C000000 		.4byte	.LBE724-.LBB724
 11689 31bc 02       		.byte	0x2
 11690 31bd 3002     		.2byte	0x230
 11691 31bf 31       		.uleb128 0x31
 11692 31c0 7C390000 		.4byte	0x397c
 11693 31c4 D9300000 		.4byte	.LLST42
 11694 31c8 00       		.byte	0
 11695 31c9 00       		.byte	0
 11696 31ca 00       		.byte	0
 11697 31cb 36       		.uleb128 0x36
 11698 31cc 6B390000 		.4byte	0x396b
 11699 31d0 3E000000 		.4byte	.LBB726
 11700 31d4 98000000 		.4byte	.Ldebug_ranges0+0x98
 11701 31d8 01       		.byte	0x1
 11702 31d9 7501     		.2byte	0x175
 11703 31db E9310000 		.4byte	0x31e9
 11704 31df 31       		.uleb128 0x31
 11705 31e0 7C390000 		.4byte	0x397c
 11706 31e4 EC300000 		.4byte	.LLST43
 11707 31e8 00       		.byte	0
 11708 31e9 2D       		.uleb128 0x2d
 11709 31ea 3E000000 		.4byte	.LVL101
 11710 31ee E63C0000 		.4byte	0x3ce6
 11711 31f2 00       		.byte	0
 11712 31f3 05       		.uleb128 0x5
 11713 31f4 04       		.byte	0x4
 11714 31f5 CA000000 		.4byte	0xca
 11715 31f9 43       		.uleb128 0x43
 11716 31fa B6080000 		.4byte	.LASF216
 11717 31fe 01       		.byte	0x1
 11718 31ff 0F01     		.2byte	0x10f
 11719 3201 01       		.byte	0x1
 11720 3202 C2320000 		.4byte	0x32c2
 11721 3206 44       		.uleb128 0x44
 11722 3207 C5050000 		.4byte	.LASF143
 11723 320b 01       		.byte	0x1
 11724 320c 0F01     		.2byte	0x10f
 11725 320e 532F0000 		.4byte	0x2f53
 11726 3212 44       		.uleb128 0x44
 11727 3213 22060000 		.4byte	.LASF144
 11728 3217 01       		.byte	0x1
 11729 3218 0F01     		.2byte	0x10f
 11730 321a BF000000 		.4byte	0xbf
 11731 321e 44       		.uleb128 0x44
 11732 321f A3020000 		.4byte	.LASF145
 11733 3223 01       		.byte	0x1
 11734 3224 0F01     		.2byte	0x10f
 11735 3226 14090000 		.4byte	0x914
 11736 322a 37       		.uleb128 0x37
 11737 322b 61727200 		.ascii	"arr\000"
 11738 322f 01       		.byte	0x1
 11739 3230 1301     		.2byte	0x113
 11740 3232 A9000000 		.4byte	0xa9
 11741 3236 42       		.uleb128 0x42
 11742 3237 80000000 		.4byte	.LASF152
ARM GAS  /tmp/ccMboyVS.s 			page 207


 11743 323b 01       		.byte	0x1
 11744 323c 1401     		.2byte	0x114
 11745 323e A9000000 		.4byte	0xa9
 11746 3242 42       		.uleb128 0x42
 11747 3243 5F030000 		.4byte	.LASF154
 11748 3247 01       		.byte	0x1
 11749 3248 1501     		.2byte	0x115
 11750 324a A9000000 		.4byte	0xa9
 11751 324e 37       		.uleb128 0x37
 11752 324f 61636300 		.ascii	"acc\000"
 11753 3253 01       		.byte	0x1
 11754 3254 1601     		.2byte	0x116
 11755 3256 A9000000 		.4byte	0xa9
 11756 325a 42       		.uleb128 0x42
 11757 325b 32060000 		.4byte	.LASF147
 11758 325f 01       		.byte	0x1
 11759 3260 1701     		.2byte	0x117
 11760 3262 A9000000 		.4byte	0xa9
 11761 3266 42       		.uleb128 0x42
 11762 3267 DF050000 		.4byte	.LASF155
 11763 326b 01       		.byte	0x1
 11764 326c 1801     		.2byte	0x118
 11765 326e E2000000 		.4byte	0xe2
 11766 3272 37       		.uleb128 0x37
 11767 3273 697800   		.ascii	"ix\000"
 11768 3276 01       		.byte	0x1
 11769 3277 2001     		.2byte	0x120
 11770 3279 BF000000 		.4byte	0xbf
 11771 327d 42       		.uleb128 0x42
 11772 327e 1E040000 		.4byte	.LASF156
 11773 3282 01       		.byte	0x1
 11774 3283 2101     		.2byte	0x121
 11775 3285 BF000000 		.4byte	0xbf
 11776 3289 41       		.uleb128 0x41
 11777 328a 9B320000 		.4byte	0x329b
 11778 328e 37       		.uleb128 0x37
 11779 328f 746D7000 		.ascii	"tmp\000"
 11780 3293 01       		.byte	0x1
 11781 3294 2B01     		.2byte	0x12b
 11782 3296 BF000000 		.4byte	0xbf
 11783 329a 00       		.byte	0
 11784 329b 45       		.uleb128 0x45
 11785 329c 42       		.uleb128 0x42
 11786 329d 09040000 		.4byte	.LASF153
 11787 32a1 01       		.byte	0x1
 11788 32a2 3101     		.2byte	0x131
 11789 32a4 592F0000 		.4byte	0x2f59
 11790 32a8 42       		.uleb128 0x42
 11791 32a9 B1050000 		.4byte	.LASF135
 11792 32ad 01       		.byte	0x1
 11793 32ae 3201     		.2byte	0x132
 11794 32b0 47090000 		.4byte	0x947
 11795 32b4 45       		.uleb128 0x45
 11796 32b5 37       		.uleb128 0x37
 11797 32b6 6900     		.ascii	"i\000"
 11798 32b8 01       		.byte	0x1
 11799 32b9 3501     		.2byte	0x135
ARM GAS  /tmp/ccMboyVS.s 			page 208


 11800 32bb CA000000 		.4byte	0xca
 11801 32bf 00       		.byte	0
 11802 32c0 00       		.byte	0
 11803 32c1 00       		.byte	0
 11804 32c2 46       		.uleb128 0x46
 11805 32c3 84050000 		.4byte	.LASF158
 11806 32c7 01       		.byte	0x1
 11807 32c8 FB       		.byte	0xfb
 11808 32c9 81000000 		.4byte	0x81
 11809 32cd 01       		.byte	0x1
 11810 32ce FA320000 		.4byte	0x32fa
 11811 32d2 47       		.uleb128 0x47
 11812 32d3 6100     		.ascii	"a\000"
 11813 32d5 01       		.byte	0x1
 11814 32d6 FB       		.byte	0xfb
 11815 32d7 BF000000 		.4byte	0xbf
 11816 32db 47       		.uleb128 0x47
 11817 32dc 6200     		.ascii	"b\000"
 11818 32de 01       		.byte	0x1
 11819 32df FB       		.byte	0xfb
 11820 32e0 BF000000 		.4byte	0xbf
 11821 32e4 48       		.uleb128 0x48
 11822 32e5 89040000 		.4byte	.LASF157
 11823 32e9 01       		.byte	0x1
 11824 32ea FD       		.byte	0xfd
 11825 32eb 81000000 		.4byte	0x81
 11826 32ef 37       		.uleb128 0x37
 11827 32f0 7400     		.ascii	"t\000"
 11828 32f2 01       		.byte	0x1
 11829 32f3 0301     		.2byte	0x103
 11830 32f5 BF000000 		.4byte	0xbf
 11831 32f9 00       		.byte	0
 11832 32fa 46       		.uleb128 0x46
 11833 32fb C5030000 		.4byte	.LASF159
 11834 32ff 01       		.byte	0x1
 11835 3300 F4       		.byte	0xf4
 11836 3301 81000000 		.4byte	0x81
 11837 3305 01       		.byte	0x1
 11838 3306 28330000 		.4byte	0x3328
 11839 330a 47       		.uleb128 0x47
 11840 330b 6100     		.ascii	"a\000"
 11841 330d 01       		.byte	0x1
 11842 330e F4       		.byte	0xf4
 11843 330f D5000000 		.4byte	0xd5
 11844 3313 47       		.uleb128 0x47
 11845 3314 6200     		.ascii	"b\000"
 11846 3316 01       		.byte	0x1
 11847 3317 F4       		.byte	0xf4
 11848 3318 D5000000 		.4byte	0xd5
 11849 331c 49       		.uleb128 0x49
 11850 331d 72657300 		.ascii	"res\000"
 11851 3321 01       		.byte	0x1
 11852 3322 F5       		.byte	0xf5
 11853 3323 81000000 		.4byte	0x81
 11854 3327 00       		.byte	0
 11855 3328 46       		.uleb128 0x46
 11856 3329 CF030000 		.4byte	.LASF160
ARM GAS  /tmp/ccMboyVS.s 			page 209


 11857 332d 01       		.byte	0x1
 11858 332e EF       		.byte	0xef
 11859 332f 81000000 		.4byte	0x81
 11860 3333 01       		.byte	0x1
 11861 3334 56330000 		.4byte	0x3356
 11862 3338 47       		.uleb128 0x47
 11863 3339 6100     		.ascii	"a\000"
 11864 333b 01       		.byte	0x1
 11865 333c EF       		.byte	0xef
 11866 333d BF000000 		.4byte	0xbf
 11867 3341 47       		.uleb128 0x47
 11868 3342 6200     		.ascii	"b\000"
 11869 3344 01       		.byte	0x1
 11870 3345 EF       		.byte	0xef
 11871 3346 BF000000 		.4byte	0xbf
 11872 334a 49       		.uleb128 0x49
 11873 334b 72657300 		.ascii	"res\000"
 11874 334f 01       		.byte	0x1
 11875 3350 F0       		.byte	0xf0
 11876 3351 81000000 		.4byte	0x81
 11877 3355 00       		.byte	0
 11878 3356 46       		.uleb128 0x46
 11879 3357 CA030000 		.4byte	.LASF161
 11880 335b 01       		.byte	0x1
 11881 335c EA       		.byte	0xea
 11882 335d 81000000 		.4byte	0x81
 11883 3361 01       		.byte	0x1
 11884 3362 84330000 		.4byte	0x3384
 11885 3366 47       		.uleb128 0x47
 11886 3367 6100     		.ascii	"a\000"
 11887 3369 01       		.byte	0x1
 11888 336a EA       		.byte	0xea
 11889 336b CA000000 		.4byte	0xca
 11890 336f 47       		.uleb128 0x47
 11891 3370 6200     		.ascii	"b\000"
 11892 3372 01       		.byte	0x1
 11893 3373 EA       		.byte	0xea
 11894 3374 CA000000 		.4byte	0xca
 11895 3378 49       		.uleb128 0x49
 11896 3379 72657300 		.ascii	"res\000"
 11897 337d 01       		.byte	0x1
 11898 337e EB       		.byte	0xeb
 11899 337f 81000000 		.4byte	0x81
 11900 3383 00       		.byte	0
 11901 3384 4A       		.uleb128 0x4a
 11902 3385 E1030000 		.4byte	.LASF217
 11903 3389 01       		.byte	0x1
 11904 338a BE       		.byte	0xbe
 11905 338b E2000000 		.4byte	0xe2
 11906 338f 00000000 		.4byte	.LFB52
 11907 3393 8C010000 		.4byte	.LFE52-.LFB52
 11908 3397 01       		.uleb128 0x1
 11909 3398 9C       		.byte	0x9c
 11910 3399 68350000 		.4byte	0x3568
 11911 339d 4B       		.uleb128 0x4b
 11912 339e 6100     		.ascii	"a\000"
 11913 33a0 01       		.byte	0x1
ARM GAS  /tmp/ccMboyVS.s 			page 210


 11914 33a1 BE       		.byte	0xbe
 11915 33a2 A9000000 		.4byte	0xa9
 11916 33a6 FF300000 		.4byte	.LLST0
 11917 33aa 4B       		.uleb128 0x4b
 11918 33ab 6200     		.ascii	"b\000"
 11919 33ad 01       		.byte	0x1
 11920 33ae BE       		.byte	0xbe
 11921 33af A9000000 		.4byte	0xa9
 11922 33b3 CE310000 		.4byte	.LLST1
 11923 33b7 3C       		.uleb128 0x3c
 11924 33b8 6B390000 		.4byte	0x396b
 11925 33bc 12000000 		.4byte	.LBB667
 11926 33c0 04000000 		.4byte	.LBE667-.LBB667
 11927 33c4 01       		.byte	0x1
 11928 33c5 D5       		.byte	0xd5
 11929 33c6 D4330000 		.4byte	0x33d4
 11930 33ca 31       		.uleb128 0x31
 11931 33cb 7C390000 		.4byte	0x397c
 11932 33cf 79320000 		.4byte	.LLST2
 11933 33d3 00       		.byte	0
 11934 33d4 3C       		.uleb128 0x3c
 11935 33d5 6B390000 		.4byte	0x396b
 11936 33d9 16000000 		.4byte	.LBB669
 11937 33dd 04000000 		.4byte	.LBE669-.LBB669
 11938 33e1 01       		.byte	0x1
 11939 33e2 D5       		.byte	0xd5
 11940 33e3 ED330000 		.4byte	0x33ed
 11941 33e7 2C       		.uleb128 0x2c
 11942 33e8 7C390000 		.4byte	0x397c
 11943 33ec 00       		.byte	0
 11944 33ed 3C       		.uleb128 0x3c
 11945 33ee 6B390000 		.4byte	0x396b
 11946 33f2 2A000000 		.4byte	.LBB671
 11947 33f6 04000000 		.4byte	.LBE671-.LBB671
 11948 33fa 01       		.byte	0x1
 11949 33fb C1       		.byte	0xc1
 11950 33fc 0A340000 		.4byte	0x340a
 11951 3400 31       		.uleb128 0x31
 11952 3401 7C390000 		.4byte	0x397c
 11953 3405 8C320000 		.4byte	.LLST3
 11954 3409 00       		.byte	0
 11955 340a 3C       		.uleb128 0x3c
 11956 340b 6B390000 		.4byte	0x396b
 11957 340f 2E000000 		.4byte	.LBB673
 11958 3413 04000000 		.4byte	.LBE673-.LBB673
 11959 3417 01       		.byte	0x1
 11960 3418 C1       		.byte	0xc1
 11961 3419 23340000 		.4byte	0x3423
 11962 341d 2C       		.uleb128 0x2c
 11963 341e 7C390000 		.4byte	0x397c
 11964 3422 00       		.byte	0
 11965 3423 3C       		.uleb128 0x3c
 11966 3424 CD370000 		.4byte	0x37cd
 11967 3428 A2000000 		.4byte	.LBB675
 11968 342c 02000000 		.4byte	.LBE675-.LBB675
 11969 3430 01       		.byte	0x1
 11970 3431 C4       		.byte	0xc4
ARM GAS  /tmp/ccMboyVS.s 			page 211


 11971 3432 3C340000 		.4byte	0x343c
 11972 3436 2C       		.uleb128 0x2c
 11973 3437 DE370000 		.4byte	0x37de
 11974 343b 00       		.byte	0
 11975 343c 3B       		.uleb128 0x3b
 11976 343d 68350000 		.4byte	0x3568
 11977 3441 BC000000 		.4byte	.LBB677
 11978 3445 00000000 		.4byte	.Ldebug_ranges0+0
 11979 3449 01       		.byte	0x1
 11980 344a E1       		.byte	0xe1
 11981 344b A0340000 		.4byte	0x34a0
 11982 344f 31       		.uleb128 0x31
 11983 3450 81350000 		.4byte	0x3581
 11984 3454 9F320000 		.4byte	.LLST4
 11985 3458 2C       		.uleb128 0x2c
 11986 3459 78350000 		.4byte	0x3578
 11987 345d 4C       		.uleb128 0x4c
 11988 345e 8A350000 		.4byte	0x358a
 11989 3462 00000000 		.4byte	.Ldebug_ranges0+0
 11990 3466 35       		.uleb128 0x35
 11991 3467 8B350000 		.4byte	0x358b
 11992 346b C8320000 		.4byte	.LLST5
 11993 346f 35       		.uleb128 0x35
 11994 3470 95350000 		.4byte	0x3595
 11995 3474 F1320000 		.4byte	.LLST6
 11996 3478 2D       		.uleb128 0x2d
 11997 3479 C0000000 		.4byte	.LVL17
 11998 347d FE3C0000 		.4byte	0x3cfe
 11999 3481 2E       		.uleb128 0x2e
 12000 3482 C8000000 		.4byte	.LVL20
 12001 3486 FE3C0000 		.4byte	0x3cfe
 12002 348a 95340000 		.4byte	0x3495
 12003 348e 2F       		.uleb128 0x2f
 12004 348f 01       		.uleb128 0x1
 12005 3490 50       		.byte	0x50
 12006 3491 02       		.uleb128 0x2
 12007 3492 74       		.byte	0x74
 12008 3493 00       		.sleb128 0
 12009 3494 00       		.byte	0
 12010 3495 2D       		.uleb128 0x2d
 12011 3496 F4000000 		.4byte	.LVL22
 12012 349a A83D0000 		.4byte	0x3da8
 12013 349e 00       		.byte	0
 12014 349f 00       		.byte	0
 12015 34a0 3C       		.uleb128 0x3c
 12016 34a1 21380000 		.4byte	0x3821
 12017 34a5 FC000000 		.4byte	.LBB680
 12018 34a9 02000000 		.4byte	.LBE680-.LBB680
 12019 34ad 01       		.byte	0x1
 12020 34ae C6       		.byte	0xc6
 12021 34af B9340000 		.4byte	0x34b9
 12022 34b3 2C       		.uleb128 0x2c
 12023 34b4 32380000 		.4byte	0x3832
 12024 34b8 00       		.byte	0
 12025 34b9 2E       		.uleb128 0x2e
 12026 34ba 90000000 		.4byte	.LVL10
 12027 34be FE3C0000 		.4byte	0x3cfe
ARM GAS  /tmp/ccMboyVS.s 			page 212


 12028 34c2 CD340000 		.4byte	0x34cd
 12029 34c6 2F       		.uleb128 0x2f
 12030 34c7 01       		.uleb128 0x1
 12031 34c8 50       		.byte	0x50
 12032 34c9 02       		.uleb128 0x2
 12033 34ca 75       		.byte	0x75
 12034 34cb 00       		.sleb128 0
 12035 34cc 00       		.byte	0
 12036 34cd 2E       		.uleb128 0x2e
 12037 34ce 98000000 		.4byte	.LVL12
 12038 34d2 FE3C0000 		.4byte	0x3cfe
 12039 34d6 E1340000 		.4byte	0x34e1
 12040 34da 2F       		.uleb128 0x2f
 12041 34db 01       		.uleb128 0x1
 12042 34dc 50       		.byte	0x50
 12043 34dd 02       		.uleb128 0x2
 12044 34de 74       		.byte	0x74
 12045 34df 00       		.sleb128 0
 12046 34e0 00       		.byte	0
 12047 34e1 2D       		.uleb128 0x2d
 12048 34e2 20010000 		.4byte	.LVL26
 12049 34e6 FE3C0000 		.4byte	0x3cfe
 12050 34ea 2E       		.uleb128 0x2e
 12051 34eb 2A010000 		.4byte	.LVL27
 12052 34ef FE3C0000 		.4byte	0x3cfe
 12053 34f3 FE340000 		.4byte	0x34fe
 12054 34f7 2F       		.uleb128 0x2f
 12055 34f8 01       		.uleb128 0x1
 12056 34f9 50       		.byte	0x50
 12057 34fa 02       		.uleb128 0x2
 12058 34fb 74       		.byte	0x74
 12059 34fc 00       		.sleb128 0
 12060 34fd 00       		.byte	0
 12061 34fe 2D       		.uleb128 0x2d
 12062 34ff 4A010000 		.4byte	.LVL29
 12063 3503 FE3C0000 		.4byte	0x3cfe
 12064 3507 2E       		.uleb128 0x2e
 12065 3508 52010000 		.4byte	.LVL30
 12066 350c FE3C0000 		.4byte	0x3cfe
 12067 3510 1B350000 		.4byte	0x351b
 12068 3514 2F       		.uleb128 0x2f
 12069 3515 01       		.uleb128 0x1
 12070 3516 50       		.byte	0x50
 12071 3517 02       		.uleb128 0x2
 12072 3518 74       		.byte	0x74
 12073 3519 00       		.sleb128 0
 12074 351a 00       		.byte	0
 12075 351b 2E       		.uleb128 0x2e
 12076 351c 5A010000 		.4byte	.LVL31
 12077 3520 84330000 		.4byte	0x3384
 12078 3524 2F350000 		.4byte	0x352f
 12079 3528 2F       		.uleb128 0x2f
 12080 3529 01       		.uleb128 0x1
 12081 352a 50       		.byte	0x50
 12082 352b 02       		.uleb128 0x2
 12083 352c 76       		.byte	0x76
 12084 352d 00       		.sleb128 0
ARM GAS  /tmp/ccMboyVS.s 			page 213


 12085 352e 00       		.byte	0
 12086 352f 2E       		.uleb128 0x2e
 12087 3530 66010000 		.4byte	.LVL32
 12088 3534 0A3D0000 		.4byte	0x3d0a
 12089 3538 43350000 		.4byte	0x3543
 12090 353c 2F       		.uleb128 0x2f
 12091 353d 01       		.uleb128 0x1
 12092 353e 50       		.byte	0x50
 12093 353f 02       		.uleb128 0x2
 12094 3540 75       		.byte	0x75
 12095 3541 00       		.sleb128 0
 12096 3542 00       		.byte	0
 12097 3543 2E       		.uleb128 0x2e
 12098 3544 6E010000 		.4byte	.LVL34
 12099 3548 0A3D0000 		.4byte	0x3d0a
 12100 354c 57350000 		.4byte	0x3557
 12101 3550 2F       		.uleb128 0x2f
 12102 3551 01       		.uleb128 0x1
 12103 3552 50       		.byte	0x50
 12104 3553 02       		.uleb128 0x2
 12105 3554 74       		.byte	0x74
 12106 3555 00       		.sleb128 0
 12107 3556 00       		.byte	0
 12108 3557 30       		.uleb128 0x30
 12109 3558 76010000 		.4byte	.LVL35
 12110 355c 84330000 		.4byte	0x3384
 12111 3560 2F       		.uleb128 0x2f
 12112 3561 01       		.uleb128 0x1
 12113 3562 50       		.byte	0x50
 12114 3563 02       		.uleb128 0x2
 12115 3564 75       		.byte	0x75
 12116 3565 00       		.sleb128 0
 12117 3566 00       		.byte	0
 12118 3567 00       		.byte	0
 12119 3568 46       		.uleb128 0x46
 12120 3569 68040000 		.4byte	.LASF162
 12121 356d 01       		.byte	0x1
 12122 356e 9F       		.byte	0x9f
 12123 356f E2000000 		.4byte	0xe2
 12124 3573 01       		.byte	0x1
 12125 3574 A1350000 		.4byte	0x35a1
 12126 3578 47       		.uleb128 0x47
 12127 3579 6100     		.ascii	"a\000"
 12128 357b 01       		.byte	0x1
 12129 357c 9F       		.byte	0x9f
 12130 357d A9000000 		.4byte	0xa9
 12131 3581 47       		.uleb128 0x47
 12132 3582 6200     		.ascii	"b\000"
 12133 3584 01       		.byte	0x1
 12134 3585 9F       		.byte	0x9f
 12135 3586 A9000000 		.4byte	0xa9
 12136 358a 45       		.uleb128 0x45
 12137 358b 49       		.uleb128 0x49
 12138 358c 615F00   		.ascii	"a_\000"
 12139 358f 01       		.byte	0x1
 12140 3590 A2       		.byte	0xa2
 12141 3591 592F0000 		.4byte	0x2f59
ARM GAS  /tmp/ccMboyVS.s 			page 214


 12142 3595 49       		.uleb128 0x49
 12143 3596 625F00   		.ascii	"b_\000"
 12144 3599 01       		.byte	0x1
 12145 359a A3       		.byte	0xa3
 12146 359b 592F0000 		.4byte	0x2f59
 12147 359f 00       		.byte	0
 12148 35a0 00       		.byte	0
 12149 35a1 46       		.uleb128 0x46
 12150 35a2 40060000 		.4byte	.LASF163
 12151 35a6 01       		.byte	0x1
 12152 35a7 8C       		.byte	0x8c
 12153 35a8 BF000000 		.4byte	0xbf
 12154 35ac 01       		.byte	0x1
 12155 35ad D8350000 		.4byte	0x35d8
 12156 35b1 47       		.uleb128 0x47
 12157 35b2 6100     		.ascii	"a\000"
 12158 35b4 01       		.byte	0x1
 12159 35b5 8C       		.byte	0x8c
 12160 35b6 BF000000 		.4byte	0xbf
 12161 35ba 47       		.uleb128 0x47
 12162 35bb 6200     		.ascii	"b\000"
 12163 35bd 01       		.byte	0x1
 12164 35be 8C       		.byte	0x8c
 12165 35bf BF000000 		.4byte	0xbf
 12166 35c3 48       		.uleb128 0x48
 12167 35c4 89040000 		.4byte	.LASF157
 12168 35c8 01       		.byte	0x1
 12169 35c9 8E       		.byte	0x8e
 12170 35ca BF000000 		.4byte	0xbf
 12171 35ce 49       		.uleb128 0x49
 12172 35cf 7400     		.ascii	"t\000"
 12173 35d1 01       		.byte	0x1
 12174 35d2 94       		.byte	0x94
 12175 35d3 BF000000 		.4byte	0xbf
 12176 35d7 00       		.byte	0
 12177 35d8 46       		.uleb128 0x46
 12178 35d9 60050000 		.4byte	.LASF164
 12179 35dd 01       		.byte	0x1
 12180 35de 68       		.byte	0x68
 12181 35df BF000000 		.4byte	0xbf
 12182 35e3 01       		.byte	0x1
 12183 35e4 1B360000 		.4byte	0x361b
 12184 35e8 47       		.uleb128 0x47
 12185 35e9 6100     		.ascii	"a\000"
 12186 35eb 01       		.byte	0x1
 12187 35ec 68       		.byte	0x68
 12188 35ed BF000000 		.4byte	0xbf
 12189 35f1 48       		.uleb128 0x48
 12190 35f2 89040000 		.4byte	.LASF157
 12191 35f6 01       		.byte	0x1
 12192 35f7 6A       		.byte	0x6a
 12193 35f8 BF000000 		.4byte	0xbf
 12194 35fc 49       		.uleb128 0x49
 12195 35fd 693000   		.ascii	"i0\000"
 12196 3600 01       		.byte	0x1
 12197 3601 6B       		.byte	0x6b
 12198 3602 CA000000 		.4byte	0xca
ARM GAS  /tmp/ccMboyVS.s 			page 215


 12199 3606 49       		.uleb128 0x49
 12200 3607 753000   		.ascii	"u0\000"
 12201 360a 01       		.byte	0x1
 12202 360b 6C       		.byte	0x6c
 12203 360c BF000000 		.4byte	0xbf
 12204 3610 49       		.uleb128 0x49
 12205 3611 663000   		.ascii	"f0\000"
 12206 3614 01       		.byte	0x1
 12207 3615 6D       		.byte	0x6d
 12208 3616 D5000000 		.4byte	0xd5
 12209 361a 00       		.byte	0
 12210 361b 46       		.uleb128 0x46
 12211 361c 96020000 		.4byte	.LASF165
 12212 3620 01       		.byte	0x1
 12213 3621 55       		.byte	0x55
 12214 3622 BF000000 		.4byte	0xbf
 12215 3626 01       		.byte	0x1
 12216 3627 52360000 		.4byte	0x3652
 12217 362b 47       		.uleb128 0x47
 12218 362c 6100     		.ascii	"a\000"
 12219 362e 01       		.byte	0x1
 12220 362f 55       		.byte	0x55
 12221 3630 BF000000 		.4byte	0xbf
 12222 3634 47       		.uleb128 0x47
 12223 3635 6200     		.ascii	"b\000"
 12224 3637 01       		.byte	0x1
 12225 3638 55       		.byte	0x55
 12226 3639 BF000000 		.4byte	0xbf
 12227 363d 48       		.uleb128 0x48
 12228 363e 89040000 		.4byte	.LASF157
 12229 3642 01       		.byte	0x1
 12230 3643 57       		.byte	0x57
 12231 3644 BF000000 		.4byte	0xbf
 12232 3648 49       		.uleb128 0x49
 12233 3649 7400     		.ascii	"t\000"
 12234 364b 01       		.byte	0x1
 12235 364c 5D       		.byte	0x5d
 12236 364d BF000000 		.4byte	0xbf
 12237 3651 00       		.byte	0
 12238 3652 46       		.uleb128 0x46
 12239 3653 45060000 		.4byte	.LASF166
 12240 3657 01       		.byte	0x1
 12241 3658 42       		.byte	0x42
 12242 3659 BF000000 		.4byte	0xbf
 12243 365d 01       		.byte	0x1
 12244 365e 89360000 		.4byte	0x3689
 12245 3662 47       		.uleb128 0x47
 12246 3663 6100     		.ascii	"a\000"
 12247 3665 01       		.byte	0x1
 12248 3666 42       		.byte	0x42
 12249 3667 BF000000 		.4byte	0xbf
 12250 366b 47       		.uleb128 0x47
 12251 366c 6200     		.ascii	"b\000"
 12252 366e 01       		.byte	0x1
 12253 366f 42       		.byte	0x42
 12254 3670 BF000000 		.4byte	0xbf
 12255 3674 48       		.uleb128 0x48
ARM GAS  /tmp/ccMboyVS.s 			page 216


 12256 3675 89040000 		.4byte	.LASF157
 12257 3679 01       		.byte	0x1
 12258 367a 44       		.byte	0x44
 12259 367b BF000000 		.4byte	0xbf
 12260 367f 49       		.uleb128 0x49
 12261 3680 7400     		.ascii	"t\000"
 12262 3682 01       		.byte	0x1
 12263 3683 4A       		.byte	0x4a
 12264 3684 BF000000 		.4byte	0xbf
 12265 3688 00       		.byte	0
 12266 3689 46       		.uleb128 0x46
 12267 368a 79090000 		.4byte	.LASF167
 12268 368e 01       		.byte	0x1
 12269 368f 2F       		.byte	0x2f
 12270 3690 BF000000 		.4byte	0xbf
 12271 3694 01       		.byte	0x1
 12272 3695 C0360000 		.4byte	0x36c0
 12273 3699 47       		.uleb128 0x47
 12274 369a 6100     		.ascii	"a\000"
 12275 369c 01       		.byte	0x1
 12276 369d 2F       		.byte	0x2f
 12277 369e BF000000 		.4byte	0xbf
 12278 36a2 47       		.uleb128 0x47
 12279 36a3 6200     		.ascii	"b\000"
 12280 36a5 01       		.byte	0x1
 12281 36a6 2F       		.byte	0x2f
 12282 36a7 BF000000 		.4byte	0xbf
 12283 36ab 48       		.uleb128 0x48
 12284 36ac 89040000 		.4byte	.LASF157
 12285 36b0 01       		.byte	0x1
 12286 36b1 31       		.byte	0x31
 12287 36b2 BF000000 		.4byte	0xbf
 12288 36b6 49       		.uleb128 0x49
 12289 36b7 7400     		.ascii	"t\000"
 12290 36b9 01       		.byte	0x1
 12291 36ba 37       		.byte	0x37
 12292 36bb BF000000 		.4byte	0xbf
 12293 36bf 00       		.byte	0
 12294 36c0 46       		.uleb128 0x46
 12295 36c1 77070000 		.4byte	.LASF168
 12296 36c5 01       		.byte	0x1
 12297 36c6 1C       		.byte	0x1c
 12298 36c7 BF000000 		.4byte	0xbf
 12299 36cb 01       		.byte	0x1
 12300 36cc F7360000 		.4byte	0x36f7
 12301 36d0 47       		.uleb128 0x47
 12302 36d1 6100     		.ascii	"a\000"
 12303 36d3 01       		.byte	0x1
 12304 36d4 1C       		.byte	0x1c
 12305 36d5 BF000000 		.4byte	0xbf
 12306 36d9 47       		.uleb128 0x47
 12307 36da 6200     		.ascii	"b\000"
 12308 36dc 01       		.byte	0x1
 12309 36dd 1C       		.byte	0x1c
 12310 36de BF000000 		.4byte	0xbf
 12311 36e2 48       		.uleb128 0x48
 12312 36e3 89040000 		.4byte	.LASF157
ARM GAS  /tmp/ccMboyVS.s 			page 217


 12313 36e7 01       		.byte	0x1
 12314 36e8 1E       		.byte	0x1e
 12315 36e9 BF000000 		.4byte	0xbf
 12316 36ed 49       		.uleb128 0x49
 12317 36ee 7400     		.ascii	"t\000"
 12318 36f0 01       		.byte	0x1
 12319 36f1 24       		.byte	0x24
 12320 36f2 BF000000 		.4byte	0xbf
 12321 36f6 00       		.byte	0
 12322 36f7 4D       		.uleb128 0x4d
 12323 36f8 4C030000 		.4byte	.LASF169
 12324 36fc 02       		.byte	0x2
 12325 36fd 4302     		.2byte	0x243
 12326 36ff E2000000 		.4byte	0xe2
 12327 3703 03       		.byte	0x3
 12328 3704 15370000 		.4byte	0x3715
 12329 3708 44       		.uleb128 0x44
 12330 3709 51070000 		.4byte	.LASF170
 12331 370d 02       		.byte	0x2
 12332 370e 4302     		.2byte	0x243
 12333 3710 A9000000 		.4byte	0xa9
 12334 3714 00       		.byte	0
 12335 3715 4D       		.uleb128 0x4d
 12336 3716 46000000 		.4byte	.LASF171
 12337 371a 02       		.byte	0x2
 12338 371b 3902     		.2byte	0x239
 12339 371d E2000000 		.4byte	0xe2
 12340 3721 03       		.byte	0x3
 12341 3722 3B370000 		.4byte	0x373b
 12342 3726 4E       		.uleb128 0x4e
 12343 3727 7800     		.ascii	"x\000"
 12344 3729 02       		.byte	0x2
 12345 372a 3902     		.2byte	0x239
 12346 372c A9000000 		.4byte	0xa9
 12347 3730 37       		.uleb128 0x37
 12348 3731 7400     		.ascii	"t\000"
 12349 3733 02       		.byte	0x2
 12350 3734 3A02     		.2byte	0x23a
 12351 3736 BF000000 		.4byte	0xbf
 12352 373a 00       		.byte	0
 12353 373b 4D       		.uleb128 0x4d
 12354 373c DC080000 		.4byte	.LASF172
 12355 3740 02       		.byte	0x2
 12356 3741 2F02     		.2byte	0x22f
 12357 3743 E2000000 		.4byte	0xe2
 12358 3747 03       		.byte	0x3
 12359 3748 61370000 		.4byte	0x3761
 12360 374c 4E       		.uleb128 0x4e
 12361 374d 7800     		.ascii	"x\000"
 12362 374f 02       		.byte	0x2
 12363 3750 2F02     		.2byte	0x22f
 12364 3752 A9000000 		.4byte	0xa9
 12365 3756 37       		.uleb128 0x37
 12366 3757 7400     		.ascii	"t\000"
 12367 3759 02       		.byte	0x2
 12368 375a 3002     		.2byte	0x230
 12369 375c BF000000 		.4byte	0xbf
ARM GAS  /tmp/ccMboyVS.s 			page 218


 12370 3760 00       		.byte	0
 12371 3761 4D       		.uleb128 0x4d
 12372 3762 FB070000 		.4byte	.LASF173
 12373 3766 02       		.byte	0x2
 12374 3767 1F02     		.2byte	0x21f
 12375 3769 CA000000 		.4byte	0xca
 12376 376d 03       		.byte	0x3
 12377 376e 7D370000 		.4byte	0x377d
 12378 3772 4E       		.uleb128 0x4e
 12379 3773 7800     		.ascii	"x\000"
 12380 3775 02       		.byte	0x2
 12381 3776 1F02     		.2byte	0x21f
 12382 3778 A9000000 		.4byte	0xa9
 12383 377c 00       		.byte	0
 12384 377d 4D       		.uleb128 0x4d
 12385 377e 1A080000 		.4byte	.LASF174
 12386 3782 02       		.byte	0x2
 12387 3783 1B02     		.2byte	0x21b
 12388 3785 BF000000 		.4byte	0xbf
 12389 3789 03       		.byte	0x3
 12390 378a 99370000 		.4byte	0x3799
 12391 378e 4E       		.uleb128 0x4e
 12392 378f 7800     		.ascii	"x\000"
 12393 3791 02       		.byte	0x2
 12394 3792 1B02     		.2byte	0x21b
 12395 3794 A9000000 		.4byte	0xa9
 12396 3798 00       		.byte	0
 12397 3799 4D       		.uleb128 0x4d
 12398 379a F1070000 		.4byte	.LASF175
 12399 379e 02       		.byte	0x2
 12400 379f 1402     		.2byte	0x214
 12401 37a1 D5000000 		.4byte	0xd5
 12402 37a5 03       		.byte	0x3
 12403 37a6 CD370000 		.4byte	0x37cd
 12404 37aa 4E       		.uleb128 0x4e
 12405 37ab 7800     		.ascii	"x\000"
 12406 37ad 02       		.byte	0x2
 12407 37ae 1402     		.2byte	0x214
 12408 37b0 A9000000 		.4byte	0xa9
 12409 37b4 42       		.uleb128 0x42
 12410 37b5 98040000 		.4byte	.LASF176
 12411 37b9 02       		.byte	0x2
 12412 37ba 1502     		.2byte	0x215
 12413 37bc D5000000 		.4byte	0xd5
 12414 37c0 37       		.uleb128 0x37
 12415 37c1 746D7000 		.ascii	"tmp\000"
 12416 37c5 02       		.byte	0x2
 12417 37c6 1602     		.2byte	0x216
 12418 37c8 BF000000 		.4byte	0xbf
 12419 37cc 00       		.byte	0
 12420 37cd 4D       		.uleb128 0x4d
 12421 37ce 3A000000 		.4byte	.LASF177
 12422 37d2 02       		.byte	0x2
 12423 37d3 1002     		.2byte	0x210
 12424 37d5 BF000000 		.4byte	0xbf
 12425 37d9 03       		.byte	0x3
 12426 37da E9370000 		.4byte	0x37e9
ARM GAS  /tmp/ccMboyVS.s 			page 219


 12427 37de 4E       		.uleb128 0x4e
 12428 37df 7800     		.ascii	"x\000"
 12429 37e1 02       		.byte	0x2
 12430 37e2 1002     		.2byte	0x210
 12431 37e4 A9000000 		.4byte	0xa9
 12432 37e8 00       		.byte	0
 12433 37e9 4D       		.uleb128 0x4d
 12434 37ea 72050000 		.4byte	.LASF178
 12435 37ee 02       		.byte	0x2
 12436 37ef 0C02     		.2byte	0x20c
 12437 37f1 E9000000 		.4byte	0xe9
 12438 37f5 03       		.byte	0x3
 12439 37f6 05380000 		.4byte	0x3805
 12440 37fa 4E       		.uleb128 0x4e
 12441 37fb 7800     		.ascii	"x\000"
 12442 37fd 02       		.byte	0x2
 12443 37fe 0C02     		.2byte	0x20c
 12444 3800 A9000000 		.4byte	0xa9
 12445 3804 00       		.byte	0
 12446 3805 4D       		.uleb128 0x4d
 12447 3806 8B080000 		.4byte	.LASF179
 12448 380a 02       		.byte	0x2
 12449 380b 0802     		.2byte	0x208
 12450 380d BF000000 		.4byte	0xbf
 12451 3811 03       		.byte	0x3
 12452 3812 21380000 		.4byte	0x3821
 12453 3816 4E       		.uleb128 0x4e
 12454 3817 7800     		.ascii	"x\000"
 12455 3819 02       		.byte	0x2
 12456 381a 0802     		.2byte	0x208
 12457 381c A9000000 		.4byte	0xa9
 12458 3820 00       		.byte	0
 12459 3821 4D       		.uleb128 0x4d
 12460 3822 65080000 		.4byte	.LASF180
 12461 3826 02       		.byte	0x2
 12462 3827 0402     		.2byte	0x204
 12463 3829 CA000000 		.4byte	0xca
 12464 382d 03       		.byte	0x3
 12465 382e 3D380000 		.4byte	0x383d
 12466 3832 4E       		.uleb128 0x4e
 12467 3833 7800     		.ascii	"x\000"
 12468 3835 02       		.byte	0x2
 12469 3836 0402     		.2byte	0x204
 12470 3838 A9000000 		.4byte	0xa9
 12471 383c 00       		.byte	0
 12472 383d 4D       		.uleb128 0x4d
 12473 383e 58080000 		.4byte	.LASF181
 12474 3842 02       		.byte	0x2
 12475 3843 0002     		.2byte	0x200
 12476 3845 A9000000 		.4byte	0xa9
 12477 3849 03       		.byte	0x3
 12478 384a 59380000 		.4byte	0x3859
 12479 384e 4E       		.uleb128 0x4e
 12480 384f 7800     		.ascii	"x\000"
 12481 3851 02       		.byte	0x2
 12482 3852 0002     		.2byte	0x200
 12483 3854 E9000000 		.4byte	0xe9
ARM GAS  /tmp/ccMboyVS.s 			page 220


 12484 3858 00       		.byte	0
 12485 3859 4D       		.uleb128 0x4d
 12486 385a 55060000 		.4byte	.LASF182
 12487 385e 02       		.byte	0x2
 12488 385f F801     		.2byte	0x1f8
 12489 3861 A9000000 		.4byte	0xa9
 12490 3865 03       		.byte	0x3
 12491 3866 89380000 		.4byte	0x3889
 12492 386a 4E       		.uleb128 0x4e
 12493 386b 7800     		.ascii	"x\000"
 12494 386d 02       		.byte	0x2
 12495 386e F801     		.2byte	0x1f8
 12496 3870 D5000000 		.4byte	0xd5
 12497 3874 37       		.uleb128 0x37
 12498 3875 7400     		.ascii	"t\000"
 12499 3877 02       		.byte	0x2
 12500 3878 F901     		.2byte	0x1f9
 12501 387a BF000000 		.4byte	0xbf
 12502 387e 37       		.uleb128 0x37
 12503 387f 6600     		.ascii	"f\000"
 12504 3881 02       		.byte	0x2
 12505 3882 FB01     		.2byte	0x1fb
 12506 3884 A9000000 		.4byte	0xa9
 12507 3888 00       		.byte	0
 12508 3889 4D       		.uleb128 0x4d
 12509 388a 89060000 		.4byte	.LASF183
 12510 388e 02       		.byte	0x2
 12511 388f F201     		.2byte	0x1f2
 12512 3891 A9000000 		.4byte	0xa9
 12513 3895 03       		.byte	0x3
 12514 3896 AF380000 		.4byte	0x38af
 12515 389a 4E       		.uleb128 0x4e
 12516 389b 7800     		.ascii	"x\000"
 12517 389d 02       		.byte	0x2
 12518 389e F201     		.2byte	0x1f2
 12519 38a0 BF000000 		.4byte	0xbf
 12520 38a4 37       		.uleb128 0x37
 12521 38a5 7500     		.ascii	"u\000"
 12522 38a7 02       		.byte	0x2
 12523 38a8 F301     		.2byte	0x1f3
 12524 38aa A9000000 		.4byte	0xa9
 12525 38ae 00       		.byte	0
 12526 38af 4D       		.uleb128 0x4d
 12527 38b0 5F060000 		.4byte	.LASF184
 12528 38b4 02       		.byte	0x2
 12529 38b5 EC01     		.2byte	0x1ec
 12530 38b7 A9000000 		.4byte	0xa9
 12531 38bb 03       		.byte	0x3
 12532 38bc D5380000 		.4byte	0x38d5
 12533 38c0 4E       		.uleb128 0x4e
 12534 38c1 7800     		.ascii	"x\000"
 12535 38c3 02       		.byte	0x2
 12536 38c4 EC01     		.2byte	0x1ec
 12537 38c6 CA000000 		.4byte	0xca
 12538 38ca 37       		.uleb128 0x37
 12539 38cb 6900     		.ascii	"i\000"
 12540 38cd 02       		.byte	0x2
ARM GAS  /tmp/ccMboyVS.s 			page 221


 12541 38ce ED01     		.2byte	0x1ed
 12542 38d0 A9000000 		.4byte	0xa9
 12543 38d4 00       		.byte	0
 12544 38d5 4D       		.uleb128 0x4d
 12545 38d6 EB060000 		.4byte	.LASF185
 12546 38da 02       		.byte	0x2
 12547 38db E801     		.2byte	0x1e8
 12548 38dd A9000000 		.4byte	0xa9
 12549 38e1 03       		.byte	0x3
 12550 38e2 F1380000 		.4byte	0x38f1
 12551 38e6 4E       		.uleb128 0x4e
 12552 38e7 7800     		.ascii	"x\000"
 12553 38e9 02       		.byte	0x2
 12554 38ea E801     		.2byte	0x1e8
 12555 38ec BF000000 		.4byte	0xbf
 12556 38f0 00       		.byte	0
 12557 38f1 4D       		.uleb128 0x4d
 12558 38f2 BA060000 		.4byte	.LASF186
 12559 38f6 02       		.byte	0x2
 12560 38f7 E401     		.2byte	0x1e4
 12561 38f9 A9000000 		.4byte	0xa9
 12562 38fd 03       		.byte	0x3
 12563 38fe 0D390000 		.4byte	0x390d
 12564 3902 4E       		.uleb128 0x4e
 12565 3903 7800     		.ascii	"x\000"
 12566 3905 02       		.byte	0x2
 12567 3906 E401     		.2byte	0x1e4
 12568 3908 CA000000 		.4byte	0xca
 12569 390c 00       		.byte	0
 12570 390d 4D       		.uleb128 0x4d
 12571 390e 5C040000 		.4byte	.LASF187
 12572 3912 02       		.byte	0x2
 12573 3913 E001     		.2byte	0x1e0
 12574 3915 A9000000 		.4byte	0xa9
 12575 3919 03       		.byte	0x3
 12576 391a 29390000 		.4byte	0x3929
 12577 391e 4E       		.uleb128 0x4e
 12578 391f 7300     		.ascii	"s\000"
 12579 3921 02       		.byte	0x2
 12580 3922 E001     		.2byte	0x1e0
 12581 3924 93000000 		.4byte	0x93
 12582 3928 00       		.byte	0
 12583 3929 4D       		.uleb128 0x4d
 12584 392a 30030000 		.4byte	.LASF188
 12585 392e 02       		.byte	0x2
 12586 392f DC01     		.2byte	0x1dc
 12587 3931 A9000000 		.4byte	0xa9
 12588 3935 03       		.byte	0x3
 12589 3936 4F390000 		.4byte	0x394f
 12590 393a 4E       		.uleb128 0x4e
 12591 393b 7000     		.ascii	"p\000"
 12592 393d 02       		.byte	0x2
 12593 393e DC01     		.2byte	0x1dc
 12594 3940 A9000000 		.4byte	0xa9
 12595 3944 4E       		.uleb128 0x4e
 12596 3945 7400     		.ascii	"t\000"
 12597 3947 02       		.byte	0x2
ARM GAS  /tmp/ccMboyVS.s 			page 222


 12598 3948 DC01     		.2byte	0x1dc
 12599 394a B4000000 		.4byte	0xb4
 12600 394e 00       		.byte	0
 12601 394f 4D       		.uleb128 0x4d
 12602 3950 D1080000 		.4byte	.LASF189
 12603 3954 02       		.byte	0x2
 12604 3955 D001     		.2byte	0x1d0
 12605 3957 E2000000 		.4byte	0xe2
 12606 395b 03       		.byte	0x3
 12607 395c 6B390000 		.4byte	0x396b
 12608 3960 4E       		.uleb128 0x4e
 12609 3961 7800     		.ascii	"x\000"
 12610 3963 02       		.byte	0x2
 12611 3964 D001     		.2byte	0x1d0
 12612 3966 A9000000 		.4byte	0xa9
 12613 396a 00       		.byte	0
 12614 396b 4D       		.uleb128 0x4d
 12615 396c A2030000 		.4byte	.LASF190
 12616 3970 02       		.byte	0x2
 12617 3971 CC01     		.2byte	0x1cc
 12618 3973 B4000000 		.4byte	0xb4
 12619 3977 03       		.byte	0x3
 12620 3978 87390000 		.4byte	0x3987
 12621 397c 4E       		.uleb128 0x4e
 12622 397d 7800     		.ascii	"x\000"
 12623 397f 02       		.byte	0x2
 12624 3980 CC01     		.2byte	0x1cc
 12625 3982 A9000000 		.4byte	0xa9
 12626 3986 00       		.byte	0
 12627 3987 4F       		.uleb128 0x4f
 12628 3988 F9310000 		.4byte	0x31f9
 12629 398c 00000000 		.4byte	.LFB61
 12630 3990 CE010000 		.4byte	.LFE61-.LFB61
 12631 3994 01       		.uleb128 0x1
 12632 3995 9C       		.byte	0x9c
 12633 3996 703C0000 		.4byte	0x3c70
 12634 399a 31       		.uleb128 0x31
 12635 399b 06320000 		.4byte	0x3206
 12636 399f 0F330000 		.4byte	.LLST7
 12637 39a3 31       		.uleb128 0x31
 12638 39a4 12320000 		.4byte	0x3212
 12639 39a8 6D330000 		.4byte	.LLST8
 12640 39ac 31       		.uleb128 0x31
 12641 39ad 1E320000 		.4byte	0x321e
 12642 39b1 8E330000 		.4byte	.LLST9
 12643 39b5 35       		.uleb128 0x35
 12644 39b6 2A320000 		.4byte	0x322a
 12645 39ba DB330000 		.4byte	.LLST10
 12646 39be 35       		.uleb128 0x35
 12647 39bf 36320000 		.4byte	0x3236
 12648 39c3 13340000 		.4byte	.LLST11
 12649 39c7 35       		.uleb128 0x35
 12650 39c8 42320000 		.4byte	0x3242
 12651 39cc 3C340000 		.4byte	.LLST12
 12652 39d0 35       		.uleb128 0x35
 12653 39d1 4E320000 		.4byte	0x324e
 12654 39d5 7B340000 		.4byte	.LLST13
ARM GAS  /tmp/ccMboyVS.s 			page 223


 12655 39d9 35       		.uleb128 0x35
 12656 39da 5A320000 		.4byte	0x325a
 12657 39de 9A340000 		.4byte	.LLST14
 12658 39e2 35       		.uleb128 0x35
 12659 39e3 66320000 		.4byte	0x3266
 12660 39e7 29350000 		.4byte	.LLST15
 12661 39eb 35       		.uleb128 0x35
 12662 39ec 72320000 		.4byte	0x3272
 12663 39f0 54350000 		.4byte	.LLST16
 12664 39f4 35       		.uleb128 0x35
 12665 39f5 7D320000 		.4byte	0x327d
 12666 39f9 7D350000 		.4byte	.LLST17
 12667 39fd 2B       		.uleb128 0x2b
 12668 39fe 3B370000 		.4byte	0x373b
 12669 3a02 16000000 		.4byte	.LBB683
 12670 3a06 28000000 		.4byte	.LBE683-.LBB683
 12671 3a0a 01       		.byte	0x1
 12672 3a0b 2301     		.2byte	0x123
 12673 3a0d 443A0000 		.4byte	0x3a44
 12674 3a11 31       		.uleb128 0x31
 12675 3a12 4C370000 		.4byte	0x374c
 12676 3a16 A6350000 		.4byte	.LLST18
 12677 3a1a 32       		.uleb128 0x32
 12678 3a1b 16000000 		.4byte	.LBB684
 12679 3a1f 28000000 		.4byte	.LBE684-.LBB684
 12680 3a23 33       		.uleb128 0x33
 12681 3a24 56370000 		.4byte	0x3756
 12682 3a28 34       		.uleb128 0x34
 12683 3a29 6B390000 		.4byte	0x396b
 12684 3a2d 16000000 		.4byte	.LBB685
 12685 3a31 0C000000 		.4byte	.LBE685-.LBB685
 12686 3a35 02       		.byte	0x2
 12687 3a36 3002     		.2byte	0x230
 12688 3a38 31       		.uleb128 0x31
 12689 3a39 7C390000 		.4byte	0x397c
 12690 3a3d B9350000 		.4byte	.LLST19
 12691 3a41 00       		.byte	0
 12692 3a42 00       		.byte	0
 12693 3a43 00       		.byte	0
 12694 3a44 36       		.uleb128 0x36
 12695 3a45 3B370000 		.4byte	0x373b
 12696 3a49 42000000 		.4byte	.LBB687
 12697 3a4d 18000000 		.4byte	.Ldebug_ranges0+0x18
 12698 3a51 01       		.byte	0x1
 12699 3a52 2301     		.2byte	0x123
 12700 3a54 873A0000 		.4byte	0x3a87
 12701 3a58 31       		.uleb128 0x31
 12702 3a59 4C370000 		.4byte	0x374c
 12703 3a5d CC350000 		.4byte	.LLST20
 12704 3a61 39       		.uleb128 0x39
 12705 3a62 18000000 		.4byte	.Ldebug_ranges0+0x18
 12706 3a66 33       		.uleb128 0x33
 12707 3a67 56370000 		.4byte	0x3756
 12708 3a6b 3A       		.uleb128 0x3a
 12709 3a6c 6B390000 		.4byte	0x396b
 12710 3a70 42000000 		.4byte	.LBB689
 12711 3a74 30000000 		.4byte	.Ldebug_ranges0+0x30
ARM GAS  /tmp/ccMboyVS.s 			page 224


 12712 3a78 02       		.byte	0x2
 12713 3a79 3002     		.2byte	0x230
 12714 3a7b 31       		.uleb128 0x31
 12715 3a7c 7C390000 		.4byte	0x397c
 12716 3a80 EA350000 		.4byte	.LLST21
 12717 3a84 00       		.byte	0
 12718 3a85 00       		.byte	0
 12719 3a86 00       		.byte	0
 12720 3a87 36       		.uleb128 0x36
 12721 3a88 6B390000 		.4byte	0x396b
 12722 3a8c 86000000 		.4byte	.LBB694
 12723 3a90 48000000 		.4byte	.Ldebug_ranges0+0x48
 12724 3a94 01       		.byte	0x1
 12725 3a95 3001     		.2byte	0x130
 12726 3a97 A13A0000 		.4byte	0x3aa1
 12727 3a9b 2C       		.uleb128 0x2c
 12728 3a9c 7C390000 		.4byte	0x397c
 12729 3aa0 00       		.byte	0
 12730 3aa1 50       		.uleb128 0x50
 12731 3aa2 9B320000 		.4byte	0x329b
 12732 3aa6 60000000 		.4byte	.Ldebug_ranges0+0x60
 12733 3aaa 563C0000 		.4byte	0x3c56
 12734 3aae 35       		.uleb128 0x35
 12735 3aaf 9C320000 		.4byte	0x329c
 12736 3ab3 08360000 		.4byte	.LLST22
 12737 3ab7 3E       		.uleb128 0x3e
 12738 3ab8 A8320000 		.4byte	0x32a8
 12739 3abc 01       		.uleb128 0x1
 12740 3abd 59       		.byte	0x59
 12741 3abe 50       		.uleb128 0x50
 12742 3abf B4320000 		.4byte	0x32b4
 12743 3ac3 78000000 		.4byte	.Ldebug_ranges0+0x78
 12744 3ac7 453C0000 		.4byte	0x3c45
 12745 3acb 3E       		.uleb128 0x3e
 12746 3acc B5320000 		.4byte	0x32b5
 12747 3ad0 01       		.uleb128 0x1
 12748 3ad1 54       		.byte	0x54
 12749 3ad2 2B       		.uleb128 0x2b
 12750 3ad3 D5380000 		.4byte	0x38d5
 12751 3ad7 08010000 		.4byte	.LBB701
 12752 3adb 0A000000 		.4byte	.LBE701-.LBB701
 12753 3adf 01       		.byte	0x1
 12754 3ae0 4201     		.2byte	0x142
 12755 3ae2 F03A0000 		.4byte	0x3af0
 12756 3ae6 31       		.uleb128 0x31
 12757 3ae7 E6380000 		.4byte	0x38e6
 12758 3aeb 26360000 		.4byte	.LLST23
 12759 3aef 00       		.byte	0
 12760 3af0 2B       		.uleb128 0x2b
 12761 3af1 3D380000 		.4byte	0x383d
 12762 3af5 24010000 		.4byte	.LBB703
 12763 3af9 0C000000 		.4byte	.LBE703-.LBB703
 12764 3afd 01       		.byte	0x1
 12765 3afe 3F01     		.2byte	0x13f
 12766 3b00 0E3B0000 		.4byte	0x3b0e
 12767 3b04 31       		.uleb128 0x31
 12768 3b05 4E380000 		.4byte	0x384e
ARM GAS  /tmp/ccMboyVS.s 			page 225


 12769 3b09 3F360000 		.4byte	.LLST24
 12770 3b0d 00       		.byte	0
 12771 3b0e 2B       		.uleb128 0x2b
 12772 3b0f 6B390000 		.4byte	0x396b
 12773 3b13 3C010000 		.4byte	.LBB705
 12774 3b17 0C000000 		.4byte	.LBE705-.LBB705
 12775 3b1b 01       		.byte	0x1
 12776 3b1c 4901     		.2byte	0x149
 12777 3b1e 283B0000 		.4byte	0x3b28
 12778 3b22 2C       		.uleb128 0x2c
 12779 3b23 7C390000 		.4byte	0x397c
 12780 3b27 00       		.byte	0
 12781 3b28 2B       		.uleb128 0x2b
 12782 3b29 29390000 		.4byte	0x3929
 12783 3b2d 4E010000 		.4byte	.LBB707
 12784 3b31 12000000 		.4byte	.LBE707-.LBB707
 12785 3b35 01       		.byte	0x1
 12786 3b36 4A01     		.2byte	0x14a
 12787 3b38 4F3B0000 		.4byte	0x3b4f
 12788 3b3c 31       		.uleb128 0x31
 12789 3b3d 44390000 		.4byte	0x3944
 12790 3b41 56360000 		.4byte	.LLST25
 12791 3b45 31       		.uleb128 0x31
 12792 3b46 3A390000 		.4byte	0x393a
 12793 3b4a 6C360000 		.4byte	.LLST26
 12794 3b4e 00       		.byte	0
 12795 3b4f 2B       		.uleb128 0x2b
 12796 3b50 6B390000 		.4byte	0x396b
 12797 3b54 6E010000 		.4byte	.LBB709
 12798 3b58 0C000000 		.4byte	.LBE709-.LBB709
 12799 3b5c 01       		.byte	0x1
 12800 3b5d 5301     		.2byte	0x153
 12801 3b5f 693B0000 		.4byte	0x3b69
 12802 3b63 2C       		.uleb128 0x2c
 12803 3b64 7C390000 		.4byte	0x397c
 12804 3b68 00       		.byte	0
 12805 3b69 2B       		.uleb128 0x2b
 12806 3b6a 29390000 		.4byte	0x3929
 12807 3b6e 80010000 		.4byte	.LBB711
 12808 3b72 12000000 		.4byte	.LBE711-.LBB711
 12809 3b76 01       		.byte	0x1
 12810 3b77 5401     		.2byte	0x154
 12811 3b79 903B0000 		.4byte	0x3b90
 12812 3b7d 31       		.uleb128 0x31
 12813 3b7e 44390000 		.4byte	0x3944
 12814 3b82 7F360000 		.4byte	.LLST27
 12815 3b86 31       		.uleb128 0x31
 12816 3b87 3A390000 		.4byte	0x393a
 12817 3b8b 95360000 		.4byte	.LLST28
 12818 3b8f 00       		.byte	0
 12819 3b90 2B       		.uleb128 0x2b
 12820 3b91 F1380000 		.4byte	0x38f1
 12821 3b95 92010000 		.4byte	.LBB713
 12822 3b99 0C000000 		.4byte	.LBE713-.LBB713
 12823 3b9d 01       		.byte	0x1
 12824 3b9e 4501     		.2byte	0x145
 12825 3ba0 AE3B0000 		.4byte	0x3bae
ARM GAS  /tmp/ccMboyVS.s 			page 226


 12826 3ba4 31       		.uleb128 0x31
 12827 3ba5 02390000 		.4byte	0x3902
 12828 3ba9 A8360000 		.4byte	.LLST29
 12829 3bad 00       		.byte	0
 12830 3bae 2B       		.uleb128 0x2b
 12831 3baf 6B390000 		.4byte	0x396b
 12832 3bb3 AA010000 		.4byte	.LBB715
 12833 3bb7 0C000000 		.4byte	.LBE715-.LBB715
 12834 3bbb 01       		.byte	0x1
 12835 3bbc 4E01     		.2byte	0x14e
 12836 3bbe C83B0000 		.4byte	0x3bc8
 12837 3bc2 2C       		.uleb128 0x2c
 12838 3bc3 7C390000 		.4byte	0x397c
 12839 3bc7 00       		.byte	0
 12840 3bc8 2B       		.uleb128 0x2b
 12841 3bc9 29390000 		.4byte	0x3929
 12842 3bcd BC010000 		.4byte	.LBB717
 12843 3bd1 12000000 		.4byte	.LBE717-.LBB717
 12844 3bd5 01       		.byte	0x1
 12845 3bd6 4F01     		.2byte	0x14f
 12846 3bd8 EF3B0000 		.4byte	0x3bef
 12847 3bdc 31       		.uleb128 0x31
 12848 3bdd 44390000 		.4byte	0x3944
 12849 3be1 C1360000 		.4byte	.LLST30
 12850 3be5 31       		.uleb128 0x31
 12851 3be6 3A390000 		.4byte	0x393a
 12852 3bea D7360000 		.4byte	.LLST31
 12853 3bee 00       		.byte	0
 12854 3bef 2E       		.uleb128 0x2e
 12855 3bf0 20010000 		.4byte	.LVL69
 12856 3bf4 F23C0000 		.4byte	0x3cf2
 12857 3bf8 093C0000 		.4byte	0x3c09
 12858 3bfc 2F       		.uleb128 0x2f
 12859 3bfd 01       		.uleb128 0x1
 12860 3bfe 50       		.byte	0x50
 12861 3bff 02       		.uleb128 0x2
 12862 3c00 75       		.byte	0x75
 12863 3c01 00       		.sleb128 0
 12864 3c02 2F       		.uleb128 0x2f
 12865 3c03 01       		.uleb128 0x1
 12866 3c04 51       		.byte	0x51
 12867 3c05 02       		.uleb128 0x2
 12868 3c06 7B       		.byte	0x7b
 12869 3c07 00       		.sleb128 0
 12870 3c08 00       		.byte	0
 12871 3c09 2E       		.uleb128 0x2e
 12872 3c0a 3C010000 		.4byte	.LVL73
 12873 3c0e F23C0000 		.4byte	0x3cf2
 12874 3c12 1E3C0000 		.4byte	0x3c1e
 12875 3c16 2F       		.uleb128 0x2f
 12876 3c17 01       		.uleb128 0x1
 12877 3c18 51       		.byte	0x51
 12878 3c19 03       		.uleb128 0x3
 12879 3c1a 0A       		.byte	0xa
 12880 3c1b 2002     		.2byte	0x220
 12881 3c1d 00       		.byte	0
 12882 3c1e 2E       		.uleb128 0x2e
ARM GAS  /tmp/ccMboyVS.s 			page 227


 12883 3c1f 6C010000 		.4byte	.LVL78
 12884 3c23 F23C0000 		.4byte	0x3cf2
 12885 3c27 333C0000 		.4byte	0x3c33
 12886 3c2b 2F       		.uleb128 0x2f
 12887 3c2c 01       		.uleb128 0x1
 12888 3c2d 51       		.byte	0x51
 12889 3c2e 03       		.uleb128 0x3
 12890 3c2f 0A       		.byte	0xa
 12891 3c30 3002     		.2byte	0x230
 12892 3c32 00       		.byte	0
 12893 3c33 30       		.uleb128 0x30
 12894 3c34 AA010000 		.4byte	.LVL86
 12895 3c38 F23C0000 		.4byte	0x3cf2
 12896 3c3c 2F       		.uleb128 0x2f
 12897 3c3d 01       		.uleb128 0x1
 12898 3c3e 51       		.byte	0x51
 12899 3c3f 03       		.uleb128 0x3
 12900 3c40 0A       		.byte	0xa
 12901 3c41 1002     		.2byte	0x210
 12902 3c43 00       		.byte	0
 12903 3c44 00       		.byte	0
 12904 3c45 30       		.uleb128 0x30
 12905 3c46 B4000000 		.4byte	.LVL59
 12906 3c4a FE3C0000 		.4byte	0x3cfe
 12907 3c4e 2F       		.uleb128 0x2f
 12908 3c4f 01       		.uleb128 0x1
 12909 3c50 50       		.byte	0x50
 12910 3c51 02       		.uleb128 0x2
 12911 3c52 75       		.byte	0x75
 12912 3c53 00       		.sleb128 0
 12913 3c54 00       		.byte	0
 12914 3c55 00       		.byte	0
 12915 3c56 2D       		.uleb128 0x2d
 12916 3c57 72000000 		.4byte	.LVL50
 12917 3c5b E63C0000 		.4byte	0x3ce6
 12918 3c5f 30       		.uleb128 0x30
 12919 3c60 7A000000 		.4byte	.LVL53
 12920 3c64 E63C0000 		.4byte	0x3ce6
 12921 3c68 2F       		.uleb128 0x2f
 12922 3c69 01       		.uleb128 0x1
 12923 3c6a 50       		.byte	0x50
 12924 3c6b 02       		.uleb128 0x2
 12925 3c6c 74       		.byte	0x74
 12926 3c6d 00       		.sleb128 0
 12927 3c6e 00       		.byte	0
 12928 3c6f 00       		.byte	0
 12929 3c70 4F       		.uleb128 0x4f
 12930 3c71 F9310000 		.4byte	0x31f9
 12931 3c75 00000000 		.4byte	.LFB57
 12932 3c79 0A000000 		.4byte	.LFE57-.LFB57
 12933 3c7d 01       		.uleb128 0x1
 12934 3c7e 9C       		.byte	0x9c
 12935 3c7f E63C0000 		.4byte	0x3ce6
 12936 3c83 31       		.uleb128 0x31
 12937 3c84 06320000 		.4byte	0x3206
 12938 3c88 EA360000 		.4byte	.LLST32
 12939 3c8c 31       		.uleb128 0x31
ARM GAS  /tmp/ccMboyVS.s 			page 228


 12940 3c8d 12320000 		.4byte	0x3212
 12941 3c91 16370000 		.4byte	.LLST33
 12942 3c95 31       		.uleb128 0x31
 12943 3c96 1E320000 		.4byte	0x321e
 12944 3c9a 42370000 		.4byte	.LLST34
 12945 3c9e 33       		.uleb128 0x33
 12946 3c9f 2A320000 		.4byte	0x322a
 12947 3ca3 33       		.uleb128 0x33
 12948 3ca4 36320000 		.4byte	0x3236
 12949 3ca8 33       		.uleb128 0x33
 12950 3ca9 42320000 		.4byte	0x3242
 12951 3cad 33       		.uleb128 0x33
 12952 3cae 4E320000 		.4byte	0x324e
 12953 3cb2 33       		.uleb128 0x33
 12954 3cb3 5A320000 		.4byte	0x325a
 12955 3cb7 33       		.uleb128 0x33
 12956 3cb8 66320000 		.4byte	0x3266
 12957 3cbc 33       		.uleb128 0x33
 12958 3cbd 72320000 		.4byte	0x3272
 12959 3cc1 33       		.uleb128 0x33
 12960 3cc2 7D320000 		.4byte	0x327d
 12961 3cc6 51       		.uleb128 0x51
 12962 3cc7 08000000 		.4byte	.LVL91
 12963 3ccb 87390000 		.4byte	0x3987
 12964 3ccf 2F       		.uleb128 0x2f
 12965 3cd0 01       		.uleb128 0x1
 12966 3cd1 50       		.byte	0x50
 12967 3cd2 03       		.uleb128 0x3
 12968 3cd3 F3       		.byte	0xf3
 12969 3cd4 01       		.uleb128 0x1
 12970 3cd5 50       		.byte	0x50
 12971 3cd6 2F       		.uleb128 0x2f
 12972 3cd7 01       		.uleb128 0x1
 12973 3cd8 51       		.byte	0x51
 12974 3cd9 03       		.uleb128 0x3
 12975 3cda F3       		.byte	0xf3
 12976 3cdb 01       		.uleb128 0x1
 12977 3cdc 51       		.byte	0x51
 12978 3cdd 2F       		.uleb128 0x2f
 12979 3cde 01       		.uleb128 0x1
 12980 3cdf 52       		.byte	0x52
 12981 3ce0 03       		.uleb128 0x3
 12982 3ce1 F3       		.byte	0xf3
 12983 3ce2 01       		.uleb128 0x1
 12984 3ce3 52       		.byte	0x52
 12985 3ce4 00       		.byte	0
 12986 3ce5 00       		.byte	0
 12987 3ce6 52       		.uleb128 0x52
 12988 3ce7 E9050000 		.4byte	.LASF191
 12989 3ceb E9050000 		.4byte	.LASF191
 12990 3cef 02       		.byte	0x2
 12991 3cf0 3F01     		.2byte	0x13f
 12992 3cf2 52       		.uleb128 0x52
 12993 3cf3 A8050000 		.4byte	.LASF192
 12994 3cf7 A8050000 		.4byte	.LASF192
 12995 3cfb 02       		.byte	0x2
 12996 3cfc 5301     		.2byte	0x153
ARM GAS  /tmp/ccMboyVS.s 			page 229


 12997 3cfe 52       		.uleb128 0x52
 12998 3cff 06060000 		.4byte	.LASF193
 12999 3d03 06060000 		.4byte	.LASF193
 13000 3d07 02       		.byte	0x2
 13001 3d08 5C01     		.2byte	0x15c
 13002 3d0a 52       		.uleb128 0x52
 13003 3d0b D7070000 		.4byte	.LASF194
 13004 3d0f D7070000 		.4byte	.LASF194
 13005 3d13 02       		.byte	0x2
 13006 3d14 6401     		.2byte	0x164
 13007 3d16 53       		.uleb128 0x53
 13008 3d17 28050000 		.4byte	.LASF195
 13009 3d1b F5060000 		.4byte	.LASF197
 13010 3d1f 0C       		.byte	0xc
 13011 3d20 00       		.byte	0
 13012 3d21 28050000 		.4byte	.LASF195
 13013 3d25 53       		.uleb128 0x53
 13014 3d26 AF080000 		.4byte	.LASF196
 13015 3d2a D1000000 		.4byte	.LASF198
 13016 3d2e 0C       		.byte	0xc
 13017 3d2f 00       		.byte	0
 13018 3d30 AF080000 		.4byte	.LASF196
 13019 3d34 54       		.uleb128 0x54
 13020 3d35 49050000 		.4byte	.LASF199
 13021 3d39 49050000 		.4byte	.LASF199
 13022 3d3d 0D       		.byte	0xd
 13023 3d3e BD       		.byte	0xbd
 13024 3d3f 54       		.uleb128 0x54
 13025 3d40 17000000 		.4byte	.LASF200
 13026 3d44 17000000 		.4byte	.LASF200
 13027 3d48 0E       		.byte	0xe
 13028 3d49 29       		.byte	0x29
 13029 3d4a 52       		.uleb128 0x52
 13030 3d4b AA020000 		.4byte	.LASF201
 13031 3d4f AA020000 		.4byte	.LASF201
 13032 3d53 02       		.byte	0x2
 13033 3d54 C501     		.2byte	0x1c5
 13034 3d56 54       		.uleb128 0x54
 13035 3d57 8F070000 		.4byte	.LASF202
 13036 3d5b 8F070000 		.4byte	.LASF202
 13037 3d5f 0D       		.byte	0xd
 13038 3d60 B7       		.byte	0xb7
 13039 3d61 54       		.uleb128 0x54
 13040 3d62 41010000 		.4byte	.LASF203
 13041 3d66 41010000 		.4byte	.LASF203
 13042 3d6a 0D       		.byte	0xd
 13043 3d6b A9       		.byte	0xa9
 13044 3d6c 52       		.uleb128 0x52
 13045 3d6d 19010000 		.4byte	.LASF204
 13046 3d71 19010000 		.4byte	.LASF204
 13047 3d75 02       		.byte	0x2
 13048 3d76 4501     		.2byte	0x145
 13049 3d78 52       		.uleb128 0x52
 13050 3d79 CA050000 		.4byte	.LASF205
 13051 3d7d CA050000 		.4byte	.LASF205
 13052 3d81 02       		.byte	0x2
 13053 3d82 4B01     		.2byte	0x14b
ARM GAS  /tmp/ccMboyVS.s 			page 230


 13054 3d84 52       		.uleb128 0x52
 13055 3d85 40090000 		.4byte	.LASF206
 13056 3d89 40090000 		.4byte	.LASF206
 13057 3d8d 0B       		.byte	0xb
 13058 3d8e 6F01     		.2byte	0x16f
 13059 3d90 52       		.uleb128 0x52
 13060 3d91 97050000 		.4byte	.LASF207
 13061 3d95 97050000 		.4byte	.LASF207
 13062 3d99 02       		.byte	0x2
 13063 3d9a 6B01     		.2byte	0x16b
 13064 3d9c 52       		.uleb128 0x52
 13065 3d9d 24030000 		.4byte	.LASF208
 13066 3da1 24030000 		.4byte	.LASF208
 13067 3da5 02       		.byte	0x2
 13068 3da6 7201     		.2byte	0x172
 13069 3da8 53       		.uleb128 0x53
 13070 3da9 CA080000 		.4byte	.LASF209
 13071 3dad F9040000 		.4byte	.LASF210
 13072 3db1 0C       		.byte	0xc
 13073 3db2 00       		.byte	0
 13074 3db3 CA080000 		.4byte	.LASF209
 13075 3db7 00       		.byte	0
 13076              		.section	.debug_abbrev,"",%progbits
 13077              	.Ldebug_abbrev0:
 13078 0000 01       		.uleb128 0x1
 13079 0001 11       		.uleb128 0x11
 13080 0002 01       		.byte	0x1
 13081 0003 25       		.uleb128 0x25
 13082 0004 0E       		.uleb128 0xe
 13083 0005 13       		.uleb128 0x13
 13084 0006 0B       		.uleb128 0xb
 13085 0007 03       		.uleb128 0x3
 13086 0008 0E       		.uleb128 0xe
 13087 0009 1B       		.uleb128 0x1b
 13088 000a 0E       		.uleb128 0xe
 13089 000b 55       		.uleb128 0x55
 13090 000c 17       		.uleb128 0x17
 13091 000d 11       		.uleb128 0x11
 13092 000e 01       		.uleb128 0x1
 13093 000f 10       		.uleb128 0x10
 13094 0010 17       		.uleb128 0x17
 13095 0011 00       		.byte	0
 13096 0012 00       		.byte	0
 13097 0013 02       		.uleb128 0x2
 13098 0014 24       		.uleb128 0x24
 13099 0015 00       		.byte	0
 13100 0016 0B       		.uleb128 0xb
 13101 0017 0B       		.uleb128 0xb
 13102 0018 3E       		.uleb128 0x3e
 13103 0019 0B       		.uleb128 0xb
 13104 001a 03       		.uleb128 0x3
 13105 001b 0E       		.uleb128 0xe
 13106 001c 00       		.byte	0
 13107 001d 00       		.byte	0
 13108 001e 03       		.uleb128 0x3
 13109 001f 16       		.uleb128 0x16
 13110 0020 00       		.byte	0
ARM GAS  /tmp/ccMboyVS.s 			page 231


 13111 0021 03       		.uleb128 0x3
 13112 0022 0E       		.uleb128 0xe
 13113 0023 3A       		.uleb128 0x3a
 13114 0024 0B       		.uleb128 0xb
 13115 0025 3B       		.uleb128 0x3b
 13116 0026 0B       		.uleb128 0xb
 13117 0027 49       		.uleb128 0x49
 13118 0028 13       		.uleb128 0x13
 13119 0029 00       		.byte	0
 13120 002a 00       		.byte	0
 13121 002b 04       		.uleb128 0x4
 13122 002c 24       		.uleb128 0x24
 13123 002d 00       		.byte	0
 13124 002e 0B       		.uleb128 0xb
 13125 002f 0B       		.uleb128 0xb
 13126 0030 3E       		.uleb128 0x3e
 13127 0031 0B       		.uleb128 0xb
 13128 0032 03       		.uleb128 0x3
 13129 0033 08       		.uleb128 0x8
 13130 0034 00       		.byte	0
 13131 0035 00       		.byte	0
 13132 0036 05       		.uleb128 0x5
 13133 0037 0F       		.uleb128 0xf
 13134 0038 00       		.byte	0
 13135 0039 0B       		.uleb128 0xb
 13136 003a 0B       		.uleb128 0xb
 13137 003b 49       		.uleb128 0x49
 13138 003c 13       		.uleb128 0x13
 13139 003d 00       		.byte	0
 13140 003e 00       		.byte	0
 13141 003f 06       		.uleb128 0x6
 13142 0040 13       		.uleb128 0x13
 13143 0041 00       		.byte	0
 13144 0042 03       		.uleb128 0x3
 13145 0043 0E       		.uleb128 0xe
 13146 0044 3C       		.uleb128 0x3c
 13147 0045 19       		.uleb128 0x19
 13148 0046 00       		.byte	0
 13149 0047 00       		.byte	0
 13150 0048 07       		.uleb128 0x7
 13151 0049 0F       		.uleb128 0xf
 13152 004a 00       		.byte	0
 13153 004b 0B       		.uleb128 0xb
 13154 004c 0B       		.uleb128 0xb
 13155 004d 00       		.byte	0
 13156 004e 00       		.byte	0
 13157 004f 08       		.uleb128 0x8
 13158 0050 26       		.uleb128 0x26
 13159 0051 00       		.byte	0
 13160 0052 49       		.uleb128 0x49
 13161 0053 13       		.uleb128 0x13
 13162 0054 00       		.byte	0
 13163 0055 00       		.byte	0
 13164 0056 09       		.uleb128 0x9
 13165 0057 16       		.uleb128 0x16
 13166 0058 00       		.byte	0
 13167 0059 03       		.uleb128 0x3
ARM GAS  /tmp/ccMboyVS.s 			page 232


 13168 005a 0E       		.uleb128 0xe
 13169 005b 3A       		.uleb128 0x3a
 13170 005c 0B       		.uleb128 0xb
 13171 005d 3B       		.uleb128 0x3b
 13172 005e 05       		.uleb128 0x5
 13173 005f 49       		.uleb128 0x49
 13174 0060 13       		.uleb128 0x13
 13175 0061 00       		.byte	0
 13176 0062 00       		.byte	0
 13177 0063 0A       		.uleb128 0xa
 13178 0064 17       		.uleb128 0x17
 13179 0065 01       		.byte	0x1
 13180 0066 0B       		.uleb128 0xb
 13181 0067 0B       		.uleb128 0xb
 13182 0068 3A       		.uleb128 0x3a
 13183 0069 0B       		.uleb128 0xb
 13184 006a 3B       		.uleb128 0x3b
 13185 006b 0B       		.uleb128 0xb
 13186 006c 01       		.uleb128 0x1
 13187 006d 13       		.uleb128 0x13
 13188 006e 00       		.byte	0
 13189 006f 00       		.byte	0
 13190 0070 0B       		.uleb128 0xb
 13191 0071 0D       		.uleb128 0xd
 13192 0072 00       		.byte	0
 13193 0073 03       		.uleb128 0x3
 13194 0074 0E       		.uleb128 0xe
 13195 0075 3A       		.uleb128 0x3a
 13196 0076 0B       		.uleb128 0xb
 13197 0077 3B       		.uleb128 0x3b
 13198 0078 0B       		.uleb128 0xb
 13199 0079 49       		.uleb128 0x49
 13200 007a 13       		.uleb128 0x13
 13201 007b 00       		.byte	0
 13202 007c 00       		.byte	0
 13203 007d 0C       		.uleb128 0xc
 13204 007e 01       		.uleb128 0x1
 13205 007f 01       		.byte	0x1
 13206 0080 49       		.uleb128 0x49
 13207 0081 13       		.uleb128 0x13
 13208 0082 01       		.uleb128 0x1
 13209 0083 13       		.uleb128 0x13
 13210 0084 00       		.byte	0
 13211 0085 00       		.byte	0
 13212 0086 0D       		.uleb128 0xd
 13213 0087 21       		.uleb128 0x21
 13214 0088 00       		.byte	0
 13215 0089 49       		.uleb128 0x49
 13216 008a 13       		.uleb128 0x13
 13217 008b 2F       		.uleb128 0x2f
 13218 008c 0B       		.uleb128 0xb
 13219 008d 00       		.byte	0
 13220 008e 00       		.byte	0
 13221 008f 0E       		.uleb128 0xe
 13222 0090 13       		.uleb128 0x13
 13223 0091 01       		.byte	0x1
 13224 0092 0B       		.uleb128 0xb
ARM GAS  /tmp/ccMboyVS.s 			page 233


 13225 0093 0B       		.uleb128 0xb
 13226 0094 3A       		.uleb128 0x3a
 13227 0095 0B       		.uleb128 0xb
 13228 0096 3B       		.uleb128 0x3b
 13229 0097 0B       		.uleb128 0xb
 13230 0098 01       		.uleb128 0x1
 13231 0099 13       		.uleb128 0x13
 13232 009a 00       		.byte	0
 13233 009b 00       		.byte	0
 13234 009c 0F       		.uleb128 0xf
 13235 009d 0D       		.uleb128 0xd
 13236 009e 00       		.byte	0
 13237 009f 03       		.uleb128 0x3
 13238 00a0 0E       		.uleb128 0xe
 13239 00a1 3A       		.uleb128 0x3a
 13240 00a2 0B       		.uleb128 0xb
 13241 00a3 3B       		.uleb128 0x3b
 13242 00a4 0B       		.uleb128 0xb
 13243 00a5 49       		.uleb128 0x49
 13244 00a6 13       		.uleb128 0x13
 13245 00a7 38       		.uleb128 0x38
 13246 00a8 0B       		.uleb128 0xb
 13247 00a9 00       		.byte	0
 13248 00aa 00       		.byte	0
 13249 00ab 10       		.uleb128 0x10
 13250 00ac 13       		.uleb128 0x13
 13251 00ad 01       		.byte	0x1
 13252 00ae 03       		.uleb128 0x3
 13253 00af 0E       		.uleb128 0xe
 13254 00b0 0B       		.uleb128 0xb
 13255 00b1 0B       		.uleb128 0xb
 13256 00b2 3A       		.uleb128 0x3a
 13257 00b3 0B       		.uleb128 0xb
 13258 00b4 3B       		.uleb128 0x3b
 13259 00b5 0B       		.uleb128 0xb
 13260 00b6 01       		.uleb128 0x1
 13261 00b7 13       		.uleb128 0x13
 13262 00b8 00       		.byte	0
 13263 00b9 00       		.byte	0
 13264 00ba 11       		.uleb128 0x11
 13265 00bb 0D       		.uleb128 0xd
 13266 00bc 00       		.byte	0
 13267 00bd 03       		.uleb128 0x3
 13268 00be 08       		.uleb128 0x8
 13269 00bf 3A       		.uleb128 0x3a
 13270 00c0 0B       		.uleb128 0xb
 13271 00c1 3B       		.uleb128 0x3b
 13272 00c2 0B       		.uleb128 0xb
 13273 00c3 49       		.uleb128 0x49
 13274 00c4 13       		.uleb128 0x13
 13275 00c5 38       		.uleb128 0x38
 13276 00c6 0B       		.uleb128 0xb
 13277 00c7 00       		.byte	0
 13278 00c8 00       		.byte	0
 13279 00c9 12       		.uleb128 0x12
 13280 00ca 13       		.uleb128 0x13
 13281 00cb 01       		.byte	0x1
ARM GAS  /tmp/ccMboyVS.s 			page 234


 13282 00cc 03       		.uleb128 0x3
 13283 00cd 0E       		.uleb128 0xe
 13284 00ce 0B       		.uleb128 0xb
 13285 00cf 05       		.uleb128 0x5
 13286 00d0 3A       		.uleb128 0x3a
 13287 00d1 0B       		.uleb128 0xb
 13288 00d2 3B       		.uleb128 0x3b
 13289 00d3 0B       		.uleb128 0xb
 13290 00d4 01       		.uleb128 0x1
 13291 00d5 13       		.uleb128 0x13
 13292 00d6 00       		.byte	0
 13293 00d7 00       		.byte	0
 13294 00d8 13       		.uleb128 0x13
 13295 00d9 0D       		.uleb128 0xd
 13296 00da 00       		.byte	0
 13297 00db 03       		.uleb128 0x3
 13298 00dc 0E       		.uleb128 0xe
 13299 00dd 3A       		.uleb128 0x3a
 13300 00de 0B       		.uleb128 0xb
 13301 00df 3B       		.uleb128 0x3b
 13302 00e0 0B       		.uleb128 0xb
 13303 00e1 49       		.uleb128 0x49
 13304 00e2 13       		.uleb128 0x13
 13305 00e3 38       		.uleb128 0x38
 13306 00e4 05       		.uleb128 0x5
 13307 00e5 00       		.byte	0
 13308 00e6 00       		.byte	0
 13309 00e7 14       		.uleb128 0x14
 13310 00e8 15       		.uleb128 0x15
 13311 00e9 00       		.byte	0
 13312 00ea 27       		.uleb128 0x27
 13313 00eb 19       		.uleb128 0x19
 13314 00ec 00       		.byte	0
 13315 00ed 00       		.byte	0
 13316 00ee 15       		.uleb128 0x15
 13317 00ef 15       		.uleb128 0x15
 13318 00f0 01       		.byte	0x1
 13319 00f1 27       		.uleb128 0x27
 13320 00f2 19       		.uleb128 0x19
 13321 00f3 49       		.uleb128 0x49
 13322 00f4 13       		.uleb128 0x13
 13323 00f5 01       		.uleb128 0x1
 13324 00f6 13       		.uleb128 0x13
 13325 00f7 00       		.byte	0
 13326 00f8 00       		.byte	0
 13327 00f9 16       		.uleb128 0x16
 13328 00fa 05       		.uleb128 0x5
 13329 00fb 00       		.byte	0
 13330 00fc 49       		.uleb128 0x49
 13331 00fd 13       		.uleb128 0x13
 13332 00fe 00       		.byte	0
 13333 00ff 00       		.byte	0
 13334 0100 17       		.uleb128 0x17
 13335 0101 13       		.uleb128 0x13
 13336 0102 01       		.byte	0x1
 13337 0103 03       		.uleb128 0x3
 13338 0104 0E       		.uleb128 0xe
ARM GAS  /tmp/ccMboyVS.s 			page 235


 13339 0105 0B       		.uleb128 0xb
 13340 0106 05       		.uleb128 0x5
 13341 0107 3A       		.uleb128 0x3a
 13342 0108 0B       		.uleb128 0xb
 13343 0109 3B       		.uleb128 0x3b
 13344 010a 05       		.uleb128 0x5
 13345 010b 01       		.uleb128 0x1
 13346 010c 13       		.uleb128 0x13
 13347 010d 00       		.byte	0
 13348 010e 00       		.byte	0
 13349 010f 18       		.uleb128 0x18
 13350 0110 0D       		.uleb128 0xd
 13351 0111 00       		.byte	0
 13352 0112 03       		.uleb128 0x3
 13353 0113 0E       		.uleb128 0xe
 13354 0114 3A       		.uleb128 0x3a
 13355 0115 0B       		.uleb128 0xb
 13356 0116 3B       		.uleb128 0x3b
 13357 0117 05       		.uleb128 0x5
 13358 0118 49       		.uleb128 0x49
 13359 0119 13       		.uleb128 0x13
 13360 011a 38       		.uleb128 0x38
 13361 011b 0B       		.uleb128 0xb
 13362 011c 00       		.byte	0
 13363 011d 00       		.byte	0
 13364 011e 19       		.uleb128 0x19
 13365 011f 0D       		.uleb128 0xd
 13366 0120 00       		.byte	0
 13367 0121 03       		.uleb128 0x3
 13368 0122 0E       		.uleb128 0xe
 13369 0123 3A       		.uleb128 0x3a
 13370 0124 0B       		.uleb128 0xb
 13371 0125 3B       		.uleb128 0x3b
 13372 0126 05       		.uleb128 0x5
 13373 0127 49       		.uleb128 0x49
 13374 0128 13       		.uleb128 0x13
 13375 0129 38       		.uleb128 0x38
 13376 012a 05       		.uleb128 0x5
 13377 012b 00       		.byte	0
 13378 012c 00       		.byte	0
 13379 012d 1A       		.uleb128 0x1a
 13380 012e 13       		.uleb128 0x13
 13381 012f 01       		.byte	0x1
 13382 0130 03       		.uleb128 0x3
 13383 0131 0E       		.uleb128 0xe
 13384 0132 0B       		.uleb128 0xb
 13385 0133 0B       		.uleb128 0xb
 13386 0134 3A       		.uleb128 0x3a
 13387 0135 0B       		.uleb128 0xb
 13388 0136 3B       		.uleb128 0x3b
 13389 0137 05       		.uleb128 0x5
 13390 0138 01       		.uleb128 0x1
 13391 0139 13       		.uleb128 0x13
 13392 013a 00       		.byte	0
 13393 013b 00       		.byte	0
 13394 013c 1B       		.uleb128 0x1b
 13395 013d 13       		.uleb128 0x13
ARM GAS  /tmp/ccMboyVS.s 			page 236


 13396 013e 01       		.byte	0x1
 13397 013f 0B       		.uleb128 0xb
 13398 0140 0B       		.uleb128 0xb
 13399 0141 3A       		.uleb128 0x3a
 13400 0142 0B       		.uleb128 0xb
 13401 0143 3B       		.uleb128 0x3b
 13402 0144 05       		.uleb128 0x5
 13403 0145 01       		.uleb128 0x1
 13404 0146 13       		.uleb128 0x13
 13405 0147 00       		.byte	0
 13406 0148 00       		.byte	0
 13407 0149 1C       		.uleb128 0x1c
 13408 014a 17       		.uleb128 0x17
 13409 014b 01       		.byte	0x1
 13410 014c 0B       		.uleb128 0xb
 13411 014d 0B       		.uleb128 0xb
 13412 014e 3A       		.uleb128 0x3a
 13413 014f 0B       		.uleb128 0xb
 13414 0150 3B       		.uleb128 0x3b
 13415 0151 05       		.uleb128 0x5
 13416 0152 01       		.uleb128 0x1
 13417 0153 13       		.uleb128 0x13
 13418 0154 00       		.byte	0
 13419 0155 00       		.byte	0
 13420 0156 1D       		.uleb128 0x1d
 13421 0157 0D       		.uleb128 0xd
 13422 0158 00       		.byte	0
 13423 0159 03       		.uleb128 0x3
 13424 015a 0E       		.uleb128 0xe
 13425 015b 3A       		.uleb128 0x3a
 13426 015c 0B       		.uleb128 0xb
 13427 015d 3B       		.uleb128 0x3b
 13428 015e 05       		.uleb128 0x5
 13429 015f 49       		.uleb128 0x49
 13430 0160 13       		.uleb128 0x13
 13431 0161 00       		.byte	0
 13432 0162 00       		.byte	0
 13433 0163 1E       		.uleb128 0x1e
 13434 0164 15       		.uleb128 0x15
 13435 0165 01       		.byte	0x1
 13436 0166 27       		.uleb128 0x27
 13437 0167 19       		.uleb128 0x19
 13438 0168 01       		.uleb128 0x1
 13439 0169 13       		.uleb128 0x13
 13440 016a 00       		.byte	0
 13441 016b 00       		.byte	0
 13442 016c 1F       		.uleb128 0x1f
 13443 016d 34       		.uleb128 0x34
 13444 016e 00       		.byte	0
 13445 016f 03       		.uleb128 0x3
 13446 0170 0E       		.uleb128 0xe
 13447 0171 3A       		.uleb128 0x3a
 13448 0172 0B       		.uleb128 0xb
 13449 0173 3B       		.uleb128 0x3b
 13450 0174 05       		.uleb128 0x5
 13451 0175 49       		.uleb128 0x49
 13452 0176 13       		.uleb128 0x13
ARM GAS  /tmp/ccMboyVS.s 			page 237


 13453 0177 3F       		.uleb128 0x3f
 13454 0178 19       		.uleb128 0x19
 13455 0179 3C       		.uleb128 0x3c
 13456 017a 19       		.uleb128 0x19
 13457 017b 00       		.byte	0
 13458 017c 00       		.byte	0
 13459 017d 20       		.uleb128 0x20
 13460 017e 34       		.uleb128 0x34
 13461 017f 00       		.byte	0
 13462 0180 03       		.uleb128 0x3
 13463 0181 0E       		.uleb128 0xe
 13464 0182 3A       		.uleb128 0x3a
 13465 0183 0B       		.uleb128 0xb
 13466 0184 3B       		.uleb128 0x3b
 13467 0185 0B       		.uleb128 0xb
 13468 0186 49       		.uleb128 0x49
 13469 0187 13       		.uleb128 0x13
 13470 0188 3F       		.uleb128 0x3f
 13471 0189 19       		.uleb128 0x19
 13472 018a 3C       		.uleb128 0x3c
 13473 018b 19       		.uleb128 0x19
 13474 018c 00       		.byte	0
 13475 018d 00       		.byte	0
 13476 018e 21       		.uleb128 0x21
 13477 018f 04       		.uleb128 0x4
 13478 0190 01       		.byte	0x1
 13479 0191 03       		.uleb128 0x3
 13480 0192 0E       		.uleb128 0xe
 13481 0193 3E       		.uleb128 0x3e
 13482 0194 0B       		.uleb128 0xb
 13483 0195 0B       		.uleb128 0xb
 13484 0196 0B       		.uleb128 0xb
 13485 0197 49       		.uleb128 0x49
 13486 0198 13       		.uleb128 0x13
 13487 0199 3A       		.uleb128 0x3a
 13488 019a 0B       		.uleb128 0xb
 13489 019b 3B       		.uleb128 0x3b
 13490 019c 05       		.uleb128 0x5
 13491 019d 01       		.uleb128 0x1
 13492 019e 13       		.uleb128 0x13
 13493 019f 00       		.byte	0
 13494 01a0 00       		.byte	0
 13495 01a1 22       		.uleb128 0x22
 13496 01a2 28       		.uleb128 0x28
 13497 01a3 00       		.byte	0
 13498 01a4 03       		.uleb128 0x3
 13499 01a5 0E       		.uleb128 0xe
 13500 01a6 1C       		.uleb128 0x1c
 13501 01a7 0D       		.uleb128 0xd
 13502 01a8 00       		.byte	0
 13503 01a9 00       		.byte	0
 13504 01aa 23       		.uleb128 0x23
 13505 01ab 28       		.uleb128 0x28
 13506 01ac 00       		.byte	0
 13507 01ad 03       		.uleb128 0x3
 13508 01ae 0E       		.uleb128 0xe
 13509 01af 1C       		.uleb128 0x1c
ARM GAS  /tmp/ccMboyVS.s 			page 238


 13510 01b0 0B       		.uleb128 0xb
 13511 01b1 00       		.byte	0
 13512 01b2 00       		.byte	0
 13513 01b3 24       		.uleb128 0x24
 13514 01b4 2E       		.uleb128 0x2e
 13515 01b5 01       		.byte	0x1
 13516 01b6 3F       		.uleb128 0x3f
 13517 01b7 19       		.uleb128 0x19
 13518 01b8 03       		.uleb128 0x3
 13519 01b9 0E       		.uleb128 0xe
 13520 01ba 3A       		.uleb128 0x3a
 13521 01bb 0B       		.uleb128 0xb
 13522 01bc 3B       		.uleb128 0x3b
 13523 01bd 05       		.uleb128 0x5
 13524 01be 27       		.uleb128 0x27
 13525 01bf 19       		.uleb128 0x19
 13526 01c0 49       		.uleb128 0x49
 13527 01c1 13       		.uleb128 0x13
 13528 01c2 11       		.uleb128 0x11
 13529 01c3 01       		.uleb128 0x1
 13530 01c4 12       		.uleb128 0x12
 13531 01c5 06       		.uleb128 0x6
 13532 01c6 40       		.uleb128 0x40
 13533 01c7 18       		.uleb128 0x18
 13534 01c8 9742     		.uleb128 0x2117
 13535 01ca 19       		.uleb128 0x19
 13536 01cb 01       		.uleb128 0x1
 13537 01cc 13       		.uleb128 0x13
 13538 01cd 00       		.byte	0
 13539 01ce 00       		.byte	0
 13540 01cf 25       		.uleb128 0x25
 13541 01d0 05       		.uleb128 0x5
 13542 01d1 00       		.byte	0
 13543 01d2 03       		.uleb128 0x3
 13544 01d3 0E       		.uleb128 0xe
 13545 01d4 3A       		.uleb128 0x3a
 13546 01d5 0B       		.uleb128 0xb
 13547 01d6 3B       		.uleb128 0x3b
 13548 01d7 05       		.uleb128 0x5
 13549 01d8 49       		.uleb128 0x49
 13550 01d9 13       		.uleb128 0x13
 13551 01da 02       		.uleb128 0x2
 13552 01db 17       		.uleb128 0x17
 13553 01dc 00       		.byte	0
 13554 01dd 00       		.byte	0
 13555 01de 26       		.uleb128 0x26
 13556 01df 05       		.uleb128 0x5
 13557 01e0 00       		.byte	0
 13558 01e1 03       		.uleb128 0x3
 13559 01e2 08       		.uleb128 0x8
 13560 01e3 3A       		.uleb128 0x3a
 13561 01e4 0B       		.uleb128 0xb
 13562 01e5 3B       		.uleb128 0x3b
 13563 01e6 05       		.uleb128 0x5
 13564 01e7 49       		.uleb128 0x49
 13565 01e8 13       		.uleb128 0x13
 13566 01e9 02       		.uleb128 0x2
ARM GAS  /tmp/ccMboyVS.s 			page 239


 13567 01ea 17       		.uleb128 0x17
 13568 01eb 00       		.byte	0
 13569 01ec 00       		.byte	0
 13570 01ed 27       		.uleb128 0x27
 13571 01ee 34       		.uleb128 0x34
 13572 01ef 00       		.byte	0
 13573 01f0 03       		.uleb128 0x3
 13574 01f1 0E       		.uleb128 0xe
 13575 01f2 3A       		.uleb128 0x3a
 13576 01f3 0B       		.uleb128 0xb
 13577 01f4 3B       		.uleb128 0x3b
 13578 01f5 05       		.uleb128 0x5
 13579 01f6 49       		.uleb128 0x49
 13580 01f7 13       		.uleb128 0x13
 13581 01f8 02       		.uleb128 0x2
 13582 01f9 17       		.uleb128 0x17
 13583 01fa 00       		.byte	0
 13584 01fb 00       		.byte	0
 13585 01fc 28       		.uleb128 0x28
 13586 01fd 0B       		.uleb128 0xb
 13587 01fe 01       		.byte	0x1
 13588 01ff 55       		.uleb128 0x55
 13589 0200 17       		.uleb128 0x17
 13590 0201 01       		.uleb128 0x1
 13591 0202 13       		.uleb128 0x13
 13592 0203 00       		.byte	0
 13593 0204 00       		.byte	0
 13594 0205 29       		.uleb128 0x29
 13595 0206 34       		.uleb128 0x34
 13596 0207 00       		.byte	0
 13597 0208 03       		.uleb128 0x3
 13598 0209 08       		.uleb128 0x8
 13599 020a 3A       		.uleb128 0x3a
 13600 020b 0B       		.uleb128 0xb
 13601 020c 3B       		.uleb128 0x3b
 13602 020d 05       		.uleb128 0x5
 13603 020e 49       		.uleb128 0x49
 13604 020f 13       		.uleb128 0x13
 13605 0210 02       		.uleb128 0x2
 13606 0211 17       		.uleb128 0x17
 13607 0212 00       		.byte	0
 13608 0213 00       		.byte	0
 13609 0214 2A       		.uleb128 0x2a
 13610 0215 0B       		.uleb128 0xb
 13611 0216 01       		.byte	0x1
 13612 0217 11       		.uleb128 0x11
 13613 0218 01       		.uleb128 0x1
 13614 0219 12       		.uleb128 0x12
 13615 021a 06       		.uleb128 0x6
 13616 021b 01       		.uleb128 0x1
 13617 021c 13       		.uleb128 0x13
 13618 021d 00       		.byte	0
 13619 021e 00       		.byte	0
 13620 021f 2B       		.uleb128 0x2b
 13621 0220 1D       		.uleb128 0x1d
 13622 0221 01       		.byte	0x1
 13623 0222 31       		.uleb128 0x31
ARM GAS  /tmp/ccMboyVS.s 			page 240


 13624 0223 13       		.uleb128 0x13
 13625 0224 11       		.uleb128 0x11
 13626 0225 01       		.uleb128 0x1
 13627 0226 12       		.uleb128 0x12
 13628 0227 06       		.uleb128 0x6
 13629 0228 58       		.uleb128 0x58
 13630 0229 0B       		.uleb128 0xb
 13631 022a 59       		.uleb128 0x59
 13632 022b 05       		.uleb128 0x5
 13633 022c 01       		.uleb128 0x1
 13634 022d 13       		.uleb128 0x13
 13635 022e 00       		.byte	0
 13636 022f 00       		.byte	0
 13637 0230 2C       		.uleb128 0x2c
 13638 0231 05       		.uleb128 0x5
 13639 0232 00       		.byte	0
 13640 0233 31       		.uleb128 0x31
 13641 0234 13       		.uleb128 0x13
 13642 0235 00       		.byte	0
 13643 0236 00       		.byte	0
 13644 0237 2D       		.uleb128 0x2d
 13645 0238 898201   		.uleb128 0x4109
 13646 023b 00       		.byte	0
 13647 023c 11       		.uleb128 0x11
 13648 023d 01       		.uleb128 0x1
 13649 023e 31       		.uleb128 0x31
 13650 023f 13       		.uleb128 0x13
 13651 0240 00       		.byte	0
 13652 0241 00       		.byte	0
 13653 0242 2E       		.uleb128 0x2e
 13654 0243 898201   		.uleb128 0x4109
 13655 0246 01       		.byte	0x1
 13656 0247 11       		.uleb128 0x11
 13657 0248 01       		.uleb128 0x1
 13658 0249 31       		.uleb128 0x31
 13659 024a 13       		.uleb128 0x13
 13660 024b 01       		.uleb128 0x1
 13661 024c 13       		.uleb128 0x13
 13662 024d 00       		.byte	0
 13663 024e 00       		.byte	0
 13664 024f 2F       		.uleb128 0x2f
 13665 0250 8A8201   		.uleb128 0x410a
 13666 0253 00       		.byte	0
 13667 0254 02       		.uleb128 0x2
 13668 0255 18       		.uleb128 0x18
 13669 0256 9142     		.uleb128 0x2111
 13670 0258 18       		.uleb128 0x18
 13671 0259 00       		.byte	0
 13672 025a 00       		.byte	0
 13673 025b 30       		.uleb128 0x30
 13674 025c 898201   		.uleb128 0x4109
 13675 025f 01       		.byte	0x1
 13676 0260 11       		.uleb128 0x11
 13677 0261 01       		.uleb128 0x1
 13678 0262 31       		.uleb128 0x31
 13679 0263 13       		.uleb128 0x13
 13680 0264 00       		.byte	0
ARM GAS  /tmp/ccMboyVS.s 			page 241


 13681 0265 00       		.byte	0
 13682 0266 31       		.uleb128 0x31
 13683 0267 05       		.uleb128 0x5
 13684 0268 00       		.byte	0
 13685 0269 31       		.uleb128 0x31
 13686 026a 13       		.uleb128 0x13
 13687 026b 02       		.uleb128 0x2
 13688 026c 17       		.uleb128 0x17
 13689 026d 00       		.byte	0
 13690 026e 00       		.byte	0
 13691 026f 32       		.uleb128 0x32
 13692 0270 0B       		.uleb128 0xb
 13693 0271 01       		.byte	0x1
 13694 0272 11       		.uleb128 0x11
 13695 0273 01       		.uleb128 0x1
 13696 0274 12       		.uleb128 0x12
 13697 0275 06       		.uleb128 0x6
 13698 0276 00       		.byte	0
 13699 0277 00       		.byte	0
 13700 0278 33       		.uleb128 0x33
 13701 0279 34       		.uleb128 0x34
 13702 027a 00       		.byte	0
 13703 027b 31       		.uleb128 0x31
 13704 027c 13       		.uleb128 0x13
 13705 027d 00       		.byte	0
 13706 027e 00       		.byte	0
 13707 027f 34       		.uleb128 0x34
 13708 0280 1D       		.uleb128 0x1d
 13709 0281 01       		.byte	0x1
 13710 0282 31       		.uleb128 0x31
 13711 0283 13       		.uleb128 0x13
 13712 0284 11       		.uleb128 0x11
 13713 0285 01       		.uleb128 0x1
 13714 0286 12       		.uleb128 0x12
 13715 0287 06       		.uleb128 0x6
 13716 0288 58       		.uleb128 0x58
 13717 0289 0B       		.uleb128 0xb
 13718 028a 59       		.uleb128 0x59
 13719 028b 05       		.uleb128 0x5
 13720 028c 00       		.byte	0
 13721 028d 00       		.byte	0
 13722 028e 35       		.uleb128 0x35
 13723 028f 34       		.uleb128 0x34
 13724 0290 00       		.byte	0
 13725 0291 31       		.uleb128 0x31
 13726 0292 13       		.uleb128 0x13
 13727 0293 02       		.uleb128 0x2
 13728 0294 17       		.uleb128 0x17
 13729 0295 00       		.byte	0
 13730 0296 00       		.byte	0
 13731 0297 36       		.uleb128 0x36
 13732 0298 1D       		.uleb128 0x1d
 13733 0299 01       		.byte	0x1
 13734 029a 31       		.uleb128 0x31
 13735 029b 13       		.uleb128 0x13
 13736 029c 52       		.uleb128 0x52
 13737 029d 01       		.uleb128 0x1
ARM GAS  /tmp/ccMboyVS.s 			page 242


 13738 029e 55       		.uleb128 0x55
 13739 029f 17       		.uleb128 0x17
 13740 02a0 58       		.uleb128 0x58
 13741 02a1 0B       		.uleb128 0xb
 13742 02a2 59       		.uleb128 0x59
 13743 02a3 05       		.uleb128 0x5
 13744 02a4 01       		.uleb128 0x1
 13745 02a5 13       		.uleb128 0x13
 13746 02a6 00       		.byte	0
 13747 02a7 00       		.byte	0
 13748 02a8 37       		.uleb128 0x37
 13749 02a9 34       		.uleb128 0x34
 13750 02aa 00       		.byte	0
 13751 02ab 03       		.uleb128 0x3
 13752 02ac 08       		.uleb128 0x8
 13753 02ad 3A       		.uleb128 0x3a
 13754 02ae 0B       		.uleb128 0xb
 13755 02af 3B       		.uleb128 0x3b
 13756 02b0 05       		.uleb128 0x5
 13757 02b1 49       		.uleb128 0x49
 13758 02b2 13       		.uleb128 0x13
 13759 02b3 00       		.byte	0
 13760 02b4 00       		.byte	0
 13761 02b5 38       		.uleb128 0x38
 13762 02b6 34       		.uleb128 0x34
 13763 02b7 00       		.byte	0
 13764 02b8 03       		.uleb128 0x3
 13765 02b9 08       		.uleb128 0x8
 13766 02ba 3A       		.uleb128 0x3a
 13767 02bb 0B       		.uleb128 0xb
 13768 02bc 3B       		.uleb128 0x3b
 13769 02bd 05       		.uleb128 0x5
 13770 02be 49       		.uleb128 0x49
 13771 02bf 13       		.uleb128 0x13
 13772 02c0 02       		.uleb128 0x2
 13773 02c1 18       		.uleb128 0x18
 13774 02c2 00       		.byte	0
 13775 02c3 00       		.byte	0
 13776 02c4 39       		.uleb128 0x39
 13777 02c5 0B       		.uleb128 0xb
 13778 02c6 01       		.byte	0x1
 13779 02c7 55       		.uleb128 0x55
 13780 02c8 17       		.uleb128 0x17
 13781 02c9 00       		.byte	0
 13782 02ca 00       		.byte	0
 13783 02cb 3A       		.uleb128 0x3a
 13784 02cc 1D       		.uleb128 0x1d
 13785 02cd 01       		.byte	0x1
 13786 02ce 31       		.uleb128 0x31
 13787 02cf 13       		.uleb128 0x13
 13788 02d0 52       		.uleb128 0x52
 13789 02d1 01       		.uleb128 0x1
 13790 02d2 55       		.uleb128 0x55
 13791 02d3 17       		.uleb128 0x17
 13792 02d4 58       		.uleb128 0x58
 13793 02d5 0B       		.uleb128 0xb
 13794 02d6 59       		.uleb128 0x59
ARM GAS  /tmp/ccMboyVS.s 			page 243


 13795 02d7 05       		.uleb128 0x5
 13796 02d8 00       		.byte	0
 13797 02d9 00       		.byte	0
 13798 02da 3B       		.uleb128 0x3b
 13799 02db 1D       		.uleb128 0x1d
 13800 02dc 01       		.byte	0x1
 13801 02dd 31       		.uleb128 0x31
 13802 02de 13       		.uleb128 0x13
 13803 02df 52       		.uleb128 0x52
 13804 02e0 01       		.uleb128 0x1
 13805 02e1 55       		.uleb128 0x55
 13806 02e2 17       		.uleb128 0x17
 13807 02e3 58       		.uleb128 0x58
 13808 02e4 0B       		.uleb128 0xb
 13809 02e5 59       		.uleb128 0x59
 13810 02e6 0B       		.uleb128 0xb
 13811 02e7 01       		.uleb128 0x1
 13812 02e8 13       		.uleb128 0x13
 13813 02e9 00       		.byte	0
 13814 02ea 00       		.byte	0
 13815 02eb 3C       		.uleb128 0x3c
 13816 02ec 1D       		.uleb128 0x1d
 13817 02ed 01       		.byte	0x1
 13818 02ee 31       		.uleb128 0x31
 13819 02ef 13       		.uleb128 0x13
 13820 02f0 11       		.uleb128 0x11
 13821 02f1 01       		.uleb128 0x1
 13822 02f2 12       		.uleb128 0x12
 13823 02f3 06       		.uleb128 0x6
 13824 02f4 58       		.uleb128 0x58
 13825 02f5 0B       		.uleb128 0xb
 13826 02f6 59       		.uleb128 0x59
 13827 02f7 0B       		.uleb128 0xb
 13828 02f8 01       		.uleb128 0x1
 13829 02f9 13       		.uleb128 0x13
 13830 02fa 00       		.byte	0
 13831 02fb 00       		.byte	0
 13832 02fc 3D       		.uleb128 0x3d
 13833 02fd 1D       		.uleb128 0x1d
 13834 02fe 01       		.byte	0x1
 13835 02ff 31       		.uleb128 0x31
 13836 0300 13       		.uleb128 0x13
 13837 0301 11       		.uleb128 0x11
 13838 0302 01       		.uleb128 0x1
 13839 0303 12       		.uleb128 0x12
 13840 0304 06       		.uleb128 0x6
 13841 0305 58       		.uleb128 0x58
 13842 0306 0B       		.uleb128 0xb
 13843 0307 59       		.uleb128 0x59
 13844 0308 0B       		.uleb128 0xb
 13845 0309 00       		.byte	0
 13846 030a 00       		.byte	0
 13847 030b 3E       		.uleb128 0x3e
 13848 030c 34       		.uleb128 0x34
 13849 030d 00       		.byte	0
 13850 030e 31       		.uleb128 0x31
 13851 030f 13       		.uleb128 0x13
ARM GAS  /tmp/ccMboyVS.s 			page 244


 13852 0310 02       		.uleb128 0x2
 13853 0311 18       		.uleb128 0x18
 13854 0312 00       		.byte	0
 13855 0313 00       		.byte	0
 13856 0314 3F       		.uleb128 0x3f
 13857 0315 898201   		.uleb128 0x4109
 13858 0318 00       		.byte	0
 13859 0319 11       		.uleb128 0x11
 13860 031a 01       		.uleb128 0x1
 13861 031b 9542     		.uleb128 0x2115
 13862 031d 19       		.uleb128 0x19
 13863 031e 31       		.uleb128 0x31
 13864 031f 13       		.uleb128 0x13
 13865 0320 00       		.byte	0
 13866 0321 00       		.byte	0
 13867 0322 40       		.uleb128 0x40
 13868 0323 2E       		.uleb128 0x2e
 13869 0324 01       		.byte	0x1
 13870 0325 3F       		.uleb128 0x3f
 13871 0326 19       		.uleb128 0x19
 13872 0327 03       		.uleb128 0x3
 13873 0328 0E       		.uleb128 0xe
 13874 0329 3A       		.uleb128 0x3a
 13875 032a 0B       		.uleb128 0xb
 13876 032b 3B       		.uleb128 0x3b
 13877 032c 05       		.uleb128 0x5
 13878 032d 27       		.uleb128 0x27
 13879 032e 19       		.uleb128 0x19
 13880 032f 11       		.uleb128 0x11
 13881 0330 01       		.uleb128 0x1
 13882 0331 12       		.uleb128 0x12
 13883 0332 06       		.uleb128 0x6
 13884 0333 40       		.uleb128 0x40
 13885 0334 18       		.uleb128 0x18
 13886 0335 9742     		.uleb128 0x2117
 13887 0337 19       		.uleb128 0x19
 13888 0338 01       		.uleb128 0x1
 13889 0339 13       		.uleb128 0x13
 13890 033a 00       		.byte	0
 13891 033b 00       		.byte	0
 13892 033c 41       		.uleb128 0x41
 13893 033d 0B       		.uleb128 0xb
 13894 033e 01       		.byte	0x1
 13895 033f 01       		.uleb128 0x1
 13896 0340 13       		.uleb128 0x13
 13897 0341 00       		.byte	0
 13898 0342 00       		.byte	0
 13899 0343 42       		.uleb128 0x42
 13900 0344 34       		.uleb128 0x34
 13901 0345 00       		.byte	0
 13902 0346 03       		.uleb128 0x3
 13903 0347 0E       		.uleb128 0xe
 13904 0348 3A       		.uleb128 0x3a
 13905 0349 0B       		.uleb128 0xb
 13906 034a 3B       		.uleb128 0x3b
 13907 034b 05       		.uleb128 0x5
 13908 034c 49       		.uleb128 0x49
ARM GAS  /tmp/ccMboyVS.s 			page 245


 13909 034d 13       		.uleb128 0x13
 13910 034e 00       		.byte	0
 13911 034f 00       		.byte	0
 13912 0350 43       		.uleb128 0x43
 13913 0351 2E       		.uleb128 0x2e
 13914 0352 01       		.byte	0x1
 13915 0353 3F       		.uleb128 0x3f
 13916 0354 19       		.uleb128 0x19
 13917 0355 03       		.uleb128 0x3
 13918 0356 0E       		.uleb128 0xe
 13919 0357 3A       		.uleb128 0x3a
 13920 0358 0B       		.uleb128 0xb
 13921 0359 3B       		.uleb128 0x3b
 13922 035a 05       		.uleb128 0x5
 13923 035b 27       		.uleb128 0x27
 13924 035c 19       		.uleb128 0x19
 13925 035d 20       		.uleb128 0x20
 13926 035e 0B       		.uleb128 0xb
 13927 035f 01       		.uleb128 0x1
 13928 0360 13       		.uleb128 0x13
 13929 0361 00       		.byte	0
 13930 0362 00       		.byte	0
 13931 0363 44       		.uleb128 0x44
 13932 0364 05       		.uleb128 0x5
 13933 0365 00       		.byte	0
 13934 0366 03       		.uleb128 0x3
 13935 0367 0E       		.uleb128 0xe
 13936 0368 3A       		.uleb128 0x3a
 13937 0369 0B       		.uleb128 0xb
 13938 036a 3B       		.uleb128 0x3b
 13939 036b 05       		.uleb128 0x5
 13940 036c 49       		.uleb128 0x49
 13941 036d 13       		.uleb128 0x13
 13942 036e 00       		.byte	0
 13943 036f 00       		.byte	0
 13944 0370 45       		.uleb128 0x45
 13945 0371 0B       		.uleb128 0xb
 13946 0372 01       		.byte	0x1
 13947 0373 00       		.byte	0
 13948 0374 00       		.byte	0
 13949 0375 46       		.uleb128 0x46
 13950 0376 2E       		.uleb128 0x2e
 13951 0377 01       		.byte	0x1
 13952 0378 03       		.uleb128 0x3
 13953 0379 0E       		.uleb128 0xe
 13954 037a 3A       		.uleb128 0x3a
 13955 037b 0B       		.uleb128 0xb
 13956 037c 3B       		.uleb128 0x3b
 13957 037d 0B       		.uleb128 0xb
 13958 037e 27       		.uleb128 0x27
 13959 037f 19       		.uleb128 0x19
 13960 0380 49       		.uleb128 0x49
 13961 0381 13       		.uleb128 0x13
 13962 0382 20       		.uleb128 0x20
 13963 0383 0B       		.uleb128 0xb
 13964 0384 01       		.uleb128 0x1
 13965 0385 13       		.uleb128 0x13
ARM GAS  /tmp/ccMboyVS.s 			page 246


 13966 0386 00       		.byte	0
 13967 0387 00       		.byte	0
 13968 0388 47       		.uleb128 0x47
 13969 0389 05       		.uleb128 0x5
 13970 038a 00       		.byte	0
 13971 038b 03       		.uleb128 0x3
 13972 038c 08       		.uleb128 0x8
 13973 038d 3A       		.uleb128 0x3a
 13974 038e 0B       		.uleb128 0xb
 13975 038f 3B       		.uleb128 0x3b
 13976 0390 0B       		.uleb128 0xb
 13977 0391 49       		.uleb128 0x49
 13978 0392 13       		.uleb128 0x13
 13979 0393 00       		.byte	0
 13980 0394 00       		.byte	0
 13981 0395 48       		.uleb128 0x48
 13982 0396 34       		.uleb128 0x34
 13983 0397 00       		.byte	0
 13984 0398 03       		.uleb128 0x3
 13985 0399 0E       		.uleb128 0xe
 13986 039a 3A       		.uleb128 0x3a
 13987 039b 0B       		.uleb128 0xb
 13988 039c 3B       		.uleb128 0x3b
 13989 039d 0B       		.uleb128 0xb
 13990 039e 49       		.uleb128 0x49
 13991 039f 13       		.uleb128 0x13
 13992 03a0 00       		.byte	0
 13993 03a1 00       		.byte	0
 13994 03a2 49       		.uleb128 0x49
 13995 03a3 34       		.uleb128 0x34
 13996 03a4 00       		.byte	0
 13997 03a5 03       		.uleb128 0x3
 13998 03a6 08       		.uleb128 0x8
 13999 03a7 3A       		.uleb128 0x3a
 14000 03a8 0B       		.uleb128 0xb
 14001 03a9 3B       		.uleb128 0x3b
 14002 03aa 0B       		.uleb128 0xb
 14003 03ab 49       		.uleb128 0x49
 14004 03ac 13       		.uleb128 0x13
 14005 03ad 00       		.byte	0
 14006 03ae 00       		.byte	0
 14007 03af 4A       		.uleb128 0x4a
 14008 03b0 2E       		.uleb128 0x2e
 14009 03b1 01       		.byte	0x1
 14010 03b2 03       		.uleb128 0x3
 14011 03b3 0E       		.uleb128 0xe
 14012 03b4 3A       		.uleb128 0x3a
 14013 03b5 0B       		.uleb128 0xb
 14014 03b6 3B       		.uleb128 0x3b
 14015 03b7 0B       		.uleb128 0xb
 14016 03b8 27       		.uleb128 0x27
 14017 03b9 19       		.uleb128 0x19
 14018 03ba 49       		.uleb128 0x49
 14019 03bb 13       		.uleb128 0x13
 14020 03bc 11       		.uleb128 0x11
 14021 03bd 01       		.uleb128 0x1
 14022 03be 12       		.uleb128 0x12
ARM GAS  /tmp/ccMboyVS.s 			page 247


 14023 03bf 06       		.uleb128 0x6
 14024 03c0 40       		.uleb128 0x40
 14025 03c1 18       		.uleb128 0x18
 14026 03c2 9742     		.uleb128 0x2117
 14027 03c4 19       		.uleb128 0x19
 14028 03c5 01       		.uleb128 0x1
 14029 03c6 13       		.uleb128 0x13
 14030 03c7 00       		.byte	0
 14031 03c8 00       		.byte	0
 14032 03c9 4B       		.uleb128 0x4b
 14033 03ca 05       		.uleb128 0x5
 14034 03cb 00       		.byte	0
 14035 03cc 03       		.uleb128 0x3
 14036 03cd 08       		.uleb128 0x8
 14037 03ce 3A       		.uleb128 0x3a
 14038 03cf 0B       		.uleb128 0xb
 14039 03d0 3B       		.uleb128 0x3b
 14040 03d1 0B       		.uleb128 0xb
 14041 03d2 49       		.uleb128 0x49
 14042 03d3 13       		.uleb128 0x13
 14043 03d4 02       		.uleb128 0x2
 14044 03d5 17       		.uleb128 0x17
 14045 03d6 00       		.byte	0
 14046 03d7 00       		.byte	0
 14047 03d8 4C       		.uleb128 0x4c
 14048 03d9 0B       		.uleb128 0xb
 14049 03da 01       		.byte	0x1
 14050 03db 31       		.uleb128 0x31
 14051 03dc 13       		.uleb128 0x13
 14052 03dd 55       		.uleb128 0x55
 14053 03de 17       		.uleb128 0x17
 14054 03df 00       		.byte	0
 14055 03e0 00       		.byte	0
 14056 03e1 4D       		.uleb128 0x4d
 14057 03e2 2E       		.uleb128 0x2e
 14058 03e3 01       		.byte	0x1
 14059 03e4 03       		.uleb128 0x3
 14060 03e5 0E       		.uleb128 0xe
 14061 03e6 3A       		.uleb128 0x3a
 14062 03e7 0B       		.uleb128 0xb
 14063 03e8 3B       		.uleb128 0x3b
 14064 03e9 05       		.uleb128 0x5
 14065 03ea 27       		.uleb128 0x27
 14066 03eb 19       		.uleb128 0x19
 14067 03ec 49       		.uleb128 0x49
 14068 03ed 13       		.uleb128 0x13
 14069 03ee 20       		.uleb128 0x20
 14070 03ef 0B       		.uleb128 0xb
 14071 03f0 01       		.uleb128 0x1
 14072 03f1 13       		.uleb128 0x13
 14073 03f2 00       		.byte	0
 14074 03f3 00       		.byte	0
 14075 03f4 4E       		.uleb128 0x4e
 14076 03f5 05       		.uleb128 0x5
 14077 03f6 00       		.byte	0
 14078 03f7 03       		.uleb128 0x3
 14079 03f8 08       		.uleb128 0x8
ARM GAS  /tmp/ccMboyVS.s 			page 248


 14080 03f9 3A       		.uleb128 0x3a
 14081 03fa 0B       		.uleb128 0xb
 14082 03fb 3B       		.uleb128 0x3b
 14083 03fc 05       		.uleb128 0x5
 14084 03fd 49       		.uleb128 0x49
 14085 03fe 13       		.uleb128 0x13
 14086 03ff 00       		.byte	0
 14087 0400 00       		.byte	0
 14088 0401 4F       		.uleb128 0x4f
 14089 0402 2E       		.uleb128 0x2e
 14090 0403 01       		.byte	0x1
 14091 0404 31       		.uleb128 0x31
 14092 0405 13       		.uleb128 0x13
 14093 0406 11       		.uleb128 0x11
 14094 0407 01       		.uleb128 0x1
 14095 0408 12       		.uleb128 0x12
 14096 0409 06       		.uleb128 0x6
 14097 040a 40       		.uleb128 0x40
 14098 040b 18       		.uleb128 0x18
 14099 040c 9742     		.uleb128 0x2117
 14100 040e 19       		.uleb128 0x19
 14101 040f 01       		.uleb128 0x1
 14102 0410 13       		.uleb128 0x13
 14103 0411 00       		.byte	0
 14104 0412 00       		.byte	0
 14105 0413 50       		.uleb128 0x50
 14106 0414 0B       		.uleb128 0xb
 14107 0415 01       		.byte	0x1
 14108 0416 31       		.uleb128 0x31
 14109 0417 13       		.uleb128 0x13
 14110 0418 55       		.uleb128 0x55
 14111 0419 17       		.uleb128 0x17
 14112 041a 01       		.uleb128 0x1
 14113 041b 13       		.uleb128 0x13
 14114 041c 00       		.byte	0
 14115 041d 00       		.byte	0
 14116 041e 51       		.uleb128 0x51
 14117 041f 898201   		.uleb128 0x4109
 14118 0422 01       		.byte	0x1
 14119 0423 11       		.uleb128 0x11
 14120 0424 01       		.uleb128 0x1
 14121 0425 9542     		.uleb128 0x2115
 14122 0427 19       		.uleb128 0x19
 14123 0428 31       		.uleb128 0x31
 14124 0429 13       		.uleb128 0x13
 14125 042a 00       		.byte	0
 14126 042b 00       		.byte	0
 14127 042c 52       		.uleb128 0x52
 14128 042d 2E       		.uleb128 0x2e
 14129 042e 00       		.byte	0
 14130 042f 3F       		.uleb128 0x3f
 14131 0430 19       		.uleb128 0x19
 14132 0431 3C       		.uleb128 0x3c
 14133 0432 19       		.uleb128 0x19
 14134 0433 6E       		.uleb128 0x6e
 14135 0434 0E       		.uleb128 0xe
 14136 0435 03       		.uleb128 0x3
ARM GAS  /tmp/ccMboyVS.s 			page 249


 14137 0436 0E       		.uleb128 0xe
 14138 0437 3A       		.uleb128 0x3a
 14139 0438 0B       		.uleb128 0xb
 14140 0439 3B       		.uleb128 0x3b
 14141 043a 05       		.uleb128 0x5
 14142 043b 00       		.byte	0
 14143 043c 00       		.byte	0
 14144 043d 53       		.uleb128 0x53
 14145 043e 2E       		.uleb128 0x2e
 14146 043f 00       		.byte	0
 14147 0440 3F       		.uleb128 0x3f
 14148 0441 19       		.uleb128 0x19
 14149 0442 3C       		.uleb128 0x3c
 14150 0443 19       		.uleb128 0x19
 14151 0444 6E       		.uleb128 0x6e
 14152 0445 0E       		.uleb128 0xe
 14153 0446 03       		.uleb128 0x3
 14154 0447 0E       		.uleb128 0xe
 14155 0448 3A       		.uleb128 0x3a
 14156 0449 0B       		.uleb128 0xb
 14157 044a 3B       		.uleb128 0x3b
 14158 044b 0B       		.uleb128 0xb
 14159 044c 6E       		.uleb128 0x6e
 14160 044d 0E       		.uleb128 0xe
 14161 044e 00       		.byte	0
 14162 044f 00       		.byte	0
 14163 0450 54       		.uleb128 0x54
 14164 0451 2E       		.uleb128 0x2e
 14165 0452 00       		.byte	0
 14166 0453 3F       		.uleb128 0x3f
 14167 0454 19       		.uleb128 0x19
 14168 0455 3C       		.uleb128 0x3c
 14169 0456 19       		.uleb128 0x19
 14170 0457 6E       		.uleb128 0x6e
 14171 0458 0E       		.uleb128 0xe
 14172 0459 03       		.uleb128 0x3
 14173 045a 0E       		.uleb128 0xe
 14174 045b 3A       		.uleb128 0x3a
 14175 045c 0B       		.uleb128 0xb
 14176 045d 3B       		.uleb128 0x3b
 14177 045e 0B       		.uleb128 0xb
 14178 045f 00       		.byte	0
 14179 0460 00       		.byte	0
 14180 0461 00       		.byte	0
 14181              		.section	.debug_loc,"",%progbits
 14182              	.Ldebug_loc0:
 14183              	.LLST53:
 14184 0000 00000000 		.4byte	.LVL132
 14185 0004 5E020000 		.4byte	.LVL138
 14186 0008 0100     		.2byte	0x1
 14187 000a 50       		.byte	0x50
 14188 000b 5E020000 		.4byte	.LVL138
 14189 000f 6C020000 		.4byte	.LVL140
 14190 0013 0400     		.2byte	0x4
 14191 0015 F3       		.byte	0xf3
 14192 0016 01       		.uleb128 0x1
 14193 0017 50       		.byte	0x50
ARM GAS  /tmp/ccMboyVS.s 			page 250


 14194 0018 9F       		.byte	0x9f
 14195 0019 6C020000 		.4byte	.LVL140
 14196 001d 82020000 		.4byte	.LVL142
 14197 0021 0100     		.2byte	0x1
 14198 0023 50       		.byte	0x50
 14199 0024 82020000 		.4byte	.LVL142
 14200 0028 BA020000 		.4byte	.LVL145
 14201 002c 0400     		.2byte	0x4
 14202 002e F3       		.byte	0xf3
 14203 002f 01       		.uleb128 0x1
 14204 0030 50       		.byte	0x50
 14205 0031 9F       		.byte	0x9f
 14206 0032 BA020000 		.4byte	.LVL145
 14207 0036 D2020000 		.4byte	.LVL146
 14208 003a 0100     		.2byte	0x1
 14209 003c 50       		.byte	0x50
 14210 003d D2020000 		.4byte	.LVL146
 14211 0041 0A030000 		.4byte	.LVL149
 14212 0045 0400     		.2byte	0x4
 14213 0047 F3       		.byte	0xf3
 14214 0048 01       		.uleb128 0x1
 14215 0049 50       		.byte	0x50
 14216 004a 9F       		.byte	0x9f
 14217 004b 0A030000 		.4byte	.LVL149
 14218 004f 22030000 		.4byte	.LVL150
 14219 0053 0100     		.2byte	0x1
 14220 0055 50       		.byte	0x50
 14221 0056 22030000 		.4byte	.LVL150
 14222 005a 5A030000 		.4byte	.LVL153
 14223 005e 0400     		.2byte	0x4
 14224 0060 F3       		.byte	0xf3
 14225 0061 01       		.uleb128 0x1
 14226 0062 50       		.byte	0x50
 14227 0063 9F       		.byte	0x9f
 14228 0064 5A030000 		.4byte	.LVL153
 14229 0068 6C030000 		.4byte	.LVL155
 14230 006c 0100     		.2byte	0x1
 14231 006e 50       		.byte	0x50
 14232 006f 6C030000 		.4byte	.LVL155
 14233 0073 94030000 		.4byte	.LVL160
 14234 0077 0400     		.2byte	0x4
 14235 0079 F3       		.byte	0xf3
 14236 007a 01       		.uleb128 0x1
 14237 007b 50       		.byte	0x50
 14238 007c 9F       		.byte	0x9f
 14239 007d 94030000 		.4byte	.LVL160
 14240 0081 E4030000 		.4byte	.LVL164
 14241 0085 0100     		.2byte	0x1
 14242 0087 50       		.byte	0x50
 14243 0088 E4030000 		.4byte	.LVL164
 14244 008c E8030000 		.4byte	.LVL165
 14245 0090 0400     		.2byte	0x4
 14246 0092 F3       		.byte	0xf3
 14247 0093 01       		.uleb128 0x1
 14248 0094 50       		.byte	0x50
 14249 0095 9F       		.byte	0x9f
 14250 0096 E8030000 		.4byte	.LVL165
ARM GAS  /tmp/ccMboyVS.s 			page 251


 14251 009a 08040000 		.4byte	.LVL168
 14252 009e 0100     		.2byte	0x1
 14253 00a0 50       		.byte	0x50
 14254 00a1 08040000 		.4byte	.LVL168
 14255 00a5 40040000 		.4byte	.LVL171
 14256 00a9 0400     		.2byte	0x4
 14257 00ab F3       		.byte	0xf3
 14258 00ac 01       		.uleb128 0x1
 14259 00ad 50       		.byte	0x50
 14260 00ae 9F       		.byte	0x9f
 14261 00af 40040000 		.4byte	.LVL171
 14262 00b3 5E040000 		.4byte	.LVL173
 14263 00b7 0100     		.2byte	0x1
 14264 00b9 50       		.byte	0x50
 14265 00ba 5E040000 		.4byte	.LVL173
 14266 00be 96040000 		.4byte	.LVL176
 14267 00c2 0400     		.2byte	0x4
 14268 00c4 F3       		.byte	0xf3
 14269 00c5 01       		.uleb128 0x1
 14270 00c6 50       		.byte	0x50
 14271 00c7 9F       		.byte	0x9f
 14272 00c8 96040000 		.4byte	.LVL176
 14273 00cc CA040000 		.4byte	.LVL182
 14274 00d0 0100     		.2byte	0x1
 14275 00d2 50       		.byte	0x50
 14276 00d3 CA040000 		.4byte	.LVL182
 14277 00d7 D2040000 		.4byte	.LVL185
 14278 00db 0400     		.2byte	0x4
 14279 00dd F3       		.byte	0xf3
 14280 00de 01       		.uleb128 0x1
 14281 00df 50       		.byte	0x50
 14282 00e0 9F       		.byte	0x9f
 14283 00e1 D2040000 		.4byte	.LVL185
 14284 00e5 F4040000 		.4byte	.LVL187
 14285 00e9 0100     		.2byte	0x1
 14286 00eb 50       		.byte	0x50
 14287 00ec F4040000 		.4byte	.LVL187
 14288 00f0 FC040000 		.4byte	.LVL190
 14289 00f4 0400     		.2byte	0x4
 14290 00f6 F3       		.byte	0xf3
 14291 00f7 01       		.uleb128 0x1
 14292 00f8 50       		.byte	0x50
 14293 00f9 9F       		.byte	0x9f
 14294 00fa FC040000 		.4byte	.LVL190
 14295 00fe 14050000 		.4byte	.LVL193
 14296 0102 0100     		.2byte	0x1
 14297 0104 50       		.byte	0x50
 14298 0105 14050000 		.4byte	.LVL193
 14299 0109 38050000 		.4byte	.LVL195
 14300 010d 0400     		.2byte	0x4
 14301 010f F3       		.byte	0xf3
 14302 0110 01       		.uleb128 0x1
 14303 0111 50       		.byte	0x50
 14304 0112 9F       		.byte	0x9f
 14305 0113 38050000 		.4byte	.LVL195
 14306 0117 55050000 		.4byte	.LVL200-1
 14307 011b 0100     		.2byte	0x1
ARM GAS  /tmp/ccMboyVS.s 			page 252


 14308 011d 50       		.byte	0x50
 14309 011e 55050000 		.4byte	.LVL200-1
 14310 0122 5A050000 		.4byte	.LVL201
 14311 0126 0400     		.2byte	0x4
 14312 0128 F3       		.byte	0xf3
 14313 0129 01       		.uleb128 0x1
 14314 012a 50       		.byte	0x50
 14315 012b 9F       		.byte	0x9f
 14316 012c 5A050000 		.4byte	.LVL201
 14317 0130 6E050000 		.4byte	.LVL203
 14318 0134 0100     		.2byte	0x1
 14319 0136 50       		.byte	0x50
 14320 0137 6E050000 		.4byte	.LVL203
 14321 013b 84050000 		.4byte	.LVL205
 14322 013f 0400     		.2byte	0x4
 14323 0141 F3       		.byte	0xf3
 14324 0142 01       		.uleb128 0x1
 14325 0143 50       		.byte	0x50
 14326 0144 9F       		.byte	0x9f
 14327 0145 84050000 		.4byte	.LVL205
 14328 0149 86050000 		.4byte	.LVL206
 14329 014d 0100     		.2byte	0x1
 14330 014f 50       		.byte	0x50
 14331 0150 86050000 		.4byte	.LVL206
 14332 0154 9C050000 		.4byte	.LVL209
 14333 0158 0400     		.2byte	0x4
 14334 015a F3       		.byte	0xf3
 14335 015b 01       		.uleb128 0x1
 14336 015c 50       		.byte	0x50
 14337 015d 9F       		.byte	0x9f
 14338 015e 9C050000 		.4byte	.LVL209
 14339 0162 A6050000 		.4byte	.LVL211
 14340 0166 0100     		.2byte	0x1
 14341 0168 50       		.byte	0x50
 14342 0169 A6050000 		.4byte	.LVL211
 14343 016d BC050000 		.4byte	.LVL214
 14344 0171 0400     		.2byte	0x4
 14345 0173 F3       		.byte	0xf3
 14346 0174 01       		.uleb128 0x1
 14347 0175 50       		.byte	0x50
 14348 0176 9F       		.byte	0x9f
 14349 0177 BC050000 		.4byte	.LVL214
 14350 017b C6050000 		.4byte	.LVL215
 14351 017f 0100     		.2byte	0x1
 14352 0181 50       		.byte	0x50
 14353 0182 C6050000 		.4byte	.LVL215
 14354 0186 D4070000 		.4byte	.LVL265
 14355 018a 0400     		.2byte	0x4
 14356 018c F3       		.byte	0xf3
 14357 018d 01       		.uleb128 0x1
 14358 018e 50       		.byte	0x50
 14359 018f 9F       		.byte	0x9f
 14360 0190 D4070000 		.4byte	.LVL265
 14361 0194 E4070000 		.4byte	.LVL266
 14362 0198 0100     		.2byte	0x1
 14363 019a 50       		.byte	0x50
 14364 019b E4070000 		.4byte	.LVL266
ARM GAS  /tmp/ccMboyVS.s 			page 253


 14365 019f CA0C0000 		.4byte	.LVL443
 14366 01a3 0400     		.2byte	0x4
 14367 01a5 F3       		.byte	0xf3
 14368 01a6 01       		.uleb128 0x1
 14369 01a7 50       		.byte	0x50
 14370 01a8 9F       		.byte	0x9f
 14371 01a9 CA0C0000 		.4byte	.LVL443
 14372 01ad E10C0000 		.4byte	.LVL448-1
 14373 01b1 0100     		.2byte	0x1
 14374 01b3 50       		.byte	0x50
 14375 01b4 E10C0000 		.4byte	.LVL448-1
 14376 01b8 E80C0000 		.4byte	.LVL449
 14377 01bc 0400     		.2byte	0x4
 14378 01be F3       		.byte	0xf3
 14379 01bf 01       		.uleb128 0x1
 14380 01c0 50       		.byte	0x50
 14381 01c1 9F       		.byte	0x9f
 14382 01c2 E80C0000 		.4byte	.LVL449
 14383 01c6 EE0C0000 		.4byte	.LVL450
 14384 01ca 0100     		.2byte	0x1
 14385 01cc 50       		.byte	0x50
 14386 01cd EE0C0000 		.4byte	.LVL450
 14387 01d1 760D0000 		.4byte	.LVL479
 14388 01d5 0400     		.2byte	0x4
 14389 01d7 F3       		.byte	0xf3
 14390 01d8 01       		.uleb128 0x1
 14391 01d9 50       		.byte	0x50
 14392 01da 9F       		.byte	0x9f
 14393 01db 760D0000 		.4byte	.LVL479
 14394 01df B40D0000 		.4byte	.LVL486
 14395 01e3 0100     		.2byte	0x1
 14396 01e5 50       		.byte	0x50
 14397 01e6 B40D0000 		.4byte	.LVL486
 14398 01ea 120E0000 		.4byte	.LVL498
 14399 01ee 0400     		.2byte	0x4
 14400 01f0 F3       		.byte	0xf3
 14401 01f1 01       		.uleb128 0x1
 14402 01f2 50       		.byte	0x50
 14403 01f3 9F       		.byte	0x9f
 14404 01f4 120E0000 		.4byte	.LVL498
 14405 01f8 2A0E0000 		.4byte	.LVL501
 14406 01fc 0100     		.2byte	0x1
 14407 01fe 50       		.byte	0x50
 14408 01ff 2A0E0000 		.4byte	.LVL501
 14409 0203 920E0000 		.4byte	.LVL509
 14410 0207 0400     		.2byte	0x4
 14411 0209 F3       		.byte	0xf3
 14412 020a 01       		.uleb128 0x1
 14413 020b 50       		.byte	0x50
 14414 020c 9F       		.byte	0x9f
 14415 020d 920E0000 		.4byte	.LVL509
 14416 0211 CE0E0000 		.4byte	.LVL515
 14417 0215 0100     		.2byte	0x1
 14418 0217 50       		.byte	0x50
 14419 0218 CE0E0000 		.4byte	.LVL515
 14420 021c 4A0F0000 		.4byte	.LVL525
 14421 0220 0400     		.2byte	0x4
ARM GAS  /tmp/ccMboyVS.s 			page 254


 14422 0222 F3       		.byte	0xf3
 14423 0223 01       		.uleb128 0x1
 14424 0224 50       		.byte	0x50
 14425 0225 9F       		.byte	0x9f
 14426 0226 4A0F0000 		.4byte	.LVL525
 14427 022a 620F0000 		.4byte	.LVL528
 14428 022e 0100     		.2byte	0x1
 14429 0230 50       		.byte	0x50
 14430 0231 620F0000 		.4byte	.LVL528
 14431 0235 C20F0000 		.4byte	.LVL537
 14432 0239 0400     		.2byte	0x4
 14433 023b F3       		.byte	0xf3
 14434 023c 01       		.uleb128 0x1
 14435 023d 50       		.byte	0x50
 14436 023e 9F       		.byte	0x9f
 14437 023f C20F0000 		.4byte	.LVL537
 14438 0243 CC0F0000 		.4byte	.LVL540
 14439 0247 0100     		.2byte	0x1
 14440 0249 50       		.byte	0x50
 14441 024a CC0F0000 		.4byte	.LVL540
 14442 024e 08100000 		.4byte	.LVL544
 14443 0252 0400     		.2byte	0x4
 14444 0254 F3       		.byte	0xf3
 14445 0255 01       		.uleb128 0x1
 14446 0256 50       		.byte	0x50
 14447 0257 9F       		.byte	0x9f
 14448 0258 08100000 		.4byte	.LVL544
 14449 025c 0A100000 		.4byte	.LVL545
 14450 0260 0100     		.2byte	0x1
 14451 0262 50       		.byte	0x50
 14452 0263 0A100000 		.4byte	.LVL545
 14453 0267 1C100000 		.4byte	.LVL547
 14454 026b 0400     		.2byte	0x4
 14455 026d F3       		.byte	0xf3
 14456 026e 01       		.uleb128 0x1
 14457 026f 50       		.byte	0x50
 14458 0270 9F       		.byte	0x9f
 14459 0271 1C100000 		.4byte	.LVL547
 14460 0275 20100000 		.4byte	.LVL548
 14461 0279 0100     		.2byte	0x1
 14462 027b 50       		.byte	0x50
 14463 027c 20100000 		.4byte	.LVL548
 14464 0280 2C120000 		.4byte	.LVL634
 14465 0284 0400     		.2byte	0x4
 14466 0286 F3       		.byte	0xf3
 14467 0287 01       		.uleb128 0x1
 14468 0288 50       		.byte	0x50
 14469 0289 9F       		.byte	0x9f
 14470 028a 2C120000 		.4byte	.LVL634
 14471 028e 64120000 		.4byte	.LVL639
 14472 0292 0100     		.2byte	0x1
 14473 0294 50       		.byte	0x50
 14474 0295 64120000 		.4byte	.LVL639
 14475 0299 6E120000 		.4byte	.LVL640
 14476 029d 0400     		.2byte	0x4
 14477 029f F3       		.byte	0xf3
 14478 02a0 01       		.uleb128 0x1
ARM GAS  /tmp/ccMboyVS.s 			page 255


 14479 02a1 50       		.byte	0x50
 14480 02a2 9F       		.byte	0x9f
 14481 02a3 6E120000 		.4byte	.LVL640
 14482 02a7 72120000 		.4byte	.LVL641
 14483 02ab 0100     		.2byte	0x1
 14484 02ad 50       		.byte	0x50
 14485 02ae 72120000 		.4byte	.LVL641
 14486 02b2 96120000 		.4byte	.LVL645
 14487 02b6 0400     		.2byte	0x4
 14488 02b8 F3       		.byte	0xf3
 14489 02b9 01       		.uleb128 0x1
 14490 02ba 50       		.byte	0x50
 14491 02bb 9F       		.byte	0x9f
 14492 02bc 96120000 		.4byte	.LVL645
 14493 02c0 9A120000 		.4byte	.LVL646
 14494 02c4 0100     		.2byte	0x1
 14495 02c6 50       		.byte	0x50
 14496 02c7 9A120000 		.4byte	.LVL646
 14497 02cb D4120000 		.4byte	.LVL655
 14498 02cf 0400     		.2byte	0x4
 14499 02d1 F3       		.byte	0xf3
 14500 02d2 01       		.uleb128 0x1
 14501 02d3 50       		.byte	0x50
 14502 02d4 9F       		.byte	0x9f
 14503 02d5 D4120000 		.4byte	.LVL655
 14504 02d9 04130000 		.4byte	.LVL660
 14505 02dd 0100     		.2byte	0x1
 14506 02df 50       		.byte	0x50
 14507 02e0 04130000 		.4byte	.LVL660
 14508 02e4 30130000 		.4byte	.LVL665
 14509 02e8 0400     		.2byte	0x4
 14510 02ea F3       		.byte	0xf3
 14511 02eb 01       		.uleb128 0x1
 14512 02ec 50       		.byte	0x50
 14513 02ed 9F       		.byte	0x9f
 14514 02ee 30130000 		.4byte	.LVL665
 14515 02f2 36130000 		.4byte	.LVL666
 14516 02f6 0100     		.2byte	0x1
 14517 02f8 50       		.byte	0x50
 14518 02f9 36130000 		.4byte	.LVL666
 14519 02fd 70130000 		.4byte	.LVL676
 14520 0301 0400     		.2byte	0x4
 14521 0303 F3       		.byte	0xf3
 14522 0304 01       		.uleb128 0x1
 14523 0305 50       		.byte	0x50
 14524 0306 9F       		.byte	0x9f
 14525 0307 70130000 		.4byte	.LVL676
 14526 030b 76130000 		.4byte	.LVL678
 14527 030f 0100     		.2byte	0x1
 14528 0311 50       		.byte	0x50
 14529 0312 76130000 		.4byte	.LVL678
 14530 0316 7A140000 		.4byte	.LVL705
 14531 031a 0400     		.2byte	0x4
 14532 031c F3       		.byte	0xf3
 14533 031d 01       		.uleb128 0x1
 14534 031e 50       		.byte	0x50
 14535 031f 9F       		.byte	0x9f
ARM GAS  /tmp/ccMboyVS.s 			page 256


 14536 0320 7A140000 		.4byte	.LVL705
 14537 0324 8A140000 		.4byte	.LVL707
 14538 0328 0100     		.2byte	0x1
 14539 032a 50       		.byte	0x50
 14540 032b 8A140000 		.4byte	.LVL707
 14541 032f C2140000 		.4byte	.LVL714
 14542 0333 0400     		.2byte	0x4
 14543 0335 F3       		.byte	0xf3
 14544 0336 01       		.uleb128 0x1
 14545 0337 50       		.byte	0x50
 14546 0338 9F       		.byte	0x9f
 14547 0339 C2140000 		.4byte	.LVL714
 14548 033d C8140000 		.4byte	.LVL715
 14549 0341 0100     		.2byte	0x1
 14550 0343 50       		.byte	0x50
 14551 0344 C8140000 		.4byte	.LVL715
 14552 0348 CE140000 		.4byte	.LVL716
 14553 034c 0400     		.2byte	0x4
 14554 034e F3       		.byte	0xf3
 14555 034f 01       		.uleb128 0x1
 14556 0350 50       		.byte	0x50
 14557 0351 9F       		.byte	0x9f
 14558 0352 CE140000 		.4byte	.LVL716
 14559 0356 EC140000 		.4byte	.LVL718
 14560 035a 0100     		.2byte	0x1
 14561 035c 50       		.byte	0x50
 14562 035d EC140000 		.4byte	.LVL718
 14563 0361 14150000 		.4byte	.LVL725
 14564 0365 0400     		.2byte	0x4
 14565 0367 F3       		.byte	0xf3
 14566 0368 01       		.uleb128 0x1
 14567 0369 50       		.byte	0x50
 14568 036a 9F       		.byte	0x9f
 14569 036b 14150000 		.4byte	.LVL725
 14570 036f 42150000 		.4byte	.LVL726
 14571 0373 0100     		.2byte	0x1
 14572 0375 50       		.byte	0x50
 14573 0376 42150000 		.4byte	.LVL726
 14574 037a 4E150000 		.4byte	.LVL727
 14575 037e 0400     		.2byte	0x4
 14576 0380 F3       		.byte	0xf3
 14577 0381 01       		.uleb128 0x1
 14578 0382 50       		.byte	0x50
 14579 0383 9F       		.byte	0x9f
 14580 0384 4E150000 		.4byte	.LVL727
 14581 0388 50150000 		.4byte	.LVL728
 14582 038c 0100     		.2byte	0x1
 14583 038e 50       		.byte	0x50
 14584 038f 50150000 		.4byte	.LVL728
 14585 0393 86150000 		.4byte	.LVL735
 14586 0397 0400     		.2byte	0x4
 14587 0399 F3       		.byte	0xf3
 14588 039a 01       		.uleb128 0x1
 14589 039b 50       		.byte	0x50
 14590 039c 9F       		.byte	0x9f
 14591 039d 86150000 		.4byte	.LVL735
 14592 03a1 88150000 		.4byte	.LVL736
ARM GAS  /tmp/ccMboyVS.s 			page 257


 14593 03a5 0100     		.2byte	0x1
 14594 03a7 50       		.byte	0x50
 14595 03a8 88150000 		.4byte	.LVL736
 14596 03ac BE150000 		.4byte	.LVL745
 14597 03b0 0400     		.2byte	0x4
 14598 03b2 F3       		.byte	0xf3
 14599 03b3 01       		.uleb128 0x1
 14600 03b4 50       		.byte	0x50
 14601 03b5 9F       		.byte	0x9f
 14602 03b6 BE150000 		.4byte	.LVL745
 14603 03ba D2150000 		.4byte	.LVL750
 14604 03be 0100     		.2byte	0x1
 14605 03c0 50       		.byte	0x50
 14606 03c1 D2150000 		.4byte	.LVL750
 14607 03c5 EA150000 		.4byte	.LFE60
 14608 03c9 0400     		.2byte	0x4
 14609 03cb F3       		.byte	0xf3
 14610 03cc 01       		.uleb128 0x1
 14611 03cd 50       		.byte	0x50
 14612 03ce 9F       		.byte	0x9f
 14613 03cf 00000000 		.4byte	0
 14614 03d3 00000000 		.4byte	0
 14615              	.LLST54:
 14616 03d7 00000000 		.4byte	.LVL132
 14617 03db 5E020000 		.4byte	.LVL138
 14618 03df 0100     		.2byte	0x1
 14619 03e1 51       		.byte	0x51
 14620 03e2 5E020000 		.4byte	.LVL138
 14621 03e6 60020000 		.4byte	.LVL139
 14622 03ea 0100     		.2byte	0x1
 14623 03ec 56       		.byte	0x56
 14624 03ed 60020000 		.4byte	.LVL139
 14625 03f1 6C020000 		.4byte	.LVL140
 14626 03f5 0400     		.2byte	0x4
 14627 03f7 F3       		.byte	0xf3
 14628 03f8 01       		.uleb128 0x1
 14629 03f9 51       		.byte	0x51
 14630 03fa 9F       		.byte	0x9f
 14631 03fb 6C020000 		.4byte	.LVL140
 14632 03ff 82020000 		.4byte	.LVL142
 14633 0403 0100     		.2byte	0x1
 14634 0405 51       		.byte	0x51
 14635 0406 82020000 		.4byte	.LVL142
 14636 040a BA020000 		.4byte	.LVL145
 14637 040e 0100     		.2byte	0x1
 14638 0410 56       		.byte	0x56
 14639 0411 BA020000 		.4byte	.LVL145
 14640 0415 D2020000 		.4byte	.LVL146
 14641 0419 0100     		.2byte	0x1
 14642 041b 51       		.byte	0x51
 14643 041c D2020000 		.4byte	.LVL146
 14644 0420 0A030000 		.4byte	.LVL149
 14645 0424 0100     		.2byte	0x1
 14646 0426 56       		.byte	0x56
 14647 0427 0A030000 		.4byte	.LVL149
 14648 042b 22030000 		.4byte	.LVL150
 14649 042f 0100     		.2byte	0x1
ARM GAS  /tmp/ccMboyVS.s 			page 258


 14650 0431 51       		.byte	0x51
 14651 0432 22030000 		.4byte	.LVL150
 14652 0436 5A030000 		.4byte	.LVL153
 14653 043a 0100     		.2byte	0x1
 14654 043c 56       		.byte	0x56
 14655 043d 5A030000 		.4byte	.LVL153
 14656 0441 6C030000 		.4byte	.LVL155
 14657 0445 0100     		.2byte	0x1
 14658 0447 51       		.byte	0x51
 14659 0448 6C030000 		.4byte	.LVL155
 14660 044c 94030000 		.4byte	.LVL160
 14661 0450 0100     		.2byte	0x1
 14662 0452 56       		.byte	0x56
 14663 0453 94030000 		.4byte	.LVL160
 14664 0457 E4030000 		.4byte	.LVL164
 14665 045b 0100     		.2byte	0x1
 14666 045d 51       		.byte	0x51
 14667 045e E4030000 		.4byte	.LVL164
 14668 0462 E8030000 		.4byte	.LVL165
 14669 0466 0400     		.2byte	0x4
 14670 0468 F3       		.byte	0xf3
 14671 0469 01       		.uleb128 0x1
 14672 046a 51       		.byte	0x51
 14673 046b 9F       		.byte	0x9f
 14674 046c E8030000 		.4byte	.LVL165
 14675 0470 08040000 		.4byte	.LVL168
 14676 0474 0100     		.2byte	0x1
 14677 0476 51       		.byte	0x51
 14678 0477 08040000 		.4byte	.LVL168
 14679 047b 40040000 		.4byte	.LVL171
 14680 047f 0100     		.2byte	0x1
 14681 0481 56       		.byte	0x56
 14682 0482 40040000 		.4byte	.LVL171
 14683 0486 5E040000 		.4byte	.LVL173
 14684 048a 0100     		.2byte	0x1
 14685 048c 51       		.byte	0x51
 14686 048d 5E040000 		.4byte	.LVL173
 14687 0491 96040000 		.4byte	.LVL176
 14688 0495 0100     		.2byte	0x1
 14689 0497 56       		.byte	0x56
 14690 0498 96040000 		.4byte	.LVL176
 14691 049c A4040000 		.4byte	.LVL178
 14692 04a0 0100     		.2byte	0x1
 14693 04a2 51       		.byte	0x51
 14694 04a3 A4040000 		.4byte	.LVL178
 14695 04a7 BE040000 		.4byte	.LVL181
 14696 04ab 0100     		.2byte	0x1
 14697 04ad 56       		.byte	0x56
 14698 04ae BE040000 		.4byte	.LVL181
 14699 04b2 CD040000 		.4byte	.LVL183-1
 14700 04b6 0100     		.2byte	0x1
 14701 04b8 51       		.byte	0x51
 14702 04b9 CD040000 		.4byte	.LVL183-1
 14703 04bd D2040000 		.4byte	.LVL185
 14704 04c1 0100     		.2byte	0x1
 14705 04c3 56       		.byte	0x56
 14706 04c4 D2040000 		.4byte	.LVL185
ARM GAS  /tmp/ccMboyVS.s 			page 259


 14707 04c8 F4040000 		.4byte	.LVL187
 14708 04cc 0100     		.2byte	0x1
 14709 04ce 51       		.byte	0x51
 14710 04cf F4040000 		.4byte	.LVL187
 14711 04d3 FC040000 		.4byte	.LVL190
 14712 04d7 0100     		.2byte	0x1
 14713 04d9 56       		.byte	0x56
 14714 04da FC040000 		.4byte	.LVL190
 14715 04de 14050000 		.4byte	.LVL193
 14716 04e2 0100     		.2byte	0x1
 14717 04e4 51       		.byte	0x51
 14718 04e5 14050000 		.4byte	.LVL193
 14719 04e9 38050000 		.4byte	.LVL195
 14720 04ed 0400     		.2byte	0x4
 14721 04ef F3       		.byte	0xf3
 14722 04f0 01       		.uleb128 0x1
 14723 04f1 51       		.byte	0x51
 14724 04f2 9F       		.byte	0x9f
 14725 04f3 38050000 		.4byte	.LVL195
 14726 04f7 55050000 		.4byte	.LVL200-1
 14727 04fb 0100     		.2byte	0x1
 14728 04fd 51       		.byte	0x51
 14729 04fe 55050000 		.4byte	.LVL200-1
 14730 0502 5A050000 		.4byte	.LVL201
 14731 0506 0100     		.2byte	0x1
 14732 0508 56       		.byte	0x56
 14733 0509 5A050000 		.4byte	.LVL201
 14734 050d 80050000 		.4byte	.LVL204
 14735 0511 0100     		.2byte	0x1
 14736 0513 51       		.byte	0x51
 14737 0514 80050000 		.4byte	.LVL204
 14738 0518 84050000 		.4byte	.LVL205
 14739 051c 0100     		.2byte	0x1
 14740 051e 56       		.byte	0x56
 14741 051f 84050000 		.4byte	.LVL205
 14742 0523 89050000 		.4byte	.LVL207-1
 14743 0527 0100     		.2byte	0x1
 14744 0529 51       		.byte	0x51
 14745 052a 89050000 		.4byte	.LVL207-1
 14746 052e 9C050000 		.4byte	.LVL209
 14747 0532 0100     		.2byte	0x1
 14748 0534 56       		.byte	0x56
 14749 0535 9C050000 		.4byte	.LVL209
 14750 0539 B8050000 		.4byte	.LVL213
 14751 053d 0100     		.2byte	0x1
 14752 053f 51       		.byte	0x51
 14753 0540 B8050000 		.4byte	.LVL213
 14754 0544 BC050000 		.4byte	.LVL214
 14755 0548 0400     		.2byte	0x4
 14756 054a F3       		.byte	0xf3
 14757 054b 01       		.uleb128 0x1
 14758 054c 51       		.byte	0x51
 14759 054d 9F       		.byte	0x9f
 14760 054e BC050000 		.4byte	.LVL214
 14761 0552 C6050000 		.4byte	.LVL215
 14762 0556 0100     		.2byte	0x1
 14763 0558 51       		.byte	0x51
ARM GAS  /tmp/ccMboyVS.s 			page 260


 14764 0559 C6050000 		.4byte	.LVL215
 14765 055d D4070000 		.4byte	.LVL265
 14766 0561 0100     		.2byte	0x1
 14767 0563 56       		.byte	0x56
 14768 0564 D4070000 		.4byte	.LVL265
 14769 0568 E4070000 		.4byte	.LVL266
 14770 056c 0100     		.2byte	0x1
 14771 056e 51       		.byte	0x51
 14772 056f E4070000 		.4byte	.LVL266
 14773 0573 1A080000 		.4byte	.LVL272
 14774 0577 0100     		.2byte	0x1
 14775 0579 56       		.byte	0x56
 14776 057a 1A080000 		.4byte	.LVL272
 14777 057e 22080000 		.4byte	.LVL273
 14778 0582 0400     		.2byte	0x4
 14779 0584 F3       		.byte	0xf3
 14780 0585 01       		.uleb128 0x1
 14781 0586 51       		.byte	0x51
 14782 0587 9F       		.byte	0x9f
 14783 0588 22080000 		.4byte	.LVL273
 14784 058c CA0C0000 		.4byte	.LVL443
 14785 0590 0100     		.2byte	0x1
 14786 0592 56       		.byte	0x56
 14787 0593 CA0C0000 		.4byte	.LVL443
 14788 0597 D60C0000 		.4byte	.LVL444
 14789 059b 0100     		.2byte	0x1
 14790 059d 51       		.byte	0x51
 14791 059e D60C0000 		.4byte	.LVL444
 14792 05a2 DC0C0000 		.4byte	.LVL446
 14793 05a6 0100     		.2byte	0x1
 14794 05a8 56       		.byte	0x56
 14795 05a9 DC0C0000 		.4byte	.LVL446
 14796 05ad E10C0000 		.4byte	.LVL448-1
 14797 05b1 0100     		.2byte	0x1
 14798 05b3 51       		.byte	0x51
 14799 05b4 E10C0000 		.4byte	.LVL448-1
 14800 05b8 E80C0000 		.4byte	.LVL449
 14801 05bc 0100     		.2byte	0x1
 14802 05be 56       		.byte	0x56
 14803 05bf E80C0000 		.4byte	.LVL449
 14804 05c3 EE0C0000 		.4byte	.LVL450
 14805 05c7 0100     		.2byte	0x1
 14806 05c9 51       		.byte	0x51
 14807 05ca EE0C0000 		.4byte	.LVL450
 14808 05ce 760D0000 		.4byte	.LVL479
 14809 05d2 0100     		.2byte	0x1
 14810 05d4 56       		.byte	0x56
 14811 05d5 760D0000 		.4byte	.LVL479
 14812 05d9 7A0D0000 		.4byte	.LVL481
 14813 05dd 0100     		.2byte	0x1
 14814 05df 51       		.byte	0x51
 14815 05e0 7A0D0000 		.4byte	.LVL481
 14816 05e4 AE0D0000 		.4byte	.LVL484
 14817 05e8 0100     		.2byte	0x1
 14818 05ea 56       		.byte	0x56
 14819 05eb AE0D0000 		.4byte	.LVL484
 14820 05ef CA0D0000 		.4byte	.LVL489
ARM GAS  /tmp/ccMboyVS.s 			page 261


 14821 05f3 0100     		.2byte	0x1
 14822 05f5 51       		.byte	0x51
 14823 05f6 CA0D0000 		.4byte	.LVL489
 14824 05fa 120E0000 		.4byte	.LVL498
 14825 05fe 0400     		.2byte	0x4
 14826 0600 F3       		.byte	0xf3
 14827 0601 01       		.uleb128 0x1
 14828 0602 51       		.byte	0x51
 14829 0603 9F       		.byte	0x9f
 14830 0604 120E0000 		.4byte	.LVL498
 14831 0608 2A0E0000 		.4byte	.LVL501
 14832 060c 0100     		.2byte	0x1
 14833 060e 51       		.byte	0x51
 14834 060f 2A0E0000 		.4byte	.LVL501
 14835 0613 920E0000 		.4byte	.LVL509
 14836 0617 0400     		.2byte	0x4
 14837 0619 F3       		.byte	0xf3
 14838 061a 01       		.uleb128 0x1
 14839 061b 51       		.byte	0x51
 14840 061c 9F       		.byte	0x9f
 14841 061d 920E0000 		.4byte	.LVL509
 14842 0621 960E0000 		.4byte	.LVL511
 14843 0625 0100     		.2byte	0x1
 14844 0627 51       		.byte	0x51
 14845 0628 960E0000 		.4byte	.LVL511
 14846 062c CA0E0000 		.4byte	.LVL513
 14847 0630 0100     		.2byte	0x1
 14848 0632 56       		.byte	0x56
 14849 0633 CA0E0000 		.4byte	.LVL513
 14850 0637 E20E0000 		.4byte	.LVL517
 14851 063b 0100     		.2byte	0x1
 14852 063d 51       		.byte	0x51
 14853 063e E20E0000 		.4byte	.LVL517
 14854 0642 4A0F0000 		.4byte	.LVL525
 14855 0646 0400     		.2byte	0x4
 14856 0648 F3       		.byte	0xf3
 14857 0649 01       		.uleb128 0x1
 14858 064a 51       		.byte	0x51
 14859 064b 9F       		.byte	0x9f
 14860 064c 4A0F0000 		.4byte	.LVL525
 14861 0650 620F0000 		.4byte	.LVL528
 14862 0654 0100     		.2byte	0x1
 14863 0656 51       		.byte	0x51
 14864 0657 620F0000 		.4byte	.LVL528
 14865 065b C20F0000 		.4byte	.LVL537
 14866 065f 0400     		.2byte	0x4
 14867 0661 F3       		.byte	0xf3
 14868 0662 01       		.uleb128 0x1
 14869 0663 51       		.byte	0x51
 14870 0664 9F       		.byte	0x9f
 14871 0665 C20F0000 		.4byte	.LVL537
 14872 0669 02100000 		.4byte	.LVL542
 14873 066d 0100     		.2byte	0x1
 14874 066f 51       		.byte	0x51
 14875 0670 02100000 		.4byte	.LVL542
 14876 0674 08100000 		.4byte	.LVL544
 14877 0678 0100     		.2byte	0x1
ARM GAS  /tmp/ccMboyVS.s 			page 262


 14878 067a 56       		.byte	0x56
 14879 067b 08100000 		.4byte	.LVL544
 14880 067f 0D100000 		.4byte	.LVL546-1
 14881 0683 0100     		.2byte	0x1
 14882 0685 51       		.byte	0x51
 14883 0686 0D100000 		.4byte	.LVL546-1
 14884 068a 32100000 		.4byte	.LVL552
 14885 068e 0100     		.2byte	0x1
 14886 0690 56       		.byte	0x56
 14887 0691 32100000 		.4byte	.LVL552
 14888 0695 BC100000 		.4byte	.LVL583
 14889 0699 0400     		.2byte	0x4
 14890 069b F3       		.byte	0xf3
 14891 069c 01       		.uleb128 0x1
 14892 069d 51       		.byte	0x51
 14893 069e 9F       		.byte	0x9f
 14894 069f BC100000 		.4byte	.LVL583
 14895 06a3 2C120000 		.4byte	.LVL634
 14896 06a7 0100     		.2byte	0x1
 14897 06a9 56       		.byte	0x56
 14898 06aa 2C120000 		.4byte	.LVL634
 14899 06ae 64120000 		.4byte	.LVL639
 14900 06b2 0100     		.2byte	0x1
 14901 06b4 51       		.byte	0x51
 14902 06b5 64120000 		.4byte	.LVL639
 14903 06b9 6E120000 		.4byte	.LVL640
 14904 06bd 0100     		.2byte	0x1
 14905 06bf 56       		.byte	0x56
 14906 06c0 6E120000 		.4byte	.LVL640
 14907 06c4 72120000 		.4byte	.LVL641
 14908 06c8 0100     		.2byte	0x1
 14909 06ca 51       		.byte	0x51
 14910 06cb 72120000 		.4byte	.LVL641
 14911 06cf 96120000 		.4byte	.LVL645
 14912 06d3 0100     		.2byte	0x1
 14913 06d5 56       		.byte	0x56
 14914 06d6 96120000 		.4byte	.LVL645
 14915 06da 9A120000 		.4byte	.LVL646
 14916 06de 0100     		.2byte	0x1
 14917 06e0 51       		.byte	0x51
 14918 06e1 9A120000 		.4byte	.LVL646
 14919 06e5 A8120000 		.4byte	.LVL648
 14920 06e9 0100     		.2byte	0x1
 14921 06eb 56       		.byte	0x56
 14922 06ec A8120000 		.4byte	.LVL648
 14923 06f0 AD120000 		.4byte	.LVL650-1
 14924 06f4 0100     		.2byte	0x1
 14925 06f6 51       		.byte	0x51
 14926 06f7 AD120000 		.4byte	.LVL650-1
 14927 06fb BE120000 		.4byte	.LVL652
 14928 06ff 0100     		.2byte	0x1
 14929 0701 56       		.byte	0x56
 14930 0702 BE120000 		.4byte	.LVL652
 14931 0706 D4120000 		.4byte	.LVL655
 14932 070a 0400     		.2byte	0x4
 14933 070c F3       		.byte	0xf3
 14934 070d 01       		.uleb128 0x1
ARM GAS  /tmp/ccMboyVS.s 			page 263


 14935 070e 51       		.byte	0x51
 14936 070f 9F       		.byte	0x9f
 14937 0710 D4120000 		.4byte	.LVL655
 14938 0714 F8120000 		.4byte	.LVL656
 14939 0718 0100     		.2byte	0x1
 14940 071a 56       		.byte	0x56
 14941 071b F8120000 		.4byte	.LVL656
 14942 071f 0A130000 		.4byte	.LVL662
 14943 0723 0100     		.2byte	0x1
 14944 0725 51       		.byte	0x51
 14945 0726 0A130000 		.4byte	.LVL662
 14946 072a 30130000 		.4byte	.LVL665
 14947 072e 0100     		.2byte	0x1
 14948 0730 56       		.byte	0x56
 14949 0731 30130000 		.4byte	.LVL665
 14950 0735 36130000 		.4byte	.LVL666
 14951 0739 0100     		.2byte	0x1
 14952 073b 51       		.byte	0x51
 14953 073c 36130000 		.4byte	.LVL666
 14954 0740 70130000 		.4byte	.LVL676
 14955 0744 0100     		.2byte	0x1
 14956 0746 56       		.byte	0x56
 14957 0747 70130000 		.4byte	.LVL676
 14958 074b 79130000 		.4byte	.LVL679-1
 14959 074f 0100     		.2byte	0x1
 14960 0751 51       		.byte	0x51
 14961 0752 79130000 		.4byte	.LVL679-1
 14962 0756 CC130000 		.4byte	.LVL687
 14963 075a 0100     		.2byte	0x1
 14964 075c 56       		.byte	0x56
 14965 075d CC130000 		.4byte	.LVL687
 14966 0761 CF130000 		.4byte	.LVL688-1
 14967 0765 0100     		.2byte	0x1
 14968 0767 51       		.byte	0x51
 14969 0768 CF130000 		.4byte	.LVL688-1
 14970 076c 24140000 		.4byte	.LVL696
 14971 0770 0100     		.2byte	0x1
 14972 0772 56       		.byte	0x56
 14973 0773 24140000 		.4byte	.LVL696
 14974 0777 27140000 		.4byte	.LVL697-1
 14975 077b 0100     		.2byte	0x1
 14976 077d 51       		.byte	0x51
 14977 077e 27140000 		.4byte	.LVL697-1
 14978 0782 7A140000 		.4byte	.LVL705
 14979 0786 0100     		.2byte	0x1
 14980 0788 56       		.byte	0x56
 14981 0789 7A140000 		.4byte	.LVL705
 14982 078d 8D140000 		.4byte	.LVL708-1
 14983 0791 0100     		.2byte	0x1
 14984 0793 51       		.byte	0x51
 14985 0794 8D140000 		.4byte	.LVL708-1
 14986 0798 C2140000 		.4byte	.LVL714
 14987 079c 0100     		.2byte	0x1
 14988 079e 56       		.byte	0x56
 14989 079f C2140000 		.4byte	.LVL714
 14990 07a3 D4140000 		.4byte	.LVL717
 14991 07a7 0100     		.2byte	0x1
ARM GAS  /tmp/ccMboyVS.s 			page 264


 14992 07a9 51       		.byte	0x51
 14993 07aa D4140000 		.4byte	.LVL717
 14994 07ae EC140000 		.4byte	.LVL718
 14995 07b2 0100     		.2byte	0x1
 14996 07b4 56       		.byte	0x56
 14997 07b5 EC140000 		.4byte	.LVL718
 14998 07b9 14150000 		.4byte	.LVL725
 14999 07bd 0400     		.2byte	0x4
 15000 07bf F3       		.byte	0xf3
 15001 07c0 01       		.uleb128 0x1
 15002 07c1 51       		.byte	0x51
 15003 07c2 9F       		.byte	0x9f
 15004 07c3 14150000 		.4byte	.LVL725
 15005 07c7 4E150000 		.4byte	.LVL727
 15006 07cb 0100     		.2byte	0x1
 15007 07cd 56       		.byte	0x56
 15008 07ce 4E150000 		.4byte	.LVL727
 15009 07d2 53150000 		.4byte	.LVL729-1
 15010 07d6 0100     		.2byte	0x1
 15011 07d8 51       		.byte	0x51
 15012 07d9 53150000 		.4byte	.LVL729-1
 15013 07dd 86150000 		.4byte	.LVL735
 15014 07e1 0100     		.2byte	0x1
 15015 07e3 56       		.byte	0x56
 15016 07e4 86150000 		.4byte	.LVL735
 15017 07e8 8B150000 		.4byte	.LVL737-1
 15018 07ec 0100     		.2byte	0x1
 15019 07ee 51       		.byte	0x51
 15020 07ef 8B150000 		.4byte	.LVL737-1
 15021 07f3 BE150000 		.4byte	.LVL745
 15022 07f7 0100     		.2byte	0x1
 15023 07f9 56       		.byte	0x56
 15024 07fa BE150000 		.4byte	.LVL745
 15025 07fe D2150000 		.4byte	.LVL750
 15026 0802 0100     		.2byte	0x1
 15027 0804 51       		.byte	0x51
 15028 0805 D2150000 		.4byte	.LVL750
 15029 0809 EA150000 		.4byte	.LFE60
 15030 080d 0100     		.2byte	0x1
 15031 080f 56       		.byte	0x56
 15032 0810 00000000 		.4byte	0
 15033 0814 00000000 		.4byte	0
 15034              	.LLST55:
 15035 0818 00000000 		.4byte	.LVL132
 15036 081c 0A000000 		.4byte	.LVL133
 15037 0820 0100     		.2byte	0x1
 15038 0822 52       		.byte	0x52
 15039 0823 0A000000 		.4byte	.LVL133
 15040 0827 EA150000 		.4byte	.LFE60
 15041 082b 0400     		.2byte	0x4
 15042 082d F3       		.byte	0xf3
 15043 082e 01       		.uleb128 0x1
 15044 082f 52       		.byte	0x52
 15045 0830 9F       		.byte	0x9f
 15046 0831 00000000 		.4byte	0
 15047 0835 00000000 		.4byte	0
 15048              	.LLST56:
ARM GAS  /tmp/ccMboyVS.s 			page 265


 15049 0839 5E020000 		.4byte	.LVL138
 15050 083d 60020000 		.4byte	.LVL139
 15051 0841 0300     		.2byte	0x3
 15052 0843 08       		.byte	0x8
 15053 0844 80       		.byte	0x80
 15054 0845 9F       		.byte	0x9f
 15055 0846 E4030000 		.4byte	.LVL164
 15056 084a E8030000 		.4byte	.LVL165
 15057 084e 0300     		.2byte	0x3
 15058 0850 08       		.byte	0x8
 15059 0851 20       		.byte	0x20
 15060 0852 9F       		.byte	0x9f
 15061 0853 BC040000 		.4byte	.LVL180
 15062 0857 BE040000 		.4byte	.LVL181
 15063 085b 0100     		.2byte	0x1
 15064 085d 54       		.byte	0x54
 15065 085e D0040000 		.4byte	.LVL184
 15066 0862 D2040000 		.4byte	.LVL185
 15067 0866 0100     		.2byte	0x1
 15068 0868 50       		.byte	0x50
 15069 0869 FA040000 		.4byte	.LVL189
 15070 086d FC040000 		.4byte	.LVL190
 15071 0871 0100     		.2byte	0x1
 15072 0873 50       		.byte	0x50
 15073 0874 8C050000 		.4byte	.LVL208
 15074 0878 9C050000 		.4byte	.LVL209
 15075 087c 0100     		.2byte	0x1
 15076 087e 50       		.byte	0x50
 15077 087f B8050000 		.4byte	.LVL213
 15078 0883 BC050000 		.4byte	.LVL214
 15079 0887 0200     		.2byte	0x2
 15080 0889 30       		.byte	0x30
 15081 088a 9F       		.byte	0x9f
 15082 088b F00A0000 		.4byte	.LVL348
 15083 088f F40A0000 		.4byte	.LVL349
 15084 0893 0300     		.2byte	0x3
 15085 0895 08       		.byte	0x8
 15086 0896 80       		.byte	0x80
 15087 0897 9F       		.byte	0x9f
 15088 0898 F60A0000 		.4byte	.LVL350
 15089 089c FA0A0000 		.4byte	.LVL351
 15090 08a0 0300     		.2byte	0x3
 15091 08a2 08       		.byte	0x8
 15092 08a3 80       		.byte	0x80
 15093 08a4 9F       		.byte	0x9f
 15094 08a5 FC0A0000 		.4byte	.LVL352
 15095 08a9 000B0000 		.4byte	.LVL353
 15096 08ad 0300     		.2byte	0x3
 15097 08af 08       		.byte	0x8
 15098 08b0 80       		.byte	0x80
 15099 08b1 9F       		.byte	0x9f
 15100 08b2 080B0000 		.4byte	.LVL355
 15101 08b6 0C0B0000 		.4byte	.LVL356
 15102 08ba 0300     		.2byte	0x3
 15103 08bc 08       		.byte	0x8
 15104 08bd 80       		.byte	0x80
 15105 08be 9F       		.byte	0x9f
ARM GAS  /tmp/ccMboyVS.s 			page 266


 15106 08bf 8E0E0000 		.4byte	.LVL508
 15107 08c3 920E0000 		.4byte	.LVL509
 15108 08c7 0100     		.2byte	0x1
 15109 08c9 54       		.byte	0x54
 15110 08ca 460F0000 		.4byte	.LVL524
 15111 08ce 4A0F0000 		.4byte	.LVL525
 15112 08d2 0100     		.2byte	0x1
 15113 08d4 54       		.byte	0x54
 15114 08d5 BE0F0000 		.4byte	.LVL536
 15115 08d9 C20F0000 		.4byte	.LVL537
 15116 08dd 0100     		.2byte	0x1
 15117 08df 54       		.byte	0x54
 15118 08e0 C60F0000 		.4byte	.LVL538
 15119 08e4 CA0F0000 		.4byte	.LVL539
 15120 08e8 0100     		.2byte	0x1
 15121 08ea 54       		.byte	0x54
 15122 08eb 04100000 		.4byte	.LVL543
 15123 08ef 08100000 		.4byte	.LVL544
 15124 08f3 0300     		.2byte	0x3
 15125 08f5 08       		.byte	0x8
 15126 08f6 80       		.byte	0x80
 15127 08f7 9F       		.byte	0x9f
 15128 08f8 2E100000 		.4byte	.LVL551
 15129 08fc 32100000 		.4byte	.LVL552
 15130 0900 0100     		.2byte	0x1
 15131 0902 50       		.byte	0x50
 15132 0903 58130000 		.4byte	.LVL673
 15133 0907 5C130000 		.4byte	.LVL674
 15134 090b 0100     		.2byte	0x1
 15135 090d 54       		.byte	0x54
 15136 090e C8130000 		.4byte	.LVL686
 15137 0912 CC130000 		.4byte	.LVL687
 15138 0916 0100     		.2byte	0x1
 15139 0918 50       		.byte	0x50
 15140 0919 20140000 		.4byte	.LVL695
 15141 091d 24140000 		.4byte	.LVL696
 15142 0921 0100     		.2byte	0x1
 15143 0923 50       		.byte	0x50
 15144 0924 76140000 		.4byte	.LVL704
 15145 0928 7A140000 		.4byte	.LVL705
 15146 092c 0100     		.2byte	0x1
 15147 092e 50       		.byte	0x50
 15148 092f 10150000 		.4byte	.LVL724
 15149 0933 14150000 		.4byte	.LVL725
 15150 0937 0100     		.2byte	0x1
 15151 0939 54       		.byte	0x54
 15152 093a E6150000 		.4byte	.LVL755
 15153 093e EA150000 		.4byte	.LFE60
 15154 0942 0100     		.2byte	0x1
 15155 0944 54       		.byte	0x54
 15156 0945 00000000 		.4byte	0
 15157 0949 00000000 		.4byte	0
 15158              	.LLST57:
 15159 094d 16000000 		.4byte	.LVL134
 15160 0951 28020000 		.4byte	.LVL135
 15161 0955 0300     		.2byte	0x3
 15162 0957 09       		.byte	0x9
ARM GAS  /tmp/ccMboyVS.s 			page 267


 15163 0958 FF       		.byte	0xff
 15164 0959 9F       		.byte	0x9f
 15165 095a 28020000 		.4byte	.LVL135
 15166 095e 60020000 		.4byte	.LVL139
 15167 0962 0100     		.2byte	0x1
 15168 0964 59       		.byte	0x59
 15169 0965 6C020000 		.4byte	.LVL140
 15170 0969 E4030000 		.4byte	.LVL164
 15171 096d 0300     		.2byte	0x3
 15172 096f 09       		.byte	0x9
 15173 0970 FF       		.byte	0xff
 15174 0971 9F       		.byte	0x9f
 15175 0972 E8030000 		.4byte	.LVL165
 15176 0976 B8050000 		.4byte	.LVL213
 15177 097a 0300     		.2byte	0x3
 15178 097c 09       		.byte	0x9
 15179 097d FF       		.byte	0xff
 15180 097e 9F       		.byte	0x9f
 15181 097f BC050000 		.4byte	.LVL214
 15182 0983 D4070000 		.4byte	.LVL265
 15183 0987 0300     		.2byte	0x3
 15184 0989 09       		.byte	0x9
 15185 098a FF       		.byte	0xff
 15186 098b 9F       		.byte	0x9f
 15187 098c D4070000 		.4byte	.LVL265
 15188 0990 1A080000 		.4byte	.LVL272
 15189 0994 0100     		.2byte	0x1
 15190 0996 59       		.byte	0x59
 15191 0997 22080000 		.4byte	.LVL273
 15192 099b 86080000 		.4byte	.LVL285
 15193 099f 0300     		.2byte	0x3
 15194 09a1 09       		.byte	0x9
 15195 09a2 FF       		.byte	0xff
 15196 09a3 9F       		.byte	0x9f
 15197 09a4 86080000 		.4byte	.LVL285
 15198 09a8 14090000 		.4byte	.LVL295
 15199 09ac 0100     		.2byte	0x1
 15200 09ae 59       		.byte	0x59
 15201 09af 14090000 		.4byte	.LVL295
 15202 09b3 BC100000 		.4byte	.LVL583
 15203 09b7 0300     		.2byte	0x3
 15204 09b9 09       		.byte	0x9
 15205 09ba FF       		.byte	0xff
 15206 09bb 9F       		.byte	0x9f
 15207 09bc BC100000 		.4byte	.LVL583
 15208 09c0 FE100000 		.4byte	.LVL590
 15209 09c4 0100     		.2byte	0x1
 15210 09c6 59       		.byte	0x59
 15211 09c7 FE100000 		.4byte	.LVL590
 15212 09cb EE110000 		.4byte	.LVL628
 15213 09cf 0300     		.2byte	0x3
 15214 09d1 09       		.byte	0x9
 15215 09d2 FF       		.byte	0xff
 15216 09d3 9F       		.byte	0x9f
 15217 09d4 EE110000 		.4byte	.LVL628
 15218 09d8 2C120000 		.4byte	.LVL634
 15219 09dc 0100     		.2byte	0x1
ARM GAS  /tmp/ccMboyVS.s 			page 268


 15220 09de 59       		.byte	0x59
 15221 09df 2C120000 		.4byte	.LVL634
 15222 09e3 22130000 		.4byte	.LVL664
 15223 09e7 0300     		.2byte	0x3
 15224 09e9 09       		.byte	0x9
 15225 09ea FF       		.byte	0xff
 15226 09eb 9F       		.byte	0x9f
 15227 09ec 22130000 		.4byte	.LVL664
 15228 09f0 30130000 		.4byte	.LVL665
 15229 09f4 0100     		.2byte	0x1
 15230 09f6 59       		.byte	0x59
 15231 09f7 30130000 		.4byte	.LVL665
 15232 09fb EA150000 		.4byte	.LFE60
 15233 09ff 0300     		.2byte	0x3
 15234 0a01 09       		.byte	0x9
 15235 0a02 FF       		.byte	0xff
 15236 0a03 9F       		.byte	0x9f
 15237 0a04 00000000 		.4byte	0
 15238 0a08 00000000 		.4byte	0
 15239              	.LLST58:
 15240 0a0c 780D0000 		.4byte	.LVL480
 15241 0a10 800D0000 		.4byte	.LVL482
 15242 0a14 0100     		.2byte	0x1
 15243 0a16 53       		.byte	0x53
 15244 0a17 800D0000 		.4byte	.LVL482
 15245 0a1b AE0D0000 		.4byte	.LVL484
 15246 0a1f 0200     		.2byte	0x2
 15247 0a21 70       		.byte	0x70
 15248 0a22 00       		.sleb128 0
 15249 0a23 D4120000 		.4byte	.LVL655
 15250 0a27 F8120000 		.4byte	.LVL656
 15251 0a2b 0200     		.2byte	0x2
 15252 0a2d 70       		.byte	0x70
 15253 0a2e 00       		.sleb128 0
 15254 0a2f D4140000 		.4byte	.LVL717
 15255 0a33 EC140000 		.4byte	.LVL718
 15256 0a37 0200     		.2byte	0x2
 15257 0a39 70       		.byte	0x70
 15258 0a3a 00       		.sleb128 0
 15259 0a3b 14150000 		.4byte	.LVL725
 15260 0a3f 42150000 		.4byte	.LVL726
 15261 0a43 0200     		.2byte	0x2
 15262 0a45 70       		.byte	0x70
 15263 0a46 00       		.sleb128 0
 15264 0a47 00000000 		.4byte	0
 15265 0a4b 00000000 		.4byte	0
 15266              	.LLST300:
 15267 0a4f D2130000 		.4byte	.LVL689
 15268 0a53 D4130000 		.4byte	.LVL690
 15269 0a57 0100     		.2byte	0x1
 15270 0a59 50       		.byte	0x50
 15271 0a5a D4130000 		.4byte	.LVL690
 15272 0a5e 20140000 		.4byte	.LVL695
 15273 0a62 0100     		.2byte	0x1
 15274 0a64 54       		.byte	0x54
 15275 0a65 00000000 		.4byte	0
 15276 0a69 00000000 		.4byte	0
ARM GAS  /tmp/ccMboyVS.s 			page 269


 15277              	.LLST301:
 15278 0a6d 2A140000 		.4byte	.LVL698
 15279 0a71 2C140000 		.4byte	.LVL699
 15280 0a75 0100     		.2byte	0x1
 15281 0a77 50       		.byte	0x50
 15282 0a78 00000000 		.4byte	0
 15283 0a7c 00000000 		.4byte	0
 15284              	.LLST302:
 15285 0a80 2A140000 		.4byte	.LVL698
 15286 0a84 2C140000 		.4byte	.LVL699
 15287 0a88 0100     		.2byte	0x1
 15288 0a8a 50       		.byte	0x50
 15289 0a8b 2C140000 		.4byte	.LVL699
 15290 0a8f 76140000 		.4byte	.LVL704
 15291 0a93 0100     		.2byte	0x1
 15292 0a95 54       		.byte	0x54
 15293 0a96 00000000 		.4byte	0
 15294 0a9a 00000000 		.4byte	0
 15295              	.LLST303:
 15296 0a9e 24140000 		.4byte	.LVL696
 15297 0aa2 27140000 		.4byte	.LVL697-1
 15298 0aa6 0100     		.2byte	0x1
 15299 0aa8 50       		.byte	0x50
 15300 0aa9 00000000 		.4byte	0
 15301 0aad 00000000 		.4byte	0
 15302              	.LLST299:
 15303 0ab1 7C130000 		.4byte	.LVL680
 15304 0ab5 7E130000 		.4byte	.LVL681
 15305 0ab9 0100     		.2byte	0x1
 15306 0abb 50       		.byte	0x50
 15307 0abc 7E130000 		.4byte	.LVL681
 15308 0ac0 C8130000 		.4byte	.LVL686
 15309 0ac4 0100     		.2byte	0x1
 15310 0ac6 54       		.byte	0x54
 15311 0ac7 00000000 		.4byte	0
 15312 0acb 00000000 		.4byte	0
 15313              	.LLST286:
 15314 0acf 78100000 		.4byte	.LVL568
 15315 0ad3 8C100000 		.4byte	.LVL572
 15316 0ad7 0100     		.2byte	0x1
 15317 0ad9 50       		.byte	0x50
 15318 0ada 00000000 		.4byte	0
 15319 0ade 00000000 		.4byte	0
 15320              	.LLST287:
 15321 0ae2 620F0000 		.4byte	.LVL528
 15322 0ae6 9C0F0000 		.4byte	.LVL533
 15323 0aea 0100     		.2byte	0x1
 15324 0aec 55       		.byte	0x55
 15325 0aed 62100000 		.4byte	.LVL562
 15326 0af1 8C100000 		.4byte	.LVL572
 15327 0af5 0100     		.2byte	0x1
 15328 0af7 55       		.byte	0x55
 15329 0af8 00000000 		.4byte	0
 15330 0afc 00000000 		.4byte	0
 15331              	.LLST288:
 15332 0b00 6E100000 		.4byte	.LVL565
 15333 0b04 86100000 		.4byte	.LVL570
ARM GAS  /tmp/ccMboyVS.s 			page 270


 15334 0b08 0300     		.2byte	0x3
 15335 0b0a 76       		.byte	0x76
 15336 0b0b 7F       		.sleb128 -1
 15337 0b0c 9F       		.byte	0x9f
 15338 0b0d 86100000 		.4byte	.LVL570
 15339 0b11 8C100000 		.4byte	.LVL572
 15340 0b15 0100     		.2byte	0x1
 15341 0b17 56       		.byte	0x56
 15342 0b18 00000000 		.4byte	0
 15343 0b1c 00000000 		.4byte	0
 15344              	.LLST295:
 15345 0b20 6C100000 		.4byte	.LVL564
 15346 0b24 70100000 		.4byte	.LVL566
 15347 0b28 0100     		.2byte	0x1
 15348 0b2a 50       		.byte	0x50
 15349 0b2b 00000000 		.4byte	0
 15350 0b2f 00000000 		.4byte	0
 15351              	.LLST289:
 15352 0b33 680F0000 		.4byte	.LVL529
 15353 0b37 700F0000 		.4byte	.LVL530
 15354 0b3b 0100     		.2byte	0x1
 15355 0b3d 50       		.byte	0x50
 15356 0b3e 00000000 		.4byte	0
 15357 0b42 00000000 		.4byte	0
 15358              	.LLST291:
 15359 0b46 900F0000 		.4byte	.LVL531
 15360 0b4a 9C0F0000 		.4byte	.LVL533
 15361 0b4e 0100     		.2byte	0x1
 15362 0b50 55       		.byte	0x55
 15363 0b51 00000000 		.4byte	0
 15364 0b55 00000000 		.4byte	0
 15365              	.LLST292:
 15366 0b59 A80F0000 		.4byte	.LVL534
 15367 0b5d BE0F0000 		.4byte	.LVL536
 15368 0b61 0100     		.2byte	0x1
 15369 0b63 50       		.byte	0x50
 15370 0b64 00000000 		.4byte	0
 15371 0b68 00000000 		.4byte	0
 15372              	.LLST293:
 15373 0b6c AE0F0000 		.4byte	.LVL535
 15374 0b70 BE0F0000 		.4byte	.LVL536
 15375 0b74 0400     		.2byte	0x4
 15376 0b76 48       		.byte	0x48
 15377 0b77 49       		.byte	0x49
 15378 0b78 24       		.byte	0x24
 15379 0b79 9F       		.byte	0x9f
 15380 0b7a 00000000 		.4byte	0
 15381 0b7e 00000000 		.4byte	0
 15382              	.LLST294:
 15383 0b82 AE0F0000 		.4byte	.LVL535
 15384 0b86 BE0F0000 		.4byte	.LVL536
 15385 0b8a 0100     		.2byte	0x1
 15386 0b8c 50       		.byte	0x50
 15387 0b8d 00000000 		.4byte	0
 15388 0b91 00000000 		.4byte	0
 15389              	.LLST296:
 15390 0b95 78100000 		.4byte	.LVL568
ARM GAS  /tmp/ccMboyVS.s 			page 271


 15391 0b99 7A100000 		.4byte	.LVL569
 15392 0b9d 0100     		.2byte	0x1
 15393 0b9f 50       		.byte	0x50
 15394 0ba0 00000000 		.4byte	0
 15395 0ba4 00000000 		.4byte	0
 15396              	.LLST274:
 15397 0ba8 48100000 		.4byte	.LVL558
 15398 0bac 62100000 		.4byte	.LVL562
 15399 0bb0 0100     		.2byte	0x1
 15400 0bb2 50       		.byte	0x50
 15401 0bb3 00000000 		.4byte	0
 15402 0bb7 00000000 		.4byte	0
 15403              	.LLST275:
 15404 0bbb E20E0000 		.4byte	.LVL517
 15405 0bbf 4A0F0000 		.4byte	.LVL525
 15406 0bc3 0100     		.2byte	0x1
 15407 0bc5 55       		.byte	0x55
 15408 0bc6 32100000 		.4byte	.LVL552
 15409 0bca 62100000 		.4byte	.LVL562
 15410 0bce 0100     		.2byte	0x1
 15411 0bd0 55       		.byte	0x55
 15412 0bd1 00000000 		.4byte	0
 15413 0bd5 00000000 		.4byte	0
 15414              	.LLST276:
 15415 0bd9 3E100000 		.4byte	.LVL555
 15416 0bdd 5A100000 		.4byte	.LVL560
 15417 0be1 0300     		.2byte	0x3
 15418 0be3 76       		.byte	0x76
 15419 0be4 7F       		.sleb128 -1
 15420 0be5 9F       		.byte	0x9f
 15421 0be6 5A100000 		.4byte	.LVL560
 15422 0bea 62100000 		.4byte	.LVL562
 15423 0bee 0100     		.2byte	0x1
 15424 0bf0 56       		.byte	0x56
 15425 0bf1 00000000 		.4byte	0
 15426 0bf5 00000000 		.4byte	0
 15427              	.LLST283:
 15428 0bf9 3C100000 		.4byte	.LVL554
 15429 0bfd 40100000 		.4byte	.LVL556
 15430 0c01 0100     		.2byte	0x1
 15431 0c03 50       		.byte	0x50
 15432 0c04 00000000 		.4byte	0
 15433 0c08 00000000 		.4byte	0
 15434              	.LLST277:
 15435 0c0c E80E0000 		.4byte	.LVL518
 15436 0c10 F00E0000 		.4byte	.LVL519
 15437 0c14 0100     		.2byte	0x1
 15438 0c16 50       		.byte	0x50
 15439 0c17 00000000 		.4byte	0
 15440 0c1b 00000000 		.4byte	0
 15441              	.LLST279:
 15442 0c1f 180F0000 		.4byte	.LVL520
 15443 0c23 460F0000 		.4byte	.LVL524
 15444 0c27 0100     		.2byte	0x1
 15445 0c29 55       		.byte	0x55
 15446 0c2a 00000000 		.4byte	0
 15447 0c2e 00000000 		.4byte	0
ARM GAS  /tmp/ccMboyVS.s 			page 272


 15448              	.LLST280:
 15449 0c32 300F0000 		.4byte	.LVL522
 15450 0c36 460F0000 		.4byte	.LVL524
 15451 0c3a 0100     		.2byte	0x1
 15452 0c3c 50       		.byte	0x50
 15453 0c3d 00000000 		.4byte	0
 15454 0c41 00000000 		.4byte	0
 15455              	.LLST281:
 15456 0c45 360F0000 		.4byte	.LVL523
 15457 0c49 460F0000 		.4byte	.LVL524
 15458 0c4d 0400     		.2byte	0x4
 15459 0c4f 40       		.byte	0x40
 15460 0c50 49       		.byte	0x49
 15461 0c51 24       		.byte	0x24
 15462 0c52 9F       		.byte	0x9f
 15463 0c53 00000000 		.4byte	0
 15464 0c57 00000000 		.4byte	0
 15465              	.LLST282:
 15466 0c5b 360F0000 		.4byte	.LVL523
 15467 0c5f 460F0000 		.4byte	.LVL524
 15468 0c63 0100     		.2byte	0x1
 15469 0c65 50       		.byte	0x50
 15470 0c66 00000000 		.4byte	0
 15471 0c6a 00000000 		.4byte	0
 15472              	.LLST284:
 15473 0c6e 48100000 		.4byte	.LVL558
 15474 0c72 4C100000 		.4byte	.LVL559
 15475 0c76 0100     		.2byte	0x1
 15476 0c78 50       		.byte	0x50
 15477 0c79 00000000 		.4byte	0
 15478 0c7d 00000000 		.4byte	0
 15479              	.LLST259:
 15480 0c81 A2100000 		.4byte	.LVL578
 15481 0c85 BC100000 		.4byte	.LVL583
 15482 0c89 0100     		.2byte	0x1
 15483 0c8b 50       		.byte	0x50
 15484 0c8c 00000000 		.4byte	0
 15485 0c90 00000000 		.4byte	0
 15486              	.LLST260:
 15487 0c94 2A0E0000 		.4byte	.LVL501
 15488 0c98 8E0E0000 		.4byte	.LVL508
 15489 0c9c 0100     		.2byte	0x1
 15490 0c9e 55       		.byte	0x55
 15491 0c9f 8C100000 		.4byte	.LVL572
 15492 0ca3 B8100000 		.4byte	.LVL581
 15493 0ca7 0100     		.2byte	0x1
 15494 0ca9 55       		.byte	0x55
 15495 0caa B8100000 		.4byte	.LVL581
 15496 0cae BA100000 		.4byte	.LVL582
 15497 0cb2 0500     		.2byte	0x5
 15498 0cb4 75       		.byte	0x75
 15499 0cb5 00       		.sleb128 0
 15500 0cb6 38       		.byte	0x38
 15501 0cb7 24       		.byte	0x24
 15502 0cb8 9F       		.byte	0x9f
 15503 0cb9 BA100000 		.4byte	.LVL582
 15504 0cbd BC100000 		.4byte	.LVL583
ARM GAS  /tmp/ccMboyVS.s 			page 273


 15505 0cc1 0100     		.2byte	0x1
 15506 0cc3 55       		.byte	0x55
 15507 0cc4 00000000 		.4byte	0
 15508 0cc8 00000000 		.4byte	0
 15509              	.LLST261:
 15510 0ccc 98100000 		.4byte	.LVL575
 15511 0cd0 B4100000 		.4byte	.LVL580
 15512 0cd4 0300     		.2byte	0x3
 15513 0cd6 76       		.byte	0x76
 15514 0cd7 7F       		.sleb128 -1
 15515 0cd8 9F       		.byte	0x9f
 15516 0cd9 B4100000 		.4byte	.LVL580
 15517 0cdd BC100000 		.4byte	.LVL583
 15518 0ce1 0100     		.2byte	0x1
 15519 0ce3 56       		.byte	0x56
 15520 0ce4 00000000 		.4byte	0
 15521 0ce8 00000000 		.4byte	0
 15522              	.LLST269:
 15523 0cec 96100000 		.4byte	.LVL574
 15524 0cf0 9A100000 		.4byte	.LVL576
 15525 0cf4 0100     		.2byte	0x1
 15526 0cf6 50       		.byte	0x50
 15527 0cf7 00000000 		.4byte	0
 15528 0cfb 00000000 		.4byte	0
 15529              	.LLST262:
 15530 0cff 300E0000 		.4byte	.LVL502
 15531 0d03 380E0000 		.4byte	.LVL503
 15532 0d07 0100     		.2byte	0x1
 15533 0d09 50       		.byte	0x50
 15534 0d0a 00000000 		.4byte	0
 15535 0d0e 00000000 		.4byte	0
 15536              	.LLST264:
 15537 0d12 600E0000 		.4byte	.LVL504
 15538 0d16 8E0E0000 		.4byte	.LVL508
 15539 0d1a 0100     		.2byte	0x1
 15540 0d1c 55       		.byte	0x55
 15541 0d1d 00000000 		.4byte	0
 15542 0d21 00000000 		.4byte	0
 15543              	.LLST266:
 15544 0d25 780E0000 		.4byte	.LVL506
 15545 0d29 8E0E0000 		.4byte	.LVL508
 15546 0d2d 0100     		.2byte	0x1
 15547 0d2f 50       		.byte	0x50
 15548 0d30 00000000 		.4byte	0
 15549 0d34 00000000 		.4byte	0
 15550              	.LLST267:
 15551 0d38 7E0E0000 		.4byte	.LVL507
 15552 0d3c 8E0E0000 		.4byte	.LVL508
 15553 0d40 0400     		.2byte	0x4
 15554 0d42 40       		.byte	0x40
 15555 0d43 4A       		.byte	0x4a
 15556 0d44 24       		.byte	0x24
 15557 0d45 9F       		.byte	0x9f
 15558 0d46 00000000 		.4byte	0
 15559 0d4a 00000000 		.4byte	0
 15560              	.LLST268:
 15561 0d4e 7E0E0000 		.4byte	.LVL507
ARM GAS  /tmp/ccMboyVS.s 			page 274


 15562 0d52 8E0E0000 		.4byte	.LVL508
 15563 0d56 0100     		.2byte	0x1
 15564 0d58 50       		.byte	0x50
 15565 0d59 00000000 		.4byte	0
 15566 0d5d 00000000 		.4byte	0
 15567              	.LLST270:
 15568 0d61 A2100000 		.4byte	.LVL578
 15569 0d65 A6100000 		.4byte	.LVL579
 15570 0d69 0100     		.2byte	0x1
 15571 0d6b 50       		.byte	0x50
 15572 0d6c 00000000 		.4byte	0
 15573 0d70 00000000 		.4byte	0
 15574              	.LLST252:
 15575 0d74 A8120000 		.4byte	.LVL648
 15576 0d78 AA120000 		.4byte	.LVL649
 15577 0d7c 0100     		.2byte	0x1
 15578 0d7e 50       		.byte	0x50
 15579 0d7f AA120000 		.4byte	.LVL649
 15580 0d83 AD120000 		.4byte	.LVL650-1
 15581 0d87 0300     		.2byte	0x3
 15582 0d89 F3       		.byte	0xf3
 15583 0d8a 01       		.uleb128 0x1
 15584 0d8b 50       		.byte	0x50
 15585 0d8c 00000000 		.4byte	0
 15586 0d90 00000000 		.4byte	0
 15587              	.LLST253:
 15588 0d94 AE120000 		.4byte	.LVL650
 15589 0d98 B9120000 		.4byte	.LVL651-1
 15590 0d9c 0100     		.2byte	0x1
 15591 0d9e 50       		.byte	0x50
 15592 0d9f B9120000 		.4byte	.LVL651-1
 15593 0da3 D4120000 		.4byte	.LVL655
 15594 0da7 0100     		.2byte	0x1
 15595 0da9 55       		.byte	0x55
 15596 0daa EC140000 		.4byte	.LVL718
 15597 0dae 14150000 		.4byte	.LVL725
 15598 0db2 0100     		.2byte	0x1
 15599 0db4 55       		.byte	0x55
 15600 0db5 00000000 		.4byte	0
 15601 0db9 00000000 		.4byte	0
 15602              	.LLST254:
 15603 0dbd BE120000 		.4byte	.LVL652
 15604 0dc1 C4120000 		.4byte	.LVL653
 15605 0dc5 0100     		.2byte	0x1
 15606 0dc7 50       		.byte	0x50
 15607 0dc8 C4120000 		.4byte	.LVL653
 15608 0dcc D4120000 		.4byte	.LVL655
 15609 0dd0 0100     		.2byte	0x1
 15610 0dd2 56       		.byte	0x56
 15611 0dd3 EC140000 		.4byte	.LVL718
 15612 0dd7 14150000 		.4byte	.LVL725
 15613 0ddb 0100     		.2byte	0x1
 15614 0ddd 56       		.byte	0x56
 15615 0dde 00000000 		.4byte	0
 15616 0de2 00000000 		.4byte	0
 15617              	.LLST255:
 15618 0de6 F2140000 		.4byte	.LVL719
ARM GAS  /tmp/ccMboyVS.s 			page 275


 15619 0dea 02150000 		.4byte	.LVL721
 15620 0dee 0100     		.2byte	0x1
 15621 0df0 50       		.byte	0x50
 15622 0df1 02150000 		.4byte	.LVL721
 15623 0df5 05150000 		.4byte	.LVL722-1
 15624 0df9 0300     		.2byte	0x3
 15625 0dfb 73       		.byte	0x73
 15626 0dfc 78       		.sleb128 -8
 15627 0dfd 9F       		.byte	0x9f
 15628 0dfe 00000000 		.4byte	0
 15629 0e02 00000000 		.4byte	0
 15630              	.LLST256:
 15631 0e06 FC140000 		.4byte	.LVL720
 15632 0e0a 05150000 		.4byte	.LVL722-1
 15633 0e0e 0100     		.2byte	0x1
 15634 0e10 53       		.byte	0x53
 15635 0e11 00000000 		.4byte	0
 15636 0e15 00000000 		.4byte	0
 15637              	.LLST232:
 15638 0e19 0E100000 		.4byte	.LVL546
 15639 0e1d 1C100000 		.4byte	.LVL547
 15640 0e21 0100     		.2byte	0x1
 15641 0e23 50       		.byte	0x50
 15642 0e24 42130000 		.4byte	.LVL667
 15643 0e28 48130000 		.4byte	.LVL669
 15644 0e2c 0100     		.2byte	0x1
 15645 0e2e 50       		.byte	0x50
 15646 0e2f 48130000 		.4byte	.LVL669
 15647 0e33 56130000 		.4byte	.LVL672
 15648 0e37 0300     		.2byte	0x3
 15649 0e39 74       		.byte	0x74
 15650 0e3a 78       		.sleb128 -8
 15651 0e3b 9F       		.byte	0x9f
 15652 0e3c D2150000 		.4byte	.LVL750
 15653 0e40 DE150000 		.4byte	.LVL752
 15654 0e44 0300     		.2byte	0x3
 15655 0e46 74       		.byte	0x74
 15656 0e47 78       		.sleb128 -8
 15657 0e48 9F       		.byte	0x9f
 15658 0e49 E2150000 		.4byte	.LVL753
 15659 0e4d E4150000 		.4byte	.LVL754
 15660 0e51 0300     		.2byte	0x3
 15661 0e53 74       		.byte	0x74
 15662 0e54 78       		.sleb128 -8
 15663 0e55 9F       		.byte	0x9f
 15664 0e56 00000000 		.4byte	0
 15665 0e5a 00000000 		.4byte	0
 15666              	.LLST233:
 15667 0e5e 46130000 		.4byte	.LVL668
 15668 0e62 56130000 		.4byte	.LVL672
 15669 0e66 0100     		.2byte	0x1
 15670 0e68 54       		.byte	0x54
 15671 0e69 D2150000 		.4byte	.LVL750
 15672 0e6d DE150000 		.4byte	.LVL752
 15673 0e71 0100     		.2byte	0x1
 15674 0e73 54       		.byte	0x54
 15675 0e74 E2150000 		.4byte	.LVL753
ARM GAS  /tmp/ccMboyVS.s 			page 276


 15676 0e78 E4150000 		.4byte	.LVL754
 15677 0e7c 0100     		.2byte	0x1
 15678 0e7e 54       		.byte	0x54
 15679 0e7f 00000000 		.4byte	0
 15680 0e83 00000000 		.4byte	0
 15681              	.LLST234:
 15682 0e87 54130000 		.4byte	.LVL671
 15683 0e8b 58130000 		.4byte	.LVL673
 15684 0e8f 0200     		.2byte	0x2
 15685 0e91 91       		.byte	0x91
 15686 0e92 4C       		.sleb128 -52
 15687 0e93 00000000 		.4byte	0
 15688 0e97 00000000 		.4byte	0
 15689              	.LLST235:
 15690 0e9b E2150000 		.4byte	.LVL753
 15691 0e9f E6150000 		.4byte	.LVL755
 15692 0ea3 0200     		.2byte	0x2
 15693 0ea5 91       		.byte	0x91
 15694 0ea6 4C       		.sleb128 -52
 15695 0ea7 00000000 		.4byte	0
 15696 0eab 00000000 		.4byte	0
 15697              	.LLST231:
 15698 0eaf A2040000 		.4byte	.LVL177
 15699 0eb3 B8040000 		.4byte	.LVL179
 15700 0eb7 0100     		.2byte	0x1
 15701 0eb9 54       		.byte	0x54
 15702 0eba B8040000 		.4byte	.LVL179
 15703 0ebe BE040000 		.4byte	.LVL181
 15704 0ec2 0200     		.2byte	0x2
 15705 0ec4 70       		.byte	0x70
 15706 0ec5 00       		.sleb128 0
 15707 0ec6 D60C0000 		.4byte	.LVL444
 15708 0eca D80C0000 		.4byte	.LVL445
 15709 0ece 0100     		.2byte	0x1
 15710 0ed0 54       		.byte	0x54
 15711 0ed1 D80C0000 		.4byte	.LVL445
 15712 0ed5 DC0C0000 		.4byte	.LVL446
 15713 0ed9 0200     		.2byte	0x2
 15714 0edb 70       		.byte	0x70
 15715 0edc 00       		.sleb128 0
 15716 0edd 00000000 		.4byte	0
 15717 0ee1 00000000 		.4byte	0
 15718              	.LLST247:
 15719 0ee5 3A050000 		.4byte	.LVL196
 15720 0ee9 4E050000 		.4byte	.LVL198
 15721 0eed 0100     		.2byte	0x1
 15722 0eef 54       		.byte	0x54
 15723 0ef0 4E050000 		.4byte	.LVL198
 15724 0ef4 50050000 		.4byte	.LVL199
 15725 0ef8 0200     		.2byte	0x2
 15726 0efa 70       		.byte	0x70
 15727 0efb 00       		.sleb128 0
 15728 0efc C20F0000 		.4byte	.LVL537
 15729 0f00 C60F0000 		.4byte	.LVL538
 15730 0f04 0100     		.2byte	0x1
 15731 0f06 54       		.byte	0x54
 15732 0f07 C60F0000 		.4byte	.LVL538
ARM GAS  /tmp/ccMboyVS.s 			page 277


 15733 0f0b CA0F0000 		.4byte	.LVL539
 15734 0f0f 0200     		.2byte	0x2
 15735 0f11 70       		.byte	0x70
 15736 0f12 00       		.sleb128 0
 15737 0f13 00000000 		.4byte	0
 15738 0f17 00000000 		.4byte	0
 15739              	.LLST248:
 15740 0f1b 3A050000 		.4byte	.LVL196
 15741 0f1f 46050000 		.4byte	.LVL197
 15742 0f23 0100     		.2byte	0x1
 15743 0f25 54       		.byte	0x54
 15744 0f26 00000000 		.4byte	0
 15745 0f2a 00000000 		.4byte	0
 15746              	.LLST237:
 15747 0f2e F0040000 		.4byte	.LVL186
 15748 0f32 F4040000 		.4byte	.LVL187
 15749 0f36 0200     		.2byte	0x2
 15750 0f38 70       		.byte	0x70
 15751 0f39 00       		.sleb128 0
 15752 0f3a F4040000 		.4byte	.LVL187
 15753 0f3e F7040000 		.4byte	.LVL188-1
 15754 0f42 0300     		.2byte	0x3
 15755 0f44 F3       		.byte	0xf3
 15756 0f45 01       		.uleb128 0x1
 15757 0f46 50       		.byte	0x50
 15758 0f47 00000000 		.4byte	0
 15759 0f4b 00000000 		.4byte	0
 15760              	.LLST238:
 15761 0f4f F0040000 		.4byte	.LVL186
 15762 0f53 F4040000 		.4byte	.LVL187
 15763 0f57 0200     		.2byte	0x2
 15764 0f59 70       		.byte	0x70
 15765 0f5a 04       		.sleb128 4
 15766 0f5b F4040000 		.4byte	.LVL187
 15767 0f5f F7040000 		.4byte	.LVL188-1
 15768 0f63 0500     		.2byte	0x5
 15769 0f65 F3       		.byte	0xf3
 15770 0f66 01       		.uleb128 0x1
 15771 0f67 50       		.byte	0x50
 15772 0f68 23       		.byte	0x23
 15773 0f69 04       		.uleb128 0x4
 15774 0f6a 00000000 		.4byte	0
 15775 0f6e 00000000 		.4byte	0
 15776              	.LLST156:
 15777 0f72 5E030000 		.4byte	.LVL154
 15778 0f76 6C030000 		.4byte	.LVL155
 15779 0f7a 0200     		.2byte	0x2
 15780 0f7c 31       		.byte	0x31
 15781 0f7d 9F       		.byte	0x9f
 15782 0f7e 6C030000 		.4byte	.LVL155
 15783 0f82 94030000 		.4byte	.LVL160
 15784 0f86 0100     		.2byte	0x1
 15785 0f88 55       		.byte	0x55
 15786 0f89 30130000 		.4byte	.LVL665
 15787 0f8d 36130000 		.4byte	.LVL666
 15788 0f91 0200     		.2byte	0x2
 15789 0f93 31       		.byte	0x31
ARM GAS  /tmp/ccMboyVS.s 			page 278


 15790 0f94 9F       		.byte	0x9f
 15791 0f95 00000000 		.4byte	0
 15792 0f99 00000000 		.4byte	0
 15793              	.LLST239:
 15794 0f9d B20D0000 		.4byte	.LVL485
 15795 0fa1 E40D0000 		.4byte	.LVL492
 15796 0fa5 0100     		.2byte	0x1
 15797 0fa7 54       		.byte	0x54
 15798 0fa8 00000000 		.4byte	0
 15799 0fac 00000000 		.4byte	0
 15800              	.LLST240:
 15801 0fb0 B60D0000 		.4byte	.LVL487
 15802 0fb4 CA0D0000 		.4byte	.LVL489
 15803 0fb8 0100     		.2byte	0x1
 15804 0fba 56       		.byte	0x56
 15805 0fbb CA0D0000 		.4byte	.LVL489
 15806 0fbf CD0D0000 		.4byte	.LVL490-1
 15807 0fc3 0100     		.2byte	0x1
 15808 0fc5 50       		.byte	0x50
 15809 0fc6 D80D0000 		.4byte	.LVL491
 15810 0fca E40D0000 		.4byte	.LVL492
 15811 0fce 0100     		.2byte	0x1
 15812 0fd0 50       		.byte	0x50
 15813 0fd1 00000000 		.4byte	0
 15814 0fd5 00000000 		.4byte	0
 15815              	.LLST241:
 15816 0fd9 B60D0000 		.4byte	.LVL487
 15817 0fdd CA0D0000 		.4byte	.LVL489
 15818 0fe1 0200     		.2byte	0x2
 15819 0fe3 30       		.byte	0x30
 15820 0fe4 9F       		.byte	0x9f
 15821 0fe5 CA0D0000 		.4byte	.LVL489
 15822 0fe9 D80D0000 		.4byte	.LVL491
 15823 0fed 0100     		.2byte	0x1
 15824 0fef 55       		.byte	0x55
 15825 0ff0 D80D0000 		.4byte	.LVL491
 15826 0ff4 E40D0000 		.4byte	.LVL492
 15827 0ff8 0100     		.2byte	0x1
 15828 0ffa 52       		.byte	0x52
 15829 0ffb 00000000 		.4byte	0
 15830 0fff 00000000 		.4byte	0
 15831              	.LLST243:
 15832 1003 E40D0000 		.4byte	.LVL492
 15833 1007 120E0000 		.4byte	.LVL498
 15834 100b 0100     		.2byte	0x1
 15835 100d 55       		.byte	0x55
 15836 100e 00000000 		.4byte	0
 15837 1012 00000000 		.4byte	0
 15838              	.LLST242:
 15839 1016 B60D0000 		.4byte	.LVL487
 15840 101a BA0D0000 		.4byte	.LVL488
 15841 101e 0100     		.2byte	0x1
 15842 1020 56       		.byte	0x56
 15843 1021 D80D0000 		.4byte	.LVL491
 15844 1025 E40D0000 		.4byte	.LVL492
 15845 1029 0100     		.2byte	0x1
 15846 102b 50       		.byte	0x50
ARM GAS  /tmp/ccMboyVS.s 			page 279


 15847 102c 00000000 		.4byte	0
 15848 1030 00000000 		.4byte	0
 15849              	.LLST104:
 15850 1034 BA020000 		.4byte	.LVL145
 15851 1038 D2020000 		.4byte	.LVL146
 15852 103c 0200     		.2byte	0x2
 15853 103e 38       		.byte	0x38
 15854 103f 9F       		.byte	0x9f
 15855 1040 D2020000 		.4byte	.LVL146
 15856 1044 08030000 		.4byte	.LVL148
 15857 1048 0100     		.2byte	0x1
 15858 104a 54       		.byte	0x54
 15859 104b C6050000 		.4byte	.LVL215
 15860 104f F0050000 		.4byte	.LVL217
 15861 1053 0100     		.2byte	0x1
 15862 1055 54       		.byte	0x54
 15863 1056 CA060000 		.4byte	.LVL235
 15864 105a F0060000 		.4byte	.LVL238
 15865 105e 0100     		.2byte	0x1
 15866 1060 54       		.byte	0x54
 15867 1061 0C070000 		.4byte	.LVL243
 15868 1065 14070000 		.4byte	.LVL244
 15869 1069 0100     		.2byte	0x1
 15870 106b 54       		.byte	0x54
 15871 106c 2E080000 		.4byte	.LVL275
 15872 1070 34080000 		.4byte	.LVL276
 15873 1074 0100     		.2byte	0x1
 15874 1076 54       		.byte	0x54
 15875 1077 92090000 		.4byte	.LVL307
 15876 107b C6090000 		.4byte	.LVL312
 15877 107f 0100     		.2byte	0x1
 15878 1081 54       		.byte	0x54
 15879 1082 F40A0000 		.4byte	.LVL349
 15880 1086 F60A0000 		.4byte	.LVL350
 15881 108a 0100     		.2byte	0x1
 15882 108c 54       		.byte	0x54
 15883 108d F60A0000 		.4byte	.LVL350
 15884 1091 FA0A0000 		.4byte	.LVL351
 15885 1095 0300     		.2byte	0x3
 15886 1097 08       		.byte	0x8
 15887 1098 80       		.byte	0x80
 15888 1099 9F       		.byte	0x9f
 15889 109a 0C0B0000 		.4byte	.LVL356
 15890 109e 140B0000 		.4byte	.LVL358
 15891 10a2 0100     		.2byte	0x1
 15892 10a4 54       		.byte	0x54
 15893 10a5 840B0000 		.4byte	.LVL377
 15894 10a9 8C0B0000 		.4byte	.LVL379
 15895 10ad 0100     		.2byte	0x1
 15896 10af 54       		.byte	0x54
 15897 10b0 320C0000 		.4byte	.LVL411
 15898 10b4 3A0C0000 		.4byte	.LVL413
 15899 10b8 0100     		.2byte	0x1
 15900 10ba 54       		.byte	0x54
 15901 10bb 00000000 		.4byte	0
 15902 10bf 00000000 		.4byte	0
 15903              	.LLST105:
ARM GAS  /tmp/ccMboyVS.s 			page 280


 15904 10c3 BA020000 		.4byte	.LVL145
 15905 10c7 D2020000 		.4byte	.LVL146
 15906 10cb 0200     		.2byte	0x2
 15907 10cd 30       		.byte	0x30
 15908 10ce 9F       		.byte	0x9f
 15909 10cf D2020000 		.4byte	.LVL146
 15910 10d3 0A030000 		.4byte	.LVL149
 15911 10d7 0100     		.2byte	0x1
 15912 10d9 5A       		.byte	0x5a
 15913 10da C6050000 		.4byte	.LVL215
 15914 10de F2050000 		.4byte	.LVL218
 15915 10e2 0100     		.2byte	0x1
 15916 10e4 5A       		.byte	0x5a
 15917 10e5 CA060000 		.4byte	.LVL235
 15918 10e9 14070000 		.4byte	.LVL244
 15919 10ed 0100     		.2byte	0x1
 15920 10ef 5A       		.byte	0x5a
 15921 10f0 2E080000 		.4byte	.LVL275
 15922 10f4 34080000 		.4byte	.LVL276
 15923 10f8 0100     		.2byte	0x1
 15924 10fa 5A       		.byte	0x5a
 15925 10fb 92090000 		.4byte	.LVL307
 15926 10ff DE090000 		.4byte	.LVL316
 15927 1103 0100     		.2byte	0x1
 15928 1105 5A       		.byte	0x5a
 15929 1106 F40A0000 		.4byte	.LVL349
 15930 110a FA0A0000 		.4byte	.LVL351
 15931 110e 0100     		.2byte	0x1
 15932 1110 5A       		.byte	0x5a
 15933 1111 0C0B0000 		.4byte	.LVL356
 15934 1115 440B0000 		.4byte	.LVL366
 15935 1119 0100     		.2byte	0x1
 15936 111b 5A       		.byte	0x5a
 15937 111c 840B0000 		.4byte	.LVL377
 15938 1120 B80B0000 		.4byte	.LVL387
 15939 1124 0100     		.2byte	0x1
 15940 1126 5A       		.byte	0x5a
 15941 1127 320C0000 		.4byte	.LVL411
 15942 112b 4A0C0000 		.4byte	.LVL418
 15943 112f 0100     		.2byte	0x1
 15944 1131 5A       		.byte	0x5a
 15945 1132 08110000 		.4byte	.LVL591
 15946 1136 12110000 		.4byte	.LVL592
 15947 113a 0100     		.2byte	0x1
 15948 113c 5A       		.byte	0x5a
 15949 113d DA110000 		.4byte	.LVL626
 15950 1141 EE110000 		.4byte	.LVL628
 15951 1145 0100     		.2byte	0x1
 15952 1147 5A       		.byte	0x5a
 15953 1148 00000000 		.4byte	0
 15954 114c 00000000 		.4byte	0
 15955              	.LLST106:
 15956 1150 E4020000 		.4byte	.LVL147
 15957 1154 0A030000 		.4byte	.LVL149
 15958 1158 0100     		.2byte	0x1
 15959 115a 5B       		.byte	0x5b
 15960 115b C6050000 		.4byte	.LVL215
ARM GAS  /tmp/ccMboyVS.s 			page 281


 15961 115f F2050000 		.4byte	.LVL218
 15962 1163 0100     		.2byte	0x1
 15963 1165 5B       		.byte	0x5b
 15964 1166 CA060000 		.4byte	.LVL235
 15965 116a FE060000 		.4byte	.LVL242
 15966 116e 0100     		.2byte	0x1
 15967 1170 5B       		.byte	0x5b
 15968 1171 2E080000 		.4byte	.LVL275
 15969 1175 34080000 		.4byte	.LVL276
 15970 1179 0100     		.2byte	0x1
 15971 117b 5B       		.byte	0x5b
 15972 117c 92090000 		.4byte	.LVL307
 15973 1180 D8090000 		.4byte	.LVL315
 15974 1184 0100     		.2byte	0x1
 15975 1186 5B       		.byte	0x5b
 15976 1187 F40A0000 		.4byte	.LVL349
 15977 118b FA0A0000 		.4byte	.LVL351
 15978 118f 0100     		.2byte	0x1
 15979 1191 5B       		.byte	0x5b
 15980 1192 0C0B0000 		.4byte	.LVL356
 15981 1196 3E0B0000 		.4byte	.LVL365
 15982 119a 0100     		.2byte	0x1
 15983 119c 5B       		.byte	0x5b
 15984 119d 840B0000 		.4byte	.LVL377
 15985 11a1 B20B0000 		.4byte	.LVL386
 15986 11a5 0100     		.2byte	0x1
 15987 11a7 5B       		.byte	0x5b
 15988 11a8 320C0000 		.4byte	.LVL411
 15989 11ac 480C0000 		.4byte	.LVL417
 15990 11b0 0100     		.2byte	0x1
 15991 11b2 5B       		.byte	0x5b
 15992 11b3 08110000 		.4byte	.LVL591
 15993 11b7 12110000 		.4byte	.LVL592
 15994 11bb 0100     		.2byte	0x1
 15995 11bd 5B       		.byte	0x5b
 15996 11be DA110000 		.4byte	.LVL626
 15997 11c2 EE110000 		.4byte	.LVL628
 15998 11c6 0100     		.2byte	0x1
 15999 11c8 5B       		.byte	0x5b
 16000 11c9 00000000 		.4byte	0
 16001 11cd 00000000 		.4byte	0
 16002              	.LLST107:
 16003 11d1 E4020000 		.4byte	.LVL147
 16004 11d5 08030000 		.4byte	.LVL148
 16005 11d9 0100     		.2byte	0x1
 16006 11db 54       		.byte	0x54
 16007 11dc C6050000 		.4byte	.LVL215
 16008 11e0 F0050000 		.4byte	.LVL217
 16009 11e4 0100     		.2byte	0x1
 16010 11e6 54       		.byte	0x54
 16011 11e7 CA060000 		.4byte	.LVL235
 16012 11eb F0060000 		.4byte	.LVL238
 16013 11ef 0100     		.2byte	0x1
 16014 11f1 54       		.byte	0x54
 16015 11f2 2E080000 		.4byte	.LVL275
 16016 11f6 34080000 		.4byte	.LVL276
 16017 11fa 0100     		.2byte	0x1
ARM GAS  /tmp/ccMboyVS.s 			page 282


 16018 11fc 54       		.byte	0x54
 16019 11fd 92090000 		.4byte	.LVL307
 16020 1201 C6090000 		.4byte	.LVL312
 16021 1205 0100     		.2byte	0x1
 16022 1207 54       		.byte	0x54
 16023 1208 F40A0000 		.4byte	.LVL349
 16024 120c F60A0000 		.4byte	.LVL350
 16025 1210 0100     		.2byte	0x1
 16026 1212 54       		.byte	0x54
 16027 1213 0C0B0000 		.4byte	.LVL356
 16028 1217 140B0000 		.4byte	.LVL358
 16029 121b 0100     		.2byte	0x1
 16030 121d 54       		.byte	0x54
 16031 121e 840B0000 		.4byte	.LVL377
 16032 1222 8C0B0000 		.4byte	.LVL379
 16033 1226 0100     		.2byte	0x1
 16034 1228 54       		.byte	0x54
 16035 1229 320C0000 		.4byte	.LVL411
 16036 122d 3A0C0000 		.4byte	.LVL413
 16037 1231 0100     		.2byte	0x1
 16038 1233 54       		.byte	0x54
 16039 1234 00000000 		.4byte	0
 16040 1238 00000000 		.4byte	0
 16041              	.LLST108:
 16042 123c CA060000 		.4byte	.LVL235
 16043 1240 D0060000 		.4byte	.LVL236
 16044 1244 1600     		.2byte	0x16
 16045 1246 73       		.byte	0x73
 16046 1247 00       		.sleb128 0
 16047 1248 12       		.byte	0x12
 16048 1249 40       		.byte	0x40
 16049 124a 4B       		.byte	0x4b
 16050 124b 24       		.byte	0x24
 16051 124c 22       		.byte	0x22
 16052 124d 72       		.byte	0x72
 16053 124e 00       		.sleb128 0
 16054 124f 16       		.byte	0x16
 16055 1250 14       		.byte	0x14
 16056 1251 40       		.byte	0x40
 16057 1252 4B       		.byte	0x4b
 16058 1253 24       		.byte	0x24
 16059 1254 22       		.byte	0x22
 16060 1255 2B       		.byte	0x2b
 16061 1256 28       		.byte	0x28
 16062 1257 0100     		.2byte	0x1
 16063 1259 16       		.byte	0x16
 16064 125a 13       		.byte	0x13
 16065 125b 9F       		.byte	0x9f
 16066 125c 00000000 		.4byte	0
 16067 1260 00000000 		.4byte	0
 16068              	.LLST109:
 16069 1264 B2090000 		.4byte	.LVL309
 16070 1268 B6090000 		.4byte	.LVL310
 16071 126c 0800     		.2byte	0x8
 16072 126e F5       		.byte	0xf5
 16073 126f 50       		.uleb128 0x50
 16074 1270 25       		.uleb128 0x25
ARM GAS  /tmp/ccMboyVS.s 			page 283


 16075 1271 F5       		.byte	0xf5
 16076 1272 40       		.uleb128 0x40
 16077 1273 25       		.uleb128 0x25
 16078 1274 22       		.byte	0x22
 16079 1275 9F       		.byte	0x9f
 16080 1276 B6090000 		.4byte	.LVL310
 16081 127a C1090000 		.4byte	.LVL311-1
 16082 127e 0200     		.2byte	0x2
 16083 1280 90       		.byte	0x90
 16084 1281 4F       		.uleb128 0x4f
 16085 1282 00000000 		.4byte	0
 16086 1286 00000000 		.4byte	0
 16087              	.LLST110:
 16088 128a B2090000 		.4byte	.LVL309
 16089 128e C1090000 		.4byte	.LVL311-1
 16090 1292 0C00     		.2byte	0xc
 16091 1294 F5       		.byte	0xf5
 16092 1295 50       		.uleb128 0x50
 16093 1296 25       		.uleb128 0x25
 16094 1297 F5       		.byte	0xf5
 16095 1298 40       		.uleb128 0x40
 16096 1299 25       		.uleb128 0x25
 16097 129a 22       		.byte	0x22
 16098 129b F9       		.byte	0xf9
 16099 129c 2C       		.uleb128 0x2c
 16100 129d F7       		.byte	0xf7
 16101 129e 00       		.uleb128 0
 16102 129f 9F       		.byte	0x9f
 16103 12a0 00000000 		.4byte	0
 16104 12a4 00000000 		.4byte	0
 16105              	.LLST111:
 16106 12a8 C6090000 		.4byte	.LVL312
 16107 12ac DE090000 		.4byte	.LVL316
 16108 12b0 0100     		.2byte	0x1
 16109 12b2 50       		.byte	0x50
 16110 12b3 08110000 		.4byte	.LVL591
 16111 12b7 12110000 		.4byte	.LVL592
 16112 12bb 0100     		.2byte	0x1
 16113 12bd 50       		.byte	0x50
 16114 12be 00000000 		.4byte	0
 16115 12c2 00000000 		.4byte	0
 16116              	.LLST112:
 16117 12c6 D2090000 		.4byte	.LVL314
 16118 12ca D8090000 		.4byte	.LVL315
 16119 12ce 0400     		.2byte	0x4
 16120 12d0 40       		.byte	0x40
 16121 12d1 4A       		.byte	0x4a
 16122 12d2 24       		.byte	0x24
 16123 12d3 9F       		.byte	0x9f
 16124 12d4 00000000 		.4byte	0
 16125 12d8 00000000 		.4byte	0
 16126              	.LLST113:
 16127 12dc D2090000 		.4byte	.LVL314
 16128 12e0 D8090000 		.4byte	.LVL315
 16129 12e4 0100     		.2byte	0x1
 16130 12e6 50       		.byte	0x50
 16131 12e7 00000000 		.4byte	0
ARM GAS  /tmp/ccMboyVS.s 			page 284


 16132 12eb 00000000 		.4byte	0
 16133              	.LLST114:
 16134 12ef C6090000 		.4byte	.LVL312
 16135 12f3 CA090000 		.4byte	.LVL313
 16136 12f7 0100     		.2byte	0x1
 16137 12f9 50       		.byte	0x50
 16138 12fa 00000000 		.4byte	0
 16139 12fe 00000000 		.4byte	0
 16140              	.LLST115:
 16141 1302 920B0000 		.4byte	.LVL380
 16142 1306 980B0000 		.4byte	.LVL381
 16143 130a 0600     		.2byte	0x6
 16144 130c 74       		.byte	0x74
 16145 130d 00       		.sleb128 0
 16146 130e 70       		.byte	0x70
 16147 130f 00       		.sleb128 0
 16148 1310 22       		.byte	0x22
 16149 1311 9F       		.byte	0x9f
 16150 1312 980B0000 		.4byte	.LVL381
 16151 1316 9B0B0000 		.4byte	.LVL382-1
 16152 131a 0100     		.2byte	0x1
 16153 131c 50       		.byte	0x50
 16154 131d 00000000 		.4byte	0
 16155 1321 00000000 		.4byte	0
 16156              	.LLST116:
 16157 1325 A00B0000 		.4byte	.LVL383
 16158 1329 B80B0000 		.4byte	.LVL387
 16159 132d 0100     		.2byte	0x1
 16160 132f 50       		.byte	0x50
 16161 1330 DA110000 		.4byte	.LVL626
 16162 1334 E4110000 		.4byte	.LVL627
 16163 1338 0100     		.2byte	0x1
 16164 133a 50       		.byte	0x50
 16165 133b 00000000 		.4byte	0
 16166 133f 00000000 		.4byte	0
 16167              	.LLST117:
 16168 1343 AC0B0000 		.4byte	.LVL385
 16169 1347 B20B0000 		.4byte	.LVL386
 16170 134b 0400     		.2byte	0x4
 16171 134d 48       		.byte	0x48
 16172 134e 49       		.byte	0x49
 16173 134f 24       		.byte	0x24
 16174 1350 9F       		.byte	0x9f
 16175 1351 00000000 		.4byte	0
 16176 1355 00000000 		.4byte	0
 16177              	.LLST118:
 16178 1359 AC0B0000 		.4byte	.LVL385
 16179 135d B20B0000 		.4byte	.LVL386
 16180 1361 0100     		.2byte	0x1
 16181 1363 50       		.byte	0x50
 16182 1364 00000000 		.4byte	0
 16183 1368 00000000 		.4byte	0
 16184              	.LLST119:
 16185 136c A00B0000 		.4byte	.LVL383
 16186 1370 A40B0000 		.4byte	.LVL384
 16187 1374 0100     		.2byte	0x1
 16188 1376 50       		.byte	0x50
ARM GAS  /tmp/ccMboyVS.s 			page 285


 16189 1377 00000000 		.4byte	0
 16190 137b 00000000 		.4byte	0
 16191              	.LLST120:
 16192 137f E4020000 		.4byte	.LVL147
 16193 1383 08030000 		.4byte	.LVL148
 16194 1387 0100     		.2byte	0x1
 16195 1389 54       		.byte	0x54
 16196 138a 00000000 		.4byte	0
 16197 138e 00000000 		.4byte	0
 16198              	.LLST121:
 16199 1392 C6050000 		.4byte	.LVL215
 16200 1396 F2050000 		.4byte	.LVL218
 16201 139a 0100     		.2byte	0x1
 16202 139c 5B       		.byte	0x5b
 16203 139d 2E080000 		.4byte	.LVL275
 16204 13a1 34080000 		.4byte	.LVL276
 16205 13a5 0100     		.2byte	0x1
 16206 13a7 5B       		.byte	0x5b
 16207 13a8 00000000 		.4byte	0
 16208 13ac 00000000 		.4byte	0
 16209              	.LLST122:
 16210 13b0 C6050000 		.4byte	.LVL215
 16211 13b4 D2050000 		.4byte	.LVL216
 16212 13b8 0100     		.2byte	0x1
 16213 13ba 5B       		.byte	0x5b
 16214 13bb 2E080000 		.4byte	.LVL275
 16215 13bf 34080000 		.4byte	.LVL276
 16216 13c3 0100     		.2byte	0x1
 16217 13c5 5B       		.byte	0x5b
 16218 13c6 00000000 		.4byte	0
 16219 13ca 00000000 		.4byte	0
 16220              	.LLST123:
 16221 13ce F6060000 		.4byte	.LVL239
 16222 13d2 F8060000 		.4byte	.LVL240
 16223 13d6 0600     		.2byte	0x6
 16224 13d8 74       		.byte	0x74
 16225 13d9 00       		.sleb128 0
 16226 13da 70       		.byte	0x70
 16227 13db 00       		.sleb128 0
 16228 13dc 22       		.byte	0x22
 16229 13dd 9F       		.byte	0x9f
 16230 13de F8060000 		.4byte	.LVL240
 16231 13e2 FA060000 		.4byte	.LVL241
 16232 13e6 0100     		.2byte	0x1
 16233 13e8 54       		.byte	0x54
 16234 13e9 00000000 		.4byte	0
 16235 13ed 00000000 		.4byte	0
 16236              	.LLST124:
 16237 13f1 1A0B0000 		.4byte	.LVL359
 16238 13f5 200B0000 		.4byte	.LVL360
 16239 13f9 0600     		.2byte	0x6
 16240 13fb 74       		.byte	0x74
 16241 13fc 00       		.sleb128 0
 16242 13fd 70       		.byte	0x70
 16243 13fe 00       		.sleb128 0
 16244 13ff 22       		.byte	0x22
 16245 1400 9F       		.byte	0x9f
ARM GAS  /tmp/ccMboyVS.s 			page 286


 16246 1401 200B0000 		.4byte	.LVL360
 16247 1405 230B0000 		.4byte	.LVL361-1
 16248 1409 0100     		.2byte	0x1
 16249 140b 50       		.byte	0x50
 16250 140c 00000000 		.4byte	0
 16251 1410 00000000 		.4byte	0
 16252              	.LLST125:
 16253 1414 280B0000 		.4byte	.LVL362
 16254 1418 440B0000 		.4byte	.LVL366
 16255 141c 0100     		.2byte	0x1
 16256 141e 50       		.byte	0x50
 16257 141f E4110000 		.4byte	.LVL627
 16258 1423 EE110000 		.4byte	.LVL628
 16259 1427 0100     		.2byte	0x1
 16260 1429 50       		.byte	0x50
 16261 142a 00000000 		.4byte	0
 16262 142e 00000000 		.4byte	0
 16263              	.LLST126:
 16264 1432 280B0000 		.4byte	.LVL362
 16265 1436 2C0B0000 		.4byte	.LVL363
 16266 143a 0100     		.2byte	0x1
 16267 143c 50       		.byte	0x50
 16268 143d 00000000 		.4byte	0
 16269 1441 00000000 		.4byte	0
 16270              	.LLST127:
 16271 1445 340B0000 		.4byte	.LVL364
 16272 1449 3E0B0000 		.4byte	.LVL365
 16273 144d 0400     		.2byte	0x4
 16274 144f 40       		.byte	0x40
 16275 1450 49       		.byte	0x49
 16276 1451 24       		.byte	0x24
 16277 1452 9F       		.byte	0x9f
 16278 1453 00000000 		.4byte	0
 16279 1457 00000000 		.4byte	0
 16280              	.LLST128:
 16281 145b 340B0000 		.4byte	.LVL364
 16282 145f 3E0B0000 		.4byte	.LVL365
 16283 1463 0100     		.2byte	0x1
 16284 1465 50       		.byte	0x50
 16285 1466 00000000 		.4byte	0
 16286 146a 00000000 		.4byte	0
 16287              	.LLST129:
 16288 146e 400C0000 		.4byte	.LVL414
 16289 1472 420C0000 		.4byte	.LVL415
 16290 1476 0600     		.2byte	0x6
 16291 1478 74       		.byte	0x74
 16292 1479 00       		.sleb128 0
 16293 147a 70       		.byte	0x70
 16294 147b 00       		.sleb128 0
 16295 147c 22       		.byte	0x22
 16296 147d 9F       		.byte	0x9f
 16297 147e 420C0000 		.4byte	.LVL415
 16298 1482 440C0000 		.4byte	.LVL416
 16299 1486 0100     		.2byte	0x1
 16300 1488 54       		.byte	0x54
 16301 1489 00000000 		.4byte	0
 16302 148d 00000000 		.4byte	0
ARM GAS  /tmp/ccMboyVS.s 			page 287


 16303              	.LLST158:
 16304 1491 F2030000 		.4byte	.LVL166
 16305 1495 3E040000 		.4byte	.LVL170
 16306 1499 0100     		.2byte	0x1
 16307 149b 54       		.byte	0x54
 16308 149c 48060000 		.4byte	.LVL224
 16309 14a0 72060000 		.4byte	.LVL226
 16310 14a4 0100     		.2byte	0x1
 16311 14a6 54       		.byte	0x54
 16312 14a7 60070000 		.4byte	.LVL253
 16313 14ab 86070000 		.4byte	.LVL256
 16314 14af 0100     		.2byte	0x1
 16315 14b1 54       		.byte	0x54
 16316 14b2 A2070000 		.4byte	.LVL261
 16317 14b6 AA070000 		.4byte	.LVL262
 16318 14ba 0100     		.2byte	0x1
 16319 14bc 54       		.byte	0x54
 16320 14bd 14090000 		.4byte	.LVL295
 16321 14c1 1A090000 		.4byte	.LVL296
 16322 14c5 0100     		.2byte	0x1
 16323 14c7 54       		.byte	0x54
 16324 14c8 2A0A0000 		.4byte	.LVL325
 16325 14cc 5C0A0000 		.4byte	.LVL330
 16326 14d0 0100     		.2byte	0x1
 16327 14d2 54       		.byte	0x54
 16328 14d3 060B0000 		.4byte	.LVL354
 16329 14d7 080B0000 		.4byte	.LVL355
 16330 14db 0100     		.2byte	0x1
 16331 14dd 54       		.byte	0x54
 16332 14de 080B0000 		.4byte	.LVL355
 16333 14e2 0C0B0000 		.4byte	.LVL356
 16334 14e6 0300     		.2byte	0x3
 16335 14e8 08       		.byte	0x8
 16336 14e9 80       		.byte	0x80
 16337 14ea 9F       		.byte	0x9f
 16338 14eb EE0C0000 		.4byte	.LVL450
 16339 14ef F60C0000 		.4byte	.LVL452
 16340 14f3 0100     		.2byte	0x1
 16341 14f5 54       		.byte	0x54
 16342 14f6 240D0000 		.4byte	.LVL460
 16343 14fa 2C0D0000 		.4byte	.LVL462
 16344 14fe 0100     		.2byte	0x1
 16345 1500 54       		.byte	0x54
 16346 1501 3C0D0000 		.4byte	.LVL467
 16347 1505 440D0000 		.4byte	.LVL469
 16348 1509 0100     		.2byte	0x1
 16349 150b 54       		.byte	0x54
 16350 150c 2C120000 		.4byte	.LVL634
 16351 1510 5A120000 		.4byte	.LVL637
 16352 1514 0100     		.2byte	0x1
 16353 1516 54       		.byte	0x54
 16354 1517 5A120000 		.4byte	.LVL637
 16355 151b 64120000 		.4byte	.LVL639
 16356 151f 0200     		.2byte	0x2
 16357 1521 70       		.byte	0x70
 16358 1522 00       		.sleb128 0
 16359 1523 70130000 		.4byte	.LVL676
ARM GAS  /tmp/ccMboyVS.s 			page 288


 16360 1527 72130000 		.4byte	.LVL677
 16361 152b 0100     		.2byte	0x1
 16362 152d 54       		.byte	0x54
 16363 152e 72130000 		.4byte	.LVL677
 16364 1532 76130000 		.4byte	.LVL678
 16365 1536 0200     		.2byte	0x2
 16366 1538 70       		.byte	0x70
 16367 1539 00       		.sleb128 0
 16368 153a 7A140000 		.4byte	.LVL705
 16369 153e A8140000 		.4byte	.LVL711
 16370 1542 0100     		.2byte	0x1
 16371 1544 54       		.byte	0x54
 16372 1545 4E150000 		.4byte	.LVL727
 16373 1549 6C150000 		.4byte	.LVL732
 16374 154d 0100     		.2byte	0x1
 16375 154f 54       		.byte	0x54
 16376 1550 86150000 		.4byte	.LVL735
 16377 1554 98150000 		.4byte	.LVL740
 16378 1558 0100     		.2byte	0x1
 16379 155a 54       		.byte	0x54
 16380 155b BE150000 		.4byte	.LVL745
 16381 155f C2150000 		.4byte	.LVL746
 16382 1563 0100     		.2byte	0x1
 16383 1565 54       		.byte	0x54
 16384 1566 C2150000 		.4byte	.LVL746
 16385 156a CC150000 		.4byte	.LVL748
 16386 156e 0200     		.2byte	0x2
 16387 1570 70       		.byte	0x70
 16388 1571 00       		.sleb128 0
 16389 1572 CC150000 		.4byte	.LVL748
 16390 1576 CE150000 		.4byte	.LVL749
 16391 157a 0100     		.2byte	0x1
 16392 157c 54       		.byte	0x54
 16393 157d CE150000 		.4byte	.LVL749
 16394 1581 D2150000 		.4byte	.LVL750
 16395 1585 0200     		.2byte	0x2
 16396 1587 70       		.byte	0x70
 16397 1588 00       		.sleb128 0
 16398 1589 00000000 		.4byte	0
 16399 158d 00000000 		.4byte	0
 16400              	.LLST159:
 16401 1591 F6030000 		.4byte	.LVL167
 16402 1595 08040000 		.4byte	.LVL168
 16403 1599 0200     		.2byte	0x2
 16404 159b 31       		.byte	0x31
 16405 159c 9F       		.byte	0x9f
 16406 159d 08040000 		.4byte	.LVL168
 16407 15a1 40040000 		.4byte	.LVL171
 16408 15a5 0100     		.2byte	0x1
 16409 15a7 5A       		.byte	0x5a
 16410 15a8 48060000 		.4byte	.LVL224
 16411 15ac 74060000 		.4byte	.LVL227
 16412 15b0 0100     		.2byte	0x1
 16413 15b2 5A       		.byte	0x5a
 16414 15b3 60070000 		.4byte	.LVL253
 16415 15b7 AA070000 		.4byte	.LVL262
 16416 15bb 0100     		.2byte	0x1
ARM GAS  /tmp/ccMboyVS.s 			page 289


 16417 15bd 5A       		.byte	0x5a
 16418 15be 14090000 		.4byte	.LVL295
 16419 15c2 1A090000 		.4byte	.LVL296
 16420 15c6 0100     		.2byte	0x1
 16421 15c8 5A       		.byte	0x5a
 16422 15c9 2A0A0000 		.4byte	.LVL325
 16423 15cd 760A0000 		.4byte	.LVL334
 16424 15d1 0100     		.2byte	0x1
 16425 15d3 5A       		.byte	0x5a
 16426 15d4 060B0000 		.4byte	.LVL354
 16427 15d8 0C0B0000 		.4byte	.LVL356
 16428 15dc 0100     		.2byte	0x1
 16429 15de 5A       		.byte	0x5a
 16430 15df EE0C0000 		.4byte	.LVL450
 16431 15e3 760D0000 		.4byte	.LVL479
 16432 15e7 0100     		.2byte	0x1
 16433 15e9 5A       		.byte	0x5a
 16434 15ea 64120000 		.4byte	.LVL639
 16435 15ee 6E120000 		.4byte	.LVL640
 16436 15f2 0100     		.2byte	0x1
 16437 15f4 5A       		.byte	0x5a
 16438 15f5 80120000 		.4byte	.LVL643
 16439 15f9 96120000 		.4byte	.LVL645
 16440 15fd 0100     		.2byte	0x1
 16441 15ff 5A       		.byte	0x5a
 16442 1600 00000000 		.4byte	0
 16443 1604 00000000 		.4byte	0
 16444              	.LLST160:
 16445 1608 1A040000 		.4byte	.LVL169
 16446 160c 40040000 		.4byte	.LVL171
 16447 1610 0100     		.2byte	0x1
 16448 1612 57       		.byte	0x57
 16449 1613 48060000 		.4byte	.LVL224
 16450 1617 74060000 		.4byte	.LVL227
 16451 161b 0100     		.2byte	0x1
 16452 161d 57       		.byte	0x57
 16453 161e 60070000 		.4byte	.LVL253
 16454 1622 94070000 		.4byte	.LVL260
 16455 1626 0100     		.2byte	0x1
 16456 1628 57       		.byte	0x57
 16457 1629 14090000 		.4byte	.LVL295
 16458 162d 1A090000 		.4byte	.LVL296
 16459 1631 0100     		.2byte	0x1
 16460 1633 57       		.byte	0x57
 16461 1634 2A0A0000 		.4byte	.LVL325
 16462 1638 700A0000 		.4byte	.LVL333
 16463 163c 0100     		.2byte	0x1
 16464 163e 57       		.byte	0x57
 16465 163f 060B0000 		.4byte	.LVL354
 16466 1643 0C0B0000 		.4byte	.LVL356
 16467 1647 0100     		.2byte	0x1
 16468 1649 57       		.byte	0x57
 16469 164a EE0C0000 		.4byte	.LVL450
 16470 164e 1E0D0000 		.4byte	.LVL459
 16471 1652 0100     		.2byte	0x1
 16472 1654 57       		.byte	0x57
 16473 1655 240D0000 		.4byte	.LVL460
ARM GAS  /tmp/ccMboyVS.s 			page 290


 16474 1659 3A0D0000 		.4byte	.LVL466
 16475 165d 0100     		.2byte	0x1
 16476 165f 57       		.byte	0x57
 16477 1660 3C0D0000 		.4byte	.LVL467
 16478 1664 700D0000 		.4byte	.LVL478
 16479 1668 0100     		.2byte	0x1
 16480 166a 57       		.byte	0x57
 16481 166b 64120000 		.4byte	.LVL639
 16482 166f 6E120000 		.4byte	.LVL640
 16483 1673 0100     		.2byte	0x1
 16484 1675 57       		.byte	0x57
 16485 1676 80120000 		.4byte	.LVL643
 16486 167a 96120000 		.4byte	.LVL645
 16487 167e 0100     		.2byte	0x1
 16488 1680 57       		.byte	0x57
 16489 1681 00000000 		.4byte	0
 16490 1685 00000000 		.4byte	0
 16491              	.LLST161:
 16492 1689 1A040000 		.4byte	.LVL169
 16493 168d 3E040000 		.4byte	.LVL170
 16494 1691 0100     		.2byte	0x1
 16495 1693 54       		.byte	0x54
 16496 1694 48060000 		.4byte	.LVL224
 16497 1698 72060000 		.4byte	.LVL226
 16498 169c 0100     		.2byte	0x1
 16499 169e 54       		.byte	0x54
 16500 169f 60070000 		.4byte	.LVL253
 16501 16a3 86070000 		.4byte	.LVL256
 16502 16a7 0100     		.2byte	0x1
 16503 16a9 54       		.byte	0x54
 16504 16aa 14090000 		.4byte	.LVL295
 16505 16ae 1A090000 		.4byte	.LVL296
 16506 16b2 0100     		.2byte	0x1
 16507 16b4 54       		.byte	0x54
 16508 16b5 2A0A0000 		.4byte	.LVL325
 16509 16b9 5C0A0000 		.4byte	.LVL330
 16510 16bd 0100     		.2byte	0x1
 16511 16bf 54       		.byte	0x54
 16512 16c0 060B0000 		.4byte	.LVL354
 16513 16c4 080B0000 		.4byte	.LVL355
 16514 16c8 0100     		.2byte	0x1
 16515 16ca 54       		.byte	0x54
 16516 16cb EE0C0000 		.4byte	.LVL450
 16517 16cf F60C0000 		.4byte	.LVL452
 16518 16d3 0100     		.2byte	0x1
 16519 16d5 54       		.byte	0x54
 16520 16d6 240D0000 		.4byte	.LVL460
 16521 16da 2C0D0000 		.4byte	.LVL462
 16522 16de 0100     		.2byte	0x1
 16523 16e0 54       		.byte	0x54
 16524 16e1 3C0D0000 		.4byte	.LVL467
 16525 16e5 440D0000 		.4byte	.LVL469
 16526 16e9 0100     		.2byte	0x1
 16527 16eb 54       		.byte	0x54
 16528 16ec 00000000 		.4byte	0
 16529 16f0 00000000 		.4byte	0
 16530              	.LLST162:
ARM GAS  /tmp/ccMboyVS.s 			page 291


 16531 16f4 60070000 		.4byte	.LVL253
 16532 16f8 66070000 		.4byte	.LVL254
 16533 16fc 1600     		.2byte	0x16
 16534 16fe 73       		.byte	0x73
 16535 16ff 00       		.sleb128 0
 16536 1700 12       		.byte	0x12
 16537 1701 40       		.byte	0x40
 16538 1702 4B       		.byte	0x4b
 16539 1703 24       		.byte	0x24
 16540 1704 22       		.byte	0x22
 16541 1705 72       		.byte	0x72
 16542 1706 00       		.sleb128 0
 16543 1707 16       		.byte	0x16
 16544 1708 14       		.byte	0x14
 16545 1709 40       		.byte	0x40
 16546 170a 4B       		.byte	0x4b
 16547 170b 24       		.byte	0x24
 16548 170c 22       		.byte	0x22
 16549 170d 2B       		.byte	0x2b
 16550 170e 28       		.byte	0x28
 16551 170f 0100     		.2byte	0x1
 16552 1711 16       		.byte	0x16
 16553 1712 13       		.byte	0x13
 16554 1713 9F       		.byte	0x9f
 16555 1714 00000000 		.4byte	0
 16556 1718 00000000 		.4byte	0
 16557              	.LLST163:
 16558 171c 480A0000 		.4byte	.LVL327
 16559 1720 4C0A0000 		.4byte	.LVL328
 16560 1724 0800     		.2byte	0x8
 16561 1726 F5       		.byte	0xf5
 16562 1727 50       		.uleb128 0x50
 16563 1728 25       		.uleb128 0x25
 16564 1729 F5       		.byte	0xf5
 16565 172a 40       		.uleb128 0x40
 16566 172b 25       		.uleb128 0x25
 16567 172c 1C       		.byte	0x1c
 16568 172d 9F       		.byte	0x9f
 16569 172e 4C0A0000 		.4byte	.LVL328
 16570 1732 570A0000 		.4byte	.LVL329-1
 16571 1736 0200     		.2byte	0x2
 16572 1738 90       		.byte	0x90
 16573 1739 4F       		.uleb128 0x4f
 16574 173a 00000000 		.4byte	0
 16575 173e 00000000 		.4byte	0
 16576              	.LLST164:
 16577 1742 480A0000 		.4byte	.LVL327
 16578 1746 570A0000 		.4byte	.LVL329-1
 16579 174a 0C00     		.2byte	0xc
 16580 174c F5       		.byte	0xf5
 16581 174d 50       		.uleb128 0x50
 16582 174e 25       		.uleb128 0x25
 16583 174f F5       		.byte	0xf5
 16584 1750 40       		.uleb128 0x40
 16585 1751 25       		.uleb128 0x25
 16586 1752 1C       		.byte	0x1c
 16587 1753 F9       		.byte	0xf9
ARM GAS  /tmp/ccMboyVS.s 			page 292


 16588 1754 2C       		.uleb128 0x2c
 16589 1755 F7       		.byte	0xf7
 16590 1756 00       		.uleb128 0
 16591 1757 9F       		.byte	0x9f
 16592 1758 00000000 		.4byte	0
 16593 175c 00000000 		.4byte	0
 16594              	.LLST165:
 16595 1760 5C0A0000 		.4byte	.LVL330
 16596 1764 760A0000 		.4byte	.LVL334
 16597 1768 0100     		.2byte	0x1
 16598 176a 50       		.byte	0x50
 16599 176b 80120000 		.4byte	.LVL643
 16600 176f 8C120000 		.4byte	.LVL644
 16601 1773 0100     		.2byte	0x1
 16602 1775 50       		.byte	0x50
 16603 1776 00000000 		.4byte	0
 16604 177a 00000000 		.4byte	0
 16605              	.LLST166:
 16606 177e 680A0000 		.4byte	.LVL332
 16607 1782 700A0000 		.4byte	.LVL333
 16608 1786 0400     		.2byte	0x4
 16609 1788 40       		.byte	0x40
 16610 1789 4A       		.byte	0x4a
 16611 178a 24       		.byte	0x24
 16612 178b 9F       		.byte	0x9f
 16613 178c 00000000 		.4byte	0
 16614 1790 00000000 		.4byte	0
 16615              	.LLST167:
 16616 1794 680A0000 		.4byte	.LVL332
 16617 1798 700A0000 		.4byte	.LVL333
 16618 179c 0100     		.2byte	0x1
 16619 179e 50       		.byte	0x50
 16620 179f 00000000 		.4byte	0
 16621 17a3 00000000 		.4byte	0
 16622              	.LLST168:
 16623 17a7 5C0A0000 		.4byte	.LVL330
 16624 17ab 600A0000 		.4byte	.LVL331
 16625 17af 0100     		.2byte	0x1
 16626 17b1 50       		.byte	0x50
 16627 17b2 00000000 		.4byte	0
 16628 17b6 00000000 		.4byte	0
 16629              	.LLST169:
 16630 17ba FC0C0000 		.4byte	.LVL453
 16631 17be 020D0000 		.4byte	.LVL454
 16632 17c2 0600     		.2byte	0x6
 16633 17c4 74       		.byte	0x74
 16634 17c5 00       		.sleb128 0
 16635 17c6 70       		.byte	0x70
 16636 17c7 00       		.sleb128 0
 16637 17c8 1C       		.byte	0x1c
 16638 17c9 9F       		.byte	0x9f
 16639 17ca 020D0000 		.4byte	.LVL454
 16640 17ce 050D0000 		.4byte	.LVL455-1
 16641 17d2 0100     		.2byte	0x1
 16642 17d4 50       		.byte	0x50
 16643 17d5 00000000 		.4byte	0
 16644 17d9 00000000 		.4byte	0
ARM GAS  /tmp/ccMboyVS.s 			page 293


 16645              	.LLST170:
 16646 17dd 0A0D0000 		.4byte	.LVL456
 16647 17e1 240D0000 		.4byte	.LVL460
 16648 17e5 0100     		.2byte	0x1
 16649 17e7 50       		.byte	0x50
 16650 17e8 64120000 		.4byte	.LVL639
 16651 17ec 6E120000 		.4byte	.LVL640
 16652 17f0 0100     		.2byte	0x1
 16653 17f2 50       		.byte	0x50
 16654 17f3 00000000 		.4byte	0
 16655 17f7 00000000 		.4byte	0
 16656              	.LLST171:
 16657 17fb 160D0000 		.4byte	.LVL458
 16658 17ff 1E0D0000 		.4byte	.LVL459
 16659 1803 0400     		.2byte	0x4
 16660 1805 48       		.byte	0x48
 16661 1806 49       		.byte	0x49
 16662 1807 24       		.byte	0x24
 16663 1808 9F       		.byte	0x9f
 16664 1809 00000000 		.4byte	0
 16665 180d 00000000 		.4byte	0
 16666              	.LLST172:
 16667 1811 160D0000 		.4byte	.LVL458
 16668 1815 1E0D0000 		.4byte	.LVL459
 16669 1819 0100     		.2byte	0x1
 16670 181b 50       		.byte	0x50
 16671 181c 00000000 		.4byte	0
 16672 1820 00000000 		.4byte	0
 16673              	.LLST173:
 16674 1824 0A0D0000 		.4byte	.LVL456
 16675 1828 0E0D0000 		.4byte	.LVL457
 16676 182c 0100     		.2byte	0x1
 16677 182e 50       		.byte	0x50
 16678 182f 00000000 		.4byte	0
 16679 1833 00000000 		.4byte	0
 16680              	.LLST174:
 16681 1837 1A040000 		.4byte	.LVL169
 16682 183b 3E040000 		.4byte	.LVL170
 16683 183f 0100     		.2byte	0x1
 16684 1841 54       		.byte	0x54
 16685 1842 00000000 		.4byte	0
 16686 1846 00000000 		.4byte	0
 16687              	.LLST175:
 16688 184a 48060000 		.4byte	.LVL224
 16689 184e 74060000 		.4byte	.LVL227
 16690 1852 0100     		.2byte	0x1
 16691 1854 57       		.byte	0x57
 16692 1855 14090000 		.4byte	.LVL295
 16693 1859 1A090000 		.4byte	.LVL296
 16694 185d 0100     		.2byte	0x1
 16695 185f 57       		.byte	0x57
 16696 1860 00000000 		.4byte	0
 16697 1864 00000000 		.4byte	0
 16698              	.LLST176:
 16699 1868 48060000 		.4byte	.LVL224
 16700 186c 52060000 		.4byte	.LVL225
 16701 1870 0100     		.2byte	0x1
ARM GAS  /tmp/ccMboyVS.s 			page 294


 16702 1872 57       		.byte	0x57
 16703 1873 14090000 		.4byte	.LVL295
 16704 1877 1A090000 		.4byte	.LVL296
 16705 187b 0100     		.2byte	0x1
 16706 187d 57       		.byte	0x57
 16707 187e 00000000 		.4byte	0
 16708 1882 00000000 		.4byte	0
 16709              	.LLST177:
 16710 1886 8C070000 		.4byte	.LVL257
 16711 188a 8E070000 		.4byte	.LVL258
 16712 188e 0600     		.2byte	0x6
 16713 1890 74       		.byte	0x74
 16714 1891 00       		.sleb128 0
 16715 1892 70       		.byte	0x70
 16716 1893 00       		.sleb128 0
 16717 1894 1C       		.byte	0x1c
 16718 1895 9F       		.byte	0x9f
 16719 1896 8E070000 		.4byte	.LVL258
 16720 189a 90070000 		.4byte	.LVL259
 16721 189e 0100     		.2byte	0x1
 16722 18a0 54       		.byte	0x54
 16723 18a1 00000000 		.4byte	0
 16724 18a5 00000000 		.4byte	0
 16725              	.LLST178:
 16726 18a9 320D0000 		.4byte	.LVL463
 16727 18ad 340D0000 		.4byte	.LVL464
 16728 18b1 0600     		.2byte	0x6
 16729 18b3 74       		.byte	0x74
 16730 18b4 00       		.sleb128 0
 16731 18b5 70       		.byte	0x70
 16732 18b6 00       		.sleb128 0
 16733 18b7 1C       		.byte	0x1c
 16734 18b8 9F       		.byte	0x9f
 16735 18b9 340D0000 		.4byte	.LVL464
 16736 18bd 360D0000 		.4byte	.LVL465
 16737 18c1 0100     		.2byte	0x1
 16738 18c3 54       		.byte	0x54
 16739 18c4 00000000 		.4byte	0
 16740 18c8 00000000 		.4byte	0
 16741              	.LLST179:
 16742 18cc 4A0D0000 		.4byte	.LVL470
 16743 18d0 500D0000 		.4byte	.LVL471
 16744 18d4 0600     		.2byte	0x6
 16745 18d6 74       		.byte	0x74
 16746 18d7 00       		.sleb128 0
 16747 18d8 70       		.byte	0x70
 16748 18d9 00       		.sleb128 0
 16749 18da 1C       		.byte	0x1c
 16750 18db 9F       		.byte	0x9f
 16751 18dc 500D0000 		.4byte	.LVL471
 16752 18e0 530D0000 		.4byte	.LVL472-1
 16753 18e4 0100     		.2byte	0x1
 16754 18e6 50       		.byte	0x50
 16755 18e7 00000000 		.4byte	0
 16756 18eb 00000000 		.4byte	0
 16757              	.LLST180:
 16758 18ef 560D0000 		.4byte	.LVL473
ARM GAS  /tmp/ccMboyVS.s 			page 295


 16759 18f3 580D0000 		.4byte	.LVL474
 16760 18f7 0100     		.2byte	0x1
 16761 18f9 50       		.byte	0x50
 16762 18fa 580D0000 		.4byte	.LVL474
 16763 18fe 680D0000 		.4byte	.LVL477
 16764 1902 0100     		.2byte	0x1
 16765 1904 54       		.byte	0x54
 16766 1905 8C120000 		.4byte	.LVL644
 16767 1909 96120000 		.4byte	.LVL645
 16768 190d 0100     		.2byte	0x1
 16769 190f 54       		.byte	0x54
 16770 1910 00000000 		.4byte	0
 16771 1914 00000000 		.4byte	0
 16772              	.LLST181:
 16773 1918 560D0000 		.4byte	.LVL473
 16774 191c 580D0000 		.4byte	.LVL474
 16775 1920 0100     		.2byte	0x1
 16776 1922 50       		.byte	0x50
 16777 1923 580D0000 		.4byte	.LVL474
 16778 1927 5C0D0000 		.4byte	.LVL475
 16779 192b 0100     		.2byte	0x1
 16780 192d 54       		.byte	0x54
 16781 192e 00000000 		.4byte	0
 16782 1932 00000000 		.4byte	0
 16783              	.LLST182:
 16784 1936 640D0000 		.4byte	.LVL476
 16785 193a 700D0000 		.4byte	.LVL478
 16786 193e 0400     		.2byte	0x4
 16787 1940 40       		.byte	0x40
 16788 1941 49       		.byte	0x49
 16789 1942 24       		.byte	0x24
 16790 1943 9F       		.byte	0x9f
 16791 1944 00000000 		.4byte	0
 16792 1948 00000000 		.4byte	0
 16793              	.LLST183:
 16794 194c 640D0000 		.4byte	.LVL476
 16795 1950 680D0000 		.4byte	.LVL477
 16796 1954 0100     		.2byte	0x1
 16797 1956 54       		.byte	0x54
 16798 1957 00000000 		.4byte	0
 16799 195b 00000000 		.4byte	0
 16800              	.LLST184:
 16801 195f 2C120000 		.4byte	.LVL634
 16802 1963 5A120000 		.4byte	.LVL637
 16803 1967 0100     		.2byte	0x1
 16804 1969 54       		.byte	0x54
 16805 196a 5A120000 		.4byte	.LVL637
 16806 196e 64120000 		.4byte	.LVL639
 16807 1972 0200     		.2byte	0x2
 16808 1974 70       		.byte	0x70
 16809 1975 00       		.sleb128 0
 16810 1976 70130000 		.4byte	.LVL676
 16811 197a 72130000 		.4byte	.LVL677
 16812 197e 0100     		.2byte	0x1
 16813 1980 54       		.byte	0x54
 16814 1981 72130000 		.4byte	.LVL677
 16815 1985 76130000 		.4byte	.LVL678
ARM GAS  /tmp/ccMboyVS.s 			page 296


 16816 1989 0200     		.2byte	0x2
 16817 198b 70       		.byte	0x70
 16818 198c 00       		.sleb128 0
 16819 198d 7A140000 		.4byte	.LVL705
 16820 1991 A8140000 		.4byte	.LVL711
 16821 1995 0100     		.2byte	0x1
 16822 1997 54       		.byte	0x54
 16823 1998 4E150000 		.4byte	.LVL727
 16824 199c 6C150000 		.4byte	.LVL732
 16825 19a0 0100     		.2byte	0x1
 16826 19a2 54       		.byte	0x54
 16827 19a3 86150000 		.4byte	.LVL735
 16828 19a7 98150000 		.4byte	.LVL740
 16829 19ab 0100     		.2byte	0x1
 16830 19ad 54       		.byte	0x54
 16831 19ae BE150000 		.4byte	.LVL745
 16832 19b2 C2150000 		.4byte	.LVL746
 16833 19b6 0100     		.2byte	0x1
 16834 19b8 54       		.byte	0x54
 16835 19b9 C2150000 		.4byte	.LVL746
 16836 19bd CC150000 		.4byte	.LVL748
 16837 19c1 0200     		.2byte	0x2
 16838 19c3 70       		.byte	0x70
 16839 19c4 00       		.sleb128 0
 16840 19c5 CC150000 		.4byte	.LVL748
 16841 19c9 CE150000 		.4byte	.LVL749
 16842 19cd 0100     		.2byte	0x1
 16843 19cf 54       		.byte	0x54
 16844 19d0 CE150000 		.4byte	.LVL749
 16845 19d4 D2150000 		.4byte	.LVL750
 16846 19d8 0200     		.2byte	0x2
 16847 19da 70       		.byte	0x70
 16848 19db 00       		.sleb128 0
 16849 19dc 00000000 		.4byte	0
 16850 19e0 00000000 		.4byte	0
 16851              	.LLST185:
 16852 19e4 8E140000 		.4byte	.LVL708
 16853 19e8 96140000 		.4byte	.LVL709
 16854 19ec 0500     		.2byte	0x5
 16855 19ee F5       		.byte	0xf5
 16856 19ef 00       		.uleb128 0
 16857 19f0 25       		.uleb128 0x25
 16858 19f1 1F       		.byte	0x1f
 16859 19f2 9F       		.byte	0x9f
 16860 19f3 96140000 		.4byte	.LVL709
 16861 19f7 99140000 		.4byte	.LVL710-1
 16862 19fb 0100     		.2byte	0x1
 16863 19fd 50       		.byte	0x50
 16864 19fe 00000000 		.4byte	0
 16865 1a02 00000000 		.4byte	0
 16866              	.LLST186:
 16867 1a06 2C120000 		.4byte	.LVL634
 16868 1a0a 38120000 		.4byte	.LVL635
 16869 1a0e 0100     		.2byte	0x1
 16870 1a10 54       		.byte	0x54
 16871 1a11 00000000 		.4byte	0
 16872 1a15 00000000 		.4byte	0
ARM GAS  /tmp/ccMboyVS.s 			page 297


 16873              	.LLST187:
 16874 1a19 56120000 		.4byte	.LVL636
 16875 1a1d 5A120000 		.4byte	.LVL637
 16876 1a21 0600     		.2byte	0x6
 16877 1a23 74       		.byte	0x74
 16878 1a24 00       		.sleb128 0
 16879 1a25 34       		.byte	0x34
 16880 1a26 26       		.byte	0x26
 16881 1a27 1F       		.byte	0x1f
 16882 1a28 9F       		.byte	0x9f
 16883 1a29 5A120000 		.4byte	.LVL637
 16884 1a2d 60120000 		.4byte	.LVL638
 16885 1a31 0700     		.2byte	0x7
 16886 1a33 70       		.byte	0x70
 16887 1a34 00       		.sleb128 0
 16888 1a35 06       		.byte	0x6
 16889 1a36 34       		.byte	0x34
 16890 1a37 26       		.byte	0x26
 16891 1a38 1F       		.byte	0x1f
 16892 1a39 9F       		.byte	0x9f
 16893 1a3a 00000000 		.4byte	0
 16894 1a3e 00000000 		.4byte	0
 16895              	.LLST188:
 16896 1a42 88140000 		.4byte	.LVL706
 16897 1a46 8E140000 		.4byte	.LVL708
 16898 1a4a 0100     		.2byte	0x1
 16899 1a4c 54       		.byte	0x54
 16900 1a4d 00000000 		.4byte	0
 16901 1a51 00000000 		.4byte	0
 16902              	.LLST190:
 16903 1a55 8E140000 		.4byte	.LVL708
 16904 1a59 96140000 		.4byte	.LVL709
 16905 1a5d 0900     		.2byte	0x9
 16906 1a5f F5       		.byte	0xf5
 16907 1a60 00       		.uleb128 0
 16908 1a61 25       		.uleb128 0x25
 16909 1a62 1F       		.byte	0x1f
 16910 1a63 F9       		.byte	0xf9
 16911 1a64 2C       		.uleb128 0x2c
 16912 1a65 F7       		.byte	0xf7
 16913 1a66 00       		.uleb128 0
 16914 1a67 9F       		.byte	0x9f
 16915 1a68 00000000 		.4byte	0
 16916 1a6c 00000000 		.4byte	0
 16917              	.LLST191:
 16918 1a70 A8140000 		.4byte	.LVL711
 16919 1a74 C2140000 		.4byte	.LVL714
 16920 1a78 0100     		.2byte	0x1
 16921 1a7a 50       		.byte	0x50
 16922 1a7b 00000000 		.4byte	0
 16923 1a7f 00000000 		.4byte	0
 16924              	.LLST192:
 16925 1a83 AE140000 		.4byte	.LVL712
 16926 1a87 BE140000 		.4byte	.LVL713
 16927 1a8b 0400     		.2byte	0x4
 16928 1a8d 40       		.byte	0x40
 16929 1a8e 4A       		.byte	0x4a
ARM GAS  /tmp/ccMboyVS.s 			page 298


 16930 1a8f 24       		.byte	0x24
 16931 1a90 9F       		.byte	0x9f
 16932 1a91 00000000 		.4byte	0
 16933 1a95 00000000 		.4byte	0
 16934              	.LLST193:
 16935 1a99 AE140000 		.4byte	.LVL712
 16936 1a9d BE140000 		.4byte	.LVL713
 16937 1aa1 0100     		.2byte	0x1
 16938 1aa3 50       		.byte	0x50
 16939 1aa4 00000000 		.4byte	0
 16940 1aa8 00000000 		.4byte	0
 16941              	.LLST194:
 16942 1aac 4E150000 		.4byte	.LVL727
 16943 1ab0 54150000 		.4byte	.LVL729
 16944 1ab4 0100     		.2byte	0x1
 16945 1ab6 54       		.byte	0x54
 16946 1ab7 00000000 		.4byte	0
 16947 1abb 00000000 		.4byte	0
 16948              	.LLST195:
 16949 1abf 54150000 		.4byte	.LVL729
 16950 1ac3 5A150000 		.4byte	.LVL730
 16951 1ac7 0400     		.2byte	0x4
 16952 1ac9 70       		.byte	0x70
 16953 1aca 00       		.sleb128 0
 16954 1acb 1F       		.byte	0x1f
 16955 1acc 9F       		.byte	0x9f
 16956 1acd 5A150000 		.4byte	.LVL730
 16957 1ad1 5D150000 		.4byte	.LVL731-1
 16958 1ad5 0100     		.2byte	0x1
 16959 1ad7 50       		.byte	0x50
 16960 1ad8 00000000 		.4byte	0
 16961 1adc 00000000 		.4byte	0
 16962              	.LLST196:
 16963 1ae0 6C150000 		.4byte	.LVL732
 16964 1ae4 86150000 		.4byte	.LVL735
 16965 1ae8 0100     		.2byte	0x1
 16966 1aea 50       		.byte	0x50
 16967 1aeb 00000000 		.4byte	0
 16968 1aef 00000000 		.4byte	0
 16969              	.LLST197:
 16970 1af3 72150000 		.4byte	.LVL733
 16971 1af7 82150000 		.4byte	.LVL734
 16972 1afb 0400     		.2byte	0x4
 16973 1afd 48       		.byte	0x48
 16974 1afe 49       		.byte	0x49
 16975 1aff 24       		.byte	0x24
 16976 1b00 9F       		.byte	0x9f
 16977 1b01 00000000 		.4byte	0
 16978 1b05 00000000 		.4byte	0
 16979              	.LLST198:
 16980 1b09 72150000 		.4byte	.LVL733
 16981 1b0d 82150000 		.4byte	.LVL734
 16982 1b11 0100     		.2byte	0x1
 16983 1b13 50       		.byte	0x50
 16984 1b14 00000000 		.4byte	0
 16985 1b18 00000000 		.4byte	0
 16986              	.LLST199:
ARM GAS  /tmp/ccMboyVS.s 			page 299


 16987 1b1c 86150000 		.4byte	.LVL735
 16988 1b20 8C150000 		.4byte	.LVL737
 16989 1b24 0100     		.2byte	0x1
 16990 1b26 54       		.byte	0x54
 16991 1b27 00000000 		.4byte	0
 16992 1b2b 00000000 		.4byte	0
 16993              	.LLST200:
 16994 1b2f 8C150000 		.4byte	.LVL737
 16995 1b33 92150000 		.4byte	.LVL738
 16996 1b37 0400     		.2byte	0x4
 16997 1b39 70       		.byte	0x70
 16998 1b3a 00       		.sleb128 0
 16999 1b3b 1F       		.byte	0x1f
 17000 1b3c 9F       		.byte	0x9f
 17001 1b3d 92150000 		.4byte	.LVL738
 17002 1b41 95150000 		.4byte	.LVL739-1
 17003 1b45 0100     		.2byte	0x1
 17004 1b47 50       		.byte	0x50
 17005 1b48 00000000 		.4byte	0
 17006 1b4c 00000000 		.4byte	0
 17007              	.LLST201:
 17008 1b50 98150000 		.4byte	.LVL740
 17009 1b54 9A150000 		.4byte	.LVL741
 17010 1b58 0100     		.2byte	0x1
 17011 1b5a 50       		.byte	0x50
 17012 1b5b 9A150000 		.4byte	.LVL741
 17013 1b5f AE150000 		.4byte	.LVL743
 17014 1b63 0100     		.2byte	0x1
 17015 1b65 54       		.byte	0x54
 17016 1b66 00000000 		.4byte	0
 17017 1b6a 00000000 		.4byte	0
 17018              	.LLST202:
 17019 1b6e AA150000 		.4byte	.LVL742
 17020 1b72 BA150000 		.4byte	.LVL744
 17021 1b76 0400     		.2byte	0x4
 17022 1b78 40       		.byte	0x40
 17023 1b79 49       		.byte	0x49
 17024 1b7a 24       		.byte	0x24
 17025 1b7b 9F       		.byte	0x9f
 17026 1b7c 00000000 		.4byte	0
 17027 1b80 00000000 		.4byte	0
 17028              	.LLST203:
 17029 1b84 AA150000 		.4byte	.LVL742
 17030 1b88 AE150000 		.4byte	.LVL743
 17031 1b8c 0100     		.2byte	0x1
 17032 1b8e 54       		.byte	0x54
 17033 1b8f 00000000 		.4byte	0
 17034 1b93 00000000 		.4byte	0
 17035              	.LLST204:
 17036 1b97 BE150000 		.4byte	.LVL745
 17037 1b9b C2150000 		.4byte	.LVL746
 17038 1b9f 0600     		.2byte	0x6
 17039 1ba1 74       		.byte	0x74
 17040 1ba2 00       		.sleb128 0
 17041 1ba3 34       		.byte	0x34
 17042 1ba4 25       		.byte	0x25
 17043 1ba5 1F       		.byte	0x1f
ARM GAS  /tmp/ccMboyVS.s 			page 300


 17044 1ba6 9F       		.byte	0x9f
 17045 1ba7 C2150000 		.4byte	.LVL746
 17046 1bab C8150000 		.4byte	.LVL747
 17047 1baf 0700     		.2byte	0x7
 17048 1bb1 70       		.byte	0x70
 17049 1bb2 00       		.sleb128 0
 17050 1bb3 06       		.byte	0x6
 17051 1bb4 34       		.byte	0x34
 17052 1bb5 25       		.byte	0x25
 17053 1bb6 1F       		.byte	0x1f
 17054 1bb7 9F       		.byte	0x9f
 17055 1bb8 00000000 		.4byte	0
 17056 1bbc 00000000 		.4byte	0
 17057              	.LLST130:
 17058 1bc0 0A030000 		.4byte	.LVL149
 17059 1bc4 22030000 		.4byte	.LVL150
 17060 1bc8 0200     		.2byte	0x2
 17061 1bca 48       		.byte	0x48
 17062 1bcb 9F       		.byte	0x9f
 17063 1bcc 22030000 		.4byte	.LVL150
 17064 1bd0 58030000 		.4byte	.LVL152
 17065 1bd4 0100     		.2byte	0x1
 17066 1bd6 54       		.byte	0x54
 17067 1bd7 1C060000 		.4byte	.LVL221
 17068 1bdb 46060000 		.4byte	.LVL223
 17069 1bdf 0100     		.2byte	0x1
 17070 1be1 54       		.byte	0x54
 17071 1be2 14070000 		.4byte	.LVL244
 17072 1be6 3A070000 		.4byte	.LVL247
 17073 1bea 0100     		.2byte	0x1
 17074 1bec 54       		.byte	0x54
 17075 1bed 58070000 		.4byte	.LVL252
 17076 1bf1 60070000 		.4byte	.LVL253
 17077 1bf5 0100     		.2byte	0x1
 17078 1bf7 54       		.byte	0x54
 17079 1bf8 28080000 		.4byte	.LVL274
 17080 1bfc 2E080000 		.4byte	.LVL275
 17081 1c00 0100     		.2byte	0x1
 17082 1c02 54       		.byte	0x54
 17083 1c03 DE090000 		.4byte	.LVL316
 17084 1c07 120A0000 		.4byte	.LVL321
 17085 1c0b 0100     		.2byte	0x1
 17086 1c0d 54       		.byte	0x54
 17087 1c0e FA0A0000 		.4byte	.LVL351
 17088 1c12 FC0A0000 		.4byte	.LVL352
 17089 1c16 0100     		.2byte	0x1
 17090 1c18 54       		.byte	0x54
 17091 1c19 FC0A0000 		.4byte	.LVL352
 17092 1c1d 000B0000 		.4byte	.LVL353
 17093 1c21 0300     		.2byte	0x3
 17094 1c23 08       		.byte	0x8
 17095 1c24 80       		.byte	0x80
 17096 1c25 9F       		.byte	0x9f
 17097 1c26 B80B0000 		.4byte	.LVL387
 17098 1c2a C00B0000 		.4byte	.LVL389
 17099 1c2e 0100     		.2byte	0x1
 17100 1c30 54       		.byte	0x54
ARM GAS  /tmp/ccMboyVS.s 			page 301


 17101 1c31 D20B0000 		.4byte	.LVL394
 17102 1c35 DA0B0000 		.4byte	.LVL396
 17103 1c39 0100     		.2byte	0x1
 17104 1c3b 54       		.byte	0x54
 17105 1c3c 4A0C0000 		.4byte	.LVL418
 17106 1c40 520C0000 		.4byte	.LVL420
 17107 1c44 0100     		.2byte	0x1
 17108 1c46 54       		.byte	0x54
 17109 1c47 00000000 		.4byte	0
 17110 1c4b 00000000 		.4byte	0
 17111              	.LLST131:
 17112 1c4f 0A030000 		.4byte	.LVL149
 17113 1c53 22030000 		.4byte	.LVL150
 17114 1c57 0200     		.2byte	0x2
 17115 1c59 30       		.byte	0x30
 17116 1c5a 9F       		.byte	0x9f
 17117 1c5b 22030000 		.4byte	.LVL150
 17118 1c5f 5A030000 		.4byte	.LVL153
 17119 1c63 0100     		.2byte	0x1
 17120 1c65 5A       		.byte	0x5a
 17121 1c66 1C060000 		.4byte	.LVL221
 17122 1c6a 48060000 		.4byte	.LVL224
 17123 1c6e 0100     		.2byte	0x1
 17124 1c70 5A       		.byte	0x5a
 17125 1c71 14070000 		.4byte	.LVL244
 17126 1c75 60070000 		.4byte	.LVL253
 17127 1c79 0100     		.2byte	0x1
 17128 1c7b 5A       		.byte	0x5a
 17129 1c7c 28080000 		.4byte	.LVL274
 17130 1c80 2E080000 		.4byte	.LVL275
 17131 1c84 0100     		.2byte	0x1
 17132 1c86 5A       		.byte	0x5a
 17133 1c87 DE090000 		.4byte	.LVL316
 17134 1c8b 2A0A0000 		.4byte	.LVL325
 17135 1c8f 0100     		.2byte	0x1
 17136 1c91 5A       		.byte	0x5a
 17137 1c92 FA0A0000 		.4byte	.LVL351
 17138 1c96 000B0000 		.4byte	.LVL353
 17139 1c9a 0100     		.2byte	0x1
 17140 1c9c 5A       		.byte	0x5a
 17141 1c9d B80B0000 		.4byte	.LVL387
 17142 1ca1 080C0000 		.4byte	.LVL404
 17143 1ca5 0100     		.2byte	0x1
 17144 1ca7 5A       		.byte	0x5a
 17145 1ca8 4A0C0000 		.4byte	.LVL418
 17146 1cac 840C0000 		.4byte	.LVL430
 17147 1cb0 0100     		.2byte	0x1
 17148 1cb2 5A       		.byte	0x5a
 17149 1cb3 FE100000 		.4byte	.LVL590
 17150 1cb7 08110000 		.4byte	.LVL591
 17151 1cbb 0100     		.2byte	0x1
 17152 1cbd 5A       		.byte	0x5a
 17153 1cbe 12110000 		.4byte	.LVL592
 17154 1cc2 1C110000 		.4byte	.LVL593
 17155 1cc6 0100     		.2byte	0x1
 17156 1cc8 5A       		.byte	0x5a
 17157 1cc9 8C110000 		.4byte	.LVL614
ARM GAS  /tmp/ccMboyVS.s 			page 302


 17158 1ccd 96110000 		.4byte	.LVL615
 17159 1cd1 0100     		.2byte	0x1
 17160 1cd3 5A       		.byte	0x5a
 17161 1cd4 00000000 		.4byte	0
 17162 1cd8 00000000 		.4byte	0
 17163              	.LLST132:
 17164 1cdc 34030000 		.4byte	.LVL151
 17165 1ce0 5A030000 		.4byte	.LVL153
 17166 1ce4 0100     		.2byte	0x1
 17167 1ce6 5B       		.byte	0x5b
 17168 1ce7 1C060000 		.4byte	.LVL221
 17169 1ceb 48060000 		.4byte	.LVL224
 17170 1cef 0100     		.2byte	0x1
 17171 1cf1 5B       		.byte	0x5b
 17172 1cf2 14070000 		.4byte	.LVL244
 17173 1cf6 4A070000 		.4byte	.LVL251
 17174 1cfa 0100     		.2byte	0x1
 17175 1cfc 5B       		.byte	0x5b
 17176 1cfd 28080000 		.4byte	.LVL274
 17177 1d01 2E080000 		.4byte	.LVL275
 17178 1d05 0100     		.2byte	0x1
 17179 1d07 5B       		.byte	0x5b
 17180 1d08 DE090000 		.4byte	.LVL316
 17181 1d0c 240A0000 		.4byte	.LVL324
 17182 1d10 0100     		.2byte	0x1
 17183 1d12 5B       		.byte	0x5b
 17184 1d13 FA0A0000 		.4byte	.LVL351
 17185 1d17 000B0000 		.4byte	.LVL353
 17186 1d1b 0100     		.2byte	0x1
 17187 1d1d 5B       		.byte	0x5b
 17188 1d1e B80B0000 		.4byte	.LVL387
 17189 1d22 D00B0000 		.4byte	.LVL393
 17190 1d26 0100     		.2byte	0x1
 17191 1d28 5B       		.byte	0x5b
 17192 1d29 D20B0000 		.4byte	.LVL394
 17193 1d2d 020C0000 		.4byte	.LVL403
 17194 1d31 0100     		.2byte	0x1
 17195 1d33 5B       		.byte	0x5b
 17196 1d34 4A0C0000 		.4byte	.LVL418
 17197 1d38 7E0C0000 		.4byte	.LVL429
 17198 1d3c 0100     		.2byte	0x1
 17199 1d3e 5B       		.byte	0x5b
 17200 1d3f FE100000 		.4byte	.LVL590
 17201 1d43 08110000 		.4byte	.LVL591
 17202 1d47 0100     		.2byte	0x1
 17203 1d49 5B       		.byte	0x5b
 17204 1d4a 12110000 		.4byte	.LVL592
 17205 1d4e 1C110000 		.4byte	.LVL593
 17206 1d52 0100     		.2byte	0x1
 17207 1d54 5B       		.byte	0x5b
 17208 1d55 8C110000 		.4byte	.LVL614
 17209 1d59 96110000 		.4byte	.LVL615
 17210 1d5d 0100     		.2byte	0x1
 17211 1d5f 5B       		.byte	0x5b
 17212 1d60 00000000 		.4byte	0
 17213 1d64 00000000 		.4byte	0
 17214              	.LLST133:
ARM GAS  /tmp/ccMboyVS.s 			page 303


 17215 1d68 34030000 		.4byte	.LVL151
 17216 1d6c 58030000 		.4byte	.LVL152
 17217 1d70 0100     		.2byte	0x1
 17218 1d72 54       		.byte	0x54
 17219 1d73 1C060000 		.4byte	.LVL221
 17220 1d77 46060000 		.4byte	.LVL223
 17221 1d7b 0100     		.2byte	0x1
 17222 1d7d 54       		.byte	0x54
 17223 1d7e 14070000 		.4byte	.LVL244
 17224 1d82 3A070000 		.4byte	.LVL247
 17225 1d86 0100     		.2byte	0x1
 17226 1d88 54       		.byte	0x54
 17227 1d89 28080000 		.4byte	.LVL274
 17228 1d8d 2E080000 		.4byte	.LVL275
 17229 1d91 0100     		.2byte	0x1
 17230 1d93 54       		.byte	0x54
 17231 1d94 DE090000 		.4byte	.LVL316
 17232 1d98 120A0000 		.4byte	.LVL321
 17233 1d9c 0100     		.2byte	0x1
 17234 1d9e 54       		.byte	0x54
 17235 1d9f FA0A0000 		.4byte	.LVL351
 17236 1da3 FC0A0000 		.4byte	.LVL352
 17237 1da7 0100     		.2byte	0x1
 17238 1da9 54       		.byte	0x54
 17239 1daa B80B0000 		.4byte	.LVL387
 17240 1dae C00B0000 		.4byte	.LVL389
 17241 1db2 0100     		.2byte	0x1
 17242 1db4 54       		.byte	0x54
 17243 1db5 D20B0000 		.4byte	.LVL394
 17244 1db9 DA0B0000 		.4byte	.LVL396
 17245 1dbd 0100     		.2byte	0x1
 17246 1dbf 54       		.byte	0x54
 17247 1dc0 4A0C0000 		.4byte	.LVL418
 17248 1dc4 520C0000 		.4byte	.LVL420
 17249 1dc8 0100     		.2byte	0x1
 17250 1dca 54       		.byte	0x54
 17251 1dcb 00000000 		.4byte	0
 17252 1dcf 00000000 		.4byte	0
 17253              	.LLST134:
 17254 1dd3 14070000 		.4byte	.LVL244
 17255 1dd7 1A070000 		.4byte	.LVL245
 17256 1ddb 1600     		.2byte	0x16
 17257 1ddd 73       		.byte	0x73
 17258 1dde 00       		.sleb128 0
 17259 1ddf 12       		.byte	0x12
 17260 1de0 40       		.byte	0x40
 17261 1de1 4B       		.byte	0x4b
 17262 1de2 24       		.byte	0x24
 17263 1de3 22       		.byte	0x22
 17264 1de4 72       		.byte	0x72
 17265 1de5 00       		.sleb128 0
 17266 1de6 16       		.byte	0x16
 17267 1de7 14       		.byte	0x14
 17268 1de8 40       		.byte	0x40
 17269 1de9 4B       		.byte	0x4b
 17270 1dea 24       		.byte	0x24
 17271 1deb 22       		.byte	0x22
ARM GAS  /tmp/ccMboyVS.s 			page 304


 17272 1dec 2B       		.byte	0x2b
 17273 1ded 28       		.byte	0x28
 17274 1dee 0100     		.2byte	0x1
 17275 1df0 16       		.byte	0x16
 17276 1df1 13       		.byte	0x13
 17277 1df2 9F       		.byte	0x9f
 17278 1df3 00000000 		.4byte	0
 17279 1df7 00000000 		.4byte	0
 17280              	.LLST135:
 17281 1dfb FE090000 		.4byte	.LVL318
 17282 1dff 020A0000 		.4byte	.LVL319
 17283 1e03 0800     		.2byte	0x8
 17284 1e05 F5       		.byte	0xf5
 17285 1e06 50       		.uleb128 0x50
 17286 1e07 25       		.uleb128 0x25
 17287 1e08 F5       		.byte	0xf5
 17288 1e09 40       		.uleb128 0x40
 17289 1e0a 25       		.uleb128 0x25
 17290 1e0b 1E       		.byte	0x1e
 17291 1e0c 9F       		.byte	0x9f
 17292 1e0d 020A0000 		.4byte	.LVL319
 17293 1e11 0D0A0000 		.4byte	.LVL320-1
 17294 1e15 0200     		.2byte	0x2
 17295 1e17 90       		.byte	0x90
 17296 1e18 4F       		.uleb128 0x4f
 17297 1e19 00000000 		.4byte	0
 17298 1e1d 00000000 		.4byte	0
 17299              	.LLST136:
 17300 1e21 FE090000 		.4byte	.LVL318
 17301 1e25 0D0A0000 		.4byte	.LVL320-1
 17302 1e29 0C00     		.2byte	0xc
 17303 1e2b F5       		.byte	0xf5
 17304 1e2c 50       		.uleb128 0x50
 17305 1e2d 25       		.uleb128 0x25
 17306 1e2e F5       		.byte	0xf5
 17307 1e2f 40       		.uleb128 0x40
 17308 1e30 25       		.uleb128 0x25
 17309 1e31 1E       		.byte	0x1e
 17310 1e32 F9       		.byte	0xf9
 17311 1e33 2C       		.uleb128 0x2c
 17312 1e34 F7       		.byte	0xf7
 17313 1e35 00       		.uleb128 0
 17314 1e36 9F       		.byte	0x9f
 17315 1e37 00000000 		.4byte	0
 17316 1e3b 00000000 		.4byte	0
 17317              	.LLST137:
 17318 1e3f 120A0000 		.4byte	.LVL321
 17319 1e43 2A0A0000 		.4byte	.LVL325
 17320 1e47 0100     		.2byte	0x1
 17321 1e49 50       		.byte	0x50
 17322 1e4a 8C110000 		.4byte	.LVL614
 17323 1e4e 96110000 		.4byte	.LVL615
 17324 1e52 0100     		.2byte	0x1
 17325 1e54 50       		.byte	0x50
 17326 1e55 00000000 		.4byte	0
 17327 1e59 00000000 		.4byte	0
 17328              	.LLST138:
ARM GAS  /tmp/ccMboyVS.s 			page 305


 17329 1e5d 1E0A0000 		.4byte	.LVL323
 17330 1e61 240A0000 		.4byte	.LVL324
 17331 1e65 0400     		.2byte	0x4
 17332 1e67 40       		.byte	0x40
 17333 1e68 4A       		.byte	0x4a
 17334 1e69 24       		.byte	0x24
 17335 1e6a 9F       		.byte	0x9f
 17336 1e6b 00000000 		.4byte	0
 17337 1e6f 00000000 		.4byte	0
 17338              	.LLST139:
 17339 1e73 1E0A0000 		.4byte	.LVL323
 17340 1e77 240A0000 		.4byte	.LVL324
 17341 1e7b 0100     		.2byte	0x1
 17342 1e7d 50       		.byte	0x50
 17343 1e7e 00000000 		.4byte	0
 17344 1e82 00000000 		.4byte	0
 17345              	.LLST140:
 17346 1e86 120A0000 		.4byte	.LVL321
 17347 1e8a 160A0000 		.4byte	.LVL322
 17348 1e8e 0100     		.2byte	0x1
 17349 1e90 50       		.byte	0x50
 17350 1e91 00000000 		.4byte	0
 17351 1e95 00000000 		.4byte	0
 17352              	.LLST141:
 17353 1e99 E00B0000 		.4byte	.LVL397
 17354 1e9d E80B0000 		.4byte	.LVL398
 17355 1ea1 0600     		.2byte	0x6
 17356 1ea3 74       		.byte	0x74
 17357 1ea4 00       		.sleb128 0
 17358 1ea5 70       		.byte	0x70
 17359 1ea6 00       		.sleb128 0
 17360 1ea7 1E       		.byte	0x1e
 17361 1ea8 9F       		.byte	0x9f
 17362 1ea9 E80B0000 		.4byte	.LVL398
 17363 1ead EB0B0000 		.4byte	.LVL399-1
 17364 1eb1 0100     		.2byte	0x1
 17365 1eb3 50       		.byte	0x50
 17366 1eb4 00000000 		.4byte	0
 17367 1eb8 00000000 		.4byte	0
 17368              	.LLST142:
 17369 1ebc F00B0000 		.4byte	.LVL400
 17370 1ec0 080C0000 		.4byte	.LVL404
 17371 1ec4 0100     		.2byte	0x1
 17372 1ec6 50       		.byte	0x50
 17373 1ec7 FE100000 		.4byte	.LVL590
 17374 1ecb 08110000 		.4byte	.LVL591
 17375 1ecf 0100     		.2byte	0x1
 17376 1ed1 50       		.byte	0x50
 17377 1ed2 00000000 		.4byte	0
 17378 1ed6 00000000 		.4byte	0
 17379              	.LLST143:
 17380 1eda FC0B0000 		.4byte	.LVL402
 17381 1ede 020C0000 		.4byte	.LVL403
 17382 1ee2 0400     		.2byte	0x4
 17383 1ee4 48       		.byte	0x48
 17384 1ee5 49       		.byte	0x49
 17385 1ee6 24       		.byte	0x24
ARM GAS  /tmp/ccMboyVS.s 			page 306


 17386 1ee7 9F       		.byte	0x9f
 17387 1ee8 00000000 		.4byte	0
 17388 1eec 00000000 		.4byte	0
 17389              	.LLST144:
 17390 1ef0 FC0B0000 		.4byte	.LVL402
 17391 1ef4 020C0000 		.4byte	.LVL403
 17392 1ef8 0100     		.2byte	0x1
 17393 1efa 50       		.byte	0x50
 17394 1efb 00000000 		.4byte	0
 17395 1eff 00000000 		.4byte	0
 17396              	.LLST145:
 17397 1f03 F00B0000 		.4byte	.LVL400
 17398 1f07 F40B0000 		.4byte	.LVL401
 17399 1f0b 0100     		.2byte	0x1
 17400 1f0d 50       		.byte	0x50
 17401 1f0e 00000000 		.4byte	0
 17402 1f12 00000000 		.4byte	0
 17403              	.LLST146:
 17404 1f16 34030000 		.4byte	.LVL151
 17405 1f1a 58030000 		.4byte	.LVL152
 17406 1f1e 0100     		.2byte	0x1
 17407 1f20 54       		.byte	0x54
 17408 1f21 00000000 		.4byte	0
 17409 1f25 00000000 		.4byte	0
 17410              	.LLST147:
 17411 1f29 1C060000 		.4byte	.LVL221
 17412 1f2d 48060000 		.4byte	.LVL224
 17413 1f31 0100     		.2byte	0x1
 17414 1f33 5B       		.byte	0x5b
 17415 1f34 28080000 		.4byte	.LVL274
 17416 1f38 2E080000 		.4byte	.LVL275
 17417 1f3c 0100     		.2byte	0x1
 17418 1f3e 5B       		.byte	0x5b
 17419 1f3f 00000000 		.4byte	0
 17420 1f43 00000000 		.4byte	0
 17421              	.LLST148:
 17422 1f47 1C060000 		.4byte	.LVL221
 17423 1f4b 28060000 		.4byte	.LVL222
 17424 1f4f 0100     		.2byte	0x1
 17425 1f51 5B       		.byte	0x5b
 17426 1f52 28080000 		.4byte	.LVL274
 17427 1f56 2E080000 		.4byte	.LVL275
 17428 1f5a 0100     		.2byte	0x1
 17429 1f5c 5B       		.byte	0x5b
 17430 1f5d 00000000 		.4byte	0
 17431 1f61 00000000 		.4byte	0
 17432              	.LLST149:
 17433 1f65 40070000 		.4byte	.LVL248
 17434 1f69 44070000 		.4byte	.LVL249
 17435 1f6d 0600     		.2byte	0x6
 17436 1f6f 74       		.byte	0x74
 17437 1f70 00       		.sleb128 0
 17438 1f71 70       		.byte	0x70
 17439 1f72 00       		.sleb128 0
 17440 1f73 1E       		.byte	0x1e
 17441 1f74 9F       		.byte	0x9f
 17442 1f75 44070000 		.4byte	.LVL249
ARM GAS  /tmp/ccMboyVS.s 			page 307


 17443 1f79 46070000 		.4byte	.LVL250
 17444 1f7d 0100     		.2byte	0x1
 17445 1f7f 54       		.byte	0x54
 17446 1f80 00000000 		.4byte	0
 17447 1f84 00000000 		.4byte	0
 17448              	.LLST150:
 17449 1f88 C60B0000 		.4byte	.LVL390
 17450 1f8c CA0B0000 		.4byte	.LVL391
 17451 1f90 0600     		.2byte	0x6
 17452 1f92 74       		.byte	0x74
 17453 1f93 00       		.sleb128 0
 17454 1f94 70       		.byte	0x70
 17455 1f95 00       		.sleb128 0
 17456 1f96 1E       		.byte	0x1e
 17457 1f97 9F       		.byte	0x9f
 17458 1f98 CA0B0000 		.4byte	.LVL391
 17459 1f9c CC0B0000 		.4byte	.LVL392
 17460 1fa0 0100     		.2byte	0x1
 17461 1fa2 54       		.byte	0x54
 17462 1fa3 00000000 		.4byte	0
 17463 1fa7 00000000 		.4byte	0
 17464              	.LLST151:
 17465 1fab 580C0000 		.4byte	.LVL421
 17466 1faf 600C0000 		.4byte	.LVL422
 17467 1fb3 0600     		.2byte	0x6
 17468 1fb5 74       		.byte	0x74
 17469 1fb6 00       		.sleb128 0
 17470 1fb7 70       		.byte	0x70
 17471 1fb8 00       		.sleb128 0
 17472 1fb9 1E       		.byte	0x1e
 17473 1fba 9F       		.byte	0x9f
 17474 1fbb 600C0000 		.4byte	.LVL422
 17475 1fbf 630C0000 		.4byte	.LVL423-1
 17476 1fc3 0100     		.2byte	0x1
 17477 1fc5 50       		.byte	0x50
 17478 1fc6 00000000 		.4byte	0
 17479 1fca 00000000 		.4byte	0
 17480              	.LLST152:
 17481 1fce 660C0000 		.4byte	.LVL424
 17482 1fd2 680C0000 		.4byte	.LVL425
 17483 1fd6 0100     		.2byte	0x1
 17484 1fd8 50       		.byte	0x50
 17485 1fd9 680C0000 		.4byte	.LVL425
 17486 1fdd 760C0000 		.4byte	.LVL428
 17487 1fe1 0100     		.2byte	0x1
 17488 1fe3 54       		.byte	0x54
 17489 1fe4 12110000 		.4byte	.LVL592
 17490 1fe8 1C110000 		.4byte	.LVL593
 17491 1fec 0100     		.2byte	0x1
 17492 1fee 54       		.byte	0x54
 17493 1fef 00000000 		.4byte	0
 17494 1ff3 00000000 		.4byte	0
 17495              	.LLST153:
 17496 1ff7 660C0000 		.4byte	.LVL424
 17497 1ffb 680C0000 		.4byte	.LVL425
 17498 1fff 0100     		.2byte	0x1
 17499 2001 50       		.byte	0x50
ARM GAS  /tmp/ccMboyVS.s 			page 308


 17500 2002 680C0000 		.4byte	.LVL425
 17501 2006 6C0C0000 		.4byte	.LVL426
 17502 200a 0100     		.2byte	0x1
 17503 200c 54       		.byte	0x54
 17504 200d 00000000 		.4byte	0
 17505 2011 00000000 		.4byte	0
 17506              	.LLST154:
 17507 2015 740C0000 		.4byte	.LVL427
 17508 2019 7E0C0000 		.4byte	.LVL429
 17509 201d 0400     		.2byte	0x4
 17510 201f 40       		.byte	0x40
 17511 2020 49       		.byte	0x49
 17512 2021 24       		.byte	0x24
 17513 2022 9F       		.byte	0x9f
 17514 2023 00000000 		.4byte	0
 17515 2027 00000000 		.4byte	0
 17516              	.LLST155:
 17517 202b 740C0000 		.4byte	.LVL427
 17518 202f 760C0000 		.4byte	.LVL428
 17519 2033 0100     		.2byte	0x1
 17520 2035 54       		.byte	0x54
 17521 2036 00000000 		.4byte	0
 17522 203a 00000000 		.4byte	0
 17523              	.LLST205:
 17524 203e 4A040000 		.4byte	.LVL172
 17525 2042 94040000 		.4byte	.LVL175
 17526 2046 0100     		.2byte	0x1
 17527 2048 54       		.byte	0x54
 17528 2049 AA070000 		.4byte	.LVL262
 17529 204d D2070000 		.4byte	.LVL264
 17530 2051 0100     		.2byte	0x1
 17531 2053 54       		.byte	0x54
 17532 2054 34080000 		.4byte	.LVL276
 17533 2058 60080000 		.4byte	.LVL279
 17534 205c 0100     		.2byte	0x1
 17535 205e 54       		.byte	0x54
 17536 205f 7E080000 		.4byte	.LVL284
 17537 2063 86080000 		.4byte	.LVL285
 17538 2067 0100     		.2byte	0x1
 17539 2069 54       		.byte	0x54
 17540 206a 7C0A0000 		.4byte	.LVL335
 17541 206e D60A0000 		.4byte	.LVL343
 17542 2072 0100     		.2byte	0x1
 17543 2074 54       		.byte	0x54
 17544 2075 02100000 		.4byte	.LVL542
 17545 2079 04100000 		.4byte	.LVL543
 17546 207d 0100     		.2byte	0x1
 17547 207f 54       		.byte	0x54
 17548 2080 04100000 		.4byte	.LVL543
 17549 2084 08100000 		.4byte	.LVL544
 17550 2088 0300     		.2byte	0x3
 17551 208a 08       		.byte	0x8
 17552 208b 80       		.byte	0x80
 17553 208c 9F       		.byte	0x9f
 17554 208d 1C110000 		.4byte	.LVL593
 17555 2091 30110000 		.4byte	.LVL596
 17556 2095 0100     		.2byte	0x1
ARM GAS  /tmp/ccMboyVS.s 			page 309


 17557 2097 54       		.byte	0x54
 17558 2098 64110000 		.4byte	.LVL606
 17559 209c 78110000 		.4byte	.LVL609
 17560 20a0 0100     		.2byte	0x1
 17561 20a2 54       		.byte	0x54
 17562 20a3 96110000 		.4byte	.LVL615
 17563 20a7 AA110000 		.4byte	.LVL618
 17564 20ab 0100     		.2byte	0x1
 17565 20ad 54       		.byte	0x54
 17566 20ae 00000000 		.4byte	0
 17567 20b2 00000000 		.4byte	0
 17568              	.LLST206:
 17569 20b6 4A040000 		.4byte	.LVL172
 17570 20ba 5E040000 		.4byte	.LVL173
 17571 20be 0200     		.2byte	0x2
 17572 20c0 31       		.byte	0x31
 17573 20c1 9F       		.byte	0x9f
 17574 20c2 5E040000 		.4byte	.LVL173
 17575 20c6 96040000 		.4byte	.LVL176
 17576 20ca 0100     		.2byte	0x1
 17577 20cc 5A       		.byte	0x5a
 17578 20cd AA070000 		.4byte	.LVL262
 17579 20d1 D4070000 		.4byte	.LVL265
 17580 20d5 0100     		.2byte	0x1
 17581 20d7 5A       		.byte	0x5a
 17582 20d8 34080000 		.4byte	.LVL276
 17583 20dc 86080000 		.4byte	.LVL285
 17584 20e0 0100     		.2byte	0x1
 17585 20e2 5A       		.byte	0x5a
 17586 20e3 7C0A0000 		.4byte	.LVL335
 17587 20e7 EE0A0000 		.4byte	.LVL347
 17588 20eb 0100     		.2byte	0x1
 17589 20ed 5A       		.byte	0x5a
 17590 20ee 000B0000 		.4byte	.LVL353
 17591 20f2 060B0000 		.4byte	.LVL354
 17592 20f6 0100     		.2byte	0x1
 17593 20f8 5A       		.byte	0x5a
 17594 20f9 02100000 		.4byte	.LVL542
 17595 20fd 08100000 		.4byte	.LVL544
 17596 2101 0100     		.2byte	0x1
 17597 2103 5A       		.byte	0x5a
 17598 2104 1C110000 		.4byte	.LVL593
 17599 2108 8C110000 		.4byte	.LVL614
 17600 210c 0100     		.2byte	0x1
 17601 210e 5A       		.byte	0x5a
 17602 210f 96110000 		.4byte	.LVL615
 17603 2113 DA110000 		.4byte	.LVL626
 17604 2117 0100     		.2byte	0x1
 17605 2119 5A       		.byte	0x5a
 17606 211a 5C130000 		.4byte	.LVL674
 17607 211e 70130000 		.4byte	.LVL676
 17608 2122 0100     		.2byte	0x1
 17609 2124 5A       		.byte	0x5a
 17610 2125 42150000 		.4byte	.LVL726
 17611 2129 4E150000 		.4byte	.LVL727
 17612 212d 0100     		.2byte	0x1
 17613 212f 5A       		.byte	0x5a
ARM GAS  /tmp/ccMboyVS.s 			page 310


 17614 2130 00000000 		.4byte	0
 17615 2134 00000000 		.4byte	0
 17616              	.LLST207:
 17617 2138 70040000 		.4byte	.LVL174
 17618 213c 96040000 		.4byte	.LVL176
 17619 2140 0100     		.2byte	0x1
 17620 2142 57       		.byte	0x57
 17621 2143 AA070000 		.4byte	.LVL262
 17622 2147 D4070000 		.4byte	.LVL265
 17623 214b 0100     		.2byte	0x1
 17624 214d 57       		.byte	0x57
 17625 214e 34080000 		.4byte	.LVL276
 17626 2152 70080000 		.4byte	.LVL283
 17627 2156 0100     		.2byte	0x1
 17628 2158 57       		.byte	0x57
 17629 2159 7C0A0000 		.4byte	.LVL335
 17630 215d E80A0000 		.4byte	.LVL346
 17631 2161 0100     		.2byte	0x1
 17632 2163 57       		.byte	0x57
 17633 2164 02100000 		.4byte	.LVL542
 17634 2168 08100000 		.4byte	.LVL544
 17635 216c 0100     		.2byte	0x1
 17636 216e 57       		.byte	0x57
 17637 216f 1C110000 		.4byte	.LVL593
 17638 2173 5C110000 		.4byte	.LVL605
 17639 2177 0100     		.2byte	0x1
 17640 2179 57       		.byte	0x57
 17641 217a 64110000 		.4byte	.LVL606
 17642 217e 88110000 		.4byte	.LVL613
 17643 2182 0100     		.2byte	0x1
 17644 2184 57       		.byte	0x57
 17645 2185 96110000 		.4byte	.LVL615
 17646 2189 D2110000 		.4byte	.LVL625
 17647 218d 0100     		.2byte	0x1
 17648 218f 57       		.byte	0x57
 17649 2190 5C130000 		.4byte	.LVL674
 17650 2194 70130000 		.4byte	.LVL676
 17651 2198 0100     		.2byte	0x1
 17652 219a 57       		.byte	0x57
 17653 219b 42150000 		.4byte	.LVL726
 17654 219f 4E150000 		.4byte	.LVL727
 17655 21a3 0100     		.2byte	0x1
 17656 21a5 57       		.byte	0x57
 17657 21a6 00000000 		.4byte	0
 17658 21aa 00000000 		.4byte	0
 17659              	.LLST208:
 17660 21ae 70040000 		.4byte	.LVL174
 17661 21b2 94040000 		.4byte	.LVL175
 17662 21b6 0100     		.2byte	0x1
 17663 21b8 54       		.byte	0x54
 17664 21b9 AA070000 		.4byte	.LVL262
 17665 21bd D2070000 		.4byte	.LVL264
 17666 21c1 0100     		.2byte	0x1
 17667 21c3 54       		.byte	0x54
 17668 21c4 34080000 		.4byte	.LVL276
 17669 21c8 60080000 		.4byte	.LVL279
 17670 21cc 0100     		.2byte	0x1
ARM GAS  /tmp/ccMboyVS.s 			page 311


 17671 21ce 54       		.byte	0x54
 17672 21cf 7C0A0000 		.4byte	.LVL335
 17673 21d3 D60A0000 		.4byte	.LVL343
 17674 21d7 0100     		.2byte	0x1
 17675 21d9 54       		.byte	0x54
 17676 21da 02100000 		.4byte	.LVL542
 17677 21de 04100000 		.4byte	.LVL543
 17678 21e2 0100     		.2byte	0x1
 17679 21e4 54       		.byte	0x54
 17680 21e5 1C110000 		.4byte	.LVL593
 17681 21e9 30110000 		.4byte	.LVL596
 17682 21ed 0100     		.2byte	0x1
 17683 21ef 54       		.byte	0x54
 17684 21f0 64110000 		.4byte	.LVL606
 17685 21f4 78110000 		.4byte	.LVL609
 17686 21f8 0100     		.2byte	0x1
 17687 21fa 54       		.byte	0x54
 17688 21fb 96110000 		.4byte	.LVL615
 17689 21ff AA110000 		.4byte	.LVL618
 17690 2203 0100     		.2byte	0x1
 17691 2205 54       		.byte	0x54
 17692 2206 00000000 		.4byte	0
 17693 220a 00000000 		.4byte	0
 17694              	.LLST209:
 17695 220e 34080000 		.4byte	.LVL276
 17696 2212 3A080000 		.4byte	.LVL277
 17697 2216 1600     		.2byte	0x16
 17698 2218 73       		.byte	0x73
 17699 2219 00       		.sleb128 0
 17700 221a 12       		.byte	0x12
 17701 221b 40       		.byte	0x40
 17702 221c 4B       		.byte	0x4b
 17703 221d 24       		.byte	0x24
 17704 221e 22       		.byte	0x22
 17705 221f 72       		.byte	0x72
 17706 2220 00       		.sleb128 0
 17707 2221 16       		.byte	0x16
 17708 2222 14       		.byte	0x14
 17709 2223 40       		.byte	0x40
 17710 2224 4B       		.byte	0x4b
 17711 2225 24       		.byte	0x24
 17712 2226 22       		.byte	0x22
 17713 2227 2B       		.byte	0x2b
 17714 2228 28       		.byte	0x28
 17715 2229 0100     		.2byte	0x1
 17716 222b 16       		.byte	0x16
 17717 222c 13       		.byte	0x13
 17718 222d 9F       		.byte	0x9f
 17719 222e 00000000 		.4byte	0
 17720 2232 00000000 		.4byte	0
 17721              	.LLST210:
 17722 2236 C20A0000 		.4byte	.LVL340
 17723 223a C60A0000 		.4byte	.LVL341
 17724 223e 0800     		.2byte	0x8
 17725 2240 F5       		.byte	0xf5
 17726 2241 50       		.uleb128 0x50
 17727 2242 25       		.uleb128 0x25
ARM GAS  /tmp/ccMboyVS.s 			page 312


 17728 2243 F5       		.byte	0xf5
 17729 2244 40       		.uleb128 0x40
 17730 2245 25       		.uleb128 0x25
 17731 2246 1B       		.byte	0x1b
 17732 2247 9F       		.byte	0x9f
 17733 2248 C60A0000 		.4byte	.LVL341
 17734 224c D10A0000 		.4byte	.LVL342-1
 17735 2250 0200     		.2byte	0x2
 17736 2252 90       		.byte	0x90
 17737 2253 4F       		.uleb128 0x4f
 17738 2254 00000000 		.4byte	0
 17739 2258 00000000 		.4byte	0
 17740              	.LLST211:
 17741 225c C20A0000 		.4byte	.LVL340
 17742 2260 D10A0000 		.4byte	.LVL342-1
 17743 2264 0C00     		.2byte	0xc
 17744 2266 F5       		.byte	0xf5
 17745 2267 50       		.uleb128 0x50
 17746 2268 25       		.uleb128 0x25
 17747 2269 F5       		.byte	0xf5
 17748 226a 40       		.uleb128 0x40
 17749 226b 25       		.uleb128 0x25
 17750 226c 1B       		.byte	0x1b
 17751 226d F9       		.byte	0xf9
 17752 226e 2C       		.uleb128 0x2c
 17753 226f F7       		.byte	0xf7
 17754 2270 00       		.uleb128 0
 17755 2271 9F       		.byte	0x9f
 17756 2272 00000000 		.4byte	0
 17757 2276 00000000 		.4byte	0
 17758              	.LLST212:
 17759 227a D60A0000 		.4byte	.LVL343
 17760 227e EE0A0000 		.4byte	.LVL347
 17761 2282 0100     		.2byte	0x1
 17762 2284 50       		.byte	0x50
 17763 2285 42150000 		.4byte	.LVL726
 17764 2289 4E150000 		.4byte	.LVL727
 17765 228d 0100     		.2byte	0x1
 17766 228f 50       		.byte	0x50
 17767 2290 00000000 		.4byte	0
 17768 2294 00000000 		.4byte	0
 17769              	.LLST213:
 17770 2298 E20A0000 		.4byte	.LVL345
 17771 229c E80A0000 		.4byte	.LVL346
 17772 22a0 0400     		.2byte	0x4
 17773 22a2 40       		.byte	0x40
 17774 22a3 4A       		.byte	0x4a
 17775 22a4 24       		.byte	0x24
 17776 22a5 9F       		.byte	0x9f
 17777 22a6 00000000 		.4byte	0
 17778 22aa 00000000 		.4byte	0
 17779              	.LLST214:
 17780 22ae E20A0000 		.4byte	.LVL345
 17781 22b2 E80A0000 		.4byte	.LVL346
 17782 22b6 0100     		.2byte	0x1
 17783 22b8 50       		.byte	0x50
 17784 22b9 00000000 		.4byte	0
ARM GAS  /tmp/ccMboyVS.s 			page 313


 17785 22bd 00000000 		.4byte	0
 17786              	.LLST215:
 17787 22c1 D60A0000 		.4byte	.LVL343
 17788 22c5 DA0A0000 		.4byte	.LVL344
 17789 22c9 0100     		.2byte	0x1
 17790 22cb 50       		.byte	0x50
 17791 22cc 00000000 		.4byte	0
 17792 22d0 00000000 		.4byte	0
 17793              	.LLST216:
 17794 22d4 B0110000 		.4byte	.LVL619
 17795 22d8 B8110000 		.4byte	.LVL620
 17796 22dc 0600     		.2byte	0x6
 17797 22de 74       		.byte	0x74
 17798 22df 00       		.sleb128 0
 17799 22e0 70       		.byte	0x70
 17800 22e1 00       		.sleb128 0
 17801 22e2 1B       		.byte	0x1b
 17802 22e3 9F       		.byte	0x9f
 17803 22e4 B8110000 		.4byte	.LVL620
 17804 22e8 BB110000 		.4byte	.LVL621-1
 17805 22ec 0100     		.2byte	0x1
 17806 22ee 50       		.byte	0x50
 17807 22ef 00000000 		.4byte	0
 17808 22f3 00000000 		.4byte	0
 17809              	.LLST217:
 17810 22f7 C0110000 		.4byte	.LVL622
 17811 22fb DA110000 		.4byte	.LVL626
 17812 22ff 0100     		.2byte	0x1
 17813 2301 50       		.byte	0x50
 17814 2302 5C130000 		.4byte	.LVL674
 17815 2306 66130000 		.4byte	.LVL675
 17816 230a 0100     		.2byte	0x1
 17817 230c 50       		.byte	0x50
 17818 230d 00000000 		.4byte	0
 17819 2311 00000000 		.4byte	0
 17820              	.LLST218:
 17821 2315 CC110000 		.4byte	.LVL624
 17822 2319 D2110000 		.4byte	.LVL625
 17823 231d 0400     		.2byte	0x4
 17824 231f 48       		.byte	0x48
 17825 2320 49       		.byte	0x49
 17826 2321 24       		.byte	0x24
 17827 2322 9F       		.byte	0x9f
 17828 2323 00000000 		.4byte	0
 17829 2327 00000000 		.4byte	0
 17830              	.LLST219:
 17831 232b CC110000 		.4byte	.LVL624
 17832 232f D2110000 		.4byte	.LVL625
 17833 2333 0100     		.2byte	0x1
 17834 2335 50       		.byte	0x50
 17835 2336 00000000 		.4byte	0
 17836 233a 00000000 		.4byte	0
 17837              	.LLST220:
 17838 233e C0110000 		.4byte	.LVL622
 17839 2342 C4110000 		.4byte	.LVL623
 17840 2346 0100     		.2byte	0x1
 17841 2348 50       		.byte	0x50
ARM GAS  /tmp/ccMboyVS.s 			page 314


 17842 2349 00000000 		.4byte	0
 17843 234d 00000000 		.4byte	0
 17844              	.LLST221:
 17845 2351 70040000 		.4byte	.LVL174
 17846 2355 94040000 		.4byte	.LVL175
 17847 2359 0100     		.2byte	0x1
 17848 235b 54       		.byte	0x54
 17849 235c 00000000 		.4byte	0
 17850 2360 00000000 		.4byte	0
 17851              	.LLST222:
 17852 2364 AA070000 		.4byte	.LVL262
 17853 2368 D4070000 		.4byte	.LVL265
 17854 236c 0100     		.2byte	0x1
 17855 236e 57       		.byte	0x57
 17856 236f 7C0A0000 		.4byte	.LVL335
 17857 2373 820A0000 		.4byte	.LVL336
 17858 2377 0100     		.2byte	0x1
 17859 2379 57       		.byte	0x57
 17860 237a 00000000 		.4byte	0
 17861 237e 00000000 		.4byte	0
 17862              	.LLST223:
 17863 2382 AA070000 		.4byte	.LVL262
 17864 2386 B4070000 		.4byte	.LVL263
 17865 238a 0100     		.2byte	0x1
 17866 238c 57       		.byte	0x57
 17867 238d 7C0A0000 		.4byte	.LVL335
 17868 2391 820A0000 		.4byte	.LVL336
 17869 2395 0100     		.2byte	0x1
 17870 2397 57       		.byte	0x57
 17871 2398 00000000 		.4byte	0
 17872 239c 00000000 		.4byte	0
 17873              	.LLST224:
 17874 23a0 66080000 		.4byte	.LVL280
 17875 23a4 6A080000 		.4byte	.LVL281
 17876 23a8 0600     		.2byte	0x6
 17877 23aa 74       		.byte	0x74
 17878 23ab 00       		.sleb128 0
 17879 23ac 70       		.byte	0x70
 17880 23ad 00       		.sleb128 0
 17881 23ae 1B       		.byte	0x1b
 17882 23af 9F       		.byte	0x9f
 17883 23b0 6A080000 		.4byte	.LVL281
 17884 23b4 6C080000 		.4byte	.LVL282
 17885 23b8 0100     		.2byte	0x1
 17886 23ba 54       		.byte	0x54
 17887 23bb 00000000 		.4byte	0
 17888 23bf 00000000 		.4byte	0
 17889              	.LLST225:
 17890 23c3 36110000 		.4byte	.LVL597
 17891 23c7 3E110000 		.4byte	.LVL598
 17892 23cb 0C00     		.2byte	0xc
 17893 23cd 74       		.byte	0x74
 17894 23ce 00       		.sleb128 0
 17895 23cf F7       		.byte	0xf7
 17896 23d0 2C       		.uleb128 0x2c
 17897 23d1 70       		.byte	0x70
 17898 23d2 00       		.sleb128 0
ARM GAS  /tmp/ccMboyVS.s 			page 315


 17899 23d3 F7       		.byte	0xf7
 17900 23d4 2C       		.uleb128 0x2c
 17901 23d5 1B       		.byte	0x1b
 17902 23d6 F7       		.byte	0xf7
 17903 23d7 00       		.uleb128 0
 17904 23d8 9F       		.byte	0x9f
 17905 23d9 3E110000 		.4byte	.LVL598
 17906 23dd 41110000 		.4byte	.LVL599-1
 17907 23e1 0100     		.2byte	0x1
 17908 23e3 50       		.byte	0x50
 17909 23e4 00000000 		.4byte	0
 17910 23e8 00000000 		.4byte	0
 17911              	.LLST226:
 17912 23ec 44110000 		.4byte	.LVL600
 17913 23f0 46110000 		.4byte	.LVL601
 17914 23f4 0100     		.2byte	0x1
 17915 23f6 50       		.byte	0x50
 17916 23f7 46110000 		.4byte	.LVL601
 17917 23fb 54110000 		.4byte	.LVL604
 17918 23ff 0100     		.2byte	0x1
 17919 2401 54       		.byte	0x54
 17920 2402 66130000 		.4byte	.LVL675
 17921 2406 70130000 		.4byte	.LVL676
 17922 240a 0100     		.2byte	0x1
 17923 240c 54       		.byte	0x54
 17924 240d 00000000 		.4byte	0
 17925 2411 00000000 		.4byte	0
 17926              	.LLST227:
 17927 2415 44110000 		.4byte	.LVL600
 17928 2419 46110000 		.4byte	.LVL601
 17929 241d 0100     		.2byte	0x1
 17930 241f 50       		.byte	0x50
 17931 2420 46110000 		.4byte	.LVL601
 17932 2424 4A110000 		.4byte	.LVL602
 17933 2428 0100     		.2byte	0x1
 17934 242a 54       		.byte	0x54
 17935 242b 00000000 		.4byte	0
 17936 242f 00000000 		.4byte	0
 17937              	.LLST228:
 17938 2433 52110000 		.4byte	.LVL603
 17939 2437 5C110000 		.4byte	.LVL605
 17940 243b 0400     		.2byte	0x4
 17941 243d 40       		.byte	0x40
 17942 243e 49       		.byte	0x49
 17943 243f 24       		.byte	0x24
 17944 2440 9F       		.byte	0x9f
 17945 2441 00000000 		.4byte	0
 17946 2445 00000000 		.4byte	0
 17947              	.LLST229:
 17948 2449 52110000 		.4byte	.LVL603
 17949 244d 54110000 		.4byte	.LVL604
 17950 2451 0100     		.2byte	0x1
 17951 2453 54       		.byte	0x54
 17952 2454 00000000 		.4byte	0
 17953 2458 00000000 		.4byte	0
 17954              	.LLST230:
 17955 245c 7E110000 		.4byte	.LVL610
ARM GAS  /tmp/ccMboyVS.s 			page 316


 17956 2460 82110000 		.4byte	.LVL611
 17957 2464 0C00     		.2byte	0xc
 17958 2466 74       		.byte	0x74
 17959 2467 00       		.sleb128 0
 17960 2468 F7       		.byte	0xf7
 17961 2469 2C       		.uleb128 0x2c
 17962 246a 70       		.byte	0x70
 17963 246b 00       		.sleb128 0
 17964 246c F7       		.byte	0xf7
 17965 246d 2C       		.uleb128 0x2c
 17966 246e 1B       		.byte	0x1b
 17967 246f F7       		.byte	0xf7
 17968 2470 00       		.uleb128 0
 17969 2471 9F       		.byte	0x9f
 17970 2472 82110000 		.4byte	.LVL611
 17971 2476 84110000 		.4byte	.LVL612
 17972 247a 0100     		.2byte	0x1
 17973 247c 54       		.byte	0x54
 17974 247d 00000000 		.4byte	0
 17975 2481 00000000 		.4byte	0
 17976              	.LLST78:
 17977 2485 70020000 		.4byte	.LVL141
 17978 2489 B8020000 		.4byte	.LVL144
 17979 248d 0100     		.2byte	0x1
 17980 248f 54       		.byte	0x54
 17981 2490 F2050000 		.4byte	.LVL218
 17982 2494 1A060000 		.4byte	.LVL220
 17983 2498 0100     		.2byte	0x1
 17984 249a 54       		.byte	0x54
 17985 249b 74060000 		.4byte	.LVL227
 17986 249f A0060000 		.4byte	.LVL230
 17987 24a3 0100     		.2byte	0x1
 17988 24a5 54       		.byte	0x54
 17989 24a6 C2060000 		.4byte	.LVL234
 17990 24aa CA060000 		.4byte	.LVL235
 17991 24ae 0100     		.2byte	0x1
 17992 24b0 54       		.byte	0x54
 17993 24b1 22080000 		.4byte	.LVL273
 17994 24b5 28080000 		.4byte	.LVL274
 17995 24b9 0100     		.2byte	0x1
 17996 24bb 54       		.byte	0x54
 17997 24bc 1A090000 		.4byte	.LVL296
 17998 24c0 7A090000 		.4byte	.LVL303
 17999 24c4 0100     		.2byte	0x1
 18000 24c6 54       		.byte	0x54
 18001 24c7 EE0A0000 		.4byte	.LVL347
 18002 24cb F00A0000 		.4byte	.LVL348
 18003 24cf 0100     		.2byte	0x1
 18004 24d1 54       		.byte	0x54
 18005 24d2 F00A0000 		.4byte	.LVL348
 18006 24d6 F40A0000 		.4byte	.LVL349
 18007 24da 0300     		.2byte	0x3
 18008 24dc 08       		.byte	0x8
 18009 24dd 80       		.byte	0x80
 18010 24de 9F       		.byte	0x9f
 18011 24df 440B0000 		.4byte	.LVL366
 18012 24e3 560B0000 		.4byte	.LVL369
ARM GAS  /tmp/ccMboyVS.s 			page 317


 18013 24e7 0100     		.2byte	0x1
 18014 24e9 54       		.byte	0x54
 18015 24ea 080C0000 		.4byte	.LVL404
 18016 24ee 1C0C0000 		.4byte	.LVL407
 18017 24f2 0100     		.2byte	0x1
 18018 24f4 54       		.byte	0x54
 18019 24f5 840C0000 		.4byte	.LVL430
 18020 24f9 980C0000 		.4byte	.LVL433
 18021 24fd 0100     		.2byte	0x1
 18022 24ff 54       		.byte	0x54
 18023 2500 00000000 		.4byte	0
 18024 2504 00000000 		.4byte	0
 18025              	.LLST79:
 18026 2508 70020000 		.4byte	.LVL141
 18027 250c 82020000 		.4byte	.LVL142
 18028 2510 0200     		.2byte	0x2
 18029 2512 31       		.byte	0x31
 18030 2513 9F       		.byte	0x9f
 18031 2514 82020000 		.4byte	.LVL142
 18032 2518 BA020000 		.4byte	.LVL145
 18033 251c 0100     		.2byte	0x1
 18034 251e 5A       		.byte	0x5a
 18035 251f F2050000 		.4byte	.LVL218
 18036 2523 1C060000 		.4byte	.LVL221
 18037 2527 0100     		.2byte	0x1
 18038 2529 5A       		.byte	0x5a
 18039 252a 74060000 		.4byte	.LVL227
 18040 252e CA060000 		.4byte	.LVL235
 18041 2532 0100     		.2byte	0x1
 18042 2534 5A       		.byte	0x5a
 18043 2535 22080000 		.4byte	.LVL273
 18044 2539 28080000 		.4byte	.LVL274
 18045 253d 0100     		.2byte	0x1
 18046 253f 5A       		.byte	0x5a
 18047 2540 1A090000 		.4byte	.LVL296
 18048 2544 92090000 		.4byte	.LVL307
 18049 2548 0100     		.2byte	0x1
 18050 254a 5A       		.byte	0x5a
 18051 254b 760A0000 		.4byte	.LVL334
 18052 254f 7C0A0000 		.4byte	.LVL335
 18053 2553 0100     		.2byte	0x1
 18054 2555 5A       		.byte	0x5a
 18055 2556 EE0A0000 		.4byte	.LVL347
 18056 255a F40A0000 		.4byte	.LVL349
 18057 255e 0100     		.2byte	0x1
 18058 2560 5A       		.byte	0x5a
 18059 2561 440B0000 		.4byte	.LVL366
 18060 2565 840B0000 		.4byte	.LVL377
 18061 2569 0100     		.2byte	0x1
 18062 256b 5A       		.byte	0x5a
 18063 256c 080C0000 		.4byte	.LVL404
 18064 2570 320C0000 		.4byte	.LVL411
 18065 2574 0100     		.2byte	0x1
 18066 2576 5A       		.byte	0x5a
 18067 2577 840C0000 		.4byte	.LVL430
 18068 257b CA0C0000 		.4byte	.LVL443
 18069 257f 0100     		.2byte	0x1
ARM GAS  /tmp/ccMboyVS.s 			page 318


 18070 2581 5A       		.byte	0x5a
 18071 2582 0A130000 		.4byte	.LVL662
 18072 2586 22130000 		.4byte	.LVL664
 18073 258a 0100     		.2byte	0x1
 18074 258c 5A       		.byte	0x5a
 18075 258d 36130000 		.4byte	.LVL666
 18076 2591 42130000 		.4byte	.LVL667
 18077 2595 0100     		.2byte	0x1
 18078 2597 5A       		.byte	0x5a
 18079 2598 00000000 		.4byte	0
 18080 259c 00000000 		.4byte	0
 18081              	.LLST80:
 18082 25a0 94020000 		.4byte	.LVL143
 18083 25a4 BA020000 		.4byte	.LVL145
 18084 25a8 0100     		.2byte	0x1
 18085 25aa 57       		.byte	0x57
 18086 25ab F2050000 		.4byte	.LVL218
 18087 25af 1C060000 		.4byte	.LVL221
 18088 25b3 0100     		.2byte	0x1
 18089 25b5 57       		.byte	0x57
 18090 25b6 74060000 		.4byte	.LVL227
 18091 25ba B4060000 		.4byte	.LVL233
 18092 25be 0100     		.2byte	0x1
 18093 25c0 57       		.byte	0x57
 18094 25c1 22080000 		.4byte	.LVL273
 18095 25c5 28080000 		.4byte	.LVL274
 18096 25c9 0100     		.2byte	0x1
 18097 25cb 57       		.byte	0x57
 18098 25cc 1A090000 		.4byte	.LVL296
 18099 25d0 8C090000 		.4byte	.LVL306
 18100 25d4 0100     		.2byte	0x1
 18101 25d6 57       		.byte	0x57
 18102 25d7 EE0A0000 		.4byte	.LVL347
 18103 25db F40A0000 		.4byte	.LVL349
 18104 25df 0100     		.2byte	0x1
 18105 25e1 57       		.byte	0x57
 18106 25e2 440B0000 		.4byte	.LVL366
 18107 25e6 820B0000 		.4byte	.LVL376
 18108 25ea 0100     		.2byte	0x1
 18109 25ec 57       		.byte	0x57
 18110 25ed 080C0000 		.4byte	.LVL404
 18111 25f1 300C0000 		.4byte	.LVL410
 18112 25f5 0100     		.2byte	0x1
 18113 25f7 57       		.byte	0x57
 18114 25f8 840C0000 		.4byte	.LVL430
 18115 25fc C80C0000 		.4byte	.LVL442
 18116 2600 0100     		.2byte	0x1
 18117 2602 57       		.byte	0x57
 18118 2603 0A130000 		.4byte	.LVL662
 18119 2607 22130000 		.4byte	.LVL664
 18120 260b 0100     		.2byte	0x1
 18121 260d 57       		.byte	0x57
 18122 260e 36130000 		.4byte	.LVL666
 18123 2612 42130000 		.4byte	.LVL667
 18124 2616 0100     		.2byte	0x1
 18125 2618 57       		.byte	0x57
 18126 2619 00000000 		.4byte	0
ARM GAS  /tmp/ccMboyVS.s 			page 319


 18127 261d 00000000 		.4byte	0
 18128              	.LLST81:
 18129 2621 94020000 		.4byte	.LVL143
 18130 2625 B8020000 		.4byte	.LVL144
 18131 2629 0100     		.2byte	0x1
 18132 262b 54       		.byte	0x54
 18133 262c F2050000 		.4byte	.LVL218
 18134 2630 1A060000 		.4byte	.LVL220
 18135 2634 0100     		.2byte	0x1
 18136 2636 54       		.byte	0x54
 18137 2637 74060000 		.4byte	.LVL227
 18138 263b A0060000 		.4byte	.LVL230
 18139 263f 0100     		.2byte	0x1
 18140 2641 54       		.byte	0x54
 18141 2642 22080000 		.4byte	.LVL273
 18142 2646 28080000 		.4byte	.LVL274
 18143 264a 0100     		.2byte	0x1
 18144 264c 54       		.byte	0x54
 18145 264d 1A090000 		.4byte	.LVL296
 18146 2651 7A090000 		.4byte	.LVL303
 18147 2655 0100     		.2byte	0x1
 18148 2657 54       		.byte	0x54
 18149 2658 EE0A0000 		.4byte	.LVL347
 18150 265c F00A0000 		.4byte	.LVL348
 18151 2660 0100     		.2byte	0x1
 18152 2662 54       		.byte	0x54
 18153 2663 440B0000 		.4byte	.LVL366
 18154 2667 560B0000 		.4byte	.LVL369
 18155 266b 0100     		.2byte	0x1
 18156 266d 54       		.byte	0x54
 18157 266e 080C0000 		.4byte	.LVL404
 18158 2672 1C0C0000 		.4byte	.LVL407
 18159 2676 0100     		.2byte	0x1
 18160 2678 54       		.byte	0x54
 18161 2679 840C0000 		.4byte	.LVL430
 18162 267d 980C0000 		.4byte	.LVL433
 18163 2681 0100     		.2byte	0x1
 18164 2683 54       		.byte	0x54
 18165 2684 00000000 		.4byte	0
 18166 2688 00000000 		.4byte	0
 18167              	.LLST82:
 18168 268c 74060000 		.4byte	.LVL227
 18169 2690 7A060000 		.4byte	.LVL228
 18170 2694 1600     		.2byte	0x16
 18171 2696 73       		.byte	0x73
 18172 2697 00       		.sleb128 0
 18173 2698 12       		.byte	0x12
 18174 2699 40       		.byte	0x40
 18175 269a 4B       		.byte	0x4b
 18176 269b 24       		.byte	0x24
 18177 269c 22       		.byte	0x22
 18178 269d 72       		.byte	0x72
 18179 269e 00       		.sleb128 0
 18180 269f 16       		.byte	0x16
 18181 26a0 14       		.byte	0x14
 18182 26a1 40       		.byte	0x40
 18183 26a2 4B       		.byte	0x4b
ARM GAS  /tmp/ccMboyVS.s 			page 320


 18184 26a3 24       		.byte	0x24
 18185 26a4 22       		.byte	0x22
 18186 26a5 2B       		.byte	0x2b
 18187 26a6 28       		.byte	0x28
 18188 26a7 0100     		.2byte	0x1
 18189 26a9 16       		.byte	0x16
 18190 26aa 13       		.byte	0x13
 18191 26ab 9F       		.byte	0x9f
 18192 26ac 00000000 		.4byte	0
 18193 26b0 00000000 		.4byte	0
 18194              	.LLST83:
 18195 26b4 6A090000 		.4byte	.LVL301
 18196 26b8 75090000 		.4byte	.LVL302-1
 18197 26bc 0200     		.2byte	0x2
 18198 26be 90       		.byte	0x90
 18199 26bf 40       		.uleb128 0x40
 18200 26c0 00000000 		.4byte	0
 18201 26c4 00000000 		.4byte	0
 18202              	.LLST85:
 18203 26c8 7A090000 		.4byte	.LVL303
 18204 26cc 8C090000 		.4byte	.LVL306
 18205 26d0 0100     		.2byte	0x1
 18206 26d2 50       		.byte	0x50
 18207 26d3 36130000 		.4byte	.LVL666
 18208 26d7 42130000 		.4byte	.LVL667
 18209 26db 0100     		.2byte	0x1
 18210 26dd 50       		.byte	0x50
 18211 26de 00000000 		.4byte	0
 18212 26e2 00000000 		.4byte	0
 18213              	.LLST86:
 18214 26e6 86090000 		.4byte	.LVL305
 18215 26ea 8C090000 		.4byte	.LVL306
 18216 26ee 0400     		.2byte	0x4
 18217 26f0 40       		.byte	0x40
 18218 26f1 4A       		.byte	0x4a
 18219 26f2 24       		.byte	0x24
 18220 26f3 9F       		.byte	0x9f
 18221 26f4 00000000 		.4byte	0
 18222 26f8 00000000 		.4byte	0
 18223              	.LLST87:
 18224 26fc 86090000 		.4byte	.LVL305
 18225 2700 8C090000 		.4byte	.LVL306
 18226 2704 0100     		.2byte	0x1
 18227 2706 50       		.byte	0x50
 18228 2707 00000000 		.4byte	0
 18229 270b 00000000 		.4byte	0
 18230              	.LLST88:
 18231 270f 7A090000 		.4byte	.LVL303
 18232 2713 7E090000 		.4byte	.LVL304
 18233 2717 0100     		.2byte	0x1
 18234 2719 50       		.byte	0x50
 18235 271a 00000000 		.4byte	0
 18236 271e 00000000 		.4byte	0
 18237              	.LLST89:
 18238 2722 5C0B0000 		.4byte	.LVL370
 18239 2726 680B0000 		.4byte	.LVL371
 18240 272a 0A00     		.2byte	0xa
ARM GAS  /tmp/ccMboyVS.s 			page 321


 18241 272c 74       		.byte	0x74
 18242 272d 00       		.sleb128 0
 18243 272e 70       		.byte	0x70
 18244 272f 00       		.sleb128 0
 18245 2730 14       		.byte	0x14
 18246 2731 14       		.byte	0x14
 18247 2732 1B       		.byte	0x1b
 18248 2733 1E       		.byte	0x1e
 18249 2734 1C       		.byte	0x1c
 18250 2735 9F       		.byte	0x9f
 18251 2736 00000000 		.4byte	0
 18252 273a 00000000 		.4byte	0
 18253              	.LLST90:
 18254 273e 700B0000 		.4byte	.LVL373
 18255 2742 840B0000 		.4byte	.LVL377
 18256 2746 0100     		.2byte	0x1
 18257 2748 50       		.byte	0x50
 18258 2749 0A130000 		.4byte	.LVL662
 18259 274d 16130000 		.4byte	.LVL663
 18260 2751 0100     		.2byte	0x1
 18261 2753 50       		.byte	0x50
 18262 2754 00000000 		.4byte	0
 18263 2758 00000000 		.4byte	0
 18264              	.LLST91:
 18265 275c 7C0B0000 		.4byte	.LVL375
 18266 2760 820B0000 		.4byte	.LVL376
 18267 2764 0400     		.2byte	0x4
 18268 2766 48       		.byte	0x48
 18269 2767 49       		.byte	0x49
 18270 2768 24       		.byte	0x24
 18271 2769 9F       		.byte	0x9f
 18272 276a 00000000 		.4byte	0
 18273 276e 00000000 		.4byte	0
 18274              	.LLST92:
 18275 2772 7C0B0000 		.4byte	.LVL375
 18276 2776 820B0000 		.4byte	.LVL376
 18277 277a 0100     		.2byte	0x1
 18278 277c 50       		.byte	0x50
 18279 277d 00000000 		.4byte	0
 18280 2781 00000000 		.4byte	0
 18281              	.LLST93:
 18282 2785 700B0000 		.4byte	.LVL373
 18283 2789 740B0000 		.4byte	.LVL374
 18284 278d 0100     		.2byte	0x1
 18285 278f 50       		.byte	0x50
 18286 2790 00000000 		.4byte	0
 18287 2794 00000000 		.4byte	0
 18288              	.LLST94:
 18289 2798 94020000 		.4byte	.LVL143
 18290 279c B8020000 		.4byte	.LVL144
 18291 27a0 0100     		.2byte	0x1
 18292 27a2 54       		.byte	0x54
 18293 27a3 00000000 		.4byte	0
 18294 27a7 00000000 		.4byte	0
 18295              	.LLST95:
 18296 27ab F2050000 		.4byte	.LVL218
 18297 27af 1C060000 		.4byte	.LVL221
ARM GAS  /tmp/ccMboyVS.s 			page 322


 18298 27b3 0100     		.2byte	0x1
 18299 27b5 57       		.byte	0x57
 18300 27b6 22080000 		.4byte	.LVL273
 18301 27ba 28080000 		.4byte	.LVL274
 18302 27be 0100     		.2byte	0x1
 18303 27c0 57       		.byte	0x57
 18304 27c1 00000000 		.4byte	0
 18305 27c5 00000000 		.4byte	0
 18306              	.LLST96:
 18307 27c9 F2050000 		.4byte	.LVL218
 18308 27cd FC050000 		.4byte	.LVL219
 18309 27d1 0100     		.2byte	0x1
 18310 27d3 57       		.byte	0x57
 18311 27d4 22080000 		.4byte	.LVL273
 18312 27d8 28080000 		.4byte	.LVL274
 18313 27dc 0100     		.2byte	0x1
 18314 27de 57       		.byte	0x57
 18315 27df 00000000 		.4byte	0
 18316 27e3 00000000 		.4byte	0
 18317              	.LLST97:
 18318 27e7 A6060000 		.4byte	.LVL231
 18319 27eb AE060000 		.4byte	.LVL232
 18320 27ef 0A00     		.2byte	0xa
 18321 27f1 74       		.byte	0x74
 18322 27f2 00       		.sleb128 0
 18323 27f3 70       		.byte	0x70
 18324 27f4 00       		.sleb128 0
 18325 27f5 14       		.byte	0x14
 18326 27f6 14       		.byte	0x14
 18327 27f7 1B       		.byte	0x1b
 18328 27f8 1E       		.byte	0x1e
 18329 27f9 1C       		.byte	0x1c
 18330 27fa 9F       		.byte	0x9f
 18331 27fb 00000000 		.4byte	0
 18332 27ff 00000000 		.4byte	0
 18333              	.LLST98:
 18334 2803 220C0000 		.4byte	.LVL408
 18335 2807 2A0C0000 		.4byte	.LVL409
 18336 280b 0600     		.2byte	0x6
 18337 280d 74       		.byte	0x74
 18338 280e 00       		.sleb128 0
 18339 280f 70       		.byte	0x70
 18340 2810 00       		.sleb128 0
 18341 2811 1D       		.byte	0x1d
 18342 2812 9F       		.byte	0x9f
 18343 2813 00000000 		.4byte	0
 18344 2817 00000000 		.4byte	0
 18345              	.LLST99:
 18346 281b 9E0C0000 		.4byte	.LVL434
 18347 281f AA0C0000 		.4byte	.LVL435
 18348 2823 0600     		.2byte	0x6
 18349 2825 74       		.byte	0x74
 18350 2826 00       		.sleb128 0
 18351 2827 70       		.byte	0x70
 18352 2828 00       		.sleb128 0
 18353 2829 1D       		.byte	0x1d
 18354 282a 9F       		.byte	0x9f
ARM GAS  /tmp/ccMboyVS.s 			page 323


 18355 282b 00000000 		.4byte	0
 18356 282f 00000000 		.4byte	0
 18357              	.LLST100:
 18358 2833 B00C0000 		.4byte	.LVL437
 18359 2837 B20C0000 		.4byte	.LVL438
 18360 283b 0100     		.2byte	0x1
 18361 283d 50       		.byte	0x50
 18362 283e B20C0000 		.4byte	.LVL438
 18363 2842 C00C0000 		.4byte	.LVL441
 18364 2846 0100     		.2byte	0x1
 18365 2848 54       		.byte	0x54
 18366 2849 16130000 		.4byte	.LVL663
 18367 284d 22130000 		.4byte	.LVL664
 18368 2851 0100     		.2byte	0x1
 18369 2853 54       		.byte	0x54
 18370 2854 00000000 		.4byte	0
 18371 2858 00000000 		.4byte	0
 18372              	.LLST101:
 18373 285c B00C0000 		.4byte	.LVL437
 18374 2860 B20C0000 		.4byte	.LVL438
 18375 2864 0100     		.2byte	0x1
 18376 2866 50       		.byte	0x50
 18377 2867 B20C0000 		.4byte	.LVL438
 18378 286b B60C0000 		.4byte	.LVL439
 18379 286f 0100     		.2byte	0x1
 18380 2871 54       		.byte	0x54
 18381 2872 00000000 		.4byte	0
 18382 2876 00000000 		.4byte	0
 18383              	.LLST102:
 18384 287a BE0C0000 		.4byte	.LVL440
 18385 287e C80C0000 		.4byte	.LVL442
 18386 2882 0400     		.2byte	0x4
 18387 2884 40       		.byte	0x40
 18388 2885 49       		.byte	0x49
 18389 2886 24       		.byte	0x24
 18390 2887 9F       		.byte	0x9f
 18391 2888 00000000 		.4byte	0
 18392 288c 00000000 		.4byte	0
 18393              	.LLST103:
 18394 2890 BE0C0000 		.4byte	.LVL440
 18395 2894 C00C0000 		.4byte	.LVL441
 18396 2898 0100     		.2byte	0x1
 18397 289a 54       		.byte	0x54
 18398 289b 00000000 		.4byte	0
 18399 289f 00000000 		.4byte	0
 18400              	.LLST244:
 18401 28a3 0A050000 		.4byte	.LVL191
 18402 28a7 38050000 		.4byte	.LVL195
 18403 28ab 0100     		.2byte	0x1
 18404 28ad 55       		.byte	0x55
 18405 28ae 00000000 		.4byte	0
 18406 28b2 00000000 		.4byte	0
 18407              	.LLST245:
 18408 28b6 0A050000 		.4byte	.LVL191
 18409 28ba 1E050000 		.4byte	.LVL194
 18410 28be 0200     		.2byte	0x2
 18411 28c0 31       		.byte	0x31
ARM GAS  /tmp/ccMboyVS.s 			page 324


 18412 28c1 9F       		.byte	0x9f
 18413 28c2 00000000 		.4byte	0
 18414 28c6 00000000 		.4byte	0
 18415              	.LLST246:
 18416 28ca 0A050000 		.4byte	.LVL191
 18417 28ce 12050000 		.4byte	.LVL192
 18418 28d2 0200     		.2byte	0x2
 18419 28d4 31       		.byte	0x31
 18420 28d5 9F       		.byte	0x9f
 18421 28d6 00000000 		.4byte	0
 18422 28da 00000000 		.4byte	0
 18423              	.LLST59:
 18424 28de 2C020000 		.4byte	.LVL136
 18425 28e2 60020000 		.4byte	.LVL139
 18426 28e6 0100     		.2byte	0x1
 18427 28e8 58       		.byte	0x58
 18428 28e9 D4070000 		.4byte	.LVL265
 18429 28ed 1A080000 		.4byte	.LVL272
 18430 28f1 0100     		.2byte	0x1
 18431 28f3 58       		.byte	0x58
 18432 28f4 86080000 		.4byte	.LVL285
 18433 28f8 14090000 		.4byte	.LVL295
 18434 28fc 0100     		.2byte	0x1
 18435 28fe 58       		.byte	0x58
 18436 28ff BC100000 		.4byte	.LVL583
 18437 2903 FE100000 		.4byte	.LVL590
 18438 2907 0100     		.2byte	0x1
 18439 2909 58       		.byte	0x58
 18440 290a EE110000 		.4byte	.LVL628
 18441 290e 2C120000 		.4byte	.LVL634
 18442 2912 0100     		.2byte	0x1
 18443 2914 58       		.byte	0x58
 18444 2915 22130000 		.4byte	.LVL664
 18445 2919 30130000 		.4byte	.LVL665
 18446 291d 0100     		.2byte	0x1
 18447 291f 58       		.byte	0x58
 18448 2920 00000000 		.4byte	0
 18449 2924 00000000 		.4byte	0
 18450              	.LLST60:
 18451 2928 E8070000 		.4byte	.LVL267
 18452 292c 14080000 		.4byte	.LVL270
 18453 2930 0100     		.2byte	0x1
 18454 2932 52       		.byte	0x52
 18455 2933 86080000 		.4byte	.LVL285
 18456 2937 AA080000 		.4byte	.LVL286
 18457 293b 0100     		.2byte	0x1
 18458 293d 52       		.byte	0x52
 18459 293e B6080000 		.4byte	.LVL287
 18460 2942 F5080000 		.4byte	.LVL292-1
 18461 2946 0100     		.2byte	0x1
 18462 2948 52       		.byte	0x52
 18463 2949 F5080000 		.4byte	.LVL292-1
 18464 294d 14090000 		.4byte	.LVL295
 18465 2951 0200     		.2byte	0x2
 18466 2953 91       		.byte	0x91
 18467 2954 44       		.sleb128 -60
 18468 2955 BC100000 		.4byte	.LVL583
ARM GAS  /tmp/ccMboyVS.s 			page 325


 18469 2959 CD100000 		.4byte	.LVL586-1
 18470 295d 0100     		.2byte	0x1
 18471 295f 52       		.byte	0x52
 18472 2960 CD100000 		.4byte	.LVL586-1
 18473 2964 EE100000 		.4byte	.LVL589
 18474 2968 0200     		.2byte	0x2
 18475 296a 91       		.byte	0x91
 18476 296b 44       		.sleb128 -60
 18477 296c EE100000 		.4byte	.LVL589
 18478 2970 FE100000 		.4byte	.LVL590
 18479 2974 0100     		.2byte	0x1
 18480 2976 52       		.byte	0x52
 18481 2977 EE110000 		.4byte	.LVL628
 18482 297b 05120000 		.4byte	.LVL631-1
 18483 297f 0100     		.2byte	0x1
 18484 2981 52       		.byte	0x52
 18485 2982 05120000 		.4byte	.LVL631-1
 18486 2986 2C120000 		.4byte	.LVL634
 18487 298a 0200     		.2byte	0x2
 18488 298c 91       		.byte	0x91
 18489 298d 44       		.sleb128 -60
 18490 298e 22130000 		.4byte	.LVL664
 18491 2992 30130000 		.4byte	.LVL665
 18492 2996 0100     		.2byte	0x1
 18493 2998 52       		.byte	0x52
 18494 2999 00000000 		.4byte	0
 18495 299d 00000000 		.4byte	0
 18496              	.LLST61:
 18497 29a1 2C020000 		.4byte	.LVL136
 18498 29a5 5E020000 		.4byte	.LVL138
 18499 29a9 0200     		.2byte	0x2
 18500 29ab 31       		.byte	0x31
 18501 29ac 9F       		.byte	0x9f
 18502 29ad D4070000 		.4byte	.LVL265
 18503 29b1 E4070000 		.4byte	.LVL266
 18504 29b5 0200     		.2byte	0x2
 18505 29b7 31       		.byte	0x31
 18506 29b8 9F       		.byte	0x9f
 18507 29b9 E4070000 		.4byte	.LVL266
 18508 29bd 14080000 		.4byte	.LVL270
 18509 29c1 0100     		.2byte	0x1
 18510 29c3 50       		.byte	0x50
 18511 29c4 86080000 		.4byte	.LVL285
 18512 29c8 AA080000 		.4byte	.LVL286
 18513 29cc 0100     		.2byte	0x1
 18514 29ce 50       		.byte	0x50
 18515 29cf B6080000 		.4byte	.LVL287
 18516 29d3 F0080000 		.4byte	.LVL291
 18517 29d7 0100     		.2byte	0x1
 18518 29d9 50       		.byte	0x50
 18519 29da BC100000 		.4byte	.LVL583
 18520 29de C8100000 		.4byte	.LVL585
 18521 29e2 0100     		.2byte	0x1
 18522 29e4 50       		.byte	0x50
 18523 29e5 EE100000 		.4byte	.LVL589
 18524 29e9 FE100000 		.4byte	.LVL590
 18525 29ed 0100     		.2byte	0x1
ARM GAS  /tmp/ccMboyVS.s 			page 326


 18526 29ef 50       		.byte	0x50
 18527 29f0 EE110000 		.4byte	.LVL628
 18528 29f4 00120000 		.4byte	.LVL630
 18529 29f8 0100     		.2byte	0x1
 18530 29fa 50       		.byte	0x50
 18531 29fb 22130000 		.4byte	.LVL664
 18532 29ff 30130000 		.4byte	.LVL665
 18533 2a03 0100     		.2byte	0x1
 18534 2a05 50       		.byte	0x50
 18535 2a06 00000000 		.4byte	0
 18536 2a0a 00000000 		.4byte	0
 18537              	.LLST62:
 18538 2a0e 2C020000 		.4byte	.LVL136
 18539 2a12 5E020000 		.4byte	.LVL138
 18540 2a16 0200     		.2byte	0x2
 18541 2a18 31       		.byte	0x31
 18542 2a19 9F       		.byte	0x9f
 18543 2a1a 5E020000 		.4byte	.LVL138
 18544 2a1e 60020000 		.4byte	.LVL139
 18545 2a22 0200     		.2byte	0x2
 18546 2a24 30       		.byte	0x30
 18547 2a25 9F       		.byte	0x9f
 18548 2a26 D4070000 		.4byte	.LVL265
 18549 2a2a 1A080000 		.4byte	.LVL272
 18550 2a2e 0200     		.2byte	0x2
 18551 2a30 31       		.byte	0x31
 18552 2a31 9F       		.byte	0x9f
 18553 2a32 86080000 		.4byte	.LVL285
 18554 2a36 14090000 		.4byte	.LVL295
 18555 2a3a 0200     		.2byte	0x2
 18556 2a3c 31       		.byte	0x31
 18557 2a3d 9F       		.byte	0x9f
 18558 2a3e BC100000 		.4byte	.LVL583
 18559 2a42 FE100000 		.4byte	.LVL590
 18560 2a46 0200     		.2byte	0x2
 18561 2a48 31       		.byte	0x31
 18562 2a49 9F       		.byte	0x9f
 18563 2a4a EE110000 		.4byte	.LVL628
 18564 2a4e 2C120000 		.4byte	.LVL634
 18565 2a52 0200     		.2byte	0x2
 18566 2a54 31       		.byte	0x31
 18567 2a55 9F       		.byte	0x9f
 18568 2a56 22130000 		.4byte	.LVL664
 18569 2a5a 30130000 		.4byte	.LVL665
 18570 2a5e 0200     		.2byte	0x2
 18571 2a60 31       		.byte	0x31
 18572 2a61 9F       		.byte	0x9f
 18573 2a62 00000000 		.4byte	0
 18574 2a66 00000000 		.4byte	0
 18575              	.LLST65:
 18576 2a6a D4070000 		.4byte	.LVL265
 18577 2a6e E4070000 		.4byte	.LVL266
 18578 2a72 0200     		.2byte	0x2
 18579 2a74 31       		.byte	0x31
 18580 2a75 9F       		.byte	0x9f
 18581 2a76 E4070000 		.4byte	.LVL266
 18582 2a7a 1A080000 		.4byte	.LVL272
ARM GAS  /tmp/ccMboyVS.s 			page 327


 18583 2a7e 0100     		.2byte	0x1
 18584 2a80 55       		.byte	0x55
 18585 2a81 86080000 		.4byte	.LVL285
 18586 2a85 14090000 		.4byte	.LVL295
 18587 2a89 0100     		.2byte	0x1
 18588 2a8b 55       		.byte	0x55
 18589 2a8c BC100000 		.4byte	.LVL583
 18590 2a90 FE100000 		.4byte	.LVL590
 18591 2a94 0100     		.2byte	0x1
 18592 2a96 55       		.byte	0x55
 18593 2a97 EE110000 		.4byte	.LVL628
 18594 2a9b 2C120000 		.4byte	.LVL634
 18595 2a9f 0100     		.2byte	0x1
 18596 2aa1 55       		.byte	0x55
 18597 2aa2 22130000 		.4byte	.LVL664
 18598 2aa6 30130000 		.4byte	.LVL665
 18599 2aaa 0100     		.2byte	0x1
 18600 2aac 55       		.byte	0x55
 18601 2aad 00000000 		.4byte	0
 18602 2ab1 00000000 		.4byte	0
 18603              	.LLST66:
 18604 2ab5 86080000 		.4byte	.LVL285
 18605 2ab9 AA080000 		.4byte	.LVL286
 18606 2abd 0100     		.2byte	0x1
 18607 2abf 52       		.byte	0x52
 18608 2ac0 B6080000 		.4byte	.LVL287
 18609 2ac4 F5080000 		.4byte	.LVL292-1
 18610 2ac8 0100     		.2byte	0x1
 18611 2aca 52       		.byte	0x52
 18612 2acb F5080000 		.4byte	.LVL292-1
 18613 2acf 14090000 		.4byte	.LVL295
 18614 2ad3 0200     		.2byte	0x2
 18615 2ad5 91       		.byte	0x91
 18616 2ad6 44       		.sleb128 -60
 18617 2ad7 BC100000 		.4byte	.LVL583
 18618 2adb CD100000 		.4byte	.LVL586-1
 18619 2adf 0100     		.2byte	0x1
 18620 2ae1 52       		.byte	0x52
 18621 2ae2 CD100000 		.4byte	.LVL586-1
 18622 2ae6 EE100000 		.4byte	.LVL589
 18623 2aea 0200     		.2byte	0x2
 18624 2aec 91       		.byte	0x91
 18625 2aed 44       		.sleb128 -60
 18626 2aee EE100000 		.4byte	.LVL589
 18627 2af2 FE100000 		.4byte	.LVL590
 18628 2af6 0100     		.2byte	0x1
 18629 2af8 52       		.byte	0x52
 18630 2af9 EE110000 		.4byte	.LVL628
 18631 2afd 05120000 		.4byte	.LVL631-1
 18632 2b01 0100     		.2byte	0x1
 18633 2b03 52       		.byte	0x52
 18634 2b04 05120000 		.4byte	.LVL631-1
 18635 2b08 2C120000 		.4byte	.LVL634
 18636 2b0c 0200     		.2byte	0x2
 18637 2b0e 91       		.byte	0x91
 18638 2b0f 44       		.sleb128 -60
 18639 2b10 22130000 		.4byte	.LVL664
ARM GAS  /tmp/ccMboyVS.s 			page 328


 18640 2b14 30130000 		.4byte	.LVL665
 18641 2b18 0100     		.2byte	0x1
 18642 2b1a 52       		.byte	0x52
 18643 2b1b 00000000 		.4byte	0
 18644 2b1f 00000000 		.4byte	0
 18645              	.LLST67:
 18646 2b23 86080000 		.4byte	.LVL285
 18647 2b27 AA080000 		.4byte	.LVL286
 18648 2b2b 0200     		.2byte	0x2
 18649 2b2d 30       		.byte	0x30
 18650 2b2e 9F       		.byte	0x9f
 18651 2b2f B6080000 		.4byte	.LVL287
 18652 2b33 12090000 		.4byte	.LVL294
 18653 2b37 0200     		.2byte	0x2
 18654 2b39 30       		.byte	0x30
 18655 2b3a 9F       		.byte	0x9f
 18656 2b3b BC100000 		.4byte	.LVL583
 18657 2b3f EA100000 		.4byte	.LVL588
 18658 2b43 0200     		.2byte	0x2
 18659 2b45 30       		.byte	0x30
 18660 2b46 9F       		.byte	0x9f
 18661 2b47 EE100000 		.4byte	.LVL589
 18662 2b4b FE100000 		.4byte	.LVL590
 18663 2b4f 0200     		.2byte	0x2
 18664 2b51 30       		.byte	0x30
 18665 2b52 9F       		.byte	0x9f
 18666 2b53 EE110000 		.4byte	.LVL628
 18667 2b57 28120000 		.4byte	.LVL633
 18668 2b5b 0200     		.2byte	0x2
 18669 2b5d 30       		.byte	0x30
 18670 2b5e 9F       		.byte	0x9f
 18671 2b5f 22130000 		.4byte	.LVL664
 18672 2b63 30130000 		.4byte	.LVL665
 18673 2b67 0200     		.2byte	0x2
 18674 2b69 30       		.byte	0x30
 18675 2b6a 9F       		.byte	0x9f
 18676 2b6b 00000000 		.4byte	0
 18677 2b6f 00000000 		.4byte	0
 18678              	.LLST68:
 18679 2b73 D2080000 		.4byte	.LVL288
 18680 2b77 D8080000 		.4byte	.LVL289
 18681 2b7b 1600     		.2byte	0x16
 18682 2b7d 77       		.byte	0x77
 18683 2b7e 00       		.sleb128 0
 18684 2b7f 12       		.byte	0x12
 18685 2b80 40       		.byte	0x40
 18686 2b81 4B       		.byte	0x4b
 18687 2b82 24       		.byte	0x24
 18688 2b83 22       		.byte	0x22
 18689 2b84 73       		.byte	0x73
 18690 2b85 00       		.sleb128 0
 18691 2b86 16       		.byte	0x16
 18692 2b87 14       		.byte	0x14
 18693 2b88 40       		.byte	0x40
 18694 2b89 4B       		.byte	0x4b
 18695 2b8a 24       		.byte	0x24
 18696 2b8b 22       		.byte	0x22
ARM GAS  /tmp/ccMboyVS.s 			page 329


 18697 2b8c 2B       		.byte	0x2b
 18698 2b8d 28       		.byte	0x28
 18699 2b8e 0100     		.2byte	0x1
 18700 2b90 16       		.byte	0x16
 18701 2b91 13       		.byte	0x13
 18702 2b92 9F       		.byte	0x9f
 18703 2b93 EE080000 		.4byte	.LVL290
 18704 2b97 14090000 		.4byte	.LVL295
 18705 2b9b 0400     		.2byte	0x4
 18706 2b9d 48       		.byte	0x48
 18707 2b9e 49       		.byte	0x49
 18708 2b9f 24       		.byte	0x24
 18709 2ba0 9F       		.byte	0x9f
 18710 2ba1 C6100000 		.4byte	.LVL584
 18711 2ba5 EE100000 		.4byte	.LVL589
 18712 2ba9 0400     		.2byte	0x4
 18713 2bab 40       		.byte	0x40
 18714 2bac 49       		.byte	0x49
 18715 2bad 24       		.byte	0x24
 18716 2bae 9F       		.byte	0x9f
 18717 2baf FE110000 		.4byte	.LVL629
 18718 2bb3 2C120000 		.4byte	.LVL634
 18719 2bb7 0400     		.2byte	0x4
 18720 2bb9 40       		.byte	0x40
 18721 2bba 4A       		.byte	0x4a
 18722 2bbb 24       		.byte	0x24
 18723 2bbc 9F       		.byte	0x9f
 18724 2bbd 00000000 		.4byte	0
 18725 2bc1 00000000 		.4byte	0
 18726              	.LLST69:
 18727 2bc5 B6080000 		.4byte	.LVL287
 18728 2bc9 D2080000 		.4byte	.LVL288
 18729 2bcd 0100     		.2byte	0x1
 18730 2bcf 52       		.byte	0x52
 18731 2bd0 BC100000 		.4byte	.LVL583
 18732 2bd4 C6100000 		.4byte	.LVL584
 18733 2bd8 0100     		.2byte	0x1
 18734 2bda 52       		.byte	0x52
 18735 2bdb EE100000 		.4byte	.LVL589
 18736 2bdf FE100000 		.4byte	.LVL590
 18737 2be3 0100     		.2byte	0x1
 18738 2be5 52       		.byte	0x52
 18739 2be6 22130000 		.4byte	.LVL664
 18740 2bea 30130000 		.4byte	.LVL665
 18741 2bee 0100     		.2byte	0x1
 18742 2bf0 52       		.byte	0x52
 18743 2bf1 00000000 		.4byte	0
 18744 2bf5 00000000 		.4byte	0
 18745              	.LLST70:
 18746 2bf9 00090000 		.4byte	.LVL293
 18747 2bfd 12090000 		.4byte	.LVL294
 18748 2c01 0100     		.2byte	0x1
 18749 2c03 50       		.byte	0x50
 18750 2c04 00000000 		.4byte	0
 18751 2c08 00000000 		.4byte	0
 18752              	.LLST71:
 18753 2c0c 00090000 		.4byte	.LVL293
ARM GAS  /tmp/ccMboyVS.s 			page 330


 18754 2c10 12090000 		.4byte	.LVL294
 18755 2c14 0100     		.2byte	0x1
 18756 2c16 5B       		.byte	0x5b
 18757 2c17 00000000 		.4byte	0
 18758 2c1b 00000000 		.4byte	0
 18759              	.LLST72:
 18760 2c1f D8100000 		.4byte	.LVL587
 18761 2c23 EA100000 		.4byte	.LVL588
 18762 2c27 0100     		.2byte	0x1
 18763 2c29 50       		.byte	0x50
 18764 2c2a 00000000 		.4byte	0
 18765 2c2e 00000000 		.4byte	0
 18766              	.LLST73:
 18767 2c32 D8100000 		.4byte	.LVL587
 18768 2c36 EA100000 		.4byte	.LVL588
 18769 2c3a 0100     		.2byte	0x1
 18770 2c3c 5B       		.byte	0x5b
 18771 2c3d 00000000 		.4byte	0
 18772 2c41 00000000 		.4byte	0
 18773              	.LLST74:
 18774 2c45 12120000 		.4byte	.LVL632
 18775 2c49 28120000 		.4byte	.LVL633
 18776 2c4d 0200     		.2byte	0x2
 18777 2c4f 90       		.byte	0x90
 18778 2c50 40       		.uleb128 0x40
 18779 2c51 00000000 		.4byte	0
 18780 2c55 00000000 		.4byte	0
 18781              	.LLST75:
 18782 2c59 12120000 		.4byte	.LVL632
 18783 2c5d 28120000 		.4byte	.LVL633
 18784 2c61 0200     		.2byte	0x2
 18785 2c63 90       		.byte	0x90
 18786 2c64 50       		.uleb128 0x50
 18787 2c65 00000000 		.4byte	0
 18788 2c69 00000000 		.4byte	0
 18789              	.LLST76:
 18790 2c6d E8070000 		.4byte	.LVL267
 18791 2c71 12080000 		.4byte	.LVL269
 18792 2c75 0100     		.2byte	0x1
 18793 2c77 52       		.byte	0x52
 18794 2c78 00000000 		.4byte	0
 18795 2c7c 00000000 		.4byte	0
 18796              	.LLST77:
 18797 2c80 E8070000 		.4byte	.LVL267
 18798 2c84 F4070000 		.4byte	.LVL268
 18799 2c88 0100     		.2byte	0x1
 18800 2c8a 52       		.byte	0x52
 18801 2c8b 00000000 		.4byte	0
 18802 2c8f 00000000 		.4byte	0
 18803              	.LLST64:
 18804 2c93 2C020000 		.4byte	.LVL136
 18805 2c97 3A020000 		.4byte	.LVL137
 18806 2c9b 0100     		.2byte	0x1
 18807 2c9d 58       		.byte	0x58
 18808 2c9e 00000000 		.4byte	0
 18809 2ca2 00000000 		.4byte	0
 18810              	.LLST236:
ARM GAS  /tmp/ccMboyVS.s 			page 331


 18811 2ca6 A4050000 		.4byte	.LVL210
 18812 2caa B4050000 		.4byte	.LVL212
 18813 2cae 0100     		.2byte	0x1
 18814 2cb0 53       		.byte	0x53
 18815 2cb1 B4050000 		.4byte	.LVL212
 18816 2cb5 B8050000 		.4byte	.LVL213
 18817 2cb9 0300     		.2byte	0x3
 18818 2cbb F3       		.byte	0xf3
 18819 2cbc 01       		.uleb128 0x1
 18820 2cbd 50       		.byte	0x50
 18821 2cbe 00000000 		.4byte	0
 18822 2cc2 00000000 		.4byte	0
 18823              	.LLST157:
 18824 2cc6 D6030000 		.4byte	.LVL162
 18825 2cca D8030000 		.4byte	.LVL163
 18826 2cce 0100     		.2byte	0x1
 18827 2cd0 53       		.byte	0x53
 18828 2cd1 D8030000 		.4byte	.LVL163
 18829 2cd5 E4030000 		.4byte	.LVL164
 18830 2cd9 0200     		.2byte	0x2
 18831 2cdb 70       		.byte	0x70
 18832 2cdc 00       		.sleb128 0
 18833 2cdd 00000000 		.4byte	0
 18834 2ce1 00000000 		.4byte	0
 18835              	.LLST249:
 18836 2ce5 5A050000 		.4byte	.LVL201
 18837 2ce9 64050000 		.4byte	.LVL202
 18838 2ced 0300     		.2byte	0x3
 18839 2cef 91       		.byte	0x91
 18840 2cf0 48       		.sleb128 -56
 18841 2cf1 9F       		.byte	0x9f
 18842 2cf2 DC0C0000 		.4byte	.LVL446
 18843 2cf6 DE0C0000 		.4byte	.LVL447
 18844 2cfa 0300     		.2byte	0x3
 18845 2cfc 91       		.byte	0x91
 18846 2cfd 48       		.sleb128 -56
 18847 2cfe 9F       		.byte	0x9f
 18848 2cff DE0C0000 		.4byte	.LVL447
 18849 2d03 E10C0000 		.4byte	.LVL448-1
 18850 2d07 0100     		.2byte	0x1
 18851 2d09 52       		.byte	0x52
 18852 2d0a E10C0000 		.4byte	.LVL448-1
 18853 2d0e E80C0000 		.4byte	.LVL449
 18854 2d12 0300     		.2byte	0x3
 18855 2d14 91       		.byte	0x91
 18856 2d15 48       		.sleb128 -56
 18857 2d16 9F       		.byte	0x9f
 18858 2d17 00000000 		.4byte	0
 18859 2d1b 00000000 		.4byte	0
 18860              	.LLST250:
 18861 2d1f 5A050000 		.4byte	.LVL201
 18862 2d23 64050000 		.4byte	.LVL202
 18863 2d27 0100     		.2byte	0x1
 18864 2d29 51       		.byte	0x51
 18865 2d2a DC0C0000 		.4byte	.LVL446
 18866 2d2e E10C0000 		.4byte	.LVL448-1
 18867 2d32 0100     		.2byte	0x1
ARM GAS  /tmp/ccMboyVS.s 			page 332


 18868 2d34 51       		.byte	0x51
 18869 2d35 E10C0000 		.4byte	.LVL448-1
 18870 2d39 E80C0000 		.4byte	.LVL449
 18871 2d3d 0100     		.2byte	0x1
 18872 2d3f 56       		.byte	0x56
 18873 2d40 00000000 		.4byte	0
 18874 2d44 00000000 		.4byte	0
 18875              	.LLST251:
 18876 2d48 5A050000 		.4byte	.LVL201
 18877 2d4c 64050000 		.4byte	.LVL202
 18878 2d50 0100     		.2byte	0x1
 18879 2d52 50       		.byte	0x50
 18880 2d53 DC0C0000 		.4byte	.LVL446
 18881 2d57 E10C0000 		.4byte	.LVL448-1
 18882 2d5b 0100     		.2byte	0x1
 18883 2d5d 50       		.byte	0x50
 18884 2d5e E10C0000 		.4byte	.LVL448-1
 18885 2d62 E80C0000 		.4byte	.LVL449
 18886 2d66 0400     		.2byte	0x4
 18887 2d68 F3       		.byte	0xf3
 18888 2d69 01       		.uleb128 0x1
 18889 2d6a 50       		.byte	0x50
 18890 2d6b 9F       		.byte	0x9f
 18891 2d6c 00000000 		.4byte	0
 18892 2d70 00000000 		.4byte	0
 18893              	.LLST257:
 18894 2d74 780D0000 		.4byte	.LVL480
 18895 2d78 800D0000 		.4byte	.LVL482
 18896 2d7c 0100     		.2byte	0x1
 18897 2d7e 53       		.byte	0x53
 18898 2d7f 800D0000 		.4byte	.LVL482
 18899 2d83 840D0000 		.4byte	.LVL483
 18900 2d87 0200     		.2byte	0x2
 18901 2d89 70       		.byte	0x70
 18902 2d8a 00       		.sleb128 0
 18903 2d8b 00000000 		.4byte	0
 18904 2d8f 00000000 		.4byte	0
 18905              	.LLST258:
 18906 2d93 140E0000 		.4byte	.LVL499
 18907 2d97 1A0E0000 		.4byte	.LVL500
 18908 2d9b 0100     		.2byte	0x1
 18909 2d9d 54       		.byte	0x54
 18910 2d9e F8120000 		.4byte	.LVL656
 18911 2da2 FA120000 		.4byte	.LVL657
 18912 2da6 0100     		.2byte	0x1
 18913 2da8 54       		.byte	0x54
 18914 2da9 FA120000 		.4byte	.LVL657
 18915 2dad FE120000 		.4byte	.LVL658
 18916 2db1 0200     		.2byte	0x2
 18917 2db3 70       		.byte	0x70
 18918 2db4 00       		.sleb128 0
 18919 2db5 00000000 		.4byte	0
 18920 2db9 00000000 		.4byte	0
 18921              	.LLST271:
 18922 2dbd 940E0000 		.4byte	.LVL510
 18923 2dc1 CA0E0000 		.4byte	.LVL513
 18924 2dc5 0100     		.2byte	0x1
ARM GAS  /tmp/ccMboyVS.s 			page 333


 18925 2dc7 53       		.byte	0x53
 18926 2dc8 00000000 		.4byte	0
 18927 2dcc 00000000 		.4byte	0
 18928              	.LLST272:
 18929 2dd0 940E0000 		.4byte	.LVL510
 18930 2dd4 A00E0000 		.4byte	.LVL512
 18931 2dd8 0100     		.2byte	0x1
 18932 2dda 53       		.byte	0x53
 18933 2ddb 00000000 		.4byte	0
 18934 2ddf 00000000 		.4byte	0
 18935              	.LLST273:
 18936 2de3 CC0E0000 		.4byte	.LVL514
 18937 2de7 D20E0000 		.4byte	.LVL516
 18938 2deb 0100     		.2byte	0x1
 18939 2ded 54       		.byte	0x54
 18940 2dee 04130000 		.4byte	.LVL660
 18941 2df2 06130000 		.4byte	.LVL661
 18942 2df6 0100     		.2byte	0x1
 18943 2df8 54       		.byte	0x54
 18944 2df9 06130000 		.4byte	.LVL661
 18945 2dfd 0A130000 		.4byte	.LVL662
 18946 2e01 0300     		.2byte	0x3
 18947 2e03 F3       		.byte	0xf3
 18948 2e04 01       		.uleb128 0x1
 18949 2e05 50       		.byte	0x50
 18950 2e06 00000000 		.4byte	0
 18951 2e0a 00000000 		.4byte	0
 18952              	.LLST285:
 18953 2e0e 4C0F0000 		.4byte	.LVL526
 18954 2e12 520F0000 		.4byte	.LVL527
 18955 2e16 0100     		.2byte	0x1
 18956 2e18 54       		.byte	0x54
 18957 2e19 FE120000 		.4byte	.LVL658
 18958 2e1d 00130000 		.4byte	.LVL659
 18959 2e21 0100     		.2byte	0x1
 18960 2e23 54       		.byte	0x54
 18961 2e24 00130000 		.4byte	.LVL659
 18962 2e28 04130000 		.4byte	.LVL660
 18963 2e2c 0200     		.2byte	0x2
 18964 2e2e 70       		.byte	0x70
 18965 2e2f 00       		.sleb128 0
 18966 2e30 00000000 		.4byte	0
 18967 2e34 00000000 		.4byte	0
 18968              	.LLST297:
 18969 2e38 CC0F0000 		.4byte	.LVL540
 18970 2e3c 02100000 		.4byte	.LVL542
 18971 2e40 0100     		.2byte	0x1
 18972 2e42 50       		.byte	0x50
 18973 2e43 00000000 		.4byte	0
 18974 2e47 00000000 		.4byte	0
 18975              	.LLST298:
 18976 2e4b CC0F0000 		.4byte	.LVL540
 18977 2e4f D80F0000 		.4byte	.LVL541
 18978 2e53 0100     		.2byte	0x1
 18979 2e55 50       		.byte	0x50
 18980 2e56 00000000 		.4byte	0
 18981 2e5a 00000000 		.4byte	0
ARM GAS  /tmp/ccMboyVS.s 			page 334


 18982              	.LLST49:
 18983 2e5e 00000000 		.4byte	.LVL121
 18984 2e62 06000000 		.4byte	.LVL123
 18985 2e66 0100     		.2byte	0x1
 18986 2e68 50       		.byte	0x50
 18987 2e69 06000000 		.4byte	.LVL123
 18988 2e6d 08000000 		.4byte	.LVL124
 18989 2e71 0400     		.2byte	0x4
 18990 2e73 F3       		.byte	0xf3
 18991 2e74 01       		.uleb128 0x1
 18992 2e75 50       		.byte	0x50
 18993 2e76 9F       		.byte	0x9f
 18994 2e77 08000000 		.4byte	.LVL124
 18995 2e7b 18000000 		.4byte	.LVL125
 18996 2e7f 0100     		.2byte	0x1
 18997 2e81 50       		.byte	0x50
 18998 2e82 18000000 		.4byte	.LVL125
 18999 2e86 3E000000 		.4byte	.LFE59
 19000 2e8a 0400     		.2byte	0x4
 19001 2e8c F3       		.byte	0xf3
 19002 2e8d 01       		.uleb128 0x1
 19003 2e8e 50       		.byte	0x50
 19004 2e8f 9F       		.byte	0x9f
 19005 2e90 00000000 		.4byte	0
 19006 2e94 00000000 		.4byte	0
 19007              	.LLST50:
 19008 2e98 00000000 		.4byte	.LVL121
 19009 2e9c 18000000 		.4byte	.LVL125
 19010 2ea0 0100     		.2byte	0x1
 19011 2ea2 51       		.byte	0x51
 19012 2ea3 18000000 		.4byte	.LVL125
 19013 2ea7 36000000 		.4byte	.LVL130
 19014 2eab 0100     		.2byte	0x1
 19015 2ead 54       		.byte	0x54
 19016 2eae 00000000 		.4byte	0
 19017 2eb2 00000000 		.4byte	0
 19018              	.LLST51:
 19019 2eb6 00000000 		.4byte	.LVL121
 19020 2eba 06000000 		.4byte	.LVL123
 19021 2ebe 0100     		.2byte	0x1
 19022 2ec0 50       		.byte	0x50
 19023 2ec1 06000000 		.4byte	.LVL123
 19024 2ec5 08000000 		.4byte	.LVL124
 19025 2ec9 0400     		.2byte	0x4
 19026 2ecb F3       		.byte	0xf3
 19027 2ecc 01       		.uleb128 0x1
 19028 2ecd 50       		.byte	0x50
 19029 2ece 9F       		.byte	0x9f
 19030 2ecf 08000000 		.4byte	.LVL124
 19031 2ed3 1B000000 		.4byte	.LVL126-1
 19032 2ed7 0100     		.2byte	0x1
 19033 2ed9 50       		.byte	0x50
 19034 2eda 1C000000 		.4byte	.LVL126
 19035 2ede 2A000000 		.4byte	.LVL128
 19036 2ee2 0100     		.2byte	0x1
 19037 2ee4 50       		.byte	0x50
 19038 2ee5 2C000000 		.4byte	.LVL129
ARM GAS  /tmp/ccMboyVS.s 			page 335


 19039 2ee9 3D000000 		.4byte	.LVL131-1
 19040 2eed 0100     		.2byte	0x1
 19041 2eef 50       		.byte	0x50
 19042 2ef0 00000000 		.4byte	0
 19043 2ef4 00000000 		.4byte	0
 19044              	.LLST52:
 19045 2ef8 00000000 		.4byte	.LVL121
 19046 2efc 04000000 		.4byte	.LVL122
 19047 2f00 0100     		.2byte	0x1
 19048 2f02 50       		.byte	0x50
 19049 2f03 26000000 		.4byte	.LVL127
 19050 2f07 2A000000 		.4byte	.LVL128
 19051 2f0b 0100     		.2byte	0x1
 19052 2f0d 50       		.byte	0x50
 19053 2f0e 2C000000 		.4byte	.LVL129
 19054 2f12 36000000 		.4byte	.LVL130
 19055 2f16 0100     		.2byte	0x1
 19056 2f18 50       		.byte	0x50
 19057 2f19 00000000 		.4byte	0
 19058 2f1d 00000000 		.4byte	0
 19059              	.LLST35:
 19060 2f21 00000000 		.4byte	.LVL92
 19061 2f25 20000000 		.4byte	.LVL98
 19062 2f29 0100     		.2byte	0x1
 19063 2f2b 50       		.byte	0x50
 19064 2f2c 20000000 		.4byte	.LVL98
 19065 2f30 C2000000 		.4byte	.LFE58
 19066 2f34 0400     		.2byte	0x4
 19067 2f36 F3       		.byte	0xf3
 19068 2f37 01       		.uleb128 0x1
 19069 2f38 50       		.byte	0x50
 19070 2f39 9F       		.byte	0x9f
 19071 2f3a 00000000 		.4byte	0
 19072 2f3e 00000000 		.4byte	0
 19073              	.LLST36:
 19074 2f42 00000000 		.4byte	.LVL92
 19075 2f46 08000000 		.4byte	.LVL94
 19076 2f4a 0100     		.2byte	0x1
 19077 2f4c 51       		.byte	0x51
 19078 2f4d 08000000 		.4byte	.LVL94
 19079 2f51 C2000000 		.4byte	.LFE58
 19080 2f55 0400     		.2byte	0x4
 19081 2f57 F3       		.byte	0xf3
 19082 2f58 01       		.uleb128 0x1
 19083 2f59 51       		.byte	0x51
 19084 2f5a 9F       		.byte	0x9f
 19085 2f5b 00000000 		.4byte	0
 19086 2f5f 00000000 		.4byte	0
 19087              	.LLST37:
 19088 2f63 00000000 		.4byte	.LVL92
 19089 2f67 34000000 		.4byte	.LVL99
 19090 2f6b 0100     		.2byte	0x1
 19091 2f6d 52       		.byte	0x52
 19092 2f6e 34000000 		.4byte	.LVL99
 19093 2f72 36000000 		.4byte	.LVL100
 19094 2f76 0400     		.2byte	0x4
 19095 2f78 F3       		.byte	0xf3
ARM GAS  /tmp/ccMboyVS.s 			page 336


 19096 2f79 01       		.uleb128 0x1
 19097 2f7a 52       		.byte	0x52
 19098 2f7b 9F       		.byte	0x9f
 19099 2f7c 36000000 		.4byte	.LVL100
 19100 2f80 3D000000 		.4byte	.LVL101-1
 19101 2f84 0100     		.2byte	0x1
 19102 2f86 52       		.byte	0x52
 19103 2f87 3D000000 		.4byte	.LVL101-1
 19104 2f8b C2000000 		.4byte	.LFE58
 19105 2f8f 0100     		.2byte	0x1
 19106 2f91 54       		.byte	0x54
 19107 2f92 00000000 		.4byte	0
 19108 2f96 00000000 		.4byte	0
 19109              	.LLST38:
 19110 2f9a 06000000 		.4byte	.LVL93
 19111 2f9e 34000000 		.4byte	.LVL99
 19112 2fa2 0100     		.2byte	0x1
 19113 2fa4 53       		.byte	0x53
 19114 2fa5 36000000 		.4byte	.LVL100
 19115 2fa9 3D000000 		.4byte	.LVL101-1
 19116 2fad 0100     		.2byte	0x1
 19117 2faf 53       		.byte	0x53
 19118 2fb0 00000000 		.4byte	0
 19119 2fb4 00000000 		.4byte	0
 19120              	.LLST39:
 19121 2fb8 0A000000 		.4byte	.LVL95
 19122 2fbc 8C000000 		.4byte	.LVL108
 19123 2fc0 0100     		.2byte	0x1
 19124 2fc2 56       		.byte	0x56
 19125 2fc3 90000000 		.4byte	.LVL109
 19126 2fc7 94000000 		.4byte	.LVL111
 19127 2fcb 0100     		.2byte	0x1
 19128 2fcd 56       		.byte	0x56
 19129 2fce 94000000 		.4byte	.LVL111
 19130 2fd2 97000000 		.4byte	.LVL112-1
 19131 2fd6 0100     		.2byte	0x1
 19132 2fd8 50       		.byte	0x50
 19133 2fd9 9E000000 		.4byte	.LVL113
 19134 2fdd AA000000 		.4byte	.LVL115
 19135 2fe1 0100     		.2byte	0x1
 19136 2fe3 56       		.byte	0x56
 19137 2fe4 B0000000 		.4byte	.LVL116
 19138 2fe8 B4000000 		.4byte	.LVL117
 19139 2fec 0100     		.2byte	0x1
 19140 2fee 56       		.byte	0x56
 19141 2fef BA000000 		.4byte	.LVL118
 19142 2ff3 BE000000 		.4byte	.LVL119
 19143 2ff7 0100     		.2byte	0x1
 19144 2ff9 56       		.byte	0x56
 19145 2ffa 00000000 		.4byte	0
 19146 2ffe 00000000 		.4byte	0
 19147              	.LLST40:
 19148 3002 42000000 		.4byte	.LVL102
 19149 3006 50000000 		.4byte	.LVL104
 19150 300a 0100     		.2byte	0x1
 19151 300c 50       		.byte	0x50
 19152 300d 50000000 		.4byte	.LVL104
ARM GAS  /tmp/ccMboyVS.s 			page 337


 19153 3011 C2000000 		.4byte	.LFE58
 19154 3015 0100     		.2byte	0x1
 19155 3017 57       		.byte	0x57
 19156 3018 00000000 		.4byte	0
 19157 301c 00000000 		.4byte	0
 19158              	.LLST44:
 19159 3020 66000000 		.4byte	.LVL106
 19160 3024 8C000000 		.4byte	.LVL108
 19161 3028 0100     		.2byte	0x1
 19162 302a 50       		.byte	0x50
 19163 302b 90000000 		.4byte	.LVL109
 19164 302f 92000000 		.4byte	.LVL110
 19165 3033 0100     		.2byte	0x1
 19166 3035 50       		.byte	0x50
 19167 3036 92000000 		.4byte	.LVL110
 19168 303a 97000000 		.4byte	.LVL112-1
 19169 303e 0100     		.2byte	0x1
 19170 3040 53       		.byte	0x53
 19171 3041 9E000000 		.4byte	.LVL113
 19172 3045 C2000000 		.4byte	.LFE58
 19173 3049 0100     		.2byte	0x1
 19174 304b 50       		.byte	0x50
 19175 304c 00000000 		.4byte	0
 19176 3050 00000000 		.4byte	0
 19177              	.LLST48:
 19178 3054 BA000000 		.4byte	.LVL118
 19179 3058 C0000000 		.4byte	.LVL120
 19180 305c 0200     		.2byte	0x2
 19181 305e 70       		.byte	0x70
 19182 305f 08       		.sleb128 8
 19183 3060 C0000000 		.4byte	.LVL120
 19184 3064 C2000000 		.4byte	.LFE58
 19185 3068 0100     		.2byte	0x1
 19186 306a 53       		.byte	0x53
 19187 306b 00000000 		.4byte	0
 19188 306f 00000000 		.4byte	0
 19189              	.LLST46:
 19190 3073 A6000000 		.4byte	.LVL114
 19191 3077 B0000000 		.4byte	.LVL116
 19192 307b 0200     		.2byte	0x2
 19193 307d 70       		.byte	0x70
 19194 307e 08       		.sleb128 8
 19195 307f 00000000 		.4byte	0
 19196 3083 00000000 		.4byte	0
 19197              	.LLST47:
 19198 3087 B0000000 		.4byte	.LVL116
 19199 308b BA000000 		.4byte	.LVL118
 19200 308f 0200     		.2byte	0x2
 19201 3091 70       		.byte	0x70
 19202 3092 08       		.sleb128 8
 19203 3093 00000000 		.4byte	0
 19204 3097 00000000 		.4byte	0
 19205              	.LLST45:
 19206 309b 90000000 		.4byte	.LVL109
 19207 309f 92000000 		.4byte	.LVL110
 19208 30a3 0200     		.2byte	0x2
 19209 30a5 70       		.byte	0x70
ARM GAS  /tmp/ccMboyVS.s 			page 338


 19210 30a6 08       		.sleb128 8
 19211 30a7 92000000 		.4byte	.LVL110
 19212 30ab 97000000 		.4byte	.LVL112-1
 19213 30af 0200     		.2byte	0x2
 19214 30b1 73       		.byte	0x73
 19215 30b2 08       		.sleb128 8
 19216 30b3 97000000 		.4byte	.LVL112-1
 19217 30b7 9E000000 		.4byte	.LVL113
 19218 30bb 0100     		.2byte	0x1
 19219 30bd 56       		.byte	0x56
 19220 30be 00000000 		.4byte	0
 19221 30c2 00000000 		.4byte	0
 19222              	.LLST41:
 19223 30c6 0C000000 		.4byte	.LVL96
 19224 30ca 34000000 		.4byte	.LVL99
 19225 30ce 0100     		.2byte	0x1
 19226 30d0 53       		.byte	0x53
 19227 30d1 00000000 		.4byte	0
 19228 30d5 00000000 		.4byte	0
 19229              	.LLST42:
 19230 30d9 0C000000 		.4byte	.LVL96
 19231 30dd 18000000 		.4byte	.LVL97
 19232 30e1 0100     		.2byte	0x1
 19233 30e3 53       		.byte	0x53
 19234 30e4 00000000 		.4byte	0
 19235 30e8 00000000 		.4byte	0
 19236              	.LLST43:
 19237 30ec 42000000 		.4byte	.LVL102
 19238 30f0 44000000 		.4byte	.LVL103
 19239 30f4 0100     		.2byte	0x1
 19240 30f6 55       		.byte	0x55
 19241 30f7 00000000 		.4byte	0
 19242 30fb 00000000 		.4byte	0
 19243              	.LLST0:
 19244 30ff 00000000 		.4byte	.LVL0
 19245 3103 1E000000 		.4byte	.LVL3
 19246 3107 0100     		.2byte	0x1
 19247 3109 50       		.byte	0x50
 19248 310a 1E000000 		.4byte	.LVL3
 19249 310e 26000000 		.4byte	.LVL4
 19250 3112 0400     		.2byte	0x4
 19251 3114 F3       		.byte	0xf3
 19252 3115 01       		.uleb128 0x1
 19253 3116 50       		.byte	0x50
 19254 3117 9F       		.byte	0x9f
 19255 3118 26000000 		.4byte	.LVL4
 19256 311c 32000000 		.4byte	.LVL7
 19257 3120 0100     		.2byte	0x1
 19258 3122 50       		.byte	0x50
 19259 3123 32000000 		.4byte	.LVL7
 19260 3127 74000000 		.4byte	.LVL8
 19261 312b 0100     		.2byte	0x1
 19262 312d 55       		.byte	0x55
 19263 312e 74000000 		.4byte	.LVL8
 19264 3132 8C000000 		.4byte	.LVL9
 19265 3136 0100     		.2byte	0x1
 19266 3138 50       		.byte	0x50
ARM GAS  /tmp/ccMboyVS.s 			page 339


 19267 3139 8C000000 		.4byte	.LVL9
 19268 313d 92000000 		.4byte	.LVL11
 19269 3141 0100     		.2byte	0x1
 19270 3143 55       		.byte	0x55
 19271 3144 92000000 		.4byte	.LVL11
 19272 3148 A2000000 		.4byte	.LVL13
 19273 314c 0400     		.2byte	0x4
 19274 314e F3       		.byte	0xf3
 19275 314f 01       		.uleb128 0x1
 19276 3150 50       		.byte	0x50
 19277 3151 9F       		.byte	0x9f
 19278 3152 A2000000 		.4byte	.LVL13
 19279 3156 B0000000 		.4byte	.LVL15
 19280 315a 0100     		.2byte	0x1
 19281 315c 55       		.byte	0x55
 19282 315d B0000000 		.4byte	.LVL15
 19283 3161 BF000000 		.4byte	.LVL17-1
 19284 3165 0100     		.2byte	0x1
 19285 3167 50       		.byte	0x50
 19286 3168 BF000000 		.4byte	.LVL17-1
 19287 316c C2000000 		.4byte	.LVL18
 19288 3170 0100     		.2byte	0x1
 19289 3172 55       		.byte	0x55
 19290 3173 C2000000 		.4byte	.LVL18
 19291 3177 FC000000 		.4byte	.LVL23
 19292 317b 0400     		.2byte	0x4
 19293 317d F3       		.byte	0xf3
 19294 317e 01       		.uleb128 0x1
 19295 317f 50       		.byte	0x50
 19296 3180 9F       		.byte	0x9f
 19297 3181 FC000000 		.4byte	.LVL23
 19298 3185 1C010000 		.4byte	.LVL25
 19299 3189 0100     		.2byte	0x1
 19300 318b 55       		.byte	0x55
 19301 318c 1C010000 		.4byte	.LVL25
 19302 3190 1F010000 		.4byte	.LVL26-1
 19303 3194 0100     		.2byte	0x1
 19304 3196 50       		.byte	0x50
 19305 3197 1F010000 		.4byte	.LVL26-1
 19306 319b 46010000 		.4byte	.LVL28
 19307 319f 0100     		.2byte	0x1
 19308 31a1 55       		.byte	0x55
 19309 31a2 46010000 		.4byte	.LVL28
 19310 31a6 49010000 		.4byte	.LVL29-1
 19311 31aa 0100     		.2byte	0x1
 19312 31ac 50       		.byte	0x50
 19313 31ad 49010000 		.4byte	.LVL29-1
 19314 31b1 68010000 		.4byte	.LVL33
 19315 31b5 0100     		.2byte	0x1
 19316 31b7 55       		.byte	0x55
 19317 31b8 68010000 		.4byte	.LVL33
 19318 31bc 8C010000 		.4byte	.LFE52
 19319 31c0 0400     		.2byte	0x4
 19320 31c2 F3       		.byte	0xf3
 19321 31c3 01       		.uleb128 0x1
 19322 31c4 50       		.byte	0x50
 19323 31c5 9F       		.byte	0x9f
ARM GAS  /tmp/ccMboyVS.s 			page 340


 19324 31c6 00000000 		.4byte	0
 19325 31ca 00000000 		.4byte	0
 19326              	.LLST1:
 19327 31ce 00000000 		.4byte	.LVL0
 19328 31d2 1E000000 		.4byte	.LVL3
 19329 31d6 0100     		.2byte	0x1
 19330 31d8 51       		.byte	0x51
 19331 31d9 1E000000 		.4byte	.LVL3
 19332 31dd 26000000 		.4byte	.LVL4
 19333 31e1 0400     		.2byte	0x4
 19334 31e3 F3       		.byte	0xf3
 19335 31e4 01       		.uleb128 0x1
 19336 31e5 51       		.byte	0x51
 19337 31e6 9F       		.byte	0x9f
 19338 31e7 26000000 		.4byte	.LVL4
 19339 31eb 8F000000 		.4byte	.LVL10-1
 19340 31ef 0100     		.2byte	0x1
 19341 31f1 51       		.byte	0x51
 19342 31f2 8F000000 		.4byte	.LVL10-1
 19343 31f6 A2000000 		.4byte	.LVL13
 19344 31fa 0100     		.2byte	0x1
 19345 31fc 54       		.byte	0x54
 19346 31fd A2000000 		.4byte	.LVL13
 19347 3201 A4000000 		.4byte	.LVL14
 19348 3205 0100     		.2byte	0x1
 19349 3207 51       		.byte	0x51
 19350 3208 A4000000 		.4byte	.LVL14
 19351 320c B0000000 		.4byte	.LVL15
 19352 3210 0400     		.2byte	0x4
 19353 3212 F3       		.byte	0xf3
 19354 3213 01       		.uleb128 0x1
 19355 3214 51       		.byte	0x51
 19356 3215 9F       		.byte	0x9f
 19357 3216 B0000000 		.4byte	.LVL15
 19358 321a BF000000 		.4byte	.LVL17-1
 19359 321e 0100     		.2byte	0x1
 19360 3220 51       		.byte	0x51
 19361 3221 BF000000 		.4byte	.LVL17-1
 19362 3225 FC000000 		.4byte	.LVL23
 19363 3229 0100     		.2byte	0x1
 19364 322b 54       		.byte	0x54
 19365 322c FC000000 		.4byte	.LVL23
 19366 3230 0E010000 		.4byte	.LVL24
 19367 3234 0100     		.2byte	0x1
 19368 3236 51       		.byte	0x51
 19369 3237 0E010000 		.4byte	.LVL24
 19370 323b 1C010000 		.4byte	.LVL25
 19371 323f 0400     		.2byte	0x4
 19372 3241 F3       		.byte	0xf3
 19373 3242 01       		.uleb128 0x1
 19374 3243 51       		.byte	0x51
 19375 3244 9F       		.byte	0x9f
 19376 3245 1C010000 		.4byte	.LVL25
 19377 3249 1F010000 		.4byte	.LVL26-1
 19378 324d 0100     		.2byte	0x1
 19379 324f 51       		.byte	0x51
 19380 3250 1F010000 		.4byte	.LVL26-1
ARM GAS  /tmp/ccMboyVS.s 			page 341


 19381 3254 46010000 		.4byte	.LVL28
 19382 3258 0100     		.2byte	0x1
 19383 325a 54       		.byte	0x54
 19384 325b 46010000 		.4byte	.LVL28
 19385 325f 49010000 		.4byte	.LVL29-1
 19386 3263 0100     		.2byte	0x1
 19387 3265 51       		.byte	0x51
 19388 3266 49010000 		.4byte	.LVL29-1
 19389 326a 8C010000 		.4byte	.LFE52
 19390 326e 0100     		.2byte	0x1
 19391 3270 54       		.byte	0x54
 19392 3271 00000000 		.4byte	0
 19393 3275 00000000 		.4byte	0
 19394              	.LLST2:
 19395 3279 12000000 		.4byte	.LVL1
 19396 327d 16000000 		.4byte	.LVL2
 19397 3281 0100     		.2byte	0x1
 19398 3283 51       		.byte	0x51
 19399 3284 00000000 		.4byte	0
 19400 3288 00000000 		.4byte	0
 19401              	.LLST3:
 19402 328c 2A000000 		.4byte	.LVL5
 19403 3290 2E000000 		.4byte	.LVL6
 19404 3294 0100     		.2byte	0x1
 19405 3296 50       		.byte	0x50
 19406 3297 00000000 		.4byte	0
 19407 329b 00000000 		.4byte	0
 19408              	.LLST4:
 19409 329f BC000000 		.4byte	.LVL16
 19410 32a3 BF000000 		.4byte	.LVL17-1
 19411 32a7 0100     		.2byte	0x1
 19412 32a9 51       		.byte	0x51
 19413 32aa BF000000 		.4byte	.LVL17-1
 19414 32ae FC000000 		.4byte	.LVL23
 19415 32b2 0100     		.2byte	0x1
 19416 32b4 54       		.byte	0x54
 19417 32b5 78010000 		.4byte	.LVL36
 19418 32b9 8C010000 		.4byte	.LFE52
 19419 32bd 0100     		.2byte	0x1
 19420 32bf 54       		.byte	0x54
 19421 32c0 00000000 		.4byte	0
 19422 32c4 00000000 		.4byte	0
 19423              	.LLST5:
 19424 32c8 C2000000 		.4byte	.LVL18
 19425 32cc C4000000 		.4byte	.LVL19
 19426 32d0 0100     		.2byte	0x1
 19427 32d2 50       		.byte	0x50
 19428 32d3 C4000000 		.4byte	.LVL19
 19429 32d7 FC000000 		.4byte	.LVL23
 19430 32db 0100     		.2byte	0x1
 19431 32dd 55       		.byte	0x55
 19432 32de 78010000 		.4byte	.LVL36
 19433 32e2 8C010000 		.4byte	.LFE52
 19434 32e6 0100     		.2byte	0x1
 19435 32e8 55       		.byte	0x55
 19436 32e9 00000000 		.4byte	0
 19437 32ed 00000000 		.4byte	0
ARM GAS  /tmp/ccMboyVS.s 			page 342


 19438              	.LLST6:
 19439 32f1 C8000000 		.4byte	.LVL20
 19440 32f5 F0000000 		.4byte	.LVL21
 19441 32f9 0100     		.2byte	0x1
 19442 32fb 50       		.byte	0x50
 19443 32fc 78010000 		.4byte	.LVL36
 19444 3300 8C010000 		.4byte	.LFE52
 19445 3304 0100     		.2byte	0x1
 19446 3306 50       		.byte	0x50
 19447 3307 00000000 		.4byte	0
 19448 330b 00000000 		.4byte	0
 19449              	.LLST7:
 19450 330f 00000000 		.4byte	.LVL37
 19451 3313 3E000000 		.4byte	.LVL44
 19452 3317 0100     		.2byte	0x1
 19453 3319 50       		.byte	0x50
 19454 331a 3E000000 		.4byte	.LVL44
 19455 331e 42000000 		.4byte	.LVL45
 19456 3322 0400     		.2byte	0x4
 19457 3324 F3       		.byte	0xf3
 19458 3325 01       		.uleb128 0x1
 19459 3326 50       		.byte	0x50
 19460 3327 9F       		.byte	0x9f
 19461 3328 42000000 		.4byte	.LVL45
 19462 332c 6C000000 		.4byte	.LVL48
 19463 3330 0100     		.2byte	0x1
 19464 3332 50       		.byte	0x50
 19465 3333 6C000000 		.4byte	.LVL48
 19466 3337 71000000 		.4byte	.LVL50-1
 19467 333b 0100     		.2byte	0x1
 19468 333d 52       		.byte	0x52
 19469 333e 71000000 		.4byte	.LVL50-1
 19470 3342 9E000000 		.4byte	.LVL57
 19471 3346 0400     		.2byte	0x4
 19472 3348 F3       		.byte	0xf3
 19473 3349 01       		.uleb128 0x1
 19474 334a 50       		.byte	0x50
 19475 334b 9F       		.byte	0x9f
 19476 334c 9E000000 		.4byte	.LVL57
 19477 3350 A4000000 		.4byte	.LVL58
 19478 3354 0100     		.2byte	0x1
 19479 3356 50       		.byte	0x50
 19480 3357 A4000000 		.4byte	.LVL58
 19481 335b CE010000 		.4byte	.LFE61
 19482 335f 0400     		.2byte	0x4
 19483 3361 F3       		.byte	0xf3
 19484 3362 01       		.uleb128 0x1
 19485 3363 50       		.byte	0x50
 19486 3364 9F       		.byte	0x9f
 19487 3365 00000000 		.4byte	0
 19488 3369 00000000 		.4byte	0
 19489              	.LLST8:
 19490 336d 00000000 		.4byte	.LVL37
 19491 3371 1E000000 		.4byte	.LVL42
 19492 3375 0100     		.2byte	0x1
 19493 3377 51       		.byte	0x51
 19494 3378 1E000000 		.4byte	.LVL42
ARM GAS  /tmp/ccMboyVS.s 			page 343


 19495 337c CE010000 		.4byte	.LFE61
 19496 3380 0400     		.2byte	0x4
 19497 3382 F3       		.byte	0xf3
 19498 3383 01       		.uleb128 0x1
 19499 3384 51       		.byte	0x51
 19500 3385 9F       		.byte	0x9f
 19501 3386 00000000 		.4byte	0
 19502 338a 00000000 		.4byte	0
 19503              	.LLST9:
 19504 338e 00000000 		.4byte	.LVL37
 19505 3392 3E000000 		.4byte	.LVL44
 19506 3396 0100     		.2byte	0x1
 19507 3398 52       		.byte	0x52
 19508 3399 3E000000 		.4byte	.LVL44
 19509 339d 42000000 		.4byte	.LVL45
 19510 33a1 0400     		.2byte	0x4
 19511 33a3 F3       		.byte	0xf3
 19512 33a4 01       		.uleb128 0x1
 19513 33a5 52       		.byte	0x52
 19514 33a6 9F       		.byte	0x9f
 19515 33a7 42000000 		.4byte	.LVL45
 19516 33ab 6A000000 		.4byte	.LVL47
 19517 33af 0100     		.2byte	0x1
 19518 33b1 52       		.byte	0x52
 19519 33b2 6A000000 		.4byte	.LVL47
 19520 33b6 9E000000 		.4byte	.LVL57
 19521 33ba 0100     		.2byte	0x1
 19522 33bc 56       		.byte	0x56
 19523 33bd 9E000000 		.4byte	.LVL57
 19524 33c1 A4000000 		.4byte	.LVL58
 19525 33c5 0100     		.2byte	0x1
 19526 33c7 52       		.byte	0x52
 19527 33c8 A4000000 		.4byte	.LVL58
 19528 33cc CE010000 		.4byte	.LFE61
 19529 33d0 0100     		.2byte	0x1
 19530 33d2 56       		.byte	0x56
 19531 33d3 00000000 		.4byte	0
 19532 33d7 00000000 		.4byte	0
 19533              	.LLST10:
 19534 33db 00000000 		.4byte	.LVL37
 19535 33df 3E000000 		.4byte	.LVL44
 19536 33e3 0200     		.2byte	0x2
 19537 33e5 70       		.byte	0x70
 19538 33e6 00       		.sleb128 0
 19539 33e7 42000000 		.4byte	.LVL45
 19540 33eb 6C000000 		.4byte	.LVL48
 19541 33ef 0200     		.2byte	0x2
 19542 33f1 70       		.byte	0x70
 19543 33f2 00       		.sleb128 0
 19544 33f3 6C000000 		.4byte	.LVL48
 19545 33f7 71000000 		.4byte	.LVL50-1
 19546 33fb 0200     		.2byte	0x2
 19547 33fd 72       		.byte	0x72
 19548 33fe 00       		.sleb128 0
 19549 33ff 9E000000 		.4byte	.LVL57
 19550 3403 A4000000 		.4byte	.LVL58
 19551 3407 0200     		.2byte	0x2
ARM GAS  /tmp/ccMboyVS.s 			page 344


 19552 3409 70       		.byte	0x70
 19553 340a 00       		.sleb128 0
 19554 340b 00000000 		.4byte	0
 19555 340f 00000000 		.4byte	0
 19556              	.LLST11:
 19557 3413 06000000 		.4byte	.LVL38
 19558 3417 3E000000 		.4byte	.LVL44
 19559 341b 0100     		.2byte	0x1
 19560 341d 53       		.byte	0x53
 19561 341e 42000000 		.4byte	.LVL45
 19562 3422 71000000 		.4byte	.LVL50-1
 19563 3426 0100     		.2byte	0x1
 19564 3428 53       		.byte	0x53
 19565 3429 9E000000 		.4byte	.LVL57
 19566 342d A4000000 		.4byte	.LVL58
 19567 3431 0100     		.2byte	0x1
 19568 3433 53       		.byte	0x53
 19569 3434 00000000 		.4byte	0
 19570 3438 00000000 		.4byte	0
 19571              	.LLST12:
 19572 343c 06000000 		.4byte	.LVL38
 19573 3440 0C000000 		.4byte	.LVL39
 19574 3444 0100     		.2byte	0x1
 19575 3446 53       		.byte	0x53
 19576 3447 0C000000 		.4byte	.LVL39
 19577 344b 12000000 		.4byte	.LVL40
 19578 344f 0100     		.2byte	0x1
 19579 3451 54       		.byte	0x54
 19580 3452 16000000 		.4byte	.LVL41
 19581 3456 3E000000 		.4byte	.LVL44
 19582 345a 0100     		.2byte	0x1
 19583 345c 54       		.byte	0x54
 19584 345d 42000000 		.4byte	.LVL45
 19585 3461 7E000000 		.4byte	.LVL54
 19586 3465 0100     		.2byte	0x1
 19587 3467 54       		.byte	0x54
 19588 3468 9E000000 		.4byte	.LVL57
 19589 346c A4000000 		.4byte	.LVL58
 19590 3470 0100     		.2byte	0x1
 19591 3472 54       		.byte	0x54
 19592 3473 00000000 		.4byte	0
 19593 3477 00000000 		.4byte	0
 19594              	.LLST13:
 19595 347b BC000000 		.4byte	.LVL61
 19596 347f C8000000 		.4byte	.LVL62
 19597 3483 0200     		.2byte	0x2
 19598 3485 30       		.byte	0x30
 19599 3486 9F       		.byte	0x9f
 19600 3487 20010000 		.4byte	.LVL69
 19601 348b 24010000 		.4byte	.LVL70
 19602 348f 0100     		.2byte	0x1
 19603 3491 50       		.byte	0x50
 19604 3492 00000000 		.4byte	0
 19605 3496 00000000 		.4byte	0
 19606              	.LLST14:
 19607 349a BC000000 		.4byte	.LVL61
 19608 349e E6000000 		.4byte	.LVL63
ARM GAS  /tmp/ccMboyVS.s 			page 345


 19609 34a2 0300     		.2byte	0x3
 19610 34a4 08       		.byte	0x8
 19611 34a5 90       		.byte	0x90
 19612 34a6 9F       		.byte	0x9f
 19613 34a7 00010000 		.4byte	.LVL65
 19614 34ab 12010000 		.4byte	.LVL67
 19615 34af 0300     		.2byte	0x3
 19616 34b1 08       		.byte	0x8
 19617 34b2 90       		.byte	0x90
 19618 34b3 9F       		.byte	0x9f
 19619 34b4 12010000 		.4byte	.LVL67
 19620 34b8 18010000 		.4byte	.LVL68
 19621 34bc 0100     		.2byte	0x1
 19622 34be 55       		.byte	0x55
 19623 34bf 24010000 		.4byte	.LVL70
 19624 34c3 2E010000 		.4byte	.LVL71
 19625 34c7 0300     		.2byte	0x3
 19626 34c9 08       		.byte	0x8
 19627 34ca 90       		.byte	0x90
 19628 34cb 9F       		.byte	0x9f
 19629 34cc 30010000 		.4byte	.LVL72
 19630 34d0 3C010000 		.4byte	.LVL73
 19631 34d4 0300     		.2byte	0x3
 19632 34d6 08       		.byte	0x8
 19633 34d7 90       		.byte	0x90
 19634 34d8 9F       		.byte	0x9f
 19635 34d9 3C010000 		.4byte	.LVL73
 19636 34dd 52010000 		.4byte	.LVL75
 19637 34e1 0100     		.2byte	0x1
 19638 34e3 50       		.byte	0x50
 19639 34e4 60010000 		.4byte	.LVL77
 19640 34e8 6C010000 		.4byte	.LVL78
 19641 34ec 0300     		.2byte	0x3
 19642 34ee 08       		.byte	0x8
 19643 34ef 90       		.byte	0x90
 19644 34f0 9F       		.byte	0x9f
 19645 34f1 6C010000 		.4byte	.LVL78
 19646 34f5 84010000 		.4byte	.LVL81
 19647 34f9 0100     		.2byte	0x1
 19648 34fb 50       		.byte	0x50
 19649 34fc 92010000 		.4byte	.LVL83
 19650 3500 9C010000 		.4byte	.LVL84
 19651 3504 0300     		.2byte	0x3
 19652 3506 08       		.byte	0x8
 19653 3507 90       		.byte	0x90
 19654 3508 9F       		.byte	0x9f
 19655 3509 9E010000 		.4byte	.LVL85
 19656 350d AA010000 		.4byte	.LVL86
 19657 3511 0300     		.2byte	0x3
 19658 3513 08       		.byte	0x8
 19659 3514 90       		.byte	0x90
 19660 3515 9F       		.byte	0x9f
 19661 3516 AA010000 		.4byte	.LVL86
 19662 351a C0010000 		.4byte	.LVL88
 19663 351e 0100     		.2byte	0x1
 19664 3520 50       		.byte	0x50
 19665 3521 00000000 		.4byte	0
ARM GAS  /tmp/ccMboyVS.s 			page 346


 19666 3525 00000000 		.4byte	0
 19667              	.LLST15:
 19668 3529 06000000 		.4byte	.LVL38
 19669 352d 0C000000 		.4byte	.LVL39
 19670 3531 0200     		.2byte	0x2
 19671 3533 30       		.byte	0x30
 19672 3534 9F       		.byte	0x9f
 19673 3535 0C000000 		.4byte	.LVL39
 19674 3539 16000000 		.4byte	.LVL41
 19675 353d 0200     		.2byte	0x2
 19676 353f 31       		.byte	0x31
 19677 3540 9F       		.byte	0x9f
 19678 3541 16000000 		.4byte	.LVL41
 19679 3545 CE010000 		.4byte	.LFE61
 19680 3549 0100     		.2byte	0x1
 19681 354b 58       		.byte	0x58
 19682 354c 00000000 		.4byte	0
 19683 3550 00000000 		.4byte	0
 19684              	.LLST16:
 19685 3554 74000000 		.4byte	.LVL51
 19686 3558 76000000 		.4byte	.LVL52
 19687 355c 0100     		.2byte	0x1
 19688 355e 50       		.byte	0x50
 19689 355f 76000000 		.4byte	.LVL52
 19690 3563 9E000000 		.4byte	.LVL57
 19691 3567 0100     		.2byte	0x1
 19692 3569 57       		.byte	0x57
 19693 356a A4000000 		.4byte	.LVL58
 19694 356e CE010000 		.4byte	.LFE61
 19695 3572 0100     		.2byte	0x1
 19696 3574 57       		.byte	0x57
 19697 3575 00000000 		.4byte	0
 19698 3579 00000000 		.4byte	0
 19699              	.LLST17:
 19700 357d 7E000000 		.4byte	.LVL54
 19701 3581 86000000 		.4byte	.LVL55
 19702 3585 0100     		.2byte	0x1
 19703 3587 50       		.byte	0x50
 19704 3588 86000000 		.4byte	.LVL55
 19705 358c 90000000 		.4byte	.LVL56
 19706 3590 0100     		.2byte	0x1
 19707 3592 54       		.byte	0x54
 19708 3593 A4000000 		.4byte	.LVL58
 19709 3597 C8000000 		.4byte	.LVL62
 19710 359b 0100     		.2byte	0x1
 19711 359d 54       		.byte	0x54
 19712 359e 00000000 		.4byte	0
 19713 35a2 00000000 		.4byte	0
 19714              	.LLST18:
 19715 35a6 16000000 		.4byte	.LVL41
 19716 35aa 3E000000 		.4byte	.LVL44
 19717 35ae 0100     		.2byte	0x1
 19718 35b0 53       		.byte	0x53
 19719 35b1 00000000 		.4byte	0
 19720 35b5 00000000 		.4byte	0
 19721              	.LLST19:
 19722 35b9 16000000 		.4byte	.LVL41
ARM GAS  /tmp/ccMboyVS.s 			page 347


 19723 35bd 22000000 		.4byte	.LVL43
 19724 35c1 0100     		.2byte	0x1
 19725 35c3 53       		.byte	0x53
 19726 35c4 00000000 		.4byte	0
 19727 35c8 00000000 		.4byte	0
 19728              	.LLST20:
 19729 35cc 42000000 		.4byte	.LVL45
 19730 35d0 6E000000 		.4byte	.LVL49
 19731 35d4 0100     		.2byte	0x1
 19732 35d6 54       		.byte	0x54
 19733 35d7 9E000000 		.4byte	.LVL57
 19734 35db A4000000 		.4byte	.LVL58
 19735 35df 0100     		.2byte	0x1
 19736 35e1 54       		.byte	0x54
 19737 35e2 00000000 		.4byte	0
 19738 35e6 00000000 		.4byte	0
 19739              	.LLST21:
 19740 35ea 42000000 		.4byte	.LVL45
 19741 35ee 4A000000 		.4byte	.LVL46
 19742 35f2 0100     		.2byte	0x1
 19743 35f4 54       		.byte	0x54
 19744 35f5 9E000000 		.4byte	.LVL57
 19745 35f9 A4000000 		.4byte	.LVL58
 19746 35fd 0100     		.2byte	0x1
 19747 35ff 54       		.byte	0x54
 19748 3600 00000000 		.4byte	0
 19749 3604 00000000 		.4byte	0
 19750              	.LLST22:
 19751 3608 B8000000 		.4byte	.LVL60
 19752 360c C8000000 		.4byte	.LVL62
 19753 3610 0100     		.2byte	0x1
 19754 3612 50       		.byte	0x50
 19755 3613 C8000000 		.4byte	.LVL62
 19756 3617 CE010000 		.4byte	.LFE61
 19757 361b 0100     		.2byte	0x1
 19758 361d 5A       		.byte	0x5a
 19759 361e 00000000 		.4byte	0
 19760 3622 00000000 		.4byte	0
 19761              	.LLST23:
 19762 3626 08010000 		.4byte	.LVL66
 19763 362a 12010000 		.4byte	.LVL67
 19764 362e 0700     		.2byte	0x7
 19765 3630 74       		.byte	0x74
 19766 3631 00       		.sleb128 0
 19767 3632 32       		.byte	0x32
 19768 3633 24       		.byte	0x24
 19769 3634 79       		.byte	0x79
 19770 3635 00       		.sleb128 0
 19771 3636 22       		.byte	0x22
 19772 3637 00000000 		.4byte	0
 19773 363b 00000000 		.4byte	0
 19774              	.LLST24:
 19775 363f 24010000 		.4byte	.LVL70
 19776 3643 2E010000 		.4byte	.LVL71
 19777 3647 0500     		.2byte	0x5
 19778 3649 79       		.byte	0x79
 19779 364a 00       		.sleb128 0
ARM GAS  /tmp/ccMboyVS.s 			page 348


 19780 364b 74       		.byte	0x74
 19781 364c 00       		.sleb128 0
 19782 364d 22       		.byte	0x22
 19783 364e 00000000 		.4byte	0
 19784 3652 00000000 		.4byte	0
 19785              	.LLST25:
 19786 3656 4E010000 		.4byte	.LVL74
 19787 365a 5E010000 		.4byte	.LVL76
 19788 365e 0400     		.2byte	0x4
 19789 3660 40       		.byte	0x40
 19790 3661 49       		.byte	0x49
 19791 3662 24       		.byte	0x24
 19792 3663 9F       		.byte	0x9f
 19793 3664 00000000 		.4byte	0
 19794 3668 00000000 		.4byte	0
 19795              	.LLST26:
 19796 366c 4E010000 		.4byte	.LVL74
 19797 3670 52010000 		.4byte	.LVL75
 19798 3674 0100     		.2byte	0x1
 19799 3676 50       		.byte	0x50
 19800 3677 00000000 		.4byte	0
 19801 367b 00000000 		.4byte	0
 19802              	.LLST27:
 19803 367f 80010000 		.4byte	.LVL80
 19804 3683 90010000 		.4byte	.LVL82
 19805 3687 0400     		.2byte	0x4
 19806 3689 40       		.byte	0x40
 19807 368a 4A       		.byte	0x4a
 19808 368b 24       		.byte	0x24
 19809 368c 9F       		.byte	0x9f
 19810 368d 00000000 		.4byte	0
 19811 3691 00000000 		.4byte	0
 19812              	.LLST28:
 19813 3695 80010000 		.4byte	.LVL80
 19814 3699 84010000 		.4byte	.LVL81
 19815 369d 0100     		.2byte	0x1
 19816 369f 50       		.byte	0x50
 19817 36a0 00000000 		.4byte	0
 19818 36a4 00000000 		.4byte	0
 19819              	.LLST29:
 19820 36a8 92010000 		.4byte	.LVL83
 19821 36ac 9C010000 		.4byte	.LVL84
 19822 36b0 0700     		.2byte	0x7
 19823 36b2 74       		.byte	0x74
 19824 36b3 00       		.sleb128 0
 19825 36b4 32       		.byte	0x32
 19826 36b5 24       		.byte	0x24
 19827 36b6 79       		.byte	0x79
 19828 36b7 00       		.sleb128 0
 19829 36b8 22       		.byte	0x22
 19830 36b9 00000000 		.4byte	0
 19831 36bd 00000000 		.4byte	0
 19832              	.LLST30:
 19833 36c1 BC010000 		.4byte	.LVL87
 19834 36c5 CC010000 		.4byte	.LVL89
 19835 36c9 0400     		.2byte	0x4
 19836 36cb 48       		.byte	0x48
ARM GAS  /tmp/ccMboyVS.s 			page 349


 19837 36cc 49       		.byte	0x49
 19838 36cd 24       		.byte	0x24
 19839 36ce 9F       		.byte	0x9f
 19840 36cf 00000000 		.4byte	0
 19841 36d3 00000000 		.4byte	0
 19842              	.LLST31:
 19843 36d7 BC010000 		.4byte	.LVL87
 19844 36db C0010000 		.4byte	.LVL88
 19845 36df 0100     		.2byte	0x1
 19846 36e1 50       		.byte	0x50
 19847 36e2 00000000 		.4byte	0
 19848 36e6 00000000 		.4byte	0
 19849              	.LLST32:
 19850 36ea 00000000 		.4byte	.LVL90
 19851 36ee 07000000 		.4byte	.LVL91-1
 19852 36f2 0100     		.2byte	0x1
 19853 36f4 50       		.byte	0x50
 19854 36f5 07000000 		.4byte	.LVL91-1
 19855 36f9 08000000 		.4byte	.LVL91
 19856 36fd 0400     		.2byte	0x4
 19857 36ff F3       		.byte	0xf3
 19858 3700 01       		.uleb128 0x1
 19859 3701 50       		.byte	0x50
 19860 3702 9F       		.byte	0x9f
 19861 3703 08000000 		.4byte	.LVL91
 19862 3707 0A000000 		.4byte	.LFE57
 19863 370b 0100     		.2byte	0x1
 19864 370d 50       		.byte	0x50
 19865 370e 00000000 		.4byte	0
 19866 3712 00000000 		.4byte	0
 19867              	.LLST33:
 19868 3716 00000000 		.4byte	.LVL90
 19869 371a 07000000 		.4byte	.LVL91-1
 19870 371e 0100     		.2byte	0x1
 19871 3720 51       		.byte	0x51
 19872 3721 07000000 		.4byte	.LVL91-1
 19873 3725 08000000 		.4byte	.LVL91
 19874 3729 0400     		.2byte	0x4
 19875 372b F3       		.byte	0xf3
 19876 372c 01       		.uleb128 0x1
 19877 372d 51       		.byte	0x51
 19878 372e 9F       		.byte	0x9f
 19879 372f 08000000 		.4byte	.LVL91
 19880 3733 0A000000 		.4byte	.LFE57
 19881 3737 0100     		.2byte	0x1
 19882 3739 51       		.byte	0x51
 19883 373a 00000000 		.4byte	0
 19884 373e 00000000 		.4byte	0
 19885              	.LLST34:
 19886 3742 00000000 		.4byte	.LVL90
 19887 3746 07000000 		.4byte	.LVL91-1
 19888 374a 0100     		.2byte	0x1
 19889 374c 52       		.byte	0x52
 19890 374d 07000000 		.4byte	.LVL91-1
 19891 3751 08000000 		.4byte	.LVL91
 19892 3755 0400     		.2byte	0x4
 19893 3757 F3       		.byte	0xf3
ARM GAS  /tmp/ccMboyVS.s 			page 350


 19894 3758 01       		.uleb128 0x1
 19895 3759 52       		.byte	0x52
 19896 375a 9F       		.byte	0x9f
 19897 375b 08000000 		.4byte	.LVL91
 19898 375f 0A000000 		.4byte	.LFE57
 19899 3763 0100     		.2byte	0x1
 19900 3765 52       		.byte	0x52
 19901 3766 00000000 		.4byte	0
 19902 376a 00000000 		.4byte	0
 19903              		.section	.debug_aranges,"",%progbits
 19904 0000 44000000 		.4byte	0x44
 19905 0004 0200     		.2byte	0x2
 19906 0006 00000000 		.4byte	.Ldebug_info0
 19907 000a 04       		.byte	0x4
 19908 000b 00       		.byte	0
 19909 000c 0000     		.2byte	0
 19910 000e 0000     		.2byte	0
 19911 0010 00000000 		.4byte	.LFB52
 19912 0014 8C010000 		.4byte	.LFE52-.LFB52
 19913 0018 00000000 		.4byte	.LFB61
 19914 001c CE010000 		.4byte	.LFE61-.LFB61
 19915 0020 00000000 		.4byte	.LFB57
 19916 0024 0A000000 		.4byte	.LFE57-.LFB57
 19917 0028 00000000 		.4byte	.LFB58
 19918 002c C2000000 		.4byte	.LFE58-.LFB58
 19919 0030 00000000 		.4byte	.LFB59
 19920 0034 3E000000 		.4byte	.LFE59-.LFB59
 19921 0038 00000000 		.4byte	.LFB60
 19922 003c EA150000 		.4byte	.LFE60-.LFB60
 19923 0040 00000000 		.4byte	0
 19924 0044 00000000 		.4byte	0
 19925              		.section	.debug_ranges,"",%progbits
 19926              	.Ldebug_ranges0:
 19927 0000 BC000000 		.4byte	.LBB677
 19928 0004 FC000000 		.4byte	.LBE677
 19929 0008 78010000 		.4byte	.LBB682
 19930 000c 8C010000 		.4byte	.LBE682
 19931 0010 00000000 		.4byte	0
 19932 0014 00000000 		.4byte	0
 19933 0018 42000000 		.4byte	.LBB687
 19934 001c 6A000000 		.4byte	.LBE687
 19935 0020 9E000000 		.4byte	.LBB697
 19936 0024 A4000000 		.4byte	.LBE697
 19937 0028 00000000 		.4byte	0
 19938 002c 00000000 		.4byte	0
 19939 0030 42000000 		.4byte	.LBB689
 19940 0034 4A000000 		.4byte	.LBE689
 19941 0038 9E000000 		.4byte	.LBB692
 19942 003c A4000000 		.4byte	.LBE692
 19943 0040 00000000 		.4byte	0
 19944 0044 00000000 		.4byte	0
 19945 0048 86000000 		.4byte	.LBB694
 19946 004c 8A000000 		.4byte	.LBE694
 19947 0050 A4000000 		.4byte	.LBB698
 19948 0054 A8000000 		.4byte	.LBE698
 19949 0058 00000000 		.4byte	0
 19950 005c 00000000 		.4byte	0
ARM GAS  /tmp/ccMboyVS.s 			page 351


 19951 0060 AE000000 		.4byte	.LBB699
 19952 0064 C4000000 		.4byte	.LBE699
 19953 0068 C8000000 		.4byte	.LBB721
 19954 006c CE010000 		.4byte	.LBE721
 19955 0070 00000000 		.4byte	0
 19956 0074 00000000 		.4byte	0
 19957 0078 B4000000 		.4byte	.LBB700
 19958 007c B6000000 		.4byte	.LBE700
 19959 0080 BC000000 		.4byte	.LBB719
 19960 0084 C4000000 		.4byte	.LBE719
 19961 0088 C8000000 		.4byte	.LBB720
 19962 008c CE010000 		.4byte	.LBE720
 19963 0090 00000000 		.4byte	0
 19964 0094 00000000 		.4byte	0
 19965 0098 3E000000 		.4byte	.LBB726
 19966 009c 40000000 		.4byte	.LBE726
 19967 00a0 42000000 		.4byte	.LBB729
 19968 00a4 48000000 		.4byte	.LBE729
 19969 00a8 00000000 		.4byte	0
 19970 00ac 00000000 		.4byte	0
 19971 00b0 4E000000 		.4byte	.LBB730
 19972 00b4 6C000000 		.4byte	.LBE730
 19973 00b8 6E000000 		.4byte	.LBB745
 19974 00bc 8E000000 		.4byte	.LBE745
 19975 00c0 90000000 		.4byte	.LBB746
 19976 00c4 C2000000 		.4byte	.LBE746
 19977 00c8 00000000 		.4byte	0
 19978 00cc 00000000 		.4byte	0
 19979 00d0 54000000 		.4byte	.LBB731
 19980 00d4 56000000 		.4byte	.LBE731
 19981 00d8 58000000 		.4byte	.LBB734
 19982 00dc 62000000 		.4byte	.LBE734
 19983 00e0 00000000 		.4byte	0
 19984 00e4 00000000 		.4byte	0
 19985 00e8 00000000 		.4byte	.LBB747
 19986 00ec 04000000 		.4byte	.LBE747
 19987 00f0 08000000 		.4byte	.LBB752
 19988 00f4 0C000000 		.4byte	.LBE752
 19989 00f8 1C000000 		.4byte	.LBB753
 19990 00fc 22000000 		.4byte	.LBE753
 19991 0100 26000000 		.4byte	.LBB754
 19992 0104 28000000 		.4byte	.LBE754
 19993 0108 00000000 		.4byte	0
 19994 010c 00000000 		.4byte	0
 19995 0110 24020000 		.4byte	.LBB1143
 19996 0114 60020000 		.4byte	.LBE1143
 19997 0118 6C020000 		.4byte	.LBB1919
 19998 011c 02050000 		.4byte	.LBE1919
 19999 0120 06050000 		.4byte	.LBB1920
 20000 0124 62050000 		.4byte	.LBE1920
 20001 0128 64050000 		.4byte	.LBB1921
 20002 012c BC050000 		.4byte	.LBE1921
 20003 0130 C6050000 		.4byte	.LBB1922
 20004 0134 EA150000 		.4byte	.LBE1922
 20005 0138 00000000 		.4byte	0
 20006 013c 00000000 		.4byte	0
 20007 0140 28020000 		.4byte	.LBB1144
ARM GAS  /tmp/ccMboyVS.s 			page 352


 20008 0144 5E020000 		.4byte	.LBE1144
 20009 0148 D4070000 		.4byte	.LBB1755
 20010 014c 1A080000 		.4byte	.LBE1755
 20011 0150 86080000 		.4byte	.LBB1760
 20012 0154 14090000 		.4byte	.LBE1760
 20013 0158 BC100000 		.4byte	.LBB1863
 20014 015c FE100000 		.4byte	.LBE1863
 20015 0160 EE110000 		.4byte	.LBB1871
 20016 0164 2C120000 		.4byte	.LBE1871
 20017 0168 22130000 		.4byte	.LBB1879
 20018 016c 30130000 		.4byte	.LBE1879
 20019 0170 00000000 		.4byte	0
 20020 0174 00000000 		.4byte	0
 20021 0178 DE070000 		.4byte	.LBB1150
 20022 017c E2070000 		.4byte	.LBE1150
 20023 0180 86080000 		.4byte	.LBB1179
 20024 0184 AA080000 		.4byte	.LBE1179
 20025 0188 B6080000 		.4byte	.LBB1180
 20026 018c 14090000 		.4byte	.LBE1180
 20027 0190 BC100000 		.4byte	.LBB1181
 20028 0194 FE100000 		.4byte	.LBE1181
 20029 0198 EE110000 		.4byte	.LBB1182
 20030 019c 2C120000 		.4byte	.LBE1182
 20031 01a0 22130000 		.4byte	.LBB1183
 20032 01a4 30130000 		.4byte	.LBE1183
 20033 01a8 00000000 		.4byte	0
 20034 01ac 00000000 		.4byte	0
 20035 01b0 DE070000 		.4byte	.LBB1152
 20036 01b4 E2070000 		.4byte	.LBE1152
 20037 01b8 86080000 		.4byte	.LBB1155
 20038 01bc A8080000 		.4byte	.LBE1155
 20039 01c0 00000000 		.4byte	0
 20040 01c4 00000000 		.4byte	0
 20041 01c8 B6080000 		.4byte	.LBB1156
 20042 01cc D2080000 		.4byte	.LBE1156
 20043 01d0 BC100000 		.4byte	.LBB1163
 20044 01d4 C6100000 		.4byte	.LBE1163
 20045 01d8 EE100000 		.4byte	.LBB1166
 20046 01dc FE100000 		.4byte	.LBE1166
 20047 01e0 22130000 		.4byte	.LBB1169
 20048 01e4 30130000 		.4byte	.LBE1169
 20049 01e8 00000000 		.4byte	0
 20050 01ec 00000000 		.4byte	0
 20051 01f0 6C020000 		.4byte	.LBB1188
 20052 01f4 BA020000 		.4byte	.LBE1188
 20053 01f8 F2050000 		.4byte	.LBB1747
 20054 01fc 1C060000 		.4byte	.LBE1747
 20055 0200 74060000 		.4byte	.LBB1750
 20056 0204 CA060000 		.4byte	.LBE1750
 20057 0208 22080000 		.4byte	.LBB1756
 20058 020c 28080000 		.4byte	.LBE1756
 20059 0210 1A090000 		.4byte	.LBB1762
 20060 0214 92090000 		.4byte	.LBE1762
 20061 0218 760A0000 		.4byte	.LBB1766
 20062 021c 7C0A0000 		.4byte	.LBE1766
 20063 0220 EE0A0000 		.4byte	.LBB1768
 20064 0224 F40A0000 		.4byte	.LBE1768
ARM GAS  /tmp/ccMboyVS.s 			page 353


 20065 0228 440B0000 		.4byte	.LBB1774
 20066 022c 840B0000 		.4byte	.LBE1774
 20067 0230 080C0000 		.4byte	.LBB1777
 20068 0234 320C0000 		.4byte	.LBE1777
 20069 0238 840C0000 		.4byte	.LBB1780
 20070 023c CA0C0000 		.4byte	.LBE1780
 20071 0240 0A130000 		.4byte	.LBB1878
 20072 0244 22130000 		.4byte	.LBE1878
 20073 0248 36130000 		.4byte	.LBB1881
 20074 024c 42130000 		.4byte	.LBE1881
 20075 0250 00000000 		.4byte	0
 20076 0254 00000000 		.4byte	0
 20077 0258 6C020000 		.4byte	.LBB1189
 20078 025c 6E020000 		.4byte	.LBE1189
 20079 0260 70020000 		.4byte	.LBB1278
 20080 0264 BA020000 		.4byte	.LBE1278
 20081 0268 F2050000 		.4byte	.LBB1279
 20082 026c 1C060000 		.4byte	.LBE1279
 20083 0270 74060000 		.4byte	.LBB1280
 20084 0274 CA060000 		.4byte	.LBE1280
 20085 0278 22080000 		.4byte	.LBB1281
 20086 027c 28080000 		.4byte	.LBE1281
 20087 0280 1A090000 		.4byte	.LBB1282
 20088 0284 92090000 		.4byte	.LBE1282
 20089 0288 760A0000 		.4byte	.LBB1283
 20090 028c 7C0A0000 		.4byte	.LBE1283
 20091 0290 EE0A0000 		.4byte	.LBB1284
 20092 0294 F00A0000 		.4byte	.LBE1284
 20093 0298 440B0000 		.4byte	.LBB1285
 20094 029c 840B0000 		.4byte	.LBE1285
 20095 02a0 080C0000 		.4byte	.LBB1286
 20096 02a4 320C0000 		.4byte	.LBE1286
 20097 02a8 840C0000 		.4byte	.LBB1287
 20098 02ac CA0C0000 		.4byte	.LBE1287
 20099 02b0 0A130000 		.4byte	.LBB1288
 20100 02b4 22130000 		.4byte	.LBE1288
 20101 02b8 36130000 		.4byte	.LBB1289
 20102 02bc 42130000 		.4byte	.LBE1289
 20103 02c0 00000000 		.4byte	0
 20104 02c4 00000000 		.4byte	0
 20105 02c8 72020000 		.4byte	.LBB1190
 20106 02cc 7E020000 		.4byte	.LBE1190
 20107 02d0 82020000 		.4byte	.LBB1265
 20108 02d4 90020000 		.4byte	.LBE1265
 20109 02d8 94020000 		.4byte	.LBB1266
 20110 02dc BA020000 		.4byte	.LBE1266
 20111 02e0 F2050000 		.4byte	.LBB1267
 20112 02e4 1C060000 		.4byte	.LBE1267
 20113 02e8 74060000 		.4byte	.LBB1268
 20114 02ec B8060000 		.4byte	.LBE1268
 20115 02f0 22080000 		.4byte	.LBB1269
 20116 02f4 28080000 		.4byte	.LBE1269
 20117 02f8 1A090000 		.4byte	.LBB1270
 20118 02fc 92090000 		.4byte	.LBE1270
 20119 0300 760A0000 		.4byte	.LBB1271
 20120 0304 7C0A0000 		.4byte	.LBE1271
 20121 0308 EE0A0000 		.4byte	.LBB1272
ARM GAS  /tmp/ccMboyVS.s 			page 354


 20122 030c F00A0000 		.4byte	.LBE1272
 20123 0310 440B0000 		.4byte	.LBB1273
 20124 0314 840B0000 		.4byte	.LBE1273
 20125 0318 080C0000 		.4byte	.LBB1274
 20126 031c 320C0000 		.4byte	.LBE1274
 20127 0320 840C0000 		.4byte	.LBB1275
 20128 0324 CA0C0000 		.4byte	.LBE1275
 20129 0328 0A130000 		.4byte	.LBB1276
 20130 032c 22130000 		.4byte	.LBE1276
 20131 0330 36130000 		.4byte	.LBB1277
 20132 0334 42130000 		.4byte	.LBE1277
 20133 0338 00000000 		.4byte	0
 20134 033c 00000000 		.4byte	0
 20135 0340 72020000 		.4byte	.LBB1192
 20136 0344 78020000 		.4byte	.LBE1192
 20137 0348 6A090000 		.4byte	.LBB1234
 20138 034c 92090000 		.4byte	.LBE1234
 20139 0350 36130000 		.4byte	.LBB1251
 20140 0354 42130000 		.4byte	.LBE1251
 20141 0358 00000000 		.4byte	0
 20142 035c 00000000 		.4byte	0
 20143 0360 72020000 		.4byte	.LBB1194
 20144 0364 78020000 		.4byte	.LBE1194
 20145 0368 86090000 		.4byte	.LBB1201
 20146 036c 92090000 		.4byte	.LBE1201
 20147 0370 00000000 		.4byte	0
 20148 0374 00000000 		.4byte	0
 20149 0378 76090000 		.4byte	.LBB1197
 20150 037c 78090000 		.4byte	.LBE1197
 20151 0380 7A090000 		.4byte	.LBB1200
 20152 0384 7E090000 		.4byte	.LBE1200
 20153 0388 00000000 		.4byte	0
 20154 038c 00000000 		.4byte	0
 20155 0390 78020000 		.4byte	.LBB1204
 20156 0394 7E020000 		.4byte	.LBE1204
 20157 0398 5C0B0000 		.4byte	.LBB1236
 20158 039c 600B0000 		.4byte	.LBE1236
 20159 03a0 640B0000 		.4byte	.LBB1237
 20160 03a4 840B0000 		.4byte	.LBE1237
 20161 03a8 0A130000 		.4byte	.LBB1249
 20162 03ac 16130000 		.4byte	.LBE1249
 20163 03b0 00000000 		.4byte	0
 20164 03b4 00000000 		.4byte	0
 20165 03b8 78020000 		.4byte	.LBB1206
 20166 03bc 7E020000 		.4byte	.LBE1206
 20167 03c0 7C0B0000 		.4byte	.LBB1213
 20168 03c4 840B0000 		.4byte	.LBE1213
 20169 03c8 00000000 		.4byte	0
 20170 03cc 00000000 		.4byte	0
 20171 03d0 6C0B0000 		.4byte	.LBB1209
 20172 03d4 6E0B0000 		.4byte	.LBE1209
 20173 03d8 700B0000 		.4byte	.LBB1212
 20174 03dc 740B0000 		.4byte	.LBE1212
 20175 03e0 00000000 		.4byte	0
 20176 03e4 00000000 		.4byte	0
 20177 03e8 82020000 		.4byte	.LBB1217
 20178 03ec 90020000 		.4byte	.LBE1217
ARM GAS  /tmp/ccMboyVS.s 			page 355


 20179 03f0 94020000 		.4byte	.LBB1222
 20180 03f4 BA020000 		.4byte	.LBE1222
 20181 03f8 00000000 		.4byte	0
 20182 03fc 00000000 		.4byte	0
 20183 0400 F2050000 		.4byte	.LBB1223
 20184 0404 1C060000 		.4byte	.LBE1223
 20185 0408 22080000 		.4byte	.LBB1233
 20186 040c 28080000 		.4byte	.LBE1233
 20187 0410 760A0000 		.4byte	.LBB1235
 20188 0414 7C0A0000 		.4byte	.LBE1235
 20189 0418 00000000 		.4byte	0
 20190 041c 00000000 		.4byte	0
 20191 0420 F2050000 		.4byte	.LBB1225
 20192 0424 FC050000 		.4byte	.LBE1225
 20193 0428 22080000 		.4byte	.LBB1228
 20194 042c 28080000 		.4byte	.LBE1228
 20195 0430 00000000 		.4byte	0
 20196 0434 00000000 		.4byte	0
 20197 0438 9E0C0000 		.4byte	.LBB1240
 20198 043c A20C0000 		.4byte	.LBE1240
 20199 0440 A60C0000 		.4byte	.LBB1248
 20200 0444 CA0C0000 		.4byte	.LBE1248
 20201 0448 16130000 		.4byte	.LBB1250
 20202 044c 22130000 		.4byte	.LBE1250
 20203 0450 00000000 		.4byte	0
 20204 0454 00000000 		.4byte	0
 20205 0458 BA020000 		.4byte	.LBB1290
 20206 045c 0A030000 		.4byte	.LBE1290
 20207 0460 C6050000 		.4byte	.LBB1746
 20208 0464 F2050000 		.4byte	.LBE1746
 20209 0468 CA060000 		.4byte	.LBB1751
 20210 046c 14070000 		.4byte	.LBE1751
 20211 0470 2E080000 		.4byte	.LBB1758
 20212 0474 34080000 		.4byte	.LBE1758
 20213 0478 92090000 		.4byte	.LBB1763
 20214 047c DE090000 		.4byte	.LBE1763
 20215 0480 F40A0000 		.4byte	.LBB1769
 20216 0484 FA0A0000 		.4byte	.LBE1769
 20217 0488 0C0B0000 		.4byte	.LBB1773
 20218 048c 440B0000 		.4byte	.LBE1773
 20219 0490 840B0000 		.4byte	.LBB1775
 20220 0494 B80B0000 		.4byte	.LBE1775
 20221 0498 320C0000 		.4byte	.LBB1778
 20222 049c 4A0C0000 		.4byte	.LBE1778
 20223 04a0 08110000 		.4byte	.LBB1865
 20224 04a4 12110000 		.4byte	.LBE1865
 20225 04a8 DA110000 		.4byte	.LBB1870
 20226 04ac EE110000 		.4byte	.LBE1870
 20227 04b0 00000000 		.4byte	0
 20228 04b4 00000000 		.4byte	0
 20229 04b8 BC020000 		.4byte	.LBB1291
 20230 04bc D0020000 		.4byte	.LBE1291
 20231 04c0 D2020000 		.4byte	.LBB1374
 20232 04c4 0A030000 		.4byte	.LBE1374
 20233 04c8 C6050000 		.4byte	.LBB1375
 20234 04cc F2050000 		.4byte	.LBE1375
 20235 04d0 CA060000 		.4byte	.LBB1376
ARM GAS  /tmp/ccMboyVS.s 			page 356


 20236 04d4 14070000 		.4byte	.LBE1376
 20237 04d8 2E080000 		.4byte	.LBB1377
 20238 04dc 34080000 		.4byte	.LBE1377
 20239 04e0 92090000 		.4byte	.LBB1378
 20240 04e4 DE090000 		.4byte	.LBE1378
 20241 04e8 F40A0000 		.4byte	.LBB1379
 20242 04ec F60A0000 		.4byte	.LBE1379
 20243 04f0 0C0B0000 		.4byte	.LBB1380
 20244 04f4 440B0000 		.4byte	.LBE1380
 20245 04f8 840B0000 		.4byte	.LBB1381
 20246 04fc B80B0000 		.4byte	.LBE1381
 20247 0500 320C0000 		.4byte	.LBB1382
 20248 0504 4A0C0000 		.4byte	.LBE1382
 20249 0508 08110000 		.4byte	.LBB1383
 20250 050c 12110000 		.4byte	.LBE1383
 20251 0510 DA110000 		.4byte	.LBB1384
 20252 0514 EE110000 		.4byte	.LBE1384
 20253 0518 00000000 		.4byte	0
 20254 051c 00000000 		.4byte	0
 20255 0520 C0020000 		.4byte	.LBB1292
 20256 0524 CC020000 		.4byte	.LBE1292
 20257 0528 D2020000 		.4byte	.LBB1362
 20258 052c E0020000 		.4byte	.LBE1362
 20259 0530 E4020000 		.4byte	.LBB1363
 20260 0534 0A030000 		.4byte	.LBE1363
 20261 0538 C6050000 		.4byte	.LBB1364
 20262 053c F2050000 		.4byte	.LBE1364
 20263 0540 CA060000 		.4byte	.LBB1365
 20264 0544 02070000 		.4byte	.LBE1365
 20265 0548 2E080000 		.4byte	.LBB1366
 20266 054c 34080000 		.4byte	.LBE1366
 20267 0550 92090000 		.4byte	.LBB1367
 20268 0554 DE090000 		.4byte	.LBE1367
 20269 0558 F40A0000 		.4byte	.LBB1368
 20270 055c F60A0000 		.4byte	.LBE1368
 20271 0560 0C0B0000 		.4byte	.LBB1369
 20272 0564 440B0000 		.4byte	.LBE1369
 20273 0568 840B0000 		.4byte	.LBB1370
 20274 056c B80B0000 		.4byte	.LBE1370
 20275 0570 320C0000 		.4byte	.LBB1371
 20276 0574 4A0C0000 		.4byte	.LBE1371
 20277 0578 08110000 		.4byte	.LBB1372
 20278 057c 12110000 		.4byte	.LBE1372
 20279 0580 DA110000 		.4byte	.LBB1373
 20280 0584 EE110000 		.4byte	.LBE1373
 20281 0588 00000000 		.4byte	0
 20282 058c 00000000 		.4byte	0
 20283 0590 C0020000 		.4byte	.LBB1294
 20284 0594 C6020000 		.4byte	.LBE1294
 20285 0598 B2090000 		.4byte	.LBB1334
 20286 059c DE090000 		.4byte	.LBE1334
 20287 05a0 08110000 		.4byte	.LBB1347
 20288 05a4 12110000 		.4byte	.LBE1347
 20289 05a8 00000000 		.4byte	0
 20290 05ac 00000000 		.4byte	0
 20291 05b0 C0020000 		.4byte	.LBB1296
 20292 05b4 C6020000 		.4byte	.LBE1296
ARM GAS  /tmp/ccMboyVS.s 			page 357


 20293 05b8 D2090000 		.4byte	.LBB1303
 20294 05bc DE090000 		.4byte	.LBE1303
 20295 05c0 00000000 		.4byte	0
 20296 05c4 00000000 		.4byte	0
 20297 05c8 C2090000 		.4byte	.LBB1299
 20298 05cc C4090000 		.4byte	.LBE1299
 20299 05d0 C6090000 		.4byte	.LBB1302
 20300 05d4 CA090000 		.4byte	.LBE1302
 20301 05d8 00000000 		.4byte	0
 20302 05dc 00000000 		.4byte	0
 20303 05e0 C6020000 		.4byte	.LBB1306
 20304 05e4 CC020000 		.4byte	.LBE1306
 20305 05e8 920B0000 		.4byte	.LBB1344
 20306 05ec B80B0000 		.4byte	.LBE1344
 20307 05f0 DA110000 		.4byte	.LBB1348
 20308 05f4 E4110000 		.4byte	.LBE1348
 20309 05f8 00000000 		.4byte	0
 20310 05fc 00000000 		.4byte	0
 20311 0600 C6020000 		.4byte	.LBB1308
 20312 0604 CC020000 		.4byte	.LBE1308
 20313 0608 AC0B0000 		.4byte	.LBB1315
 20314 060c B80B0000 		.4byte	.LBE1315
 20315 0610 00000000 		.4byte	0
 20316 0614 00000000 		.4byte	0
 20317 0618 9C0B0000 		.4byte	.LBB1311
 20318 061c 9E0B0000 		.4byte	.LBE1311
 20319 0620 A00B0000 		.4byte	.LBB1314
 20320 0624 A40B0000 		.4byte	.LBE1314
 20321 0628 00000000 		.4byte	0
 20322 062c 00000000 		.4byte	0
 20323 0630 D2020000 		.4byte	.LBB1318
 20324 0634 E0020000 		.4byte	.LBE1318
 20325 0638 E4020000 		.4byte	.LBB1323
 20326 063c 0A030000 		.4byte	.LBE1323
 20327 0640 00000000 		.4byte	0
 20328 0644 00000000 		.4byte	0
 20329 0648 C6050000 		.4byte	.LBB1324
 20330 064c F2050000 		.4byte	.LBE1324
 20331 0650 2E080000 		.4byte	.LBB1333
 20332 0654 34080000 		.4byte	.LBE1333
 20333 0658 00000000 		.4byte	0
 20334 065c 00000000 		.4byte	0
 20335 0660 C6050000 		.4byte	.LBB1326
 20336 0664 D2050000 		.4byte	.LBE1326
 20337 0668 2E080000 		.4byte	.LBB1329
 20338 066c 34080000 		.4byte	.LBE1329
 20339 0670 00000000 		.4byte	0
 20340 0674 00000000 		.4byte	0
 20341 0678 1A0B0000 		.4byte	.LBB1335
 20342 067c 440B0000 		.4byte	.LBE1335
 20343 0680 E4110000 		.4byte	.LBB1349
 20344 0684 EE110000 		.4byte	.LBE1349
 20345 0688 00000000 		.4byte	0
 20346 068c 00000000 		.4byte	0
 20347 0690 240B0000 		.4byte	.LBB1337
 20348 0694 260B0000 		.4byte	.LBE1337
 20349 0698 280B0000 		.4byte	.LBB1340
ARM GAS  /tmp/ccMboyVS.s 			page 358


 20350 069c 2C0B0000 		.4byte	.LBE1340
 20351 06a0 00000000 		.4byte	0
 20352 06a4 00000000 		.4byte	0
 20353 06a8 0A030000 		.4byte	.LBB1385
 20354 06ac 5A030000 		.4byte	.LBE1385
 20355 06b0 1C060000 		.4byte	.LBB1748
 20356 06b4 48060000 		.4byte	.LBE1748
 20357 06b8 14070000 		.4byte	.LBB1752
 20358 06bc 60070000 		.4byte	.LBE1752
 20359 06c0 28080000 		.4byte	.LBB1757
 20360 06c4 2E080000 		.4byte	.LBE1757
 20361 06c8 DE090000 		.4byte	.LBB1764
 20362 06cc 2A0A0000 		.4byte	.LBE1764
 20363 06d0 FA0A0000 		.4byte	.LBB1770
 20364 06d4 000B0000 		.4byte	.LBE1770
 20365 06d8 B80B0000 		.4byte	.LBB1776
 20366 06dc 080C0000 		.4byte	.LBE1776
 20367 06e0 4A0C0000 		.4byte	.LBB1779
 20368 06e4 840C0000 		.4byte	.LBE1779
 20369 06e8 FE100000 		.4byte	.LBB1864
 20370 06ec 08110000 		.4byte	.LBE1864
 20371 06f0 12110000 		.4byte	.LBB1866
 20372 06f4 1C110000 		.4byte	.LBE1866
 20373 06f8 8C110000 		.4byte	.LBB1868
 20374 06fc 96110000 		.4byte	.LBE1868
 20375 0700 00000000 		.4byte	0
 20376 0704 00000000 		.4byte	0
 20377 0708 0C030000 		.4byte	.LBB1386
 20378 070c 20030000 		.4byte	.LBE1386
 20379 0710 22030000 		.4byte	.LBB1467
 20380 0714 5A030000 		.4byte	.LBE1467
 20381 0718 1C060000 		.4byte	.LBB1468
 20382 071c 48060000 		.4byte	.LBE1468
 20383 0720 14070000 		.4byte	.LBB1469
 20384 0724 60070000 		.4byte	.LBE1469
 20385 0728 28080000 		.4byte	.LBB1470
 20386 072c 2E080000 		.4byte	.LBE1470
 20387 0730 DE090000 		.4byte	.LBB1471
 20388 0734 2A0A0000 		.4byte	.LBE1471
 20389 0738 FA0A0000 		.4byte	.LBB1472
 20390 073c FC0A0000 		.4byte	.LBE1472
 20391 0740 B80B0000 		.4byte	.LBB1473
 20392 0744 080C0000 		.4byte	.LBE1473
 20393 0748 4A0C0000 		.4byte	.LBB1474
 20394 074c 840C0000 		.4byte	.LBE1474
 20395 0750 FE100000 		.4byte	.LBB1475
 20396 0754 08110000 		.4byte	.LBE1475
 20397 0758 12110000 		.4byte	.LBB1476
 20398 075c 1C110000 		.4byte	.LBE1476
 20399 0760 8C110000 		.4byte	.LBB1477
 20400 0764 96110000 		.4byte	.LBE1477
 20401 0768 00000000 		.4byte	0
 20402 076c 00000000 		.4byte	0
 20403 0770 10030000 		.4byte	.LBB1387
 20404 0774 1C030000 		.4byte	.LBE1387
 20405 0778 22030000 		.4byte	.LBB1455
 20406 077c 30030000 		.4byte	.LBE1455
ARM GAS  /tmp/ccMboyVS.s 			page 359


 20407 0780 34030000 		.4byte	.LBB1456
 20408 0784 5A030000 		.4byte	.LBE1456
 20409 0788 1C060000 		.4byte	.LBB1457
 20410 078c 48060000 		.4byte	.LBE1457
 20411 0790 14070000 		.4byte	.LBB1458
 20412 0794 4E070000 		.4byte	.LBE1458
 20413 0798 28080000 		.4byte	.LBB1459
 20414 079c 2E080000 		.4byte	.LBE1459
 20415 07a0 DE090000 		.4byte	.LBB1460
 20416 07a4 2A0A0000 		.4byte	.LBE1460
 20417 07a8 FA0A0000 		.4byte	.LBB1461
 20418 07ac FC0A0000 		.4byte	.LBE1461
 20419 07b0 B80B0000 		.4byte	.LBB1462
 20420 07b4 080C0000 		.4byte	.LBE1462
 20421 07b8 4A0C0000 		.4byte	.LBB1463
 20422 07bc 840C0000 		.4byte	.LBE1463
 20423 07c0 FE100000 		.4byte	.LBB1464
 20424 07c4 08110000 		.4byte	.LBE1464
 20425 07c8 12110000 		.4byte	.LBB1465
 20426 07cc 1C110000 		.4byte	.LBE1465
 20427 07d0 8C110000 		.4byte	.LBB1466
 20428 07d4 96110000 		.4byte	.LBE1466
 20429 07d8 00000000 		.4byte	0
 20430 07dc 00000000 		.4byte	0
 20431 07e0 10030000 		.4byte	.LBB1389
 20432 07e4 16030000 		.4byte	.LBE1389
 20433 07e8 FE090000 		.4byte	.LBB1429
 20434 07ec 2A0A0000 		.4byte	.LBE1429
 20435 07f0 8C110000 		.4byte	.LBB1442
 20436 07f4 96110000 		.4byte	.LBE1442
 20437 07f8 00000000 		.4byte	0
 20438 07fc 00000000 		.4byte	0
 20439 0800 10030000 		.4byte	.LBB1391
 20440 0804 16030000 		.4byte	.LBE1391
 20441 0808 1E0A0000 		.4byte	.LBB1398
 20442 080c 2A0A0000 		.4byte	.LBE1398
 20443 0810 00000000 		.4byte	0
 20444 0814 00000000 		.4byte	0
 20445 0818 0E0A0000 		.4byte	.LBB1394
 20446 081c 100A0000 		.4byte	.LBE1394
 20447 0820 120A0000 		.4byte	.LBB1397
 20448 0824 160A0000 		.4byte	.LBE1397
 20449 0828 00000000 		.4byte	0
 20450 082c 00000000 		.4byte	0
 20451 0830 16030000 		.4byte	.LBB1401
 20452 0834 1C030000 		.4byte	.LBE1401
 20453 0838 E00B0000 		.4byte	.LBB1432
 20454 083c 080C0000 		.4byte	.LBE1432
 20455 0840 FE100000 		.4byte	.LBB1440
 20456 0844 08110000 		.4byte	.LBE1440
 20457 0848 00000000 		.4byte	0
 20458 084c 00000000 		.4byte	0
 20459 0850 16030000 		.4byte	.LBB1403
 20460 0854 1C030000 		.4byte	.LBE1403
 20461 0858 FC0B0000 		.4byte	.LBB1410
 20462 085c 080C0000 		.4byte	.LBE1410
 20463 0860 00000000 		.4byte	0
ARM GAS  /tmp/ccMboyVS.s 			page 360


 20464 0864 00000000 		.4byte	0
 20465 0868 EC0B0000 		.4byte	.LBB1406
 20466 086c EE0B0000 		.4byte	.LBE1406
 20467 0870 F00B0000 		.4byte	.LBB1409
 20468 0874 F40B0000 		.4byte	.LBE1409
 20469 0878 00000000 		.4byte	0
 20470 087c 00000000 		.4byte	0
 20471 0880 22030000 		.4byte	.LBB1413
 20472 0884 30030000 		.4byte	.LBE1413
 20473 0888 34030000 		.4byte	.LBB1418
 20474 088c 5A030000 		.4byte	.LBE1418
 20475 0890 00000000 		.4byte	0
 20476 0894 00000000 		.4byte	0
 20477 0898 1C060000 		.4byte	.LBB1419
 20478 089c 48060000 		.4byte	.LBE1419
 20479 08a0 28080000 		.4byte	.LBB1428
 20480 08a4 2E080000 		.4byte	.LBE1428
 20481 08a8 00000000 		.4byte	0
 20482 08ac 00000000 		.4byte	0
 20483 08b0 1C060000 		.4byte	.LBB1421
 20484 08b4 28060000 		.4byte	.LBE1421
 20485 08b8 28080000 		.4byte	.LBB1424
 20486 08bc 2E080000 		.4byte	.LBE1424
 20487 08c0 00000000 		.4byte	0
 20488 08c4 00000000 		.4byte	0
 20489 08c8 580C0000 		.4byte	.LBB1433
 20490 08cc 840C0000 		.4byte	.LBE1433
 20491 08d0 12110000 		.4byte	.LBB1441
 20492 08d4 1C110000 		.4byte	.LBE1441
 20493 08d8 00000000 		.4byte	0
 20494 08dc 00000000 		.4byte	0
 20495 08e0 5E030000 		.4byte	.LBB1478
 20496 08e4 94030000 		.4byte	.LBE1478
 20497 08e8 30130000 		.4byte	.LBB1880
 20498 08ec 36130000 		.4byte	.LBE1880
 20499 08f0 00000000 		.4byte	0
 20500 08f4 00000000 		.4byte	0
 20501 08f8 E8030000 		.4byte	.LBB1487
 20502 08fc 40040000 		.4byte	.LBE1487
 20503 0900 48060000 		.4byte	.LBB1749
 20504 0904 74060000 		.4byte	.LBE1749
 20505 0908 60070000 		.4byte	.LBB1753
 20506 090c AA070000 		.4byte	.LBE1753
 20507 0910 14090000 		.4byte	.LBB1761
 20508 0914 1A090000 		.4byte	.LBE1761
 20509 0918 2A0A0000 		.4byte	.LBB1765
 20510 091c 760A0000 		.4byte	.LBE1765
 20511 0920 060B0000 		.4byte	.LBB1772
 20512 0924 0C0B0000 		.4byte	.LBE1772
 20513 0928 D00C0000 		.4byte	.LBB1781
 20514 092c D60C0000 		.4byte	.LBE1781
 20515 0930 EE0C0000 		.4byte	.LBB1785
 20516 0934 760D0000 		.4byte	.LBE1785
 20517 0938 2C120000 		.4byte	.LBB1872
 20518 093c 6E120000 		.4byte	.LBE1872
 20519 0940 80120000 		.4byte	.LBB1873
 20520 0944 96120000 		.4byte	.LBE1873
ARM GAS  /tmp/ccMboyVS.s 			page 361


 20521 0948 70130000 		.4byte	.LBB1884
 20522 094c 76130000 		.4byte	.LBE1884
 20523 0950 7A140000 		.4byte	.LBB1914
 20524 0954 C2140000 		.4byte	.LBE1914
 20525 0958 4E150000 		.4byte	.LBB1917
 20526 095c D2150000 		.4byte	.LBE1917
 20527 0960 00000000 		.4byte	0
 20528 0964 00000000 		.4byte	0
 20529 0968 F6030000 		.4byte	.LBB1488
 20530 096c 04040000 		.4byte	.LBE1488
 20531 0970 08040000 		.4byte	.LBB1565
 20532 0974 40040000 		.4byte	.LBE1565
 20533 0978 48060000 		.4byte	.LBB1566
 20534 097c 74060000 		.4byte	.LBE1566
 20535 0980 60070000 		.4byte	.LBB1567
 20536 0984 AA070000 		.4byte	.LBE1567
 20537 0988 14090000 		.4byte	.LBB1568
 20538 098c 1A090000 		.4byte	.LBE1568
 20539 0990 2A0A0000 		.4byte	.LBB1569
 20540 0994 760A0000 		.4byte	.LBE1569
 20541 0998 060B0000 		.4byte	.LBB1570
 20542 099c 080B0000 		.4byte	.LBE1570
 20543 09a0 EE0C0000 		.4byte	.LBB1571
 20544 09a4 760D0000 		.4byte	.LBE1571
 20545 09a8 64120000 		.4byte	.LBB1607
 20546 09ac 6E120000 		.4byte	.LBE1607
 20547 09b0 80120000 		.4byte	.LBB1608
 20548 09b4 96120000 		.4byte	.LBE1608
 20549 09b8 00000000 		.4byte	0
 20550 09bc 00000000 		.4byte	0
 20551 09c0 F6030000 		.4byte	.LBB1489
 20552 09c4 04040000 		.4byte	.LBE1489
 20553 09c8 08040000 		.4byte	.LBB1555
 20554 09cc 16040000 		.4byte	.LBE1555
 20555 09d0 1A040000 		.4byte	.LBB1556
 20556 09d4 40040000 		.4byte	.LBE1556
 20557 09d8 48060000 		.4byte	.LBB1557
 20558 09dc 74060000 		.4byte	.LBE1557
 20559 09e0 60070000 		.4byte	.LBB1558
 20560 09e4 98070000 		.4byte	.LBE1558
 20561 09e8 14090000 		.4byte	.LBB1559
 20562 09ec 1A090000 		.4byte	.LBE1559
 20563 09f0 2A0A0000 		.4byte	.LBB1560
 20564 09f4 760A0000 		.4byte	.LBE1560
 20565 09f8 060B0000 		.4byte	.LBB1561
 20566 09fc 080B0000 		.4byte	.LBE1561
 20567 0a00 EE0C0000 		.4byte	.LBB1562
 20568 0a04 760D0000 		.4byte	.LBE1562
 20569 0a08 64120000 		.4byte	.LBB1563
 20570 0a0c 6E120000 		.4byte	.LBE1563
 20571 0a10 80120000 		.4byte	.LBB1564
 20572 0a14 96120000 		.4byte	.LBE1564
 20573 0a18 00000000 		.4byte	0
 20574 0a1c 00000000 		.4byte	0
 20575 0a20 F6030000 		.4byte	.LBB1491
 20576 0a24 FE030000 		.4byte	.LBE1491
 20577 0a28 480A0000 		.4byte	.LBB1531
ARM GAS  /tmp/ccMboyVS.s 			page 362


 20578 0a2c 760A0000 		.4byte	.LBE1531
 20579 0a30 80120000 		.4byte	.LBB1543
 20580 0a34 8C120000 		.4byte	.LBE1543
 20581 0a38 00000000 		.4byte	0
 20582 0a3c 00000000 		.4byte	0
 20583 0a40 F6030000 		.4byte	.LBB1493
 20584 0a44 FE030000 		.4byte	.LBE1493
 20585 0a48 680A0000 		.4byte	.LBB1500
 20586 0a4c 760A0000 		.4byte	.LBE1500
 20587 0a50 00000000 		.4byte	0
 20588 0a54 00000000 		.4byte	0
 20589 0a58 580A0000 		.4byte	.LBB1496
 20590 0a5c 5A0A0000 		.4byte	.LBE1496
 20591 0a60 5C0A0000 		.4byte	.LBB1499
 20592 0a64 600A0000 		.4byte	.LBE1499
 20593 0a68 00000000 		.4byte	0
 20594 0a6c 00000000 		.4byte	0
 20595 0a70 FE030000 		.4byte	.LBB1503
 20596 0a74 04040000 		.4byte	.LBE1503
 20597 0a78 FC0C0000 		.4byte	.LBB1532
 20598 0a7c 240D0000 		.4byte	.LBE1532
 20599 0a80 64120000 		.4byte	.LBB1542
 20600 0a84 6E120000 		.4byte	.LBE1542
 20601 0a88 00000000 		.4byte	0
 20602 0a8c 00000000 		.4byte	0
 20603 0a90 FE030000 		.4byte	.LBB1505
 20604 0a94 04040000 		.4byte	.LBE1505
 20605 0a98 160D0000 		.4byte	.LBB1512
 20606 0a9c 240D0000 		.4byte	.LBE1512
 20607 0aa0 00000000 		.4byte	0
 20608 0aa4 00000000 		.4byte	0
 20609 0aa8 060D0000 		.4byte	.LBB1508
 20610 0aac 080D0000 		.4byte	.LBE1508
 20611 0ab0 0A0D0000 		.4byte	.LBB1511
 20612 0ab4 0E0D0000 		.4byte	.LBE1511
 20613 0ab8 00000000 		.4byte	0
 20614 0abc 00000000 		.4byte	0
 20615 0ac0 08040000 		.4byte	.LBB1515
 20616 0ac4 16040000 		.4byte	.LBE1515
 20617 0ac8 1A040000 		.4byte	.LBB1520
 20618 0acc 40040000 		.4byte	.LBE1520
 20619 0ad0 00000000 		.4byte	0
 20620 0ad4 00000000 		.4byte	0
 20621 0ad8 48060000 		.4byte	.LBB1521
 20622 0adc 74060000 		.4byte	.LBE1521
 20623 0ae0 14090000 		.4byte	.LBB1530
 20624 0ae4 1A090000 		.4byte	.LBE1530
 20625 0ae8 00000000 		.4byte	0
 20626 0aec 00000000 		.4byte	0
 20627 0af0 48060000 		.4byte	.LBB1523
 20628 0af4 52060000 		.4byte	.LBE1523
 20629 0af8 14090000 		.4byte	.LBB1526
 20630 0afc 1A090000 		.4byte	.LBE1526
 20631 0b00 00000000 		.4byte	0
 20632 0b04 00000000 		.4byte	0
 20633 0b08 4A0D0000 		.4byte	.LBB1535
 20634 0b0c 760D0000 		.4byte	.LBE1535
ARM GAS  /tmp/ccMboyVS.s 			page 363


 20635 0b10 8C120000 		.4byte	.LBB1544
 20636 0b14 96120000 		.4byte	.LBE1544
 20637 0b18 00000000 		.4byte	0
 20638 0b1c 00000000 		.4byte	0
 20639 0b20 2C120000 		.4byte	.LBB1572
 20640 0b24 64120000 		.4byte	.LBE1572
 20641 0b28 70130000 		.4byte	.LBB1609
 20642 0b2c 76130000 		.4byte	.LBE1609
 20643 0b30 7A140000 		.4byte	.LBB1610
 20644 0b34 C2140000 		.4byte	.LBE1610
 20645 0b38 4E150000 		.4byte	.LBB1611
 20646 0b3c D2150000 		.4byte	.LBE1611
 20647 0b40 00000000 		.4byte	0
 20648 0b44 00000000 		.4byte	0
 20649 0b48 46040000 		.4byte	.LBB1612
 20650 0b4c 96040000 		.4byte	.LBE1612
 20651 0b50 AA070000 		.4byte	.LBB1754
 20652 0b54 D4070000 		.4byte	.LBE1754
 20653 0b58 34080000 		.4byte	.LBB1759
 20654 0b5c 86080000 		.4byte	.LBE1759
 20655 0b60 7C0A0000 		.4byte	.LBB1767
 20656 0b64 EE0A0000 		.4byte	.LBE1767
 20657 0b68 000B0000 		.4byte	.LBB1771
 20658 0b6c 060B0000 		.4byte	.LBE1771
 20659 0b70 02100000 		.4byte	.LBB1858
 20660 0b74 08100000 		.4byte	.LBE1858
 20661 0b78 1C110000 		.4byte	.LBB1867
 20662 0b7c 8C110000 		.4byte	.LBE1867
 20663 0b80 96110000 		.4byte	.LBB1869
 20664 0b84 DA110000 		.4byte	.LBE1869
 20665 0b88 5C130000 		.4byte	.LBB1883
 20666 0b8c 70130000 		.4byte	.LBE1883
 20667 0b90 42150000 		.4byte	.LBB1916
 20668 0b94 4E150000 		.4byte	.LBE1916
 20669 0b98 00000000 		.4byte	0
 20670 0b9c 00000000 		.4byte	0
 20671 0ba0 46040000 		.4byte	.LBB1613
 20672 0ba4 48040000 		.4byte	.LBE1613
 20673 0ba8 4A040000 		.4byte	.LBB1694
 20674 0bac 96040000 		.4byte	.LBE1694
 20675 0bb0 AA070000 		.4byte	.LBB1695
 20676 0bb4 D4070000 		.4byte	.LBE1695
 20677 0bb8 34080000 		.4byte	.LBB1696
 20678 0bbc 86080000 		.4byte	.LBE1696
 20679 0bc0 7C0A0000 		.4byte	.LBB1697
 20680 0bc4 EE0A0000 		.4byte	.LBE1697
 20681 0bc8 000B0000 		.4byte	.LBB1698
 20682 0bcc 060B0000 		.4byte	.LBE1698
 20683 0bd0 02100000 		.4byte	.LBB1699
 20684 0bd4 08100000 		.4byte	.LBE1699
 20685 0bd8 1C110000 		.4byte	.LBB1700
 20686 0bdc 8C110000 		.4byte	.LBE1700
 20687 0be0 96110000 		.4byte	.LBB1701
 20688 0be4 DA110000 		.4byte	.LBE1701
 20689 0be8 5C130000 		.4byte	.LBB1702
 20690 0bec 70130000 		.4byte	.LBE1702
 20691 0bf0 42150000 		.4byte	.LBB1703
ARM GAS  /tmp/ccMboyVS.s 			page 364


 20692 0bf4 4E150000 		.4byte	.LBE1703
 20693 0bf8 00000000 		.4byte	0
 20694 0bfc 00000000 		.4byte	0
 20695 0c00 4E040000 		.4byte	.LBB1614
 20696 0c04 5A040000 		.4byte	.LBE1614
 20697 0c08 5E040000 		.4byte	.LBB1683
 20698 0c0c 6C040000 		.4byte	.LBE1683
 20699 0c10 70040000 		.4byte	.LBB1684
 20700 0c14 96040000 		.4byte	.LBE1684
 20701 0c18 AA070000 		.4byte	.LBB1685
 20702 0c1c D4070000 		.4byte	.LBE1685
 20703 0c20 34080000 		.4byte	.LBB1686
 20704 0c24 74080000 		.4byte	.LBE1686
 20705 0c28 7C0A0000 		.4byte	.LBB1687
 20706 0c2c EE0A0000 		.4byte	.LBE1687
 20707 0c30 000B0000 		.4byte	.LBB1688
 20708 0c34 060B0000 		.4byte	.LBE1688
 20709 0c38 02100000 		.4byte	.LBB1689
 20710 0c3c 08100000 		.4byte	.LBE1689
 20711 0c40 1C110000 		.4byte	.LBB1690
 20712 0c44 8C110000 		.4byte	.LBE1690
 20713 0c48 96110000 		.4byte	.LBB1691
 20714 0c4c DA110000 		.4byte	.LBE1691
 20715 0c50 5C130000 		.4byte	.LBB1692
 20716 0c54 70130000 		.4byte	.LBE1692
 20717 0c58 42150000 		.4byte	.LBB1693
 20718 0c5c 4E150000 		.4byte	.LBE1693
 20719 0c60 00000000 		.4byte	0
 20720 0c64 00000000 		.4byte	0
 20721 0c68 4E040000 		.4byte	.LBB1616
 20722 0c6c 54040000 		.4byte	.LBE1616
 20723 0c70 C20A0000 		.4byte	.LBB1657
 20724 0c74 EE0A0000 		.4byte	.LBE1657
 20725 0c78 42150000 		.4byte	.LBB1671
 20726 0c7c 4E150000 		.4byte	.LBE1671
 20727 0c80 00000000 		.4byte	0
 20728 0c84 00000000 		.4byte	0
 20729 0c88 4E040000 		.4byte	.LBB1618
 20730 0c8c 54040000 		.4byte	.LBE1618
 20731 0c90 E20A0000 		.4byte	.LBB1625
 20732 0c94 EE0A0000 		.4byte	.LBE1625
 20733 0c98 00000000 		.4byte	0
 20734 0c9c 00000000 		.4byte	0
 20735 0ca0 D20A0000 		.4byte	.LBB1621
 20736 0ca4 D40A0000 		.4byte	.LBE1621
 20737 0ca8 D60A0000 		.4byte	.LBB1624
 20738 0cac DA0A0000 		.4byte	.LBE1624
 20739 0cb0 00000000 		.4byte	0
 20740 0cb4 00000000 		.4byte	0
 20741 0cb8 54040000 		.4byte	.LBB1628
 20742 0cbc 5A040000 		.4byte	.LBE1628
 20743 0cc0 B0110000 		.4byte	.LBB1668
 20744 0cc4 DA110000 		.4byte	.LBE1668
 20745 0cc8 5C130000 		.4byte	.LBB1669
 20746 0ccc 66130000 		.4byte	.LBE1669
 20747 0cd0 00000000 		.4byte	0
 20748 0cd4 00000000 		.4byte	0
ARM GAS  /tmp/ccMboyVS.s 			page 365


 20749 0cd8 54040000 		.4byte	.LBB1630
 20750 0cdc 5A040000 		.4byte	.LBE1630
 20751 0ce0 CC110000 		.4byte	.LBB1637
 20752 0ce4 DA110000 		.4byte	.LBE1637
 20753 0ce8 00000000 		.4byte	0
 20754 0cec 00000000 		.4byte	0
 20755 0cf0 BC110000 		.4byte	.LBB1633
 20756 0cf4 BE110000 		.4byte	.LBE1633
 20757 0cf8 C0110000 		.4byte	.LBB1636
 20758 0cfc C4110000 		.4byte	.LBE1636
 20759 0d00 00000000 		.4byte	0
 20760 0d04 00000000 		.4byte	0
 20761 0d08 5E040000 		.4byte	.LBB1640
 20762 0d0c 6C040000 		.4byte	.LBE1640
 20763 0d10 70040000 		.4byte	.LBB1645
 20764 0d14 96040000 		.4byte	.LBE1645
 20765 0d18 00000000 		.4byte	0
 20766 0d1c 00000000 		.4byte	0
 20767 0d20 AA070000 		.4byte	.LBB1646
 20768 0d24 D4070000 		.4byte	.LBE1646
 20769 0d28 7C0A0000 		.4byte	.LBB1656
 20770 0d2c 820A0000 		.4byte	.LBE1656
 20771 0d30 000B0000 		.4byte	.LBB1658
 20772 0d34 060B0000 		.4byte	.LBE1658
 20773 0d38 00000000 		.4byte	0
 20774 0d3c 00000000 		.4byte	0
 20775 0d40 AA070000 		.4byte	.LBB1648
 20776 0d44 B4070000 		.4byte	.LBE1648
 20777 0d48 7C0A0000 		.4byte	.LBB1651
 20778 0d4c 820A0000 		.4byte	.LBE1651
 20779 0d50 00000000 		.4byte	0
 20780 0d54 00000000 		.4byte	0
 20781 0d58 36110000 		.4byte	.LBB1659
 20782 0d5c 64110000 		.4byte	.LBE1659
 20783 0d60 66130000 		.4byte	.LBB1670
 20784 0d64 70130000 		.4byte	.LBE1670
 20785 0d68 00000000 		.4byte	0
 20786 0d6c 00000000 		.4byte	0
 20787 0d70 A0040000 		.4byte	.LBB1704
 20788 0d74 BE040000 		.4byte	.LBE1704
 20789 0d78 D60C0000 		.4byte	.LBB1782
 20790 0d7c DC0C0000 		.4byte	.LBE1782
 20791 0d80 00000000 		.4byte	0
 20792 0d84 00000000 		.4byte	0
 20793 0d88 BE040000 		.4byte	.LBB1709
 20794 0d8c C8040000 		.4byte	.LBE1709
 20795 0d90 08100000 		.4byte	.LBB1859
 20796 0d94 1C100000 		.4byte	.LBE1859
 20797 0d98 42130000 		.4byte	.LBB1882
 20798 0d9c 5C130000 		.4byte	.LBE1882
 20799 0da0 D2150000 		.4byte	.LBB1918
 20800 0da4 EA150000 		.4byte	.LBE1918
 20801 0da8 00000000 		.4byte	0
 20802 0dac 00000000 		.4byte	0
 20803 0db0 EC040000 		.4byte	.LBB1714
 20804 0db4 F0040000 		.4byte	.LBE1714
 20805 0db8 9C050000 		.4byte	.LBB1745
ARM GAS  /tmp/ccMboyVS.s 			page 366


 20806 0dbc B8050000 		.4byte	.LBE1745
 20807 0dc0 E80C0000 		.4byte	.LBB1784
 20808 0dc4 EE0C0000 		.4byte	.LBE1784
 20809 0dc8 00000000 		.4byte	0
 20810 0dcc 00000000 		.4byte	0
 20811 0dd0 FC040000 		.4byte	.LBB1718
 20812 0dd4 02050000 		.4byte	.LBE1718
 20813 0dd8 AE0D0000 		.4byte	.LBB1788
 20814 0ddc 120E0000 		.4byte	.LBE1788
 20815 0de0 00000000 		.4byte	0
 20816 0de4 00000000 		.4byte	0
 20817 0de8 B20D0000 		.4byte	.LBB1719
 20818 0dec B40D0000 		.4byte	.LBE1719
 20819 0df0 B60D0000 		.4byte	.LBB1724
 20820 0df4 BE0D0000 		.4byte	.LBE1724
 20821 0df8 CE0D0000 		.4byte	.LBB1725
 20822 0dfc D40D0000 		.4byte	.LBE1725
 20823 0e00 D80D0000 		.4byte	.LBB1726
 20824 0e04 DA0D0000 		.4byte	.LBE1726
 20825 0e08 00000000 		.4byte	0
 20826 0e0c 00000000 		.4byte	0
 20827 0e10 06050000 		.4byte	.LBB1731
 20828 0e14 08050000 		.4byte	.LBE1731
 20829 0e18 0A050000 		.4byte	.LBB1732
 20830 0e1c 38050000 		.4byte	.LBE1732
 20831 0e20 00000000 		.4byte	0
 20832 0e24 00000000 		.4byte	0
 20833 0e28 38050000 		.4byte	.LBB1733
 20834 0e2c 50050000 		.4byte	.LBE1733
 20835 0e30 C20F0000 		.4byte	.LBB1853
 20836 0e34 CA0F0000 		.4byte	.LBE1853
 20837 0e38 00000000 		.4byte	0
 20838 0e3c 00000000 		.4byte	0
 20839 0e40 5A050000 		.4byte	.LBB1738
 20840 0e44 62050000 		.4byte	.LBE1738
 20841 0e48 DC0C0000 		.4byte	.LBB1783
 20842 0e4c E80C0000 		.4byte	.LBE1783
 20843 0e50 00000000 		.4byte	0
 20844 0e54 00000000 		.4byte	0
 20845 0e58 6A050000 		.4byte	.LBB1741
 20846 0e5c 84050000 		.4byte	.LBE1741
 20847 0e60 A8120000 		.4byte	.LBB1874
 20848 0e64 D4120000 		.4byte	.LBE1874
 20849 0e68 EC140000 		.4byte	.LBB1915
 20850 0e6c 14150000 		.4byte	.LBE1915
 20851 0e70 00000000 		.4byte	0
 20852 0e74 00000000 		.4byte	0
 20853 0e78 140E0000 		.4byte	.LBB1789
 20854 0e7c 1E0E0000 		.4byte	.LBE1789
 20855 0e80 F8120000 		.4byte	.LBB1875
 20856 0e84 FE120000 		.4byte	.LBE1875
 20857 0e88 00000000 		.4byte	0
 20858 0e8c 00000000 		.4byte	0
 20859 0e90 280E0000 		.4byte	.LBB1792
 20860 0e94 920E0000 		.4byte	.LBE1792
 20861 0e98 8C100000 		.4byte	.LBB1862
 20862 0e9c BC100000 		.4byte	.LBE1862
ARM GAS  /tmp/ccMboyVS.s 			page 367


 20863 0ea0 00000000 		.4byte	0
 20864 0ea4 00000000 		.4byte	0
 20865 0ea8 8C100000 		.4byte	.LBB1803
 20866 0eac 9E100000 		.4byte	.LBE1803
 20867 0eb0 A0100000 		.4byte	.LBB1807
 20868 0eb4 A2100000 		.4byte	.LBE1807
 20869 0eb8 00000000 		.4byte	0
 20870 0ebc 00000000 		.4byte	0
 20871 0ec0 9E100000 		.4byte	.LBB1804
 20872 0ec4 A0100000 		.4byte	.LBE1804
 20873 0ec8 A2100000 		.4byte	.LBB1808
 20874 0ecc AA100000 		.4byte	.LBE1808
 20875 0ed0 00000000 		.4byte	0
 20876 0ed4 00000000 		.4byte	0
 20877 0ed8 CC0E0000 		.4byte	.LBB1813
 20878 0edc D60E0000 		.4byte	.LBE1813
 20879 0ee0 04130000 		.4byte	.LBB1877
 20880 0ee4 0A130000 		.4byte	.LBE1877
 20881 0ee8 00000000 		.4byte	0
 20882 0eec 00000000 		.4byte	0
 20883 0ef0 E00E0000 		.4byte	.LBB1816
 20884 0ef4 4A0F0000 		.4byte	.LBE1816
 20885 0ef8 32100000 		.4byte	.LBB1860
 20886 0efc 62100000 		.4byte	.LBE1860
 20887 0f00 00000000 		.4byte	0
 20888 0f04 00000000 		.4byte	0
 20889 0f08 32100000 		.4byte	.LBB1827
 20890 0f0c 44100000 		.4byte	.LBE1827
 20891 0f10 46100000 		.4byte	.LBB1831
 20892 0f14 48100000 		.4byte	.LBE1831
 20893 0f18 00000000 		.4byte	0
 20894 0f1c 00000000 		.4byte	0
 20895 0f20 44100000 		.4byte	.LBB1828
 20896 0f24 46100000 		.4byte	.LBE1828
 20897 0f28 48100000 		.4byte	.LBB1832
 20898 0f2c 50100000 		.4byte	.LBE1832
 20899 0f30 00000000 		.4byte	0
 20900 0f34 00000000 		.4byte	0
 20901 0f38 4C0F0000 		.4byte	.LBB1833
 20902 0f3c 560F0000 		.4byte	.LBE1833
 20903 0f40 FE120000 		.4byte	.LBB1876
 20904 0f44 04130000 		.4byte	.LBE1876
 20905 0f48 00000000 		.4byte	0
 20906 0f4c 00000000 		.4byte	0
 20907 0f50 600F0000 		.4byte	.LBB1836
 20908 0f54 C20F0000 		.4byte	.LBE1836
 20909 0f58 62100000 		.4byte	.LBB1861
 20910 0f5c 8C100000 		.4byte	.LBE1861
 20911 0f60 00000000 		.4byte	0
 20912 0f64 00000000 		.4byte	0
 20913 0f68 62100000 		.4byte	.LBB1847
 20914 0f6c 74100000 		.4byte	.LBE1847
 20915 0f70 76100000 		.4byte	.LBB1851
 20916 0f74 78100000 		.4byte	.LBE1851
 20917 0f78 00000000 		.4byte	0
 20918 0f7c 00000000 		.4byte	0
 20919 0f80 74100000 		.4byte	.LBB1848
ARM GAS  /tmp/ccMboyVS.s 			page 368


 20920 0f84 76100000 		.4byte	.LBE1848
 20921 0f88 78100000 		.4byte	.LBB1852
 20922 0f8c 7E100000 		.4byte	.LBE1852
 20923 0f90 00000000 		.4byte	0
 20924 0f94 00000000 		.4byte	0
 20925 0f98 00000000 		.4byte	.LFB52
 20926 0f9c 8C010000 		.4byte	.LFE52
 20927 0fa0 00000000 		.4byte	.LFB61
 20928 0fa4 CE010000 		.4byte	.LFE61
 20929 0fa8 00000000 		.4byte	.LFB57
 20930 0fac 0A000000 		.4byte	.LFE57
 20931 0fb0 00000000 		.4byte	.LFB58
 20932 0fb4 C2000000 		.4byte	.LFE58
 20933 0fb8 00000000 		.4byte	.LFB59
 20934 0fbc 3E000000 		.4byte	.LFE59
 20935 0fc0 00000000 		.4byte	.LFB60
 20936 0fc4 EA150000 		.4byte	.LFE60
 20937 0fc8 00000000 		.4byte	0
 20938 0fcc 00000000 		.4byte	0
 20939              		.section	.debug_line,"",%progbits
 20940              	.Ldebug_line0:
 20941 0000 790C0000 		.section	.debug_str,"MS",%progbits,1
 20941      02007601 
 20941      00000201 
 20941      FB0E0D00 
 20941      01010101 
 20942              	.LASF140:
 20943 0000 5F5F6664 		.ascii	"__fdlibm_xopen\000"
 20943      6C69626D 
 20943      5F786F70 
 20943      656E00
 20944              	.LASF148:
 20945 000f 73796D5F 		.ascii	"sym_str\000"
 20945      73747200 
 20946              	.LASF200:
 20947 0017 7374726C 		.ascii	"strlen\000"
 20947      656E00
 20948              	.LASF50:
 20949 001e 5F6F6E5F 		.ascii	"_on_exit_args\000"
 20949      65786974 
 20949      5F617267 
 20949      7300
 20950              	.LASF117:
 20951 002c 5F776374 		.ascii	"_wctomb_state\000"
 20951      6F6D625F 
 20951      73746174 
 20951      6500
 20952              	.LASF177:
 20953 003a 6C626D5F 		.ascii	"lbm_dec_sym\000"
 20953      6465635F 
 20953      73796D00 
 20954              	.LASF171:
 20955 0046 6C626D5F 		.ascii	"lbm_is_char\000"
 20955      69735F63 
 20955      68617200 
 20956              	.LASF114:
 20957 0052 5F723438 		.ascii	"_r48\000"
ARM GAS  /tmp/ccMboyVS.s 			page 369


 20957      00
 20958              	.LASF119:
 20959 0057 5F736967 		.ascii	"_signal_buf\000"
 20959      6E616C5F 
 20959      62756600 
 20960              	.LASF1:
 20961 0063 756E7369 		.ascii	"unsigned int\000"
 20961      676E6564 
 20961      20696E74 
 20961      00
 20962              	.LASF64:
 20963 0070 5F6C6266 		.ascii	"_lbfsize\000"
 20963      73697A65 
 20963      00
 20964              	.LASF62:
 20965 0079 5F666C61 		.ascii	"_flags\000"
 20965      677300
 20966              	.LASF152:
 20967 0080 696E6465 		.ascii	"index\000"
 20967      7800
 20968              	.LASF7:
 20969 0086 5F5F696E 		.ascii	"__int32_t\000"
 20969      7433325F 
 20969      7400
 20970              	.LASF79:
 20971 0090 5F657272 		.ascii	"_errno\000"
 20971      6E6F00
 20972              	.LASF76:
 20973 0097 5F6D6273 		.ascii	"_mbstate\000"
 20973      74617465 
 20973      00
 20974              	.LASF136:
 20975 00a0 6C626D5F 		.ascii	"lbm_array_header_t\000"
 20975      61727261 
 20975      795F6865 
 20975      61646572 
 20975      5F7400
 20976              	.LASF66:
 20977 00b3 5F726561 		.ascii	"_read\000"
 20977      6400
 20978              	.LASF121:
 20979 00b9 5F6D6272 		.ascii	"_mbrlen_state\000"
 20979      6C656E5F 
 20979      73746174 
 20979      6500
 20980              	.LASF18:
 20981 00c7 6C626D5F 		.ascii	"lbm_float\000"
 20981      666C6F61 
 20981      7400
 20982              	.LASF198:
 20983 00d1 5F5F6275 		.ascii	"__builtin_memcpy\000"
 20983      696C7469 
 20983      6E5F6D65 
 20983      6D637079 
 20983      00
 20984              	.LASF81:
 20985 00e2 5F737464 		.ascii	"_stdout\000"
ARM GAS  /tmp/ccMboyVS.s 			page 370


 20985      6F757400 
 20986              	.LASF26:
 20987 00ea 5F66706F 		.ascii	"_fpos_t\000"
 20987      735F7400 
 20988              	.LASF57:
 20989 00f2 5F666E73 		.ascii	"_fns\000"
 20989      00
 20990              	.LASF65:
 20991 00f7 5F636F6F 		.ascii	"_cookie\000"
 20991      6B696500 
 20992              	.LASF39:
 20993 00ff 5F426967 		.ascii	"_Bigint\000"
 20993      696E7400 
 20994              	.LASF47:
 20995 0107 5F5F746D 		.ascii	"__tm_wday\000"
 20995      5F776461 
 20995      7900
 20996              	.LASF89:
 20997 0111 5F726573 		.ascii	"_result\000"
 20997      756C7400 
 20998              	.LASF204:
 20999 0119 6C626D5F 		.ascii	"lbm_dec_as_i\000"
 20999      6465635F 
 20999      61735F69 
 20999      00
 21000              	.LASF13:
 21001 0126 75696E74 		.ascii	"uint32_t\000"
 21001      33325F74 
 21001      00
 21002              	.LASF43:
 21003 012f 5F5F746D 		.ascii	"__tm_hour\000"
 21003      5F686F75 
 21003      7200
 21004              	.LASF30:
 21005 0139 5F5F636F 		.ascii	"__count\000"
 21005      756E7400 
 21006              	.LASF203:
 21007 0141 6C626D5F 		.ascii	"lbm_add_symbol\000"
 21007      6164645F 
 21007      73796D62 
 21007      6F6C00
 21008              	.LASF0:
 21009 0150 666C6F61 		.ascii	"float\000"
 21009      7400
 21010              	.LASF42:
 21011 0156 5F5F746D 		.ascii	"__tm_min\000"
 21011      5F6D696E 
 21011      00
 21012              	.LASF130:
 21013 015f 5F696D70 		.ascii	"_impure_ptr\000"
 21013      7572655F 
 21013      70747200 
 21014              	.LASF127:
 21015 016b 5F6E6578 		.ascii	"_nextf\000"
 21015      746600
 21016              	.LASF211:
 21017 0172 474E5520 		.ascii	"GNU C99 7.3.1 20180622 (release) [ARM/embedded-7-br"
ARM GAS  /tmp/ccMboyVS.s 			page 371


 21017      43393920 
 21017      372E332E 
 21017      31203230 
 21017      31383036 
 21018 01a5 616E6368 		.ascii	"anch revision 261907] -mcpu=cortex-m4 -mfloat-abi=h"
 21018      20726576 
 21018      6973696F 
 21018      6E203236 
 21018      31393037 
 21019 01d8 61726420 		.ascii	"ard -mfpu=fpv4-sp-d16 -mno-thumb-interwork -mthumb "
 21019      2D6D6670 
 21019      753D6670 
 21019      76342D73 
 21019      702D6431 
 21020 020b 2D676764 		.ascii	"-ggdb -O2 -std=gnu99 -fomit-frame-pointer -falign-f"
 21020      62202D4F 
 21020      32202D73 
 21020      74643D67 
 21020      6E753939 
 21021 023e 756E6374 		.ascii	"unctions=16 -ffunction-sections -fdata-sections -fn"
 21021      696F6E73 
 21021      3D313620 
 21021      2D666675 
 21021      6E637469 
 21022 0271 6F2D636F 		.ascii	"o-common -fsingle-precision-constant\000"
 21022      6D6D6F6E 
 21022      202D6673 
 21022      696E676C 
 21022      652D7072 
 21023              	.LASF165:
 21024 0296 6D6F6432 		.ascii	"mod2\000"
 21024      00
 21025              	.LASF104:
 21026 029b 5F72616E 		.ascii	"_rand48\000"
 21026      64343800 
 21027              	.LASF145:
 21028 02a3 72657375 		.ascii	"result\000"
 21028      6C7400
 21029              	.LASF201:
 21030 02aa 6C626D5F 		.ascii	"lbm_heap_allocate_array\000"
 21030      68656170 
 21030      5F616C6C 
 21030      6F636174 
 21030      655F6172 
 21031              	.LASF90:
 21032 02c2 5F726573 		.ascii	"_result_k\000"
 21032      756C745F 
 21032      6B00
 21033              	.LASF11:
 21034 02cc 6C6F6E67 		.ascii	"long long unsigned int\000"
 21034      206C6F6E 
 21034      6720756E 
 21034      7369676E 
 21034      65642069 
 21035              	.LASF110:
 21036 02e3 5F617363 		.ascii	"_asctime_buf\000"
 21036      74696D65 
ARM GAS  /tmp/ccMboyVS.s 			page 372


 21036      5F627566 
 21036      00
 21037              	.LASF61:
 21038 02f0 5F5F7346 		.ascii	"__sFILE\000"
 21038      494C4500 
 21039              	.LASF38:
 21040 02f8 5F776473 		.ascii	"_wds\000"
 21040      00
 21041              	.LASF100:
 21042 02fd 5F5F4649 		.ascii	"__FILE\000"
 21042      4C4500
 21043              	.LASF126:
 21044 0304 5F685F65 		.ascii	"_h_errno\000"
 21044      72726E6F 
 21044      00
 21045              	.LASF141:
 21046 030d 5F5F6664 		.ascii	"__fdlibm_posix\000"
 21046      6C69626D 
 21046      5F706F73 
 21046      697800
 21047              	.LASF73:
 21048 031c 5F6F6666 		.ascii	"_offset\000"
 21048      73657400 
 21049              	.LASF208:
 21050 0324 6C626D5F 		.ascii	"lbm_set_cdr\000"
 21050      7365745F 
 21050      63647200 
 21051              	.LASF188:
 21052 0330 6C626D5F 		.ascii	"lbm_set_ptr_type\000"
 21052      7365745F 
 21052      7074725F 
 21052      74797065 
 21052      00
 21053              	.LASF84:
 21054 0341 5F656D65 		.ascii	"_emergency\000"
 21054      7267656E 
 21054      637900
 21055              	.LASF169:
 21056 034c 6C626D5F 		.ascii	"lbm_is_fundamental\000"
 21056      69735F66 
 21056      756E6461 
 21056      6D656E74 
 21056      616C00
 21057              	.LASF154:
 21058 035f 696E6465 		.ascii	"index_end\000"
 21058      785F656E 
 21058      6400
 21059              	.LASF21:
 21060 0369 73697A65 		.ascii	"size_t\000"
 21060      5F7400
 21061              	.LASF14:
 21062 0370 6C626D5F 		.ascii	"lbm_value\000"
 21062      76616C75 
 21062      6500
 21063              	.LASF41:
 21064 037a 5F5F746D 		.ascii	"__tm_sec\000"
 21064      5F736563 
ARM GAS  /tmp/ccMboyVS.s 			page 373


 21064      00
 21065              	.LASF132:
 21066 0383 7375626F 		.ascii	"suboptarg\000"
 21066      70746172 
 21066      6700
 21067              	.LASF48:
 21068 038d 5F5F746D 		.ascii	"__tm_yday\000"
 21068      5F796461 
 21068      7900
 21069              	.LASF83:
 21070 0397 5F696E63 		.ascii	"_inc\000"
 21070      00
 21071              	.LASF19:
 21072 039c 5F426F6F 		.ascii	"_Bool\000"
 21072      6C00
 21073              	.LASF190:
 21074 03a2 6C626D5F 		.ascii	"lbm_type_of\000"
 21074      74797065 
 21074      5F6F6600 
 21075              	.LASF35:
 21076 03ae 5F6E6578 		.ascii	"_next\000"
 21076      7400
 21077              	.LASF123:
 21078 03b4 5F6D6273 		.ascii	"_mbsrtowcs_state\000"
 21078      72746F77 
 21078      63735F73 
 21078      74617465 
 21078      00
 21079              	.LASF159:
 21080 03c5 636D7066 		.ascii	"cmpf\000"
 21080      00
 21081              	.LASF161:
 21082 03ca 636D7069 		.ascii	"cmpi\000"
 21082      00
 21083              	.LASF160:
 21084 03cf 636D7075 		.ascii	"cmpu\000"
 21084      00
 21085              	.LASF31:
 21086 03d4 5F5F7661 		.ascii	"__value\000"
 21086      6C756500 
 21087              	.LASF91:
 21088 03dc 5F703573 		.ascii	"_p5s\000"
 21088      00
 21089              	.LASF217:
 21090 03e1 73747275 		.ascii	"struct_eq\000"
 21090      63745F65 
 21090      7100
 21091              	.LASF125:
 21092 03eb 5F776373 		.ascii	"_wcsrtombs_state\000"
 21092      72746F6D 
 21092      62735F73 
 21092      74617465 
 21092      00
 21093              	.LASF115:
 21094 03fc 5F6D626C 		.ascii	"_mblen_state\000"
 21094      656E5F73 
 21094      74617465 
ARM GAS  /tmp/ccMboyVS.s 			page 374


 21094      00
 21095              	.LASF153:
 21096 0409 61727261 		.ascii	"array\000"
 21096      7900
 21097              	.LASF20:
 21098 040f 63686172 		.ascii	"char\000"
 21098      00
 21099              	.LASF44:
 21100 0414 5F5F746D 		.ascii	"__tm_mday\000"
 21100      5F6D6461 
 21100      7900
 21101              	.LASF156:
 21102 041e 69785F65 		.ascii	"ix_end\000"
 21102      6E6400
 21103              	.LASF97:
 21104 0425 5F736967 		.ascii	"_sig_func\000"
 21104      5F66756E 
 21104      6300
 21105              	.LASF122:
 21106 042f 5F6D6272 		.ascii	"_mbrtowc_state\000"
 21106      746F7763 
 21106      5F737461 
 21106      746500
 21107              	.LASF96:
 21108 043e 5F617465 		.ascii	"_atexit0\000"
 21108      78697430 
 21108      00
 21109              	.LASF33:
 21110 0447 5F666C6F 		.ascii	"_flock_t\000"
 21110      636B5F74 
 21110      00
 21111              	.LASF28:
 21112 0450 5F5F7763 		.ascii	"__wch\000"
 21112      6800
 21113              	.LASF103:
 21114 0456 5F696F62 		.ascii	"_iobs\000"
 21114      7300
 21115              	.LASF187:
 21116 045c 6C626D5F 		.ascii	"lbm_enc_sym\000"
 21116      656E635F 
 21116      73796D00 
 21117              	.LASF162:
 21118 0468 61727261 		.ascii	"array_equality\000"
 21118      795F6571 
 21118      75616C69 
 21118      747900
 21119              	.LASF69:
 21120 0477 5F636C6F 		.ascii	"_close\000"
 21120      736500
 21121              	.LASF87:
 21122 047e 5F5F7364 		.ascii	"__sdidinit\000"
 21122      6964696E 
 21122      697400
 21123              	.LASF157:
 21124 0489 72657476 		.ascii	"retval\000"
 21124      616C00
 21125              	.LASF146:
ARM GAS  /tmp/ccMboyVS.s 			page 375


 21126 0490 636D705F 		.ascii	"cmp_res\000"
 21126      72657300 
 21127              	.LASF176:
 21128 0498 665F746D 		.ascii	"f_tmp\000"
 21128      7000
 21129              	.LASF80:
 21130 049e 5F737464 		.ascii	"_stdin\000"
 21130      696E00
 21131              	.LASF112:
 21132 04a5 5F67616D 		.ascii	"_gamma_signgam\000"
 21132      6D615F73 
 21132      69676E67 
 21132      616D00
 21133              	.LASF10:
 21134 04b4 6C6F6E67 		.ascii	"long long int\000"
 21134      206C6F6E 
 21134      6720696E 
 21134      7400
 21135              	.LASF151:
 21136 04c2 696E6465 		.ascii	"index_list\000"
 21136      785F6C69 
 21136      737400
 21137              	.LASF59:
 21138 04cd 5F626173 		.ascii	"_base\000"
 21138      6500
 21139              	.LASF92:
 21140 04d3 5F667265 		.ascii	"_freelist\000"
 21140      656C6973 
 21140      7400
 21141              	.LASF106:
 21142 04dd 5F6D756C 		.ascii	"_mult\000"
 21142      7400
 21143              	.LASF34:
 21144 04e3 5F5F554C 		.ascii	"__ULong\000"
 21144      6F6E6700 
 21145              	.LASF139:
 21146 04eb 5F5F6664 		.ascii	"__fdlibm_svid\000"
 21146      6C69626D 
 21146      5F737669 
 21146      6400
 21147              	.LASF210:
 21148 04f9 5F5F6275 		.ascii	"__builtin_memcmp\000"
 21148      696C7469 
 21148      6E5F6D65 
 21148      6D636D70 
 21148      00
 21149              	.LASF124:
 21150 050a 5F776372 		.ascii	"_wcrtomb_state\000"
 21150      746F6D62 
 21150      5F737461 
 21150      746500
 21151              	.LASF63:
 21152 0519 5F66696C 		.ascii	"_file\000"
 21152      6500
 21153              	.LASF15:
 21154 051f 6C626D5F 		.ascii	"lbm_type\000"
 21154      74797065 
ARM GAS  /tmp/ccMboyVS.s 			page 376


 21154      00
 21155              	.LASF195:
 21156 0528 6D656D73 		.ascii	"memset\000"
 21156      657400
 21157              	.LASF88:
 21158 052f 5F5F636C 		.ascii	"__cleanup\000"
 21158      65616E75 
 21158      7000
 21159              	.LASF142:
 21160 0539 5F5F6664 		.ascii	"__fdlib_version\000"
 21160      6C69625F 
 21160      76657273 
 21160      696F6E00 
 21161              	.LASF199:
 21162 0549 6C626D5F 		.ascii	"lbm_get_name_by_symbol\000"
 21162      6765745F 
 21162      6E616D65 
 21162      5F62795F 
 21162      73796D62 
 21163              	.LASF164:
 21164 0560 6E656761 		.ascii	"negate\000"
 21164      746500
 21165              	.LASF32:
 21166 0567 5F6D6273 		.ascii	"_mbstate_t\000"
 21166      74617465 
 21166      5F7400
 21167              	.LASF178:
 21168 0572 6C626D5F 		.ascii	"lbm_dec_char\000"
 21168      6465635F 
 21168      63686172 
 21168      00
 21169              	.LASF134:
 21170 057f 73697A65 		.ascii	"size\000"
 21170      00
 21171              	.LASF158:
 21172 0584 636F6D70 		.ascii	"compare\000"
 21172      61726500 
 21173              	.LASF49:
 21174 058c 5F5F746D 		.ascii	"__tm_isdst\000"
 21174      5F697364 
 21174      737400
 21175              	.LASF207:
 21176 0597 6C626D5F 		.ascii	"lbm_set_car\000"
 21176      7365745F 
 21176      63617200 
 21177              	.LASF56:
 21178 05a3 5F696E64 		.ascii	"_ind\000"
 21178      00
 21179              	.LASF192:
 21180 05a8 6C626D5F 		.ascii	"lbm_cons\000"
 21180      636F6E73 
 21180      00
 21181              	.LASF135:
 21182 05b1 64617461 		.ascii	"data\000"
 21182      00
 21183              	.LASF213:
 21184 05b6 2F626C64 		.ascii	"/bldc\000"
ARM GAS  /tmp/ccMboyVS.s 			page 377


 21184      6300
 21185              	.LASF45:
 21186 05bc 5F5F746D 		.ascii	"__tm_mon\000"
 21186      5F6D6F6E 
 21186      00
 21187              	.LASF143:
 21188 05c5 61726773 		.ascii	"args\000"
 21188      00
 21189              	.LASF205:
 21190 05ca 6C626D5F 		.ascii	"lbm_dec_as_f\000"
 21190      6465635F 
 21190      61735F66 
 21190      00
 21191              	.LASF22:
 21192 05d7 5F4C4F43 		.ascii	"_LOCK_T\000"
 21192      4B5F5400 
 21193              	.LASF155:
 21194 05df 72656164 		.ascii	"read_many\000"
 21194      5F6D616E 
 21194      7900
 21195              	.LASF191:
 21196 05e9 6C626D5F 		.ascii	"lbm_dec_as_u\000"
 21196      6465635F 
 21196      61735F75 
 21196      00
 21197              	.LASF67:
 21198 05f6 5F777269 		.ascii	"_write\000"
 21198      746500
 21199              	.LASF16:
 21200 05fd 6C626D5F 		.ascii	"lbm_uint\000"
 21200      75696E74 
 21200      00
 21201              	.LASF193:
 21202 0606 6C626D5F 		.ascii	"lbm_car\000"
 21202      63617200 
 21203              	.LASF55:
 21204 060e 5F617465 		.ascii	"_atexit\000"
 21204      78697400 
 21205              	.LASF215:
 21206 0616 61727261 		.ascii	"array_write\000"
 21206      795F7772 
 21206      69746500 
 21207              	.LASF144:
 21208 0622 6E617267 		.ascii	"nargs\000"
 21208      7300
 21209              	.LASF4:
 21210 0628 73686F72 		.ascii	"short int\000"
 21210      7420696E 
 21210      7400
 21211              	.LASF147:
 21212 0632 63757272 		.ascii	"curr\000"
 21212      00
 21213              	.LASF6:
 21214 0637 6C6F6E67 		.ascii	"long int\000"
 21214      20696E74 
 21214      00
 21215              	.LASF163:
ARM GAS  /tmp/ccMboyVS.s 			page 378


 21216 0640 73756232 		.ascii	"sub2\000"
 21216      00
 21217              	.LASF166:
 21218 0645 64697632 		.ascii	"div2\000"
 21218      00
 21219              	.LASF99:
 21220 064a 5F5F7366 		.ascii	"__sf\000"
 21220      00
 21221              	.LASF37:
 21222 064f 5F736967 		.ascii	"_sign\000"
 21222      6E00
 21223              	.LASF182:
 21224 0655 6C626D5F 		.ascii	"lbm_enc_F\000"
 21224      656E635F 
 21224      4600
 21225              	.LASF184:
 21226 065f 6C626D5F 		.ascii	"lbm_enc_I\000"
 21226      656E635F 
 21226      4900
 21227              	.LASF74:
 21228 0669 5F646174 		.ascii	"_data\000"
 21228      6100
 21229              	.LASF29:
 21230 066f 5F5F7763 		.ascii	"__wchb\000"
 21230      686200
 21231              	.LASF131:
 21232 0676 5F676C6F 		.ascii	"_global_impure_ptr\000"
 21232      62616C5F 
 21232      696D7075 
 21232      72655F70 
 21232      747200
 21233              	.LASF183:
 21234 0689 6C626D5F 		.ascii	"lbm_enc_U\000"
 21234      656E635F 
 21234      5500
 21235              	.LASF46:
 21236 0693 5F5F746D 		.ascii	"__tm_year\000"
 21236      5F796561 
 21236      7200
 21237              	.LASF138:
 21238 069d 5F5F6664 		.ascii	"__fdlibm_ieee\000"
 21238      6C69626D 
 21238      5F696565 
 21238      6500
 21239              	.LASF111:
 21240 06ab 5F6C6F63 		.ascii	"_localtime_buf\000"
 21240      616C7469 
 21240      6D655F62 
 21240      756600
 21241              	.LASF186:
 21242 06ba 6C626D5F 		.ascii	"lbm_enc_i\000"
 21242      656E635F 
 21242      6900
 21243              	.LASF129:
 21244 06c4 5F756E75 		.ascii	"_unused\000"
 21244      73656400 
 21245              	.LASF95:
ARM GAS  /tmp/ccMboyVS.s 			page 379


 21246 06cc 5F6E6577 		.ascii	"_new\000"
 21246      00
 21247              	.LASF93:
 21248 06d1 5F637674 		.ascii	"_cvtlen\000"
 21248      6C656E00 
 21249              	.LASF36:
 21250 06d9 5F6D6178 		.ascii	"_maxwds\000"
 21250      77647300 
 21251              	.LASF118:
 21252 06e1 5F6C3634 		.ascii	"_l64a_buf\000"
 21252      615F6275 
 21252      6600
 21253              	.LASF185:
 21254 06eb 6C626D5F 		.ascii	"lbm_enc_u\000"
 21254      656E635F 
 21254      7500
 21255              	.LASF197:
 21256 06f5 5F5F6275 		.ascii	"__builtin_memset\000"
 21256      696C7469 
 21256      6E5F6D65 
 21256      6D736574 
 21256      00
 21257              	.LASF72:
 21258 0706 5F626C6B 		.ascii	"_blksize\000"
 21258      73697A65 
 21258      00
 21259              	.LASF40:
 21260 070f 5F5F746D 		.ascii	"__tm\000"
 21260      00
 21261              	.LASF75:
 21262 0714 5F6C6F63 		.ascii	"_lock\000"
 21262      6B00
 21263              	.LASF149:
 21264 071a 70726F64 		.ascii	"prod\000"
 21264      00
 21265              	.LASF212:
 21266 071f 6C697370 		.ascii	"lispBM/lispBM/src/fundamental.c\000"
 21266      424D2F6C 
 21266      69737042 
 21266      4D2F7372 
 21266      632F6675 
 21267              	.LASF9:
 21268 073f 6C6F6E67 		.ascii	"long unsigned int\000"
 21268      20756E73 
 21268      69676E65 
 21268      6420696E 
 21268      7400
 21269              	.LASF170:
 21270 0751 73796D72 		.ascii	"symrep\000"
 21270      657000
 21271              	.LASF102:
 21272 0758 5F6E696F 		.ascii	"_niobs\000"
 21272      627300
 21273              	.LASF27:
 21274 075f 77696E74 		.ascii	"wint_t\000"
 21274      5F7400
 21275              	.LASF12:
ARM GAS  /tmp/ccMboyVS.s 			page 380


 21276 0766 696E7433 		.ascii	"int32_t\000"
 21276      325F7400 
 21277              	.LASF133:
 21278 076e 656C745F 		.ascii	"elt_type\000"
 21278      74797065 
 21278      00
 21279              	.LASF168:
 21280 0777 61646432 		.ascii	"add2\000"
 21280      00
 21281              	.LASF52:
 21282 077c 5F64736F 		.ascii	"_dso_handle\000"
 21282      5F68616E 
 21282      646C6500 
 21283              	.LASF24:
 21284 0788 5F5F6C6F 		.ascii	"__lock\000"
 21284      636B00
 21285              	.LASF202:
 21286 078f 6C626D5F 		.ascii	"lbm_get_symbol_by_name\000"
 21286      6765745F 
 21286      73796D62 
 21286      6F6C5F62 
 21286      795F6E61 
 21287              	.LASF94:
 21288 07a6 5F637674 		.ascii	"_cvtbuf\000"
 21288      62756600 
 21289              	.LASF3:
 21290 07ae 756E7369 		.ascii	"unsigned char\000"
 21290      676E6564 
 21290      20636861 
 21290      7200
 21291              	.LASF8:
 21292 07bc 5F5F7569 		.ascii	"__uint32_t\000"
 21292      6E743332 
 21292      5F7400
 21293              	.LASF150:
 21294 07c7 6C626D5F 		.ascii	"lbm_fundamental\000"
 21294      66756E64 
 21294      616D656E 
 21294      74616C00 
 21295              	.LASF194:
 21296 07d7 6C626D5F 		.ascii	"lbm_cdr\000"
 21296      63647200 
 21297              	.LASF120:
 21298 07df 5F676574 		.ascii	"_getdate_err\000"
 21298      64617465 
 21298      5F657272 
 21298      00
 21299              	.LASF107:
 21300 07ec 5F616464 		.ascii	"_add\000"
 21300      00
 21301              	.LASF175:
 21302 07f1 6C626D5F 		.ascii	"lbm_dec_F\000"
 21302      6465635F 
 21302      4600
 21303              	.LASF173:
 21304 07fb 6C626D5F 		.ascii	"lbm_dec_I\000"
 21304      6465635F 
ARM GAS  /tmp/ccMboyVS.s 			page 381


 21304      4900
 21305              	.LASF58:
 21306 0805 5F5F7362 		.ascii	"__sbuf\000"
 21306      756600
 21307              	.LASF17:
 21308 080c 6C626D5F 		.ascii	"lbm_int\000"
 21308      696E7400 
 21309              	.LASF101:
 21310 0814 5F676C75 		.ascii	"_glue\000"
 21310      6500
 21311              	.LASF174:
 21312 081a 6C626D5F 		.ascii	"lbm_dec_U\000"
 21312      6465635F 
 21312      5500
 21313              	.LASF214:
 21314 0824 5F5F6664 		.ascii	"__fdlibm_version\000"
 21314      6C69626D 
 21314      5F766572 
 21314      73696F6E 
 21314      00
 21315              	.LASF98:
 21316 0835 5F5F7367 		.ascii	"__sglue\000"
 21316      6C756500 
 21317              	.LASF109:
 21318 083d 5F737472 		.ascii	"_strtok_last\000"
 21318      746F6B5F 
 21318      6C617374 
 21318      00
 21319              	.LASF116:
 21320 084a 5F6D6274 		.ascii	"_mbtowc_state\000"
 21320      6F77635F 
 21320      73746174 
 21320      6500
 21321              	.LASF181:
 21322 0858 6C626D5F 		.ascii	"lbm_enc_char\000"
 21322      656E635F 
 21322      63686172 
 21322      00
 21323              	.LASF180:
 21324 0865 6C626D5F 		.ascii	"lbm_dec_i\000"
 21324      6465635F 
 21324      6900
 21325              	.LASF86:
 21326 086f 5F6C6F63 		.ascii	"_locale\000"
 21326      616C6500 
 21327              	.LASF51:
 21328 0877 5F666E61 		.ascii	"_fnargs\000"
 21328      72677300 
 21329              	.LASF2:
 21330 087f 7369676E 		.ascii	"signed char\000"
 21330      65642063 
 21330      68617200 
 21331              	.LASF179:
 21332 088b 6C626D5F 		.ascii	"lbm_dec_u\000"
 21332      6465635F 
 21332      7500
 21333              	.LASF78:
ARM GAS  /tmp/ccMboyVS.s 			page 382


 21334 0895 5F726565 		.ascii	"_reent\000"
 21334      6E7400
 21335              	.LASF5:
 21336 089c 73686F72 		.ascii	"short unsigned int\000"
 21336      7420756E 
 21336      7369676E 
 21336      65642069 
 21336      6E7400
 21337              	.LASF196:
 21338 08af 6D656D63 		.ascii	"memcpy\000"
 21338      707900
 21339              	.LASF216:
 21340 08b6 61727261 		.ascii	"array_read\000"
 21340      795F7265 
 21340      616400
 21341              	.LASF53:
 21342 08c1 5F666E74 		.ascii	"_fntypes\000"
 21342      79706573 
 21342      00
 21343              	.LASF209:
 21344 08ca 6D656D63 		.ascii	"memcmp\000"
 21344      6D7000
 21345              	.LASF189:
 21346 08d1 6C626D5F 		.ascii	"lbm_is_ptr\000"
 21346      69735F70 
 21346      747200
 21347              	.LASF172:
 21348 08dc 6C626D5F 		.ascii	"lbm_is_number\000"
 21348      69735F6E 
 21348      756D6265 
 21348      7200
 21349              	.LASF60:
 21350 08ea 5F73697A 		.ascii	"_size\000"
 21350      6500
 21351              	.LASF137:
 21352 08f0 646F7562 		.ascii	"double\000"
 21352      6C6500
 21353              	.LASF25:
 21354 08f7 5F6F6666 		.ascii	"_off_t\000"
 21354      5F7400
 21355              	.LASF71:
 21356 08fe 5F6E6275 		.ascii	"_nbuf\000"
 21356      6600
 21357              	.LASF108:
 21358 0904 5F756E75 		.ascii	"_unused_rand\000"
 21358      7365645F 
 21358      72616E64 
 21358      00
 21359              	.LASF85:
 21360 0911 5F756E73 		.ascii	"_unspecified_locale_info\000"
 21360      70656369 
 21360      66696564 
 21360      5F6C6F63 
 21360      616C655F 
 21361              	.LASF77:
 21362 092a 5F666C61 		.ascii	"_flags2\000"
 21362      67733200 
ARM GAS  /tmp/ccMboyVS.s 			page 383


 21363              	.LASF54:
 21364 0932 5F69735F 		.ascii	"_is_cxa\000"
 21364      63786100 
 21365              	.LASF105:
 21366 093a 5F736565 		.ascii	"_seed\000"
 21366      6400
 21367              	.LASF206:
 21368 0940 666D6F64 		.ascii	"fmodf\000"
 21368      6600
 21369              	.LASF113:
 21370 0946 5F72616E 		.ascii	"_rand_next\000"
 21370      645F6E65 
 21370      787400
 21371              	.LASF23:
 21372 0951 5F5F6C6F 		.ascii	"__locale_t\000"
 21372      63616C65 
 21372      5F7400
 21373              	.LASF68:
 21374 095c 5F736565 		.ascii	"_seek\000"
 21374      6B00
 21375              	.LASF82:
 21376 0962 5F737464 		.ascii	"_stderr\000"
 21376      65727200 
 21377              	.LASF128:
 21378 096a 5F6E6D61 		.ascii	"_nmalloc\000"
 21378      6C6C6F63 
 21378      00
 21379              	.LASF70:
 21380 0973 5F756275 		.ascii	"_ubuf\000"
 21380      6600
 21381              	.LASF167:
 21382 0979 6D756C32 		.ascii	"mul2\000"
 21382      00
 21383              		.ident	"GCC: (GNU Tools for Arm Embedded Processors 7-2018-q3-update) 7.3.1 20180622 (release) [AR
ARM GAS  /tmp/ccMboyVS.s 			page 384


DEFINED SYMBOLS
                            *ABS*:0000000000000000 fundamental.c
     /tmp/ccMboyVS.s:18     .text.struct_eq:0000000000000000 $t
     /tmp/ccMboyVS.s:25     .text.struct_eq:0000000000000000 struct_eq
     /tmp/ccMboyVS.s:112    .text.struct_eq:0000000000000040 $d
     /tmp/ccMboyVS.s:126    .text.struct_eq:0000000000000074 $t
     /tmp/ccMboyVS.s:311    .text.array_read.part.0:0000000000000000 $t
     /tmp/ccMboyVS.s:318    .text.array_read.part.0:0000000000000000 array_read.part.0
     /tmp/ccMboyVS.s:715    .text.array_read:0000000000000000 $t
     /tmp/ccMboyVS.s:723    .text.array_read:0000000000000000 array_read
     /tmp/ccMboyVS.s:743    .text.array_write:0000000000000000 $t
     /tmp/ccMboyVS.s:751    .text.array_write:0000000000000000 array_write
     /tmp/ccMboyVS.s:975    .text.index_list:0000000000000000 $t
     /tmp/ccMboyVS.s:983    .text.index_list:0000000000000000 index_list
     /tmp/ccMboyVS.s:1069   .text.lbm_fundamental:0000000000000000 $t
     /tmp/ccMboyVS.s:1077   .text.lbm_fundamental:0000000000000000 lbm_fundamental
     /tmp/ccMboyVS.s:1123   .text.lbm_fundamental:0000000000000022 $d
     /tmp/ccMboyVS.s:1380   .text.lbm_fundamental:0000000000000224 $t
     /tmp/ccMboyVS.s:2239   .text.lbm_fundamental:0000000000000590 $d
     /tmp/ccMboyVS.s:2246   .text.lbm_fundamental:000000000000059c $t

UNDEFINED SYMBOLS
lbm_car
memcmp
lbm_cdr
lbm_dec_as_u
lbm_cons
lbm_dec_as_i
lbm_dec_as_f
fmodf
lbm_set_car
lbm_set_cdr
lbm_get_name_by_symbol
strlen
lbm_heap_allocate_array
lbm_get_symbol_by_name
memset
memcpy
lbm_add_symbol
