ARM GAS  /tmp/ccMboyVS.s 			page 1


   1              		.cpu cortex-m4
   2              		.eabi_attribute 27, 1
   3              		.eabi_attribute 28, 1
   4              		.eabi_attribute 20, 1
   5              		.eabi_attribute 21, 1
   6              		.eabi_attribute 23, 3
   7              		.eabi_attribute 24, 1
   8              		.eabi_attribute 25, 1
   9              		.eabi_attribute 26, 1
  10              		.eabi_attribute 30, 2
  11              		.eabi_attribute 34, 1
  12              		.eabi_attribute 18, 4
  13              		.file	"fundamental.c"
  14              		.text
  15              	.Ltext0:
  16              		.cfi_sections	.debug_frame
  17              		.section	.text.struct_eq,"ax",%progbits
  18              		.align	1
  19              		.p2align 4,,15
  20              		.syntax unified
  21              		.thumb
  22              		.thumb_func
  23              		.fpu fpv4-sp-d16
  24              		.type	struct_eq, %function
  25              	struct_eq:
  26              	.LFB52:
  27              		.file 1 "lispBM/lispBM/src/fundamental.c"
  28              		.loc 1 190 0
  29              		.cfi_startproc
  30              		@ args = 0, pretend = 0, frame = 0
  31              		@ frame_needed = 0, uses_anonymous_args = 0
  32              	.LVL0:
  33 0000 70B5     		push	{r4, r5, r6, lr}
  34              		.cfi_def_cfa_offset 16
  35              		.cfi_offset 4, -16
  36              		.cfi_offset 5, -12
  37              		.cfi_offset 6, -8
  38              		.cfi_offset 14, -4
  39              		.loc 1 192 0
  40 0002 C307     		lsls	r3, r0, #31
  41              		.loc 1 190 0
  42 0004 2DED028B 		vpush.64	{d8}
  43              		.cfi_def_cfa_offset 24
  44              		.cfi_offset 80, -24
  45              		.cfi_offset 81, -20
  46              		.loc 1 190 0
  47 0008 0546     		mov	r5, r0
  48 000a 01F00102 		and	r2, r1, #1
  49              		.loc 1 192 0
  50 000e 0AD5     		bpl	.L49
  51              		.loc 1 212 0
  52 0010 2AB1     		cbz	r2, .L6
  53              	.LVL1:
  54              	.LBB667:
  55              	.LBB668:
  56              		.file 2 "lispBM/lispBM/include/heap.h"
  57              		.loc 2 461 0
ARM GAS  /tmp/ccMboyVS.s 			page 2


  58 0012 01F07C42 		and	r2, r1, #-67108864
  59              	.LVL2:
  60              	.LBE668:
  61              	.LBE667:
  62              	.LBB669:
  63              	.LBB670:
  64 0016 00F07C44 		and	r4, r0, #-67108864
  65              	.LBE670:
  66              	.LBE669:
  67              		.loc 1 213 0
  68 001a A242     		cmp	r2, r4
  69 001c 2AD0     		beq	.L50
  70              	.LVL3:
  71              	.L6:
  72              		.loc 1 204 0
  73 001e 0020     		movs	r0, #0
  74              	.L4:
  75              		.loc 1 232 0
  76 0020 BDEC028B 		vldm	sp!, {d8}
  77              		.cfi_remember_state
  78              		.cfi_restore 80
  79              		.cfi_restore 81
  80              		.cfi_def_cfa_offset 16
  81 0024 70BD     		pop	{r4, r5, r6, pc}
  82              	.LVL4:
  83              	.L49:
  84              		.cfi_restore_state
  85              		.loc 1 192 0
  86 0026 002A     		cmp	r2, #0
  87 0028 F9D1     		bne	.L6
  88              	.LVL5:
  89              	.LBB671:
  90              	.LBB672:
  91              		.loc 2 461 0
  92 002a 00F00C02 		and	r2, r0, #12
  93              	.LVL6:
  94              	.LBE672:
  95              	.LBE671:
  96              	.LBB673:
  97              	.LBB674:
  98 002e 01F00C00 		and	r0, r1, #12
  99              	.LVL7:
 100              	.LBE674:
 101              	.LBE673:
 102              		.loc 1 193 0
 103 0032 8242     		cmp	r2, r0
 104 0034 F3D1     		bne	.L6
 105              		.loc 1 194 0
 106 0036 0C2A     		cmp	r2, #12
 107 0038 F1D8     		bhi	.L6
 108 003a 01A3     		adr	r3, .L8
 109 003c 53F822F0 		ldr	pc, [r3, r2, lsl #2]
 110              		.p2align 2
 111              	.L8:
 112 0040 A3000000 		.word	.L7+1
 113 0044 1F000000 		.word	.L6+1
 114 0048 1F000000 		.word	.L6+1
ARM GAS  /tmp/ccMboyVS.s 			page 3


 115 004c 1F000000 		.word	.L6+1
 116 0050 0B010000 		.word	.L9+1
 117 0054 1F000000 		.word	.L6+1
 118 0058 1F000000 		.word	.L6+1
 119 005c 1F000000 		.word	.L6+1
 120 0060 A3000000 		.word	.L7+1
 121 0064 1F000000 		.word	.L6+1
 122 0068 1F000000 		.word	.L6+1
 123 006c 1F000000 		.word	.L6+1
 124 0070 FD000000 		.word	.L10+1
 125              	.LVL8:
 126              		.p2align 1
 127              	.L50:
 128              		.loc 1 214 0
 129 0074 B2F1405F 		cmp	r2, #805306368
 130 0078 0C46     		mov	r4, r1
 131 007a 06D0     		beq	.L11
 132 007c 18D8     		bhi	.L12
 133 007e B2F1805F 		cmp	r2, #268435456
 134 0082 60D0     		beq	.L13
 135 0084 B2F1005F 		cmp	r2, #536870912
 136 0088 C9D1     		bne	.L6
 137              	.L11:
 138              		.loc 1 219 0
 139 008a 2846     		mov	r0, r5
 140              	.LVL9:
 141 008c FFF7FEFF 		bl	lbm_car
 142              	.LVL10:
 143 0090 0546     		mov	r5, r0
 144              	.LVL11:
 145 0092 2046     		mov	r0, r4
 146 0094 FFF7FEFF 		bl	lbm_car
 147              	.LVL12:
 148 0098 281A     		subs	r0, r5, r0
 149 009a B0FA80F0 		clz	r0, r0
 150 009e 4009     		lsrs	r0, r0, #5
 151 00a0 BEE7     		b	.L4
 152              	.LVL13:
 153              	.L7:
 154              	.LBB675:
 155              	.LBB676:
 156              		.loc 2 529 0
 157 00a2 0909     		lsrs	r1, r1, #4
 158              	.LVL14:
 159              	.LBE676:
 160              	.LBE675:
 161              		.loc 1 196 0
 162 00a4 B1EB151F 		cmp	r1, r5, lsr #4
 163 00a8 0CBF     		ite	eq
 164 00aa 0120     		moveq	r0, #1
 165 00ac 0020     		movne	r0, #0
 166 00ae B7E7     		b	.L4
 167              	.LVL15:
 168              	.L12:
 169              		.loc 1 214 0
 170 00b0 B2F1804F 		cmp	r2, #1073741824
 171 00b4 32D0     		beq	.L14
ARM GAS  /tmp/ccMboyVS.s 			page 4


 172 00b6 B2F1504F 		cmp	r2, #-805306368
 173 00ba B0D1     		bne	.L6
 174              	.LVL16:
 175              	.LBB677:
 176              	.LBB678:
 177              		.loc 1 162 0
 178 00bc FFF7FEFF 		bl	lbm_car
 179              	.LVL17:
 180 00c0 0546     		mov	r5, r0
 181              	.LVL18:
 182              		.loc 1 163 0
 183 00c2 2046     		mov	r0, r4
 184              	.LVL19:
 185 00c4 FFF7FEFF 		bl	lbm_car
 186              	.LVL20:
 187              		.loc 1 165 0
 188 00c8 2B68     		ldr	r3, [r5]
 189 00ca 0268     		ldr	r2, [r0]
 190 00cc 9342     		cmp	r3, r2
 191 00ce A6D1     		bne	.L6
 192              		.loc 1 166 0
 193 00d0 6A68     		ldr	r2, [r5, #4]
 194              		.loc 1 165 0
 195 00d2 4168     		ldr	r1, [r0, #4]
 196 00d4 8A42     		cmp	r2, r1
 197 00d6 A2D1     		bne	.L6
 198              		.loc 1 167 0
 199 00d8 0C2B     		cmp	r3, #12
 200 00da 06D0     		beq	.L21
 201 00dc 51D9     		bls	.L51
 202 00de B3F1405F 		cmp	r3, #805306368
 203 00e2 02D0     		beq	.L21
 204 00e4 B3F1804F 		cmp	r3, #1073741824
 205 00e8 46D1     		bne	.L52
 206              	.L21:
 207              		.loc 1 180 0
 208 00ea 9200     		lsls	r2, r2, #2
 209              	.L47:
 210 00ec 8168     		ldr	r1, [r0, #8]
 211 00ee A868     		ldr	r0, [r5, #8]
 212              	.LVL21:
 213 00f0 FFF7FEFF 		bl	memcmp
 214              	.LVL22:
 215 00f4 B0FA80F0 		clz	r0, r0
 216 00f8 4009     		lsrs	r0, r0, #5
 217 00fa 91E7     		b	.L4
 218              	.LVL23:
 219              	.L10:
 220              	.LBE678:
 221              	.LBE677:
 222              	.LBB680:
 223              	.LBB681:
 224              		.loc 2 517 0
 225 00fc 2B11     		asrs	r3, r5, #4
 226              	.LBE681:
 227              	.LBE680:
 228              		.loc 1 198 0
ARM GAS  /tmp/ccMboyVS.s 			page 5


 229 00fe B3EB211F 		cmp	r3, r1, asr #4
 230 0102 0CBF     		ite	eq
 231 0104 0120     		moveq	r0, #1
 232 0106 0020     		movne	r0, #0
 233 0108 8AE7     		b	.L4
 234              	.L9:
 235              		.loc 1 202 0
 236 010a C1F30711 		ubfx	r1, r1, #4, #8
 237              	.LVL24:
 238 010e C5F30713 		ubfx	r3, r5, #4, #8
 239 0112 C81A     		subs	r0, r1, r3
 240 0114 B0FA80F0 		clz	r0, r0
 241 0118 4009     		lsrs	r0, r0, #5
 242 011a 81E7     		b	.L4
 243              	.LVL25:
 244              	.L14:
 245              		.loc 1 223 0
 246 011c FFF7FEFF 		bl	lbm_car
 247              	.LVL26:
 248 0120 08EE100A 		vmov	s16, r0	@ int
 249 0124 2046     		mov	r0, r4
 250 0126 FFF7FEFF 		bl	lbm_car
 251              	.LVL27:
 252 012a 07EE900A 		vmov	s15, r0	@ int
 253 012e B8EE488A 		vcvt.f32.u32	s16, s16
 254 0132 F8EE677A 		vcvt.f32.u32	s15, s15
 255 0136 B4EE678A 		vcmp.f32	s16, s15
 256 013a F1EE10FA 		vmrs	APSR_nzcv, FPSCR
 257 013e 0CBF     		ite	eq
 258 0140 0120     		moveq	r0, #1
 259 0142 0020     		movne	r0, #0
 260 0144 6CE7     		b	.L4
 261              	.LVL28:
 262              	.L13:
 263              		.loc 1 216 0
 264 0146 FFF7FEFF 		bl	lbm_car
 265              	.LVL29:
 266 014a 0646     		mov	r6, r0
 267 014c 2046     		mov	r0, r4
 268 014e FFF7FEFF 		bl	lbm_car
 269              	.LVL30:
 270 0152 0146     		mov	r1, r0
 271 0154 3046     		mov	r0, r6
 272 0156 FFF753FF 		bl	struct_eq
 273              	.LVL31:
 274 015a 0028     		cmp	r0, #0
 275 015c 3FF460AF 		beq	.L4
 276              		.loc 1 217 0 discriminator 1
 277 0160 2846     		mov	r0, r5
 278 0162 FFF7FEFF 		bl	lbm_cdr
 279              	.LVL32:
 280 0166 0546     		mov	r5, r0
 281              	.LVL33:
 282 0168 2046     		mov	r0, r4
 283 016a FFF7FEFF 		bl	lbm_cdr
 284              	.LVL34:
 285 016e 0146     		mov	r1, r0
ARM GAS  /tmp/ccMboyVS.s 			page 6


 286 0170 2846     		mov	r0, r5
 287 0172 FFF745FF 		bl	struct_eq
 288              	.LVL35:
 289              		.loc 1 216 0 discriminator 1
 290 0176 53E7     		b	.L4
 291              	.LVL36:
 292              	.L52:
 293              	.LBB682:
 294              	.LBB679:
 295              		.loc 1 167 0
 296 0178 B3F1005F 		cmp	r3, #536870912
 297 017c 7FF44FAF 		bne	.L6
 298 0180 B3E7     		b	.L21
 299              	.L51:
 300 0182 042B     		cmp	r3, #4
 301 0184 B2D0     		beq	.L47
 302 0186 082B     		cmp	r3, #8
 303 0188 AFD0     		beq	.L21
 304 018a 48E7     		b	.L6
 305              	.LBE679:
 306              	.LBE682:
 307              		.cfi_endproc
 308              	.LFE52:
 309              		.size	struct_eq, .-struct_eq
 310              		.section	.text.array_read.part.0,"ax",%progbits
 311              		.align	1
 312              		.p2align 4,,15
 313              		.syntax unified
 314              		.thumb
 315              		.thumb_func
 316              		.fpu fpv4-sp-d16
 317              		.type	array_read.part.0, %function
 318              	array_read.part.0:
 319              	.LFB61:
 320              		.loc 1 271 0
 321              		.cfi_startproc
 322              		@ args = 0, pretend = 0, frame = 0
 323              		@ frame_needed = 0, uses_anonymous_args = 0
 324              	.LVL37:
 325 0000 2DE9F84F 		push	{r3, r4, r5, r6, r7, r8, r9, r10, fp, lr}
 326              		.cfi_def_cfa_offset 40
 327              		.cfi_offset 3, -40
 328              		.cfi_offset 4, -36
 329              		.cfi_offset 5, -32
 330              		.cfi_offset 6, -28
 331              		.cfi_offset 7, -24
 332              		.cfi_offset 8, -20
 333              		.cfi_offset 9, -16
 334              		.cfi_offset 10, -12
 335              		.cfi_offset 11, -8
 336              		.cfi_offset 14, -4
 337              		.loc 1 276 0
 338 0004 4368     		ldr	r3, [r0, #4]
 339              	.LVL38:
 340              		.loc 1 282 0
 341 0006 0229     		cmp	r1, #2
 342              		.loc 1 283 0
ARM GAS  /tmp/ccMboyVS.s 			page 7


 343 0008 87BF     		ittee	hi
 344 000a 8468     		ldrhi	r4, [r0, #8]
 345              	.LVL39:
 346              		.loc 1 284 0
 347 000c 4FF00108 		movhi	r8, #1
 348              		.loc 1 276 0
 349 0010 1C46     		movls	r4, r3
 350              	.LVL40:
 351              		.loc 1 280 0
 352 0012 4FF00008 		movls	r8, #0
 353              	.LVL41:
 354              	.LBB683:
 355              	.LBB684:
 356              	.LBB685:
 357              	.LBB686:
 358              		.loc 2 461 0
 359 0016 DD07     		lsls	r5, r3, #31
 360 0018 4CBF     		ite	mi
 361 001a 03F07C41 		andmi	r1, r3, #-67108864
 362              	.LVL42:
 363 001e 03F00C01 		andpl	r1, r3, #12
 364              	.LVL43:
 365              	.LBE686:
 366              	.LBE685:
 367              		.loc 2 561 0
 368 0022 0829     		cmp	r1, #8
 369 0024 0DD0     		beq	.L57
 370              		.loc 2 562 0
 371 0026 21F00805 		bic	r5, r1, #8
 372 002a 042D     		cmp	r5, #4
 373 002c 09D0     		beq	.L57
 374              		.loc 2 564 0
 375 002e 21F08055 		bic	r5, r1, #268435456
 376 0032 B5F1005F 		cmp	r5, #536870912
 377 0036 04D0     		beq	.L57
 378              		.loc 2 565 0
 379 0038 B1F1804F 		cmp	r1, #1073741824
 380 003c 01D0     		beq	.L57
 381              	.LVL44:
 382              	.L53:
 383              	.LBE684:
 384              	.LBE683:
 385              		.loc 1 356 0
 386 003e BDE8F88F 		pop	{r3, r4, r5, r6, r7, r8, r9, r10, fp, pc}
 387              	.LVL45:
 388              	.L57:
 389              	.LBB687:
 390              	.LBB688:
 391              	.LBB689:
 392              	.LBB690:
 393              		.loc 2 461 0
 394 0042 E107     		lsls	r1, r4, #31
 395 0044 2BD4     		bmi	.L84
 396 0046 04F00C01 		and	r1, r4, #12
 397              	.L59:
 398              	.LVL46:
 399              	.LBE690:
ARM GAS  /tmp/ccMboyVS.s 			page 8


 400              	.LBE689:
 401              		.loc 2 561 0
 402 004a 0829     		cmp	r1, #8
 403 004c 0BD0     		beq	.L60
 404              		.loc 2 562 0
 405 004e 21F00805 		bic	r5, r1, #8
 406 0052 042D     		cmp	r5, #4
 407 0054 07D0     		beq	.L60
 408              		.loc 2 564 0
 409 0056 21F08055 		bic	r5, r1, #268435456
 410 005a B5F1005F 		cmp	r5, #536870912
 411 005e 02D0     		beq	.L60
 412              		.loc 2 565 0
 413 0060 B1F1804F 		cmp	r1, #1073741824
 414 0064 EBD1     		bne	.L53
 415              	.L60:
 416 0066 1646     		mov	r6, r2
 417 0068 0246     		mov	r2, r0
 418              	.LVL47:
 419              	.LBE688:
 420              	.LBE687:
 421              		.loc 1 292 0
 422 006a 1846     		mov	r0, r3
 423              	.LVL48:
 424              		.loc 1 275 0
 425 006c 1568     		ldr	r5, [r2]
 426              	.LVL49:
 427              		.loc 1 292 0
 428 006e FFF7FEFF 		bl	lbm_dec_as_u
 429              	.LVL50:
 430 0072 0746     		mov	r7, r0
 431              	.LVL51:
 432              		.loc 1 293 0
 433 0074 2046     		mov	r0, r4
 434              	.LVL52:
 435 0076 FFF7FEFF 		bl	lbm_dec_as_u
 436              	.LVL53:
 437              		.loc 1 298 0
 438 007a 8742     		cmp	r7, r0
 439              		.loc 1 293 0
 440 007c 0446     		mov	r4, r0
 441              	.LVL54:
 442              		.loc 1 298 0
 443 007e 02D9     		bls	.L86
 444 0080 3B46     		mov	r3, r7
 445 0082 1C46     		mov	r4, r3
 446 0084 0746     		mov	r7, r0
 447              	.LVL55:
 448              	.L86:
 449              	.LBB694:
 450              	.LBB695:
 451              		.loc 2 461 0
 452 0086 E907     		lsls	r1, r5, #31
 453 0088 0CD4     		bmi	.L62
 454              	.L64:
 455              	.LBE695:
 456              	.LBE694:
ARM GAS  /tmp/ccMboyVS.s 			page 9


 457              		.loc 1 279 0
 458 008a 9025     		movs	r5, #144
 459              		.loc 1 278 0
 460 008c 4FF0000B 		mov	fp, #0
 461              	.LVL56:
 462              	.L63:
 463              		.loc 1 352 0
 464 0090 B8F1000F 		cmp	r8, #0
 465 0094 18BF     		it	ne
 466 0096 5D46     		movne	r5, fp
 467 0098 3560     		str	r5, [r6]
 468              		.loc 1 356 0
 469 009a BDE8F88F 		pop	{r3, r4, r5, r6, r7, r8, r9, r10, fp, pc}
 470              	.LVL57:
 471              	.L84:
 472              	.LBB697:
 473              	.LBB693:
 474              	.LBB692:
 475              	.LBB691:
 476              		.loc 2 461 0
 477 009e 04F07C41 		and	r1, r4, #-67108864
 478 00a2 D2E7     		b	.L59
 479              	.LVL58:
 480              	.L62:
 481              	.LBE691:
 482              	.LBE692:
 483              	.LBE693:
 484              	.LBE697:
 485              	.LBB698:
 486              	.LBB696:
 487 00a4 05F07C43 		and	r3, r5, #-67108864
 488              	.LBE696:
 489              	.LBE698:
 490              		.loc 1 304 0
 491 00a8 B3F1504F 		cmp	r3, #-805306368
 492 00ac EDD1     		bne	.L64
 493              	.LBB699:
 494              		.loc 1 305 0
 495 00ae 2846     		mov	r0, r5
 496 00b0 FFF7FEFF 		bl	lbm_car
 497              	.LVL59:
 498              	.LBB700:
 499              		.loc 1 309 0
 500 00b4 BC42     		cmp	r4, r7
 501              	.LBE700:
 502              		.loc 1 305 0
 503 00b6 8246     		mov	r10, r0
 504              	.LVL60:
 505              		.loc 1 306 0
 506 00b8 D0F80890 		ldr	r9, [r0, #8]
 507              	.LVL61:
 508              	.LBB719:
 509              		.loc 1 309 0
 510 00bc E5DB     		blt	.L64
 511              		.loc 1 311 0
 512 00be 4268     		ldr	r2, [r0, #4]
 513 00c0 9442     		cmp	r4, r2
ARM GAS  /tmp/ccMboyVS.s 			page 10


 514 00c2 1AD2     		bcs	.L65
 515              	.LBE719:
 516              	.LBE699:
 517              		.loc 1 278 0
 518 00c4 4FF0000B 		mov	fp, #0
 519              	.LVL62:
 520              	.L66:
 521              	.LBB721:
 522              	.LBB720:
 523              		.loc 1 317 0
 524 00c8 DAF80010 		ldr	r1, [r10]
 525 00cc 0C29     		cmp	r1, #12
 526 00ce 60D0     		beq	.L68
 527 00d0 16D9     		bls	.L128
 528 00d2 B1F1405F 		cmp	r1, #805306368
 529 00d6 62D0     		beq	.L72
 530 00d8 B1F1804F 		cmp	r1, #1073741824
 531 00dc 40D0     		beq	.L73
 532 00de B1F1005F 		cmp	r1, #536870912
 533 00e2 25D0     		beq	.L129
 534              	.L88:
 535              		.loc 1 343 0
 536 00e4 9025     		movs	r5, #144
 537              	.LVL63:
 538              	.L67:
 539              		.loc 1 346 0
 540 00e6 B8F1000F 		cmp	r8, #0
 541 00ea 15D1     		bne	.L130
 542              	.L81:
 543              		.loc 1 309 0
 544 00ec 013C     		subs	r4, r4, #1
 545              	.LVL64:
 546 00ee BC42     		cmp	r4, r7
 547 00f0 CEDB     		blt	.L63
 548              		.loc 1 311 0
 549 00f2 DAF80410 		ldr	r1, [r10, #4]
 550 00f6 A142     		cmp	r1, r4
 551 00f8 E6D8     		bhi	.L66
 552              	.L65:
 553              		.loc 1 313 0
 554 00fa 0023     		movs	r3, #0
 555 00fc 3360     		str	r3, [r6]
 556 00fe 9EE7     		b	.L53
 557              	.LVL65:
 558              	.L128:
 559              		.loc 1 317 0
 560 0100 0429     		cmp	r1, #4
 561 0102 0FD0     		beq	.L70
 562 0104 0829     		cmp	r1, #8
 563 0106 EDD1     		bne	.L88
 564              	.LVL66:
 565              	.LBB701:
 566              	.LBB702:
 567              		.loc 2 489 0
 568 0108 59F82450 		ldr	r5, [r9, r4, lsl #2]
 569 010c 2D01     		lsls	r5, r5, #4
 570 010e 45F00805 		orr	r5, r5, #8
ARM GAS  /tmp/ccMboyVS.s 			page 11


 571              	.LVL67:
 572              	.LBE702:
 573              	.LBE701:
 574              		.loc 1 346 0
 575 0112 B8F1000F 		cmp	r8, #0
 576 0116 E9D0     		beq	.L81
 577              	.LVL68:
 578              	.L130:
 579              		.loc 1 347 0
 580 0118 5946     		mov	r1, fp
 581 011a 2846     		mov	r0, r5
 582 011c FFF7FEFF 		bl	lbm_cons
 583              	.LVL69:
 584 0120 8346     		mov	fp, r0
 585 0122 E3E7     		b	.L81
 586              	.LVL70:
 587              	.L70:
 588              	.LBB703:
 589              	.LBB704:
 590              		.loc 2 513 0
 591 0124 19F80450 		ldrb	r5, [r9, r4]	@ zero_extendqisi2
 592 0128 2D01     		lsls	r5, r5, #4
 593 012a 45F00405 		orr	r5, r5, #4
 594              	.LVL71:
 595 012e DAE7     		b	.L67
 596              	.LVL72:
 597              	.L129:
 598              	.LBE704:
 599              	.LBE703:
 600              		.loc 1 328 0
 601 0130 4FF40871 		mov	r1, #544
 602 0134 59F82400 		ldr	r0, [r9, r4, lsl #2]
 603 0138 FFF7FEFF 		bl	lbm_cons
 604              	.LVL73:
 605              	.LBB705:
 606              	.LBB706:
 607              		.loc 2 461 0
 608 013c C207     		lsls	r2, r0, #31
 609 013e 4CBF     		ite	mi
 610 0140 00F07C41 		andmi	r1, r0, #-67108864
 611 0144 00F00C01 		andpl	r1, r0, #12
 612              	.LBE706:
 613              	.LBE705:
 614              		.loc 1 329 0
 615 0148 0029     		cmp	r1, #0
 616 014a 3FF478AF 		beq	.L53
 617              	.LVL74:
 618              	.LBB707:
 619              	.LBB708:
 620              		.loc 2 477 0
 621 014e 20F07C40 		bic	r0, r0, #-67108864
 622              	.LVL75:
 623 0152 20F00700 		bic	r0, r0, #7
 624 0156 40F00055 		orr	r5, r0, #536870912
 625 015a 45F00105 		orr	r5, r5, #1
 626              	.LVL76:
 627 015e C2E7     		b	.L67
ARM GAS  /tmp/ccMboyVS.s 			page 12


 628              	.LVL77:
 629              	.L73:
 630              	.LBE708:
 631              	.LBE707:
 632              		.loc 1 338 0
 633 0160 4FF40C71 		mov	r1, #560
 634 0164 59F82400 		ldr	r0, [r9, r4, lsl #2]
 635 0168 FFF7FEFF 		bl	lbm_cons
 636              	.LVL78:
 637              		.loc 1 339 0
 638 016c 3168     		ldr	r1, [r6]
 639              	.LVL79:
 640              	.LBB709:
 641              	.LBB710:
 642              		.loc 2 461 0
 643 016e CD07     		lsls	r5, r1, #31
 644 0170 4CBF     		ite	mi
 645 0172 01F07C41 		andmi	r1, r1, #-67108864
 646 0176 01F00C01 		andpl	r1, r1, #12
 647              	.LBE710:
 648              	.LBE709:
 649              		.loc 1 339 0
 650 017a 0029     		cmp	r1, #0
 651 017c 3FF45FAF 		beq	.L53
 652              	.LVL80:
 653              	.LBB711:
 654              	.LBB712:
 655              		.loc 2 477 0
 656 0180 20F07C40 		bic	r0, r0, #-67108864
 657              	.LVL81:
 658 0184 20F00700 		bic	r0, r0, #7
 659 0188 40F08045 		orr	r5, r0, #1073741824
 660 018c 45F00105 		orr	r5, r5, #1
 661              	.LVL82:
 662 0190 A9E7     		b	.L67
 663              	.LVL83:
 664              	.L68:
 665              	.LBE712:
 666              	.LBE711:
 667              	.LBB713:
 668              	.LBB714:
 669              		.loc 2 485 0
 670 0192 59F82450 		ldr	r5, [r9, r4, lsl #2]
 671 0196 2D01     		lsls	r5, r5, #4
 672 0198 45F00C05 		orr	r5, r5, #12
 673              	.LVL84:
 674 019c A3E7     		b	.L67
 675              	.LVL85:
 676              	.L72:
 677              	.LBE714:
 678              	.LBE713:
 679              		.loc 1 333 0
 680 019e 4FF40471 		mov	r1, #528
 681 01a2 59F82400 		ldr	r0, [r9, r4, lsl #2]
 682 01a6 FFF7FEFF 		bl	lbm_cons
 683              	.LVL86:
 684              	.LBB715:
ARM GAS  /tmp/ccMboyVS.s 			page 13


 685              	.LBB716:
 686              		.loc 2 461 0
 687 01aa C307     		lsls	r3, r0, #31
 688 01ac 4CBF     		ite	mi
 689 01ae 00F07C41 		andmi	r1, r0, #-67108864
 690 01b2 00F00C01 		andpl	r1, r0, #12
 691              	.LBE716:
 692              	.LBE715:
 693              		.loc 1 334 0
 694 01b6 0029     		cmp	r1, #0
 695 01b8 3FF441AF 		beq	.L53
 696              	.LVL87:
 697              	.LBB717:
 698              	.LBB718:
 699              		.loc 2 477 0
 700 01bc 20F07C40 		bic	r0, r0, #-67108864
 701              	.LVL88:
 702 01c0 20F00700 		bic	r0, r0, #7
 703 01c4 40F04055 		orr	r5, r0, #805306368
 704 01c8 45F00105 		orr	r5, r5, #1
 705              	.LVL89:
 706 01cc 8BE7     		b	.L67
 707              	.LBE718:
 708              	.LBE717:
 709              	.LBE720:
 710              	.LBE721:
 711              		.cfi_endproc
 712              	.LFE61:
 713              		.size	array_read.part.0, .-array_read.part.0
 714 01ce 00BF     		.section	.text.array_read,"ax",%progbits
 715              		.align	1
 716              		.p2align 4,,15
 717              		.global	array_read
 718              		.syntax unified
 719              		.thumb
 720              		.thumb_func
 721              		.fpu fpv4-sp-d16
 722              		.type	array_read, %function
 723              	array_read:
 724              	.LFB57:
 725              		.loc 1 271 0
 726              		.cfi_startproc
 727              		@ args = 0, pretend = 0, frame = 0
 728              		@ frame_needed = 0, uses_anonymous_args = 0
 729              		@ link register save eliminated.
 730              	.LVL90:
 731              		.loc 1 273 0
 732 0000 0129     		cmp	r1, #1
 733 0002 01D9     		bls	.L131
 734 0004 FFF7FEBF 		b	array_read.part.0
 735              	.LVL91:
 736              	.L131:
 737              		.loc 1 356 0
 738 0008 7047     		bx	lr
 739              		.cfi_endproc
 740              	.LFE57:
 741              		.size	array_read, .-array_read
ARM GAS  /tmp/ccMboyVS.s 			page 14


 742 000a 00BF     		.section	.text.array_write,"ax",%progbits
 743              		.align	1
 744              		.p2align 4,,15
 745              		.global	array_write
 746              		.syntax unified
 747              		.thumb
 748              		.thumb_func
 749              		.fpu fpv4-sp-d16
 750              		.type	array_write, %function
 751              	array_write:
 752              	.LFB58:
 753              		.loc 1 358 0
 754              		.cfi_startproc
 755              		@ args = 0, pretend = 0, frame = 0
 756              		@ frame_needed = 0, uses_anonymous_args = 0
 757              	.LVL92:
 758 0000 F8B5     		push	{r3, r4, r5, r6, r7, lr}
 759              		.cfi_def_cfa_offset 24
 760              		.cfi_offset 3, -24
 761              		.cfi_offset 4, -20
 762              		.cfi_offset 5, -16
 763              		.cfi_offset 6, -12
 764              		.cfi_offset 7, -8
 765              		.cfi_offset 14, -4
 766              		.loc 1 360 0
 767 0002 D0E90053 		ldrd	r5, r3, [r0]
 768              	.LVL93:
 769              		.loc 1 365 0
 770 0006 9021     		movs	r1, #144
 771              	.LVL94:
 772              		.loc 1 362 0
 773 0008 8668     		ldr	r6, [r0, #8]
 774              	.LVL95:
 775              		.loc 1 365 0
 776 000a 1160     		str	r1, [r2]
 777              	.LVL96:
 778              	.LBB722:
 779              	.LBB723:
 780              	.LBB724:
 781              	.LBB725:
 782              		.loc 2 461 0
 783 000c D907     		lsls	r1, r3, #31
 784 000e 4CBF     		ite	mi
 785 0010 03F07C41 		andmi	r1, r3, #-67108864
 786 0014 03F00C01 		andpl	r1, r3, #12
 787              	.LVL97:
 788              	.LBE725:
 789              	.LBE724:
 790              		.loc 2 561 0
 791 0018 0829     		cmp	r1, #8
 792 001a 0CD0     		beq	.L136
 793              		.loc 2 562 0
 794 001c 21F00800 		bic	r0, r1, #8
 795              	.LVL98:
 796 0020 0428     		cmp	r0, #4
 797 0022 08D0     		beq	.L136
 798              		.loc 2 564 0
ARM GAS  /tmp/ccMboyVS.s 			page 15


 799 0024 21F08050 		bic	r0, r1, #268435456
 800 0028 B0F1005F 		cmp	r0, #536870912
 801 002c 03D0     		beq	.L136
 802              		.loc 2 565 0
 803 002e B1F1804F 		cmp	r1, #1073741824
 804 0032 00D0     		beq	.L136
 805              	.LVL99:
 806              	.L133:
 807              	.LBE723:
 808              	.LBE722:
 809              		.loc 1 423 0
 810 0034 F8BD     		pop	{r3, r4, r5, r6, r7, pc}
 811              	.LVL100:
 812              	.L136:
 813              		.loc 1 368 0
 814 0036 1846     		mov	r0, r3
 815 0038 1446     		mov	r4, r2
 816 003a FFF7FEFF 		bl	lbm_dec_as_u
 817              	.LVL101:
 818              	.LBB726:
 819              	.LBB727:
 820              		.loc 2 461 0
 821 003e EB07     		lsls	r3, r5, #31
 822              	.LBE727:
 823              	.LBE726:
 824              		.loc 1 368 0
 825 0040 0746     		mov	r7, r0
 826              	.LVL102:
 827              	.LBB729:
 828              	.LBB728:
 829              		.loc 2 461 0
 830 0042 F7D5     		bpl	.L133
 831              	.LVL103:
 832 0044 05F07C43 		and	r3, r5, #-67108864
 833              	.LBE728:
 834              	.LBE729:
 835              		.loc 1 373 0
 836 0048 B3F1504F 		cmp	r3, #-805306368
 837 004c F2D1     		bne	.L133
 838              	.LBB730:
 839              		.loc 1 374 0
 840 004e 2846     		mov	r0, r5
 841              	.LVL104:
 842 0050 FFF7FEFF 		bl	lbm_car
 843              	.LVL105:
 844              	.LBB731:
 845              	.LBB732:
 846              		.loc 2 461 0
 847 0054 F207     		lsls	r2, r6, #31
 848              	.LBE732:
 849              	.LBE731:
 850              		.loc 1 377 0
 851 0056 0168     		ldr	r1, [r0]
 852              	.LBB734:
 853              	.LBB733:
 854              		.loc 2 461 0
 855 0058 4CBF     		ite	mi
ARM GAS  /tmp/ccMboyVS.s 			page 16


 856 005a 06F07C42 		andmi	r2, r6, #-67108864
 857 005e 06F00C02 		andpl	r2, r6, #12
 858              	.LBE733:
 859              	.LBE734:
 860              		.loc 1 377 0
 861 0062 9142     		cmp	r1, r2
 862              		.loc 1 374 0
 863 0064 0346     		mov	r3, r0
 864              	.LVL106:
 865              		.loc 1 377 0
 866 0066 02D0     		beq	.L165
 867              	.L141:
 868              		.loc 1 379 0
 869 0068 0023     		movs	r3, #0
 870 006a 2360     		str	r3, [r4]
 871              	.LBE730:
 872              		.loc 1 423 0
 873 006c F8BD     		pop	{r3, r4, r5, r6, r7, pc}
 874              	.LVL107:
 875              	.L165:
 876              	.LBB745:
 877              		.loc 1 377 0 discriminator 1
 878 006e 4168     		ldr	r1, [r0, #4]
 879 0070 B942     		cmp	r1, r7
 880 0072 F9D9     		bls	.L141
 881              		.loc 1 383 0
 882 0074 0C2A     		cmp	r2, #12
 883 0076 1BD0     		beq	.L144
 884 0078 11D9     		bls	.L166
 885 007a B2F1405F 		cmp	r2, #805306368
 886 007e 07D0     		beq	.L149
 887 0080 B2F1804F 		cmp	r2, #1073741824
 888 0084 04D0     		beq	.L149
 889 0086 B2F1005F 		cmp	r2, #536870912
 890 008a 01D0     		beq	.L149
 891              	.LVL108:
 892              	.L143:
 893              		.loc 1 420 0
 894 008c 2560     		str	r5, [r4]
 895              	.LBE745:
 896              		.loc 1 423 0
 897 008e F8BD     		pop	{r3, r4, r5, r6, r7, pc}
 898              	.LVL109:
 899              	.L149:
 900              	.LBB746:
 901              	.LBB735:
 902              		.loc 1 413 0
 903 0090 3046     		mov	r0, r6
 904              	.LVL110:
 905 0092 9E68     		ldr	r6, [r3, #8]
 906              	.LVL111:
 907 0094 FFF7FEFF 		bl	lbm_car
 908              	.LVL112:
 909 0098 46F82700 		str	r0, [r6, r7, lsl #2]
 910              		.loc 1 414 0
 911 009c F6E7     		b	.L143
 912              	.LVL113:
ARM GAS  /tmp/ccMboyVS.s 			page 17


 913              	.L166:
 914              	.LBE735:
 915              		.loc 1 383 0
 916 009e 042A     		cmp	r2, #4
 917 00a0 0BD0     		beq	.L146
 918 00a2 082A     		cmp	r2, #8
 919 00a4 F2D1     		bne	.L143
 920              	.LVL114:
 921              	.LBB736:
 922              		.loc 1 391 0
 923 00a6 8368     		ldr	r3, [r0, #8]
 924              	.LBB737:
 925              	.LBB738:
 926              		.loc 2 521 0
 927 00a8 3609     		lsrs	r6, r6, #4
 928              	.LVL115:
 929              	.LBE738:
 930              	.LBE737:
 931              		.loc 1 391 0
 932 00aa 43F82760 		str	r6, [r3, r7, lsl #2]
 933              		.loc 1 392 0
 934 00ae EDE7     		b	.L143
 935              	.LVL116:
 936              	.L144:
 937              	.LBE736:
 938              	.LBB739:
 939              		.loc 1 396 0
 940 00b0 8368     		ldr	r3, [r0, #8]
 941              	.LBB740:
 942              	.LBB741:
 943              		.loc 2 517 0
 944 00b2 3611     		asrs	r6, r6, #4
 945              	.LVL117:
 946              	.LBE741:
 947              	.LBE740:
 948              		.loc 1 396 0
 949 00b4 43F82760 		str	r6, [r3, r7, lsl #2]
 950              		.loc 1 397 0
 951 00b8 E8E7     		b	.L143
 952              	.LVL118:
 953              	.L146:
 954              	.LBE739:
 955              	.LBB742:
 956              		.loc 1 386 0
 957 00ba 8368     		ldr	r3, [r0, #8]
 958              	.LBB743:
 959              	.LBB744:
 960              		.loc 2 525 0
 961 00bc 3609     		lsrs	r6, r6, #4
 962              	.LVL119:
 963 00be DE55     		strb	r6, [r3, r7]
 964              	.LVL120:
 965              	.LBE744:
 966              	.LBE743:
 967              		.loc 1 387 0
 968 00c0 E4E7     		b	.L143
 969              	.LBE742:
ARM GAS  /tmp/ccMboyVS.s 			page 18


 970              	.LBE746:
 971              		.cfi_endproc
 972              	.LFE58:
 973              		.size	array_write, .-array_write
 974 00c2 00BF     		.section	.text.index_list,"ax",%progbits
 975              		.align	1
 976              		.p2align 4,,15
 977              		.global	index_list
 978              		.syntax unified
 979              		.thumb
 980              		.thumb_func
 981              		.fpu fpv4-sp-d16
 982              		.type	index_list, %function
 983              	index_list:
 984              	.LFB59:
 985              		.loc 1 434 0
 986              		.cfi_startproc
 987              		@ args = 0, pretend = 0, frame = 0
 988              		@ frame_needed = 0, uses_anonymous_args = 0
 989              	.LVL121:
 990              	.LBB747:
 991              	.LBB748:
 992              		.loc 2 461 0
 993 0000 C307     		lsls	r3, r0, #31
 994 0002 01D4     		bmi	.L188
 995              	.LVL122:
 996              	.L184:
 997              	.LBE748:
 998              	.LBE747:
 999              		.loc 1 446 0
 1000 0004 0020     		movs	r0, #0
 1001              	.LVL123:
 1002 0006 7047     		bx	lr
 1003              	.LVL124:
 1004              	.L188:
 1005              	.LBB752:
 1006              	.LBB749:
 1007              		.loc 2 461 0
 1008 0008 00F07C43 		and	r3, r0, #-67108864
 1009              	.LBE749:
 1010              	.LBE752:
 1011              		.loc 1 436 0
 1012 000c B3F1805F 		cmp	r3, #268435456
 1013 0010 F8D1     		bne	.L184
 1014              		.loc 1 434 0
 1015 0012 10B5     		push	{r4, lr}
 1016              		.cfi_def_cfa_offset 8
 1017              		.cfi_offset 4, -8
 1018              		.cfi_offset 14, -4
 1019 0014 0C46     		mov	r4, r1
 1020              		.loc 1 436 0
 1021 0016 74B1     		cbz	r4, .L169
 1022              	.LVL125:
 1023              	.L190:
 1024              		.loc 1 438 0
 1025 0018 FFF7FEFF 		bl	lbm_cdr
 1026              	.LVL126:
ARM GAS  /tmp/ccMboyVS.s 			page 19


 1027              	.LBB753:
 1028              	.LBB750:
 1029              		.loc 2 461 0
 1030 001c C207     		lsls	r2, r0, #31
 1031 001e 00F07C43 		and	r3, r0, #-67108864
 1032              	.LBE750:
 1033              	.LBE753:
 1034              		.loc 1 439 0
 1035 0022 04F1FF34 		add	r4, r4, #-1
 1036              	.LVL127:
 1037              	.LBB754:
 1038              	.LBB751:
 1039              		.loc 2 461 0
 1040 0026 01D4     		bmi	.L189
 1041              	.L178:
 1042              	.LBE751:
 1043              	.LBE754:
 1044              		.loc 1 446 0
 1045 0028 0020     		movs	r0, #0
 1046              	.LVL128:
 1047 002a 10BD     		pop	{r4, pc}
 1048              	.LVL129:
 1049              	.L189:
 1050              		.loc 1 436 0
 1051 002c B3F1805F 		cmp	r3, #268435456
 1052 0030 FAD1     		bne	.L178
 1053 0032 002C     		cmp	r4, #0
 1054 0034 F0D1     		bne	.L190
 1055              	.LVL130:
 1056              	.L169:
 1057              		.loc 1 446 0
 1058 0036 BDE81040 		pop	{r4, lr}
 1059              		.cfi_restore 14
 1060              		.cfi_restore 4
 1061              		.cfi_def_cfa_offset 0
 1062              		.loc 1 442 0
 1063 003a FFF7FEBF 		b	lbm_car
 1064              	.LVL131:
 1065              		.cfi_endproc
 1066              	.LFE59:
 1067              		.size	index_list, .-index_list
 1068 003e 00BF     		.section	.text.lbm_fundamental,"ax",%progbits
 1069              		.align	1
 1070              		.p2align 4,,15
 1071              		.global	lbm_fundamental
 1072              		.syntax unified
 1073              		.thumb
 1074              		.thumb_func
 1075              		.fpu fpv4-sp-d16
 1076              		.type	lbm_fundamental, %function
 1077              	lbm_fundamental:
 1078              	.LFB60:
 1079              		.loc 1 448 0
 1080              		.cfi_startproc
 1081              		@ args = 0, pretend = 0, frame = 16
 1082              		@ frame_needed = 0, uses_anonymous_args = 0
 1083              	.LVL132:
ARM GAS  /tmp/ccMboyVS.s 			page 20


 1084 0000 2DE9F04F 		push	{r4, r5, r6, r7, r8, r9, r10, fp, lr}
 1085              		.cfi_def_cfa_offset 36
 1086              		.cfi_offset 4, -36
 1087              		.cfi_offset 5, -32
 1088              		.cfi_offset 6, -28
 1089              		.cfi_offset 7, -24
 1090              		.cfi_offset 8, -20
 1091              		.cfi_offset 9, -16
 1092              		.cfi_offset 10, -12
 1093              		.cfi_offset 11, -8
 1094              		.cfi_offset 14, -4
 1095 0004 2DED028B 		vpush.64	{d8}
 1096              		.cfi_def_cfa_offset 44
 1097              		.cfi_offset 80, -44
 1098              		.cfi_offset 81, -40
 1099              	.LBB1141:
 1100              	.LBB1142:
 1101              		.loc 2 529 0
 1102 0008 1209     		lsrs	r2, r2, #4
 1103              	.LVL133:
 1104              	.LBE1142:
 1105              	.LBE1141:
 1106              		.loc 1 448 0
 1107 000a 85B0     		sub	sp, sp, #20
 1108              		.cfi_def_cfa_offset 64
 1109              		.loc 1 450 0
 1110 000c 9023     		movs	r3, #144
 1111              		.loc 1 453 0
 1112 000e A2F58072 		sub	r2, r2, #256
 1113              		.loc 1 448 0
 1114 0012 0E46     		mov	r6, r1
 1115              		.loc 1 450 0
 1116 0014 0293     		str	r3, [sp, #8]
 1117              	.LVL134:
 1118              		.loc 1 453 0
 1119 0016 B2F5807F 		cmp	r2, #256
 1120 001a 00F2D282 		bhi	.L482
 1121 001e DFE812F0 		tbh	[pc, r2, lsl #1]
 1122              	.L194:
 1123 0022 4C01     		.2byte	(.L193-.L194)/2
 1124 0024 E301     		.2byte	(.L195-.L194)/2
 1125 0026 7401     		.2byte	(.L196-.L194)/2
 1126 0028 0F02     		.2byte	(.L197-.L194)/2
 1127 002a 2501     		.2byte	(.L198-.L194)/2
 1128 002c 7202     		.2byte	(.L199-.L194)/2
 1129 002e 0101     		.2byte	(.L483-.L194)/2
 1130 0030 CD02     		.2byte	(.L201-.L194)/2
 1131 0032 A102     		.2byte	(.L202-.L194)/2
 1132 0034 D002     		.2byte	(.L482-.L194)/2
 1133 0036 D002     		.2byte	(.L482-.L194)/2
 1134 0038 D002     		.2byte	(.L482-.L194)/2
 1135 003a D002     		.2byte	(.L482-.L194)/2
 1136 003c D002     		.2byte	(.L482-.L194)/2
 1137 003e D002     		.2byte	(.L482-.L194)/2
 1138 0040 D002     		.2byte	(.L482-.L194)/2
 1139 0042 D002     		.2byte	(.L482-.L194)/2
 1140 0044 D002     		.2byte	(.L482-.L194)/2
ARM GAS  /tmp/ccMboyVS.s 			page 21


 1141 0046 BD02     		.2byte	(.L203-.L194)/2
 1142 0048 D002     		.2byte	(.L482-.L194)/2
 1143 004a D002     		.2byte	(.L482-.L194)/2
 1144 004c D002     		.2byte	(.L482-.L194)/2
 1145 004e D002     		.2byte	(.L482-.L194)/2
 1146 0050 D002     		.2byte	(.L482-.L194)/2
 1147 0052 D002     		.2byte	(.L482-.L194)/2
 1148 0054 D002     		.2byte	(.L482-.L194)/2
 1149 0056 D002     		.2byte	(.L482-.L194)/2
 1150 0058 D002     		.2byte	(.L482-.L194)/2
 1151 005a D002     		.2byte	(.L482-.L194)/2
 1152 005c D002     		.2byte	(.L482-.L194)/2
 1153 005e D002     		.2byte	(.L482-.L194)/2
 1154 0060 D002     		.2byte	(.L482-.L194)/2
 1155 0062 6702     		.2byte	(.L204-.L194)/2
 1156 0064 B102     		.2byte	(.L205-.L194)/2
 1157 0066 5302     		.2byte	(.L206-.L194)/2
 1158 0068 9C01     		.2byte	(.L207-.L194)/2
 1159 006a 6D02     		.2byte	(.L208-.L194)/2
 1160 006c D002     		.2byte	(.L482-.L194)/2
 1161 006e D002     		.2byte	(.L482-.L194)/2
 1162 0070 D002     		.2byte	(.L482-.L194)/2
 1163 0072 D002     		.2byte	(.L482-.L194)/2
 1164 0074 D002     		.2byte	(.L482-.L194)/2
 1165 0076 D002     		.2byte	(.L482-.L194)/2
 1166 0078 D002     		.2byte	(.L482-.L194)/2
 1167 007a D002     		.2byte	(.L482-.L194)/2
 1168 007c D002     		.2byte	(.L482-.L194)/2
 1169 007e D002     		.2byte	(.L482-.L194)/2
 1170 0080 D002     		.2byte	(.L482-.L194)/2
 1171 0082 9C02     		.2byte	(.L209-.L194)/2
 1172 0084 9702     		.2byte	(.L210-.L194)/2
 1173 0086 D002     		.2byte	(.L482-.L194)/2
 1174 0088 D002     		.2byte	(.L482-.L194)/2
 1175 008a D002     		.2byte	(.L482-.L194)/2
 1176 008c D002     		.2byte	(.L482-.L194)/2
 1177 008e D002     		.2byte	(.L482-.L194)/2
 1178 0090 D002     		.2byte	(.L482-.L194)/2
 1179 0092 D002     		.2byte	(.L482-.L194)/2
 1180 0094 D002     		.2byte	(.L482-.L194)/2
 1181 0096 D002     		.2byte	(.L482-.L194)/2
 1182 0098 D002     		.2byte	(.L482-.L194)/2
 1183 009a D002     		.2byte	(.L482-.L194)/2
 1184 009c D002     		.2byte	(.L482-.L194)/2
 1185 009e D002     		.2byte	(.L482-.L194)/2
 1186 00a0 D002     		.2byte	(.L482-.L194)/2
 1187 00a2 A402     		.2byte	(.L211-.L194)/2
 1188 00a4 4E02     		.2byte	(.L212-.L194)/2
 1189 00a6 3F02     		.2byte	(.L213-.L194)/2
 1190 00a8 8B02     		.2byte	(.L214-.L194)/2
 1191 00aa D002     		.2byte	(.L482-.L194)/2
 1192 00ac 5D02     		.2byte	(.L215-.L194)/2
 1193 00ae 5802     		.2byte	(.L216-.L194)/2
 1194 00b0 D002     		.2byte	(.L482-.L194)/2
 1195 00b2 D002     		.2byte	(.L482-.L194)/2
 1196 00b4 D002     		.2byte	(.L482-.L194)/2
 1197 00b6 D002     		.2byte	(.L482-.L194)/2
ARM GAS  /tmp/ccMboyVS.s 			page 22


 1198 00b8 D002     		.2byte	(.L482-.L194)/2
 1199 00ba D002     		.2byte	(.L482-.L194)/2
 1200 00bc D002     		.2byte	(.L482-.L194)/2
 1201 00be D002     		.2byte	(.L482-.L194)/2
 1202 00c0 D002     		.2byte	(.L482-.L194)/2
 1203 00c2 CD01     		.2byte	(.L217-.L194)/2
 1204 00c4 C301     		.2byte	(.L218-.L194)/2
 1205 00c6 C801     		.2byte	(.L219-.L194)/2
 1206 00c8 BE01     		.2byte	(.L220-.L194)/2
 1207 00ca B901     		.2byte	(.L221-.L194)/2
 1208 00cc 3A02     		.2byte	(.L222-.L194)/2
 1209 00ce D002     		.2byte	(.L482-.L194)/2
 1210 00d0 D002     		.2byte	(.L482-.L194)/2
 1211 00d2 D002     		.2byte	(.L482-.L194)/2
 1212 00d4 D002     		.2byte	(.L482-.L194)/2
 1213 00d6 D002     		.2byte	(.L482-.L194)/2
 1214 00d8 D002     		.2byte	(.L482-.L194)/2
 1215 00da D002     		.2byte	(.L482-.L194)/2
 1216 00dc D002     		.2byte	(.L482-.L194)/2
 1217 00de D002     		.2byte	(.L482-.L194)/2
 1218 00e0 D002     		.2byte	(.L482-.L194)/2
 1219 00e2 D002     		.2byte	(.L482-.L194)/2
 1220 00e4 D002     		.2byte	(.L482-.L194)/2
 1221 00e6 D002     		.2byte	(.L482-.L194)/2
 1222 00e8 D002     		.2byte	(.L482-.L194)/2
 1223 00ea D002     		.2byte	(.L482-.L194)/2
 1224 00ec D002     		.2byte	(.L482-.L194)/2
 1225 00ee D002     		.2byte	(.L482-.L194)/2
 1226 00f0 D002     		.2byte	(.L482-.L194)/2
 1227 00f2 D002     		.2byte	(.L482-.L194)/2
 1228 00f4 D002     		.2byte	(.L482-.L194)/2
 1229 00f6 D002     		.2byte	(.L482-.L194)/2
 1230 00f8 D002     		.2byte	(.L482-.L194)/2
 1231 00fa D002     		.2byte	(.L482-.L194)/2
 1232 00fc D002     		.2byte	(.L482-.L194)/2
 1233 00fe D002     		.2byte	(.L482-.L194)/2
 1234 0100 D002     		.2byte	(.L482-.L194)/2
 1235 0102 D002     		.2byte	(.L482-.L194)/2
 1236 0104 D002     		.2byte	(.L482-.L194)/2
 1237 0106 D002     		.2byte	(.L482-.L194)/2
 1238 0108 D002     		.2byte	(.L482-.L194)/2
 1239 010a D002     		.2byte	(.L482-.L194)/2
 1240 010c D002     		.2byte	(.L482-.L194)/2
 1241 010e D002     		.2byte	(.L482-.L194)/2
 1242 0110 D002     		.2byte	(.L482-.L194)/2
 1243 0112 D002     		.2byte	(.L482-.L194)/2
 1244 0114 D002     		.2byte	(.L482-.L194)/2
 1245 0116 D002     		.2byte	(.L482-.L194)/2
 1246 0118 D002     		.2byte	(.L482-.L194)/2
 1247 011a D002     		.2byte	(.L482-.L194)/2
 1248 011c D002     		.2byte	(.L482-.L194)/2
 1249 011e D002     		.2byte	(.L482-.L194)/2
 1250 0120 D002     		.2byte	(.L482-.L194)/2
 1251 0122 D002     		.2byte	(.L482-.L194)/2
 1252 0124 D002     		.2byte	(.L482-.L194)/2
 1253 0126 D002     		.2byte	(.L482-.L194)/2
 1254 0128 D002     		.2byte	(.L482-.L194)/2
ARM GAS  /tmp/ccMboyVS.s 			page 23


 1255 012a D002     		.2byte	(.L482-.L194)/2
 1256 012c D002     		.2byte	(.L482-.L194)/2
 1257 012e D002     		.2byte	(.L482-.L194)/2
 1258 0130 D002     		.2byte	(.L482-.L194)/2
 1259 0132 D002     		.2byte	(.L482-.L194)/2
 1260 0134 D002     		.2byte	(.L482-.L194)/2
 1261 0136 D002     		.2byte	(.L482-.L194)/2
 1262 0138 D002     		.2byte	(.L482-.L194)/2
 1263 013a D002     		.2byte	(.L482-.L194)/2
 1264 013c D002     		.2byte	(.L482-.L194)/2
 1265 013e D002     		.2byte	(.L482-.L194)/2
 1266 0140 D002     		.2byte	(.L482-.L194)/2
 1267 0142 D002     		.2byte	(.L482-.L194)/2
 1268 0144 D002     		.2byte	(.L482-.L194)/2
 1269 0146 D002     		.2byte	(.L482-.L194)/2
 1270 0148 D002     		.2byte	(.L482-.L194)/2
 1271 014a D002     		.2byte	(.L482-.L194)/2
 1272 014c D002     		.2byte	(.L482-.L194)/2
 1273 014e D002     		.2byte	(.L482-.L194)/2
 1274 0150 D002     		.2byte	(.L482-.L194)/2
 1275 0152 D002     		.2byte	(.L482-.L194)/2
 1276 0154 D002     		.2byte	(.L482-.L194)/2
 1277 0156 D002     		.2byte	(.L482-.L194)/2
 1278 0158 D002     		.2byte	(.L482-.L194)/2
 1279 015a D002     		.2byte	(.L482-.L194)/2
 1280 015c D002     		.2byte	(.L482-.L194)/2
 1281 015e D002     		.2byte	(.L482-.L194)/2
 1282 0160 D002     		.2byte	(.L482-.L194)/2
 1283 0162 D002     		.2byte	(.L482-.L194)/2
 1284 0164 D002     		.2byte	(.L482-.L194)/2
 1285 0166 D002     		.2byte	(.L482-.L194)/2
 1286 0168 D002     		.2byte	(.L482-.L194)/2
 1287 016a D002     		.2byte	(.L482-.L194)/2
 1288 016c D002     		.2byte	(.L482-.L194)/2
 1289 016e D002     		.2byte	(.L482-.L194)/2
 1290 0170 D002     		.2byte	(.L482-.L194)/2
 1291 0172 D002     		.2byte	(.L482-.L194)/2
 1292 0174 D002     		.2byte	(.L482-.L194)/2
 1293 0176 D002     		.2byte	(.L482-.L194)/2
 1294 0178 D002     		.2byte	(.L482-.L194)/2
 1295 017a D002     		.2byte	(.L482-.L194)/2
 1296 017c D002     		.2byte	(.L482-.L194)/2
 1297 017e D002     		.2byte	(.L482-.L194)/2
 1298 0180 D002     		.2byte	(.L482-.L194)/2
 1299 0182 D002     		.2byte	(.L482-.L194)/2
 1300 0184 D002     		.2byte	(.L482-.L194)/2
 1301 0186 D002     		.2byte	(.L482-.L194)/2
 1302 0188 D002     		.2byte	(.L482-.L194)/2
 1303 018a D002     		.2byte	(.L482-.L194)/2
 1304 018c D002     		.2byte	(.L482-.L194)/2
 1305 018e D002     		.2byte	(.L482-.L194)/2
 1306 0190 D002     		.2byte	(.L482-.L194)/2
 1307 0192 D002     		.2byte	(.L482-.L194)/2
 1308 0194 D002     		.2byte	(.L482-.L194)/2
 1309 0196 D002     		.2byte	(.L482-.L194)/2
 1310 0198 D002     		.2byte	(.L482-.L194)/2
 1311 019a D002     		.2byte	(.L482-.L194)/2
ARM GAS  /tmp/ccMboyVS.s 			page 24


 1312 019c D002     		.2byte	(.L482-.L194)/2
 1313 019e D002     		.2byte	(.L482-.L194)/2
 1314 01a0 D002     		.2byte	(.L482-.L194)/2
 1315 01a2 D002     		.2byte	(.L482-.L194)/2
 1316 01a4 D002     		.2byte	(.L482-.L194)/2
 1317 01a6 D002     		.2byte	(.L482-.L194)/2
 1318 01a8 D002     		.2byte	(.L482-.L194)/2
 1319 01aa D002     		.2byte	(.L482-.L194)/2
 1320 01ac D002     		.2byte	(.L482-.L194)/2
 1321 01ae D002     		.2byte	(.L482-.L194)/2
 1322 01b0 D002     		.2byte	(.L482-.L194)/2
 1323 01b2 D002     		.2byte	(.L482-.L194)/2
 1324 01b4 D002     		.2byte	(.L482-.L194)/2
 1325 01b6 D002     		.2byte	(.L482-.L194)/2
 1326 01b8 D002     		.2byte	(.L482-.L194)/2
 1327 01ba D002     		.2byte	(.L482-.L194)/2
 1328 01bc D002     		.2byte	(.L482-.L194)/2
 1329 01be D002     		.2byte	(.L482-.L194)/2
 1330 01c0 D002     		.2byte	(.L482-.L194)/2
 1331 01c2 D002     		.2byte	(.L482-.L194)/2
 1332 01c4 D002     		.2byte	(.L482-.L194)/2
 1333 01c6 D002     		.2byte	(.L482-.L194)/2
 1334 01c8 D002     		.2byte	(.L482-.L194)/2
 1335 01ca D002     		.2byte	(.L482-.L194)/2
 1336 01cc D002     		.2byte	(.L482-.L194)/2
 1337 01ce D002     		.2byte	(.L482-.L194)/2
 1338 01d0 D002     		.2byte	(.L482-.L194)/2
 1339 01d2 D002     		.2byte	(.L482-.L194)/2
 1340 01d4 D002     		.2byte	(.L482-.L194)/2
 1341 01d6 D002     		.2byte	(.L482-.L194)/2
 1342 01d8 D002     		.2byte	(.L482-.L194)/2
 1343 01da D002     		.2byte	(.L482-.L194)/2
 1344 01dc D002     		.2byte	(.L482-.L194)/2
 1345 01de D002     		.2byte	(.L482-.L194)/2
 1346 01e0 D002     		.2byte	(.L482-.L194)/2
 1347 01e2 D002     		.2byte	(.L482-.L194)/2
 1348 01e4 D002     		.2byte	(.L482-.L194)/2
 1349 01e6 D002     		.2byte	(.L482-.L194)/2
 1350 01e8 D002     		.2byte	(.L482-.L194)/2
 1351 01ea D002     		.2byte	(.L482-.L194)/2
 1352 01ec D002     		.2byte	(.L482-.L194)/2
 1353 01ee D002     		.2byte	(.L482-.L194)/2
 1354 01f0 D002     		.2byte	(.L482-.L194)/2
 1355 01f2 D002     		.2byte	(.L482-.L194)/2
 1356 01f4 D002     		.2byte	(.L482-.L194)/2
 1357 01f6 D002     		.2byte	(.L482-.L194)/2
 1358 01f8 D002     		.2byte	(.L482-.L194)/2
 1359 01fa D002     		.2byte	(.L482-.L194)/2
 1360 01fc D002     		.2byte	(.L482-.L194)/2
 1361 01fe D002     		.2byte	(.L482-.L194)/2
 1362 0200 D002     		.2byte	(.L482-.L194)/2
 1363 0202 D002     		.2byte	(.L482-.L194)/2
 1364 0204 D002     		.2byte	(.L482-.L194)/2
 1365 0206 D002     		.2byte	(.L482-.L194)/2
 1366 0208 D002     		.2byte	(.L482-.L194)/2
 1367 020a D002     		.2byte	(.L482-.L194)/2
 1368 020c D002     		.2byte	(.L482-.L194)/2
ARM GAS  /tmp/ccMboyVS.s 			page 25


 1369 020e D002     		.2byte	(.L482-.L194)/2
 1370 0210 D002     		.2byte	(.L482-.L194)/2
 1371 0212 D002     		.2byte	(.L482-.L194)/2
 1372 0214 D002     		.2byte	(.L482-.L194)/2
 1373 0216 D002     		.2byte	(.L482-.L194)/2
 1374 0218 D002     		.2byte	(.L482-.L194)/2
 1375 021a D002     		.2byte	(.L482-.L194)/2
 1376 021c D002     		.2byte	(.L482-.L194)/2
 1377 021e D002     		.2byte	(.L482-.L194)/2
 1378 0220 D002     		.2byte	(.L482-.L194)/2
 1379 0222 6202     		.2byte	(.L223-.L194)/2
 1380              		.p2align 1
 1381              	.L483:
 1382              	.LBB1143:
 1383              		.loc 1 763 0
 1384 0224 4FF00009 		mov	r9, #0
 1385              	.L200:
 1386              	.LVL135:
 1387              	.LBB1144:
 1388              		.loc 1 769 0
 1389 0228 D0F80080 		ldr	r8, [r0]
 1390              	.LVL136:
 1391              	.LBB1145:
 1392              	.LBB1146:
 1393              	.LBB1147:
 1394              	.LBB1148:
 1395              		.loc 2 461 0
 1396 022c 18F0010F 		tst	r8, #1
 1397 0230 14BF     		ite	ne
 1398 0232 08F07C47 		andne	r7, r8, #-67108864
 1399 0236 08F00C07 		andeq	r7, r8, #12
 1400              	.LVL137:
 1401              	.LBE1148:
 1402              	.LBE1147:
 1403              		.loc 2 561 0
 1404 023a 082F     		cmp	r7, #8
 1405 023c 00F0CA82 		beq	.L421
 1406              		.loc 2 562 0
 1407 0240 27F00803 		bic	r3, r7, #8
 1408 0244 042B     		cmp	r3, #4
 1409 0246 00F0C582 		beq	.L421
 1410              		.loc 2 564 0
 1411 024a 27F08053 		bic	r3, r7, #268435456
 1412 024e B3F1005F 		cmp	r3, #536870912
 1413 0252 00F0BF82 		beq	.L421
 1414              		.loc 2 565 0
 1415 0256 B7F1804F 		cmp	r7, #1073741824
 1416 025a 00F0BB82 		beq	.L421
 1417              	.LVL138:
 1418              	.L422:
 1419              	.LBE1146:
 1420              	.LBE1145:
 1421              	.LBE1144:
 1422              		.loc 1 559 0
 1423 025e 8024     		movs	r4, #128
 1424              	.LVL139:
 1425              	.L191:
ARM GAS  /tmp/ccMboyVS.s 			page 26


 1426              	.LBE1143:
 1427              		.loc 1 853 0
 1428 0260 2046     		mov	r0, r4
 1429 0262 05B0     		add	sp, sp, #20
 1430              		.cfi_remember_state
 1431              		.cfi_def_cfa_offset 44
 1432              		@ sp needed
 1433 0264 BDEC028B 		vldm	sp!, {d8}
 1434              		.cfi_restore 80
 1435              		.cfi_restore 81
 1436              		.cfi_def_cfa_offset 36
 1437 0268 BDE8F08F 		pop	{r4, r5, r6, r7, r8, r9, r10, fp, pc}
 1438              	.LVL140:
 1439              	.L198:
 1440              		.cfi_restore_state
 1441              	.LBB1919:
 1442              	.LBB1188:
 1443              	.LBB1189:
 1444              		.loc 1 737 0
 1445 026c 0129     		cmp	r1, #1
 1446              	.LBE1189:
 1447              		.loc 1 736 0
 1448 026e 0468     		ldr	r4, [r0]
 1449              	.LVL141:
 1450              	.LBB1278:
 1451              		.loc 1 737 0
 1452 0270 F6D9     		bls	.L191
 1453              	.LBB1190:
 1454              	.LBB1191:
 1455              	.LBB1192:
 1456              	.LBB1193:
 1457              	.LBB1194:
 1458              	.LBB1195:
 1459              		.loc 2 477 0
 1460 0272 C74D     		ldr	r5, .L987
 1461 0274 DFF81C83 		ldr	r8, .L987+4
 1462              	.LBE1195:
 1463              	.LBE1194:
 1464              	.LBE1193:
 1465              	.LBE1192:
 1466              	.LBB1204:
 1467              	.LBB1205:
 1468              	.LBB1206:
 1469              	.LBB1207:
 1470 0278 DFF81CB3 		ldr	fp, .L987+8
 1471 027c 8146     		mov	r9, r0
 1472              	.LBE1207:
 1473              	.LBE1206:
 1474              	.LBE1205:
 1475              	.LBE1204:
 1476              	.LBE1191:
 1477              	.LBE1190:
 1478              		.loc 1 737 0
 1479 027e 4FF0010A 		mov	r10, #1
 1480              	.LVL142:
 1481              	.L413:
 1482              	.LBB1265:
ARM GAS  /tmp/ccMboyVS.s 			page 27


 1483              	.LBB1252:
 1484              	.LBB1217:
 1485              	.LBB1218:
 1486              	.LBB1219:
 1487              	.LBB1220:
 1488              		.loc 2 461 0
 1489 0282 E307     		lsls	r3, r4, #31
 1490 0284 4CBF     		ite	mi
 1491 0286 04F07C43 		andmi	r3, r4, #-67108864
 1492 028a 04F00C03 		andpl	r3, r4, #12
 1493              	.LBE1220:
 1494              	.LBE1219:
 1495              		.loc 2 561 0
 1496 028e 082B     		cmp	r3, #8
 1497              	.LBE1218:
 1498              	.LBE1217:
 1499              	.LBE1252:
 1500              	.LBE1265:
 1501              		.loc 1 738 0
 1502 0290 59F8047F 		ldr	r7, [r9, #4]!
 1503              	.LVL143:
 1504              	.LBB1266:
 1505              	.LBB1253:
 1506              	.LBB1222:
 1507              	.LBB1221:
 1508              		.loc 2 561 0
 1509 0294 00F0AD81 		beq	.L393
 1510              		.loc 2 562 0
 1511 0298 23F00802 		bic	r2, r3, #8
 1512 029c 042A     		cmp	r2, #4
 1513 029e 00F0A881 		beq	.L393
 1514              		.loc 2 564 0
 1515 02a2 23F08052 		bic	r2, r3, #268435456
 1516 02a6 B2F1005F 		cmp	r2, #536870912
 1517 02aa 00F0A281 		beq	.L393
 1518              		.loc 2 565 0
 1519 02ae B3F1804F 		cmp	r3, #1073741824
 1520 02b2 00F09E81 		beq	.L393
 1521 02b6 8024     		movs	r4, #128
 1522              	.LVL144:
 1523 02b8 D2E7     		b	.L191
 1524              	.LVL145:
 1525              	.L193:
 1526              	.LBE1221:
 1527              	.LBE1222:
 1528              	.LBE1253:
 1529              	.LBE1266:
 1530              	.LBE1278:
 1531              	.LBE1188:
 1532              	.LBB1290:
 1533              		.loc 1 684 0
 1534 02ba 0824     		movs	r4, #8
 1535              	.LBB1291:
 1536              		.loc 1 685 0
 1537 02bc 0029     		cmp	r1, #0
 1538 02be CFD0     		beq	.L191
 1539              	.LBB1292:
ARM GAS  /tmp/ccMboyVS.s 			page 28


 1540              	.LBB1293:
 1541              	.LBB1294:
 1542              	.LBB1295:
 1543              	.LBB1296:
 1544              	.LBB1297:
 1545              		.loc 2 477 0
 1546 02c0 B34F     		ldr	r7, .L987
 1547 02c2 DFF8D092 		ldr	r9, .L987+4
 1548              	.LBE1297:
 1549              	.LBE1296:
 1550              	.LBE1295:
 1551              	.LBE1294:
 1552              	.LBB1306:
 1553              	.LBB1307:
 1554              	.LBB1308:
 1555              	.LBB1309:
 1556 02c6 DFF8D082 		ldr	r8, .L987+8
 1557 02ca 051F     		subs	r5, r0, #4
 1558              	.LBE1309:
 1559              	.LBE1308:
 1560              	.LBE1307:
 1561              	.LBE1306:
 1562              	.LBE1293:
 1563              	.LBE1292:
 1564              		.loc 1 685 0
 1565 02cc 4FF0000A 		mov	r10, #0
 1566              	.LBE1291:
 1567              		.loc 1 684 0
 1568 02d0 0824     		movs	r4, #8
 1569              	.LVL146:
 1570              	.L310:
 1571              	.LBB1374:
 1572              	.LBB1362:
 1573              	.LBB1350:
 1574              	.LBB1318:
 1575              	.LBB1319:
 1576              	.LBB1320:
 1577              	.LBB1321:
 1578              		.loc 2 461 0
 1579 02d2 E007     		lsls	r0, r4, #31
 1580 02d4 4CBF     		ite	mi
 1581 02d6 04F07C43 		andmi	r3, r4, #-67108864
 1582 02da 04F00C03 		andpl	r3, r4, #12
 1583              	.LBE1321:
 1584              	.LBE1320:
 1585              		.loc 2 561 0
 1586 02de 082B     		cmp	r3, #8
 1587              	.LBE1319:
 1588              	.LBE1318:
 1589              	.LBE1350:
 1590              	.LBE1362:
 1591              		.loc 1 686 0
 1592 02e0 55F804BF 		ldr	fp, [r5, #4]!
 1593              	.LVL147:
 1594              	.LBB1363:
 1595              	.LBB1351:
 1596              	.LBB1323:
ARM GAS  /tmp/ccMboyVS.s 			page 29


 1597              	.LBB1322:
 1598              		.loc 2 561 0
 1599 02e4 00F06F81 		beq	.L293
 1600              		.loc 2 562 0
 1601 02e8 23F00802 		bic	r2, r3, #8
 1602 02ec 042A     		cmp	r2, #4
 1603 02ee 00F06A81 		beq	.L293
 1604              		.loc 2 564 0
 1605 02f2 23F08052 		bic	r2, r3, #268435456
 1606 02f6 B2F1005F 		cmp	r2, #536870912
 1607 02fa 00F06481 		beq	.L293
 1608              		.loc 2 565 0
 1609 02fe B3F1804F 		cmp	r3, #1073741824
 1610 0302 00F06081 		beq	.L293
 1611 0306 8024     		movs	r4, #128
 1612              	.LVL148:
 1613 0308 AAE7     		b	.L191
 1614              	.LVL149:
 1615              	.L196:
 1616              	.LBE1322:
 1617              	.LBE1323:
 1618              	.LBE1351:
 1619              	.LBE1363:
 1620              	.LBE1374:
 1621              	.LBE1290:
 1622              	.LBB1385:
 1623              		.loc 1 710 0
 1624 030a 1824     		movs	r4, #24
 1625              	.LBB1386:
 1626              		.loc 1 711 0
 1627 030c 0029     		cmp	r1, #0
 1628 030e A7D0     		beq	.L191
 1629              	.LBB1387:
 1630              	.LBB1388:
 1631              	.LBB1389:
 1632              	.LBB1390:
 1633              	.LBB1391:
 1634              	.LBB1392:
 1635              		.loc 2 477 0
 1636 0310 9F4F     		ldr	r7, .L987
 1637 0312 DFF88092 		ldr	r9, .L987+4
 1638              	.LBE1392:
 1639              	.LBE1391:
 1640              	.LBE1390:
 1641              	.LBE1389:
 1642              	.LBB1401:
 1643              	.LBB1402:
 1644              	.LBB1403:
 1645              	.LBB1404:
 1646 0316 DFF88082 		ldr	r8, .L987+8
 1647 031a 051F     		subs	r5, r0, #4
 1648              	.LBE1404:
 1649              	.LBE1403:
 1650              	.LBE1402:
 1651              	.LBE1401:
 1652              	.LBE1388:
 1653              	.LBE1387:
ARM GAS  /tmp/ccMboyVS.s 			page 30


 1654              		.loc 1 711 0
 1655 031c 4FF0000A 		mov	r10, #0
 1656              	.LBE1386:
 1657              		.loc 1 710 0
 1658 0320 1824     		movs	r4, #24
 1659              	.LVL150:
 1660              	.L366:
 1661              	.LBB1467:
 1662              	.LBB1455:
 1663              	.LBB1443:
 1664              	.LBB1413:
 1665              	.LBB1414:
 1666              	.LBB1415:
 1667              	.LBB1416:
 1668              		.loc 2 461 0
 1669 0322 E307     		lsls	r3, r4, #31
 1670 0324 4CBF     		ite	mi
 1671 0326 04F07C43 		andmi	r3, r4, #-67108864
 1672 032a 04F00C03 		andpl	r3, r4, #12
 1673              	.LBE1416:
 1674              	.LBE1415:
 1675              		.loc 2 561 0
 1676 032e 082B     		cmp	r3, #8
 1677              	.LBE1414:
 1678              	.LBE1413:
 1679              	.LBE1443:
 1680              	.LBE1455:
 1681              		.loc 1 712 0
 1682 0330 55F804BF 		ldr	fp, [r5, #4]!
 1683              	.LVL151:
 1684              	.LBB1456:
 1685              	.LBB1444:
 1686              	.LBB1418:
 1687              	.LBB1417:
 1688              		.loc 2 561 0
 1689 0334 00F07281 		beq	.L349
 1690              		.loc 2 562 0
 1691 0338 23F00802 		bic	r2, r3, #8
 1692 033c 042A     		cmp	r2, #4
 1693 033e 00F06D81 		beq	.L349
 1694              		.loc 2 564 0
 1695 0342 23F08052 		bic	r2, r3, #268435456
 1696 0346 B2F1005F 		cmp	r2, #536870912
 1697 034a 00F06781 		beq	.L349
 1698              		.loc 2 565 0
 1699 034e B3F1804F 		cmp	r3, #1073741824
 1700 0352 00F06381 		beq	.L349
 1701 0356 8024     		movs	r4, #128
 1702              	.LVL152:
 1703 0358 82E7     		b	.L191
 1704              	.LVL153:
 1705              	.L207:
 1706              	.LBE1417:
 1707              	.LBE1418:
 1708              	.LBE1444:
 1709              	.LBE1456:
 1710              	.LBE1467:
ARM GAS  /tmp/ccMboyVS.s 			page 31


 1711              	.LBE1385:
 1712              		.loc 1 654 0
 1713 035a 0024     		movs	r4, #0
 1714 035c 0294     		str	r4, [sp, #8]
 1715              	.LVL154:
 1716              	.LBB1478:
 1717              		.loc 1 655 0
 1718 035e 0029     		cmp	r1, #0
 1719 0360 00F0E687 		beq	.L500
 1720 0364 00EB8107 		add	r7, r0, r1, lsl #2
 1721 0368 0125     		movs	r5, #1
 1722 036a 02E0     		b	.L285
 1723              	.LVL155:
 1724              	.L960:
 1725              		.loc 1 655 0 is_stmt 0 discriminator 2
 1726 036c AE42     		cmp	r6, r5
 1727 036e FFF477AF 		bcc	.L191
 1728              	.LVL156:
 1729              	.L285:
 1730              		.loc 1 656 0 is_stmt 1
 1731 0372 2146     		mov	r1, r4
 1732 0374 57F8040D 		ldr	r0, [r7, #-4]!
 1733 0378 FFF7FEFF 		bl	lbm_cons
 1734              	.LVL157:
 1735              	.LBB1479:
 1736              	.LBB1480:
 1737              		.loc 2 461 0
 1738 037c C307     		lsls	r3, r0, #31
 1739 037e 4CBF     		ite	mi
 1740 0380 00F07C43 		andmi	r3, r0, #-67108864
 1741 0384 00F00C03 		andpl	r3, r0, #12
 1742              	.LBE1480:
 1743              	.LBE1479:
 1744              		.loc 1 656 0
 1745 0388 0446     		mov	r4, r0
 1746 038a 0290     		str	r0, [sp, #8]
 1747              	.LVL158:
 1748              		.loc 1 655 0
 1749 038c 0135     		adds	r5, r5, #1
 1750              	.LVL159:
 1751              		.loc 1 657 0
 1752 038e 002B     		cmp	r3, #0
 1753 0390 ECD1     		bne	.L960
 1754              		.loc 1 655 0
 1755 0392 65E7     		b	.L191
 1756              	.LVL160:
 1757              	.L221:
 1758              	.LBE1478:
 1759              		.loc 1 536 0
 1760 0394 0129     		cmp	r1, #1
 1761 0396 00F03C85 		beq	.L961
 1762 039a 9024     		movs	r4, #144
 1763 039c 60E7     		b	.L191
 1764              	.L220:
 1765              		.loc 1 516 0
 1766 039e 0129     		cmp	r1, #1
 1767 03a0 00F09385 		beq	.L962
ARM GAS  /tmp/ccMboyVS.s 			page 32


 1768 03a4 9024     		movs	r4, #144
 1769 03a6 5BE7     		b	.L191
 1770              	.L218:
 1771              		.loc 1 455 0
 1772 03a8 0229     		cmp	r1, #2
 1773 03aa 00F07285 		beq	.L963
 1774 03ae 9024     		movs	r4, #144
 1775 03b0 56E7     		b	.L191
 1776              	.L219:
 1777              		.loc 1 496 0
 1778 03b2 0129     		cmp	r1, #1
 1779 03b4 00F0C985 		beq	.L964
 1780 03b8 9024     		movs	r4, #144
 1781 03ba 51E7     		b	.L191
 1782              	.L217:
 1783              		.loc 1 557 0
 1784 03bc 0029     		cmp	r1, #0
 1785 03be 00F0FB80 		beq	.L263
 1786              		.loc 1 558 0 discriminator 1
 1787 03c2 0368     		ldr	r3, [r0]
 1788              	.LVL161:
 1789              	.LBB1481:
 1790              	.LBB1482:
 1791              		.loc 2 461 0 discriminator 1
 1792 03c4 DD07     		lsls	r5, r3, #31
 1793 03c6 4CBF     		ite	mi
 1794 03c8 03F07C42 		andmi	r2, r3, #-67108864
 1795 03cc 03F00C02 		andpl	r2, r3, #12
 1796              	.LBE1482:
 1797              	.LBE1481:
 1798              		.loc 1 557 0 discriminator 1
 1799 03d0 002A     		cmp	r2, #0
 1800 03d2 40F0F180 		bne	.L263
 1801              	.LVL162:
 1802              	.LBB1483:
 1803              	.LBB1484:
 1804              	.LBB1485:
 1805              	.LBB1486:
 1806              		.loc 2 529 0
 1807 03d6 1B09     		lsrs	r3, r3, #4
 1808              	.LVL163:
 1809              	.LBE1486:
 1810              	.LBE1485:
 1811              		.loc 2 580 0
 1812 03d8 A3F58073 		sub	r3, r3, #256
 1813 03dc B3F5807F 		cmp	r3, #256
 1814 03e0 00F2EA80 		bhi	.L263
 1815              	.LVL164:
 1816              	.L267:
 1817              	.LBE1484:
 1818              	.LBE1483:
 1819 03e4 2024     		movs	r4, #32
 1820 03e6 3BE7     		b	.L191
 1821              	.LVL165:
 1822              	.L195:
 1823              	.LBB1487:
 1824              		.loc 1 695 0
ARM GAS  /tmp/ccMboyVS.s 			page 33


 1825 03e8 0029     		cmp	r1, #0
 1826 03ea 00F07184 		beq	.L503
 1827              		.loc 1 697 0 discriminator 2
 1828 03ee 0129     		cmp	r1, #1
 1829              		.loc 1 695 0 discriminator 2
 1830 03f0 0468     		ldr	r4, [r0]
 1831              	.LVL166:
 1832              		.loc 1 697 0 discriminator 2
 1833 03f2 00F01B87 		beq	.L965
 1834              	.LVL167:
 1835              	.LBB1488:
 1836              	.LBB1489:
 1837              	.LBB1490:
 1838              	.LBB1491:
 1839              	.LBB1492:
 1840              	.LBB1493:
 1841              	.LBB1494:
 1842              		.loc 2 477 0
 1843 03f6 DFF898B1 		ldr	fp, .L987
 1844 03fa DFF89891 		ldr	r9, .L987+4
 1845              	.LBE1494:
 1846              	.LBE1493:
 1847              	.LBE1492:
 1848              	.LBE1491:
 1849              	.LBB1503:
 1850              	.LBB1504:
 1851              	.LBB1505:
 1852              	.LBB1506:
 1853 03fe DFF89881 		ldr	r8, .L987+8
 1854 0402 0546     		mov	r5, r0
 1855              	.LBE1506:
 1856              	.LBE1505:
 1857              	.LBE1504:
 1858              	.LBE1503:
 1859              	.LBE1490:
 1860              	.LBE1489:
 1861              	.LBE1488:
 1862              		.loc 1 697 0
 1863 0404 4FF0010A 		mov	r10, #1
 1864              	.LVL168:
 1865              	.L346:
 1866              	.LBB1565:
 1867              	.LBB1555:
 1868              	.LBB1545:
 1869              	.LBB1515:
 1870              	.LBB1516:
 1871              	.LBB1517:
 1872              	.LBB1518:
 1873              		.loc 2 461 0
 1874 0408 E307     		lsls	r3, r4, #31
 1875 040a 4CBF     		ite	mi
 1876 040c 04F07C43 		andmi	r3, r4, #-67108864
 1877 0410 04F00C03 		andpl	r3, r4, #12
 1878              	.LBE1518:
 1879              	.LBE1517:
 1880              		.loc 2 561 0
 1881 0414 082B     		cmp	r3, #8
ARM GAS  /tmp/ccMboyVS.s 			page 34


 1882              	.LBE1516:
 1883              	.LBE1515:
 1884              	.LBE1545:
 1885              	.LBE1555:
 1886              		.loc 1 701 0
 1887 0416 55F8047F 		ldr	r7, [r5, #4]!
 1888              	.LVL169:
 1889              	.LBB1556:
 1890              	.LBB1546:
 1891              	.LBB1520:
 1892              	.LBB1519:
 1893              		.loc 2 561 0
 1894 041a 00F01581 		beq	.L329
 1895              		.loc 2 562 0
 1896 041e 23F00802 		bic	r2, r3, #8
 1897 0422 042A     		cmp	r2, #4
 1898 0424 00F01081 		beq	.L329
 1899              		.loc 2 564 0
 1900 0428 23F08052 		bic	r2, r3, #268435456
 1901 042c B2F1005F 		cmp	r2, #536870912
 1902 0430 00F00A81 		beq	.L329
 1903              		.loc 2 565 0
 1904 0434 B3F1804F 		cmp	r3, #1073741824
 1905 0438 00F00681 		beq	.L329
 1906 043c 8024     		movs	r4, #128
 1907              	.LVL170:
 1908 043e 0FE7     		b	.L191
 1909              	.LVL171:
 1910              	.L197:
 1911              	.LBE1519:
 1912              	.LBE1520:
 1913              	.LBE1546:
 1914              	.LBE1556:
 1915              	.LBE1565:
 1916              	.LBE1487:
 1917              		.loc 1 721 0
 1918 0440 0029     		cmp	r1, #0
 1919 0442 00F04284 		beq	.L506
 1920              	.LBB1612:
 1921              	.LBB1613:
 1922              		.loc 1 723 0
 1923 0446 0129     		cmp	r1, #1
 1924              	.LBE1613:
 1925              		.loc 1 722 0
 1926 0448 0468     		ldr	r4, [r0]
 1927              	.LVL172:
 1928              	.LBB1694:
 1929              		.loc 1 723 0
 1930 044a 7FF609AF 		bls	.L191
 1931              	.LBB1614:
 1932              	.LBB1615:
 1933              	.LBB1616:
 1934              	.LBB1617:
 1935              	.LBB1618:
 1936              	.LBB1619:
 1937              		.loc 2 477 0
 1938 044e 504D     		ldr	r5, .L987
ARM GAS  /tmp/ccMboyVS.s 			page 35


 1939 0450 DFF84081 		ldr	r8, .L987+4
 1940              	.LBE1619:
 1941              	.LBE1618:
 1942              	.LBE1617:
 1943              	.LBE1616:
 1944              	.LBB1628:
 1945              	.LBB1629:
 1946              	.LBB1630:
 1947              	.LBB1631:
 1948 0454 DFF840B1 		ldr	fp, .L987+8
 1949 0458 8146     		mov	r9, r0
 1950              	.LBE1631:
 1951              	.LBE1630:
 1952              	.LBE1629:
 1953              	.LBE1628:
 1954              	.LBE1615:
 1955              	.LBE1614:
 1956              		.loc 1 723 0
 1957 045a 4FF0010A 		mov	r10, #1
 1958              	.LVL173:
 1959              	.L389:
 1960              	.LBB1683:
 1961              	.LBB1672:
 1962              	.LBB1640:
 1963              	.LBB1641:
 1964              	.LBB1642:
 1965              	.LBB1643:
 1966              		.loc 2 461 0
 1967 045e E307     		lsls	r3, r4, #31
 1968 0460 4CBF     		ite	mi
 1969 0462 04F07C43 		andmi	r3, r4, #-67108864
 1970 0466 04F00C03 		andpl	r3, r4, #12
 1971              	.LBE1643:
 1972              	.LBE1642:
 1973              		.loc 2 561 0
 1974 046a 082B     		cmp	r3, #8
 1975              	.LBE1641:
 1976              	.LBE1640:
 1977              	.LBE1672:
 1978              	.LBE1683:
 1979              		.loc 1 724 0
 1980 046c 59F8047F 		ldr	r7, [r9, #4]!
 1981              	.LVL174:
 1982              	.LBB1684:
 1983              	.LBB1673:
 1984              	.LBB1645:
 1985              	.LBB1644:
 1986              		.loc 2 561 0
 1987 0470 00F09B81 		beq	.L370
 1988              		.loc 2 562 0
 1989 0474 23F00802 		bic	r2, r3, #8
 1990 0478 042A     		cmp	r2, #4
 1991 047a 00F09681 		beq	.L370
 1992              		.loc 2 564 0
 1993 047e 23F08052 		bic	r2, r3, #268435456
 1994 0482 B2F1005F 		cmp	r2, #536870912
 1995 0486 00F09081 		beq	.L370
ARM GAS  /tmp/ccMboyVS.s 			page 36


 1996              		.loc 2 565 0
 1997 048a B3F1804F 		cmp	r3, #1073741824
 1998 048e 00F08C81 		beq	.L370
 1999 0492 8024     		movs	r4, #128
 2000              	.LVL175:
 2001 0494 E4E6     		b	.L191
 2002              	.LVL176:
 2003              	.L222:
 2004              	.LBE1644:
 2005              	.LBE1645:
 2006              	.LBE1673:
 2007              	.LBE1684:
 2008              	.LBE1694:
 2009              	.LBE1612:
 2010              		.loc 1 460 0
 2011 0496 0129     		cmp	r1, #1
 2012 0498 00F09785 		beq	.L966
 2013 049c 9024     		movs	r4, #144
 2014 049e DFE6     		b	.L191
 2015              	.L213:
 2016              	.LBB1704:
 2017              		.loc 1 606 0
 2018 04a0 0468     		ldr	r4, [r0]
 2019              	.LVL177:
 2020              	.LBB1705:
 2021              	.LBB1706:
 2022              		.loc 2 461 0
 2023 04a2 E107     		lsls	r1, r4, #31
 2024              	.LVL178:
 2025 04a4 4CBF     		ite	mi
 2026 04a6 04F07C43 		andmi	r3, r4, #-67108864
 2027 04aa 04F00C03 		andpl	r3, r4, #12
 2028              	.LBE1706:
 2029              	.LBE1705:
 2030              		.loc 1 607 0
 2031 04ae 002B     		cmp	r3, #0
 2032 04b0 40F01184 		bne	.L496
 2033              	.LBB1707:
 2034              	.LBB1708:
 2035              		.loc 2 489 0
 2036 04b4 24F00F04 		bic	r4, r4, #15
 2037              	.LVL179:
 2038 04b8 44F00804 		orr	r4, r4, #8
 2039              	.LVL180:
 2040              	.LBE1708:
 2041              	.LBE1707:
 2042 04bc D0E6     		b	.L191
 2043              	.LVL181:
 2044              	.L212:
 2045              	.LBE1704:
 2046              	.LBB1709:
 2047              		.loc 1 590 0
 2048 04be 0029     		cmp	r1, #0
 2049 04c0 40F0A285 		bne	.L967
 2050 04c4 9024     		movs	r4, #144
 2051 04c6 CBE6     		b	.L191
 2052              	.L206:
ARM GAS  /tmp/ccMboyVS.s 			page 37


 2053              	.LBE1709:
 2054              		.loc 1 650 0
 2055 04c8 0068     		ldr	r0, [r0]
 2056              	.LVL182:
 2057 04ca FFF7FEFF 		bl	lbm_cdr
 2058              	.LVL183:
 2059 04ce 0446     		mov	r4, r0
 2060              	.LVL184:
 2061              		.loc 1 651 0
 2062 04d0 C6E6     		b	.L191
 2063              	.LVL185:
 2064              	.L216:
 2065              		.loc 1 631 0
 2066 04d2 0229     		cmp	r1, #2
 2067 04d4 00F0DF86 		beq	.L968
 2068 04d8 9024     		movs	r4, #144
 2069 04da C1E6     		b	.L191
 2070              	.L215:
 2071              		.loc 1 622 0
 2072 04dc 0229     		cmp	r1, #2
 2073 04de 00F0C686 		beq	.L969
 2074 04e2 9024     		movs	r4, #144
 2075 04e4 BCE6     		b	.L191
 2076              	.L223:
 2077              		.loc 1 821 0
 2078 04e6 0129     		cmp	r1, #1
 2079 04e8 00F04584 		beq	.L970
 2080              	.LBB1714:
 2081              		.loc 1 799 0
 2082 04ec 0024     		movs	r4, #0
 2083 04ee B7E6     		b	.L191
 2084              	.L204:
 2085              	.LVL186:
 2086              	.LBE1714:
 2087              	.LBB1717:
 2088              		.loc 1 642 0
 2089 04f0 D0E90001 		ldrd	r0, r1, [r0]
 2090              	.LVL187:
 2091 04f4 FFF7FEFF 		bl	lbm_cons
 2092              	.LVL188:
 2093 04f8 0446     		mov	r4, r0
 2094              	.LVL189:
 2095              		.loc 1 643 0
 2096 04fa B1E6     		b	.L191
 2097              	.LVL190:
 2098              	.L208:
 2099              	.LBE1717:
 2100              	.LBB1718:
 2101              		.loc 1 663 0
 2102 04fc 0229     		cmp	r1, #2
 2103 04fe 00F05684 		beq	.L971
 2104              	.LBE1718:
 2105              	.LBE1919:
 2106              		.loc 1 852 0
 2107 0502 9024     		movs	r4, #144
 2108 0504 ACE6     		b	.L191
 2109              	.L199:
ARM GAS  /tmp/ccMboyVS.s 			page 38


 2110              	.LBB1920:
 2111              	.LBB1730:
 2112              	.LBB1731:
 2113              		.loc 1 751 0
 2114 0506 0129     		cmp	r1, #1
 2115              	.LBE1731:
 2116              		.loc 1 747 0
 2117 0508 0568     		ldr	r5, [r0]
 2118              	.LVL191:
 2119              	.LBB1732:
 2120              		.loc 1 751 0
 2121 050a 7FF66BAF 		bls	.L267
 2122 050e 00EB8106 		add	r6, r0, r1, lsl #2
 2123              	.LVL192:
 2124 0512 041D     		adds	r4, r0, #4
 2125              	.LVL193:
 2126              	.L415:
 2127              		.loc 1 753 0 discriminator 1
 2128 0514 54F8041B 		ldr	r1, [r4], #4
 2129 0518 2846     		mov	r0, r5
 2130 051a FFF7FEFF 		bl	struct_eq
 2131              	.LVL194:
 2132              		.loc 1 751 0 discriminator 1
 2133 051e A642     		cmp	r6, r4
 2134 0520 00F07B81 		beq	.L959
 2135              		.loc 1 753 0
 2136 0524 0028     		cmp	r0, #0
 2137 0526 F5D1     		bne	.L415
 2138              	.L416:
 2139              		.loc 1 751 0
 2140 0528 231D     		adds	r3, r4, #4
 2141 052a B342     		cmp	r3, r6
 2142 052c 04F10804 		add	r4, r4, #8
 2143 0530 42D0     		beq	.L263
 2144 0532 B442     		cmp	r4, r6
 2145 0534 F8D1     		bne	.L416
 2146 0536 3FE0     		b	.L263
 2147              	.LVL195:
 2148              	.L214:
 2149              	.LBE1732:
 2150              	.LBE1730:
 2151              	.LBB1733:
 2152              		.loc 1 614 0
 2153 0538 0468     		ldr	r4, [r0]
 2154              	.LVL196:
 2155              	.LBB1734:
 2156              	.LBB1735:
 2157              		.loc 2 461 0
 2158 053a E207     		lsls	r2, r4, #31
 2159 053c 4CBF     		ite	mi
 2160 053e 04F07C43 		andmi	r3, r4, #-67108864
 2161 0542 04F00C03 		andpl	r3, r4, #12
 2162              	.LVL197:
 2163              	.LBE1735:
 2164              	.LBE1734:
 2165              		.loc 1 615 0
 2166 0546 082B     		cmp	r3, #8
ARM GAS  /tmp/ccMboyVS.s 			page 39


 2167 0548 00F03B85 		beq	.L972
 2168 054c 9024     		movs	r4, #144
 2169              	.LVL198:
 2170 054e 87E6     		b	.L191
 2171              	.LVL199:
 2172              	.L210:
 2173              	.LBE1733:
 2174              		.loc 1 815 0
 2175 0550 02AA     		add	r2, sp, #8
 2176 0552 FFF7FEFF 		bl	array_write
 2177              	.LVL200:
 2178 0556 029C     		ldr	r4, [sp, #8]
 2179              		.loc 1 816 0
 2180 0558 82E6     		b	.L191
 2181              	.LVL201:
 2182              	.L209:
 2183              	.LBB1738:
 2184              	.LBB1739:
 2185              		.loc 1 273 0
 2186 055a 0129     		cmp	r1, #1
 2187 055c 00F2BE83 		bhi	.L973
 2188 0560 9024     		movs	r4, #144
 2189              	.LBE1739:
 2190              	.LBE1738:
 2191              	.LBE1920:
 2192              		.loc 1 852 0
 2193 0562 7DE6     		b	.L191
 2194              	.LVL202:
 2195              	.L202:
 2196              	.LBB1921:
 2197              		.loc 1 766 0
 2198 0564 4FF00109 		mov	r9, #1
 2199 0568 5EE6     		b	.L200
 2200              	.L211:
 2201              	.LBB1741:
 2202              		.loc 1 567 0
 2203 056a 49B1     		cbz	r1, .L268
 2204              		.loc 1 568 0 discriminator 1
 2205 056c 0068     		ldr	r0, [r0]
 2206              	.LVL203:
 2207              	.LBB1742:
 2208              	.LBB1743:
 2209              		.loc 2 461 0 discriminator 1
 2210 056e C407     		lsls	r4, r0, #31
 2211 0570 4CBF     		ite	mi
 2212 0572 00F07C44 		andmi	r4, r0, #-67108864
 2213 0576 00F00C04 		andpl	r4, r0, #12
 2214              	.LBE1743:
 2215              	.LBE1742:
 2216              		.loc 1 567 0 discriminator 1
 2217 057a 002C     		cmp	r4, #0
 2218 057c 00F09486 		beq	.L974
 2219              	.LVL204:
 2220              	.L268:
 2221              		.loc 1 569 0
 2222 0580 0024     		movs	r4, #0
 2223 0582 6DE6     		b	.L191
ARM GAS  /tmp/ccMboyVS.s 			page 40


 2224              	.LVL205:
 2225              	.L205:
 2226              	.LBE1741:
 2227              		.loc 1 646 0
 2228 0584 0068     		ldr	r0, [r0]
 2229              	.LVL206:
 2230 0586 FFF7FEFF 		bl	lbm_car
 2231              	.LVL207:
 2232 058a 0446     		mov	r4, r0
 2233              	.LVL208:
 2234              		.loc 1 647 0
 2235 058c 68E6     		b	.L191
 2236              	.L988:
 2237 058e 00BF     		.align	2
 2238              	.L987:
 2239 0590 F8FFFF03 		.word	67108856
 2240 0594 01000040 		.word	1073741825
 2241 0598 01000030 		.word	805306369
 2242              	.LVL209:
 2243              	.L203:
 2244              	.LBB1745:
 2245              		.loc 1 798 0
 2246 059c 0029     		cmp	r1, #0
 2247 059e 00F0A383 		beq	.L507
 2248              		.loc 1 802 0
 2249 05a2 0368     		ldr	r3, [r0]
 2250              	.LVL210:
 2251              	.LBB1715:
 2252              	.LBB1716:
 2253              		.loc 2 461 0
 2254 05a4 D807     		lsls	r0, r3, #31
 2255              	.LVL211:
 2256 05a6 4CBF     		ite	mi
 2257 05a8 03F07C42 		andmi	r2, r3, #-67108864
 2258 05ac 03F00C02 		andpl	r2, r3, #12
 2259              	.LBE1716:
 2260              	.LBE1715:
 2261              		.loc 1 803 0
 2262 05b0 12B9     		cbnz	r2, .L263
 2263 05b2 1B09     		lsrs	r3, r3, #4
 2264              	.LVL212:
 2265 05b4 3FF416AF 		beq	.L267
 2266              	.LVL213:
 2267              	.L263:
 2268              	.LBE1745:
 2269              		.loc 1 559 0
 2270 05b8 0024     		movs	r4, #0
 2271 05ba 51E6     		b	.L191
 2272              	.LVL214:
 2273              	.L201:
 2274              	.LBE1921:
 2275              		.loc 1 451 0
 2276 05bc 4FF0FF39 		mov	r9, #-1
 2277 05c0 32E6     		b	.L200
 2278              	.L482:
 2279              		.loc 1 453 0
 2280 05c2 9024     		movs	r4, #144
ARM GAS  /tmp/ccMboyVS.s 			page 41


 2281 05c4 4CE6     		b	.L191
 2282              	.LVL215:
 2283              	.L293:
 2284              	.LBB1922:
 2285              	.LBB1746:
 2286              	.LBB1375:
 2287              	.LBB1364:
 2288              	.LBB1352:
 2289              	.LBB1324:
 2290              	.LBB1325:
 2291              	.LBB1326:
 2292              	.LBB1327:
 2293              		.loc 2 461 0
 2294 05c6 1BF0010F 		tst	fp, #1
 2295 05ca 00F03081 		beq	.L975
 2296 05ce 0BF07C42 		and	r2, fp, #-67108864
 2297              	.L294:
 2298              	.LVL216:
 2299              	.LBE1327:
 2300              	.LBE1326:
 2301              		.loc 2 561 0
 2302 05d2 082A     		cmp	r2, #8
 2303 05d4 79D0     		beq	.L295
 2304              		.loc 2 562 0
 2305 05d6 22F00801 		bic	r1, r2, #8
 2306 05da 0429     		cmp	r1, #4
 2307 05dc 75D0     		beq	.L295
 2308              		.loc 2 564 0
 2309 05de 22F08051 		bic	r1, r2, #268435456
 2310 05e2 B1F1005F 		cmp	r1, #536870912
 2311 05e6 70D0     		beq	.L295
 2312              		.loc 2 565 0
 2313 05e8 B2F1804F 		cmp	r2, #1073741824
 2314 05ec 6DD0     		beq	.L295
 2315 05ee 8024     		movs	r4, #128
 2316              	.LVL217:
 2317 05f0 36E6     		b	.L191
 2318              	.LVL218:
 2319              	.L393:
 2320              	.LBE1325:
 2321              	.LBE1324:
 2322              	.LBE1352:
 2323              	.LBE1364:
 2324              	.LBE1375:
 2325              	.LBE1746:
 2326              	.LBB1747:
 2327              	.LBB1279:
 2328              	.LBB1267:
 2329              	.LBB1254:
 2330              	.LBB1223:
 2331              	.LBB1224:
 2332              	.LBB1225:
 2333              	.LBB1226:
 2334              		.loc 2 461 0
 2335 05f2 FA07     		lsls	r2, r7, #31
 2336 05f4 40F11581 		bpl	.L976
 2337 05f8 07F07C42 		and	r2, r7, #-67108864
ARM GAS  /tmp/ccMboyVS.s 			page 42


 2338              	.L394:
 2339              	.LVL219:
 2340              	.LBE1226:
 2341              	.LBE1225:
 2342              		.loc 2 561 0
 2343 05fc 082A     		cmp	r2, #8
 2344 05fe 39D0     		beq	.L395
 2345              		.loc 2 562 0
 2346 0600 22F00801 		bic	r1, r2, #8
 2347 0604 0429     		cmp	r1, #4
 2348 0606 35D0     		beq	.L395
 2349              		.loc 2 564 0
 2350 0608 22F08051 		bic	r1, r2, #268435456
 2351 060c B1F1005F 		cmp	r1, #536870912
 2352 0610 30D0     		beq	.L395
 2353              		.loc 2 565 0
 2354 0612 B2F1804F 		cmp	r2, #1073741824
 2355 0616 2DD0     		beq	.L395
 2356 0618 8024     		movs	r4, #128
 2357              	.LVL220:
 2358 061a 21E6     		b	.L191
 2359              	.LVL221:
 2360              	.L349:
 2361              	.LBE1224:
 2362              	.LBE1223:
 2363              	.LBE1254:
 2364              	.LBE1267:
 2365              	.LBE1279:
 2366              	.LBE1747:
 2367              	.LBB1748:
 2368              	.LBB1468:
 2369              	.LBB1457:
 2370              	.LBB1445:
 2371              	.LBB1419:
 2372              	.LBB1420:
 2373              	.LBB1421:
 2374              	.LBB1422:
 2375              		.loc 2 461 0
 2376 061c 1BF0010F 		tst	fp, #1
 2377 0620 00F00281 		beq	.L977
 2378 0624 0BF07C42 		and	r2, fp, #-67108864
 2379              	.L350:
 2380              	.LVL222:
 2381              	.LBE1422:
 2382              	.LBE1421:
 2383              		.loc 2 561 0
 2384 0628 082A     		cmp	r2, #8
 2385 062a 73D0     		beq	.L351
 2386              		.loc 2 562 0
 2387 062c 22F00801 		bic	r1, r2, #8
 2388 0630 0429     		cmp	r1, #4
 2389 0632 6FD0     		beq	.L351
 2390              		.loc 2 564 0
 2391 0634 22F08051 		bic	r1, r2, #268435456
 2392 0638 B1F1005F 		cmp	r1, #536870912
 2393 063c 6AD0     		beq	.L351
 2394              		.loc 2 565 0
ARM GAS  /tmp/ccMboyVS.s 			page 43


 2395 063e B2F1804F 		cmp	r2, #1073741824
 2396 0642 67D0     		beq	.L351
 2397 0644 8024     		movs	r4, #128
 2398              	.LVL223:
 2399 0646 0BE6     		b	.L191
 2400              	.LVL224:
 2401              	.L329:
 2402              	.LBE1420:
 2403              	.LBE1419:
 2404              	.LBE1445:
 2405              	.LBE1457:
 2406              	.LBE1468:
 2407              	.LBE1748:
 2408              	.LBB1749:
 2409              	.LBB1566:
 2410              	.LBB1557:
 2411              	.LBB1547:
 2412              	.LBB1521:
 2413              	.LBB1522:
 2414              	.LBB1523:
 2415              	.LBB1524:
 2416              		.loc 2 461 0
 2417 0648 F807     		lsls	r0, r7, #31
 2418 064a 40F16381 		bpl	.L978
 2419 064e 07F07C42 		and	r2, r7, #-67108864
 2420              	.L330:
 2421              	.LVL225:
 2422              	.LBE1524:
 2423              	.LBE1523:
 2424              		.loc 2 561 0
 2425 0652 082A     		cmp	r2, #8
 2426 0654 00F08480 		beq	.L331
 2427              		.loc 2 562 0
 2428 0658 22F00801 		bic	r1, r2, #8
 2429 065c 0429     		cmp	r1, #4
 2430 065e 7FD0     		beq	.L331
 2431              		.loc 2 564 0
 2432 0660 22F08051 		bic	r1, r2, #268435456
 2433 0664 B1F1005F 		cmp	r1, #536870912
 2434 0668 7AD0     		beq	.L331
 2435              		.loc 2 565 0
 2436 066a B2F1804F 		cmp	r2, #1073741824
 2437 066e 77D0     		beq	.L331
 2438 0670 8024     		movs	r4, #128
 2439              	.LVL226:
 2440 0672 F5E5     		b	.L191
 2441              	.LVL227:
 2442              	.L395:
 2443              	.LBE1522:
 2444              	.LBE1521:
 2445              	.LBE1547:
 2446              	.LBE1557:
 2447              	.LBE1566:
 2448              	.LBE1749:
 2449              	.LBB1750:
 2450              	.LBB1280:
 2451              	.LBB1268:
ARM GAS  /tmp/ccMboyVS.s 			page 44


 2452              	.LBB1255:
 2453              		.loc 1 94 0
 2454 0674 9342     		cmp	r3, r2
 2455 0676 38BF     		it	cc
 2456 0678 1346     		movcc	r3, r2
 2457              	.LVL228:
 2458 067a B3F1005F 		cmp	r3, #536870912
 2459 067e 00F00183 		beq	.L401
 2460 0682 00F24A81 		bhi	.L473
 2461 0686 082B     		cmp	r3, #8
 2462 0688 00F0BE82 		beq	.L399
 2463 068c 0C2B     		cmp	r3, #12
 2464 068e 40F02E82 		bne	.L515
 2465              		.loc 1 95 0
 2466 0692 3B09     		lsrs	r3, r7, #4
 2467 0694 00F0EF81 		beq	.L400
 2468 0698 2046     		mov	r0, r4
 2469 069a FFF7FEFF 		bl	lbm_dec_as_i
 2470              	.LVL229:
 2471 069e 0446     		mov	r4, r0
 2472              	.LVL230:
 2473 06a0 3846     		mov	r0, r7
 2474 06a2 FFF7FEFF 		bl	lbm_dec_as_i
 2475              	.LVL231:
 2476 06a6 94FBF0F3 		sdiv	r3, r4, r0
 2477 06aa 03FB1044 		mls	r4, r3, r0, r4
 2478              	.LVL232:
 2479              	.LBB1231:
 2480              	.LBB1232:
 2481              		.loc 2 485 0
 2482 06ae 2401     		lsls	r4, r4, #4
 2483 06b0 44F00C04 		orr	r4, r4, #12
 2484              	.LVL233:
 2485              	.L398:
 2486 06b4 04F00C03 		and	r3, r4, #12
 2487              	.L412:
 2488              	.LBE1232:
 2489              	.LBE1231:
 2490              	.LBE1255:
 2491              	.LBE1268:
 2492              		.loc 1 739 0
 2493 06b8 002B     		cmp	r3, #0
 2494 06ba 3FF4D1AD 		beq	.L191
 2495              		.loc 1 737 0 discriminator 2
 2496 06be 0AF1010A 		add	r10, r10, #1
 2497              	.LVL234:
 2498 06c2 5645     		cmp	r6, r10
 2499 06c4 7FF4DDAD 		bne	.L413
 2500 06c8 CAE5     		b	.L191
 2501              	.LVL235:
 2502              	.L295:
 2503              	.LBE1280:
 2504              	.LBE1750:
 2505              	.LBB1751:
 2506              	.LBB1376:
 2507              	.LBB1365:
 2508              	.LBB1353:
ARM GAS  /tmp/ccMboyVS.s 			page 45


 2509              		.loc 1 37 0
 2510 06ca 9342     		cmp	r3, r2
 2511 06cc 38BF     		it	cc
 2512 06ce 1346     		movcc	r3, r2
 2513              	.LVL236:
 2514 06d0 B3F1005F 		cmp	r3, #536870912
 2515 06d4 00F01A82 		beq	.L299
 2516 06d8 00F25B81 		bhi	.L461
 2517 06dc 082B     		cmp	r3, #8
 2518 06de 00F0A882 		beq	.L298
 2519 06e2 0C2B     		cmp	r3, #12
 2520 06e4 40F00682 		bne	.L511
 2521              		.loc 1 38 0
 2522 06e8 2046     		mov	r0, r4
 2523 06ea FFF7FEFF 		bl	lbm_dec_as_i
 2524              	.LVL237:
 2525 06ee 0446     		mov	r4, r0
 2526              	.LVL238:
 2527 06f0 5846     		mov	r0, fp
 2528 06f2 FFF7FEFF 		bl	lbm_dec_as_i
 2529              	.LVL239:
 2530 06f6 0444     		add	r4, r4, r0
 2531              	.LVL240:
 2532              	.LBB1331:
 2533              	.LBB1332:
 2534              		.loc 2 485 0
 2535 06f8 2401     		lsls	r4, r4, #4
 2536              	.LVL241:
 2537 06fa 44F00C04 		orr	r4, r4, #12
 2538              	.LVL242:
 2539              	.L297:
 2540 06fe 04F00C03 		and	r3, r4, #12
 2541              	.L309:
 2542              	.LBE1332:
 2543              	.LBE1331:
 2544              	.LBE1353:
 2545              	.LBE1365:
 2546              		.loc 1 687 0
 2547 0702 002B     		cmp	r3, #0
 2548 0704 3FF4ACAD 		beq	.L191
 2549              		.loc 1 685 0 discriminator 2
 2550 0708 0AF1010A 		add	r10, r10, #1
 2551              	.LVL243:
 2552 070c 5645     		cmp	r6, r10
 2553 070e 7FF4E0AD 		bne	.L310
 2554 0712 A5E5     		b	.L191
 2555              	.LVL244:
 2556              	.L351:
 2557              	.LBE1376:
 2558              	.LBE1751:
 2559              	.LBB1752:
 2560              	.LBB1469:
 2561              	.LBB1458:
 2562              	.LBB1446:
 2563              		.loc 1 56 0
 2564 0714 9342     		cmp	r3, r2
 2565 0716 38BF     		it	cc
ARM GAS  /tmp/ccMboyVS.s 			page 46


 2566 0718 1346     		movcc	r3, r2
 2567              	.LVL245:
 2568 071a B3F1005F 		cmp	r3, #536870912
 2569 071e 00F09482 		beq	.L355
 2570 0722 00F25C81 		bhi	.L467
 2571 0726 082B     		cmp	r3, #8
 2572 0728 00F04682 		beq	.L354
 2573 072c 0C2B     		cmp	r3, #12
 2574 072e 40F0E481 		bne	.L513
 2575              		.loc 1 57 0
 2576 0732 2046     		mov	r0, r4
 2577 0734 FFF7FEFF 		bl	lbm_dec_as_i
 2578              	.LVL246:
 2579 0738 0446     		mov	r4, r0
 2580              	.LVL247:
 2581 073a 5846     		mov	r0, fp
 2582 073c FFF7FEFF 		bl	lbm_dec_as_i
 2583              	.LVL248:
 2584 0740 00FB04F4 		mul	r4, r0, r4
 2585              	.LVL249:
 2586              	.LBB1426:
 2587              	.LBB1427:
 2588              		.loc 2 485 0
 2589 0744 2401     		lsls	r4, r4, #4
 2590              	.LVL250:
 2591 0746 44F00C04 		orr	r4, r4, #12
 2592              	.LVL251:
 2593              	.L353:
 2594 074a 04F00C03 		and	r3, r4, #12
 2595              	.L365:
 2596              	.LBE1427:
 2597              	.LBE1426:
 2598              	.LBE1446:
 2599              	.LBE1458:
 2600              		.loc 1 713 0
 2601 074e 002B     		cmp	r3, #0
 2602 0750 3FF486AD 		beq	.L191
 2603              		.loc 1 711 0 discriminator 2
 2604 0754 0AF1010A 		add	r10, r10, #1
 2605              	.LVL252:
 2606 0758 5645     		cmp	r6, r10
 2607 075a 7FF4E2AD 		bne	.L366
 2608 075e 7FE5     		b	.L191
 2609              	.LVL253:
 2610              	.L331:
 2611              	.LBE1469:
 2612              	.LBE1752:
 2613              	.LBB1753:
 2614              	.LBB1567:
 2615              	.LBB1558:
 2616              	.LBB1548:
 2617              		.loc 1 149 0
 2618 0760 9342     		cmp	r3, r2
 2619 0762 38BF     		it	cc
 2620 0764 1346     		movcc	r3, r2
 2621              	.LVL254:
 2622 0766 B3F1005F 		cmp	r3, #536870912
ARM GAS  /tmp/ccMboyVS.s 			page 47


 2623 076a 00F0E782 		beq	.L335
 2624 076e 00F25C81 		bhi	.L464
 2625 0772 082B     		cmp	r3, #8
 2626 0774 00F0D682 		beq	.L334
 2627 0778 0C2B     		cmp	r3, #12
 2628 077a 40F0C481 		bne	.L512
 2629              		.loc 1 150 0
 2630 077e 2046     		mov	r0, r4
 2631 0780 FFF7FEFF 		bl	lbm_dec_as_i
 2632              	.LVL255:
 2633 0784 0446     		mov	r4, r0
 2634              	.LVL256:
 2635 0786 3846     		mov	r0, r7
 2636 0788 FFF7FEFF 		bl	lbm_dec_as_i
 2637              	.LVL257:
 2638 078c 241A     		subs	r4, r4, r0
 2639              	.LVL258:
 2640              	.LBB1528:
 2641              	.LBB1529:
 2642              		.loc 2 485 0
 2643 078e 2401     		lsls	r4, r4, #4
 2644              	.LVL259:
 2645 0790 44F00C04 		orr	r4, r4, #12
 2646              	.LVL260:
 2647              	.L333:
 2648 0794 04F00C03 		and	r3, r4, #12
 2649              	.L345:
 2650              	.LBE1529:
 2651              	.LBE1528:
 2652              	.LBE1548:
 2653              	.LBE1558:
 2654              		.loc 1 702 0
 2655 0798 002B     		cmp	r3, #0
 2656 079a 3FF461AD 		beq	.L191
 2657              		.loc 1 700 0 discriminator 2
 2658 079e 0AF1010A 		add	r10, r10, #1
 2659              	.LVL261:
 2660 07a2 5645     		cmp	r6, r10
 2661 07a4 7FF430AE 		bne	.L346
 2662 07a8 5AE5     		b	.L191
 2663              	.LVL262:
 2664              	.L370:
 2665              	.LBE1567:
 2666              	.LBE1753:
 2667              	.LBB1754:
 2668              	.LBB1695:
 2669              	.LBB1685:
 2670              	.LBB1674:
 2671              	.LBB1646:
 2672              	.LBB1647:
 2673              	.LBB1648:
 2674              	.LBB1649:
 2675              		.loc 2 461 0
 2676 07aa F907     		lsls	r1, r7, #31
 2677 07ac 40F16681 		bpl	.L979
 2678 07b0 07F07C42 		and	r2, r7, #-67108864
 2679              	.L371:
ARM GAS  /tmp/ccMboyVS.s 			page 48


 2680              	.LVL263:
 2681              	.LBE1649:
 2682              	.LBE1648:
 2683              		.loc 2 561 0
 2684 07b4 082A     		cmp	r2, #8
 2685 07b6 3DD0     		beq	.L372
 2686              		.loc 2 562 0
 2687 07b8 22F00801 		bic	r1, r2, #8
 2688 07bc 0429     		cmp	r1, #4
 2689 07be 39D0     		beq	.L372
 2690              		.loc 2 564 0
 2691 07c0 22F08051 		bic	r1, r2, #268435456
 2692 07c4 B1F1005F 		cmp	r1, #536870912
 2693 07c8 34D0     		beq	.L372
 2694              		.loc 2 565 0
 2695 07ca B2F1804F 		cmp	r2, #1073741824
 2696 07ce 31D0     		beq	.L372
 2697 07d0 8024     		movs	r4, #128
 2698              	.LVL264:
 2699 07d2 45E5     		b	.L191
 2700              	.LVL265:
 2701              	.L421:
 2702              	.LBE1647:
 2703              	.LBE1646:
 2704              	.LBE1674:
 2705              	.LBE1685:
 2706              	.LBE1695:
 2707              	.LBE1754:
 2708              	.LBB1755:
 2709              	.LBB1149:
 2710              		.loc 1 778 0
 2711 07d4 012E     		cmp	r6, #1
 2712 07d6 7FF605AE 		bls	.L267
 2713 07da 0125     		movs	r5, #1
 2714 07dc 0446     		mov	r4, r0
 2715              	.LBB1150:
 2716              	.LBB1151:
 2717              	.LBB1152:
 2718              	.LBB1153:
 2719              		.loc 2 562 0
 2720 07de 27F0080A 		bic	r10, r7, #8
 2721              	.LBE1153:
 2722              	.LBE1152:
 2723              	.LBE1151:
 2724              	.LBE1150:
 2725              		.loc 1 778 0
 2726 07e2 2846     		mov	r0, r5
 2727              	.LVL266:
 2728              	.L437:
 2729              		.loc 1 779 0
 2730 07e4 54F8042F 		ldr	r2, [r4, #4]!
 2731              	.LVL267:
 2732              	.LBB1175:
 2733              	.LBB1176:
 2734              	.LBB1177:
 2735              	.LBB1178:
 2736              		.loc 2 461 0
ARM GAS  /tmp/ccMboyVS.s 			page 49


 2737 07e8 D307     		lsls	r3, r2, #31
 2738 07ea 4CBF     		ite	mi
 2739 07ec 02F07C43 		andmi	r3, r2, #-67108864
 2740 07f0 02F00C03 		andpl	r3, r2, #12
 2741              	.LVL268:
 2742              	.LBE1178:
 2743              	.LBE1177:
 2744              		.loc 2 561 0
 2745 07f4 082B     		cmp	r3, #8
 2746 07f6 0CD0     		beq	.L425
 2747              		.loc 2 562 0
 2748 07f8 23F00801 		bic	r1, r3, #8
 2749 07fc 0429     		cmp	r1, #4
 2750 07fe 08D0     		beq	.L425
 2751              		.loc 2 564 0
 2752 0800 23F08051 		bic	r1, r3, #268435456
 2753 0804 B1F1005F 		cmp	r1, #536870912
 2754 0808 03D0     		beq	.L425
 2755              		.loc 2 565 0
 2756 080a B3F1804F 		cmp	r3, #1073741824
 2757 080e 7FF426AD 		bne	.L422
 2758              	.L425:
 2759              	.LVL269:
 2760              	.LBE1176:
 2761              	.LBE1175:
 2762              		.loc 1 784 0
 2763 0812 C0BB     		cbnz	r0, .L980
 2764              	.LVL270:
 2765              	.L475:
 2766              		.loc 1 778 0 discriminator 6
 2767 0814 0135     		adds	r5, r5, #1
 2768              	.LVL271:
 2769 0816 AE42     		cmp	r6, r5
 2770 0818 E4D1     		bne	.L437
 2771              	.LVL272:
 2772              	.L959:
 2773              	.LBE1149:
 2774              	.LBE1755:
 2775              		.loc 1 623 0
 2776 081a 0028     		cmp	r0, #0
 2777 081c 3FF4CCAE 		beq	.L263
 2778 0820 E0E5     		b	.L267
 2779              	.LVL273:
 2780              	.L976:
 2781              	.LBB1756:
 2782              	.LBB1281:
 2783              	.LBB1269:
 2784              	.LBB1256:
 2785              	.LBB1233:
 2786              	.LBB1229:
 2787              	.LBB1228:
 2788              	.LBB1227:
 2789              		.loc 2 461 0
 2790 0822 07F00C02 		and	r2, r7, #12
 2791 0826 E9E6     		b	.L394
 2792              	.LVL274:
 2793              	.L977:
ARM GAS  /tmp/ccMboyVS.s 			page 50


 2794              	.LBE1227:
 2795              	.LBE1228:
 2796              	.LBE1229:
 2797              	.LBE1233:
 2798              	.LBE1256:
 2799              	.LBE1269:
 2800              	.LBE1281:
 2801              	.LBE1756:
 2802              	.LBB1757:
 2803              	.LBB1470:
 2804              	.LBB1459:
 2805              	.LBB1447:
 2806              	.LBB1428:
 2807              	.LBB1425:
 2808              	.LBB1424:
 2809              	.LBB1423:
 2810 0828 0BF00C02 		and	r2, fp, #12
 2811 082c FCE6     		b	.L350
 2812              	.LVL275:
 2813              	.L975:
 2814              	.LBE1423:
 2815              	.LBE1424:
 2816              	.LBE1425:
 2817              	.LBE1428:
 2818              	.LBE1447:
 2819              	.LBE1459:
 2820              	.LBE1470:
 2821              	.LBE1757:
 2822              	.LBB1758:
 2823              	.LBB1377:
 2824              	.LBB1366:
 2825              	.LBB1354:
 2826              	.LBB1333:
 2827              	.LBB1330:
 2828              	.LBB1329:
 2829              	.LBB1328:
 2830 082e 0BF00C02 		and	r2, fp, #12
 2831 0832 CEE6     		b	.L294
 2832              	.LVL276:
 2833              	.L372:
 2834              	.LBE1328:
 2835              	.LBE1329:
 2836              	.LBE1330:
 2837              	.LBE1333:
 2838              	.LBE1354:
 2839              	.LBE1366:
 2840              	.LBE1377:
 2841              	.LBE1758:
 2842              	.LBB1759:
 2843              	.LBB1696:
 2844              	.LBB1686:
 2845              	.LBB1675:
 2846              		.loc 1 75 0
 2847 0834 9342     		cmp	r3, r2
 2848 0836 38BF     		it	cc
 2849 0838 1346     		movcc	r3, r2
 2850              	.LVL277:
ARM GAS  /tmp/ccMboyVS.s 			page 51


 2851 083a B3F1005F 		cmp	r3, #536870912
 2852 083e 00F06D84 		beq	.L378
 2853 0842 00F21E81 		bhi	.L470
 2854 0846 082B     		cmp	r3, #8
 2855 0848 00F08C84 		beq	.L376
 2856 084c 0C2B     		cmp	r3, #12
 2857 084e 40F0D883 		bne	.L514
 2858              		.loc 1 76 0
 2859 0852 3B09     		lsrs	r3, r7, #4
 2860 0854 00F05481 		beq	.L377
 2861 0858 2046     		mov	r0, r4
 2862 085a FFF7FEFF 		bl	lbm_dec_as_i
 2863              	.LVL278:
 2864 085e 0446     		mov	r4, r0
 2865              	.LVL279:
 2866 0860 3846     		mov	r0, r7
 2867 0862 FFF7FEFF 		bl	lbm_dec_as_i
 2868              	.LVL280:
 2869 0866 94FBF0F4 		sdiv	r4, r4, r0
 2870              	.LVL281:
 2871              	.LBB1654:
 2872              	.LBB1655:
 2873              		.loc 2 485 0
 2874 086a 2401     		lsls	r4, r4, #4
 2875              	.LVL282:
 2876 086c 44F00C04 		orr	r4, r4, #12
 2877              	.LVL283:
 2878              	.L375:
 2879 0870 04F00C03 		and	r3, r4, #12
 2880              	.L388:
 2881              	.LBE1655:
 2882              	.LBE1654:
 2883              	.LBE1675:
 2884              	.LBE1686:
 2885              		.loc 1 725 0
 2886 0874 002B     		cmp	r3, #0
 2887 0876 3FF4F3AC 		beq	.L191
 2888              		.loc 1 723 0 discriminator 2
 2889 087a 0AF1010A 		add	r10, r10, #1
 2890              	.LVL284:
 2891 087e 5645     		cmp	r6, r10
 2892 0880 7FF4EDAD 		bne	.L389
 2893 0884 ECE4     		b	.L191
 2894              	.LVL285:
 2895              	.L980:
 2896              	.LBE1696:
 2897              	.LBE1759:
 2898              	.LBB1760:
 2899              	.LBB1184:
 2900              	.LBB1179:
 2901              	.LBB1170:
 2902              	.LBB1155:
 2903              	.LBB1154:
 2904              		.loc 2 561 0
 2905 0886 082F     		cmp	r7, #8
 2906 0888 15D0     		beq	.L426
 2907              		.loc 2 562 0
ARM GAS  /tmp/ccMboyVS.s 			page 52


 2908 088a BAF1040F 		cmp	r10, #4
 2909 088e 12D0     		beq	.L426
 2910              		.loc 2 563 0
 2911 0890 B7F1405F 		cmp	r7, #805306368
 2912 0894 00F02B84 		beq	.L427
 2913              		.loc 2 564 0
 2914 0898 B7F1005F 		cmp	r7, #536870912
 2915 089c 00F00E84 		beq	.L428
 2916              		.loc 2 565 0
 2917 08a0 B7F1804F 		cmp	r7, #1073741824
 2918 08a4 00F03D85 		beq	.L429
 2919              	.L516:
 2920              	.LBE1154:
 2921              	.LBE1155:
 2922              		.loc 1 253 0
 2923 08a8 0020     		movs	r0, #0
 2924              	.LVL286:
 2925              	.L430:
 2926              	.LBE1170:
 2927              	.LBE1179:
 2928              		.loc 1 784 0
 2929 08aa A9EB0000 		sub	r0, r9, r0
 2930 08ae B0FA80F0 		clz	r0, r0
 2931 08b2 4009     		lsrs	r0, r0, #5
 2932 08b4 AEE7     		b	.L475
 2933              	.LVL287:
 2934              	.L426:
 2935              	.LBB1180:
 2936              	.LBB1171:
 2937              	.LBB1156:
 2938              	.LBB1157:
 2939              		.loc 2 565 0
 2940 08b6 0C2B     		cmp	r3, #12
 2941 08b8 19D0     		beq	.L435
 2942              		.loc 2 561 0
 2943 08ba 082B     		cmp	r3, #8
 2944 08bc 09D0     		beq	.L431
 2945              	.L481:
 2946              		.loc 2 562 0
 2947 08be 042B     		cmp	r3, #4
 2948 08c0 07D0     		beq	.L431
 2949              		.loc 2 564 0
 2950 08c2 23F08051 		bic	r1, r3, #268435456
 2951 08c6 B1F1005F 		cmp	r1, #536870912
 2952 08ca 02D0     		beq	.L431
 2953              		.loc 2 565 0
 2954 08cc B3F1804F 		cmp	r3, #1073741824
 2955 08d0 EAD1     		bne	.L516
 2956              	.L431:
 2957              	.LVL288:
 2958              	.LBE1157:
 2959              	.LBE1156:
 2960              		.loc 1 260 0
 2961 08d2 BB42     		cmp	r3, r7
 2962 08d4 38BF     		it	cc
 2963 08d6 3B46     		movcc	r3, r7
 2964              	.LVL289:
ARM GAS  /tmp/ccMboyVS.s 			page 53


 2965 08d8 B3F1005F 		cmp	r3, #536870912
 2966 08dc 00F0F383 		beq	.L434
 2967 08e0 00F28584 		bhi	.L476
 2968 08e4 082B     		cmp	r3, #8
 2969 08e6 00F0EE83 		beq	.L434
 2970 08ea 0C2B     		cmp	r3, #12
 2971 08ec DCD1     		bne	.L516
 2972              	.L435:
 2973              	.LVL290:
 2974              		.loc 1 264 0
 2975 08ee 4046     		mov	r0, r8
 2976              	.LVL291:
 2977 08f0 0192     		str	r2, [sp, #4]
 2978 08f2 FFF7FEFF 		bl	lbm_dec_as_i
 2979              	.LVL292:
 2980 08f6 019A     		ldr	r2, [sp, #4]
 2981 08f8 8346     		mov	fp, r0
 2982 08fa 1046     		mov	r0, r2
 2983 08fc FFF7FEFF 		bl	lbm_dec_as_i
 2984              	.LVL293:
 2985              	.LBB1161:
 2986              	.LBB1162:
 2987              		.loc 1 235 0
 2988 0900 8345     		cmp	fp, r0
 2989 0902 ACBF     		ite	ge
 2990 0904 0023     		movge	r3, #0
 2991 0906 0123     		movlt	r3, #1
 2992 0908 8345     		cmp	fp, r0
 2993 090a D4BF     		ite	le
 2994 090c 5842     		rsble	r0, r3, #0
 2995 090e C3F10100 		rsbgt	r0, r3, #1
 2996              	.LVL294:
 2997 0912 CAE7     		b	.L430
 2998              	.LVL295:
 2999              	.L978:
 3000              	.LBE1162:
 3001              	.LBE1161:
 3002              	.LBE1171:
 3003              	.LBE1180:
 3004              	.LBE1184:
 3005              	.LBE1760:
 3006              	.LBB1761:
 3007              	.LBB1568:
 3008              	.LBB1559:
 3009              	.LBB1549:
 3010              	.LBB1530:
 3011              	.LBB1527:
 3012              	.LBB1526:
 3013              	.LBB1525:
 3014              		.loc 2 461 0
 3015 0914 07F00C02 		and	r2, r7, #12
 3016 0918 9BE6     		b	.L330
 3017              	.LVL296:
 3018              	.L473:
 3019              	.LBE1525:
 3020              	.LBE1526:
 3021              	.LBE1527:
ARM GAS  /tmp/ccMboyVS.s 			page 54


 3022              	.LBE1530:
 3023              	.LBE1549:
 3024              	.LBE1559:
 3025              	.LBE1568:
 3026              	.LBE1761:
 3027              	.LBB1762:
 3028              	.LBB1282:
 3029              	.LBB1270:
 3030              	.LBB1257:
 3031              		.loc 1 94 0
 3032 091a B3F1405F 		cmp	r3, #805306368
 3033 091e 00F01181 		beq	.L406
 3034 0922 B3F1804F 		cmp	r3, #1073741824
 3035 0926 40F0E280 		bne	.L515
 3036              		.loc 1 99 0
 3037 092a 3846     		mov	r0, r7
 3038 092c FFF7FEFF 		bl	lbm_dec_as_f
 3039              	.LVL297:
 3040 0930 B5EE400A 		vcmp.f32	s0, #0
 3041 0934 F1EE10FA 		vmrs	APSR_nzcv, FPSCR
 3042 0938 00F09D80 		beq	.L400
 3043 093c 3846     		mov	r0, r7
 3044 093e FFF7FEFF 		bl	lbm_dec_as_f
 3045              	.LVL298:
 3046 0942 B5EE400A 		vcmp.f32	s0, #0
 3047 0946 F1EE10FA 		vmrs	APSR_nzcv, FPSCR
 3048 094a 00F09480 		beq	.L400
 3049 094e 2046     		mov	r0, r4
 3050 0950 FFF7FEFF 		bl	lbm_dec_as_f
 3051              	.LVL299:
 3052 0954 3846     		mov	r0, r7
 3053 0956 B0EE408A 		vmov.f32	s16, s0
 3054 095a FFF7FEFF 		bl	lbm_dec_as_f
 3055              	.LVL300:
 3056 095e F0EE400A 		vmov.f32	s1, s0
 3057 0962 B0EE480A 		vmov.f32	s0, s16
 3058 0966 FFF7FEFF 		bl	fmodf
 3059              	.LVL301:
 3060              	.LBB1234:
 3061              	.LBB1202:
 3062              		.loc 2 507 0
 3063 096a 4FF40C71 		mov	r1, #560
 3064 096e 10EE100A 		vmov	r0, s0	@ int
 3065 0972 FFF7FEFF 		bl	lbm_cons
 3066              	.LVL302:
 3067              	.LBB1197:
 3068              	.LBB1198:
 3069              		.loc 2 461 0
 3070 0976 C207     		lsls	r2, r0, #31
 3071              	.LBE1198:
 3072              	.LBE1197:
 3073              		.loc 2 507 0
 3074 0978 0446     		mov	r4, r0
 3075              	.LVL303:
 3076              	.LBB1200:
 3077              	.LBB1199:
 3078              		.loc 2 461 0
ARM GAS  /tmp/ccMboyVS.s 			page 55


 3079 097a 40F1DC84 		bpl	.L410
 3080              	.LVL304:
 3081              	.LBE1199:
 3082              	.LBE1200:
 3083              		.loc 2 508 0
 3084 097e 10F07C4F 		tst	r0, #-67108864
 3085 0982 3FF46DAC 		beq	.L191
 3086              	.L411:
 3087              	.LVL305:
 3088              	.LBB1201:
 3089              	.LBB1196:
 3090              		.loc 2 477 0
 3091 0986 2C40     		ands	r4, r4, r5
 3092 0988 44EA0804 		orr	r4, r4, r8
 3093              	.LVL306:
 3094              	.L405:
 3095 098c 04F07C43 		and	r3, r4, #-67108864
 3096 0990 92E6     		b	.L412
 3097              	.LVL307:
 3098              	.L461:
 3099              	.LBE1196:
 3100              	.LBE1201:
 3101              	.LBE1202:
 3102              	.LBE1234:
 3103              	.LBE1257:
 3104              	.LBE1270:
 3105              	.LBE1282:
 3106              	.LBE1762:
 3107              	.LBB1763:
 3108              	.LBB1378:
 3109              	.LBB1367:
 3110              	.LBB1355:
 3111              		.loc 1 37 0
 3112 0992 B3F1405F 		cmp	r3, #805306368
 3113 0996 00F0F580 		beq	.L303
 3114 099a B3F1804F 		cmp	r3, #1073741824
 3115 099e 40F0A980 		bne	.L511
 3116              		.loc 1 42 0
 3117 09a2 2046     		mov	r0, r4
 3118 09a4 FFF7FEFF 		bl	lbm_dec_as_f
 3119              	.LVL308:
 3120 09a8 5846     		mov	r0, fp
 3121 09aa B0EE408A 		vmov.f32	s16, s0
 3122 09ae FFF7FEFF 		bl	lbm_dec_as_f
 3123              	.LVL309:
 3124              	.LBB1334:
 3125              	.LBB1304:
 3126              		.loc 2 507 0
 3127 09b2 78EE007A 		vadd.f32	s15, s16, s0
 3128              	.LVL310:
 3129 09b6 4FF40C71 		mov	r1, #560
 3130 09ba 17EE900A 		vmov	r0, s15
 3131 09be FFF7FEFF 		bl	lbm_cons
 3132              	.LVL311:
 3133              	.LBB1299:
 3134              	.LBB1300:
 3135              		.loc 2 461 0
ARM GAS  /tmp/ccMboyVS.s 			page 56


 3136 09c2 C307     		lsls	r3, r0, #31
 3137              	.LBE1300:
 3138              	.LBE1299:
 3139              		.loc 2 507 0
 3140 09c4 0446     		mov	r4, r0
 3141              	.LVL312:
 3142              	.LBB1302:
 3143              	.LBB1301:
 3144              		.loc 2 461 0
 3145 09c6 40F19F83 		bpl	.L307
 3146              	.LVL313:
 3147              	.LBE1301:
 3148              	.LBE1302:
 3149              		.loc 2 508 0
 3150 09ca 10F07C43 		ands	r3, r0, #-67108864
 3151 09ce 3FF498AE 		beq	.L309
 3152              	.L308:
 3153              	.LVL314:
 3154              	.LBB1303:
 3155              	.LBB1298:
 3156              		.loc 2 477 0
 3157 09d2 3C40     		ands	r4, r4, r7
 3158 09d4 44EA0904 		orr	r4, r4, r9
 3159              	.LVL315:
 3160 09d8 04F07C43 		and	r3, r4, #-67108864
 3161 09dc 91E6     		b	.L309
 3162              	.LVL316:
 3163              	.L467:
 3164              	.LBE1298:
 3165              	.LBE1303:
 3166              	.LBE1304:
 3167              	.LBE1334:
 3168              	.LBE1355:
 3169              	.LBE1367:
 3170              	.LBE1378:
 3171              	.LBE1763:
 3172              	.LBB1764:
 3173              	.LBB1471:
 3174              	.LBB1460:
 3175              	.LBB1448:
 3176              		.loc 1 56 0
 3177 09de B3F1405F 		cmp	r3, #805306368
 3178 09e2 00F0F680 		beq	.L359
 3179 09e6 B3F1804F 		cmp	r3, #1073741824
 3180 09ea 40F08680 		bne	.L513
 3181              		.loc 1 61 0
 3182 09ee 2046     		mov	r0, r4
 3183 09f0 FFF7FEFF 		bl	lbm_dec_as_f
 3184              	.LVL317:
 3185 09f4 5846     		mov	r0, fp
 3186 09f6 B0EE408A 		vmov.f32	s16, s0
 3187 09fa FFF7FEFF 		bl	lbm_dec_as_f
 3188              	.LVL318:
 3189              	.LBB1429:
 3190              	.LBB1399:
 3191              		.loc 2 507 0
 3192 09fe 68EE007A 		vmul.f32	s15, s16, s0
ARM GAS  /tmp/ccMboyVS.s 			page 57


 3193              	.LVL319:
 3194 0a02 4FF40C71 		mov	r1, #560
 3195 0a06 17EE900A 		vmov	r0, s15
 3196 0a0a FFF7FEFF 		bl	lbm_cons
 3197              	.LVL320:
 3198              	.LBB1394:
 3199              	.LBB1395:
 3200              		.loc 2 461 0
 3201 0a0e C207     		lsls	r2, r0, #31
 3202              	.LBE1395:
 3203              	.LBE1394:
 3204              		.loc 2 507 0
 3205 0a10 0446     		mov	r4, r0
 3206              	.LVL321:
 3207              	.LBB1397:
 3208              	.LBB1396:
 3209              		.loc 2 461 0
 3210 0a12 40F1BB83 		bpl	.L363
 3211              	.LVL322:
 3212              	.LBE1396:
 3213              	.LBE1397:
 3214              		.loc 2 508 0
 3215 0a16 10F07C43 		ands	r3, r0, #-67108864
 3216 0a1a 3FF498AE 		beq	.L365
 3217              	.L364:
 3218              	.LVL323:
 3219              	.LBB1398:
 3220              	.LBB1393:
 3221              		.loc 2 477 0
 3222 0a1e 3C40     		ands	r4, r4, r7
 3223 0a20 44EA0904 		orr	r4, r4, r9
 3224              	.LVL324:
 3225 0a24 04F07C43 		and	r3, r4, #-67108864
 3226 0a28 91E6     		b	.L365
 3227              	.LVL325:
 3228              	.L464:
 3229              	.LBE1393:
 3230              	.LBE1398:
 3231              	.LBE1399:
 3232              	.LBE1429:
 3233              	.LBE1448:
 3234              	.LBE1460:
 3235              	.LBE1471:
 3236              	.LBE1764:
 3237              	.LBB1765:
 3238              	.LBB1569:
 3239              	.LBB1560:
 3240              	.LBB1550:
 3241              		.loc 1 149 0
 3242 0a2a B3F1405F 		cmp	r3, #805306368
 3243 0a2e 00F05E81 		beq	.L339
 3244 0a32 B3F1804F 		cmp	r3, #1073741824
 3245 0a36 66D1     		bne	.L512
 3246              		.loc 1 154 0
 3247 0a38 2046     		mov	r0, r4
 3248 0a3a FFF7FEFF 		bl	lbm_dec_as_f
 3249              	.LVL326:
ARM GAS  /tmp/ccMboyVS.s 			page 58


 3250 0a3e 3846     		mov	r0, r7
 3251 0a40 B0EE408A 		vmov.f32	s16, s0
 3252 0a44 FFF7FEFF 		bl	lbm_dec_as_f
 3253              	.LVL327:
 3254              	.LBB1531:
 3255              	.LBB1501:
 3256              		.loc 2 507 0
 3257 0a48 78EE407A 		vsub.f32	s15, s16, s0
 3258              	.LVL328:
 3259 0a4c 4FF40C71 		mov	r1, #560
 3260 0a50 17EE900A 		vmov	r0, s15
 3261 0a54 FFF7FEFF 		bl	lbm_cons
 3262              	.LVL329:
 3263              	.LBB1496:
 3264              	.LBB1497:
 3265              		.loc 2 461 0
 3266 0a58 C207     		lsls	r2, r0, #31
 3267              	.LBE1497:
 3268              	.LBE1496:
 3269              		.loc 2 507 0
 3270 0a5a 0446     		mov	r4, r0
 3271              	.LVL330:
 3272              	.LBB1499:
 3273              	.LBB1498:
 3274              		.loc 2 461 0
 3275 0a5c 40F11084 		bpl	.L343
 3276              	.LVL331:
 3277              	.LBE1498:
 3278              	.LBE1499:
 3279              		.loc 2 508 0
 3280 0a60 10F07C43 		ands	r3, r0, #-67108864
 3281 0a64 3FF498AE 		beq	.L345
 3282              	.L344:
 3283              	.LVL332:
 3284              	.LBB1500:
 3285              	.LBB1495:
 3286              		.loc 2 477 0
 3287 0a68 04EA0B04 		and	r4, r4, fp
 3288 0a6c 44EA0904 		orr	r4, r4, r9
 3289              	.LVL333:
 3290 0a70 04F07C43 		and	r3, r4, #-67108864
 3291 0a74 90E6     		b	.L345
 3292              	.LVL334:
 3293              	.L400:
 3294              	.LBE1495:
 3295              	.LBE1500:
 3296              	.LBE1501:
 3297              	.LBE1531:
 3298              	.LBE1550:
 3299              	.LBE1560:
 3300              	.LBE1569:
 3301              	.LBE1765:
 3302              	.LBB1766:
 3303              	.LBB1283:
 3304              	.LBB1271:
 3305              	.LBB1258:
 3306              	.LBB1235:
ARM GAS  /tmp/ccMboyVS.s 			page 59


 3307              	.LBB1230:
 3308              		.loc 2 565 0
 3309 0a76 B024     		movs	r4, #176
 3310 0a78 FFF7F2BB 		b	.L191
 3311              	.LVL335:
 3312              	.L979:
 3313              	.LBE1230:
 3314              	.LBE1235:
 3315              	.LBE1258:
 3316              	.LBE1271:
 3317              	.LBE1283:
 3318              	.LBE1766:
 3319              	.LBB1767:
 3320              	.LBB1697:
 3321              	.LBB1687:
 3322              	.LBB1676:
 3323              	.LBB1656:
 3324              	.LBB1652:
 3325              	.LBB1651:
 3326              	.LBB1650:
 3327              		.loc 2 461 0
 3328 0a7c 07F00C02 		and	r2, r7, #12
 3329 0a80 98E6     		b	.L371
 3330              	.LVL336:
 3331              	.L470:
 3332              	.LBE1650:
 3333              	.LBE1651:
 3334              	.LBE1652:
 3335              	.LBE1656:
 3336              		.loc 1 75 0
 3337 0a82 B3F1405F 		cmp	r3, #805306368
 3338 0a86 00F08683 		beq	.L382
 3339 0a8a B3F1804F 		cmp	r3, #1073741824
 3340 0a8e 40F0B882 		bne	.L514
 3341              		.loc 1 80 0
 3342 0a92 3846     		mov	r0, r7
 3343 0a94 FFF7FEFF 		bl	lbm_dec_as_f
 3344              	.LVL337:
 3345 0a98 B5EE400A 		vcmp.f32	s0, #0
 3346 0a9c F1EE10FA 		vmrs	APSR_nzcv, FPSCR
 3347 0aa0 2ED0     		beq	.L377
 3348 0aa2 3846     		mov	r0, r7
 3349 0aa4 FFF7FEFF 		bl	lbm_dec_as_f
 3350              	.LVL338:
 3351 0aa8 B5EE400A 		vcmp.f32	s0, #0
 3352 0aac F1EE10FA 		vmrs	APSR_nzcv, FPSCR
 3353 0ab0 26D0     		beq	.L377
 3354 0ab2 2046     		mov	r0, r4
 3355 0ab4 FFF7FEFF 		bl	lbm_dec_as_f
 3356              	.LVL339:
 3357 0ab8 3846     		mov	r0, r7
 3358 0aba B0EE408A 		vmov.f32	s16, s0
 3359 0abe FFF7FEFF 		bl	lbm_dec_as_f
 3360              	.LVL340:
 3361              	.LBB1657:
 3362              	.LBB1626:
 3363              		.loc 2 507 0
ARM GAS  /tmp/ccMboyVS.s 			page 60


 3364 0ac2 C8EE007A 		vdiv.f32	s15, s16, s0
 3365              	.LVL341:
 3366 0ac6 4FF40C71 		mov	r1, #560
 3367 0aca 17EE900A 		vmov	r0, s15
 3368 0ace FFF7FEFF 		bl	lbm_cons
 3369              	.LVL342:
 3370              	.LBB1621:
 3371              	.LBB1622:
 3372              		.loc 2 461 0
 3373 0ad2 C207     		lsls	r2, r0, #31
 3374              	.LBE1622:
 3375              	.LBE1621:
 3376              		.loc 2 507 0
 3377 0ad4 0446     		mov	r4, r0
 3378              	.LVL343:
 3379              	.LBB1624:
 3380              	.LBB1623:
 3381              		.loc 2 461 0
 3382 0ad6 40F13485 		bpl	.L386
 3383              	.LVL344:
 3384              	.LBE1623:
 3385              	.LBE1624:
 3386              		.loc 2 508 0
 3387 0ada 10F07C43 		ands	r3, r0, #-67108864
 3388 0ade 3FF4C9AE 		beq	.L388
 3389              	.L387:
 3390              	.LVL345:
 3391              	.LBB1625:
 3392              	.LBB1620:
 3393              		.loc 2 477 0
 3394 0ae2 2C40     		ands	r4, r4, r5
 3395 0ae4 44EA0804 		orr	r4, r4, r8
 3396              	.LVL346:
 3397 0ae8 04F07C43 		and	r3, r4, #-67108864
 3398 0aec C2E6     		b	.L388
 3399              	.LVL347:
 3400              	.L515:
 3401              	.LBE1620:
 3402              	.LBE1625:
 3403              	.LBE1626:
 3404              	.LBE1657:
 3405              	.LBE1676:
 3406              	.LBE1687:
 3407              	.LBE1697:
 3408              	.LBE1767:
 3409              	.LBB1768:
 3410              	.LBB1284:
 3411              	.LBB1272:
 3412              	.LBB1259:
 3413              		.loc 1 87 0
 3414 0aee 8024     		movs	r4, #128
 3415              	.LVL348:
 3416              	.LBE1259:
 3417              	.LBE1272:
 3418              	.LBE1284:
 3419              		.loc 1 744 0
 3420 0af0 FFF7B6BB 		b	.L191
ARM GAS  /tmp/ccMboyVS.s 			page 61


 3421              	.LVL349:
 3422              	.L511:
 3423              	.LBE1768:
 3424              	.LBB1769:
 3425              	.LBB1379:
 3426              	.LBB1368:
 3427              	.LBB1356:
 3428              		.loc 1 30 0
 3429 0af4 8024     		movs	r4, #128
 3430              	.LVL350:
 3431              	.LBE1356:
 3432              	.LBE1368:
 3433              	.LBE1379:
 3434              		.loc 1 692 0
 3435 0af6 FFF7B3BB 		b	.L191
 3436              	.LVL351:
 3437              	.L513:
 3438              	.LBE1769:
 3439              	.LBB1770:
 3440              	.LBB1472:
 3441              	.LBB1461:
 3442              	.LBB1449:
 3443              		.loc 1 49 0
 3444 0afa 8024     		movs	r4, #128
 3445              	.LVL352:
 3446              	.LBE1449:
 3447              	.LBE1461:
 3448              	.LBE1472:
 3449              		.loc 1 718 0
 3450 0afc FFF7B0BB 		b	.L191
 3451              	.LVL353:
 3452              	.L377:
 3453              	.LBE1770:
 3454              	.LBB1771:
 3455              	.LBB1698:
 3456              	.LBB1688:
 3457              	.LBB1677:
 3458              	.LBB1658:
 3459              	.LBB1653:
 3460              		.loc 2 565 0
 3461 0b00 B024     		movs	r4, #176
 3462 0b02 FFF7ADBB 		b	.L191
 3463              	.LVL354:
 3464              	.L512:
 3465              	.LBE1653:
 3466              	.LBE1658:
 3467              	.LBE1677:
 3468              	.LBE1688:
 3469              	.LBE1698:
 3470              	.LBE1771:
 3471              	.LBB1772:
 3472              	.LBB1570:
 3473              	.LBB1561:
 3474              	.LBB1551:
 3475              		.loc 1 142 0
 3476 0b06 8024     		movs	r4, #128
 3477              	.LVL355:
ARM GAS  /tmp/ccMboyVS.s 			page 62


 3478              	.LBE1551:
 3479              	.LBE1561:
 3480              	.LBE1570:
 3481              		.loc 1 707 0
 3482 0b08 FFF7AABB 		b	.L191
 3483              	.LVL356:
 3484              	.L299:
 3485              	.LBE1772:
 3486              	.LBB1773:
 3487              	.LBB1380:
 3488              	.LBB1369:
 3489              	.LBB1357:
 3490              		.loc 1 40 0
 3491 0b0c 2046     		mov	r0, r4
 3492 0b0e FFF7FEFF 		bl	lbm_dec_as_u
 3493              	.LVL357:
 3494 0b12 0446     		mov	r4, r0
 3495              	.LVL358:
 3496 0b14 5846     		mov	r0, fp
 3497 0b16 FFF7FEFF 		bl	lbm_dec_as_u
 3498              	.LVL359:
 3499              	.LBB1335:
 3500              	.LBB1336:
 3501              		.loc 2 499 0
 3502 0b1a 4FF40871 		mov	r1, #544
 3503 0b1e 2044     		add	r0, r0, r4
 3504              	.LVL360:
 3505 0b20 FFF7FEFF 		bl	lbm_cons
 3506              	.LVL361:
 3507              	.LBB1337:
 3508              	.LBB1338:
 3509              		.loc 2 461 0
 3510 0b24 C107     		lsls	r1, r0, #31
 3511              	.LBE1338:
 3512              	.LBE1337:
 3513              		.loc 2 499 0
 3514 0b26 0446     		mov	r4, r0
 3515              	.LVL362:
 3516              	.LBB1340:
 3517              	.LBB1339:
 3518              		.loc 2 461 0
 3519 0b28 40F15C83 		bpl	.L300
 3520              	.LVL363:
 3521              	.LBE1339:
 3522              	.LBE1340:
 3523              		.loc 2 500 0
 3524 0b2c 10F07C43 		ands	r3, r0, #-67108864
 3525 0b30 3FF4E7AD 		beq	.L309
 3526              	.L302:
 3527              	.LVL364:
 3528              	.LBB1341:
 3529              	.LBB1342:
 3530              		.loc 2 477 0
 3531 0b34 3C40     		ands	r4, r4, r7
 3532 0b36 44F00054 		orr	r4, r4, #536870912
 3533 0b3a 44F00104 		orr	r4, r4, #1
 3534              	.LVL365:
ARM GAS  /tmp/ccMboyVS.s 			page 63


 3535 0b3e 04F07C43 		and	r3, r4, #-67108864
 3536 0b42 DEE5     		b	.L309
 3537              	.LVL366:
 3538              	.L406:
 3539              	.LBE1342:
 3540              	.LBE1341:
 3541              	.LBE1336:
 3542              	.LBE1335:
 3543              	.LBE1357:
 3544              	.LBE1369:
 3545              	.LBE1380:
 3546              	.LBE1773:
 3547              	.LBB1774:
 3548              	.LBB1285:
 3549              	.LBB1273:
 3550              	.LBB1260:
 3551              		.loc 1 98 0
 3552 0b44 3846     		mov	r0, r7
 3553 0b46 FFF7FEFF 		bl	lbm_dec_as_i
 3554              	.LVL367:
 3555 0b4a 0028     		cmp	r0, #0
 3556 0b4c 93D0     		beq	.L400
 3557 0b4e 2046     		mov	r0, r4
 3558 0b50 FFF7FEFF 		bl	lbm_dec_as_i
 3559              	.LVL368:
 3560 0b54 0446     		mov	r4, r0
 3561              	.LVL369:
 3562 0b56 3846     		mov	r0, r7
 3563 0b58 FFF7FEFF 		bl	lbm_dec_as_i
 3564              	.LVL370:
 3565              	.LBB1236:
 3566              	.LBB1214:
 3567              		.loc 2 493 0
 3568 0b5c 4FF40471 		mov	r1, #528
 3569              	.LBE1214:
 3570              	.LBE1236:
 3571              		.loc 1 98 0
 3572 0b60 94FBF0F3 		sdiv	r3, r4, r0
 3573              	.LBB1237:
 3574              	.LBB1215:
 3575              		.loc 2 493 0
 3576 0b64 03FB1040 		mls	r0, r3, r0, r4
 3577              	.LVL371:
 3578 0b68 FFF7FEFF 		bl	lbm_cons
 3579              	.LVL372:
 3580              	.LBB1209:
 3581              	.LBB1210:
 3582              		.loc 2 461 0
 3583 0b6c C107     		lsls	r1, r0, #31
 3584              	.LBE1210:
 3585              	.LBE1209:
 3586              		.loc 2 493 0
 3587 0b6e 0446     		mov	r4, r0
 3588              	.LVL373:
 3589              	.LBB1212:
 3590              	.LBB1211:
 3591              		.loc 2 461 0
ARM GAS  /tmp/ccMboyVS.s 			page 64


 3592 0b70 40F1CB83 		bpl	.L407
 3593              	.LVL374:
 3594              	.LBE1211:
 3595              	.LBE1212:
 3596              		.loc 2 494 0
 3597 0b74 10F07C4F 		tst	r0, #-67108864
 3598 0b78 3FF472AB 		beq	.L191
 3599              	.L408:
 3600              	.LVL375:
 3601              	.LBB1213:
 3602              	.LBB1208:
 3603              		.loc 2 477 0
 3604 0b7c 2C40     		ands	r4, r4, r5
 3605 0b7e 44EA0B04 		orr	r4, r4, fp
 3606              	.LVL376:
 3607 0b82 03E7     		b	.L405
 3608              	.LVL377:
 3609              	.L303:
 3610              	.LBE1208:
 3611              	.LBE1213:
 3612              	.LBE1215:
 3613              	.LBE1237:
 3614              	.LBE1260:
 3615              	.LBE1273:
 3616              	.LBE1285:
 3617              	.LBE1774:
 3618              	.LBB1775:
 3619              	.LBB1381:
 3620              	.LBB1370:
 3621              	.LBB1358:
 3622              		.loc 1 41 0
 3623 0b84 2046     		mov	r0, r4
 3624 0b86 FFF7FEFF 		bl	lbm_dec_as_i
 3625              	.LVL378:
 3626 0b8a 0446     		mov	r4, r0
 3627              	.LVL379:
 3628 0b8c 5846     		mov	r0, fp
 3629 0b8e FFF7FEFF 		bl	lbm_dec_as_i
 3630              	.LVL380:
 3631              	.LBB1344:
 3632              	.LBB1316:
 3633              		.loc 2 493 0
 3634 0b92 4FF40471 		mov	r1, #528
 3635 0b96 2044     		add	r0, r0, r4
 3636              	.LVL381:
 3637 0b98 FFF7FEFF 		bl	lbm_cons
 3638              	.LVL382:
 3639              	.LBB1311:
 3640              	.LBB1312:
 3641              		.loc 2 461 0
 3642 0b9c C207     		lsls	r2, r0, #31
 3643              	.LBE1312:
 3644              	.LBE1311:
 3645              		.loc 2 493 0
 3646 0b9e 0446     		mov	r4, r0
 3647              	.LVL383:
 3648              	.LBB1314:
ARM GAS  /tmp/ccMboyVS.s 			page 65


 3649              	.LBB1313:
 3650              		.loc 2 461 0
 3651 0ba0 40F11B83 		bpl	.L304
 3652              	.LVL384:
 3653              	.LBE1313:
 3654              	.LBE1314:
 3655              		.loc 2 494 0
 3656 0ba4 10F07C43 		ands	r3, r0, #-67108864
 3657 0ba8 3FF4ABAD 		beq	.L309
 3658              	.L305:
 3659              	.LVL385:
 3660              	.LBB1315:
 3661              	.LBB1310:
 3662              		.loc 2 477 0
 3663 0bac 3C40     		ands	r4, r4, r7
 3664 0bae 44EA0804 		orr	r4, r4, r8
 3665              	.LVL386:
 3666 0bb2 04F07C43 		and	r3, r4, #-67108864
 3667 0bb6 A4E5     		b	.L309
 3668              	.LVL387:
 3669              	.L354:
 3670              	.LBE1310:
 3671              	.LBE1315:
 3672              	.LBE1316:
 3673              	.LBE1344:
 3674              	.LBE1358:
 3675              	.LBE1370:
 3676              	.LBE1381:
 3677              	.LBE1775:
 3678              	.LBB1776:
 3679              	.LBB1473:
 3680              	.LBB1462:
 3681              	.LBB1450:
 3682              		.loc 1 58 0
 3683 0bb8 2046     		mov	r0, r4
 3684 0bba FFF7FEFF 		bl	lbm_dec_as_u
 3685              	.LVL388:
 3686 0bbe 0446     		mov	r4, r0
 3687              	.LVL389:
 3688 0bc0 5846     		mov	r0, fp
 3689 0bc2 FFF7FEFF 		bl	lbm_dec_as_u
 3690              	.LVL390:
 3691 0bc6 00FB04F4 		mul	r4, r0, r4
 3692              	.LVL391:
 3693              	.LBB1430:
 3694              	.LBB1431:
 3695              		.loc 2 489 0
 3696 0bca 2401     		lsls	r4, r4, #4
 3697              	.LVL392:
 3698 0bcc 44F00804 		orr	r4, r4, #8
 3699              	.LVL393:
 3700 0bd0 BBE5     		b	.L353
 3701              	.LVL394:
 3702              	.L359:
 3703              	.LBE1431:
 3704              	.LBE1430:
 3705              		.loc 1 60 0
ARM GAS  /tmp/ccMboyVS.s 			page 66


 3706 0bd2 2046     		mov	r0, r4
 3707 0bd4 FFF7FEFF 		bl	lbm_dec_as_i
 3708              	.LVL395:
 3709 0bd8 0446     		mov	r4, r0
 3710              	.LVL396:
 3711 0bda 5846     		mov	r0, fp
 3712 0bdc FFF7FEFF 		bl	lbm_dec_as_i
 3713              	.LVL397:
 3714              	.LBB1432:
 3715              	.LBB1411:
 3716              		.loc 2 493 0
 3717 0be0 4FF40471 		mov	r1, #528
 3718 0be4 00FB04F0 		mul	r0, r0, r4
 3719              	.LVL398:
 3720 0be8 FFF7FEFF 		bl	lbm_cons
 3721              	.LVL399:
 3722              	.LBB1406:
 3723              	.LBB1407:
 3724              		.loc 2 461 0
 3725 0bec C107     		lsls	r1, r0, #31
 3726              	.LBE1407:
 3727              	.LBE1406:
 3728              		.loc 2 493 0
 3729 0bee 0446     		mov	r4, r0
 3730              	.LVL400:
 3731              	.LBB1409:
 3732              	.LBB1408:
 3733              		.loc 2 461 0
 3734 0bf0 40F18582 		bpl	.L360
 3735              	.LVL401:
 3736              	.LBE1408:
 3737              	.LBE1409:
 3738              		.loc 2 494 0
 3739 0bf4 10F07C43 		ands	r3, r0, #-67108864
 3740 0bf8 3FF4A9AD 		beq	.L365
 3741              	.L361:
 3742              	.LVL402:
 3743              	.LBB1410:
 3744              	.LBB1405:
 3745              		.loc 2 477 0
 3746 0bfc 3C40     		ands	r4, r4, r7
 3747 0bfe 44EA0804 		orr	r4, r4, r8
 3748              	.LVL403:
 3749 0c02 04F07C43 		and	r3, r4, #-67108864
 3750 0c06 A2E5     		b	.L365
 3751              	.LVL404:
 3752              	.L399:
 3753              	.LBE1405:
 3754              	.LBE1410:
 3755              	.LBE1411:
 3756              	.LBE1432:
 3757              	.LBE1450:
 3758              	.LBE1462:
 3759              	.LBE1473:
 3760              	.LBE1776:
 3761              	.LBB1777:
 3762              	.LBB1286:
ARM GAS  /tmp/ccMboyVS.s 			page 67


 3763              	.LBB1274:
 3764              	.LBB1261:
 3765              		.loc 1 96 0
 3766 0c08 3846     		mov	r0, r7
 3767 0c0a FFF7FEFF 		bl	lbm_dec_as_u
 3768              	.LVL405:
 3769 0c0e 0028     		cmp	r0, #0
 3770 0c10 3FF431AF 		beq	.L400
 3771 0c14 2046     		mov	r0, r4
 3772 0c16 FFF7FEFF 		bl	lbm_dec_as_u
 3773              	.LVL406:
 3774 0c1a 0446     		mov	r4, r0
 3775              	.LVL407:
 3776 0c1c 3846     		mov	r0, r7
 3777 0c1e FFF7FEFF 		bl	lbm_dec_as_u
 3778              	.LVL408:
 3779 0c22 B4FBF0F3 		udiv	r3, r4, r0
 3780 0c26 03FB1044 		mls	r4, r3, r0, r4
 3781              	.LVL409:
 3782              	.LBB1238:
 3783              	.LBB1239:
 3784              		.loc 2 489 0
 3785 0c2a 2401     		lsls	r4, r4, #4
 3786 0c2c 44F00804 		orr	r4, r4, #8
 3787              	.LVL410:
 3788 0c30 40E5     		b	.L398
 3789              	.LVL411:
 3790              	.L298:
 3791              	.LBE1239:
 3792              	.LBE1238:
 3793              	.LBE1261:
 3794              	.LBE1274:
 3795              	.LBE1286:
 3796              	.LBE1777:
 3797              	.LBB1778:
 3798              	.LBB1382:
 3799              	.LBB1371:
 3800              	.LBB1359:
 3801              		.loc 1 39 0
 3802 0c32 2046     		mov	r0, r4
 3803 0c34 FFF7FEFF 		bl	lbm_dec_as_u
 3804              	.LVL412:
 3805 0c38 0446     		mov	r4, r0
 3806              	.LVL413:
 3807 0c3a 5846     		mov	r0, fp
 3808 0c3c FFF7FEFF 		bl	lbm_dec_as_u
 3809              	.LVL414:
 3810 0c40 0444     		add	r4, r4, r0
 3811              	.LVL415:
 3812              	.LBB1345:
 3813              	.LBB1346:
 3814              		.loc 2 489 0
 3815 0c42 2401     		lsls	r4, r4, #4
 3816              	.LVL416:
 3817 0c44 44F00804 		orr	r4, r4, #8
 3818              	.LVL417:
 3819 0c48 59E5     		b	.L297
ARM GAS  /tmp/ccMboyVS.s 			page 68


 3820              	.LVL418:
 3821              	.L355:
 3822              	.LBE1346:
 3823              	.LBE1345:
 3824              	.LBE1359:
 3825              	.LBE1371:
 3826              	.LBE1382:
 3827              	.LBE1778:
 3828              	.LBB1779:
 3829              	.LBB1474:
 3830              	.LBB1463:
 3831              	.LBB1451:
 3832              		.loc 1 59 0
 3833 0c4a 2046     		mov	r0, r4
 3834 0c4c FFF7FEFF 		bl	lbm_dec_as_u
 3835              	.LVL419:
 3836 0c50 0446     		mov	r4, r0
 3837              	.LVL420:
 3838 0c52 5846     		mov	r0, fp
 3839 0c54 FFF7FEFF 		bl	lbm_dec_as_u
 3840              	.LVL421:
 3841              	.LBB1433:
 3842              	.LBB1434:
 3843              		.loc 2 499 0
 3844 0c58 4FF40871 		mov	r1, #544
 3845 0c5c 00FB04F0 		mul	r0, r0, r4
 3846              	.LVL422:
 3847 0c60 FFF7FEFF 		bl	lbm_cons
 3848              	.LVL423:
 3849 0c64 0446     		mov	r4, r0
 3850              	.LVL424:
 3851              	.LBB1435:
 3852              	.LBB1436:
 3853              		.loc 2 461 0
 3854 0c66 E007     		lsls	r0, r4, #31
 3855              	.LVL425:
 3856 0c68 40F15382 		bpl	.L356
 3857              	.LVL426:
 3858              	.LBE1436:
 3859              	.LBE1435:
 3860              		.loc 2 500 0
 3861 0c6c 14F07C43 		ands	r3, r4, #-67108864
 3862 0c70 3FF46DAD 		beq	.L365
 3863              	.L358:
 3864              	.LVL427:
 3865              	.LBB1437:
 3866              	.LBB1438:
 3867              		.loc 2 477 0
 3868 0c74 3C40     		ands	r4, r4, r7
 3869              	.LVL428:
 3870 0c76 44F00054 		orr	r4, r4, #536870912
 3871 0c7a 44F00104 		orr	r4, r4, #1
 3872              	.LVL429:
 3873 0c7e 04F07C43 		and	r3, r4, #-67108864
 3874 0c82 64E5     		b	.L365
 3875              	.LVL430:
 3876              	.L401:
ARM GAS  /tmp/ccMboyVS.s 			page 69


 3877              	.LBE1438:
 3878              	.LBE1437:
 3879              	.LBE1434:
 3880              	.LBE1433:
 3881              	.LBE1451:
 3882              	.LBE1463:
 3883              	.LBE1474:
 3884              	.LBE1779:
 3885              	.LBB1780:
 3886              	.LBB1287:
 3887              	.LBB1275:
 3888              	.LBB1262:
 3889              		.loc 1 97 0
 3890 0c84 3846     		mov	r0, r7
 3891 0c86 FFF7FEFF 		bl	lbm_dec_as_u
 3892              	.LVL431:
 3893 0c8a 0028     		cmp	r0, #0
 3894 0c8c 3FF4F3AE 		beq	.L400
 3895 0c90 2046     		mov	r0, r4
 3896 0c92 FFF7FEFF 		bl	lbm_dec_as_u
 3897              	.LVL432:
 3898 0c96 0446     		mov	r4, r0
 3899              	.LVL433:
 3900 0c98 3846     		mov	r0, r7
 3901 0c9a FFF7FEFF 		bl	lbm_dec_as_u
 3902              	.LVL434:
 3903              	.LBB1240:
 3904              	.LBB1241:
 3905              		.loc 2 499 0
 3906 0c9e 4FF40871 		mov	r1, #544
 3907              	.LBE1241:
 3908              	.LBE1240:
 3909              		.loc 1 97 0
 3910 0ca2 B4FBF0F3 		udiv	r3, r4, r0
 3911              	.LBB1248:
 3912              	.LBB1246:
 3913              		.loc 2 499 0
 3914 0ca6 03FB1040 		mls	r0, r3, r0, r4
 3915              	.LVL435:
 3916 0caa FFF7FEFF 		bl	lbm_cons
 3917              	.LVL436:
 3918 0cae 0446     		mov	r4, r0
 3919              	.LVL437:
 3920              	.LBB1242:
 3921              	.LBB1243:
 3922              		.loc 2 461 0
 3923 0cb0 E007     		lsls	r0, r4, #31
 3924              	.LVL438:
 3925 0cb2 40F13083 		bpl	.L402
 3926              	.LVL439:
 3927              	.LBE1243:
 3928              	.LBE1242:
 3929              		.loc 2 500 0
 3930 0cb6 14F07C4F 		tst	r4, #-67108864
 3931 0cba 3FF4D1AA 		beq	.L191
 3932              	.L404:
 3933              	.LVL440:
ARM GAS  /tmp/ccMboyVS.s 			page 70


 3934              	.LBB1244:
 3935              	.LBB1245:
 3936              		.loc 2 477 0
 3937 0cbe 2C40     		ands	r4, r4, r5
 3938              	.LVL441:
 3939 0cc0 44F00054 		orr	r4, r4, #536870912
 3940 0cc4 44F00104 		orr	r4, r4, #1
 3941              	.LVL442:
 3942 0cc8 60E6     		b	.L405
 3943              	.LVL443:
 3944              	.L506:
 3945              	.LBE1245:
 3946              	.LBE1244:
 3947              	.LBE1246:
 3948              	.LBE1248:
 3949              	.LBE1262:
 3950              	.LBE1275:
 3951              	.LBE1287:
 3952              	.LBE1780:
 3953 0cca 9024     		movs	r4, #144
 3954 0ccc FFF7C8BA 		b	.L191
 3955              	.L503:
 3956              	.LBB1781:
 3957              		.loc 1 695 0
 3958 0cd0 0824     		movs	r4, #8
 3959 0cd2 FFF7C5BA 		b	.L191
 3960              	.LVL444:
 3961              	.L496:
 3962              	.LBE1781:
 3963              	.LBB1782:
 3964 0cd6 9024     		movs	r4, #144
 3965              	.LVL445:
 3966 0cd8 FFF7C2BA 		b	.L191
 3967              	.LVL446:
 3968              	.L973:
 3969              	.LBE1782:
 3970              	.LBB1783:
 3971              	.LBB1740:
 3972 0cdc 02AA     		add	r2, sp, #8
 3973              	.LVL447:
 3974 0cde FFF7FEFF 		bl	array_read.part.0
 3975              	.LVL448:
 3976 0ce2 029C     		ldr	r4, [sp, #8]
 3977 0ce4 FFF7BCBA 		b	.L191
 3978              	.LVL449:
 3979              	.L507:
 3980              	.LBE1740:
 3981              	.LBE1783:
 3982              	.LBB1784:
 3983              		.loc 1 799 0
 3984 0ce8 0C46     		mov	r4, r1
 3985 0cea FFF7B9BA 		b	.L191
 3986              	.LVL450:
 3987              	.L339:
 3988              	.LBE1784:
 3989              	.LBB1785:
 3990              	.LBB1571:
ARM GAS  /tmp/ccMboyVS.s 			page 71


 3991              	.LBB1562:
 3992              	.LBB1552:
 3993              		.loc 1 153 0
 3994 0cee 2046     		mov	r0, r4
 3995 0cf0 FFF7FEFF 		bl	lbm_dec_as_i
 3996              	.LVL451:
 3997 0cf4 0446     		mov	r4, r0
 3998              	.LVL452:
 3999 0cf6 3846     		mov	r0, r7
 4000 0cf8 FFF7FEFF 		bl	lbm_dec_as_i
 4001              	.LVL453:
 4002              	.LBB1532:
 4003              	.LBB1513:
 4004              		.loc 2 493 0
 4005 0cfc 4FF40471 		mov	r1, #528
 4006 0d00 201A     		subs	r0, r4, r0
 4007              	.LVL454:
 4008 0d02 FFF7FEFF 		bl	lbm_cons
 4009              	.LVL455:
 4010              	.LBB1508:
 4011              	.LBB1509:
 4012              		.loc 2 461 0
 4013 0d06 C107     		lsls	r1, r0, #31
 4014              	.LBE1509:
 4015              	.LBE1508:
 4016              		.loc 2 493 0
 4017 0d08 0446     		mov	r4, r0
 4018              	.LVL456:
 4019              	.LBB1511:
 4020              	.LBB1510:
 4021              		.loc 2 461 0
 4022 0d0a 40F1AB82 		bpl	.L340
 4023              	.LVL457:
 4024              	.LBE1510:
 4025              	.LBE1511:
 4026              		.loc 2 494 0
 4027 0d0e 10F07C43 		ands	r3, r0, #-67108864
 4028 0d12 3FF441AD 		beq	.L345
 4029              	.L341:
 4030              	.LVL458:
 4031              	.LBB1512:
 4032              	.LBB1507:
 4033              		.loc 2 477 0
 4034 0d16 04EA0B04 		and	r4, r4, fp
 4035 0d1a 44EA0804 		orr	r4, r4, r8
 4036              	.LVL459:
 4037 0d1e 04F07C43 		and	r3, r4, #-67108864
 4038 0d22 39E5     		b	.L345
 4039              	.LVL460:
 4040              	.L334:
 4041              	.LBE1507:
 4042              	.LBE1512:
 4043              	.LBE1513:
 4044              	.LBE1532:
 4045              		.loc 1 151 0
 4046 0d24 2046     		mov	r0, r4
 4047 0d26 FFF7FEFF 		bl	lbm_dec_as_u
ARM GAS  /tmp/ccMboyVS.s 			page 72


 4048              	.LVL461:
 4049 0d2a 0446     		mov	r4, r0
 4050              	.LVL462:
 4051 0d2c 3846     		mov	r0, r7
 4052 0d2e FFF7FEFF 		bl	lbm_dec_as_u
 4053              	.LVL463:
 4054 0d32 241A     		subs	r4, r4, r0
 4055              	.LVL464:
 4056              	.LBB1533:
 4057              	.LBB1534:
 4058              		.loc 2 489 0
 4059 0d34 2401     		lsls	r4, r4, #4
 4060              	.LVL465:
 4061 0d36 44F00804 		orr	r4, r4, #8
 4062              	.LVL466:
 4063 0d3a 2BE5     		b	.L333
 4064              	.LVL467:
 4065              	.L335:
 4066              	.LBE1534:
 4067              	.LBE1533:
 4068              		.loc 1 152 0
 4069 0d3c 2046     		mov	r0, r4
 4070 0d3e FFF7FEFF 		bl	lbm_dec_as_u
 4071              	.LVL468:
 4072 0d42 0446     		mov	r4, r0
 4073              	.LVL469:
 4074 0d44 3846     		mov	r0, r7
 4075 0d46 FFF7FEFF 		bl	lbm_dec_as_u
 4076              	.LVL470:
 4077              	.LBB1535:
 4078              	.LBB1536:
 4079              		.loc 2 499 0
 4080 0d4a 4FF40871 		mov	r1, #544
 4081 0d4e 201A     		subs	r0, r4, r0
 4082              	.LVL471:
 4083 0d50 FFF7FEFF 		bl	lbm_cons
 4084              	.LVL472:
 4085 0d54 0446     		mov	r4, r0
 4086              	.LVL473:
 4087              	.LBB1537:
 4088              	.LBB1538:
 4089              		.loc 2 461 0
 4090 0d56 E007     		lsls	r0, r4, #31
 4091              	.LVL474:
 4092 0d58 40F19882 		bpl	.L336
 4093              	.LVL475:
 4094              	.LBE1538:
 4095              	.LBE1537:
 4096              		.loc 2 500 0
 4097 0d5c 14F07C43 		ands	r3, r4, #-67108864
 4098 0d60 3FF41AAD 		beq	.L345
 4099              	.L338:
 4100              	.LVL476:
 4101              	.LBB1539:
 4102              	.LBB1540:
 4103              		.loc 2 477 0
 4104 0d64 04EA0B04 		and	r4, r4, fp
ARM GAS  /tmp/ccMboyVS.s 			page 73


 4105              	.LVL477:
 4106 0d68 44F00054 		orr	r4, r4, #536870912
 4107 0d6c 44F00104 		orr	r4, r4, #1
 4108              	.LVL478:
 4109 0d70 04F07C43 		and	r3, r4, #-67108864
 4110 0d74 10E5     		b	.L345
 4111              	.LVL479:
 4112              	.L970:
 4113              	.LBE1540:
 4114              	.LBE1539:
 4115              	.LBE1536:
 4116              	.LBE1535:
 4117              	.LBE1552:
 4118              	.LBE1562:
 4119              	.LBE1571:
 4120              	.LBE1785:
 4121              		.loc 1 822 0
 4122 0d76 0368     		ldr	r3, [r0]
 4123              	.LVL480:
 4124              	.LBB1786:
 4125              	.LBB1787:
 4126              		.loc 2 461 0
 4127 0d78 D907     		lsls	r1, r3, #31
 4128              	.LVL481:
 4129 0d7a 4CBF     		ite	mi
 4130 0d7c 03F07C43 		andmi	r3, r3, #-67108864
 4131              	.LVL482:
 4132 0d80 03F00C03 		andpl	r3, r3, #12
 4133              	.LVL483:
 4134              	.LBE1787:
 4135              	.LBE1786:
 4136              		.loc 1 823 0
 4137 0d84 B3F1805F 		cmp	r3, #268435456
 4138 0d88 00F0C483 		beq	.L445
 4139 0d8c 00F2A282 		bhi	.L446
 4140 0d90 042B     		cmp	r3, #4
 4141 0d92 00F0C383 		beq	.L447
 4142 0d96 40F29D83 		bls	.L981
 4143 0d9a 082B     		cmp	r3, #8
 4144 0d9c 00F0C583 		beq	.L450
 4145 0da0 0C2B     		cmp	r3, #12
 4146 0da2 40F0BF83 		bne	.L444
 4147              		.loc 1 835 0
 4148 0da6 4FF4A264 		mov	r4, #1296
 4149 0daa FFF759BA 		b	.L191
 4150              	.LVL484:
 4151              	.L971:
 4152              	.LBB1788:
 4153              		.loc 1 666 0
 4154 0dae D0E90064 		ldrd	r6, r4, [r0]
 4155              	.LVL485:
 4156              	.LBB1719:
 4157              	.LBB1720:
 4158              		.loc 2 461 0
 4159 0db2 F007     		lsls	r0, r6, #31
 4160              	.LVL486:
 4161              	.LBE1720:
ARM GAS  /tmp/ccMboyVS.s 			page 74


 4162              	.LBE1719:
 4163              		.loc 1 668 0
 4164 0db4 0294     		str	r4, [sp, #8]
 4165              	.LVL487:
 4166              	.LBB1724:
 4167              	.LBB1721:
 4168              		.loc 2 461 0
 4169 0db6 7FF553AA 		bpl	.L191
 4170              	.LVL488:
 4171 0dba 06F07C43 		and	r3, r6, #-67108864
 4172              	.LBE1721:
 4173              	.LBE1724:
 4174              		.loc 1 671 0
 4175 0dbe B3F1805F 		cmp	r3, #268435456
 4176 0dc2 7FF44DAA 		bne	.L191
 4177 0dc6 3046     		mov	r0, r6
 4178              		.loc 1 670 0
 4179 0dc8 0025     		movs	r5, #0
 4180              	.LVL489:
 4181              	.L287:
 4182              		.loc 1 673 0
 4183 0dca FFF7FEFF 		bl	lbm_cdr
 4184              	.LVL490:
 4185              	.LBB1725:
 4186              	.LBB1722:
 4187              		.loc 2 461 0
 4188 0dce C107     		lsls	r1, r0, #31
 4189 0dd0 00F07C43 		and	r3, r0, #-67108864
 4190              	.LBE1722:
 4191              	.LBE1725:
 4192              		.loc 1 672 0
 4193 0dd4 05F10102 		add	r2, r5, #1
 4194              	.LVL491:
 4195              	.LBB1726:
 4196              	.LBB1723:
 4197              		.loc 2 461 0
 4198 0dd8 07D5     		bpl	.L290
 4199              	.LBE1723:
 4200              	.LBE1726:
 4201              		.loc 1 671 0
 4202 0dda B3F1805F 		cmp	r3, #268435456
 4203 0dde 04D1     		bne	.L290
 4204              		.loc 1 672 0
 4205 0de0 1546     		mov	r5, r2
 4206 0de2 F2E7     		b	.L287
 4207              	.LVL492:
 4208              	.L982:
 4209              	.LBB1727:
 4210              		.loc 1 676 0 discriminator 2
 4211 0de4 6F1C     		adds	r7, r5, #1
 4212 0de6 3FF43BAA 		beq	.L191
 4213              	.LVL493:
 4214              	.L290:
 4215              		.loc 1 677 0
 4216 0dea 2946     		mov	r1, r5
 4217 0dec 3046     		mov	r0, r6
 4218 0dee FFF7FEFF 		bl	index_list
ARM GAS  /tmp/ccMboyVS.s 			page 75


 4219              	.LVL494:
 4220 0df2 0299     		ldr	r1, [sp, #8]
 4221 0df4 FFF7FEFF 		bl	lbm_cons
 4222              	.LVL495:
 4223              	.LBB1728:
 4224              	.LBB1729:
 4225              		.loc 2 461 0
 4226 0df8 C307     		lsls	r3, r0, #31
 4227 0dfa 4CBF     		ite	mi
 4228 0dfc 00F07C43 		andmi	r3, r0, #-67108864
 4229 0e00 00F00C03 		andpl	r3, r0, #12
 4230              	.LBE1729:
 4231              	.LBE1728:
 4232              		.loc 1 677 0
 4233 0e04 0446     		mov	r4, r0
 4234 0e06 0290     		str	r0, [sp, #8]
 4235              	.LVL496:
 4236              		.loc 1 676 0
 4237 0e08 013D     		subs	r5, r5, #1
 4238              	.LVL497:
 4239              		.loc 1 678 0
 4240 0e0a 002B     		cmp	r3, #0
 4241 0e0c EAD1     		bne	.L982
 4242 0e0e FFF727BA 		b	.L191
 4243              	.LVL498:
 4244              	.L961:
 4245              	.LBE1727:
 4246              	.LBE1788:
 4247              		.loc 1 536 0 discriminator 1
 4248 0e12 0468     		ldr	r4, [r0]
 4249              	.LVL499:
 4250              	.LBB1789:
 4251              	.LBB1790:
 4252              		.loc 2 461 0 discriminator 1
 4253 0e14 E307     		lsls	r3, r4, #31
 4254 0e16 40F16F82 		bpl	.L493
 4255              	.LVL500:
 4256              		.loc 2 461 0 is_stmt 0
 4257 0e1a 04F07C43 		and	r3, r4, #-67108864
 4258              	.LBE1790:
 4259              	.LBE1789:
 4260              		.loc 1 536 0 is_stmt 1
 4261 0e1e B3F1805F 		cmp	r3, #268435456
 4262 0e22 40F04E83 		bne	.L983
 4263 0e26 0426     		movs	r6, #4
 4264              	.LBB1792:
 4265              		.loc 1 538 0
 4266 0e28 0025     		movs	r5, #0
 4267              	.LVL501:
 4268              	.L254:
 4269              		.loc 1 543 0
 4270 0e2a 2046     		mov	r0, r4
 4271 0e2c FFF7FEFF 		bl	lbm_car
 4272              	.LVL502:
 4273              	.LBB1793:
 4274              	.LBB1794:
 4275              	.LBB1795:
ARM GAS  /tmp/ccMboyVS.s 			page 76


 4276              	.LBB1796:
 4277              		.loc 2 461 0
 4278 0e30 C707     		lsls	r7, r0, #31
 4279 0e32 4CBF     		ite	mi
 4280 0e34 00F07C40 		andmi	r0, r0, #-67108864
 4281              	.LVL503:
 4282 0e38 00F00C00 		andpl	r0, r0, #12
 4283              	.LBE1796:
 4284              	.LBE1795:
 4285              		.loc 2 561 0
 4286 0e3c 0828     		cmp	r0, #8
 4287 0e3e 00F02581 		beq	.L257
 4288              		.loc 2 562 0
 4289 0e42 20F00803 		bic	r3, r0, #8
 4290 0e46 042B     		cmp	r3, #4
 4291 0e48 00F02081 		beq	.L257
 4292              		.loc 2 564 0
 4293 0e4c 20F08053 		bic	r3, r0, #268435456
 4294 0e50 B3F1005F 		cmp	r3, #536870912
 4295 0e54 00F01A81 		beq	.L257
 4296              		.loc 2 565 0
 4297 0e58 B0F1804F 		cmp	r0, #1073741824
 4298 0e5c 00F01681 		beq	.L257
 4299              	.L258:
 4300              	.LVL504:
 4301              	.LBE1794:
 4302              	.LBE1793:
 4303              	.LBB1797:
 4304              	.LBB1798:
 4305              		.loc 2 507 0
 4306 0e60 2846     		mov	r0, r5
 4307 0e62 4FF40C71 		mov	r1, #560
 4308 0e66 FFF7FEFF 		bl	lbm_cons
 4309              	.LVL505:
 4310              	.LBB1799:
 4311              	.LBB1800:
 4312              		.loc 2 461 0
 4313 0e6a C607     		lsls	r6, r0, #31
 4314 0e6c 4CBF     		ite	mi
 4315 0e6e 00F07C43 		andmi	r3, r0, #-67108864
 4316 0e72 00F00C03 		andpl	r3, r0, #12
 4317              	.LBE1800:
 4318              	.LBE1799:
 4319              		.loc 2 507 0
 4320 0e76 0446     		mov	r4, r0
 4321              	.LVL506:
 4322              		.loc 2 508 0
 4323 0e78 002B     		cmp	r3, #0
 4324 0e7a 3FF4F1A9 		beq	.L191
 4325              	.LVL507:
 4326              	.LBB1801:
 4327              	.LBB1802:
 4328              		.loc 2 477 0
 4329 0e7e 20F07C44 		bic	r4, r0, #-67108864
 4330 0e82 24F00704 		bic	r4, r4, #7
 4331 0e86 44F08044 		orr	r4, r4, #1073741824
 4332 0e8a 44F00104 		orr	r4, r4, #1
ARM GAS  /tmp/ccMboyVS.s 			page 77


 4333              	.LVL508:
 4334 0e8e FFF7E7B9 		b	.L191
 4335              	.LVL509:
 4336              	.L963:
 4337              	.LBE1802:
 4338              	.LBE1801:
 4339              	.LBE1798:
 4340              	.LBE1797:
 4341              	.LBE1792:
 4342              		.loc 1 455 0 discriminator 1
 4343 0e92 0368     		ldr	r3, [r0]
 4344              	.LVL510:
 4345              	.LBB1809:
 4346              	.LBB1810:
 4347              	.LBB1811:
 4348              	.LBB1812:
 4349              		.loc 2 461 0 discriminator 1
 4350 0e94 D907     		lsls	r1, r3, #31
 4351              	.LVL511:
 4352 0e96 4CBF     		ite	mi
 4353 0e98 03F07C42 		andmi	r2, r3, #-67108864
 4354 0e9c 03F00C02 		andpl	r2, r3, #12
 4355              	.LVL512:
 4356              	.LBE1812:
 4357              	.LBE1811:
 4358              		.loc 2 561 0 discriminator 1
 4359 0ea0 082A     		cmp	r2, #8
 4360 0ea2 00F0BB80 		beq	.L230
 4361              		.loc 2 562 0
 4362 0ea6 22F00801 		bic	r1, r2, #8
 4363 0eaa 0429     		cmp	r1, #4
 4364 0eac 00F0B680 		beq	.L230
 4365              		.loc 2 564 0
 4366 0eb0 22F08051 		bic	r1, r2, #268435456
 4367 0eb4 B1F1005F 		cmp	r1, #536870912
 4368 0eb8 00F0B080 		beq	.L230
 4369              		.loc 2 565 0
 4370 0ebc B2F1804F 		cmp	r2, #1073741824
 4371 0ec0 00F0AC80 		beq	.L230
 4372 0ec4 9024     		movs	r4, #144
 4373 0ec6 FFF7CBB9 		b	.L191
 4374              	.LVL513:
 4375              	.L962:
 4376              	.LBE1810:
 4377              	.LBE1809:
 4378              		.loc 1 516 0 discriminator 1
 4379 0eca 0468     		ldr	r4, [r0]
 4380              	.LVL514:
 4381              	.LBB1813:
 4382              	.LBB1814:
 4383              		.loc 2 461 0 discriminator 1
 4384 0ecc E007     		lsls	r0, r4, #31
 4385              	.LVL515:
 4386 0ece 40F11982 		bpl	.L490
 4387              	.LVL516:
 4388              		.loc 2 461 0 is_stmt 0
 4389 0ed2 04F07C43 		and	r3, r4, #-67108864
ARM GAS  /tmp/ccMboyVS.s 			page 78


 4390              	.LBE1814:
 4391              	.LBE1813:
 4392              		.loc 1 516 0 is_stmt 1
 4393 0ed6 B3F1805F 		cmp	r3, #268435456
 4394 0eda 40F0F582 		bne	.L984
 4395 0ede 0426     		movs	r6, #4
 4396              	.LBB1816:
 4397              		.loc 1 518 0
 4398 0ee0 0025     		movs	r5, #0
 4399              	.LVL517:
 4400              	.L245:
 4401              		.loc 1 522 0
 4402 0ee2 2046     		mov	r0, r4
 4403 0ee4 FFF7FEFF 		bl	lbm_car
 4404              	.LVL518:
 4405              	.LBB1817:
 4406              	.LBB1818:
 4407              	.LBB1819:
 4408              	.LBB1820:
 4409              		.loc 2 461 0
 4410 0ee8 C107     		lsls	r1, r0, #31
 4411 0eea 4CBF     		ite	mi
 4412 0eec 00F07C40 		andmi	r0, r0, #-67108864
 4413              	.LVL519:
 4414 0ef0 00F00C00 		andpl	r0, r0, #12
 4415              	.LBE1820:
 4416              	.LBE1819:
 4417              		.loc 2 561 0
 4418 0ef4 0828     		cmp	r0, #8
 4419 0ef6 00F09C80 		beq	.L248
 4420              		.loc 2 562 0
 4421 0efa 20F00803 		bic	r3, r0, #8
 4422 0efe 042B     		cmp	r3, #4
 4423 0f00 00F09780 		beq	.L248
 4424              		.loc 2 564 0
 4425 0f04 20F08053 		bic	r3, r0, #268435456
 4426 0f08 B3F1005F 		cmp	r3, #536870912
 4427 0f0c 00F09180 		beq	.L248
 4428              		.loc 2 565 0
 4429 0f10 B0F1804F 		cmp	r0, #1073741824
 4430 0f14 00F08D80 		beq	.L248
 4431              	.L249:
 4432              	.LVL520:
 4433              	.LBE1818:
 4434              	.LBE1817:
 4435              	.LBB1821:
 4436              	.LBB1822:
 4437              		.loc 2 499 0
 4438 0f18 2846     		mov	r0, r5
 4439 0f1a 4FF40871 		mov	r1, #544
 4440 0f1e FFF7FEFF 		bl	lbm_cons
 4441              	.LVL521:
 4442              	.LBB1823:
 4443              	.LBB1824:
 4444              		.loc 2 461 0
 4445 0f22 C207     		lsls	r2, r0, #31
 4446 0f24 4CBF     		ite	mi
ARM GAS  /tmp/ccMboyVS.s 			page 79


 4447 0f26 00F07C43 		andmi	r3, r0, #-67108864
 4448 0f2a 00F00C03 		andpl	r3, r0, #12
 4449              	.LBE1824:
 4450              	.LBE1823:
 4451              		.loc 2 499 0
 4452 0f2e 0446     		mov	r4, r0
 4453              	.LVL522:
 4454              		.loc 2 500 0
 4455 0f30 002B     		cmp	r3, #0
 4456 0f32 3FF495A9 		beq	.L191
 4457              	.LVL523:
 4458              	.LBB1825:
 4459              	.LBB1826:
 4460              		.loc 2 477 0
 4461 0f36 20F07C44 		bic	r4, r0, #-67108864
 4462 0f3a 24F00704 		bic	r4, r4, #7
 4463 0f3e 44F00054 		orr	r4, r4, #536870912
 4464 0f42 44F00104 		orr	r4, r4, #1
 4465              	.LVL524:
 4466 0f46 FFF78BB9 		b	.L191
 4467              	.LVL525:
 4468              	.L964:
 4469              	.LBE1826:
 4470              	.LBE1825:
 4471              	.LBE1822:
 4472              	.LBE1821:
 4473              	.LBE1816:
 4474              		.loc 1 496 0 discriminator 1
 4475 0f4a 0468     		ldr	r4, [r0]
 4476              	.LVL526:
 4477              	.LBB1833:
 4478              	.LBB1834:
 4479              		.loc 2 461 0 discriminator 1
 4480 0f4c E307     		lsls	r3, r4, #31
 4481 0f4e 40F1D681 		bpl	.L487
 4482              	.LVL527:
 4483              		.loc 2 461 0 is_stmt 0
 4484 0f52 04F07C43 		and	r3, r4, #-67108864
 4485              	.LBE1834:
 4486              	.LBE1833:
 4487              		.loc 1 496 0 is_stmt 1
 4488 0f56 B3F1805F 		cmp	r3, #268435456
 4489 0f5a 40F0B882 		bne	.L985
 4490 0f5e 0426     		movs	r6, #4
 4491              	.LBB1836:
 4492              		.loc 1 498 0
 4493 0f60 0025     		movs	r5, #0
 4494              	.LVL528:
 4495              	.L236:
 4496              		.loc 1 502 0
 4497 0f62 2046     		mov	r0, r4
 4498 0f64 FFF7FEFF 		bl	lbm_car
 4499              	.LVL529:
 4500              	.LBB1837:
 4501              	.LBB1838:
 4502              	.LBB1839:
 4503              	.LBB1840:
ARM GAS  /tmp/ccMboyVS.s 			page 80


 4504              		.loc 2 461 0
 4505 0f68 C707     		lsls	r7, r0, #31
 4506 0f6a 4CBF     		ite	mi
 4507 0f6c 00F07C40 		andmi	r0, r0, #-67108864
 4508              	.LVL530:
 4509 0f70 00F00C00 		andpl	r0, r0, #12
 4510              	.LBE1840:
 4511              	.LBE1839:
 4512              		.loc 2 561 0
 4513 0f74 0828     		cmp	r0, #8
 4514 0f76 74D0     		beq	.L239
 4515              		.loc 2 562 0
 4516 0f78 20F00803 		bic	r3, r0, #8
 4517 0f7c 042B     		cmp	r3, #4
 4518 0f7e 70D0     		beq	.L239
 4519              		.loc 2 564 0
 4520 0f80 20F08053 		bic	r3, r0, #268435456
 4521 0f84 B3F1005F 		cmp	r3, #536870912
 4522 0f88 6BD0     		beq	.L239
 4523              		.loc 2 565 0
 4524 0f8a B0F1804F 		cmp	r0, #1073741824
 4525 0f8e 68D0     		beq	.L239
 4526              	.L240:
 4527              	.LVL531:
 4528              	.LBE1838:
 4529              	.LBE1837:
 4530              	.LBB1841:
 4531              	.LBB1842:
 4532              		.loc 2 493 0
 4533 0f90 2846     		mov	r0, r5
 4534 0f92 4FF40471 		mov	r1, #528
 4535 0f96 FFF7FEFF 		bl	lbm_cons
 4536              	.LVL532:
 4537              	.LBB1843:
 4538              	.LBB1844:
 4539              		.loc 2 461 0
 4540 0f9a C507     		lsls	r5, r0, #31
 4541              	.LVL533:
 4542 0f9c 4CBF     		ite	mi
 4543 0f9e 00F07C43 		andmi	r3, r0, #-67108864
 4544 0fa2 00F00C03 		andpl	r3, r0, #12
 4545              	.LBE1844:
 4546              	.LBE1843:
 4547              		.loc 2 493 0
 4548 0fa6 0446     		mov	r4, r0
 4549              	.LVL534:
 4550              		.loc 2 494 0
 4551 0fa8 002B     		cmp	r3, #0
 4552 0faa 3FF459A9 		beq	.L191
 4553              	.LVL535:
 4554              	.LBB1845:
 4555              	.LBB1846:
 4556              		.loc 2 477 0
 4557 0fae 20F07C44 		bic	r4, r0, #-67108864
 4558 0fb2 24F00704 		bic	r4, r4, #7
 4559 0fb6 44F04054 		orr	r4, r4, #805306368
 4560 0fba 44F00104 		orr	r4, r4, #1
ARM GAS  /tmp/ccMboyVS.s 			page 81


 4561              	.LVL536:
 4562 0fbe FFF74FB9 		b	.L191
 4563              	.LVL537:
 4564              	.L972:
 4565              	.LBE1846:
 4566              	.LBE1845:
 4567              	.LBE1842:
 4568              	.LBE1841:
 4569              	.LBE1836:
 4570              	.LBB1853:
 4571              	.LBB1736:
 4572              	.LBB1737:
 4573              		.loc 2 481 0
 4574 0fc2 24F00F04 		bic	r4, r4, #15
 4575              	.LVL538:
 4576              	.LBE1737:
 4577              	.LBE1736:
 4578 0fc6 FFF74BB9 		b	.L191
 4579              	.LVL539:
 4580              	.L966:
 4581              	.LBE1853:
 4582              		.loc 1 460 0 discriminator 1
 4583 0fca 0068     		ldr	r0, [r0]
 4584              	.LVL540:
 4585              	.LBB1854:
 4586              	.LBB1855:
 4587              	.LBB1856:
 4588              	.LBB1857:
 4589              		.loc 2 461 0 discriminator 1
 4590 0fcc C207     		lsls	r2, r0, #31
 4591 0fce 4CBF     		ite	mi
 4592 0fd0 00F07C43 		andmi	r3, r0, #-67108864
 4593 0fd4 00F00C03 		andpl	r3, r0, #12
 4594              	.LVL541:
 4595              	.LBE1857:
 4596              	.LBE1856:
 4597              		.loc 2 561 0 discriminator 1
 4598 0fd8 082B     		cmp	r3, #8
 4599 0fda 00F0F781 		beq	.L233
 4600              		.loc 2 562 0
 4601 0fde 23F00802 		bic	r2, r3, #8
 4602 0fe2 042A     		cmp	r2, #4
 4603 0fe4 00F0F281 		beq	.L233
 4604              		.loc 2 564 0
 4605 0fe8 23F08052 		bic	r2, r3, #268435456
 4606 0fec B2F1005F 		cmp	r2, #536870912
 4607 0ff0 00F0C181 		beq	.L234
 4608              		.loc 2 565 0
 4609 0ff4 B3F1804F 		cmp	r3, #1073741824
 4610 0ff8 00F01482 		beq	.L235
 4611 0ffc 9024     		movs	r4, #144
 4612 0ffe FFF72FB9 		b	.L191
 4613              	.LVL542:
 4614              	.L514:
 4615              	.LBE1855:
 4616              	.LBE1854:
 4617              	.LBB1858:
ARM GAS  /tmp/ccMboyVS.s 			page 82


 4618              	.LBB1699:
 4619              	.LBB1689:
 4620              	.LBB1678:
 4621              		.loc 1 68 0
 4622 1002 8024     		movs	r4, #128
 4623              	.LVL543:
 4624 1004 FFF72CB9 		b	.L191
 4625              	.LVL544:
 4626              	.L967:
 4627              	.LBE1678:
 4628              	.LBE1689:
 4629              	.LBE1699:
 4630              	.LBE1858:
 4631              	.LBB1859:
 4632              		.loc 1 593 0 discriminator 1
 4633 1008 0068     		ldr	r0, [r0]
 4634              	.LVL545:
 4635 100a FFF7FEFF 		bl	lbm_car
 4636              	.LVL546:
 4637              		.loc 1 594 0 discriminator 1
 4638 100e 0368     		ldr	r3, [r0]
 4639 1010 042B     		cmp	r3, #4
 4640 1012 00F09681 		beq	.L276
 4641 1016 029C     		ldr	r4, [sp, #8]
 4642 1018 FFF722B9 		b	.L191
 4643              	.LVL547:
 4644              	.L230:
 4645              	.LBE1859:
 4646              		.loc 1 456 0
 4647 101c 4468     		ldr	r4, [r0, #4]
 4648 101e 1846     		mov	r0, r3
 4649              	.LVL548:
 4650 1020 FFF7FEFF 		bl	lbm_dec_as_u
 4651              	.LVL549:
 4652 1024 0146     		mov	r1, r0
 4653 1026 2046     		mov	r0, r4
 4654 1028 FFF7FEFF 		bl	index_list
 4655              	.LVL550:
 4656 102c 0446     		mov	r4, r0
 4657              	.LVL551:
 4658 102e FFF717B9 		b	.L191
 4659              	.LVL552:
 4660              	.L248:
 4661              	.LBB1860:
 4662              	.LBB1827:
 4663              		.loc 1 523 0
 4664 1032 2046     		mov	r0, r4
 4665 1034 FFF7FEFF 		bl	lbm_car
 4666              	.LVL553:
 4667 1038 FFF7FEFF 		bl	lbm_dec_as_u
 4668              	.LVL554:
 4669              		.loc 1 524 0
 4670 103c 0543     		orrs	r5, r5, r0
 4671              	.LVL555:
 4672              		.loc 1 526 0
 4673 103e 2046     		mov	r0, r4
 4674              	.LVL556:
ARM GAS  /tmp/ccMboyVS.s 			page 83


 4675 1040 FFF7FEFF 		bl	lbm_cdr
 4676              	.LVL557:
 4677              	.LBE1827:
 4678              	.LBB1828:
 4679              	.LBB1829:
 4680              		.loc 2 461 0
 4681 1044 C307     		lsls	r3, r0, #31
 4682              	.LBE1829:
 4683              	.LBE1828:
 4684              	.LBB1831:
 4685              		.loc 1 526 0
 4686 1046 0446     		mov	r4, r0
 4687              	.LVL558:
 4688              	.LBE1831:
 4689              	.LBB1832:
 4690              	.LBB1830:
 4691              		.loc 2 461 0
 4692 1048 7FF566AF 		bpl	.L249
 4693              	.LVL559:
 4694 104c 04F07C43 		and	r3, r4, #-67108864
 4695              	.LBE1830:
 4696              	.LBE1832:
 4697              		.loc 1 520 0
 4698 1050 B3F1805F 		cmp	r3, #268435456
 4699 1054 7FF460AF 		bne	.L249
 4700              		.loc 1 520 0 is_stmt 0 discriminator 1
 4701 1058 013E     		subs	r6, r6, #1
 4702              	.LVL560:
 4703 105a 3FF45DAF 		beq	.L249
 4704              		.loc 1 521 0 is_stmt 1 discriminator 1
 4705 105e 2D02     		lsls	r5, r5, #8
 4706              	.LVL561:
 4707 1060 3FE7     		b	.L245
 4708              	.LVL562:
 4709              	.L239:
 4710              	.LBE1860:
 4711              	.LBB1861:
 4712              	.LBB1847:
 4713              		.loc 1 503 0
 4714 1062 2046     		mov	r0, r4
 4715 1064 FFF7FEFF 		bl	lbm_car
 4716              	.LVL563:
 4717 1068 FFF7FEFF 		bl	lbm_dec_as_u
 4718              	.LVL564:
 4719              		.loc 1 504 0
 4720 106c 0543     		orrs	r5, r5, r0
 4721              	.LVL565:
 4722              		.loc 1 506 0
 4723 106e 2046     		mov	r0, r4
 4724              	.LVL566:
 4725 1070 FFF7FEFF 		bl	lbm_cdr
 4726              	.LVL567:
 4727              	.LBE1847:
 4728              	.LBB1848:
 4729              	.LBB1849:
 4730              		.loc 2 461 0
 4731 1074 C207     		lsls	r2, r0, #31
ARM GAS  /tmp/ccMboyVS.s 			page 84


 4732              	.LBE1849:
 4733              	.LBE1848:
 4734              	.LBB1851:
 4735              		.loc 1 506 0
 4736 1076 0446     		mov	r4, r0
 4737              	.LVL568:
 4738              	.LBE1851:
 4739              	.LBB1852:
 4740              	.LBB1850:
 4741              		.loc 2 461 0
 4742 1078 8AD5     		bpl	.L240
 4743              	.LVL569:
 4744 107a 04F07C43 		and	r3, r4, #-67108864
 4745              	.LBE1850:
 4746              	.LBE1852:
 4747              		.loc 1 500 0
 4748 107e B3F1805F 		cmp	r3, #268435456
 4749 1082 85D1     		bne	.L240
 4750              		.loc 1 500 0 is_stmt 0 discriminator 1
 4751 1084 013E     		subs	r6, r6, #1
 4752              	.LVL570:
 4753 1086 83D0     		beq	.L240
 4754              		.loc 1 501 0 is_stmt 1 discriminator 1
 4755 1088 2D02     		lsls	r5, r5, #8
 4756              	.LVL571:
 4757 108a 6AE7     		b	.L236
 4758              	.LVL572:
 4759              	.L257:
 4760              	.LBE1861:
 4761              	.LBB1862:
 4762              	.LBB1803:
 4763              		.loc 1 544 0
 4764 108c 2046     		mov	r0, r4
 4765 108e FFF7FEFF 		bl	lbm_car
 4766              	.LVL573:
 4767 1092 FFF7FEFF 		bl	lbm_dec_as_u
 4768              	.LVL574:
 4769              		.loc 1 545 0
 4770 1096 0543     		orrs	r5, r5, r0
 4771              	.LVL575:
 4772              		.loc 1 547 0
 4773 1098 2046     		mov	r0, r4
 4774              	.LVL576:
 4775 109a FFF7FEFF 		bl	lbm_cdr
 4776              	.LVL577:
 4777              	.LBE1803:
 4778              	.LBB1804:
 4779              	.LBB1805:
 4780              		.loc 2 461 0
 4781 109e C707     		lsls	r7, r0, #31
 4782              	.LBE1805:
 4783              	.LBE1804:
 4784              	.LBB1807:
 4785              		.loc 1 547 0
 4786 10a0 0446     		mov	r4, r0
 4787              	.LVL578:
 4788              	.LBE1807:
ARM GAS  /tmp/ccMboyVS.s 			page 85


 4789              	.LBB1808:
 4790              	.LBB1806:
 4791              		.loc 2 461 0
 4792 10a2 7FF5DDAE 		bpl	.L258
 4793              	.LVL579:
 4794 10a6 04F07C43 		and	r3, r4, #-67108864
 4795              	.LBE1806:
 4796              	.LBE1808:
 4797              		.loc 1 541 0
 4798 10aa B3F1805F 		cmp	r3, #268435456
 4799 10ae 7FF4D7AE 		bne	.L258
 4800              		.loc 1 541 0 is_stmt 0 discriminator 1
 4801 10b2 013E     		subs	r6, r6, #1
 4802              	.LVL580:
 4803 10b4 3FF4D4AE 		beq	.L258
 4804              	.LVL581:
 4805              		.loc 1 542 0 is_stmt 1 discriminator 1
 4806 10b8 2D02     		lsls	r5, r5, #8
 4807              	.LVL582:
 4808 10ba B6E6     		b	.L254
 4809              	.LVL583:
 4810              	.L428:
 4811              	.LBE1862:
 4812              	.LBB1863:
 4813              	.LBB1185:
 4814              	.LBB1181:
 4815              	.LBB1172:
 4816              	.LBB1163:
 4817              	.LBB1158:
 4818              		.loc 2 565 0
 4819 10bc 0C2B     		cmp	r3, #12
 4820 10be 02D0     		beq	.L434
 4821              		.loc 2 561 0
 4822 10c0 082B     		cmp	r3, #8
 4823 10c2 7FF4FCAB 		bne	.L481
 4824              	.LVL584:
 4825              	.L434:
 4826              	.LBE1158:
 4827              	.LBE1163:
 4828              		.loc 1 263 0
 4829 10c6 4046     		mov	r0, r8
 4830              	.LVL585:
 4831 10c8 0192     		str	r2, [sp, #4]
 4832 10ca FFF7FEFF 		bl	lbm_dec_as_u
 4833              	.LVL586:
 4834 10ce 019A     		ldr	r2, [sp, #4]
 4835 10d0 8346     		mov	fp, r0
 4836 10d2 1046     		mov	r0, r2
 4837 10d4 FFF7FEFF 		bl	lbm_dec_as_u
 4838              	.LVL587:
 4839              	.LBB1164:
 4840              	.LBB1165:
 4841              		.loc 1 240 0
 4842 10d8 8345     		cmp	fp, r0
 4843 10da 2CBF     		ite	cs
 4844 10dc 0023     		movcs	r3, #0
 4845 10de 0123     		movcc	r3, #1
ARM GAS  /tmp/ccMboyVS.s 			page 86


 4846 10e0 8345     		cmp	fp, r0
 4847 10e2 94BF     		ite	ls
 4848 10e4 5842     		rsbls	r0, r3, #0
 4849 10e6 C3F10100 		rsbhi	r0, r3, #1
 4850              	.LVL588:
 4851 10ea FFF7DEBB 		b	.L430
 4852              	.LVL589:
 4853              	.L427:
 4854              	.LBE1165:
 4855              	.LBE1164:
 4856              	.LBB1166:
 4857              	.LBB1159:
 4858              		.loc 2 565 0
 4859 10ee 0C2B     		cmp	r3, #12
 4860 10f0 3FF4FDAB 		beq	.L435
 4861              		.loc 2 561 0
 4862 10f4 082B     		cmp	r3, #8
 4863 10f6 7FF4E2AB 		bne	.L481
 4864 10fa FFF7F8BB 		b	.L435
 4865              	.LVL590:
 4866              	.L360:
 4867              	.LBE1159:
 4868              	.LBE1166:
 4869              	.LBE1172:
 4870              	.LBE1181:
 4871              	.LBE1185:
 4872              	.LBE1863:
 4873              	.LBB1864:
 4874              	.LBB1475:
 4875              	.LBB1464:
 4876              	.LBB1452:
 4877              	.LBB1440:
 4878              	.LBB1412:
 4879              		.loc 2 494 0
 4880 10fe 10F00C0F 		tst	r0, #12
 4881 1102 3FF4ADA8 		beq	.L191
 4882 1106 79E5     		b	.L361
 4883              	.LVL591:
 4884              	.L307:
 4885              	.LBE1412:
 4886              	.LBE1440:
 4887              	.LBE1452:
 4888              	.LBE1464:
 4889              	.LBE1475:
 4890              	.LBE1864:
 4891              	.LBB1865:
 4892              	.LBB1383:
 4893              	.LBB1372:
 4894              	.LBB1360:
 4895              	.LBB1347:
 4896              	.LBB1305:
 4897              		.loc 2 508 0
 4898 1108 10F00C0F 		tst	r0, #12
 4899 110c 3FF4A8A8 		beq	.L191
 4900 1110 5FE4     		b	.L308
 4901              	.LVL592:
 4902              	.L356:
ARM GAS  /tmp/ccMboyVS.s 			page 87


 4903              	.LBE1305:
 4904              	.LBE1347:
 4905              	.LBE1360:
 4906              	.LBE1372:
 4907              	.LBE1383:
 4908              	.LBE1865:
 4909              	.LBB1866:
 4910              	.LBB1476:
 4911              	.LBB1465:
 4912              	.LBB1453:
 4913              	.LBB1441:
 4914              	.LBB1439:
 4915              		.loc 2 500 0
 4916 1112 14F00C0F 		tst	r4, #12
 4917 1116 3FF4A3A8 		beq	.L191
 4918 111a ABE5     		b	.L358
 4919              	.LVL593:
 4920              	.L378:
 4921              	.LBE1439:
 4922              	.LBE1441:
 4923              	.LBE1453:
 4924              	.LBE1465:
 4925              	.LBE1476:
 4926              	.LBE1866:
 4927              	.LBB1867:
 4928              	.LBB1700:
 4929              	.LBB1690:
 4930              	.LBB1679:
 4931              		.loc 1 78 0
 4932 111c 3846     		mov	r0, r7
 4933 111e FFF7FEFF 		bl	lbm_dec_as_u
 4934              	.LVL594:
 4935 1122 0028     		cmp	r0, #0
 4936 1124 3FF4ECAC 		beq	.L377
 4937 1128 2046     		mov	r0, r4
 4938 112a FFF7FEFF 		bl	lbm_dec_as_u
 4939              	.LVL595:
 4940 112e 0446     		mov	r4, r0
 4941              	.LVL596:
 4942 1130 3846     		mov	r0, r7
 4943 1132 FFF7FEFF 		bl	lbm_dec_as_u
 4944              	.LVL597:
 4945              	.LBB1659:
 4946              	.LBB1660:
 4947              		.loc 2 499 0
 4948 1136 4FF40871 		mov	r1, #544
 4949 113a B4FBF0F0 		udiv	r0, r4, r0
 4950              	.LVL598:
 4951 113e FFF7FEFF 		bl	lbm_cons
 4952              	.LVL599:
 4953 1142 0446     		mov	r4, r0
 4954              	.LVL600:
 4955              	.LBB1661:
 4956              	.LBB1662:
 4957              		.loc 2 461 0
 4958 1144 E007     		lsls	r0, r4, #31
 4959              	.LVL601:
ARM GAS  /tmp/ccMboyVS.s 			page 88


 4960 1146 40F10E81 		bpl	.L379
 4961              	.LVL602:
 4962              	.LBE1662:
 4963              	.LBE1661:
 4964              		.loc 2 500 0
 4965 114a 14F07C43 		ands	r3, r4, #-67108864
 4966 114e 3FF491AB 		beq	.L388
 4967              	.L381:
 4968              	.LVL603:
 4969              	.LBB1663:
 4970              	.LBB1664:
 4971              		.loc 2 477 0
 4972 1152 2C40     		ands	r4, r4, r5
 4973              	.LVL604:
 4974 1154 44F00054 		orr	r4, r4, #536870912
 4975 1158 44F00104 		orr	r4, r4, #1
 4976              	.LVL605:
 4977 115c 04F07C43 		and	r3, r4, #-67108864
 4978 1160 FFF788BB 		b	.L388
 4979              	.LVL606:
 4980              	.L376:
 4981              	.LBE1664:
 4982              	.LBE1663:
 4983              	.LBE1660:
 4984              	.LBE1659:
 4985              		.loc 1 77 0
 4986 1164 3846     		mov	r0, r7
 4987 1166 FFF7FEFF 		bl	lbm_dec_as_u
 4988              	.LVL607:
 4989 116a 0028     		cmp	r0, #0
 4990 116c 3FF4C8AC 		beq	.L377
 4991 1170 2046     		mov	r0, r4
 4992 1172 FFF7FEFF 		bl	lbm_dec_as_u
 4993              	.LVL608:
 4994 1176 0446     		mov	r4, r0
 4995              	.LVL609:
 4996 1178 3846     		mov	r0, r7
 4997 117a FFF7FEFF 		bl	lbm_dec_as_u
 4998              	.LVL610:
 4999 117e B4FBF0F4 		udiv	r4, r4, r0
 5000              	.LVL611:
 5001              	.LBB1666:
 5002              	.LBB1667:
 5003              		.loc 2 489 0
 5004 1182 2401     		lsls	r4, r4, #4
 5005              	.LVL612:
 5006 1184 44F00804 		orr	r4, r4, #8
 5007              	.LVL613:
 5008 1188 FFF772BB 		b	.L375
 5009              	.LVL614:
 5010              	.L363:
 5011              	.LBE1667:
 5012              	.LBE1666:
 5013              	.LBE1679:
 5014              	.LBE1690:
 5015              	.LBE1700:
 5016              	.LBE1867:
ARM GAS  /tmp/ccMboyVS.s 			page 89


 5017              	.LBB1868:
 5018              	.LBB1477:
 5019              	.LBB1466:
 5020              	.LBB1454:
 5021              	.LBB1442:
 5022              	.LBB1400:
 5023              		.loc 2 508 0
 5024 118c 10F00C0F 		tst	r0, #12
 5025 1190 3FF466A8 		beq	.L191
 5026 1194 43E4     		b	.L364
 5027              	.LVL615:
 5028              	.L382:
 5029              	.LBE1400:
 5030              	.LBE1442:
 5031              	.LBE1454:
 5032              	.LBE1466:
 5033              	.LBE1477:
 5034              	.LBE1868:
 5035              	.LBB1869:
 5036              	.LBB1701:
 5037              	.LBB1691:
 5038              	.LBB1680:
 5039              		.loc 1 79 0
 5040 1196 3846     		mov	r0, r7
 5041 1198 FFF7FEFF 		bl	lbm_dec_as_i
 5042              	.LVL616:
 5043 119c 0028     		cmp	r0, #0
 5044 119e 3FF4AFAC 		beq	.L377
 5045 11a2 2046     		mov	r0, r4
 5046 11a4 FFF7FEFF 		bl	lbm_dec_as_i
 5047              	.LVL617:
 5048 11a8 0446     		mov	r4, r0
 5049              	.LVL618:
 5050 11aa 3846     		mov	r0, r7
 5051 11ac FFF7FEFF 		bl	lbm_dec_as_i
 5052              	.LVL619:
 5053              	.LBB1668:
 5054              	.LBB1638:
 5055              		.loc 2 493 0
 5056 11b0 4FF40471 		mov	r1, #528
 5057 11b4 94FBF0F0 		sdiv	r0, r4, r0
 5058              	.LVL620:
 5059 11b8 FFF7FEFF 		bl	lbm_cons
 5060              	.LVL621:
 5061              	.LBB1633:
 5062              	.LBB1634:
 5063              		.loc 2 461 0
 5064 11bc C107     		lsls	r1, r0, #31
 5065              	.LBE1634:
 5066              	.LBE1633:
 5067              		.loc 2 493 0
 5068 11be 0446     		mov	r4, r0
 5069              	.LVL622:
 5070              	.LBB1636:
 5071              	.LBB1635:
 5072              		.loc 2 461 0
 5073 11c0 40F1CC80 		bpl	.L383
ARM GAS  /tmp/ccMboyVS.s 			page 90


 5074              	.LVL623:
 5075              	.LBE1635:
 5076              	.LBE1636:
 5077              		.loc 2 494 0
 5078 11c4 10F07C43 		ands	r3, r0, #-67108864
 5079 11c8 3FF454AB 		beq	.L388
 5080              	.L384:
 5081              	.LVL624:
 5082              	.LBB1637:
 5083              	.LBB1632:
 5084              		.loc 2 477 0
 5085 11cc 2C40     		ands	r4, r4, r5
 5086 11ce 44EA0B04 		orr	r4, r4, fp
 5087              	.LVL625:
 5088 11d2 04F07C43 		and	r3, r4, #-67108864
 5089 11d6 FFF74DBB 		b	.L388
 5090              	.LVL626:
 5091              	.L304:
 5092              	.LBE1632:
 5093              	.LBE1637:
 5094              	.LBE1638:
 5095              	.LBE1668:
 5096              	.LBE1680:
 5097              	.LBE1691:
 5098              	.LBE1701:
 5099              	.LBE1869:
 5100              	.LBB1870:
 5101              	.LBB1384:
 5102              	.LBB1373:
 5103              	.LBB1361:
 5104              	.LBB1348:
 5105              	.LBB1317:
 5106              		.loc 2 494 0
 5107 11da 10F00C0F 		tst	r0, #12
 5108 11de 3FF43FA8 		beq	.L191
 5109 11e2 E3E4     		b	.L305
 5110              	.LVL627:
 5111              	.L300:
 5112              	.LBE1317:
 5113              	.LBE1348:
 5114              	.LBB1349:
 5115              	.LBB1343:
 5116              		.loc 2 500 0
 5117 11e4 10F00C0F 		tst	r0, #12
 5118 11e8 3FF43AA8 		beq	.L191
 5119 11ec A2E4     		b	.L302
 5120              	.LVL628:
 5121              	.L476:
 5122              	.LBE1343:
 5123              	.LBE1349:
 5124              	.LBE1361:
 5125              	.LBE1373:
 5126              	.LBE1384:
 5127              	.LBE1870:
 5128              	.LBB1871:
 5129              	.LBB1186:
 5130              	.LBB1182:
ARM GAS  /tmp/ccMboyVS.s 			page 91


 5131              	.LBB1173:
 5132              		.loc 1 260 0
 5133 11ee B3F1405F 		cmp	r3, #805306368
 5134 11f2 3FF47CAB 		beq	.L435
 5135 11f6 B3F1804F 		cmp	r3, #1073741824
 5136 11fa 7FF455AB 		bne	.L516
 5137              	.L436:
 5138              	.LVL629:
 5139              		.loc 1 265 0
 5140 11fe 4046     		mov	r0, r8
 5141              	.LVL630:
 5142 1200 0192     		str	r2, [sp, #4]
 5143 1202 FFF7FEFF 		bl	lbm_dec_as_f
 5144              	.LVL631:
 5145 1206 019A     		ldr	r2, [sp, #4]
 5146 1208 1046     		mov	r0, r2
 5147 120a B0EE408A 		vmov.f32	s16, s0
 5148 120e FFF7FEFF 		bl	lbm_dec_as_f
 5149              	.LVL632:
 5150              	.LBB1167:
 5151              	.LBB1168:
 5152              		.loc 1 245 0
 5153 1212 B4EEC08A 		vcmpe.f32	s16, s0
 5154 1216 F1EE10FA 		vmrs	APSR_nzcv, FPSCR
 5155 121a CCBF     		ite	gt
 5156 121c 0120     		movgt	r0, #1
 5157 121e 0020     		movle	r0, #0
 5158 1220 4CBF     		ite	mi
 5159 1222 0123     		movmi	r3, #1
 5160 1224 0023     		movpl	r3, #0
 5161 1226 C01A     		subs	r0, r0, r3
 5162              	.LVL633:
 5163 1228 FFF73FBB 		b	.L430
 5164              	.LVL634:
 5165              	.L965:
 5166              	.LBE1168:
 5167              	.LBE1167:
 5168              	.LBE1173:
 5169              	.LBE1182:
 5170              	.LBE1186:
 5171              	.LBE1871:
 5172              	.LBB1872:
 5173              	.LBB1572:
 5174              	.LBB1573:
 5175              	.LBB1574:
 5176              	.LBB1575:
 5177              		.loc 2 461 0
 5178 122c E507     		lsls	r5, r4, #31
 5179 122e 4CBF     		ite	mi
 5180 1230 04F07C43 		andmi	r3, r4, #-67108864
 5181 1234 04F00C03 		andpl	r3, r4, #12
 5182              	.LVL635:
 5183              	.LBE1575:
 5184              	.LBE1574:
 5185              		.loc 1 111 0
 5186 1238 042B     		cmp	r3, #4
 5187 123a 40F29980 		bls	.L504
ARM GAS  /tmp/ccMboyVS.s 			page 92


 5188              		.loc 1 112 0
 5189 123e B3F1005F 		cmp	r3, #536870912
 5190 1242 00F0A081 		beq	.L315
 5191 1246 00F21881 		bhi	.L316
 5192 124a 082B     		cmp	r3, #8
 5193 124c 00F0B781 		beq	.L317
 5194 1250 0C2B     		cmp	r3, #12
 5195 1252 40F0BB81 		bne	.L505
 5196              	.LVL636:
 5197              		.loc 1 115 0
 5198 1256 24F00F04 		bic	r4, r4, #15
 5199              	.LVL637:
 5200              	.LBB1576:
 5201              	.LBB1577:
 5202              		.loc 2 485 0
 5203 125a 6442     		negs	r4, r4
 5204 125c 44F00C04 		orr	r4, r4, #12
 5205              	.LVL638:
 5206 1260 FEF7FEBF 		b	.L191
 5207              	.LVL639:
 5208              	.L340:
 5209              	.LBE1577:
 5210              	.LBE1576:
 5211              	.LBE1573:
 5212              	.LBE1572:
 5213              	.LBB1607:
 5214              	.LBB1563:
 5215              	.LBB1553:
 5216              	.LBB1542:
 5217              	.LBB1514:
 5218              		.loc 2 494 0
 5219 1264 10F00C0F 		tst	r0, #12
 5220 1268 3EF4FAAF 		beq	.L191
 5221 126c 53E5     		b	.L341
 5222              	.LVL640:
 5223              	.L969:
 5224              	.LBE1514:
 5225              	.LBE1542:
 5226              	.LBE1553:
 5227              	.LBE1563:
 5228              	.LBE1607:
 5229              	.LBE1872:
 5230              		.loc 1 623 0
 5231 126e D0E90001 		ldrd	r0, r1, [r0]
 5232              	.LVL641:
 5233 1272 FFF7FEFF 		bl	lbm_set_car
 5234              	.LVL642:
 5235 1276 0028     		cmp	r0, #0
 5236 1278 3FF49EA9 		beq	.L263
 5237 127c FFF7B2B8 		b	.L267
 5238              	.LVL643:
 5239              	.L343:
 5240              	.LBB1873:
 5241              	.LBB1608:
 5242              	.LBB1564:
 5243              	.LBB1554:
 5244              	.LBB1543:
ARM GAS  /tmp/ccMboyVS.s 			page 93


 5245              	.LBB1502:
 5246              		.loc 2 508 0
 5247 1280 10F00C0F 		tst	r0, #12
 5248 1284 3EF4ECAF 		beq	.L191
 5249 1288 FFF7EEBB 		b	.L344
 5250              	.LVL644:
 5251              	.L336:
 5252              	.LBE1502:
 5253              	.LBE1543:
 5254              	.LBB1544:
 5255              	.LBB1541:
 5256              		.loc 2 500 0
 5257 128c 14F00C0F 		tst	r4, #12
 5258 1290 3EF4E6AF 		beq	.L191
 5259 1294 66E5     		b	.L338
 5260              	.LVL645:
 5261              	.L968:
 5262              	.LBE1541:
 5263              	.LBE1544:
 5264              	.LBE1554:
 5265              	.LBE1564:
 5266              	.LBE1608:
 5267              	.LBE1873:
 5268              		.loc 1 632 0
 5269 1296 D0E90001 		ldrd	r0, r1, [r0]
 5270              	.LVL646:
 5271 129a FFF7FEFF 		bl	lbm_set_cdr
 5272              	.LVL647:
 5273 129e 0028     		cmp	r0, #0
 5274 12a0 7FF4A0A8 		bne	.L267
 5275 12a4 FFF788B9 		b	.L263
 5276              	.LVL648:
 5277              	.L974:
 5278              	.LBB1874:
 5279              		.loc 1 571 0
 5280 12a8 0009     		lsrs	r0, r0, #4
 5281              	.LVL649:
 5282 12aa FFF7FEFF 		bl	lbm_get_name_by_symbol
 5283              	.LVL650:
 5284              		.loc 1 572 0
 5285 12ae 0546     		mov	r5, r0
 5286 12b0 0028     		cmp	r0, #0
 5287 12b2 3FF465A9 		beq	.L268
 5288              		.loc 1 573 0
 5289 12b6 FFF7FEFF 		bl	strlen
 5290              	.LVL651:
 5291              		.loc 1 576 0
 5292 12ba 471C     		adds	r7, r0, #1
 5293              		.loc 1 573 0
 5294 12bc 0646     		mov	r6, r0
 5295              	.LVL652:
 5296              		.loc 1 576 0
 5297 12be 3946     		mov	r1, r7
 5298 12c0 0422     		movs	r2, #4
 5299 12c2 03A8     		add	r0, sp, #12
 5300              	.LVL653:
 5301 12c4 FFF7FEFF 		bl	lbm_heap_allocate_array
ARM GAS  /tmp/ccMboyVS.s 			page 94


 5302              	.LVL654:
 5303 12c8 0028     		cmp	r0, #0
 5304 12ca 40F00F81 		bne	.L271
 5305              	.L273:
 5306              		.loc 1 583 0
 5307 12ce A024     		movs	r4, #160
 5308 12d0 FEF7C6BF 		b	.L191
 5309              	.LVL655:
 5310              	.L446:
 5311              	.LBE1874:
 5312              		.loc 1 823 0
 5313 12d4 B3F1405F 		cmp	r3, #805306368
 5314 12d8 00F02B81 		beq	.L452
 5315 12dc 40F2FF80 		bls	.L986
 5316 12e0 B3F1804F 		cmp	r3, #1073741824
 5317 12e4 00F02981 		beq	.L455
 5318 12e8 B3F1504F 		cmp	r3, #-805306368
 5319 12ec 40F01A81 		bne	.L444
 5320              		.loc 1 827 0
 5321 12f0 4FF4AC64 		mov	r4, #1376
 5322 12f4 FEF7B4BF 		b	.L191
 5323              	.LVL656:
 5324              	.L493:
 5325              	.LBB1875:
 5326              	.LBB1791:
 5327              		.loc 2 461 0
 5328 12f8 9024     		movs	r4, #144
 5329              	.LVL657:
 5330 12fa FEF7B1BF 		b	.L191
 5331              	.LVL658:
 5332              	.L487:
 5333              	.LBE1791:
 5334              	.LBE1875:
 5335              	.LBB1876:
 5336              	.LBB1835:
 5337 12fe 9024     		movs	r4, #144
 5338              	.LVL659:
 5339 1300 FEF7AEBF 		b	.L191
 5340              	.LVL660:
 5341              	.L490:
 5342              	.LBE1835:
 5343              	.LBE1876:
 5344              	.LBB1877:
 5345              	.LBB1815:
 5346 1304 9024     		movs	r4, #144
 5347              	.LVL661:
 5348 1306 FEF7ABBF 		b	.L191
 5349              	.LVL662:
 5350              	.L407:
 5351              	.LBE1815:
 5352              	.LBE1877:
 5353              	.LBB1878:
 5354              	.LBB1288:
 5355              	.LBB1276:
 5356              	.LBB1263:
 5357              	.LBB1249:
 5358              	.LBB1216:
ARM GAS  /tmp/ccMboyVS.s 			page 95


 5359              		.loc 2 494 0
 5360 130a 10F00C0F 		tst	r0, #12
 5361 130e 7FF435AC 		bne	.L408
 5362 1312 FEF7A5BF 		b	.L191
 5363              	.LVL663:
 5364              	.L402:
 5365              	.LBE1216:
 5366              	.LBE1249:
 5367              	.LBB1250:
 5368              	.LBB1247:
 5369              		.loc 2 500 0
 5370 1316 14F00C0F 		tst	r4, #12
 5371 131a 7FF4D0AC 		bne	.L404
 5372 131e FEF79FBF 		b	.L191
 5373              	.LVL664:
 5374              	.L429:
 5375              	.LBE1247:
 5376              	.LBE1250:
 5377              	.LBE1263:
 5378              	.LBE1276:
 5379              	.LBE1288:
 5380              	.LBE1878:
 5381              	.LBB1879:
 5382              	.LBB1187:
 5383              	.LBB1183:
 5384              	.LBB1174:
 5385              	.LBB1169:
 5386              	.LBB1160:
 5387              		.loc 2 565 0
 5388 1322 0C2B     		cmp	r3, #12
 5389 1324 3FF46BAF 		beq	.L436
 5390              		.loc 2 561 0
 5391 1328 082B     		cmp	r3, #8
 5392 132a 7FF4C8AA 		bne	.L481
 5393 132e 66E7     		b	.L436
 5394              	.LVL665:
 5395              	.L500:
 5396              	.LBE1160:
 5397              	.LBE1169:
 5398              	.LBE1174:
 5399              	.LBE1183:
 5400              	.LBE1187:
 5401              	.LBE1879:
 5402              	.LBB1880:
 5403              		.loc 1 655 0
 5404 1330 0C46     		mov	r4, r1
 5405 1332 FEF795BF 		b	.L191
 5406              	.LVL666:
 5407              	.L410:
 5408              	.LBE1880:
 5409              	.LBB1881:
 5410              	.LBB1289:
 5411              	.LBB1277:
 5412              	.LBB1264:
 5413              	.LBB1251:
 5414              	.LBB1203:
 5415              		.loc 2 508 0
ARM GAS  /tmp/ccMboyVS.s 			page 96


 5416 1336 10F00C0F 		tst	r0, #12
 5417 133a 7FF424AB 		bne	.L411
 5418 133e FEF78FBF 		b	.L191
 5419              	.LVL667:
 5420              	.L276:
 5421              	.LBE1203:
 5422              	.LBE1251:
 5423              	.LBE1264:
 5424              	.LBE1277:
 5425              	.LBE1289:
 5426              	.LBE1881:
 5427              	.LBB1882:
 5428              		.loc 1 596 0
 5429 1342 00F10804 		add	r4, r0, #8
 5430              	.LVL668:
 5431              		.loc 1 598 0
 5432 1346 2046     		mov	r0, r4
 5433              	.LVL669:
 5434 1348 03A9     		add	r1, sp, #12
 5435 134a FFF7FEFF 		bl	lbm_get_symbol_by_name
 5436              	.LVL670:
 5437 134e 0028     		cmp	r0, #0
 5438 1350 00F03F81 		beq	.L277
 5439              	.LVL671:
 5440              	.LBB1710:
 5441              	.LBB1711:
 5442              		.loc 2 481 0
 5443 1354 039C     		ldr	r4, [sp, #12]
 5444              	.LVL672:
 5445 1356 2401     		lsls	r4, r4, #4
 5446              	.LVL673:
 5447              	.LBE1711:
 5448              	.LBE1710:
 5449 1358 FEF782BF 		b	.L191
 5450              	.LVL674:
 5451              	.L383:
 5452              	.LBE1882:
 5453              	.LBB1883:
 5454              	.LBB1702:
 5455              	.LBB1692:
 5456              	.LBB1681:
 5457              	.LBB1669:
 5458              	.LBB1639:
 5459              		.loc 2 494 0
 5460 135c 10F00C0F 		tst	r0, #12
 5461 1360 3EF47EAF 		beq	.L191
 5462 1364 32E7     		b	.L384
 5463              	.LVL675:
 5464              	.L379:
 5465              	.LBE1639:
 5466              	.LBE1669:
 5467              	.LBB1670:
 5468              	.LBB1665:
 5469              		.loc 2 500 0
 5470 1366 14F00C0F 		tst	r4, #12
 5471 136a 3EF479AF 		beq	.L191
 5472 136e F0E6     		b	.L381
ARM GAS  /tmp/ccMboyVS.s 			page 97


 5473              	.LVL676:
 5474              	.L504:
 5475              	.LBE1665:
 5476              	.LBE1670:
 5477              	.LBE1681:
 5478              	.LBE1692:
 5479              	.LBE1702:
 5480              	.LBE1883:
 5481              	.LBB1884:
 5482              	.LBB1609:
 5483              	.LBB1604:
 5484              		.loc 1 106 0
 5485 1370 8024     		movs	r4, #128
 5486              	.LVL677:
 5487 1372 FEF775BF 		b	.L191
 5488              	.LVL678:
 5489              	.L234:
 5490              	.LBE1604:
 5491              	.LBE1609:
 5492              	.LBE1884:
 5493              	.LBB1885:
 5494              		.loc 1 486 0
 5495 1376 FFF7FEFF 		bl	lbm_dec_as_u
 5496              	.LVL679:
 5497 137a 0446     		mov	r4, r0
 5498              	.LVL680:
 5499              	.LBB1886:
 5500              	.LBB1887:
 5501              		.loc 2 489 0
 5502 137c 0001     		lsls	r0, r0, #4
 5503              	.LVL681:
 5504 137e 00F47F60 		and	r0, r0, #4080
 5505              	.LBE1887:
 5506              	.LBE1886:
 5507              		.loc 1 487 0
 5508 1382 0021     		movs	r1, #0
 5509 1384 40F00800 		orr	r0, r0, #8
 5510 1388 FFF7FEFF 		bl	lbm_cons
 5511              	.LVL682:
 5512 138c 0346     		mov	r3, r0
 5513              	.LBB1888:
 5514              	.LBB1889:
 5515              		.loc 2 489 0
 5516 138e 2009     		lsrs	r0, r4, #4
 5517 1390 00F47F60 		and	r0, r0, #4080
 5518              	.LBE1889:
 5519              	.LBE1888:
 5520              		.loc 1 488 0
 5521 1394 1946     		mov	r1, r3
 5522 1396 40F00800 		orr	r0, r0, #8
 5523              		.loc 1 487 0
 5524 139a 0293     		str	r3, [sp, #8]
 5525              		.loc 1 488 0
 5526 139c FFF7FEFF 		bl	lbm_cons
 5527              	.LVL683:
 5528 13a0 0346     		mov	r3, r0
 5529              	.LBB1890:
ARM GAS  /tmp/ccMboyVS.s 			page 98


 5530              	.LBB1891:
 5531              		.loc 2 489 0
 5532 13a2 200B     		lsrs	r0, r4, #12
 5533 13a4 00F47F60 		and	r0, r0, #4080
 5534              	.LBE1891:
 5535              	.LBE1890:
 5536              		.loc 1 489 0
 5537 13a8 1946     		mov	r1, r3
 5538 13aa 40F00800 		orr	r0, r0, #8
 5539              		.loc 1 488 0
 5540 13ae 0293     		str	r3, [sp, #8]
 5541              		.loc 1 489 0
 5542 13b0 FFF7FEFF 		bl	lbm_cons
 5543              	.LVL684:
 5544 13b4 0346     		mov	r3, r0
 5545              		.loc 1 490 0
 5546 13b6 200E     		lsrs	r0, r4, #24
 5547              	.LBB1892:
 5548              	.LBB1893:
 5549              		.loc 2 489 0
 5550 13b8 0001     		lsls	r0, r0, #4
 5551              	.LBE1893:
 5552              	.LBE1892:
 5553              		.loc 1 490 0
 5554 13ba 40F00800 		orr	r0, r0, #8
 5555 13be 1946     		mov	r1, r3
 5556              		.loc 1 489 0
 5557 13c0 0293     		str	r3, [sp, #8]
 5558              		.loc 1 490 0
 5559 13c2 FFF7FEFF 		bl	lbm_cons
 5560              	.LVL685:
 5561 13c6 0446     		mov	r4, r0
 5562              	.LVL686:
 5563              	.LBE1885:
 5564              		.loc 1 491 0
 5565 13c8 FEF74ABF 		b	.L191
 5566              	.LVL687:
 5567              	.L233:
 5568              	.LBB1894:
 5569              		.loc 1 468 0
 5570 13cc FFF7FEFF 		bl	lbm_dec_as_u
 5571              	.LVL688:
 5572 13d0 0446     		mov	r4, r0
 5573              	.LVL689:
 5574              	.LBB1895:
 5575              	.LBB1896:
 5576              		.loc 2 489 0
 5577 13d2 0001     		lsls	r0, r0, #4
 5578              	.LVL690:
 5579 13d4 00F47F60 		and	r0, r0, #4080
 5580              	.LBE1896:
 5581              	.LBE1895:
 5582              		.loc 1 469 0
 5583 13d8 0021     		movs	r1, #0
 5584 13da 40F00800 		orr	r0, r0, #8
 5585 13de FFF7FEFF 		bl	lbm_cons
 5586              	.LVL691:
ARM GAS  /tmp/ccMboyVS.s 			page 99


 5587 13e2 0346     		mov	r3, r0
 5588              	.LBB1897:
 5589              	.LBB1898:
 5590              		.loc 2 489 0
 5591 13e4 2009     		lsrs	r0, r4, #4
 5592 13e6 00F47F60 		and	r0, r0, #4080
 5593              	.LBE1898:
 5594              	.LBE1897:
 5595              		.loc 1 470 0
 5596 13ea 1946     		mov	r1, r3
 5597 13ec 40F00800 		orr	r0, r0, #8
 5598              		.loc 1 469 0
 5599 13f0 0293     		str	r3, [sp, #8]
 5600              		.loc 1 470 0
 5601 13f2 FFF7FEFF 		bl	lbm_cons
 5602              	.LVL692:
 5603 13f6 0346     		mov	r3, r0
 5604              	.LBB1899:
 5605              	.LBB1900:
 5606              		.loc 2 489 0
 5607 13f8 200B     		lsrs	r0, r4, #12
 5608 13fa 00F47F60 		and	r0, r0, #4080
 5609              	.LBE1900:
 5610              	.LBE1899:
 5611              		.loc 1 471 0
 5612 13fe 1946     		mov	r1, r3
 5613 1400 40F00800 		orr	r0, r0, #8
 5614              		.loc 1 470 0
 5615 1404 0293     		str	r3, [sp, #8]
 5616              		.loc 1 471 0
 5617 1406 FFF7FEFF 		bl	lbm_cons
 5618              	.LVL693:
 5619 140a 0346     		mov	r3, r0
 5620              	.LBB1901:
 5621              	.LBB1902:
 5622              		.loc 2 489 0
 5623 140c 200D     		lsrs	r0, r4, #20
 5624 140e 00F0F000 		and	r0, r0, #240
 5625              	.LBE1902:
 5626              	.LBE1901:
 5627              		.loc 1 472 0
 5628 1412 40F00800 		orr	r0, r0, #8
 5629 1416 1946     		mov	r1, r3
 5630              		.loc 1 471 0
 5631 1418 0293     		str	r3, [sp, #8]
 5632              		.loc 1 472 0
 5633 141a FFF7FEFF 		bl	lbm_cons
 5634              	.LVL694:
 5635 141e 0446     		mov	r4, r0
 5636              	.LVL695:
 5637              	.LBE1894:
 5638              		.loc 1 473 0
 5639 1420 FEF71EBF 		b	.L191
 5640              	.LVL696:
 5641              	.L235:
 5642              	.LBB1903:
 5643              	.LBB1904:
ARM GAS  /tmp/ccMboyVS.s 			page 100


 5644              	.LBB1905:
 5645              		.loc 2 534 0
 5646 1424 FFF7FEFF 		bl	lbm_car
 5647              	.LVL697:
 5648 1428 0446     		mov	r4, r0
 5649              	.LVL698:
 5650              	.LBE1905:
 5651              	.LBE1904:
 5652              	.LBB1906:
 5653              	.LBB1907:
 5654              		.loc 2 489 0
 5655 142a 0001     		lsls	r0, r0, #4
 5656              	.LVL699:
 5657 142c 00F47F60 		and	r0, r0, #4080
 5658              	.LBE1907:
 5659              	.LBE1906:
 5660              		.loc 1 478 0
 5661 1430 0021     		movs	r1, #0
 5662 1432 40F00800 		orr	r0, r0, #8
 5663 1436 FFF7FEFF 		bl	lbm_cons
 5664              	.LVL700:
 5665 143a 0346     		mov	r3, r0
 5666              	.LBB1908:
 5667              	.LBB1909:
 5668              		.loc 2 489 0
 5669 143c 2009     		lsrs	r0, r4, #4
 5670 143e 00F47F60 		and	r0, r0, #4080
 5671              	.LBE1909:
 5672              	.LBE1908:
 5673              		.loc 1 479 0
 5674 1442 1946     		mov	r1, r3
 5675 1444 40F00800 		orr	r0, r0, #8
 5676              		.loc 1 478 0
 5677 1448 0293     		str	r3, [sp, #8]
 5678              		.loc 1 479 0
 5679 144a FFF7FEFF 		bl	lbm_cons
 5680              	.LVL701:
 5681 144e 0346     		mov	r3, r0
 5682              	.LBB1910:
 5683              	.LBB1911:
 5684              		.loc 2 489 0
 5685 1450 200B     		lsrs	r0, r4, #12
 5686 1452 00F47F60 		and	r0, r0, #4080
 5687              	.LBE1911:
 5688              	.LBE1910:
 5689              		.loc 1 480 0
 5690 1456 1946     		mov	r1, r3
 5691 1458 40F00800 		orr	r0, r0, #8
 5692              		.loc 1 479 0
 5693 145c 0293     		str	r3, [sp, #8]
 5694              		.loc 1 480 0
 5695 145e FFF7FEFF 		bl	lbm_cons
 5696              	.LVL702:
 5697 1462 0346     		mov	r3, r0
 5698              		.loc 1 481 0
 5699 1464 200E     		lsrs	r0, r4, #24
 5700              	.LBB1912:
ARM GAS  /tmp/ccMboyVS.s 			page 101


 5701              	.LBB1913:
 5702              		.loc 2 489 0
 5703 1466 0001     		lsls	r0, r0, #4
 5704              	.LBE1913:
 5705              	.LBE1912:
 5706              		.loc 1 481 0
 5707 1468 40F00800 		orr	r0, r0, #8
 5708 146c 1946     		mov	r1, r3
 5709              		.loc 1 480 0
 5710 146e 0293     		str	r3, [sp, #8]
 5711              		.loc 1 481 0
 5712 1470 FFF7FEFF 		bl	lbm_cons
 5713              	.LVL703:
 5714 1474 0446     		mov	r4, r0
 5715              	.LVL704:
 5716              	.LBE1903:
 5717              		.loc 1 482 0
 5718 1476 FEF7F3BE 		b	.L191
 5719              	.LVL705:
 5720              	.L316:
 5721              	.LBB1914:
 5722              	.LBB1610:
 5723              	.LBB1605:
 5724              		.loc 1 112 0
 5725 147a B3F1405F 		cmp	r3, #805306368
 5726 147e 66D0     		beq	.L319
 5727 1480 B3F1804F 		cmp	r3, #1073741824
 5728 1484 40F0A280 		bne	.L505
 5729              	.LVL706:
 5730              	.LBB1578:
 5731              	.LBB1579:
 5732              		.loc 2 534 0
 5733 1488 2046     		mov	r0, r4
 5734              	.LVL707:
 5735 148a FFF7FEFF 		bl	lbm_car
 5736              	.LVL708:
 5737              	.LBE1579:
 5738              	.LBE1578:
 5739              	.LBB1580:
 5740              	.LBB1581:
 5741              		.loc 2 507 0
 5742 148e 4FF40C71 		mov	r1, #560
 5743 1492 80F00040 		eor	r0, r0, #-2147483648
 5744              	.LVL709:
 5745 1496 FFF7FEFF 		bl	lbm_cons
 5746              	.LVL710:
 5747              	.LBB1582:
 5748              	.LBB1583:
 5749              		.loc 2 461 0
 5750 149a C207     		lsls	r2, r0, #31
 5751 149c 4CBF     		ite	mi
 5752 149e 00F07C43 		andmi	r3, r0, #-67108864
 5753 14a2 00F00C03 		andpl	r3, r0, #12
 5754              	.LBE1583:
 5755              	.LBE1582:
 5756              		.loc 2 507 0
 5757 14a6 0446     		mov	r4, r0
ARM GAS  /tmp/ccMboyVS.s 			page 102


 5758              	.LVL711:
 5759              		.loc 2 508 0
 5760 14a8 002B     		cmp	r3, #0
 5761 14aa 3EF4D9AE 		beq	.L191
 5762              	.LVL712:
 5763              	.LBB1584:
 5764              	.LBB1585:
 5765              		.loc 2 477 0
 5766 14ae 20F07C44 		bic	r4, r0, #-67108864
 5767 14b2 24F00704 		bic	r4, r4, #7
 5768 14b6 44F08044 		orr	r4, r4, #1073741824
 5769 14ba 44F00104 		orr	r4, r4, #1
 5770              	.LVL713:
 5771 14be FEF7CFBE 		b	.L191
 5772              	.LVL714:
 5773              	.L983:
 5774              	.LBE1585:
 5775              	.LBE1584:
 5776              	.LBE1581:
 5777              	.LBE1580:
 5778              	.LBE1605:
 5779              	.LBE1610:
 5780              	.LBE1914:
 5781 14c2 9024     		movs	r4, #144
 5782 14c4 FEF7CCBE 		b	.L191
 5783              	.LVL715:
 5784              	.L984:
 5785 14c8 9024     		movs	r4, #144
 5786 14ca FEF7C9BE 		b	.L191
 5787              	.LVL716:
 5788              	.L985:
 5789 14ce 9024     		movs	r4, #144
 5790 14d0 FEF7C6BE 		b	.L191
 5791              	.LVL717:
 5792              	.L981:
 5793              		.loc 1 823 0
 5794 14d4 33BB     		cbnz	r3, .L444
 5795              		.loc 1 841 0
 5796 14d6 4FF4AE64 		mov	r4, #1392
 5797 14da FEF7C1BE 		b	.L191
 5798              	.L986:
 5799              		.loc 1 823 0
 5800 14de B3F1005F 		cmp	r3, #536870912
 5801 14e2 1FD1     		bne	.L444
 5802              		.loc 1 831 0
 5803 14e4 4FF4AA64 		mov	r4, #1360
 5804 14e8 FEF7BABE 		b	.L191
 5805              	.LVL718:
 5806              	.L271:
 5807              	.LBB1915:
 5808              	.LBB1744:
 5809              		.loc 1 577 0
 5810 14ec 0398     		ldr	r0, [sp, #12]
 5811 14ee FFF7FEFF 		bl	lbm_car
 5812              	.LVL719:
 5813              		.loc 1 578 0
 5814 14f2 0028     		cmp	r0, #0
ARM GAS  /tmp/ccMboyVS.s 			page 103


 5815 14f4 3FF4EBAE 		beq	.L273
 5816              		.loc 1 579 0
 5817 14f8 00F10803 		add	r3, r0, #8
 5818              	.LVL720:
 5819              		.loc 1 580 0
 5820 14fc 2146     		mov	r1, r4
 5821 14fe 3A46     		mov	r2, r7
 5822 1500 1846     		mov	r0, r3
 5823              	.LVL721:
 5824 1502 FFF7FEFF 		bl	memset
 5825              	.LVL722:
 5826              		.loc 1 581 0
 5827 1506 3246     		mov	r2, r6
 5828 1508 2946     		mov	r1, r5
 5829 150a FFF7FEFF 		bl	memcpy
 5830              	.LVL723:
 5831              	.LBE1744:
 5832              		.loc 1 585 0
 5833 150e 039C     		ldr	r4, [sp, #12]
 5834              	.LVL724:
 5835 1510 FEF7A6BE 		b	.L191
 5836              	.LVL725:
 5837              	.L445:
 5838              	.LBE1915:
 5839              		.loc 1 825 0
 5840 1514 4FF4A064 		mov	r4, #1280
 5841 1518 FEF7A2BE 		b	.L191
 5842              	.L447:
 5843              		.loc 1 839 0
 5844 151c 4FF4B064 		mov	r4, #1408
 5845 1520 FEF79EBE 		b	.L191
 5846              	.L444:
 5847              		.loc 1 843 0
 5848 1524 8024     		movs	r4, #128
 5849 1526 FEF79BBE 		b	.L191
 5850              	.L450:
 5851              		.loc 1 837 0
 5852 152a 4FF4A464 		mov	r4, #1312
 5853 152e FEF797BE 		b	.L191
 5854              	.L452:
 5855              		.loc 1 829 0
 5856 1532 4FF4A864 		mov	r4, #1344
 5857 1536 FEF793BE 		b	.L191
 5858              	.L455:
 5859              		.loc 1 833 0
 5860 153a 4FF4A664 		mov	r4, #1328
 5861 153e FEF78FBE 		b	.L191
 5862              	.LVL726:
 5863              	.L386:
 5864              	.LBB1916:
 5865              	.LBB1703:
 5866              	.LBB1693:
 5867              	.LBB1682:
 5868              	.LBB1671:
 5869              	.LBB1627:
 5870              		.loc 2 508 0
 5871 1542 10F00C0F 		tst	r0, #12
ARM GAS  /tmp/ccMboyVS.s 			page 104


 5872 1546 3EF48BAE 		beq	.L191
 5873 154a FFF7CABA 		b	.L387
 5874              	.LVL727:
 5875              	.L319:
 5876              	.LBE1627:
 5877              	.LBE1671:
 5878              	.LBE1682:
 5879              	.LBE1693:
 5880              	.LBE1703:
 5881              	.LBE1916:
 5882              	.LBB1917:
 5883              	.LBB1611:
 5884              	.LBB1606:
 5885              	.LBB1586:
 5886              	.LBB1587:
 5887              		.loc 2 544 0
 5888 154e 2046     		mov	r0, r4
 5889              	.LVL728:
 5890 1550 FFF7FEFF 		bl	lbm_car
 5891              	.LVL729:
 5892              	.LBE1587:
 5893              	.LBE1586:
 5894              	.LBB1588:
 5895              	.LBB1589:
 5896              		.loc 2 493 0
 5897 1554 4FF40471 		mov	r1, #528
 5898 1558 4042     		negs	r0, r0
 5899              	.LVL730:
 5900 155a FFF7FEFF 		bl	lbm_cons
 5901              	.LVL731:
 5902              	.LBB1590:
 5903              	.LBB1591:
 5904              		.loc 2 461 0
 5905 155e C107     		lsls	r1, r0, #31
 5906 1560 4CBF     		ite	mi
 5907 1562 00F07C43 		andmi	r3, r0, #-67108864
 5908 1566 00F00C03 		andpl	r3, r0, #12
 5909              	.LBE1591:
 5910              	.LBE1590:
 5911              		.loc 2 493 0
 5912 156a 0446     		mov	r4, r0
 5913              	.LVL732:
 5914              		.loc 2 494 0
 5915 156c 002B     		cmp	r3, #0
 5916 156e 3EF477AE 		beq	.L191
 5917              	.LVL733:
 5918              	.LBB1592:
 5919              	.LBB1593:
 5920              		.loc 2 477 0
 5921 1572 20F07C44 		bic	r4, r0, #-67108864
 5922 1576 24F00704 		bic	r4, r4, #7
 5923 157a 44F04054 		orr	r4, r4, #805306368
 5924 157e 44F00104 		orr	r4, r4, #1
 5925              	.LVL734:
 5926 1582 FEF76DBE 		b	.L191
 5927              	.LVL735:
 5928              	.L315:
ARM GAS  /tmp/ccMboyVS.s 			page 105


 5929              	.LBE1593:
 5930              	.LBE1592:
 5931              	.LBE1589:
 5932              	.LBE1588:
 5933              	.LBB1594:
 5934              	.LBB1595:
 5935              		.loc 2 540 0
 5936 1586 2046     		mov	r0, r4
 5937              	.LVL736:
 5938 1588 FFF7FEFF 		bl	lbm_car
 5939              	.LVL737:
 5940              	.LBE1595:
 5941              	.LBE1594:
 5942              	.LBB1596:
 5943              	.LBB1597:
 5944              		.loc 2 499 0
 5945 158c 4FF40871 		mov	r1, #544
 5946 1590 4042     		negs	r0, r0
 5947              	.LVL738:
 5948 1592 FFF7FEFF 		bl	lbm_cons
 5949              	.LVL739:
 5950 1596 0446     		mov	r4, r0
 5951              	.LVL740:
 5952              	.LBB1598:
 5953              	.LBB1599:
 5954              		.loc 2 461 0
 5955 1598 E007     		lsls	r0, r4, #31
 5956              	.LVL741:
 5957 159a 4CBF     		ite	mi
 5958 159c 04F07C43 		andmi	r3, r4, #-67108864
 5959 15a0 04F00C03 		andpl	r3, r4, #12
 5960              	.LBE1599:
 5961              	.LBE1598:
 5962              		.loc 2 500 0
 5963 15a4 002B     		cmp	r3, #0
 5964 15a6 3EF45BAE 		beq	.L191
 5965              	.LVL742:
 5966              	.LBB1600:
 5967              	.LBB1601:
 5968              		.loc 2 477 0
 5969 15aa 24F07C44 		bic	r4, r4, #-67108864
 5970              	.LVL743:
 5971 15ae 24F00704 		bic	r4, r4, #7
 5972 15b2 44F00054 		orr	r4, r4, #536870912
 5973 15b6 44F00104 		orr	r4, r4, #1
 5974              	.LVL744:
 5975 15ba FEF751BE 		b	.L191
 5976              	.LVL745:
 5977              	.L317:
 5978              	.LBE1601:
 5979              	.LBE1600:
 5980              	.LBE1597:
 5981              	.LBE1596:
 5982              		.loc 1 119 0
 5983 15be 24F00F04 		bic	r4, r4, #15
 5984              	.LVL746:
 5985              	.LBB1602:
ARM GAS  /tmp/ccMboyVS.s 			page 106


 5986              	.LBB1603:
 5987              		.loc 2 489 0
 5988 15c2 6442     		negs	r4, r4
 5989 15c4 44F00804 		orr	r4, r4, #8
 5990              	.LVL747:
 5991 15c8 FEF74ABE 		b	.L191
 5992              	.LVL748:
 5993              	.L505:
 5994              	.LBE1603:
 5995              	.LBE1602:
 5996              		.loc 1 106 0
 5997 15cc 8024     		movs	r4, #128
 5998              	.LVL749:
 5999 15ce FEF747BE 		b	.L191
 6000              	.LVL750:
 6001              	.L277:
 6002              	.LBE1606:
 6003              	.LBE1611:
 6004              	.LBE1917:
 6005              	.LBB1918:
 6006              		.loc 1 600 0
 6007 15d2 03A9     		add	r1, sp, #12
 6008 15d4 2046     		mov	r0, r4
 6009 15d6 FFF7FEFF 		bl	lbm_add_symbol
 6010              	.LVL751:
 6011 15da 10B9     		cbnz	r0, .L278
 6012 15dc 029C     		ldr	r4, [sp, #8]
 6013              	.LVL752:
 6014 15de FEF73FBE 		b	.L191
 6015              	.LVL753:
 6016              	.L278:
 6017              	.LBB1712:
 6018              	.LBB1713:
 6019              		.loc 2 481 0
 6020 15e2 039C     		ldr	r4, [sp, #12]
 6021              	.LVL754:
 6022 15e4 2401     		lsls	r4, r4, #4
 6023              	.LVL755:
 6024 15e6 FEF73BBE 		b	.L191
 6025              	.LBE1713:
 6026              	.LBE1712:
 6027              	.LBE1918:
 6028              	.LBE1922:
 6029              		.cfi_endproc
 6030              	.LFE60:
 6031              		.size	lbm_fundamental, .-lbm_fundamental
 6032 15ea 00BF     		.text
 6033              	.Letext0:
 6034              		.file 3 "/usr/arm-none-eabi/include/machine/_default_types.h"
 6035              		.file 4 "/usr/arm-none-eabi/include/sys/_stdint.h"
 6036              		.file 5 "lispBM/lispBM/include/lbm_types.h"
 6037              		.file 6 "/usr/lib/gcc/arm-none-eabi/7.3.1/include/stddef.h"
 6038              		.file 7 "/usr/arm-none-eabi/include/sys/lock.h"
 6039              		.file 8 "/usr/arm-none-eabi/include/sys/_types.h"
 6040              		.file 9 "/usr/arm-none-eabi/include/sys/reent.h"
 6041              		.file 10 "/usr/arm-none-eabi/include/stdlib.h"
 6042              		.file 11 "/usr/arm-none-eabi/include/math.h"
ARM GAS  /tmp/ccMboyVS.s 			page 107


 6043              		.file 12 "<built-in>"
 6044              		.file 13 "lispBM/lispBM/include/symrepr.h"
 6045              		.file 14 "/usr/arm-none-eabi/include/string.h"