ARM GAS  /tmp/ccv5PwI2.s 			page 1


   1              		.cpu cortex-m4
   2              		.eabi_attribute 27, 1
   3              		.eabi_attribute 28, 1
   4              		.eabi_attribute 20, 1
   5              		.eabi_attribute 21, 1
   6              		.eabi_attribute 23, 3
   7              		.eabi_attribute 24, 1
   8              		.eabi_attribute 25, 1
   9              		.eabi_attribute 26, 1
  10              		.eabi_attribute 30, 2
  11              		.eabi_attribute 34, 1
  12              		.eabi_attribute 18, 4
  13              		.file	"FusionCompass.c"
  14              		.text
  15              	.Ltext0:
  16              		.cfi_sections	.debug_frame
  17              		.section	.text.FusionCompassCalculateHeading,"ax",%progbits
  18              		.align	1
  19              		.p2align 4,,15
  20              		.global	FusionCompassCalculateHeading
  21              		.syntax unified
  22              		.thumb
  23              		.thumb_func
  24              		.fpu fpv4-sp-d16
  25              		.type	FusionCompassCalculateHeading, %function
  26              	FusionCompassCalculateHeading:
  27              	.LFB22:
  28              		.file 1 "imu/Fusion/FusionCompass.c"
  29              		.loc 1 24 0
  30              		.cfi_startproc
  31              		@ args = 0, pretend = 0, frame = 40
  32              		@ frame_needed = 0, uses_anonymous_args = 0
  33 0000 00B5     		push	{lr}
  34              		.cfi_def_cfa_offset 4
  35              		.cfi_offset 14, -4
  36 0002 2DED048B 		vpush.64	{d8, d9}
  37              		.cfi_def_cfa_offset 20
  38              		.cfi_offset 80, -20
  39              		.cfi_offset 81, -16
  40              		.cfi_offset 82, -12
  41              		.cfi_offset 83, -8
  42              	.LBB30:
  43              	.LBB31:
  44              		.file 2 "imu/Fusion/FusionTypes.h"
  45              		.loc 2 222 0
  46 0006 20EE628A 		vnmul.f32	s16, s0, s5
  47              		.loc 2 221 0
  48 000a 62EE418A 		vnmul.f32	s17, s4, s2
  49              		.loc 2 222 0
  50 000e A1EE218A 		vfma.f32	s16, s2, s3
  51              	.LBE31:
  52              	.LBE30:
  53              		.loc 1 24 0
  54 0012 8BB0     		sub	sp, sp, #44
  55              		.cfi_def_cfa_offset 64
  56              	.LBB35:
  57              	.LBB32:
ARM GAS  /tmp/ccv5PwI2.s 			page 2


  58              		.loc 2 221 0
  59 0014 E2EEA08A 		vfma.f32	s17, s5, s1
  60              	.LBE32:
  61              	.LBE35:
  62              		.loc 1 24 0
  63 0018 F0EE409A 		vmov.f32	s19, s0
  64              	.LVL0:
  65              	.LBB36:
  66              	.LBB33:
  67              		.loc 2 223 0
  68 001c 60EEE11A 		vnmul.f32	s3, s1, s3
  69              	.LVL1:
  70              	.LBE33:
  71              	.LBE36:
  72              	.LBB37:
  73              	.LBB38:
  74              	.LBB39:
  75              	.LBB40:
  76              		.loc 2 236 0
  77 0020 28EE080A 		vmul.f32	s0, s16, s16
  78              	.LVL2:
  79              	.LBE40:
  80              	.LBE39:
  81              	.LBE38:
  82              	.LBE37:
  83              	.LBB52:
  84              	.LBB34:
  85              		.loc 2 223 0
  86 0024 E2EE291A 		vfma.f32	s3, s4, s19
  87              	.LVL3:
  88              	.LBE34:
  89              	.LBE52:
  90              	.LBB53:
  91              	.LBB49:
  92              	.LBB42:
  93              	.LBB41:
  94              		.loc 2 236 0
  95 0028 A8EEA80A 		vfma.f32	s0, s17, s17
  96 002c A1EEA10A 		vfma.f32	s0, s3, s3
  97              	.LVL4:
  98              	.LBE41:
  99              	.LBE42:
 100              	.LBB43:
 101              	.LBB44:
 102              		.loc 2 145 0
 103 0030 B5EE400A 		vcmp.f32	s0, #0
 104 0034 F1EE10FA 		vmrs	APSR_nzcv, FPSCR
 105 0038 2FD1     		bne	.L8
 106              	.LVL5:
 107              	.L2:
 108              	.LBE44:
 109              	.LBE43:
 110              	.LBE49:
 111              	.LBE53:
 112              	.LBB54:
 113              	.LBB55:
 114              		.loc 2 222 0
ARM GAS  /tmp/ccv5PwI2.s 			page 3


 115 003a 28EEC10A 		vnmul.f32	s0, s17, s2
 116              		.loc 2 221 0
 117 003e 21EEE09A 		vnmul.f32	s18, s3, s1
 118              		.loc 2 222 0
 119 0042 A9EEA10A 		vfma.f32	s0, s19, s3
 120              		.loc 2 221 0
 121 0046 A1EE089A 		vfma.f32	s18, s2, s16
 122              	.LVL6:
 123              	.LBE55:
 124              	.LBE54:
 125              	.LBB58:
 126              	.LBB59:
 127              	.LBB60:
 128              	.LBB61:
 129              		.loc 2 236 0
 130 004a 20EE000A 		vmul.f32	s0, s0, s0
 131              	.LBE61:
 132              	.LBE60:
 133              	.LBE59:
 134              	.LBE58:
 135              	.LBB76:
 136              	.LBB56:
 137              		.loc 2 223 0
 138 004e 28EE698A 		vnmul.f32	s16, s16, s19
 139              	.LVL7:
 140              	.LBE56:
 141              	.LBE76:
 142              	.LBB77:
 143              	.LBB72:
 144              	.LBB64:
 145              	.LBB62:
 146              		.loc 2 236 0
 147 0052 A9EE090A 		vfma.f32	s0, s18, s18
 148              	.LBE62:
 149              	.LBE64:
 150              	.LBE72:
 151              	.LBE77:
 152              	.LBB78:
 153              	.LBB57:
 154              		.loc 2 223 0
 155 0056 A0EEA88A 		vfma.f32	s16, s1, s17
 156              	.LVL8:
 157              	.LBE57:
 158              	.LBE78:
 159              	.LBB79:
 160              	.LBB73:
 161              	.LBB65:
 162              	.LBB63:
 163              		.loc 2 236 0
 164 005a A8EE080A 		vfma.f32	s0, s16, s16
 165              	.LVL9:
 166              	.LBE63:
 167              	.LBE65:
 168              	.LBB66:
 169              	.LBB67:
 170              		.loc 2 145 0
 171 005e B5EE400A 		vcmp.f32	s0, #0
ARM GAS  /tmp/ccv5PwI2.s 			page 4


 172 0062 F1EE10FA 		vmrs	APSR_nzcv, FPSCR
 173 0066 0ED1     		bne	.L9
 174              	.LVL10:
 175              	.L4:
 176              	.LBE67:
 177              	.LBE66:
 178              	.LBE73:
 179              	.LBE79:
 180              		.loc 1 33 0
 181 0068 F0EE490A 		vmov.f32	s1, s18
 182 006c B0EE680A 		vmov.f32	s0, s17
 183 0070 FFF7FEFF 		bl	atan2f
 184              	.LVL11:
 185              	.LBB80:
 186              	.LBB81:
 187              		.loc 2 132 0
 188 0074 DFED197A 		vldr.32	s15, .L12
 189              	.LBE81:
 190              	.LBE80:
 191              		.loc 1 34 0
 192 0078 20EE270A 		vmul.f32	s0, s0, s15
 193 007c 0BB0     		add	sp, sp, #44
 194              		.cfi_remember_state
 195              		.cfi_def_cfa_offset 20
 196              		@ sp needed
 197 007e BDEC048B 		vldm	sp!, {d8-d9}
 198              		.cfi_restore 82
 199              		.cfi_restore 83
 200              		.cfi_restore 80
 201              		.cfi_restore 81
 202              		.cfi_def_cfa_offset 4
 203              	.LVL12:
 204 0082 5DF804FB 		ldr	pc, [sp], #4
 205              	.LVL13:
 206              	.L9:
 207              		.cfi_restore_state
 208              	.LBB82:
 209              	.LBB74:
 210              	.LBB70:
 211              	.LBB68:
 212              		.loc 2 148 0
 213 0086 B1EEC08A 		vsqrt.f32	s16, s0
 214              	.LVL14:
 215 008a 14D4     		bmi	.L10
 216              	.LVL15:
 217              	.L5:
 218 008c B7EE007A 		vmov.f32	s14, #1.0e+0
 219 0090 C7EE087A 		vdiv.f32	s15, s14, s16
 220 0094 29EE279A 		vmul.f32	s18, s18, s15
 221              	.LVL16:
 222 0098 E6E7     		b	.L4
 223              	.LVL17:
 224              	.L8:
 225              	.LBE68:
 226              	.LBE70:
 227              	.LBE74:
 228              	.LBE82:
ARM GAS  /tmp/ccv5PwI2.s 			page 5


 229              	.LBB83:
 230              	.LBB50:
 231              	.LBB47:
 232              	.LBB45:
 233 009a B1EEC09A 		vsqrt.f32	s18, s0
 234 009e 0DD4     		bmi	.L11
 235              	.LVL18:
 236              	.L3:
 237 00a0 B7EE007A 		vmov.f32	s14, #1.0e+0
 238 00a4 C7EE097A 		vdiv.f32	s15, s14, s18
 239 00a8 68EEA78A 		vmul.f32	s17, s17, s15
 240              	.LVL19:
 241 00ac 28EE278A 		vmul.f32	s16, s16, s15
 242              	.LVL20:
 243 00b0 61EEA71A 		vmul.f32	s3, s3, s15
 244 00b4 C1E7     		b	.L2
 245              	.LVL21:
 246              	.L10:
 247              	.LBE45:
 248              	.LBE47:
 249              	.LBE50:
 250              	.LBE83:
 251              	.LBB84:
 252              	.LBB75:
 253              	.LBB71:
 254              	.LBB69:
 255 00b6 FFF7FEFF 		bl	sqrtf
 256              	.LVL22:
 257 00ba E7E7     		b	.L5
 258              	.LVL23:
 259              	.L11:
 260 00bc 8DED031A 		vstr.32	s2, [sp, #12]	@ int
 261 00c0 CDED020A 		vstr.32	s1, [sp, #8]	@ int
 262 00c4 CDED011A 		vstr.32	s3, [sp, #4]	@ int
 263              	.LBE69:
 264              	.LBE71:
 265              	.LBE75:
 266              	.LBE84:
 267              	.LBB85:
 268              	.LBB51:
 269              	.LBB48:
 270              	.LBB46:
 271 00c8 FFF7FEFF 		bl	sqrtf
 272              	.LVL24:
 273 00cc 9DED031A 		vldr.32	s2, [sp, #12]	@ int
 274 00d0 DDED020A 		vldr.32	s1, [sp, #8]	@ int
 275 00d4 DDED011A 		vldr.32	s3, [sp, #4]	@ int
 276 00d8 E2E7     		b	.L3
 277              	.L13:
 278 00da 00BF     		.align	2
 279              	.L12:
 280 00dc E02E6542 		.word	1113927392
 281              	.LBE46:
 282              	.LBE48:
 283              	.LBE51:
 284              	.LBE85:
 285              		.cfi_endproc
ARM GAS  /tmp/ccv5PwI2.s 			page 6


 286              	.LFE22:
 287              		.size	FusionCompassCalculateHeading, .-FusionCompassCalculateHeading
 288              		.text
 289              	.Letext0:
 290              		.file 3 "/usr/arm-none-eabi/include/sys/lock.h"
 291              		.file 4 "/usr/arm-none-eabi/include/sys/_types.h"
 292              		.file 5 "/usr/lib/gcc/arm-none-eabi/7.3.1/include/stddef.h"
 293              		.file 6 "/usr/arm-none-eabi/include/sys/reent.h"
 294              		.file 7 "/usr/arm-none-eabi/include/math.h"