ARM GAS  /tmp/ccpMYBMS.s 			page 1


   1              		.cpu cortex-m4
   2              		.eabi_attribute 27, 1
   3              		.eabi_attribute 28, 1
   4              		.eabi_attribute 20, 1
   5              		.eabi_attribute 21, 1
   6              		.eabi_attribute 23, 3
   7              		.eabi_attribute 24, 1
   8              		.eabi_attribute 25, 1
   9              		.eabi_attribute 26, 1
  10              		.eabi_attribute 30, 2
  11              		.eabi_attribute 34, 1
  12              		.eabi_attribute 18, 4
  13              		.file	"FusionBias.c"
  14              		.text
  15              	.Ltext0:
  16              		.cfi_sections	.debug_frame
  17              		.section	.text.FusionBiasInitialise,"ax",%progbits
  18              		.align	1
  19              		.p2align 4,,15
  20              		.global	FusionBiasInitialise
  21              		.syntax unified
  22              		.thumb
  23              		.thumb_func
  24              		.fpu fpv4-sp-d16
  25              		.type	FusionBiasInitialise, %function
  26              	FusionBiasInitialise:
  27              	.LFB22:
  28              		.file 1 "imu/Fusion/FusionBias.c"
  29              		.loc 1 42 0
  30              		.cfi_startproc
  31              		@ args = 0, pretend = 0, frame = 0
  32              		@ frame_needed = 0, uses_anonymous_args = 0
  33              		@ link register save eliminated.
  34              	.LVL0:
  35              		.loc 1 44 0
  36 0000 DFED067A 		vldr.32	s15, .L3
  37              		.loc 1 43 0
  38 0004 80ED000A 		vstr.32	s0, [r0]
  39              		.loc 1 44 0
  40 0008 60EEA70A 		vmul.f32	s1, s1, s15
  41              	.LVL1:
  42              		.loc 1 45 0
  43 000c 0023     		movs	r3, #0
  44              		.loc 1 44 0
  45 000e C0ED010A 		vstr.32	s1, [r0, #4]
  46              		.loc 1 45 0
  47 0012 8360     		str	r3, [r0, #8]	@ float
  48              		.loc 1 46 0
  49 0014 C360     		str	r3, [r0, #12]	@ float
  50 0016 0361     		str	r3, [r0, #16]	@ float
  51 0018 4361     		str	r3, [r0, #20]	@ float
  52              		.loc 1 47 0
  53 001a 7047     		bx	lr
  54              	.L4:
  55              		.align	2
  56              	.L3:
  57 001c FDAD003E 		.word	1040231933
ARM GAS  /tmp/ccpMYBMS.s 			page 2


  58              		.cfi_endproc
  59              	.LFE22:
  60              		.size	FusionBiasInitialise, .-FusionBiasInitialise
  61              		.section	.text.FusionBiasUpdate,"ax",%progbits
  62              		.align	1
  63              		.p2align 4,,15
  64              		.global	FusionBiasUpdate
  65              		.syntax unified
  66              		.thumb
  67              		.thumb_func
  68              		.fpu fpv4-sp-d16
  69              		.type	FusionBiasUpdate, %function
  70              	FusionBiasUpdate:
  71              	.LFB23:
  72              		.loc 1 57 0
  73              		.cfi_startproc
  74              		@ args = 0, pretend = 0, frame = 48
  75              		@ frame_needed = 0, uses_anonymous_args = 0
  76              		@ link register save eliminated.
  77              	.LVL2:
  78 0000 90ED036A 		vldr.32	s12, [r0, #12]
  79              		.loc 1 63 0
  80 0004 D0ED007A 		vldr.32	s15, [r0]
  81 0008 D0ED046A 		vldr.32	s13, [r0, #16]
  82 000c 90ED057A 		vldr.32	s14, [r0, #20]
  83              	.LBB8:
  84              	.LBB9:
  85              		.file 2 "imu/Fusion/FusionTypes.h"
  86              		.loc 2 176 0
  87 0010 30EE460A 		vsub.f32	s0, s0, s12
  88              	.LBE9:
  89              	.LBE8:
  90              		.loc 1 57 0
  91 0014 8CB0     		sub	sp, sp, #48
  92              		.cfi_def_cfa_offset 48
  93              	.LVL3:
  94              		.loc 1 63 0
  95 0016 F0EEC05A 		vabs.f32	s11, s0
  96 001a F4EEE75A 		vcmpe.f32	s11, s15
  97 001e F1EE10FA 		vmrs	APSR_nzcv, FPSCR
  98              	.LBB11:
  99              	.LBB10:
 100              		.loc 2 177 0
 101 0022 70EEE60A 		vsub.f32	s1, s1, s13
 102              	.LVL4:
 103              		.loc 2 178 0
 104 0026 31EE471A 		vsub.f32	s2, s2, s14
 105              	.LVL5:
 106              	.LBE10:
 107              	.LBE11:
 108              		.loc 1 63 0
 109 002a 2BDC     		bgt	.L6
 110              		.loc 1 63 0 is_stmt 0 discriminator 1
 111 002c F0EEE05A 		vabs.f32	s11, s1
 112 0030 F4EEE57A 		vcmpe.f32	s15, s11
 113 0034 F1EE10FA 		vmrs	APSR_nzcv, FPSCR
 114 0038 24D4     		bmi	.L6
ARM GAS  /tmp/ccpMYBMS.s 			page 3


 115              		.loc 1 63 0 discriminator 2
 116 003a F0EEC15A 		vabs.f32	s11, s2
 117 003e F4EEE57A 		vcmpe.f32	s15, s11
 118 0042 F1EE10FA 		vmrs	APSR_nzcv, FPSCR
 119 0046 1DD4     		bmi	.L6
 120              		.loc 1 69 0 is_stmt 1
 121 0048 D0ED027A 		vldr.32	s15, [r0, #8]
 122 004c F1EE045A 		vmov.f32	s11, #5.0e+0
 123 0050 F4EEE57A 		vcmpe.f32	s15, s11
 124 0054 F1EE10FA 		vmrs	APSR_nzcv, FPSCR
 125 0058 24D4     		bmi	.L16
 126              		.loc 1 75 0
 127 005a D0ED017A 		vldr.32	s15, [r0, #4]
 128              	.LVL6:
 129              		.loc 1 76 0
 130 005e 8DED090A 		vstr.32	s0, [sp, #36]
 131              	.LBB12:
 132              	.LBB13:
 133              		.loc 2 162 0
 134 0062 A7EE806A 		vfma.f32	s12, s15, s0
 135              	.LVL7:
 136              		.loc 2 163 0
 137 0066 E7EEA06A 		vfma.f32	s13, s15, s1
 138              	.LVL8:
 139              		.loc 2 164 0
 140 006a A7EE817A 		vfma.f32	s14, s15, s2
 141              	.LVL9:
 142              	.LBE13:
 143              	.LBE12:
 144              		.loc 1 76 0
 145 006e CDED0A0A 		vstr.32	s1, [sp, #40]
 146 0072 8DED0B1A 		vstr.32	s2, [sp, #44]
 147              		.loc 1 75 0
 148 0076 80ED036A 		vstr.32	s12, [r0, #12]
 149              	.LVL10:
 150 007a C0ED046A 		vstr.32	s13, [r0, #16]
 151              	.LVL11:
 152 007e 80ED057A 		vstr.32	s14, [r0, #20]
 153              	.LVL12:
 154              		.loc 1 76 0
 155 0082 07E0     		b	.L9
 156              	.LVL13:
 157              	.L6:
 158              		.loc 1 64 0
 159 0084 0023     		movs	r3, #0
 160              		.loc 1 65 0
 161 0086 8DED090A 		vstr.32	s0, [sp, #36]
 162 008a CDED0A0A 		vstr.32	s1, [sp, #40]
 163 008e 8DED0B1A 		vstr.32	s2, [sp, #44]
 164              		.loc 1 64 0
 165 0092 8360     		str	r3, [r0, #8]	@ float
 166              	.LVL14:
 167              	.L9:
 168              		.loc 1 77 0
 169 0094 9DED090A 		vldr.32	s0, [sp, #36]
 170              	.LVL15:
 171 0098 DDED0A0A 		vldr.32	s1, [sp, #40]
ARM GAS  /tmp/ccpMYBMS.s 			page 4


 172              	.LVL16:
 173 009c 9DED0B1A 		vldr.32	s2, [sp, #44]
 174              	.LVL17:
 175 00a0 0CB0     		add	sp, sp, #48
 176              		.cfi_remember_state
 177              		.cfi_def_cfa_offset 0
 178              	.LVL18:
 179              		@ sp needed
 180 00a2 7047     		bx	lr
 181              	.LVL19:
 182              	.L16:
 183              		.cfi_restore_state
 184              		.loc 1 70 0
 185 00a4 77EEA11A 		vadd.f32	s3, s15, s3
 186              	.LVL20:
 187              		.loc 1 71 0
 188 00a8 8DED090A 		vstr.32	s0, [sp, #36]
 189              		.loc 1 70 0
 190 00ac C0ED021A 		vstr.32	s3, [r0, #8]
 191              		.loc 1 71 0
 192 00b0 CDED0A0A 		vstr.32	s1, [sp, #40]
 193 00b4 8DED0B1A 		vstr.32	s2, [sp, #44]
 194 00b8 ECE7     		b	.L9
 195              		.cfi_endproc
 196              	.LFE23:
 197              		.size	FusionBiasUpdate, .-FusionBiasUpdate
 198 00ba 00BF     		.section	.text.FusionBiasIsActive,"ax",%progbits
 199              		.align	1
 200              		.p2align 4,,15
 201              		.global	FusionBiasIsActive
 202              		.syntax unified
 203              		.thumb
 204              		.thumb_func
 205              		.fpu fpv4-sp-d16
 206              		.type	FusionBiasIsActive, %function
 207              	FusionBiasIsActive:
 208              	.LFB24:
 209              		.loc 1 84 0
 210              		.cfi_startproc
 211              		@ args = 0, pretend = 0, frame = 0
 212              		@ frame_needed = 0, uses_anonymous_args = 0
 213              		@ link register save eliminated.
 214              	.LVL21:
 215              		.loc 1 85 0
 216 0000 90ED027A 		vldr.32	s14, [r0, #8]
 217 0004 F1EE047A 		vmov.f32	s15, #5.0e+0
 218 0008 B4EEE77A 		vcmpe.f32	s14, s15
 219 000c F1EE10FA 		vmrs	APSR_nzcv, FPSCR
 220              		.loc 1 86 0
 221 0010 ACBF     		ite	ge
 222 0012 0120     		movge	r0, #1
 223              	.LVL22:
 224 0014 0020     		movlt	r0, #0
 225 0016 7047     		bx	lr
 226              		.cfi_endproc
 227              	.LFE24:
 228              		.size	FusionBiasIsActive, .-FusionBiasIsActive
ARM GAS  /tmp/ccpMYBMS.s 			page 5


 229              		.text
 230              	.Letext0:
 231              		.file 3 "/usr/arm-none-eabi/include/sys/lock.h"
 232              		.file 4 "/usr/arm-none-eabi/include/sys/_types.h"
 233              		.file 5 "/usr/lib/gcc/arm-none-eabi/7.3.1/include/stddef.h"
 234              		.file 6 "/usr/arm-none-eabi/include/sys/reent.h"
 235              		.file 7 "/usr/arm-none-eabi/include/math.h"
 236              		.file 8 "imu/Fusion/FusionBias.h"