ARM GAS  /tmp/cc9GNGqx.s 			page 1


   1              		.cpu cortex-m4
   2              		.eabi_attribute 27, 1
   3              		.eabi_attribute 28, 1
   4              		.eabi_attribute 20, 1
   5              		.eabi_attribute 21, 1
   6              		.eabi_attribute 23, 3
   7              		.eabi_attribute 24, 1
   8              		.eabi_attribute 25, 1
   9              		.eabi_attribute 26, 1
  10              		.eabi_attribute 30, 2
  11              		.eabi_attribute 34, 1
  12              		.eabi_attribute 18, 4
  13              		.file	"FusionAhrs.c"
  14              		.text
  15              	.Ltext0:
  16              		.cfi_sections	.debug_frame
  17              		.section	.text.FusionAhrsInitialise,"ax",%progbits
  18              		.align	1
  19              		.p2align 4,,15
  20              		.global	FusionAhrsInitialise
  21              		.syntax unified
  22              		.thumb
  23              		.thumb_func
  24              		.fpu fpv4-sp-d16
  25              		.type	FusionAhrsInitialise, %function
  26              	FusionAhrsInitialise:
  27              	.LFB242:
  28              		.file 1 "imu/Fusion/FusionAhrs.c"
  29              		.loc 1 79 0
  30              		.cfi_startproc
  31              		@ args = 0, pretend = 0, frame = 0
  32              		@ frame_needed = 0, uses_anonymous_args = 0
  33              		@ link register save eliminated.
  34              	.LVL0:
  35              		.loc 1 82 0
  36 0000 0023     		movs	r3, #0
  37              		.loc 1 83 0
  38 0002 0849     		ldr	r1, .L3
  39              		.loc 1 80 0
  40 0004 80ED000A 		vstr.32	s0, [r0]
  41              		.loc 1 84 0
  42 0008 4FF07E52 		mov	r2, #1065353216
  43              		.loc 1 81 0
  44 000c C0ED010A 		vstr.32	s1, [r0, #4]
  45              		.loc 1 83 0
  46 0010 C160     		str	r1, [r0, #12]	@ float
  47              		.loc 1 84 0
  48 0012 0261     		str	r2, [r0, #16]	@ float
  49              		.loc 1 82 0
  50 0014 8360     		str	r3, [r0, #8]	@ float
  51              		.loc 1 84 0
  52 0016 4361     		str	r3, [r0, #20]	@ float
  53 0018 8361     		str	r3, [r0, #24]	@ float
  54 001a C361     		str	r3, [r0, #28]	@ float
  55              		.loc 1 85 0
  56 001c 0362     		str	r3, [r0, #32]	@ float
  57 001e 4362     		str	r3, [r0, #36]	@ float
ARM GAS  /tmp/cc9GNGqx.s 			page 2


  58 0020 8362     		str	r3, [r0, #40]	@ float
  59              		.loc 1 86 0
  60 0022 7047     		bx	lr
  61              	.L4:
  62              		.align	2
  63              	.L3:
  64 0024 FFFF7F7F 		.word	2139095039
  65              		.cfi_endproc
  66              	.LFE242:
  67              		.size	FusionAhrsInitialise, .-FusionAhrsInitialise
  68              		.section	.text.FusionAhrsSetGain,"ax",%progbits
  69              		.align	1
  70              		.p2align 4,,15
  71              		.global	FusionAhrsSetGain
  72              		.syntax unified
  73              		.thumb
  74              		.thumb_func
  75              		.fpu fpv4-sp-d16
  76              		.type	FusionAhrsSetGain, %function
  77              	FusionAhrsSetGain:
  78              	.LFB243:
  79              		.loc 1 93 0
  80              		.cfi_startproc
  81              		@ args = 0, pretend = 0, frame = 0
  82              		@ frame_needed = 0, uses_anonymous_args = 0
  83              		@ link register save eliminated.
  84              	.LVL1:
  85              		.loc 1 94 0
  86 0000 80ED000A 		vstr.32	s0, [r0]
  87              		.loc 1 95 0
  88 0004 7047     		bx	lr
  89              		.cfi_endproc
  90              	.LFE243:
  91              		.size	FusionAhrsSetGain, .-FusionAhrsSetGain
  92 0006 00BF     		.section	.text.FusionAhrsSetAccConfDecay,"ax",%progbits
  93              		.align	1
  94              		.p2align 4,,15
  95              		.global	FusionAhrsSetAccConfDecay
  96              		.syntax unified
  97              		.thumb
  98              		.thumb_func
  99              		.fpu fpv4-sp-d16
 100              		.type	FusionAhrsSetAccConfDecay, %function
 101              	FusionAhrsSetAccConfDecay:
 102              	.LFB244:
 103              		.loc 1 97 0
 104              		.cfi_startproc
 105              		@ args = 0, pretend = 0, frame = 0
 106              		@ frame_needed = 0, uses_anonymous_args = 0
 107              		@ link register save eliminated.
 108              	.LVL2:
 109              		.loc 1 98 0
 110 0000 80ED010A 		vstr.32	s0, [r0, #4]
 111              		.loc 1 99 0
 112 0004 7047     		bx	lr
 113              		.cfi_endproc
 114              	.LFE244:
ARM GAS  /tmp/cc9GNGqx.s 			page 3


 115              		.size	FusionAhrsSetAccConfDecay, .-FusionAhrsSetAccConfDecay
 116 0006 00BF     		.section	.text.FusionAhrsSetMagneticField,"ax",%progbits
 117              		.align	1
 118              		.p2align 4,,15
 119              		.global	FusionAhrsSetMagneticField
 120              		.syntax unified
 121              		.thumb
 122              		.thumb_func
 123              		.fpu fpv4-sp-d16
 124              		.type	FusionAhrsSetMagneticField, %function
 125              	FusionAhrsSetMagneticField:
 126              	.LFB245:
 127              		.loc 1 107 0
 128              		.cfi_startproc
 129              		@ args = 0, pretend = 0, frame = 0
 130              		@ frame_needed = 0, uses_anonymous_args = 0
 131              		@ link register save eliminated.
 132              	.LVL3:
 133              		.loc 1 108 0
 134 0000 20EE000A 		vmul.f32	s0, s0, s0
 135              	.LVL4:
 136              		.loc 1 109 0
 137 0004 60EEA00A 		vmul.f32	s1, s1, s1
 138              	.LVL5:
 139              		.loc 1 108 0
 140 0008 80ED020A 		vstr.32	s0, [r0, #8]
 141              		.loc 1 109 0
 142 000c C0ED030A 		vstr.32	s1, [r0, #12]
 143              		.loc 1 110 0
 144 0010 7047     		bx	lr
 145              		.cfi_endproc
 146              	.LFE245:
 147              		.size	FusionAhrsSetMagneticField, .-FusionAhrsSetMagneticField
 148 0012 00BF     		.section	.text.FusionAhrsUpdate,"ax",%progbits
 149              		.align	1
 150              		.p2align 4,,15
 151              		.global	FusionAhrsUpdate
 152              		.syntax unified
 153              		.thumb
 154              		.thumb_func
 155              		.fpu fpv4-sp-d16
 156              		.type	FusionAhrsUpdate, %function
 157              	FusionAhrsUpdate:
 158              	.LFB246:
 159              		.loc 1 122 0
 160              		.cfi_startproc
 161              		@ args = 0, pretend = 0, frame = 56
 162              		@ frame_needed = 0, uses_anonymous_args = 0
 163              	.LVL6:
 164 0000 10B5     		push	{r4, lr}
 165              		.cfi_def_cfa_offset 8
 166              		.cfi_offset 4, -8
 167              		.cfi_offset 14, -4
 168 0002 2DED0E8B 		vpush.64	{d8, d9, d10, d11, d12, d13, d14}
 169              		.cfi_def_cfa_offset 64
 170              		.cfi_offset 80, -64
 171              		.cfi_offset 81, -60
ARM GAS  /tmp/cc9GNGqx.s 			page 4


 172              		.cfi_offset 82, -56
 173              		.cfi_offset 83, -52
 174              		.cfi_offset 84, -48
 175              		.cfi_offset 85, -44
 176              		.cfi_offset 86, -40
 177              		.cfi_offset 87, -36
 178              		.cfi_offset 88, -32
 179              		.cfi_offset 89, -28
 180              		.cfi_offset 90, -24
 181              		.cfi_offset 91, -20
 182              		.cfi_offset 92, -16
 183              		.cfi_offset 93, -12
 184 0006 22EE02DA 		vmul.f32	s26, s4, s4
 185              	.LBB112:
 186              		.loc 1 129 0
 187 000a F5EE401A 		vcmp.f32	s3, #0
 188 000e A1EEA1DA 		vfma.f32	s26, s3, s3
 189              	.LBE112:
 190              		.loc 1 122 0
 191 0012 8EB0     		sub	sp, sp, #56
 192              		.cfi_def_cfa_offset 120
 193              		.loc 1 122 0
 194 0014 0446     		mov	r4, r0
 195              	.LBB187:
 196              		.loc 1 129 0
 197 0016 F1EE10FA 		vmrs	APSR_nzcv, FPSCR
 198              	.LBE187:
 199              		.loc 1 122 0
 200 001a F0EE42AA 		vmov.f32	s21, s4
 201 001e B0EE61BA 		vmov.f32	s22, s3
 202              	.LVL7:
 203 0022 F0EE62BA 		vmov.f32	s23, s5
 204              	.LVL8:
 205 0026 B0EE64CA 		vmov.f32	s24, s9
 206 002a 8DED090A 		vstr.32	s0, [sp, #36]
 207 002e CDED0A0A 		vstr.32	s1, [sp, #40]
 208 0032 8DED0B1A 		vstr.32	s2, [sp, #44]
 209 0036 8DED033A 		vstr.32	s6, [sp, #12]
 210 003a CDED043A 		vstr.32	s7, [sp, #16]
 211 003e 8DED054A 		vstr.32	s8, [sp, #20]
 212 0042 A2EEA2DA 		vfma.f32	s26, s5, s5
 213              	.LBB188:
 214              		.loc 1 129 0
 215 0046 05D1     		bne	.L9
 216              		.loc 1 129 0 is_stmt 0 discriminator 1
 217 0048 B5EE402A 		vcmp.f32	s4, #0
 218 004c F1EE10FA 		vmrs	APSR_nzcv, FPSCR
 219 0050 00F04581 		beq	.L22
 220              	.L9:
 221              		.loc 1 135 0 is_stmt 1
 222 0054 94ED047A 		vldr.32	s14, [r4, #16]
 223 0058 D4ED076A 		vldr.32	s13, [r4, #28]
 224 005c 94ED068A 		vldr.32	s16, [r4, #24]
 225 0060 94ED056A 		vldr.32	s12, [r4, #20]
 226              		.loc 1 137 0
 227 0064 FEEE007A 		vmov.f32	s15, #-5.0e-1
 228 0068 E7EE077A 		vfma.f32	s15, s14, s14
ARM GAS  /tmp/cc9GNGqx.s 			page 5


 229              		.loc 1 135 0
 230 006c 28EE479A 		vnmul.f32	s18, s16, s14
 231              	.LBB113:
 232              	.LBB114:
 233              	.LBB115:
 234              	.LBB116:
 235              		.file 2 "imu/Fusion/FusionTypes.h"
 236              		.loc 2 145 0
 237 0070 B5EE40DA 		vcmp.f32	s26, #0
 238              	.LBE116:
 239              	.LBE115:
 240              	.LBE114:
 241              	.LBE113:
 242              		.loc 1 136 0
 243 0074 26EE888A 		vmul.f32	s16, s13, s16
 244              	.LBB129:
 245              	.LBB125:
 246              	.LBB121:
 247              	.LBB117:
 248              		.loc 2 145 0
 249 0078 F1EE10FA 		vmrs	APSR_nzcv, FPSCR
 250              	.LBE117:
 251              	.LBE121:
 252              	.LBE125:
 253              	.LBE129:
 254              		.loc 1 137 0
 255 007c E6EEA67A 		vfma.f32	s15, s13, s13
 256              		.loc 1 135 0
 257 0080 A6EE269A 		vfma.f32	s18, s12, s13
 258              	.LVL9:
 259              		.loc 1 136 0
 260 0084 A6EE078A 		vfma.f32	s16, s12, s14
 261              	.LVL10:
 262 0088 F1EECD8A 		vsqrt.f32	s17, s26
 263              	.LBB130:
 264              	.LBB126:
 265              	.LBB122:
 266              	.LBB118:
 267              		.loc 2 145 0
 268 008c 40F04A81 		bne	.L23
 269 0090 B0EE6B6A 		vmov.f32	s12, s23
 270 0094 F0EE6A9A 		vmov.f32	s19, s21
 271 0098 B0EE4B4A 		vmov.f32	s8, s22
 272              	.LVL11:
 273              	.L11:
 274 009c 9DED045A 		vldr.32	s10, [sp, #16]
 275 00a0 DDED035A 		vldr.32	s11, [sp, #12]
 276 00a4 DDED054A 		vldr.32	s9, [sp, #20]
 277              	.LBE118:
 278              	.LBE122:
 279              	.LBE126:
 280              	.LBE130:
 281              		.loc 1 145 0
 282 00a8 D4ED023A 		vldr.32	s7, [r4, #8]
 283              	.LBB131:
 284              	.LBB132:
 285              		.loc 2 236 0
ARM GAS  /tmp/cc9GNGqx.s 			page 6


 286 00ac 65EE056A 		vmul.f32	s13, s10, s10
 287              	.LBE132:
 288              	.LBE131:
 289              	.LBB135:
 290              	.LBB136:
 291              		.loc 2 221 0
 292 00b0 26EE487A 		vnmul.f32	s14, s12, s16
 293              	.LBE136:
 294              	.LBE135:
 295              	.LBB140:
 296              	.LBB133:
 297              		.loc 2 236 0
 298 00b4 E5EEA56A 		vfma.f32	s13, s11, s11
 299              	.LBE133:
 300              	.LBE140:
 301              	.LBB141:
 302              	.LBB137:
 303              		.loc 2 221 0
 304 00b8 A7EEA97A 		vfma.f32	s14, s15, s19
 305              	.LBE137:
 306              	.LBE141:
 307              	.LBB142:
 308              	.LBB134:
 309              		.loc 2 236 0
 310 00bc E4EEA46A 		vfma.f32	s13, s9, s9
 311              	.LBE134:
 312              	.LBE142:
 313              	.LBB143:
 314              	.LBB138:
 315              		.loc 2 222 0
 316 00c0 64EE677A 		vnmul.f32	s15, s8, s15
 317              	.LVL12:
 318              		.loc 2 223 0
 319 00c4 69EEC99A 		vnmul.f32	s19, s19, s18
 320              		.loc 2 222 0
 321 00c8 E9EE067A 		vfma.f32	s15, s18, s12
 322              	.LBE138:
 323              	.LBE143:
 324              		.loc 1 145 0
 325 00cc F4EEE63A 		vcmpe.f32	s7, s13
 326 00d0 F1EE10FA 		vmrs	APSR_nzcv, FPSCR
 327              	.LBB144:
 328              	.LBB139:
 329              		.loc 2 221 0
 330 00d4 F0EE47CA 		vmov.f32	s25, s14
 331              	.LVL13:
 332              		.loc 2 222 0
 333 00d8 B0EE67AA 		vmov.f32	s20, s15
 334              	.LVL14:
 335              		.loc 2 223 0
 336 00dc E8EE049A 		vfma.f32	s19, s16, s8
 337              	.LVL15:
 338              	.LBE139:
 339              	.LBE144:
 340              		.loc 1 145 0
 341 00e0 40F3B380 		ble	.L24
 342              	.LVL16:
ARM GAS  /tmp/cc9GNGqx.s 			page 7


 343              	.L10:
 344 00e4 B5EE40DA 		vcmp.f32	s26, #0
 345 00e8 F1EE10FA 		vmrs	APSR_nzcv, FPSCR
 346              	.LBE188:
 347              		.loc 1 162 0
 348 00ec 94ED008A 		vldr.32	s16, [r4]
 349              	.LVL17:
 350 00f0 00F13281 		bmi	.L25
 351              	.L15:
 352              	.LVL18:
 353              	.LBB189:
 354              	.LBB190:
 355              		.loc 1 65 0
 356 00f4 DFEDA87A 		vldr.32	s15, .L31
 357 00f8 D4ED0B5A 		vldr.32	s11, [r4, #44]
 358 00fc 9FEDA77A 		vldr.32	s14, .L31+4
 359              	.LBE190:
 360              	.LBE189:
 361              		.loc 1 164 0
 362 0100 94ED016A 		vldr.32	s12, [r4, #4]
 363              	.LVL19:
 364              	.LBB192:
 365              	.LBB191:
 366              		.loc 1 69 0
 367 0104 9FEDA60A 		vldr.32	s0, .L31+8
 368              		.loc 1 65 0
 369 0108 68EEA77A 		vmul.f32	s15, s17, s15
 370              		.loc 1 68 0
 371 010c F7EE006A 		vmov.f32	s13, #1.0e+0
 372              		.loc 1 65 0
 373 0110 E5EE877A 		vfma.f32	s15, s11, s14
 374              	.LVL20:
 375              		.loc 1 68 0
 376 0114 0EA8     		add	r0, sp, #56
 377              		.loc 1 69 0
 378 0116 F0EE660A 		vmov.f32	s1, s13
 379              		.loc 1 68 0
 380 011a 37EEE67A 		vsub.f32	s14, s15, s13
 381              		.loc 1 66 0
 382 011e C4ED0B7A 		vstr.32	s15, [r4, #44]
 383              		.loc 1 68 0
 384 0122 F0EEC77A 		vabs.f32	s15, s14
 385              	.LVL21:
 386 0126 B1EEE77A 		vsqrt.f32	s14, s15
 387 012a E6EE476A 		vfms.f32	s13, s12, s14
 388 012e 60ED016A 		vstmdb.32	r0!, {s13}
 389              		.loc 1 69 0
 390 0132 FFF7FEFF 		bl	utils_truncate_number
 391              	.LVL22:
 392              		.loc 1 71 0
 393 0136 DDED0D4A 		vldr.32	s9, [sp, #52]
 394              	.LVL23:
 395              	.LBE191:
 396              	.LBE192:
 397              	.LBB193:
 398              	.LBB194:
 399              		.loc 2 162 0
ARM GAS  /tmp/cc9GNGqx.s 			page 8


 400 013a DFED9A6A 		vldr.32	s13, .L31+12
 401              		.loc 2 163 0
 402 013e DDED0A2A 		vldr.32	s5, [sp, #40]
 403              		.loc 2 162 0
 404 0142 9DED093A 		vldr.32	s6, [sp, #36]
 405              		.loc 2 164 0
 406 0146 DDED0B3A 		vldr.32	s7, [sp, #44]
 407 014a D4ED065A 		vldr.32	s11, [r4, #24]
 408 014e 94ED055A 		vldr.32	s10, [r4, #20]
 409 0152 94ED044A 		vldr.32	s8, [r4, #16]
 410 0156 94ED076A 		vldr.32	s12, [r4, #28]
 411              	.LBE194:
 412              	.LBE193:
 413              		.loc 1 165 0
 414 015a 68EE244A 		vmul.f32	s9, s16, s9
 415              	.LVL24:
 416              	.LBB197:
 417              	.LBB198:
 418              		.loc 2 191 0
 419 015e 64EE8A7A 		vmul.f32	s15, s9, s20
 420              	.LVL25:
 421              		.loc 2 190 0
 422 0162 2CEEA47A 		vmul.f32	s14, s25, s9
 423              	.LVL26:
 424              	.LBE198:
 425              	.LBE197:
 426              	.LBB200:
 427              	.LBB195:
 428              		.loc 2 163 0
 429 0166 E2EEA67A 		vfma.f32	s15, s5, s13
 430              	.LVL27:
 431              	.LBE195:
 432              	.LBE200:
 433              	.LBB201:
 434              	.LBB199:
 435              		.loc 2 192 0
 436 016a 69EEA49A 		vmul.f32	s19, s19, s9
 437              	.LVL28:
 438              	.LBE199:
 439              	.LBE201:
 440              	.LBB202:
 441              	.LBB196:
 442              		.loc 2 162 0
 443 016e A3EE267A 		vfma.f32	s14, s6, s13
 444              	.LVL29:
 445              		.loc 2 164 0
 446 0172 E3EEA69A 		vfma.f32	s19, s7, s13
 447              	.LVL30:
 448              	.LBE196:
 449              	.LBE202:
 450              	.LBB203:
 451              	.LBB204:
 452              		.loc 2 191 0
 453 0176 67EE8C7A 		vmul.f32	s15, s15, s24
 454              	.LVL31:
 455              		.loc 2 190 0
 456 017a 27EE0C7A 		vmul.f32	s14, s14, s24
ARM GAS  /tmp/cc9GNGqx.s 			page 9


 457              	.LVL32:
 458              	.LBE204:
 459              	.LBE203:
 460              	.LBB206:
 461              	.LBB207:
 462              		.loc 2 319 0
 463 017e 65EEE76A 		vnmul.f32	s13, s11, s15
 464              	.LBE207:
 465              	.LBE206:
 466              	.LBB212:
 467              	.LBB205:
 468              		.loc 2 192 0
 469 0182 69EE8C4A 		vmul.f32	s9, s19, s24
 470              	.LVL33:
 471              	.LBE205:
 472              	.LBE212:
 473              	.LBB213:
 474              	.LBB208:
 475              		.loc 2 319 0
 476 0186 E5EE476A 		vfms.f32	s13, s10, s14
 477              		.loc 2 320 0
 478 018a 24EEA59A 		vmul.f32	s18, s9, s11
 479              		.loc 2 319 0
 480 018e E4EEC66A 		vfms.f32	s13, s9, s12
 481              	.LVL34:
 482              		.loc 2 320 0
 483 0192 A7EE049A 		vfma.f32	s18, s14, s8
 484              		.loc 2 321 0
 485 0196 65EE648A 		vnmul.f32	s17, s10, s9
 486              	.LVL35:
 487              		.loc 2 320 0
 488 019a A7EEC69A 		vfms.f32	s18, s15, s12
 489              	.LVL36:
 490              		.loc 2 321 0
 491 019e E7EE848A 		vfma.f32	s17, s15, s8
 492              		.loc 2 322 0
 493 01a2 27EE858A 		vmul.f32	s16, s15, s10
 494              	.LVL37:
 495              	.LBE208:
 496              	.LBE213:
 497              	.LBB214:
 498              	.LBB215:
 499              		.loc 2 281 0
 500 01a6 76EE846A 		vadd.f32	s13, s13, s8
 501              	.LVL38:
 502              	.LBE215:
 503              	.LBE214:
 504              	.LBB218:
 505              	.LBB209:
 506              		.loc 2 322 0
 507 01aa A4EE848A 		vfma.f32	s16, s9, s8
 508              	.LBE209:
 509              	.LBE218:
 510              	.LBB219:
 511              	.LBB220:
 512              		.loc 2 367 0
 513 01ae 66EEA67A 		vmul.f32	s15, s13, s13
ARM GAS  /tmp/cc9GNGqx.s 			page 10


 514              	.LVL39:
 515              	.LBE220:
 516              	.LBE219:
 517              	.LBB237:
 518              	.LBB216:
 519              		.loc 2 282 0
 520 01b2 39EE059A 		vadd.f32	s18, s18, s10
 521              	.LVL40:
 522              	.LBE216:
 523              	.LBE237:
 524              	.LBB238:
 525              	.LBB210:
 526              		.loc 2 321 0
 527 01b6 E7EE068A 		vfma.f32	s17, s14, s12
 528              	.LVL41:
 529              	.LBE210:
 530              	.LBE238:
 531              	.LBB239:
 532              	.LBB229:
 533              		.loc 2 367 0
 534 01ba B0EE670A 		vmov.f32	s0, s15
 535              	.LBE229:
 536              	.LBE239:
 537              	.LBB240:
 538              	.LBB211:
 539              		.loc 2 322 0
 540 01be A7EE658A 		vfms.f32	s16, s14, s11
 541              	.LVL42:
 542              	.LBE211:
 543              	.LBE240:
 544              	.LBB241:
 545              	.LBB230:
 546              		.loc 2 367 0
 547 01c2 A9EE090A 		vfma.f32	s0, s18, s18
 548              	.LBE230:
 549              	.LBE241:
 550              	.LBB242:
 551              	.LBB217:
 552              		.loc 2 283 0
 553 01c6 78EEA58A 		vadd.f32	s17, s17, s11
 554              	.LVL43:
 555              		.loc 2 284 0
 556 01ca 38EE068A 		vadd.f32	s16, s16, s12
 557              	.LVL44:
 558              	.LBE217:
 559              	.LBE242:
 560              	.LBB243:
 561              	.LBB231:
 562              		.loc 2 367 0
 563 01ce A8EEA80A 		vfma.f32	s0, s17, s17
 564 01d2 28EE087A 		vmul.f32	s14, s16, s16
 565              	.LVL45:
 566              	.LBE231:
 567              	.LBE243:
 568              		.loc 1 174 0
 569 01d6 C4ED046A 		vstr.32	s13, [r4, #16]
 570              	.LBB244:
ARM GAS  /tmp/cc9GNGqx.s 			page 11


 571              	.LBB232:
 572              		.loc 2 367 0
 573 01da 30EE070A 		vadd.f32	s0, s0, s14
 574              	.LBE232:
 575              	.LBE244:
 576              		.loc 1 174 0
 577 01de 84ED059A 		vstr.32	s18, [r4, #20]
 578              	.LBB245:
 579              	.LBB233:
 580              	.LBB221:
 581              	.LBB222:
 582              		.loc 2 145 0
 583 01e2 B5EE400A 		vcmp.f32	s0, #0
 584 01e6 F1EE10FA 		vmrs	APSR_nzcv, FPSCR
 585              	.LBE222:
 586              	.LBE221:
 587              	.LBE233:
 588              	.LBE245:
 589              		.loc 1 174 0
 590 01ea C4ED068A 		vstr.32	s17, [r4, #24]
 591 01ee 84ED078A 		vstr.32	s16, [r4, #28]
 592              	.LVL46:
 593              	.LBB246:
 594              	.LBB234:
 595              	.LBB226:
 596              	.LBB223:
 597              		.loc 2 145 0
 598 01f2 40F08380 		bne	.L26
 599              	.LVL47:
 600              	.L17:
 601              	.LBE223:
 602              	.LBE226:
 603              	.LBE234:
 604              	.LBE246:
 605              		.loc 1 181 0
 606 01f6 68EEE65A 		vnmul.f32	s11, s17, s13
 607              		.loc 1 182 0
 608 01fa 28EE886A 		vmul.f32	s12, s17, s16
 609              		.loc 1 183 0
 610 01fe B6EE005A 		vmov.f32	s10, #5.0e-1
 611 0202 77EEC57A 		vsub.f32	s15, s15, s10
 612              		.loc 1 181 0
 613 0206 E9EE085A 		vfma.f32	s11, s18, s16
 614              		.loc 1 182 0
 615 020a A6EE896A 		vfma.f32	s12, s13, s18
 616              		.loc 1 183 0
 617 020e 77EE877A 		vadd.f32	s15, s15, s14
 618              	.LBB247:
 619              	.LBB248:
 620              		.loc 2 176 0
 621 0212 F0EE4B1A 		vmov.f32	s3, s22
 622 0216 B0EE007A 		vmov.f32	s14, #2.0e+0
 623              		.loc 2 178 0
 624 021a E7EEC7BA 		vfms.f32	s23, s15, s14
 625              	.LVL48:
 626              		.loc 2 176 0
 627 021e E5EEC71A 		vfms.f32	s3, s11, s14
ARM GAS  /tmp/cc9GNGqx.s 			page 12


 628              		.loc 2 177 0
 629 0222 E6EE47AA 		vfms.f32	s21, s12, s14
 630              	.LVL49:
 631              	.LBE248:
 632              	.LBE247:
 633              		.loc 1 177 0
 634 0226 C4ED046A 		vstr.32	s13, [r4, #16]
 635 022a 84ED059A 		vstr.32	s18, [r4, #20]
 636 022e C4ED068A 		vstr.32	s17, [r4, #24]
 637 0232 84ED078A 		vstr.32	s16, [r4, #28]
 638              	.LVL50:
 639              		.loc 1 185 0
 640 0236 C4ED0ABA 		vstr.32	s23, [r4, #40]
 641              	.LVL51:
 642 023a C4ED081A 		vstr.32	s3, [r4, #32]
 643 023e C4ED09AA 		vstr.32	s21, [r4, #36]
 644              		.loc 1 188 0
 645 0242 0EB0     		add	sp, sp, #56
 646              		.cfi_remember_state
 647              		.cfi_def_cfa_offset 64
 648              		@ sp needed
 649 0244 BDEC0E8B 		vldm	sp!, {d8-d14}
 650              		.cfi_restore 92
 651              		.cfi_restore 93
 652              		.cfi_restore 90
 653              		.cfi_restore 91
 654              		.cfi_restore 88
 655              		.cfi_restore 89
 656              		.cfi_restore 86
 657              		.cfi_restore 87
 658              		.cfi_restore 84
 659              		.cfi_restore 85
 660              		.cfi_restore 82
 661              		.cfi_restore 83
 662              		.cfi_restore 80
 663              		.cfi_restore 81
 664              		.cfi_def_cfa_offset 8
 665              	.LVL52:
 666 0248 10BD     		pop	{r4, pc}
 667              	.LVL53:
 668              	.L24:
 669              		.cfi_restore_state
 670              	.LBB249:
 671              		.loc 1 145 0 discriminator 1
 672 024a D4ED037A 		vldr.32	s15, [r4, #12]
 673              	.LVL54:
 674 024e F4EEE67A 		vcmpe.f32	s15, s13
 675 0252 F1EE10FA 		vmrs	APSR_nzcv, FPSCR
 676 0256 3FF545AF 		bmi	.L10
 677              	.LBB145:
 678              	.LBB146:
 679              		.loc 2 222 0
 680 025a 24EECB8A 		vnmul.f32	s16, s9, s22
 681              	.LVL55:
 682              		.loc 2 221 0
 683 025e 25EE6B9A 		vnmul.f32	s18, s10, s23
 684              	.LVL56:
ARM GAS  /tmp/cc9GNGqx.s 			page 13


 685              		.loc 2 222 0
 686 0262 ABEEA58A 		vfma.f32	s16, s23, s11
 687              		.loc 2 221 0
 688 0266 AAEEA49A 		vfma.f32	s18, s21, s9
 689              		.loc 2 223 0
 690 026a 65EEEA5A 		vnmul.f32	s11, s11, s21
 691              	.LVL57:
 692              	.LBE146:
 693              	.LBE145:
 694              	.LBB148:
 695              	.LBB149:
 696              	.LBB150:
 697              	.LBB151:
 698              		.loc 2 236 0
 699 026e 28EE080A 		vmul.f32	s0, s16, s16
 700              	.LBE151:
 701              	.LBE150:
 702              	.LBE149:
 703              	.LBE148:
 704              	.LBB173:
 705              	.LBB147:
 706              		.loc 2 223 0
 707 0272 EBEE055A 		vfma.f32	s11, s22, s10
 708              	.LBE147:
 709              	.LBE173:
 710              	.LBB174:
 711              	.LBB166:
 712              	.LBB154:
 713              	.LBB152:
 714              		.loc 2 236 0
 715 0276 A9EE090A 		vfma.f32	s0, s18, s18
 716              	.LBE152:
 717              	.LBE154:
 718              	.LBE166:
 719              	.LBE174:
 720              		.loc 1 151 0
 721 027a D4ED047A 		vldr.32	s15, [r4, #16]
 722 027e 94ED076A 		vldr.32	s12, [r4, #28]
 723 0282 D4ED056A 		vldr.32	s13, [r4, #20]
 724 0286 94ED067A 		vldr.32	s14, [r4, #24]
 725              	.LVL58:
 726              	.LBB175:
 727              	.LBB167:
 728              	.LBB155:
 729              	.LBB153:
 730              		.loc 2 236 0
 731 028a A5EEA50A 		vfma.f32	s0, s11, s11
 732              	.LBE153:
 733              	.LBE155:
 734              	.LBE167:
 735              	.LBE175:
 736              		.loc 1 152 0
 737 028e FEEE00DA 		vmov.f32	s27, #-5.0e-1
 738 0292 E7EEA7DA 		vfma.f32	s27, s15, s15
 739              		.loc 1 151 0
 740 0296 27EE86EA 		vmul.f32	s28, s15, s12
 741              	.LBB176:
ARM GAS  /tmp/cc9GNGqx.s 			page 14


 742              	.LBB168:
 743              	.LBB156:
 744              	.LBB157:
 745              		.loc 2 145 0
 746 029a B5EE400A 		vcmp.f32	s0, #0
 747              	.LBE157:
 748              	.LBE156:
 749              	.LBE168:
 750              	.LBE176:
 751              		.loc 1 153 0
 752 029e 67EEE67A 		vnmul.f32	s15, s15, s13
 753              	.LBB177:
 754              	.LBB169:
 755              	.LBB162:
 756              	.LBB158:
 757              		.loc 2 145 0
 758 02a2 F1EE10FA 		vmrs	APSR_nzcv, FPSCR
 759              	.LBE158:
 760              	.LBE162:
 761              	.LBE169:
 762              	.LBE177:
 763              		.loc 1 152 0
 764 02a6 E7EE07DA 		vfma.f32	s27, s14, s14
 765              		.loc 1 153 0
 766 02aa E7EE067A 		vfma.f32	s15, s14, s12
 767              		.loc 1 151 0
 768 02ae A6EE87EA 		vfma.f32	s28, s13, s14
 769              	.LVL59:
 770              	.LBB178:
 771              	.LBB170:
 772              	.LBB163:
 773              	.LBB159:
 774              		.loc 2 145 0
 775 02b2 43D1     		bne	.L27
 776              	.LVL60:
 777              	.L13:
 778              	.LBE159:
 779              	.LBE163:
 780              	.LBE170:
 781              	.LBE178:
 782              	.LBB179:
 783              	.LBB180:
 784              		.loc 2 221 0
 785 02b4 65EEED6A 		vnmul.f32	s13, s11, s27
 786              		.loc 2 222 0
 787 02b8 29EE677A 		vnmul.f32	s14, s18, s15
 788              		.loc 2 221 0
 789 02bc E7EE886A 		vfma.f32	s13, s15, s16
 790              	.LVL61:
 791              		.loc 2 223 0
 792 02c0 28EE4E8A 		vnmul.f32	s16, s16, s28
 793              	.LVL62:
 794              		.loc 2 222 0
 795 02c4 F0EE477A 		vmov.f32	s15, s14
 796              	.LVL63:
 797 02c8 EEEE257A 		vfma.f32	s15, s28, s11
 798              	.LVL64:
ARM GAS  /tmp/cc9GNGqx.s 			page 15


 799              		.loc 2 223 0
 800 02cc ADEE898A 		vfma.f32	s16, s27, s18
 801              	.LVL65:
 802              	.LBE180:
 803              	.LBE179:
 804              	.LBB181:
 805              	.LBB182:
 806              		.loc 2 162 0
 807 02d0 7CEEA6CA 		vadd.f32	s25, s25, s13
 808              	.LVL66:
 809              		.loc 2 163 0
 810 02d4 3AEE27AA 		vadd.f32	s20, s20, s15
 811              	.LVL67:
 812              		.loc 2 164 0
 813 02d8 79EE889A 		vadd.f32	s19, s19, s16
 814              	.LVL68:
 815              	.LBE182:
 816              	.LBE181:
 817 02dc 02E7     		b	.L10
 818              	.LVL69:
 819              	.L22:
 820              		.loc 1 129 0 discriminator 2
 821 02de F5EE402A 		vcmp.f32	s5, #0
 822 02e2 F1EE10FA 		vmrs	APSR_nzcv, FPSCR
 823 02e6 7FF4B5AE 		bne	.L9
 824              	.LBE249:
 825              		.loc 1 126 0
 826 02ea DFED2D9A 		vldr.32	s19, .L31+8
 827 02ee F1EECD8A 		vsqrt.f32	s17, s26
 828 02f2 B0EE69AA 		vmov.f32	s20, s19
 829 02f6 F0EE69CA 		vmov.f32	s25, s19
 830 02fa F3E6     		b	.L10
 831              	.LVL70:
 832              	.L26:
 833              	.LBB250:
 834              	.LBB235:
 835              	.LBB227:
 836              	.LBB224:
 837              		.loc 2 148 0
 838 02fc F1EEC09A 		vsqrt.f32	s19, s0
 839              	.LVL71:
 840 0300 2FD4     		bmi	.L28
 841              	.LVL72:
 842              	.L18:
 843 0302 B7EE007A 		vmov.f32	s14, #1.0e+0
 844 0306 C7EE297A 		vdiv.f32	s15, s14, s19
 845 030a 28EE278A 		vmul.f32	s16, s16, s15
 846              	.LVL73:
 847 030e 66EEA76A 		vmul.f32	s13, s13, s15
 848 0312 29EE279A 		vmul.f32	s18, s18, s15
 849              	.LVL74:
 850 0316 68EEA78A 		vmul.f32	s17, s17, s15
 851              	.LVL75:
 852 031a 28EE087A 		vmul.f32	s14, s16, s16
 853 031e 66EEA67A 		vmul.f32	s15, s13, s13
 854 0322 68E7     		b	.L17
 855              	.LVL76:
ARM GAS  /tmp/cc9GNGqx.s 			page 16


 856              	.L23:
 857 0324 24D4     		bmi	.L29
 858              	.LVL77:
 859              	.L12:
 860              	.LBE224:
 861              	.LBE227:
 862              	.LBE235:
 863              	.LBE250:
 864              	.LBB251:
 865              	.LBB183:
 866              	.LBB127:
 867              	.LBB123:
 868              	.LBB119:
 869 0326 B7EE007A 		vmov.f32	s14, #1.0e+0
 870 032a 87EE286A 		vdiv.f32	s12, s14, s17
 871 032e 2BEE064A 		vmul.f32	s8, s22, s12
 872 0332 6AEE869A 		vmul.f32	s19, s21, s12
 873 0336 2BEE866A 		vmul.f32	s12, s23, s12
 874 033a AFE6     		b	.L11
 875              	.LVL78:
 876              	.L27:
 877              	.LBE119:
 878              	.LBE123:
 879              	.LBE127:
 880              	.LBE183:
 881              	.LBB184:
 882              	.LBB171:
 883              	.LBB164:
 884              	.LBB160:
 885 033c F1EEC0EA 		vsqrt.f32	s29, s0
 886 0340 1FD4     		bmi	.L30
 887              	.LVL79:
 888              	.L14:
 889 0342 F7EE006A 		vmov.f32	s13, #1.0e+0
 890 0346 86EEAE7A 		vdiv.f32	s14, s13, s29
 891 034a 29EE079A 		vmul.f32	s18, s18, s14
 892              	.LVL80:
 893 034e 28EE078A 		vmul.f32	s16, s16, s14
 894              	.LVL81:
 895 0352 65EE875A 		vmul.f32	s11, s11, s14
 896 0356 ADE7     		b	.L13
 897              	.LVL82:
 898              	.L25:
 899              	.LBE160:
 900              	.LBE164:
 901              	.LBE171:
 902              	.LBE184:
 903              	.LBE251:
 904              		.loc 1 163 0
 905 0358 B0EE4D0A 		vmov.f32	s0, s26
 906 035c FFF7FEFF 		bl	sqrtf
 907              	.LVL83:
 908 0360 C8E6     		b	.L15
 909              	.LVL84:
 910              	.L28:
 911 0362 CDED016A 		vstr.32	s13, [sp, #4]	@ int
 912              	.LBB252:
ARM GAS  /tmp/cc9GNGqx.s 			page 17


 913              	.LBB236:
 914              	.LBB228:
 915              	.LBB225:
 916              		.loc 2 148 0
 917 0366 FFF7FEFF 		bl	sqrtf
 918              	.LVL85:
 919 036a DDED016A 		vldr.32	s13, [sp, #4]	@ int
 920 036e C8E7     		b	.L18
 921              	.LVL86:
 922              	.L29:
 923              	.LBE225:
 924              	.LBE228:
 925              	.LBE236:
 926              	.LBE252:
 927              	.LBB253:
 928              	.LBB185:
 929              	.LBB128:
 930              	.LBB124:
 931              	.LBB120:
 932 0370 B0EE4D0A 		vmov.f32	s0, s26
 933 0374 CDED017A 		vstr.32	s15, [sp, #4]	@ int
 934 0378 FFF7FEFF 		bl	sqrtf
 935              	.LVL87:
 936 037c DDED017A 		vldr.32	s15, [sp, #4]	@ int
 937 0380 D1E7     		b	.L12
 938              	.LVL88:
 939              	.L30:
 940 0382 CDED025A 		vstr.32	s11, [sp, #8]	@ int
 941 0386 CDED017A 		vstr.32	s15, [sp, #4]	@ int
 942              	.LBE120:
 943              	.LBE124:
 944              	.LBE128:
 945              	.LBE185:
 946              	.LBB186:
 947              	.LBB172:
 948              	.LBB165:
 949              	.LBB161:
 950 038a FFF7FEFF 		bl	sqrtf
 951              	.LVL89:
 952 038e DDED025A 		vldr.32	s11, [sp, #8]	@ int
 953 0392 DDED017A 		vldr.32	s15, [sp, #4]	@ int
 954 0396 D4E7     		b	.L14
 955              	.L32:
 956              		.align	2
 957              	.L31:
 958 0398 CDCCCC3D 		.word	1036831949
 959 039c 6666663F 		.word	1063675494
 960 03a0 00000000 		.word	0
 961 03a4 35FA0E3C 		.word	1007614517
 962              	.LBE161:
 963              	.LBE165:
 964              	.LBE172:
 965              	.LBE186:
 966              	.LBE253:
 967              		.cfi_endproc
 968              	.LFE246:
 969              		.size	FusionAhrsUpdate, .-FusionAhrsUpdate
ARM GAS  /tmp/cc9GNGqx.s 			page 18


 970              		.section	.text.FusionAhrsUpdateWithoutMagnetometer,"ax",%progbits
 971              		.align	1
 972              		.p2align 4,,15
 973              		.global	FusionAhrsUpdateWithoutMagnetometer
 974              		.syntax unified
 975              		.thumb
 976              		.thumb_func
 977              		.fpu fpv4-sp-d16
 978              		.type	FusionAhrsUpdateWithoutMagnetometer, %function
 979              	FusionAhrsUpdateWithoutMagnetometer:
 980              	.LFB247:
 981              		.loc 1 199 0
 982              		.cfi_startproc
 983              		@ args = 0, pretend = 0, frame = 40
 984              		@ frame_needed = 0, uses_anonymous_args = 0
 985              		@ link register save eliminated.
 986              	.LVL90:
 987              		.loc 1 200 0
 988 0000 DFED053A 		vldr.32	s7, .L35
 989              		.loc 1 199 0
 990 0004 8AB0     		sub	sp, sp, #40
 991              		.cfi_def_cfa_offset 40
 992              		.loc 1 200 0
 993 0006 F0EE434A 		vmov.f32	s9, s6
 994 000a B0EE634A 		vmov.f32	s8, s7
 995 000e B0EE633A 		vmov.f32	s6, s7
 996              	.LVL91:
 997              		.loc 1 201 0
 998 0012 0AB0     		add	sp, sp, #40
 999              		.cfi_def_cfa_offset 0
 1000              		@ sp needed
 1001              		.loc 1 200 0
 1002 0014 FFF7FEBF 		b	FusionAhrsUpdate
 1003              	.LVL92:
 1004              	.L36:
 1005              		.align	2
 1006              	.L35:
 1007 0018 00000000 		.word	0
 1008              		.cfi_endproc
 1009              	.LFE247:
 1010              		.size	FusionAhrsUpdateWithoutMagnetometer, .-FusionAhrsUpdateWithoutMagnetometer
 1011              		.section	.text.FusionAhrsGetQuaternion,"ax",%progbits
 1012              		.align	1
 1013              		.p2align 4,,15
 1014              		.global	FusionAhrsGetQuaternion
 1015              		.syntax unified
 1016              		.thumb
 1017              		.thumb_func
 1018              		.fpu fpv4-sp-d16
 1019              		.type	FusionAhrsGetQuaternion, %function
 1020              	FusionAhrsGetQuaternion:
 1021              	.LFB248:
 1022              		.loc 1 208 0
 1023              		.cfi_startproc
 1024              		@ args = 0, pretend = 0, frame = 32
 1025              		@ frame_needed = 0, uses_anonymous_args = 0
 1026              		@ link register save eliminated.
ARM GAS  /tmp/cc9GNGqx.s 			page 19


 1027              	.LVL93:
 1028              	.LBB254:
 1029              	.LBB255:
 1030              		.loc 2 336 0
 1031 0000 D0ED050A 		vldr.32	s1, [r0, #20]
 1032              	.LVL94:
 1033              		.loc 2 337 0
 1034 0004 90ED061A 		vldr.32	s2, [r0, #24]
 1035              	.LVL95:
 1036              		.loc 2 338 0
 1037 0008 D0ED071A 		vldr.32	s3, [r0, #28]
 1038              	.LBE255:
 1039              	.LBE254:
 1040              		.loc 1 210 0
 1041 000c 90ED040A 		vldr.32	s0, [r0, #16]
 1042              		.loc 1 208 0
 1043 0010 88B0     		sub	sp, sp, #32
 1044              		.cfi_def_cfa_offset 32
 1045              		.loc 1 210 0
 1046 0012 F1EE600A 		vneg.f32	s1, s1
 1047 0016 B1EE411A 		vneg.f32	s2, s2
 1048 001a F1EE611A 		vneg.f32	s3, s3
 1049 001e 08B0     		add	sp, sp, #32
 1050              		.cfi_def_cfa_offset 0
 1051              		@ sp needed
 1052 0020 7047     		bx	lr
 1053              		.cfi_endproc
 1054              	.LFE248:
 1055              		.size	FusionAhrsGetQuaternion, .-FusionAhrsGetQuaternion
 1056 0022 00BF     		.section	.text.FusionAhrsGetLinearAcceleration,"ax",%progbits
 1057              		.align	1
 1058              		.p2align 4,,15
 1059              		.global	FusionAhrsGetLinearAcceleration
 1060              		.syntax unified
 1061              		.thumb
 1062              		.thumb_func
 1063              		.fpu fpv4-sp-d16
 1064              		.type	FusionAhrsGetLinearAcceleration, %function
 1065              	FusionAhrsGetLinearAcceleration:
 1066              	.LFB249:
 1067              		.loc 1 218 0
 1068              		.cfi_startproc
 1069              		@ args = 0, pretend = 0, frame = 32
 1070              		@ frame_needed = 0, uses_anonymous_args = 0
 1071              		@ link register save eliminated.
 1072              	.LVL96:
 1073              		.loc 1 219 0
 1074 0000 2030     		adds	r0, r0, #32
 1075              	.LVL97:
 1076 0002 07C8     		ldm	r0, {r0, r1, r2}
 1077              	.LVL98:
 1078              		.loc 1 218 0
 1079 0004 88B0     		sub	sp, sp, #32
 1080              		.cfi_def_cfa_offset 32
 1081              		.loc 1 219 0
 1082 0006 08AB     		add	r3, sp, #32
 1083 0008 03E90700 		stmdb	r3, {r0, r1, r2}
ARM GAS  /tmp/cc9GNGqx.s 			page 20


 1084              		.loc 1 220 0
 1085 000c 9DED050A 		vldr.32	s0, [sp, #20]
 1086 0010 DDED060A 		vldr.32	s1, [sp, #24]
 1087 0014 9DED071A 		vldr.32	s2, [sp, #28]
 1088 0018 08B0     		add	sp, sp, #32
 1089              		.cfi_def_cfa_offset 0
 1090              		@ sp needed
 1091 001a 7047     		bx	lr
 1092              		.cfi_endproc
 1093              	.LFE249:
 1094              		.size	FusionAhrsGetLinearAcceleration, .-FusionAhrsGetLinearAcceleration
 1095              		.section	.text.FusionAhrsGetEarthAcceleration,"ax",%progbits
 1096              		.align	1
 1097              		.p2align 4,,15
 1098              		.global	FusionAhrsGetEarthAcceleration
 1099              		.syntax unified
 1100              		.thumb
 1101              		.thumb_func
 1102              		.fpu fpv4-sp-d16
 1103              		.type	FusionAhrsGetEarthAcceleration, %function
 1104              	FusionAhrsGetEarthAcceleration:
 1105              	.LFB250:
 1106              		.loc 1 228 0
 1107              		.cfi_startproc
 1108              		@ args = 0, pretend = 0, frame = 32
 1109              		@ frame_needed = 0, uses_anonymous_args = 0
 1110              		@ link register save eliminated.
 1111              	.LVL99:
 1112              		.loc 1 231 0
 1113 0000 90ED046A 		vldr.32	s12, [r0, #16]
 1114              	.LVL100:
 1115              		.loc 1 233 0
 1116 0004 D0ED066A 		vldr.32	s13, [r0, #24]
 1117              		.loc 1 232 0
 1118 0008 D0ED055A 		vldr.32	s11, [r0, #20]
 1119              	.LVL101:
 1120              		.loc 1 234 0
 1121 000c 90ED077A 		vldr.32	s14, [r0, #28]
 1122              	.LVL102:
 1123              		.loc 1 239 0
 1124 0010 90ED092A 		vldr.32	s4, [r0, #36]
 1125 0014 90ED083A 		vldr.32	s6, [r0, #32]
 1126 0018 D0ED0A3A 		vldr.32	s7, [r0, #40]
 1127 001c FEEE007A 		vmov.f32	s15, #-5.0e-1
 1128 0020 E6EE067A 		vfma.f32	s15, s12, s12
 1129              		.loc 1 235 0
 1130 0024 25EEA64A 		vmul.f32	s8, s11, s13
 1131              	.LVL103:
 1132              		.loc 1 237 0
 1133 0028 66EE874A 		vmul.f32	s9, s13, s14
 1134              		.loc 1 239 0
 1135 002c F1EE462A 		vneg.f32	s5, s12
 1136              		.loc 1 236 0
 1137 0030 25EE875A 		vmul.f32	s10, s11, s14
 1138              	.LVL104:
 1139              		.loc 1 240 0
 1140 0034 F0EE670A 		vmov.f32	s1, s15
ARM GAS  /tmp/cc9GNGqx.s 			page 21


 1141              		.loc 1 239 0
 1142 0038 B0EE440A 		vmov.f32	s0, s8
 1143              		.loc 1 241 0
 1144 003c B0EE641A 		vmov.f32	s2, s9
 1145              		.loc 1 240 0
 1146 0040 E6EEA60A 		vfma.f32	s1, s13, s13
 1147              		.loc 1 239 0
 1148 0044 A2EE870A 		vfma.f32	s0, s5, s14
 1149              		.loc 1 241 0
 1150 0048 A6EE251A 		vfma.f32	s2, s12, s11
 1151              		.loc 1 228 0
 1152 004c 2DED028B 		vpush.64	{d8}
 1153              		.cfi_def_cfa_offset 8
 1154              		.cfi_offset 80, -8
 1155              		.cfi_offset 81, -4
 1156              		.loc 1 241 0
 1157 0050 F0EE451A 		vmov.f32	s3, s10
 1158              		.loc 1 239 0
 1159 0054 B0EE678A 		vmov.f32	s16, s15
 1160              		.loc 1 240 0
 1161 0058 A6EE074A 		vfma.f32	s8, s12, s14
 1162              	.LVL105:
 1163              		.loc 1 228 0
 1164 005c 88B0     		sub	sp, sp, #32
 1165              		.cfi_def_cfa_offset 40
 1166              		.loc 1 239 0
 1167 005e A5EEA58A 		vfma.f32	s16, s11, s11
 1168              		.loc 1 241 0
 1169 0062 E2EEA61A 		vfma.f32	s3, s5, s13
 1170              		.loc 1 240 0
 1171 0066 60EE820A 		vmul.f32	s1, s1, s4
 1172              		.loc 1 239 0
 1173 006a 20EE020A 		vmul.f32	s0, s0, s4
 1174              		.loc 1 241 0
 1175 006e 21EE021A 		vmul.f32	s2, s2, s4
 1176              		.loc 1 240 0
 1177 0072 E3EE040A 		vfma.f32	s1, s6, s8
 1178 0076 E2EEA54A 		vfma.f32	s9, s5, s11
 1179              	.LVL106:
 1180              		.loc 1 239 0
 1181 007a A8EE030A 		vfma.f32	s0, s16, s6
 1182              		.loc 1 241 0
 1183 007e A3EE211A 		vfma.f32	s2, s6, s3
 1184              		.loc 1 239 0
 1185 0082 A6EE265A 		vfma.f32	s10, s12, s13
 1186              	.LVL107:
 1187              		.loc 1 241 0
 1188 0086 E7EE077A 		vfma.f32	s15, s14, s14
 1189              		.loc 1 240 0
 1190 008a E3EEA40A 		vfma.f32	s1, s7, s9
 1191              		.loc 1 239 0
 1192 008e A5EE230A 		vfma.f32	s0, s10, s7
 1193              		.loc 1 241 0
 1194 0092 A3EEA71A 		vfma.f32	s2, s7, s15
 1195              		.loc 1 246 0
 1196 0096 70EEA00A 		vadd.f32	s1, s1, s1
 1197 009a 30EE000A 		vadd.f32	s0, s0, s0
ARM GAS  /tmp/cc9GNGqx.s 			page 22


 1198 009e 31EE011A 		vadd.f32	s2, s2, s2
 1199 00a2 08B0     		add	sp, sp, #32
 1200              		.cfi_def_cfa_offset 8
 1201              		@ sp needed
 1202 00a4 BDEC028B 		vldm	sp!, {d8}
 1203              		.cfi_restore 80
 1204              		.cfi_restore 81
 1205              		.cfi_def_cfa_offset 0
 1206 00a8 7047     		bx	lr
 1207              		.cfi_endproc
 1208              	.LFE250:
 1209              		.size	FusionAhrsGetEarthAcceleration, .-FusionAhrsGetEarthAcceleration
 1210 00aa 00BF     		.section	.text.FusionAhrsReinitialise,"ax",%progbits
 1211              		.align	1
 1212              		.p2align 4,,15
 1213              		.global	FusionAhrsReinitialise
 1214              		.syntax unified
 1215              		.thumb
 1216              		.thumb_func
 1217              		.fpu fpv4-sp-d16
 1218              		.type	FusionAhrsReinitialise, %function
 1219              	FusionAhrsReinitialise:
 1220              	.LFB251:
 1221              		.loc 1 252 0
 1222              		.cfi_startproc
 1223              		@ args = 0, pretend = 0, frame = 0
 1224              		@ frame_needed = 0, uses_anonymous_args = 0
 1225              		@ link register save eliminated.
 1226              	.LVL108:
 1227              		.loc 1 253 0
 1228 0000 0023     		movs	r3, #0
 1229 0002 4FF07E52 		mov	r2, #1065353216
 1230 0006 0261     		str	r2, [r0, #16]	@ float
 1231 0008 4361     		str	r3, [r0, #20]	@ float
 1232 000a 8361     		str	r3, [r0, #24]	@ float
 1233 000c C361     		str	r3, [r0, #28]	@ float
 1234              		.loc 1 254 0
 1235 000e 0362     		str	r3, [r0, #32]	@ float
 1236 0010 4362     		str	r3, [r0, #36]	@ float
 1237 0012 8362     		str	r3, [r0, #40]	@ float
 1238              		.loc 1 255 0
 1239 0014 7047     		bx	lr
 1240              		.cfi_endproc
 1241              	.LFE251:
 1242              		.size	FusionAhrsReinitialise, .-FusionAhrsReinitialise
 1243 0016 00BF     		.section	.text.FusionAhrsSetYaw,"ax",%progbits
 1244              		.align	1
 1245              		.p2align 4,,15
 1246              		.global	FusionAhrsSetYaw
 1247              		.syntax unified
 1248              		.thumb
 1249              		.thumb_func
 1250              		.fpu fpv4-sp-d16
 1251              		.type	FusionAhrsSetYaw, %function
 1252              	FusionAhrsSetYaw:
 1253              	.LFB252:
 1254              		.loc 1 264 0
ARM GAS  /tmp/cc9GNGqx.s 			page 23


 1255              		.cfi_startproc
 1256              		@ args = 0, pretend = 0, frame = 8
 1257              		@ frame_needed = 0, uses_anonymous_args = 0
 1258              	.LVL109:
 1259 0000 10B5     		push	{r4, lr}
 1260              		.cfi_def_cfa_offset 8
 1261              		.cfi_offset 4, -8
 1262              		.cfi_offset 14, -4
 1263 0002 2DED068B 		vpush.64	{d8, d9, d10}
 1264              		.cfi_def_cfa_offset 32
 1265              		.cfi_offset 80, -32
 1266              		.cfi_offset 81, -28
 1267              		.cfi_offset 82, -24
 1268              		.cfi_offset 83, -20
 1269              		.cfi_offset 84, -16
 1270              		.cfi_offset 85, -12
 1271 0006 90ED058A 		vldr.32	s16, [r0, #20]
 1272 000a 90ED047A 		vldr.32	s14, [r0, #16]
 1273              	.LVL110:
 1274 000e D0ED068A 		vldr.32	s17, [r0, #24]
 1275              	.LVL111:
 1276 0012 90ED079A 		vldr.32	s18, [r0, #28]
 1277              	.LVL112:
 1278              	.LBB256:
 1279              	.LBB257:
 1280              		.loc 2 349 0
 1281 0016 68EE087A 		vmul.f32	s15, s16, s16
 1282              	.LBE257:
 1283              	.LBE256:
 1284              		.loc 1 264 0
 1285 001a F0EE409A 		vmov.f32	s19, s0
 1286              	.LBB263:
 1287              	.LBB258:
 1288              		.loc 2 349 0
 1289 001e E7EE077A 		vfma.f32	s15, s14, s14
 1290              	.LBE258:
 1291              	.LBE263:
 1292              		.loc 1 264 0
 1293 0022 82B0     		sub	sp, sp, #8
 1294              		.cfi_def_cfa_offset 40
 1295              		.loc 1 264 0
 1296 0024 0446     		mov	r4, r0
 1297              	.LBB264:
 1298              	.LBB259:
 1299              		.loc 2 349 0
 1300 0026 B0EE670A 		vmov.f32	s0, s15
 1301              	.LVL113:
 1302 002a A8EEA80A 		vfma.f32	s0, s17, s17
 1303 002e A9EE090A 		vfma.f32	s0, s18, s18
 1304 0032 B5EE400A 		vcmp.f32	s0, #0
 1305 0036 F1EE10FA 		vmrs	APSR_nzcv, FPSCR
 1306 003a B1EEC0AA 		vsqrt.f32	s20, s0
 1307 003e 71D4     		bmi	.L47
 1308              	.LVL114:
 1309              	.L45:
 1310 0040 F7EE007A 		vmov.f32	s15, #1.0e+0
 1311 0044 C7EE8A6A 		vdiv.f32	s13, s15, s20
ARM GAS  /tmp/cc9GNGqx.s 			page 24


 1312              	.LVL115:
 1313              	.LBE259:
 1314              	.LBE264:
 1315              		.loc 1 267 0
 1316 0048 FEEE000A 		vmov.f32	s1, #-5.0e-1
 1317              	.LBB265:
 1318              	.LBB260:
 1319              		.loc 2 351 0
 1320 004c 26EE877A 		vmul.f32	s14, s13, s14
 1321              	.LVL116:
 1322              		.loc 2 354 0
 1323 0050 29EE269A 		vmul.f32	s18, s18, s13
 1324              	.LVL117:
 1325              	.LBE260:
 1326              	.LBE265:
 1327              		.loc 1 267 0
 1328 0054 E7EE070A 		vfma.f32	s1, s14, s14
 1329              	.LBB266:
 1330              	.LBB261:
 1331              		.loc 2 352 0
 1332 0058 68EE267A 		vmul.f32	s15, s16, s13
 1333              	.LVL118:
 1334              		.loc 2 353 0
 1335 005c 68EEA68A 		vmul.f32	s17, s17, s13
 1336              	.LVL119:
 1337              	.LBE261:
 1338              	.LBE266:
 1339              		.loc 1 267 0
 1340 0060 27EE090A 		vmul.f32	s0, s14, s18
 1341              		.loc 1 266 0
 1342 0064 84ED047A 		vstr.32	s14, [r4, #16]
 1343              		.loc 1 267 0
 1344 0068 E7EEA70A 		vfma.f32	s1, s15, s15
 1345              		.loc 1 266 0
 1346 006c C4ED057A 		vstr.32	s15, [r4, #20]
 1347              		.loc 1 267 0
 1348 0070 A7EEA80A 		vfma.f32	s0, s15, s17
 1349              		.loc 1 266 0
 1350 0074 C4ED068A 		vstr.32	s17, [r4, #24]
 1351 0078 84ED079A 		vstr.32	s18, [r4, #28]
 1352              		.loc 1 267 0
 1353 007c FFF7FEFF 		bl	atan2f
 1354              	.LVL120:
 1355              		.loc 1 268 0
 1356 0080 DFED2C7A 		vldr.32	s15, .L48
 1357 0084 A9EEE70A 		vfms.f32	s0, s19, s15
 1358              	.LVL121:
 1359 0088 F6EE008A 		vmov.f32	s17, #5.0e-1
 1360 008c 60EE288A 		vmul.f32	s17, s0, s17
 1361              	.LVL122:
 1362              		.loc 1 270 0
 1363 0090 B0EE680A 		vmov.f32	s0, s17
 1364 0094 FFF7FEFF 		bl	cosf
 1365              	.LVL123:
 1366 0098 B0EE408A 		vmov.f32	s16, s0
 1367              	.LVL124:
 1368              		.loc 1 273 0
ARM GAS  /tmp/cc9GNGqx.s 			page 25


 1369 009c B0EE680A 		vmov.f32	s0, s17
 1370              	.LVL125:
 1371 00a0 FFF7FEFF 		bl	sinf
 1372              	.LVL126:
 1373              	.LBB267:
 1374              	.LBB268:
 1375              		.loc 2 298 0
 1376 00a4 9FED247A 		vldr.32	s14, .L48+4
 1377 00a8 D4ED044A 		vldr.32	s9, [r4, #16]
 1378 00ac 94ED054A 		vldr.32	s8, [r4, #20]
 1379 00b0 D4ED065A 		vldr.32	s11, [r4, #24]
 1380 00b4 94ED075A 		vldr.32	s10, [r4, #28]
 1381              		.loc 2 299 0
 1382 00b8 24EE873A 		vmul.f32	s6, s9, s14
 1383              		.loc 2 298 0
 1384 00bc 64EE073A 		vmul.f32	s7, s8, s14
 1385              		.loc 2 299 0
 1386 00c0 F0EE436A 		vmov.f32	s13, s6
 1387 00c4 E8EE046A 		vfma.f32	s13, s16, s8
 1388              		.loc 2 298 0
 1389 00c8 B0EE636A 		vmov.f32	s12, s7
 1390 00cc 98EE246A 		vfnms.f32	s12, s16, s9
 1391              		.loc 2 300 0
 1392 00d0 68EE257A 		vmul.f32	s15, s16, s11
 1393              		.loc 2 301 0
 1394 00d4 28EE058A 		vmul.f32	s16, s16, s10
 1395              	.LVL127:
 1396              		.loc 2 300 0
 1397 00d8 E5EE477A 		vfms.f32	s15, s10, s14
 1398              		.loc 2 301 0
 1399 00dc A5EE878A 		vfma.f32	s16, s11, s14
 1400              		.loc 2 299 0
 1401 00e0 E5EE076A 		vfma.f32	s13, s10, s14
 1402              		.loc 2 298 0
 1403 00e4 A5EEC76A 		vfms.f32	s12, s11, s14
 1404              	.LBE268:
 1405              	.LBE267:
 1406              		.loc 1 273 0
 1407 00e8 B1EE400A 		vneg.f32	s0, s0
 1408              	.LVL128:
 1409              	.LBB270:
 1410              	.LBB269:
 1411              		.loc 2 300 0
 1412 00ec 77EE837A 		vadd.f32	s15, s15, s6
 1413              		.loc 2 301 0
 1414 00f0 38EE638A 		vsub.f32	s16, s16, s7
 1415              		.loc 2 299 0
 1416 00f4 B0EE667A 		vmov.f32	s14, s13
 1417              		.loc 2 298 0
 1418 00f8 F1EE406A 		vneg.f32	s13, s0
 1419 00fc A6EE856A 		vfma.f32	s12, s13, s10
 1420              		.loc 2 299 0
 1421 0100 A6EEA57A 		vfma.f32	s14, s13, s11
 1422              		.loc 2 300 0
 1423 0104 E0EE047A 		vfma.f32	s15, s0, s8
 1424              		.loc 2 301 0
 1425 0108 A0EE248A 		vfma.f32	s16, s0, s9
ARM GAS  /tmp/cc9GNGqx.s 			page 26


 1426              	.LBE269:
 1427              	.LBE270:
 1428              		.loc 1 275 0
 1429 010c 84ED046A 		vstr.32	s12, [r4, #16]
 1430 0110 84ED057A 		vstr.32	s14, [r4, #20]
 1431 0114 C4ED067A 		vstr.32	s15, [r4, #24]
 1432 0118 84ED078A 		vstr.32	s16, [r4, #28]
 1433              	.LVL129:
 1434              		.loc 1 277 0
 1435 011c 02B0     		add	sp, sp, #8
 1436              		.cfi_remember_state
 1437              		.cfi_def_cfa_offset 32
 1438              		@ sp needed
 1439 011e BDEC068B 		vldm	sp!, {d8-d10}
 1440              		.cfi_restore 84
 1441              		.cfi_restore 85
 1442              		.cfi_restore 82
 1443              		.cfi_restore 83
 1444              		.cfi_restore 80
 1445              		.cfi_restore 81
 1446              		.cfi_def_cfa_offset 8
 1447 0122 10BD     		pop	{r4, pc}
 1448              	.LVL130:
 1449              	.L47:
 1450              		.cfi_restore_state
 1451 0124 8DED017A 		vstr.32	s14, [sp, #4]	@ int
 1452              	.LBB271:
 1453              	.LBB262:
 1454              		.loc 2 349 0
 1455 0128 FFF7FEFF 		bl	sqrtf
 1456              	.LVL131:
 1457 012c 9DED017A 		vldr.32	s14, [sp, #4]	@ int
 1458 0130 86E7     		b	.L45
 1459              	.L49:
 1460 0132 00BF     		.align	2
 1461              	.L48:
 1462 0134 35FA8E3C 		.word	1016003125
 1463 0138 00000000 		.word	0
 1464              	.LBE262:
 1465              	.LBE271:
 1466              		.cfi_endproc
 1467              	.LFE252:
 1468              		.size	FusionAhrsSetYaw, .-FusionAhrsSetYaw
 1469              		.text
 1470              	.Letext0:
 1471              		.file 3 "/usr/arm-none-eabi/include/machine/_default_types.h"
 1472              		.file 4 "/usr/arm-none-eabi/include/sys/lock.h"
 1473              		.file 5 "/usr/arm-none-eabi/include/sys/_types.h"
 1474              		.file 6 "/usr/lib/gcc/arm-none-eabi/7.3.1/include/stddef.h"
 1475              		.file 7 "/usr/arm-none-eabi/include/sys/reent.h"
 1476              		.file 8 "/usr/arm-none-eabi/include/math.h"
 1477              		.file 9 "/usr/arm-none-eabi/include/sys/_stdint.h"
 1478              		.file 10 "imu/Fusion/FusionAhrs.h"
 1479              		.file 11 "ChibiOS_3.0.5/os/rt/ports/ARMCMx/compilers/GCC/chtypes.h"
 1480              		.file 12 "ChibiOS_3.0.5/os/rt/include/chsystypes.h"
 1481              		.file 13 "ChibiOS_3.0.5/os/rt/include/chschd.h"
 1482              		.file 14 "ChibiOS_3.0.5/os/ext/CMSIS/include/core_cm4.h"
ARM GAS  /tmp/cc9GNGqx.s 			page 27


 1483              		.file 15 "ChibiOS_3.0.5/os/ext/CMSIS/ST/system_stm32f4xx.h"
 1484              		.file 16 "ChibiOS_3.0.5/os/rt/ports/ARMCMx/chcore.h"
 1485              		.file 17 "ChibiOS_3.0.5/os/rt/ports/ARMCMx/chcore_v7m.h"
 1486              		.file 18 "ChibiOS_3.0.5/os/rt/include/chtm.h"
 1487              		.file 19 "ChibiOS_3.0.5/os/rt/include/chsem.h"
 1488              		.file 20 "ChibiOS_3.0.5/os/rt/include/chmtx.h"
 1489              		.file 21 "ChibiOS_3.0.5/os/rt/include/chregistry.h"
 1490              		.file 22 "./utils.h"