ARM GAS  /tmp/ccv5PwI2.s 			page 1


   1              		.cpu cortex-m4
   2              		.eabi_attribute 27, 1
   3              		.eabi_attribute 28, 1
   4              		.eabi_attribute 20, 1
   5              		.eabi_attribute 21, 1
   6              		.eabi_attribute 23, 3
   7              		.eabi_attribute 24, 1
   8              		.eabi_attribute 25, 1
   9              		.eabi_attribute 26, 1
  10              		.eabi_attribute 30, 2
  11              		.eabi_attribute 34, 1
  12              		.eabi_attribute 18, 4
  13              		.file	"FusionCompass.c"
  14              		.text
  15              	.Ltext0:
  16              		.cfi_sections	.debug_frame
  17              		.section	.text.FusionCompassCalculateHeading,"ax",%progbits
  18              		.align	1
  19              		.p2align 4,,15
  20              		.global	FusionCompassCalculateHeading
  21              		.syntax unified
  22              		.thumb
  23              		.thumb_func
  24              		.fpu fpv4-sp-d16
  25              		.type	FusionCompassCalculateHeading, %function
  26              	FusionCompassCalculateHeading:
  27              	.LFB22:
  28              		.file 1 "imu/Fusion/FusionCompass.c"
  29              		.loc 1 24 0
  30              		.cfi_startproc
  31              		@ args = 0, pretend = 0, frame = 40
  32              		@ frame_needed = 0, uses_anonymous_args = 0
  33 0000 00B5     		push	{lr}
  34              		.cfi_def_cfa_offset 4
  35              		.cfi_offset 14, -4
  36 0002 2DED048B 		vpush.64	{d8, d9}
  37              		.cfi_def_cfa_offset 20
  38              		.cfi_offset 80, -20
  39              		.cfi_offset 81, -16
  40              		.cfi_offset 82, -12
  41              		.cfi_offset 83, -8
  42              	.LBB30:
  43              	.LBB31:
  44              		.file 2 "imu/Fusion/FusionTypes.h"
  45              		.loc 2 222 0
  46 0006 20EE628A 		vnmul.f32	s16, s0, s5
  47              		.loc 2 221 0
  48 000a 62EE418A 		vnmul.f32	s17, s4, s2
  49              		.loc 2 222 0
  50 000e A1EE218A 		vfma.f32	s16, s2, s3
  51              	.LBE31:
  52              	.LBE30:
  53              		.loc 1 24 0
  54 0012 8BB0     		sub	sp, sp, #44
  55              		.cfi_def_cfa_offset 64
  56              	.LBB35:
  57              	.LBB32:
ARM GAS  /tmp/ccv5PwI2.s 			page 2


  58              		.loc 2 221 0
  59 0014 E2EEA08A 		vfma.f32	s17, s5, s1
  60              	.LBE32:
  61              	.LBE35:
  62              		.loc 1 24 0
  63 0018 F0EE409A 		vmov.f32	s19, s0
  64              	.LVL0:
  65              	.LBB36:
  66              	.LBB33:
  67              		.loc 2 223 0
  68 001c 60EEE11A 		vnmul.f32	s3, s1, s3
  69              	.LVL1:
  70              	.LBE33:
  71              	.LBE36:
  72              	.LBB37:
  73              	.LBB38:
  74              	.LBB39:
  75              	.LBB40:
  76              		.loc 2 236 0
  77 0020 28EE080A 		vmul.f32	s0, s16, s16
  78              	.LVL2:
  79              	.LBE40:
  80              	.LBE39:
  81              	.LBE38:
  82              	.LBE37:
  83              	.LBB52:
  84              	.LBB34:
  85              		.loc 2 223 0
  86 0024 E2EE291A 		vfma.f32	s3, s4, s19
  87              	.LVL3:
  88              	.LBE34:
  89              	.LBE52:
  90              	.LBB53:
  91              	.LBB49:
  92              	.LBB42:
  93              	.LBB41:
  94              		.loc 2 236 0
  95 0028 A8EEA80A 		vfma.f32	s0, s17, s17
  96 002c A1EEA10A 		vfma.f32	s0, s3, s3
  97              	.LVL4:
  98              	.LBE41:
  99              	.LBE42:
 100              	.LBB43:
 101              	.LBB44:
 102              		.loc 2 145 0
 103 0030 B5EE400A 		vcmp.f32	s0, #0
 104 0034 F1EE10FA 		vmrs	APSR_nzcv, FPSCR
 105 0038 2FD1     		bne	.L8
 106              	.LVL5:
 107              	.L2:
 108              	.LBE44:
 109              	.LBE43:
 110              	.LBE49:
 111              	.LBE53:
 112              	.LBB54:
 113              	.LBB55:
 114              		.loc 2 222 0
ARM GAS  /tmp/ccv5PwI2.s 			page 3


 115 003a 28EEC10A 		vnmul.f32	s0, s17, s2
 116              		.loc 2 221 0
 117 003e 21EEE09A 		vnmul.f32	s18, s3, s1
 118              		.loc 2 222 0
 119 0042 A9EEA10A 		vfma.f32	s0, s19, s3
 120              		.loc 2 221 0
 121 0046 A1EE089A 		vfma.f32	s18, s2, s16
 122              	.LVL6:
 123              	.LBE55:
 124              	.LBE54:
 125              	.LBB58:
 126              	.LBB59:
 127              	.LBB60:
 128              	.LBB61:
 129              		.loc 2 236 0
 130 004a 20EE000A 		vmul.f32	s0, s0, s0
 131              	.LBE61:
 132              	.LBE60:
 133              	.LBE59:
 134              	.LBE58:
 135              	.LBB76:
 136              	.LBB56:
 137              		.loc 2 223 0
 138 004e 28EE698A 		vnmul.f32	s16, s16, s19
 139              	.LVL7:
 140              	.LBE56:
 141              	.LBE76:
 142              	.LBB77:
 143              	.LBB72:
 144              	.LBB64:
 145              	.LBB62:
 146              		.loc 2 236 0
 147 0052 A9EE090A 		vfma.f32	s0, s18, s18
 148              	.LBE62:
 149              	.LBE64:
 150              	.LBE72:
 151              	.LBE77:
 152              	.LBB78:
 153              	.LBB57:
 154              		.loc 2 223 0
 155 0056 A0EEA88A 		vfma.f32	s16, s1, s17
 156              	.LVL8:
 157              	.LBE57:
 158              	.LBE78:
 159              	.LBB79:
 160              	.LBB73:
 161              	.LBB65:
 162              	.LBB63:
 163              		.loc 2 236 0
 164 005a A8EE080A 		vfma.f32	s0, s16, s16
 165              	.LVL9:
 166              	.LBE63:
 167              	.LBE65:
 168              	.LBB66:
 169              	.LBB67:
 170              		.loc 2 145 0
 171 005e B5EE400A 		vcmp.f32	s0, #0
ARM GAS  /tmp/ccv5PwI2.s 			page 4


 172 0062 F1EE10FA 		vmrs	APSR_nzcv, FPSCR
 173 0066 0ED1     		bne	.L9
 174              	.LVL10:
 175              	.L4:
 176              	.LBE67:
 177              	.LBE66:
 178              	.LBE73:
 179              	.LBE79:
 180              		.loc 1 33 0
 181 0068 F0EE490A 		vmov.f32	s1, s18
 182 006c B0EE680A 		vmov.f32	s0, s17
 183 0070 FFF7FEFF 		bl	atan2f
 184              	.LVL11:
 185              	.LBB80:
 186              	.LBB81:
 187              		.loc 2 132 0
 188 0074 DFED197A 		vldr.32	s15, .L12
 189              	.LBE81:
 190              	.LBE80:
 191              		.loc 1 34 0
 192 0078 20EE270A 		vmul.f32	s0, s0, s15
 193 007c 0BB0     		add	sp, sp, #44
 194              		.cfi_remember_state
 195              		.cfi_def_cfa_offset 20
 196              		@ sp needed
 197 007e BDEC048B 		vldm	sp!, {d8-d9}
 198              		.cfi_restore 82
 199              		.cfi_restore 83
 200              		.cfi_restore 80
 201              		.cfi_restore 81
 202              		.cfi_def_cfa_offset 4
 203              	.LVL12:
 204 0082 5DF804FB 		ldr	pc, [sp], #4
 205              	.LVL13:
 206              	.L9:
 207              		.cfi_restore_state
 208              	.LBB82:
 209              	.LBB74:
 210              	.LBB70:
 211              	.LBB68:
 212              		.loc 2 148 0
 213 0086 B1EEC08A 		vsqrt.f32	s16, s0
 214              	.LVL14:
 215 008a 14D4     		bmi	.L10
 216              	.LVL15:
 217              	.L5:
 218 008c B7EE007A 		vmov.f32	s14, #1.0e+0
 219 0090 C7EE087A 		vdiv.f32	s15, s14, s16
 220 0094 29EE279A 		vmul.f32	s18, s18, s15
 221              	.LVL16:
 222 0098 E6E7     		b	.L4
 223              	.LVL17:
 224              	.L8:
 225              	.LBE68:
 226              	.LBE70:
 227              	.LBE74:
 228              	.LBE82:
ARM GAS  /tmp/ccv5PwI2.s 			page 5


 229              	.LBB83:
 230              	.LBB50:
 231              	.LBB47:
 232              	.LBB45:
 233 009a B1EEC09A 		vsqrt.f32	s18, s0
 234 009e 0DD4     		bmi	.L11
 235              	.LVL18:
 236              	.L3:
 237 00a0 B7EE007A 		vmov.f32	s14, #1.0e+0
 238 00a4 C7EE097A 		vdiv.f32	s15, s14, s18
 239 00a8 68EEA78A 		vmul.f32	s17, s17, s15
 240              	.LVL19:
 241 00ac 28EE278A 		vmul.f32	s16, s16, s15
 242              	.LVL20:
 243 00b0 61EEA71A 		vmul.f32	s3, s3, s15
 244 00b4 C1E7     		b	.L2
 245              	.LVL21:
 246              	.L10:
 247              	.LBE45:
 248              	.LBE47:
 249              	.LBE50:
 250              	.LBE83:
 251              	.LBB84:
 252              	.LBB75:
 253              	.LBB71:
 254              	.LBB69:
 255 00b6 FFF7FEFF 		bl	sqrtf
 256              	.LVL22:
 257 00ba E7E7     		b	.L5
 258              	.LVL23:
 259              	.L11:
 260 00bc 8DED031A 		vstr.32	s2, [sp, #12]	@ int
 261 00c0 CDED020A 		vstr.32	s1, [sp, #8]	@ int
 262 00c4 CDED011A 		vstr.32	s3, [sp, #4]	@ int
 263              	.LBE69:
 264              	.LBE71:
 265              	.LBE75:
 266              	.LBE84:
 267              	.LBB85:
 268              	.LBB51:
 269              	.LBB48:
 270              	.LBB46:
 271 00c8 FFF7FEFF 		bl	sqrtf
 272              	.LVL24:
 273 00cc 9DED031A 		vldr.32	s2, [sp, #12]	@ int
 274 00d0 DDED020A 		vldr.32	s1, [sp, #8]	@ int
 275 00d4 DDED011A 		vldr.32	s3, [sp, #4]	@ int
 276 00d8 E2E7     		b	.L3
 277              	.L13:
 278 00da 00BF     		.align	2
 279              	.L12:
 280 00dc E02E6542 		.word	1113927392
 281              	.LBE46:
 282              	.LBE48:
 283              	.LBE51:
 284              	.LBE85:
 285              		.cfi_endproc
ARM GAS  /tmp/ccv5PwI2.s 			page 6


 286              	.LFE22:
 287              		.size	FusionCompassCalculateHeading, .-FusionCompassCalculateHeading
 288              		.text
 289              	.Letext0:
 290              		.file 3 "/usr/arm-none-eabi/include/sys/lock.h"
 291              		.file 4 "/usr/arm-none-eabi/include/sys/_types.h"
 292              		.file 5 "/usr/lib/gcc/arm-none-eabi/7.3.1/include/stddef.h"
 293              		.file 6 "/usr/arm-none-eabi/include/sys/reent.h"
 294              		.file 7 "/usr/arm-none-eabi/include/math.h"
 295              		.section	.debug_info,"",%progbits
 296              	.Ldebug_info0:
 297 0000 D90B0000 		.4byte	0xbd9
 298 0004 0400     		.2byte	0x4
 299 0006 00000000 		.4byte	.Ldebug_abbrev0
 300 000a 04       		.byte	0x4
 301 000b 01       		.uleb128 0x1
 302 000c 63000000 		.4byte	.LASF149
 303 0010 0C       		.byte	0xc
 304 0011 23030000 		.4byte	.LASF150
 305 0015 44000000 		.4byte	.LASF151
 306 0019 18010000 		.4byte	.Ldebug_ranges0+0x118
 307 001d 00000000 		.4byte	0
 308 0021 00000000 		.4byte	.Ldebug_line0
 309 0025 02       		.uleb128 0x2
 310 0026 04       		.byte	0x4
 311 0027 04       		.byte	0x4
 312 0028 AF040000 		.4byte	.LASF0
 313 002c 03       		.uleb128 0x3
 314 002d 04       		.byte	0x4
 315 002e 05       		.byte	0x5
 316 002f 696E7400 		.ascii	"int\000"
 317 0033 02       		.uleb128 0x2
 318 0034 04       		.byte	0x4
 319 0035 07       		.byte	0x7
 320 0036 81030000 		.4byte	.LASF1
 321 003a 02       		.uleb128 0x2
 322 003b 01       		.byte	0x1
 323 003c 06       		.byte	0x6
 324 003d 3D020000 		.4byte	.LASF2
 325 0041 02       		.uleb128 0x2
 326 0042 01       		.byte	0x1
 327 0043 08       		.byte	0x8
 328 0044 01050000 		.4byte	.LASF3
 329 0048 02       		.uleb128 0x2
 330 0049 02       		.byte	0x2
 331 004a 05       		.byte	0x5
 332 004b 1D050000 		.4byte	.LASF4
 333 004f 02       		.uleb128 0x2
 334 0050 02       		.byte	0x2
 335 0051 07       		.byte	0x7
 336 0052 D8030000 		.4byte	.LASF5
 337 0056 02       		.uleb128 0x2
 338 0057 04       		.byte	0x4
 339 0058 05       		.byte	0x5
 340 0059 9E020000 		.4byte	.LASF6
 341 005d 02       		.uleb128 0x2
 342 005e 04       		.byte	0x4
ARM GAS  /tmp/ccv5PwI2.s 			page 7


 343 005f 07       		.byte	0x7
 344 0060 A5030000 		.4byte	.LASF7
 345 0064 02       		.uleb128 0x2
 346 0065 08       		.byte	0x8
 347 0066 05       		.byte	0x5
 348 0067 2F020000 		.4byte	.LASF8
 349 006b 02       		.uleb128 0x2
 350 006c 08       		.byte	0x8
 351 006d 07       		.byte	0x7
 352 006e A7010000 		.4byte	.LASF9
 353 0072 04       		.uleb128 0x4
 354 0073 1B040000 		.4byte	.LASF10
 355 0077 03       		.byte	0x3
 356 0078 22       		.byte	0x22
 357 0079 7D000000 		.4byte	0x7d
 358 007d 05       		.uleb128 0x5
 359 007e 04       		.byte	0x4
 360 007f 83000000 		.4byte	0x83
 361 0083 06       		.uleb128 0x6
 362 0084 E6050000 		.4byte	.LASF117
 363 0088 04       		.uleb128 0x4
 364 0089 A8040000 		.4byte	.LASF11
 365 008d 04       		.byte	0x4
 366 008e 2C       		.byte	0x2c
 367 008f 56000000 		.4byte	0x56
 368 0093 04       		.uleb128 0x4
 369 0094 15060000 		.4byte	.LASF12
 370 0098 04       		.byte	0x4
 371 0099 72       		.byte	0x72
 372 009a 56000000 		.4byte	0x56
 373 009e 07       		.uleb128 0x7
 374 009f 28040000 		.4byte	.LASF13
 375 00a3 05       		.byte	0x5
 376 00a4 6501     		.2byte	0x165
 377 00a6 33000000 		.4byte	0x33
 378 00aa 08       		.uleb128 0x8
 379 00ab 04       		.byte	0x4
 380 00ac 04       		.byte	0x4
 381 00ad A6       		.byte	0xa6
 382 00ae C9000000 		.4byte	0xc9
 383 00b2 09       		.uleb128 0x9
 384 00b3 15040000 		.4byte	.LASF14
 385 00b7 04       		.byte	0x4
 386 00b8 A8       		.byte	0xa8
 387 00b9 9E000000 		.4byte	0x9e
 388 00bd 09       		.uleb128 0x9
 389 00be 8E030000 		.4byte	.LASF15
 390 00c2 04       		.byte	0x4
 391 00c3 A9       		.byte	0xa9
 392 00c4 C9000000 		.4byte	0xc9
 393 00c8 00       		.byte	0
 394 00c9 0A       		.uleb128 0xa
 395 00ca 41000000 		.4byte	0x41
 396 00ce D9000000 		.4byte	0xd9
 397 00d2 0B       		.uleb128 0xb
 398 00d3 33000000 		.4byte	0x33
 399 00d7 03       		.byte	0x3
ARM GAS  /tmp/ccv5PwI2.s 			page 8


 400 00d8 00       		.byte	0
 401 00d9 0C       		.uleb128 0xc
 402 00da 08       		.byte	0x8
 403 00db 04       		.byte	0x4
 404 00dc A3       		.byte	0xa3
 405 00dd FA000000 		.4byte	0xfa
 406 00e1 0D       		.uleb128 0xd
 407 00e2 DE050000 		.4byte	.LASF16
 408 00e6 04       		.byte	0x4
 409 00e7 A5       		.byte	0xa5
 410 00e8 2C000000 		.4byte	0x2c
 411 00ec 00       		.byte	0
 412 00ed 0D       		.uleb128 0xd
 413 00ee ED050000 		.4byte	.LASF17
 414 00f2 04       		.byte	0x4
 415 00f3 AA       		.byte	0xaa
 416 00f4 AA000000 		.4byte	0xaa
 417 00f8 04       		.byte	0x4
 418 00f9 00       		.byte	0
 419 00fa 04       		.uleb128 0x4
 420 00fb 52050000 		.4byte	.LASF18
 421 00ff 04       		.byte	0x4
 422 0100 AB       		.byte	0xab
 423 0101 D9000000 		.4byte	0xd9
 424 0105 04       		.uleb128 0x4
 425 0106 44030000 		.4byte	.LASF19
 426 010a 04       		.byte	0x4
 427 010b AF       		.byte	0xaf
 428 010c 72000000 		.4byte	0x72
 429 0110 0E       		.uleb128 0xe
 430 0111 04       		.byte	0x4
 431 0112 05       		.uleb128 0x5
 432 0113 04       		.byte	0x4
 433 0114 18010000 		.4byte	0x118
 434 0118 02       		.uleb128 0x2
 435 0119 01       		.byte	0x1
 436 011a 08       		.byte	0x8
 437 011b 24060000 		.4byte	.LASF20
 438 011f 0F       		.uleb128 0xf
 439 0120 18010000 		.4byte	0x118
 440 0124 04       		.uleb128 0x4
 441 0125 67060000 		.4byte	.LASF21
 442 0129 06       		.byte	0x6
 443 012a 16       		.byte	0x16
 444 012b 5D000000 		.4byte	0x5d
 445 012f 10       		.uleb128 0x10
 446 0130 55030000 		.4byte	.LASF26
 447 0134 18       		.byte	0x18
 448 0135 06       		.byte	0x6
 449 0136 2F       		.byte	0x2f
 450 0137 82010000 		.4byte	0x182
 451 013b 0D       		.uleb128 0xd
 452 013c 38060000 		.4byte	.LASF22
 453 0140 06       		.byte	0x6
 454 0141 31       		.byte	0x31
 455 0142 82010000 		.4byte	0x182
 456 0146 00       		.byte	0
ARM GAS  /tmp/ccv5PwI2.s 			page 9


 457 0147 11       		.uleb128 0x11
 458 0148 5F6B00   		.ascii	"_k\000"
 459 014b 06       		.byte	0x6
 460 014c 32       		.byte	0x32
 461 014d 2C000000 		.4byte	0x2c
 462 0151 04       		.byte	0x4
 463 0152 0D       		.uleb128 0xd
 464 0153 BB050000 		.4byte	.LASF23
 465 0157 06       		.byte	0x6
 466 0158 32       		.byte	0x32
 467 0159 2C000000 		.4byte	0x2c
 468 015d 08       		.byte	0x8
 469 015e 0D       		.uleb128 0xd
 470 015f 3E030000 		.4byte	.LASF24
 471 0163 06       		.byte	0x6
 472 0164 32       		.byte	0x32
 473 0165 2C000000 		.4byte	0x2c
 474 0169 0C       		.byte	0xc
 475 016a 0D       		.uleb128 0xd
 476 016b BB060000 		.4byte	.LASF25
 477 016f 06       		.byte	0x6
 478 0170 32       		.byte	0x32
 479 0171 2C000000 		.4byte	0x2c
 480 0175 10       		.byte	0x10
 481 0176 11       		.uleb128 0x11
 482 0177 5F7800   		.ascii	"_x\000"
 483 017a 06       		.byte	0x6
 484 017b 33       		.byte	0x33
 485 017c 88010000 		.4byte	0x188
 486 0180 14       		.byte	0x14
 487 0181 00       		.byte	0
 488 0182 05       		.uleb128 0x5
 489 0183 04       		.byte	0x4
 490 0184 2F010000 		.4byte	0x12f
 491 0188 0A       		.uleb128 0xa
 492 0189 24010000 		.4byte	0x124
 493 018d 98010000 		.4byte	0x198
 494 0191 0B       		.uleb128 0xb
 495 0192 33000000 		.4byte	0x33
 496 0196 00       		.byte	0
 497 0197 00       		.byte	0
 498 0198 10       		.uleb128 0x10
 499 0199 7C030000 		.4byte	.LASF27
 500 019d 24       		.byte	0x24
 501 019e 06       		.byte	0x6
 502 019f 37       		.byte	0x37
 503 01a0 11020000 		.4byte	0x211
 504 01a4 0D       		.uleb128 0xd
 505 01a5 26020000 		.4byte	.LASF28
 506 01a9 06       		.byte	0x6
 507 01aa 39       		.byte	0x39
 508 01ab 2C000000 		.4byte	0x2c
 509 01af 00       		.byte	0
 510 01b0 0D       		.uleb128 0xd
 511 01b1 29060000 		.4byte	.LASF29
 512 01b5 06       		.byte	0x6
 513 01b6 3A       		.byte	0x3a
ARM GAS  /tmp/ccv5PwI2.s 			page 10


 514 01b7 2C000000 		.4byte	0x2c
 515 01bb 04       		.byte	0x4
 516 01bc 0D       		.uleb128 0xd
 517 01bd 62020000 		.4byte	.LASF30
 518 01c1 06       		.byte	0x6
 519 01c2 3B       		.byte	0x3b
 520 01c3 2C000000 		.4byte	0x2c
 521 01c7 08       		.byte	0x8
 522 01c8 0D       		.uleb128 0xd
 523 01c9 5B070000 		.4byte	.LASF31
 524 01cd 06       		.byte	0x6
 525 01ce 3C       		.byte	0x3c
 526 01cf 2C000000 		.4byte	0x2c
 527 01d3 0C       		.byte	0xc
 528 01d4 0D       		.uleb128 0xd
 529 01d5 8C040000 		.4byte	.LASF32
 530 01d9 06       		.byte	0x6
 531 01da 3D       		.byte	0x3d
 532 01db 2C000000 		.4byte	0x2c
 533 01df 10       		.byte	0x10
 534 01e0 0D       		.uleb128 0xd
 535 01e1 65040000 		.4byte	.LASF33
 536 01e5 06       		.byte	0x6
 537 01e6 3E       		.byte	0x3e
 538 01e7 2C000000 		.4byte	0x2c
 539 01eb 14       		.byte	0x14
 540 01ec 0D       		.uleb128 0xd
 541 01ed C0060000 		.4byte	.LASF34
 542 01f1 06       		.byte	0x6
 543 01f2 3F       		.byte	0x3f
 544 01f3 2C000000 		.4byte	0x2c
 545 01f7 18       		.byte	0x18
 546 01f8 0D       		.uleb128 0xd
 547 01f9 27050000 		.4byte	.LASF35
 548 01fd 06       		.byte	0x6
 549 01fe 40       		.byte	0x40
 550 01ff 2C000000 		.4byte	0x2c
 551 0203 1C       		.byte	0x1c
 552 0204 0D       		.uleb128 0xd
 553 0205 0B070000 		.4byte	.LASF36
 554 0209 06       		.byte	0x6
 555 020a 41       		.byte	0x41
 556 020b 2C000000 		.4byte	0x2c
 557 020f 20       		.byte	0x20
 558 0210 00       		.byte	0
 559 0211 12       		.uleb128 0x12
 560 0212 79020000 		.4byte	.LASF37
 561 0216 0801     		.2byte	0x108
 562 0218 06       		.byte	0x6
 563 0219 4A       		.byte	0x4a
 564 021a 51020000 		.4byte	0x251
 565 021e 0D       		.uleb128 0xd
 566 021f 10030000 		.4byte	.LASF38
 567 0223 06       		.byte	0x6
 568 0224 4B       		.byte	0x4b
 569 0225 51020000 		.4byte	0x251
 570 0229 00       		.byte	0
ARM GAS  /tmp/ccv5PwI2.s 			page 11


 571 022a 0D       		.uleb128 0xd
 572 022b 00000000 		.4byte	.LASF39
 573 022f 06       		.byte	0x6
 574 0230 4C       		.byte	0x4c
 575 0231 51020000 		.4byte	0x251
 576 0235 80       		.byte	0x80
 577 0236 13       		.uleb128 0x13
 578 0237 59060000 		.4byte	.LASF40
 579 023b 06       		.byte	0x6
 580 023c 4E       		.byte	0x4e
 581 023d 24010000 		.4byte	0x124
 582 0241 0001     		.2byte	0x100
 583 0243 13       		.uleb128 0x13
 584 0244 AE020000 		.4byte	.LASF41
 585 0248 06       		.byte	0x6
 586 0249 51       		.byte	0x51
 587 024a 24010000 		.4byte	0x124
 588 024e 0401     		.2byte	0x104
 589 0250 00       		.byte	0
 590 0251 0A       		.uleb128 0xa
 591 0252 10010000 		.4byte	0x110
 592 0256 61020000 		.4byte	0x261
 593 025a 0B       		.uleb128 0xb
 594 025b 33000000 		.4byte	0x33
 595 025f 1F       		.byte	0x1f
 596 0260 00       		.byte	0
 597 0261 12       		.uleb128 0x12
 598 0262 95040000 		.4byte	.LASF42
 599 0266 9001     		.2byte	0x190
 600 0268 06       		.byte	0x6
 601 0269 5D       		.byte	0x5d
 602 026a 9F020000 		.4byte	0x29f
 603 026e 0D       		.uleb128 0xd
 604 026f 38060000 		.4byte	.LASF22
 605 0273 06       		.byte	0x6
 606 0274 5E       		.byte	0x5e
 607 0275 9F020000 		.4byte	0x29f
 608 0279 00       		.byte	0
 609 027a 0D       		.uleb128 0xd
 610 027b 8B050000 		.4byte	.LASF43
 611 027f 06       		.byte	0x6
 612 0280 5F       		.byte	0x5f
 613 0281 2C000000 		.4byte	0x2c
 614 0285 04       		.byte	0x4
 615 0286 0D       		.uleb128 0xd
 616 0287 1E030000 		.4byte	.LASF44
 617 028b 06       		.byte	0x6
 618 028c 61       		.byte	0x61
 619 028d A5020000 		.4byte	0x2a5
 620 0291 08       		.byte	0x8
 621 0292 0D       		.uleb128 0xd
 622 0293 79020000 		.4byte	.LASF37
 623 0297 06       		.byte	0x6
 624 0298 62       		.byte	0x62
 625 0299 11020000 		.4byte	0x211
 626 029d 88       		.byte	0x88
 627 029e 00       		.byte	0
ARM GAS  /tmp/ccv5PwI2.s 			page 12


 628 029f 05       		.uleb128 0x5
 629 02a0 04       		.byte	0x4
 630 02a1 61020000 		.4byte	0x261
 631 02a5 0A       		.uleb128 0xa
 632 02a6 B5020000 		.4byte	0x2b5
 633 02aa B5020000 		.4byte	0x2b5
 634 02ae 0B       		.uleb128 0xb
 635 02af 33000000 		.4byte	0x33
 636 02b3 1F       		.byte	0x1f
 637 02b4 00       		.byte	0
 638 02b5 05       		.uleb128 0x5
 639 02b6 04       		.byte	0x4
 640 02b7 BB020000 		.4byte	0x2bb
 641 02bb 14       		.uleb128 0x14
 642 02bc 10       		.uleb128 0x10
 643 02bd 3E050000 		.4byte	.LASF45
 644 02c1 08       		.byte	0x8
 645 02c2 06       		.byte	0x6
 646 02c3 75       		.byte	0x75
 647 02c4 E1020000 		.4byte	0x2e1
 648 02c8 0D       		.uleb128 0xd
 649 02c9 5C020000 		.4byte	.LASF46
 650 02cd 06       		.byte	0x6
 651 02ce 76       		.byte	0x76
 652 02cf E1020000 		.4byte	0x2e1
 653 02d3 00       		.byte	0
 654 02d4 0D       		.uleb128 0xd
 655 02d5 18030000 		.4byte	.LASF47
 656 02d9 06       		.byte	0x6
 657 02da 77       		.byte	0x77
 658 02db 2C000000 		.4byte	0x2c
 659 02df 04       		.byte	0x4
 660 02e0 00       		.byte	0
 661 02e1 05       		.uleb128 0x5
 662 02e2 04       		.byte	0x4
 663 02e3 41000000 		.4byte	0x41
 664 02e7 10       		.uleb128 0x10
 665 02e8 5D050000 		.4byte	.LASF48
 666 02ec 68       		.byte	0x68
 667 02ed 06       		.byte	0x6
 668 02ee B5       		.byte	0xb5
 669 02ef 11040000 		.4byte	0x411
 670 02f3 11       		.uleb128 0x11
 671 02f4 5F7000   		.ascii	"_p\000"
 672 02f7 06       		.byte	0x6
 673 02f8 B6       		.byte	0xb6
 674 02f9 E1020000 		.4byte	0x2e1
 675 02fd 00       		.byte	0
 676 02fe 11       		.uleb128 0x11
 677 02ff 5F7200   		.ascii	"_r\000"
 678 0302 06       		.byte	0x6
 679 0303 B7       		.byte	0xb7
 680 0304 2C000000 		.4byte	0x2c
 681 0308 04       		.byte	0x4
 682 0309 11       		.uleb128 0x11
 683 030a 5F7700   		.ascii	"_w\000"
 684 030d 06       		.byte	0x6
ARM GAS  /tmp/ccv5PwI2.s 			page 13


 685 030e B8       		.byte	0xb8
 686 030f 2C000000 		.4byte	0x2c
 687 0313 08       		.byte	0x8
 688 0314 0D       		.uleb128 0xd
 689 0315 A7020000 		.4byte	.LASF49
 690 0319 06       		.byte	0x6
 691 031a B9       		.byte	0xb9
 692 031b 48000000 		.4byte	0x48
 693 031f 0C       		.byte	0xc
 694 0320 0D       		.uleb128 0xd
 695 0321 B7030000 		.4byte	.LASF50
 696 0325 06       		.byte	0x6
 697 0326 BA       		.byte	0xba
 698 0327 48000000 		.4byte	0x48
 699 032b 0E       		.byte	0xe
 700 032c 11       		.uleb128 0x11
 701 032d 5F626600 		.ascii	"_bf\000"
 702 0331 06       		.byte	0x6
 703 0332 BB       		.byte	0xbb
 704 0333 BC020000 		.4byte	0x2bc
 705 0337 10       		.byte	0x10
 706 0338 0D       		.uleb128 0xd
 707 0339 CD010000 		.4byte	.LASF51
 708 033d 06       		.byte	0x6
 709 033e BC       		.byte	0xbc
 710 033f 2C000000 		.4byte	0x2c
 711 0343 18       		.byte	0x18
 712 0344 0D       		.uleb128 0xd
 713 0345 8E020000 		.4byte	.LASF52
 714 0349 06       		.byte	0x6
 715 034a C3       		.byte	0xc3
 716 034b 10010000 		.4byte	0x110
 717 034f 1C       		.byte	0x1c
 718 0350 0D       		.uleb128 0xd
 719 0351 6C030000 		.4byte	.LASF53
 720 0355 06       		.byte	0x6
 721 0356 C5       		.byte	0xc5
 722 0357 6C050000 		.4byte	0x56c
 723 035b 20       		.byte	0x20
 724 035c 0D       		.uleb128 0xd
 725 035d 5E040000 		.4byte	.LASF54
 726 0361 06       		.byte	0x6
 727 0362 C7       		.byte	0xc7
 728 0363 96050000 		.4byte	0x596
 729 0367 24       		.byte	0x24
 730 0368 0D       		.uleb128 0xd
 731 0369 F5050000 		.4byte	.LASF55
 732 036d 06       		.byte	0x6
 733 036e CA       		.byte	0xca
 734 036f BA050000 		.4byte	0x5ba
 735 0373 28       		.byte	0x28
 736 0374 0D       		.uleb128 0xd
 737 0375 25070000 		.4byte	.LASF56
 738 0379 06       		.byte	0x6
 739 037a CB       		.byte	0xcb
 740 037b D4050000 		.4byte	0x5d4
 741 037f 2C       		.byte	0x2c
ARM GAS  /tmp/ccv5PwI2.s 			page 14


 742 0380 11       		.uleb128 0x11
 743 0381 5F756200 		.ascii	"_ub\000"
 744 0385 06       		.byte	0x6
 745 0386 CE       		.byte	0xce
 746 0387 BC020000 		.4byte	0x2bc
 747 038b 30       		.byte	0x30
 748 038c 11       		.uleb128 0x11
 749 038d 5F757000 		.ascii	"_up\000"
 750 0391 06       		.byte	0x6
 751 0392 CF       		.byte	0xcf
 752 0393 E1020000 		.4byte	0x2e1
 753 0397 38       		.byte	0x38
 754 0398 11       		.uleb128 0x11
 755 0399 5F757200 		.ascii	"_ur\000"
 756 039d 06       		.byte	0x6
 757 039e D0       		.byte	0xd0
 758 039f 2C000000 		.4byte	0x2c
 759 03a3 3C       		.byte	0x3c
 760 03a4 0D       		.uleb128 0xd
 761 03a5 49020000 		.4byte	.LASF57
 762 03a9 06       		.byte	0x6
 763 03aa D3       		.byte	0xd3
 764 03ab DA050000 		.4byte	0x5da
 765 03af 40       		.byte	0x40
 766 03b0 0D       		.uleb128 0xd
 767 03b1 FD060000 		.4byte	.LASF58
 768 03b5 06       		.byte	0x6
 769 03b6 D4       		.byte	0xd4
 770 03b7 EA050000 		.4byte	0x5ea
 771 03bb 43       		.byte	0x43
 772 03bc 11       		.uleb128 0x11
 773 03bd 5F6C6200 		.ascii	"_lb\000"
 774 03c1 06       		.byte	0x6
 775 03c2 D7       		.byte	0xd7
 776 03c3 BC020000 		.4byte	0x2bc
 777 03c7 44       		.byte	0x44
 778 03c8 0D       		.uleb128 0xd
 779 03c9 CB020000 		.4byte	.LASF59
 780 03cd 06       		.byte	0x6
 781 03ce DA       		.byte	0xda
 782 03cf 2C000000 		.4byte	0x2c
 783 03d3 4C       		.byte	0x4c
 784 03d4 0D       		.uleb128 0xd
 785 03d5 E3020000 		.4byte	.LASF60
 786 03d9 06       		.byte	0x6
 787 03da DB       		.byte	0xdb
 788 03db 88000000 		.4byte	0x88
 789 03df 50       		.byte	0x50
 790 03e0 0D       		.uleb128 0xd
 791 03e1 5D000000 		.4byte	.LASF61
 792 03e5 06       		.byte	0x6
 793 03e6 DE       		.byte	0xde
 794 03e7 2F040000 		.4byte	0x42f
 795 03eb 54       		.byte	0x54
 796 03ec 0D       		.uleb128 0xd
 797 03ed 2F040000 		.4byte	.LASF62
 798 03f1 06       		.byte	0x6
ARM GAS  /tmp/ccv5PwI2.s 			page 15


 799 03f2 E2       		.byte	0xe2
 800 03f3 05010000 		.4byte	0x105
 801 03f7 58       		.byte	0x58
 802 03f8 0D       		.uleb128 0xd
 803 03f9 65050000 		.4byte	.LASF63
 804 03fd 06       		.byte	0x6
 805 03fe E4       		.byte	0xe4
 806 03ff FA000000 		.4byte	0xfa
 807 0403 5C       		.byte	0x5c
 808 0404 0D       		.uleb128 0xd
 809 0405 35040000 		.4byte	.LASF64
 810 0409 06       		.byte	0x6
 811 040a E5       		.byte	0xe5
 812 040b 2C000000 		.4byte	0x2c
 813 040f 64       		.byte	0x64
 814 0410 00       		.byte	0
 815 0411 15       		.uleb128 0x15
 816 0412 2C000000 		.4byte	0x2c
 817 0416 2F040000 		.4byte	0x42f
 818 041a 16       		.uleb128 0x16
 819 041b 2F040000 		.4byte	0x42f
 820 041f 16       		.uleb128 0x16
 821 0420 10010000 		.4byte	0x110
 822 0424 16       		.uleb128 0x16
 823 0425 12010000 		.4byte	0x112
 824 0429 16       		.uleb128 0x16
 825 042a 2C000000 		.4byte	0x2c
 826 042e 00       		.byte	0
 827 042f 05       		.uleb128 0x5
 828 0430 04       		.byte	0x4
 829 0431 3A040000 		.4byte	0x43a
 830 0435 0F       		.uleb128 0xf
 831 0436 2F040000 		.4byte	0x42f
 832 043a 17       		.uleb128 0x17
 833 043b C3050000 		.4byte	.LASF65
 834 043f 2804     		.2byte	0x428
 835 0441 06       		.byte	0x6
 836 0442 6002     		.2byte	0x260
 837 0444 6C050000 		.4byte	0x56c
 838 0448 18       		.uleb128 0x18
 839 0449 1D060000 		.4byte	.LASF66
 840 044d 06       		.byte	0x6
 841 044e 6202     		.2byte	0x262
 842 0450 2C000000 		.4byte	0x2c
 843 0454 00       		.byte	0
 844 0455 18       		.uleb128 0x18
 845 0456 B6020000 		.4byte	.LASF67
 846 045a 06       		.byte	0x6
 847 045b 6702     		.2byte	0x267
 848 045d 41060000 		.4byte	0x641
 849 0461 04       		.byte	0x4
 850 0462 18       		.uleb128 0x18
 851 0463 95030000 		.4byte	.LASF68
 852 0467 06       		.byte	0x6
 853 0468 6702     		.2byte	0x267
 854 046a 41060000 		.4byte	0x641
 855 046e 08       		.byte	0x8
ARM GAS  /tmp/ccv5PwI2.s 			page 16


 856 046f 18       		.uleb128 0x18
 857 0470 4D030000 		.4byte	.LASF69
 858 0474 06       		.byte	0x6
 859 0475 6702     		.2byte	0x267
 860 0477 41060000 		.4byte	0x641
 861 047b 0C       		.byte	0xc
 862 047c 18       		.uleb128 0x18
 863 047d 86050000 		.4byte	.LASF70
 864 0481 06       		.byte	0x6
 865 0482 6902     		.2byte	0x269
 866 0484 2C000000 		.4byte	0x2c
 867 0488 10       		.byte	0x10
 868 0489 18       		.uleb128 0x18
 869 048a 52000000 		.4byte	.LASF71
 870 048e 06       		.byte	0x6
 871 048f 6A02     		.2byte	0x26a
 872 0491 23080000 		.4byte	0x823
 873 0495 14       		.byte	0x14
 874 0496 18       		.uleb128 0x18
 875 0497 A2050000 		.4byte	.LASF72
 876 049b 06       		.byte	0x6
 877 049c 6D02     		.2byte	0x26d
 878 049e 2C000000 		.4byte	0x2c
 879 04a2 30       		.byte	0x30
 880 04a3 18       		.uleb128 0x18
 881 04a4 90050000 		.4byte	.LASF73
 882 04a8 06       		.byte	0x6
 883 04a9 6E02     		.2byte	0x26e
 884 04ab 38080000 		.4byte	0x838
 885 04af 34       		.byte	0x34
 886 04b0 18       		.uleb128 0x18
 887 04b1 9D040000 		.4byte	.LASF74
 888 04b5 06       		.byte	0x6
 889 04b6 7002     		.2byte	0x270
 890 04b8 2C000000 		.4byte	0x2c
 891 04bc 38       		.byte	0x38
 892 04bd 18       		.uleb128 0x18
 893 04be 98050000 		.4byte	.LASF75
 894 04c2 06       		.byte	0x6
 895 04c3 7202     		.2byte	0x272
 896 04c5 49080000 		.4byte	0x849
 897 04c9 3C       		.byte	0x3c
 898 04ca 18       		.uleb128 0x18
 899 04cb 0D040000 		.4byte	.LASF76
 900 04cf 06       		.byte	0x6
 901 04d0 7502     		.2byte	0x275
 902 04d2 82010000 		.4byte	0x182
 903 04d6 40       		.byte	0x40
 904 04d7 18       		.uleb128 0x18
 905 04d8 72030000 		.4byte	.LASF77
 906 04dc 06       		.byte	0x6
 907 04dd 7602     		.2byte	0x276
 908 04df 2C000000 		.4byte	0x2c
 909 04e3 44       		.byte	0x44
 910 04e4 18       		.uleb128 0x18
 911 04e5 47070000 		.4byte	.LASF78
 912 04e9 06       		.byte	0x6
ARM GAS  /tmp/ccv5PwI2.s 			page 17


 913 04ea 7702     		.2byte	0x277
 914 04ec 82010000 		.4byte	0x182
 915 04f0 48       		.byte	0x48
 916 04f1 18       		.uleb128 0x18
 917 04f2 CC040000 		.4byte	.LASF79
 918 04f6 06       		.byte	0x6
 919 04f7 7802     		.2byte	0x278
 920 04f9 4F080000 		.4byte	0x84f
 921 04fd 4C       		.byte	0x4c
 922 04fe 18       		.uleb128 0x18
 923 04ff 9D030000 		.4byte	.LASF80
 924 0503 06       		.byte	0x6
 925 0504 7B02     		.2byte	0x27b
 926 0506 2C000000 		.4byte	0x2c
 927 050a 50       		.byte	0x50
 928 050b 18       		.uleb128 0x18
 929 050c DB020000 		.4byte	.LASF81
 930 0510 06       		.byte	0x6
 931 0511 7C02     		.2byte	0x27c
 932 0513 12010000 		.4byte	0x112
 933 0517 54       		.byte	0x54
 934 0518 18       		.uleb128 0x18
 935 0519 0F050000 		.4byte	.LASF82
 936 051d 06       		.byte	0x6
 937 051e 9F02     		.2byte	0x29f
 938 0520 01080000 		.4byte	0x801
 939 0524 58       		.byte	0x58
 940 0525 19       		.uleb128 0x19
 941 0526 95040000 		.4byte	.LASF42
 942 052a 06       		.byte	0x6
 943 052b A302     		.2byte	0x2a3
 944 052d 9F020000 		.4byte	0x29f
 945 0531 4801     		.2byte	0x148
 946 0533 19       		.uleb128 0x19
 947 0534 EB030000 		.4byte	.LASF83
 948 0538 06       		.byte	0x6
 949 0539 A402     		.2byte	0x2a4
 950 053b 61020000 		.4byte	0x261
 951 053f 4C01     		.2byte	0x14c
 952 0541 19       		.uleb128 0x19
 953 0542 F3060000 		.4byte	.LASF84
 954 0546 06       		.byte	0x6
 955 0547 A802     		.2byte	0x2a8
 956 0549 60080000 		.4byte	0x860
 957 054d DC02     		.2byte	0x2dc
 958 054f 19       		.uleb128 0x19
 959 0550 96020000 		.4byte	.LASF85
 960 0554 06       		.byte	0x6
 961 0555 AD02     		.2byte	0x2ad
 962 0557 06060000 		.4byte	0x606
 963 055b E002     		.2byte	0x2e0
 964 055d 19       		.uleb128 0x19
 965 055e 74020000 		.4byte	.LASF86
 966 0562 06       		.byte	0x6
 967 0563 AF02     		.2byte	0x2af
 968 0565 6C080000 		.4byte	0x86c
 969 0569 EC02     		.2byte	0x2ec
ARM GAS  /tmp/ccv5PwI2.s 			page 18


 970 056b 00       		.byte	0
 971 056c 05       		.uleb128 0x5
 972 056d 04       		.byte	0x4
 973 056e 11040000 		.4byte	0x411
 974 0572 15       		.uleb128 0x15
 975 0573 2C000000 		.4byte	0x2c
 976 0577 90050000 		.4byte	0x590
 977 057b 16       		.uleb128 0x16
 978 057c 2F040000 		.4byte	0x42f
 979 0580 16       		.uleb128 0x16
 980 0581 10010000 		.4byte	0x110
 981 0585 16       		.uleb128 0x16
 982 0586 90050000 		.4byte	0x590
 983 058a 16       		.uleb128 0x16
 984 058b 2C000000 		.4byte	0x2c
 985 058f 00       		.byte	0
 986 0590 05       		.uleb128 0x5
 987 0591 04       		.byte	0x4
 988 0592 1F010000 		.4byte	0x11f
 989 0596 05       		.uleb128 0x5
 990 0597 04       		.byte	0x4
 991 0598 72050000 		.4byte	0x572
 992 059c 15       		.uleb128 0x15
 993 059d 93000000 		.4byte	0x93
 994 05a1 BA050000 		.4byte	0x5ba
 995 05a5 16       		.uleb128 0x16
 996 05a6 2F040000 		.4byte	0x42f
 997 05aa 16       		.uleb128 0x16
 998 05ab 10010000 		.4byte	0x110
 999 05af 16       		.uleb128 0x16
 1000 05b0 93000000 		.4byte	0x93
 1001 05b4 16       		.uleb128 0x16
 1002 05b5 2C000000 		.4byte	0x2c
 1003 05b9 00       		.byte	0
 1004 05ba 05       		.uleb128 0x5
 1005 05bb 04       		.byte	0x4
 1006 05bc 9C050000 		.4byte	0x59c
 1007 05c0 15       		.uleb128 0x15
 1008 05c1 2C000000 		.4byte	0x2c
 1009 05c5 D4050000 		.4byte	0x5d4
 1010 05c9 16       		.uleb128 0x16
 1011 05ca 2F040000 		.4byte	0x42f
 1012 05ce 16       		.uleb128 0x16
 1013 05cf 10010000 		.4byte	0x110
 1014 05d3 00       		.byte	0
 1015 05d4 05       		.uleb128 0x5
 1016 05d5 04       		.byte	0x4
 1017 05d6 C0050000 		.4byte	0x5c0
 1018 05da 0A       		.uleb128 0xa
 1019 05db 41000000 		.4byte	0x41
 1020 05df EA050000 		.4byte	0x5ea
 1021 05e3 0B       		.uleb128 0xb
 1022 05e4 33000000 		.4byte	0x33
 1023 05e8 02       		.byte	0x2
 1024 05e9 00       		.byte	0
 1025 05ea 0A       		.uleb128 0xa
 1026 05eb 41000000 		.4byte	0x41
ARM GAS  /tmp/ccv5PwI2.s 			page 19


 1027 05ef FA050000 		.4byte	0x5fa
 1028 05f3 0B       		.uleb128 0xb
 1029 05f4 33000000 		.4byte	0x33
 1030 05f8 00       		.byte	0
 1031 05f9 00       		.byte	0
 1032 05fa 07       		.uleb128 0x7
 1033 05fb 4B050000 		.4byte	.LASF87
 1034 05ff 06       		.byte	0x6
 1035 0600 1F01     		.2byte	0x11f
 1036 0602 E7020000 		.4byte	0x2e7
 1037 0606 1A       		.uleb128 0x1a
 1038 0607 CA060000 		.4byte	.LASF88
 1039 060b 0C       		.byte	0xc
 1040 060c 06       		.byte	0x6
 1041 060d 2301     		.2byte	0x123
 1042 060f 3B060000 		.4byte	0x63b
 1043 0613 18       		.uleb128 0x18
 1044 0614 38060000 		.4byte	.LASF22
 1045 0618 06       		.byte	0x6
 1046 0619 2501     		.2byte	0x125
 1047 061b 3B060000 		.4byte	0x63b
 1048 061f 00       		.byte	0
 1049 0620 18       		.uleb128 0x18
 1050 0621 BD030000 		.4byte	.LASF89
 1051 0625 06       		.byte	0x6
 1052 0626 2601     		.2byte	0x126
 1053 0628 2C000000 		.4byte	0x2c
 1054 062c 04       		.byte	0x4
 1055 062d 18       		.uleb128 0x18
 1056 062e 45050000 		.4byte	.LASF90
 1057 0632 06       		.byte	0x6
 1058 0633 2701     		.2byte	0x127
 1059 0635 41060000 		.4byte	0x641
 1060 0639 08       		.byte	0x8
 1061 063a 00       		.byte	0
 1062 063b 05       		.uleb128 0x5
 1063 063c 04       		.byte	0x4
 1064 063d 06060000 		.4byte	0x606
 1065 0641 05       		.uleb128 0x5
 1066 0642 04       		.byte	0x4
 1067 0643 FA050000 		.4byte	0x5fa
 1068 0647 1A       		.uleb128 0x1a
 1069 0648 4A000000 		.4byte	.LASF91
 1070 064c 0E       		.byte	0xe
 1071 064d 06       		.byte	0x6
 1072 064e 3F01     		.2byte	0x13f
 1073 0650 7C060000 		.4byte	0x67c
 1074 0654 18       		.uleb128 0x18
 1075 0655 D8050000 		.4byte	.LASF92
 1076 0659 06       		.byte	0x6
 1077 065a 4001     		.2byte	0x140
 1078 065c 7C060000 		.4byte	0x67c
 1079 0660 00       		.byte	0
 1080 0661 18       		.uleb128 0x18
 1081 0662 32060000 		.4byte	.LASF93
 1082 0666 06       		.byte	0x6
 1083 0667 4101     		.2byte	0x141
ARM GAS  /tmp/ccv5PwI2.s 			page 20


 1084 0669 7C060000 		.4byte	0x67c
 1085 066d 06       		.byte	0x6
 1086 066e 18       		.uleb128 0x18
 1087 066f 62060000 		.4byte	.LASF94
 1088 0673 06       		.byte	0x6
 1089 0674 4201     		.2byte	0x142
 1090 0676 4F000000 		.4byte	0x4f
 1091 067a 0C       		.byte	0xc
 1092 067b 00       		.byte	0
 1093 067c 0A       		.uleb128 0xa
 1094 067d 4F000000 		.4byte	0x4f
 1095 0681 8C060000 		.4byte	0x68c
 1096 0685 0B       		.uleb128 0xb
 1097 0686 33000000 		.4byte	0x33
 1098 068a 02       		.byte	0x2
 1099 068b 00       		.byte	0
 1100 068c 1B       		.uleb128 0x1b
 1101 068d D0       		.byte	0xd0
 1102 068e 06       		.byte	0x6
 1103 068f 8002     		.2byte	0x280
 1104 0691 8D070000 		.4byte	0x78d
 1105 0695 18       		.uleb128 0x18
 1106 0696 AE060000 		.4byte	.LASF95
 1107 069a 06       		.byte	0x6
 1108 069b 8202     		.2byte	0x282
 1109 069d 33000000 		.4byte	0x33
 1110 06a1 00       		.byte	0
 1111 06a2 18       		.uleb128 0x18
 1112 06a3 3E060000 		.4byte	.LASF96
 1113 06a7 06       		.byte	0x6
 1114 06a8 8302     		.2byte	0x283
 1115 06aa 12010000 		.4byte	0x112
 1116 06ae 04       		.byte	0x4
 1117 06af 18       		.uleb128 0x18
 1118 06b0 00040000 		.4byte	.LASF97
 1119 06b4 06       		.byte	0x6
 1120 06b5 8402     		.2byte	0x284
 1121 06b7 8D070000 		.4byte	0x78d
 1122 06bb 08       		.byte	0x8
 1123 06bc 18       		.uleb128 0x18
 1124 06bd 16070000 		.4byte	.LASF98
 1125 06c1 06       		.byte	0x6
 1126 06c2 8502     		.2byte	0x285
 1127 06c4 98010000 		.4byte	0x198
 1128 06c8 24       		.byte	0x24
 1129 06c9 18       		.uleb128 0x18
 1130 06ca 5D030000 		.4byte	.LASF99
 1131 06ce 06       		.byte	0x6
 1132 06cf 8602     		.2byte	0x286
 1133 06d1 2C000000 		.4byte	0x2c
 1134 06d5 48       		.byte	0x48
 1135 06d6 18       		.uleb128 0x18
 1136 06d7 6E050000 		.4byte	.LASF100
 1137 06db 06       		.byte	0x6
 1138 06dc 8702     		.2byte	0x287
 1139 06de 6B000000 		.4byte	0x6b
 1140 06e2 50       		.byte	0x50
ARM GAS  /tmp/ccv5PwI2.s 			page 21


 1141 06e3 18       		.uleb128 0x18
 1142 06e4 2C070000 		.4byte	.LASF101
 1143 06e8 06       		.byte	0x6
 1144 06e9 8802     		.2byte	0x288
 1145 06eb 47060000 		.4byte	0x647
 1146 06ef 58       		.byte	0x58
 1147 06f0 18       		.uleb128 0x18
 1148 06f1 79050000 		.4byte	.LASF102
 1149 06f5 06       		.byte	0x6
 1150 06f6 8902     		.2byte	0x289
 1151 06f8 FA000000 		.4byte	0xfa
 1152 06fc 68       		.byte	0x68
 1153 06fd 18       		.uleb128 0x18
 1154 06fe 39070000 		.4byte	.LASF103
 1155 0702 06       		.byte	0x6
 1156 0703 8A02     		.2byte	0x28a
 1157 0705 FA000000 		.4byte	0xfa
 1158 0709 70       		.byte	0x70
 1159 070a 18       		.uleb128 0x18
 1160 070b D6040000 		.4byte	.LASF104
 1161 070f 06       		.byte	0x6
 1162 0710 8B02     		.2byte	0x28b
 1163 0712 FA000000 		.4byte	0xfa
 1164 0716 78       		.byte	0x78
 1165 0717 18       		.uleb128 0x18
 1166 0718 E9060000 		.4byte	.LASF105
 1167 071c 06       		.byte	0x6
 1168 071d 8C02     		.2byte	0x28c
 1169 071f 9D070000 		.4byte	0x79d
 1170 0723 80       		.byte	0x80
 1171 0724 18       		.uleb128 0x18
 1172 0725 F4030000 		.4byte	.LASF106
 1173 0729 06       		.byte	0x6
 1174 072a 8D02     		.2byte	0x28d
 1175 072c AD070000 		.4byte	0x7ad
 1176 0730 88       		.byte	0x88
 1177 0731 18       		.uleb128 0x18
 1178 0732 6F060000 		.4byte	.LASF107
 1179 0736 06       		.byte	0x6
 1180 0737 8E02     		.2byte	0x28e
 1181 0739 2C000000 		.4byte	0x2c
 1182 073d A0       		.byte	0xa0
 1183 073e 18       		.uleb128 0x18
 1184 073f 02030000 		.4byte	.LASF108
 1185 0743 06       		.byte	0x6
 1186 0744 8F02     		.2byte	0x28f
 1187 0746 FA000000 		.4byte	0xfa
 1188 074a A4       		.byte	0xa4
 1189 074b 18       		.uleb128 0x18
 1190 074c FE010000 		.4byte	.LASF109
 1191 0750 06       		.byte	0x6
 1192 0751 9002     		.2byte	0x290
 1193 0753 FA000000 		.4byte	0xfa
 1194 0757 AC       		.byte	0xac
 1195 0758 18       		.uleb128 0x18
 1196 0759 EB020000 		.4byte	.LASF110
 1197 075d 06       		.byte	0x6
ARM GAS  /tmp/ccv5PwI2.s 			page 22


 1198 075e 9102     		.2byte	0x291
 1199 0760 FA000000 		.4byte	0xfa
 1200 0764 B4       		.byte	0xb4
 1201 0765 18       		.uleb128 0x18
 1202 0766 87010000 		.4byte	.LASF111
 1203 076a 06       		.byte	0x6
 1204 076b 9202     		.2byte	0x292
 1205 076d FA000000 		.4byte	0xfa
 1206 0771 BC       		.byte	0xbc
 1207 0772 18       		.uleb128 0x18
 1208 0773 96010000 		.4byte	.LASF112
 1209 0777 06       		.byte	0x6
 1210 0778 9302     		.2byte	0x293
 1211 077a FA000000 		.4byte	0xfa
 1212 077e C4       		.byte	0xc4
 1213 077f 18       		.uleb128 0x18
 1214 0780 14050000 		.4byte	.LASF113
 1215 0784 06       		.byte	0x6
 1216 0785 9402     		.2byte	0x294
 1217 0787 2C000000 		.4byte	0x2c
 1218 078b CC       		.byte	0xcc
 1219 078c 00       		.byte	0
 1220 078d 0A       		.uleb128 0xa
 1221 078e 18010000 		.4byte	0x118
 1222 0792 9D070000 		.4byte	0x79d
 1223 0796 0B       		.uleb128 0xb
 1224 0797 33000000 		.4byte	0x33
 1225 079b 19       		.byte	0x19
 1226 079c 00       		.byte	0
 1227 079d 0A       		.uleb128 0xa
 1228 079e 18010000 		.4byte	0x118
 1229 07a2 AD070000 		.4byte	0x7ad
 1230 07a6 0B       		.uleb128 0xb
 1231 07a7 33000000 		.4byte	0x33
 1232 07ab 07       		.byte	0x7
 1233 07ac 00       		.byte	0
 1234 07ad 0A       		.uleb128 0xa
 1235 07ae 18010000 		.4byte	0x118
 1236 07b2 BD070000 		.4byte	0x7bd
 1237 07b6 0B       		.uleb128 0xb
 1238 07b7 33000000 		.4byte	0x33
 1239 07bb 17       		.byte	0x17
 1240 07bc 00       		.byte	0
 1241 07bd 1B       		.uleb128 0x1b
 1242 07be F0       		.byte	0xf0
 1243 07bf 06       		.byte	0x6
 1244 07c0 9902     		.2byte	0x299
 1245 07c2 E1070000 		.4byte	0x7e1
 1246 07c6 18       		.uleb128 0x18
 1247 07c7 85040000 		.4byte	.LASF114
 1248 07cb 06       		.byte	0x6
 1249 07cc 9C02     		.2byte	0x29c
 1250 07ce E1070000 		.4byte	0x7e1
 1251 07d2 00       		.byte	0
 1252 07d3 18       		.uleb128 0x18
 1253 07d4 E0060000 		.4byte	.LASF115
 1254 07d8 06       		.byte	0x6
ARM GAS  /tmp/ccv5PwI2.s 			page 23


 1255 07d9 9D02     		.2byte	0x29d
 1256 07db F1070000 		.4byte	0x7f1
 1257 07df 78       		.byte	0x78
 1258 07e0 00       		.byte	0
 1259 07e1 0A       		.uleb128 0xa
 1260 07e2 E1020000 		.4byte	0x2e1
 1261 07e6 F1070000 		.4byte	0x7f1
 1262 07ea 0B       		.uleb128 0xb
 1263 07eb 33000000 		.4byte	0x33
 1264 07ef 1D       		.byte	0x1d
 1265 07f0 00       		.byte	0
 1266 07f1 0A       		.uleb128 0xa
 1267 07f2 33000000 		.4byte	0x33
 1268 07f6 01080000 		.4byte	0x801
 1269 07fa 0B       		.uleb128 0xb
 1270 07fb 33000000 		.4byte	0x33
 1271 07ff 1D       		.byte	0x1d
 1272 0800 00       		.byte	0
 1273 0801 1C       		.uleb128 0x1c
 1274 0802 F0       		.byte	0xf0
 1275 0803 06       		.byte	0x6
 1276 0804 7E02     		.2byte	0x27e
 1277 0806 23080000 		.4byte	0x823
 1278 080a 1D       		.uleb128 0x1d
 1279 080b C3050000 		.4byte	.LASF65
 1280 080f 06       		.byte	0x6
 1281 0810 9502     		.2byte	0x295
 1282 0812 8C060000 		.4byte	0x68c
 1283 0816 1D       		.uleb128 0x1d
 1284 0817 03070000 		.4byte	.LASF116
 1285 081b 06       		.byte	0x6
 1286 081c 9E02     		.2byte	0x29e
 1287 081e BD070000 		.4byte	0x7bd
 1288 0822 00       		.byte	0
 1289 0823 0A       		.uleb128 0xa
 1290 0824 18010000 		.4byte	0x118
 1291 0828 33080000 		.4byte	0x833
 1292 082c 0B       		.uleb128 0xb
 1293 082d 33000000 		.4byte	0x33
 1294 0831 18       		.byte	0x18
 1295 0832 00       		.byte	0
 1296 0833 06       		.uleb128 0x6
 1297 0834 DD010000 		.4byte	.LASF118
 1298 0838 05       		.uleb128 0x5
 1299 0839 04       		.byte	0x4
 1300 083a 33080000 		.4byte	0x833
 1301 083e 1E       		.uleb128 0x1e
 1302 083f 49080000 		.4byte	0x849
 1303 0843 16       		.uleb128 0x16
 1304 0844 2F040000 		.4byte	0x42f
 1305 0848 00       		.byte	0
 1306 0849 05       		.uleb128 0x5
 1307 084a 04       		.byte	0x4
 1308 084b 3E080000 		.4byte	0x83e
 1309 084f 05       		.uleb128 0x5
 1310 0850 04       		.byte	0x4
 1311 0851 82010000 		.4byte	0x182
ARM GAS  /tmp/ccv5PwI2.s 			page 24


 1312 0855 1E       		.uleb128 0x1e
 1313 0856 60080000 		.4byte	0x860
 1314 085a 16       		.uleb128 0x16
 1315 085b 2C000000 		.4byte	0x2c
 1316 085f 00       		.byte	0
 1317 0860 05       		.uleb128 0x5
 1318 0861 04       		.byte	0x4
 1319 0862 66080000 		.4byte	0x866
 1320 0866 05       		.uleb128 0x5
 1321 0867 04       		.byte	0x4
 1322 0868 55080000 		.4byte	0x855
 1323 086c 0A       		.uleb128 0xa
 1324 086d FA050000 		.4byte	0x5fa
 1325 0871 7C080000 		.4byte	0x87c
 1326 0875 0B       		.uleb128 0xb
 1327 0876 33000000 		.4byte	0x33
 1328 087a 02       		.byte	0x2
 1329 087b 00       		.byte	0
 1330 087c 1F       		.uleb128 0x1f
 1331 087d FB050000 		.4byte	.LASF119
 1332 0881 06       		.byte	0x6
 1333 0882 2E03     		.2byte	0x32e
 1334 0884 2F040000 		.4byte	0x42f
 1335 0888 1F       		.uleb128 0x1f
 1336 0889 8D060000 		.4byte	.LASF120
 1337 088d 06       		.byte	0x6
 1338 088e 2F03     		.2byte	0x32f
 1339 0890 35040000 		.4byte	0x435
 1340 0894 0F       		.uleb128 0xf
 1341 0895 25000000 		.4byte	0x25
 1342 0899 02       		.uleb128 0x2
 1343 089a 08       		.byte	0x8
 1344 089b 04       		.byte	0x4
 1345 089c D4020000 		.4byte	.LASF121
 1346 08a0 20       		.uleb128 0x20
 1347 08a1 7C060000 		.4byte	.LASF152
 1348 08a5 05       		.byte	0x5
 1349 08a6 01       		.byte	0x1
 1350 08a7 3A000000 		.4byte	0x3a
 1351 08ab 07       		.byte	0x7
 1352 08ac 8202     		.2byte	0x282
 1353 08ae CB080000 		.4byte	0x8cb
 1354 08b2 21       		.uleb128 0x21
 1355 08b3 A0060000 		.4byte	.LASF122
 1356 08b7 7F       		.sleb128 -1
 1357 08b8 22       		.uleb128 0x22
 1358 08b9 BD020000 		.4byte	.LASF123
 1359 08bd 00       		.byte	0
 1360 08be 22       		.uleb128 0x22
 1361 08bf EF010000 		.4byte	.LASF124
 1362 08c3 01       		.byte	0x1
 1363 08c4 22       		.uleb128 0x22
 1364 08c5 BE010000 		.4byte	.LASF125
 1365 08c9 02       		.byte	0x2
 1366 08ca 00       		.byte	0
 1367 08cb 1F       		.uleb128 0x1f
 1368 08cc D0060000 		.4byte	.LASF126
ARM GAS  /tmp/ccv5PwI2.s 			page 25


 1369 08d0 07       		.byte	0x7
 1370 08d1 8D02     		.2byte	0x28d
 1371 08d3 A0080000 		.4byte	0x8a0
 1372 08d7 0C       		.uleb128 0xc
 1373 08d8 0C       		.byte	0xc
 1374 08d9 02       		.byte	0x2
 1375 08da 1C       		.byte	0x1c
 1376 08db FE080000 		.4byte	0x8fe
 1377 08df 11       		.uleb128 0x11
 1378 08e0 7800     		.ascii	"x\000"
 1379 08e2 02       		.byte	0x2
 1380 08e3 1D       		.byte	0x1d
 1381 08e4 25000000 		.4byte	0x25
 1382 08e8 00       		.byte	0
 1383 08e9 11       		.uleb128 0x11
 1384 08ea 7900     		.ascii	"y\000"
 1385 08ec 02       		.byte	0x2
 1386 08ed 1E       		.byte	0x1e
 1387 08ee 25000000 		.4byte	0x25
 1388 08f2 04       		.byte	0x4
 1389 08f3 11       		.uleb128 0x11
 1390 08f4 7A00     		.ascii	"z\000"
 1391 08f6 02       		.byte	0x2
 1392 08f7 1F       		.byte	0x1f
 1393 08f8 25000000 		.4byte	0x25
 1394 08fc 08       		.byte	0x8
 1395 08fd 00       		.byte	0
 1396 08fe 08       		.uleb128 0x8
 1397 08ff 0C       		.byte	0xc
 1398 0900 02       		.byte	0x2
 1399 0901 19       		.byte	0x19
 1400 0902 1D090000 		.4byte	0x91d
 1401 0906 09       		.uleb128 0x9
 1402 0907 FC020000 		.4byte	.LASF127
 1403 090b 02       		.byte	0x2
 1404 090c 1A       		.byte	0x1a
 1405 090d 1D090000 		.4byte	0x91d
 1406 0911 09       		.uleb128 0x9
 1407 0912 23040000 		.4byte	.LASF128
 1408 0916 02       		.byte	0x2
 1409 0917 20       		.byte	0x20
 1410 0918 D7080000 		.4byte	0x8d7
 1411 091c 00       		.byte	0
 1412 091d 0A       		.uleb128 0xa
 1413 091e 25000000 		.4byte	0x25
 1414 0922 2D090000 		.4byte	0x92d
 1415 0926 0B       		.uleb128 0xb
 1416 0927 33000000 		.4byte	0x33
 1417 092b 02       		.byte	0x2
 1418 092c 00       		.byte	0
 1419 092d 04       		.uleb128 0x4
 1420 092e 4B060000 		.4byte	.LASF129
 1421 0932 02       		.byte	0x2
 1422 0933 21       		.byte	0x21
 1423 0934 FE080000 		.4byte	0x8fe
 1424 0938 0F       		.uleb128 0xf
 1425 0939 2D090000 		.4byte	0x92d
ARM GAS  /tmp/ccv5PwI2.s 			page 26


 1426 093d 23       		.uleb128 0x23
 1427 093e 0C000000 		.4byte	.LASF153
 1428 0942 01       		.byte	0x1
 1429 0943 18       		.byte	0x18
 1430 0944 25000000 		.4byte	0x25
 1431 0948 00000000 		.4byte	.LFB22
 1432 094c E0000000 		.4byte	.LFE22-.LFB22
 1433 0950 01       		.uleb128 0x1
 1434 0951 9C       		.byte	0x9c
 1435 0952 E40A0000 		.4byte	0xae4
 1436 0956 24       		.uleb128 0x24
 1437 0957 CA050000 		.4byte	.LASF130
 1438 095b 01       		.byte	0x1
 1439 095c 18       		.byte	0x18
 1440 095d 38090000 		.4byte	0x938
 1441 0961 02       		.uleb128 0x2
 1442 0962 91       		.byte	0x91
 1443 0963 5C       		.sleb128 -36
 1444 0964 24       		.uleb128 0x24
 1445 0965 31050000 		.4byte	.LASF131
 1446 0969 01       		.byte	0x1
 1447 096a 18       		.byte	0x18
 1448 096b 38090000 		.4byte	0x938
 1449 096f 02       		.uleb128 0x2
 1450 0970 91       		.byte	0x91
 1451 0971 50       		.sleb128 -48
 1452 0972 25       		.uleb128 0x25
 1453 0973 4F020000 		.4byte	.LASF132
 1454 0977 01       		.byte	0x1
 1455 0978 1B       		.byte	0x1b
 1456 0979 38090000 		.4byte	0x938
 1457 097d 25       		.uleb128 0x25
 1458 097e 07060000 		.4byte	.LASF133
 1459 0982 01       		.byte	0x1
 1460 0983 1E       		.byte	0x1e
 1461 0984 38090000 		.4byte	0x938
 1462 0988 26       		.uleb128 0x26
 1463 0989 2A0B0000 		.4byte	0xb2a
 1464 098d 06000000 		.4byte	.LBB30
 1465 0991 00000000 		.4byte	.Ldebug_ranges0+0
 1466 0995 01       		.byte	0x1
 1467 0996 1B       		.byte	0x1b
 1468 0997 B9090000 		.4byte	0x9b9
 1469 099b 27       		.uleb128 0x27
 1470 099c 450B0000 		.4byte	0xb45
 1471 09a0 00000000 		.4byte	.LLST0
 1472 09a4 27       		.uleb128 0x27
 1473 09a5 3A0B0000 		.4byte	0xb3a
 1474 09a9 5A000000 		.4byte	.LLST1
 1475 09ad 28       		.uleb128 0x28
 1476 09ae 00000000 		.4byte	.Ldebug_ranges0+0
 1477 09b2 29       		.uleb128 0x29
 1478 09b3 500B0000 		.4byte	0xb50
 1479 09b7 00       		.byte	0
 1480 09b8 00       		.byte	0
 1481 09b9 26       		.uleb128 0x26
 1482 09ba E40A0000 		.4byte	0xae4
ARM GAS  /tmp/ccv5PwI2.s 			page 27


 1483 09be 20000000 		.4byte	.LBB37
 1484 09c2 28000000 		.4byte	.Ldebug_ranges0+0x28
 1485 09c6 01       		.byte	0x1
 1486 09c7 1B       		.byte	0x1b
 1487 09c8 1E0A0000 		.4byte	0xa1e
 1488 09cc 27       		.uleb128 0x27
 1489 09cd F50A0000 		.4byte	0xaf5
 1490 09d1 DA000000 		.4byte	.LLST2
 1491 09d5 28       		.uleb128 0x28
 1492 09d6 28000000 		.4byte	.Ldebug_ranges0+0x28
 1493 09da 29       		.uleb128 0x29
 1494 09db 010B0000 		.4byte	0xb01
 1495 09df 2A       		.uleb128 0x2a
 1496 09e0 0E0B0000 		.4byte	0xb0e
 1497 09e4 20000000 		.4byte	.LBB39
 1498 09e8 50000000 		.4byte	.Ldebug_ranges0+0x50
 1499 09ec 02       		.byte	0x2
 1500 09ed 0A01     		.2byte	0x10a
 1501 09ef FD090000 		.4byte	0x9fd
 1502 09f3 27       		.uleb128 0x27
 1503 09f4 1E0B0000 		.4byte	0xb1e
 1504 09f8 DA000000 		.4byte	.LLST2
 1505 09fc 00       		.byte	0
 1506 09fd 2B       		.uleb128 0x2b
 1507 09fe 8E0B0000 		.4byte	0xb8e
 1508 0a02 30000000 		.4byte	.LBB43
 1509 0a06 68000000 		.4byte	.Ldebug_ranges0+0x68
 1510 0a0a 02       		.byte	0x2
 1511 0a0b 0A01     		.2byte	0x10a
 1512 0a0d 2C       		.uleb128 0x2c
 1513 0a0e 9E0B0000 		.4byte	0xb9e
 1514 0a12 2D       		.uleb128 0x2d
 1515 0a13 CC000000 		.4byte	.LVL24
 1516 0a17 C40B0000 		.4byte	0xbc4
 1517 0a1b 00       		.byte	0
 1518 0a1c 00       		.byte	0
 1519 0a1d 00       		.byte	0
 1520 0a1e 26       		.uleb128 0x26
 1521 0a1f 2A0B0000 		.4byte	0xb2a
 1522 0a23 3A000000 		.4byte	.LBB54
 1523 0a27 88000000 		.4byte	.Ldebug_ranges0+0x88
 1524 0a2b 01       		.byte	0x1
 1525 0a2c 1E       		.byte	0x1e
 1526 0a2d 4B0A0000 		.4byte	0xa4b
 1527 0a31 27       		.uleb128 0x27
 1528 0a32 450B0000 		.4byte	0xb45
 1529 0a36 5E010000 		.4byte	.LLST4
 1530 0a3a 2C       		.uleb128 0x2c
 1531 0a3b 3A0B0000 		.4byte	0xb3a
 1532 0a3f 28       		.uleb128 0x28
 1533 0a40 88000000 		.4byte	.Ldebug_ranges0+0x88
 1534 0a44 29       		.uleb128 0x29
 1535 0a45 500B0000 		.4byte	0xb50
 1536 0a49 00       		.byte	0
 1537 0a4a 00       		.byte	0
 1538 0a4b 26       		.uleb128 0x26
 1539 0a4c E40A0000 		.4byte	0xae4
ARM GAS  /tmp/ccv5PwI2.s 			page 28


 1540 0a50 4A000000 		.4byte	.LBB58
 1541 0a54 A8000000 		.4byte	.Ldebug_ranges0+0xa8
 1542 0a58 01       		.byte	0x1
 1543 0a59 1E       		.byte	0x1e
 1544 0a5a B00A0000 		.4byte	0xab0
 1545 0a5e 27       		.uleb128 0x27
 1546 0a5f F50A0000 		.4byte	0xaf5
 1547 0a63 D8010000 		.4byte	.LLST5
 1548 0a67 28       		.uleb128 0x28
 1549 0a68 A8000000 		.4byte	.Ldebug_ranges0+0xa8
 1550 0a6c 29       		.uleb128 0x29
 1551 0a6d 010B0000 		.4byte	0xb01
 1552 0a71 2A       		.uleb128 0x2a
 1553 0a72 0E0B0000 		.4byte	0xb0e
 1554 0a76 4A000000 		.4byte	.LBB60
 1555 0a7a D8000000 		.4byte	.Ldebug_ranges0+0xd8
 1556 0a7e 02       		.byte	0x2
 1557 0a7f 0A01     		.2byte	0x10a
 1558 0a81 8F0A0000 		.4byte	0xa8f
 1559 0a85 27       		.uleb128 0x27
 1560 0a86 1E0B0000 		.4byte	0xb1e
 1561 0a8a D8010000 		.4byte	.LLST5
 1562 0a8e 00       		.byte	0
 1563 0a8f 2B       		.uleb128 0x2b
 1564 0a90 8E0B0000 		.4byte	0xb8e
 1565 0a94 5E000000 		.4byte	.LBB66
 1566 0a98 F8000000 		.4byte	.Ldebug_ranges0+0xf8
 1567 0a9c 02       		.byte	0x2
 1568 0a9d 0A01     		.2byte	0x10a
 1569 0a9f 2C       		.uleb128 0x2c
 1570 0aa0 9E0B0000 		.4byte	0xb9e
 1571 0aa4 2D       		.uleb128 0x2d
 1572 0aa5 BA000000 		.4byte	.LVL22
 1573 0aa9 C40B0000 		.4byte	0xbc4
 1574 0aad 00       		.byte	0
 1575 0aae 00       		.byte	0
 1576 0aaf 00       		.byte	0
 1577 0ab0 2E       		.uleb128 0x2e
 1578 0ab1 A80B0000 		.4byte	0xba8
 1579 0ab5 74000000 		.4byte	.LBB80
 1580 0ab9 04000000 		.4byte	.LBE80-.LBB80
 1581 0abd 01       		.byte	0x1
 1582 0abe 21       		.byte	0x21
 1583 0abf C90A0000 		.4byte	0xac9
 1584 0ac3 2C       		.uleb128 0x2c
 1585 0ac4 B80B0000 		.4byte	0xbb8
 1586 0ac8 00       		.byte	0
 1587 0ac9 2F       		.uleb128 0x2f
 1588 0aca 74000000 		.4byte	.LVL11
 1589 0ace D00B0000 		.4byte	0xbd0
 1590 0ad2 30       		.uleb128 0x30
 1591 0ad3 02       		.uleb128 0x2
 1592 0ad4 90       		.byte	0x90
 1593 0ad5 40       		.uleb128 0x40
 1594 0ad6 03       		.uleb128 0x3
 1595 0ad7 F5       		.byte	0xf5
 1596 0ad8 51       		.uleb128 0x51
ARM GAS  /tmp/ccv5PwI2.s 			page 29


 1597 0ad9 25       		.uleb128 0x25
 1598 0ada 30       		.uleb128 0x30
 1599 0adb 02       		.uleb128 0x2
 1600 0adc 90       		.byte	0x90
 1601 0add 41       		.uleb128 0x41
 1602 0ade 03       		.uleb128 0x3
 1603 0adf F5       		.byte	0xf5
 1604 0ae0 52       		.uleb128 0x52
 1605 0ae1 25       		.uleb128 0x25
 1606 0ae2 00       		.byte	0
 1607 0ae3 00       		.byte	0
 1608 0ae4 31       		.uleb128 0x31
 1609 0ae5 2A000000 		.4byte	.LASF135
 1610 0ae9 02       		.byte	0x2
 1611 0aea 0901     		.2byte	0x109
 1612 0aec 2D090000 		.4byte	0x92d
 1613 0af0 03       		.byte	0x3
 1614 0af1 0E0B0000 		.4byte	0xb0e
 1615 0af5 32       		.uleb128 0x32
 1616 0af6 D6010000 		.4byte	.LASF137
 1617 0afa 02       		.byte	0x2
 1618 0afb 0901     		.2byte	0x109
 1619 0afd 38090000 		.4byte	0x938
 1620 0b01 33       		.uleb128 0x33
 1621 0b02 C4030000 		.4byte	.LASF134
 1622 0b06 02       		.byte	0x2
 1623 0b07 0A01     		.2byte	0x10a
 1624 0b09 94080000 		.4byte	0x894
 1625 0b0d 00       		.byte	0
 1626 0b0e 34       		.uleb128 0x34
 1627 0b0f E4040000 		.4byte	.LASF136
 1628 0b13 02       		.byte	0x2
 1629 0b14 EA       		.byte	0xea
 1630 0b15 25000000 		.4byte	0x25
 1631 0b19 03       		.byte	0x3
 1632 0b1a 2A0B0000 		.4byte	0xb2a
 1633 0b1e 35       		.uleb128 0x35
 1634 0b1f D6010000 		.4byte	.LASF137
 1635 0b23 02       		.byte	0x2
 1636 0b24 EA       		.byte	0xea
 1637 0b25 38090000 		.4byte	0x938
 1638 0b29 00       		.byte	0
 1639 0b2a 34       		.uleb128 0x34
 1640 0b2b 0D020000 		.4byte	.LASF138
 1641 0b2f 02       		.byte	0x2
 1642 0b30 D9       		.byte	0xd9
 1643 0b31 2D090000 		.4byte	0x92d
 1644 0b35 03       		.byte	0x3
 1645 0b36 5C0B0000 		.4byte	0xb5c
 1646 0b3a 35       		.uleb128 0x35
 1647 0b3b 4C070000 		.4byte	.LASF139
 1648 0b3f 02       		.byte	0x2
 1649 0b40 D9       		.byte	0xd9
 1650 0b41 38090000 		.4byte	0x938
 1651 0b45 35       		.uleb128 0x35
 1652 0b46 6C020000 		.4byte	.LASF140
 1653 0b4a 02       		.byte	0x2
ARM GAS  /tmp/ccv5PwI2.s 			page 30


 1654 0b4b D9       		.byte	0xd9
 1655 0b4c 38090000 		.4byte	0x938
 1656 0b50 25       		.uleb128 0x25
 1657 0b51 54070000 		.4byte	.LASF141
 1658 0b55 02       		.byte	0x2
 1659 0b56 DC       		.byte	0xdc
 1660 0b57 2D090000 		.4byte	0x92d
 1661 0b5b 00       		.byte	0
 1662 0b5c 34       		.uleb128 0x34
 1663 0b5d 43040000 		.4byte	.LASF142
 1664 0b61 02       		.byte	0x2
 1665 0b62 BC       		.byte	0xbc
 1666 0b63 2D090000 		.4byte	0x92d
 1667 0b67 03       		.byte	0x3
 1668 0b68 8E0B0000 		.4byte	0xb8e
 1669 0b6c 35       		.uleb128 0x35
 1670 0b6d D6010000 		.4byte	.LASF137
 1671 0b71 02       		.byte	0x2
 1672 0b72 BC       		.byte	0xbc
 1673 0b73 38090000 		.4byte	0x938
 1674 0b77 35       		.uleb128 0x35
 1675 0b78 87020000 		.4byte	.LASF143
 1676 0b7c 02       		.byte	0x2
 1677 0b7d BC       		.byte	0xbc
 1678 0b7e 94080000 		.4byte	0x894
 1679 0b82 25       		.uleb128 0x25
 1680 0b83 54070000 		.4byte	.LASF141
 1681 0b87 02       		.byte	0x2
 1682 0b88 BD       		.byte	0xbd
 1683 0b89 2D090000 		.4byte	0x92d
 1684 0b8d 00       		.byte	0
 1685 0b8e 34       		.uleb128 0x34
 1686 0b8f 6F040000 		.4byte	.LASF144
 1687 0b93 02       		.byte	0x2
 1688 0b94 90       		.byte	0x90
 1689 0b95 25000000 		.4byte	0x25
 1690 0b99 03       		.byte	0x3
 1691 0b9a A80B0000 		.4byte	0xba8
 1692 0b9e 36       		.uleb128 0x36
 1693 0b9f 7800     		.ascii	"x\000"
 1694 0ba1 02       		.byte	0x2
 1695 0ba2 90       		.byte	0x90
 1696 0ba3 94080000 		.4byte	0x894
 1697 0ba7 00       		.byte	0
 1698 0ba8 34       		.uleb128 0x34
 1699 0ba9 B5040000 		.4byte	.LASF145
 1700 0bad 02       		.byte	0x2
 1701 0bae 83       		.byte	0x83
 1702 0baf 25000000 		.4byte	0x25
 1703 0bb3 03       		.byte	0x3
 1704 0bb4 C40B0000 		.4byte	0xbc4
 1705 0bb8 35       		.uleb128 0x35
 1706 0bb9 31070000 		.4byte	.LASF146
 1707 0bbd 02       		.byte	0x2
 1708 0bbe 83       		.byte	0x83
 1709 0bbf 94080000 		.4byte	0x894
 1710 0bc3 00       		.byte	0
ARM GAS  /tmp/ccv5PwI2.s 			page 31


 1711 0bc4 37       		.uleb128 0x37
 1712 0bc5 3D040000 		.4byte	.LASF147
 1713 0bc9 3D040000 		.4byte	.LASF147
 1714 0bcd 07       		.byte	0x7
 1715 0bce 6E01     		.2byte	0x16e
 1716 0bd0 37       		.uleb128 0x37
 1717 0bd1 E8010000 		.4byte	.LASF148
 1718 0bd5 E8010000 		.4byte	.LASF148
 1719 0bd9 07       		.byte	0x7
 1720 0bda 6601     		.2byte	0x166
 1721 0bdc 00       		.byte	0
 1722              		.section	.debug_abbrev,"",%progbits
 1723              	.Ldebug_abbrev0:
 1724 0000 01       		.uleb128 0x1
 1725 0001 11       		.uleb128 0x11
 1726 0002 01       		.byte	0x1
 1727 0003 25       		.uleb128 0x25
 1728 0004 0E       		.uleb128 0xe
 1729 0005 13       		.uleb128 0x13
 1730 0006 0B       		.uleb128 0xb
 1731 0007 03       		.uleb128 0x3
 1732 0008 0E       		.uleb128 0xe
 1733 0009 1B       		.uleb128 0x1b
 1734 000a 0E       		.uleb128 0xe
 1735 000b 55       		.uleb128 0x55
 1736 000c 17       		.uleb128 0x17
 1737 000d 11       		.uleb128 0x11
 1738 000e 01       		.uleb128 0x1
 1739 000f 10       		.uleb128 0x10
 1740 0010 17       		.uleb128 0x17
 1741 0011 00       		.byte	0
 1742 0012 00       		.byte	0
 1743 0013 02       		.uleb128 0x2
 1744 0014 24       		.uleb128 0x24
 1745 0015 00       		.byte	0
 1746 0016 0B       		.uleb128 0xb
 1747 0017 0B       		.uleb128 0xb
 1748 0018 3E       		.uleb128 0x3e
 1749 0019 0B       		.uleb128 0xb
 1750 001a 03       		.uleb128 0x3
 1751 001b 0E       		.uleb128 0xe
 1752 001c 00       		.byte	0
 1753 001d 00       		.byte	0
 1754 001e 03       		.uleb128 0x3
 1755 001f 24       		.uleb128 0x24
 1756 0020 00       		.byte	0
 1757 0021 0B       		.uleb128 0xb
 1758 0022 0B       		.uleb128 0xb
 1759 0023 3E       		.uleb128 0x3e
 1760 0024 0B       		.uleb128 0xb
 1761 0025 03       		.uleb128 0x3
 1762 0026 08       		.uleb128 0x8
 1763 0027 00       		.byte	0
 1764 0028 00       		.byte	0
 1765 0029 04       		.uleb128 0x4
 1766 002a 16       		.uleb128 0x16
 1767 002b 00       		.byte	0
ARM GAS  /tmp/ccv5PwI2.s 			page 32


 1768 002c 03       		.uleb128 0x3
 1769 002d 0E       		.uleb128 0xe
 1770 002e 3A       		.uleb128 0x3a
 1771 002f 0B       		.uleb128 0xb
 1772 0030 3B       		.uleb128 0x3b
 1773 0031 0B       		.uleb128 0xb
 1774 0032 49       		.uleb128 0x49
 1775 0033 13       		.uleb128 0x13
 1776 0034 00       		.byte	0
 1777 0035 00       		.byte	0
 1778 0036 05       		.uleb128 0x5
 1779 0037 0F       		.uleb128 0xf
 1780 0038 00       		.byte	0
 1781 0039 0B       		.uleb128 0xb
 1782 003a 0B       		.uleb128 0xb
 1783 003b 49       		.uleb128 0x49
 1784 003c 13       		.uleb128 0x13
 1785 003d 00       		.byte	0
 1786 003e 00       		.byte	0
 1787 003f 06       		.uleb128 0x6
 1788 0040 13       		.uleb128 0x13
 1789 0041 00       		.byte	0
 1790 0042 03       		.uleb128 0x3
 1791 0043 0E       		.uleb128 0xe
 1792 0044 3C       		.uleb128 0x3c
 1793 0045 19       		.uleb128 0x19
 1794 0046 00       		.byte	0
 1795 0047 00       		.byte	0
 1796 0048 07       		.uleb128 0x7
 1797 0049 16       		.uleb128 0x16
 1798 004a 00       		.byte	0
 1799 004b 03       		.uleb128 0x3
 1800 004c 0E       		.uleb128 0xe
 1801 004d 3A       		.uleb128 0x3a
 1802 004e 0B       		.uleb128 0xb
 1803 004f 3B       		.uleb128 0x3b
 1804 0050 05       		.uleb128 0x5
 1805 0051 49       		.uleb128 0x49
 1806 0052 13       		.uleb128 0x13
 1807 0053 00       		.byte	0
 1808 0054 00       		.byte	0
 1809 0055 08       		.uleb128 0x8
 1810 0056 17       		.uleb128 0x17
 1811 0057 01       		.byte	0x1
 1812 0058 0B       		.uleb128 0xb
 1813 0059 0B       		.uleb128 0xb
 1814 005a 3A       		.uleb128 0x3a
 1815 005b 0B       		.uleb128 0xb
 1816 005c 3B       		.uleb128 0x3b
 1817 005d 0B       		.uleb128 0xb
 1818 005e 01       		.uleb128 0x1
 1819 005f 13       		.uleb128 0x13
 1820 0060 00       		.byte	0
 1821 0061 00       		.byte	0
 1822 0062 09       		.uleb128 0x9
 1823 0063 0D       		.uleb128 0xd
 1824 0064 00       		.byte	0
ARM GAS  /tmp/ccv5PwI2.s 			page 33


 1825 0065 03       		.uleb128 0x3
 1826 0066 0E       		.uleb128 0xe
 1827 0067 3A       		.uleb128 0x3a
 1828 0068 0B       		.uleb128 0xb
 1829 0069 3B       		.uleb128 0x3b
 1830 006a 0B       		.uleb128 0xb
 1831 006b 49       		.uleb128 0x49
 1832 006c 13       		.uleb128 0x13
 1833 006d 00       		.byte	0
 1834 006e 00       		.byte	0
 1835 006f 0A       		.uleb128 0xa
 1836 0070 01       		.uleb128 0x1
 1837 0071 01       		.byte	0x1
 1838 0072 49       		.uleb128 0x49
 1839 0073 13       		.uleb128 0x13
 1840 0074 01       		.uleb128 0x1
 1841 0075 13       		.uleb128 0x13
 1842 0076 00       		.byte	0
 1843 0077 00       		.byte	0
 1844 0078 0B       		.uleb128 0xb
 1845 0079 21       		.uleb128 0x21
 1846 007a 00       		.byte	0
 1847 007b 49       		.uleb128 0x49
 1848 007c 13       		.uleb128 0x13
 1849 007d 2F       		.uleb128 0x2f
 1850 007e 0B       		.uleb128 0xb
 1851 007f 00       		.byte	0
 1852 0080 00       		.byte	0
 1853 0081 0C       		.uleb128 0xc
 1854 0082 13       		.uleb128 0x13
 1855 0083 01       		.byte	0x1
 1856 0084 0B       		.uleb128 0xb
 1857 0085 0B       		.uleb128 0xb
 1858 0086 3A       		.uleb128 0x3a
 1859 0087 0B       		.uleb128 0xb
 1860 0088 3B       		.uleb128 0x3b
 1861 0089 0B       		.uleb128 0xb
 1862 008a 01       		.uleb128 0x1
 1863 008b 13       		.uleb128 0x13
 1864 008c 00       		.byte	0
 1865 008d 00       		.byte	0
 1866 008e 0D       		.uleb128 0xd
 1867 008f 0D       		.uleb128 0xd
 1868 0090 00       		.byte	0
 1869 0091 03       		.uleb128 0x3
 1870 0092 0E       		.uleb128 0xe
 1871 0093 3A       		.uleb128 0x3a
 1872 0094 0B       		.uleb128 0xb
 1873 0095 3B       		.uleb128 0x3b
 1874 0096 0B       		.uleb128 0xb
 1875 0097 49       		.uleb128 0x49
 1876 0098 13       		.uleb128 0x13
 1877 0099 38       		.uleb128 0x38
 1878 009a 0B       		.uleb128 0xb
 1879 009b 00       		.byte	0
 1880 009c 00       		.byte	0
 1881 009d 0E       		.uleb128 0xe
ARM GAS  /tmp/ccv5PwI2.s 			page 34


 1882 009e 0F       		.uleb128 0xf
 1883 009f 00       		.byte	0
 1884 00a0 0B       		.uleb128 0xb
 1885 00a1 0B       		.uleb128 0xb
 1886 00a2 00       		.byte	0
 1887 00a3 00       		.byte	0
 1888 00a4 0F       		.uleb128 0xf
 1889 00a5 26       		.uleb128 0x26
 1890 00a6 00       		.byte	0
 1891 00a7 49       		.uleb128 0x49
 1892 00a8 13       		.uleb128 0x13
 1893 00a9 00       		.byte	0
 1894 00aa 00       		.byte	0
 1895 00ab 10       		.uleb128 0x10
 1896 00ac 13       		.uleb128 0x13
 1897 00ad 01       		.byte	0x1
 1898 00ae 03       		.uleb128 0x3
 1899 00af 0E       		.uleb128 0xe
 1900 00b0 0B       		.uleb128 0xb
 1901 00b1 0B       		.uleb128 0xb
 1902 00b2 3A       		.uleb128 0x3a
 1903 00b3 0B       		.uleb128 0xb
 1904 00b4 3B       		.uleb128 0x3b
 1905 00b5 0B       		.uleb128 0xb
 1906 00b6 01       		.uleb128 0x1
 1907 00b7 13       		.uleb128 0x13
 1908 00b8 00       		.byte	0
 1909 00b9 00       		.byte	0
 1910 00ba 11       		.uleb128 0x11
 1911 00bb 0D       		.uleb128 0xd
 1912 00bc 00       		.byte	0
 1913 00bd 03       		.uleb128 0x3
 1914 00be 08       		.uleb128 0x8
 1915 00bf 3A       		.uleb128 0x3a
 1916 00c0 0B       		.uleb128 0xb
 1917 00c1 3B       		.uleb128 0x3b
 1918 00c2 0B       		.uleb128 0xb
 1919 00c3 49       		.uleb128 0x49
 1920 00c4 13       		.uleb128 0x13
 1921 00c5 38       		.uleb128 0x38
 1922 00c6 0B       		.uleb128 0xb
 1923 00c7 00       		.byte	0
 1924 00c8 00       		.byte	0
 1925 00c9 12       		.uleb128 0x12
 1926 00ca 13       		.uleb128 0x13
 1927 00cb 01       		.byte	0x1
 1928 00cc 03       		.uleb128 0x3
 1929 00cd 0E       		.uleb128 0xe
 1930 00ce 0B       		.uleb128 0xb
 1931 00cf 05       		.uleb128 0x5
 1932 00d0 3A       		.uleb128 0x3a
 1933 00d1 0B       		.uleb128 0xb
 1934 00d2 3B       		.uleb128 0x3b
 1935 00d3 0B       		.uleb128 0xb
 1936 00d4 01       		.uleb128 0x1
 1937 00d5 13       		.uleb128 0x13
 1938 00d6 00       		.byte	0
ARM GAS  /tmp/ccv5PwI2.s 			page 35


 1939 00d7 00       		.byte	0
 1940 00d8 13       		.uleb128 0x13
 1941 00d9 0D       		.uleb128 0xd
 1942 00da 00       		.byte	0
 1943 00db 03       		.uleb128 0x3
 1944 00dc 0E       		.uleb128 0xe
 1945 00dd 3A       		.uleb128 0x3a
 1946 00de 0B       		.uleb128 0xb
 1947 00df 3B       		.uleb128 0x3b
 1948 00e0 0B       		.uleb128 0xb
 1949 00e1 49       		.uleb128 0x49
 1950 00e2 13       		.uleb128 0x13
 1951 00e3 38       		.uleb128 0x38
 1952 00e4 05       		.uleb128 0x5
 1953 00e5 00       		.byte	0
 1954 00e6 00       		.byte	0
 1955 00e7 14       		.uleb128 0x14
 1956 00e8 15       		.uleb128 0x15
 1957 00e9 00       		.byte	0
 1958 00ea 27       		.uleb128 0x27
 1959 00eb 19       		.uleb128 0x19
 1960 00ec 00       		.byte	0
 1961 00ed 00       		.byte	0
 1962 00ee 15       		.uleb128 0x15
 1963 00ef 15       		.uleb128 0x15
 1964 00f0 01       		.byte	0x1
 1965 00f1 27       		.uleb128 0x27
 1966 00f2 19       		.uleb128 0x19
 1967 00f3 49       		.uleb128 0x49
 1968 00f4 13       		.uleb128 0x13
 1969 00f5 01       		.uleb128 0x1
 1970 00f6 13       		.uleb128 0x13
 1971 00f7 00       		.byte	0
 1972 00f8 00       		.byte	0
 1973 00f9 16       		.uleb128 0x16
 1974 00fa 05       		.uleb128 0x5
 1975 00fb 00       		.byte	0
 1976 00fc 49       		.uleb128 0x49
 1977 00fd 13       		.uleb128 0x13
 1978 00fe 00       		.byte	0
 1979 00ff 00       		.byte	0
 1980 0100 17       		.uleb128 0x17
 1981 0101 13       		.uleb128 0x13
 1982 0102 01       		.byte	0x1
 1983 0103 03       		.uleb128 0x3
 1984 0104 0E       		.uleb128 0xe
 1985 0105 0B       		.uleb128 0xb
 1986 0106 05       		.uleb128 0x5
 1987 0107 3A       		.uleb128 0x3a
 1988 0108 0B       		.uleb128 0xb
 1989 0109 3B       		.uleb128 0x3b
 1990 010a 05       		.uleb128 0x5
 1991 010b 01       		.uleb128 0x1
 1992 010c 13       		.uleb128 0x13
 1993 010d 00       		.byte	0
 1994 010e 00       		.byte	0
 1995 010f 18       		.uleb128 0x18
ARM GAS  /tmp/ccv5PwI2.s 			page 36


 1996 0110 0D       		.uleb128 0xd
 1997 0111 00       		.byte	0
 1998 0112 03       		.uleb128 0x3
 1999 0113 0E       		.uleb128 0xe
 2000 0114 3A       		.uleb128 0x3a
 2001 0115 0B       		.uleb128 0xb
 2002 0116 3B       		.uleb128 0x3b
 2003 0117 05       		.uleb128 0x5
 2004 0118 49       		.uleb128 0x49
 2005 0119 13       		.uleb128 0x13
 2006 011a 38       		.uleb128 0x38
 2007 011b 0B       		.uleb128 0xb
 2008 011c 00       		.byte	0
 2009 011d 00       		.byte	0
 2010 011e 19       		.uleb128 0x19
 2011 011f 0D       		.uleb128 0xd
 2012 0120 00       		.byte	0
 2013 0121 03       		.uleb128 0x3
 2014 0122 0E       		.uleb128 0xe
 2015 0123 3A       		.uleb128 0x3a
 2016 0124 0B       		.uleb128 0xb
 2017 0125 3B       		.uleb128 0x3b
 2018 0126 05       		.uleb128 0x5
 2019 0127 49       		.uleb128 0x49
 2020 0128 13       		.uleb128 0x13
 2021 0129 38       		.uleb128 0x38
 2022 012a 05       		.uleb128 0x5
 2023 012b 00       		.byte	0
 2024 012c 00       		.byte	0
 2025 012d 1A       		.uleb128 0x1a
 2026 012e 13       		.uleb128 0x13
 2027 012f 01       		.byte	0x1
 2028 0130 03       		.uleb128 0x3
 2029 0131 0E       		.uleb128 0xe
 2030 0132 0B       		.uleb128 0xb
 2031 0133 0B       		.uleb128 0xb
 2032 0134 3A       		.uleb128 0x3a
 2033 0135 0B       		.uleb128 0xb
 2034 0136 3B       		.uleb128 0x3b
 2035 0137 05       		.uleb128 0x5
 2036 0138 01       		.uleb128 0x1
 2037 0139 13       		.uleb128 0x13
 2038 013a 00       		.byte	0
 2039 013b 00       		.byte	0
 2040 013c 1B       		.uleb128 0x1b
 2041 013d 13       		.uleb128 0x13
 2042 013e 01       		.byte	0x1
 2043 013f 0B       		.uleb128 0xb
 2044 0140 0B       		.uleb128 0xb
 2045 0141 3A       		.uleb128 0x3a
 2046 0142 0B       		.uleb128 0xb
 2047 0143 3B       		.uleb128 0x3b
 2048 0144 05       		.uleb128 0x5
 2049 0145 01       		.uleb128 0x1
 2050 0146 13       		.uleb128 0x13
 2051 0147 00       		.byte	0
 2052 0148 00       		.byte	0
ARM GAS  /tmp/ccv5PwI2.s 			page 37


 2053 0149 1C       		.uleb128 0x1c
 2054 014a 17       		.uleb128 0x17
 2055 014b 01       		.byte	0x1
 2056 014c 0B       		.uleb128 0xb
 2057 014d 0B       		.uleb128 0xb
 2058 014e 3A       		.uleb128 0x3a
 2059 014f 0B       		.uleb128 0xb
 2060 0150 3B       		.uleb128 0x3b
 2061 0151 05       		.uleb128 0x5
 2062 0152 01       		.uleb128 0x1
 2063 0153 13       		.uleb128 0x13
 2064 0154 00       		.byte	0
 2065 0155 00       		.byte	0
 2066 0156 1D       		.uleb128 0x1d
 2067 0157 0D       		.uleb128 0xd
 2068 0158 00       		.byte	0
 2069 0159 03       		.uleb128 0x3
 2070 015a 0E       		.uleb128 0xe
 2071 015b 3A       		.uleb128 0x3a
 2072 015c 0B       		.uleb128 0xb
 2073 015d 3B       		.uleb128 0x3b
 2074 015e 05       		.uleb128 0x5
 2075 015f 49       		.uleb128 0x49
 2076 0160 13       		.uleb128 0x13
 2077 0161 00       		.byte	0
 2078 0162 00       		.byte	0
 2079 0163 1E       		.uleb128 0x1e
 2080 0164 15       		.uleb128 0x15
 2081 0165 01       		.byte	0x1
 2082 0166 27       		.uleb128 0x27
 2083 0167 19       		.uleb128 0x19
 2084 0168 01       		.uleb128 0x1
 2085 0169 13       		.uleb128 0x13
 2086 016a 00       		.byte	0
 2087 016b 00       		.byte	0
 2088 016c 1F       		.uleb128 0x1f
 2089 016d 34       		.uleb128 0x34
 2090 016e 00       		.byte	0
 2091 016f 03       		.uleb128 0x3
 2092 0170 0E       		.uleb128 0xe
 2093 0171 3A       		.uleb128 0x3a
 2094 0172 0B       		.uleb128 0xb
 2095 0173 3B       		.uleb128 0x3b
 2096 0174 05       		.uleb128 0x5
 2097 0175 49       		.uleb128 0x49
 2098 0176 13       		.uleb128 0x13
 2099 0177 3F       		.uleb128 0x3f
 2100 0178 19       		.uleb128 0x19
 2101 0179 3C       		.uleb128 0x3c
 2102 017a 19       		.uleb128 0x19
 2103 017b 00       		.byte	0
 2104 017c 00       		.byte	0
 2105 017d 20       		.uleb128 0x20
 2106 017e 04       		.uleb128 0x4
 2107 017f 01       		.byte	0x1
 2108 0180 03       		.uleb128 0x3
 2109 0181 0E       		.uleb128 0xe
ARM GAS  /tmp/ccv5PwI2.s 			page 38


 2110 0182 3E       		.uleb128 0x3e
 2111 0183 0B       		.uleb128 0xb
 2112 0184 0B       		.uleb128 0xb
 2113 0185 0B       		.uleb128 0xb
 2114 0186 49       		.uleb128 0x49
 2115 0187 13       		.uleb128 0x13
 2116 0188 3A       		.uleb128 0x3a
 2117 0189 0B       		.uleb128 0xb
 2118 018a 3B       		.uleb128 0x3b
 2119 018b 05       		.uleb128 0x5
 2120 018c 01       		.uleb128 0x1
 2121 018d 13       		.uleb128 0x13
 2122 018e 00       		.byte	0
 2123 018f 00       		.byte	0
 2124 0190 21       		.uleb128 0x21
 2125 0191 28       		.uleb128 0x28
 2126 0192 00       		.byte	0
 2127 0193 03       		.uleb128 0x3
 2128 0194 0E       		.uleb128 0xe
 2129 0195 1C       		.uleb128 0x1c
 2130 0196 0D       		.uleb128 0xd
 2131 0197 00       		.byte	0
 2132 0198 00       		.byte	0
 2133 0199 22       		.uleb128 0x22
 2134 019a 28       		.uleb128 0x28
 2135 019b 00       		.byte	0
 2136 019c 03       		.uleb128 0x3
 2137 019d 0E       		.uleb128 0xe
 2138 019e 1C       		.uleb128 0x1c
 2139 019f 0B       		.uleb128 0xb
 2140 01a0 00       		.byte	0
 2141 01a1 00       		.byte	0
 2142 01a2 23       		.uleb128 0x23
 2143 01a3 2E       		.uleb128 0x2e
 2144 01a4 01       		.byte	0x1
 2145 01a5 3F       		.uleb128 0x3f
 2146 01a6 19       		.uleb128 0x19
 2147 01a7 03       		.uleb128 0x3
 2148 01a8 0E       		.uleb128 0xe
 2149 01a9 3A       		.uleb128 0x3a
 2150 01aa 0B       		.uleb128 0xb
 2151 01ab 3B       		.uleb128 0x3b
 2152 01ac 0B       		.uleb128 0xb
 2153 01ad 27       		.uleb128 0x27
 2154 01ae 19       		.uleb128 0x19
 2155 01af 49       		.uleb128 0x49
 2156 01b0 13       		.uleb128 0x13
 2157 01b1 11       		.uleb128 0x11
 2158 01b2 01       		.uleb128 0x1
 2159 01b3 12       		.uleb128 0x12
 2160 01b4 06       		.uleb128 0x6
 2161 01b5 40       		.uleb128 0x40
 2162 01b6 18       		.uleb128 0x18
 2163 01b7 9742     		.uleb128 0x2117
 2164 01b9 19       		.uleb128 0x19
 2165 01ba 01       		.uleb128 0x1
 2166 01bb 13       		.uleb128 0x13
ARM GAS  /tmp/ccv5PwI2.s 			page 39


 2167 01bc 00       		.byte	0
 2168 01bd 00       		.byte	0
 2169 01be 24       		.uleb128 0x24
 2170 01bf 05       		.uleb128 0x5
 2171 01c0 00       		.byte	0
 2172 01c1 03       		.uleb128 0x3
 2173 01c2 0E       		.uleb128 0xe
 2174 01c3 3A       		.uleb128 0x3a
 2175 01c4 0B       		.uleb128 0xb
 2176 01c5 3B       		.uleb128 0x3b
 2177 01c6 0B       		.uleb128 0xb
 2178 01c7 49       		.uleb128 0x49
 2179 01c8 13       		.uleb128 0x13
 2180 01c9 02       		.uleb128 0x2
 2181 01ca 18       		.uleb128 0x18
 2182 01cb 00       		.byte	0
 2183 01cc 00       		.byte	0
 2184 01cd 25       		.uleb128 0x25
 2185 01ce 34       		.uleb128 0x34
 2186 01cf 00       		.byte	0
 2187 01d0 03       		.uleb128 0x3
 2188 01d1 0E       		.uleb128 0xe
 2189 01d2 3A       		.uleb128 0x3a
 2190 01d3 0B       		.uleb128 0xb
 2191 01d4 3B       		.uleb128 0x3b
 2192 01d5 0B       		.uleb128 0xb
 2193 01d6 49       		.uleb128 0x49
 2194 01d7 13       		.uleb128 0x13
 2195 01d8 00       		.byte	0
 2196 01d9 00       		.byte	0
 2197 01da 26       		.uleb128 0x26
 2198 01db 1D       		.uleb128 0x1d
 2199 01dc 01       		.byte	0x1
 2200 01dd 31       		.uleb128 0x31
 2201 01de 13       		.uleb128 0x13
 2202 01df 52       		.uleb128 0x52
 2203 01e0 01       		.uleb128 0x1
 2204 01e1 55       		.uleb128 0x55
 2205 01e2 17       		.uleb128 0x17
 2206 01e3 58       		.uleb128 0x58
 2207 01e4 0B       		.uleb128 0xb
 2208 01e5 59       		.uleb128 0x59
 2209 01e6 0B       		.uleb128 0xb
 2210 01e7 01       		.uleb128 0x1
 2211 01e8 13       		.uleb128 0x13
 2212 01e9 00       		.byte	0
 2213 01ea 00       		.byte	0
 2214 01eb 27       		.uleb128 0x27
 2215 01ec 05       		.uleb128 0x5
 2216 01ed 00       		.byte	0
 2217 01ee 31       		.uleb128 0x31
 2218 01ef 13       		.uleb128 0x13
 2219 01f0 02       		.uleb128 0x2
 2220 01f1 17       		.uleb128 0x17
 2221 01f2 00       		.byte	0
 2222 01f3 00       		.byte	0
 2223 01f4 28       		.uleb128 0x28
ARM GAS  /tmp/ccv5PwI2.s 			page 40


 2224 01f5 0B       		.uleb128 0xb
 2225 01f6 01       		.byte	0x1
 2226 01f7 55       		.uleb128 0x55
 2227 01f8 17       		.uleb128 0x17
 2228 01f9 00       		.byte	0
 2229 01fa 00       		.byte	0
 2230 01fb 29       		.uleb128 0x29
 2231 01fc 34       		.uleb128 0x34
 2232 01fd 00       		.byte	0
 2233 01fe 31       		.uleb128 0x31
 2234 01ff 13       		.uleb128 0x13
 2235 0200 00       		.byte	0
 2236 0201 00       		.byte	0
 2237 0202 2A       		.uleb128 0x2a
 2238 0203 1D       		.uleb128 0x1d
 2239 0204 01       		.byte	0x1
 2240 0205 31       		.uleb128 0x31
 2241 0206 13       		.uleb128 0x13
 2242 0207 52       		.uleb128 0x52
 2243 0208 01       		.uleb128 0x1
 2244 0209 55       		.uleb128 0x55
 2245 020a 17       		.uleb128 0x17
 2246 020b 58       		.uleb128 0x58
 2247 020c 0B       		.uleb128 0xb
 2248 020d 59       		.uleb128 0x59
 2249 020e 05       		.uleb128 0x5
 2250 020f 01       		.uleb128 0x1
 2251 0210 13       		.uleb128 0x13
 2252 0211 00       		.byte	0
 2253 0212 00       		.byte	0
 2254 0213 2B       		.uleb128 0x2b
 2255 0214 1D       		.uleb128 0x1d
 2256 0215 01       		.byte	0x1
 2257 0216 31       		.uleb128 0x31
 2258 0217 13       		.uleb128 0x13
 2259 0218 52       		.uleb128 0x52
 2260 0219 01       		.uleb128 0x1
 2261 021a 55       		.uleb128 0x55
 2262 021b 17       		.uleb128 0x17
 2263 021c 58       		.uleb128 0x58
 2264 021d 0B       		.uleb128 0xb
 2265 021e 59       		.uleb128 0x59
 2266 021f 05       		.uleb128 0x5
 2267 0220 00       		.byte	0
 2268 0221 00       		.byte	0
 2269 0222 2C       		.uleb128 0x2c
 2270 0223 05       		.uleb128 0x5
 2271 0224 00       		.byte	0
 2272 0225 31       		.uleb128 0x31
 2273 0226 13       		.uleb128 0x13
 2274 0227 00       		.byte	0
 2275 0228 00       		.byte	0
 2276 0229 2D       		.uleb128 0x2d
 2277 022a 898201   		.uleb128 0x4109
 2278 022d 00       		.byte	0
 2279 022e 11       		.uleb128 0x11
 2280 022f 01       		.uleb128 0x1
ARM GAS  /tmp/ccv5PwI2.s 			page 41


 2281 0230 31       		.uleb128 0x31
 2282 0231 13       		.uleb128 0x13
 2283 0232 00       		.byte	0
 2284 0233 00       		.byte	0
 2285 0234 2E       		.uleb128 0x2e
 2286 0235 1D       		.uleb128 0x1d
 2287 0236 01       		.byte	0x1
 2288 0237 31       		.uleb128 0x31
 2289 0238 13       		.uleb128 0x13
 2290 0239 11       		.uleb128 0x11
 2291 023a 01       		.uleb128 0x1
 2292 023b 12       		.uleb128 0x12
 2293 023c 06       		.uleb128 0x6
 2294 023d 58       		.uleb128 0x58
 2295 023e 0B       		.uleb128 0xb
 2296 023f 59       		.uleb128 0x59
 2297 0240 0B       		.uleb128 0xb
 2298 0241 01       		.uleb128 0x1
 2299 0242 13       		.uleb128 0x13
 2300 0243 00       		.byte	0
 2301 0244 00       		.byte	0
 2302 0245 2F       		.uleb128 0x2f
 2303 0246 898201   		.uleb128 0x4109
 2304 0249 01       		.byte	0x1
 2305 024a 11       		.uleb128 0x11
 2306 024b 01       		.uleb128 0x1
 2307 024c 31       		.uleb128 0x31
 2308 024d 13       		.uleb128 0x13
 2309 024e 00       		.byte	0
 2310 024f 00       		.byte	0
 2311 0250 30       		.uleb128 0x30
 2312 0251 8A8201   		.uleb128 0x410a
 2313 0254 00       		.byte	0
 2314 0255 02       		.uleb128 0x2
 2315 0256 18       		.uleb128 0x18
 2316 0257 9142     		.uleb128 0x2111
 2317 0259 18       		.uleb128 0x18
 2318 025a 00       		.byte	0
 2319 025b 00       		.byte	0
 2320 025c 31       		.uleb128 0x31
 2321 025d 2E       		.uleb128 0x2e
 2322 025e 01       		.byte	0x1
 2323 025f 03       		.uleb128 0x3
 2324 0260 0E       		.uleb128 0xe
 2325 0261 3A       		.uleb128 0x3a
 2326 0262 0B       		.uleb128 0xb
 2327 0263 3B       		.uleb128 0x3b
 2328 0264 05       		.uleb128 0x5
 2329 0265 27       		.uleb128 0x27
 2330 0266 19       		.uleb128 0x19
 2331 0267 49       		.uleb128 0x49
 2332 0268 13       		.uleb128 0x13
 2333 0269 20       		.uleb128 0x20
 2334 026a 0B       		.uleb128 0xb
 2335 026b 01       		.uleb128 0x1
 2336 026c 13       		.uleb128 0x13
 2337 026d 00       		.byte	0
ARM GAS  /tmp/ccv5PwI2.s 			page 42


 2338 026e 00       		.byte	0
 2339 026f 32       		.uleb128 0x32
 2340 0270 05       		.uleb128 0x5
 2341 0271 00       		.byte	0
 2342 0272 03       		.uleb128 0x3
 2343 0273 0E       		.uleb128 0xe
 2344 0274 3A       		.uleb128 0x3a
 2345 0275 0B       		.uleb128 0xb
 2346 0276 3B       		.uleb128 0x3b
 2347 0277 05       		.uleb128 0x5
 2348 0278 49       		.uleb128 0x49
 2349 0279 13       		.uleb128 0x13
 2350 027a 00       		.byte	0
 2351 027b 00       		.byte	0
 2352 027c 33       		.uleb128 0x33
 2353 027d 34       		.uleb128 0x34
 2354 027e 00       		.byte	0
 2355 027f 03       		.uleb128 0x3
 2356 0280 0E       		.uleb128 0xe
 2357 0281 3A       		.uleb128 0x3a
 2358 0282 0B       		.uleb128 0xb
 2359 0283 3B       		.uleb128 0x3b
 2360 0284 05       		.uleb128 0x5
 2361 0285 49       		.uleb128 0x49
 2362 0286 13       		.uleb128 0x13
 2363 0287 00       		.byte	0
 2364 0288 00       		.byte	0
 2365 0289 34       		.uleb128 0x34
 2366 028a 2E       		.uleb128 0x2e
 2367 028b 01       		.byte	0x1
 2368 028c 03       		.uleb128 0x3
 2369 028d 0E       		.uleb128 0xe
 2370 028e 3A       		.uleb128 0x3a
 2371 028f 0B       		.uleb128 0xb
 2372 0290 3B       		.uleb128 0x3b
 2373 0291 0B       		.uleb128 0xb
 2374 0292 27       		.uleb128 0x27
 2375 0293 19       		.uleb128 0x19
 2376 0294 49       		.uleb128 0x49
 2377 0295 13       		.uleb128 0x13
 2378 0296 20       		.uleb128 0x20
 2379 0297 0B       		.uleb128 0xb
 2380 0298 01       		.uleb128 0x1
 2381 0299 13       		.uleb128 0x13
 2382 029a 00       		.byte	0
 2383 029b 00       		.byte	0
 2384 029c 35       		.uleb128 0x35
 2385 029d 05       		.uleb128 0x5
 2386 029e 00       		.byte	0
 2387 029f 03       		.uleb128 0x3
 2388 02a0 0E       		.uleb128 0xe
 2389 02a1 3A       		.uleb128 0x3a
 2390 02a2 0B       		.uleb128 0xb
 2391 02a3 3B       		.uleb128 0x3b
 2392 02a4 0B       		.uleb128 0xb
 2393 02a5 49       		.uleb128 0x49
 2394 02a6 13       		.uleb128 0x13
ARM GAS  /tmp/ccv5PwI2.s 			page 43


 2395 02a7 00       		.byte	0
 2396 02a8 00       		.byte	0
 2397 02a9 36       		.uleb128 0x36
 2398 02aa 05       		.uleb128 0x5
 2399 02ab 00       		.byte	0
 2400 02ac 03       		.uleb128 0x3
 2401 02ad 08       		.uleb128 0x8
 2402 02ae 3A       		.uleb128 0x3a
 2403 02af 0B       		.uleb128 0xb
 2404 02b0 3B       		.uleb128 0x3b
 2405 02b1 0B       		.uleb128 0xb
 2406 02b2 49       		.uleb128 0x49
 2407 02b3 13       		.uleb128 0x13
 2408 02b4 00       		.byte	0
 2409 02b5 00       		.byte	0
 2410 02b6 37       		.uleb128 0x37
 2411 02b7 2E       		.uleb128 0x2e
 2412 02b8 00       		.byte	0
 2413 02b9 3F       		.uleb128 0x3f
 2414 02ba 19       		.uleb128 0x19
 2415 02bb 3C       		.uleb128 0x3c
 2416 02bc 19       		.uleb128 0x19
 2417 02bd 6E       		.uleb128 0x6e
 2418 02be 0E       		.uleb128 0xe
 2419 02bf 03       		.uleb128 0x3
 2420 02c0 0E       		.uleb128 0xe
 2421 02c1 3A       		.uleb128 0x3a
 2422 02c2 0B       		.uleb128 0xb
 2423 02c3 3B       		.uleb128 0x3b
 2424 02c4 05       		.uleb128 0x5
 2425 02c5 00       		.byte	0
 2426 02c6 00       		.byte	0
 2427 02c7 00       		.byte	0
 2428              		.section	.debug_loc,"",%progbits
 2429              	.Ldebug_loc0:
 2430              	.LLST0:
 2431 0000 1C000000 		.4byte	.LVL0
 2432 0004 20000000 		.4byte	.LVL1
 2433 0008 0C00     		.2byte	0xc
 2434 000a 90       		.byte	0x90
 2435 000b 43       		.uleb128 0x43
 2436 000c 93       		.byte	0x93
 2437 000d 04       		.uleb128 0x4
 2438 000e 90       		.byte	0x90
 2439 000f 44       		.uleb128 0x44
 2440 0010 93       		.byte	0x93
 2441 0011 04       		.uleb128 0x4
 2442 0012 90       		.byte	0x90
 2443 0013 45       		.uleb128 0x45
 2444 0014 93       		.byte	0x93
 2445 0015 04       		.uleb128 0x4
 2446 0016 20000000 		.4byte	.LVL1
 2447 001a 28000000 		.4byte	.LVL3
 2448 001e 0A00     		.2byte	0xa
 2449 0020 93       		.byte	0x93
 2450 0021 04       		.uleb128 0x4
 2451 0022 90       		.byte	0x90
ARM GAS  /tmp/ccv5PwI2.s 			page 44


 2452 0023 44       		.uleb128 0x44
 2453 0024 93       		.byte	0x93
 2454 0025 04       		.uleb128 0x4
 2455 0026 90       		.byte	0x90
 2456 0027 45       		.uleb128 0x45
 2457 0028 93       		.byte	0x93
 2458 0029 04       		.uleb128 0x4
 2459 002a 9A000000 		.4byte	.LVL17
 2460 002e A0000000 		.4byte	.LVL18
 2461 0032 0A00     		.2byte	0xa
 2462 0034 93       		.byte	0x93
 2463 0035 04       		.uleb128 0x4
 2464 0036 90       		.byte	0x90
 2465 0037 44       		.uleb128 0x44
 2466 0038 93       		.byte	0x93
 2467 0039 04       		.uleb128 0x4
 2468 003a 90       		.byte	0x90
 2469 003b 45       		.uleb128 0x45
 2470 003c 93       		.byte	0x93
 2471 003d 04       		.uleb128 0x4
 2472 003e BC000000 		.4byte	.LVL23
 2473 0042 CB000000 		.4byte	.LVL24-1
 2474 0046 0A00     		.2byte	0xa
 2475 0048 93       		.byte	0x93
 2476 0049 04       		.uleb128 0x4
 2477 004a 90       		.byte	0x90
 2478 004b 44       		.uleb128 0x44
 2479 004c 93       		.byte	0x93
 2480 004d 04       		.uleb128 0x4
 2481 004e 90       		.byte	0x90
 2482 004f 45       		.uleb128 0x45
 2483 0050 93       		.byte	0x93
 2484 0051 04       		.uleb128 0x4
 2485 0052 00000000 		.4byte	0
 2486 0056 00000000 		.4byte	0
 2487              	.LLST1:
 2488 005a 1C000000 		.4byte	.LVL0
 2489 005e 24000000 		.4byte	.LVL2
 2490 0062 0C00     		.2byte	0xc
 2491 0064 90       		.byte	0x90
 2492 0065 40       		.uleb128 0x40
 2493 0066 93       		.byte	0x93
 2494 0067 04       		.uleb128 0x4
 2495 0068 90       		.byte	0x90
 2496 0069 41       		.uleb128 0x41
 2497 006a 93       		.byte	0x93
 2498 006b 04       		.uleb128 0x4
 2499 006c 90       		.byte	0x90
 2500 006d 42       		.uleb128 0x42
 2501 006e 93       		.byte	0x93
 2502 006f 04       		.uleb128 0x4
 2503 0070 24000000 		.4byte	.LVL2
 2504 0074 28000000 		.4byte	.LVL3
 2505 0078 0C00     		.2byte	0xc
 2506 007a 90       		.byte	0x90
 2507 007b 53       		.uleb128 0x53
 2508 007c 93       		.byte	0x93
ARM GAS  /tmp/ccv5PwI2.s 			page 45


 2509 007d 04       		.uleb128 0x4
 2510 007e 90       		.byte	0x90
 2511 007f 41       		.uleb128 0x41
 2512 0080 93       		.byte	0x93
 2513 0081 04       		.uleb128 0x4
 2514 0082 90       		.byte	0x90
 2515 0083 42       		.uleb128 0x42
 2516 0084 93       		.byte	0x93
 2517 0085 04       		.uleb128 0x4
 2518 0086 9A000000 		.4byte	.LVL17
 2519 008a A0000000 		.4byte	.LVL18
 2520 008e 0C00     		.2byte	0xc
 2521 0090 90       		.byte	0x90
 2522 0091 53       		.uleb128 0x53
 2523 0092 93       		.byte	0x93
 2524 0093 04       		.uleb128 0x4
 2525 0094 90       		.byte	0x90
 2526 0095 41       		.uleb128 0x41
 2527 0096 93       		.byte	0x93
 2528 0097 04       		.uleb128 0x4
 2529 0098 90       		.byte	0x90
 2530 0099 42       		.uleb128 0x42
 2531 009a 93       		.byte	0x93
 2532 009b 04       		.uleb128 0x4
 2533 009c A0000000 		.4byte	.LVL18
 2534 00a0 BC000000 		.4byte	.LVL23
 2535 00a4 0600     		.2byte	0x6
 2536 00a6 90       		.byte	0x90
 2537 00a7 53       		.uleb128 0x53
 2538 00a8 93       		.byte	0x93
 2539 00a9 04       		.uleb128 0x4
 2540 00aa 93       		.byte	0x93
 2541 00ab 08       		.uleb128 0x8
 2542 00ac BC000000 		.4byte	.LVL23
 2543 00b0 CB000000 		.4byte	.LVL24-1
 2544 00b4 0C00     		.2byte	0xc
 2545 00b6 90       		.byte	0x90
 2546 00b7 53       		.uleb128 0x53
 2547 00b8 93       		.byte	0x93
 2548 00b9 04       		.uleb128 0x4
 2549 00ba 90       		.byte	0x90
 2550 00bb 41       		.uleb128 0x41
 2551 00bc 93       		.byte	0x93
 2552 00bd 04       		.uleb128 0x4
 2553 00be 90       		.byte	0x90
 2554 00bf 42       		.uleb128 0x42
 2555 00c0 93       		.byte	0x93
 2556 00c1 04       		.uleb128 0x4
 2557 00c2 CB000000 		.4byte	.LVL24-1
 2558 00c6 E0000000 		.4byte	.LFE22
 2559 00ca 0600     		.2byte	0x6
 2560 00cc 90       		.byte	0x90
 2561 00cd 53       		.uleb128 0x53
 2562 00ce 93       		.byte	0x93
 2563 00cf 04       		.uleb128 0x4
 2564 00d0 93       		.byte	0x93
 2565 00d1 08       		.uleb128 0x8
ARM GAS  /tmp/ccv5PwI2.s 			page 46


 2566 00d2 00000000 		.4byte	0
 2567 00d6 00000000 		.4byte	0
 2568              	.LLST2:
 2569 00da 28000000 		.4byte	.LVL3
 2570 00de 3A000000 		.4byte	.LVL5
 2571 00e2 0C00     		.2byte	0xc
 2572 00e4 90       		.byte	0x90
 2573 00e5 51       		.uleb128 0x51
 2574 00e6 93       		.byte	0x93
 2575 00e7 04       		.uleb128 0x4
 2576 00e8 90       		.byte	0x90
 2577 00e9 50       		.uleb128 0x50
 2578 00ea 93       		.byte	0x93
 2579 00eb 04       		.uleb128 0x4
 2580 00ec 90       		.byte	0x90
 2581 00ed 43       		.uleb128 0x43
 2582 00ee 93       		.byte	0x93
 2583 00ef 04       		.uleb128 0x4
 2584 00f0 9A000000 		.4byte	.LVL17
 2585 00f4 A0000000 		.4byte	.LVL18
 2586 00f8 0C00     		.2byte	0xc
 2587 00fa 90       		.byte	0x90
 2588 00fb 51       		.uleb128 0x51
 2589 00fc 93       		.byte	0x93
 2590 00fd 04       		.uleb128 0x4
 2591 00fe 90       		.byte	0x90
 2592 00ff 50       		.uleb128 0x50
 2593 0100 93       		.byte	0x93
 2594 0101 04       		.uleb128 0x4
 2595 0102 90       		.byte	0x90
 2596 0103 43       		.uleb128 0x43
 2597 0104 93       		.byte	0x93
 2598 0105 04       		.uleb128 0x4
 2599 0106 A0000000 		.4byte	.LVL18
 2600 010a AC000000 		.4byte	.LVL19
 2601 010e 0A00     		.2byte	0xa
 2602 0110 90       		.byte	0x90
 2603 0111 51       		.uleb128 0x51
 2604 0112 93       		.byte	0x93
 2605 0113 04       		.uleb128 0x4
 2606 0114 90       		.byte	0x90
 2607 0115 50       		.uleb128 0x50
 2608 0116 93       		.byte	0x93
 2609 0117 04       		.uleb128 0x4
 2610 0118 93       		.byte	0x93
 2611 0119 04       		.uleb128 0x4
 2612 011a AC000000 		.4byte	.LVL19
 2613 011e B0000000 		.4byte	.LVL20
 2614 0122 0800     		.2byte	0x8
 2615 0124 93       		.byte	0x93
 2616 0125 04       		.uleb128 0x4
 2617 0126 90       		.byte	0x90
 2618 0127 50       		.uleb128 0x50
 2619 0128 93       		.byte	0x93
 2620 0129 04       		.uleb128 0x4
 2621 012a 93       		.byte	0x93
 2622 012b 04       		.uleb128 0x4
ARM GAS  /tmp/ccv5PwI2.s 			page 47


 2623 012c BC000000 		.4byte	.LVL23
 2624 0130 CB000000 		.4byte	.LVL24-1
 2625 0134 0C00     		.2byte	0xc
 2626 0136 90       		.byte	0x90
 2627 0137 51       		.uleb128 0x51
 2628 0138 93       		.byte	0x93
 2629 0139 04       		.uleb128 0x4
 2630 013a 90       		.byte	0x90
 2631 013b 50       		.uleb128 0x50
 2632 013c 93       		.byte	0x93
 2633 013d 04       		.uleb128 0x4
 2634 013e 90       		.byte	0x90
 2635 013f 43       		.uleb128 0x43
 2636 0140 93       		.byte	0x93
 2637 0141 04       		.uleb128 0x4
 2638 0142 CB000000 		.4byte	.LVL24-1
 2639 0146 E0000000 		.4byte	.LFE22
 2640 014a 0A00     		.2byte	0xa
 2641 014c 90       		.byte	0x90
 2642 014d 51       		.uleb128 0x51
 2643 014e 93       		.byte	0x93
 2644 014f 04       		.uleb128 0x4
 2645 0150 90       		.byte	0x90
 2646 0151 50       		.uleb128 0x50
 2647 0152 93       		.byte	0x93
 2648 0153 04       		.uleb128 0x4
 2649 0154 93       		.byte	0x93
 2650 0155 04       		.uleb128 0x4
 2651 0156 00000000 		.4byte	0
 2652 015a 00000000 		.4byte	0
 2653              	.LLST4:
 2654 015e 3A000000 		.4byte	.LVL5
 2655 0162 5A000000 		.4byte	.LVL8
 2656 0166 0C00     		.2byte	0xc
 2657 0168 90       		.byte	0x90
 2658 0169 53       		.uleb128 0x53
 2659 016a 93       		.byte	0x93
 2660 016b 04       		.uleb128 0x4
 2661 016c 90       		.byte	0x90
 2662 016d 41       		.uleb128 0x41
 2663 016e 93       		.byte	0x93
 2664 016f 04       		.uleb128 0x4
 2665 0170 90       		.byte	0x90
 2666 0171 42       		.uleb128 0x42
 2667 0172 93       		.byte	0x93
 2668 0173 04       		.uleb128 0x4
 2669 0174 68000000 		.4byte	.LVL10
 2670 0178 86000000 		.4byte	.LVL13
 2671 017c 0600     		.2byte	0x6
 2672 017e 90       		.byte	0x90
 2673 017f 53       		.uleb128 0x53
 2674 0180 93       		.byte	0x93
 2675 0181 04       		.uleb128 0x4
 2676 0182 93       		.byte	0x93
 2677 0183 08       		.uleb128 0x8
 2678 0184 86000000 		.4byte	.LVL13
 2679 0188 8C000000 		.4byte	.LVL15
ARM GAS  /tmp/ccv5PwI2.s 			page 48


 2680 018c 0C00     		.2byte	0xc
 2681 018e 90       		.byte	0x90
 2682 018f 53       		.uleb128 0x53
 2683 0190 93       		.byte	0x93
 2684 0191 04       		.uleb128 0x4
 2685 0192 90       		.byte	0x90
 2686 0193 41       		.uleb128 0x41
 2687 0194 93       		.byte	0x93
 2688 0195 04       		.uleb128 0x4
 2689 0196 90       		.byte	0x90
 2690 0197 42       		.uleb128 0x42
 2691 0198 93       		.byte	0x93
 2692 0199 04       		.uleb128 0x4
 2693 019a 8C000000 		.4byte	.LVL15
 2694 019e 9A000000 		.4byte	.LVL17
 2695 01a2 0600     		.2byte	0x6
 2696 01a4 90       		.byte	0x90
 2697 01a5 53       		.uleb128 0x53
 2698 01a6 93       		.byte	0x93
 2699 01a7 04       		.uleb128 0x4
 2700 01a8 93       		.byte	0x93
 2701 01a9 08       		.uleb128 0x8
 2702 01aa B6000000 		.4byte	.LVL21
 2703 01ae B9000000 		.4byte	.LVL22-1
 2704 01b2 0C00     		.2byte	0xc
 2705 01b4 90       		.byte	0x90
 2706 01b5 53       		.uleb128 0x53
 2707 01b6 93       		.byte	0x93
 2708 01b7 04       		.uleb128 0x4
 2709 01b8 90       		.byte	0x90
 2710 01b9 41       		.uleb128 0x41
 2711 01ba 93       		.byte	0x93
 2712 01bb 04       		.uleb128 0x4
 2713 01bc 90       		.byte	0x90
 2714 01bd 42       		.uleb128 0x42
 2715 01be 93       		.byte	0x93
 2716 01bf 04       		.uleb128 0x4
 2717 01c0 B9000000 		.4byte	.LVL22-1
 2718 01c4 BC000000 		.4byte	.LVL23
 2719 01c8 0600     		.2byte	0x6
 2720 01ca 90       		.byte	0x90
 2721 01cb 53       		.uleb128 0x53
 2722 01cc 93       		.byte	0x93
 2723 01cd 04       		.uleb128 0x4
 2724 01ce 93       		.byte	0x93
 2725 01cf 08       		.uleb128 0x8
 2726 01d0 00000000 		.4byte	0
 2727 01d4 00000000 		.4byte	0
 2728              	.LLST5:
 2729 01d8 5A000000 		.4byte	.LVL8
 2730 01dc 68000000 		.4byte	.LVL10
 2731 01e0 0A00     		.2byte	0xa
 2732 01e2 90       		.byte	0x90
 2733 01e3 52       		.uleb128 0x52
 2734 01e4 93       		.byte	0x93
 2735 01e5 04       		.uleb128 0x4
 2736 01e6 93       		.byte	0x93
ARM GAS  /tmp/ccv5PwI2.s 			page 49


 2737 01e7 04       		.uleb128 0x4
 2738 01e8 90       		.byte	0x90
 2739 01e9 50       		.uleb128 0x50
 2740 01ea 93       		.byte	0x93
 2741 01eb 04       		.uleb128 0x4
 2742 01ec 86000000 		.4byte	.LVL13
 2743 01f0 8A000000 		.4byte	.LVL14
 2744 01f4 0A00     		.2byte	0xa
 2745 01f6 90       		.byte	0x90
 2746 01f7 52       		.uleb128 0x52
 2747 01f8 93       		.byte	0x93
 2748 01f9 04       		.uleb128 0x4
 2749 01fa 93       		.byte	0x93
 2750 01fb 04       		.uleb128 0x4
 2751 01fc 90       		.byte	0x90
 2752 01fd 50       		.uleb128 0x50
 2753 01fe 93       		.byte	0x93
 2754 01ff 04       		.uleb128 0x4
 2755 0200 8A000000 		.4byte	.LVL14
 2756 0204 8C000000 		.4byte	.LVL15
 2757 0208 0600     		.2byte	0x6
 2758 020a 90       		.byte	0x90
 2759 020b 52       		.uleb128 0x52
 2760 020c 93       		.byte	0x93
 2761 020d 04       		.uleb128 0x4
 2762 020e 93       		.byte	0x93
 2763 020f 08       		.uleb128 0x8
 2764 0210 8C000000 		.4byte	.LVL15
 2765 0214 98000000 		.4byte	.LVL16
 2766 0218 0600     		.2byte	0x6
 2767 021a 90       		.byte	0x90
 2768 021b 52       		.uleb128 0x52
 2769 021c 93       		.byte	0x93
 2770 021d 04       		.uleb128 0x4
 2771 021e 93       		.byte	0x93
 2772 021f 08       		.uleb128 0x8
 2773 0220 B6000000 		.4byte	.LVL21
 2774 0224 B9000000 		.4byte	.LVL22-1
 2775 0228 0600     		.2byte	0x6
 2776 022a 90       		.byte	0x90
 2777 022b 52       		.uleb128 0x52
 2778 022c 93       		.byte	0x93
 2779 022d 04       		.uleb128 0x4
 2780 022e 93       		.byte	0x93
 2781 022f 08       		.uleb128 0x8
 2782 0230 B9000000 		.4byte	.LVL22-1
 2783 0234 BC000000 		.4byte	.LVL23
 2784 0238 0600     		.2byte	0x6
 2785 023a 90       		.byte	0x90
 2786 023b 52       		.uleb128 0x52
 2787 023c 93       		.byte	0x93
 2788 023d 04       		.uleb128 0x4
 2789 023e 93       		.byte	0x93
 2790 023f 08       		.uleb128 0x8
 2791 0240 00000000 		.4byte	0
 2792 0244 00000000 		.4byte	0
 2793              		.section	.debug_aranges,"",%progbits
ARM GAS  /tmp/ccv5PwI2.s 			page 50


 2794 0000 1C000000 		.4byte	0x1c
 2795 0004 0200     		.2byte	0x2
 2796 0006 00000000 		.4byte	.Ldebug_info0
 2797 000a 04       		.byte	0x4
 2798 000b 00       		.byte	0
 2799 000c 0000     		.2byte	0
 2800 000e 0000     		.2byte	0
 2801 0010 00000000 		.4byte	.LFB22
 2802 0014 E0000000 		.4byte	.LFE22-.LFB22
 2803 0018 00000000 		.4byte	0
 2804 001c 00000000 		.4byte	0
 2805              		.section	.debug_ranges,"",%progbits
 2806              	.Ldebug_ranges0:
 2807 0000 06000000 		.4byte	.LBB30
 2808 0004 12000000 		.4byte	.LBE30
 2809 0008 14000000 		.4byte	.LBB35
 2810 000c 18000000 		.4byte	.LBE35
 2811 0010 1C000000 		.4byte	.LBB36
 2812 0014 20000000 		.4byte	.LBE36
 2813 0018 24000000 		.4byte	.LBB52
 2814 001c 28000000 		.4byte	.LBE52
 2815 0020 00000000 		.4byte	0
 2816 0024 00000000 		.4byte	0
 2817 0028 20000000 		.4byte	.LBB37
 2818 002c 24000000 		.4byte	.LBE37
 2819 0030 28000000 		.4byte	.LBB53
 2820 0034 3A000000 		.4byte	.LBE53
 2821 0038 9A000000 		.4byte	.LBB83
 2822 003c B6000000 		.4byte	.LBE83
 2823 0040 C8000000 		.4byte	.LBB85
 2824 0044 E0000000 		.4byte	.LBE85
 2825 0048 00000000 		.4byte	0
 2826 004c 00000000 		.4byte	0
 2827 0050 20000000 		.4byte	.LBB39
 2828 0054 24000000 		.4byte	.LBE39
 2829 0058 28000000 		.4byte	.LBB42
 2830 005c 30000000 		.4byte	.LBE42
 2831 0060 00000000 		.4byte	0
 2832 0064 00000000 		.4byte	0
 2833 0068 30000000 		.4byte	.LBB43
 2834 006c 3A000000 		.4byte	.LBE43
 2835 0070 9A000000 		.4byte	.LBB47
 2836 0074 B6000000 		.4byte	.LBE47
 2837 0078 C8000000 		.4byte	.LBB48
 2838 007c E0000000 		.4byte	.LBE48
 2839 0080 00000000 		.4byte	0
 2840 0084 00000000 		.4byte	0
 2841 0088 3A000000 		.4byte	.LBB54
 2842 008c 4A000000 		.4byte	.LBE54
 2843 0090 4E000000 		.4byte	.LBB76
 2844 0094 52000000 		.4byte	.LBE76
 2845 0098 56000000 		.4byte	.LBB78
 2846 009c 5A000000 		.4byte	.LBE78
 2847 00a0 00000000 		.4byte	0
 2848 00a4 00000000 		.4byte	0
 2849 00a8 4A000000 		.4byte	.LBB58
 2850 00ac 4E000000 		.4byte	.LBE58
ARM GAS  /tmp/ccv5PwI2.s 			page 51


 2851 00b0 52000000 		.4byte	.LBB77
 2852 00b4 56000000 		.4byte	.LBE77
 2853 00b8 5A000000 		.4byte	.LBB79
 2854 00bc 68000000 		.4byte	.LBE79
 2855 00c0 86000000 		.4byte	.LBB82
 2856 00c4 9A000000 		.4byte	.LBE82
 2857 00c8 B6000000 		.4byte	.LBB84
 2858 00cc C8000000 		.4byte	.LBE84
 2859 00d0 00000000 		.4byte	0
 2860 00d4 00000000 		.4byte	0
 2861 00d8 4A000000 		.4byte	.LBB60
 2862 00dc 4E000000 		.4byte	.LBE60
 2863 00e0 52000000 		.4byte	.LBB64
 2864 00e4 56000000 		.4byte	.LBE64
 2865 00e8 5A000000 		.4byte	.LBB65
 2866 00ec 5E000000 		.4byte	.LBE65
 2867 00f0 00000000 		.4byte	0
 2868 00f4 00000000 		.4byte	0
 2869 00f8 5E000000 		.4byte	.LBB66
 2870 00fc 68000000 		.4byte	.LBE66
 2871 0100 86000000 		.4byte	.LBB70
 2872 0104 9A000000 		.4byte	.LBE70
 2873 0108 B6000000 		.4byte	.LBB71
 2874 010c C8000000 		.4byte	.LBE71
 2875 0110 00000000 		.4byte	0
 2876 0114 00000000 		.4byte	0
 2877 0118 00000000 		.4byte	.LFB22
 2878 011c E0000000 		.4byte	.LFE22
 2879 0120 00000000 		.4byte	0
 2880 0124 00000000 		.4byte	0
 2881              		.section	.debug_line,"",%progbits
 2882              	.Ldebug_line0:
 2883 0000 50010000 		.section	.debug_str,"MS",%progbits,1
 2883      0200DC00 
 2883      00000201 
 2883      FB0E0D00 
 2883      01010101 
 2884              	.LASF39:
 2885 0000 5F64736F 		.ascii	"_dso_handle\000"
 2885      5F68616E 
 2885      646C6500 
 2886              	.LASF153:
 2887 000c 46757369 		.ascii	"FusionCompassCalculateHeading\000"
 2887      6F6E436F 
 2887      6D706173 
 2887      7343616C 
 2887      63756C61 
 2888              	.LASF135:
 2889 002a 46757369 		.ascii	"FusionVectorFastNormalise\000"
 2889      6F6E5665 
 2889      63746F72 
 2889      46617374 
 2889      4E6F726D 
 2890              	.LASF151:
 2891 0044 2F626C64 		.ascii	"/bldc\000"
 2891      6300
 2892              	.LASF91:
ARM GAS  /tmp/ccv5PwI2.s 			page 52


 2893 004a 5F72616E 		.ascii	"_rand48\000"
 2893      64343800 
 2894              	.LASF71:
 2895 0052 5F656D65 		.ascii	"_emergency\000"
 2895      7267656E 
 2895      637900
 2896              	.LASF61:
 2897 005d 5F646174 		.ascii	"_data\000"
 2897      6100
 2898              	.LASF149:
 2899 0063 474E5520 		.ascii	"GNU C99 7.3.1 20180622 (release) [ARM/embedded-7-br"
 2899      43393920 
 2899      372E332E 
 2899      31203230 
 2899      31383036 
 2900 0096 616E6368 		.ascii	"anch revision 261907] -mcpu=cortex-m4 -mfloat-abi=h"
 2900      20726576 
 2900      6973696F 
 2900      6E203236 
 2900      31393037 
 2901 00c9 61726420 		.ascii	"ard -mfpu=fpv4-sp-d16 -mno-thumb-interwork -mthumb "
 2901      2D6D6670 
 2901      753D6670 
 2901      76342D73 
 2901      702D6431 
 2902 00fc 2D676764 		.ascii	"-ggdb -O2 -std=gnu99 -fomit-frame-pointer -falign-f"
 2902      62202D4F 
 2902      32202D73 
 2902      74643D67 
 2902      6E753939 
 2903 012f 756E6374 		.ascii	"unctions=16 -ffunction-sections -fdata-sections -fn"
 2903      696F6E73 
 2903      3D313620 
 2903      2D666675 
 2903      6E637469 
 2904 0162 6F2D636F 		.ascii	"o-common -fsingle-precision-constant\000"
 2904      6D6D6F6E 
 2904      202D6673 
 2904      696E676C 
 2904      652D7072 
 2905              	.LASF111:
 2906 0187 5F776372 		.ascii	"_wcrtomb_state\000"
 2906      746F6D62 
 2906      5F737461 
 2906      746500
 2907              	.LASF112:
 2908 0196 5F776373 		.ascii	"_wcsrtombs_state\000"
 2908      72746F6D 
 2908      62735F73 
 2908      74617465 
 2908      00
 2909              	.LASF9:
 2910 01a7 6C6F6E67 		.ascii	"long long unsigned int\000"
 2910      206C6F6E 
 2910      6720756E 
 2910      7369676E 
 2910      65642069 
ARM GAS  /tmp/ccv5PwI2.s 			page 53


 2911              	.LASF125:
 2912 01be 5F5F6664 		.ascii	"__fdlibm_posix\000"
 2912      6C69626D 
 2912      5F706F73 
 2912      697800
 2913              	.LASF51:
 2914 01cd 5F6C6266 		.ascii	"_lbfsize\000"
 2914      73697A65 
 2914      00
 2915              	.LASF137:
 2916 01d6 76656374 		.ascii	"vector\000"
 2916      6F7200
 2917              	.LASF118:
 2918 01dd 5F5F6C6F 		.ascii	"__locale_t\000"
 2918      63616C65 
 2918      5F7400
 2919              	.LASF148:
 2920 01e8 6174616E 		.ascii	"atan2f\000"
 2920      326600
 2921              	.LASF124:
 2922 01ef 5F5F6664 		.ascii	"__fdlibm_xopen\000"
 2922      6C69626D 
 2922      5F786F70 
 2922      656E00
 2923              	.LASF109:
 2924 01fe 5F6D6272 		.ascii	"_mbrtowc_state\000"
 2924      746F7763 
 2924      5F737461 
 2924      746500
 2925              	.LASF138:
 2926 020d 46757369 		.ascii	"FusionVectorCrossProduct\000"
 2926      6F6E5665 
 2926      63746F72 
 2926      43726F73 
 2926      7350726F 
 2927              	.LASF28:
 2928 0226 5F5F746D 		.ascii	"__tm_sec\000"
 2928      5F736563 
 2928      00
 2929              	.LASF8:
 2930 022f 6C6F6E67 		.ascii	"long long int\000"
 2930      206C6F6E 
 2930      6720696E 
 2930      7400
 2931              	.LASF2:
 2932 023d 7369676E 		.ascii	"signed char\000"
 2932      65642063 
 2932      68617200 
 2933              	.LASF57:
 2934 0249 5F756275 		.ascii	"_ubuf\000"
 2934      6600
 2935              	.LASF132:
 2936 024f 6D61676E 		.ascii	"magneticWest\000"
 2936      65746963 
 2936      57657374 
 2936      00
 2937              	.LASF46:
ARM GAS  /tmp/ccv5PwI2.s 			page 54


 2938 025c 5F626173 		.ascii	"_base\000"
 2938      6500
 2939              	.LASF30:
 2940 0262 5F5F746D 		.ascii	"__tm_hour\000"
 2940      5F686F75 
 2940      7200
 2941              	.LASF140:
 2942 026c 76656374 		.ascii	"vectorB\000"
 2942      6F724200 
 2943              	.LASF86:
 2944 0274 5F5F7366 		.ascii	"__sf\000"
 2944      00
 2945              	.LASF37:
 2946 0279 5F6F6E5F 		.ascii	"_on_exit_args\000"
 2946      65786974 
 2946      5F617267 
 2946      7300
 2947              	.LASF143:
 2948 0287 7363616C 		.ascii	"scalar\000"
 2948      617200
 2949              	.LASF52:
 2950 028e 5F636F6F 		.ascii	"_cookie\000"
 2950      6B696500 
 2951              	.LASF85:
 2952 0296 5F5F7367 		.ascii	"__sglue\000"
 2952      6C756500 
 2953              	.LASF6:
 2954 029e 6C6F6E67 		.ascii	"long int\000"
 2954      20696E74 
 2954      00
 2955              	.LASF49:
 2956 02a7 5F666C61 		.ascii	"_flags\000"
 2956      677300
 2957              	.LASF41:
 2958 02ae 5F69735F 		.ascii	"_is_cxa\000"
 2958      63786100 
 2959              	.LASF67:
 2960 02b6 5F737464 		.ascii	"_stdin\000"
 2960      696E00
 2961              	.LASF123:
 2962 02bd 5F5F6664 		.ascii	"__fdlibm_svid\000"
 2962      6C69626D 
 2962      5F737669 
 2962      6400
 2963              	.LASF59:
 2964 02cb 5F626C6B 		.ascii	"_blksize\000"
 2964      73697A65 
 2964      00
 2965              	.LASF121:
 2966 02d4 646F7562 		.ascii	"double\000"
 2966      6C6500
 2967              	.LASF81:
 2968 02db 5F637674 		.ascii	"_cvtbuf\000"
 2968      62756600 
 2969              	.LASF60:
 2970 02e3 5F6F6666 		.ascii	"_offset\000"
 2970      73657400 
ARM GAS  /tmp/ccv5PwI2.s 			page 55


 2971              	.LASF110:
 2972 02eb 5F6D6273 		.ascii	"_mbsrtowcs_state\000"
 2972      72746F77 
 2972      63735F73 
 2972      74617465 
 2972      00
 2973              	.LASF127:
 2974 02fc 61727261 		.ascii	"array\000"
 2974      7900
 2975              	.LASF108:
 2976 0302 5F6D6272 		.ascii	"_mbrlen_state\000"
 2976      6C656E5F 
 2976      73746174 
 2976      6500
 2977              	.LASF38:
 2978 0310 5F666E61 		.ascii	"_fnargs\000"
 2978      72677300 
 2979              	.LASF47:
 2980 0318 5F73697A 		.ascii	"_size\000"
 2980      6500
 2981              	.LASF44:
 2982 031e 5F666E73 		.ascii	"_fns\000"
 2982      00
 2983              	.LASF150:
 2984 0323 696D752F 		.ascii	"imu/Fusion/FusionCompass.c\000"
 2984      46757369 
 2984      6F6E2F46 
 2984      7573696F 
 2984      6E436F6D 
 2985              	.LASF24:
 2986 033e 5F736967 		.ascii	"_sign\000"
 2986      6E00
 2987              	.LASF19:
 2988 0344 5F666C6F 		.ascii	"_flock_t\000"
 2988      636B5F74 
 2988      00
 2989              	.LASF69:
 2990 034d 5F737464 		.ascii	"_stderr\000"
 2990      65727200 
 2991              	.LASF26:
 2992 0355 5F426967 		.ascii	"_Bigint\000"
 2992      696E7400 
 2993              	.LASF99:
 2994 035d 5F67616D 		.ascii	"_gamma_signgam\000"
 2994      6D615F73 
 2994      69676E67 
 2994      616D00
 2995              	.LASF53:
 2996 036c 5F726561 		.ascii	"_read\000"
 2996      6400
 2997              	.LASF77:
 2998 0372 5F726573 		.ascii	"_result_k\000"
 2998      756C745F 
 2998      6B00
 2999              	.LASF27:
 3000 037c 5F5F746D 		.ascii	"__tm\000"
 3000      00
ARM GAS  /tmp/ccv5PwI2.s 			page 56


 3001              	.LASF1:
 3002 0381 756E7369 		.ascii	"unsigned int\000"
 3002      676E6564 
 3002      20696E74 
 3002      00
 3003              	.LASF15:
 3004 038e 5F5F7763 		.ascii	"__wchb\000"
 3004      686200
 3005              	.LASF68:
 3006 0395 5F737464 		.ascii	"_stdout\000"
 3006      6F757400 
 3007              	.LASF80:
 3008 039d 5F637674 		.ascii	"_cvtlen\000"
 3008      6C656E00 
 3009              	.LASF7:
 3010 03a5 6C6F6E67 		.ascii	"long unsigned int\000"
 3010      20756E73 
 3010      69676E65 
 3010      6420696E 
 3010      7400
 3011              	.LASF50:
 3012 03b7 5F66696C 		.ascii	"_file\000"
 3012      6500
 3013              	.LASF89:
 3014 03bd 5F6E696F 		.ascii	"_niobs\000"
 3014      627300
 3015              	.LASF134:
 3016 03c4 6D61676E 		.ascii	"magnitudeReciprocal\000"
 3016      69747564 
 3016      65526563 
 3016      6970726F 
 3016      63616C00 
 3017              	.LASF5:
 3018 03d8 73686F72 		.ascii	"short unsigned int\000"
 3018      7420756E 
 3018      7369676E 
 3018      65642069 
 3018      6E7400
 3019              	.LASF83:
 3020 03eb 5F617465 		.ascii	"_atexit0\000"
 3020      78697430 
 3020      00
 3021              	.LASF106:
 3022 03f4 5F736967 		.ascii	"_signal_buf\000"
 3022      6E616C5F 
 3022      62756600 
 3023              	.LASF97:
 3024 0400 5F617363 		.ascii	"_asctime_buf\000"
 3024      74696D65 
 3024      5F627566 
 3024      00
 3025              	.LASF76:
 3026 040d 5F726573 		.ascii	"_result\000"
 3026      756C7400 
 3027              	.LASF14:
 3028 0415 5F5F7763 		.ascii	"__wch\000"
 3028      6800
ARM GAS  /tmp/ccv5PwI2.s 			page 57


 3029              	.LASF10:
 3030 041b 5F4C4F43 		.ascii	"_LOCK_T\000"
 3030      4B5F5400 
 3031              	.LASF128:
 3032 0423 61786973 		.ascii	"axis\000"
 3032      00
 3033              	.LASF13:
 3034 0428 77696E74 		.ascii	"wint_t\000"
 3034      5F7400
 3035              	.LASF62:
 3036 042f 5F6C6F63 		.ascii	"_lock\000"
 3036      6B00
 3037              	.LASF64:
 3038 0435 5F666C61 		.ascii	"_flags2\000"
 3038      67733200 
 3039              	.LASF147:
 3040 043d 73717274 		.ascii	"sqrtf\000"
 3040      6600
 3041              	.LASF142:
 3042 0443 46757369 		.ascii	"FusionVectorMultiplyScalar\000"
 3042      6F6E5665 
 3042      63746F72 
 3042      4D756C74 
 3042      69706C79 
 3043              	.LASF54:
 3044 045e 5F777269 		.ascii	"_write\000"
 3044      746500
 3045              	.LASF33:
 3046 0465 5F5F746D 		.ascii	"__tm_year\000"
 3046      5F796561 
 3046      7200
 3047              	.LASF144:
 3048 046f 46757369 		.ascii	"FusionFastInverseSqrt\000"
 3048      6F6E4661 
 3048      7374496E 
 3048      76657273 
 3048      65537172 
 3049              	.LASF114:
 3050 0485 5F6E6578 		.ascii	"_nextf\000"
 3050      746600
 3051              	.LASF32:
 3052 048c 5F5F746D 		.ascii	"__tm_mon\000"
 3052      5F6D6F6E 
 3052      00
 3053              	.LASF42:
 3054 0495 5F617465 		.ascii	"_atexit\000"
 3054      78697400 
 3055              	.LASF74:
 3056 049d 5F5F7364 		.ascii	"__sdidinit\000"
 3056      6964696E 
 3056      697400
 3057              	.LASF11:
 3058 04a8 5F6F6666 		.ascii	"_off_t\000"
 3058      5F7400
 3059              	.LASF0:
 3060 04af 666C6F61 		.ascii	"float\000"
 3060      7400
ARM GAS  /tmp/ccv5PwI2.s 			page 58


 3061              	.LASF145:
 3062 04b5 46757369 		.ascii	"FusionRadiansToDegrees\000"
 3062      6F6E5261 
 3062      6469616E 
 3062      73546F44 
 3062      65677265 
 3063              	.LASF79:
 3064 04cc 5F667265 		.ascii	"_freelist\000"
 3064      656C6973 
 3064      7400
 3065              	.LASF104:
 3066 04d6 5F776374 		.ascii	"_wctomb_state\000"
 3066      6F6D625F 
 3066      73746174 
 3066      6500
 3067              	.LASF136:
 3068 04e4 46757369 		.ascii	"FusionVectorMagnitudeSquared\000"
 3068      6F6E5665 
 3068      63746F72 
 3068      4D61676E 
 3068      69747564 
 3069              	.LASF3:
 3070 0501 756E7369 		.ascii	"unsigned char\000"
 3070      676E6564 
 3070      20636861 
 3070      7200
 3071              	.LASF82:
 3072 050f 5F6E6577 		.ascii	"_new\000"
 3072      00
 3073              	.LASF113:
 3074 0514 5F685F65 		.ascii	"_h_errno\000"
 3074      72726E6F 
 3074      00
 3075              	.LASF4:
 3076 051d 73686F72 		.ascii	"short int\000"
 3076      7420696E 
 3076      7400
 3077              	.LASF35:
 3078 0527 5F5F746D 		.ascii	"__tm_yday\000"
 3078      5F796461 
 3078      7900
 3079              	.LASF131:
 3080 0531 6D61676E 		.ascii	"magnetometer\000"
 3080      65746F6D 
 3080      65746572 
 3080      00
 3081              	.LASF45:
 3082 053e 5F5F7362 		.ascii	"__sbuf\000"
 3082      756600
 3083              	.LASF90:
 3084 0545 5F696F62 		.ascii	"_iobs\000"
 3084      7300
 3085              	.LASF87:
 3086 054b 5F5F4649 		.ascii	"__FILE\000"
 3086      4C4500
 3087              	.LASF18:
 3088 0552 5F6D6273 		.ascii	"_mbstate_t\000"
ARM GAS  /tmp/ccv5PwI2.s 			page 59


 3088      74617465 
 3088      5F7400
 3089              	.LASF48:
 3090 055d 5F5F7346 		.ascii	"__sFILE\000"
 3090      494C4500 
 3091              	.LASF63:
 3092 0565 5F6D6273 		.ascii	"_mbstate\000"
 3092      74617465 
 3092      00
 3093              	.LASF100:
 3094 056e 5F72616E 		.ascii	"_rand_next\000"
 3094      645F6E65 
 3094      787400
 3095              	.LASF102:
 3096 0579 5F6D626C 		.ascii	"_mblen_state\000"
 3096      656E5F73 
 3096      74617465 
 3096      00
 3097              	.LASF70:
 3098 0586 5F696E63 		.ascii	"_inc\000"
 3098      00
 3099              	.LASF43:
 3100 058b 5F696E64 		.ascii	"_ind\000"
 3100      00
 3101              	.LASF73:
 3102 0590 5F6C6F63 		.ascii	"_locale\000"
 3102      616C6500 
 3103              	.LASF75:
 3104 0598 5F5F636C 		.ascii	"__cleanup\000"
 3104      65616E75 
 3104      7000
 3105              	.LASF72:
 3106 05a2 5F756E73 		.ascii	"_unspecified_locale_info\000"
 3106      70656369 
 3106      66696564 
 3106      5F6C6F63 
 3106      616C655F 
 3107              	.LASF23:
 3108 05bb 5F6D6178 		.ascii	"_maxwds\000"
 3108      77647300 
 3109              	.LASF65:
 3110 05c3 5F726565 		.ascii	"_reent\000"
 3110      6E7400
 3111              	.LASF130:
 3112 05ca 61636365 		.ascii	"accelerometer\000"
 3112      6C65726F 
 3112      6D657465 
 3112      7200
 3113              	.LASF92:
 3114 05d8 5F736565 		.ascii	"_seed\000"
 3114      6400
 3115              	.LASF16:
 3116 05de 5F5F636F 		.ascii	"__count\000"
 3116      756E7400 
 3117              	.LASF117:
 3118 05e6 5F5F6C6F 		.ascii	"__lock\000"
 3118      636B00
ARM GAS  /tmp/ccv5PwI2.s 			page 60


 3119              	.LASF17:
 3120 05ed 5F5F7661 		.ascii	"__value\000"
 3120      6C756500 
 3121              	.LASF55:
 3122 05f5 5F736565 		.ascii	"_seek\000"
 3122      6B00
 3123              	.LASF119:
 3124 05fb 5F696D70 		.ascii	"_impure_ptr\000"
 3124      7572655F 
 3124      70747200 
 3125              	.LASF133:
 3126 0607 6D61676E 		.ascii	"magneticNorth\000"
 3126      65746963 
 3126      4E6F7274 
 3126      6800
 3127              	.LASF12:
 3128 0615 5F66706F 		.ascii	"_fpos_t\000"
 3128      735F7400 
 3129              	.LASF66:
 3130 061d 5F657272 		.ascii	"_errno\000"
 3130      6E6F00
 3131              	.LASF20:
 3132 0624 63686172 		.ascii	"char\000"
 3132      00
 3133              	.LASF29:
 3134 0629 5F5F746D 		.ascii	"__tm_min\000"
 3134      5F6D696E 
 3134      00
 3135              	.LASF93:
 3136 0632 5F6D756C 		.ascii	"_mult\000"
 3136      7400
 3137              	.LASF22:
 3138 0638 5F6E6578 		.ascii	"_next\000"
 3138      7400
 3139              	.LASF96:
 3140 063e 5F737472 		.ascii	"_strtok_last\000"
 3140      746F6B5F 
 3140      6C617374 
 3140      00
 3141              	.LASF129:
 3142 064b 46757369 		.ascii	"FusionVector3\000"
 3142      6F6E5665 
 3142      63746F72 
 3142      3300
 3143              	.LASF40:
 3144 0659 5F666E74 		.ascii	"_fntypes\000"
 3144      79706573 
 3144      00
 3145              	.LASF94:
 3146 0662 5F616464 		.ascii	"_add\000"
 3146      00
 3147              	.LASF21:
 3148 0667 5F5F554C 		.ascii	"__ULong\000"
 3148      6F6E6700 
 3149              	.LASF107:
 3150 066f 5F676574 		.ascii	"_getdate_err\000"
 3150      64617465 
ARM GAS  /tmp/ccv5PwI2.s 			page 61


 3150      5F657272 
 3150      00
 3151              	.LASF152:
 3152 067c 5F5F6664 		.ascii	"__fdlibm_version\000"
 3152      6C69626D 
 3152      5F766572 
 3152      73696F6E 
 3152      00
 3153              	.LASF120:
 3154 068d 5F676C6F 		.ascii	"_global_impure_ptr\000"
 3154      62616C5F 
 3154      696D7075 
 3154      72655F70 
 3154      747200
 3155              	.LASF122:
 3156 06a0 5F5F6664 		.ascii	"__fdlibm_ieee\000"
 3156      6C69626D 
 3156      5F696565 
 3156      6500
 3157              	.LASF95:
 3158 06ae 5F756E75 		.ascii	"_unused_rand\000"
 3158      7365645F 
 3158      72616E64 
 3158      00
 3159              	.LASF25:
 3160 06bb 5F776473 		.ascii	"_wds\000"
 3160      00
 3161              	.LASF34:
 3162 06c0 5F5F746D 		.ascii	"__tm_wday\000"
 3162      5F776461 
 3162      7900
 3163              	.LASF88:
 3164 06ca 5F676C75 		.ascii	"_glue\000"
 3164      6500
 3165              	.LASF126:
 3166 06d0 5F5F6664 		.ascii	"__fdlib_version\000"
 3166      6C69625F 
 3166      76657273 
 3166      696F6E00 
 3167              	.LASF115:
 3168 06e0 5F6E6D61 		.ascii	"_nmalloc\000"
 3168      6C6C6F63 
 3168      00
 3169              	.LASF105:
 3170 06e9 5F6C3634 		.ascii	"_l64a_buf\000"
 3170      615F6275 
 3170      6600
 3171              	.LASF84:
 3172 06f3 5F736967 		.ascii	"_sig_func\000"
 3172      5F66756E 
 3172      6300
 3173              	.LASF58:
 3174 06fd 5F6E6275 		.ascii	"_nbuf\000"
 3174      6600
 3175              	.LASF116:
 3176 0703 5F756E75 		.ascii	"_unused\000"
 3176      73656400 
ARM GAS  /tmp/ccv5PwI2.s 			page 62


 3177              	.LASF36:
 3178 070b 5F5F746D 		.ascii	"__tm_isdst\000"
 3178      5F697364 
 3178      737400
 3179              	.LASF98:
 3180 0716 5F6C6F63 		.ascii	"_localtime_buf\000"
 3180      616C7469 
 3180      6D655F62 
 3180      756600
 3181              	.LASF56:
 3182 0725 5F636C6F 		.ascii	"_close\000"
 3182      736500
 3183              	.LASF101:
 3184 072c 5F723438 		.ascii	"_r48\000"
 3184      00
 3185              	.LASF146:
 3186 0731 72616469 		.ascii	"radians\000"
 3186      616E7300 
 3187              	.LASF103:
 3188 0739 5F6D6274 		.ascii	"_mbtowc_state\000"
 3188      6F77635F 
 3188      73746174 
 3188      6500
 3189              	.LASF78:
 3190 0747 5F703573 		.ascii	"_p5s\000"
 3190      00
 3191              	.LASF139:
 3192 074c 76656374 		.ascii	"vectorA\000"
 3192      6F724100 
 3193              	.LASF141:
 3194 0754 72657375 		.ascii	"result\000"
 3194      6C7400
 3195              	.LASF31:
 3196 075b 5F5F746D 		.ascii	"__tm_mday\000"
 3196      5F6D6461 
 3196      7900
 3197              		.ident	"GCC: (GNU Tools for Arm Embedded Processors 7-2018-q3-update) 7.3.1 20180622 (release) [AR
ARM GAS  /tmp/ccv5PwI2.s 			page 63


DEFINED SYMBOLS
                            *ABS*:0000000000000000 FusionCompass.c
     /tmp/ccv5PwI2.s:18     .text.FusionCompassCalculateHeading:0000000000000000 $t
     /tmp/ccv5PwI2.s:26     .text.FusionCompassCalculateHeading:0000000000000000 FusionCompassCalculateHeading
     /tmp/ccv5PwI2.s:280    .text.FusionCompassCalculateHeading:00000000000000dc $d

UNDEFINED SYMBOLS
atan2f
sqrtf
