ARM GAS  /tmp/ccpMYBMS.s 			page 1


   1              		.cpu cortex-m4
   2              		.eabi_attribute 27, 1
   3              		.eabi_attribute 28, 1
   4              		.eabi_attribute 20, 1
   5              		.eabi_attribute 21, 1
   6              		.eabi_attribute 23, 3
   7              		.eabi_attribute 24, 1
   8              		.eabi_attribute 25, 1
   9              		.eabi_attribute 26, 1
  10              		.eabi_attribute 30, 2
  11              		.eabi_attribute 34, 1
  12              		.eabi_attribute 18, 4
  13              		.file	"FusionBias.c"
  14              		.text
  15              	.Ltext0:
  16              		.cfi_sections	.debug_frame
  17              		.section	.text.FusionBiasInitialise,"ax",%progbits
  18              		.align	1
  19              		.p2align 4,,15
  20              		.global	FusionBiasInitialise
  21              		.syntax unified
  22              		.thumb
  23              		.thumb_func
  24              		.fpu fpv4-sp-d16
  25              		.type	FusionBiasInitialise, %function
  26              	FusionBiasInitialise:
  27              	.LFB22:
  28              		.file 1 "imu/Fusion/FusionBias.c"
  29              		.loc 1 42 0
  30              		.cfi_startproc
  31              		@ args = 0, pretend = 0, frame = 0
  32              		@ frame_needed = 0, uses_anonymous_args = 0
  33              		@ link register save eliminated.
  34              	.LVL0:
  35              		.loc 1 44 0
  36 0000 DFED067A 		vldr.32	s15, .L3
  37              		.loc 1 43 0
  38 0004 80ED000A 		vstr.32	s0, [r0]
  39              		.loc 1 44 0
  40 0008 60EEA70A 		vmul.f32	s1, s1, s15
  41              	.LVL1:
  42              		.loc 1 45 0
  43 000c 0023     		movs	r3, #0
  44              		.loc 1 44 0
  45 000e C0ED010A 		vstr.32	s1, [r0, #4]
  46              		.loc 1 45 0
  47 0012 8360     		str	r3, [r0, #8]	@ float
  48              		.loc 1 46 0
  49 0014 C360     		str	r3, [r0, #12]	@ float
  50 0016 0361     		str	r3, [r0, #16]	@ float
  51 0018 4361     		str	r3, [r0, #20]	@ float
  52              		.loc 1 47 0
  53 001a 7047     		bx	lr
  54              	.L4:
  55              		.align	2
  56              	.L3:
  57 001c FDAD003E 		.word	1040231933
ARM GAS  /tmp/ccpMYBMS.s 			page 2


  58              		.cfi_endproc
  59              	.LFE22:
  60              		.size	FusionBiasInitialise, .-FusionBiasInitialise
  61              		.section	.text.FusionBiasUpdate,"ax",%progbits
  62              		.align	1
  63              		.p2align 4,,15
  64              		.global	FusionBiasUpdate
  65              		.syntax unified
  66              		.thumb
  67              		.thumb_func
  68              		.fpu fpv4-sp-d16
  69              		.type	FusionBiasUpdate, %function
  70              	FusionBiasUpdate:
  71              	.LFB23:
  72              		.loc 1 57 0
  73              		.cfi_startproc
  74              		@ args = 0, pretend = 0, frame = 48
  75              		@ frame_needed = 0, uses_anonymous_args = 0
  76              		@ link register save eliminated.
  77              	.LVL2:
  78 0000 90ED036A 		vldr.32	s12, [r0, #12]
  79              		.loc 1 63 0
  80 0004 D0ED007A 		vldr.32	s15, [r0]
  81 0008 D0ED046A 		vldr.32	s13, [r0, #16]
  82 000c 90ED057A 		vldr.32	s14, [r0, #20]
  83              	.LBB8:
  84              	.LBB9:
  85              		.file 2 "imu/Fusion/FusionTypes.h"
  86              		.loc 2 176 0
  87 0010 30EE460A 		vsub.f32	s0, s0, s12
  88              	.LBE9:
  89              	.LBE8:
  90              		.loc 1 57 0
  91 0014 8CB0     		sub	sp, sp, #48
  92              		.cfi_def_cfa_offset 48
  93              	.LVL3:
  94              		.loc 1 63 0
  95 0016 F0EEC05A 		vabs.f32	s11, s0
  96 001a F4EEE75A 		vcmpe.f32	s11, s15
  97 001e F1EE10FA 		vmrs	APSR_nzcv, FPSCR
  98              	.LBB11:
  99              	.LBB10:
 100              		.loc 2 177 0
 101 0022 70EEE60A 		vsub.f32	s1, s1, s13
 102              	.LVL4:
 103              		.loc 2 178 0
 104 0026 31EE471A 		vsub.f32	s2, s2, s14
 105              	.LVL5:
 106              	.LBE10:
 107              	.LBE11:
 108              		.loc 1 63 0
 109 002a 2BDC     		bgt	.L6
 110              		.loc 1 63 0 is_stmt 0 discriminator 1
 111 002c F0EEE05A 		vabs.f32	s11, s1
 112 0030 F4EEE57A 		vcmpe.f32	s15, s11
 113 0034 F1EE10FA 		vmrs	APSR_nzcv, FPSCR
 114 0038 24D4     		bmi	.L6
ARM GAS  /tmp/ccpMYBMS.s 			page 3


 115              		.loc 1 63 0 discriminator 2
 116 003a F0EEC15A 		vabs.f32	s11, s2
 117 003e F4EEE57A 		vcmpe.f32	s15, s11
 118 0042 F1EE10FA 		vmrs	APSR_nzcv, FPSCR
 119 0046 1DD4     		bmi	.L6
 120              		.loc 1 69 0 is_stmt 1
 121 0048 D0ED027A 		vldr.32	s15, [r0, #8]
 122 004c F1EE045A 		vmov.f32	s11, #5.0e+0
 123 0050 F4EEE57A 		vcmpe.f32	s15, s11
 124 0054 F1EE10FA 		vmrs	APSR_nzcv, FPSCR
 125 0058 24D4     		bmi	.L16
 126              		.loc 1 75 0
 127 005a D0ED017A 		vldr.32	s15, [r0, #4]
 128              	.LVL6:
 129              		.loc 1 76 0
 130 005e 8DED090A 		vstr.32	s0, [sp, #36]
 131              	.LBB12:
 132              	.LBB13:
 133              		.loc 2 162 0
 134 0062 A7EE806A 		vfma.f32	s12, s15, s0
 135              	.LVL7:
 136              		.loc 2 163 0
 137 0066 E7EEA06A 		vfma.f32	s13, s15, s1
 138              	.LVL8:
 139              		.loc 2 164 0
 140 006a A7EE817A 		vfma.f32	s14, s15, s2
 141              	.LVL9:
 142              	.LBE13:
 143              	.LBE12:
 144              		.loc 1 76 0
 145 006e CDED0A0A 		vstr.32	s1, [sp, #40]
 146 0072 8DED0B1A 		vstr.32	s2, [sp, #44]
 147              		.loc 1 75 0
 148 0076 80ED036A 		vstr.32	s12, [r0, #12]
 149              	.LVL10:
 150 007a C0ED046A 		vstr.32	s13, [r0, #16]
 151              	.LVL11:
 152 007e 80ED057A 		vstr.32	s14, [r0, #20]
 153              	.LVL12:
 154              		.loc 1 76 0
 155 0082 07E0     		b	.L9
 156              	.LVL13:
 157              	.L6:
 158              		.loc 1 64 0
 159 0084 0023     		movs	r3, #0
 160              		.loc 1 65 0
 161 0086 8DED090A 		vstr.32	s0, [sp, #36]
 162 008a CDED0A0A 		vstr.32	s1, [sp, #40]
 163 008e 8DED0B1A 		vstr.32	s2, [sp, #44]
 164              		.loc 1 64 0
 165 0092 8360     		str	r3, [r0, #8]	@ float
 166              	.LVL14:
 167              	.L9:
 168              		.loc 1 77 0
 169 0094 9DED090A 		vldr.32	s0, [sp, #36]
 170              	.LVL15:
 171 0098 DDED0A0A 		vldr.32	s1, [sp, #40]
ARM GAS  /tmp/ccpMYBMS.s 			page 4


 172              	.LVL16:
 173 009c 9DED0B1A 		vldr.32	s2, [sp, #44]
 174              	.LVL17:
 175 00a0 0CB0     		add	sp, sp, #48
 176              		.cfi_remember_state
 177              		.cfi_def_cfa_offset 0
 178              	.LVL18:
 179              		@ sp needed
 180 00a2 7047     		bx	lr
 181              	.LVL19:
 182              	.L16:
 183              		.cfi_restore_state
 184              		.loc 1 70 0
 185 00a4 77EEA11A 		vadd.f32	s3, s15, s3
 186              	.LVL20:
 187              		.loc 1 71 0
 188 00a8 8DED090A 		vstr.32	s0, [sp, #36]
 189              		.loc 1 70 0
 190 00ac C0ED021A 		vstr.32	s3, [r0, #8]
 191              		.loc 1 71 0
 192 00b0 CDED0A0A 		vstr.32	s1, [sp, #40]
 193 00b4 8DED0B1A 		vstr.32	s2, [sp, #44]
 194 00b8 ECE7     		b	.L9
 195              		.cfi_endproc
 196              	.LFE23:
 197              		.size	FusionBiasUpdate, .-FusionBiasUpdate
 198 00ba 00BF     		.section	.text.FusionBiasIsActive,"ax",%progbits
 199              		.align	1
 200              		.p2align 4,,15
 201              		.global	FusionBiasIsActive
 202              		.syntax unified
 203              		.thumb
 204              		.thumb_func
 205              		.fpu fpv4-sp-d16
 206              		.type	FusionBiasIsActive, %function
 207              	FusionBiasIsActive:
 208              	.LFB24:
 209              		.loc 1 84 0
 210              		.cfi_startproc
 211              		@ args = 0, pretend = 0, frame = 0
 212              		@ frame_needed = 0, uses_anonymous_args = 0
 213              		@ link register save eliminated.
 214              	.LVL21:
 215              		.loc 1 85 0
 216 0000 90ED027A 		vldr.32	s14, [r0, #8]
 217 0004 F1EE047A 		vmov.f32	s15, #5.0e+0
 218 0008 B4EEE77A 		vcmpe.f32	s14, s15
 219 000c F1EE10FA 		vmrs	APSR_nzcv, FPSCR
 220              		.loc 1 86 0
 221 0010 ACBF     		ite	ge
 222 0012 0120     		movge	r0, #1
 223              	.LVL22:
 224 0014 0020     		movlt	r0, #0
 225 0016 7047     		bx	lr
 226              		.cfi_endproc
 227              	.LFE24:
 228              		.size	FusionBiasIsActive, .-FusionBiasIsActive
ARM GAS  /tmp/ccpMYBMS.s 			page 5


 229              		.text
 230              	.Letext0:
 231              		.file 3 "/usr/arm-none-eabi/include/sys/lock.h"
 232              		.file 4 "/usr/arm-none-eabi/include/sys/_types.h"
 233              		.file 5 "/usr/lib/gcc/arm-none-eabi/7.3.1/include/stddef.h"
 234              		.file 6 "/usr/arm-none-eabi/include/sys/reent.h"
 235              		.file 7 "/usr/arm-none-eabi/include/math.h"
 236              		.file 8 "imu/Fusion/FusionBias.h"
 237              		.section	.debug_info,"",%progbits
 238              	.Ldebug_info0:
 239 0000 310B0000 		.4byte	0xb31
 240 0004 0400     		.2byte	0x4
 241 0006 00000000 		.4byte	.Ldebug_abbrev0
 242 000a 04       		.byte	0x4
 243 000b 01       		.uleb128 0x1
 244 000c 32000000 		.4byte	.LASF148
 245 0010 0C       		.byte	0xc
 246 0011 5F040000 		.4byte	.LASF149
 247 0015 13000000 		.4byte	.LASF150
 248 0019 18000000 		.4byte	.Ldebug_ranges0+0x18
 249 001d 00000000 		.4byte	0
 250 0021 00000000 		.4byte	.Ldebug_line0
 251 0025 02       		.uleb128 0x2
 252 0026 04       		.byte	0x4
 253 0027 04       		.byte	0x4
 254 0028 B6040000 		.4byte	.LASF0
 255 002c 03       		.uleb128 0x3
 256 002d 04       		.byte	0x4
 257 002e 05       		.byte	0x5
 258 002f 696E7400 		.ascii	"int\000"
 259 0033 02       		.uleb128 0x2
 260 0034 04       		.byte	0x4
 261 0035 07       		.byte	0x7
 262 0036 4E030000 		.4byte	.LASF1
 263 003a 02       		.uleb128 0x2
 264 003b 01       		.byte	0x1
 265 003c 06       		.byte	0x6
 266 003d 07020000 		.4byte	.LASF2
 267 0041 02       		.uleb128 0x2
 268 0042 01       		.byte	0x1
 269 0043 08       		.byte	0x8
 270 0044 E4040000 		.4byte	.LASF3
 271 0048 02       		.uleb128 0x2
 272 0049 02       		.byte	0x2
 273 004a 05       		.byte	0x5
 274 004b 00050000 		.4byte	.LASF4
 275 004f 02       		.uleb128 0x2
 276 0050 02       		.byte	0x2
 277 0051 07       		.byte	0x7
 278 0052 BB030000 		.4byte	.LASF5
 279 0056 02       		.uleb128 0x2
 280 0057 04       		.byte	0x4
 281 0058 05       		.byte	0x5
 282 0059 54020000 		.4byte	.LASF6
 283 005d 02       		.uleb128 0x2
 284 005e 04       		.byte	0x4
 285 005f 07       		.byte	0x7
ARM GAS  /tmp/ccpMYBMS.s 			page 6


 286 0060 82030000 		.4byte	.LASF7
 287 0064 02       		.uleb128 0x2
 288 0065 08       		.byte	0x8
 289 0066 05       		.byte	0x5
 290 0067 F9010000 		.4byte	.LASF8
 291 006b 02       		.uleb128 0x2
 292 006c 08       		.byte	0x8
 293 006d 07       		.byte	0x7
 294 006e 83010000 		.4byte	.LASF9
 295 0072 04       		.uleb128 0x4
 296 0073 FE030000 		.4byte	.LASF10
 297 0077 03       		.byte	0x3
 298 0078 22       		.byte	0x22
 299 0079 7D000000 		.4byte	0x7d
 300 007d 05       		.uleb128 0x5
 301 007e 04       		.byte	0x4
 302 007f 83000000 		.4byte	0x83
 303 0083 06       		.uleb128 0x6
 304 0084 CA050000 		.4byte	.LASF117
 305 0088 04       		.uleb128 0x4
 306 0089 AF040000 		.4byte	.LASF11
 307 008d 04       		.byte	0x4
 308 008e 2C       		.byte	0x2c
 309 008f 56000000 		.4byte	0x56
 310 0093 04       		.uleb128 0x4
 311 0094 EB050000 		.4byte	.LASF12
 312 0098 04       		.byte	0x4
 313 0099 72       		.byte	0x72
 314 009a 56000000 		.4byte	0x56
 315 009e 07       		.uleb128 0x7
 316 009f 0B040000 		.4byte	.LASF13
 317 00a3 05       		.byte	0x5
 318 00a4 6501     		.2byte	0x165
 319 00a6 33000000 		.4byte	0x33
 320 00aa 08       		.uleb128 0x8
 321 00ab 04       		.byte	0x4
 322 00ac 04       		.byte	0x4
 323 00ad A6       		.byte	0xa6
 324 00ae C9000000 		.4byte	0xc9
 325 00b2 09       		.uleb128 0x9
 326 00b3 F8030000 		.4byte	.LASF14
 327 00b7 04       		.byte	0x4
 328 00b8 A8       		.byte	0xa8
 329 00b9 9E000000 		.4byte	0x9e
 330 00bd 09       		.uleb128 0x9
 331 00be 5B030000 		.4byte	.LASF15
 332 00c2 04       		.byte	0x4
 333 00c3 A9       		.byte	0xa9
 334 00c4 C9000000 		.4byte	0xc9
 335 00c8 00       		.byte	0
 336 00c9 0A       		.uleb128 0xa
 337 00ca 41000000 		.4byte	0x41
 338 00ce D9000000 		.4byte	0xd9
 339 00d2 0B       		.uleb128 0xb
 340 00d3 33000000 		.4byte	0x33
 341 00d7 03       		.byte	0x3
 342 00d8 00       		.byte	0
ARM GAS  /tmp/ccpMYBMS.s 			page 7


 343 00d9 0C       		.uleb128 0xc
 344 00da 08       		.byte	0x8
 345 00db 04       		.byte	0x4
 346 00dc A3       		.byte	0xa3
 347 00dd FA000000 		.4byte	0xfa
 348 00e1 0D       		.uleb128 0xd
 349 00e2 C2050000 		.4byte	.LASF16
 350 00e6 04       		.byte	0x4
 351 00e7 A5       		.byte	0xa5
 352 00e8 2C000000 		.4byte	0x2c
 353 00ec 00       		.byte	0
 354 00ed 0D       		.uleb128 0xd
 355 00ee D1050000 		.4byte	.LASF17
 356 00f2 04       		.byte	0x4
 357 00f3 AA       		.byte	0xaa
 358 00f4 AA000000 		.4byte	0xaa
 359 00f8 04       		.byte	0x4
 360 00f9 00       		.byte	0
 361 00fa 04       		.uleb128 0x4
 362 00fb 28050000 		.4byte	.LASF18
 363 00ff 04       		.byte	0x4
 364 0100 AB       		.byte	0xab
 365 0101 D9000000 		.4byte	0xd9
 366 0105 04       		.uleb128 0x4
 367 0106 FC020000 		.4byte	.LASF19
 368 010a 04       		.byte	0x4
 369 010b AF       		.byte	0xaf
 370 010c 72000000 		.4byte	0x72
 371 0110 0E       		.uleb128 0xe
 372 0111 04       		.byte	0x4
 373 0112 05       		.uleb128 0x5
 374 0113 04       		.byte	0x4
 375 0114 18010000 		.4byte	0x118
 376 0118 02       		.uleb128 0x2
 377 0119 01       		.byte	0x1
 378 011a 08       		.byte	0x8
 379 011b FA050000 		.4byte	.LASF20
 380 011f 0F       		.uleb128 0xf
 381 0120 18010000 		.4byte	0x118
 382 0124 04       		.uleb128 0x4
 383 0125 3D060000 		.4byte	.LASF21
 384 0129 06       		.byte	0x6
 385 012a 16       		.byte	0x16
 386 012b 5D000000 		.4byte	0x5d
 387 012f 10       		.uleb128 0x10
 388 0130 0D030000 		.4byte	.LASF26
 389 0134 18       		.byte	0x18
 390 0135 06       		.byte	0x6
 391 0136 2F       		.byte	0x2f
 392 0137 82010000 		.4byte	0x182
 393 013b 0D       		.uleb128 0xd
 394 013c 0E060000 		.4byte	.LASF22
 395 0140 06       		.byte	0x6
 396 0141 31       		.byte	0x31
 397 0142 82010000 		.4byte	0x182
 398 0146 00       		.byte	0
 399 0147 11       		.uleb128 0x11
ARM GAS  /tmp/ccpMYBMS.s 			page 8


 400 0148 5F6B00   		.ascii	"_k\000"
 401 014b 06       		.byte	0x6
 402 014c 32       		.byte	0x32
 403 014d 2C000000 		.4byte	0x2c
 404 0151 04       		.byte	0x4
 405 0152 0D       		.uleb128 0xd
 406 0153 9C050000 		.4byte	.LASF23
 407 0157 06       		.byte	0x6
 408 0158 32       		.byte	0x32
 409 0159 2C000000 		.4byte	0x2c
 410 015d 08       		.byte	0x8
 411 015e 0D       		.uleb128 0xd
 412 015f F6020000 		.4byte	.LASF24
 413 0163 06       		.byte	0x6
 414 0164 32       		.byte	0x32
 415 0165 2C000000 		.4byte	0x2c
 416 0169 0C       		.byte	0xc
 417 016a 0D       		.uleb128 0xd
 418 016b 91060000 		.4byte	.LASF25
 419 016f 06       		.byte	0x6
 420 0170 32       		.byte	0x32
 421 0171 2C000000 		.4byte	0x2c
 422 0175 10       		.byte	0x10
 423 0176 11       		.uleb128 0x11
 424 0177 5F7800   		.ascii	"_x\000"
 425 017a 06       		.byte	0x6
 426 017b 33       		.byte	0x33
 427 017c 88010000 		.4byte	0x188
 428 0180 14       		.byte	0x14
 429 0181 00       		.byte	0
 430 0182 05       		.uleb128 0x5
 431 0183 04       		.byte	0x4
 432 0184 2F010000 		.4byte	0x12f
 433 0188 0A       		.uleb128 0xa
 434 0189 24010000 		.4byte	0x124
 435 018d 98010000 		.4byte	0x198
 436 0191 0B       		.uleb128 0xb
 437 0192 33000000 		.4byte	0x33
 438 0196 00       		.byte	0
 439 0197 00       		.byte	0
 440 0198 10       		.uleb128 0x10
 441 0199 49030000 		.4byte	.LASF27
 442 019d 24       		.byte	0x24
 443 019e 06       		.byte	0x6
 444 019f 37       		.byte	0x37
 445 01a0 11020000 		.4byte	0x211
 446 01a4 0D       		.uleb128 0xd
 447 01a5 F0010000 		.4byte	.LASF28
 448 01a9 06       		.byte	0x6
 449 01aa 39       		.byte	0x39
 450 01ab 2C000000 		.4byte	0x2c
 451 01af 00       		.byte	0
 452 01b0 0D       		.uleb128 0xd
 453 01b1 FF050000 		.4byte	.LASF29
 454 01b5 06       		.byte	0x6
 455 01b6 3A       		.byte	0x3a
 456 01b7 2C000000 		.4byte	0x2c
ARM GAS  /tmp/ccpMYBMS.s 			page 9


 457 01bb 04       		.byte	0x4
 458 01bc 0D       		.uleb128 0xd
 459 01bd 1F020000 		.4byte	.LASF30
 460 01c1 06       		.byte	0x6
 461 01c2 3B       		.byte	0x3b
 462 01c3 2C000000 		.4byte	0x2c
 463 01c7 08       		.byte	0x8
 464 01c8 0D       		.uleb128 0xd
 465 01c9 29070000 		.4byte	.LASF31
 466 01cd 06       		.byte	0x6
 467 01ce 3C       		.byte	0x3c
 468 01cf 2C000000 		.4byte	0x2c
 469 01d3 0C       		.byte	0xc
 470 01d4 0D       		.uleb128 0xd
 471 01d5 93040000 		.4byte	.LASF32
 472 01d9 06       		.byte	0x6
 473 01da 3D       		.byte	0x3d
 474 01db 2C000000 		.4byte	0x2c
 475 01df 10       		.byte	0x10
 476 01e0 0D       		.uleb128 0xd
 477 01e1 42040000 		.4byte	.LASF33
 478 01e5 06       		.byte	0x6
 479 01e6 3E       		.byte	0x3e
 480 01e7 2C000000 		.4byte	0x2c
 481 01eb 14       		.byte	0x14
 482 01ec 0D       		.uleb128 0xd
 483 01ed 96060000 		.4byte	.LASF34
 484 01f1 06       		.byte	0x6
 485 01f2 3F       		.byte	0x3f
 486 01f3 2C000000 		.4byte	0x2c
 487 01f7 18       		.byte	0x18
 488 01f8 0D       		.uleb128 0xd
 489 01f9 0A050000 		.4byte	.LASF35
 490 01fd 06       		.byte	0x6
 491 01fe 40       		.byte	0x40
 492 01ff 2C000000 		.4byte	0x2c
 493 0203 1C       		.byte	0x1c
 494 0204 0D       		.uleb128 0xd
 495 0205 E1060000 		.4byte	.LASF36
 496 0209 06       		.byte	0x6
 497 020a 41       		.byte	0x41
 498 020b 2C000000 		.4byte	0x2c
 499 020f 20       		.byte	0x20
 500 0210 00       		.byte	0
 501 0211 12       		.uleb128 0x12
 502 0212 36020000 		.4byte	.LASF37
 503 0216 0801     		.2byte	0x108
 504 0218 06       		.byte	0x6
 505 0219 4A       		.byte	0x4a
 506 021a 51020000 		.4byte	0x251
 507 021e 0D       		.uleb128 0xd
 508 021f D1020000 		.4byte	.LASF38
 509 0223 06       		.byte	0x6
 510 0224 4B       		.byte	0x4b
 511 0225 51020000 		.4byte	0x251
 512 0229 00       		.byte	0
 513 022a 0D       		.uleb128 0xd
ARM GAS  /tmp/ccpMYBMS.s 			page 10


 514 022b 00000000 		.4byte	.LASF39
 515 022f 06       		.byte	0x6
 516 0230 4C       		.byte	0x4c
 517 0231 51020000 		.4byte	0x251
 518 0235 80       		.byte	0x80
 519 0236 13       		.uleb128 0x13
 520 0237 2F060000 		.4byte	.LASF40
 521 023b 06       		.byte	0x6
 522 023c 4E       		.byte	0x4e
 523 023d 24010000 		.4byte	0x124
 524 0241 0001     		.2byte	0x100
 525 0243 13       		.uleb128 0x13
 526 0244 64020000 		.4byte	.LASF41
 527 0248 06       		.byte	0x6
 528 0249 51       		.byte	0x51
 529 024a 24010000 		.4byte	0x124
 530 024e 0401     		.2byte	0x104
 531 0250 00       		.byte	0
 532 0251 0A       		.uleb128 0xa
 533 0252 10010000 		.4byte	0x110
 534 0256 61020000 		.4byte	0x261
 535 025a 0B       		.uleb128 0xb
 536 025b 33000000 		.4byte	0x33
 537 025f 1F       		.byte	0x1f
 538 0260 00       		.byte	0
 539 0261 12       		.uleb128 0x12
 540 0262 9C040000 		.4byte	.LASF42
 541 0266 9001     		.2byte	0x190
 542 0268 06       		.byte	0x6
 543 0269 5D       		.byte	0x5d
 544 026a 9F020000 		.4byte	0x29f
 545 026e 0D       		.uleb128 0xd
 546 026f 0E060000 		.4byte	.LASF22
 547 0273 06       		.byte	0x6
 548 0274 5E       		.byte	0x5e
 549 0275 9F020000 		.4byte	0x29f
 550 0279 00       		.byte	0
 551 027a 0D       		.uleb128 0xd
 552 027b 6C050000 		.4byte	.LASF43
 553 027f 06       		.byte	0x6
 554 0280 5F       		.byte	0x5f
 555 0281 2C000000 		.4byte	0x2c
 556 0285 04       		.byte	0x4
 557 0286 0D       		.uleb128 0xd
 558 0287 DF020000 		.4byte	.LASF44
 559 028b 06       		.byte	0x6
 560 028c 61       		.byte	0x61
 561 028d A5020000 		.4byte	0x2a5
 562 0291 08       		.byte	0x8
 563 0292 0D       		.uleb128 0xd
 564 0293 36020000 		.4byte	.LASF37
 565 0297 06       		.byte	0x6
 566 0298 62       		.byte	0x62
 567 0299 11020000 		.4byte	0x211
 568 029d 88       		.byte	0x88
 569 029e 00       		.byte	0
 570 029f 05       		.uleb128 0x5
ARM GAS  /tmp/ccpMYBMS.s 			page 11


 571 02a0 04       		.byte	0x4
 572 02a1 61020000 		.4byte	0x261
 573 02a5 0A       		.uleb128 0xa
 574 02a6 B5020000 		.4byte	0x2b5
 575 02aa B5020000 		.4byte	0x2b5
 576 02ae 0B       		.uleb128 0xb
 577 02af 33000000 		.4byte	0x33
 578 02b3 1F       		.byte	0x1f
 579 02b4 00       		.byte	0
 580 02b5 05       		.uleb128 0x5
 581 02b6 04       		.byte	0x4
 582 02b7 BB020000 		.4byte	0x2bb
 583 02bb 14       		.uleb128 0x14
 584 02bc 10       		.uleb128 0x10
 585 02bd 14050000 		.4byte	.LASF45
 586 02c1 08       		.byte	0x8
 587 02c2 06       		.byte	0x6
 588 02c3 75       		.byte	0x75
 589 02c4 E1020000 		.4byte	0x2e1
 590 02c8 0D       		.uleb128 0xd
 591 02c9 19020000 		.4byte	.LASF46
 592 02cd 06       		.byte	0x6
 593 02ce 76       		.byte	0x76
 594 02cf E1020000 		.4byte	0x2e1
 595 02d3 00       		.byte	0
 596 02d4 0D       		.uleb128 0xd
 597 02d5 D9020000 		.4byte	.LASF47
 598 02d9 06       		.byte	0x6
 599 02da 77       		.byte	0x77
 600 02db 2C000000 		.4byte	0x2c
 601 02df 04       		.byte	0x4
 602 02e0 00       		.byte	0
 603 02e1 05       		.uleb128 0x5
 604 02e2 04       		.byte	0x4
 605 02e3 41000000 		.4byte	0x41
 606 02e7 10       		.uleb128 0x10
 607 02e8 33050000 		.4byte	.LASF48
 608 02ec 68       		.byte	0x68
 609 02ed 06       		.byte	0x6
 610 02ee B5       		.byte	0xb5
 611 02ef 11040000 		.4byte	0x411
 612 02f3 11       		.uleb128 0x11
 613 02f4 5F7000   		.ascii	"_p\000"
 614 02f7 06       		.byte	0x6
 615 02f8 B6       		.byte	0xb6
 616 02f9 E1020000 		.4byte	0x2e1
 617 02fd 00       		.byte	0
 618 02fe 11       		.uleb128 0x11
 619 02ff 5F7200   		.ascii	"_r\000"
 620 0302 06       		.byte	0x6
 621 0303 B7       		.byte	0xb7
 622 0304 2C000000 		.4byte	0x2c
 623 0308 04       		.byte	0x4
 624 0309 11       		.uleb128 0x11
 625 030a 5F7700   		.ascii	"_w\000"
 626 030d 06       		.byte	0x6
 627 030e B8       		.byte	0xb8
ARM GAS  /tmp/ccpMYBMS.s 			page 12


 628 030f 2C000000 		.4byte	0x2c
 629 0313 08       		.byte	0x8
 630 0314 0D       		.uleb128 0xd
 631 0315 5D020000 		.4byte	.LASF49
 632 0319 06       		.byte	0x6
 633 031a B9       		.byte	0xb9
 634 031b 48000000 		.4byte	0x48
 635 031f 0C       		.byte	0xc
 636 0320 0D       		.uleb128 0xd
 637 0321 94030000 		.4byte	.LASF50
 638 0325 06       		.byte	0x6
 639 0326 BA       		.byte	0xba
 640 0327 48000000 		.4byte	0x48
 641 032b 0E       		.byte	0xe
 642 032c 11       		.uleb128 0x11
 643 032d 5F626600 		.ascii	"_bf\000"
 644 0331 06       		.byte	0x6
 645 0332 BB       		.byte	0xbb
 646 0333 BC020000 		.4byte	0x2bc
 647 0337 10       		.byte	0x10
 648 0338 0D       		.uleb128 0xd
 649 0339 A9010000 		.4byte	.LASF51
 650 033d 06       		.byte	0x6
 651 033e BC       		.byte	0xbc
 652 033f 2C000000 		.4byte	0x2c
 653 0343 18       		.byte	0x18
 654 0344 0D       		.uleb128 0xd
 655 0345 44020000 		.4byte	.LASF52
 656 0349 06       		.byte	0x6
 657 034a C3       		.byte	0xc3
 658 034b 10010000 		.4byte	0x110
 659 034f 1C       		.byte	0x1c
 660 0350 0D       		.uleb128 0xd
 661 0351 39030000 		.4byte	.LASF53
 662 0355 06       		.byte	0x6
 663 0356 C5       		.byte	0xc5
 664 0357 6C050000 		.4byte	0x56c
 665 035b 20       		.byte	0x20
 666 035c 0D       		.uleb128 0xd
 667 035d 3B040000 		.4byte	.LASF54
 668 0361 06       		.byte	0x6
 669 0362 C7       		.byte	0xc7
 670 0363 96050000 		.4byte	0x596
 671 0367 24       		.byte	0x24
 672 0368 0D       		.uleb128 0xd
 673 0369 D9050000 		.4byte	.LASF55
 674 036d 06       		.byte	0x6
 675 036e CA       		.byte	0xca
 676 036f BA050000 		.4byte	0x5ba
 677 0373 28       		.byte	0x28
 678 0374 0D       		.uleb128 0xd
 679 0375 FB060000 		.4byte	.LASF56
 680 0379 06       		.byte	0x6
 681 037a CB       		.byte	0xcb
 682 037b D4050000 		.4byte	0x5d4
 683 037f 2C       		.byte	0x2c
 684 0380 11       		.uleb128 0x11
ARM GAS  /tmp/ccpMYBMS.s 			page 13


 685 0381 5F756200 		.ascii	"_ub\000"
 686 0385 06       		.byte	0x6
 687 0386 CE       		.byte	0xce
 688 0387 BC020000 		.4byte	0x2bc
 689 038b 30       		.byte	0x30
 690 038c 11       		.uleb128 0x11
 691 038d 5F757000 		.ascii	"_up\000"
 692 0391 06       		.byte	0x6
 693 0392 CF       		.byte	0xcf
 694 0393 E1020000 		.4byte	0x2e1
 695 0397 38       		.byte	0x38
 696 0398 11       		.uleb128 0x11
 697 0399 5F757200 		.ascii	"_ur\000"
 698 039d 06       		.byte	0x6
 699 039e D0       		.byte	0xd0
 700 039f 2C000000 		.4byte	0x2c
 701 03a3 3C       		.byte	0x3c
 702 03a4 0D       		.uleb128 0xd
 703 03a5 13020000 		.4byte	.LASF57
 704 03a9 06       		.byte	0x6
 705 03aa D3       		.byte	0xd3
 706 03ab DA050000 		.4byte	0x5da
 707 03af 40       		.byte	0x40
 708 03b0 0D       		.uleb128 0xd
 709 03b1 D3060000 		.4byte	.LASF58
 710 03b5 06       		.byte	0x6
 711 03b6 D4       		.byte	0xd4
 712 03b7 EA050000 		.4byte	0x5ea
 713 03bb 43       		.byte	0x43
 714 03bc 11       		.uleb128 0x11
 715 03bd 5F6C6200 		.ascii	"_lb\000"
 716 03c1 06       		.byte	0x6
 717 03c2 D7       		.byte	0xd7
 718 03c3 BC020000 		.4byte	0x2bc
 719 03c7 44       		.byte	0x44
 720 03c8 0D       		.uleb128 0xd
 721 03c9 8C020000 		.4byte	.LASF59
 722 03cd 06       		.byte	0x6
 723 03ce DA       		.byte	0xda
 724 03cf 2C000000 		.4byte	0x2c
 725 03d3 4C       		.byte	0x4c
 726 03d4 0D       		.uleb128 0xd
 727 03d5 A4020000 		.4byte	.LASF60
 728 03d9 06       		.byte	0x6
 729 03da DB       		.byte	0xdb
 730 03db 88000000 		.4byte	0x88
 731 03df 50       		.byte	0x50
 732 03e0 0D       		.uleb128 0xd
 733 03e1 2C000000 		.4byte	.LASF61
 734 03e5 06       		.byte	0x6
 735 03e6 DE       		.byte	0xde
 736 03e7 2F040000 		.4byte	0x42f
 737 03eb 54       		.byte	0x54
 738 03ec 0D       		.uleb128 0xd
 739 03ed 12040000 		.4byte	.LASF62
 740 03f1 06       		.byte	0x6
 741 03f2 E2       		.byte	0xe2
ARM GAS  /tmp/ccpMYBMS.s 			page 14


 742 03f3 05010000 		.4byte	0x105
 743 03f7 58       		.byte	0x58
 744 03f8 0D       		.uleb128 0xd
 745 03f9 3B050000 		.4byte	.LASF63
 746 03fd 06       		.byte	0x6
 747 03fe E4       		.byte	0xe4
 748 03ff FA000000 		.4byte	0xfa
 749 0403 5C       		.byte	0x5c
 750 0404 0D       		.uleb128 0xd
 751 0405 18040000 		.4byte	.LASF64
 752 0409 06       		.byte	0x6
 753 040a E5       		.byte	0xe5
 754 040b 2C000000 		.4byte	0x2c
 755 040f 64       		.byte	0x64
 756 0410 00       		.byte	0
 757 0411 15       		.uleb128 0x15
 758 0412 2C000000 		.4byte	0x2c
 759 0416 2F040000 		.4byte	0x42f
 760 041a 16       		.uleb128 0x16
 761 041b 2F040000 		.4byte	0x42f
 762 041f 16       		.uleb128 0x16
 763 0420 10010000 		.4byte	0x110
 764 0424 16       		.uleb128 0x16
 765 0425 12010000 		.4byte	0x112
 766 0429 16       		.uleb128 0x16
 767 042a 2C000000 		.4byte	0x2c
 768 042e 00       		.byte	0
 769 042f 05       		.uleb128 0x5
 770 0430 04       		.byte	0x4
 771 0431 3A040000 		.4byte	0x43a
 772 0435 0F       		.uleb128 0xf
 773 0436 2F040000 		.4byte	0x42f
 774 043a 17       		.uleb128 0x17
 775 043b A4050000 		.4byte	.LASF65
 776 043f 2804     		.2byte	0x428
 777 0441 06       		.byte	0x6
 778 0442 6002     		.2byte	0x260
 779 0444 6C050000 		.4byte	0x56c
 780 0448 18       		.uleb128 0x18
 781 0449 F3050000 		.4byte	.LASF66
 782 044d 06       		.byte	0x6
 783 044e 6202     		.2byte	0x262
 784 0450 2C000000 		.4byte	0x2c
 785 0454 00       		.byte	0
 786 0455 18       		.uleb128 0x18
 787 0456 6C020000 		.4byte	.LASF67
 788 045a 06       		.byte	0x6
 789 045b 6702     		.2byte	0x267
 790 045d 41060000 		.4byte	0x641
 791 0461 04       		.byte	0x4
 792 0462 18       		.uleb128 0x18
 793 0463 72030000 		.4byte	.LASF68
 794 0467 06       		.byte	0x6
 795 0468 6702     		.2byte	0x267
 796 046a 41060000 		.4byte	0x641
 797 046e 08       		.byte	0x8
 798 046f 18       		.uleb128 0x18
ARM GAS  /tmp/ccpMYBMS.s 			page 15


 799 0470 05030000 		.4byte	.LASF69
 800 0474 06       		.byte	0x6
 801 0475 6702     		.2byte	0x267
 802 0477 41060000 		.4byte	0x641
 803 047b 0C       		.byte	0xc
 804 047c 18       		.uleb128 0x18
 805 047d 67050000 		.4byte	.LASF70
 806 0481 06       		.byte	0x6
 807 0482 6902     		.2byte	0x269
 808 0484 2C000000 		.4byte	0x2c
 809 0488 10       		.byte	0x10
 810 0489 18       		.uleb128 0x18
 811 048a 21000000 		.4byte	.LASF71
 812 048e 06       		.byte	0x6
 813 048f 6A02     		.2byte	0x26a
 814 0491 23080000 		.4byte	0x823
 815 0495 14       		.byte	0x14
 816 0496 18       		.uleb128 0x18
 817 0497 83050000 		.4byte	.LASF72
 818 049b 06       		.byte	0x6
 819 049c 6D02     		.2byte	0x26d
 820 049e 2C000000 		.4byte	0x2c
 821 04a2 30       		.byte	0x30
 822 04a3 18       		.uleb128 0x18
 823 04a4 71050000 		.4byte	.LASF73
 824 04a8 06       		.byte	0x6
 825 04a9 6E02     		.2byte	0x26e
 826 04ab 38080000 		.4byte	0x838
 827 04af 34       		.byte	0x34
 828 04b0 18       		.uleb128 0x18
 829 04b1 A4040000 		.4byte	.LASF74
 830 04b5 06       		.byte	0x6
 831 04b6 7002     		.2byte	0x270
 832 04b8 2C000000 		.4byte	0x2c
 833 04bc 38       		.byte	0x38
 834 04bd 18       		.uleb128 0x18
 835 04be 79050000 		.4byte	.LASF75
 836 04c2 06       		.byte	0x6
 837 04c3 7202     		.2byte	0x272
 838 04c5 49080000 		.4byte	0x849
 839 04c9 3C       		.byte	0x3c
 840 04ca 18       		.uleb128 0x18
 841 04cb F0030000 		.4byte	.LASF76
 842 04cf 06       		.byte	0x6
 843 04d0 7502     		.2byte	0x275
 844 04d2 82010000 		.4byte	0x182
 845 04d6 40       		.byte	0x40
 846 04d7 18       		.uleb128 0x18
 847 04d8 3F030000 		.4byte	.LASF77
 848 04dc 06       		.byte	0x6
 849 04dd 7602     		.2byte	0x276
 850 04df 2C000000 		.4byte	0x2c
 851 04e3 44       		.byte	0x44
 852 04e4 18       		.uleb128 0x18
 853 04e5 15070000 		.4byte	.LASF78
 854 04e9 06       		.byte	0x6
 855 04ea 7702     		.2byte	0x277
ARM GAS  /tmp/ccpMYBMS.s 			page 16


 856 04ec 82010000 		.4byte	0x182
 857 04f0 48       		.byte	0x48
 858 04f1 18       		.uleb128 0x18
 859 04f2 BC040000 		.4byte	.LASF79
 860 04f6 06       		.byte	0x6
 861 04f7 7802     		.2byte	0x278
 862 04f9 4F080000 		.4byte	0x84f
 863 04fd 4C       		.byte	0x4c
 864 04fe 18       		.uleb128 0x18
 865 04ff 7A030000 		.4byte	.LASF80
 866 0503 06       		.byte	0x6
 867 0504 7B02     		.2byte	0x27b
 868 0506 2C000000 		.4byte	0x2c
 869 050a 50       		.byte	0x50
 870 050b 18       		.uleb128 0x18
 871 050c 9C020000 		.4byte	.LASF81
 872 0510 06       		.byte	0x6
 873 0511 7C02     		.2byte	0x27c
 874 0513 12010000 		.4byte	0x112
 875 0517 54       		.byte	0x54
 876 0518 18       		.uleb128 0x18
 877 0519 F2040000 		.4byte	.LASF82
 878 051d 06       		.byte	0x6
 879 051e 9F02     		.2byte	0x29f
 880 0520 01080000 		.4byte	0x801
 881 0524 58       		.byte	0x58
 882 0525 19       		.uleb128 0x19
 883 0526 9C040000 		.4byte	.LASF42
 884 052a 06       		.byte	0x6
 885 052b A302     		.2byte	0x2a3
 886 052d 9F020000 		.4byte	0x29f
 887 0531 4801     		.2byte	0x148
 888 0533 19       		.uleb128 0x19
 889 0534 CE030000 		.4byte	.LASF83
 890 0538 06       		.byte	0x6
 891 0539 A402     		.2byte	0x2a4
 892 053b 61020000 		.4byte	0x261
 893 053f 4C01     		.2byte	0x14c
 894 0541 19       		.uleb128 0x19
 895 0542 C9060000 		.4byte	.LASF84
 896 0546 06       		.byte	0x6
 897 0547 A802     		.2byte	0x2a8
 898 0549 60080000 		.4byte	0x860
 899 054d DC02     		.2byte	0x2dc
 900 054f 19       		.uleb128 0x19
 901 0550 4C020000 		.4byte	.LASF85
 902 0554 06       		.byte	0x6
 903 0555 AD02     		.2byte	0x2ad
 904 0557 06060000 		.4byte	0x606
 905 055b E002     		.2byte	0x2e0
 906 055d 19       		.uleb128 0x19
 907 055e 31020000 		.4byte	.LASF86
 908 0562 06       		.byte	0x6
 909 0563 AF02     		.2byte	0x2af
 910 0565 6C080000 		.4byte	0x86c
 911 0569 EC02     		.2byte	0x2ec
 912 056b 00       		.byte	0
ARM GAS  /tmp/ccpMYBMS.s 			page 17


 913 056c 05       		.uleb128 0x5
 914 056d 04       		.byte	0x4
 915 056e 11040000 		.4byte	0x411
 916 0572 15       		.uleb128 0x15
 917 0573 2C000000 		.4byte	0x2c
 918 0577 90050000 		.4byte	0x590
 919 057b 16       		.uleb128 0x16
 920 057c 2F040000 		.4byte	0x42f
 921 0580 16       		.uleb128 0x16
 922 0581 10010000 		.4byte	0x110
 923 0585 16       		.uleb128 0x16
 924 0586 90050000 		.4byte	0x590
 925 058a 16       		.uleb128 0x16
 926 058b 2C000000 		.4byte	0x2c
 927 058f 00       		.byte	0
 928 0590 05       		.uleb128 0x5
 929 0591 04       		.byte	0x4
 930 0592 1F010000 		.4byte	0x11f
 931 0596 05       		.uleb128 0x5
 932 0597 04       		.byte	0x4
 933 0598 72050000 		.4byte	0x572
 934 059c 15       		.uleb128 0x15
 935 059d 93000000 		.4byte	0x93
 936 05a1 BA050000 		.4byte	0x5ba
 937 05a5 16       		.uleb128 0x16
 938 05a6 2F040000 		.4byte	0x42f
 939 05aa 16       		.uleb128 0x16
 940 05ab 10010000 		.4byte	0x110
 941 05af 16       		.uleb128 0x16
 942 05b0 93000000 		.4byte	0x93
 943 05b4 16       		.uleb128 0x16
 944 05b5 2C000000 		.4byte	0x2c
 945 05b9 00       		.byte	0
 946 05ba 05       		.uleb128 0x5
 947 05bb 04       		.byte	0x4
 948 05bc 9C050000 		.4byte	0x59c
 949 05c0 15       		.uleb128 0x15
 950 05c1 2C000000 		.4byte	0x2c
 951 05c5 D4050000 		.4byte	0x5d4
 952 05c9 16       		.uleb128 0x16
 953 05ca 2F040000 		.4byte	0x42f
 954 05ce 16       		.uleb128 0x16
 955 05cf 10010000 		.4byte	0x110
 956 05d3 00       		.byte	0
 957 05d4 05       		.uleb128 0x5
 958 05d5 04       		.byte	0x4
 959 05d6 C0050000 		.4byte	0x5c0
 960 05da 0A       		.uleb128 0xa
 961 05db 41000000 		.4byte	0x41
 962 05df EA050000 		.4byte	0x5ea
 963 05e3 0B       		.uleb128 0xb
 964 05e4 33000000 		.4byte	0x33
 965 05e8 02       		.byte	0x2
 966 05e9 00       		.byte	0
 967 05ea 0A       		.uleb128 0xa
 968 05eb 41000000 		.4byte	0x41
 969 05ef FA050000 		.4byte	0x5fa
ARM GAS  /tmp/ccpMYBMS.s 			page 18


 970 05f3 0B       		.uleb128 0xb
 971 05f4 33000000 		.4byte	0x33
 972 05f8 00       		.byte	0
 973 05f9 00       		.byte	0
 974 05fa 07       		.uleb128 0x7
 975 05fb 21050000 		.4byte	.LASF87
 976 05ff 06       		.byte	0x6
 977 0600 1F01     		.2byte	0x11f
 978 0602 E7020000 		.4byte	0x2e7
 979 0606 1A       		.uleb128 0x1a
 980 0607 A0060000 		.4byte	.LASF88
 981 060b 0C       		.byte	0xc
 982 060c 06       		.byte	0x6
 983 060d 2301     		.2byte	0x123
 984 060f 3B060000 		.4byte	0x63b
 985 0613 18       		.uleb128 0x18
 986 0614 0E060000 		.4byte	.LASF22
 987 0618 06       		.byte	0x6
 988 0619 2501     		.2byte	0x125
 989 061b 3B060000 		.4byte	0x63b
 990 061f 00       		.byte	0
 991 0620 18       		.uleb128 0x18
 992 0621 A4030000 		.4byte	.LASF89
 993 0625 06       		.byte	0x6
 994 0626 2601     		.2byte	0x126
 995 0628 2C000000 		.4byte	0x2c
 996 062c 04       		.byte	0x4
 997 062d 18       		.uleb128 0x18
 998 062e 1B050000 		.4byte	.LASF90
 999 0632 06       		.byte	0x6
 1000 0633 2701     		.2byte	0x127
 1001 0635 41060000 		.4byte	0x641
 1002 0639 08       		.byte	0x8
 1003 063a 00       		.byte	0
 1004 063b 05       		.uleb128 0x5
 1005 063c 04       		.byte	0x4
 1006 063d 06060000 		.4byte	0x606
 1007 0641 05       		.uleb128 0x5
 1008 0642 04       		.byte	0x4
 1009 0643 FA050000 		.4byte	0x5fa
 1010 0647 1A       		.uleb128 0x1a
 1011 0648 19000000 		.4byte	.LASF91
 1012 064c 0E       		.byte	0xe
 1013 064d 06       		.byte	0x6
 1014 064e 3F01     		.2byte	0x13f
 1015 0650 7C060000 		.4byte	0x67c
 1016 0654 18       		.uleb128 0x18
 1017 0655 BC050000 		.4byte	.LASF92
 1018 0659 06       		.byte	0x6
 1019 065a 4001     		.2byte	0x140
 1020 065c 7C060000 		.4byte	0x67c
 1021 0660 00       		.byte	0
 1022 0661 18       		.uleb128 0x18
 1023 0662 08060000 		.4byte	.LASF93
 1024 0666 06       		.byte	0x6
 1025 0667 4101     		.2byte	0x141
 1026 0669 7C060000 		.4byte	0x67c
ARM GAS  /tmp/ccpMYBMS.s 			page 19


 1027 066d 06       		.byte	0x6
 1028 066e 18       		.uleb128 0x18
 1029 066f 38060000 		.4byte	.LASF94
 1030 0673 06       		.byte	0x6
 1031 0674 4201     		.2byte	0x142
 1032 0676 4F000000 		.4byte	0x4f
 1033 067a 0C       		.byte	0xc
 1034 067b 00       		.byte	0
 1035 067c 0A       		.uleb128 0xa
 1036 067d 4F000000 		.4byte	0x4f
 1037 0681 8C060000 		.4byte	0x68c
 1038 0685 0B       		.uleb128 0xb
 1039 0686 33000000 		.4byte	0x33
 1040 068a 02       		.byte	0x2
 1041 068b 00       		.byte	0
 1042 068c 1B       		.uleb128 0x1b
 1043 068d D0       		.byte	0xd0
 1044 068e 06       		.byte	0x6
 1045 068f 8002     		.2byte	0x280
 1046 0691 8D070000 		.4byte	0x78d
 1047 0695 18       		.uleb128 0x18
 1048 0696 84060000 		.4byte	.LASF95
 1049 069a 06       		.byte	0x6
 1050 069b 8202     		.2byte	0x282
 1051 069d 33000000 		.4byte	0x33
 1052 06a1 00       		.byte	0
 1053 06a2 18       		.uleb128 0x18
 1054 06a3 14060000 		.4byte	.LASF96
 1055 06a7 06       		.byte	0x6
 1056 06a8 8302     		.2byte	0x283
 1057 06aa 12010000 		.4byte	0x112
 1058 06ae 04       		.byte	0x4
 1059 06af 18       		.uleb128 0x18
 1060 06b0 E3030000 		.4byte	.LASF97
 1061 06b4 06       		.byte	0x6
 1062 06b5 8402     		.2byte	0x284
 1063 06b7 8D070000 		.4byte	0x78d
 1064 06bb 08       		.byte	0x8
 1065 06bc 18       		.uleb128 0x18
 1066 06bd EC060000 		.4byte	.LASF98
 1067 06c1 06       		.byte	0x6
 1068 06c2 8502     		.2byte	0x285
 1069 06c4 98010000 		.4byte	0x198
 1070 06c8 24       		.byte	0x24
 1071 06c9 18       		.uleb128 0x18
 1072 06ca 15030000 		.4byte	.LASF99
 1073 06ce 06       		.byte	0x6
 1074 06cf 8602     		.2byte	0x286
 1075 06d1 2C000000 		.4byte	0x2c
 1076 06d5 48       		.byte	0x48
 1077 06d6 18       		.uleb128 0x18
 1078 06d7 44050000 		.4byte	.LASF100
 1079 06db 06       		.byte	0x6
 1080 06dc 8702     		.2byte	0x287
 1081 06de 6B000000 		.4byte	0x6b
 1082 06e2 50       		.byte	0x50
 1083 06e3 18       		.uleb128 0x18
ARM GAS  /tmp/ccpMYBMS.s 			page 20


 1084 06e4 02070000 		.4byte	.LASF101
 1085 06e8 06       		.byte	0x6
 1086 06e9 8802     		.2byte	0x288
 1087 06eb 47060000 		.4byte	0x647
 1088 06ef 58       		.byte	0x58
 1089 06f0 18       		.uleb128 0x18
 1090 06f1 5A050000 		.4byte	.LASF102
 1091 06f5 06       		.byte	0x6
 1092 06f6 8902     		.2byte	0x289
 1093 06f8 FA000000 		.4byte	0xfa
 1094 06fc 68       		.byte	0x68
 1095 06fd 18       		.uleb128 0x18
 1096 06fe 07070000 		.4byte	.LASF103
 1097 0702 06       		.byte	0x6
 1098 0703 8A02     		.2byte	0x28a
 1099 0705 FA000000 		.4byte	0xfa
 1100 0709 70       		.byte	0x70
 1101 070a 18       		.uleb128 0x18
 1102 070b C6040000 		.4byte	.LASF104
 1103 070f 06       		.byte	0x6
 1104 0710 8B02     		.2byte	0x28b
 1105 0712 FA000000 		.4byte	0xfa
 1106 0716 78       		.byte	0x78
 1107 0717 18       		.uleb128 0x18
 1108 0718 BF060000 		.4byte	.LASF105
 1109 071c 06       		.byte	0x6
 1110 071d 8C02     		.2byte	0x28c
 1111 071f 9D070000 		.4byte	0x79d
 1112 0723 80       		.byte	0x80
 1113 0724 18       		.uleb128 0x18
 1114 0725 D7030000 		.4byte	.LASF106
 1115 0729 06       		.byte	0x6
 1116 072a 8D02     		.2byte	0x28d
 1117 072c AD070000 		.4byte	0x7ad
 1118 0730 88       		.byte	0x88
 1119 0731 18       		.uleb128 0x18
 1120 0732 45060000 		.4byte	.LASF107
 1121 0736 06       		.byte	0x6
 1122 0737 8E02     		.2byte	0x28e
 1123 0739 2C000000 		.4byte	0x2c
 1124 073d A0       		.byte	0xa0
 1125 073e 18       		.uleb128 0x18
 1126 073f C3020000 		.4byte	.LASF108
 1127 0743 06       		.byte	0x6
 1128 0744 8F02     		.2byte	0x28f
 1129 0746 FA000000 		.4byte	0xfa
 1130 074a A4       		.byte	0xa4
 1131 074b 18       		.uleb128 0x18
 1132 074c D3010000 		.4byte	.LASF109
 1133 0750 06       		.byte	0x6
 1134 0751 9002     		.2byte	0x290
 1135 0753 FA000000 		.4byte	0xfa
 1136 0757 AC       		.byte	0xac
 1137 0758 18       		.uleb128 0x18
 1138 0759 AC020000 		.4byte	.LASF110
 1139 075d 06       		.byte	0x6
 1140 075e 9102     		.2byte	0x291
ARM GAS  /tmp/ccpMYBMS.s 			page 21


 1141 0760 FA000000 		.4byte	0xfa
 1142 0764 B4       		.byte	0xb4
 1143 0765 18       		.uleb128 0x18
 1144 0766 63010000 		.4byte	.LASF111
 1145 076a 06       		.byte	0x6
 1146 076b 9202     		.2byte	0x292
 1147 076d FA000000 		.4byte	0xfa
 1148 0771 BC       		.byte	0xbc
 1149 0772 18       		.uleb128 0x18
 1150 0773 72010000 		.4byte	.LASF112
 1151 0777 06       		.byte	0x6
 1152 0778 9302     		.2byte	0x293
 1153 077a FA000000 		.4byte	0xfa
 1154 077e C4       		.byte	0xc4
 1155 077f 18       		.uleb128 0x18
 1156 0780 F7040000 		.4byte	.LASF113
 1157 0784 06       		.byte	0x6
 1158 0785 9402     		.2byte	0x294
 1159 0787 2C000000 		.4byte	0x2c
 1160 078b CC       		.byte	0xcc
 1161 078c 00       		.byte	0
 1162 078d 0A       		.uleb128 0xa
 1163 078e 18010000 		.4byte	0x118
 1164 0792 9D070000 		.4byte	0x79d
 1165 0796 0B       		.uleb128 0xb
 1166 0797 33000000 		.4byte	0x33
 1167 079b 19       		.byte	0x19
 1168 079c 00       		.byte	0
 1169 079d 0A       		.uleb128 0xa
 1170 079e 18010000 		.4byte	0x118
 1171 07a2 AD070000 		.4byte	0x7ad
 1172 07a6 0B       		.uleb128 0xb
 1173 07a7 33000000 		.4byte	0x33
 1174 07ab 07       		.byte	0x7
 1175 07ac 00       		.byte	0
 1176 07ad 0A       		.uleb128 0xa
 1177 07ae 18010000 		.4byte	0x118
 1178 07b2 BD070000 		.4byte	0x7bd
 1179 07b6 0B       		.uleb128 0xb
 1180 07b7 33000000 		.4byte	0x33
 1181 07bb 17       		.byte	0x17
 1182 07bc 00       		.byte	0
 1183 07bd 1B       		.uleb128 0x1b
 1184 07be F0       		.byte	0xf0
 1185 07bf 06       		.byte	0x6
 1186 07c0 9902     		.2byte	0x299
 1187 07c2 E1070000 		.4byte	0x7e1
 1188 07c6 18       		.uleb128 0x18
 1189 07c7 77040000 		.4byte	.LASF114
 1190 07cb 06       		.byte	0x6
 1191 07cc 9C02     		.2byte	0x29c
 1192 07ce E1070000 		.4byte	0x7e1
 1193 07d2 00       		.byte	0
 1194 07d3 18       		.uleb128 0x18
 1195 07d4 B6060000 		.4byte	.LASF115
 1196 07d8 06       		.byte	0x6
 1197 07d9 9D02     		.2byte	0x29d
ARM GAS  /tmp/ccpMYBMS.s 			page 22


 1198 07db F1070000 		.4byte	0x7f1
 1199 07df 78       		.byte	0x78
 1200 07e0 00       		.byte	0
 1201 07e1 0A       		.uleb128 0xa
 1202 07e2 E1020000 		.4byte	0x2e1
 1203 07e6 F1070000 		.4byte	0x7f1
 1204 07ea 0B       		.uleb128 0xb
 1205 07eb 33000000 		.4byte	0x33
 1206 07ef 1D       		.byte	0x1d
 1207 07f0 00       		.byte	0
 1208 07f1 0A       		.uleb128 0xa
 1209 07f2 33000000 		.4byte	0x33
 1210 07f6 01080000 		.4byte	0x801
 1211 07fa 0B       		.uleb128 0xb
 1212 07fb 33000000 		.4byte	0x33
 1213 07ff 1D       		.byte	0x1d
 1214 0800 00       		.byte	0
 1215 0801 1C       		.uleb128 0x1c
 1216 0802 F0       		.byte	0xf0
 1217 0803 06       		.byte	0x6
 1218 0804 7E02     		.2byte	0x27e
 1219 0806 23080000 		.4byte	0x823
 1220 080a 1D       		.uleb128 0x1d
 1221 080b A4050000 		.4byte	.LASF65
 1222 080f 06       		.byte	0x6
 1223 0810 9502     		.2byte	0x295
 1224 0812 8C060000 		.4byte	0x68c
 1225 0816 1D       		.uleb128 0x1d
 1226 0817 D9060000 		.4byte	.LASF116
 1227 081b 06       		.byte	0x6
 1228 081c 9E02     		.2byte	0x29e
 1229 081e BD070000 		.4byte	0x7bd
 1230 0822 00       		.byte	0
 1231 0823 0A       		.uleb128 0xa
 1232 0824 18010000 		.4byte	0x118
 1233 0828 33080000 		.4byte	0x833
 1234 082c 0B       		.uleb128 0xb
 1235 082d 33000000 		.4byte	0x33
 1236 0831 18       		.byte	0x18
 1237 0832 00       		.byte	0
 1238 0833 06       		.uleb128 0x6
 1239 0834 B9010000 		.4byte	.LASF118
 1240 0838 05       		.uleb128 0x5
 1241 0839 04       		.byte	0x4
 1242 083a 33080000 		.4byte	0x833
 1243 083e 1E       		.uleb128 0x1e
 1244 083f 49080000 		.4byte	0x849
 1245 0843 16       		.uleb128 0x16
 1246 0844 2F040000 		.4byte	0x42f
 1247 0848 00       		.byte	0
 1248 0849 05       		.uleb128 0x5
 1249 084a 04       		.byte	0x4
 1250 084b 3E080000 		.4byte	0x83e
 1251 084f 05       		.uleb128 0x5
 1252 0850 04       		.byte	0x4
 1253 0851 82010000 		.4byte	0x182
 1254 0855 1E       		.uleb128 0x1e
ARM GAS  /tmp/ccpMYBMS.s 			page 23


 1255 0856 60080000 		.4byte	0x860
 1256 085a 16       		.uleb128 0x16
 1257 085b 2C000000 		.4byte	0x2c
 1258 085f 00       		.byte	0
 1259 0860 05       		.uleb128 0x5
 1260 0861 04       		.byte	0x4
 1261 0862 66080000 		.4byte	0x866
 1262 0866 05       		.uleb128 0x5
 1263 0867 04       		.byte	0x4
 1264 0868 55080000 		.4byte	0x855
 1265 086c 0A       		.uleb128 0xa
 1266 086d FA050000 		.4byte	0x5fa
 1267 0871 7C080000 		.4byte	0x87c
 1268 0875 0B       		.uleb128 0xb
 1269 0876 33000000 		.4byte	0x33
 1270 087a 02       		.byte	0x2
 1271 087b 00       		.byte	0
 1272 087c 1F       		.uleb128 0x1f
 1273 087d DF050000 		.4byte	.LASF119
 1274 0881 06       		.byte	0x6
 1275 0882 2E03     		.2byte	0x32e
 1276 0884 2F040000 		.4byte	0x42f
 1277 0888 1F       		.uleb128 0x1f
 1278 0889 63060000 		.4byte	.LASF120
 1279 088d 06       		.byte	0x6
 1280 088e 2F03     		.2byte	0x32f
 1281 0890 35040000 		.4byte	0x435
 1282 0894 0F       		.uleb128 0xf
 1283 0895 25000000 		.4byte	0x25
 1284 0899 02       		.uleb128 0x2
 1285 089a 08       		.byte	0x8
 1286 089b 04       		.byte	0x4
 1287 089c 95020000 		.4byte	.LASF121
 1288 08a0 20       		.uleb128 0x20
 1289 08a1 52060000 		.4byte	.LASF151
 1290 08a5 05       		.byte	0x5
 1291 08a6 01       		.byte	0x1
 1292 08a7 3A000000 		.4byte	0x3a
 1293 08ab 07       		.byte	0x7
 1294 08ac 8202     		.2byte	0x282
 1295 08ae CB080000 		.4byte	0x8cb
 1296 08b2 21       		.uleb128 0x21
 1297 08b3 76060000 		.4byte	.LASF122
 1298 08b7 7F       		.sleb128 -1
 1299 08b8 22       		.uleb128 0x22
 1300 08b9 73020000 		.4byte	.LASF123
 1301 08bd 00       		.byte	0
 1302 08be 22       		.uleb128 0x22
 1303 08bf C4010000 		.4byte	.LASF124
 1304 08c3 01       		.byte	0x1
 1305 08c4 22       		.uleb128 0x22
 1306 08c5 9A010000 		.4byte	.LASF125
 1307 08c9 02       		.byte	0x2
 1308 08ca 00       		.byte	0
 1309 08cb 1F       		.uleb128 0x1f
 1310 08cc A6060000 		.4byte	.LASF126
 1311 08d0 07       		.byte	0x7
ARM GAS  /tmp/ccpMYBMS.s 			page 24


 1312 08d1 8D02     		.2byte	0x28d
 1313 08d3 A0080000 		.4byte	0x8a0
 1314 08d7 0C       		.uleb128 0xc
 1315 08d8 0C       		.byte	0xc
 1316 08d9 02       		.byte	0x2
 1317 08da 1C       		.byte	0x1c
 1318 08db FE080000 		.4byte	0x8fe
 1319 08df 11       		.uleb128 0x11
 1320 08e0 7800     		.ascii	"x\000"
 1321 08e2 02       		.byte	0x2
 1322 08e3 1D       		.byte	0x1d
 1323 08e4 25000000 		.4byte	0x25
 1324 08e8 00       		.byte	0
 1325 08e9 11       		.uleb128 0x11
 1326 08ea 7900     		.ascii	"y\000"
 1327 08ec 02       		.byte	0x2
 1328 08ed 1E       		.byte	0x1e
 1329 08ee 25000000 		.4byte	0x25
 1330 08f2 04       		.byte	0x4
 1331 08f3 11       		.uleb128 0x11
 1332 08f4 7A00     		.ascii	"z\000"
 1333 08f6 02       		.byte	0x2
 1334 08f7 1F       		.byte	0x1f
 1335 08f8 25000000 		.4byte	0x25
 1336 08fc 08       		.byte	0x8
 1337 08fd 00       		.byte	0
 1338 08fe 08       		.uleb128 0x8
 1339 08ff 0C       		.byte	0xc
 1340 0900 02       		.byte	0x2
 1341 0901 19       		.byte	0x19
 1342 0902 1D090000 		.4byte	0x91d
 1343 0906 09       		.uleb128 0x9
 1344 0907 BD020000 		.4byte	.LASF127
 1345 090b 02       		.byte	0x2
 1346 090c 1A       		.byte	0x1a
 1347 090d 1D090000 		.4byte	0x91d
 1348 0911 09       		.uleb128 0x9
 1349 0912 06040000 		.4byte	.LASF128
 1350 0916 02       		.byte	0x2
 1351 0917 20       		.byte	0x20
 1352 0918 D7080000 		.4byte	0x8d7
 1353 091c 00       		.byte	0
 1354 091d 0A       		.uleb128 0xa
 1355 091e 25000000 		.4byte	0x25
 1356 0922 2D090000 		.4byte	0x92d
 1357 0926 0B       		.uleb128 0xb
 1358 0927 33000000 		.4byte	0x33
 1359 092b 02       		.byte	0x2
 1360 092c 00       		.byte	0
 1361 092d 04       		.uleb128 0x4
 1362 092e 21060000 		.4byte	.LASF129
 1363 0932 02       		.byte	0x2
 1364 0933 21       		.byte	0x21
 1365 0934 FE080000 		.4byte	0x8fe
 1366 0938 0F       		.uleb128 0xf
 1367 0939 2D090000 		.4byte	0x92d
 1368 093d 0C       		.uleb128 0xc
ARM GAS  /tmp/ccpMYBMS.s 			page 25


 1369 093e 18       		.byte	0x18
 1370 093f 08       		.byte	0x8
 1371 0940 1A       		.byte	0x1a
 1372 0941 76090000 		.4byte	0x976
 1373 0945 0D       		.uleb128 0xd
 1374 0946 D4040000 		.4byte	.LASF130
 1375 094a 08       		.byte	0x8
 1376 094b 1B       		.byte	0x1b
 1377 094c 25000000 		.4byte	0x25
 1378 0950 00       		.byte	0
 1379 0951 0D       		.uleb128 0xd
 1380 0952 E4020000 		.4byte	.LASF131
 1381 0956 08       		.byte	0x8
 1382 0957 1C       		.byte	0x1c
 1383 0958 25000000 		.4byte	0x25
 1384 095c 04       		.byte	0x4
 1385 095d 0D       		.uleb128 0xd
 1386 095e 62030000 		.4byte	.LASF132
 1387 0962 08       		.byte	0x8
 1388 0963 1D       		.byte	0x1d
 1389 0964 25000000 		.4byte	0x25
 1390 0968 08       		.byte	0x8
 1391 0969 0D       		.uleb128 0xd
 1392 096a E2010000 		.4byte	.LASF133
 1393 096e 08       		.byte	0x8
 1394 096f 1E       		.byte	0x1e
 1395 0970 2D090000 		.4byte	0x92d
 1396 0974 0C       		.byte	0xc
 1397 0975 00       		.byte	0
 1398 0976 04       		.uleb128 0x4
 1399 0977 4F050000 		.4byte	.LASF134
 1400 097b 08       		.byte	0x8
 1401 097c 1F       		.byte	0x1f
 1402 097d 3D090000 		.4byte	0x93d
 1403 0981 23       		.uleb128 0x23
 1404 0982 4C040000 		.4byte	.LASF136
 1405 0986 01       		.byte	0x1
 1406 0987 54       		.byte	0x54
 1407 0988 AA090000 		.4byte	0x9aa
 1408 098c 00000000 		.4byte	.LFB24
 1409 0990 18000000 		.4byte	.LFE24-.LFB24
 1410 0994 01       		.uleb128 0x1
 1411 0995 9C       		.byte	0x9c
 1412 0996 AA090000 		.4byte	0x9aa
 1413 099a 24       		.uleb128 0x24
 1414 099b 81020000 		.4byte	.LASF138
 1415 099f 01       		.byte	0x1
 1416 09a0 54       		.byte	0x54
 1417 09a1 B7090000 		.4byte	0x9b7
 1418 09a5 00000000 		.4byte	.LLST7
 1419 09a9 00       		.byte	0
 1420 09aa 02       		.uleb128 0x2
 1421 09ab 01       		.byte	0x1
 1422 09ac 02       		.byte	0x2
 1423 09ad DE040000 		.4byte	.LASF135
 1424 09b1 05       		.uleb128 0x5
 1425 09b2 04       		.byte	0x4
ARM GAS  /tmp/ccpMYBMS.s 			page 26


 1426 09b3 76090000 		.4byte	0x976
 1427 09b7 0F       		.uleb128 0xf
 1428 09b8 B1090000 		.4byte	0x9b1
 1429 09bc 23       		.uleb128 0x23
 1430 09bd AB050000 		.4byte	.LASF137
 1431 09c1 01       		.byte	0x1
 1432 09c2 39       		.byte	0x39
 1433 09c3 2D090000 		.4byte	0x92d
 1434 09c7 00000000 		.4byte	.LFB23
 1435 09cb BA000000 		.4byte	.LFE23-.LFB23
 1436 09cf 01       		.uleb128 0x1
 1437 09d0 9C       		.byte	0x9c
 1438 09d1 620A0000 		.4byte	0xa62
 1439 09d5 25       		.uleb128 0x25
 1440 09d6 81020000 		.4byte	.LASF138
 1441 09da 01       		.byte	0x1
 1442 09db 39       		.byte	0x39
 1443 09dc B7090000 		.4byte	0x9b7
 1444 09e0 01       		.uleb128 0x1
 1445 09e1 50       		.byte	0x50
 1446 09e2 24       		.uleb128 0x24
 1447 09e3 9A030000 		.4byte	.LASF139
 1448 09e7 01       		.byte	0x1
 1449 09e8 39       		.byte	0x39
 1450 09e9 2D090000 		.4byte	0x92d
 1451 09ed 21000000 		.4byte	.LLST1
 1452 09f1 26       		.uleb128 0x26
 1453 09f2 647400   		.ascii	"dt\000"
 1454 09f5 01       		.byte	0x1
 1455 09f6 39       		.byte	0x39
 1456 09f7 25000000 		.4byte	0x25
 1457 09fb C3000000 		.4byte	.LLST2
 1458 09ff 27       		.uleb128 0x27
 1459 0a00 D40A0000 		.4byte	0xad4
 1460 0a04 10000000 		.4byte	.LBB8
 1461 0a08 00000000 		.4byte	.Ldebug_ranges0+0
 1462 0a0c 01       		.byte	0x1
 1463 0a0d 3C       		.byte	0x3c
 1464 0a0e 300A0000 		.4byte	0xa30
 1465 0a12 28       		.uleb128 0x28
 1466 0a13 EF0A0000 		.4byte	0xaef
 1467 0a17 03010000 		.4byte	.LLST3
 1468 0a1b 28       		.uleb128 0x28
 1469 0a1c E40A0000 		.4byte	0xae4
 1470 0a20 B3010000 		.4byte	.LLST4
 1471 0a24 29       		.uleb128 0x29
 1472 0a25 00000000 		.4byte	.Ldebug_ranges0+0
 1473 0a29 2A       		.uleb128 0x2a
 1474 0a2a FA0A0000 		.4byte	0xafa
 1475 0a2e 00       		.byte	0
 1476 0a2f 00       		.byte	0
 1477 0a30 2B       		.uleb128 0x2b
 1478 0a31 060B0000 		.4byte	0xb06
 1479 0a35 62000000 		.4byte	.LBB12
 1480 0a39 0C000000 		.4byte	.LBE12-.LBB12
 1481 0a3d 01       		.byte	0x1
 1482 0a3e 4B       		.byte	0x4b
ARM GAS  /tmp/ccpMYBMS.s 			page 27


 1483 0a3f 28       		.uleb128 0x28
 1484 0a40 1D0B0000 		.4byte	0xb1d
 1485 0a44 FD010000 		.4byte	.LLST5
 1486 0a48 28       		.uleb128 0x28
 1487 0a49 120B0000 		.4byte	0xb12
 1488 0a4d 2D020000 		.4byte	.LLST6
 1489 0a51 2C       		.uleb128 0x2c
 1490 0a52 62000000 		.4byte	.LBB13
 1491 0a56 0C000000 		.4byte	.LBE13-.LBB13
 1492 0a5a 2A       		.uleb128 0x2a
 1493 0a5b 280B0000 		.4byte	0xb28
 1494 0a5f 00       		.byte	0
 1495 0a60 00       		.byte	0
 1496 0a61 00       		.byte	0
 1497 0a62 2D       		.uleb128 0x2d
 1498 0a63 7E040000 		.4byte	.LASF152
 1499 0a67 01       		.byte	0x1
 1500 0a68 2A       		.byte	0x2a
 1501 0a69 00000000 		.4byte	.LFB22
 1502 0a6d 20000000 		.4byte	.LFE22-.LFB22
 1503 0a71 01       		.uleb128 0x1
 1504 0a72 9C       		.byte	0x9c
 1505 0a73 A20A0000 		.4byte	0xaa2
 1506 0a77 25       		.uleb128 0x25
 1507 0a78 81020000 		.4byte	.LASF138
 1508 0a7c 01       		.byte	0x1
 1509 0a7d 2A       		.byte	0x2a
 1510 0a7e B7090000 		.4byte	0x9b7
 1511 0a82 01       		.uleb128 0x1
 1512 0a83 50       		.byte	0x50
 1513 0a84 25       		.uleb128 0x25
 1514 0a85 D4040000 		.4byte	.LASF130
 1515 0a89 01       		.byte	0x1
 1516 0a8a 2A       		.byte	0x2a
 1517 0a8b 94080000 		.4byte	0x894
 1518 0a8f 02       		.uleb128 0x2
 1519 0a90 90       		.byte	0x90
 1520 0a91 40       		.uleb128 0x40
 1521 0a92 24       		.uleb128 0x24
 1522 0a93 56010000 		.4byte	.LASF140
 1523 0a97 01       		.byte	0x1
 1524 0a98 2A       		.byte	0x2a
 1525 0a99 94080000 		.4byte	0x894
 1526 0a9d B1020000 		.4byte	.LLST0
 1527 0aa1 00       		.byte	0
 1528 0aa2 2E       		.uleb128 0x2e
 1529 0aa3 20040000 		.4byte	.LASF143
 1530 0aa7 02       		.byte	0x2
 1531 0aa8 BC       		.byte	0xbc
 1532 0aa9 2D090000 		.4byte	0x92d
 1533 0aad 03       		.byte	0x3
 1534 0aae D40A0000 		.4byte	0xad4
 1535 0ab2 2F       		.uleb128 0x2f
 1536 0ab3 B2010000 		.4byte	.LASF141
 1537 0ab7 02       		.byte	0x2
 1538 0ab8 BC       		.byte	0xbc
 1539 0ab9 38090000 		.4byte	0x938
ARM GAS  /tmp/ccpMYBMS.s 			page 28


 1540 0abd 2F       		.uleb128 0x2f
 1541 0abe 0C000000 		.4byte	.LASF142
 1542 0ac2 02       		.byte	0x2
 1543 0ac3 BC       		.byte	0xbc
 1544 0ac4 94080000 		.4byte	0x894
 1545 0ac8 30       		.uleb128 0x30
 1546 0ac9 22070000 		.4byte	.LASF147
 1547 0acd 02       		.byte	0x2
 1548 0ace BD       		.byte	0xbd
 1549 0acf 2D090000 		.4byte	0x92d
 1550 0ad3 00       		.byte	0
 1551 0ad4 2E       		.uleb128 0x2e
 1552 0ad5 24030000 		.4byte	.LASF144
 1553 0ad9 02       		.byte	0x2
 1554 0ada AE       		.byte	0xae
 1555 0adb 2D090000 		.4byte	0x92d
 1556 0adf 03       		.byte	0x3
 1557 0ae0 060B0000 		.4byte	0xb06
 1558 0ae4 2F       		.uleb128 0x2f
 1559 0ae5 1A070000 		.4byte	.LASF145
 1560 0ae9 02       		.byte	0x2
 1561 0aea AE       		.byte	0xae
 1562 0aeb 38090000 		.4byte	0x938
 1563 0aef 2F       		.uleb128 0x2f
 1564 0af0 29020000 		.4byte	.LASF146
 1565 0af4 02       		.byte	0x2
 1566 0af5 AE       		.byte	0xae
 1567 0af6 38090000 		.4byte	0x938
 1568 0afa 30       		.uleb128 0x30
 1569 0afb 22070000 		.4byte	.LASF147
 1570 0aff 02       		.byte	0x2
 1571 0b00 AF       		.byte	0xaf
 1572 0b01 2D090000 		.4byte	0x92d
 1573 0b05 00       		.byte	0
 1574 0b06 31       		.uleb128 0x31
 1575 0b07 AB030000 		.4byte	.LASF153
 1576 0b0b 02       		.byte	0x2
 1577 0b0c A0       		.byte	0xa0
 1578 0b0d 2D090000 		.4byte	0x92d
 1579 0b11 03       		.byte	0x3
 1580 0b12 2F       		.uleb128 0x2f
 1581 0b13 1A070000 		.4byte	.LASF145
 1582 0b17 02       		.byte	0x2
 1583 0b18 A0       		.byte	0xa0
 1584 0b19 38090000 		.4byte	0x938
 1585 0b1d 2F       		.uleb128 0x2f
 1586 0b1e 29020000 		.4byte	.LASF146
 1587 0b22 02       		.byte	0x2
 1588 0b23 A0       		.byte	0xa0
 1589 0b24 38090000 		.4byte	0x938
 1590 0b28 30       		.uleb128 0x30
 1591 0b29 22070000 		.4byte	.LASF147
 1592 0b2d 02       		.byte	0x2
 1593 0b2e A1       		.byte	0xa1
 1594 0b2f 2D090000 		.4byte	0x92d
 1595 0b33 00       		.byte	0
 1596 0b34 00       		.byte	0
ARM GAS  /tmp/ccpMYBMS.s 			page 29


 1597              		.section	.debug_abbrev,"",%progbits
 1598              	.Ldebug_abbrev0:
 1599 0000 01       		.uleb128 0x1
 1600 0001 11       		.uleb128 0x11
 1601 0002 01       		.byte	0x1
 1602 0003 25       		.uleb128 0x25
 1603 0004 0E       		.uleb128 0xe
 1604 0005 13       		.uleb128 0x13
 1605 0006 0B       		.uleb128 0xb
 1606 0007 03       		.uleb128 0x3
 1607 0008 0E       		.uleb128 0xe
 1608 0009 1B       		.uleb128 0x1b
 1609 000a 0E       		.uleb128 0xe
 1610 000b 55       		.uleb128 0x55
 1611 000c 17       		.uleb128 0x17
 1612 000d 11       		.uleb128 0x11
 1613 000e 01       		.uleb128 0x1
 1614 000f 10       		.uleb128 0x10
 1615 0010 17       		.uleb128 0x17
 1616 0011 00       		.byte	0
 1617 0012 00       		.byte	0
 1618 0013 02       		.uleb128 0x2
 1619 0014 24       		.uleb128 0x24
 1620 0015 00       		.byte	0
 1621 0016 0B       		.uleb128 0xb
 1622 0017 0B       		.uleb128 0xb
 1623 0018 3E       		.uleb128 0x3e
 1624 0019 0B       		.uleb128 0xb
 1625 001a 03       		.uleb128 0x3
 1626 001b 0E       		.uleb128 0xe
 1627 001c 00       		.byte	0
 1628 001d 00       		.byte	0
 1629 001e 03       		.uleb128 0x3
 1630 001f 24       		.uleb128 0x24
 1631 0020 00       		.byte	0
 1632 0021 0B       		.uleb128 0xb
 1633 0022 0B       		.uleb128 0xb
 1634 0023 3E       		.uleb128 0x3e
 1635 0024 0B       		.uleb128 0xb
 1636 0025 03       		.uleb128 0x3
 1637 0026 08       		.uleb128 0x8
 1638 0027 00       		.byte	0
 1639 0028 00       		.byte	0
 1640 0029 04       		.uleb128 0x4
 1641 002a 16       		.uleb128 0x16
 1642 002b 00       		.byte	0
 1643 002c 03       		.uleb128 0x3
 1644 002d 0E       		.uleb128 0xe
 1645 002e 3A       		.uleb128 0x3a
 1646 002f 0B       		.uleb128 0xb
 1647 0030 3B       		.uleb128 0x3b
 1648 0031 0B       		.uleb128 0xb
 1649 0032 49       		.uleb128 0x49
 1650 0033 13       		.uleb128 0x13
 1651 0034 00       		.byte	0
 1652 0035 00       		.byte	0
 1653 0036 05       		.uleb128 0x5
ARM GAS  /tmp/ccpMYBMS.s 			page 30


 1654 0037 0F       		.uleb128 0xf
 1655 0038 00       		.byte	0
 1656 0039 0B       		.uleb128 0xb
 1657 003a 0B       		.uleb128 0xb
 1658 003b 49       		.uleb128 0x49
 1659 003c 13       		.uleb128 0x13
 1660 003d 00       		.byte	0
 1661 003e 00       		.byte	0
 1662 003f 06       		.uleb128 0x6
 1663 0040 13       		.uleb128 0x13
 1664 0041 00       		.byte	0
 1665 0042 03       		.uleb128 0x3
 1666 0043 0E       		.uleb128 0xe
 1667 0044 3C       		.uleb128 0x3c
 1668 0045 19       		.uleb128 0x19
 1669 0046 00       		.byte	0
 1670 0047 00       		.byte	0
 1671 0048 07       		.uleb128 0x7
 1672 0049 16       		.uleb128 0x16
 1673 004a 00       		.byte	0
 1674 004b 03       		.uleb128 0x3
 1675 004c 0E       		.uleb128 0xe
 1676 004d 3A       		.uleb128 0x3a
 1677 004e 0B       		.uleb128 0xb
 1678 004f 3B       		.uleb128 0x3b
 1679 0050 05       		.uleb128 0x5
 1680 0051 49       		.uleb128 0x49
 1681 0052 13       		.uleb128 0x13
 1682 0053 00       		.byte	0
 1683 0054 00       		.byte	0
 1684 0055 08       		.uleb128 0x8
 1685 0056 17       		.uleb128 0x17
 1686 0057 01       		.byte	0x1
 1687 0058 0B       		.uleb128 0xb
 1688 0059 0B       		.uleb128 0xb
 1689 005a 3A       		.uleb128 0x3a
 1690 005b 0B       		.uleb128 0xb
 1691 005c 3B       		.uleb128 0x3b
 1692 005d 0B       		.uleb128 0xb
 1693 005e 01       		.uleb128 0x1
 1694 005f 13       		.uleb128 0x13
 1695 0060 00       		.byte	0
 1696 0061 00       		.byte	0
 1697 0062 09       		.uleb128 0x9
 1698 0063 0D       		.uleb128 0xd
 1699 0064 00       		.byte	0
 1700 0065 03       		.uleb128 0x3
 1701 0066 0E       		.uleb128 0xe
 1702 0067 3A       		.uleb128 0x3a
 1703 0068 0B       		.uleb128 0xb
 1704 0069 3B       		.uleb128 0x3b
 1705 006a 0B       		.uleb128 0xb
 1706 006b 49       		.uleb128 0x49
 1707 006c 13       		.uleb128 0x13
 1708 006d 00       		.byte	0
 1709 006e 00       		.byte	0
 1710 006f 0A       		.uleb128 0xa
ARM GAS  /tmp/ccpMYBMS.s 			page 31


 1711 0070 01       		.uleb128 0x1
 1712 0071 01       		.byte	0x1
 1713 0072 49       		.uleb128 0x49
 1714 0073 13       		.uleb128 0x13
 1715 0074 01       		.uleb128 0x1
 1716 0075 13       		.uleb128 0x13
 1717 0076 00       		.byte	0
 1718 0077 00       		.byte	0
 1719 0078 0B       		.uleb128 0xb
 1720 0079 21       		.uleb128 0x21
 1721 007a 00       		.byte	0
 1722 007b 49       		.uleb128 0x49
 1723 007c 13       		.uleb128 0x13
 1724 007d 2F       		.uleb128 0x2f
 1725 007e 0B       		.uleb128 0xb
 1726 007f 00       		.byte	0
 1727 0080 00       		.byte	0
 1728 0081 0C       		.uleb128 0xc
 1729 0082 13       		.uleb128 0x13
 1730 0083 01       		.byte	0x1
 1731 0084 0B       		.uleb128 0xb
 1732 0085 0B       		.uleb128 0xb
 1733 0086 3A       		.uleb128 0x3a
 1734 0087 0B       		.uleb128 0xb
 1735 0088 3B       		.uleb128 0x3b
 1736 0089 0B       		.uleb128 0xb
 1737 008a 01       		.uleb128 0x1
 1738 008b 13       		.uleb128 0x13
 1739 008c 00       		.byte	0
 1740 008d 00       		.byte	0
 1741 008e 0D       		.uleb128 0xd
 1742 008f 0D       		.uleb128 0xd
 1743 0090 00       		.byte	0
 1744 0091 03       		.uleb128 0x3
 1745 0092 0E       		.uleb128 0xe
 1746 0093 3A       		.uleb128 0x3a
 1747 0094 0B       		.uleb128 0xb
 1748 0095 3B       		.uleb128 0x3b
 1749 0096 0B       		.uleb128 0xb
 1750 0097 49       		.uleb128 0x49
 1751 0098 13       		.uleb128 0x13
 1752 0099 38       		.uleb128 0x38
 1753 009a 0B       		.uleb128 0xb
 1754 009b 00       		.byte	0
 1755 009c 00       		.byte	0
 1756 009d 0E       		.uleb128 0xe
 1757 009e 0F       		.uleb128 0xf
 1758 009f 00       		.byte	0
 1759 00a0 0B       		.uleb128 0xb
 1760 00a1 0B       		.uleb128 0xb
 1761 00a2 00       		.byte	0
 1762 00a3 00       		.byte	0
 1763 00a4 0F       		.uleb128 0xf
 1764 00a5 26       		.uleb128 0x26
 1765 00a6 00       		.byte	0
 1766 00a7 49       		.uleb128 0x49
 1767 00a8 13       		.uleb128 0x13
ARM GAS  /tmp/ccpMYBMS.s 			page 32


 1768 00a9 00       		.byte	0
 1769 00aa 00       		.byte	0
 1770 00ab 10       		.uleb128 0x10
 1771 00ac 13       		.uleb128 0x13
 1772 00ad 01       		.byte	0x1
 1773 00ae 03       		.uleb128 0x3
 1774 00af 0E       		.uleb128 0xe
 1775 00b0 0B       		.uleb128 0xb
 1776 00b1 0B       		.uleb128 0xb
 1777 00b2 3A       		.uleb128 0x3a
 1778 00b3 0B       		.uleb128 0xb
 1779 00b4 3B       		.uleb128 0x3b
 1780 00b5 0B       		.uleb128 0xb
 1781 00b6 01       		.uleb128 0x1
 1782 00b7 13       		.uleb128 0x13
 1783 00b8 00       		.byte	0
 1784 00b9 00       		.byte	0
 1785 00ba 11       		.uleb128 0x11
 1786 00bb 0D       		.uleb128 0xd
 1787 00bc 00       		.byte	0
 1788 00bd 03       		.uleb128 0x3
 1789 00be 08       		.uleb128 0x8
 1790 00bf 3A       		.uleb128 0x3a
 1791 00c0 0B       		.uleb128 0xb
 1792 00c1 3B       		.uleb128 0x3b
 1793 00c2 0B       		.uleb128 0xb
 1794 00c3 49       		.uleb128 0x49
 1795 00c4 13       		.uleb128 0x13
 1796 00c5 38       		.uleb128 0x38
 1797 00c6 0B       		.uleb128 0xb
 1798 00c7 00       		.byte	0
 1799 00c8 00       		.byte	0
 1800 00c9 12       		.uleb128 0x12
 1801 00ca 13       		.uleb128 0x13
 1802 00cb 01       		.byte	0x1
 1803 00cc 03       		.uleb128 0x3
 1804 00cd 0E       		.uleb128 0xe
 1805 00ce 0B       		.uleb128 0xb
 1806 00cf 05       		.uleb128 0x5
 1807 00d0 3A       		.uleb128 0x3a
 1808 00d1 0B       		.uleb128 0xb
 1809 00d2 3B       		.uleb128 0x3b
 1810 00d3 0B       		.uleb128 0xb
 1811 00d4 01       		.uleb128 0x1
 1812 00d5 13       		.uleb128 0x13
 1813 00d6 00       		.byte	0
 1814 00d7 00       		.byte	0
 1815 00d8 13       		.uleb128 0x13
 1816 00d9 0D       		.uleb128 0xd
 1817 00da 00       		.byte	0
 1818 00db 03       		.uleb128 0x3
 1819 00dc 0E       		.uleb128 0xe
 1820 00dd 3A       		.uleb128 0x3a
 1821 00de 0B       		.uleb128 0xb
 1822 00df 3B       		.uleb128 0x3b
 1823 00e0 0B       		.uleb128 0xb
 1824 00e1 49       		.uleb128 0x49
ARM GAS  /tmp/ccpMYBMS.s 			page 33


 1825 00e2 13       		.uleb128 0x13
 1826 00e3 38       		.uleb128 0x38
 1827 00e4 05       		.uleb128 0x5
 1828 00e5 00       		.byte	0
 1829 00e6 00       		.byte	0
 1830 00e7 14       		.uleb128 0x14
 1831 00e8 15       		.uleb128 0x15
 1832 00e9 00       		.byte	0
 1833 00ea 27       		.uleb128 0x27
 1834 00eb 19       		.uleb128 0x19
 1835 00ec 00       		.byte	0
 1836 00ed 00       		.byte	0
 1837 00ee 15       		.uleb128 0x15
 1838 00ef 15       		.uleb128 0x15
 1839 00f0 01       		.byte	0x1
 1840 00f1 27       		.uleb128 0x27
 1841 00f2 19       		.uleb128 0x19
 1842 00f3 49       		.uleb128 0x49
 1843 00f4 13       		.uleb128 0x13
 1844 00f5 01       		.uleb128 0x1
 1845 00f6 13       		.uleb128 0x13
 1846 00f7 00       		.byte	0
 1847 00f8 00       		.byte	0
 1848 00f9 16       		.uleb128 0x16
 1849 00fa 05       		.uleb128 0x5
 1850 00fb 00       		.byte	0
 1851 00fc 49       		.uleb128 0x49
 1852 00fd 13       		.uleb128 0x13
 1853 00fe 00       		.byte	0
 1854 00ff 00       		.byte	0
 1855 0100 17       		.uleb128 0x17
 1856 0101 13       		.uleb128 0x13
 1857 0102 01       		.byte	0x1
 1858 0103 03       		.uleb128 0x3
 1859 0104 0E       		.uleb128 0xe
 1860 0105 0B       		.uleb128 0xb
 1861 0106 05       		.uleb128 0x5
 1862 0107 3A       		.uleb128 0x3a
 1863 0108 0B       		.uleb128 0xb
 1864 0109 3B       		.uleb128 0x3b
 1865 010a 05       		.uleb128 0x5
 1866 010b 01       		.uleb128 0x1
 1867 010c 13       		.uleb128 0x13
 1868 010d 00       		.byte	0
 1869 010e 00       		.byte	0
 1870 010f 18       		.uleb128 0x18
 1871 0110 0D       		.uleb128 0xd
 1872 0111 00       		.byte	0
 1873 0112 03       		.uleb128 0x3
 1874 0113 0E       		.uleb128 0xe
 1875 0114 3A       		.uleb128 0x3a
 1876 0115 0B       		.uleb128 0xb
 1877 0116 3B       		.uleb128 0x3b
 1878 0117 05       		.uleb128 0x5
 1879 0118 49       		.uleb128 0x49
 1880 0119 13       		.uleb128 0x13
 1881 011a 38       		.uleb128 0x38
ARM GAS  /tmp/ccpMYBMS.s 			page 34


 1882 011b 0B       		.uleb128 0xb
 1883 011c 00       		.byte	0
 1884 011d 00       		.byte	0
 1885 011e 19       		.uleb128 0x19
 1886 011f 0D       		.uleb128 0xd
 1887 0120 00       		.byte	0
 1888 0121 03       		.uleb128 0x3
 1889 0122 0E       		.uleb128 0xe
 1890 0123 3A       		.uleb128 0x3a
 1891 0124 0B       		.uleb128 0xb
 1892 0125 3B       		.uleb128 0x3b
 1893 0126 05       		.uleb128 0x5
 1894 0127 49       		.uleb128 0x49
 1895 0128 13       		.uleb128 0x13
 1896 0129 38       		.uleb128 0x38
 1897 012a 05       		.uleb128 0x5
 1898 012b 00       		.byte	0
 1899 012c 00       		.byte	0
 1900 012d 1A       		.uleb128 0x1a
 1901 012e 13       		.uleb128 0x13
 1902 012f 01       		.byte	0x1
 1903 0130 03       		.uleb128 0x3
 1904 0131 0E       		.uleb128 0xe
 1905 0132 0B       		.uleb128 0xb
 1906 0133 0B       		.uleb128 0xb
 1907 0134 3A       		.uleb128 0x3a
 1908 0135 0B       		.uleb128 0xb
 1909 0136 3B       		.uleb128 0x3b
 1910 0137 05       		.uleb128 0x5
 1911 0138 01       		.uleb128 0x1
 1912 0139 13       		.uleb128 0x13
 1913 013a 00       		.byte	0
 1914 013b 00       		.byte	0
 1915 013c 1B       		.uleb128 0x1b
 1916 013d 13       		.uleb128 0x13
 1917 013e 01       		.byte	0x1
 1918 013f 0B       		.uleb128 0xb
 1919 0140 0B       		.uleb128 0xb
 1920 0141 3A       		.uleb128 0x3a
 1921 0142 0B       		.uleb128 0xb
 1922 0143 3B       		.uleb128 0x3b
 1923 0144 05       		.uleb128 0x5
 1924 0145 01       		.uleb128 0x1
 1925 0146 13       		.uleb128 0x13
 1926 0147 00       		.byte	0
 1927 0148 00       		.byte	0
 1928 0149 1C       		.uleb128 0x1c
 1929 014a 17       		.uleb128 0x17
 1930 014b 01       		.byte	0x1
 1931 014c 0B       		.uleb128 0xb
 1932 014d 0B       		.uleb128 0xb
 1933 014e 3A       		.uleb128 0x3a
 1934 014f 0B       		.uleb128 0xb
 1935 0150 3B       		.uleb128 0x3b
 1936 0151 05       		.uleb128 0x5
 1937 0152 01       		.uleb128 0x1
 1938 0153 13       		.uleb128 0x13
ARM GAS  /tmp/ccpMYBMS.s 			page 35


 1939 0154 00       		.byte	0
 1940 0155 00       		.byte	0
 1941 0156 1D       		.uleb128 0x1d
 1942 0157 0D       		.uleb128 0xd
 1943 0158 00       		.byte	0
 1944 0159 03       		.uleb128 0x3
 1945 015a 0E       		.uleb128 0xe
 1946 015b 3A       		.uleb128 0x3a
 1947 015c 0B       		.uleb128 0xb
 1948 015d 3B       		.uleb128 0x3b
 1949 015e 05       		.uleb128 0x5
 1950 015f 49       		.uleb128 0x49
 1951 0160 13       		.uleb128 0x13
 1952 0161 00       		.byte	0
 1953 0162 00       		.byte	0
 1954 0163 1E       		.uleb128 0x1e
 1955 0164 15       		.uleb128 0x15
 1956 0165 01       		.byte	0x1
 1957 0166 27       		.uleb128 0x27
 1958 0167 19       		.uleb128 0x19
 1959 0168 01       		.uleb128 0x1
 1960 0169 13       		.uleb128 0x13
 1961 016a 00       		.byte	0
 1962 016b 00       		.byte	0
 1963 016c 1F       		.uleb128 0x1f
 1964 016d 34       		.uleb128 0x34
 1965 016e 00       		.byte	0
 1966 016f 03       		.uleb128 0x3
 1967 0170 0E       		.uleb128 0xe
 1968 0171 3A       		.uleb128 0x3a
 1969 0172 0B       		.uleb128 0xb
 1970 0173 3B       		.uleb128 0x3b
 1971 0174 05       		.uleb128 0x5
 1972 0175 49       		.uleb128 0x49
 1973 0176 13       		.uleb128 0x13
 1974 0177 3F       		.uleb128 0x3f
 1975 0178 19       		.uleb128 0x19
 1976 0179 3C       		.uleb128 0x3c
 1977 017a 19       		.uleb128 0x19
 1978 017b 00       		.byte	0
 1979 017c 00       		.byte	0
 1980 017d 20       		.uleb128 0x20
 1981 017e 04       		.uleb128 0x4
 1982 017f 01       		.byte	0x1
 1983 0180 03       		.uleb128 0x3
 1984 0181 0E       		.uleb128 0xe
 1985 0182 3E       		.uleb128 0x3e
 1986 0183 0B       		.uleb128 0xb
 1987 0184 0B       		.uleb128 0xb
 1988 0185 0B       		.uleb128 0xb
 1989 0186 49       		.uleb128 0x49
 1990 0187 13       		.uleb128 0x13
 1991 0188 3A       		.uleb128 0x3a
 1992 0189 0B       		.uleb128 0xb
 1993 018a 3B       		.uleb128 0x3b
 1994 018b 05       		.uleb128 0x5
 1995 018c 01       		.uleb128 0x1
ARM GAS  /tmp/ccpMYBMS.s 			page 36


 1996 018d 13       		.uleb128 0x13
 1997 018e 00       		.byte	0
 1998 018f 00       		.byte	0
 1999 0190 21       		.uleb128 0x21
 2000 0191 28       		.uleb128 0x28
 2001 0192 00       		.byte	0
 2002 0193 03       		.uleb128 0x3
 2003 0194 0E       		.uleb128 0xe
 2004 0195 1C       		.uleb128 0x1c
 2005 0196 0D       		.uleb128 0xd
 2006 0197 00       		.byte	0
 2007 0198 00       		.byte	0
 2008 0199 22       		.uleb128 0x22
 2009 019a 28       		.uleb128 0x28
 2010 019b 00       		.byte	0
 2011 019c 03       		.uleb128 0x3
 2012 019d 0E       		.uleb128 0xe
 2013 019e 1C       		.uleb128 0x1c
 2014 019f 0B       		.uleb128 0xb
 2015 01a0 00       		.byte	0
 2016 01a1 00       		.byte	0
 2017 01a2 23       		.uleb128 0x23
 2018 01a3 2E       		.uleb128 0x2e
 2019 01a4 01       		.byte	0x1
 2020 01a5 3F       		.uleb128 0x3f
 2021 01a6 19       		.uleb128 0x19
 2022 01a7 03       		.uleb128 0x3
 2023 01a8 0E       		.uleb128 0xe
 2024 01a9 3A       		.uleb128 0x3a
 2025 01aa 0B       		.uleb128 0xb
 2026 01ab 3B       		.uleb128 0x3b
 2027 01ac 0B       		.uleb128 0xb
 2028 01ad 27       		.uleb128 0x27
 2029 01ae 19       		.uleb128 0x19
 2030 01af 49       		.uleb128 0x49
 2031 01b0 13       		.uleb128 0x13
 2032 01b1 11       		.uleb128 0x11
 2033 01b2 01       		.uleb128 0x1
 2034 01b3 12       		.uleb128 0x12
 2035 01b4 06       		.uleb128 0x6
 2036 01b5 40       		.uleb128 0x40
 2037 01b6 18       		.uleb128 0x18
 2038 01b7 9742     		.uleb128 0x2117
 2039 01b9 19       		.uleb128 0x19
 2040 01ba 01       		.uleb128 0x1
 2041 01bb 13       		.uleb128 0x13
 2042 01bc 00       		.byte	0
 2043 01bd 00       		.byte	0
 2044 01be 24       		.uleb128 0x24
 2045 01bf 05       		.uleb128 0x5
 2046 01c0 00       		.byte	0
 2047 01c1 03       		.uleb128 0x3
 2048 01c2 0E       		.uleb128 0xe
 2049 01c3 3A       		.uleb128 0x3a
 2050 01c4 0B       		.uleb128 0xb
 2051 01c5 3B       		.uleb128 0x3b
 2052 01c6 0B       		.uleb128 0xb
ARM GAS  /tmp/ccpMYBMS.s 			page 37


 2053 01c7 49       		.uleb128 0x49
 2054 01c8 13       		.uleb128 0x13
 2055 01c9 02       		.uleb128 0x2
 2056 01ca 17       		.uleb128 0x17
 2057 01cb 00       		.byte	0
 2058 01cc 00       		.byte	0
 2059 01cd 25       		.uleb128 0x25
 2060 01ce 05       		.uleb128 0x5
 2061 01cf 00       		.byte	0
 2062 01d0 03       		.uleb128 0x3
 2063 01d1 0E       		.uleb128 0xe
 2064 01d2 3A       		.uleb128 0x3a
 2065 01d3 0B       		.uleb128 0xb
 2066 01d4 3B       		.uleb128 0x3b
 2067 01d5 0B       		.uleb128 0xb
 2068 01d6 49       		.uleb128 0x49
 2069 01d7 13       		.uleb128 0x13
 2070 01d8 02       		.uleb128 0x2
 2071 01d9 18       		.uleb128 0x18
 2072 01da 00       		.byte	0
 2073 01db 00       		.byte	0
 2074 01dc 26       		.uleb128 0x26
 2075 01dd 05       		.uleb128 0x5
 2076 01de 00       		.byte	0
 2077 01df 03       		.uleb128 0x3
 2078 01e0 08       		.uleb128 0x8
 2079 01e1 3A       		.uleb128 0x3a
 2080 01e2 0B       		.uleb128 0xb
 2081 01e3 3B       		.uleb128 0x3b
 2082 01e4 0B       		.uleb128 0xb
 2083 01e5 49       		.uleb128 0x49
 2084 01e6 13       		.uleb128 0x13
 2085 01e7 02       		.uleb128 0x2
 2086 01e8 17       		.uleb128 0x17
 2087 01e9 00       		.byte	0
 2088 01ea 00       		.byte	0
 2089 01eb 27       		.uleb128 0x27
 2090 01ec 1D       		.uleb128 0x1d
 2091 01ed 01       		.byte	0x1
 2092 01ee 31       		.uleb128 0x31
 2093 01ef 13       		.uleb128 0x13
 2094 01f0 52       		.uleb128 0x52
 2095 01f1 01       		.uleb128 0x1
 2096 01f2 55       		.uleb128 0x55
 2097 01f3 17       		.uleb128 0x17
 2098 01f4 58       		.uleb128 0x58
 2099 01f5 0B       		.uleb128 0xb
 2100 01f6 59       		.uleb128 0x59
 2101 01f7 0B       		.uleb128 0xb
 2102 01f8 01       		.uleb128 0x1
 2103 01f9 13       		.uleb128 0x13
 2104 01fa 00       		.byte	0
 2105 01fb 00       		.byte	0
 2106 01fc 28       		.uleb128 0x28
 2107 01fd 05       		.uleb128 0x5
 2108 01fe 00       		.byte	0
 2109 01ff 31       		.uleb128 0x31
ARM GAS  /tmp/ccpMYBMS.s 			page 38


 2110 0200 13       		.uleb128 0x13
 2111 0201 02       		.uleb128 0x2
 2112 0202 17       		.uleb128 0x17
 2113 0203 00       		.byte	0
 2114 0204 00       		.byte	0
 2115 0205 29       		.uleb128 0x29
 2116 0206 0B       		.uleb128 0xb
 2117 0207 01       		.byte	0x1
 2118 0208 55       		.uleb128 0x55
 2119 0209 17       		.uleb128 0x17
 2120 020a 00       		.byte	0
 2121 020b 00       		.byte	0
 2122 020c 2A       		.uleb128 0x2a
 2123 020d 34       		.uleb128 0x34
 2124 020e 00       		.byte	0
 2125 020f 31       		.uleb128 0x31
 2126 0210 13       		.uleb128 0x13
 2127 0211 00       		.byte	0
 2128 0212 00       		.byte	0
 2129 0213 2B       		.uleb128 0x2b
 2130 0214 1D       		.uleb128 0x1d
 2131 0215 01       		.byte	0x1
 2132 0216 31       		.uleb128 0x31
 2133 0217 13       		.uleb128 0x13
 2134 0218 11       		.uleb128 0x11
 2135 0219 01       		.uleb128 0x1
 2136 021a 12       		.uleb128 0x12
 2137 021b 06       		.uleb128 0x6
 2138 021c 58       		.uleb128 0x58
 2139 021d 0B       		.uleb128 0xb
 2140 021e 59       		.uleb128 0x59
 2141 021f 0B       		.uleb128 0xb
 2142 0220 00       		.byte	0
 2143 0221 00       		.byte	0
 2144 0222 2C       		.uleb128 0x2c
 2145 0223 0B       		.uleb128 0xb
 2146 0224 01       		.byte	0x1
 2147 0225 11       		.uleb128 0x11
 2148 0226 01       		.uleb128 0x1
 2149 0227 12       		.uleb128 0x12
 2150 0228 06       		.uleb128 0x6
 2151 0229 00       		.byte	0
 2152 022a 00       		.byte	0
 2153 022b 2D       		.uleb128 0x2d
 2154 022c 2E       		.uleb128 0x2e
 2155 022d 01       		.byte	0x1
 2156 022e 3F       		.uleb128 0x3f
 2157 022f 19       		.uleb128 0x19
 2158 0230 03       		.uleb128 0x3
 2159 0231 0E       		.uleb128 0xe
 2160 0232 3A       		.uleb128 0x3a
 2161 0233 0B       		.uleb128 0xb
 2162 0234 3B       		.uleb128 0x3b
 2163 0235 0B       		.uleb128 0xb
 2164 0236 27       		.uleb128 0x27
 2165 0237 19       		.uleb128 0x19
 2166 0238 11       		.uleb128 0x11
ARM GAS  /tmp/ccpMYBMS.s 			page 39


 2167 0239 01       		.uleb128 0x1
 2168 023a 12       		.uleb128 0x12
 2169 023b 06       		.uleb128 0x6
 2170 023c 40       		.uleb128 0x40
 2171 023d 18       		.uleb128 0x18
 2172 023e 9742     		.uleb128 0x2117
 2173 0240 19       		.uleb128 0x19
 2174 0241 01       		.uleb128 0x1
 2175 0242 13       		.uleb128 0x13
 2176 0243 00       		.byte	0
 2177 0244 00       		.byte	0
 2178 0245 2E       		.uleb128 0x2e
 2179 0246 2E       		.uleb128 0x2e
 2180 0247 01       		.byte	0x1
 2181 0248 03       		.uleb128 0x3
 2182 0249 0E       		.uleb128 0xe
 2183 024a 3A       		.uleb128 0x3a
 2184 024b 0B       		.uleb128 0xb
 2185 024c 3B       		.uleb128 0x3b
 2186 024d 0B       		.uleb128 0xb
 2187 024e 27       		.uleb128 0x27
 2188 024f 19       		.uleb128 0x19
 2189 0250 49       		.uleb128 0x49
 2190 0251 13       		.uleb128 0x13
 2191 0252 20       		.uleb128 0x20
 2192 0253 0B       		.uleb128 0xb
 2193 0254 01       		.uleb128 0x1
 2194 0255 13       		.uleb128 0x13
 2195 0256 00       		.byte	0
 2196 0257 00       		.byte	0
 2197 0258 2F       		.uleb128 0x2f
 2198 0259 05       		.uleb128 0x5
 2199 025a 00       		.byte	0
 2200 025b 03       		.uleb128 0x3
 2201 025c 0E       		.uleb128 0xe
 2202 025d 3A       		.uleb128 0x3a
 2203 025e 0B       		.uleb128 0xb
 2204 025f 3B       		.uleb128 0x3b
 2205 0260 0B       		.uleb128 0xb
 2206 0261 49       		.uleb128 0x49
 2207 0262 13       		.uleb128 0x13
 2208 0263 00       		.byte	0
 2209 0264 00       		.byte	0
 2210 0265 30       		.uleb128 0x30
 2211 0266 34       		.uleb128 0x34
 2212 0267 00       		.byte	0
 2213 0268 03       		.uleb128 0x3
 2214 0269 0E       		.uleb128 0xe
 2215 026a 3A       		.uleb128 0x3a
 2216 026b 0B       		.uleb128 0xb
 2217 026c 3B       		.uleb128 0x3b
 2218 026d 0B       		.uleb128 0xb
 2219 026e 49       		.uleb128 0x49
 2220 026f 13       		.uleb128 0x13
 2221 0270 00       		.byte	0
 2222 0271 00       		.byte	0
 2223 0272 31       		.uleb128 0x31
ARM GAS  /tmp/ccpMYBMS.s 			page 40


 2224 0273 2E       		.uleb128 0x2e
 2225 0274 01       		.byte	0x1
 2226 0275 03       		.uleb128 0x3
 2227 0276 0E       		.uleb128 0xe
 2228 0277 3A       		.uleb128 0x3a
 2229 0278 0B       		.uleb128 0xb
 2230 0279 3B       		.uleb128 0x3b
 2231 027a 0B       		.uleb128 0xb
 2232 027b 27       		.uleb128 0x27
 2233 027c 19       		.uleb128 0x19
 2234 027d 49       		.uleb128 0x49
 2235 027e 13       		.uleb128 0x13
 2236 027f 20       		.uleb128 0x20
 2237 0280 0B       		.uleb128 0xb
 2238 0281 00       		.byte	0
 2239 0282 00       		.byte	0
 2240 0283 00       		.byte	0
 2241              		.section	.debug_loc,"",%progbits
 2242              	.Ldebug_loc0:
 2243              	.LLST7:
 2244 0000 00000000 		.4byte	.LVL21
 2245 0004 14000000 		.4byte	.LVL22
 2246 0008 0100     		.2byte	0x1
 2247 000a 50       		.byte	0x50
 2248 000b 14000000 		.4byte	.LVL22
 2249 000f 18000000 		.4byte	.LFE24
 2250 0013 0400     		.2byte	0x4
 2251 0015 F3       		.byte	0xf3
 2252 0016 01       		.uleb128 0x1
 2253 0017 50       		.byte	0x50
 2254 0018 9F       		.byte	0x9f
 2255 0019 00000000 		.4byte	0
 2256 001d 00000000 		.4byte	0
 2257              	.LLST1:
 2258 0021 16000000 		.4byte	.LVL3
 2259 0025 2A000000 		.4byte	.LVL5
 2260 0029 0C00     		.2byte	0xc
 2261 002b 91       		.byte	0x91
 2262 002c 64       		.sleb128 -28
 2263 002d 93       		.byte	0x93
 2264 002e 04       		.uleb128 0x4
 2265 002f 91       		.byte	0x91
 2266 0030 68       		.sleb128 -24
 2267 0031 93       		.byte	0x93
 2268 0032 04       		.uleb128 0x4
 2269 0033 91       		.byte	0x91
 2270 0034 6C       		.sleb128 -20
 2271 0035 93       		.byte	0x93
 2272 0036 04       		.uleb128 0x4
 2273 0037 2A000000 		.4byte	.LVL5
 2274 003b 98000000 		.4byte	.LVL15
 2275 003f 0C00     		.2byte	0xc
 2276 0041 90       		.byte	0x90
 2277 0042 40       		.uleb128 0x40
 2278 0043 93       		.byte	0x93
 2279 0044 04       		.uleb128 0x4
 2280 0045 90       		.byte	0x90
ARM GAS  /tmp/ccpMYBMS.s 			page 41


 2281 0046 41       		.uleb128 0x41
 2282 0047 93       		.byte	0x93
 2283 0048 04       		.uleb128 0x4
 2284 0049 90       		.byte	0x90
 2285 004a 42       		.uleb128 0x42
 2286 004b 93       		.byte	0x93
 2287 004c 04       		.uleb128 0x4
 2288 004d 98000000 		.4byte	.LVL15
 2289 0051 9C000000 		.4byte	.LVL16
 2290 0055 0C00     		.2byte	0xc
 2291 0057 91       		.byte	0x91
 2292 0058 74       		.sleb128 -12
 2293 0059 93       		.byte	0x93
 2294 005a 04       		.uleb128 0x4
 2295 005b 90       		.byte	0x90
 2296 005c 41       		.uleb128 0x41
 2297 005d 93       		.byte	0x93
 2298 005e 04       		.uleb128 0x4
 2299 005f 90       		.byte	0x90
 2300 0060 42       		.uleb128 0x42
 2301 0061 93       		.byte	0x93
 2302 0062 04       		.uleb128 0x4
 2303 0063 9C000000 		.4byte	.LVL16
 2304 0067 A0000000 		.4byte	.LVL17
 2305 006b 0C00     		.2byte	0xc
 2306 006d 91       		.byte	0x91
 2307 006e 74       		.sleb128 -12
 2308 006f 93       		.byte	0x93
 2309 0070 04       		.uleb128 0x4
 2310 0071 91       		.byte	0x91
 2311 0072 78       		.sleb128 -8
 2312 0073 93       		.byte	0x93
 2313 0074 04       		.uleb128 0x4
 2314 0075 90       		.byte	0x90
 2315 0076 42       		.uleb128 0x42
 2316 0077 93       		.byte	0x93
 2317 0078 04       		.uleb128 0x4
 2318 0079 A0000000 		.4byte	.LVL17
 2319 007d A2000000 		.4byte	.LVL18
 2320 0081 0C00     		.2byte	0xc
 2321 0083 91       		.byte	0x91
 2322 0084 74       		.sleb128 -12
 2323 0085 93       		.byte	0x93
 2324 0086 04       		.uleb128 0x4
 2325 0087 91       		.byte	0x91
 2326 0088 78       		.sleb128 -8
 2327 0089 93       		.byte	0x93
 2328 008a 04       		.uleb128 0x4
 2329 008b 91       		.byte	0x91
 2330 008c 7C       		.sleb128 -4
 2331 008d 93       		.byte	0x93
 2332 008e 04       		.uleb128 0x4
 2333 008f A2000000 		.4byte	.LVL18
 2334 0093 A4000000 		.4byte	.LVL19
 2335 0097 0C00     		.2byte	0xc
 2336 0099 7D       		.byte	0x7d
 2337 009a 74       		.sleb128 -12
ARM GAS  /tmp/ccpMYBMS.s 			page 42


 2338 009b 93       		.byte	0x93
 2339 009c 04       		.uleb128 0x4
 2340 009d 7D       		.byte	0x7d
 2341 009e 78       		.sleb128 -8
 2342 009f 93       		.byte	0x93
 2343 00a0 04       		.uleb128 0x4
 2344 00a1 7D       		.byte	0x7d
 2345 00a2 7C       		.sleb128 -4
 2346 00a3 93       		.byte	0x93
 2347 00a4 04       		.uleb128 0x4
 2348 00a5 A4000000 		.4byte	.LVL19
 2349 00a9 BA000000 		.4byte	.LFE23
 2350 00ad 0C00     		.2byte	0xc
 2351 00af 90       		.byte	0x90
 2352 00b0 40       		.uleb128 0x40
 2353 00b1 93       		.byte	0x93
 2354 00b2 04       		.uleb128 0x4
 2355 00b3 90       		.byte	0x90
 2356 00b4 41       		.uleb128 0x41
 2357 00b5 93       		.byte	0x93
 2358 00b6 04       		.uleb128 0x4
 2359 00b7 90       		.byte	0x90
 2360 00b8 42       		.uleb128 0x42
 2361 00b9 93       		.byte	0x93
 2362 00ba 04       		.uleb128 0x4
 2363 00bb 00000000 		.4byte	0
 2364 00bf 00000000 		.4byte	0
 2365              	.LLST2:
 2366 00c3 00000000 		.4byte	.LVL2
 2367 00c7 94000000 		.4byte	.LVL14
 2368 00cb 0200     		.2byte	0x2
 2369 00cd 90       		.byte	0x90
 2370 00ce 43       		.uleb128 0x43
 2371 00cf 94000000 		.4byte	.LVL14
 2372 00d3 A4000000 		.4byte	.LVL19
 2373 00d7 0600     		.2byte	0x6
 2374 00d9 F3       		.byte	0xf3
 2375 00da 03       		.uleb128 0x3
 2376 00db F5       		.byte	0xf5
 2377 00dc 43       		.uleb128 0x43
 2378 00dd 25       		.uleb128 0x25
 2379 00de 9F       		.byte	0x9f
 2380 00df A4000000 		.4byte	.LVL19
 2381 00e3 A8000000 		.4byte	.LVL20
 2382 00e7 0200     		.2byte	0x2
 2383 00e9 90       		.byte	0x90
 2384 00ea 43       		.uleb128 0x43
 2385 00eb A8000000 		.4byte	.LVL20
 2386 00ef BA000000 		.4byte	.LFE23
 2387 00f3 0600     		.2byte	0x6
 2388 00f5 F3       		.byte	0xf3
 2389 00f6 03       		.uleb128 0x3
 2390 00f7 F5       		.byte	0xf5
 2391 00f8 43       		.uleb128 0x43
 2392 00f9 25       		.uleb128 0x25
 2393 00fa 9F       		.byte	0x9f
 2394 00fb 00000000 		.4byte	0
ARM GAS  /tmp/ccpMYBMS.s 			page 43


 2395 00ff 00000000 		.4byte	0
 2396              	.LLST3:
 2397 0103 16000000 		.4byte	.LVL3
 2398 0107 66000000 		.4byte	.LVL7
 2399 010b 0C00     		.2byte	0xc
 2400 010d 90       		.byte	0x90
 2401 010e 4C       		.uleb128 0x4c
 2402 010f 93       		.byte	0x93
 2403 0110 04       		.uleb128 0x4
 2404 0111 90       		.byte	0x90
 2405 0112 4D       		.uleb128 0x4d
 2406 0113 93       		.byte	0x93
 2407 0114 04       		.uleb128 0x4
 2408 0115 90       		.byte	0x90
 2409 0116 4E       		.uleb128 0x4e
 2410 0117 93       		.byte	0x93
 2411 0118 04       		.uleb128 0x4
 2412 0119 66000000 		.4byte	.LVL7
 2413 011d 6A000000 		.4byte	.LVL8
 2414 0121 0C00     		.2byte	0xc
 2415 0123 70       		.byte	0x70
 2416 0124 0C       		.sleb128 12
 2417 0125 93       		.byte	0x93
 2418 0126 04       		.uleb128 0x4
 2419 0127 90       		.byte	0x90
 2420 0128 4D       		.uleb128 0x4d
 2421 0129 93       		.byte	0x93
 2422 012a 04       		.uleb128 0x4
 2423 012b 90       		.byte	0x90
 2424 012c 4E       		.uleb128 0x4e
 2425 012d 93       		.byte	0x93
 2426 012e 04       		.uleb128 0x4
 2427 012f 6A000000 		.4byte	.LVL8
 2428 0133 6E000000 		.4byte	.LVL9
 2429 0137 0C00     		.2byte	0xc
 2430 0139 70       		.byte	0x70
 2431 013a 0C       		.sleb128 12
 2432 013b 93       		.byte	0x93
 2433 013c 04       		.uleb128 0x4
 2434 013d 70       		.byte	0x70
 2435 013e 10       		.sleb128 16
 2436 013f 93       		.byte	0x93
 2437 0140 04       		.uleb128 0x4
 2438 0141 90       		.byte	0x90
 2439 0142 4E       		.uleb128 0x4e
 2440 0143 93       		.byte	0x93
 2441 0144 04       		.uleb128 0x4
 2442 0145 6E000000 		.4byte	.LVL9
 2443 0149 7A000000 		.4byte	.LVL10
 2444 014d 0C00     		.2byte	0xc
 2445 014f 70       		.byte	0x70
 2446 0150 0C       		.sleb128 12
 2447 0151 93       		.byte	0x93
 2448 0152 04       		.uleb128 0x4
 2449 0153 70       		.byte	0x70
 2450 0154 10       		.sleb128 16
 2451 0155 93       		.byte	0x93
ARM GAS  /tmp/ccpMYBMS.s 			page 44


 2452 0156 04       		.uleb128 0x4
 2453 0157 70       		.byte	0x70
 2454 0158 14       		.sleb128 20
 2455 0159 93       		.byte	0x93
 2456 015a 04       		.uleb128 0x4
 2457 015b 7A000000 		.4byte	.LVL10
 2458 015f 7E000000 		.4byte	.LVL11
 2459 0163 0A00     		.2byte	0xa
 2460 0165 93       		.byte	0x93
 2461 0166 04       		.uleb128 0x4
 2462 0167 70       		.byte	0x70
 2463 0168 10       		.sleb128 16
 2464 0169 93       		.byte	0x93
 2465 016a 04       		.uleb128 0x4
 2466 016b 70       		.byte	0x70
 2467 016c 14       		.sleb128 20
 2468 016d 93       		.byte	0x93
 2469 016e 04       		.uleb128 0x4
 2470 016f 7E000000 		.4byte	.LVL11
 2471 0173 82000000 		.4byte	.LVL12
 2472 0177 0600     		.2byte	0x6
 2473 0179 93       		.byte	0x93
 2474 017a 08       		.uleb128 0x8
 2475 017b 70       		.byte	0x70
 2476 017c 14       		.sleb128 20
 2477 017d 93       		.byte	0x93
 2478 017e 04       		.uleb128 0x4
 2479 017f 84000000 		.4byte	.LVL13
 2480 0183 94000000 		.4byte	.LVL14
 2481 0187 0C00     		.2byte	0xc
 2482 0189 90       		.byte	0x90
 2483 018a 4C       		.uleb128 0x4c
 2484 018b 93       		.byte	0x93
 2485 018c 04       		.uleb128 0x4
 2486 018d 90       		.byte	0x90
 2487 018e 4D       		.uleb128 0x4d
 2488 018f 93       		.byte	0x93
 2489 0190 04       		.uleb128 0x4
 2490 0191 90       		.byte	0x90
 2491 0192 4E       		.uleb128 0x4e
 2492 0193 93       		.byte	0x93
 2493 0194 04       		.uleb128 0x4
 2494 0195 A4000000 		.4byte	.LVL19
 2495 0199 BA000000 		.4byte	.LFE23
 2496 019d 0C00     		.2byte	0xc
 2497 019f 90       		.byte	0x90
 2498 01a0 4C       		.uleb128 0x4c
 2499 01a1 93       		.byte	0x93
 2500 01a2 04       		.uleb128 0x4
 2501 01a3 90       		.byte	0x90
 2502 01a4 4D       		.uleb128 0x4d
 2503 01a5 93       		.byte	0x93
 2504 01a6 04       		.uleb128 0x4
 2505 01a7 90       		.byte	0x90
 2506 01a8 4E       		.uleb128 0x4e
 2507 01a9 93       		.byte	0x93
 2508 01aa 04       		.uleb128 0x4
ARM GAS  /tmp/ccpMYBMS.s 			page 45


 2509 01ab 00000000 		.4byte	0
 2510 01af 00000000 		.4byte	0
 2511              	.LLST4:
 2512 01b3 16000000 		.4byte	.LVL3
 2513 01b7 A2000000 		.4byte	.LVL18
 2514 01bb 0C00     		.2byte	0xc
 2515 01bd 91       		.byte	0x91
 2516 01be 64       		.sleb128 -28
 2517 01bf 93       		.byte	0x93
 2518 01c0 04       		.uleb128 0x4
 2519 01c1 91       		.byte	0x91
 2520 01c2 68       		.sleb128 -24
 2521 01c3 93       		.byte	0x93
 2522 01c4 04       		.uleb128 0x4
 2523 01c5 91       		.byte	0x91
 2524 01c6 6C       		.sleb128 -20
 2525 01c7 93       		.byte	0x93
 2526 01c8 04       		.uleb128 0x4
 2527 01c9 A2000000 		.4byte	.LVL18
 2528 01cd A4000000 		.4byte	.LVL19
 2529 01d1 0C00     		.2byte	0xc
 2530 01d3 7D       		.byte	0x7d
 2531 01d4 64       		.sleb128 -28
 2532 01d5 93       		.byte	0x93
 2533 01d6 04       		.uleb128 0x4
 2534 01d7 7D       		.byte	0x7d
 2535 01d8 68       		.sleb128 -24
 2536 01d9 93       		.byte	0x93
 2537 01da 04       		.uleb128 0x4
 2538 01db 7D       		.byte	0x7d
 2539 01dc 6C       		.sleb128 -20
 2540 01dd 93       		.byte	0x93
 2541 01de 04       		.uleb128 0x4
 2542 01df A4000000 		.4byte	.LVL19
 2543 01e3 BA000000 		.4byte	.LFE23
 2544 01e7 0C00     		.2byte	0xc
 2545 01e9 91       		.byte	0x91
 2546 01ea 64       		.sleb128 -28
 2547 01eb 93       		.byte	0x93
 2548 01ec 04       		.uleb128 0x4
 2549 01ed 91       		.byte	0x91
 2550 01ee 68       		.sleb128 -24
 2551 01ef 93       		.byte	0x93
 2552 01f0 04       		.uleb128 0x4
 2553 01f1 91       		.byte	0x91
 2554 01f2 6C       		.sleb128 -20
 2555 01f3 93       		.byte	0x93
 2556 01f4 04       		.uleb128 0x4
 2557 01f5 00000000 		.4byte	0
 2558 01f9 00000000 		.4byte	0
 2559              	.LLST5:
 2560 01fd 5E000000 		.4byte	.LVL6
 2561 0201 84000000 		.4byte	.LVL13
 2562 0205 1E00     		.2byte	0x1e
 2563 0207 F5       		.byte	0xf5
 2564 0208 4F       		.uleb128 0x4f
 2565 0209 25       		.uleb128 0x25
ARM GAS  /tmp/ccpMYBMS.s 			page 46


 2566 020a F5       		.byte	0xf5
 2567 020b 40       		.uleb128 0x40
 2568 020c 25       		.uleb128 0x25
 2569 020d 1E       		.byte	0x1e
 2570 020e 9F       		.byte	0x9f
 2571 020f 93       		.byte	0x93
 2572 0210 04       		.uleb128 0x4
 2573 0211 F5       		.byte	0xf5
 2574 0212 4F       		.uleb128 0x4f
 2575 0213 25       		.uleb128 0x25
 2576 0214 F5       		.byte	0xf5
 2577 0215 41       		.uleb128 0x41
 2578 0216 25       		.uleb128 0x25
 2579 0217 1E       		.byte	0x1e
 2580 0218 9F       		.byte	0x9f
 2581 0219 93       		.byte	0x93
 2582 021a 04       		.uleb128 0x4
 2583 021b F5       		.byte	0xf5
 2584 021c 4F       		.uleb128 0x4f
 2585 021d 25       		.uleb128 0x25
 2586 021e F5       		.byte	0xf5
 2587 021f 42       		.uleb128 0x42
 2588 0220 25       		.uleb128 0x25
 2589 0221 1E       		.byte	0x1e
 2590 0222 9F       		.byte	0x9f
 2591 0223 93       		.byte	0x93
 2592 0224 04       		.uleb128 0x4
 2593 0225 00000000 		.4byte	0
 2594 0229 00000000 		.4byte	0
 2595              	.LLST6:
 2596 022d 5E000000 		.4byte	.LVL6
 2597 0231 66000000 		.4byte	.LVL7
 2598 0235 0C00     		.2byte	0xc
 2599 0237 90       		.byte	0x90
 2600 0238 4C       		.uleb128 0x4c
 2601 0239 93       		.byte	0x93
 2602 023a 04       		.uleb128 0x4
 2603 023b 90       		.byte	0x90
 2604 023c 4D       		.uleb128 0x4d
 2605 023d 93       		.byte	0x93
 2606 023e 04       		.uleb128 0x4
 2607 023f 90       		.byte	0x90
 2608 0240 4E       		.uleb128 0x4e
 2609 0241 93       		.byte	0x93
 2610 0242 04       		.uleb128 0x4
 2611 0243 66000000 		.4byte	.LVL7
 2612 0247 6A000000 		.4byte	.LVL8
 2613 024b 0C00     		.2byte	0xc
 2614 024d 70       		.byte	0x70
 2615 024e 0C       		.sleb128 12
 2616 024f 93       		.byte	0x93
 2617 0250 04       		.uleb128 0x4
 2618 0251 90       		.byte	0x90
 2619 0252 4D       		.uleb128 0x4d
 2620 0253 93       		.byte	0x93
 2621 0254 04       		.uleb128 0x4
 2622 0255 90       		.byte	0x90
ARM GAS  /tmp/ccpMYBMS.s 			page 47


 2623 0256 4E       		.uleb128 0x4e
 2624 0257 93       		.byte	0x93
 2625 0258 04       		.uleb128 0x4
 2626 0259 6A000000 		.4byte	.LVL8
 2627 025d 6E000000 		.4byte	.LVL9
 2628 0261 0C00     		.2byte	0xc
 2629 0263 70       		.byte	0x70
 2630 0264 0C       		.sleb128 12
 2631 0265 93       		.byte	0x93
 2632 0266 04       		.uleb128 0x4
 2633 0267 70       		.byte	0x70
 2634 0268 10       		.sleb128 16
 2635 0269 93       		.byte	0x93
 2636 026a 04       		.uleb128 0x4
 2637 026b 90       		.byte	0x90
 2638 026c 4E       		.uleb128 0x4e
 2639 026d 93       		.byte	0x93
 2640 026e 04       		.uleb128 0x4
 2641 026f 6E000000 		.4byte	.LVL9
 2642 0273 7A000000 		.4byte	.LVL10
 2643 0277 0C00     		.2byte	0xc
 2644 0279 70       		.byte	0x70
 2645 027a 0C       		.sleb128 12
 2646 027b 93       		.byte	0x93
 2647 027c 04       		.uleb128 0x4
 2648 027d 70       		.byte	0x70
 2649 027e 10       		.sleb128 16
 2650 027f 93       		.byte	0x93
 2651 0280 04       		.uleb128 0x4
 2652 0281 70       		.byte	0x70
 2653 0282 14       		.sleb128 20
 2654 0283 93       		.byte	0x93
 2655 0284 04       		.uleb128 0x4
 2656 0285 7A000000 		.4byte	.LVL10
 2657 0289 7E000000 		.4byte	.LVL11
 2658 028d 0A00     		.2byte	0xa
 2659 028f 93       		.byte	0x93
 2660 0290 04       		.uleb128 0x4
 2661 0291 70       		.byte	0x70
 2662 0292 10       		.sleb128 16
 2663 0293 93       		.byte	0x93
 2664 0294 04       		.uleb128 0x4
 2665 0295 70       		.byte	0x70
 2666 0296 14       		.sleb128 20
 2667 0297 93       		.byte	0x93
 2668 0298 04       		.uleb128 0x4
 2669 0299 7E000000 		.4byte	.LVL11
 2670 029d 82000000 		.4byte	.LVL12
 2671 02a1 0600     		.2byte	0x6
 2672 02a3 93       		.byte	0x93
 2673 02a4 08       		.uleb128 0x8
 2674 02a5 70       		.byte	0x70
 2675 02a6 14       		.sleb128 20
 2676 02a7 93       		.byte	0x93
 2677 02a8 04       		.uleb128 0x4
 2678 02a9 00000000 		.4byte	0
 2679 02ad 00000000 		.4byte	0
ARM GAS  /tmp/ccpMYBMS.s 			page 48


 2680              	.LLST0:
 2681 02b1 00000000 		.4byte	.LVL0
 2682 02b5 0C000000 		.4byte	.LVL1
 2683 02b9 0200     		.2byte	0x2
 2684 02bb 90       		.byte	0x90
 2685 02bc 41       		.uleb128 0x41
 2686 02bd 0C000000 		.4byte	.LVL1
 2687 02c1 20000000 		.4byte	.LFE22
 2688 02c5 0600     		.2byte	0x6
 2689 02c7 F3       		.byte	0xf3
 2690 02c8 03       		.uleb128 0x3
 2691 02c9 F5       		.byte	0xf5
 2692 02ca 41       		.uleb128 0x41
 2693 02cb 25       		.uleb128 0x25
 2694 02cc 9F       		.byte	0x9f
 2695 02cd 00000000 		.4byte	0
 2696 02d1 00000000 		.4byte	0
 2697              		.section	.debug_aranges,"",%progbits
 2698 0000 2C000000 		.4byte	0x2c
 2699 0004 0200     		.2byte	0x2
 2700 0006 00000000 		.4byte	.Ldebug_info0
 2701 000a 04       		.byte	0x4
 2702 000b 00       		.byte	0
 2703 000c 0000     		.2byte	0
 2704 000e 0000     		.2byte	0
 2705 0010 00000000 		.4byte	.LFB22
 2706 0014 20000000 		.4byte	.LFE22-.LFB22
 2707 0018 00000000 		.4byte	.LFB23
 2708 001c BA000000 		.4byte	.LFE23-.LFB23
 2709 0020 00000000 		.4byte	.LFB24
 2710 0024 18000000 		.4byte	.LFE24-.LFB24
 2711 0028 00000000 		.4byte	0
 2712 002c 00000000 		.4byte	0
 2713              		.section	.debug_ranges,"",%progbits
 2714              	.Ldebug_ranges0:
 2715 0000 10000000 		.4byte	.LBB8
 2716 0004 14000000 		.4byte	.LBE8
 2717 0008 22000000 		.4byte	.LBB11
 2718 000c 2A000000 		.4byte	.LBE11
 2719 0010 00000000 		.4byte	0
 2720 0014 00000000 		.4byte	0
 2721 0018 00000000 		.4byte	.LFB22
 2722 001c 20000000 		.4byte	.LFE22
 2723 0020 00000000 		.4byte	.LFB23
 2724 0024 BA000000 		.4byte	.LFE23
 2725 0028 00000000 		.4byte	.LFB24
 2726 002c 18000000 		.4byte	.LFE24
 2727 0030 00000000 		.4byte	0
 2728 0034 00000000 		.4byte	0
 2729              		.section	.debug_line,"",%progbits
 2730              	.Ldebug_line0:
 2731 0000 6F010000 		.section	.debug_str,"MS",%progbits,1
 2731      0200E900 
 2731      00000201 
 2731      FB0E0D00 
 2731      01010101 
 2732              	.LASF39:
ARM GAS  /tmp/ccpMYBMS.s 			page 49


 2733 0000 5F64736F 		.ascii	"_dso_handle\000"
 2733      5F68616E 
 2733      646C6500 
 2734              	.LASF142:
 2735 000c 7363616C 		.ascii	"scalar\000"
 2735      617200
 2736              	.LASF150:
 2737 0013 2F626C64 		.ascii	"/bldc\000"
 2737      6300
 2738              	.LASF91:
 2739 0019 5F72616E 		.ascii	"_rand48\000"
 2739      64343800 
 2740              	.LASF71:
 2741 0021 5F656D65 		.ascii	"_emergency\000"
 2741      7267656E 
 2741      637900
 2742              	.LASF61:
 2743 002c 5F646174 		.ascii	"_data\000"
 2743      6100
 2744              	.LASF148:
 2745 0032 474E5520 		.ascii	"GNU C99 7.3.1 20180622 (release) [ARM/embedded-7-br"
 2745      43393920 
 2745      372E332E 
 2745      31203230 
 2745      31383036 
 2746 0065 616E6368 		.ascii	"anch revision 261907] -mcpu=cortex-m4 -mfloat-abi=h"
 2746      20726576 
 2746      6973696F 
 2746      6E203236 
 2746      31393037 
 2747 0098 61726420 		.ascii	"ard -mfpu=fpv4-sp-d16 -mno-thumb-interwork -mthumb "
 2747      2D6D6670 
 2747      753D6670 
 2747      76342D73 
 2747      702D6431 
 2748 00cb 2D676764 		.ascii	"-ggdb -O2 -std=gnu99 -fomit-frame-pointer -falign-f"
 2748      62202D4F 
 2748      32202D73 
 2748      74643D67 
 2748      6E753939 
 2749 00fe 756E6374 		.ascii	"unctions=16 -ffunction-sections -fdata-sections -fn"
 2749      696F6E73 
 2749      3D313620 
 2749      2D666675 
 2749      6E637469 
 2750 0131 6F2D636F 		.ascii	"o-common -fsingle-precision-constant\000"
 2750      6D6D6F6E 
 2750      202D6673 
 2750      696E676C 
 2750      652D7072 
 2751              	.LASF140:
 2752 0156 73616D70 		.ascii	"samplePeriod\000"
 2752      6C655065 
 2752      72696F64 
 2752      00
 2753              	.LASF111:
 2754 0163 5F776372 		.ascii	"_wcrtomb_state\000"
ARM GAS  /tmp/ccpMYBMS.s 			page 50


 2754      746F6D62 
 2754      5F737461 
 2754      746500
 2755              	.LASF112:
 2756 0172 5F776373 		.ascii	"_wcsrtombs_state\000"
 2756      72746F6D 
 2756      62735F73 
 2756      74617465 
 2756      00
 2757              	.LASF9:
 2758 0183 6C6F6E67 		.ascii	"long long unsigned int\000"
 2758      206C6F6E 
 2758      6720756E 
 2758      7369676E 
 2758      65642069 
 2759              	.LASF125:
 2760 019a 5F5F6664 		.ascii	"__fdlibm_posix\000"
 2760      6C69626D 
 2760      5F706F73 
 2760      697800
 2761              	.LASF51:
 2762 01a9 5F6C6266 		.ascii	"_lbfsize\000"
 2762      73697A65 
 2762      00
 2763              	.LASF141:
 2764 01b2 76656374 		.ascii	"vector\000"
 2764      6F7200
 2765              	.LASF118:
 2766 01b9 5F5F6C6F 		.ascii	"__locale_t\000"
 2766      63616C65 
 2766      5F7400
 2767              	.LASF124:
 2768 01c4 5F5F6664 		.ascii	"__fdlibm_xopen\000"
 2768      6C69626D 
 2768      5F786F70 
 2768      656E00
 2769              	.LASF109:
 2770 01d3 5F6D6272 		.ascii	"_mbrtowc_state\000"
 2770      746F7763 
 2770      5F737461 
 2770      746500
 2771              	.LASF133:
 2772 01e2 6779726F 		.ascii	"gyroscopeBias\000"
 2772      73636F70 
 2772      65426961 
 2772      7300
 2773              	.LASF28:
 2774 01f0 5F5F746D 		.ascii	"__tm_sec\000"
 2774      5F736563 
 2774      00
 2775              	.LASF8:
 2776 01f9 6C6F6E67 		.ascii	"long long int\000"
 2776      206C6F6E 
 2776      6720696E 
 2776      7400
 2777              	.LASF2:
 2778 0207 7369676E 		.ascii	"signed char\000"
ARM GAS  /tmp/ccpMYBMS.s 			page 51


 2778      65642063 
 2778      68617200 
 2779              	.LASF57:
 2780 0213 5F756275 		.ascii	"_ubuf\000"
 2780      6600
 2781              	.LASF46:
 2782 0219 5F626173 		.ascii	"_base\000"
 2782      6500
 2783              	.LASF30:
 2784 021f 5F5F746D 		.ascii	"__tm_hour\000"
 2784      5F686F75 
 2784      7200
 2785              	.LASF146:
 2786 0229 76656374 		.ascii	"vectorB\000"
 2786      6F724200 
 2787              	.LASF86:
 2788 0231 5F5F7366 		.ascii	"__sf\000"
 2788      00
 2789              	.LASF37:
 2790 0236 5F6F6E5F 		.ascii	"_on_exit_args\000"
 2790      65786974 
 2790      5F617267 
 2790      7300
 2791              	.LASF52:
 2792 0244 5F636F6F 		.ascii	"_cookie\000"
 2792      6B696500 
 2793              	.LASF85:
 2794 024c 5F5F7367 		.ascii	"__sglue\000"
 2794      6C756500 
 2795              	.LASF6:
 2796 0254 6C6F6E67 		.ascii	"long int\000"
 2796      20696E74 
 2796      00
 2797              	.LASF49:
 2798 025d 5F666C61 		.ascii	"_flags\000"
 2798      677300
 2799              	.LASF41:
 2800 0264 5F69735F 		.ascii	"_is_cxa\000"
 2800      63786100 
 2801              	.LASF67:
 2802 026c 5F737464 		.ascii	"_stdin\000"
 2802      696E00
 2803              	.LASF123:
 2804 0273 5F5F6664 		.ascii	"__fdlibm_svid\000"
 2804      6C69626D 
 2804      5F737669 
 2804      6400
 2805              	.LASF138:
 2806 0281 66757369 		.ascii	"fusionBias\000"
 2806      6F6E4269 
 2806      617300
 2807              	.LASF59:
 2808 028c 5F626C6B 		.ascii	"_blksize\000"
 2808      73697A65 
 2808      00
 2809              	.LASF121:
 2810 0295 646F7562 		.ascii	"double\000"
ARM GAS  /tmp/ccpMYBMS.s 			page 52


 2810      6C6500
 2811              	.LASF81:
 2812 029c 5F637674 		.ascii	"_cvtbuf\000"
 2812      62756600 
 2813              	.LASF60:
 2814 02a4 5F6F6666 		.ascii	"_offset\000"
 2814      73657400 
 2815              	.LASF110:
 2816 02ac 5F6D6273 		.ascii	"_mbsrtowcs_state\000"
 2816      72746F77 
 2816      63735F73 
 2816      74617465 
 2816      00
 2817              	.LASF127:
 2818 02bd 61727261 		.ascii	"array\000"
 2818      7900
 2819              	.LASF108:
 2820 02c3 5F6D6272 		.ascii	"_mbrlen_state\000"
 2820      6C656E5F 
 2820      73746174 
 2820      6500
 2821              	.LASF38:
 2822 02d1 5F666E61 		.ascii	"_fnargs\000"
 2822      72677300 
 2823              	.LASF47:
 2824 02d9 5F73697A 		.ascii	"_size\000"
 2824      6500
 2825              	.LASF44:
 2826 02df 5F666E73 		.ascii	"_fns\000"
 2826      00
 2827              	.LASF131:
 2828 02e4 66696C74 		.ascii	"filterCoefficient\000"
 2828      6572436F 
 2828      65666669 
 2828      6369656E 
 2828      7400
 2829              	.LASF24:
 2830 02f6 5F736967 		.ascii	"_sign\000"
 2830      6E00
 2831              	.LASF19:
 2832 02fc 5F666C6F 		.ascii	"_flock_t\000"
 2832      636B5F74 
 2832      00
 2833              	.LASF69:
 2834 0305 5F737464 		.ascii	"_stderr\000"
 2834      65727200 
 2835              	.LASF26:
 2836 030d 5F426967 		.ascii	"_Bigint\000"
 2836      696E7400 
 2837              	.LASF99:
 2838 0315 5F67616D 		.ascii	"_gamma_signgam\000"
 2838      6D615F73 
 2838      69676E67 
 2838      616D00
 2839              	.LASF144:
 2840 0324 46757369 		.ascii	"FusionVectorSubtract\000"
 2840      6F6E5665 
ARM GAS  /tmp/ccpMYBMS.s 			page 53


 2840      63746F72 
 2840      53756274 
 2840      72616374 
 2841              	.LASF53:
 2842 0339 5F726561 		.ascii	"_read\000"
 2842      6400
 2843              	.LASF77:
 2844 033f 5F726573 		.ascii	"_result_k\000"
 2844      756C745F 
 2844      6B00
 2845              	.LASF27:
 2846 0349 5F5F746D 		.ascii	"__tm\000"
 2846      00
 2847              	.LASF1:
 2848 034e 756E7369 		.ascii	"unsigned int\000"
 2848      676E6564 
 2848      20696E74 
 2848      00
 2849              	.LASF15:
 2850 035b 5F5F7763 		.ascii	"__wchb\000"
 2850      686200
 2851              	.LASF132:
 2852 0362 73746174 		.ascii	"stationaryTimer\000"
 2852      696F6E61 
 2852      72795469 
 2852      6D657200 
 2853              	.LASF68:
 2854 0372 5F737464 		.ascii	"_stdout\000"
 2854      6F757400 
 2855              	.LASF80:
 2856 037a 5F637674 		.ascii	"_cvtlen\000"
 2856      6C656E00 
 2857              	.LASF7:
 2858 0382 6C6F6E67 		.ascii	"long unsigned int\000"
 2858      20756E73 
 2858      69676E65 
 2858      6420696E 
 2858      7400
 2859              	.LASF50:
 2860 0394 5F66696C 		.ascii	"_file\000"
 2860      6500
 2861              	.LASF139:
 2862 039a 6779726F 		.ascii	"gyroscope\000"
 2862      73636F70 
 2862      6500
 2863              	.LASF89:
 2864 03a4 5F6E696F 		.ascii	"_niobs\000"
 2864      627300
 2865              	.LASF153:
 2866 03ab 46757369 		.ascii	"FusionVectorAdd\000"
 2866      6F6E5665 
 2866      63746F72 
 2866      41646400 
 2867              	.LASF5:
 2868 03bb 73686F72 		.ascii	"short unsigned int\000"
 2868      7420756E 
 2868      7369676E 
ARM GAS  /tmp/ccpMYBMS.s 			page 54


 2868      65642069 
 2868      6E7400
 2869              	.LASF83:
 2870 03ce 5F617465 		.ascii	"_atexit0\000"
 2870      78697430 
 2870      00
 2871              	.LASF106:
 2872 03d7 5F736967 		.ascii	"_signal_buf\000"
 2872      6E616C5F 
 2872      62756600 
 2873              	.LASF97:
 2874 03e3 5F617363 		.ascii	"_asctime_buf\000"
 2874      74696D65 
 2874      5F627566 
 2874      00
 2875              	.LASF76:
 2876 03f0 5F726573 		.ascii	"_result\000"
 2876      756C7400 
 2877              	.LASF14:
 2878 03f8 5F5F7763 		.ascii	"__wch\000"
 2878      6800
 2879              	.LASF10:
 2880 03fe 5F4C4F43 		.ascii	"_LOCK_T\000"
 2880      4B5F5400 
 2881              	.LASF128:
 2882 0406 61786973 		.ascii	"axis\000"
 2882      00
 2883              	.LASF13:
 2884 040b 77696E74 		.ascii	"wint_t\000"
 2884      5F7400
 2885              	.LASF62:
 2886 0412 5F6C6F63 		.ascii	"_lock\000"
 2886      6B00
 2887              	.LASF64:
 2888 0418 5F666C61 		.ascii	"_flags2\000"
 2888      67733200 
 2889              	.LASF143:
 2890 0420 46757369 		.ascii	"FusionVectorMultiplyScalar\000"
 2890      6F6E5665 
 2890      63746F72 
 2890      4D756C74 
 2890      69706C79 
 2891              	.LASF54:
 2892 043b 5F777269 		.ascii	"_write\000"
 2892      746500
 2893              	.LASF33:
 2894 0442 5F5F746D 		.ascii	"__tm_year\000"
 2894      5F796561 
 2894      7200
 2895              	.LASF136:
 2896 044c 46757369 		.ascii	"FusionBiasIsActive\000"
 2896      6F6E4269 
 2896      61734973 
 2896      41637469 
 2896      766500
 2897              	.LASF149:
 2898 045f 696D752F 		.ascii	"imu/Fusion/FusionBias.c\000"
ARM GAS  /tmp/ccpMYBMS.s 			page 55


 2898      46757369 
 2898      6F6E2F46 
 2898      7573696F 
 2898      6E426961 
 2899              	.LASF114:
 2900 0477 5F6E6578 		.ascii	"_nextf\000"
 2900      746600
 2901              	.LASF152:
 2902 047e 46757369 		.ascii	"FusionBiasInitialise\000"
 2902      6F6E4269 
 2902      6173496E 
 2902      69746961 
 2902      6C697365 
 2903              	.LASF32:
 2904 0493 5F5F746D 		.ascii	"__tm_mon\000"
 2904      5F6D6F6E 
 2904      00
 2905              	.LASF42:
 2906 049c 5F617465 		.ascii	"_atexit\000"
 2906      78697400 
 2907              	.LASF74:
 2908 04a4 5F5F7364 		.ascii	"__sdidinit\000"
 2908      6964696E 
 2908      697400
 2909              	.LASF11:
 2910 04af 5F6F6666 		.ascii	"_off_t\000"
 2910      5F7400
 2911              	.LASF0:
 2912 04b6 666C6F61 		.ascii	"float\000"
 2912      7400
 2913              	.LASF79:
 2914 04bc 5F667265 		.ascii	"_freelist\000"
 2914      656C6973 
 2914      7400
 2915              	.LASF104:
 2916 04c6 5F776374 		.ascii	"_wctomb_state\000"
 2916      6F6D625F 
 2916      73746174 
 2916      6500
 2917              	.LASF130:
 2918 04d4 74687265 		.ascii	"threshold\000"
 2918      73686F6C 
 2918      6400
 2919              	.LASF135:
 2920 04de 5F426F6F 		.ascii	"_Bool\000"
 2920      6C00
 2921              	.LASF3:
 2922 04e4 756E7369 		.ascii	"unsigned char\000"
 2922      676E6564 
 2922      20636861 
 2922      7200
 2923              	.LASF82:
 2924 04f2 5F6E6577 		.ascii	"_new\000"
 2924      00
 2925              	.LASF113:
 2926 04f7 5F685F65 		.ascii	"_h_errno\000"
 2926      72726E6F 
ARM GAS  /tmp/ccpMYBMS.s 			page 56


 2926      00
 2927              	.LASF4:
 2928 0500 73686F72 		.ascii	"short int\000"
 2928      7420696E 
 2928      7400
 2929              	.LASF35:
 2930 050a 5F5F746D 		.ascii	"__tm_yday\000"
 2930      5F796461 
 2930      7900
 2931              	.LASF45:
 2932 0514 5F5F7362 		.ascii	"__sbuf\000"
 2932      756600
 2933              	.LASF90:
 2934 051b 5F696F62 		.ascii	"_iobs\000"
 2934      7300
 2935              	.LASF87:
 2936 0521 5F5F4649 		.ascii	"__FILE\000"
 2936      4C4500
 2937              	.LASF18:
 2938 0528 5F6D6273 		.ascii	"_mbstate_t\000"
 2938      74617465 
 2938      5F7400
 2939              	.LASF48:
 2940 0533 5F5F7346 		.ascii	"__sFILE\000"
 2940      494C4500 
 2941              	.LASF63:
 2942 053b 5F6D6273 		.ascii	"_mbstate\000"
 2942      74617465 
 2942      00
 2943              	.LASF100:
 2944 0544 5F72616E 		.ascii	"_rand_next\000"
 2944      645F6E65 
 2944      787400
 2945              	.LASF134:
 2946 054f 46757369 		.ascii	"FusionBias\000"
 2946      6F6E4269 
 2946      617300
 2947              	.LASF102:
 2948 055a 5F6D626C 		.ascii	"_mblen_state\000"
 2948      656E5F73 
 2948      74617465 
 2948      00
 2949              	.LASF70:
 2950 0567 5F696E63 		.ascii	"_inc\000"
 2950      00
 2951              	.LASF43:
 2952 056c 5F696E64 		.ascii	"_ind\000"
 2952      00
 2953              	.LASF73:
 2954 0571 5F6C6F63 		.ascii	"_locale\000"
 2954      616C6500 
 2955              	.LASF75:
 2956 0579 5F5F636C 		.ascii	"__cleanup\000"
 2956      65616E75 
 2956      7000
 2957              	.LASF72:
 2958 0583 5F756E73 		.ascii	"_unspecified_locale_info\000"
ARM GAS  /tmp/ccpMYBMS.s 			page 57


 2958      70656369 
 2958      66696564 
 2958      5F6C6F63 
 2958      616C655F 
 2959              	.LASF23:
 2960 059c 5F6D6178 		.ascii	"_maxwds\000"
 2960      77647300 
 2961              	.LASF65:
 2962 05a4 5F726565 		.ascii	"_reent\000"
 2962      6E7400
 2963              	.LASF137:
 2964 05ab 46757369 		.ascii	"FusionBiasUpdate\000"
 2964      6F6E4269 
 2964      61735570 
 2964      64617465 
 2964      00
 2965              	.LASF92:
 2966 05bc 5F736565 		.ascii	"_seed\000"
 2966      6400
 2967              	.LASF16:
 2968 05c2 5F5F636F 		.ascii	"__count\000"
 2968      756E7400 
 2969              	.LASF117:
 2970 05ca 5F5F6C6F 		.ascii	"__lock\000"
 2970      636B00
 2971              	.LASF17:
 2972 05d1 5F5F7661 		.ascii	"__value\000"
 2972      6C756500 
 2973              	.LASF55:
 2974 05d9 5F736565 		.ascii	"_seek\000"
 2974      6B00
 2975              	.LASF119:
 2976 05df 5F696D70 		.ascii	"_impure_ptr\000"
 2976      7572655F 
 2976      70747200 
 2977              	.LASF12:
 2978 05eb 5F66706F 		.ascii	"_fpos_t\000"
 2978      735F7400 
 2979              	.LASF66:
 2980 05f3 5F657272 		.ascii	"_errno\000"
 2980      6E6F00
 2981              	.LASF20:
 2982 05fa 63686172 		.ascii	"char\000"
 2982      00
 2983              	.LASF29:
 2984 05ff 5F5F746D 		.ascii	"__tm_min\000"
 2984      5F6D696E 
 2984      00
 2985              	.LASF93:
 2986 0608 5F6D756C 		.ascii	"_mult\000"
 2986      7400
 2987              	.LASF22:
 2988 060e 5F6E6578 		.ascii	"_next\000"
 2988      7400
 2989              	.LASF96:
 2990 0614 5F737472 		.ascii	"_strtok_last\000"
 2990      746F6B5F 
ARM GAS  /tmp/ccpMYBMS.s 			page 58


 2990      6C617374 
 2990      00
 2991              	.LASF129:
 2992 0621 46757369 		.ascii	"FusionVector3\000"
 2992      6F6E5665 
 2992      63746F72 
 2992      3300
 2993              	.LASF40:
 2994 062f 5F666E74 		.ascii	"_fntypes\000"
 2994      79706573 
 2994      00
 2995              	.LASF94:
 2996 0638 5F616464 		.ascii	"_add\000"
 2996      00
 2997              	.LASF21:
 2998 063d 5F5F554C 		.ascii	"__ULong\000"
 2998      6F6E6700 
 2999              	.LASF107:
 3000 0645 5F676574 		.ascii	"_getdate_err\000"
 3000      64617465 
 3000      5F657272 
 3000      00
 3001              	.LASF151:
 3002 0652 5F5F6664 		.ascii	"__fdlibm_version\000"
 3002      6C69626D 
 3002      5F766572 
 3002      73696F6E 
 3002      00
 3003              	.LASF120:
 3004 0663 5F676C6F 		.ascii	"_global_impure_ptr\000"
 3004      62616C5F 
 3004      696D7075 
 3004      72655F70 
 3004      747200
 3005              	.LASF122:
 3006 0676 5F5F6664 		.ascii	"__fdlibm_ieee\000"
 3006      6C69626D 
 3006      5F696565 
 3006      6500
 3007              	.LASF95:
 3008 0684 5F756E75 		.ascii	"_unused_rand\000"
 3008      7365645F 
 3008      72616E64 
 3008      00
 3009              	.LASF25:
 3010 0691 5F776473 		.ascii	"_wds\000"
 3010      00
 3011              	.LASF34:
 3012 0696 5F5F746D 		.ascii	"__tm_wday\000"
 3012      5F776461 
 3012      7900
 3013              	.LASF88:
 3014 06a0 5F676C75 		.ascii	"_glue\000"
 3014      6500
 3015              	.LASF126:
 3016 06a6 5F5F6664 		.ascii	"__fdlib_version\000"
 3016      6C69625F 
ARM GAS  /tmp/ccpMYBMS.s 			page 59


 3016      76657273 
 3016      696F6E00 
 3017              	.LASF115:
 3018 06b6 5F6E6D61 		.ascii	"_nmalloc\000"
 3018      6C6C6F63 
 3018      00
 3019              	.LASF105:
 3020 06bf 5F6C3634 		.ascii	"_l64a_buf\000"
 3020      615F6275 
 3020      6600
 3021              	.LASF84:
 3022 06c9 5F736967 		.ascii	"_sig_func\000"
 3022      5F66756E 
 3022      6300
 3023              	.LASF58:
 3024 06d3 5F6E6275 		.ascii	"_nbuf\000"
 3024      6600
 3025              	.LASF116:
 3026 06d9 5F756E75 		.ascii	"_unused\000"
 3026      73656400 
 3027              	.LASF36:
 3028 06e1 5F5F746D 		.ascii	"__tm_isdst\000"
 3028      5F697364 
 3028      737400
 3029              	.LASF98:
 3030 06ec 5F6C6F63 		.ascii	"_localtime_buf\000"
 3030      616C7469 
 3030      6D655F62 
 3030      756600
 3031              	.LASF56:
 3032 06fb 5F636C6F 		.ascii	"_close\000"
 3032      736500
 3033              	.LASF101:
 3034 0702 5F723438 		.ascii	"_r48\000"
 3034      00
 3035              	.LASF103:
 3036 0707 5F6D6274 		.ascii	"_mbtowc_state\000"
 3036      6F77635F 
 3036      73746174 
 3036      6500
 3037              	.LASF78:
 3038 0715 5F703573 		.ascii	"_p5s\000"
 3038      00
 3039              	.LASF145:
 3040 071a 76656374 		.ascii	"vectorA\000"
 3040      6F724100 
 3041              	.LASF147:
 3042 0722 72657375 		.ascii	"result\000"
 3042      6C7400
 3043              	.LASF31:
 3044 0729 5F5F746D 		.ascii	"__tm_mday\000"
 3044      5F6D6461 
 3044      7900
 3045              		.ident	"GCC: (GNU Tools for Arm Embedded Processors 7-2018-q3-update) 7.3.1 20180622 (release) [AR
ARM GAS  /tmp/ccpMYBMS.s 			page 60


DEFINED SYMBOLS
                            *ABS*:0000000000000000 FusionBias.c
     /tmp/ccpMYBMS.s:18     .text.FusionBiasInitialise:0000000000000000 $t
     /tmp/ccpMYBMS.s:26     .text.FusionBiasInitialise:0000000000000000 FusionBiasInitialise
     /tmp/ccpMYBMS.s:57     .text.FusionBiasInitialise:000000000000001c $d
     /tmp/ccpMYBMS.s:62     .text.FusionBiasUpdate:0000000000000000 $t
     /tmp/ccpMYBMS.s:70     .text.FusionBiasUpdate:0000000000000000 FusionBiasUpdate
     /tmp/ccpMYBMS.s:199    .text.FusionBiasIsActive:0000000000000000 $t
     /tmp/ccpMYBMS.s:207    .text.FusionBiasIsActive:0000000000000000 FusionBiasIsActive

NO UNDEFINED SYMBOLS
