ARM GAS  /tmp/ccOWIkkk.s 			page 1


   1              		.cpu cortex-m4
   2              		.eabi_attribute 27, 1
   3              		.eabi_attribute 28, 1
   4              		.eabi_attribute 20, 1
   5              		.eabi_attribute 21, 1
   6              		.eabi_attribute 23, 3
   7              		.eabi_attribute 24, 1
   8              		.eabi_attribute 25, 1
   9              		.eabi_attribute 26, 1
  10              		.eabi_attribute 30, 2
  11              		.eabi_attribute 34, 1
  12              		.eabi_attribute 18, 4
  13              		.file	"gpdrive.c"
  14              		.text
  15              	.Ltext0:
  16              		.cfi_sections	.debug_frame
  17              		.section	.text.set_modulation,"ax",%progbits
  18              		.align	1
  19              		.p2align 4,,15
  20              		.syntax unified
  21              		.thumb
  22              		.thumb_func
  23              		.fpu fpv4-sp-d16
  24              		.type	set_modulation, %function
  25              	set_modulation:
  26              	.LFB274:
  27              		.file 1 "gpdrive.c"
  28              		.loc 1 392 0
  29              		.cfi_startproc
  30              		@ args = 0, pretend = 0, frame = 8
  31              		@ frame_needed = 0, uses_anonymous_args = 0
  32              	.LVL0:
  33 0000 30B5     		push	{r4, r5, lr}
  34              		.cfi_def_cfa_offset 12
  35              		.cfi_offset 4, -12
  36              		.cfi_offset 5, -8
  37              		.cfi_offset 14, -4
  38              		.loc 1 393 0
  39 0002 544C     		ldr	r4, .L16
  40 0004 2368     		ldr	r3, [r4]
  41              		.loc 1 392 0
  42 0006 83B0     		sub	sp, sp, #12
  43              		.cfi_def_cfa_offset 24
  44              		.loc 1 393 0
  45 0008 D3ED157A 		vldr.32	s15, [r3, #84]
  46              		.loc 1 392 0
  47 000c 02A8     		add	r0, sp, #8
  48 000e 20ED010A 		vstmdb.32	r0!, {s0}
  49              		.loc 1 393 0
  50 0012 B0EE670A 		vmov.f32	s0, s15
  51              	.LVL1:
  52 0016 FFF7FEFF 		bl	utils_truncate_number_abs
  53              	.LVL2:
  54              		.loc 1 394 0
  55 001a 4F4A     		ldr	r2, .L16+4
  56 001c 0199     		ldr	r1, [sp, #4]	@ float
  57              		.loc 1 396 0
ARM GAS  /tmp/ccOWIkkk.s 			page 2


  58 001e 4F4B     		ldr	r3, .L16+8
  59              		.loc 1 394 0
  60 0020 1160     		str	r1, [r2]	@ float
  61              		.loc 1 396 0
  62 0022 1B78     		ldrb	r3, [r3]	@ zero_extendqisi2
  63 0024 0BB9     		cbnz	r3, .L14
  64              	.L1:
  65              		.loc 1 445 0
  66 0026 03B0     		add	sp, sp, #12
  67              		.cfi_remember_state
  68              		.cfi_def_cfa_offset 12
  69              		@ sp needed
  70 0028 30BD     		pop	{r4, r5, pc}
  71              	.L14:
  72              		.cfi_restore_state
  73              		.loc 1 396 0 discriminator 1
  74 002a FFF7FEFF 		bl	mc_interface_get_fault
  75              	.LVL3:
  76 002e 0546     		mov	r5, r0
  77 0030 0028     		cmp	r0, #0
  78 0032 F8D1     		bne	.L1
  79              		.loc 1 400 0
  80 0034 2368     		ldr	r3, [r4]
  81 0036 9DED017A 		vldr.32	s14, [sp, #4]
  82 003a 93F88430 		ldrb	r3, [r3, #132]	@ zero_extendqisi2
  83              	.LBB5:
  84              		.loc 1 401 0
  85 003e 484C     		ldr	r4, .L16+12
  86              	.LBE5:
  87              		.loc 1 400 0
  88 0040 022B     		cmp	r3, #2
  89 0042 58D0     		beq	.L15
  90              	.LBB6:
  91              		.loc 1 415 0
  92 0044 D4ED0B7A 		vldr.32	s15, [r4, #44]	@ int
  93 0048 F8EE677A 		vcvt.f32.u32	s15, s15
  94 004c F0EEC76A 		vabs.f32	s13, s14
  95 0050 67EEA67A 		vmul.f32	s15, s15, s13
  96              		.loc 1 419 0
  97 0054 B5EEC07A 		vcmpe.f32	s14, #0
  98              		.loc 1 415 0
  99 0058 FCEEE77A 		vcvt.u32.f32	s15, s15
 100              	.LVL4:
 101              		.loc 1 419 0
 102 005c F1EE10FA 		vmrs	APSR_nzcv, FPSCR
 103              		.loc 1 416 0
 104 0060 C4ED0D7A 		vstr.32	s15, [r4, #52]	@ int
 105              		.loc 1 421 0
 106 0064 4FF06002 		mov	r2, #96
 107              		.loc 1 417 0
 108 0068 C4ED0F7A 		vstr.32	s15, [r4, #60]	@ int
 109              		.loc 1 419 0
 110 006c 25DB     		blt	.L10
 111              		.loc 1 421 0
 112 006e 0146     		mov	r1, r0
 113 0070 2046     		mov	r0, r4
 114 0072 FFF7FEFF 		bl	TIM_SelectOCxM
ARM GAS  /tmp/ccOWIkkk.s 			page 3


 115              	.LVL5:
 116              		.loc 1 422 0
 117 0076 0122     		movs	r2, #1
 118 0078 2946     		mov	r1, r5
 119 007a 2046     		mov	r0, r4
 120 007c FFF7FEFF 		bl	TIM_CCxCmd
 121              	.LVL6:
 122              		.loc 1 423 0
 123 0080 2946     		mov	r1, r5
 124 0082 0422     		movs	r2, #4
 125 0084 2046     		mov	r0, r4
 126 0086 FFF7FEFF 		bl	TIM_CCxNCmd
 127              	.LVL7:
 128              		.loc 1 426 0
 129 008a 2022     		movs	r2, #32
 130 008c 0821     		movs	r1, #8
 131 008e 2046     		mov	r0, r4
 132 0090 FFF7FEFF 		bl	TIM_SelectOCxM
 133              	.LVL8:
 134              		.loc 1 427 0
 135 0094 0122     		movs	r2, #1
 136 0096 0821     		movs	r1, #8
 137 0098 2046     		mov	r0, r4
 138              	.L12:
 139 009a FFF7FEFF 		bl	TIM_CCxCmd
 140              	.LVL9:
 141              		.loc 1 428 0
 142 009e 2046     		mov	r0, r4
 143 00a0 0422     		movs	r2, #4
 144 00a2 0821     		movs	r1, #8
 145 00a4 FFF7FEFF 		bl	TIM_CCxNCmd
 146              	.LVL10:
 147              	.L6:
 148              	.LBE6:
 149              		.loc 1 442 0
 150 00a8 2021     		movs	r1, #32
 151 00aa 2D48     		ldr	r0, .L16+12
 152 00ac FFF7FEFF 		bl	TIM_GenerateEvent
 153              	.LVL11:
 154              		.loc 1 444 0
 155 00b0 2C4B     		ldr	r3, .L16+16
 156 00b2 0122     		movs	r2, #1
 157 00b4 1A70     		strb	r2, [r3]
 158              		.loc 1 445 0
 159 00b6 03B0     		add	sp, sp, #12
 160              		.cfi_remember_state
 161              		.cfi_def_cfa_offset 12
 162              		@ sp needed
 163 00b8 30BD     		pop	{r4, r5, pc}
 164              	.LVL12:
 165              	.L10:
 166              		.cfi_restore_state
 167              	.LBB7:
 168              		.loc 1 431 0
 169 00ba 2046     		mov	r0, r4
 170 00bc 0821     		movs	r1, #8
 171 00be FFF7FEFF 		bl	TIM_SelectOCxM
ARM GAS  /tmp/ccOWIkkk.s 			page 4


 172              	.LVL13:
 173              		.loc 1 432 0
 174 00c2 2046     		mov	r0, r4
 175 00c4 0122     		movs	r2, #1
 176 00c6 0821     		movs	r1, #8
 177 00c8 FFF7FEFF 		bl	TIM_CCxCmd
 178              	.LVL14:
 179              		.loc 1 433 0
 180 00cc 2046     		mov	r0, r4
 181 00ce 0422     		movs	r2, #4
 182 00d0 0821     		movs	r1, #8
 183 00d2 FFF7FEFF 		bl	TIM_CCxNCmd
 184              	.LVL15:
 185              		.loc 1 436 0
 186 00d6 2946     		mov	r1, r5
 187 00d8 2046     		mov	r0, r4
 188 00da 2022     		movs	r2, #32
 189 00dc FFF7FEFF 		bl	TIM_SelectOCxM
 190              	.LVL16:
 191              		.loc 1 437 0
 192 00e0 2946     		mov	r1, r5
 193 00e2 2046     		mov	r0, r4
 194 00e4 0122     		movs	r2, #1
 195 00e6 FFF7FEFF 		bl	TIM_CCxCmd
 196              	.LVL17:
 197              		.loc 1 438 0
 198 00ea 2946     		mov	r1, r5
 199 00ec 2046     		mov	r0, r4
 200 00ee 0422     		movs	r2, #4
 201 00f0 FFF7FEFF 		bl	TIM_CCxNCmd
 202              	.LVL18:
 203 00f4 D8E7     		b	.L6
 204              	.L15:
 205              	.LBE7:
 206              	.LBB8:
 207              		.loc 1 401 0
 208 00f6 D4ED0B6A 		vldr.32	s13, [r4, #44]	@ int
 209 00fa D4ED0B7A 		vldr.32	s15, [r4, #44]	@ int
 210 00fe F8EE666A 		vcvt.f32.u32	s13, s13
 211 0102 F8EE677A 		vcvt.f32.u32	s15, s15
 212 0106 B6EE006A 		vmov.f32	s12, #5.0e-1
 213 010a 66EE866A 		vmul.f32	s13, s13, s12
 214 010e 67EE867A 		vmul.f32	s15, s15, s12
 215              		.loc 1 406 0
 216 0112 2046     		mov	r0, r4
 217              		.loc 1 401 0
 218 0114 E6EE877A 		vfma.f32	s15, s13, s14
 219              		.loc 1 406 0
 220 0118 6022     		movs	r2, #96
 221 011a 2946     		mov	r1, r5
 222              		.loc 1 401 0
 223 011c FCEEE77A 		vcvt.u32.f32	s15, s15
 224              	.LVL19:
 225              		.loc 1 402 0
 226 0120 C4ED0D7A 		vstr.32	s15, [r4, #52]	@ int
 227              		.loc 1 403 0
 228 0124 C4ED0F7A 		vstr.32	s15, [r4, #60]	@ int
ARM GAS  /tmp/ccOWIkkk.s 			page 5


 229              		.loc 1 406 0
 230 0128 FFF7FEFF 		bl	TIM_SelectOCxM
 231              	.LVL20:
 232              		.loc 1 407 0
 233 012c 2046     		mov	r0, r4
 234 012e 0122     		movs	r2, #1
 235 0130 2946     		mov	r1, r5
 236 0132 FFF7FEFF 		bl	TIM_CCxCmd
 237              	.LVL21:
 238              		.loc 1 408 0
 239 0136 2946     		mov	r1, r5
 240 0138 2046     		mov	r0, r4
 241 013a 0422     		movs	r2, #4
 242 013c FFF7FEFF 		bl	TIM_CCxNCmd
 243              	.LVL22:
 244              		.loc 1 411 0
 245 0140 2046     		mov	r0, r4
 246 0142 7022     		movs	r2, #112
 247 0144 0821     		movs	r1, #8
 248 0146 FFF7FEFF 		bl	TIM_SelectOCxM
 249              	.LVL23:
 250              		.loc 1 412 0
 251 014a 2046     		mov	r0, r4
 252 014c 0122     		movs	r2, #1
 253 014e 0821     		movs	r1, #8
 254 0150 A3E7     		b	.L12
 255              	.L17:
 256 0152 00BF     		.align	2
 257              	.L16:
 258 0154 00000000 		.word	.LANCHOR0
 259 0158 00000000 		.word	.LANCHOR1
 260 015c 00000000 		.word	.LANCHOR2
 261 0160 00000140 		.word	1073807360
 262 0164 00000000 		.word	.LANCHOR3
 263              	.LBE8:
 264              		.cfi_endproc
 265              	.LFE274:
 266              		.size	set_modulation, .-set_modulation
 267              		.section	.text.stop_pwm_hw,"ax",%progbits
 268              		.align	1
 269              		.p2align 4,,15
 270              		.syntax unified
 271              		.thumb
 272              		.thumb_func
 273              		.fpu fpv4-sp-d16
 274              		.type	stop_pwm_hw, %function
 275              	stop_pwm_hw:
 276              	.LFB275:
 277              		.loc 1 447 0
 278              		.cfi_startproc
 279              		@ args = 0, pretend = 0, frame = 0
 280              		@ frame_needed = 0, uses_anonymous_args = 0
 281              		.loc 1 449 0
 282 0000 174B     		ldr	r3, .L20
 283              		.loc 1 448 0
 284 0002 1849     		ldr	r1, .L20+4
 285              		.loc 1 447 0
ARM GAS  /tmp/ccOWIkkk.s 			page 6


 286 0004 70B5     		push	{r4, r5, r6, lr}
 287              		.cfi_def_cfa_offset 16
 288              		.cfi_offset 4, -16
 289              		.cfi_offset 5, -12
 290              		.cfi_offset 6, -8
 291              		.cfi_offset 14, -4
 292              		.loc 1 449 0
 293 0006 42F20402 		movw	r2, #8196
 294              		.loc 1 456 0
 295 000a 174D     		ldr	r5, .L20+8
 296              		.loc 1 448 0
 297 000c 0024     		movs	r4, #0
 298              		.loc 1 450 0
 299 000e 03F50056 		add	r6, r3, #8192
 300              		.loc 1 448 0
 301 0012 0C70     		strb	r4, [r1]
 302              		.loc 1 456 0
 303 0014 2846     		mov	r0, r5
 304              		.loc 1 449 0
 305 0016 9C50     		str	r4, [r3, r2]
 306              		.loc 1 456 0
 307 0018 2146     		mov	r1, r4
 308 001a 4022     		movs	r2, #64
 309              		.loc 1 450 0
 310 001c 3460     		str	r4, [r6]
 311              		.loc 1 456 0
 312 001e FFF7FEFF 		bl	TIM_SelectOCxM
 313              	.LVL24:
 314              		.loc 1 457 0
 315 0022 2146     		mov	r1, r4
 316 0024 2846     		mov	r0, r5
 317 0026 0122     		movs	r2, #1
 318 0028 FFF7FEFF 		bl	TIM_CCxCmd
 319              	.LVL25:
 320              		.loc 1 458 0
 321 002c 2246     		mov	r2, r4
 322 002e 2146     		mov	r1, r4
 323 0030 2846     		mov	r0, r5
 324 0032 FFF7FEFF 		bl	TIM_CCxNCmd
 325              	.LVL26:
 326              		.loc 1 460 0
 327 0036 2846     		mov	r0, r5
 328 0038 4022     		movs	r2, #64
 329 003a 0821     		movs	r1, #8
 330 003c FFF7FEFF 		bl	TIM_SelectOCxM
 331              	.LVL27:
 332              		.loc 1 461 0
 333 0040 2846     		mov	r0, r5
 334 0042 0122     		movs	r2, #1
 335 0044 0821     		movs	r1, #8
 336 0046 FFF7FEFF 		bl	TIM_CCxCmd
 337              	.LVL28:
 338              		.loc 1 462 0
 339 004a 2846     		mov	r0, r5
 340 004c 2246     		mov	r2, r4
 341 004e 0821     		movs	r1, #8
 342 0050 FFF7FEFF 		bl	TIM_CCxNCmd
ARM GAS  /tmp/ccOWIkkk.s 			page 7


 343              	.LVL29:
 344              		.loc 1 464 0
 345 0054 2846     		mov	r0, r5
 346 0056 2021     		movs	r1, #32
 347              		.loc 1 465 0
 348 0058 BDE87040 		pop	{r4, r5, r6, lr}
 349              		.cfi_restore 14
 350              		.cfi_restore 6
 351              		.cfi_restore 5
 352              		.cfi_restore 4
 353              		.cfi_def_cfa_offset 0
 354              		.loc 1 464 0
 355 005c FFF7FEBF 		b	TIM_GenerateEvent
 356              	.LVL30:
 357              	.L21:
 358              		.align	2
 359              	.L20:
 360 0060 00000000 		.word	m_sample_buffer
 361 0064 00000000 		.word	.LANCHOR3
 362 0068 00000140 		.word	1073807360
 363              		.cfi_endproc
 364              	.LFE275:
 365              		.size	stop_pwm_hw, .-stop_pwm_hw
 366              		.section	.text.gpdrive_init,"ax",%progbits
 367              		.align	1
 368              		.p2align 4,,15
 369              		.global	gpdrive_init
 370              		.syntax unified
 371              		.thumb
 372              		.thumb_func
 373              		.fpu fpv4-sp-d16
 374              		.type	gpdrive_init, %function
 375              	gpdrive_init:
 376              	.LFB256:
 377              		.loc 1 88 0
 378              		.cfi_startproc
 379              		@ args = 0, pretend = 0, frame = 152
 380              		@ frame_needed = 0, uses_anonymous_args = 0
 381              	.LVL31:
 382 0000 2DE9F04F 		push	{r4, r5, r6, r7, r8, r9, r10, fp, lr}
 383              		.cfi_def_cfa_offset 36
 384              		.cfi_offset 4, -36
 385              		.cfi_offset 5, -32
 386              		.cfi_offset 6, -28
 387              		.cfi_offset 7, -24
 388              		.cfi_offset 8, -20
 389              		.cfi_offset 9, -16
 390              		.cfi_offset 10, -12
 391              		.cfi_offset 11, -8
 392              		.cfi_offset 14, -4
 393 0004 2DED028B 		vpush.64	{d8}
 394              		.cfi_def_cfa_offset 44
 395              		.cfi_offset 80, -44
 396              		.cfi_offset 81, -40
 397              		.loc 1 94 0
 398 0008 C54D     		ldr	r5, .L30
 399              		.loc 1 98 0
ARM GAS  /tmp/ccOWIkkk.s 			page 8


 400 000a DFF8A0B3 		ldr	fp, .L30+140
 401              		.loc 1 100 0
 402 000e DFF8A0A3 		ldr	r10, .L30+144
 403              		.loc 1 105 0
 404 0012 9FEDC48A 		vldr.32	s16, .L30+4
 405              		.loc 1 104 0
 406 0016 DFF89C93 		ldr	r9, .L30+148
 407              		.loc 1 113 0
 408 001a DFF89C83 		ldr	r8, .L30+152
 409              		.loc 1 115 0
 410 001e C24E     		ldr	r6, .L30+8
 411              		.loc 1 88 0
 412 0020 A9B0     		sub	sp, sp, #164
 413              		.cfi_def_cfa_offset 208
 414              		.loc 1 88 0
 415 0022 0746     		mov	r7, r0
 416              		.loc 1 89 0
 417 0024 FFF7FEFF 		bl	utils_sys_lock_cnt
 418              	.LVL32:
 419              		.loc 1 91 0
 420 0028 C04B     		ldr	r3, .L30+12
 421 002a 0024     		movs	r4, #0
 422              		.loc 1 94 0
 423 002c 2846     		mov	r0, r5
 424              		.loc 1 91 0
 425 002e 1C70     		strb	r4, [r3]
 426              		.loc 1 94 0
 427 0030 FFF7FEFF 		bl	TIM_DeInit
 428              	.LVL33:
 429              		.loc 1 98 0
 430 0034 5846     		mov	r0, fp
 431 0036 0122     		movs	r2, #1
 432 0038 4FF40071 		mov	r1, #512
 433              		.loc 1 95 0
 434 003c 6C62     		str	r4, [r5, #36]
 435              		.loc 1 98 0
 436 003e FFF7FEFF 		bl	_pal_lld_setgroupmode
 437              	.LVL34:
 438              		.loc 1 99 0
 439 0042 4FF40072 		mov	r2, #512
 440 0046 ABF81A20 		strh	r2, [fp, #26]	@ movhi
 441              		.loc 1 100 0
 442 004a 5046     		mov	r0, r10
 443 004c 0122     		movs	r2, #1
 444 004e 4FF48041 		mov	r1, #16384
 445 0052 FFF7FEFF 		bl	_pal_lld_setgroupmode
 446              	.LVL35:
 447              		.loc 1 103 0
 448 0056 B64B     		ldr	r3, .L30+16
 449              		.loc 1 105 0
 450 0058 B64A     		ldr	r2, .L30+20
 451              		.loc 1 106 0
 452 005a B748     		ldr	r0, .L30+24
 453              		.loc 1 104 0
 454 005c B749     		ldr	r1, .L30+28
 455              		.loc 1 121 0
 456 005e DFF85CB3 		ldr	fp, .L30+156
ARM GAS  /tmp/ccOWIkkk.s 			page 9


 457              		.loc 1 101 0
 458 0062 4FF4804C 		mov	ip, #16384	@ movhi
 459 0066 AAF81AC0 		strh	ip, [r10, #26]	@ movhi
 460              		.loc 1 107 0
 461 006a DFF854C3 		ldr	ip, .L30+160
 462              		.loc 1 103 0
 463 006e 1F60     		str	r7, [r3]
 464              		.loc 1 108 0
 465 0070 B34B     		ldr	r3, .L30+32
 466              		.loc 1 104 0
 467 0072 C9F80010 		str	r1, [r9]	@ float
 468              		.loc 1 105 0
 469 0076 82ED008A 		vstr.32	s16, [r2]
 470              		.loc 1 109 0
 471 007a 2146     		mov	r1, r4
 472              		.loc 1 106 0
 473 007c 80ED008A 		vstr.32	s16, [r0]
 474              		.loc 1 109 0
 475 0080 42F20802 		movw	r2, #8200
 476 0084 AF48     		ldr	r0, .L30+36
 477              		.loc 1 107 0
 478 0086 8CED008A 		vstr.32	s16, [ip]
 479              		.loc 1 114 0
 480 008a AF4F     		ldr	r7, .L30+40
 481              	.LVL36:
 482              		.loc 1 108 0
 483 008c 1C70     		strb	r4, [r3]
 484              		.loc 1 109 0
 485 008e FFF7FEFF 		bl	memset
 486              	.LVL37:
 487              		.loc 1 110 0
 488 0092 AE4B     		ldr	r3, .L30+44
 489              		.loc 1 111 0
 490 0094 AE49     		ldr	r1, .L30+48
 491              		.loc 1 112 0
 492 0096 AF48     		ldr	r0, .L30+52
 493              		.loc 1 110 0
 494 0098 4FF07052 		mov	r2, #1006632960
 495 009c 1A60     		str	r2, [r3]	@ float
 496              		.loc 1 111 0
 497 009e 0C70     		strb	r4, [r1]
 498              		.loc 1 112 0
 499 00a0 80ED008A 		vstr.32	s16, [r0]
 500              		.loc 1 113 0
 501 00a4 C8F80040 		str	r4, [r8]
 502              		.loc 1 114 0
 503 00a8 3C60     		str	r4, [r7]
 504              		.loc 1 116 0
 505 00aa AB4F     		ldr	r7, .L30+56
 506              		.loc 1 115 0
 507 00ac 3460     		str	r4, [r6]
 508              		.loc 1 116 0
 509 00ae 3C60     		str	r4, [r7]
 510              		.loc 1 117 0
 511 00b0 AA4F     		ldr	r7, .L30+60
 512              		.loc 1 124 0
 513 00b2 AB4B     		ldr	r3, .L30+64
ARM GAS  /tmp/ccOWIkkk.s 			page 10


 514              		.loc 1 117 0
 515 00b4 3C60     		str	r4, [r7]
 516              		.loc 1 118 0
 517 00b6 AB4F     		ldr	r7, .L30+68
 518              		.loc 1 123 0
 519 00b8 AB4A     		ldr	r2, .L30+72
 520              		.loc 1 118 0
 521 00ba 3C70     		strb	r4, [r7]
 522              		.loc 1 120 0
 523 00bc AB4F     		ldr	r7, .L30+76
 524              		.loc 1 130 0
 525 00be 0121     		movs	r1, #1
 526              		.loc 1 120 0
 527 00c0 3C60     		str	r4, [r7]
 528              		.loc 1 130 0
 529 00c2 0846     		mov	r0, r1
 530              		.loc 1 121 0
 531 00c4 CBF80040 		str	r4, [fp]
 532              		.loc 1 123 0
 533 00c8 82ED008A 		vstr.32	s16, [r2]
 534              		.loc 1 124 0
 535 00cc 1C60     		str	r4, [r3]
 536 00ce 5C60     		str	r4, [r3, #4]
 537 00d0 9C60     		str	r4, [r3, #8]
 538              		.loc 1 130 0
 539 00d2 FFF7FEFF 		bl	RCC_APB2PeriphClockCmd
 540              	.LVL38:
 541              		.loc 1 134 0
 542 00d6 D9ED007A 		vldr.32	s15, [r9]
 543 00da A54A     		ldr	r2, .L30+80
 544              		.loc 1 132 0
 545 00dc 0394     		str	r4, [sp, #12]
 546              		.loc 1 134 0
 547 00de FDEEE77A 		vcvt.s32.f32	s15, s15
 548              		.loc 1 137 0
 549 00e2 2846     		mov	r0, r5
 550              		.loc 1 134 0
 551 00e4 17EE903A 		vmov	r3, s15	@ int
 552              		.loc 1 137 0
 553 00e8 03A9     		add	r1, sp, #12
 554              		.loc 1 134 0
 555 00ea 92FBF3F3 		sdiv	r3, r2, r3
 556              		.loc 1 135 0
 557 00ee ADF81440 		strh	r4, [sp, #20]	@ movhi
 558              		.loc 1 134 0
 559 00f2 0493     		str	r3, [sp, #16]
 560              		.loc 1 136 0
 561 00f4 8DF81640 		strb	r4, [sp, #22]
 562              		.loc 1 137 0
 563 00f8 FFF7FEFF 		bl	TIM_TimeBaseInit
 564              	.LVL39:
 565              		.loc 1 142 0
 566 00fc EB6A     		ldr	r3, [r5, #44]
 567              		.loc 1 139 0
 568 00fe DFF8C4C2 		ldr	ip, .L30+164
 569              		.loc 1 144 0
 570 0102 9C4A     		ldr	r2, .L30+84
ARM GAS  /tmp/ccOWIkkk.s 			page 11


 571              		.loc 1 139 0
 572 0104 CDF838C0 		str	ip, [sp, #56]
 573              		.loc 1 142 0
 574 0108 5B08     		lsrs	r3, r3, #1
 575              		.loc 1 148 0
 576 010a 2846     		mov	r0, r5
 577 010c 0EA9     		add	r1, sp, #56
 578              		.loc 1 142 0
 579 010e 1093     		str	r3, [sp, #64]
 580              		.loc 1 140 0
 581 0110 0423     		movs	r3, #4
 582              		.loc 1 144 0
 583 0112 1292     		str	r2, [sp, #72]
 584              		.loc 1 140 0
 585 0114 ADF83C30 		strh	r3, [sp, #60]	@ movhi
 586              		.loc 1 143 0
 587 0118 1194     		str	r4, [sp, #68]
 588              		.loc 1 148 0
 589 011a FFF7FEFF 		bl	TIM_OC1Init
 590              	.LVL40:
 591              		.loc 1 149 0
 592 011e 0EA9     		add	r1, sp, #56
 593 0120 2846     		mov	r0, r5
 594 0122 FFF7FEFF 		bl	TIM_OC2Init
 595              	.LVL41:
 596              		.loc 1 150 0
 597 0126 0EA9     		add	r1, sp, #56
 598 0128 2846     		mov	r0, r5
 599 012a FFF7FEFF 		bl	TIM_OC3Init
 600              	.LVL42:
 601              		.loc 1 151 0
 602 012e 0EA9     		add	r1, sp, #56
 603 0130 2846     		mov	r0, r5
 604 0132 FFF7FEFF 		bl	TIM_OC4Init
 605              	.LVL43:
 606              		.loc 1 153 0
 607 0136 2846     		mov	r0, r5
 608 0138 0821     		movs	r1, #8
 609 013a FFF7FEFF 		bl	TIM_OC1PreloadConfig
 610              	.LVL44:
 611              		.loc 1 154 0
 612 013e 2846     		mov	r0, r5
 613 0140 0821     		movs	r1, #8
 614 0142 FFF7FEFF 		bl	TIM_OC2PreloadConfig
 615              	.LVL45:
 616              		.loc 1 155 0
 617 0146 2846     		mov	r0, r5
 618 0148 0821     		movs	r1, #8
 619 014a FFF7FEFF 		bl	TIM_OC3PreloadConfig
 620              	.LVL46:
 621              		.loc 1 156 0
 622 014e 0821     		movs	r1, #8
 623 0150 2846     		mov	r0, r5
 624 0152 FFF7FEFF 		bl	TIM_OC4PreloadConfig
 625              	.LVL47:
 626              		.loc 1 161 0
 627 0156 DFED880A 		vldr.32	s1, .L30+88
ARM GAS  /tmp/ccOWIkkk.s 			page 12


 628 015a 9FED880A 		vldr.32	s0, .L30+92
 629              		.loc 1 158 0
 630 015e 884B     		ldr	r3, .L30+96
 631 0160 0693     		str	r3, [sp, #24]
 632              		.loc 1 159 0
 633 0162 ADF81C40 		strh	r4, [sp, #28]	@ movhi
 634              		.loc 1 161 0
 635 0166 FFF7FEFF 		bl	conf_general_calculate_deadtime
 636              	.LVL48:
 637              		.loc 1 162 0
 638 016a 4FF0005A 		mov	r10, #536870912
 639              		.loc 1 161 0
 640 016e ADF81E00 		strh	r0, [sp, #30]	@ movhi
 641              		.loc 1 166 0
 642 0172 06A9     		add	r1, sp, #24
 643 0174 2846     		mov	r0, r5
 644              		.loc 1 163 0
 645 0176 ADF82440 		strh	r4, [sp, #36]	@ movhi
 646              		.loc 1 162 0
 647 017a CDF820A0 		str	r10, [sp, #32]
 648              		.loc 1 166 0
 649 017e FFF7FEFF 		bl	TIM_BDTRConfig
 650              	.LVL49:
 651              		.loc 1 167 0
 652 0182 2846     		mov	r0, r5
 653 0184 0121     		movs	r1, #1
 654 0186 FFF7FEFF 		bl	TIM_CCPreloadControl
 655              	.LVL50:
 656              		.loc 1 168 0
 657 018a 2846     		mov	r0, r5
 658 018c 0121     		movs	r1, #1
 659 018e FFF7FEFF 		bl	TIM_ARRPreloadConfig
 660              	.LVL51:
 661              		.loc 1 174 0
 662 0192 0121     		movs	r1, #1
 663 0194 7B48     		ldr	r0, .L30+100
 664 0196 FFF7FEFF 		bl	RCC_AHB1PeriphClockCmd
 665              	.LVL52:
 666              		.loc 1 175 0
 667 019a 0121     		movs	r1, #1
 668 019c 4FF4E060 		mov	r0, #1792
 669 01a0 FFF7FEFF 		bl	RCC_APB2PeriphClockCmd
 670              	.LVL53:
 671              		.loc 1 177 0
 672 01a4 2346     		mov	r3, r4
 673 01a6 784A     		ldr	r2, .L30+104
 674 01a8 7848     		ldr	r0, .L30+108
 675 01aa 0521     		movs	r1, #5
 676 01ac FFF7FEFF 		bl	dmaStreamAllocate
 677              	.LVL54:
 678              		.loc 1 183 0
 679 01b0 7749     		ldr	r1, .L30+112
 680              		.loc 1 184 0
 681 01b2 DFF814C2 		ldr	ip, .L30+168
 682              		.loc 1 183 0
 683 01b6 1B91     		str	r1, [sp, #108]
 684              		.loc 1 186 0
ARM GAS  /tmp/ccOWIkkk.s 			page 13


 685 01b8 1222     		movs	r2, #18
 686              		.loc 1 188 0
 687 01ba 4FF48063 		mov	r3, #1024
 688              		.loc 1 189 0
 689 01be 4FF40061 		mov	r1, #2048
 690              		.loc 1 197 0
 691 01c2 7448     		ldr	r0, .L30+116
 692              		.loc 1 184 0
 693 01c4 CDF868C0 		str	ip, [sp, #104]
 694              		.loc 1 186 0
 695 01c8 1D92     		str	r2, [sp, #116]
 696              		.loc 1 190 0
 697 01ca 4FF4005C 		mov	ip, #8192
 698              		.loc 1 191 0
 699 01ce 4FF48072 		mov	r2, #256
 700              		.loc 1 188 0
 701 01d2 1F93     		str	r3, [sp, #124]
 702              		.loc 1 189 0
 703 01d4 2091     		str	r1, [sp, #128]
 704              		.loc 1 192 0
 705 01d6 4FF40033 		mov	r3, #131072
 706              		.loc 1 197 0
 707 01da 19A9     		add	r1, sp, #100
 708              		.loc 1 191 0
 709 01dc CDE921C2 		strd	ip, r2, [sp, #132]
 710              		.loc 1 192 0
 711 01e0 2393     		str	r3, [sp, #140]
 712              		.loc 1 182 0
 713 01e2 1994     		str	r4, [sp, #100]
 714              		.loc 1 185 0
 715 01e4 1C94     		str	r4, [sp, #112]
 716              		.loc 1 187 0
 717 01e6 1E94     		str	r4, [sp, #120]
 718              		.loc 1 194 0
 719 01e8 CDE92444 		strd	r4, r4, [sp, #144]
 720              		.loc 1 196 0
 721 01ec CDE92644 		strd	r4, r4, [sp, #152]
 722              		.loc 1 197 0
 723 01f0 FFF7FEFF 		bl	DMA_Init
 724              	.LVL55:
 725              		.loc 1 199 0
 726 01f4 0121     		movs	r1, #1
 727 01f6 6748     		ldr	r0, .L30+116
 728 01f8 FFF7FEFF 		bl	DMA_Cmd
 729              	.LVL56:
 730              		.loc 1 200 0
 731 01fc 1021     		movs	r1, #16
 732 01fe 0122     		movs	r2, #1
 733 0200 6448     		ldr	r0, .L30+116
 734 0202 FFF7FEFF 		bl	DMA_ITConfig
 735              	.LVL57:
 736              		.loc 1 204 0
 737 0206 1623     		movs	r3, #22
 738              		.loc 1 206 0
 739 0208 4FF48042 		mov	r2, #16384
 740              		.loc 1 208 0
 741 020c 0AA8     		add	r0, sp, #40
ARM GAS  /tmp/ccOWIkkk.s 			page 14


 742              		.loc 1 211 0
 743 020e 4FF00109 		mov	r9, #1
 744              		.loc 1 205 0
 745 0212 CDE90B42 		strd	r4, r2, [sp, #44]
 746              		.loc 1 204 0
 747 0216 0A93     		str	r3, [sp, #40]
 748              		.loc 1 207 0
 749 0218 0D94     		str	r4, [sp, #52]
 750              		.loc 1 208 0
 751 021a FFF7FEFF 		bl	ADC_CommonInit
 752              	.LVL58:
 753              		.loc 1 214 0
 754 021e 4FF08072 		mov	r2, #16777216
 755              		.loc 1 216 0
 756 0222 0623     		movs	r3, #6
 757              		.loc 1 218 0
 758 0224 13A9     		add	r1, sp, #76
 759 0226 5C48     		ldr	r0, .L30+120
 760              		.loc 1 214 0
 761 0228 1692     		str	r2, [sp, #88]
 762              		.loc 1 216 0
 763 022a 8DF86030 		strb	r3, [sp, #96]
 764              		.loc 1 213 0
 765 022e CDF854A0 		str	r10, [sp, #84]
 766              		.loc 1 210 0
 767 0232 1394     		str	r4, [sp, #76]
 768              		.loc 1 212 0
 769 0234 8DF85140 		strb	r4, [sp, #81]
 770              		.loc 1 215 0
 771 0238 1794     		str	r4, [sp, #92]
 772              		.loc 1 211 0
 773 023a 8DF85090 		strb	r9, [sp, #80]
 774              		.loc 1 218 0
 775 023e FFF7FEFF 		bl	ADC_Init
 776              	.LVL59:
 777              		.loc 1 221 0
 778 0242 13A9     		add	r1, sp, #76
 779 0244 5548     		ldr	r0, .L30+124
 780              		.loc 1 220 0
 781 0246 CDE91544 		strd	r4, r4, [sp, #84]
 782              		.loc 1 221 0
 783 024a FFF7FEFF 		bl	ADC_Init
 784              	.LVL60:
 785              		.loc 1 222 0
 786 024e 13A9     		add	r1, sp, #76
 787 0250 5348     		ldr	r0, .L30+128
 788 0252 FFF7FEFF 		bl	ADC_Init
 789              	.LVL61:
 790              		.loc 1 224 0
 791 0256 4846     		mov	r0, r9
 792 0258 FFF7FEFF 		bl	ADC_TempSensorVrefintCmd
 793              	.LVL62:
 794              		.loc 1 226 0
 795 025c 4846     		mov	r0, r9
 796 025e FFF7FEFF 		bl	ADC_MultiModeDMARequestAfterLastTransferCmd
 797              	.LVL63:
 798              		.loc 1 228 0
ARM GAS  /tmp/ccOWIkkk.s 			page 15


 799 0262 FFF7FEFF 		bl	hw_setup_adc_channels
 800              	.LVL64:
 801              		.loc 1 230 0
 802 0266 4946     		mov	r1, r9
 803 0268 4B48     		ldr	r0, .L30+120
 804 026a FFF7FEFF 		bl	ADC_Cmd
 805              	.LVL65:
 806              		.loc 1 231 0
 807 026e 4946     		mov	r1, r9
 808 0270 4A48     		ldr	r0, .L30+124
 809 0272 FFF7FEFF 		bl	ADC_Cmd
 810              	.LVL66:
 811              		.loc 1 232 0
 812 0276 4946     		mov	r1, r9
 813 0278 4948     		ldr	r0, .L30+128
 814 027a FFF7FEFF 		bl	ADC_Cmd
 815              	.LVL67:
 816              		.loc 1 234 0
 817 027e 4946     		mov	r1, r9
 818 0280 2846     		mov	r0, r5
 819 0282 FFF7FEFF 		bl	TIM_Cmd
 820              	.LVL68:
 821              		.loc 1 235 0
 822 0286 4946     		mov	r1, r9
 823 0288 2846     		mov	r0, r5
 824 028a FFF7FEFF 		bl	TIM_CtrlPWMOutputs
 825              	.LVL69:
 826              		.loc 1 238 0
 827 028e C823     		movs	r3, #200
 828 0290 AB63     		str	r3, [r5, #56]
 829              		.loc 1 240 0
 830 0292 FFF7FEFF 		bl	utils_sys_unlock_cnt
 831              	.LVL70:
 832              	.LBB11:
 833              	.LBB12:
 834              		.loc 1 480 0
 835 0296 42F21070 		movw	r0, #10000
 836 029a FFF7FEFF 		bl	chThdSleep
 837              	.LVL71:
 838              		.loc 1 482 0
 839 029e 2A4B     		ldr	r3, .L30+40
 840              		.loc 1 481 0
 841 02a0 C8F80040 		str	r4, [r8]
 842              		.loc 1 482 0
 843 02a4 1C60     		str	r4, [r3]
 844              		.loc 1 484 0
 845 02a6 3C60     		str	r4, [r7]
 846              		.loc 1 486 0
 847 02a8 3460     		str	r4, [r6]
 848              	.L23:
 849              		.loc 1 487 0
 850 02aa 3368     		ldr	r3, [r6]
 851 02ac B3F57A6F 		cmp	r3, #4000
 852 02b0 FBDB     		blt	.L23
 853              		.loc 1 488 0
 854 02b2 D8F80030 		ldr	r3, [r8]
 855 02b6 3268     		ldr	r2, [r6]
ARM GAS  /tmp/ccOWIkkk.s 			page 16


 856 02b8 93FBF2F3 		sdiv	r3, r3, r2
 857 02bc 264A     		ldr	r2, .L30+56
 858              	.LBE12:
 859              	.LBE11:
 860              		.loc 1 247 0
 861 02be DFF80CC1 		ldr	ip, .L30+172
 862              	.LBB18:
 863              	.LBB13:
 864              		.loc 1 488 0
 865 02c2 1360     		str	r3, [r2]
 866              		.loc 1 489 0
 867 02c4 204B     		ldr	r3, .L30+40
 868              	.LBE13:
 869              	.LBE18:
 870              		.loc 1 248 0
 871 02c6 3748     		ldr	r0, .L30+132
 872              	.LBB19:
 873              	.LBB14:
 874              		.loc 1 489 0
 875 02c8 1B68     		ldr	r3, [r3]
 876 02ca 3268     		ldr	r2, [r6]
 877 02cc 93FBF2F3 		sdiv	r3, r3, r2
 878 02d0 224A     		ldr	r2, .L30+60
 879              	.LBE14:
 880              	.LBE19:
 881              		.loc 1 247 0
 882 02d2 0024     		movs	r4, #0
 883              		.loc 1 248 0
 884 02d4 0094     		str	r4, [sp]
 885              	.LBB20:
 886              	.LBB15:
 887              		.loc 1 489 0
 888 02d6 1360     		str	r3, [r2]
 889              		.loc 1 491 0
 890 02d8 244A     		ldr	r2, .L30+76
 891              	.LBE15:
 892              	.LBE20:
 893              		.loc 1 248 0
 894 02da 334B     		ldr	r3, .L30+136
 895              	.LBB21:
 896              	.LBB16:
 897              		.loc 1 491 0
 898 02dc 1568     		ldr	r5, [r2]
 899 02de 3268     		ldr	r2, [r6]
 900 02e0 95FBF2F5 		sdiv	r5, r5, r2
 901 02e4 CBF80050 		str	r5, [fp]
 902              		.loc 1 494 0
 903 02e8 1E4D     		ldr	r5, .L30+68
 904 02ea 0127     		movs	r7, #1
 905              	.LBE16:
 906              	.LBE21:
 907              		.loc 1 248 0
 908 02ec 4022     		movs	r2, #64
 909 02ee 4FF46871 		mov	r1, #928
 910              	.LBB22:
 911              	.LBB17:
 912              		.loc 1 494 0
ARM GAS  /tmp/ccOWIkkk.s 			page 17


 913 02f2 2F70     		strb	r7, [r5]
 914              	.LBE17:
 915              	.LBE22:
 916              		.loc 1 247 0
 917 02f4 8CF80040 		strb	r4, [ip]
 918              		.loc 1 248 0
 919 02f8 FFF7FEFF 		bl	chThdCreateStatic
 920              	.LVL72:
 921              		.loc 1 250 0
 922 02fc FFF7FEFF 		bl	stop_pwm_hw
 923              	.LVL73:
 924              		.loc 1 253 0
 925 0300 FFF7FEFF 		bl	timeout_had_IWDG_reset
 926              	.LVL74:
 927 0304 20B1     		cbz	r0, .L24
 928              		.loc 1 254 0
 929 0306 2246     		mov	r2, r4
 930 0308 2146     		mov	r1, r4
 931 030a 0A20     		movs	r0, #10
 932 030c FFF7FEFF 		bl	mc_interface_fault_stop
 933              	.LVL75:
 934              	.L24:
 935              		.loc 1 257 0
 936 0310 064A     		ldr	r2, .L30+12
 937 0312 0123     		movs	r3, #1
 938 0314 1370     		strb	r3, [r2]
 939              		.loc 1 258 0
 940 0316 29B0     		add	sp, sp, #164
 941              		.cfi_def_cfa_offset 44
 942              		@ sp needed
 943 0318 BDEC028B 		vldm	sp!, {d8}
 944              		.cfi_restore 80
 945              		.cfi_restore 81
 946              		.cfi_def_cfa_offset 36
 947 031c BDE8F08F 		pop	{r4, r5, r6, r7, r8, r9, r10, fp, pc}
 948              	.L31:
 949              		.align	2
 950              	.L30:
 951 0320 00000140 		.word	1073807360
 952 0324 00000000 		.word	0
 953 0328 00000000 		.word	.LANCHOR12
 954 032c 00000000 		.word	.LANCHOR4
 955 0330 00000000 		.word	.LANCHOR0
 956 0334 00000000 		.word	.LANCHOR1
 957 0338 00000000 		.word	.LANCHOR6
 958 033c 00401C47 		.word	1193033728
 959 0340 00000000 		.word	.LANCHOR2
 960 0344 00000000 		.word	m_sample_buffer
 961 0348 00000000 		.word	.LANCHOR11
 962 034c 00000000 		.word	.LANCHOR8
 963 0350 00000000 		.word	.LANCHOR3
 964 0354 00000000 		.word	.LANCHOR9
 965 0358 00000000 		.word	.LANCHOR13
 966 035c 00000000 		.word	.LANCHOR14
 967 0360 00000000 		.word	.LANCHOR19
 968 0364 00000000 		.word	.LANCHOR15
 969 0368 00000000 		.word	.LANCHOR18
ARM GAS  /tmp/ccOWIkkk.s 			page 18


 970 036c 00000000 		.word	.LANCHOR16
 971 0370 007A030A 		.word	168000000
 972 0374 00010002 		.word	33554688
 973 0378 A037204D 		.word	1293957024
 974 037c 00002544 		.word	1143275520
 975 0380 00080004 		.word	67110912
 976 0384 05004000 		.word	4194309
 977 0388 00000000 		.word	adc_int_handler
 978 038c 90000000 		.word	_stm32_dma_streams+144
 979 0390 00000000 		.word	ADC_Value
 980 0394 70640240 		.word	1073898608
 981 0398 00200140 		.word	1073815552
 982 039c 00210140 		.word	1073815808
 983 03a0 00220140 		.word	1073816064
 984 03a4 00000000 		.word	.LANCHOR21
 985 03a8 00000000 		.word	timer_thread
 986 03ac 00000240 		.word	1073872896
 987 03b0 00040240 		.word	1073873920
 988 03b4 00000000 		.word	.LANCHOR5
 989 03b8 00000000 		.word	.LANCHOR10
 990 03bc 00000000 		.word	.LANCHOR17
 991 03c0 00000000 		.word	.LANCHOR7
 992 03c4 60000100 		.word	65632
 993 03c8 08230140 		.word	1073816328
 994 03cc 00000000 		.word	.LANCHOR20
 995              		.cfi_endproc
 996              	.LFE256:
 997              		.size	gpdrive_init, .-gpdrive_init
 998              		.section	.text.gpdrive_deinit,"ax",%progbits
 999              		.align	1
 1000              		.p2align 4,,15
 1001              		.global	gpdrive_deinit
 1002              		.syntax unified
 1003              		.thumb
 1004              		.thumb_func
 1005              		.fpu fpv4-sp-d16
 1006              		.type	gpdrive_deinit, %function
 1007              	gpdrive_deinit:
 1008              	.LFB257:
 1009              		.loc 1 260 0
 1010              		.cfi_startproc
 1011              		@ args = 0, pretend = 0, frame = 0
 1012              		@ frame_needed = 0, uses_anonymous_args = 0
 1013              		.loc 1 261 0
 1014 0000 184B     		ldr	r3, .L43
 1015 0002 1A78     		ldrb	r2, [r3]	@ zero_extendqisi2
 1016 0004 62B3     		cbz	r2, .L32
 1017              		.loc 1 260 0
 1018 0006 10B5     		push	{r4, lr}
 1019              		.cfi_def_cfa_offset 8
 1020              		.cfi_offset 4, -8
 1021              		.cfi_offset 14, -4
 1022              		.loc 1 267 0
 1023 0008 174C     		ldr	r4, .L43+4
 1024              		.loc 1 265 0
 1025 000a 0021     		movs	r1, #0
 1026              		.loc 1 267 0
ARM GAS  /tmp/ccOWIkkk.s 			page 19


 1027 000c 0122     		movs	r2, #1
 1028              		.loc 1 265 0
 1029 000e 1970     		strb	r1, [r3]
 1030              		.loc 1 267 0
 1031 0010 2270     		strb	r2, [r4]
 1032              		.loc 1 269 0
 1033 0012 2378     		ldrb	r3, [r4]	@ zero_extendqisi2
 1034 0014 2BB1     		cbz	r3, .L34
 1035              	.L35:
 1036              		.loc 1 270 0
 1037 0016 0A20     		movs	r0, #10
 1038 0018 FFF7FEFF 		bl	chThdSleep
 1039              	.LVL76:
 1040              		.loc 1 269 0
 1041 001c 2378     		ldrb	r3, [r4]	@ zero_extendqisi2
 1042 001e 002B     		cmp	r3, #0
 1043 0020 F9D1     		bne	.L35
 1044              	.L34:
 1045              		.loc 1 273 0
 1046 0022 1248     		ldr	r0, .L43+8
 1047 0024 FFF7FEFF 		bl	TIM_DeInit
 1048              	.LVL77:
 1049              		.loc 1 274 0
 1050 0028 1148     		ldr	r0, .L43+12
 1051 002a FFF7FEFF 		bl	TIM_DeInit
 1052              	.LVL78:
 1053              		.loc 1 275 0
 1054 002e FFF7FEFF 		bl	ADC_DeInit
 1055              	.LVL79:
 1056              		.loc 1 276 0
 1057 0032 1048     		ldr	r0, .L43+16
 1058 0034 FFF7FEFF 		bl	DMA_DeInit
 1059              	.LVL80:
 1060              		.loc 1 277 0
 1061 0038 1220     		movs	r0, #18
 1062 003a FFF7FEFF 		bl	nvicDisableVector
 1063              	.LVL81:
 1064              		.loc 1 278 0
 1065 003e 0E48     		ldr	r0, .L43+20
 1066 0040 FFF7FEFF 		bl	dmaStreamRelease
 1067              	.LVL82:
 1068              		.loc 1 281 0
 1069 0044 9A22     		movs	r2, #154
 1070 0046 4FF40071 		mov	r1, #512
 1071 004a 0C48     		ldr	r0, .L43+24
 1072 004c FFF7FEFF 		bl	_pal_lld_setgroupmode
 1073              	.LVL83:
 1074              		.loc 1 284 0
 1075 0050 9A22     		movs	r2, #154
 1076 0052 4FF48041 		mov	r1, #16384
 1077 0056 0A48     		ldr	r0, .L43+28
 1078              		.loc 1 287 0
 1079 0058 BDE81040 		pop	{r4, lr}
 1080              		.cfi_restore 14
 1081              		.cfi_restore 4
 1082              		.cfi_def_cfa_offset 0
 1083              		.loc 1 284 0
ARM GAS  /tmp/ccOWIkkk.s 			page 20


 1084 005c FFF7FEBF 		b	_pal_lld_setgroupmode
 1085              	.LVL84:
 1086              	.L32:
 1087 0060 7047     		bx	lr
 1088              	.L44:
 1089 0062 00BF     		.align	2
 1090              	.L43:
 1091 0064 00000000 		.word	.LANCHOR4
 1092 0068 00000000 		.word	.LANCHOR20
 1093 006c 00000140 		.word	1073807360
 1094 0070 00180040 		.word	1073747968
 1095 0074 70640240 		.word	1073898608
 1096 0078 90000000 		.word	_stm32_dma_streams+144
 1097 007c 00000240 		.word	1073872896
 1098 0080 00040240 		.word	1073873920
 1099              		.cfi_endproc
 1100              	.LFE257:
 1101              		.size	gpdrive_deinit, .-gpdrive_deinit
 1102              		.section	.text.gpdrive_init_done,"ax",%progbits
 1103              		.align	1
 1104              		.p2align 4,,15
 1105              		.global	gpdrive_init_done
 1106              		.syntax unified
 1107              		.thumb
 1108              		.thumb_func
 1109              		.fpu fpv4-sp-d16
 1110              		.type	gpdrive_init_done, %function
 1111              	gpdrive_init_done:
 1112              	.LFB258:
 1113              		.loc 1 289 0
 1114              		.cfi_startproc
 1115              		@ args = 0, pretend = 0, frame = 0
 1116              		@ frame_needed = 0, uses_anonymous_args = 0
 1117              		@ link register save eliminated.
 1118              		.loc 1 290 0
 1119 0000 014B     		ldr	r3, .L46
 1120 0002 1878     		ldrb	r0, [r3]	@ zero_extendqisi2
 1121              		.loc 1 291 0
 1122 0004 7047     		bx	lr
 1123              	.L47:
 1124 0006 00BF     		.align	2
 1125              	.L46:
 1126 0008 00000000 		.word	.LANCHOR4
 1127              		.cfi_endproc
 1128              	.LFE258:
 1129              		.size	gpdrive_init_done, .-gpdrive_init_done
 1130              		.section	.text.gpdrive_is_dccal_done,"ax",%progbits
 1131              		.align	1
 1132              		.p2align 4,,15
 1133              		.global	gpdrive_is_dccal_done
 1134              		.syntax unified
 1135              		.thumb
 1136              		.thumb_func
 1137              		.fpu fpv4-sp-d16
 1138              		.type	gpdrive_is_dccal_done, %function
 1139              	gpdrive_is_dccal_done:
 1140              	.LFB259:
ARM GAS  /tmp/ccOWIkkk.s 			page 21


 1141              		.loc 1 293 0
 1142              		.cfi_startproc
 1143              		@ args = 0, pretend = 0, frame = 0
 1144              		@ frame_needed = 0, uses_anonymous_args = 0
 1145              		@ link register save eliminated.
 1146              		.loc 1 294 0
 1147 0000 014B     		ldr	r3, .L49
 1148 0002 1878     		ldrb	r0, [r3]	@ zero_extendqisi2
 1149              		.loc 1 295 0
 1150 0004 7047     		bx	lr
 1151              	.L50:
 1152 0006 00BF     		.align	2
 1153              	.L49:
 1154 0008 00000000 		.word	.LANCHOR15
 1155              		.cfi_endproc
 1156              	.LFE259:
 1157              		.size	gpdrive_is_dccal_done, .-gpdrive_is_dccal_done
 1158              		.section	.text.gpdrive_get_switching_frequency_now,"ax",%progbits
 1159              		.align	1
 1160              		.p2align 4,,15
 1161              		.global	gpdrive_get_switching_frequency_now
 1162              		.syntax unified
 1163              		.thumb
 1164              		.thumb_func
 1165              		.fpu fpv4-sp-d16
 1166              		.type	gpdrive_get_switching_frequency_now, %function
 1167              	gpdrive_get_switching_frequency_now:
 1168              	.LFB260:
 1169              		.loc 1 297 0
 1170              		.cfi_startproc
 1171              		@ args = 0, pretend = 0, frame = 0
 1172              		@ frame_needed = 0, uses_anonymous_args = 0
 1173              		@ link register save eliminated.
 1174              		.loc 1 298 0
 1175 0000 014B     		ldr	r3, .L52
 1176 0002 93ED000A 		vldr.32	s0, [r3]
 1177              		.loc 1 299 0
 1178 0006 7047     		bx	lr
 1179              	.L53:
 1180              		.align	2
 1181              	.L52:
 1182 0008 00000000 		.word	.LANCHOR5
 1183              		.cfi_endproc
 1184              	.LFE260:
 1185              		.size	gpdrive_get_switching_frequency_now, .-gpdrive_get_switching_frequency_now
 1186              		.section	.text.gpdrive_set_configuration,"ax",%progbits
 1187              		.align	1
 1188              		.p2align 4,,15
 1189              		.global	gpdrive_set_configuration
 1190              		.syntax unified
 1191              		.thumb
 1192              		.thumb_func
 1193              		.fpu fpv4-sp-d16
 1194              		.type	gpdrive_set_configuration, %function
 1195              	gpdrive_set_configuration:
 1196              	.LFB261:
 1197              		.loc 1 301 0
ARM GAS  /tmp/ccOWIkkk.s 			page 22


 1198              		.cfi_startproc
 1199              		@ args = 0, pretend = 0, frame = 0
 1200              		@ frame_needed = 0, uses_anonymous_args = 0
 1201              	.LVL85:
 1202 0000 10B5     		push	{r4, lr}
 1203              		.cfi_def_cfa_offset 8
 1204              		.cfi_offset 4, -8
 1205              		.cfi_offset 14, -4
 1206              		.loc 1 303 0
 1207 0002 074B     		ldr	r3, .L56
 1208 0004 0022     		movs	r2, #0
 1209              		.loc 1 301 0
 1210 0006 0446     		mov	r4, r0
 1211              		.loc 1 303 0
 1212 0008 1A70     		strb	r2, [r3]
 1213              		.loc 1 304 0
 1214 000a FFF7FEFF 		bl	stop_pwm_hw
 1215              	.LVL86:
 1216              		.loc 1 306 0
 1217 000e FFF7FEFF 		bl	utils_sys_lock_cnt
 1218              	.LVL87:
 1219              		.loc 1 307 0
 1220 0012 044B     		ldr	r3, .L56+4
 1221 0014 1C60     		str	r4, [r3]
 1222              		.loc 1 309 0
 1223 0016 BDE81040 		pop	{r4, lr}
 1224              		.cfi_restore 14
 1225              		.cfi_restore 4
 1226              		.cfi_def_cfa_offset 0
 1227              	.LVL88:
 1228              		.loc 1 308 0
 1229 001a FFF7FEBF 		b	utils_sys_unlock_cnt
 1230              	.LVL89:
 1231              	.L57:
 1232 001e 00BF     		.align	2
 1233              	.L56:
 1234 0020 00000000 		.word	.LANCHOR2
 1235 0024 00000000 		.word	.LANCHOR0
 1236              		.cfi_endproc
 1237              	.LFE261:
 1238              		.size	gpdrive_set_configuration, .-gpdrive_set_configuration
 1239              		.section	.text.gpdrive_output_sample,"ax",%progbits
 1240              		.align	1
 1241              		.p2align 4,,15
 1242              		.global	gpdrive_output_sample
 1243              		.syntax unified
 1244              		.thumb
 1245              		.thumb_func
 1246              		.fpu fpv4-sp-d16
 1247              		.type	gpdrive_output_sample, %function
 1248              	gpdrive_output_sample:
 1249              	.LFB262:
 1250              		.loc 1 311 0
 1251              		.cfi_startproc
 1252              		@ args = 0, pretend = 0, frame = 0
 1253              		@ frame_needed = 0, uses_anonymous_args = 0
 1254              		@ link register save eliminated.
ARM GAS  /tmp/ccOWIkkk.s 			page 23


 1255              	.LVL90:
 1256              		.loc 1 312 0
 1257 0000 134A     		ldr	r2, .L64
 1258              		.loc 1 314 0
 1259 0002 144B     		ldr	r3, .L64+4
 1260              		.loc 1 312 0
 1261 0004 82ED000A 		vstr.32	s0, [r2]
 1262              		.loc 1 314 0
 1263 0008 1B78     		ldrb	r3, [r3]	@ zero_extendqisi2
 1264 000a DBB2     		uxtb	r3, r3
 1265 000c 022B     		cmp	r3, #2
 1266              		.loc 1 311 0
 1267 000e F0EE407A 		vmov.f32	s15, s0
 1268              		.loc 1 314 0
 1269 0012 04D0     		beq	.L60
 1270 0014 032B     		cmp	r3, #3
 1271 0016 14D0     		beq	.L61
 1272 0018 012B     		cmp	r3, #1
 1273 001a 10D0     		beq	.L63
 1274              		.loc 1 331 0
 1275 001c 7047     		bx	lr
 1276              	.L60:
 1277              	.LVL91:
 1278              	.LBB25:
 1279              	.LBB26:
 1280              		.loc 1 320 0
 1281 001e 0E4B     		ldr	r3, .L64+8
 1282 0020 DFED0E6A 		vldr.32	s13, .L64+12
 1283 0024 DB8A     		ldrh	r3, [r3, #22]
 1284 0026 9FED0E7A 		vldr.32	s14, .L64+16
 1285 002a 00EE103A 		vmov	s0, r3	@ int
 1286              	.LVL92:
 1287 002e B8EE400A 		vcvt.f32.u32	s0, s0
 1288 0032 20EE260A 		vmul.f32	s0, s0, s13
 1289 0036 20EE070A 		vmul.f32	s0, s0, s14
 1290 003a 87EE800A 		vdiv.f32	s0, s15, s0
 1291              	.LVL93:
 1292              	.L63:
 1293 003e FFF7FEBF 		b	set_modulation
 1294              	.LVL94:
 1295              	.L61:
 1296              	.LBE26:
 1297              	.LBE25:
 1298              		.loc 1 324 0
 1299 0042 084A     		ldr	r2, .L64+20
 1300              		.loc 1 325 0
 1301 0044 084B     		ldr	r3, .L64+24
 1302              		.loc 1 324 0
 1303 0046 82ED000A 		vstr.32	s0, [r2]
 1304              		.loc 1 325 0
 1305 004a 0122     		movs	r2, #1
 1306 004c 1A70     		strb	r2, [r3]
 1307              		.loc 1 331 0
 1308 004e 7047     		bx	lr
 1309              	.L65:
 1310              		.align	2
 1311              	.L64:
ARM GAS  /tmp/ccOWIkkk.s 			page 24


 1312 0050 00000000 		.word	.LANCHOR9
 1313 0054 00000000 		.word	.LANCHOR2
 1314 0058 00000000 		.word	ADC_Value
 1315 005c 6740533A 		.word	978534503
 1316 0060 ABAA5E42 		.word	1113500331
 1317 0064 00000000 		.word	.LANCHOR19
 1318 0068 00000000 		.word	.LANCHOR3
 1319              		.cfi_endproc
 1320              	.LFE262:
 1321              		.size	gpdrive_output_sample, .-gpdrive_output_sample
 1322              		.section	.text.adc_int_handler,"ax",%progbits
 1323              		.align	1
 1324              		.p2align 4,,15
 1325              		.syntax unified
 1326              		.thumb
 1327              		.thumb_func
 1328              		.fpu fpv4-sp-d16
 1329              		.type	adc_int_handler, %function
 1330              	adc_int_handler:
 1331              	.LFB277:
 1332              		.loc 1 497 0
 1333              		.cfi_startproc
 1334              		@ args = 0, pretend = 0, frame = 0
 1335              		@ frame_needed = 0, uses_anonymous_args = 0
 1336              	.LVL95:
 1337 0000 2DE9F041 		push	{r4, r5, r6, r7, r8, lr}
 1338              		.cfi_def_cfa_offset 24
 1339              		.cfi_offset 4, -24
 1340              		.cfi_offset 5, -20
 1341              		.cfi_offset 6, -16
 1342              		.cfi_offset 7, -12
 1343              		.cfi_offset 8, -8
 1344              		.cfi_offset 14, -4
 1345 0004 2DED028B 		vpush.64	{d8}
 1346              		.cfi_def_cfa_offset 32
 1347              		.cfi_offset 80, -32
 1348              		.cfi_offset 81, -28
 1349              		.loc 1 501 0
 1350 0008 FFF7FEFF 		bl	timer_time_now
 1351              	.LVL96:
 1352              		.loc 1 506 0
 1353 000c AF4C     		ldr	r4, .L95
 1354              		.loc 1 536 0
 1355 000e B04D     		ldr	r5, .L95+4
 1356              		.loc 1 535 0
 1357 0010 DFF81483 		ldr	r8, .L95+92
 1358              		.loc 1 501 0
 1359 0014 0646     		mov	r6, r0
 1360              	.LVL97:
 1361              		.loc 1 504 0
 1362 0016 0020     		movs	r0, #0
 1363              	.LVL98:
 1364 0018 FFF7FEFF 		bl	timeout_feed_WDT
 1365              	.LVL99:
 1366              		.loc 1 513 0
 1367 001c DFF80CC3 		ldr	ip, .L95+96
 1368              		.loc 1 506 0
ARM GAS  /tmp/ccOWIkkk.s 			page 25


 1369 0020 E288     		ldrh	r2, [r4, #6]
 1370              		.loc 1 507 0
 1371 0022 2189     		ldrh	r1, [r4, #8]
 1372              		.loc 1 510 0
 1373 0024 6389     		ldrh	r3, [r4, #10]
 1374              		.loc 1 513 0
 1375 0026 DCF80070 		ldr	r7, [ip]
 1376              		.loc 1 506 0
 1377 002a 40F6FF70 		movw	r0, #4095
 1378 002e 821A     		subs	r2, r0, r2
 1379              	.LVL100:
 1380              		.loc 1 513 0
 1381 0030 1744     		add	r7, r7, r2
 1382 0032 CCF80070 		str	r7, [ip]
 1383              		.loc 1 514 0
 1384 0036 A74F     		ldr	r7, .L95+8
 1385 0038 D7F800C0 		ldr	ip, [r7]
 1386              		.loc 1 507 0
 1387 003c 411A     		subs	r1, r0, r1
 1388              	.LVL101:
 1389              		.loc 1 514 0
 1390 003e 6144     		add	r1, r1, ip
 1391 0040 3960     		str	r1, [r7]
 1392              		.loc 1 516 0
 1393 0042 A54F     		ldr	r7, .L95+12
 1394              		.loc 1 519 0
 1395 0044 DFF8E8C2 		ldr	ip, .L95+100
 1396              		.loc 1 516 0
 1397 0048 3968     		ldr	r1, [r7]
 1398              		.loc 1 510 0
 1399 004a C31A     		subs	r3, r0, r3
 1400              	.LVL102:
 1401              		.loc 1 516 0
 1402 004c 1944     		add	r1, r1, r3
 1403 004e 3960     		str	r1, [r7]
 1404              		.loc 1 522 0
 1405 0050 A249     		ldr	r1, .L95+16
 1406              		.loc 1 520 0
 1407 0052 A34F     		ldr	r7, .L95+20
 1408              		.loc 1 519 0
 1409 0054 DCF80000 		ldr	r0, [ip]
 1410              	.LVL103:
 1411              		.loc 1 520 0
 1412 0058 3F68     		ldr	r7, [r7]
 1413              		.loc 1 522 0
 1414 005a 0F68     		ldr	r7, [r1]
 1415              	.LVL104:
 1416              		.loc 1 525 0
 1417 005c A149     		ldr	r1, .L95+24
 1418              		.loc 1 522 0
 1419 005e DB1B     		subs	r3, r3, r7
 1420              	.LVL105:
 1421 0060 00EE103A 		vmov	s0, r3	@ int
 1422              		.loc 1 519 0
 1423 0064 121A     		subs	r2, r2, r0
 1424              	.LVL106:
 1425              		.loc 1 525 0
ARM GAS  /tmp/ccOWIkkk.s 			page 26


 1426 0066 0B68     		ldr	r3, [r1]
 1427              	.LVL107:
 1428              		.loc 1 536 0
 1429 0068 9F4F     		ldr	r7, .L95+28
 1430              		.loc 1 519 0
 1431 006a 00EE902A 		vmov	s1, r2	@ int
 1432              		.loc 1 529 0
 1433 006e B8EEC00A 		vcvt.f32.s32	s0, s0
 1434              	.LVL108:
 1435              		.loc 1 525 0
 1436 0072 0133     		adds	r3, r3, #1
 1437              		.loc 1 535 0
 1438 0074 B1EE400A 		vneg.f32	s0, s0
 1439 0078 F8EEE00A 		vcvt.f32.s32	s1, s1
 1440              		.loc 1 525 0
 1441 007c 0B60     		str	r3, [r1]
 1442              	.LVL109:
 1443              		.loc 1 535 0
 1444 007e FFF7FEFF 		bl	utils_max_abs
 1445              	.LVL110:
 1446 0082 9FED9A7A 		vldr.32	s14, .L95+32
 1447              		.loc 1 536 0
 1448 0086 2B68     		ldr	r3, [r5]
 1449              		.loc 1 541 0
 1450 0088 DFED995A 		vldr.32	s11, .L95+36
 1451 008c 9FED996A 		vldr.32	s12, .L95+40
 1452              		.loc 1 535 0
 1453 0090 20EE070A 		vmul.f32	s0, s0, s14
 1454 0094 88ED000A 		vstr.32	s0, [r8]
 1455              		.loc 1 536 0
 1456 0098 D3ED6F7A 		vldr.32	s15, [r3, #444]
 1457 009c D7ED006A 		vldr.32	s13, [r7]
 1458 00a0 98ED005A 		vldr.32	s10, [r8]
 1459 00a4 97ED007A 		vldr.32	s14, [r7]
 1460 00a8 76EEC56A 		vsub.f32	s13, s13, s10
 1461 00ac A7EEE67A 		vfms.f32	s14, s15, s13
 1462 00b0 87ED007A 		vstr.32	s14, [r7]
 1463              		.loc 1 541 0
 1464 00b4 E28A     		ldrh	r2, [r4, #22]
 1465              		.loc 1 544 0
 1466 00b6 93ED0A7A 		vldr.32	s14, [r3, #40]
 1467              		.loc 1 541 0
 1468 00ba 07EE902A 		vmov	s15, r2	@ int
 1469 00be F8EE677A 		vcvt.f32.u32	s15, s15
 1470 00c2 67EEA57A 		vmul.f32	s15, s15, s11
 1471 00c6 67EE867A 		vmul.f32	s15, s15, s12
 1472              	.LVL111:
 1473              		.loc 1 544 0
 1474 00ca B4EEE77A 		vcmpe.f32	s14, s15
 1475 00ce F1EE10FA 		vmrs	APSR_nzcv, FPSCR
 1476 00d2 07DC     		bgt	.L67
 1477              		.loc 1 545 0 discriminator 1
 1478 00d4 93ED0B7A 		vldr.32	s14, [r3, #44]
 1479              		.loc 1 544 0 discriminator 1
 1480 00d8 B4EEE77A 		vcmpe.f32	s14, s15
 1481 00dc F1EE10FA 		vmrs	APSR_nzcv, FPSCR
 1482 00e0 40F1BF80 		bpl	.L87
ARM GAS  /tmp/ccOWIkkk.s 			page 27


 1483              	.L67:
 1484              		.loc 1 546 0
 1485 00e4 8449     		ldr	r1, .L95+44
 1486 00e6 0A68     		ldr	r2, [r1]
 1487 00e8 0132     		adds	r2, r2, #1
 1488              		.loc 1 548 0
 1489 00ea 072A     		cmp	r2, #7
 1490              		.loc 1 546 0
 1491 00ec 0A60     		str	r2, [r1]
 1492              		.loc 1 548 0
 1493 00ee 00F3A980 		bgt	.L91
 1494              	.LVL112:
 1495              	.L70:
 1496              		.loc 1 556 0
 1497 00f2 93F83820 		ldrb	r2, [r3, #56]	@ zero_extendqisi2
 1498 00f6 002A     		cmp	r2, #0
 1499 00f8 00F08D80 		beq	.L73
 1500              		.loc 1 557 0
 1501 00fc D8ED007A 		vldr.32	s15, [r8]
 1502              	.L90:
 1503 0100 93ED047A 		vldr.32	s14, [r3, #16]
 1504 0104 F0EEE77A 		vabs.f32	s15, s15
 1505 0108 F4EEC77A 		vcmpe.f32	s15, s14
 1506 010c F1EE10FA 		vmrs	APSR_nzcv, FPSCR
 1507 0110 00F3AB80 		bgt	.L92
 1508              	.L74:
 1509              		.loc 1 572 0
 1510 0114 7949     		ldr	r1, .L95+48
 1511              		.loc 1 574 0
 1512 0116 D3F8B801 		ldr	r0, [r3, #440]
 1513              		.loc 1 572 0
 1514 011a 0A68     		ldr	r2, [r1]
 1515 011c 0132     		adds	r2, r2, #1
 1516              		.loc 1 574 0
 1517 011e 8242     		cmp	r2, r0
 1518              		.loc 1 572 0
 1519 0120 0A60     		str	r2, [r1]
 1520              		.loc 1 574 0
 1521 0122 7BDD     		ble	.L77
 1522              		.loc 1 576 0
 1523 0124 764B     		ldr	r3, .L95+52
 1524 0126 42F2040C 		movw	ip, #8196
 1525 012a 03F50052 		add	r2, r3, #8192
 1526              		.loc 1 575 0
 1527 012e 0020     		movs	r0, #0
 1528              		.loc 1 576 0
 1529 0130 D2F800E0 		ldr	lr, [r2]
 1530 0134 53F80CC0 		ldr	ip, [r3, ip]
 1531              		.loc 1 575 0
 1532 0138 0860     		str	r0, [r1]
 1533              		.loc 1 576 0
 1534 013a E645     		cmp	lr, ip
 1535 013c 00F09C80 		beq	.L78
 1536              		.loc 1 578 0
 1537 0140 1168     		ldr	r1, [r2]
 1538              		.loc 1 577 0
 1539 0142 DFF8D881 		ldr	r8, .L95+80
ARM GAS  /tmp/ccOWIkkk.s 			page 28


 1540              		.loc 1 581 0
 1541 0146 DFF8C4C1 		ldr	ip, .L95+64
 1542              		.loc 1 577 0
 1543 014a D8F800E0 		ldr	lr, [r8]	@ float
 1544              		.loc 1 578 0
 1545 014e 03EB8103 		add	r3, r3, r1, lsl #2
 1546 0152 0131     		adds	r1, r1, #1
 1547 0154 1160     		str	r1, [r2]
 1548 0156 1968     		ldr	r1, [r3]	@ float
 1549              		.loc 1 579 0
 1550 0158 1368     		ldr	r3, [r2]
 1551              		.loc 1 578 0
 1552 015a C8F80010 		str	r1, [r8]	@ float
 1553              		.loc 1 579 0
 1554 015e C11A     		subs	r1, r0, r3
 1555 0160 C1F30A01 		ubfx	r1, r1, #0, #11
 1556 0164 C3F30A03 		ubfx	r3, r3, #0, #11
 1557 0168 58BF     		it	pl
 1558 016a 4B42     		rsbpl	r3, r1, #0
 1559 016c 1360     		str	r3, [r2]
 1560              		.loc 1 582 0
 1561 016e 654B     		ldr	r3, .L95+56
 1562              		.loc 1 581 0
 1563 0170 CCF800E0 		str	lr, [ip]	@ float
 1564              		.loc 1 582 0
 1565 0174 0121     		movs	r1, #1
 1566 0176 1970     		strb	r1, [r3]
 1567              		.loc 1 577 0
 1568 0178 DFF8A881 		ldr	r8, .L95+88
 1569              		.loc 1 584 0
 1570 017c 624A     		ldr	r2, .L95+60
 1571              		.loc 1 599 0
 1572 017e 1B78     		ldrb	r3, [r3]	@ zero_extendqisi2
 1573              		.loc 1 577 0
 1574 0180 C8F800E0 		str	lr, [r8]	@ float
 1575              		.loc 1 584 0
 1576 0184 1070     		strb	r0, [r2]
 1577              		.loc 1 599 0
 1578 0186 002B     		cmp	r3, #0
 1579 0188 50D0     		beq	.L82
 1580              	.L93:
 1581              		.loc 1 600 0
 1582 018a 604B     		ldr	r3, .L95+64
 1583 018c 93ED000A 		vldr.32	s0, [r3]
 1584 0190 FFF7FEFF 		bl	gpdrive_output_sample
 1585              	.LVL113:
 1586              		.loc 1 602 0
 1587 0194 5E4B     		ldr	r3, .L95+68
 1588 0196 1B78     		ldrb	r3, [r3]	@ zero_extendqisi2
 1589 0198 032B     		cmp	r3, #3
 1590 019a 47D1     		bne	.L82
 1591              	.LBB27:
 1592              		.loc 1 603 0
 1593 019c E38A     		ldrh	r3, [r4, #22]
 1594              		.loc 1 604 0
 1595 019e DFF89481 		ldr	r8, .L95+104
 1596              		.loc 1 606 0
ARM GAS  /tmp/ccOWIkkk.s 			page 29


 1597 01a2 5C4A     		ldr	r2, .L95+72
 1598              		.loc 1 604 0
 1599 01a4 D8ED007A 		vldr.32	s15, [r8]
 1600 01a8 D7ED005A 		vldr.32	s11, [r7]
 1601              		.loc 1 605 0
 1602 01ac 98ED027A 		vldr.32	s14, [r8, #8]
 1603              		.loc 1 603 0
 1604 01b0 9FED4F5A 		vldr.32	s10, .L95+36
 1605 01b4 9FED4F6A 		vldr.32	s12, .L95+40
 1606 01b8 08EE103A 		vmov	s16, r3	@ int
 1607              		.loc 1 605 0
 1608 01bc 2B68     		ldr	r3, [r5]
 1609              		.loc 1 604 0
 1610 01be 77EEE57A 		vsub.f32	s15, s15, s11
 1611              		.loc 1 605 0
 1612 01c2 D3ED706A 		vldr.32	s13, [r3, #448]
 1613 01c6 A6EEA77A 		vfma.f32	s14, s13, s15
 1614              		.loc 1 606 0
 1615 01ca 4046     		mov	r0, r8
 1616 01cc B7EE004A 		vmov.f32	s8, #1.0e+0
 1617              		.loc 1 605 0
 1618 01d0 88ED017A 		vstr.32	s14, [r8, #4]
 1619              		.loc 1 606 0
 1620 01d4 D3ED716A 		vldr.32	s13, [r3, #452]
 1621 01d8 D2ED004A 		vldr.32	s9, [r2]
 1622 01dc 98ED027A 		vldr.32	s14, [r8, #8]
 1623 01e0 C4EE245A 		vdiv.f32	s11, s8, s9
 1624 01e4 66EEA77A 		vmul.f32	s15, s13, s15
 1625              		.loc 1 603 0
 1626 01e8 B8EE488A 		vcvt.f32.u32	s16, s16
 1627              		.loc 1 606 0
 1628 01ec A7EEA57A 		vfma.f32	s14, s15, s11
 1629              		.loc 1 603 0
 1630 01f0 28EE058A 		vmul.f32	s16, s16, s10
 1631              		.loc 1 606 0
 1632 01f4 17EE103A 		vmov	r3, s14
 1633              		.loc 1 603 0
 1634 01f8 28EE068A 		vmul.f32	s16, s16, s12
 1635              	.LVL114:
 1636              		.loc 1 606 0
 1637 01fc 40F8083F 		str	r3, [r0, #8]!	@ float
 1638              		.loc 1 607 0
 1639 0200 B0EE480A 		vmov.f32	s0, s16
 1640 0204 FFF7FEFF 		bl	utils_truncate_number_abs
 1641              	.LVL115:
 1642              		.loc 1 608 0
 1643 0208 98ED010A 		vldr.32	s0, [r8, #4]
 1644 020c 80EE080A 		vdiv.f32	s0, s0, s16
 1645 0210 FFF7FEFF 		bl	set_modulation
 1646              	.LVL116:
 1647 0214 0AE0     		b	.L82
 1648              	.LVL117:
 1649              	.L73:
 1650              	.LBE27:
 1651              		.loc 1 561 0
 1652 0216 D7ED007A 		vldr.32	s15, [r7]
 1653 021a 71E7     		b	.L90
ARM GAS  /tmp/ccOWIkkk.s 			page 30


 1654              	.L77:
 1655              		.loc 1 592 0
 1656 021c 3A49     		ldr	r1, .L95+60
 1657 021e 0978     		ldrb	r1, [r1]	@ zero_extendqisi2
 1658 0220 0029     		cmp	r1, #0
 1659 0222 33D0     		beq	.L88
 1660 0224 374B     		ldr	r3, .L95+56
 1661              	.L79:
 1662              		.loc 1 599 0
 1663 0226 1B78     		ldrb	r3, [r3]	@ zero_extendqisi2
 1664 0228 002B     		cmp	r3, #0
 1665 022a AED1     		bne	.L93
 1666              	.L82:
 1667              		.loc 1 612 0
 1668 022c FFF7FEFF 		bl	ledpwm_update_pwm
 1669              	.LVL118:
 1670              		.loc 1 614 0
 1671 0230 3046     		mov	r0, r6
 1672 0232 FFF7FEFF 		bl	timer_seconds_elapsed_since
 1673              	.LVL119:
 1674              		.loc 1 615 0
 1675 0236 BDEC028B 		vldm	sp!, {d8}
 1676              		.cfi_remember_state
 1677              		.cfi_restore 80
 1678              		.cfi_restore 81
 1679              		.cfi_def_cfa_offset 24
 1680              		.loc 1 614 0
 1681 023a 374B     		ldr	r3, .L95+76
 1682 023c 83ED000A 		vstr.32	s0, [r3]
 1683              		.loc 1 615 0
 1684 0240 BDE8F081 		pop	{r4, r5, r6, r7, r8, pc}
 1685              	.LVL120:
 1686              	.L91:
 1687              		.cfi_restore_state
 1688              		.loc 1 549 0
 1689 0244 93ED0A7A 		vldr.32	s14, [r3, #40]
 1690 0248 B4EEE77A 		vcmpe.f32	s14, s15
 1691 024c F1EE10FA 		vmrs	APSR_nzcv, FPSCR
 1692 0250 CCBF     		ite	gt
 1693 0252 0220     		movgt	r0, #2
 1694 0254 0120     		movle	r0, #1
 1695 0256 0122     		movs	r2, #1
 1696 0258 0021     		movs	r1, #0
 1697 025a FFF7FEFF 		bl	mc_interface_fault_stop
 1698              	.LVL121:
 1699 025e 2B68     		ldr	r3, [r5]
 1700 0260 47E7     		b	.L70
 1701              	.LVL122:
 1702              	.L87:
 1703              		.loc 1 553 0
 1704 0262 254A     		ldr	r2, .L95+44
 1705 0264 0021     		movs	r1, #0
 1706 0266 1160     		str	r1, [r2]
 1707 0268 43E7     		b	.L70
 1708              	.LVL123:
 1709              	.L92:
 1710              		.loc 1 558 0
ARM GAS  /tmp/ccOWIkkk.s 			page 31


 1711 026a 0122     		movs	r2, #1
 1712 026c 0021     		movs	r1, #0
 1713 026e 0420     		movs	r0, #4
 1714 0270 FFF7FEFF 		bl	mc_interface_fault_stop
 1715              	.LVL124:
 1716 0274 2B68     		ldr	r3, [r5]
 1717 0276 4DE7     		b	.L74
 1718              	.L78:
 1719              		.loc 1 586 0
 1720 0278 DFF88C80 		ldr	r8, .L95+60
 1721 027c 98F80030 		ldrb	r3, [r8]	@ zero_extendqisi2
 1722 0280 0BB3     		cbz	r3, .L94
 1723              	.L80:
 1724              		.loc 1 590 0
 1725 0282 0123     		movs	r3, #1
 1726 0284 88F80030 		strb	r3, [r8]
 1727 0288 1E4B     		ldr	r3, .L95+56
 1728 028a CCE7     		b	.L79
 1729              	.L88:
 1730              		.loc 1 594 0
 1731 028c D3ED6E7A 		vldr.32	s15, [r3, #440]	@ int
 1732              		.loc 1 593 0
 1733 0290 224B     		ldr	r3, .L95+80
 1734 0292 DFED230A 		vldr.32	s1, .L95+84
 1735 0296 93ED002A 		vldr.32	s4, [r3]
 1736 029a 224B     		ldr	r3, .L95+88
 1737              		.loc 1 594 0
 1738 029c F8EEE77A 		vcvt.f32.s32	s15, s15
 1739              		.loc 1 593 0
 1740 02a0 B7EE001A 		vmov.f32	s2, #1.0e+0
 1741 02a4 37EE811A 		vadd.f32	s2, s15, s2
 1742 02a8 07EE902A 		vmov	s15, r2	@ int
 1743 02ac D3ED001A 		vldr.32	s3, [r3]
 1744 02b0 B8EEE70A 		vcvt.f32.s32	s0, s15
 1745 02b4 FFF7FEFF 		bl	utils_map
 1746              	.LVL125:
 1747 02b8 144A     		ldr	r2, .L95+64
 1748              		.loc 1 596 0
 1749 02ba 124B     		ldr	r3, .L95+56
 1750              		.loc 1 593 0
 1751 02bc 82ED000A 		vstr.32	s0, [r2]
 1752              		.loc 1 596 0
 1753 02c0 0122     		movs	r2, #1
 1754 02c2 1A70     		strb	r2, [r3]
 1755 02c4 AFE7     		b	.L79
 1756              	.L94:
 1757              		.loc 1 587 0
 1758 02c6 FFF7FEFF 		bl	stop_pwm_hw
 1759              	.LVL126:
 1760 02ca DAE7     		b	.L80
 1761              	.L96:
 1762              		.align	2
 1763              	.L95:
 1764 02cc 00000000 		.word	ADC_Value
 1765 02d0 00000000 		.word	.LANCHOR0
 1766 02d4 00000000 		.word	.LANCHOR11
 1767 02d8 00000000 		.word	.LANCHOR16
ARM GAS  /tmp/ccOWIkkk.s 			page 32


 1768 02dc 00000000 		.word	.LANCHOR17
 1769 02e0 00000000 		.word	.LANCHOR14
 1770 02e4 00000000 		.word	.LANCHOR12
 1771 02e8 00000000 		.word	.LANCHOR7
 1772 02ec 4008043F 		.word	1057228864
 1773 02f0 6740533A 		.word	978534503
 1774 02f4 ABAA5E42 		.word	1113500331
 1775 02f8 00000000 		.word	.LANCHOR22
 1776 02fc 00000000 		.word	.LANCHOR23
 1777 0300 00000000 		.word	m_sample_buffer
 1778 0304 00000000 		.word	.LANCHOR3
 1779 0308 00000000 		.word	.LANCHOR26
 1780 030c 00000000 		.word	.LANCHOR9
 1781 0310 00000000 		.word	.LANCHOR2
 1782 0314 00000000 		.word	.LANCHOR5
 1783 0318 00000000 		.word	.LANCHOR18
 1784 031c 00000000 		.word	.LANCHOR24
 1785 0320 00000000 		.word	0
 1786 0324 00000000 		.word	.LANCHOR25
 1787 0328 00000000 		.word	.LANCHOR6
 1788 032c 00000000 		.word	.LANCHOR10
 1789 0330 00000000 		.word	.LANCHOR13
 1790 0334 00000000 		.word	.LANCHOR19
 1791              		.cfi_endproc
 1792              	.LFE277:
 1793              		.size	adc_int_handler, .-adc_int_handler
 1794              		.section	.text.gpdrive_fill_buffer,"ax",%progbits
 1795              		.align	1
 1796              		.p2align 4,,15
 1797              		.global	gpdrive_fill_buffer
 1798              		.syntax unified
 1799              		.thumb
 1800              		.thumb_func
 1801              		.fpu fpv4-sp-d16
 1802              		.type	gpdrive_fill_buffer, %function
 1803              	gpdrive_fill_buffer:
 1804              	.LFB263:
 1805              		.loc 1 333 0
 1806              		.cfi_startproc
 1807              		@ args = 0, pretend = 0, frame = 0
 1808              		@ frame_needed = 0, uses_anonymous_args = 0
 1809              		@ link register save eliminated.
 1810              	.LVL127:
 1811              	.LBB28:
 1812              		.loc 1 334 0
 1813 0000 0029     		cmp	r1, #0
 1814 0002 19DD     		ble	.L102
 1815              	.LBE28:
 1816              		.loc 1 333 0
 1817 0004 70B4     		push	{r4, r5, r6}
 1818              		.cfi_def_cfa_offset 12
 1819              		.cfi_offset 4, -12
 1820              		.cfi_offset 5, -8
 1821              		.cfi_offset 6, -4
 1822 0006 0D4A     		ldr	r2, .L105
 1823 0008 0D4E     		ldr	r6, .L105+4
 1824 000a 00EB8101 		add	r1, r0, r1, lsl #2
ARM GAS  /tmp/ccOWIkkk.s 			page 33


 1825              	.LVL128:
 1826              	.L99:
 1827              	.LBB29:
 1828              		.loc 1 335 0 discriminator 3
 1829 000e 1368     		ldr	r3, [r2]
 1830 0010 50F8044B 		ldr	r4, [r0], #4	@ float
 1831 0014 5D1C     		adds	r5, r3, #1
 1832 0016 06EB8303 		add	r3, r6, r3, lsl #2
 1833 001a 1560     		str	r5, [r2]
 1834 001c 1C60     		str	r4, [r3]	@ float
 1835              		.loc 1 336 0 discriminator 3
 1836 001e 1368     		ldr	r3, [r2]
 1837 0020 5C42     		rsbs	r4, r3, #0
 1838 0022 C4F30A04 		ubfx	r4, r4, #0, #11
 1839 0026 C3F30A03 		ubfx	r3, r3, #0, #11
 1840 002a 58BF     		it	pl
 1841 002c 6342     		rsbpl	r3, r4, #0
 1842              		.loc 1 334 0 discriminator 3
 1843 002e 8142     		cmp	r1, r0
 1844              		.loc 1 336 0 discriminator 3
 1845 0030 1360     		str	r3, [r2]
 1846              		.loc 1 334 0 discriminator 3
 1847 0032 ECD1     		bne	.L99
 1848              	.LBE29:
 1849              		.loc 1 338 0
 1850 0034 70BC     		pop	{r4, r5, r6}
 1851              		.cfi_restore 6
 1852              		.cfi_restore 5
 1853              		.cfi_restore 4
 1854              		.cfi_def_cfa_offset 0
 1855 0036 7047     		bx	lr
 1856              	.LVL129:
 1857              	.L102:
 1858 0038 7047     		bx	lr
 1859              	.L106:
 1860 003a 00BF     		.align	2
 1861              	.L105:
 1862 003c 04200000 		.word	m_sample_buffer+8196
 1863 0040 00000000 		.word	m_sample_buffer
 1864              		.cfi_endproc
 1865              	.LFE263:
 1866              		.size	gpdrive_fill_buffer, .-gpdrive_fill_buffer
 1867              		.section	.text.gpdrive_add_buffer_sample,"ax",%progbits
 1868              		.align	1
 1869              		.p2align 4,,15
 1870              		.global	gpdrive_add_buffer_sample
 1871              		.syntax unified
 1872              		.thumb
 1873              		.thumb_func
 1874              		.fpu fpv4-sp-d16
 1875              		.type	gpdrive_add_buffer_sample, %function
 1876              	gpdrive_add_buffer_sample:
 1877              	.LFB264:
 1878              		.loc 1 340 0
 1879              		.cfi_startproc
 1880              		@ args = 0, pretend = 0, frame = 0
 1881              		@ frame_needed = 0, uses_anonymous_args = 0
ARM GAS  /tmp/ccOWIkkk.s 			page 34


 1882              		@ link register save eliminated.
 1883              	.LVL130:
 1884              		.loc 1 341 0
 1885 0000 094A     		ldr	r2, .L108
 1886 0002 42F20401 		movw	r1, #8196
 1887 0006 5358     		ldr	r3, [r2, r1]
 1888 0008 581C     		adds	r0, r3, #1
 1889 000a 5050     		str	r0, [r2, r1]
 1890 000c 02EB8303 		add	r3, r2, r3, lsl #2
 1891 0010 83ED000A 		vstr.32	s0, [r3]
 1892              		.loc 1 342 0
 1893 0014 5358     		ldr	r3, [r2, r1]
 1894 0016 5842     		rsbs	r0, r3, #0
 1895 0018 C0F30A00 		ubfx	r0, r0, #0, #11
 1896 001c C3F30A03 		ubfx	r3, r3, #0, #11
 1897 0020 58BF     		it	pl
 1898 0022 4342     		rsbpl	r3, r0, #0
 1899 0024 5350     		str	r3, [r2, r1]
 1900              		.loc 1 343 0
 1901 0026 7047     		bx	lr
 1902              	.L109:
 1903              		.align	2
 1904              	.L108:
 1905 0028 00000000 		.word	m_sample_buffer
 1906              		.cfi_endproc
 1907              	.LFE264:
 1908              		.size	gpdrive_add_buffer_sample, .-gpdrive_add_buffer_sample
 1909              		.section	.text.gpdrive_add_buffer_sample_int,"ax",%progbits
 1910              		.align	1
 1911              		.p2align 4,,15
 1912              		.global	gpdrive_add_buffer_sample_int
 1913              		.syntax unified
 1914              		.thumb
 1915              		.thumb_func
 1916              		.fpu fpv4-sp-d16
 1917              		.type	gpdrive_add_buffer_sample_int, %function
 1918              	gpdrive_add_buffer_sample_int:
 1919              	.LFB265:
 1920              		.loc 1 345 0
 1921              		.cfi_startproc
 1922              		@ args = 0, pretend = 0, frame = 0
 1923              		@ frame_needed = 0, uses_anonymous_args = 0
 1924              		@ link register save eliminated.
 1925              	.LVL131:
 1926              		.loc 1 346 0
 1927 0000 0E4A     		ldr	r2, .L111
 1928 0002 0F4B     		ldr	r3, .L111+4
 1929 0004 42F20401 		movw	r1, #8196
 1930 0008 07EE900A 		vmov	s15, r0	@ int
 1931 000c 93ED007A 		vldr.32	s14, [r3]
 1932 0010 5358     		ldr	r3, [r2, r1]
 1933 0012 F8EEE77A 		vcvt.f32.s32	s15, s15
 1934 0016 581C     		adds	r0, r3, #1
 1935              	.LVL132:
 1936 0018 67EE877A 		vmul.f32	s15, s15, s14
 1937 001c 5050     		str	r0, [r2, r1]
 1938 001e 02EB8303 		add	r3, r2, r3, lsl #2
ARM GAS  /tmp/ccOWIkkk.s 			page 35


 1939 0022 C3ED007A 		vstr.32	s15, [r3]
 1940              		.loc 1 347 0
 1941 0026 5358     		ldr	r3, [r2, r1]
 1942 0028 5842     		rsbs	r0, r3, #0
 1943 002a C0F30A00 		ubfx	r0, r0, #0, #11
 1944 002e C3F30A03 		ubfx	r3, r3, #0, #11
 1945 0032 58BF     		it	pl
 1946 0034 4342     		rsbpl	r3, r0, #0
 1947 0036 5350     		str	r3, [r2, r1]
 1948              		.loc 1 348 0
 1949 0038 7047     		bx	lr
 1950              	.L112:
 1951 003a 00BF     		.align	2
 1952              	.L111:
 1953 003c 00000000 		.word	m_sample_buffer
 1954 0040 00000000 		.word	.LANCHOR8
 1955              		.cfi_endproc
 1956              	.LFE265:
 1957              		.size	gpdrive_add_buffer_sample_int, .-gpdrive_add_buffer_sample_int
 1958              		.section	.text.gpdrive_set_buffer_int_scale,"ax",%progbits
 1959              		.align	1
 1960              		.p2align 4,,15
 1961              		.global	gpdrive_set_buffer_int_scale
 1962              		.syntax unified
 1963              		.thumb
 1964              		.thumb_func
 1965              		.fpu fpv4-sp-d16
 1966              		.type	gpdrive_set_buffer_int_scale, %function
 1967              	gpdrive_set_buffer_int_scale:
 1968              	.LFB266:
 1969              		.loc 1 350 0
 1970              		.cfi_startproc
 1971              		@ args = 0, pretend = 0, frame = 0
 1972              		@ frame_needed = 0, uses_anonymous_args = 0
 1973              		@ link register save eliminated.
 1974              	.LVL133:
 1975              		.loc 1 351 0
 1976 0000 014B     		ldr	r3, .L114
 1977 0002 83ED000A 		vstr.32	s0, [r3]
 1978              		.loc 1 352 0
 1979 0006 7047     		bx	lr
 1980              	.L115:
 1981              		.align	2
 1982              	.L114:
 1983 0008 00000000 		.word	.LANCHOR8
 1984              		.cfi_endproc
 1985              	.LFE266:
 1986              		.size	gpdrive_set_buffer_int_scale, .-gpdrive_set_buffer_int_scale
 1987              		.section	.text.gpdrive_set_switching_frequency,"ax",%progbits
 1988              		.align	1
 1989              		.p2align 4,,15
 1990              		.global	gpdrive_set_switching_frequency
 1991              		.syntax unified
 1992              		.thumb
 1993              		.thumb_func
 1994              		.fpu fpv4-sp-d16
 1995              		.type	gpdrive_set_switching_frequency, %function
ARM GAS  /tmp/ccOWIkkk.s 			page 36


 1996              	gpdrive_set_switching_frequency:
 1997              	.LFB267:
 1998              		.loc 1 354 0
 1999              		.cfi_startproc
 2000              		@ args = 0, pretend = 0, frame = 0
 2001              		@ frame_needed = 0, uses_anonymous_args = 0
 2002              		@ link register save eliminated.
 2003              	.LVL134:
 2004              		.loc 1 355 0
 2005 0000 094B     		ldr	r3, .L117
 2006              		.loc 1 356 0
 2007 0002 0A48     		ldr	r0, .L117+4
 2008              		.loc 1 355 0
 2009 0004 83ED000A 		vstr.32	s0, [r3]
 2010              		.loc 1 356 0
 2011 0008 D3ED007A 		vldr.32	s15, [r3]
 2012              		.loc 1 357 0
 2013 000c 0849     		ldr	r1, .L117+8
 2014              		.loc 1 356 0
 2015 000e 094A     		ldr	r2, .L117+12
 2016 0010 FDEEE77A 		vcvt.s32.f32	s15, s15
 2017 0014 17EE903A 		vmov	r3, s15	@ int
 2018 0018 92FBF3F3 		sdiv	r3, r2, r3
 2019 001c C362     		str	r3, [r0, #44]
 2020              		.loc 1 357 0
 2021 001e 91ED000A 		vldr.32	s0, [r1]
 2022              	.LVL135:
 2023 0022 FFF7FEBF 		b	set_modulation
 2024              	.LVL136:
 2025              	.L118:
 2026 0026 00BF     		.align	2
 2027              	.L117:
 2028 0028 00000000 		.word	.LANCHOR5
 2029 002c 00000140 		.word	1073807360
 2030 0030 00000000 		.word	.LANCHOR1
 2031 0034 007A030A 		.word	168000000
 2032              		.cfi_endproc
 2033              	.LFE267:
 2034              		.size	gpdrive_set_switching_frequency, .-gpdrive_set_switching_frequency
 2035              		.section	.text.gpdrive_buffer_size_left,"ax",%progbits
 2036              		.align	1
 2037              		.p2align 4,,15
 2038              		.global	gpdrive_buffer_size_left
 2039              		.syntax unified
 2040              		.thumb
 2041              		.thumb_func
 2042              		.fpu fpv4-sp-d16
 2043              		.type	gpdrive_buffer_size_left, %function
 2044              	gpdrive_buffer_size_left:
 2045              	.LFB268:
 2046              		.loc 1 360 0
 2047              		.cfi_startproc
 2048              		@ args = 0, pretend = 0, frame = 0
 2049              		@ frame_needed = 0, uses_anonymous_args = 0
 2050              		@ link register save eliminated.
 2051              		.loc 1 361 0
 2052 0000 0B4B     		ldr	r3, .L124
ARM GAS  /tmp/ccOWIkkk.s 			page 37


 2053 0002 42F20402 		movw	r2, #8196
 2054 0006 03F50051 		add	r1, r3, #8192
 2055              		.loc 1 360 0
 2056 000a 10B4     		push	{r4}
 2057              		.cfi_def_cfa_offset 4
 2058              		.cfi_offset 4, -4
 2059              		.loc 1 361 0
 2060 000c 9C58     		ldr	r4, [r3, r2]
 2061 000e 0868     		ldr	r0, [r1]
 2062              		.loc 1 363 0
 2063 0010 8442     		cmp	r4, r0
 2064 0012 07DC     		bgt	.L123
 2065              		.loc 1 363 0 is_stmt 0 discriminator 2
 2066 0014 0868     		ldr	r0, [r1]
 2067 0016 9B58     		ldr	r3, [r3, r2]
 2068              		.loc 1 364 0 is_stmt 1 discriminator 2
 2069 0018 5DF8044B 		ldr	r4, [sp], #4
 2070              		.cfi_remember_state
 2071              		.cfi_restore 4
 2072              		.cfi_def_cfa_offset 0
 2073              		.loc 1 363 0 discriminator 2
 2074 001c C0F50060 		rsb	r0, r0, #2048
 2075 0020 1844     		add	r0, r0, r3
 2076              		.loc 1 364 0 discriminator 2
 2077 0022 7047     		bx	lr
 2078              	.L123:
 2079              		.cfi_restore_state
 2080              	.LBB32:
 2081              	.LBB33:
 2082              		.loc 1 362 0
 2083 0024 9858     		ldr	r0, [r3, r2]
 2084 0026 0B68     		ldr	r3, [r1]
 2085              	.LBE33:
 2086              	.LBE32:
 2087              		.loc 1 364 0
 2088 0028 5DF8044B 		ldr	r4, [sp], #4
 2089              		.cfi_restore 4
 2090              		.cfi_def_cfa_offset 0
 2091              	.LBB35:
 2092              	.LBB34:
 2093              		.loc 1 363 0
 2094 002c C01A     		subs	r0, r0, r3
 2095              	.LBE34:
 2096              	.LBE35:
 2097              		.loc 1 364 0
 2098 002e 7047     		bx	lr
 2099              	.L125:
 2100              		.align	2
 2101              	.L124:
 2102 0030 00000000 		.word	m_sample_buffer
 2103              		.cfi_endproc
 2104              	.LFE268:
 2105              		.size	gpdrive_buffer_size_left, .-gpdrive_buffer_size_left
 2106              		.section	.text.timer_thread,"ax",%progbits
 2107              		.align	1
 2108              		.p2align 4,,15
 2109              		.syntax unified
ARM GAS  /tmp/ccOWIkkk.s 			page 38


 2110              		.thumb
 2111              		.thumb_func
 2112              		.fpu fpv4-sp-d16
 2113              		.type	timer_thread, %function
 2114              	timer_thread:
 2115              	.LFB278:
 2116              		.loc 1 617 0
 2117              		.cfi_startproc
 2118              		@ args = 0, pretend = 0, frame = 0
 2119              		@ frame_needed = 0, uses_anonymous_args = 0
 2120              	.LVL137:
 2121 0000 2DE9F041 		push	{r4, r5, r6, r7, r8, lr}
 2122              		.cfi_def_cfa_offset 24
 2123              		.cfi_offset 4, -24
 2124              		.cfi_offset 5, -20
 2125              		.cfi_offset 6, -16
 2126              		.cfi_offset 7, -12
 2127              		.cfi_offset 8, -8
 2128              		.cfi_offset 14, -4
 2129              	.LBB36:
 2130              	.LBB37:
 2131              		.file 2 "ChibiOS_3.0.5/os/rt/include/chregistry.h"
 2132              		.loc 2 135 0
 2133 0004 154B     		ldr	r3, .L137
 2134              	.LBE37:
 2135              	.LBE36:
 2136              	.LBB40:
 2137              		.loc 1 623 0
 2138 0006 164C     		ldr	r4, .L137+4
 2139              	.LBE40:
 2140              	.LBB41:
 2141              	.LBB38:
 2142              		.loc 2 135 0
 2143 0008 9A69     		ldr	r2, [r3, #24]
 2144              	.LBE38:
 2145              	.LBE41:
 2146              	.LBB42:
 2147              		.loc 1 623 0
 2148 000a 2378     		ldrb	r3, [r4]	@ zero_extendqisi2
 2149              	.LBE42:
 2150              	.LBB43:
 2151              	.LBB39:
 2152              		.loc 2 135 0
 2153 000c 1549     		ldr	r1, .L137+8
 2154 000e 9161     		str	r1, [r2, #24]
 2155              	.LBE39:
 2156              	.LBE43:
 2157              	.LBB44:
 2158              		.loc 1 623 0
 2159 0010 83B9     		cbnz	r3, .L131
 2160 0012 154D     		ldr	r5, .L137+12
 2161              		.loc 1 630 0
 2162 0014 154F     		ldr	r7, .L137+16
 2163 0016 03F0FF06 		and	r6, r3, #255
 2164              		.loc 1 634 0
 2165 001a 4FF00108 		mov	r8, #1
 2166              	.LVL138:
ARM GAS  /tmp/ccOWIkkk.s 			page 39


 2167              	.L127:
 2168              		.loc 1 629 0
 2169 001e FFF7FEFF 		bl	gpdrive_buffer_size_left
 2170              	.LVL139:
 2171 0022 0028     		cmp	r0, #0
 2172 0024 0ADC     		bgt	.L135
 2173              	.L128:
 2174              		.loc 1 636 0
 2175 0026 2E70     		strb	r6, [r5]
 2176              	.L130:
 2177              		.loc 1 639 0
 2178 0028 0A20     		movs	r0, #10
 2179 002a FFF7FEFF 		bl	chThdSleep
 2180              	.LVL140:
 2181              		.loc 1 623 0
 2182 002e 2378     		ldrb	r3, [r4]	@ zero_extendqisi2
 2183 0030 002B     		cmp	r3, #0
 2184 0032 F4D0     		beq	.L127
 2185              	.L131:
 2186              		.loc 1 624 0
 2187 0034 0023     		movs	r3, #0
 2188 0036 2370     		strb	r3, [r4]
 2189              	.LBE44:
 2190              		.loc 1 641 0
 2191 0038 BDE8F081 		pop	{r4, r5, r6, r7, r8, pc}
 2192              	.L135:
 2193              	.LBB45:
 2194              		.loc 1 630 0 discriminator 1
 2195 003c FFF7FEFF 		bl	gpdrive_buffer_size_left
 2196              	.LVL141:
 2197 0040 3B68     		ldr	r3, [r7]
 2198 0042 D3F8B431 		ldr	r3, [r3, #436]
 2199              		.loc 1 629 0 discriminator 1
 2200 0046 9842     		cmp	r0, r3
 2201 0048 EDDA     		bge	.L128
 2202              		.loc 1 631 0
 2203 004a 2B78     		ldrb	r3, [r5]	@ zero_extendqisi2
 2204 004c 13B1     		cbz	r3, .L136
 2205              	.L129:
 2206              		.loc 1 634 0
 2207 004e 85F80080 		strb	r8, [r5]
 2208 0052 E9E7     		b	.L130
 2209              	.L136:
 2210              		.loc 1 632 0
 2211 0054 FFF7FEFF 		bl	commands_send_gpd_buffer_notify
 2212              	.LVL142:
 2213 0058 F9E7     		b	.L129
 2214              	.L138:
 2215 005a 00BF     		.align	2
 2216              	.L137:
 2217 005c 00000000 		.word	ch
 2218 0060 00000000 		.word	.LANCHOR20
 2219 0064 00000000 		.word	.LC0
 2220 0068 00000000 		.word	.LANCHOR27
 2221 006c 00000000 		.word	.LANCHOR0
 2222              	.LBE45:
 2223              		.cfi_endproc
ARM GAS  /tmp/ccOWIkkk.s 			page 40


 2224              	.LFE278:
 2225              		.size	timer_thread, .-timer_thread
 2226              		.section	.text.gpdrive_set_mode,"ax",%progbits
 2227              		.align	1
 2228              		.p2align 4,,15
 2229              		.global	gpdrive_set_mode
 2230              		.syntax unified
 2231              		.thumb
 2232              		.thumb_func
 2233              		.fpu fpv4-sp-d16
 2234              		.type	gpdrive_set_mode, %function
 2235              	gpdrive_set_mode:
 2236              	.LFB269:
 2237              		.loc 1 366 0
 2238              		.cfi_startproc
 2239              		@ args = 0, pretend = 0, frame = 0
 2240              		@ frame_needed = 0, uses_anonymous_args = 0
 2241              		@ link register save eliminated.
 2242              	.LVL143:
 2243              		.loc 1 367 0
 2244 0000 034B     		ldr	r3, .L142
 2245 0002 1870     		strb	r0, [r3]
 2246              		.loc 1 369 0
 2247 0004 1B78     		ldrb	r3, [r3]	@ zero_extendqisi2
 2248 0006 03B1     		cbz	r3, .L141
 2249              		.loc 1 372 0
 2250 0008 7047     		bx	lr
 2251              	.L141:
 2252              		.loc 1 370 0
 2253 000a FFF7FEBF 		b	stop_pwm_hw
 2254              	.LVL144:
 2255              	.L143:
 2256 000e 00BF     		.align	2
 2257              	.L142:
 2258 0010 00000000 		.word	.LANCHOR2
 2259              		.cfi_endproc
 2260              	.LFE269:
 2261              		.size	gpdrive_set_mode, .-gpdrive_set_mode
 2262              		.section	.text.gpdrive_get_current,"ax",%progbits
 2263              		.align	1
 2264              		.p2align 4,,15
 2265              		.global	gpdrive_get_current
 2266              		.syntax unified
 2267              		.thumb
 2268              		.thumb_func
 2269              		.fpu fpv4-sp-d16
 2270              		.type	gpdrive_get_current, %function
 2271              	gpdrive_get_current:
 2272              	.LFB270:
 2273              		.loc 1 374 0
 2274              		.cfi_startproc
 2275              		@ args = 0, pretend = 0, frame = 0
 2276              		@ frame_needed = 0, uses_anonymous_args = 0
 2277              		@ link register save eliminated.
 2278              		.loc 1 375 0
 2279 0000 014B     		ldr	r3, .L145
 2280 0002 93ED000A 		vldr.32	s0, [r3]
ARM GAS  /tmp/ccOWIkkk.s 			page 41


 2281              		.loc 1 376 0
 2282 0006 7047     		bx	lr
 2283              	.L146:
 2284              		.align	2
 2285              	.L145:
 2286 0008 00000000 		.word	.LANCHOR6
 2287              		.cfi_endproc
 2288              	.LFE270:
 2289              		.size	gpdrive_get_current, .-gpdrive_get_current
 2290              		.section	.text.gpdrive_get_current_filtered,"ax",%progbits
 2291              		.align	1
 2292              		.p2align 4,,15
 2293              		.global	gpdrive_get_current_filtered
 2294              		.syntax unified
 2295              		.thumb
 2296              		.thumb_func
 2297              		.fpu fpv4-sp-d16
 2298              		.type	gpdrive_get_current_filtered, %function
 2299              	gpdrive_get_current_filtered:
 2300              	.LFB271:
 2301              		.loc 1 378 0
 2302              		.cfi_startproc
 2303              		@ args = 0, pretend = 0, frame = 0
 2304              		@ frame_needed = 0, uses_anonymous_args = 0
 2305              		@ link register save eliminated.
 2306              		.loc 1 379 0
 2307 0000 014B     		ldr	r3, .L148
 2308 0002 93ED000A 		vldr.32	s0, [r3]
 2309              		.loc 1 380 0
 2310 0006 7047     		bx	lr
 2311              	.L149:
 2312              		.align	2
 2313              	.L148:
 2314 0008 00000000 		.word	.LANCHOR7
 2315              		.cfi_endproc
 2316              	.LFE271:
 2317              		.size	gpdrive_get_current_filtered, .-gpdrive_get_current_filtered
 2318              		.section	.text.gpdrive_get_modulation,"ax",%progbits
 2319              		.align	1
 2320              		.p2align 4,,15
 2321              		.global	gpdrive_get_modulation
 2322              		.syntax unified
 2323              		.thumb
 2324              		.thumb_func
 2325              		.fpu fpv4-sp-d16
 2326              		.type	gpdrive_get_modulation, %function
 2327              	gpdrive_get_modulation:
 2328              	.LFB272:
 2329              		.loc 1 382 0
 2330              		.cfi_startproc
 2331              		@ args = 0, pretend = 0, frame = 0
 2332              		@ frame_needed = 0, uses_anonymous_args = 0
 2333              		@ link register save eliminated.
 2334              		.loc 1 383 0
 2335 0000 014B     		ldr	r3, .L151
 2336 0002 93ED000A 		vldr.32	s0, [r3]
 2337              		.loc 1 384 0
ARM GAS  /tmp/ccOWIkkk.s 			page 42


 2338 0006 7047     		bx	lr
 2339              	.L152:
 2340              		.align	2
 2341              	.L151:
 2342 0008 00000000 		.word	.LANCHOR1
 2343              		.cfi_endproc
 2344              	.LFE272:
 2345              		.size	gpdrive_get_modulation, .-gpdrive_get_modulation
 2346              		.section	.text.gpdrive_get_last_adc_isr_duration,"ax",%progbits
 2347              		.align	1
 2348              		.p2align 4,,15
 2349              		.global	gpdrive_get_last_adc_isr_duration
 2350              		.syntax unified
 2351              		.thumb
 2352              		.thumb_func
 2353              		.fpu fpv4-sp-d16
 2354              		.type	gpdrive_get_last_adc_isr_duration, %function
 2355              	gpdrive_get_last_adc_isr_duration:
 2356              	.LFB273:
 2357              		.loc 1 386 0
 2358              		.cfi_startproc
 2359              		@ args = 0, pretend = 0, frame = 0
 2360              		@ frame_needed = 0, uses_anonymous_args = 0
 2361              		@ link register save eliminated.
 2362              		.loc 1 387 0
 2363 0000 014B     		ldr	r3, .L154
 2364 0002 93ED000A 		vldr.32	s0, [r3]
 2365              		.loc 1 388 0
 2366 0006 7047     		bx	lr
 2367              	.L155:
 2368              		.align	2
 2369              	.L154:
 2370 0008 00000000 		.word	.LANCHOR18
 2371              		.cfi_endproc
 2372              	.LFE273:
 2373              		.size	gpdrive_get_last_adc_isr_duration, .-gpdrive_get_last_adc_isr_duration
 2374              		.section	.bss.buffer_last.13245,"aw",%nobits
 2375              		.align	2
 2376              		.set	.LANCHOR25,. + 0
 2377              		.type	buffer_last.13245, %object
 2378              		.size	buffer_last.13245, 4
 2379              	buffer_last.13245:
 2380 0000 00000000 		.space	4
 2381              		.section	.bss.buffer_next.13246,"aw",%nobits
 2382              		.align	2
 2383              		.set	.LANCHOR24,. + 0
 2384              		.type	buffer_next.13246, %object
 2385              		.size	buffer_next.13246, 4
 2386              	buffer_next.13246:
 2387 0000 00000000 		.space	4
 2388              		.section	.bss.interpol.13244,"aw",%nobits
 2389              		.align	2
 2390              		.set	.LANCHOR23,. + 0
 2391              		.type	interpol.13244, %object
 2392              		.size	interpol.13244, 4
 2393              	interpol.13244:
 2394 0000 00000000 		.space	4
ARM GAS  /tmp/ccOWIkkk.s 			page 43


 2395              		.section	.bss.m_buffer_int_scale,"aw",%nobits
 2396              		.align	2
 2397              		.set	.LANCHOR8,. + 0
 2398              		.type	m_buffer_int_scale, %object
 2399              		.size	m_buffer_int_scale, 4
 2400              	m_buffer_int_scale:
 2401 0000 00000000 		.space	4
 2402              		.section	.bss.m_conf,"aw",%nobits
 2403              		.align	2
 2404              		.set	.LANCHOR0,. + 0
 2405              		.type	m_conf, %object
 2406              		.size	m_conf, 4
 2407              	m_conf:
 2408 0000 00000000 		.space	4
 2409              		.section	.bss.m_curr0_offset,"aw",%nobits
 2410              		.align	2
 2411              		.set	.LANCHOR13,. + 0
 2412              		.type	m_curr0_offset, %object
 2413              		.size	m_curr0_offset, 4
 2414              	m_curr0_offset:
 2415 0000 00000000 		.space	4
 2416              		.section	.bss.m_curr0_sum,"aw",%nobits
 2417              		.align	2
 2418              		.set	.LANCHOR10,. + 0
 2419              		.type	m_curr0_sum, %object
 2420              		.size	m_curr0_sum, 4
 2421              	m_curr0_sum:
 2422 0000 00000000 		.space	4
 2423              		.section	.bss.m_curr1_offset,"aw",%nobits
 2424              		.align	2
 2425              		.set	.LANCHOR14,. + 0
 2426              		.type	m_curr1_offset, %object
 2427              		.size	m_curr1_offset, 4
 2428              	m_curr1_offset:
 2429 0000 00000000 		.space	4
 2430              		.section	.bss.m_curr1_sum,"aw",%nobits
 2431              		.align	2
 2432              		.set	.LANCHOR11,. + 0
 2433              		.type	m_curr1_sum, %object
 2434              		.size	m_curr1_sum, 4
 2435              	m_curr1_sum:
 2436 0000 00000000 		.space	4
 2437              		.section	.bss.m_curr2_offset,"aw",%nobits
 2438              		.align	2
 2439              		.set	.LANCHOR17,. + 0
 2440              		.type	m_curr2_offset, %object
 2441              		.size	m_curr2_offset, 4
 2442              	m_curr2_offset:
 2443 0000 00000000 		.space	4
 2444              		.section	.bss.m_curr2_sum,"aw",%nobits
 2445              		.align	2
 2446              		.set	.LANCHOR16,. + 0
 2447              		.type	m_curr2_sum, %object
 2448              		.size	m_curr2_sum, 4
 2449              	m_curr2_sum:
 2450 0000 00000000 		.space	4
 2451              		.section	.bss.m_curr_samples,"aw",%nobits
ARM GAS  /tmp/ccOWIkkk.s 			page 44


 2452              		.align	2
 2453              		.set	.LANCHOR12,. + 0
 2454              		.type	m_curr_samples, %object
 2455              		.size	m_curr_samples, 4
 2456              	m_curr_samples:
 2457 0000 00000000 		.space	4
 2458              		.section	.bss.m_current_now,"aw",%nobits
 2459              		.align	2
 2460              		.set	.LANCHOR6,. + 0
 2461              		.type	m_current_now, %object
 2462              		.size	m_current_now, 4
 2463              	m_current_now:
 2464 0000 00000000 		.space	4
 2465              		.section	.bss.m_current_now_filtered,"aw",%nobits
 2466              		.align	2
 2467              		.set	.LANCHOR7,. + 0
 2468              		.type	m_current_now_filtered, %object
 2469              		.size	m_current_now_filtered, 4
 2470              	m_current_now_filtered:
 2471 0000 00000000 		.space	4
 2472              		.section	.bss.m_current_state,"aw",%nobits
 2473              		.align	2
 2474              		.set	.LANCHOR19,. + 0
 2475              		.type	m_current_state, %object
 2476              		.size	m_current_state, 12
 2477              	m_current_state:
 2478 0000 00000000 		.space	12
 2478      00000000 
 2478      00000000 
 2479              		.section	.bss.m_dccal_done,"aw",%nobits
 2480              		.set	.LANCHOR15,. + 0
 2481              		.type	m_dccal_done, %object
 2482              		.size	m_dccal_done, 1
 2483              	m_dccal_done:
 2484 0000 00       		.space	1
 2485              		.section	.bss.m_fsw_now,"aw",%nobits
 2486              		.align	2
 2487              		.set	.LANCHOR5,. + 0
 2488              		.type	m_fsw_now, %object
 2489              		.size	m_fsw_now, 4
 2490              	m_fsw_now:
 2491 0000 00000000 		.space	4
 2492              		.section	.bss.m_init_done,"aw",%nobits
 2493              		.set	.LANCHOR4,. + 0
 2494              		.type	m_init_done, %object
 2495              		.size	m_init_done, 1
 2496              	m_init_done:
 2497 0000 00       		.space	1
 2498              		.section	.bss.m_is_running,"aw",%nobits
 2499              		.set	.LANCHOR3,. + 0
 2500              		.type	m_is_running, %object
 2501              		.size	m_is_running, 1
 2502              	m_is_running:
 2503 0000 00       		.space	1
 2504              		.section	.bss.m_last_adc_isr_duration,"aw",%nobits
 2505              		.align	2
 2506              		.set	.LANCHOR18,. + 0
ARM GAS  /tmp/ccOWIkkk.s 			page 45


 2507              		.type	m_last_adc_isr_duration, %object
 2508              		.size	m_last_adc_isr_duration, 4
 2509              	m_last_adc_isr_duration:
 2510 0000 00000000 		.space	4
 2511              		.section	.bss.m_mod_now,"aw",%nobits
 2512              		.align	2
 2513              		.set	.LANCHOR1,. + 0
 2514              		.type	m_mod_now, %object
 2515              		.size	m_mod_now, 4
 2516              	m_mod_now:
 2517 0000 00000000 		.space	4
 2518              		.section	.bss.m_output_mode,"aw",%nobits
 2519              		.set	.LANCHOR2,. + 0
 2520              		.type	m_output_mode, %object
 2521              		.size	m_output_mode, 1
 2522              	m_output_mode:
 2523 0000 00       		.space	1
 2524              		.section	.bss.m_output_now,"aw",%nobits
 2525              		.align	2
 2526              		.set	.LANCHOR9,. + 0
 2527              		.type	m_output_now, %object
 2528              		.size	m_output_now, 4
 2529              	m_output_now:
 2530 0000 00000000 		.space	4
 2531              		.section	.bss.m_sample_buffer,"aw",%nobits
 2532              		.align	2
 2533              		.type	m_sample_buffer, %object
 2534              		.size	m_sample_buffer, 8200
 2535              	m_sample_buffer:
 2536 0000 00000000 		.space	8200
 2536      00000000 
 2536      00000000 
 2536      00000000 
 2536      00000000 
 2537              		.section	.bss.timer_thd_stop,"aw",%nobits
 2538              		.set	.LANCHOR20,. + 0
 2539              		.type	timer_thd_stop, %object
 2540              		.size	timer_thd_stop, 1
 2541              	timer_thd_stop:
 2542 0000 00       		.space	1
 2543              		.section	.bss.timer_thread_wa,"aw",%nobits
 2544              		.align	3
 2545              		.set	.LANCHOR21,. + 0
 2546              		.type	timer_thread_wa, %object
 2547              		.size	timer_thread_wa, 928
 2548              	timer_thread_wa:
 2549 0000 00000000 		.space	928
 2549      00000000 
 2549      00000000 
 2549      00000000 
 2549      00000000 
 2550              		.section	.bss.wrong_voltage_iterations.13242,"aw",%nobits
 2551              		.align	2
 2552              		.set	.LANCHOR22,. + 0
 2553              		.type	wrong_voltage_iterations.13242, %object
 2554              		.size	wrong_voltage_iterations.13242, 4
 2555              	wrong_voltage_iterations.13242:
ARM GAS  /tmp/ccOWIkkk.s 			page 46


 2556 0000 00000000 		.space	4
 2557              		.section	.data.buffer_empty_before.13252,"aw",%progbits
 2558              		.set	.LANCHOR27,. + 0
 2559              		.type	buffer_empty_before.13252, %object
 2560              		.size	buffer_empty_before.13252, 1
 2561              	buffer_empty_before.13252:
 2562 0000 01       		.byte	1
 2563              		.section	.data.buffer_was_empty.13243,"aw",%progbits
 2564              		.set	.LANCHOR26,. + 0
 2565              		.type	buffer_was_empty.13243, %object
 2566              		.size	buffer_was_empty.13243, 1
 2567              	buffer_was_empty.13243:
 2568 0000 01       		.byte	1
 2569              		.section	.rodata.timer_thread.str1.4,"aMS",%progbits,1
 2570              		.align	2
 2571              	.LC0:
 2572 0000 67706472 		.ascii	"gpdrive timer\000"
 2572      69766520 
 2572      74696D65 
 2572      7200
 2573              		.text
 2574              	.Letext0:
 2575              		.file 3 "/usr/arm-none-eabi/include/machine/_default_types.h"
 2576              		.file 4 "/usr/arm-none-eabi/include/sys/_stdint.h"
 2577              		.file 5 "/usr/lib/gcc/arm-none-eabi/7.3.1/include/stddef.h"
 2578              		.file 6 "ChibiOS_3.0.5/os/rt/ports/ARMCMx/compilers/GCC/chtypes.h"
 2579              		.file 7 "ChibiOS_3.0.5/os/rt/include/chsystypes.h"
 2580              		.file 8 "ChibiOS_3.0.5/os/rt/include/chschd.h"
 2581              		.file 9 "ChibiOS_3.0.5/os/ext/CMSIS/include/core_cm4.h"
 2582              		.file 10 "ChibiOS_3.0.5/os/ext/CMSIS/ST/system_stm32f4xx.h"
 2583              		.file 11 "ChibiOS_3.0.5/os/ext/CMSIS/ST/stm32f407xx.h"
 2584              		.file 12 "ChibiOS_3.0.5/os/ext/CMSIS/ST/stm32f4xx.h"
 2585              		.file 13 "ChibiOS_3.0.5/os/rt/ports/ARMCMx/chcore.h"
 2586              		.file 14 "ChibiOS_3.0.5/os/rt/ports/ARMCMx/chcore_v7m.h"
 2587              		.file 15 "ChibiOS_3.0.5/os/rt/include/chtm.h"
 2588              		.file 16 "ChibiOS_3.0.5/os/rt/include/chsem.h"
 2589              		.file 17 "ChibiOS_3.0.5/os/rt/include/chmtx.h"
 2590              		.file 18 "ChibiOS_3.0.5/os/rt/include/chevents.h"
 2591              		.file 19 "ChibiOS_3.0.5/os/rt/include/chqueues.h"
 2592              		.file 20 "datatypes.h"
 2593              		.file 21 "ChibiOS_3.0.5/ext/stdperiph_stm32f4/inc/stm32f4xx_dma.h"
 2594              		.file 22 "ChibiOS_3.0.5/ext/stdperiph_stm32f4/inc/stm32f4xx_adc.h"
 2595              		.file 23 "ChibiOS_3.0.5/ext/stdperiph_stm32f4/inc/stm32f4xx_tim.h"
 2596              		.file 24 "conf_general.h"
 2597              		.file 25 "ChibiOS_3.0.5/os/hal/ports/STM32/STM32F4xx/stm32_dma.h"
 2598              		.file 26 "ChibiOS_3.0.5/os/hal/ports/STM32/LLD/GPIOv2/pal_lld.h"
 2599              		.file 27 "ChibiOS_3.0.5/os/hal/include/can.h"
 2600              		.file 28 "ChibiOS_3.0.5/os/hal/ports/STM32/LLD/can_lld.h"
 2601              		.file 29 "ChibiOS_3.0.5/os/hal/include/i2c.h"
 2602              		.file 30 "ChibiOS_3.0.5/os/hal/ports/STM32/LLD/I2Cv1/i2c_lld.h"
 2603              		.file 31 "ChibiOS_3.0.5/os/hal/include/icu.h"
 2604              		.file 32 "ChibiOS_3.0.5/os/hal/ports/STM32/LLD/TIMv1/icu_lld.h"
 2605              		.file 33 "ChibiOS_3.0.5/os/hal/ports/STM32/LLD/TIMv1/stm32_tim.h"
 2606              		.file 34 "ChibiOS_3.0.5/os/hal/include/serial.h"
 2607              		.file 35 "ChibiOS_3.0.5/os/hal/ports/STM32/LLD/USARTv1/serial_lld.h"
 2608              		.file 36 "ChibiOS_3.0.5/os/hal/include/spi.h"
 2609              		.file 37 "ChibiOS_3.0.5/os/hal/ports/STM32/LLD/SPIv1/spi_lld.h"
ARM GAS  /tmp/ccOWIkkk.s 			page 47


 2610              		.file 38 "ChibiOS_3.0.5/os/hal/include/usb.h"
 2611              		.file 39 "ChibiOS_3.0.5/os/hal/ports/STM32/LLD/OTGv1/usb_lld.h"
 2612              		.file 40 "ChibiOS_3.0.5/os/hal/ports/STM32/LLD/OTGv1/stm32_otg.h"
 2613              		.file 41 "utils.h"
 2614              		.file 42 "commands.h"
 2615              		.file 43 "timeout.h"
 2616              		.file 44 "mc_interface.h"
 2617              		.file 45 "/usr/arm-none-eabi/include/sys/lock.h"
 2618              		.file 46 "/usr/arm-none-eabi/include/sys/_types.h"
 2619              		.file 47 "/usr/arm-none-eabi/include/sys/reent.h"
 2620              		.file 48 "/usr/arm-none-eabi/include/math.h"
 2621              		.file 49 "/usr/arm-none-eabi/include/stdlib.h"
 2622              		.file 50 "ChibiOS_3.0.5/os/rt/include/chthreads.h"
 2623              		.file 51 "timer.h"
 2624              		.file 52 "ledpwm.h"
 2625              		.file 53 "ChibiOS_3.0.5/os/hal/ports/common/ARMCMx/nvic.h"
 2626              		.file 54 "ChibiOS_3.0.5/ext/stdperiph_stm32f4/inc/stm32f4xx_rcc.h"
 2627              		.file 55 "hwconf/hw.h"
 2628              		.file 56 "<built-in>"