ARM GAS  /tmp/ccBzkMOZ.s 			page 1


   1              		.cpu cortex-m4
   2              		.eabi_attribute 27, 1
   3              		.eabi_attribute 28, 1
   4              		.eabi_attribute 20, 1
   5              		.eabi_attribute 21, 1
   6              		.eabi_attribute 23, 3
   7              		.eabi_attribute 24, 1
   8              		.eabi_attribute 25, 1
   9              		.eabi_attribute 26, 1
  10              		.eabi_attribute 30, 2
  11              		.eabi_attribute 34, 1
  12              		.eabi_attribute 18, 4
  13              		.file	"heap.c"
  14              		.text
  15              	.Ltext0:
  16              		.cfi_sections	.debug_frame
  17              		.section	.text.lbm_heap_new_gc_time,"ax",%progbits
  18              		.align	1
  19              		.p2align 4,,15
  20              		.global	lbm_heap_new_gc_time
  21              		.syntax unified
  22              		.thumb
  23              		.thumb_func
  24              		.fpu fpv4-sp-d16
  25              		.type	lbm_heap_new_gc_time, %function
  26              	lbm_heap_new_gc_time:
  27              	.LFB60:
  28              		.file 1 "lispBM/lispBM/src/heap.c"
  29              		.loc 1 208 0
  30              		.cfi_startproc
  31              		@ args = 0, pretend = 0, frame = 0
  32              		@ frame_needed = 0, uses_anonymous_args = 0
  33              		@ link register save eliminated.
  34              	.LVL0:
  35              		.loc 1 209 0
  36 0000 0A4B     		ldr	r3, .L6
  37              		.loc 1 208 0
  38 0002 2DE93008 		push	{r4, r5, fp}
  39              		.cfi_def_cfa_offset 12
  40              		.cfi_offset 4, -12
  41              		.cfi_offset 5, -8
  42              		.cfi_offset 11, -4
  43              		.loc 1 209 0
  44 0006 D3E90C45 		ldrd	r4, [r3, #48]
  45              		.loc 1 210 0
  46 000a DA6B     		ldr	r2, [r3, #60]
  47              		.loc 1 209 0
  48 000c 14EB000B 		adds	fp, r4, r0
  49 0010 45F1000C 		adc	ip, r5, #0
  50              		.loc 1 210 0
  51 0014 8242     		cmp	r2, r0
  52              		.loc 1 212 0
  53 0016 9A6B     		ldr	r2, [r3, #56]
  54              		.loc 1 211 0
  55 0018 38BF     		it	cc
  56 001a D863     		strcc	r0, [r3, #60]
  57              		.loc 1 212 0
ARM GAS  /tmp/ccBzkMOZ.s 			page 2


  58 001c 8242     		cmp	r2, r0
  59              		.loc 1 209 0
  60 001e C3E90CBC 		strd	fp, [r3, #48]
  61              		.loc 1 213 0
  62 0022 88BF     		it	hi
  63 0024 9863     		strhi	r0, [r3, #56]
  64              		.loc 1 214 0
  65 0026 BDE83008 		pop	{r4, r5, fp}
  66              		.cfi_restore 11
  67              		.cfi_restore 5
  68              		.cfi_restore 4
  69              		.cfi_def_cfa_offset 0
  70 002a 7047     		bx	lr
  71              	.L7:
  72              		.align	2
  73              	.L6:
  74 002c 00000000 		.word	.LANCHOR0
  75              		.cfi_endproc
  76              	.LFE60:
  77              		.size	lbm_heap_new_gc_time, .-lbm_heap_new_gc_time
  78              		.section	.text.lbm_heap_new_freelist_length,"ax",%progbits
  79              		.align	1
  80              		.p2align 4,,15
  81              		.global	lbm_heap_new_freelist_length
  82              		.syntax unified
  83              		.thumb
  84              		.thumb_func
  85              		.fpu fpv4-sp-d16
  86              		.type	lbm_heap_new_freelist_length, %function
  87              	lbm_heap_new_freelist_length:
  88              	.LFB61:
  89              		.loc 1 216 0
  90              		.cfi_startproc
  91              		@ args = 0, pretend = 0, frame = 0
  92              		@ frame_needed = 0, uses_anonymous_args = 0
  93              		@ link register save eliminated.
  94              	.LVL1:
  95              		.loc 1 217 0
  96 0000 024B     		ldr	r3, .L10
  97 0002 9A6A     		ldr	r2, [r3, #40]
  98 0004 8242     		cmp	r2, r0
  99              		.loc 1 218 0
 100 0006 88BF     		it	hi
 101 0008 9862     		strhi	r0, [r3, #40]
 102              		.loc 1 219 0
 103 000a 7047     		bx	lr
 104              	.L11:
 105              		.align	2
 106              	.L10:
 107 000c 00000000 		.word	.LANCHOR0
 108              		.cfi_endproc
 109              	.LFE61:
 110              		.size	lbm_heap_new_freelist_length, .-lbm_heap_new_freelist_length
 111              		.section	.text.lbm_heap_init,"ax",%progbits
 112              		.align	1
 113              		.p2align 4,,15
 114              		.global	lbm_heap_init
ARM GAS  /tmp/ccBzkMOZ.s 			page 3


 115              		.syntax unified
 116              		.thumb
 117              		.thumb_func
 118              		.fpu fpv4-sp-d16
 119              		.type	lbm_heap_init, %function
 120              	lbm_heap_init:
 121              	.LFB62:
 122              		.loc 1 221 0
 123              		.cfi_startproc
 124              		@ args = 0, pretend = 0, frame = 0
 125              		@ frame_needed = 0, uses_anonymous_args = 0
 126              	.LVL2:
 127 0000 2DE9F041 		push	{r4, r5, r6, r7, r8, lr}
 128              		.cfi_def_cfa_offset 24
 129              		.cfi_offset 4, -24
 130              		.cfi_offset 5, -20
 131              		.cfi_offset 6, -16
 132              		.cfi_offset 7, -12
 133              		.cfi_offset 8, -8
 134              		.cfi_offset 14, -4
 135              		.loc 1 223 0
 136 0004 254C     		ldr	r4, .L23
 137              		.loc 1 224 0
 138 0006 264A     		ldr	r2, .L23+4
 139              		.loc 1 223 0
 140 0008 0023     		movs	r3, #0
 141              		.loc 1 224 0
 142 000a 4FF41877 		mov	r7, #608
 143              		.loc 1 223 0
 144 000e 2360     		str	r3, [r4]
 145              		.loc 1 226 0
 146 0010 10F00704 		ands	r4, r0, #7
 147              		.loc 1 224 0
 148 0014 1760     		str	r7, [r2]
 149              		.loc 1 226 0
 150 0016 02D0     		beq	.L21
 151 0018 1846     		mov	r0, r3
 152              	.LVL3:
 153              		.loc 1 233 0
 154 001a BDE8F081 		pop	{r4, r5, r6, r7, r8, pc}
 155              	.LVL4:
 156              	.L21:
 157              		.loc 1 228 0
 158 001e 4FEAC108 		lsl	r8, r1, #3
 159 0022 0E46     		mov	r6, r1
 160 0024 4246     		mov	r2, r8
 161 0026 2146     		mov	r1, r4
 162              	.LVL5:
 163 0028 0546     		mov	r5, r0
 164 002a FFF7FEFF 		bl	memset
 165              	.LVL6:
 166              	.LBB351:
 167              	.LBB352:
 168              		.loc 1 191 0
 169 002e 1D4B     		ldr	r3, .L23+8
 170              	.LBE352:
 171              	.LBE351:
ARM GAS  /tmp/ccBzkMOZ.s 			page 4


 172              	.LBB355:
 173              	.LBB356:
 174              		.loc 1 172 0
 175 0030 1D4A     		ldr	r2, .L23+12
 176              	.LBE356:
 177              	.LBE355:
 178              	.LBB373:
 179              	.LBB353:
 180              		.loc 1 192 0
 181 0032 C3F80C80 		str	r8, [r3, #12]
 182              		.loc 1 203 0
 183 0036 0020     		movs	r0, #0
 184 0038 0021     		movs	r1, #0
 185              		.loc 1 205 0
 186 003a 4FF0FF3C 		mov	ip, #-1
 187              	.LBE353:
 188              	.LBE373:
 189              	.LBB374:
 190              	.LBB371:
 191              		.loc 1 177 0
 192 003e 012E     		cmp	r6, #1
 193              	.LBE371:
 194              	.LBE374:
 195              	.LBB375:
 196              	.LBB354:
 197              		.loc 1 191 0
 198 0040 1D60     		str	r5, [r3]
 199              		.loc 1 193 0
 200 0042 9E60     		str	r6, [r3, #8]
 201              		.loc 1 196 0
 202 0044 C3E90444 		strd	r4, r4, [r3, #16]
 203              		.loc 1 198 0
 204 0048 C3E90644 		strd	r4, r4, [r3, #24]
 205              		.loc 1 200 0
 206 004c C3E90844 		strd	r4, r4, [r3, #32]
 207              		.loc 1 201 0
 208 0050 9E62     		str	r6, [r3, #40]
 209              		.loc 1 204 0
 210 0052 DC63     		str	r4, [r3, #60]
 211              		.loc 1 203 0
 212 0054 C3E90C01 		strd	r0, [r3, #48]
 213              		.loc 1 205 0
 214 0058 C3F838C0 		str	ip, [r3, #56]
 215              	.LVL7:
 216              	.LBE354:
 217              	.LBE375:
 218              	.LBB376:
 219              	.LBB372:
 220              		.loc 1 172 0
 221 005c 5A60     		str	r2, [r3, #4]
 222              	.LVL8:
 223              		.loc 1 177 0
 224 005e 1AD9     		bls	.L22
 225              	.LBB357:
 226              	.LBB358:
 227              		.file 2 "lispBM/lispBM/include/heap.h"
 228              		.loc 2 469 0
ARM GAS  /tmp/ccBzkMOZ.s 			page 5


 229 0060 9446     		mov	ip, r2
 230 0062 013E     		subs	r6, r6, #1
 231              	.LVL9:
 232              	.LBE358:
 233              	.LBE357:
 234              		.loc 1 177 0
 235 0064 2146     		mov	r1, r4
 236 0066 0822     		movs	r2, #8
 237              	.LVL10:
 238              	.L15:
 239              	.LBB360:
 240              	.LBB361:
 241              		.loc 1 132 0
 242 0068 C1F31600 		ubfx	r0, r1, #0, #23
 243 006c 05EBC004 		add	r4, r5, r0, lsl #3
 244              	.LVL11:
 245 0070 0131     		adds	r1, r1, #1
 246              	.LVL12:
 247              	.LBE361:
 248              	.LBE360:
 249              	.LBB362:
 250              	.LBB359:
 251              		.loc 2 469 0
 252 0072 42EA0C03 		orr	r3, r2, ip
 253              	.LBE359:
 254              	.LBE362:
 255              		.loc 1 177 0
 256 0076 8E42     		cmp	r6, r1
 257              	.LBB363:
 258              	.LBB364:
 259              		.loc 1 145 0
 260 0078 45F83070 		str	r7, [r5, r0, lsl #3]
 261              	.LVL13:
 262              	.LBE364:
 263              	.LBE363:
 264              	.LBB365:
 265              	.LBB366:
 266              		.loc 1 149 0
 267 007c 02F10802 		add	r2, r2, #8
 268              	.LVL14:
 269 0080 6360     		str	r3, [r4, #4]
 270              	.LBE366:
 271              	.LBE365:
 272              		.loc 1 177 0
 273 0082 F1D1     		bne	.L15
 274              	.L14:
 275              	.LVL15:
 276              	.LBB367:
 277              	.LBB368:
 278              		.loc 1 132 0
 279 0084 C6F31606 		ubfx	r6, r6, #0, #23
 280              	.LBE368:
 281              	.LBE367:
 282              	.LBB369:
 283              	.LBB370:
 284              		.loc 1 149 0
 285 0088 05EBC606 		add	r6, r5, r6, lsl #3
ARM GAS  /tmp/ccBzkMOZ.s 			page 6


 286 008c 0023     		movs	r3, #0
 287 008e 7360     		str	r3, [r6, #4]
 288              	.LVL16:
 289              	.LBE370:
 290              	.LBE369:
 291              		.loc 1 187 0
 292 0090 0120     		movs	r0, #1
 293              	.LBE372:
 294              	.LBE376:
 295              		.loc 1 233 0
 296 0092 BDE8F081 		pop	{r4, r5, r6, r7, r8, pc}
 297              	.LVL17:
 298              	.L22:
 299 0096 6644     		add	r6, r6, ip
 300              	.LVL18:
 301 0098 F4E7     		b	.L14
 302              	.L24:
 303 009a 00BF     		.align	2
 304              	.L23:
 305 009c 00000000 		.word	.LANCHOR1
 306 00a0 00000000 		.word	.LANCHOR2
 307 00a4 00000000 		.word	.LANCHOR0
 308 00a8 01000010 		.word	268435457
 309              		.cfi_endproc
 310              	.LFE62:
 311              		.size	lbm_heap_init, .-lbm_heap_init
 312              		.section	.text.lbm_heap_num_free,"ax",%progbits
 313              		.align	1
 314              		.p2align 4,,15
 315              		.global	lbm_heap_num_free
 316              		.syntax unified
 317              		.thumb
 318              		.thumb_func
 319              		.fpu fpv4-sp-d16
 320              		.type	lbm_heap_num_free, %function
 321              	lbm_heap_num_free:
 322              	.LFB63:
 323              		.loc 1 235 0
 324              		.cfi_startproc
 325              		@ args = 0, pretend = 0, frame = 0
 326              		@ frame_needed = 0, uses_anonymous_args = 0
 327              		@ link register save eliminated.
 328              	.LVL19:
 329              		.loc 1 238 0
 330 0000 1349     		ldr	r1, .L40
 331 0002 4B68     		ldr	r3, [r1, #4]
 332              	.LVL20:
 333              	.LBB377:
 334              	.LBB378:
 335              		.loc 2 461 0
 336 0004 13F00100 		ands	r0, r3, #1
 337 0008 1CD0     		beq	.L26
 338 000a 03F07C42 		and	r2, r3, #-67108864
 339              	.LVL21:
 340              	.LBE378:
 341              	.LBE377:
 342              		.loc 1 240 0
ARM GAS  /tmp/ccBzkMOZ.s 			page 7


 343 000e B2F1805F 		cmp	r2, #268435456
 344 0012 1AD1     		bne	.L31
 345              	.LBB381:
 346              	.LBB382:
 347              		.loc 1 132 0
 348 0014 0968     		ldr	r1, [r1]
 349              	.LBE382:
 350              	.LBE381:
 351              		.loc 1 237 0
 352 0016 0020     		movs	r0, #0
 353              	.LVL22:
 354              	.L28:
 355              		.loc 1 241 0
 356 0018 23F07C43 		bic	r3, r3, #-67108864
 357              	.LVL23:
 358 001c 23F00703 		bic	r3, r3, #7
 359 0020 0B44     		add	r3, r3, r1
 360              		.loc 1 242 0
 361 0022 0130     		adds	r0, r0, #1
 362              	.LVL24:
 363              		.loc 1 241 0
 364 0024 5B68     		ldr	r3, [r3, #4]
 365              	.LVL25:
 366              	.LBB383:
 367              	.LBB379:
 368              		.loc 2 461 0
 369 0026 13F0010F 		tst	r3, #1
 370 002a 03F07C42 		and	r2, r3, #-67108864
 371              	.LVL26:
 372 002e 09D0     		beq	.L26
 373              	.LBE379:
 374              	.LBE383:
 375              		.loc 1 240 0
 376 0030 B2F1805F 		cmp	r2, #268435456
 377 0034 F0D0     		beq	.L28
 378              	.LVL27:
 379              	.L27:
 380              		.loc 1 245 0
 381 0036 22B1     		cbz	r2, .L25
 382              		.loc 1 246 0 discriminator 1
 383 0038 064A     		ldr	r2, .L40+4
 384              		.loc 1 245 0 discriminator 1
 385 003a 1268     		ldr	r2, [r2]
 386              		.loc 1 247 0 discriminator 1
 387 003c 9A42     		cmp	r2, r3
 388 003e 08BF     		it	eq
 389 0040 0020     		moveq	r0, #0
 390              	.L25:
 391              		.loc 1 250 0
 392 0042 7047     		bx	lr
 393              	.L26:
 394              	.LBB384:
 395              	.LBB380:
 396              		.loc 2 461 0
 397 0044 03F00C02 		and	r2, r3, #12
 398 0048 F5E7     		b	.L27
 399              	.LVL28:
ARM GAS  /tmp/ccBzkMOZ.s 			page 8


 400              	.L31:
 401              	.LBE380:
 402              	.LBE384:
 403              		.loc 1 237 0
 404 004a 0020     		movs	r0, #0
 405 004c F3E7     		b	.L27
 406              	.L41:
 407 004e 00BF     		.align	2
 408              	.L40:
 409 0050 00000000 		.word	.LANCHOR0
 410 0054 00000000 		.word	.LANCHOR1
 411              		.cfi_endproc
 412              	.LFE63:
 413              		.size	lbm_heap_num_free, .-lbm_heap_num_free
 414              		.section	.text.lbm_heap_num_allocated,"ax",%progbits
 415              		.align	1
 416              		.p2align 4,,15
 417              		.global	lbm_heap_num_allocated
 418              		.syntax unified
 419              		.thumb
 420              		.thumb_func
 421              		.fpu fpv4-sp-d16
 422              		.type	lbm_heap_num_allocated, %function
 423              	lbm_heap_num_allocated:
 424              	.LFB65:
 425              		.loc 1 291 0
 426              		.cfi_startproc
 427              		@ args = 0, pretend = 0, frame = 0
 428              		@ frame_needed = 0, uses_anonymous_args = 0
 429              		@ link register save eliminated.
 430              		.loc 1 292 0
 431 0000 014B     		ldr	r3, .L43
 432              		.loc 1 293 0
 433 0002 1869     		ldr	r0, [r3, #16]
 434 0004 7047     		bx	lr
 435              	.L44:
 436 0006 00BF     		.align	2
 437              	.L43:
 438 0008 00000000 		.word	.LANCHOR0
 439              		.cfi_endproc
 440              	.LFE65:
 441              		.size	lbm_heap_num_allocated, .-lbm_heap_num_allocated
 442              		.section	.text.lbm_heap_size,"ax",%progbits
 443              		.align	1
 444              		.p2align 4,,15
 445              		.global	lbm_heap_size
 446              		.syntax unified
 447              		.thumb
 448              		.thumb_func
 449              		.fpu fpv4-sp-d16
 450              		.type	lbm_heap_size, %function
 451              	lbm_heap_size:
 452              	.LFB66:
 453              		.loc 1 294 0
 454              		.cfi_startproc
 455              		@ args = 0, pretend = 0, frame = 0
 456              		@ frame_needed = 0, uses_anonymous_args = 0
ARM GAS  /tmp/ccBzkMOZ.s 			page 9


 457              		@ link register save eliminated.
 458              		.loc 1 295 0
 459 0000 014B     		ldr	r3, .L46
 460              		.loc 1 296 0
 461 0002 9868     		ldr	r0, [r3, #8]
 462 0004 7047     		bx	lr
 463              	.L47:
 464 0006 00BF     		.align	2
 465              	.L46:
 466 0008 00000000 		.word	.LANCHOR0
 467              		.cfi_endproc
 468              	.LFE66:
 469              		.size	lbm_heap_size, .-lbm_heap_size
 470              		.section	.text.lbm_heap_size_bytes,"ax",%progbits
 471              		.align	1
 472              		.p2align 4,,15
 473              		.global	lbm_heap_size_bytes
 474              		.syntax unified
 475              		.thumb
 476              		.thumb_func
 477              		.fpu fpv4-sp-d16
 478              		.type	lbm_heap_size_bytes, %function
 479              	lbm_heap_size_bytes:
 480              	.LFB67:
 481              		.loc 1 298 0
 482              		.cfi_startproc
 483              		@ args = 0, pretend = 0, frame = 0
 484              		@ frame_needed = 0, uses_anonymous_args = 0
 485              		@ link register save eliminated.
 486              		.loc 1 299 0
 487 0000 014B     		ldr	r3, .L49
 488              		.loc 1 300 0
 489 0002 D868     		ldr	r0, [r3, #12]
 490 0004 7047     		bx	lr
 491              	.L50:
 492 0006 00BF     		.align	2
 493              	.L49:
 494 0008 00000000 		.word	.LANCHOR0
 495              		.cfi_endproc
 496              	.LFE67:
 497              		.size	lbm_heap_size_bytes, .-lbm_heap_size_bytes
 498              		.section	.text.lbm_get_heap_state,"ax",%progbits
 499              		.align	1
 500              		.p2align 4,,15
 501              		.global	lbm_get_heap_state
 502              		.syntax unified
 503              		.thumb
 504              		.thumb_func
 505              		.fpu fpv4-sp-d16
 506              		.type	lbm_get_heap_state, %function
 507              	lbm_get_heap_state:
 508              	.LFB68:
 509              		.loc 1 302 0
 510              		.cfi_startproc
 511              		@ args = 0, pretend = 0, frame = 0
 512              		@ frame_needed = 0, uses_anonymous_args = 0
 513              		@ link register save eliminated.
ARM GAS  /tmp/ccBzkMOZ.s 			page 10


 514              	.LVL29:
 515              		.loc 1 303 0
 516 0000 104B     		ldr	r3, .L53
 517              		.loc 1 302 0
 518 0002 30B4     		push	{r4, r5}
 519              		.cfi_def_cfa_offset 8
 520              		.cfi_offset 4, -8
 521              		.cfi_offset 5, -4
 522              		.loc 1 314 0
 523 0004 D3E90C45 		ldrd	r4, [r3, #48]
 524              		.loc 1 306 0
 525 0008 D3E90212 		ldrd	r1, r2, [r3, #8]
 526              		.loc 1 314 0
 527 000c C0E90C45 		strd	r4, [r0, #48]
 528              		.loc 1 304 0
 529 0010 D3E90054 		ldrd	r5, r4, [r3]
 530              		.loc 1 305 0
 531 0014 8160     		str	r1, [r0, #8]
 532              		.loc 1 303 0
 533 0016 0560     		str	r5, [r0]
 534              		.loc 1 309 0
 535 0018 9969     		ldr	r1, [r3, #24]
 536              		.loc 1 307 0
 537 001a 1D69     		ldr	r5, [r3, #16]
 538              		.loc 1 304 0
 539 001c 4460     		str	r4, [r0, #4]
 540              		.loc 1 306 0
 541 001e C260     		str	r2, [r0, #12]
 542              		.loc 1 308 0
 543 0020 5C69     		ldr	r4, [r3, #20]
 544              		.loc 1 310 0
 545 0022 DA69     		ldr	r2, [r3, #28]
 546              		.loc 1 307 0
 547 0024 0561     		str	r5, [r0, #16]
 548              		.loc 1 308 0
 549 0026 4461     		str	r4, [r0, #20]
 550              		.loc 1 311 0
 551 0028 1D6A     		ldr	r5, [r3, #32]
 552              		.loc 1 312 0
 553 002a 5C6A     		ldr	r4, [r3, #36]
 554              		.loc 1 309 0
 555 002c 8161     		str	r1, [r0, #24]
 556              		.loc 1 310 0
 557 002e C261     		str	r2, [r0, #28]
 558              		.loc 1 313 0
 559 0030 996A     		ldr	r1, [r3, #40]
 560 0032 8162     		str	r1, [r0, #40]
 561              		.loc 1 316 0
 562 0034 D3E90E32 		ldrd	r3, r2, [r3, #56]
 563              		.loc 1 312 0
 564 0038 C0E90854 		strd	r5, r4, [r0, #32]
 565              		.loc 1 316 0
 566 003c C0E90E32 		strd	r3, r2, [r0, #56]
 567              		.loc 1 317 0
 568 0040 30BC     		pop	{r4, r5}
 569              		.cfi_restore 5
 570              		.cfi_restore 4
ARM GAS  /tmp/ccBzkMOZ.s 			page 11


 571              		.cfi_def_cfa_offset 0
 572 0042 7047     		bx	lr
 573              	.L54:
 574              		.align	2
 575              	.L53:
 576 0044 00000000 		.word	.LANCHOR0
 577              		.cfi_endproc
 578              	.LFE68:
 579              		.size	lbm_get_heap_state, .-lbm_get_heap_state
 580              		.section	.text.lbm_gc_mark_freelist,"ax",%progbits
 581              		.align	1
 582              		.p2align 4,,15
 583              		.global	lbm_gc_mark_freelist
 584              		.syntax unified
 585              		.thumb
 586              		.thumb_func
 587              		.fpu fpv4-sp-d16
 588              		.type	lbm_gc_mark_freelist, %function
 589              	lbm_gc_mark_freelist:
 590              	.LFB70:
 591              		.loc 1 371 0
 592              		.cfi_startproc
 593              		@ args = 0, pretend = 0, frame = 0
 594              		@ frame_needed = 0, uses_anonymous_args = 0
 595              		@ link register save eliminated.
 596 0000 70B4     		push	{r4, r5, r6}
 597              		.cfi_def_cfa_offset 12
 598              		.cfi_offset 4, -12
 599              		.cfi_offset 5, -8
 600              		.cfi_offset 6, -4
 601              		.loc 1 375 0
 602 0002 124E     		ldr	r6, .L63
 603 0004 7368     		ldr	r3, [r6, #4]
 604              	.LVL30:
 605              		.loc 1 377 0
 606 0006 13F00100 		ands	r0, r3, #1
 607 000a 09D1     		bne	.L56
 608              		.loc 1 378 0
 609 000c 13F00C02 		ands	r2, r3, #12
 610 0010 04D1     		bne	.L55
 611              		.loc 1 379 0 discriminator 1
 612 0012 0F49     		ldr	r1, .L63+4
 613              		.loc 1 378 0 discriminator 1
 614 0014 0968     		ldr	r1, [r1]
 615 0016 9942     		cmp	r1, r3
 616 0018 14D0     		beq	.L58
 617              		.loc 1 382 0
 618 001a 1046     		mov	r0, r2
 619              	.L55:
 620              		.loc 1 396 0
 621 001c 70BC     		pop	{r4, r5, r6}
 622              		.cfi_remember_state
 623              		.cfi_restore 6
 624              		.cfi_restore 5
 625              		.cfi_restore 4
 626              		.cfi_def_cfa_offset 0
 627 001e 7047     		bx	lr
ARM GAS  /tmp/ccBzkMOZ.s 			page 12


 628              	.L56:
 629              		.cfi_restore_state
 630 0020 F069     		ldr	r0, [r6, #28]
 631              	.LBB385:
 632              	.LBB386:
 633              		.loc 1 132 0
 634 0022 3568     		ldr	r5, [r6]
 635 0024 0130     		adds	r0, r0, #1
 636 0026 00E0     		b	.L59
 637              	.LVL31:
 638              	.L61:
 639              	.LBE386:
 640              	.LBE385:
 641 0028 2046     		mov	r0, r4
 642              	.LVL32:
 643              	.L59:
 644              	.LBB388:
 645              	.LBB387:
 646 002a 23F07C43 		bic	r3, r3, #-67108864
 647              	.LVL33:
 648 002e 23F00703 		bic	r3, r3, #7
 649 0032 E918     		adds	r1, r5, r3
 650 0034 441C     		adds	r4, r0, #1
 651              	.LBE387:
 652              	.LBE388:
 653              	.LBB389:
 654              	.LBB390:
 655              		.loc 1 153 0
 656 0036 4A68     		ldr	r2, [r1, #4]
 657              	.LBB391:
 658              	.LBB392:
 659              		.loc 2 548 0
 660 0038 42F00203 		orr	r3, r2, #2
 661              	.LBE392:
 662              	.LBE391:
 663              	.LBE390:
 664              	.LBE389:
 665              		.loc 1 387 0
 666 003c D207     		lsls	r2, r2, #31
 667              	.LBB396:
 668              	.LBB395:
 669              	.LBB393:
 670              	.LBB394:
 671              		.loc 1 149 0
 672 003e 4B60     		str	r3, [r1, #4]
 673              	.LVL34:
 674              	.LBE394:
 675              	.LBE393:
 676              	.LBE395:
 677              	.LBE396:
 678              		.loc 1 387 0
 679 0040 F2D4     		bmi	.L61
 680 0042 F061     		str	r0, [r6, #28]
 681              	.LVL35:
 682              	.L58:
 683              		.loc 1 395 0
 684 0044 0120     		movs	r0, #1
ARM GAS  /tmp/ccBzkMOZ.s 			page 13


 685              		.loc 1 396 0
 686 0046 70BC     		pop	{r4, r5, r6}
 687              		.cfi_restore 6
 688              		.cfi_restore 5
 689              		.cfi_restore 4
 690              		.cfi_def_cfa_offset 0
 691 0048 7047     		bx	lr
 692              	.L64:
 693 004a 00BF     		.align	2
 694              	.L63:
 695 004c 00000000 		.word	.LANCHOR0
 696 0050 00000000 		.word	.LANCHOR1
 697              		.cfi_endproc
 698              	.LFE70:
 699              		.size	lbm_gc_mark_freelist, .-lbm_gc_mark_freelist
 700              		.section	.text.lbm_gc_sweep_phase,"ax",%progbits
 701              		.align	1
 702              		.p2align 4,,15
 703              		.global	lbm_gc_sweep_phase
 704              		.syntax unified
 705              		.thumb
 706              		.thumb_func
 707              		.fpu fpv4-sp-d16
 708              		.type	lbm_gc_sweep_phase, %function
 709              	lbm_gc_sweep_phase:
 710              	.LFB72:
 711              		.loc 1 425 0
 712              		.cfi_startproc
 713              		@ args = 0, pretend = 0, frame = 0
 714              		@ frame_needed = 0, uses_anonymous_args = 0
 715              	.LVL36:
 716 0000 2DE9F047 		push	{r4, r5, r6, r7, r8, r9, r10, lr}
 717              		.cfi_def_cfa_offset 32
 718              		.cfi_offset 4, -32
 719              		.cfi_offset 5, -28
 720              		.cfi_offset 6, -24
 721              		.cfi_offset 7, -20
 722              		.cfi_offset 8, -16
 723              		.cfi_offset 9, -12
 724              		.cfi_offset 10, -8
 725              		.cfi_offset 14, -4
 726              		.loc 1 428 0
 727 0004 1F4C     		ldr	r4, .L83
 728              		.loc 1 430 0
 729 0006 A368     		ldr	r3, [r4, #8]
 730              		.loc 1 428 0
 731 0008 2768     		ldr	r7, [r4]
 732              	.LVL37:
 733              		.loc 1 430 0
 734 000a 4BB3     		cbz	r3, .L66
 735              	.LBB397:
 736              		.loc 1 448 0
 737 000c DFF87890 		ldr	r9, .L83+4
 738              	.LBB398:
 739              	.LBB399:
 740              		.loc 2 469 0
 741 0010 DFF87880 		ldr	r8, .L83+8
ARM GAS  /tmp/ccBzkMOZ.s 			page 14


 742 0014 3E46     		mov	r6, r7
 743              	.LBE399:
 744              	.LBE398:
 745              	.LBE397:
 746              		.loc 1 430 0
 747 0016 0025     		movs	r5, #0
 748              	.LVL38:
 749              	.L73:
 750              	.LBB407:
 751              	.LBB408:
 752              		.loc 1 163 0
 753 0018 7368     		ldr	r3, [r6, #4]
 754              	.LVL39:
 755              	.LBE408:
 756              	.LBE407:
 757              		.loc 1 431 0
 758 001a 9907     		lsls	r1, r3, #30
 759 001c 17D4     		bmi	.L67
 760              	.LVL40:
 761              	.LBB409:
 762              	.LBB401:
 763              	.LBB402:
 764              		.loc 2 461 0
 765 001e DA07     		lsls	r2, r3, #31
 766 0020 4CBF     		ite	mi
 767 0022 03F07C42 		andmi	r2, r3, #-67108864
 768 0026 03F00C02 		andpl	r2, r3, #12
 769              	.LBE402:
 770              	.LBE401:
 771              	.LBB403:
 772              	.LBB404:
 773              		.loc 2 529 0
 774 002a 1B09     		lsrs	r3, r3, #4
 775              	.LBE404:
 776              	.LBE403:
 777              		.loc 1 435 0
 778 002c 0AB9     		cbnz	r2, .L71
 779              		.loc 1 435 0 is_stmt 0 discriminator 1
 780 002e 202B     		cmp	r3, #32
 781 0030 19D0     		beq	.L82
 782              	.L71:
 783              		.loc 1 452 0 is_stmt 1
 784 0032 2269     		ldr	r2, [r4, #16]
 785              		.loc 1 453 0
 786 0034 236A     		ldr	r3, [r4, #32]
 787              		.loc 1 448 0
 788 0036 D9F80010 		ldr	r1, [r9]
 789 003a 47F83510 		str	r1, [r7, r5, lsl #3]
 790              		.loc 1 453 0
 791 003e 0133     		adds	r3, r3, #1
 792              		.loc 1 452 0
 793 0040 511E     		subs	r1, r2, #1
 794              	.LBB405:
 795              	.LBB400:
 796              		.loc 2 469 0
 797 0042 48EAC502 		orr	r2, r8, r5, lsl #3
 798              	.LBE400:
ARM GAS  /tmp/ccBzkMOZ.s 			page 15


 799              	.LBE405:
 800              		.loc 1 453 0
 801 0046 2362     		str	r3, [r4, #32]
 802              		.loc 1 452 0
 803 0048 2161     		str	r1, [r4, #16]
 804              		.loc 1 449 0
 805 004a 6368     		ldr	r3, [r4, #4]
 806              		.loc 1 450 0
 807 004c 6260     		str	r2, [r4, #4]
 808              	.L67:
 809              	.LVL41:
 810              	.LBE409:
 811              		.loc 1 430 0 discriminator 2
 812 004e A268     		ldr	r2, [r4, #8]
 813 0050 0135     		adds	r5, r5, #1
 814              	.LVL42:
 815              	.LBB410:
 816              	.LBB411:
 817              	.LBB412:
 818              	.LBB413:
 819              		.loc 2 552 0 discriminator 2
 820 0052 23F00203 		bic	r3, r3, #2
 821              	.LBE413:
 822              	.LBE412:
 823              	.LBE411:
 824              	.LBE410:
 825              		.loc 1 430 0 discriminator 2
 826 0056 AA42     		cmp	r2, r5
 827              	.LBB417:
 828              	.LBB416:
 829              	.LBB414:
 830              	.LBB415:
 831              		.loc 1 149 0 discriminator 2
 832 0058 7360     		str	r3, [r6, #4]
 833              	.LVL43:
 834 005a 06F10806 		add	r6, r6, #8
 835              	.LVL44:
 836              	.LBE415:
 837              	.LBE414:
 838              	.LBE416:
 839              	.LBE417:
 840              		.loc 1 430 0 discriminator 2
 841 005e DBD8     		bhi	.L73
 842              	.LVL45:
 843              	.L66:
 844              		.loc 1 458 0
 845 0060 0120     		movs	r0, #1
 846 0062 BDE8F087 		pop	{r4, r5, r6, r7, r8, r9, r10, pc}
 847              	.LVL46:
 848              	.L82:
 849              	.LBB418:
 850              	.LBB406:
 851              		.loc 1 437 0
 852 0066 57F835A0 		ldr	r10, [r7, r5, lsl #3]
 853              	.LVL47:
 854              		.loc 1 438 0
 855 006a 5046     		mov	r0, r10
ARM GAS  /tmp/ccBzkMOZ.s 			page 16


 856 006c FFF7FEFF 		bl	lbm_memory_ptr_inside
 857              	.LVL48:
 858 0070 0028     		cmp	r0, #0
 859 0072 DED0     		beq	.L71
 860              		.loc 1 439 0
 861 0074 5046     		mov	r0, r10
 862 0076 FFF7FEFF 		bl	lbm_memory_free
 863              	.LVL49:
 864              		.loc 1 440 0
 865 007a 636A     		ldr	r3, [r4, #36]
 866 007c 0133     		adds	r3, r3, #1
 867 007e 6362     		str	r3, [r4, #36]
 868 0080 D7E7     		b	.L71
 869              	.L84:
 870 0082 00BF     		.align	2
 871              	.L83:
 872 0084 00000000 		.word	.LANCHOR0
 873 0088 00000000 		.word	.LANCHOR2
 874 008c 01000010 		.word	268435457
 875              	.LBE406:
 876              	.LBE418:
 877              		.cfi_endproc
 878              	.LFE72:
 879              		.size	lbm_gc_sweep_phase, .-lbm_gc_sweep_phase
 880              		.section	.text.lbm_gc_state_inc,"ax",%progbits
 881              		.align	1
 882              		.p2align 4,,15
 883              		.global	lbm_gc_state_inc
 884              		.syntax unified
 885              		.thumb
 886              		.thumb_func
 887              		.fpu fpv4-sp-d16
 888              		.type	lbm_gc_state_inc, %function
 889              	lbm_gc_state_inc:
 890              	.LFB73:
 891              		.loc 1 460 0
 892              		.cfi_startproc
 893              		@ args = 0, pretend = 0, frame = 0
 894              		@ frame_needed = 0, uses_anonymous_args = 0
 895              		@ link register save eliminated.
 896              		.loc 1 461 0
 897 0000 034B     		ldr	r3, .L86
 898 0002 9A69     		ldr	r2, [r3, #24]
 899              		.loc 1 462 0
 900 0004 0021     		movs	r1, #0
 901              		.loc 1 461 0
 902 0006 0132     		adds	r2, r2, #1
 903 0008 9A61     		str	r2, [r3, #24]
 904              		.loc 1 463 0
 905 000a C3E90711 		strd	r1, r1, [r3, #28]
 906              		.loc 1 464 0
 907 000e 7047     		bx	lr
 908              	.L87:
 909              		.align	2
 910              	.L86:
 911 0010 00000000 		.word	.LANCHOR0
 912              		.cfi_endproc
ARM GAS  /tmp/ccBzkMOZ.s 			page 17


 913              	.LFE73:
 914              		.size	lbm_gc_state_inc, .-lbm_gc_state_inc
 915              		.section	.text.lbm_car,"ax",%progbits
 916              		.align	1
 917              		.p2align 4,,15
 918              		.global	lbm_car
 919              		.syntax unified
 920              		.thumb
 921              		.thumb_func
 922              		.fpu fpv4-sp-d16
 923              		.type	lbm_car, %function
 924              	lbm_car:
 925              	.LFB75:
 926              		.loc 1 478 0
 927              		.cfi_startproc
 928              		@ args = 0, pretend = 0, frame = 0
 929              		@ frame_needed = 0, uses_anonymous_args = 0
 930              		@ link register save eliminated.
 931              	.LVL50:
 932              	.LBB436:
 933              	.LBB437:
 934              		.loc 2 461 0
 935 0000 C207     		lsls	r2, r0, #31
 936              	.LBE437:
 937              	.LBE436:
 938              		.loc 1 478 0
 939 0002 0346     		mov	r3, r0
 940              	.LVL51:
 941              	.LBB439:
 942              	.LBB438:
 943              		.loc 2 461 0
 944 0004 0DD5     		bpl	.L89
 945              	.LVL52:
 946              	.LBE438:
 947              	.LBE439:
 948              		.loc 1 480 0
 949 0006 10F07C4F 		tst	r0, #-67108864
 950 000a 03D1     		bne	.L91
 951              		.loc 1 481 0
 952 000c 0B4A     		ldr	r2, .L97
 953 000e 1068     		ldr	r0, [r2]
 954              	.LVL53:
 955              		.loc 1 480 0
 956 0010 8342     		cmp	r3, r0
 957 0012 12D0     		beq	.L95
 958              	.L91:
 959              	.LVL54:
 960              	.LBB440:
 961              	.LBB441:
 962              	.LBB442:
 963              	.LBB443:
 964              		.loc 1 132 0
 965 0014 0A4A     		ldr	r2, .L97+4
 966              	.LBB444:
 967              	.LBB445:
 968              		.loc 2 473 0
 969 0016 C3F3D603 		ubfx	r3, r3, #3, #23
ARM GAS  /tmp/ccBzkMOZ.s 			page 18


 970              	.LVL55:
 971              	.LBE445:
 972              	.LBE444:
 973              	.LBE443:
 974              	.LBE442:
 975              		.loc 1 487 0
 976 001a 1268     		ldr	r2, [r2]
 977 001c 52F83300 		ldr	r0, [r2, r3, lsl #3]
 978              	.LVL56:
 979 0020 7047     		bx	lr
 980              	.LVL57:
 981              	.L89:
 982              	.LBE441:
 983              	.LBE440:
 984              		.loc 1 480 0
 985 0022 10F00C0F 		tst	r0, #12
 986 0026 01D0     		beq	.L96
 987              		.loc 1 489 0
 988 0028 8020     		movs	r0, #128
 989              	.LVL58:
 990 002a 7047     		bx	lr
 991              	.LVL59:
 992              	.L96:
 993              		.loc 1 481 0 discriminator 1
 994 002c 034A     		ldr	r2, .L97
 995              		.loc 1 480 0 discriminator 1
 996 002e 1068     		ldr	r0, [r2]
 997              	.LVL60:
 998              		.loc 1 489 0 discriminator 1
 999 0030 9842     		cmp	r0, r3
 1000 0032 0CBF     		ite	eq
 1001 0034 1846     		moveq	r0, r3
 1002 0036 8020     		movne	r0, #128
 1003 0038 7047     		bx	lr
 1004              	.L95:
 1005              		.loc 1 490 0
 1006 003a 7047     		bx	lr
 1007              	.L98:
 1008              		.align	2
 1009              	.L97:
 1010 003c 00000000 		.word	.LANCHOR1
 1011 0040 00000000 		.word	.LANCHOR0
 1012              		.cfi_endproc
 1013              	.LFE75:
 1014              		.size	lbm_car, .-lbm_car
 1015              		.section	.text.lbm_dec_str,"ax",%progbits
 1016              		.align	1
 1017              		.p2align 4,,15
 1018              		.global	lbm_dec_str
 1019              		.syntax unified
 1020              		.thumb
 1021              		.thumb_func
 1022              		.fpu fpv4-sp-d16
 1023              		.type	lbm_dec_str, %function
 1024              	lbm_dec_str:
 1025              	.LFB45:
 1026              		.loc 1 37 0
ARM GAS  /tmp/ccBzkMOZ.s 			page 19


 1027              		.cfi_startproc
 1028              		@ args = 0, pretend = 0, frame = 0
 1029              		@ frame_needed = 0, uses_anonymous_args = 0
 1030              	.LVL61:
 1031              	.LBB446:
 1032              	.LBB447:
 1033              		.loc 2 461 0
 1034 0000 10F00102 		ands	r2, r0, #1
 1035 0004 0CD0     		beq	.L101
 1036              	.LVL62:
 1037              	.LBE447:
 1038              	.LBE446:
 1039              		.loc 1 37 0
 1040 0006 08B5     		push	{r3, lr}
 1041              		.cfi_def_cfa_offset 8
 1042              		.cfi_offset 3, -8
 1043              		.cfi_offset 14, -4
 1044              	.LBB449:
 1045              	.LBB448:
 1046              		.loc 2 461 0
 1047 0008 00F07C43 		and	r3, r0, #-67108864
 1048              	.LBE448:
 1049              	.LBE449:
 1050              		.loc 1 40 0
 1051 000c B3F1504F 		cmp	r3, #-805306368
 1052 0010 08D1     		bne	.L103
 1053              	.LBB450:
 1054              		.loc 1 41 0
 1055 0012 FFF7FEFF 		bl	lbm_car
 1056              	.LVL63:
 1057              		.loc 1 43 0
 1058 0016 0368     		ldr	r3, [r0]
 1059 0018 042B     		cmp	r3, #4
 1060 001a 03D1     		bne	.L103
 1061              		.loc 1 44 0
 1062 001c 8068     		ldr	r0, [r0, #8]
 1063              	.LVL64:
 1064              	.LBE450:
 1065              		.loc 1 48 0
 1066 001e 08BD     		pop	{r3, pc}
 1067              	.LVL65:
 1068              	.L101:
 1069              		.cfi_def_cfa_offset 0
 1070              		.cfi_restore 3
 1071              		.cfi_restore 14
 1072              		.loc 1 38 0
 1073 0020 1046     		mov	r0, r2
 1074              	.LVL66:
 1075              		.loc 1 48 0
 1076 0022 7047     		bx	lr
 1077              	.LVL67:
 1078              	.L103:
 1079              		.cfi_def_cfa_offset 8
 1080              		.cfi_offset 3, -8
 1081              		.cfi_offset 14, -4
 1082              		.loc 1 38 0
 1083 0024 0020     		movs	r0, #0
ARM GAS  /tmp/ccBzkMOZ.s 			page 20


 1084              		.loc 1 48 0
 1085 0026 08BD     		pop	{r3, pc}
 1086              		.cfi_endproc
 1087              	.LFE45:
 1088              		.size	lbm_dec_str, .-lbm_dec_str
 1089              		.section	.text.lbm_dec_stream,"ax",%progbits
 1090              		.align	1
 1091              		.p2align 4,,15
 1092              		.global	lbm_dec_stream
 1093              		.syntax unified
 1094              		.thumb
 1095              		.thumb_func
 1096              		.fpu fpv4-sp-d16
 1097              		.type	lbm_dec_stream, %function
 1098              	lbm_dec_stream:
 1099              	.LFB46:
 1100              		.loc 1 50 0
 1101              		.cfi_startproc
 1102              		@ args = 0, pretend = 0, frame = 0
 1103              		@ frame_needed = 0, uses_anonymous_args = 0
 1104              		@ link register save eliminated.
 1105              	.LVL68:
 1106              	.LBB451:
 1107              	.LBB452:
 1108              		.loc 2 461 0
 1109 0000 C207     		lsls	r2, r0, #31
 1110 0002 01D4     		bmi	.L113
 1111              	.LVL69:
 1112              	.L108:
 1113              	.LBE452:
 1114              	.LBE451:
 1115              		.loc 1 57 0
 1116 0004 0020     		movs	r0, #0
 1117              	.LVL70:
 1118 0006 7047     		bx	lr
 1119              	.LVL71:
 1120              	.L113:
 1121              	.LBB454:
 1122              	.LBB453:
 1123              		.loc 2 461 0
 1124 0008 00F07C43 		and	r3, r0, #-67108864
 1125              	.LBE453:
 1126              	.LBE454:
 1127              		.loc 1 53 0
 1128 000c B3F1704F 		cmp	r3, #-268435456
 1129 0010 F8D1     		bne	.L108
 1130              		.loc 1 54 0
 1131 0012 FFF7FEBF 		b	lbm_car
 1132              	.LVL72:
 1133              		.cfi_endproc
 1134              	.LFE46:
 1135              		.size	lbm_dec_stream, .-lbm_dec_stream
 1136 0016 00BF     		.section	.text.lbm_dec_as_u,"ax",%progbits
 1137              		.align	1
 1138              		.p2align 4,,15
 1139              		.global	lbm_dec_as_u
 1140              		.syntax unified
ARM GAS  /tmp/ccBzkMOZ.s 			page 21


 1141              		.thumb
 1142              		.thumb_func
 1143              		.fpu fpv4-sp-d16
 1144              		.type	lbm_dec_as_u, %function
 1145              	lbm_dec_as_u:
 1146              	.LFB47:
 1147              		.loc 1 60 0
 1148              		.cfi_startproc
 1149              		@ args = 0, pretend = 0, frame = 0
 1150              		@ frame_needed = 0, uses_anonymous_args = 0
 1151              	.LVL73:
 1152 0000 08B5     		push	{r3, lr}
 1153              		.cfi_def_cfa_offset 8
 1154              		.cfi_offset 3, -8
 1155              		.cfi_offset 14, -4
 1156              	.LBB455:
 1157              	.LBB456:
 1158              		.loc 2 461 0
 1159 0002 C307     		lsls	r3, r0, #31
 1160 0004 4CBF     		ite	mi
 1161 0006 00F07C43 		andmi	r3, r0, #-67108864
 1162 000a 00F00C03 		andpl	r3, r0, #12
 1163              	.LVL74:
 1164              	.LBE456:
 1165              	.LBE455:
 1166              		.loc 1 64 0
 1167 000e 0C2B     		cmp	r3, #12
 1168 0010 21D0     		beq	.L118
 1169 0012 05D8     		bhi	.L119
 1170 0014 042B     		cmp	r3, #4
 1171 0016 1BD0     		beq	.L120
 1172 0018 082B     		cmp	r3, #8
 1173 001a 13D1     		bne	.L124
 1174              	.LVL75:
 1175              	.LBB457:
 1176              	.LBB458:
 1177              		.loc 2 521 0
 1178 001c 0009     		lsrs	r0, r0, #4
 1179              	.LVL76:
 1180              	.LBE458:
 1181              	.LBE457:
 1182              		.loc 1 80 0
 1183 001e 08BD     		pop	{r3, pc}
 1184              	.LVL77:
 1185              	.L119:
 1186              		.loc 1 64 0
 1187 0020 B3F1405F 		cmp	r3, #805306368
 1188 0024 10D0     		beq	.L122
 1189 0026 B3F1804F 		cmp	r3, #1073741824
 1190 002a 08D1     		bne	.L132
 1191              		.loc 1 75 0
 1192 002c FFF7FEFF 		bl	lbm_car
 1193              	.LVL78:
 1194              		.loc 1 77 0
 1195 0030 07EE900A 		vmov	s15, r0
 1196 0034 FCEEE77A 		vcvt.u32.f32	s15, s15
 1197 0038 17EE900A 		vmov	r0, s15	@ int
ARM GAS  /tmp/ccBzkMOZ.s 			page 22


 1198              	.LVL79:
 1199              		.loc 1 80 0
 1200 003c 08BD     		pop	{r3, pc}
 1201              	.LVL80:
 1202              	.L132:
 1203              		.loc 1 64 0
 1204 003e B3F1005F 		cmp	r3, #536870912
 1205 0042 01D0     		beq	.L122
 1206              	.L124:
 1207              		.loc 1 79 0
 1208 0044 0020     		movs	r0, #0
 1209              	.LVL81:
 1210              		.loc 1 80 0
 1211 0046 08BD     		pop	{r3, pc}
 1212              	.LVL82:
 1213              	.L122:
 1214 0048 BDE80840 		pop	{r3, lr}
 1215              		.cfi_remember_state
 1216              		.cfi_restore 14
 1217              		.cfi_restore 3
 1218              		.cfi_def_cfa_offset 0
 1219              		.loc 1 73 0
 1220 004c FFF7FEBF 		b	lbm_car
 1221              	.LVL83:
 1222              	.L120:
 1223              		.cfi_restore_state
 1224 0050 C0F30710 		ubfx	r0, r0, #4, #8
 1225              	.LVL84:
 1226              		.loc 1 80 0
 1227 0054 08BD     		pop	{r3, pc}
 1228              	.LVL85:
 1229              	.L118:
 1230              	.LBB459:
 1231              	.LBB460:
 1232              		.loc 2 517 0
 1233 0056 0011     		asrs	r0, r0, #4
 1234              	.LVL86:
 1235              	.LBE460:
 1236              	.LBE459:
 1237              		.loc 1 80 0
 1238 0058 08BD     		pop	{r3, pc}
 1239              		.cfi_endproc
 1240              	.LFE47:
 1241              		.size	lbm_dec_as_u, .-lbm_dec_as_u
 1242 005a 00BF     		.section	.text.lbm_dec_as_i,"ax",%progbits
 1243              		.align	1
 1244              		.p2align 4,,15
 1245              		.global	lbm_dec_as_i
 1246              		.syntax unified
 1247              		.thumb
 1248              		.thumb_func
 1249              		.fpu fpv4-sp-d16
 1250              		.type	lbm_dec_as_i, %function
 1251              	lbm_dec_as_i:
 1252              	.LFB48:
 1253              		.loc 1 82 0
 1254              		.cfi_startproc
ARM GAS  /tmp/ccBzkMOZ.s 			page 23


 1255              		@ args = 0, pretend = 0, frame = 0
 1256              		@ frame_needed = 0, uses_anonymous_args = 0
 1257              	.LVL87:
 1258 0000 08B5     		push	{r3, lr}
 1259              		.cfi_def_cfa_offset 8
 1260              		.cfi_offset 3, -8
 1261              		.cfi_offset 14, -4
 1262              	.LBB461:
 1263              	.LBB462:
 1264              		.loc 2 461 0
 1265 0002 C307     		lsls	r3, r0, #31
 1266 0004 4CBF     		ite	mi
 1267 0006 00F07C43 		andmi	r3, r0, #-67108864
 1268 000a 00F00C03 		andpl	r3, r0, #12
 1269              	.LVL88:
 1270              	.LBE462:
 1271              	.LBE461:
 1272              		.loc 1 87 0
 1273 000e 0C2B     		cmp	r3, #12
 1274 0010 21D0     		beq	.L137
 1275 0012 05D8     		bhi	.L138
 1276 0014 042B     		cmp	r3, #4
 1277 0016 1BD0     		beq	.L139
 1278 0018 082B     		cmp	r3, #8
 1279 001a 13D1     		bne	.L143
 1280              	.LBB463:
 1281              	.LBB464:
 1282              		.loc 2 521 0
 1283 001c 0009     		lsrs	r0, r0, #4
 1284              	.LVL89:
 1285              	.LBE464:
 1286              	.LBE463:
 1287              		.loc 1 103 0
 1288 001e 08BD     		pop	{r3, pc}
 1289              	.LVL90:
 1290              	.L138:
 1291              		.loc 1 87 0
 1292 0020 B3F1405F 		cmp	r3, #805306368
 1293 0024 10D0     		beq	.L141
 1294 0026 B3F1804F 		cmp	r3, #1073741824
 1295 002a 08D1     		bne	.L151
 1296              		.loc 1 98 0
 1297 002c FFF7FEFF 		bl	lbm_car
 1298              	.LVL91:
 1299              		.loc 1 100 0
 1300 0030 07EE900A 		vmov	s15, r0
 1301 0034 FDEEE77A 		vcvt.s32.f32	s15, s15
 1302 0038 17EE900A 		vmov	r0, s15	@ int
 1303              	.LVL92:
 1304              		.loc 1 103 0
 1305 003c 08BD     		pop	{r3, pc}
 1306              	.LVL93:
 1307              	.L151:
 1308              		.loc 1 87 0
 1309 003e B3F1005F 		cmp	r3, #536870912
 1310 0042 01D0     		beq	.L141
 1311              	.L143:
ARM GAS  /tmp/ccBzkMOZ.s 			page 24


 1312              		.loc 1 102 0
 1313 0044 0020     		movs	r0, #0
 1314              	.LVL94:
 1315              		.loc 1 103 0
 1316 0046 08BD     		pop	{r3, pc}
 1317              	.LVL95:
 1318              	.L141:
 1319 0048 BDE80840 		pop	{r3, lr}
 1320              		.cfi_remember_state
 1321              		.cfi_restore 14
 1322              		.cfi_restore 3
 1323              		.cfi_def_cfa_offset 0
 1324              		.loc 1 96 0
 1325 004c FFF7FEBF 		b	lbm_car
 1326              	.LVL96:
 1327              	.L139:
 1328              		.cfi_restore_state
 1329              		.loc 1 89 0
 1330 0050 C0F30710 		ubfx	r0, r0, #4, #8
 1331              	.LVL97:
 1332              		.loc 1 103 0
 1333 0054 08BD     		pop	{r3, pc}
 1334              	.LVL98:
 1335              	.L137:
 1336              	.LBB465:
 1337              	.LBB466:
 1338              		.loc 2 517 0
 1339 0056 0011     		asrs	r0, r0, #4
 1340              	.LVL99:
 1341              	.LBE466:
 1342              	.LBE465:
 1343              		.loc 1 103 0
 1344 0058 08BD     		pop	{r3, pc}
 1345              		.cfi_endproc
 1346              	.LFE48:
 1347              		.size	lbm_dec_as_i, .-lbm_dec_as_i
 1348 005a 00BF     		.section	.text.lbm_dec_as_f,"ax",%progbits
 1349              		.align	1
 1350              		.p2align 4,,15
 1351              		.global	lbm_dec_as_f
 1352              		.syntax unified
 1353              		.thumb
 1354              		.thumb_func
 1355              		.fpu fpv4-sp-d16
 1356              		.type	lbm_dec_as_f, %function
 1357              	lbm_dec_as_f:
 1358              	.LFB49:
 1359              		.loc 1 105 0
 1360              		.cfi_startproc
 1361              		@ args = 0, pretend = 0, frame = 0
 1362              		@ frame_needed = 0, uses_anonymous_args = 0
 1363              	.LVL100:
 1364 0000 08B5     		push	{r3, lr}
 1365              		.cfi_def_cfa_offset 8
 1366              		.cfi_offset 3, -8
 1367              		.cfi_offset 14, -4
 1368              	.LBB467:
ARM GAS  /tmp/ccBzkMOZ.s 			page 25


 1369              	.LBB468:
 1370              		.loc 2 461 0
 1371 0002 C307     		lsls	r3, r0, #31
 1372 0004 4CBF     		ite	mi
 1373 0006 00F07C43 		andmi	r3, r0, #-67108864
 1374 000a 00F00C03 		andpl	r3, r0, #12
 1375              	.LVL101:
 1376              	.LBE468:
 1377              	.LBE467:
 1378              		.loc 1 110 0
 1379 000e 0C2B     		cmp	r3, #12
 1380 0010 29D0     		beq	.L156
 1381 0012 09D8     		bhi	.L157
 1382 0014 042B     		cmp	r3, #4
 1383 0016 1FD0     		beq	.L158
 1384 0018 082B     		cmp	r3, #8
 1385 001a 13D1     		bne	.L162
 1386              	.LBB469:
 1387              	.LBB470:
 1388              		.loc 2 521 0
 1389 001c 0009     		lsrs	r0, r0, #4
 1390              	.LVL102:
 1391              	.LBE470:
 1392              	.LBE469:
 1393              		.loc 1 116 0
 1394 001e 07EE900A 		vmov	s15, r0	@ int
 1395 0022 B8EEE70A 		vcvt.f32.s32	s0, s15
 1396              		.loc 1 126 0
 1397 0026 08BD     		pop	{r3, pc}
 1398              	.LVL103:
 1399              	.L157:
 1400              		.loc 1 110 0
 1401 0028 B3F1405F 		cmp	r3, #805306368
 1402 002c 0DD0     		beq	.L160
 1403 002e B3F1804F 		cmp	r3, #1073741824
 1404 0032 04D1     		bne	.L170
 1405              		.loc 1 121 0
 1406 0034 FFF7FEFF 		bl	lbm_car
 1407              	.LVL104:
 1408 0038 00EE100A 		vmov	s0, r0
 1409              		.loc 1 126 0
 1410 003c 08BD     		pop	{r3, pc}
 1411              	.LVL105:
 1412              	.L170:
 1413              		.loc 1 110 0
 1414 003e B3F1005F 		cmp	r3, #536870912
 1415 0042 02D0     		beq	.L160
 1416              	.L162:
 1417              		.loc 1 125 0
 1418 0044 9FED0B0A 		vldr.32	s0, .L171
 1419              		.loc 1 126 0
 1420 0048 08BD     		pop	{r3, pc}
 1421              	.L160:
 1422              		.loc 1 119 0
 1423 004a FFF7FEFF 		bl	lbm_car
 1424              	.LVL106:
 1425 004e 07EE900A 		vmov	s15, r0	@ int
ARM GAS  /tmp/ccBzkMOZ.s 			page 26


 1426 0052 B8EE670A 		vcvt.f32.u32	s0, s15
 1427              		.loc 1 126 0
 1428 0056 08BD     		pop	{r3, pc}
 1429              	.LVL107:
 1430              	.L158:
 1431              		.loc 1 112 0
 1432 0058 C0F30710 		ubfx	r0, r0, #4, #8
 1433              	.LVL108:
 1434 005c 07EE900A 		vmov	s15, r0	@ int
 1435 0060 B8EE670A 		vcvt.f32.u32	s0, s15
 1436              		.loc 1 126 0
 1437 0064 08BD     		pop	{r3, pc}
 1438              	.LVL109:
 1439              	.L156:
 1440              	.LBB471:
 1441              	.LBB472:
 1442              		.loc 2 517 0
 1443 0066 0011     		asrs	r0, r0, #4
 1444              	.LVL110:
 1445              	.LBE472:
 1446              	.LBE471:
 1447              		.loc 1 114 0
 1448 0068 07EE900A 		vmov	s15, r0	@ int
 1449 006c B8EEE70A 		vcvt.f32.s32	s0, s15
 1450              		.loc 1 126 0
 1451 0070 08BD     		pop	{r3, pc}
 1452              	.L172:
 1453 0072 00BF     		.align	2
 1454              	.L171:
 1455 0074 00000000 		.word	0
 1456              		.cfi_endproc
 1457              	.LFE49:
 1458              		.size	lbm_dec_as_f, .-lbm_dec_as_f
 1459              		.section	.text.lbm_cdr,"ax",%progbits
 1460              		.align	1
 1461              		.p2align 4,,15
 1462              		.global	lbm_cdr
 1463              		.syntax unified
 1464              		.thumb
 1465              		.thumb_func
 1466              		.fpu fpv4-sp-d16
 1467              		.type	lbm_cdr, %function
 1468              	lbm_cdr:
 1469              	.LFB76:
 1470              		.loc 1 492 0
 1471              		.cfi_startproc
 1472              		@ args = 0, pretend = 0, frame = 0
 1473              		@ frame_needed = 0, uses_anonymous_args = 0
 1474              		@ link register save eliminated.
 1475              	.LVL111:
 1476              	.LBB490:
 1477              	.LBB491:
 1478              		.loc 2 461 0
 1479 0000 C307     		lsls	r3, r0, #31
 1480 0002 0ED5     		bpl	.L174
 1481              	.LVL112:
 1482              	.LBE491:
ARM GAS  /tmp/ccBzkMOZ.s 			page 27


 1483              	.LBE490:
 1484              		.loc 1 494 0
 1485 0004 10F07C43 		ands	r3, r0, #-67108864
 1486 0008 0ED0     		beq	.L175
 1487              		.loc 1 499 0
 1488 000a B3F1805F 		cmp	r3, #268435456
 1489 000e 11D1     		bne	.L180
 1490              	.LVL113:
 1491              	.LBB492:
 1492              	.LBB493:
 1493              	.LBB494:
 1494              	.LBB495:
 1495              		.loc 1 132 0
 1496 0010 094B     		ldr	r3, .L185
 1497              	.LBE495:
 1498              	.LBE494:
 1499              		.loc 1 501 0
 1500 0012 20F07C40 		bic	r0, r0, #-67108864
 1501              	.LVL114:
 1502 0016 1B68     		ldr	r3, [r3]
 1503 0018 20F00700 		bic	r0, r0, #7
 1504 001c 1844     		add	r0, r0, r3
 1505 001e 4068     		ldr	r0, [r0, #4]
 1506              	.LVL115:
 1507 0020 7047     		bx	lr
 1508              	.LVL116:
 1509              	.L174:
 1510              	.LBE493:
 1511              	.LBE492:
 1512              		.loc 1 494 0
 1513 0022 10F00C0F 		tst	r0, #12
 1514 0026 05D1     		bne	.L180
 1515              	.L175:
 1516              		.loc 1 495 0 discriminator 1
 1517 0028 044B     		ldr	r3, .L185+4
 1518              		.loc 1 494 0 discriminator 1
 1519 002a 1B68     		ldr	r3, [r3]
 1520              		.loc 1 503 0 discriminator 1
 1521 002c 8342     		cmp	r3, r0
 1522 002e 18BF     		it	ne
 1523 0030 8020     		movne	r0, #128
 1524              	.LVL117:
 1525 0032 7047     		bx	lr
 1526              	.LVL118:
 1527              	.L180:
 1528              		.loc 1 503 0 is_stmt 0
 1529 0034 8020     		movs	r0, #128
 1530              	.LVL119:
 1531              		.loc 1 504 0 is_stmt 1
 1532 0036 7047     		bx	lr
 1533              	.L186:
 1534              		.align	2
 1535              	.L185:
 1536 0038 00000000 		.word	.LANCHOR0
 1537 003c 00000000 		.word	.LANCHOR1
 1538              		.cfi_endproc
 1539              	.LFE76:
ARM GAS  /tmp/ccBzkMOZ.s 			page 28


 1540              		.size	lbm_cdr, .-lbm_cdr
 1541              		.section	.text.lbm_heap_allocate_cell,"ax",%progbits
 1542              		.align	1
 1543              		.p2align 4,,15
 1544              		.global	lbm_heap_allocate_cell
 1545              		.syntax unified
 1546              		.thumb
 1547              		.thumb_func
 1548              		.fpu fpv4-sp-d16
 1549              		.type	lbm_heap_allocate_cell, %function
 1550              	lbm_heap_allocate_cell:
 1551              	.LFB64:
 1552              		.loc 1 253 0
 1553              		.cfi_startproc
 1554              		@ args = 0, pretend = 0, frame = 0
 1555              		@ frame_needed = 0, uses_anonymous_args = 0
 1556              	.LVL120:
 1557              		.loc 1 257 0
 1558 0000 1649     		ldr	r1, .L194
 1559 0002 4A68     		ldr	r2, [r1, #4]
 1560              		.loc 1 253 0
 1561 0004 F8B5     		push	{r3, r4, r5, r6, r7, lr}
 1562              		.cfi_def_cfa_offset 24
 1563              		.cfi_offset 3, -24
 1564              		.cfi_offset 4, -20
 1565              		.cfi_offset 5, -16
 1566              		.cfi_offset 6, -12
 1567              		.cfi_offset 7, -8
 1568              		.cfi_offset 14, -4
 1569              		.loc 1 257 0
 1570 0006 D307     		lsls	r3, r2, #31
 1571 0008 09D4     		bmi	.L188
 1572              		.loc 1 259 0
 1573 000a 12F00C0F 		tst	r2, #12
 1574 000e 22D1     		bne	.L192
 1575              		.loc 1 260 0 discriminator 1
 1576 0010 134B     		ldr	r3, .L194+4
 1577              		.loc 1 259 0 discriminator 1
 1578 0012 1868     		ldr	r0, [r3]
 1579              	.LVL121:
 1580              		.loc 1 262 0 discriminator 1
 1581 0014 8242     		cmp	r2, r0
 1582 0016 14BF     		ite	ne
 1583 0018 C020     		movne	r0, #192
 1584 001a A020     		moveq	r0, #160
 1585              		.loc 1 289 0 discriminator 1
 1586 001c F8BD     		pop	{r3, r4, r5, r6, r7, pc}
 1587              	.LVL122:
 1588              	.L188:
 1589              	.LBB496:
 1590              	.LBB497:
 1591              		.loc 2 461 0
 1592 001e 02F07C43 		and	r3, r2, #-67108864
 1593              	.LBE497:
 1594              	.LBE496:
 1595              		.loc 1 272 0
 1596 0022 B3F1805F 		cmp	r3, #268435456
ARM GAS  /tmp/ccBzkMOZ.s 			page 29


 1597 0026 16D1     		bne	.L192
 1598 0028 0446     		mov	r4, r0
 1599              		.loc 1 276 0
 1600 002a 1046     		mov	r0, r2
 1601              	.LVL123:
 1602 002c FFF7FEFF 		bl	lbm_cdr
 1603              	.LVL124:
 1604              		.loc 1 281 0
 1605 0030 0B4D     		ldr	r5, .L194+4
 1606              	.LBB498:
 1607              	.LBB499:
 1608              		.loc 1 132 0
 1609 0032 0B68     		ldr	r3, [r1]
 1610              	.LBE499:
 1611              	.LBE498:
 1612              		.loc 1 281 0
 1613 0034 2F68     		ldr	r7, [r5]
 1614              		.loc 1 278 0
 1615 0036 0D69     		ldr	r5, [r1, #16]
 1616              		.loc 1 276 0
 1617 0038 4860     		str	r0, [r1, #4]
 1618              	.LBB504:
 1619              	.LBB502:
 1620              	.LBB500:
 1621              	.LBB501:
 1622              		.loc 2 473 0
 1623 003a C2F3D606 		ubfx	r6, r2, #3, #23
 1624              	.LBE501:
 1625              	.LBE500:
 1626              	.LBE502:
 1627              	.LBE504:
 1628              		.loc 1 278 0
 1629 003e 0135     		adds	r5, r5, #1
 1630              	.LBB505:
 1631              	.LBB506:
 1632              		.loc 1 145 0
 1633 0040 43F83670 		str	r7, [r3, r6, lsl #3]
 1634              	.LBE506:
 1635              	.LBE505:
 1636              	.LBB507:
 1637              	.LBB503:
 1638              		.loc 1 132 0
 1639 0044 03EBC603 		add	r3, r3, r6, lsl #3
 1640              	.LBE503:
 1641              	.LBE507:
 1642              		.loc 1 287 0
 1643 0048 42EA0400 		orr	r0, r2, r4
 1644              	.LBB508:
 1645              	.LBB509:
 1646              	.LBB510:
 1647              	.LBB511:
 1648              		.loc 2 552 0
 1649 004c 27F00202 		bic	r2, r7, #2
 1650              	.LVL125:
 1651              	.LBE511:
 1652              	.LBE510:
 1653              	.LBE509:
ARM GAS  /tmp/ccBzkMOZ.s 			page 30


 1654              	.LBE508:
 1655              		.loc 1 278 0
 1656 0050 0D61     		str	r5, [r1, #16]
 1657              	.LVL126:
 1658              	.LBB515:
 1659              	.LBB514:
 1660              	.LBB512:
 1661              	.LBB513:
 1662              		.loc 1 149 0
 1663 0052 5A60     		str	r2, [r3, #4]
 1664              	.LVL127:
 1665              	.LBE513:
 1666              	.LBE512:
 1667              	.LBE514:
 1668              	.LBE515:
 1669              		.loc 1 289 0
 1670 0054 F8BD     		pop	{r3, r4, r5, r6, r7, pc}
 1671              	.LVL128:
 1672              	.L192:
 1673              		.loc 1 265 0
 1674 0056 C020     		movs	r0, #192
 1675              	.LVL129:
 1676              		.loc 1 289 0
 1677 0058 F8BD     		pop	{r3, r4, r5, r6, r7, pc}
 1678              	.L195:
 1679 005a 00BF     		.align	2
 1680              	.L194:
 1681 005c 00000000 		.word	.LANCHOR0
 1682 0060 00000000 		.word	.LANCHOR1
 1683              		.cfi_endproc
 1684              	.LFE64:
 1685              		.size	lbm_heap_allocate_cell, .-lbm_heap_allocate_cell
 1686              		.section	.text.lbm_cons,"ax",%progbits
 1687              		.align	1
 1688              		.p2align 4,,15
 1689              		.global	lbm_cons
 1690              		.syntax unified
 1691              		.thumb
 1692              		.thumb_func
 1693              		.fpu fpv4-sp-d16
 1694              		.type	lbm_cons, %function
 1695              	lbm_cons:
 1696              	.LFB74:
 1697              		.loc 1 467 0
 1698              		.cfi_startproc
 1699              		@ args = 0, pretend = 0, frame = 0
 1700              		@ frame_needed = 0, uses_anonymous_args = 0
 1701              	.LVL130:
 1702 0000 38B5     		push	{r3, r4, r5, lr}
 1703              		.cfi_def_cfa_offset 16
 1704              		.cfi_offset 3, -16
 1705              		.cfi_offset 4, -12
 1706              		.cfi_offset 5, -8
 1707              		.cfi_offset 14, -4
 1708              		.loc 1 467 0
 1709 0002 0546     		mov	r5, r0
 1710              		.loc 1 468 0
ARM GAS  /tmp/ccBzkMOZ.s 			page 31


 1711 0004 4FF08050 		mov	r0, #268435456
 1712              	.LVL131:
 1713              		.loc 1 467 0
 1714 0008 0C46     		mov	r4, r1
 1715              		.loc 1 468 0
 1716 000a FFF7FEFF 		bl	lbm_heap_allocate_cell
 1717              	.LVL132:
 1718              		.loc 1 469 0
 1719 000e C307     		lsls	r3, r0, #31
 1720 0010 08D5     		bpl	.L196
 1721              	.LVL133:
 1722              	.LBB516:
 1723              	.LBB517:
 1724              		.loc 1 132 0
 1725 0012 054B     		ldr	r3, .L202
 1726 0014 1B68     		ldr	r3, [r3]
 1727              	.LBB518:
 1728              	.LBB519:
 1729              		.loc 2 473 0
 1730 0016 C0F3D602 		ubfx	r2, r0, #3, #23
 1731              	.LBE519:
 1732              	.LBE518:
 1733              		.loc 1 132 0
 1734 001a 03EBC201 		add	r1, r3, r2, lsl #3
 1735              	.LVL134:
 1736              	.LBE517:
 1737              	.LBE516:
 1738              	.LBB520:
 1739              	.LBB521:
 1740              		.loc 1 145 0
 1741 001e 43F83250 		str	r5, [r3, r2, lsl #3]
 1742              	.LVL135:
 1743              	.LBE521:
 1744              	.LBE520:
 1745              	.LBB522:
 1746              	.LBB523:
 1747              		.loc 1 149 0
 1748 0022 4C60     		str	r4, [r1, #4]
 1749              	.LVL136:
 1750              	.L196:
 1751              	.LBE523:
 1752              	.LBE522:
 1753              		.loc 1 476 0
 1754 0024 38BD     		pop	{r3, r4, r5, pc}
 1755              	.LVL137:
 1756              	.L203:
 1757 0026 00BF     		.align	2
 1758              	.L202:
 1759 0028 00000000 		.word	.LANCHOR0
 1760              		.cfi_endproc
 1761              	.LFE74:
 1762              		.size	lbm_cons, .-lbm_cons
 1763              		.section	.text.lbm_gc_mark_phase,"ax",%progbits
 1764              		.align	1
 1765              		.p2align 4,,15
 1766              		.global	lbm_gc_mark_phase
 1767              		.syntax unified
ARM GAS  /tmp/ccBzkMOZ.s 			page 32


 1768              		.thumb
 1769              		.thumb_func
 1770              		.fpu fpv4-sp-d16
 1771              		.type	lbm_gc_mark_phase, %function
 1772              	lbm_gc_mark_phase:
 1773              	.LFB69:
 1774              		.loc 1 321 0
 1775              		.cfi_startproc
 1776              		@ args = 0, pretend = 0, frame = 24
 1777              		@ frame_needed = 0, uses_anonymous_args = 0
 1778              	.LVL138:
 1779 0000 F0B5     		push	{r4, r5, r6, r7, lr}
 1780              		.cfi_def_cfa_offset 20
 1781              		.cfi_offset 4, -20
 1782              		.cfi_offset 5, -16
 1783              		.cfi_offset 6, -12
 1784              		.cfi_offset 7, -8
 1785              		.cfi_offset 14, -4
 1786 0002 87B0     		sub	sp, sp, #28
 1787              		.cfi_def_cfa_offset 48
 1788              		.loc 1 321 0
 1789 0004 0446     		mov	r4, r0
 1790              		.loc 1 324 0
 1791 0006 2549     		ldr	r1, .L232
 1792 0008 4FF48062 		mov	r2, #1024
 1793 000c 02A8     		add	r0, sp, #8
 1794              	.LVL139:
 1795 000e FFF7FEFF 		bl	lbm_stack_create
 1796              	.LVL140:
 1797              		.loc 1 326 0
 1798 0012 E107     		lsls	r1, r4, #31
 1799 0014 02D4     		bmi	.L231
 1800              	.LVL141:
 1801              	.L205:
 1802              		.loc 1 327 0
 1803 0016 0120     		movs	r0, #1
 1804              	.L204:
 1805              		.loc 1 367 0
 1806 0018 07B0     		add	sp, sp, #28
 1807              		.cfi_remember_state
 1808              		.cfi_def_cfa_offset 20
 1809              		@ sp needed
 1810 001a F0BD     		pop	{r4, r5, r6, r7, pc}
 1811              	.LVL142:
 1812              	.L231:
 1813              		.cfi_restore_state
 1814              		.loc 1 330 0
 1815 001c 2146     		mov	r1, r4
 1816 001e 02A8     		add	r0, sp, #8
 1817 0020 FFF7FEFF 		bl	lbm_push_u32
 1818              	.LVL143:
 1819              	.LBB524:
 1820              	.LBB525:
 1821              	.LBB526:
 1822              		.loc 1 132 0
 1823 0024 1E4C     		ldr	r4, .L232+4
 1824              	.LVL144:
ARM GAS  /tmp/ccBzkMOZ.s 			page 33


 1825              	.L206:
 1826              	.LBE526:
 1827              	.LBE525:
 1828              	.LBE524:
 1829              	.LBB545:
 1830              	.LBB546:
 1831              		.file 3 "lispBM/lispBM/include/stack.h"
 1832              		.loc 3 97 0
 1833 0026 039B     		ldr	r3, [sp, #12]
 1834              	.LBE546:
 1835              	.LBE545:
 1836              	.LBB548:
 1837              		.loc 1 335 0
 1838 0028 01A9     		add	r1, sp, #4
 1839 002a 02A8     		add	r0, sp, #8
 1840              	.LVL145:
 1841              	.LBE548:
 1842              	.LBB549:
 1843              	.LBB547:
 1844              		.loc 3 97 0
 1845 002c 002B     		cmp	r3, #0
 1846 002e F2D0     		beq	.L205
 1847              	.LBE547:
 1848              	.LBE549:
 1849              	.LBB550:
 1850              		.loc 1 335 0
 1851 0030 FFF7FEFF 		bl	lbm_pop_u32
 1852              	.LVL146:
 1853              		.loc 1 337 0
 1854 0034 0198     		ldr	r0, [sp, #4]
 1855              	.LVL147:
 1856              	.LBB530:
 1857              	.LBB527:
 1858              		.loc 1 132 0
 1859 0036 20F07C43 		bic	r3, r0, #-67108864
 1860              	.LBE527:
 1861              	.LBE530:
 1862              		.loc 1 337 0
 1863 003a C207     		lsls	r2, r0, #31
 1864              	.LBB531:
 1865              	.LBB528:
 1866              		.loc 1 132 0
 1867 003c 23F00703 		bic	r3, r3, #7
 1868              	.LBE528:
 1869              	.LBE531:
 1870              		.loc 1 353 0
 1871 0040 00F06C41 		and	r1, r0, #-335544320
 1872              		.loc 1 337 0
 1873 0044 EFD5     		bpl	.L206
 1874              	.LBB532:
 1875              	.LBB529:
 1876              		.loc 1 132 0
 1877 0046 2268     		ldr	r2, [r4]
 1878 0048 1344     		add	r3, r3, r2
 1879              	.LVL148:
 1880              	.LBE529:
 1881              	.LBE532:
ARM GAS  /tmp/ccBzkMOZ.s 			page 34


 1882              	.LBB533:
 1883              	.LBB534:
 1884              		.loc 2 461 0
 1885 004a 00F07C46 		and	r6, r0, #-67108864
 1886              	.LBE534:
 1887              	.LBE533:
 1888              	.LBB535:
 1889              	.LBB536:
 1890              		.loc 1 163 0
 1891 004e 5A68     		ldr	r2, [r3, #4]
 1892              	.LVL149:
 1893              	.LBE536:
 1894              	.LBE535:
 1895              	.LBB537:
 1896              	.LBB538:
 1897              	.LBB539:
 1898              	.LBB540:
 1899              		.loc 2 548 0
 1900 0050 42F00205 		orr	r5, r2, #2
 1901              	.LBE540:
 1902              	.LBE539:
 1903              	.LBE538:
 1904              	.LBE537:
 1905              		.loc 1 342 0
 1906 0054 9207     		lsls	r2, r2, #30
 1907              		.loc 1 355 0
 1908 0056 00F05C47 		and	r7, r0, #-603979776
 1909              		.loc 1 342 0
 1910 005a E4D4     		bmi	.L206
 1911              		.loc 1 347 0
 1912 005c E269     		ldr	r2, [r4, #28]
 1913              	.LBB544:
 1914              	.LBB543:
 1915              	.LBB541:
 1916              	.LBB542:
 1917              		.loc 1 149 0
 1918 005e 5D60     		str	r5, [r3, #4]
 1919              	.LBE542:
 1920              	.LBE541:
 1921              	.LBE543:
 1922              	.LBE544:
 1923              		.loc 1 347 0
 1924 0060 0132     		adds	r2, r2, #1
 1925              		.loc 1 353 0
 1926 0062 B1F1005F 		cmp	r1, #536870912
 1927              		.loc 1 347 0
 1928 0066 E261     		str	r2, [r4, #28]
 1929              	.LVL150:
 1930              		.loc 1 353 0
 1931 0068 DDD0     		beq	.L206
 1932              		.loc 1 354 0
 1933 006a B6F1804F 		cmp	r6, #1073741824
 1934 006e DAD0     		beq	.L206
 1935              		.loc 1 355 0
 1936 0070 B7F1504F 		cmp	r7, #-805306368
 1937 0074 D7D0     		beq	.L206
 1938              		.loc 1 360 0
ARM GAS  /tmp/ccBzkMOZ.s 			page 35


 1939 0076 FFF7FEFF 		bl	lbm_cdr
 1940              	.LVL151:
 1941 007a 0146     		mov	r1, r0
 1942 007c 02A8     		add	r0, sp, #8
 1943              	.LVL152:
 1944 007e FFF7FEFF 		bl	lbm_push_u32
 1945              	.LVL153:
 1946 0082 0546     		mov	r5, r0
 1947              	.LVL154:
 1948              		.loc 1 361 0
 1949 0084 0198     		ldr	r0, [sp, #4]
 1950              	.LVL155:
 1951 0086 FFF7FEFF 		bl	lbm_car
 1952              	.LVL156:
 1953 008a 0146     		mov	r1, r0
 1954 008c 02A8     		add	r0, sp, #8
 1955              	.LVL157:
 1956 008e FFF7FEFF 		bl	lbm_push_u32
 1957              	.LVL158:
 1958 0092 2840     		ands	r0, r0, r5
 1959              	.LVL159:
 1960              		.loc 1 363 0
 1961 0094 10F00100 		ands	r0, r0, #1
 1962              	.LVL160:
 1963 0098 C5D1     		bne	.L206
 1964 009a BDE7     		b	.L204
 1965              	.L233:
 1966              		.align	2
 1967              	.L232:
 1968 009c 00000000 		.word	stack_storage
 1969 00a0 00000000 		.word	.LANCHOR0
 1970              	.LBE550:
 1971              		.cfi_endproc
 1972              	.LFE69:
 1973              		.size	lbm_gc_mark_phase, .-lbm_gc_mark_phase
 1974              		.section	.text.lbm_gc_mark_aux,"ax",%progbits
 1975              		.align	1
 1976              		.p2align 4,,15
 1977              		.global	lbm_gc_mark_aux
 1978              		.syntax unified
 1979              		.thumb
 1980              		.thumb_func
 1981              		.fpu fpv4-sp-d16
 1982              		.type	lbm_gc_mark_aux, %function
 1983              	lbm_gc_mark_aux:
 1984              	.LFB71:
 1985              		.loc 1 398 0
 1986              		.cfi_startproc
 1987              		@ args = 0, pretend = 0, frame = 0
 1988              		@ frame_needed = 0, uses_anonymous_args = 0
 1989              	.LVL161:
 1990              	.LBB551:
 1991              		.loc 1 400 0
 1992 0000 41B3     		cbz	r1, .L259
 1993              	.LBE551:
 1994              		.loc 1 398 0
 1995 0002 70B5     		push	{r4, r5, r6, lr}
ARM GAS  /tmp/ccBzkMOZ.s 			page 36


 1996              		.cfi_def_cfa_offset 16
 1997              		.cfi_offset 4, -16
 1998              		.cfi_offset 5, -12
 1999              		.cfi_offset 6, -8
 2000              		.cfi_offset 14, -4
 2001 0004 041F     		subs	r4, r0, #4
 2002              	.LBB560:
 2003              	.LBB552:
 2004              		.loc 1 413 0
 2005 0006 144E     		ldr	r6, .L263
 2006 0008 04EB8105 		add	r5, r4, r1, lsl #2
 2007              	.LVL162:
 2008              	.L238:
 2009              	.LBE552:
 2010              		.loc 1 401 0
 2011 000c 54F8040F 		ldr	r0, [r4, #4]!
 2012              	.LVL163:
 2013 0010 10F0010F 		tst	r0, #1
 2014              	.LBB557:
 2015              		.loc 1 406 0
 2016 0014 00F05C43 		and	r3, r0, #-603979776
 2017              	.LBB553:
 2018              	.LBB554:
 2019              		.loc 2 473 0
 2020 0018 C0F3D602 		ubfx	r2, r0, #3, #23
 2021              	.LVL164:
 2022              	.LBE554:
 2023              	.LBE553:
 2024              	.LBE557:
 2025              		.loc 1 401 0
 2026 001c 13D0     		beq	.L236
 2027              	.LBB558:
 2028              		.loc 1 406 0
 2029 001e B3F1805F 		cmp	r3, #268435456
 2030              	.LBB555:
 2031              	.LBB556:
 2032              		.loc 2 461 0
 2033 0022 00F07C41 		and	r1, r0, #-67108864
 2034              	.LBE556:
 2035              	.LBE555:
 2036              		.loc 1 406 0
 2037 0026 0BD0     		beq	.L237
 2038              		.loc 1 407 0
 2039 0028 B1F1005F 		cmp	r1, #536870912
 2040 002c 08D0     		beq	.L237
 2041              		.loc 1 408 0
 2042 002e B1F1804F 		cmp	r1, #1073741824
 2043 0032 05D0     		beq	.L237
 2044              		.loc 1 409 0
 2045 0034 B3F1504F 		cmp	r3, #-805306368
 2046 0038 02D0     		beq	.L237
 2047              		.loc 1 410 0
 2048 003a B1F1604F 		cmp	r1, #-536870912
 2049 003e 02D1     		bne	.L236
 2050              	.L237:
 2051              		.loc 1 412 0
 2052 0040 B368     		ldr	r3, [r6, #8]
ARM GAS  /tmp/ccBzkMOZ.s 			page 37


 2053 0042 9342     		cmp	r3, r2
 2054 0044 03D8     		bhi	.L262
 2055              	.L236:
 2056              	.LBE558:
 2057              		.loc 1 400 0 discriminator 2
 2058 0046 AC42     		cmp	r4, r5
 2059 0048 E0D1     		bne	.L238
 2060              	.LBE560:
 2061              		.loc 1 421 0
 2062 004a 0120     		movs	r0, #1
 2063 004c 70BD     		pop	{r4, r5, r6, pc}
 2064              	.L262:
 2065              	.LBB561:
 2066              	.LBB559:
 2067              		.loc 1 415 0
 2068 004e FFF7FEFF 		bl	lbm_gc_mark_phase
 2069              	.LVL165:
 2070 0052 F8E7     		b	.L236
 2071              	.LVL166:
 2072              	.L259:
 2073              		.cfi_def_cfa_offset 0
 2074              		.cfi_restore 4
 2075              		.cfi_restore 5
 2076              		.cfi_restore 6
 2077              		.cfi_restore 14
 2078              	.LBE559:
 2079              	.LBE561:
 2080              		.loc 1 421 0
 2081 0054 0120     		movs	r0, #1
 2082              	.LVL167:
 2083 0056 7047     		bx	lr
 2084              	.L264:
 2085              		.align	2
 2086              	.L263:
 2087 0058 00000000 		.word	.LANCHOR0
 2088              		.cfi_endproc
 2089              	.LFE71:
 2090              		.size	lbm_gc_mark_aux, .-lbm_gc_mark_aux
 2091              		.section	.text.lbm_set_car,"ax",%progbits
 2092              		.align	1
 2093              		.p2align 4,,15
 2094              		.global	lbm_set_car
 2095              		.syntax unified
 2096              		.thumb
 2097              		.thumb_func
 2098              		.fpu fpv4-sp-d16
 2099              		.type	lbm_set_car, %function
 2100              	lbm_set_car:
 2101              	.LFB77:
 2102              		.loc 1 506 0
 2103              		.cfi_startproc
 2104              		@ args = 0, pretend = 0, frame = 0
 2105              		@ frame_needed = 0, uses_anonymous_args = 0
 2106              		@ link register save eliminated.
 2107              	.LVL168:
 2108              		.loc 1 508 0
 2109 0000 10F00103 		ands	r3, r0, #1
ARM GAS  /tmp/ccBzkMOZ.s 			page 38


 2110 0004 04D0     		beq	.L268
 2111              	.LBB579:
 2112              	.LBB580:
 2113              		.loc 2 461 0
 2114 0006 00F07C43 		and	r3, r0, #-67108864
 2115              	.LBE580:
 2116              	.LBE579:
 2117              		.loc 1 508 0
 2118 000a B3F1805F 		cmp	r3, #268435456
 2119 000e 01D0     		beq	.L269
 2120              	.L268:
 2121              		.loc 1 507 0
 2122 0010 0020     		movs	r0, #0
 2123              	.LVL169:
 2124              		.loc 1 514 0
 2125 0012 7047     		bx	lr
 2126              	.LVL170:
 2127              	.L269:
 2128              	.LBB581:
 2129              	.LBB582:
 2130              	.LBB583:
 2131              	.LBB584:
 2132              	.LBB585:
 2133              		.loc 1 132 0
 2134 0014 034A     		ldr	r2, .L270
 2135              	.LBB586:
 2136              	.LBB587:
 2137              		.loc 2 473 0
 2138 0016 C0F3D603 		ubfx	r3, r0, #3, #23
 2139              	.LBE587:
 2140              	.LBE586:
 2141              	.LBE585:
 2142              	.LBE584:
 2143              	.LBB588:
 2144              	.LBB589:
 2145              		.loc 1 145 0
 2146 001a 1268     		ldr	r2, [r2]
 2147 001c 0120     		movs	r0, #1
 2148              	.LVL171:
 2149 001e 42F83310 		str	r1, [r2, r3, lsl #3]
 2150              	.LVL172:
 2151 0022 7047     		bx	lr
 2152              	.L271:
 2153              		.align	2
 2154              	.L270:
 2155 0024 00000000 		.word	.LANCHOR0
 2156              	.LBE589:
 2157              	.LBE588:
 2158              	.LBE583:
 2159              	.LBE582:
 2160              	.LBE581:
 2161              		.cfi_endproc
 2162              	.LFE77:
 2163              		.size	lbm_set_car, .-lbm_set_car
 2164              		.section	.text.lbm_set_cdr,"ax",%progbits
 2165              		.align	1
 2166              		.p2align 4,,15
ARM GAS  /tmp/ccBzkMOZ.s 			page 39


 2167              		.global	lbm_set_cdr
 2168              		.syntax unified
 2169              		.thumb
 2170              		.thumb_func
 2171              		.fpu fpv4-sp-d16
 2172              		.type	lbm_set_cdr, %function
 2173              	lbm_set_cdr:
 2174              	.LFB78:
 2175              		.loc 1 516 0
 2176              		.cfi_startproc
 2177              		@ args = 0, pretend = 0, frame = 0
 2178              		@ frame_needed = 0, uses_anonymous_args = 0
 2179              		@ link register save eliminated.
 2180              	.LVL173:
 2181              	.LBB603:
 2182              	.LBB604:
 2183              		.loc 2 461 0
 2184 0000 10F00103 		ands	r3, r0, #1
 2185 0004 0ED0     		beq	.L275
 2186              	.LVL174:
 2187 0006 00F07C43 		and	r3, r0, #-67108864
 2188              	.LBE604:
 2189              	.LBE603:
 2190              		.loc 1 518 0
 2191 000a B3F1805F 		cmp	r3, #268435456
 2192 000e 09D1     		bne	.L275
 2193              	.LVL175:
 2194              	.LBB605:
 2195              	.LBB606:
 2196              	.LBB607:
 2197              	.LBB608:
 2198              	.LBB609:
 2199              		.loc 1 132 0
 2200 0010 054B     		ldr	r3, .L276
 2201              	.LBE609:
 2202              	.LBE608:
 2203              	.LBB610:
 2204              	.LBB611:
 2205              		.loc 1 149 0
 2206 0012 20F07C40 		bic	r0, r0, #-67108864
 2207              	.LVL176:
 2208 0016 1B68     		ldr	r3, [r3]
 2209 0018 20F00700 		bic	r0, r0, #7
 2210 001c 0344     		add	r3, r3, r0
 2211 001e 0120     		movs	r0, #1
 2212 0020 5960     		str	r1, [r3, #4]
 2213              	.LVL177:
 2214 0022 7047     		bx	lr
 2215              	.LVL178:
 2216              	.L275:
 2217              	.LBE611:
 2218              	.LBE610:
 2219              	.LBE607:
 2220              	.LBE606:
 2221              	.LBE605:
 2222              		.loc 1 517 0
 2223 0024 0020     		movs	r0, #0
ARM GAS  /tmp/ccBzkMOZ.s 			page 40


 2224              	.LVL179:
 2225              		.loc 1 524 0
 2226 0026 7047     		bx	lr
 2227              	.L277:
 2228              		.align	2
 2229              	.L276:
 2230 0028 00000000 		.word	.LANCHOR0
 2231              		.cfi_endproc
 2232              	.LFE78:
 2233              		.size	lbm_set_cdr, .-lbm_set_cdr
 2234              		.section	.text.lbm_list_length,"ax",%progbits
 2235              		.align	1
 2236              		.p2align 4,,15
 2237              		.global	lbm_list_length
 2238              		.syntax unified
 2239              		.thumb
 2240              		.thumb_func
 2241              		.fpu fpv4-sp-d16
 2242              		.type	lbm_list_length, %function
 2243              	lbm_list_length:
 2244              	.LFB79:
 2245              		.loc 1 527 0
 2246              		.cfi_startproc
 2247              		@ args = 0, pretend = 0, frame = 0
 2248              		@ frame_needed = 0, uses_anonymous_args = 0
 2249              	.LVL180:
 2250              	.LBB612:
 2251              	.LBB613:
 2252              		.loc 2 461 0
 2253 0000 10F00102 		ands	r2, r0, #1
 2254 0004 10D0     		beq	.L289
 2255              	.LVL181:
 2256              	.LBE613:
 2257              	.LBE612:
 2258              		.loc 1 527 0
 2259 0006 08B5     		push	{r3, lr}
 2260              		.cfi_def_cfa_offset 8
 2261              		.cfi_offset 3, -8
 2262              		.cfi_offset 14, -4
 2263              		.loc 1 528 0
 2264 0008 0022     		movs	r2, #0
 2265              	.LBB617:
 2266              	.LBB614:
 2267              		.loc 2 461 0
 2268 000a 00F07C43 		and	r3, r0, #-67108864
 2269              	.LVL182:
 2270              	.L292:
 2271              	.LBE614:
 2272              	.LBE617:
 2273              		.loc 1 530 0
 2274 000e B3F1805F 		cmp	r3, #268435456
 2275 0012 07D1     		bne	.L278
 2276              	.LVL183:
 2277              		.loc 1 532 0
 2278 0014 FFF7FEFF 		bl	lbm_cdr
 2279              	.LVL184:
 2280              	.LBB618:
ARM GAS  /tmp/ccBzkMOZ.s 			page 41


 2281              	.LBB615:
 2282              		.loc 2 461 0
 2283 0018 C107     		lsls	r1, r0, #31
 2284 001a 00F07C43 		and	r3, r0, #-67108864
 2285              	.LBE615:
 2286              	.LBE618:
 2287              		.loc 1 531 0
 2288 001e 02F10102 		add	r2, r2, #1
 2289              	.LVL185:
 2290              	.LBB619:
 2291              	.LBB616:
 2292              		.loc 2 461 0
 2293 0022 F4D4     		bmi	.L292
 2294              	.LVL186:
 2295              	.L278:
 2296              	.LBE616:
 2297              	.LBE619:
 2298              		.loc 1 535 0
 2299 0024 1046     		mov	r0, r2
 2300              	.LVL187:
 2301 0026 08BD     		pop	{r3, pc}
 2302              	.LVL188:
 2303              	.L289:
 2304              		.cfi_def_cfa_offset 0
 2305              		.cfi_restore 3
 2306              		.cfi_restore 14
 2307 0028 1046     		mov	r0, r2
 2308              	.LVL189:
 2309 002a 7047     		bx	lr
 2310              		.cfi_endproc
 2311              	.LFE79:
 2312              		.size	lbm_list_length, .-lbm_list_length
 2313              		.section	.text.lbm_list_reverse,"ax",%progbits
 2314              		.align	1
 2315              		.p2align 4,,15
 2316              		.global	lbm_list_reverse
 2317              		.syntax unified
 2318              		.thumb
 2319              		.thumb_func
 2320              		.fpu fpv4-sp-d16
 2321              		.type	lbm_list_reverse, %function
 2322              	lbm_list_reverse:
 2323              	.LFB80:
 2324              		.loc 1 538 0
 2325              		.cfi_startproc
 2326              		@ args = 0, pretend = 0, frame = 0
 2327              		@ frame_needed = 0, uses_anonymous_args = 0
 2328              	.LVL190:
 2329 0000 134B     		ldr	r3, .L316
 2330 0002 1968     		ldr	r1, [r3]
 2331              	.LBB620:
 2332              	.LBB621:
 2333              		.loc 2 461 0
 2334 0004 C307     		lsls	r3, r0, #31
 2335 0006 1ED5     		bpl	.L312
 2336              	.LVL191:
 2337              	.LBE621:
ARM GAS  /tmp/ccBzkMOZ.s 			page 42


 2338              	.LBE620:
 2339              		.loc 1 539 0
 2340 0008 10F07C43 		ands	r3, r0, #-67108864
 2341              		.loc 1 538 0
 2342 000c 10B5     		push	{r4, lr}
 2343              		.cfi_def_cfa_offset 8
 2344              		.cfi_offset 4, -8
 2345              		.cfi_offset 14, -4
 2346 000e 0446     		mov	r4, r0
 2347              		.loc 1 539 0
 2348 0010 17D0     		beq	.L293
 2349              	.LVL192:
 2350              	.L315:
 2351              		.loc 1 547 0
 2352 0012 B3F1805F 		cmp	r3, #268435456
 2353 0016 14D1     		bne	.L293
 2354              		.loc 1 549 0
 2355 0018 2046     		mov	r0, r4
 2356              	.LVL193:
 2357 001a FFF7FEFF 		bl	lbm_car
 2358              	.LVL194:
 2359 001e FFF7FEFF 		bl	lbm_cons
 2360              	.LVL195:
 2361 0022 0146     		mov	r1, r0
 2362              	.LVL196:
 2363              	.LBB622:
 2364              	.LBB623:
 2365              		.loc 2 461 0
 2366 0024 C807     		lsls	r0, r1, #31
 2367              	.LVL197:
 2368 0026 4CBF     		ite	mi
 2369 0028 01F07C43 		andmi	r3, r1, #-67108864
 2370 002c 01F00C03 		andpl	r3, r1, #12
 2371              	.LBE623:
 2372              	.LBE622:
 2373              		.loc 1 553 0
 2374 0030 2046     		mov	r0, r4
 2375              		.loc 1 550 0
 2376 0032 53B1     		cbz	r3, .L301
 2377              	.LVL198:
 2378              		.loc 1 553 0
 2379 0034 FFF7FEFF 		bl	lbm_cdr
 2380              	.LVL199:
 2381              	.LBB624:
 2382              	.LBB625:
 2383              		.loc 2 461 0
 2384 0038 C207     		lsls	r2, r0, #31
 2385              	.LBE625:
 2386              	.LBE624:
 2387              		.loc 1 553 0
 2388 003a 0446     		mov	r4, r0
 2389              	.LVL200:
 2390              	.LBB627:
 2391              	.LBB626:
 2392              		.loc 2 461 0
 2393 003c 00F07C43 		and	r3, r0, #-67108864
 2394 0040 E7D4     		bmi	.L315
ARM GAS  /tmp/ccBzkMOZ.s 			page 43


 2395              	.LVL201:
 2396              	.L293:
 2397              	.LBE626:
 2398              	.LBE627:
 2399              		.loc 1 556 0
 2400 0042 0846     		mov	r0, r1
 2401 0044 10BD     		pop	{r4, pc}
 2402              	.LVL202:
 2403              	.L312:
 2404              		.cfi_def_cfa_offset 0
 2405              		.cfi_restore 4
 2406              		.cfi_restore 14
 2407 0046 0846     		mov	r0, r1
 2408              	.LVL203:
 2409 0048 7047     		bx	lr
 2410              	.LVL204:
 2411              	.L301:
 2412              		.cfi_def_cfa_offset 8
 2413              		.cfi_offset 4, -8
 2414              		.cfi_offset 14, -4
 2415              		.loc 1 551 0
 2416 004a A021     		movs	r1, #160
 2417              	.LVL205:
 2418              		.loc 1 556 0
 2419 004c 0846     		mov	r0, r1
 2420              	.LVL206:
 2421 004e 10BD     		pop	{r4, pc}
 2422              	.LVL207:
 2423              	.L317:
 2424              		.align	2
 2425              	.L316:
 2426 0050 00000000 		.word	.LANCHOR1
 2427              		.cfi_endproc
 2428              	.LFE80:
 2429              		.size	lbm_list_reverse, .-lbm_list_reverse
 2430              		.section	.text.lbm_list_copy,"ax",%progbits
 2431              		.align	1
 2432              		.p2align 4,,15
 2433              		.global	lbm_list_copy
 2434              		.syntax unified
 2435              		.thumb
 2436              		.thumb_func
 2437              		.fpu fpv4-sp-d16
 2438              		.type	lbm_list_copy, %function
 2439              	lbm_list_copy:
 2440              	.LFB81:
 2441              		.loc 1 558 0
 2442              		.cfi_startproc
 2443              		@ args = 0, pretend = 0, frame = 0
 2444              		@ frame_needed = 0, uses_anonymous_args = 0
 2445              	.LVL208:
 2446              		.loc 1 560 0
 2447 0000 144B     		ldr	r3, .L338
 2448 0002 1968     		ldr	r1, [r3]
 2449              	.LVL209:
 2450              	.LBB628:
 2451              	.LBB629:
ARM GAS  /tmp/ccBzkMOZ.s 			page 44


 2452              		.loc 2 461 0
 2453 0004 C307     		lsls	r3, r0, #31
 2454 0006 02D4     		bmi	.L337
 2455              	.LVL210:
 2456              	.LBE629:
 2457              	.LBE628:
 2458              		.loc 1 573 0
 2459 0008 0846     		mov	r0, r1
 2460              	.LVL211:
 2461 000a FFF7FEBF 		b	lbm_list_reverse
 2462              	.LVL212:
 2463              	.L337:
 2464              		.loc 1 558 0
 2465 000e 10B5     		push	{r4, lr}
 2466              		.cfi_def_cfa_offset 8
 2467              		.cfi_offset 4, -8
 2468              		.cfi_offset 14, -4
 2469              	.LBB633:
 2470              	.LBB630:
 2471              		.loc 2 461 0
 2472 0010 00F07C43 		and	r3, r0, #-67108864
 2473 0014 0446     		mov	r4, r0
 2474              	.LVL213:
 2475              	.L336:
 2476              	.LBE630:
 2477              	.LBE633:
 2478              		.loc 1 564 0
 2479 0016 B3F1805F 		cmp	r3, #268435456
 2480 001a 14D1     		bne	.L319
 2481              	.LVL214:
 2482              	.LBB634:
 2483              		.loc 1 565 0
 2484 001c 2046     		mov	r0, r4
 2485 001e FFF7FEFF 		bl	lbm_car
 2486              	.LVL215:
 2487 0022 FFF7FEFF 		bl	lbm_cons
 2488              	.LVL216:
 2489 0026 0146     		mov	r1, r0
 2490              	.LVL217:
 2491              	.LBB635:
 2492              	.LBB636:
 2493              		.loc 2 461 0
 2494 0028 C807     		lsls	r0, r1, #31
 2495              	.LVL218:
 2496 002a 4CBF     		ite	mi
 2497 002c 01F07C43 		andmi	r3, r1, #-67108864
 2498 0030 01F00C03 		andpl	r3, r1, #12
 2499              	.LBE636:
 2500              	.LBE635:
 2501              		.loc 1 570 0
 2502 0034 2046     		mov	r0, r4
 2503              		.loc 1 566 0
 2504 0036 5BB1     		cbz	r3, .L322
 2505              		.loc 1 570 0
 2506 0038 FFF7FEFF 		bl	lbm_cdr
 2507              	.LVL219:
 2508              	.LBE634:
ARM GAS  /tmp/ccBzkMOZ.s 			page 45


 2509              	.LBB637:
 2510              	.LBB631:
 2511              		.loc 2 461 0
 2512 003c C207     		lsls	r2, r0, #31
 2513              	.LBE631:
 2514              	.LBE637:
 2515              	.LBB638:
 2516              		.loc 1 570 0
 2517 003e 0446     		mov	r4, r0
 2518              	.LVL220:
 2519              	.LBE638:
 2520              	.LBB639:
 2521              	.LBB632:
 2522              		.loc 2 461 0
 2523 0040 00F07C43 		and	r3, r0, #-67108864
 2524 0044 E7D4     		bmi	.L336
 2525              	.LVL221:
 2526              	.L319:
 2527              	.LBE632:
 2528              	.LBE639:
 2529              		.loc 1 573 0
 2530 0046 0846     		mov	r0, r1
 2531              		.loc 1 574 0
 2532 0048 BDE81040 		pop	{r4, lr}
 2533              		.cfi_remember_state
 2534              		.cfi_restore 14
 2535              		.cfi_restore 4
 2536              		.cfi_def_cfa_offset 0
 2537              		.loc 1 573 0
 2538 004c FFF7FEBF 		b	lbm_list_reverse
 2539              	.LVL222:
 2540              	.L322:
 2541              		.cfi_restore_state
 2542              		.loc 1 574 0
 2543 0050 A020     		movs	r0, #160
 2544              	.LVL223:
 2545 0052 10BD     		pop	{r4, pc}
 2546              	.LVL224:
 2547              	.L339:
 2548              		.align	2
 2549              	.L338:
 2550 0054 00000000 		.word	.LANCHOR1
 2551              		.cfi_endproc
 2552              	.LFE81:
 2553              		.size	lbm_list_copy, .-lbm_list_copy
 2554              		.section	.text.lbm_list_append,"ax",%progbits
 2555              		.align	1
 2556              		.p2align 4,,15
 2557              		.global	lbm_list_append
 2558              		.syntax unified
 2559              		.thumb
 2560              		.thumb_func
 2561              		.fpu fpv4-sp-d16
 2562              		.type	lbm_list_append, %function
 2563              	lbm_list_append:
 2564              	.LFB82:
 2565              		.loc 1 578 0
ARM GAS  /tmp/ccBzkMOZ.s 			page 46


 2566              		.cfi_startproc
 2567              		@ args = 0, pretend = 0, frame = 0
 2568              		@ frame_needed = 0, uses_anonymous_args = 0
 2569              	.LVL225:
 2570              	.LBB640:
 2571              	.LBB641:
 2572              		.loc 2 461 0
 2573 0000 C307     		lsls	r3, r0, #31
 2574              	.LBE641:
 2575              	.LBE640:
 2576              		.loc 1 578 0
 2577 0002 10B5     		push	{r4, lr}
 2578              		.cfi_def_cfa_offset 8
 2579              		.cfi_offset 4, -8
 2580              		.cfi_offset 14, -4
 2581              	.LBB643:
 2582              	.LBB642:
 2583              		.loc 2 461 0
 2584 0004 1FD5     		bpl	.L345
 2585 0006 00F07C43 		and	r3, r0, #-67108864
 2586              	.LBE642:
 2587              	.LBE643:
 2588              		.loc 1 580 0
 2589 000a B3F1805F 		cmp	r3, #268435456
 2590 000e 0446     		mov	r4, r0
 2591              	.LVL226:
 2592 0010 19D1     		bne	.L345
 2593 0012 0246     		mov	r2, r0
 2594              	.LVL227:
 2595              		.loc 1 588 0
 2596 0014 1046     		mov	r0, r2
 2597 0016 FFF7FEFF 		bl	lbm_cdr
 2598              	.LVL228:
 2599              	.LBB644:
 2600              	.LBB645:
 2601              		.loc 2 461 0
 2602 001a 10F0010F 		tst	r0, #1
 2603 001e 00F07C43 		and	r3, r0, #-67108864
 2604              	.LVL229:
 2605 0022 0BD0     		beq	.L342
 2606              	.LVL230:
 2607              	.L351:
 2608              	.LBE645:
 2609              	.LBE644:
 2610              		.loc 1 588 0
 2611 0024 B3F1805F 		cmp	r3, #268435456
 2612 0028 08D1     		bne	.L342
 2613 002a 0246     		mov	r2, r0
 2614              	.LVL231:
 2615 002c 1046     		mov	r0, r2
 2616 002e FFF7FEFF 		bl	lbm_cdr
 2617              	.LVL232:
 2618              	.LBB647:
 2619              	.LBB646:
 2620              		.loc 2 461 0
 2621 0032 10F0010F 		tst	r0, #1
 2622 0036 00F07C43 		and	r3, r0, #-67108864
ARM GAS  /tmp/ccBzkMOZ.s 			page 47


 2623              	.LVL233:
 2624 003a F3D1     		bne	.L351
 2625              	.L342:
 2626              	.LBE646:
 2627              	.LBE647:
 2628              		.loc 1 591 0
 2629 003c 1046     		mov	r0, r2
 2630 003e FFF7FEFF 		bl	lbm_set_cdr
 2631              	.LVL234:
 2632              		.loc 1 593 0
 2633 0042 2046     		mov	r0, r4
 2634 0044 10BD     		pop	{r4, pc}
 2635              	.LVL235:
 2636              	.L345:
 2637              		.loc 1 581 0
 2638 0046 0C46     		mov	r4, r1
 2639              		.loc 1 593 0
 2640 0048 2046     		mov	r0, r4
 2641              	.LVL236:
 2642 004a 10BD     		pop	{r4, pc}
 2643              		.cfi_endproc
 2644              	.LFE82:
 2645              		.size	lbm_list_append, .-lbm_list_append
 2646              		.section	.text.lbm_heap_allocate_array,"ax",%progbits
 2647              		.align	1
 2648              		.p2align 4,,15
 2649              		.global	lbm_heap_allocate_array
 2650              		.syntax unified
 2651              		.thumb
 2652              		.thumb_func
 2653              		.fpu fpv4-sp-d16
 2654              		.type	lbm_heap_allocate_array, %function
 2655              	lbm_heap_allocate_array:
 2656              	.LFB83:
 2657              		.loc 1 598 0
 2658              		.cfi_startproc
 2659              		@ args = 0, pretend = 0, frame = 0
 2660              		@ frame_needed = 0, uses_anonymous_args = 0
 2661              	.LVL237:
 2662 0000 2DE9F047 		push	{r4, r5, r6, r7, r8, r9, r10, lr}
 2663              		.cfi_def_cfa_offset 32
 2664              		.cfi_offset 4, -32
 2665              		.cfi_offset 5, -28
 2666              		.cfi_offset 6, -24
 2667              		.cfi_offset 7, -20
 2668              		.cfi_offset 8, -16
 2669              		.cfi_offset 9, -12
 2670              		.cfi_offset 10, -8
 2671              		.cfi_offset 14, -4
 2672              		.loc 1 598 0
 2673 0004 8046     		mov	r8, r0
 2674              		.loc 1 602 0
 2675 0006 4FF08050 		mov	r0, #268435456
 2676              	.LVL238:
 2677              		.loc 1 598 0
 2678 000a 0E46     		mov	r6, r1
 2679 000c 1746     		mov	r7, r2
ARM GAS  /tmp/ccBzkMOZ.s 			page 48


 2680              		.loc 1 602 0
 2681 000e FFF7FEFF 		bl	lbm_heap_allocate_cell
 2682              	.LVL239:
 2683 0012 0546     		mov	r5, r0
 2684              	.LVL240:
 2685              	.LBB667:
 2686              	.LBB668:
 2687              		.loc 2 461 0
 2688 0014 10F00109 		ands	r9, r0, #1
 2689 0018 14BF     		ite	ne
 2690 001a 00F07C40 		andne	r0, r0, #-67108864
 2691              	.LVL241:
 2692 001e 05F00C00 		andeq	r0, r5, #12
 2693              	.LBE668:
 2694              	.LBE667:
 2695              		.loc 1 604 0
 2696 0022 00B3     		cbz	r0, .L370
 2697              	.LVL242:
 2698              		.loc 1 610 0
 2699 0024 042F     		cmp	r7, #4
 2700 0026 22D0     		beq	.L371
 2701 0028 B246     		mov	r10, r6
 2702              	.LVL243:
 2703              	.L357:
 2704              		.loc 1 620 0
 2705 002a 0320     		movs	r0, #3
 2706 002c FFF7FEFF 		bl	lbm_memory_allocate
 2707              	.LVL244:
 2708              		.loc 1 622 0
 2709 0030 0446     		mov	r4, r0
 2710 0032 B0B1     		cbz	r0, .L352
 2711              		.loc 1 624 0
 2712 0034 5046     		mov	r0, r10
 2713              	.LVL245:
 2714 0036 FFF7FEFF 		bl	lbm_memory_allocate
 2715              	.LVL246:
 2716              		.loc 1 626 0
 2717 003a 2760     		str	r7, [r4]
 2718              		.loc 1 627 0
 2719 003c C4E90160 		strd	r6, r0, [r4, #4]
 2720              	.LVL247:
 2721              	.LBB669:
 2722              	.LBB670:
 2723              		.loc 1 508 0
 2724 0040 B9F1000F 		cmp	r9, #0
 2725 0044 1AD1     		bne	.L367
 2726 0046 134A     		ldr	r2, .L372
 2727              	.L358:
 2728              	.LVL248:
 2729              	.LBE670:
 2730              	.LBE669:
 2731              		.loc 1 630 0
 2732 0048 2846     		mov	r0, r5
 2733 004a 4FF40071 		mov	r1, #512
 2734 004e FFF7FEFF 		bl	lbm_set_cdr
 2735              	.LVL249:
 2736              		.loc 1 636 0
ARM GAS  /tmp/ccBzkMOZ.s 			page 49


 2737 0052 5369     		ldr	r3, [r2, #20]
 2738              		.loc 1 632 0
 2739 0054 45F05045 		orr	r5, r5, #-805306368
 2740              	.LVL250:
 2741              		.loc 1 636 0
 2742 0058 0133     		adds	r3, r3, #1
 2743              		.loc 1 634 0
 2744 005a C8F80050 		str	r5, [r8]
 2745              		.loc 1 636 0
 2746 005e 5361     		str	r3, [r2, #20]
 2747              		.loc 1 638 0
 2748 0060 0120     		movs	r0, #1
 2749              	.L352:
 2750              		.loc 1 639 0
 2751 0062 BDE8F087 		pop	{r4, r5, r6, r7, r8, r9, r10, pc}
 2752              	.LVL251:
 2753              	.L370:
 2754              		.loc 1 605 0
 2755 0066 C8F80050 		str	r5, [r8]
 2756              		.loc 1 639 0
 2757 006a BDE8F087 		pop	{r4, r5, r6, r7, r8, r9, r10, pc}
 2758              	.LVL252:
 2759              	.L371:
 2760              		.loc 1 611 0
 2761 006e B307     		lsls	r3, r6, #30
 2762 0070 4FEA960A 		lsr	r10, r6, #2
 2763 0074 D9D0     		beq	.L357
 2764              		.loc 1 614 0
 2765 0076 0AF1010A 		add	r10, r10, #1
 2766              	.LVL253:
 2767 007a D6E7     		b	.L357
 2768              	.LVL254:
 2769              	.L367:
 2770              	.LBB688:
 2771              	.LBB687:
 2772              	.LBB671:
 2773              	.LBB672:
 2774              		.loc 2 461 0
 2775 007c 05F07C43 		and	r3, r5, #-67108864
 2776              	.LBE672:
 2777              	.LBE671:
 2778              	.LBB673:
 2779              	.LBB674:
 2780              	.LBB675:
 2781              	.LBB676:
 2782              	.LBB677:
 2783              		.loc 1 132 0
 2784 0080 044A     		ldr	r2, .L372
 2785              	.LBE677:
 2786              	.LBE676:
 2787              	.LBE675:
 2788              	.LBE674:
 2789              	.LBE673:
 2790              		.loc 1 508 0
 2791 0082 B3F1805F 		cmp	r3, #268435456
 2792              	.LBB686:
 2793              	.LBB685:
ARM GAS  /tmp/ccBzkMOZ.s 			page 50


 2794              	.LBB684:
 2795              	.LBB681:
 2796              	.LBB680:
 2797              	.LBB678:
 2798              	.LBB679:
 2799              		.loc 2 473 0
 2800 0086 02BF     		ittt	eq
 2801 0088 C5F3D603 		ubfxeq	r3, r5, #3, #23
 2802              	.LBE679:
 2803              	.LBE678:
 2804              	.LBE680:
 2805              	.LBE681:
 2806              	.LBB682:
 2807              	.LBB683:
 2808              		.loc 1 145 0
 2809 008c 1168     		ldreq	r1, [r2]
 2810 008e 41F83340 		streq	r4, [r1, r3, lsl #3]
 2811              	.LVL255:
 2812 0092 D9E7     		b	.L358
 2813              	.L373:
 2814              		.align	2
 2815              	.L372:
 2816 0094 00000000 		.word	.LANCHOR0
 2817              	.LBE683:
 2818              	.LBE682:
 2819              	.LBE684:
 2820              	.LBE685:
 2821              	.LBE686:
 2822              	.LBE687:
 2823              	.LBE688:
 2824              		.cfi_endproc
 2825              	.LFE83:
 2826              		.size	lbm_heap_allocate_array, .-lbm_heap_allocate_array
 2827              		.section	.bss.NIL,"aw",%nobits
 2828              		.align	2
 2829              		.set	.LANCHOR1,. + 0
 2830              		.type	NIL, %object
 2831              		.size	NIL, 4
 2832              	NIL:
 2833 0000 00000000 		.space	4
 2834              		.section	.bss.RECOVERED,"aw",%nobits
 2835              		.align	2
 2836              		.set	.LANCHOR2,. + 0
 2837              		.type	RECOVERED, %object
 2838              		.size	RECOVERED, 4
 2839              	RECOVERED:
 2840 0000 00000000 		.space	4
 2841              		.section	.bss.heap_state,"aw",%nobits
 2842              		.align	3
 2843              		.set	.LANCHOR0,. + 0
 2844              		.type	heap_state, %object
 2845              		.size	heap_state, 64
 2846              	heap_state:
 2847 0000 00000000 		.space	64
 2847      00000000 
 2847      00000000 
 2847      00000000 
ARM GAS  /tmp/ccBzkMOZ.s 			page 51


 2847      00000000 
 2848              		.section	.bss.stack_storage,"aw",%nobits
 2849              		.align	2
 2850              		.type	stack_storage, %object
 2851              		.size	stack_storage, 4096
 2852              	stack_storage:
 2853 0000 00000000 		.space	4096
 2853      00000000 
 2853      00000000 
 2853      00000000 
 2853      00000000 
 2854              		.text
 2855              	.Letext0:
 2856              		.file 4 "/usr/arm-none-eabi/include/machine/_default_types.h"
 2857              		.file 5 "/usr/lib/gcc/arm-none-eabi/7.3.1/include/stddef.h"
 2858              		.file 6 "/usr/arm-none-eabi/include/sys/lock.h"
 2859              		.file 7 "/usr/arm-none-eabi/include/sys/_types.h"
 2860              		.file 8 "/usr/arm-none-eabi/include/sys/reent.h"
 2861              		.file 9 "/usr/arm-none-eabi/include/sys/_stdint.h"
 2862              		.file 10 "/usr/arm-none-eabi/include/stdlib.h"
 2863              		.file 11 "lispBM/lispBM/include/lbm_types.h"
 2864              		.file 12 "lispBM/lispBM/include/streams.h"
 2865              		.file 13 "lispBM/lispBM/include/lbm_memory.h"
 2866              		.file 14 "<built-in>"