ARM GAS  /tmp/ccqoT34K.s 			page 1


   1              		.cpu cortex-m4
   2              		.eabi_attribute 27, 1
   3              		.eabi_attribute 28, 1
   4              		.eabi_attribute 20, 1
   5              		.eabi_attribute 21, 1
   6              		.eabi_attribute 23, 3
   7              		.eabi_attribute 24, 1
   8              		.eabi_attribute 25, 1
   9              		.eabi_attribute 26, 1
  10              		.eabi_attribute 30, 2
  11              		.eabi_attribute 34, 1
  12              		.eabi_attribute 18, 4
  13              		.file	"hw.c"
  14              		.text
  15              	.Ltext0:
  16              		.cfi_sections	.debug_frame
  17              		.section	.text.hw_init_gpio,"ax",%progbits
  18              		.align	1
  19              		.p2align 4,,15
  20              		.global	hw_init_gpio
  21              		.syntax unified
  22              		.thumb
  23              		.thumb_func
  24              		.fpu fpv4-sp-d16
  25              		.type	hw_init_gpio, %function
  26              	hw_init_gpio:
  27              	.LFB256:
  28              		.file 1 "./hw_gigavesc.c"
  29              		.loc 1 37 0
  30              		.cfi_startproc
  31              		@ args = 0, pretend = 0, frame = 0
  32              		@ frame_needed = 0, uses_anonymous_args = 0
  33              		.loc 1 39 0
  34 0000 0121     		movs	r1, #1
  35              		.loc 1 37 0
  36 0002 70B5     		push	{r4, r5, r6, lr}
  37              		.cfi_def_cfa_offset 16
  38              		.cfi_offset 4, -16
  39              		.cfi_offset 5, -12
  40              		.cfi_offset 6, -8
  41              		.cfi_offset 14, -4
  42              		.loc 1 39 0
  43 0004 0846     		mov	r0, r1
  44 0006 FFF7FEFF 		bl	RCC_AHB1PeriphClockCmd
  45              	.LVL0:
  46              		.loc 1 40 0
  47 000a 0121     		movs	r1, #1
  48 000c 0220     		movs	r0, #2
  49              		.loc 1 45 0
  50 000e 4C4E     		ldr	r6, .L4
  51              		.loc 1 53 0
  52 0010 4C4D     		ldr	r5, .L4+4
  53              		.loc 1 74 0
  54 0012 4D4C     		ldr	r4, .L4+8
  55              		.loc 1 40 0
  56 0014 FFF7FEFF 		bl	RCC_AHB1PeriphClockCmd
  57              	.LVL1:
ARM GAS  /tmp/ccqoT34K.s 			page 2


  58              		.loc 1 41 0
  59 0018 0121     		movs	r1, #1
  60 001a 0420     		movs	r0, #4
  61 001c FFF7FEFF 		bl	RCC_AHB1PeriphClockCmd
  62              	.LVL2:
  63              		.loc 1 42 0
  64 0020 0121     		movs	r1, #1
  65 0022 0820     		movs	r0, #8
  66 0024 FFF7FEFF 		bl	RCC_AHB1PeriphClockCmd
  67              	.LVL3:
  68              		.loc 1 45 0
  69 0028 3046     		mov	r0, r6
  70 002a 1922     		movs	r2, #25
  71 002c 2021     		movs	r1, #32
  72 002e FFF7FEFF 		bl	_pal_lld_setgroupmode
  73              	.LVL4:
  74              		.loc 1 48 0
  75 0032 3046     		mov	r0, r6
  76 0034 1922     		movs	r2, #25
  77 0036 8021     		movs	r1, #128
  78 0038 FFF7FEFF 		bl	_pal_lld_setgroupmode
  79              	.LVL5:
  80              		.loc 1 53 0
  81 003c 2846     		mov	r0, r5
  82 003e 9A22     		movs	r2, #154
  83 0040 4FF48071 		mov	r1, #256
  84 0044 FFF7FEFF 		bl	_pal_lld_setgroupmode
  85              	.LVL6:
  86              		.loc 1 56 0
  87 0048 2846     		mov	r0, r5
  88 004a 9A22     		movs	r2, #154
  89 004c 4FF40071 		mov	r1, #512
  90 0050 FFF7FEFF 		bl	_pal_lld_setgroupmode
  91              	.LVL7:
  92              		.loc 1 59 0
  93 0054 2846     		mov	r0, r5
  94 0056 9A22     		movs	r2, #154
  95 0058 4FF48061 		mov	r1, #1024
  96 005c FFF7FEFF 		bl	_pal_lld_setgroupmode
  97              	.LVL8:
  98              		.loc 1 63 0
  99 0060 3046     		mov	r0, r6
 100 0062 9A22     		movs	r2, #154
 101 0064 4FF40051 		mov	r1, #8192
 102 0068 FFF7FEFF 		bl	_pal_lld_setgroupmode
 103              	.LVL9:
 104              		.loc 1 66 0
 105 006c 3046     		mov	r0, r6
 106 006e 9A22     		movs	r2, #154
 107 0070 4FF48041 		mov	r1, #16384
 108 0074 FFF7FEFF 		bl	_pal_lld_setgroupmode
 109              	.LVL10:
 110              		.loc 1 69 0
 111 0078 3046     		mov	r0, r6
 112 007a 9A22     		movs	r2, #154
 113 007c 4FF40041 		mov	r1, #32768
 114 0080 FFF7FEFF 		bl	_pal_lld_setgroupmode
ARM GAS  /tmp/ccqoT34K.s 			page 3


 115              	.LVL11:
 116              		.loc 1 74 0
 117 0084 2046     		mov	r0, r4
 118 0086 2022     		movs	r2, #32
 119 0088 4021     		movs	r1, #64
 120 008a FFF7FEFF 		bl	_pal_lld_setgroupmode
 121              	.LVL12:
 122              		.loc 1 75 0
 123 008e 2046     		mov	r0, r4
 124 0090 2022     		movs	r2, #32
 125 0092 8021     		movs	r1, #128
 126 0094 FFF7FEFF 		bl	_pal_lld_setgroupmode
 127              	.LVL13:
 128              		.loc 1 76 0
 129 0098 2046     		mov	r0, r4
 130 009a 2022     		movs	r2, #32
 131 009c 4FF48071 		mov	r1, #256
 132 00a0 FFF7FEFF 		bl	_pal_lld_setgroupmode
 133              	.LVL14:
 134              		.loc 1 80 0
 135 00a4 3046     		mov	r0, r6
 136 00a6 8222     		movs	r2, #130
 137 00a8 4FF48051 		mov	r1, #4096
 138 00ac FFF7FEFF 		bl	_pal_lld_setgroupmode
 139              	.LVL15:
 140              		.loc 1 96 0
 141 00b0 2846     		mov	r0, r5
 142 00b2 0322     		movs	r2, #3
 143 00b4 0121     		movs	r1, #1
 144 00b6 FFF7FEFF 		bl	_pal_lld_setgroupmode
 145              	.LVL16:
 146              		.loc 1 97 0
 147 00ba 2846     		mov	r0, r5
 148 00bc 0322     		movs	r2, #3
 149 00be 0221     		movs	r1, #2
 150 00c0 FFF7FEFF 		bl	_pal_lld_setgroupmode
 151              	.LVL17:
 152              		.loc 1 98 0
 153 00c4 2846     		mov	r0, r5
 154 00c6 0322     		movs	r2, #3
 155 00c8 0421     		movs	r1, #4
 156 00ca FFF7FEFF 		bl	_pal_lld_setgroupmode
 157              	.LVL18:
 158              		.loc 1 99 0
 159 00ce 2846     		mov	r0, r5
 160 00d0 0322     		movs	r2, #3
 161 00d2 0821     		movs	r1, #8
 162 00d4 FFF7FEFF 		bl	_pal_lld_setgroupmode
 163              	.LVL19:
 164              		.loc 1 100 0
 165 00d8 2846     		mov	r0, r5
 166 00da 0322     		movs	r2, #3
 167 00dc 2021     		movs	r1, #32
 168 00de FFF7FEFF 		bl	_pal_lld_setgroupmode
 169              	.LVL20:
 170              		.loc 1 101 0
 171 00e2 2846     		mov	r0, r5
ARM GAS  /tmp/ccqoT34K.s 			page 4


 172 00e4 0322     		movs	r2, #3
 173 00e6 4021     		movs	r1, #64
 174 00e8 FFF7FEFF 		bl	_pal_lld_setgroupmode
 175              	.LVL21:
 176              		.loc 1 103 0
 177 00ec 3046     		mov	r0, r6
 178 00ee 0322     		movs	r2, #3
 179 00f0 0121     		movs	r1, #1
 180 00f2 FFF7FEFF 		bl	_pal_lld_setgroupmode
 181              	.LVL22:
 182              		.loc 1 104 0
 183 00f6 3046     		mov	r0, r6
 184 00f8 0322     		movs	r2, #3
 185 00fa 0221     		movs	r1, #2
 186 00fc FFF7FEFF 		bl	_pal_lld_setgroupmode
 187              	.LVL23:
 188              		.loc 1 106 0
 189 0100 2046     		mov	r0, r4
 190 0102 0322     		movs	r2, #3
 191 0104 0121     		movs	r1, #1
 192 0106 FFF7FEFF 		bl	_pal_lld_setgroupmode
 193              	.LVL24:
 194              		.loc 1 107 0
 195 010a 2046     		mov	r0, r4
 196 010c 0322     		movs	r2, #3
 197 010e 0221     		movs	r1, #2
 198 0110 FFF7FEFF 		bl	_pal_lld_setgroupmode
 199              	.LVL25:
 200              		.loc 1 108 0
 201 0114 2046     		mov	r0, r4
 202 0116 0322     		movs	r2, #3
 203 0118 0421     		movs	r1, #4
 204 011a FFF7FEFF 		bl	_pal_lld_setgroupmode
 205              	.LVL26:
 206              		.loc 1 109 0
 207 011e 2046     		mov	r0, r4
 208 0120 0322     		movs	r2, #3
 209 0122 0821     		movs	r1, #8
 210 0124 FFF7FEFF 		bl	_pal_lld_setgroupmode
 211              	.LVL27:
 212              		.loc 1 110 0
 213 0128 2046     		mov	r0, r4
 214 012a 0322     		movs	r2, #3
 215 012c 1021     		movs	r1, #16
 216 012e FFF7FEFF 		bl	_pal_lld_setgroupmode
 217              	.LVL28:
 218              		.loc 1 111 0
 219 0132 2046     		mov	r0, r4
 220 0134 0322     		movs	r2, #3
 221 0136 2021     		movs	r1, #32
 222              		.loc 1 112 0
 223 0138 BDE87040 		pop	{r4, r5, r6, lr}
 224              		.cfi_restore 14
 225              		.cfi_restore 6
 226              		.cfi_restore 5
 227              		.cfi_restore 4
 228              		.cfi_def_cfa_offset 0
ARM GAS  /tmp/ccqoT34K.s 			page 5


 229              		.loc 1 111 0
 230 013c FFF7FEBF 		b	_pal_lld_setgroupmode
 231              	.LVL29:
 232              	.L5:
 233              		.align	2
 234              	.L4:
 235 0140 00040240 		.word	1073873920
 236 0144 00000240 		.word	1073872896
 237 0148 00080240 		.word	1073874944
 238              		.cfi_endproc
 239              	.LFE256:
 240              		.size	hw_init_gpio, .-hw_init_gpio
 241              		.section	.text.hw_setup_adc_channels,"ax",%progbits
 242              		.align	1
 243              		.p2align 4,,15
 244              		.global	hw_setup_adc_channels
 245              		.syntax unified
 246              		.thumb
 247              		.thumb_func
 248              		.fpu fpv4-sp-d16
 249              		.type	hw_setup_adc_channels, %function
 250              	hw_setup_adc_channels:
 251              	.LFB257:
 252              		.loc 1 114 0
 253              		.cfi_startproc
 254              		@ args = 0, pretend = 0, frame = 0
 255              		@ frame_needed = 0, uses_anonymous_args = 0
 256 0000 70B5     		push	{r4, r5, r6, lr}
 257              		.cfi_def_cfa_offset 16
 258              		.cfi_offset 4, -16
 259              		.cfi_offset 5, -12
 260              		.cfi_offset 6, -8
 261              		.cfi_offset 14, -4
 262              		.loc 1 116 0
 263 0002 534E     		ldr	r6, .L8
 264              		.loc 1 124 0
 265 0004 534D     		ldr	r5, .L8+4
 266              		.loc 1 132 0
 267 0006 544C     		ldr	r4, .L8+8
 268              		.loc 1 116 0
 269 0008 0123     		movs	r3, #1
 270 000a 3046     		mov	r0, r6
 271 000c 1A46     		mov	r2, r3
 272 000e 0021     		movs	r1, #0
 273 0010 FFF7FEFF 		bl	ADC_RegularChannelConfig
 274              	.LVL30:
 275              		.loc 1 117 0
 276 0014 3046     		mov	r0, r6
 277 0016 0123     		movs	r3, #1
 278 0018 0222     		movs	r2, #2
 279 001a 0A21     		movs	r1, #10
 280 001c FFF7FEFF 		bl	ADC_RegularChannelConfig
 281              	.LVL31:
 282              		.loc 1 118 0
 283 0020 3046     		mov	r0, r6
 284 0022 0123     		movs	r3, #1
 285 0024 0322     		movs	r2, #3
ARM GAS  /tmp/ccqoT34K.s 			page 6


 286 0026 0521     		movs	r1, #5
 287 0028 FFF7FEFF 		bl	ADC_RegularChannelConfig
 288              	.LVL32:
 289              		.loc 1 119 0
 290 002c 3046     		mov	r0, r6
 291 002e 0123     		movs	r3, #1
 292 0030 0422     		movs	r2, #4
 293 0032 0E21     		movs	r1, #14
 294 0034 FFF7FEFF 		bl	ADC_RegularChannelConfig
 295              	.LVL33:
 296              		.loc 1 120 0
 297 0038 3046     		mov	r0, r6
 298 003a 0123     		movs	r3, #1
 299 003c 0522     		movs	r2, #5
 300 003e 1121     		movs	r1, #17
 301 0040 FFF7FEFF 		bl	ADC_RegularChannelConfig
 302              	.LVL34:
 303              		.loc 1 121 0
 304 0044 3046     		mov	r0, r6
 305 0046 0123     		movs	r3, #1
 306 0048 0622     		movs	r2, #6
 307 004a 0821     		movs	r1, #8
 308 004c FFF7FEFF 		bl	ADC_RegularChannelConfig
 309              	.LVL35:
 310              		.loc 1 124 0
 311 0050 0123     		movs	r3, #1
 312 0052 2846     		mov	r0, r5
 313 0054 1A46     		mov	r2, r3
 314 0056 1946     		mov	r1, r3
 315 0058 FFF7FEFF 		bl	ADC_RegularChannelConfig
 316              	.LVL36:
 317              		.loc 1 125 0
 318 005c 2846     		mov	r0, r5
 319 005e 0123     		movs	r3, #1
 320 0060 0222     		movs	r2, #2
 321 0062 0B21     		movs	r1, #11
 322 0064 FFF7FEFF 		bl	ADC_RegularChannelConfig
 323              	.LVL37:
 324              		.loc 1 126 0
 325 0068 2846     		mov	r0, r5
 326 006a 0123     		movs	r3, #1
 327 006c 0322     		movs	r2, #3
 328 006e 0621     		movs	r1, #6
 329 0070 FFF7FEFF 		bl	ADC_RegularChannelConfig
 330              	.LVL38:
 331              		.loc 1 127 0
 332 0074 2846     		mov	r0, r5
 333 0076 0123     		movs	r3, #1
 334 0078 0422     		movs	r2, #4
 335 007a 0F21     		movs	r1, #15
 336 007c FFF7FEFF 		bl	ADC_RegularChannelConfig
 337              	.LVL39:
 338              		.loc 1 128 0
 339 0080 2846     		mov	r0, r5
 340 0082 0123     		movs	r3, #1
 341 0084 0522     		movs	r2, #5
 342 0086 0021     		movs	r1, #0
ARM GAS  /tmp/ccqoT34K.s 			page 7


 343 0088 FFF7FEFF 		bl	ADC_RegularChannelConfig
 344              	.LVL40:
 345              		.loc 1 129 0
 346 008c 2846     		mov	r0, r5
 347 008e 0123     		movs	r3, #1
 348 0090 0622     		movs	r2, #6
 349 0092 0921     		movs	r1, #9
 350 0094 FFF7FEFF 		bl	ADC_RegularChannelConfig
 351              	.LVL41:
 352              		.loc 1 132 0
 353 0098 0123     		movs	r3, #1
 354 009a 2046     		mov	r0, r4
 355 009c 1A46     		mov	r2, r3
 356 009e 0221     		movs	r1, #2
 357 00a0 FFF7FEFF 		bl	ADC_RegularChannelConfig
 358              	.LVL42:
 359              		.loc 1 133 0
 360 00a4 2046     		mov	r0, r4
 361 00a6 0123     		movs	r3, #1
 362 00a8 0222     		movs	r2, #2
 363 00aa 0C21     		movs	r1, #12
 364 00ac FFF7FEFF 		bl	ADC_RegularChannelConfig
 365              	.LVL43:
 366              		.loc 1 134 0
 367 00b0 0322     		movs	r2, #3
 368 00b2 2046     		mov	r0, r4
 369 00b4 1146     		mov	r1, r2
 370 00b6 0123     		movs	r3, #1
 371 00b8 FFF7FEFF 		bl	ADC_RegularChannelConfig
 372              	.LVL44:
 373              		.loc 1 135 0
 374 00bc 2046     		mov	r0, r4
 375 00be 0123     		movs	r3, #1
 376 00c0 0422     		movs	r2, #4
 377 00c2 0D21     		movs	r1, #13
 378 00c4 FFF7FEFF 		bl	ADC_RegularChannelConfig
 379              	.LVL45:
 380              		.loc 1 136 0
 381 00c8 0123     		movs	r3, #1
 382 00ca 2046     		mov	r0, r4
 383 00cc 1946     		mov	r1, r3
 384 00ce 0522     		movs	r2, #5
 385 00d0 FFF7FEFF 		bl	ADC_RegularChannelConfig
 386              	.LVL46:
 387              		.loc 1 137 0
 388 00d4 2046     		mov	r0, r4
 389 00d6 0123     		movs	r3, #1
 390 00d8 0622     		movs	r2, #6
 391 00da 0221     		movs	r1, #2
 392 00dc FFF7FEFF 		bl	ADC_RegularChannelConfig
 393              	.LVL47:
 394              		.loc 1 140 0
 395 00e0 0123     		movs	r3, #1
 396 00e2 3046     		mov	r0, r6
 397 00e4 1A46     		mov	r2, r3
 398 00e6 0A21     		movs	r1, #10
 399 00e8 FFF7FEFF 		bl	ADC_InjectedChannelConfig
ARM GAS  /tmp/ccqoT34K.s 			page 8


 400              	.LVL48:
 401              		.loc 1 141 0
 402 00ec 0123     		movs	r3, #1
 403 00ee 2846     		mov	r0, r5
 404 00f0 1A46     		mov	r2, r3
 405 00f2 0B21     		movs	r1, #11
 406 00f4 FFF7FEFF 		bl	ADC_InjectedChannelConfig
 407              	.LVL49:
 408              		.loc 1 142 0
 409 00f8 0123     		movs	r3, #1
 410 00fa 2046     		mov	r0, r4
 411 00fc 1A46     		mov	r2, r3
 412 00fe 0C21     		movs	r1, #12
 413 0100 FFF7FEFF 		bl	ADC_InjectedChannelConfig
 414              	.LVL50:
 415              		.loc 1 143 0
 416 0104 3046     		mov	r0, r6
 417 0106 0123     		movs	r3, #1
 418 0108 0222     		movs	r2, #2
 419 010a 0A21     		movs	r1, #10
 420 010c FFF7FEFF 		bl	ADC_InjectedChannelConfig
 421              	.LVL51:
 422              		.loc 1 144 0
 423 0110 2846     		mov	r0, r5
 424 0112 0123     		movs	r3, #1
 425 0114 0222     		movs	r2, #2
 426 0116 0B21     		movs	r1, #11
 427 0118 FFF7FEFF 		bl	ADC_InjectedChannelConfig
 428              	.LVL52:
 429              		.loc 1 145 0
 430 011c 2046     		mov	r0, r4
 431 011e 0123     		movs	r3, #1
 432 0120 0222     		movs	r2, #2
 433 0122 0C21     		movs	r1, #12
 434 0124 FFF7FEFF 		bl	ADC_InjectedChannelConfig
 435              	.LVL53:
 436              		.loc 1 146 0
 437 0128 3046     		mov	r0, r6
 438 012a 0123     		movs	r3, #1
 439 012c 0322     		movs	r2, #3
 440 012e 0A21     		movs	r1, #10
 441 0130 FFF7FEFF 		bl	ADC_InjectedChannelConfig
 442              	.LVL54:
 443              		.loc 1 147 0
 444 0134 2846     		mov	r0, r5
 445 0136 0123     		movs	r3, #1
 446 0138 0322     		movs	r2, #3
 447 013a 0B21     		movs	r1, #11
 448 013c FFF7FEFF 		bl	ADC_InjectedChannelConfig
 449              	.LVL55:
 450              		.loc 1 148 0
 451 0140 2046     		mov	r0, r4
 452 0142 0123     		movs	r3, #1
 453 0144 0322     		movs	r2, #3
 454 0146 0C21     		movs	r1, #12
 455              		.loc 1 149 0
 456 0148 BDE87040 		pop	{r4, r5, r6, lr}
ARM GAS  /tmp/ccqoT34K.s 			page 9


 457              		.cfi_restore 14
 458              		.cfi_restore 6
 459              		.cfi_restore 5
 460              		.cfi_restore 4
 461              		.cfi_def_cfa_offset 0
 462              		.loc 1 148 0
 463 014c FFF7FEBF 		b	ADC_InjectedChannelConfig
 464              	.LVL56:
 465              	.L9:
 466              		.align	2
 467              	.L8:
 468 0150 00200140 		.word	1073815552
 469 0154 00210140 		.word	1073815808
 470 0158 00220140 		.word	1073816064
 471              		.cfi_endproc
 472              	.LFE257:
 473              		.size	hw_setup_adc_channels, .-hw_setup_adc_channels
 474              		.section	.text.hw_start_i2c,"ax",%progbits
 475              		.align	1
 476              		.p2align 4,,15
 477              		.global	hw_start_i2c
 478              		.syntax unified
 479              		.thumb
 480              		.thumb_func
 481              		.fpu fpv4-sp-d16
 482              		.type	hw_start_i2c, %function
 483              	hw_start_i2c:
 484              	.LFB258:
 485              		.loc 1 151 0
 486              		.cfi_startproc
 487              		@ args = 0, pretend = 0, frame = 0
 488              		@ frame_needed = 0, uses_anonymous_args = 0
 489 0000 10B5     		push	{r4, lr}
 490              		.cfi_def_cfa_offset 8
 491              		.cfi_offset 4, -8
 492              		.cfi_offset 14, -4
 493              		.loc 1 154 0
 494 0002 0F4C     		ldr	r4, .L13
 495              		.loc 1 152 0
 496 0004 0F48     		ldr	r0, .L13+4
 497 0006 FFF7FEFF 		bl	i2cAcquireBus
 498              	.LVL57:
 499              		.loc 1 154 0
 500 000a 2378     		ldrb	r3, [r4]	@ zero_extendqisi2
 501 000c 9BB9     		cbnz	r3, .L11
 502              		.loc 1 155 0
 503 000e 40F22E22 		movw	r2, #558
 504 0012 4FF48061 		mov	r1, #1024
 505 0016 0C48     		ldr	r0, .L13+8
 506 0018 FFF7FEFF 		bl	_pal_lld_setgroupmode
 507              	.LVL58:
 508              		.loc 1 160 0
 509 001c 40F22E22 		movw	r2, #558
 510 0020 4FF40061 		mov	r1, #2048
 511 0024 0848     		ldr	r0, .L13+8
 512 0026 FFF7FEFF 		bl	_pal_lld_setgroupmode
 513              	.LVL59:
ARM GAS  /tmp/ccqoT34K.s 			page 10


 514              		.loc 1 166 0
 515 002a 0849     		ldr	r1, .L13+12
 516 002c 0548     		ldr	r0, .L13+4
 517 002e FFF7FEFF 		bl	i2cStart
 518              	.LVL60:
 519              		.loc 1 167 0
 520 0032 0123     		movs	r3, #1
 521 0034 2370     		strb	r3, [r4]
 522              	.L11:
 523              		.loc 1 170 0
 524 0036 0348     		ldr	r0, .L13+4
 525              		.loc 1 171 0
 526 0038 BDE81040 		pop	{r4, lr}
 527              		.cfi_restore 14
 528              		.cfi_restore 4
 529              		.cfi_def_cfa_offset 0
 530              		.loc 1 170 0
 531 003c FFF7FEBF 		b	i2cReleaseBus
 532              	.LVL61:
 533              	.L14:
 534              		.align	2
 535              	.L13:
 536 0040 00000000 		.word	.LANCHOR0
 537 0044 00000000 		.word	I2CD2
 538 0048 00040240 		.word	1073873920
 539 004c 00000000 		.word	.LANCHOR1
 540              		.cfi_endproc
 541              	.LFE258:
 542              		.size	hw_start_i2c, .-hw_start_i2c
 543              		.section	.text.hw_stop_i2c,"ax",%progbits
 544              		.align	1
 545              		.p2align 4,,15
 546              		.global	hw_stop_i2c
 547              		.syntax unified
 548              		.thumb
 549              		.thumb_func
 550              		.fpu fpv4-sp-d16
 551              		.type	hw_stop_i2c, %function
 552              	hw_stop_i2c:
 553              	.LFB259:
 554              		.loc 1 173 0
 555              		.cfi_startproc
 556              		@ args = 0, pretend = 0, frame = 0
 557              		@ frame_needed = 0, uses_anonymous_args = 0
 558 0000 10B5     		push	{r4, lr}
 559              		.cfi_def_cfa_offset 8
 560              		.cfi_offset 4, -8
 561              		.cfi_offset 14, -4
 562              		.loc 1 176 0
 563 0002 0E4C     		ldr	r4, .L21
 564              		.loc 1 174 0
 565 0004 0E48     		ldr	r0, .L21+4
 566 0006 FFF7FEFF 		bl	i2cAcquireBus
 567              	.LVL62:
 568              		.loc 1 176 0
 569 000a 2378     		ldrb	r3, [r4]	@ zero_extendqisi2
 570 000c 83B1     		cbz	r3, .L16
ARM GAS  /tmp/ccqoT34K.s 			page 11


 571              		.loc 1 177 0
 572 000e 0022     		movs	r2, #0
 573 0010 4FF48061 		mov	r1, #1024
 574 0014 0B48     		ldr	r0, .L21+8
 575 0016 FFF7FEFF 		bl	_pal_lld_setgroupmode
 576              	.LVL63:
 577              		.loc 1 178 0
 578 001a 0022     		movs	r2, #0
 579 001c 4FF40061 		mov	r1, #2048
 580 0020 0848     		ldr	r0, .L21+8
 581 0022 FFF7FEFF 		bl	_pal_lld_setgroupmode
 582              	.LVL64:
 583              		.loc 1 180 0
 584 0026 0648     		ldr	r0, .L21+4
 585 0028 FFF7FEFF 		bl	i2cStop
 586              	.LVL65:
 587              		.loc 1 181 0
 588 002c 0023     		movs	r3, #0
 589 002e 2370     		strb	r3, [r4]
 590              	.L16:
 591              		.loc 1 185 0
 592 0030 0348     		ldr	r0, .L21+4
 593              		.loc 1 186 0
 594 0032 BDE81040 		pop	{r4, lr}
 595              		.cfi_restore 14
 596              		.cfi_restore 4
 597              		.cfi_def_cfa_offset 0
 598              		.loc 1 185 0
 599 0036 FFF7FEBF 		b	i2cReleaseBus
 600              	.LVL66:
 601              	.L22:
 602 003a 00BF     		.align	2
 603              	.L21:
 604 003c 00000000 		.word	.LANCHOR0
 605 0040 00000000 		.word	I2CD2
 606 0044 00040240 		.word	1073873920
 607              		.cfi_endproc
 608              	.LFE259:
 609              		.size	hw_stop_i2c, .-hw_stop_i2c
 610              		.section	.text.hw_try_restore_i2c,"ax",%progbits
 611              		.align	1
 612              		.p2align 4,,15
 613              		.global	hw_try_restore_i2c
 614              		.syntax unified
 615              		.thumb
 616              		.thumb_func
 617              		.fpu fpv4-sp-d16
 618              		.type	hw_try_restore_i2c, %function
 619              	hw_try_restore_i2c:
 620              	.LFB260:
 621              		.loc 1 191 0
 622              		.cfi_startproc
 623              		@ args = 0, pretend = 0, frame = 0
 624              		@ frame_needed = 0, uses_anonymous_args = 0
 625 0000 F8B5     		push	{r3, r4, r5, r6, r7, lr}
 626              		.cfi_def_cfa_offset 24
 627              		.cfi_offset 3, -24
ARM GAS  /tmp/ccqoT34K.s 			page 12


 628              		.cfi_offset 4, -20
 629              		.cfi_offset 5, -16
 630              		.cfi_offset 6, -12
 631              		.cfi_offset 7, -8
 632              		.cfi_offset 14, -4
 633              		.loc 1 192 0
 634 0002 284B     		ldr	r3, .L29
 635 0004 1B78     		ldrb	r3, [r3]	@ zero_extendqisi2
 636 0006 03B9     		cbnz	r3, .L28
 637              		.loc 1 243 0
 638 0008 F8BD     		pop	{r3, r4, r5, r6, r7, pc}
 639              	.L28:
 640              		.loc 1 195 0
 641 000a 274D     		ldr	r5, .L29+4
 642              		.loc 1 193 0
 643 000c 2748     		ldr	r0, .L29+8
 644 000e FFF7FEFF 		bl	i2cAcquireBus
 645              	.LVL67:
 646              		.loc 1 195 0
 647 0012 2846     		mov	r0, r5
 648 0014 2C22     		movs	r2, #44
 649 0016 4FF48061 		mov	r1, #1024
 650 001a FFF7FEFF 		bl	_pal_lld_setgroupmode
 651              	.LVL68:
 652              		.loc 1 200 0
 653 001e 2846     		mov	r0, r5
 654 0020 2C22     		movs	r2, #44
 655 0022 4FF40061 		mov	r1, #2048
 656 0026 FFF7FEFF 		bl	_pal_lld_setgroupmode
 657              	.LVL69:
 658              		.loc 1 205 0
 659 002a 4FF48066 		mov	r6, #1024
 660              		.loc 1 206 0
 661 002e 4FF40063 		mov	r3, #2048
 662              		.loc 1 205 0
 663 0032 2E83     		strh	r6, [r5, #24]	@ movhi
 664              		.loc 1 208 0
 665 0034 0120     		movs	r0, #1
 666              		.loc 1 206 0
 667 0036 2B83     		strh	r3, [r5, #24]	@ movhi
 668              		.loc 1 208 0
 669 0038 FFF7FEFF 		bl	chThdSleep
 670              	.LVL70:
 671              	.LBB2:
 672              		.loc 1 211 0
 673 003c 3746     		mov	r7, r6	@ movhi
 674              	.LBE2:
 675              		.loc 1 208 0
 676 003e 1024     		movs	r4, #16
 677              	.LVL71:
 678              	.L25:
 679              	.LBB3:
 680              		.loc 1 212 0 discriminator 3
 681 0040 0120     		movs	r0, #1
 682              		.loc 1 211 0 discriminator 3
 683 0042 6F83     		strh	r7, [r5, #26]	@ movhi
 684              		.loc 1 212 0 discriminator 3
ARM GAS  /tmp/ccqoT34K.s 			page 13


 685 0044 FFF7FEFF 		bl	chThdSleep
 686              	.LVL72:
 687              		.loc 1 213 0 discriminator 3
 688 0048 2E83     		strh	r6, [r5, #24]	@ movhi
 689              		.loc 1 214 0 discriminator 3
 690 004a 0120     		movs	r0, #1
 691 004c FFF7FEFF 		bl	chThdSleep
 692              	.LVL73:
 693              		.loc 1 210 0 discriminator 3
 694 0050 013C     		subs	r4, r4, #1
 695              	.LVL74:
 696 0052 F5D1     		bne	.L25
 697              	.LBE3:
 698              		.loc 1 218 0
 699 0054 4FF40067 		mov	r7, #2048
 700 0058 6F83     		strh	r7, [r5, #26]	@ movhi
 701              		.loc 1 219 0
 702 005a 0120     		movs	r0, #1
 703 005c FFF7FEFF 		bl	chThdSleep
 704              	.LVL75:
 705              		.loc 1 220 0
 706 0060 6E83     		strh	r6, [r5, #26]	@ movhi
 707              		.loc 1 221 0
 708 0062 0120     		movs	r0, #1
 709 0064 FFF7FEFF 		bl	chThdSleep
 710              	.LVL76:
 711              		.loc 1 222 0
 712 0068 2E83     		strh	r6, [r5, #24]	@ movhi
 713              		.loc 1 223 0
 714 006a 0120     		movs	r0, #1
 715 006c FFF7FEFF 		bl	chThdSleep
 716              	.LVL77:
 717              		.loc 1 238 0
 718 0070 0E4C     		ldr	r4, .L29+8
 719              	.LVL78:
 720              		.loc 1 224 0
 721 0072 2F83     		strh	r7, [r5, #24]	@ movhi
 722              		.loc 1 226 0
 723 0074 40F22E22 		movw	r2, #558
 724 0078 4FF48061 		mov	r1, #1024
 725 007c 0A48     		ldr	r0, .L29+4
 726 007e FFF7FEFF 		bl	_pal_lld_setgroupmode
 727              	.LVL79:
 728              		.loc 1 232 0
 729 0082 3946     		mov	r1, r7
 730 0084 40F22E22 		movw	r2, #558
 731 0088 0748     		ldr	r0, .L29+4
 732 008a FFF7FEFF 		bl	_pal_lld_setgroupmode
 733              	.LVL80:
 734              		.loc 1 238 0
 735 008e 0123     		movs	r3, #1
 736              		.loc 1 239 0
 737 0090 2046     		mov	r0, r4
 738 0092 0749     		ldr	r1, .L29+12
 739              		.loc 1 238 0
 740 0094 2370     		strb	r3, [r4]
 741              		.loc 1 239 0
ARM GAS  /tmp/ccqoT34K.s 			page 14


 742 0096 FFF7FEFF 		bl	i2cStart
 743              	.LVL81:
 744              		.loc 1 241 0
 745 009a 2046     		mov	r0, r4
 746              		.loc 1 243 0
 747 009c BDE8F840 		pop	{r3, r4, r5, r6, r7, lr}
 748              		.cfi_restore 14
 749              		.cfi_restore 7
 750              		.cfi_restore 6
 751              		.cfi_restore 5
 752              		.cfi_restore 4
 753              		.cfi_restore 3
 754              		.cfi_def_cfa_offset 0
 755              		.loc 1 241 0
 756 00a0 FFF7FEBF 		b	i2cReleaseBus
 757              	.LVL82:
 758              	.L30:
 759              		.align	2
 760              	.L29:
 761 00a4 00000000 		.word	.LANCHOR0
 762 00a8 00040240 		.word	1073873920
 763 00ac 00000000 		.word	I2CD2
 764 00b0 00000000 		.word	.LANCHOR1
 765              		.cfi_endproc
 766              	.LFE260:
 767              		.size	hw_try_restore_i2c, .-hw_try_restore_i2c
 768              		.section	.text.hwgigavesc_get_temp,"ax",%progbits
 769              		.align	1
 770              		.p2align 4,,15
 771              		.global	hwgigavesc_get_temp
 772              		.syntax unified
 773              		.thumb
 774              		.thumb_func
 775              		.fpu fpv4-sp-d16
 776              		.type	hwgigavesc_get_temp, %function
 777              	hwgigavesc_get_temp:
 778              	.LFB261:
 779              		.loc 1 245 0
 780              		.cfi_startproc
 781              		@ args = 0, pretend = 0, frame = 0
 782              		@ frame_needed = 0, uses_anonymous_args = 0
 783 0000 08B5     		push	{r3, lr}
 784              		.cfi_def_cfa_offset 8
 785              		.cfi_offset 3, -8
 786              		.cfi_offset 14, -4
 787              		.loc 1 247 0
 788 0002 114B     		ldr	r3, .L33
 789 0004 DFED116A 		vldr.32	s13, .L33+4
 790 0008 1B8C     		ldrh	r3, [r3, #32]
 791 000a 9FED110A 		vldr.32	s0, .L33+8
 792 000e 07EE103A 		vmov	s14, r3	@ int
 793 0012 B8EEC77A 		vcvt.f32.s32	s14, s14
 794 0016 C6EE877A 		vdiv.f32	s15, s13, s14
 795 001a 77EEC07A 		vsub.f32	s15, s15, s0
 796 001e 87EE800A 		vdiv.f32	s0, s15, s0
 797 0022 FFF7FEFF 		bl	logf
 798              	.LVL83:
ARM GAS  /tmp/ccqoT34K.s 			page 15


 799 0026 DFED0B6A 		vldr.32	s13, .L33+12
 800 002a DFED0B7A 		vldr.32	s15, .L33+16
 801 002e 9FED0B7A 		vldr.32	s14, .L33+20
 802 0032 80EE260A 		vdiv.f32	s0, s0, s13
 803              	.LVL84:
 804 0036 F7EE006A 		vmov.f32	s13, #1.0e+0
 805 003a 70EE277A 		vadd.f32	s15, s0, s15
 806 003e 86EEA70A 		vdiv.f32	s0, s13, s15
 807              		.loc 1 253 0
 808 0042 30EE470A 		vsub.f32	s0, s0, s14
 809              	.LVL85:
 810 0046 08BD     		pop	{r3, pc}
 811              	.L34:
 812              		.align	2
 813              	.L33:
 814 0048 00000000 		.word	ADC_Value
 815 004c 3C361C4C 		.word	1276917308
 816 0050 00401C46 		.word	1176256512
 817 0054 00405345 		.word	1163083776
 818 0058 0FCF5B3B 		.word	995872527
 819 005c 33938843 		.word	1133024051
 820              		.cfi_endproc
 821              	.LFE261:
 822              		.size	hwgigavesc_get_temp, .-hwgigavesc_get_temp
 823              		.section	.text.hw_id_from_uuid,"ax",%progbits
 824              		.align	1
 825              		.p2align 4,,15
 826              		.global	hw_id_from_uuid
 827              		.syntax unified
 828              		.thumb
 829              		.thumb_func
 830              		.fpu fpv4-sp-d16
 831              		.type	hw_id_from_uuid, %function
 832              	hw_id_from_uuid:
 833              	.LFB262:
 834              		.file 2 "hwconf/hw.c"
 835              		.loc 2 25 0
 836              		.cfi_startproc
 837              		@ args = 0, pretend = 0, frame = 8
 838              		@ frame_needed = 0, uses_anonymous_args = 0
 839 0000 00B5     		push	{lr}
 840              		.cfi_def_cfa_offset 4
 841              		.cfi_offset 14, -4
 842              		.loc 2 26 0
 843 0002 0C21     		movs	r1, #12
 844              		.loc 2 25 0
 845 0004 83B0     		sub	sp, sp, #12
 846              		.cfi_def_cfa_offset 16
 847              		.loc 2 26 0
 848 0006 0C48     		ldr	r0, .L42
 849 0008 FFF7FEFF 		bl	utils_crc32c
 850              	.LVL86:
 851              		.loc 2 28 0
 852 000c 0B23     		movs	r3, #11
 853 000e 8DF80530 		strb	r3, [sp, #5]
 854              		.loc 2 26 0
 855 0012 00F07F00 		and	r0, r0, #127
ARM GAS  /tmp/ccqoT34K.s 			page 16


 856              	.LVL87:
 857              		.loc 2 28 0
 858 0016 0A23     		movs	r3, #10
 859              	.LBB4:
 860              		.loc 2 29 0
 861 0018 0022     		movs	r2, #0
 862 001a 03E0     		b	.L36
 863              	.LVL88:
 864              	.L37:
 865              		.loc 2 29 0 is_stmt 0 discriminator 2
 866 001c 4AB9     		cbnz	r2, .L41
 867 001e 9DF80530 		ldrb	r3, [sp, #5]	@ zero_extendqisi2
 868              	.LVL89:
 869              	.L38:
 870 0022 0122     		movs	r2, #1
 871              	.L36:
 872              	.LVL90:
 873              		.loc 2 30 0 is_stmt 1
 874 0024 8342     		cmp	r3, r0
 875 0026 F9D1     		bne	.L37
 876              		.loc 2 31 0
 877 0028 0133     		adds	r3, r3, #1
 878 002a 03F07F00 		and	r0, r3, #127
 879              	.LVL91:
 880 002e 0B23     		movs	r3, #11
 881 0030 F7E7     		b	.L38
 882              	.LVL92:
 883              	.L41:
 884              	.LBE4:
 885              		.loc 2 36 0
 886 0032 03B0     		add	sp, sp, #12
 887              		.cfi_def_cfa_offset 4
 888              		@ sp needed
 889 0034 5DF804FB 		ldr	pc, [sp], #4
 890              	.L43:
 891              		.align	2
 892              	.L42:
 893 0038 107AFF1F 		.word	536836624
 894              		.cfi_endproc
 895              	.LFE262:
 896              		.size	hw_id_from_uuid, .-hw_id_from_uuid
 897              		.section	.bss.i2c_running,"aw",%nobits
 898              		.set	.LANCHOR0,. + 0
 899              		.type	i2c_running, %object
 900              		.size	i2c_running, 1
 901              	i2c_running:
 902 0000 00       		.space	1
 903              		.section	.rodata.i2cfg,"a",%progbits
 904              		.align	2
 905              		.set	.LANCHOR1,. + 0
 906              		.type	i2cfg, %object
 907              		.size	i2cfg, 12
 908              	i2cfg:
 909 0000 01       		.byte	1
 910 0001 000000   		.space	3
 911 0004 A0860100 		.word	100000
 912 0008 01       		.byte	1
ARM GAS  /tmp/ccqoT34K.s 			page 17


 913 0009 000000   		.space	3
 914              		.text
 915              	.Letext0:
 916              		.file 3 "/usr/arm-none-eabi/include/machine/_default_types.h"
 917              		.file 4 "/usr/arm-none-eabi/include/sys/_stdint.h"
 918              		.file 5 "/usr/lib/gcc/arm-none-eabi/7.3.1/include/stddef.h"
 919              		.file 6 "ChibiOS_3.0.5/os/rt/ports/ARMCMx/compilers/GCC/chtypes.h"
 920              		.file 7 "ChibiOS_3.0.5/os/rt/include/chsystypes.h"
 921              		.file 8 "ChibiOS_3.0.5/os/rt/include/chschd.h"
 922              		.file 9 "ChibiOS_3.0.5/os/ext/CMSIS/include/core_cm4.h"
 923              		.file 10 "ChibiOS_3.0.5/os/ext/CMSIS/ST/system_stm32f4xx.h"
 924              		.file 11 "ChibiOS_3.0.5/os/ext/CMSIS/ST/stm32f407xx.h"
 925              		.file 12 "ChibiOS_3.0.5/os/rt/ports/ARMCMx/chcore.h"
 926              		.file 13 "ChibiOS_3.0.5/os/rt/ports/ARMCMx/chcore_v7m.h"
 927              		.file 14 "ChibiOS_3.0.5/os/rt/include/chtm.h"
 928              		.file 15 "ChibiOS_3.0.5/os/rt/include/chsem.h"
 929              		.file 16 "ChibiOS_3.0.5/os/rt/include/chmtx.h"
 930              		.file 17 "ChibiOS_3.0.5/os/rt/include/chregistry.h"
 931              		.file 18 "ChibiOS_3.0.5/os/rt/include/chevents.h"
 932              		.file 19 "ChibiOS_3.0.5/os/rt/include/chqueues.h"
 933              		.file 20 "./datatypes.h"
 934              		.file 21 "./conf_general.h"
 935              		.file 22 "./utils.h"
 936              		.file 23 "/usr/arm-none-eabi/include/sys/lock.h"
 937              		.file 24 "/usr/arm-none-eabi/include/sys/_types.h"
 938              		.file 25 "/usr/arm-none-eabi/include/sys/reent.h"
 939              		.file 26 "/usr/arm-none-eabi/include/math.h"
 940              		.file 27 "ChibiOS_3.0.5/os/hal/ports/STM32/STM32F4xx/stm32_dma.h"
 941              		.file 28 "ChibiOS_3.0.5/os/hal/ports/STM32/LLD/GPIOv2/pal_lld.h"
 942              		.file 29 "ChibiOS_3.0.5/os/ext/CMSIS/ST/stm32f4xx.h"
 943              		.file 30 "ChibiOS_3.0.5/os/hal/include/can.h"
 944              		.file 31 "ChibiOS_3.0.5/os/hal/ports/STM32/LLD/can_lld.h"
 945              		.file 32 "ChibiOS_3.0.5/os/hal/include/i2c.h"
 946              		.file 33 "ChibiOS_3.0.5/os/hal/ports/STM32/LLD/I2Cv1/i2c_lld.h"
 947              		.file 34 "ChibiOS_3.0.5/os/hal/include/icu.h"
 948              		.file 35 "ChibiOS_3.0.5/os/hal/ports/STM32/LLD/TIMv1/icu_lld.h"
 949              		.file 36 "ChibiOS_3.0.5/os/hal/ports/STM32/LLD/TIMv1/stm32_tim.h"
 950              		.file 37 "ChibiOS_3.0.5/os/hal/include/serial.h"
 951              		.file 38 "ChibiOS_3.0.5/os/hal/ports/STM32/LLD/USARTv1/serial_lld.h"
 952              		.file 39 "ChibiOS_3.0.5/os/hal/include/spi.h"
 953              		.file 40 "ChibiOS_3.0.5/os/hal/ports/STM32/LLD/SPIv1/spi_lld.h"
 954              		.file 41 "ChibiOS_3.0.5/os/hal/include/usb.h"
 955              		.file 42 "ChibiOS_3.0.5/os/hal/ports/STM32/LLD/OTGv1/usb_lld.h"
 956              		.file 43 "ChibiOS_3.0.5/os/hal/ports/STM32/LLD/OTGv1/stm32_otg.h"
 957              		.file 44 "./mc_interface.h"
 958              		.file 45 "ChibiOS_3.0.5/os/rt/include/chthreads.h"
 959              		.file 46 "ChibiOS_3.0.5/ext/stdperiph_stm32f4/inc/stm32f4xx_adc.h"
 960              		.file 47 "ChibiOS_3.0.5/ext/stdperiph_stm32f4/inc/stm32f4xx_rcc.h"