ARM GAS  /tmp/ccqHmiEH.s 			page 1


   1              		.cpu cortex-m4
   2              		.eabi_attribute 27, 1
   3              		.eabi_attribute 28, 1
   4              		.eabi_attribute 20, 1
   5              		.eabi_attribute 21, 1
   6              		.eabi_attribute 23, 3
   7              		.eabi_attribute 24, 1
   8              		.eabi_attribute 25, 1
   9              		.eabi_attribute 26, 1
  10              		.eabi_attribute 30, 2
  11              		.eabi_attribute 34, 1
  12              		.eabi_attribute 18, 4
  13              		.file	"i2c.c"
  14              		.text
  15              	.Ltext0:
  16              		.cfi_sections	.debug_frame
  17              		.section	.text.i2cInit,"ax",%progbits
  18              		.align	1
  19              		.p2align 4,,15
  20              		.global	i2cInit
  21              		.syntax unified
  22              		.thumb
  23              		.thumb_func
  24              		.fpu fpv4-sp-d16
  25              		.type	i2cInit, %function
  26              	i2cInit:
  27              	.LFB256:
  28              		.file 1 "ChibiOS_3.0.5/os/hal/src/i2c.c"
  29              		.loc 1 59 0
  30              		.cfi_startproc
  31              		@ args = 0, pretend = 0, frame = 0
  32              		@ frame_needed = 0, uses_anonymous_args = 0
  33              		@ link register save eliminated.
  34              		.loc 1 61 0
  35 0000 FFF7FEBF 		b	i2c_lld_init
  36              	.LVL0:
  37              		.cfi_endproc
  38              	.LFE256:
  39              		.size	i2cInit, .-i2cInit
  40              		.section	.text.i2cObjectInit,"ax",%progbits
  41              		.align	1
  42              		.p2align 4,,15
  43              		.global	i2cObjectInit
  44              		.syntax unified
  45              		.thumb
  46              		.thumb_func
  47              		.fpu fpv4-sp-d16
  48              		.type	i2cObjectInit, %function
  49              	i2cObjectInit:
  50              	.LFB257:
  51              		.loc 1 71 0
  52              		.cfi_startproc
  53              		@ args = 0, pretend = 0, frame = 0
  54              		@ frame_needed = 0, uses_anonymous_args = 0
  55              		@ link register save eliminated.
  56              	.LVL1:
  57              		.loc 1 73 0
ARM GAS  /tmp/ccqHmiEH.s 			page 2


  58 0000 0122     		movs	r2, #1
  59              		.loc 1 74 0
  60 0002 0023     		movs	r3, #0
  61              		.loc 1 73 0
  62 0004 0270     		strb	r2, [r0]
  63              		.loc 1 74 0
  64 0006 4360     		str	r3, [r0, #4]
  65              	.LVL2:
  66              	.LBB82:
  67              	.LBB83:
  68              		.file 2 "ChibiOS_3.0.5/os/hal/osal/rt/osal.h"
  69              		.loc 2 887 0
  70 0008 0C30     		adds	r0, r0, #12
  71              	.LVL3:
  72 000a FFF7FEBF 		b	chMtxObjectInit
  73              	.LVL4:
  74              	.LBE83:
  75              	.LBE82:
  76              		.cfi_endproc
  77              	.LFE257:
  78              		.size	i2cObjectInit, .-i2cObjectInit
  79 000e 00BF     		.section	.text.i2cStart,"ax",%progbits
  80              		.align	1
  81              		.p2align 4,,15
  82              		.global	i2cStart
  83              		.syntax unified
  84              		.thumb
  85              		.thumb_func
  86              		.fpu fpv4-sp-d16
  87              		.type	i2cStart, %function
  88              	i2cStart:
  89              	.LFB258:
  90              		.loc 1 93 0
  91              		.cfi_startproc
  92              		@ args = 0, pretend = 0, frame = 0
  93              		@ frame_needed = 0, uses_anonymous_args = 0
  94              	.LVL5:
  95 0000 10B5     		push	{r4, lr}
  96              		.cfi_def_cfa_offset 8
  97              		.cfi_offset 4, -8
  98              		.cfi_offset 14, -4
  99              		.loc 1 93 0
 100 0002 0446     		mov	r4, r0
 101              	.LBB84:
 102              	.LBB85:
 103              	.LBB86:
 104              	.LBB87:
 105              	.LBB88:
 106              		.file 3 "ChibiOS_3.0.5/os/ext/CMSIS/include/core_cmFunc.h"
 107              		.loc 3 342 0
 108              		.syntax unified
 109              	@ 342 "ChibiOS_3.0.5/os/ext/CMSIS/include/core_cmFunc.h" 1
 110 0004 72B6     		cpsid i
 111              	@ 0 "" 2
 112              		.thumb
 113              		.syntax unified
 114              	.LBE88:
ARM GAS  /tmp/ccqHmiEH.s 			page 3


 115              	.LBE87:
 116              	.LBE86:
 117              	.LBE85:
 118              	.LBE84:
 119              		.loc 1 100 0
 120 0006 4160     		str	r1, [r0, #4]
 121              		.loc 1 101 0
 122 0008 FFF7FEFF 		bl	i2c_lld_start
 123              	.LVL6:
 124              		.loc 1 102 0
 125 000c 0223     		movs	r3, #2
 126 000e 2370     		strb	r3, [r4]
 127              	.LBB89:
 128              	.LBB90:
 129              	.LBB91:
 130              	.LBB92:
 131              	.LBB93:
 132              	.LBB94:
 133              		.loc 3 331 0
 134              		.syntax unified
 135              	@ 331 "ChibiOS_3.0.5/os/ext/CMSIS/include/core_cmFunc.h" 1
 136 0010 62B6     		cpsie i
 137              	@ 0 "" 2
 138              		.thumb
 139              		.syntax unified
 140              	.LBE94:
 141              	.LBE93:
 142              	.LBE92:
 143              	.LBE91:
 144              	.LBE90:
 145              	.LBE89:
 146              		.loc 1 104 0
 147 0012 10BD     		pop	{r4, pc}
 148              		.cfi_endproc
 149              	.LFE258:
 150              		.size	i2cStart, .-i2cStart
 151              		.section	.text.i2cStop,"ax",%progbits
 152              		.align	1
 153              		.p2align 4,,15
 154              		.global	i2cStop
 155              		.syntax unified
 156              		.thumb
 157              		.thumb_func
 158              		.fpu fpv4-sp-d16
 159              		.type	i2cStop, %function
 160              	i2cStop:
 161              	.LFB259:
 162              		.loc 1 113 0
 163              		.cfi_startproc
 164              		@ args = 0, pretend = 0, frame = 0
 165              		@ frame_needed = 0, uses_anonymous_args = 0
 166              	.LVL7:
 167 0000 10B5     		push	{r4, lr}
 168              		.cfi_def_cfa_offset 8
 169              		.cfi_offset 4, -8
 170              		.cfi_offset 14, -4
 171              		.loc 1 113 0
ARM GAS  /tmp/ccqHmiEH.s 			page 4


 172 0002 0446     		mov	r4, r0
 173              	.LBB95:
 174              	.LBB96:
 175              	.LBB97:
 176              	.LBB98:
 177              	.LBB99:
 178              		.loc 3 342 0
 179              		.syntax unified
 180              	@ 342 "ChibiOS_3.0.5/os/ext/CMSIS/include/core_cmFunc.h" 1
 181 0004 72B6     		cpsid i
 182              	@ 0 "" 2
 183              		.thumb
 184              		.syntax unified
 185              	.LBE99:
 186              	.LBE98:
 187              	.LBE97:
 188              	.LBE96:
 189              	.LBE95:
 190              		.loc 1 120 0
 191 0006 FFF7FEFF 		bl	i2c_lld_stop
 192              	.LVL8:
 193              		.loc 1 121 0
 194 000a 0123     		movs	r3, #1
 195 000c 2370     		strb	r3, [r4]
 196              	.LBB100:
 197              	.LBB101:
 198              	.LBB102:
 199              	.LBB103:
 200              	.LBB104:
 201              	.LBB105:
 202              		.loc 3 331 0
 203              		.syntax unified
 204              	@ 331 "ChibiOS_3.0.5/os/ext/CMSIS/include/core_cmFunc.h" 1
 205 000e 62B6     		cpsie i
 206              	@ 0 "" 2
 207              		.thumb
 208              		.syntax unified
 209              	.LBE105:
 210              	.LBE104:
 211              	.LBE103:
 212              	.LBE102:
 213              	.LBE101:
 214              	.LBE100:
 215              		.loc 1 123 0
 216 0010 10BD     		pop	{r4, pc}
 217              		.cfi_endproc
 218              	.LFE259:
 219              		.size	i2cStop, .-i2cStop
 220 0012 00BF     		.section	.text.i2cGetErrors,"ax",%progbits
 221              		.align	1
 222              		.p2align 4,,15
 223              		.global	i2cGetErrors
 224              		.syntax unified
 225              		.thumb
 226              		.thumb_func
 227              		.fpu fpv4-sp-d16
 228              		.type	i2cGetErrors, %function
ARM GAS  /tmp/ccqHmiEH.s 			page 5


 229              	i2cGetErrors:
 230              	.LFB260:
 231              		.loc 1 133 0
 232              		.cfi_startproc
 233              		@ args = 0, pretend = 0, frame = 0
 234              		@ frame_needed = 0, uses_anonymous_args = 0
 235              		@ link register save eliminated.
 236              	.LVL9:
 237              		.loc 1 138 0
 238 0000 8068     		ldr	r0, [r0, #8]
 239              	.LVL10:
 240 0002 7047     		bx	lr
 241              		.cfi_endproc
 242              	.LFE260:
 243              		.size	i2cGetErrors, .-i2cGetErrors
 244              		.section	.text.i2cMasterTransmitTimeout,"ax",%progbits
 245              		.align	1
 246              		.p2align 4,,15
 247              		.global	i2cMasterTransmitTimeout
 248              		.syntax unified
 249              		.thumb
 250              		.thumb_func
 251              		.fpu fpv4-sp-d16
 252              		.type	i2cMasterTransmitTimeout, %function
 253              	i2cMasterTransmitTimeout:
 254              	.LFB261:
 255              		.loc 1 172 0
 256              		.cfi_startproc
 257              		@ args = 12, pretend = 0, frame = 0
 258              		@ frame_needed = 0, uses_anonymous_args = 0
 259              	.LVL11:
 260 0000 F0B5     		push	{r4, r5, r6, r7, lr}
 261              		.cfi_def_cfa_offset 20
 262              		.cfi_offset 4, -20
 263              		.cfi_offset 5, -16
 264              		.cfi_offset 6, -12
 265              		.cfi_offset 7, -8
 266              		.cfi_offset 14, -4
 267 0002 85B0     		sub	sp, sp, #20
 268              		.cfi_def_cfa_offset 40
 269              		.loc 1 172 0
 270 0004 0446     		mov	r4, r0
 271 0006 DDE90B75 		ldrd	r7, r5, [sp, #44]
 272              	.LBB106:
 273              	.LBB107:
 274              	.LBB108:
 275              	.LBB109:
 276              	.LBB110:
 277              		.loc 3 342 0
 278              		.syntax unified
 279              	@ 342 "ChibiOS_3.0.5/os/ext/CMSIS/include/core_cmFunc.h" 1
 280 000a 72B6     		cpsid i
 281              	@ 0 "" 2
 282              		.thumb
 283              		.syntax unified
 284              	.LBE110:
 285              	.LBE109:
ARM GAS  /tmp/ccqHmiEH.s 			page 6


 286              	.LBE108:
 287              	.LBE107:
 288              	.LBE106:
 289              		.loc 1 183 0
 290 000c 0026     		movs	r6, #0
 291              		.loc 1 185 0
 292 000e 0295     		str	r5, [sp, #8]
 293 0010 0197     		str	r7, [sp, #4]
 294              		.loc 1 184 0
 295 0012 0325     		movs	r5, #3
 296              		.loc 1 185 0
 297 0014 0A9F     		ldr	r7, [sp, #40]
 298 0016 0097     		str	r7, [sp]
 299              		.loc 1 183 0
 300 0018 8660     		str	r6, [r0, #8]
 301              		.loc 1 184 0
 302 001a 0570     		strb	r5, [r0]
 303              		.loc 1 185 0
 304 001c FFF7FEFF 		bl	i2c_lld_master_transmit_timeout
 305              	.LVL12:
 306              		.loc 1 187 0
 307 0020 431C     		adds	r3, r0, #1
 308              		.loc 1 188 0
 309 0022 0CBF     		ite	eq
 310 0024 0523     		moveq	r3, #5
 311              		.loc 1 191 0
 312 0026 0223     		movne	r3, #2
 313 0028 2370     		strb	r3, [r4]
 314              	.LBB111:
 315              	.LBB112:
 316              	.LBB113:
 317              	.LBB114:
 318              	.LBB115:
 319              	.LBB116:
 320              		.loc 3 331 0
 321              		.syntax unified
 322              	@ 331 "ChibiOS_3.0.5/os/ext/CMSIS/include/core_cmFunc.h" 1
 323 002a 62B6     		cpsie i
 324              	@ 0 "" 2
 325              		.thumb
 326              		.syntax unified
 327              	.LBE116:
 328              	.LBE115:
 329              	.LBE114:
 330              	.LBE113:
 331              	.LBE112:
 332              	.LBE111:
 333              		.loc 1 195 0
 334 002c 05B0     		add	sp, sp, #20
 335              		.cfi_def_cfa_offset 20
 336              		@ sp needed
 337 002e F0BD     		pop	{r4, r5, r6, r7, pc}
 338              		.cfi_endproc
 339              	.LFE261:
 340              		.size	i2cMasterTransmitTimeout, .-i2cMasterTransmitTimeout
 341              		.section	.text.i2cMasterReceiveTimeout,"ax",%progbits
 342              		.align	1
ARM GAS  /tmp/ccqHmiEH.s 			page 7


 343              		.p2align 4,,15
 344              		.global	i2cMasterReceiveTimeout
 345              		.syntax unified
 346              		.thumb
 347              		.thumb_func
 348              		.fpu fpv4-sp-d16
 349              		.type	i2cMasterReceiveTimeout, %function
 350              	i2cMasterReceiveTimeout:
 351              	.LFB262:
 352              		.loc 1 221 0
 353              		.cfi_startproc
 354              		@ args = 4, pretend = 0, frame = 0
 355              		@ frame_needed = 0, uses_anonymous_args = 0
 356              	.LVL13:
 357 0000 70B5     		push	{r4, r5, r6, lr}
 358              		.cfi_def_cfa_offset 16
 359              		.cfi_offset 4, -16
 360              		.cfi_offset 5, -12
 361              		.cfi_offset 6, -8
 362              		.cfi_offset 14, -4
 363 0002 82B0     		sub	sp, sp, #8
 364              		.cfi_def_cfa_offset 24
 365              		.loc 1 221 0
 366 0004 0446     		mov	r4, r0
 367 0006 069D     		ldr	r5, [sp, #24]
 368              	.LBB117:
 369              	.LBB118:
 370              	.LBB119:
 371              	.LBB120:
 372              	.LBB121:
 373              		.loc 3 342 0
 374              		.syntax unified
 375              	@ 342 "ChibiOS_3.0.5/os/ext/CMSIS/include/core_cmFunc.h" 1
 376 0008 72B6     		cpsid i
 377              	@ 0 "" 2
 378              		.thumb
 379              		.syntax unified
 380              	.LBE121:
 381              	.LBE120:
 382              	.LBE119:
 383              	.LBE118:
 384              	.LBE117:
 385              		.loc 1 232 0
 386 000a 0026     		movs	r6, #0
 387              		.loc 1 234 0
 388 000c 0095     		str	r5, [sp]
 389              		.loc 1 233 0
 390 000e 0425     		movs	r5, #4
 391              		.loc 1 232 0
 392 0010 8660     		str	r6, [r0, #8]
 393              		.loc 1 233 0
 394 0012 0570     		strb	r5, [r0]
 395              		.loc 1 234 0
 396 0014 FFF7FEFF 		bl	i2c_lld_master_receive_timeout
 397              	.LVL14:
 398              		.loc 1 235 0
 399 0018 431C     		adds	r3, r0, #1
ARM GAS  /tmp/ccqHmiEH.s 			page 8


 400              		.loc 1 236 0
 401 001a 0CBF     		ite	eq
 402 001c 0523     		moveq	r3, #5
 403              		.loc 1 239 0
 404 001e 0223     		movne	r3, #2
 405 0020 2370     		strb	r3, [r4]
 406              	.LBB122:
 407              	.LBB123:
 408              	.LBB124:
 409              	.LBB125:
 410              	.LBB126:
 411              	.LBB127:
 412              		.loc 3 331 0
 413              		.syntax unified
 414              	@ 331 "ChibiOS_3.0.5/os/ext/CMSIS/include/core_cmFunc.h" 1
 415 0022 62B6     		cpsie i
 416              	@ 0 "" 2
 417              		.thumb
 418              		.syntax unified
 419              	.LBE127:
 420              	.LBE126:
 421              	.LBE125:
 422              	.LBE124:
 423              	.LBE123:
 424              	.LBE122:
 425              		.loc 1 243 0
 426 0024 02B0     		add	sp, sp, #8
 427              		.cfi_def_cfa_offset 16
 428              		@ sp needed
 429 0026 70BD     		pop	{r4, r5, r6, pc}
 430              		.cfi_endproc
 431              	.LFE262:
 432              		.size	i2cMasterReceiveTimeout, .-i2cMasterReceiveTimeout
 433              		.section	.text.i2cAcquireBus,"ax",%progbits
 434              		.align	1
 435              		.p2align 4,,15
 436              		.global	i2cAcquireBus
 437              		.syntax unified
 438              		.thumb
 439              		.thumb_func
 440              		.fpu fpv4-sp-d16
 441              		.type	i2cAcquireBus, %function
 442              	i2cAcquireBus:
 443              	.LFB263:
 444              		.loc 1 257 0
 445              		.cfi_startproc
 446              		@ args = 0, pretend = 0, frame = 0
 447              		@ frame_needed = 0, uses_anonymous_args = 0
 448              		@ link register save eliminated.
 449              	.LVL15:
 450              	.LBB128:
 451              	.LBB129:
 452              		.loc 2 907 0
 453 0000 0C30     		adds	r0, r0, #12
 454              	.LVL16:
 455 0002 FFF7FEBF 		b	chMtxLock
 456              	.LVL17:
ARM GAS  /tmp/ccqHmiEH.s 			page 9


 457              	.LBE129:
 458              	.LBE128:
 459              		.cfi_endproc
 460              	.LFE263:
 461              		.size	i2cAcquireBus, .-i2cAcquireBus
 462 0006 00BF     		.section	.text.i2cReleaseBus,"ax",%progbits
 463              		.align	1
 464              		.p2align 4,,15
 465              		.global	i2cReleaseBus
 466              		.syntax unified
 467              		.thumb
 468              		.thumb_func
 469              		.fpu fpv4-sp-d16
 470              		.type	i2cReleaseBus, %function
 471              	i2cReleaseBus:
 472              	.LFB264:
 473              		.loc 1 273 0
 474              		.cfi_startproc
 475              		@ args = 0, pretend = 0, frame = 0
 476              		@ frame_needed = 0, uses_anonymous_args = 0
 477              		@ link register save eliminated.
 478              	.LVL18:
 479              	.LBB130:
 480              	.LBB131:
 481              		.loc 2 931 0
 482 0000 0C30     		adds	r0, r0, #12
 483              	.LVL19:
 484 0002 FFF7FEBF 		b	chMtxUnlock
 485              	.LVL20:
 486              	.LBE131:
 487              	.LBE130:
 488              		.cfi_endproc
 489              	.LFE264:
 490              		.size	i2cReleaseBus, .-i2cReleaseBus
 491 0006 00BF     		.text
 492              	.Letext0:
 493              		.file 4 "/usr/lib/gcc/arm-none-eabi/7.3.1/include/stddef.h"
 494              		.file 5 "/usr/arm-none-eabi/include/machine/_default_types.h"
 495              		.file 6 "/usr/arm-none-eabi/include/sys/_stdint.h"
 496              		.file 7 "ChibiOS_3.0.5/os/rt/ports/ARMCMx/compilers/GCC/chtypes.h"
 497              		.file 8 "ChibiOS_3.0.5/os/rt/include/chsystypes.h"
 498              		.file 9 "ChibiOS_3.0.5/os/rt/include/chschd.h"
 499              		.file 10 "ChibiOS_3.0.5/os/ext/CMSIS/include/core_cm4.h"
 500              		.file 11 "ChibiOS_3.0.5/os/ext/CMSIS/ST/system_stm32f4xx.h"
 501              		.file 12 "ChibiOS_3.0.5/os/ext/CMSIS/ST/stm32f407xx.h"
 502              		.file 13 "ChibiOS_3.0.5/os/rt/ports/ARMCMx/chcore.h"
 503              		.file 14 "ChibiOS_3.0.5/os/rt/ports/ARMCMx/chcore_v7m.h"
 504              		.file 15 "ChibiOS_3.0.5/os/rt/include/chtm.h"
 505              		.file 16 "ChibiOS_3.0.5/os/rt/include/chsem.h"
 506              		.file 17 "ChibiOS_3.0.5/os/rt/include/chmtx.h"
 507              		.file 18 "ChibiOS_3.0.5/os/rt/include/chregistry.h"
 508              		.file 19 "ChibiOS_3.0.5/os/rt/include/chevents.h"
 509              		.file 20 "ChibiOS_3.0.5/os/rt/include/chqueues.h"
 510              		.file 21 "./datatypes.h"
 511              		.file 22 "./conf_general.h"
 512              		.file 23 "ChibiOS_3.0.5/os/hal/ports/STM32/STM32F4xx/stm32_dma.h"
 513              		.file 24 "ChibiOS_3.0.5/os/hal/ports/STM32/LLD/GPIOv2/pal_lld.h"
ARM GAS  /tmp/ccqHmiEH.s 			page 10


 514              		.file 25 "ChibiOS_3.0.5/os/hal/include/can.h"
 515              		.file 26 "ChibiOS_3.0.5/os/hal/ports/STM32/LLD/can_lld.h"
 516              		.file 27 "ChibiOS_3.0.5/os/hal/include/i2c.h"
 517              		.file 28 "ChibiOS_3.0.5/os/hal/ports/STM32/LLD/I2Cv1/i2c_lld.h"
 518              		.file 29 "ChibiOS_3.0.5/os/hal/include/icu.h"
 519              		.file 30 "ChibiOS_3.0.5/os/hal/ports/STM32/LLD/TIMv1/icu_lld.h"
 520              		.file 31 "ChibiOS_3.0.5/os/hal/ports/STM32/LLD/TIMv1/stm32_tim.h"
 521              		.file 32 "ChibiOS_3.0.5/os/hal/include/serial.h"
 522              		.file 33 "ChibiOS_3.0.5/os/hal/ports/STM32/LLD/USARTv1/serial_lld.h"
 523              		.file 34 "ChibiOS_3.0.5/os/hal/include/spi.h"
 524              		.file 35 "ChibiOS_3.0.5/os/hal/ports/STM32/LLD/SPIv1/spi_lld.h"
 525              		.file 36 "ChibiOS_3.0.5/os/hal/include/usb.h"
 526              		.file 37 "ChibiOS_3.0.5/os/hal/ports/STM32/LLD/OTGv1/usb_lld.h"
 527              		.file 38 "ChibiOS_3.0.5/os/hal/ports/STM32/LLD/OTGv1/stm32_otg.h"
 528              		.file 39 "ChibiOS_3.0.5/os/rt/include/chsys.h"