ARM GAS  /tmp/ccf8fLh7.s 			page 1


   1              		.cpu cortex-m4
   2              		.eabi_attribute 27, 1
   3              		.eabi_attribute 28, 1
   4              		.eabi_attribute 20, 1
   5              		.eabi_attribute 21, 1
   6              		.eabi_attribute 23, 3
   7              		.eabi_attribute 24, 1
   8              		.eabi_attribute 25, 1
   9              		.eabi_attribute 26, 1
  10              		.eabi_attribute 30, 2
  11              		.eabi_attribute 34, 1
  12              		.eabi_attribute 18, 4
  13              		.file	"icu_lld.c"
  14              		.text
  15              	.Ltext0:
  16              		.cfi_sections	.debug_frame
  17              		.section	.text.icu_lld_serve_interrupt,"ax",%progbits
  18              		.align	1
  19              		.p2align 4,,15
  20              		.syntax unified
  21              		.thumb
  22              		.thumb_func
  23              		.fpu fpv4-sp-d16
  24              		.type	icu_lld_serve_interrupt, %function
  25              	icu_lld_serve_interrupt:
  26              	.LFB257:
  27              		.file 1 "ChibiOS_3.0.5/os/hal/ports/STM32/LLD/TIMv1/icu_lld.c"
  28              		.loc 1 146 0
  29              		.cfi_startproc
  30              		@ args = 0, pretend = 0, frame = 8
  31              		@ frame_needed = 0, uses_anonymous_args = 0
  32              	.LVL0:
  33              		.loc 1 149 0
  34 0000 C368     		ldr	r3, [r0, #12]
  35              		.loc 1 152 0
  36 0002 4168     		ldr	r1, [r0, #4]
  37              		.loc 1 149 0
  38 0004 1A69     		ldr	r2, [r3, #16]
  39              	.LVL1:
  40              		.loc 1 146 0
  41 0006 F0B5     		push	{r4, r5, r6, r7, lr}
  42              		.cfi_def_cfa_offset 20
  43              		.cfi_offset 4, -20
  44              		.cfi_offset 5, -16
  45              		.cfi_offset 6, -12
  46              		.cfi_offset 7, -8
  47              		.cfi_offset 14, -4
  48              		.loc 1 150 0
  49 0008 DD68     		ldr	r5, [r3, #12]
  50              		.loc 1 152 0
  51 000a 0E7D     		ldrb	r6, [r1, #20]	@ zero_extendqisi2
  52 000c 1540     		ands	r5, r5, r2
  53              	.LVL2:
  54              		.loc 1 150 0
  55 000e EAB2     		uxtb	r2, r5
  56              		.loc 1 151 0
  57 0010 D243     		mvns	r2, r2
ARM GAS  /tmp/ccf8fLh7.s 			page 2


  58 0012 1A61     		str	r2, [r3, #16]
  59              		.loc 1 146 0
  60 0014 83B0     		sub	sp, sp, #12
  61              		.cfi_def_cfa_offset 32
  62              		.loc 1 146 0
  63 0016 0446     		mov	r4, r0
  64 0018 05F00203 		and	r3, r5, #2
  65 001c 05F00407 		and	r7, r5, #4
  66              		.loc 1 152 0
  67 0020 7EB9     		cbnz	r6, .L2
  68              		.loc 1 153 0
  69 0022 002F     		cmp	r7, #0
  70 0024 2CD0     		beq	.L3
  71              		.loc 1 154 0
  72 0026 0278     		ldrb	r2, [r0]	@ zero_extendqisi2
  73 0028 042A     		cmp	r2, #4
  74 002a 24D0     		beq	.L43
  75              		.loc 1 155 0
  76 002c 7BB9     		cbnz	r3, .L9
  77              	.LVL3:
  78              	.L7:
  79              		.loc 1 164 0
  80 002e EB07     		lsls	r3, r5, #31
  81 0030 05D5     		bpl	.L1
  82              		.loc 1 165 0
  83 0032 6368     		ldr	r3, [r4, #4]
  84 0034 2046     		mov	r0, r4
  85 0036 1B69     		ldr	r3, [r3, #16]
  86 0038 9847     		blx	r3
  87              	.LVL4:
  88 003a 0323     		movs	r3, #3
  89 003c 2370     		strb	r3, [r4]
  90              	.L1:
  91              		.loc 1 166 0
  92 003e 03B0     		add	sp, sp, #12
  93              		.cfi_remember_state
  94              		.cfi_def_cfa_offset 20
  95              		@ sp needed
  96 0040 F0BD     		pop	{r4, r5, r6, r7, pc}
  97              	.LVL5:
  98              	.L2:
  99              		.cfi_restore_state
 100              		.loc 1 159 0
 101 0042 53B1     		cbz	r3, .L11
 102              		.loc 1 160 0
 103 0044 0378     		ldrb	r3, [r0]	@ zero_extendqisi2
 104 0046 042B     		cmp	r3, #4
 105 0048 04D0     		beq	.L44
 106              		.loc 1 161 0
 107 004a 002F     		cmp	r7, #0
 108 004c EFD0     		beq	.L7
 109              	.LVL6:
 110              	.L9:
 111              		.loc 1 156 0 discriminator 5
 112 004e 0423     		movs	r3, #4
 113 0050 2370     		strb	r3, [r4]
 114 0052 ECE7     		b	.L7
ARM GAS  /tmp/ccf8fLh7.s 			page 3


 115              	.LVL7:
 116              	.L44:
 117              		.loc 1 160 0 discriminator 1
 118 0054 8B68     		ldr	r3, [r1, #8]
 119 0056 E3B1     		cbz	r3, .L13
 120              		.loc 1 160 0 is_stmt 0 discriminator 2
 121 0058 9847     		blx	r3
 122              	.LVL8:
 123              	.L11:
 124              		.loc 1 161 0 is_stmt 1
 125 005a 002F     		cmp	r7, #0
 126 005c E7D0     		beq	.L7
 127              		.loc 1 156 0
 128 005e 2378     		ldrb	r3, [r4]	@ zero_extendqisi2
 129 0060 042B     		cmp	r3, #4
 130 0062 F4D1     		bne	.L9
 131              	.L45:
 132 0064 6168     		ldr	r1, [r4, #4]
 133              	.L16:
 134              		.loc 1 156 0 is_stmt 0 discriminator 1
 135 0066 CB68     		ldr	r3, [r1, #12]
 136 0068 002B     		cmp	r3, #0
 137 006a F0D0     		beq	.L9
 138              		.loc 1 156 0 discriminator 3
 139 006c 2046     		mov	r0, r4
 140 006e 9847     		blx	r3
 141              	.LVL9:
 142 0070 0423     		movs	r3, #4
 143 0072 2370     		strb	r3, [r4]
 144 0074 DBE7     		b	.L7
 145              	.LVL10:
 146              	.L43:
 147              		.loc 1 154 0 is_stmt 1 discriminator 1
 148 0076 8A68     		ldr	r2, [r1, #8]
 149 0078 42B1     		cbz	r2, .L5
 150 007a 0193     		str	r3, [sp, #4]
 151              		.loc 1 154 0 is_stmt 0 discriminator 2
 152 007c 9047     		blx	r2
 153              	.LVL11:
 154 007e 019B     		ldr	r3, [sp, #4]
 155              	.L3:
 156              		.loc 1 155 0 is_stmt 1
 157 0080 002B     		cmp	r3, #0
 158 0082 D4D0     		beq	.L7
 159              		.loc 1 156 0
 160 0084 2378     		ldrb	r3, [r4]	@ zero_extendqisi2
 161 0086 042B     		cmp	r3, #4
 162 0088 E1D1     		bne	.L9
 163 008a EBE7     		b	.L45
 164              	.LVL12:
 165              	.L5:
 166              		.loc 1 155 0
 167 008c 002B     		cmp	r3, #0
 168 008e CED0     		beq	.L7
 169 0090 E9E7     		b	.L16
 170              	.L13:
 171              		.loc 1 161 0
ARM GAS  /tmp/ccf8fLh7.s 			page 4


 172 0092 002F     		cmp	r7, #0
 173 0094 CBD0     		beq	.L7
 174 0096 E6E7     		b	.L16
 175              		.cfi_endproc
 176              	.LFE257:
 177              		.size	icu_lld_serve_interrupt, .-icu_lld_serve_interrupt
 178              		.section	.text.icu_lld_wait_edge.isra.0,"ax",%progbits
 179              		.align	1
 180              		.p2align 4,,15
 181              		.syntax unified
 182              		.thumb
 183              		.thumb_func
 184              		.fpu fpv4-sp-d16
 185              		.type	icu_lld_wait_edge.isra.0, %function
 186              	icu_lld_wait_edge.isra.0:
 187              	.LFB268:
 188              		.loc 1 105 0
 189              		.cfi_startproc
 190              		@ args = 0, pretend = 0, frame = 0
 191              		@ frame_needed = 0, uses_anonymous_args = 0
 192              		@ link register save eliminated.
 193              	.LBB48:
 194              	.LBB49:
 195              	.LBB50:
 196              	.LBB51:
 197              	.LBB52:
 198              	.LBB53:
 199              		.file 2 "ChibiOS_3.0.5/os/ext/CMSIS/include/core_cmFunc.h"
 200              		.loc 2 331 0
 201              		.syntax unified
 202              	@ 331 "ChibiOS_3.0.5/os/ext/CMSIS/include/core_cmFunc.h" 1
 203 0000 62B6     		cpsie i
 204              	@ 0 "" 2
 205              		.thumb
 206              		.syntax unified
 207              	.LBE53:
 208              	.LBE52:
 209              	.LBE51:
 210              	.LBE50:
 211              	.LBE49:
 212              	.LBE48:
 213              		.loc 1 114 0
 214 0002 0368     		ldr	r3, [r0]
 215 0004 1B7D     		ldrb	r3, [r3, #20]	@ zero_extendqisi2
 216 0006 63B9     		cbnz	r3, .L47
 217              		.loc 1 116 0
 218 0008 0B68     		ldr	r3, [r1]
 219              	.L48:
 220 000a 1869     		ldr	r0, [r3, #16]
 221              	.LVL13:
 222 000c 8207     		lsls	r2, r0, #30
 223 000e FCD0     		beq	.L48
 224              	.L49:
 225              	.LVL14:
 226              	.LBB54:
 227              	.LBB55:
 228              	.LBB56:
ARM GAS  /tmp/ccf8fLh7.s 			page 5


 229              	.LBB57:
 230              	.LBB58:
 231              		.loc 2 342 0
 232              		.syntax unified
 233              	@ 342 "ChibiOS_3.0.5/os/ext/CMSIS/include/core_cmFunc.h" 1
 234 0010 72B6     		cpsid i
 235              	@ 0 "" 2
 236              		.thumb
 237              		.syntax unified
 238              	.LBE58:
 239              	.LBE57:
 240              	.LBE56:
 241              	.LBE55:
 242              	.LBE54:
 243              		.loc 1 134 0
 244 0012 0A68     		ldr	r2, [r1]
 245 0014 1369     		ldr	r3, [r2, #16]
 246 0016 23F00703 		bic	r3, r3, #7
 247              		.loc 1 139 0
 248 001a 00F00100 		and	r0, r0, #1
 249              	.LVL15:
 250              		.loc 1 134 0
 251 001e 1361     		str	r3, [r2, #16]
 252              		.loc 1 139 0
 253 0020 7047     		bx	lr
 254              	.L47:
 255              		.loc 1 122 0
 256 0022 0B68     		ldr	r3, [r1]
 257              	.L50:
 258 0024 1869     		ldr	r0, [r3, #16]
 259              	.LVL16:
 260 0026 10F0050F 		tst	r0, #5
 261 002a FBD0     		beq	.L50
 262 002c F0E7     		b	.L49
 263              		.cfi_endproc
 264              	.LFE268:
 265              		.size	icu_lld_wait_edge.isra.0, .-icu_lld_wait_edge.isra.0
 266 002e 00BF     		.section	.text.VectorB8,"ax",%progbits
 267              		.align	1
 268              		.p2align 4,,15
 269              		.global	VectorB8
 270              		.syntax unified
 271              		.thumb
 272              		.thumb_func
 273              		.fpu fpv4-sp-d16
 274              		.type	VectorB8, %function
 275              	VectorB8:
 276              	.LFB258:
 277              		.loc 1 270 0
 278              		.cfi_startproc
 279              		@ args = 0, pretend = 0, frame = 0
 280              		@ frame_needed = 0, uses_anonymous_args = 0
 281 0000 08B5     		push	{r3, lr}
 282              		.cfi_def_cfa_offset 8
 283              		.cfi_offset 3, -8
 284              		.cfi_offset 14, -4
 285              		.loc 1 274 0
ARM GAS  /tmp/ccf8fLh7.s 			page 6


 286 0002 0348     		ldr	r0, .L57
 287 0004 FFF7FEFF 		bl	icu_lld_serve_interrupt
 288              	.LVL17:
 289              		.loc 1 277 0
 290 0008 BDE80840 		pop	{r3, lr}
 291              		.cfi_restore 14
 292              		.cfi_restore 3
 293              		.cfi_def_cfa_offset 0
 294              		.loc 1 276 0
 295 000c FFF7FEBF 		b	_port_irq_epilogue
 296              	.LVL18:
 297              	.L58:
 298              		.align	2
 299              	.L57:
 300 0010 00000000 		.word	.LANCHOR0
 301              		.cfi_endproc
 302              	.LFE258:
 303              		.size	VectorB8, .-VectorB8
 304              		.section	.text.VectorA0,"ax",%progbits
 305              		.align	1
 306              		.p2align 4,,15
 307              		.global	VectorA0
 308              		.syntax unified
 309              		.thumb
 310              		.thumb_func
 311              		.fpu fpv4-sp-d16
 312              		.type	VectorA0, %function
 313              	VectorA0:
 314              	.LFB259:
 315              		.loc 1 356 0
 316              		.cfi_startproc
 317              		@ args = 0, pretend = 0, frame = 0
 318              		@ frame_needed = 0, uses_anonymous_args = 0
 319 0000 08B5     		push	{r3, lr}
 320              		.cfi_def_cfa_offset 8
 321              		.cfi_offset 3, -8
 322              		.cfi_offset 14, -4
 323              		.loc 1 360 0
 324 0002 0348     		ldr	r0, .L61
 325 0004 FFF7FEFF 		bl	icu_lld_serve_interrupt
 326              	.LVL19:
 327              		.loc 1 363 0
 328 0008 BDE80840 		pop	{r3, lr}
 329              		.cfi_restore 14
 330              		.cfi_restore 3
 331              		.cfi_def_cfa_offset 0
 332              		.loc 1 362 0
 333 000c FFF7FEBF 		b	_port_irq_epilogue
 334              	.LVL20:
 335              	.L62:
 336              		.align	2
 337              	.L61:
 338 0010 00000000 		.word	.LANCHOR1
 339              		.cfi_endproc
 340              	.LFE259:
 341              		.size	VectorA0, .-VectorA0
 342              		.section	.text.icu_lld_init,"ax",%progbits
ARM GAS  /tmp/ccf8fLh7.s 			page 7


 343              		.align	1
 344              		.p2align 4,,15
 345              		.global	icu_lld_init
 346              		.syntax unified
 347              		.thumb
 348              		.thumb_func
 349              		.fpu fpv4-sp-d16
 350              		.type	icu_lld_init, %function
 351              	icu_lld_init:
 352              	.LFB260:
 353              		.loc 1 375 0
 354              		.cfi_startproc
 355              		@ args = 0, pretend = 0, frame = 0
 356              		@ frame_needed = 0, uses_anonymous_args = 0
 357 0000 38B5     		push	{r3, r4, r5, lr}
 358              		.cfi_def_cfa_offset 16
 359              		.cfi_offset 3, -16
 360              		.cfi_offset 4, -12
 361              		.cfi_offset 5, -8
 362              		.cfi_offset 14, -4
 363              		.loc 1 397 0
 364 0002 064D     		ldr	r5, .L65
 365              		.loc 1 415 0
 366 0004 064C     		ldr	r4, .L65+4
 367              		.loc 1 397 0
 368 0006 2846     		mov	r0, r5
 369 0008 FFF7FEFF 		bl	icuObjectInit
 370              	.LVL21:
 371              		.loc 1 398 0
 372 000c 054B     		ldr	r3, .L65+8
 373 000e EB60     		str	r3, [r5, #12]
 374              		.loc 1 415 0
 375 0010 2046     		mov	r0, r4
 376 0012 FFF7FEFF 		bl	icuObjectInit
 377              	.LVL22:
 378              		.loc 1 416 0
 379 0016 044B     		ldr	r3, .L65+12
 380 0018 E360     		str	r3, [r4, #12]
 381              		.loc 1 418 0
 382 001a 38BD     		pop	{r3, r4, r5, pc}
 383              	.L66:
 384              		.align	2
 385              	.L65:
 386 001c 00000000 		.word	.LANCHOR0
 387 0020 00000000 		.word	.LANCHOR1
 388 0024 00080040 		.word	1073743872
 389 0028 00400140 		.word	1073823744
 390              		.cfi_endproc
 391              	.LFE260:
 392              		.size	icu_lld_init, .-icu_lld_init
 393              		.section	.text.icu_lld_start,"ax",%progbits
 394              		.align	1
 395              		.p2align 4,,15
 396              		.global	icu_lld_start
 397              		.syntax unified
 398              		.thumb
 399              		.thumb_func
ARM GAS  /tmp/ccf8fLh7.s 			page 8


 400              		.fpu fpv4-sp-d16
 401              		.type	icu_lld_start, %function
 402              	icu_lld_start:
 403              	.LFB261:
 404              		.loc 1 427 0
 405              		.cfi_startproc
 406              		@ args = 0, pretend = 0, frame = 0
 407              		@ frame_needed = 0, uses_anonymous_args = 0
 408              	.LVL23:
 409              		.loc 1 434 0
 410 0000 0378     		ldrb	r3, [r0]	@ zero_extendqisi2
 411 0002 012B     		cmp	r3, #1
 412              		.loc 1 427 0
 413 0004 70B5     		push	{r4, r5, r6, lr}
 414              		.cfi_def_cfa_offset 16
 415              		.cfi_offset 4, -16
 416              		.cfi_offset 5, -12
 417              		.cfi_offset 6, -8
 418              		.cfi_offset 14, -4
 419              		.loc 1 427 0
 420 0006 0446     		mov	r4, r0
 421              		.loc 1 434 0
 422 0008 3AD0     		beq	.L80
 423              		.loc 1 505 0
 424 000a C368     		ldr	r3, [r0, #12]
 425 000c 0022     		movs	r2, #0
 426 000e 1A60     		str	r2, [r3]
 427              		.loc 1 506 0
 428 0010 5A63     		str	r2, [r3, #52]
 429              		.loc 1 507 0
 430 0012 9A63     		str	r2, [r3, #56]
 431              		.loc 1 508 0
 432 0014 5A62     		str	r2, [r3, #36]
 433              	.LVL24:
 434              	.L70:
 435              		.loc 1 515 0
 436 0016 D4E90112 		ldrd	r1, r2, [r4, #4]
 437              		.loc 1 513 0
 438 001a 8869     		ldr	r0, [r1, #24]
 439              		.loc 1 522 0
 440 001c 0D7D     		ldrb	r5, [r1, #20]	@ zero_extendqisi2
 441              		.loc 1 513 0
 442 001e 20F0FF00 		bic	r0, r0, #255
 443              		.loc 1 512 0
 444 0022 0026     		movs	r6, #0
 445 0024 1E61     		str	r6, [r3, #16]
 446              		.loc 1 513 0
 447 0026 D860     		str	r0, [r3, #12]
 448              		.loc 1 515 0
 449 0028 4868     		ldr	r0, [r1, #4]
 450 002a B2FBF0F2 		udiv	r2, r2, r0
 451              		.loc 1 520 0
 452 002e 4FF6FF70 		movw	r0, #65535
 453              		.loc 1 515 0
 454 0032 013A     		subs	r2, r2, #1
 455              	.LVL25:
 456              		.loc 1 519 0
ARM GAS  /tmp/ccf8fLh7.s 			page 9


 457 0034 9A62     		str	r2, [r3, #40]
 458 0036 0A78     		ldrb	r2, [r1]	@ zero_extendqisi2
 459              	.LVL26:
 460              		.loc 1 520 0
 461 0038 D862     		str	r0, [r3, #44]
 462              	.LVL27:
 463              		.loc 1 522 0
 464 003a 6DB9     		cbnz	r5, .L72
 465              		.loc 1 526 0
 466 003c 40F20120 		movw	r0, #513
 467              		.loc 1 530 0
 468 0040 5421     		movs	r1, #84
 469              	.LVL28:
 470              		.loc 1 526 0
 471 0042 9861     		str	r0, [r3, #24]
 472              		.loc 1 530 0
 473 0044 9960     		str	r1, [r3, #8]
 474              		.loc 1 535 0
 475 0046 C2B1     		cbz	r2, .L81
 476              		.loc 1 539 0
 477 0048 1322     		movs	r2, #19
 478 004a 1A62     		str	r2, [r3, #32]
 479              	.LVL29:
 480              	.L74:
 481              		.loc 1 544 0
 482 004c 03F13802 		add	r2, r3, #56
 483              		.loc 1 545 0
 484 0050 3433     		adds	r3, r3, #52
 485 0052 C4E90423 		strd	r2, r3, [r4, #16]
 486              		.loc 1 572 0
 487 0056 70BD     		pop	{r4, r5, r6, pc}
 488              	.LVL30:
 489              	.L72:
 490              		.loc 1 551 0
 491 0058 4FF48170 		mov	r0, #258
 492              		.loc 1 555 0
 493 005c 6421     		movs	r1, #100
 494              	.LVL31:
 495              		.loc 1 551 0
 496 005e 9861     		str	r0, [r3, #24]
 497              		.loc 1 555 0
 498 0060 9960     		str	r1, [r3, #8]
 499              		.loc 1 560 0
 500 0062 3AB1     		cbz	r2, .L82
 501              		.loc 1 564 0
 502 0064 3122     		movs	r2, #49
 503 0066 1A62     		str	r2, [r3, #32]
 504              	.LVL32:
 505              	.L77:
 506              		.loc 1 569 0
 507 0068 03F13402 		add	r2, r3, #52
 508              		.loc 1 570 0
 509 006c 3833     		adds	r3, r3, #56
 510 006e C4E90423 		strd	r2, r3, [r4, #16]
 511              		.loc 1 572 0
 512 0072 70BD     		pop	{r4, r5, r6, pc}
 513              	.LVL33:
ARM GAS  /tmp/ccf8fLh7.s 			page 10


 514              	.L82:
 515              		.loc 1 561 0
 516 0074 1322     		movs	r2, #19
 517 0076 1A62     		str	r2, [r3, #32]
 518              	.LVL34:
 519 0078 F6E7     		b	.L77
 520              	.LVL35:
 521              	.L81:
 522              		.loc 1 536 0
 523 007a 3122     		movs	r2, #49
 524 007c 1A62     		str	r2, [r3, #32]
 525              	.LVL36:
 526 007e E5E7     		b	.L74
 527              	.LVL37:
 528              	.L80:
 529              		.loc 1 466 0
 530 0080 164B     		ldr	r3, .L84
 531 0082 9842     		cmp	r0, r3
 532 0084 04D0     		beq	.L83
 533              		.loc 1 495 0
 534 0086 164B     		ldr	r3, .L84+4
 535 0088 9842     		cmp	r0, r3
 536 008a 14D0     		beq	.L71
 537              	.LVL38:
 538              	.L79:
 539 008c E368     		ldr	r3, [r4, #12]
 540 008e C2E7     		b	.L70
 541              	.LVL39:
 542              	.L83:
 543              		.loc 1 467 0
 544 0090 144B     		ldr	r3, .L84+8
 545 0092 1A6C     		ldr	r2, [r3, #64]
 546 0094 42F00402 		orr	r2, r2, #4
 547 0098 1A64     		str	r2, [r3, #64]
 548              		.loc 1 468 0
 549 009a 1A6A     		ldr	r2, [r3, #32]
 550 009c 0020     		movs	r0, #0
 551              	.LVL40:
 552 009e 42F00402 		orr	r2, r2, #4
 553 00a2 1A62     		str	r2, [r3, #32]
 554              		.loc 1 469 0
 555 00a4 0721     		movs	r1, #7
 556              		.loc 1 468 0
 557 00a6 1862     		str	r0, [r3, #32]
 558              		.loc 1 469 0
 559 00a8 1E20     		movs	r0, #30
 560 00aa FFF7FEFF 		bl	nvicEnableVector
 561              	.LVL41:
 562              		.loc 1 470 0
 563 00ae 0E4B     		ldr	r3, .L84+12
 564 00b0 A360     		str	r3, [r4, #8]
 565 00b2 E368     		ldr	r3, [r4, #12]
 566 00b4 AFE7     		b	.L70
 567              	.LVL42:
 568              	.L71:
 569              		.loc 1 496 0
 570 00b6 0B4B     		ldr	r3, .L84+8
ARM GAS  /tmp/ccf8fLh7.s 			page 11


 571 00b8 5A6C     		ldr	r2, [r3, #68]
 572 00ba 42F48032 		orr	r2, r2, #65536
 573 00be 5A64     		str	r2, [r3, #68]
 574              		.loc 1 497 0
 575 00c0 5A6A     		ldr	r2, [r3, #36]
 576 00c2 0020     		movs	r0, #0
 577              	.LVL43:
 578 00c4 42F48032 		orr	r2, r2, #65536
 579 00c8 5A62     		str	r2, [r3, #36]
 580              		.loc 1 498 0
 581 00ca 0721     		movs	r1, #7
 582              		.loc 1 497 0
 583 00cc 5862     		str	r0, [r3, #36]
 584              		.loc 1 498 0
 585 00ce 1820     		movs	r0, #24
 586 00d0 FFF7FEFF 		bl	nvicEnableVector
 587              	.LVL44:
 588              		.loc 1 499 0
 589 00d4 054B     		ldr	r3, .L84+16
 590 00d6 A360     		str	r3, [r4, #8]
 591 00d8 D8E7     		b	.L79
 592              	.L85:
 593 00da 00BF     		.align	2
 594              	.L84:
 595 00dc 00000000 		.word	.LANCHOR0
 596 00e0 00000000 		.word	.LANCHOR1
 597 00e4 00380240 		.word	1073887232
 598 00e8 00BD0105 		.word	84000000
 599 00ec 007A030A 		.word	168000000
 600              		.cfi_endproc
 601              	.LFE261:
 602              		.size	icu_lld_start, .-icu_lld_start
 603              		.section	.text.icu_lld_stop,"ax",%progbits
 604              		.align	1
 605              		.p2align 4,,15
 606              		.global	icu_lld_stop
 607              		.syntax unified
 608              		.thumb
 609              		.thumb_func
 610              		.fpu fpv4-sp-d16
 611              		.type	icu_lld_stop, %function
 612              	icu_lld_stop:
 613              	.LFB262:
 614              		.loc 1 581 0
 615              		.cfi_startproc
 616              		@ args = 0, pretend = 0, frame = 0
 617              		@ frame_needed = 0, uses_anonymous_args = 0
 618              	.LVL45:
 619 0000 08B5     		push	{r3, lr}
 620              		.cfi_def_cfa_offset 8
 621              		.cfi_offset 3, -8
 622              		.cfi_offset 14, -4
 623              		.loc 1 583 0
 624 0002 0378     		ldrb	r3, [r0]	@ zero_extendqisi2
 625 0004 022B     		cmp	r3, #2
 626 0006 00D0     		beq	.L92
 627              	.L86:
ARM GAS  /tmp/ccf8fLh7.s 			page 12


 628              		.loc 1 634 0
 629 0008 08BD     		pop	{r3, pc}
 630              	.L92:
 631              		.loc 1 609 0
 632 000a 0E49     		ldr	r1, .L94
 633              		.loc 1 585 0
 634 000c C368     		ldr	r3, [r0, #12]
 635 000e 0022     		movs	r2, #0
 636              		.loc 1 609 0
 637 0010 8842     		cmp	r0, r1
 638              		.loc 1 585 0
 639 0012 1A60     		str	r2, [r3]
 640              		.loc 1 586 0
 641 0014 DA60     		str	r2, [r3, #12]
 642              		.loc 1 587 0
 643 0016 1A61     		str	r2, [r3, #16]
 644              		.loc 1 609 0
 645 0018 0BD0     		beq	.L93
 646              		.loc 1 628 0
 647 001a 0B4B     		ldr	r3, .L94+4
 648 001c 9842     		cmp	r0, r3
 649 001e F3D1     		bne	.L86
 650              		.loc 1 629 0
 651 0020 1820     		movs	r0, #24
 652              	.LVL46:
 653 0022 FFF7FEFF 		bl	nvicDisableVector
 654              	.LVL47:
 655              		.loc 1 630 0
 656 0026 094A     		ldr	r2, .L94+8
 657 0028 536C     		ldr	r3, [r2, #68]
 658 002a 23F48033 		bic	r3, r3, #65536
 659 002e 5364     		str	r3, [r2, #68]
 660              		.loc 1 634 0
 661 0030 08BD     		pop	{r3, pc}
 662              	.LVL48:
 663              	.L93:
 664              		.loc 1 610 0
 665 0032 1E20     		movs	r0, #30
 666              	.LVL49:
 667 0034 FFF7FEFF 		bl	nvicDisableVector
 668              	.LVL50:
 669              		.loc 1 611 0
 670 0038 044A     		ldr	r2, .L94+8
 671 003a 136C     		ldr	r3, [r2, #64]
 672 003c 23F00403 		bic	r3, r3, #4
 673 0040 1364     		str	r3, [r2, #64]
 674              		.loc 1 634 0
 675 0042 08BD     		pop	{r3, pc}
 676              	.L95:
 677              		.align	2
 678              	.L94:
 679 0044 00000000 		.word	.LANCHOR0
 680 0048 00000000 		.word	.LANCHOR1
 681 004c 00380240 		.word	1073887232
 682              		.cfi_endproc
 683              	.LFE262:
 684              		.size	icu_lld_stop, .-icu_lld_stop
ARM GAS  /tmp/ccf8fLh7.s 			page 13


 685              		.section	.text.icu_lld_start_capture,"ax",%progbits
 686              		.align	1
 687              		.p2align 4,,15
 688              		.global	icu_lld_start_capture
 689              		.syntax unified
 690              		.thumb
 691              		.thumb_func
 692              		.fpu fpv4-sp-d16
 693              		.type	icu_lld_start_capture, %function
 694              	icu_lld_start_capture:
 695              	.LFB263:
 696              		.loc 1 643 0
 697              		.cfi_startproc
 698              		@ args = 0, pretend = 0, frame = 0
 699              		@ frame_needed = 0, uses_anonymous_args = 0
 700              		@ link register save eliminated.
 701              	.LVL51:
 702              		.loc 1 646 0
 703 0000 C368     		ldr	r3, [r0, #12]
 704 0002 5A69     		ldr	r2, [r3, #20]
 705              		.loc 1 647 0
 706 0004 0020     		movs	r0, #0
 707              	.LVL52:
 708              		.loc 1 646 0
 709 0006 42F00102 		orr	r2, r2, #1
 710              		.loc 1 650 0
 711 000a 0521     		movs	r1, #5
 712              		.loc 1 646 0
 713 000c 5A61     		str	r2, [r3, #20]
 714              		.loc 1 647 0
 715 000e 1861     		str	r0, [r3, #16]
 716              		.loc 1 650 0
 717 0010 1960     		str	r1, [r3]
 718              		.loc 1 651 0
 719 0012 7047     		bx	lr
 720              		.cfi_endproc
 721              	.LFE263:
 722              		.size	icu_lld_start_capture, .-icu_lld_start_capture
 723              		.section	.text.icu_lld_wait_capture,"ax",%progbits
 724              		.align	1
 725              		.p2align 4,,15
 726              		.global	icu_lld_wait_capture
 727              		.syntax unified
 728              		.thumb
 729              		.thumb_func
 730              		.fpu fpv4-sp-d16
 731              		.type	icu_lld_wait_capture, %function
 732              	icu_lld_wait_capture:
 733              	.LFB264:
 734              		.loc 1 665 0
 735              		.cfi_startproc
 736              		@ args = 0, pretend = 0, frame = 0
 737              		@ frame_needed = 0, uses_anonymous_args = 0
 738              	.LVL53:
 739 0000 38B5     		push	{r3, r4, r5, lr}
 740              		.cfi_def_cfa_offset 16
 741              		.cfi_offset 3, -16
ARM GAS  /tmp/ccf8fLh7.s 			page 14


 742              		.cfi_offset 4, -12
 743              		.cfi_offset 5, -8
 744              		.cfi_offset 14, -4
 745              		.loc 1 669 0
 746 0002 0378     		ldrb	r3, [r0]	@ zero_extendqisi2
 747 0004 032B     		cmp	r3, #3
 748 0006 00F10405 		add	r5, r0, #4
 749 000a 00F10C04 		add	r4, r0, #12
 750 000e 05D0     		beq	.L98
 751              	.LVL54:
 752              	.L99:
 753              		.loc 1 674 0
 754 0010 2146     		mov	r1, r4
 755 0012 2846     		mov	r0, r5
 756              		.loc 1 675 0
 757 0014 BDE83840 		pop	{r3, r4, r5, lr}
 758              		.cfi_remember_state
 759              		.cfi_restore 14
 760              		.cfi_restore 5
 761              		.cfi_restore 4
 762              		.cfi_restore 3
 763              		.cfi_def_cfa_offset 0
 764              	.LVL55:
 765              		.loc 1 674 0
 766 0018 FFF7FEBF 		b	icu_lld_wait_edge.isra.0
 767              	.LVL56:
 768              	.L98:
 769              		.cfi_restore_state
 770              		.loc 1 670 0
 771 001c 2146     		mov	r1, r4
 772 001e 2846     		mov	r0, r5
 773              	.LVL57:
 774 0020 FFF7FEFF 		bl	icu_lld_wait_edge.isra.0
 775              	.LVL58:
 776 0024 0028     		cmp	r0, #0
 777 0026 F3D0     		beq	.L99
 778              	.LVL59:
 779              		.loc 1 675 0
 780 0028 38BD     		pop	{r3, r4, r5, pc}
 781              		.cfi_endproc
 782              	.LFE264:
 783              		.size	icu_lld_wait_capture, .-icu_lld_wait_capture
 784 002a 00BF     		.section	.text.icu_lld_stop_capture,"ax",%progbits
 785              		.align	1
 786              		.p2align 4,,15
 787              		.global	icu_lld_stop_capture
 788              		.syntax unified
 789              		.thumb
 790              		.thumb_func
 791              		.fpu fpv4-sp-d16
 792              		.type	icu_lld_stop_capture, %function
 793              	icu_lld_stop_capture:
 794              	.LFB265:
 795              		.loc 1 684 0
 796              		.cfi_startproc
 797              		@ args = 0, pretend = 0, frame = 0
 798              		@ frame_needed = 0, uses_anonymous_args = 0
ARM GAS  /tmp/ccf8fLh7.s 			page 15


 799              		@ link register save eliminated.
 800              	.LVL60:
 801              		.loc 1 687 0
 802 0000 C368     		ldr	r3, [r0, #12]
 803 0002 0022     		movs	r2, #0
 804 0004 1A60     		str	r2, [r3]
 805              		.loc 1 690 0
 806 0006 DA68     		ldr	r2, [r3, #12]
 807 0008 22F0FF02 		bic	r2, r2, #255
 808 000c DA60     		str	r2, [r3, #12]
 809              		.loc 1 691 0
 810 000e 7047     		bx	lr
 811              		.cfi_endproc
 812              	.LFE265:
 813              		.size	icu_lld_stop_capture, .-icu_lld_stop_capture
 814              		.section	.text.icu_lld_enable_notifications,"ax",%progbits
 815              		.align	1
 816              		.p2align 4,,15
 817              		.global	icu_lld_enable_notifications
 818              		.syntax unified
 819              		.thumb
 820              		.thumb_func
 821              		.fpu fpv4-sp-d16
 822              		.type	icu_lld_enable_notifications, %function
 823              	icu_lld_enable_notifications:
 824              	.LFB266:
 825              		.loc 1 702 0
 826              		.cfi_startproc
 827              		@ args = 0, pretend = 0, frame = 0
 828              		@ frame_needed = 0, uses_anonymous_args = 0
 829              		@ link register save eliminated.
 830              	.LVL61:
 831              		.loc 1 703 0
 832 0000 C268     		ldr	r2, [r0, #12]
 833 0002 D368     		ldr	r3, [r2, #12]
 834              	.LVL62:
 835              		.loc 1 702 0
 836 0004 10B4     		push	{r4}
 837              		.cfi_def_cfa_offset 4
 838              		.cfi_offset 4, -4
 839              		.loc 1 708 0
 840 0006 13F0FF04 		ands	r4, r3, #255
 841 000a 0CD1     		bne	.L105
 842              		.loc 1 712 0
 843 000c 4168     		ldr	r1, [r0, #4]
 844              		.loc 1 710 0
 845 000e 1461     		str	r4, [r2, #16]
 846              		.loc 1 712 0
 847 0010 0C7D     		ldrb	r4, [r1, #20]	@ zero_extendqisi2
 848 0012 8868     		ldr	r0, [r1, #8]
 849              	.LVL63:
 850 0014 54B9     		cbnz	r4, .L107
 851              	.LVL64:
 852              		.loc 1 717 0
 853 0016 70B1     		cbz	r0, .L116
 854              	.LVL65:
 855              	.L110:
ARM GAS  /tmp/ccf8fLh7.s 			page 16


 856              		.loc 1 726 0
 857 0018 43F00603 		orr	r3, r3, #6
 858              	.LVL66:
 859              	.L109:
 860              		.loc 1 731 0
 861 001c 0969     		ldr	r1, [r1, #16]
 862 001e 09B1     		cbz	r1, .L111
 863              		.loc 1 732 0
 864 0020 43F00103 		orr	r3, r3, #1
 865              	.LVL67:
 866              	.L111:
 867              		.loc 1 735 0
 868 0024 D360     		str	r3, [r2, #12]
 869              	.L105:
 870              		.loc 1 737 0
 871 0026 5DF8044B 		ldr	r4, [sp], #4
 872              		.cfi_remember_state
 873              		.cfi_restore 4
 874              		.cfi_def_cfa_offset 0
 875 002a 7047     		bx	lr
 876              	.L107:
 877              		.cfi_restore_state
 878              	.LVL68:
 879              		.loc 1 725 0
 880 002c 0028     		cmp	r0, #0
 881 002e F3D1     		bne	.L110
 882              		.loc 1 722 0
 883 0030 43F00403 		orr	r3, r3, #4
 884              	.LVL69:
 885 0034 F2E7     		b	.L109
 886              	.LVL70:
 887              	.L116:
 888              		.loc 1 714 0
 889 0036 43F00203 		orr	r3, r3, #2
 890              	.LVL71:
 891 003a EFE7     		b	.L109
 892              		.cfi_endproc
 893              	.LFE266:
 894              		.size	icu_lld_enable_notifications, .-icu_lld_enable_notifications
 895              		.section	.text.icu_lld_disable_notifications,"ax",%progbits
 896              		.align	1
 897              		.p2align 4,,15
 898              		.global	icu_lld_disable_notifications
 899              		.syntax unified
 900              		.thumb
 901              		.thumb_func
 902              		.fpu fpv4-sp-d16
 903              		.type	icu_lld_disable_notifications, %function
 904              	icu_lld_disable_notifications:
 905              	.LFB267:
 906              		.loc 1 748 0
 907              		.cfi_startproc
 908              		@ args = 0, pretend = 0, frame = 0
 909              		@ frame_needed = 0, uses_anonymous_args = 0
 910              		@ link register save eliminated.
 911              	.LVL72:
 912              		.loc 1 751 0
ARM GAS  /tmp/ccf8fLh7.s 			page 17


 913 0000 C268     		ldr	r2, [r0, #12]
 914 0002 D368     		ldr	r3, [r2, #12]
 915 0004 23F0FF03 		bic	r3, r3, #255
 916 0008 D360     		str	r3, [r2, #12]
 917              		.loc 1 752 0
 918 000a 7047     		bx	lr
 919              		.cfi_endproc
 920              	.LFE267:
 921              		.size	icu_lld_disable_notifications, .-icu_lld_disable_notifications
 922              		.global	ICUD9
 923              		.global	ICUD4
 924              		.section	.bss.ICUD4,"aw",%nobits
 925              		.align	2
 926              		.set	.LANCHOR0,. + 0
 927              		.type	ICUD4, %object
 928              		.size	ICUD4, 24
 929              	ICUD4:
 930 0000 00000000 		.space	24
 930      00000000 
 930      00000000 
 930      00000000 
 930      00000000 
 931              		.section	.bss.ICUD9,"aw",%nobits
 932              		.align	2
 933              		.set	.LANCHOR1,. + 0
 934              		.type	ICUD9, %object
 935              		.size	ICUD9, 24
 936              	ICUD9:
 937 0000 00000000 		.space	24
 937      00000000 
 937      00000000 
 937      00000000 
 937      00000000 
 938              		.text
 939              	.Letext0:
 940              		.file 3 "/usr/lib/gcc/arm-none-eabi/7.3.1/include/stddef.h"
 941              		.file 4 "/usr/arm-none-eabi/include/machine/_default_types.h"
 942              		.file 5 "/usr/arm-none-eabi/include/sys/_stdint.h"
 943              		.file 6 "ChibiOS_3.0.5/os/rt/ports/ARMCMx/compilers/GCC/chtypes.h"
 944              		.file 7 "ChibiOS_3.0.5/os/rt/include/chsystypes.h"
 945              		.file 8 "ChibiOS_3.0.5/os/rt/include/chschd.h"
 946              		.file 9 "ChibiOS_3.0.5/os/ext/CMSIS/include/core_cm4.h"
 947              		.file 10 "ChibiOS_3.0.5/os/ext/CMSIS/ST/system_stm32f4xx.h"
 948              		.file 11 "ChibiOS_3.0.5/os/ext/CMSIS/ST/stm32f407xx.h"
 949              		.file 12 "ChibiOS_3.0.5/os/rt/ports/ARMCMx/chcore.h"
 950              		.file 13 "ChibiOS_3.0.5/os/rt/ports/ARMCMx/chcore_v7m.h"
 951              		.file 14 "ChibiOS_3.0.5/os/rt/include/chtm.h"
 952              		.file 15 "ChibiOS_3.0.5/os/rt/include/chsem.h"
 953              		.file 16 "ChibiOS_3.0.5/os/rt/include/chmtx.h"
 954              		.file 17 "ChibiOS_3.0.5/os/rt/include/chregistry.h"
 955              		.file 18 "ChibiOS_3.0.5/os/rt/include/chevents.h"
 956              		.file 19 "ChibiOS_3.0.5/os/rt/include/chqueues.h"
 957              		.file 20 "./datatypes.h"
 958              		.file 21 "./conf_general.h"
 959              		.file 22 "ChibiOS_3.0.5/os/hal/ports/STM32/STM32F4xx/stm32_dma.h"
 960              		.file 23 "ChibiOS_3.0.5/os/hal/ports/STM32/LLD/GPIOv2/pal_lld.h"
 961              		.file 24 "ChibiOS_3.0.5/os/hal/include/can.h"
ARM GAS  /tmp/ccf8fLh7.s 			page 18


 962              		.file 25 "ChibiOS_3.0.5/os/hal/ports/STM32/LLD/can_lld.h"
 963              		.file 26 "ChibiOS_3.0.5/os/hal/include/i2c.h"
 964              		.file 27 "ChibiOS_3.0.5/os/hal/ports/STM32/LLD/I2Cv1/i2c_lld.h"
 965              		.file 28 "ChibiOS_3.0.5/os/hal/include/icu.h"
 966              		.file 29 "ChibiOS_3.0.5/os/hal/ports/STM32/LLD/TIMv1/icu_lld.h"
 967              		.file 30 "ChibiOS_3.0.5/os/hal/ports/STM32/LLD/TIMv1/stm32_tim.h"
 968              		.file 31 "ChibiOS_3.0.5/os/hal/include/serial.h"
 969              		.file 32 "ChibiOS_3.0.5/os/hal/ports/STM32/LLD/USARTv1/serial_lld.h"
 970              		.file 33 "ChibiOS_3.0.5/os/hal/include/spi.h"
 971              		.file 34 "ChibiOS_3.0.5/os/hal/ports/STM32/LLD/SPIv1/spi_lld.h"
 972              		.file 35 "ChibiOS_3.0.5/os/hal/include/usb.h"
 973              		.file 36 "ChibiOS_3.0.5/os/hal/ports/STM32/LLD/OTGv1/usb_lld.h"
 974              		.file 37 "ChibiOS_3.0.5/os/hal/ports/STM32/LLD/OTGv1/stm32_otg.h"
 975              		.file 38 "ChibiOS_3.0.5/os/hal/osal/rt/osal.h"
 976              		.file 39 "ChibiOS_3.0.5/os/rt/include/chsys.h"
 977              		.file 40 "ChibiOS_3.0.5/os/hal/ports/common/ARMCMx/nvic.h"