ARM GAS  /tmp/ccXmAE9k.s 			page 1


   1              		.cpu cortex-m4
   2              		.eabi_attribute 27, 1
   3              		.eabi_attribute 28, 1
   4              		.eabi_attribute 20, 1
   5              		.eabi_attribute 21, 1
   6              		.eabi_attribute 23, 3
   7              		.eabi_attribute 24, 1
   8              		.eabi_attribute 25, 1
   9              		.eabi_attribute 26, 1
  10              		.eabi_attribute 30, 2
  11              		.eabi_attribute 34, 1
  12              		.eabi_attribute 18, 4
  13              		.file	"imu.c"
  14              		.text
  15              	.Ltext0:
  16              		.cfi_sections	.debug_frame
  17              		.section	.text.imu_read_callback,"ax",%progbits
  18              		.align	1
  19              		.p2align 4,,15
  20              		.syntax unified
  21              		.thumb
  22              		.thumb_func
  23              		.fpu fpv4-sp-d16
  24              		.type	imu_read_callback, %function
  25              	imu_read_callback:
  26              	.LFB300:
  27              		.file 1 "imu/imu.c"
  28              		.loc 1 407 0
  29              		.cfi_startproc
  30              		@ args = 0, pretend = 0, frame = 40
  31              		@ frame_needed = 0, uses_anonymous_args = 0
  32              	.LVL0:
  33 0000 2DE9F041 		push	{r4, r5, r6, r7, r8, lr}
  34              		.cfi_def_cfa_offset 24
  35              		.cfi_offset 4, -24
  36              		.cfi_offset 5, -20
  37              		.cfi_offset 6, -16
  38              		.cfi_offset 7, -12
  39              		.cfi_offset 8, -8
  40              		.cfi_offset 14, -4
  41 0004 2DED088B 		vpush.64	{d8, d9, d10, d11}
  42              		.cfi_def_cfa_offset 56
  43              		.cfi_offset 80, -56
  44              		.cfi_offset 81, -52
  45              		.cfi_offset 82, -48
  46              		.cfi_offset 83, -44
  47              		.cfi_offset 84, -40
  48              		.cfi_offset 85, -36
  49              		.cfi_offset 86, -32
  50              		.cfi_offset 87, -28
  51 0008 0446     		mov	r4, r0
  52 000a 8AB0     		sub	sp, sp, #40
  53              		.cfi_def_cfa_offset 96
  54              		.loc 1 407 0
  55 000c 8846     		mov	r8, r1
  56 000e 1546     		mov	r5, r2
  57              	.LBB41:
ARM GAS  /tmp/ccXmAE9k.s 			page 2


  58              	.LBB42:
  59              	.LBB43:
  60              	.LBB44:
  61              		.file 2 "ChibiOS_3.0.5/os/ext/CMSIS/include/core_cmFunc.h"
  62              		.loc 2 342 0
  63              		.syntax unified
  64              	@ 342 "ChibiOS_3.0.5/os/ext/CMSIS/include/core_cmFunc.h" 1
  65 0010 72B6     		cpsid i
  66              	@ 0 "" 2
  67              		.thumb
  68              		.syntax unified
  69              	.LBE44:
  70              	.LBE43:
  71              	.LBE42:
  72              	.LBE41:
  73              		.loc 1 411 0
  74 0012 B04E     		ldr	r6, .L15
  75 0014 3068     		ldr	r0, [r6]
  76              	.LVL1:
  77 0016 FFF7FEFF 		bl	timer_seconds_elapsed_since
  78              	.LVL2:
  79 001a B0EE408A 		vmov.f32	s16, s0
  80              	.LVL3:
  81              		.loc 1 412 0
  82 001e FFF7FEFF 		bl	timer_time_now
  83              	.LVL4:
  84 0022 3060     		str	r0, [r6]
  85              	.LBB45:
  86              	.LBB46:
  87              	.LBB47:
  88              	.LBB48:
  89              	.LBB49:
  90              		.loc 2 331 0
  91              		.syntax unified
  92              	@ 331 "ChibiOS_3.0.5/os/ext/CMSIS/include/core_cmFunc.h" 1
  93 0024 62B6     		cpsie i
  94              	@ 0 "" 2
  95              		.thumb
  96              		.syntax unified
  97              	.LBE49:
  98              	.LBE48:
  99              	.LBE47:
 100              	.LBE46:
 101              	.LBE45:
 102              		.loc 1 415 0
 103 0026 AC4F     		ldr	r7, .L15+4
 104 0028 3B78     		ldrb	r3, [r7]	@ zero_extendqisi2
 105 002a 002B     		cmp	r3, #0
 106 002c 00F01381 		beq	.L11
 107 0030 AA4E     		ldr	r6, .L15+8
 108              	.L2:
 109              		.loc 1 448 0
 110 0032 DFEDABBA 		vldr.32	s23, .L15+12
 111 0036 D6ED088A 		vldr.32	s17, [r6, #32]
 112              		.loc 1 463 0
 113 003a AA4F     		ldr	r7, .L15+16
 114              		.loc 1 448 0
ARM GAS  /tmp/ccXmAE9k.s 			page 3


 115 003c 68EEAB8A 		vmul.f32	s17, s17, s23
 116 0040 B0EE680A 		vmov.f32	s0, s17
 117 0044 FFF7FEFF 		bl	sinf
 118              	.LVL5:
 119 0048 F0EE40AA 		vmov.f32	s21, s0
 120              	.LVL6:
 121              		.loc 1 449 0
 122 004c B0EE680A 		vmov.f32	s0, s17
 123              	.LVL7:
 124 0050 FFF7FEFF 		bl	cosf
 125              	.LVL8:
 126              		.loc 1 450 0
 127 0054 D6ED079A 		vldr.32	s19, [r6, #28]
 128 0058 69EEAB9A 		vmul.f32	s19, s19, s23
 129              		.loc 1 449 0
 130 005c F0EE408A 		vmov.f32	s17, s0
 131              	.LVL9:
 132              		.loc 1 450 0
 133 0060 B0EE690A 		vmov.f32	s0, s19
 134              	.LVL10:
 135 0064 FFF7FEFF 		bl	sinf
 136              	.LVL11:
 137 0068 B0EE409A 		vmov.f32	s18, s0
 138              	.LVL12:
 139              		.loc 1 451 0
 140 006c B0EE690A 		vmov.f32	s0, s19
 141              	.LVL13:
 142 0070 FFF7FEFF 		bl	cosf
 143              	.LVL14:
 144              		.loc 1 452 0
 145 0074 96ED06BA 		vldr.32	s22, [r6, #24]
 146 0078 2BEE2BBA 		vmul.f32	s22, s22, s23
 147              		.loc 1 451 0
 148 007c B0EE40AA 		vmov.f32	s20, s0
 149              	.LVL15:
 150              		.loc 1 452 0
 151 0080 B0EE4B0A 		vmov.f32	s0, s22
 152              	.LVL16:
 153 0084 FFF7FEFF 		bl	sinf
 154              	.LVL17:
 155 0088 F0EE409A 		vmov.f32	s19, s0
 156              	.LVL18:
 157              		.loc 1 453 0
 158 008c B0EE4B0A 		vmov.f32	s0, s22
 159              	.LVL19:
 160 0090 FFF7FEFF 		bl	cosf
 161              	.LVL20:
 162              		.loc 1 455 0
 163 0094 6AEE807A 		vmul.f32	s15, s21, s0
 164 0098 28EE897A 		vmul.f32	s14, s17, s18
 165 009c F0EE674A 		vmov.f32	s9, s15
 166 00a0 D7EE294A 		vfnms.f32	s9, s14, s19
 167              		.loc 1 459 0
 168 00a4 DFF85CC2 		ldr	ip, .L15+48
 169              		.loc 1 467 0
 170 00a8 8F49     		ldr	r1, .L15+20
 171              		.loc 1 459 0
ARM GAS  /tmp/ccXmAE9k.s 			page 4


 172 00aa D4ED016A 		vldr.32	s13, [r4, #4]
 173 00ae 94ED006A 		vldr.32	s12, [r4]
 174 00b2 94ED025A 		vldr.32	s10, [r4, #8]
 175 00b6 8D48     		ldr	r0, .L15+24
 176              		.loc 1 455 0
 177 00b8 68EE805A 		vmul.f32	s11, s17, s0
 178 00bc 28EE8A3A 		vmul.f32	s6, s17, s20
 179              	.LVL21:
 180 00c0 65EE893A 		vmul.f32	s7, s11, s18
 181              		.loc 1 459 0
 182 00c4 26EEA47A 		vmul.f32	s14, s13, s9
 183              		.loc 1 455 0
 184 00c8 EAEEA93A 		vfma.f32	s7, s21, s19
 185              	.LVL22:
 186 00cc E646     		mov	lr, ip
 187 00ce 6346     		mov	r3, ip
 188              		.loc 1 459 0
 189 00d0 A6EE037A 		vfma.f32	s14, s12, s6
 190 00d4 3A46     		mov	r2, r7
 191 00d6 0CF10C0C 		add	ip, ip, #12
 192              		.loc 1 456 0
 193 00da 2AEE894A 		vmul.f32	s8, s21, s18
 194              		.loc 1 459 0
 195 00de A5EE237A 		vfma.f32	s14, s10, s7
 196              		.loc 1 456 0
 197 00e2 E4EE295A 		vfma.f32	s11, s8, s19
 198              		.loc 1 459 0
 199 00e6 0CED037A 		vstr.32	s14, [ip, #-12]
 200              		.loc 1 456 0
 201 00ea 2AEE8A4A 		vmul.f32	s8, s21, s20
 202              	.LVL23:
 203              		.loc 1 460 0
 204 00ee 66EEA56A 		vmul.f32	s13, s13, s11
 205              		.loc 1 459 0
 206 00f2 B0EE476A 		vmov.f32	s12, s14
 207              		.loc 1 456 0
 208 00f6 69EEE88A 		vnmul.f32	s17, s19, s17
 209              	.LVL24:
 210              		.loc 1 460 0
 211 00fa 94ED007A 		vldr.32	s14, [r4]
 212              		.loc 1 456 0
 213 00fe E7EE898A 		vfma.f32	s17, s15, s18
 214              	.LVL25:
 215              		.loc 1 460 0
 216 0102 E7EE046A 		vfma.f32	s13, s14, s8
 217              		.loc 1 457 0
 218 0106 6AEE297A 		vmul.f32	s15, s20, s19
 219              		.loc 1 460 0
 220 010a E5EE286A 		vfma.f32	s13, s10, s17
 221              		.loc 1 457 0
 222 010e B1EE499A 		vneg.f32	s18, s18
 223              	.LVL26:
 224              		.loc 1 460 0
 225 0112 4CED026A 		vstr.32	s13, [ip, #-8]
 226              		.loc 1 461 0
 227 0116 D4ED016A 		vldr.32	s13, [r4, #4]
 228 011a 94ED007A 		vldr.32	s14, [r4]
ARM GAS  /tmp/ccXmAE9k.s 			page 5


 229 011e 67EEA66A 		vmul.f32	s13, s15, s13
 230              		.loc 1 457 0
 231 0122 2AEE00AA 		vmul.f32	s20, s20, s0
 232              	.LVL27:
 233              		.loc 1 461 0
 234 0126 E7EE096A 		vfma.f32	s13, s14, s18
 235 012a 3C46     		mov	r4, r7
 236              	.LVL28:
 237              		.loc 1 456 0
 238 012c F0EE652A 		vmov.f32	s5, s11
 239              		.loc 1 461 0
 240 0130 E5EE0A6A 		vfma.f32	s13, s10, s20
 241 0134 4CED016A 		vstr.32	s13, [ip, #-4]
 242              		.loc 1 463 0
 243 0138 98ED015A 		vldr.32	s10, [r8, #4]
 244 013c D8ED005A 		vldr.32	s11, [r8]
 245              	.LVL29:
 246 0140 98ED027A 		vldr.32	s14, [r8, #8]
 247 0144 65EE246A 		vmul.f32	s13, s10, s9
 248              		.loc 1 464 0
 249 0148 25EE225A 		vmul.f32	s10, s10, s5
 250              		.loc 1 463 0
 251 014c E5EE836A 		vfma.f32	s13, s11, s6
 252 0150 E7EE236A 		vfma.f32	s13, s14, s7
 253 0154 C7ED006A 		vstr.32	s13, [r7]
 254              		.loc 1 464 0
 255 0158 D8ED005A 		vldr.32	s11, [r8]
 256 015c A5EE845A 		vfma.f32	s10, s11, s8
 257 0160 A7EE285A 		vfma.f32	s10, s14, s17
 258 0164 87ED015A 		vstr.32	s10, [r7, #4]
 259              		.loc 1 465 0
 260 0168 98ED015A 		vldr.32	s10, [r8, #4]
 261 016c D8ED005A 		vldr.32	s11, [r8]
 262 0170 27EE855A 		vmul.f32	s10, s15, s10
 263 0174 A5EE895A 		vfma.f32	s10, s11, s18
 264 0178 A7EE0A5A 		vfma.f32	s10, s14, s20
 265 017c 87ED025A 		vstr.32	s10, [r7, #8]
 266              		.loc 1 467 0
 267 0180 D5ED015A 		vldr.32	s11, [r5, #4]
 268 0184 95ED002A 		vldr.32	s4, [r5]
 269 0188 95ED025A 		vldr.32	s10, [r5, #8]
 270 018c 25EEA47A 		vmul.f32	s14, s11, s9
 271              		.loc 1 468 0
 272 0190 65EEA25A 		vmul.f32	s11, s11, s5
 273              		.loc 1 467 0
 274 0194 A2EE037A 		vfma.f32	s14, s4, s6
 275 0198 A5EE237A 		vfma.f32	s14, s10, s7
 276 019c 81ED007A 		vstr.32	s14, [r1]
 277              		.loc 1 468 0
 278 01a0 95ED007A 		vldr.32	s14, [r5]
 279 01a4 E7EE045A 		vfma.f32	s11, s14, s8
 280 01a8 E5EE285A 		vfma.f32	s11, s10, s17
 281 01ac C1ED015A 		vstr.32	s11, [r1, #4]
 282              		.loc 1 469 0
 283 01b0 D5ED015A 		vldr.32	s11, [r5, #4]
 284 01b4 95ED007A 		vldr.32	s14, [r5]
 285 01b8 67EEA57A 		vmul.f32	s15, s15, s11
ARM GAS  /tmp/ccXmAE9k.s 			page 6


 286              	.LVL30:
 287 01bc E7EE097A 		vfma.f32	s15, s14, s18
 288 01c0 E5EE0A7A 		vfma.f32	s15, s10, s20
 289 01c4 C1ED027A 		vstr.32	s15, [r1, #8]
 290              	.LVL31:
 291              	.L4:
 292              	.LBB50:
 293              		.loc 1 473 0 discriminator 3
 294 01c8 B0EC017A 		vldmia.32	r0!, {s14}
 295              		.loc 1 474 0 discriminator 3
 296 01cc D0ED027A 		vldr.32	s15, [r0, #8]
 297              		.loc 1 473 0 discriminator 3
 298 01d0 36EE477A 		vsub.f32	s14, s12, s14
 299              		.loc 1 474 0 discriminator 3
 300 01d4 76EEE77A 		vsub.f32	s15, s13, s15
 301              		.loc 1 473 0 discriminator 3
 302 01d8 A3EC017A 		vstmia.32	r3!, {s14}
 303              		.loc 1 472 0 discriminator 3
 304 01dc 9C45     		cmp	ip, r3
 305              		.loc 1 474 0 discriminator 3
 306 01de E4EC017A 		vstmia.32	r4!, {s15}
 307              		.loc 1 472 0 discriminator 3
 308 01e2 04D0     		beq	.L3
 309 01e4 93ED006A 		vldr.32	s12, [r3]
 310 01e8 D4ED006A 		vldr.32	s13, [r4]
 311 01ec ECE7     		b	.L4
 312              	.L3:
 313              	.LBE50:
 314              		.loc 1 478 0
 315 01ee DFED3C7A 		vldr.32	s15, .L15+12
 316 01f2 92ED000A 		vldr.32	s0, [r2]
 317              	.LVL32:
 318              		.loc 1 479 0
 319 01f6 D2ED010A 		vldr.32	s1, [r2, #4]
 320              		.loc 1 480 0
 321 01fa 92ED021A 		vldr.32	s2, [r2, #8]
 322              		.loc 1 482 0
 323 01fe 7378     		ldrb	r3, [r6, #1]	@ zero_extendqisi2
 324              		.loc 1 478 0
 325 0200 60EE276A 		vmul.f32	s13, s0, s15
 326              		.loc 1 479 0
 327 0204 20EEA77A 		vmul.f32	s14, s1, s15
 328              		.loc 1 480 0
 329 0208 61EE277A 		vmul.f32	s15, s2, s15
 330              		.loc 1 482 0
 331 020c 012B     		cmp	r3, #1
 332              		.loc 1 478 0
 333 020e CDED016A 		vstr.32	s13, [sp, #4]
 334              		.loc 1 479 0
 335 0212 8DED027A 		vstr.32	s14, [sp, #8]
 336              		.loc 1 480 0
 337 0216 CDED037A 		vstr.32	s15, [sp, #12]
 338              		.loc 1 482 0
 339 021a 4FD0     		beq	.L6
 340 021c 42D3     		bcc	.L7
 341 021e 022B     		cmp	r3, #2
 342 0220 14D1     		bne	.L1
ARM GAS  /tmp/ccXmAE9k.s 			page 7


 343              	.LBB51:
 344              		.loc 1 500 0
 345 0222 334C     		ldr	r4, .L15+28
 346 0224 DEED001A 		vldr.32	s3, [lr]
 347 0228 9EED012A 		vldr.32	s4, [lr, #4]
 348 022c DEED022A 		vldr.32	s5, [lr, #8]
 349              	.LVL33:
 350 0230 2046     		mov	r0, r4
 351 0232 B0EE483A 		vmov.f32	s6, s16
 352              	.LVL34:
 353 0236 FFF7FEFF 		bl	FusionAhrsUpdateWithoutMagnetometer
 354              	.LVL35:
 355              		.loc 1 501 0
 356 023a 2E4B     		ldr	r3, .L15+32
 357 023c 2569     		ldr	r5, [r4, #16]	@ float
 358              	.LVL36:
 359              		.loc 1 502 0
 360 023e 6069     		ldr	r0, [r4, #20]	@ float
 361              		.loc 1 503 0
 362 0240 A169     		ldr	r1, [r4, #24]	@ float
 363              		.loc 1 504 0
 364 0242 E269     		ldr	r2, [r4, #28]	@ float
 365              		.loc 1 501 0
 366 0244 1D60     		str	r5, [r3]	@ float
 367              		.loc 1 502 0
 368 0246 5860     		str	r0, [r3, #4]	@ float
 369              		.loc 1 503 0
 370 0248 9960     		str	r1, [r3, #8]	@ float
 371              		.loc 1 504 0
 372 024a DA60     		str	r2, [r3, #12]	@ float
 373              	.L1:
 374              	.LBE51:
 375              		.loc 1 507 0
 376 024c 0AB0     		add	sp, sp, #40
 377              		.cfi_remember_state
 378              		.cfi_def_cfa_offset 56
 379              		@ sp needed
 380 024e BDEC088B 		vldm	sp!, {d8-d11}
 381              		.cfi_restore 86
 382              		.cfi_restore 87
 383              		.cfi_restore 84
 384              		.cfi_restore 85
 385              		.cfi_restore 82
 386              		.cfi_restore 83
 387              		.cfi_restore 80
 388              		.cfi_restore 81
 389              		.cfi_def_cfa_offset 24
 390              	.LVL37:
 391 0252 BDE8F081 		pop	{r4, r5, r6, r7, r8, pc}
 392              	.LVL38:
 393              	.L11:
 394              		.cfi_restore_state
 395              		.loc 1 415 0
 396 0256 284A     		ldr	r2, .L15+36
 397              	.LBB52:
 398              	.LBB53:
 399              		.file 3 "ChibiOS_3.0.5/os/rt/include/chvt.h"
ARM GAS  /tmp/ccXmAE9k.s 			page 8


 400              		.loc 3 231 0
 401 0258 284B     		ldr	r3, .L15+40
 402              	.LBE53:
 403              	.LBE52:
 404              		.loc 1 415 0
 405 025a 1168     		ldr	r1, [r2]
 406              	.LBB55:
 407              	.LBB54:
 408              		.loc 3 231 0
 409 025c 9B6A     		ldr	r3, [r3, #40]
 410              	.LBE54:
 411              	.LBE55:
 412              		.loc 1 415 0
 413 025e 284A     		ldr	r2, .L15+44
 414              		.loc 1 416 0
 415 0260 1E4E     		ldr	r6, .L15+8
 416              		.loc 1 415 0
 417 0262 5B1A     		subs	r3, r3, r1
 418 0264 4FF47A70 		mov	r0, #1000
 419 0268 42F20F71 		movw	r1, #9999
 420 026c 00FB0313 		mla	r3, r0, r3, r1
 421 0270 9342     		cmp	r3, r2
 422 0272 7FF6DEAE 		bls	.L2
 423              		.loc 1 416 0
 424 0276 D6ED051A 		vldr.32	s3, [r6, #20]
 425 027a 96ED041A 		vldr.32	s2, [r6, #16]
 426 027e D6ED030A 		vldr.32	s1, [r6, #12]
 427 0282 96ED020A 		vldr.32	s0, [r6, #8]
 428 0286 FFF7FEFF 		bl	ahrs_update_all_parameters
 429              	.LVL39:
 430              		.loc 1 422 0
 431 028a 96ED050A 		vldr.32	s0, [r6, #20]
 432 028e 1848     		ldr	r0, .L15+28
 433 0290 FFF7FEFF 		bl	FusionAhrsSetGain
 434              	.LVL40:
 435              		.loc 1 423 0
 436 0294 96ED020A 		vldr.32	s0, [r6, #8]
 437 0298 1548     		ldr	r0, .L15+28
 438 029a FFF7FEFF 		bl	FusionAhrsSetAccConfDecay
 439              	.LVL41:
 440              		.loc 1 425 0
 441 029e 0123     		movs	r3, #1
 442 02a0 3B70     		strb	r3, [r7]
 443 02a2 C6E6     		b	.L2
 444              	.LVL42:
 445              	.L7:
 446              		.loc 1 484 0
 447 02a4 B0EE480A 		vmov.f32	s0, s16
 448 02a8 124A     		ldr	r2, .L15+32
 449 02aa 1649     		ldr	r1, .L15+48
 450 02ac 01A8     		add	r0, sp, #4
 451 02ae FFF7FEFF 		bl	ahrs_update_madgwick_imu
 452              	.LVL43:
 453              		.loc 1 507 0
 454 02b2 0AB0     		add	sp, sp, #40
 455              		.cfi_remember_state
 456              		.cfi_def_cfa_offset 56
ARM GAS  /tmp/ccXmAE9k.s 			page 9


 457              		@ sp needed
 458 02b4 BDEC088B 		vldm	sp!, {d8-d11}
 459              		.cfi_restore 86
 460              		.cfi_restore 87
 461              		.cfi_restore 84
 462              		.cfi_restore 85
 463              		.cfi_restore 82
 464              		.cfi_restore 83
 465              		.cfi_restore 80
 466              		.cfi_restore 81
 467              		.cfi_def_cfa_offset 24
 468              	.LVL44:
 469 02b8 BDE8F081 		pop	{r4, r5, r6, r7, r8, pc}
 470              	.LVL45:
 471              	.L6:
 472              		.cfi_restore_state
 473              		.loc 1 487 0
 474 02bc B0EE480A 		vmov.f32	s0, s16
 475 02c0 0C4A     		ldr	r2, .L15+32
 476 02c2 1049     		ldr	r1, .L15+48
 477 02c4 01A8     		add	r0, sp, #4
 478 02c6 FFF7FEFF 		bl	ahrs_update_mahony_imu
 479              	.LVL46:
 480              		.loc 1 507 0
 481 02ca 0AB0     		add	sp, sp, #40
 482              		.cfi_def_cfa_offset 56
 483              		@ sp needed
 484 02cc BDEC088B 		vldm	sp!, {d8-d11}
 485              		.cfi_restore 86
 486              		.cfi_restore 87
 487              		.cfi_restore 84
 488              		.cfi_restore 85
 489              		.cfi_restore 82
 490              		.cfi_restore 83
 491              		.cfi_restore 80
 492              		.cfi_restore 81
 493              		.cfi_def_cfa_offset 24
 494              	.LVL47:
 495 02d0 BDE8F081 		pop	{r4, r5, r6, r7, r8, pc}
 496              	.LVL48:
 497              	.L16:
 498              		.align	2
 499              	.L15:
 500 02d4 00000000 		.word	.LANCHOR0
 501 02d8 00000000 		.word	.LANCHOR1
 502 02dc 00000000 		.word	.LANCHOR3
 503 02e0 35FA8E3C 		.word	1016003125
 504 02e4 00000000 		.word	.LANCHOR6
 505 02e8 00000000 		.word	.LANCHOR7
 506 02ec 24000000 		.word	.LANCHOR3+36
 507 02f0 00000000 		.word	.LANCHOR4
 508 02f4 00000000 		.word	.LANCHOR8
 509 02f8 00000000 		.word	.LANCHOR2
 510 02fc 00000000 		.word	ch
 511 0300 8FBD9800 		.word	10009999
 512 0304 00000000 		.word	.LANCHOR5
 513              		.cfi_endproc
ARM GAS  /tmp/ccXmAE9k.s 			page 10


 514              	.LFE300:
 515              		.size	imu_read_callback, .-imu_read_callback
 516              		.section	.text.user_i2c_read,"ax",%progbits
 517              		.align	1
 518              		.p2align 4,,15
 519              		.syntax unified
 520              		.thumb
 521              		.thumb_func
 522              		.fpu fpv4-sp-d16
 523              		.type	user_i2c_read, %function
 524              	user_i2c_read:
 525              	.LFB302:
 526              		.loc 1 527 0
 527              		.cfi_startproc
 528              		@ args = 0, pretend = 0, frame = 8
 529              		@ frame_needed = 0, uses_anonymous_args = 0
 530              	.LVL49:
 531 0000 30B5     		push	{r4, r5, lr}
 532              		.cfi_def_cfa_offset 12
 533              		.cfi_offset 4, -12
 534              		.cfi_offset 5, -8
 535              		.cfi_offset 14, -4
 536 0002 85B0     		sub	sp, sp, #20
 537              		.cfi_def_cfa_offset 32
 538              		.loc 1 531 0
 539 0004 04AC     		add	r4, sp, #16
 540              		.loc 1 528 0
 541 0006 0A4D     		ldr	r5, .L21
 542              		.loc 1 531 0
 543 0008 04F8041D 		strb	r1, [r4, #-4]!
 544              		.loc 1 532 0
 545 000c CDE90023 		strd	r2, r3, [sp]
 546 0010 0146     		mov	r1, r0
 547              	.LVL50:
 548 0012 2246     		mov	r2, r4
 549              	.LVL51:
 550 0014 2846     		mov	r0, r5
 551              	.LVL52:
 552              		.loc 1 528 0
 553 0016 0024     		movs	r4, #0
 554              	.LVL53:
 555              		.loc 1 532 0
 556 0018 0123     		movs	r3, #1
 557              	.LVL54:
 558              		.loc 1 528 0
 559 001a 6C74     		strb	r4, [r5, #17]
 560              		.loc 1 532 0
 561 001c FFF7FEFF 		bl	i2c_bb_tx_rx
 562              	.LVL55:
 563 0020 A042     		cmp	r0, r4
 564              		.loc 1 533 0
 565 0022 0CBF     		ite	eq
 566 0024 6FF00100 		mvneq	r0, #1
 567 0028 2046     		movne	r0, r4
 568 002a 05B0     		add	sp, sp, #20
 569              		.cfi_def_cfa_offset 12
 570              		@ sp needed
ARM GAS  /tmp/ccXmAE9k.s 			page 11


 571 002c 30BD     		pop	{r4, r5, pc}
 572              	.L22:
 573 002e 00BF     		.align	2
 574              	.L21:
 575 0030 00000000 		.word	.LANCHOR9
 576              		.cfi_endproc
 577              	.LFE302:
 578              		.size	user_i2c_read, .-user_i2c_read
 579              		.section	.text.user_i2c_write,"ax",%progbits
 580              		.align	1
 581              		.p2align 4,,15
 582              		.syntax unified
 583              		.thumb
 584              		.thumb_func
 585              		.fpu fpv4-sp-d16
 586              		.type	user_i2c_write, %function
 587              	user_i2c_write:
 588              	.LFB303:
 589              		.loc 1 535 0
 590              		.cfi_startproc
 591              		@ args = 0, pretend = 0, frame = 0
 592              		@ frame_needed = 1, uses_anonymous_args = 0
 593              	.LVL56:
 594 0000 2DE9F043 		push	{r4, r5, r6, r7, r8, r9, lr}
 595              		.cfi_def_cfa_offset 28
 596              		.cfi_offset 4, -28
 597              		.cfi_offset 5, -24
 598              		.cfi_offset 6, -20
 599              		.cfi_offset 7, -16
 600              		.cfi_offset 8, -12
 601              		.cfi_offset 9, -8
 602              		.cfi_offset 14, -4
 603              		.loc 1 538 0
 604 0004 03F10804 		add	r4, r3, #8
 605              		.loc 1 535 0
 606 0008 83B0     		sub	sp, sp, #12
 607              		.cfi_def_cfa_offset 40
 608              		.loc 1 538 0
 609 000a 6D46     		mov	r5, sp
 610 000c E408     		lsrs	r4, r4, #3
 611 000e A5EBC404 		sub	r4, r5, r4, lsl #3
 612              		.loc 1 535 0
 613 0012 02AF     		add	r7, sp, #8
 614              		.cfi_def_cfa 7, 32
 615              		.loc 1 538 0
 616 0014 A546     		mov	sp, r4
 617              		.loc 1 536 0
 618 0016 104D     		ldr	r5, .L27
 619              		.loc 1 539 0
 620 0018 8DF80810 		strb	r1, [sp, #8]
 621              		.loc 1 536 0
 622 001c 0024     		movs	r4, #0
 623              		.loc 1 535 0
 624 001e 8046     		mov	r8, r0
 625              		.loc 1 540 0
 626 0020 1146     		mov	r1, r2
 627              	.LVL57:
ARM GAS  /tmp/ccXmAE9k.s 			page 12


 628              		.loc 1 538 0
 629 0022 03F10109 		add	r9, r3, #1
 630              		.loc 1 540 0
 631 0026 1A46     		mov	r2, r3
 632              	.LVL58:
 633 0028 0DF10900 		add	r0, sp, #9
 634              	.LVL59:
 635              		.loc 1 538 0
 636 002c 02AE     		add	r6, sp, #8
 637              	.LVL60:
 638              		.loc 1 536 0
 639 002e 6C74     		strb	r4, [r5, #17]
 640              	.LVL61:
 641              		.loc 1 540 0
 642 0030 FFF7FEFF 		bl	memcpy
 643              	.LVL62:
 644              		.loc 1 541 0
 645 0034 CDE90044 		strd	r4, r4, [sp]
 646 0038 4B46     		mov	r3, r9
 647 003a 4146     		mov	r1, r8
 648 003c 2846     		mov	r0, r5
 649 003e 3246     		mov	r2, r6
 650 0040 FFF7FEFF 		bl	i2c_bb_tx_rx
 651              	.LVL63:
 652 0044 A042     		cmp	r0, r4
 653              		.loc 1 542 0
 654 0046 0CBF     		ite	eq
 655 0048 6FF00100 		mvneq	r0, #1
 656 004c 2046     		movne	r0, r4
 657 004e 0437     		adds	r7, r7, #4
 658              		.cfi_def_cfa_offset 28
 659 0050 BD46     		mov	sp, r7
 660              		.cfi_def_cfa_register 13
 661              		@ sp needed
 662 0052 BDE8F083 		pop	{r4, r5, r6, r7, r8, r9, pc}
 663              	.LVL64:
 664              	.L28:
 665 0056 00BF     		.align	2
 666              	.L27:
 667 0058 00000000 		.word	.LANCHOR9
 668              		.cfi_endproc
 669              	.LFE303:
 670              		.size	user_i2c_write, .-user_i2c_write
 671              		.section	.text.user_spi_write,"ax",%progbits
 672              		.align	1
 673              		.p2align 4,,15
 674              		.syntax unified
 675              		.thumb
 676              		.thumb_func
 677              		.fpu fpv4-sp-d16
 678              		.type	user_spi_write, %function
 679              	user_spi_write:
 680              	.LFB305:
 681              		.loc 1 565 0
 682              		.cfi_startproc
 683              		@ args = 0, pretend = 0, frame = 0
 684              		@ frame_needed = 0, uses_anonymous_args = 0
ARM GAS  /tmp/ccXmAE9k.s 			page 13


 685              	.LVL65:
 686 0000 70B5     		push	{r4, r5, r6, lr}
 687              		.cfi_def_cfa_offset 16
 688              		.cfi_offset 4, -16
 689              		.cfi_offset 5, -12
 690              		.cfi_offset 6, -8
 691              		.cfi_offset 14, -4
 692              		.loc 1 569 0
 693 0002 1148     		ldr	r0, .L37
 694              	.LVL66:
 695              		.loc 1 565 0
 696 0004 1D46     		mov	r5, r3
 697 0006 0E46     		mov	r6, r1
 698 0008 1446     		mov	r4, r2
 699              		.loc 1 569 0
 700 000a FFF7FEFF 		bl	chMtxLock
 701              	.LVL67:
 702              		.loc 1 570 0
 703 000e 0F48     		ldr	r0, .L37+4
 704 0010 FFF7FEFF 		bl	spi_bb_begin
 705              	.LVL68:
 706              		.loc 1 572 0
 707 0014 06F07F01 		and	r1, r6, #127
 708 0018 0C48     		ldr	r0, .L37+4
 709 001a FFF7FEFF 		bl	spi_bb_exchange_8
 710              	.LVL69:
 711              		.loc 1 573 0
 712 001e FFF7FEFF 		bl	spi_bb_delay
 713              	.LVL70:
 714              	.LBB56:
 715              		.loc 1 575 0
 716 0022 45B1     		cbz	r5, .L30
 717              		.loc 1 576 0
 718 0024 094E     		ldr	r6, .L37+4
 719              	.LVL71:
 720 0026 2544     		add	r5, r5, r4
 721              	.LVL72:
 722              	.L31:
 723              		.loc 1 576 0 is_stmt 0 discriminator 3
 724 0028 14F8011B 		ldrb	r1, [r4], #1	@ zero_extendqisi2
 725              	.LVL73:
 726 002c 3046     		mov	r0, r6
 727 002e FFF7FEFF 		bl	spi_bb_exchange_8
 728              	.LVL74:
 729              		.loc 1 575 0 is_stmt 1 discriminator 3
 730 0032 A542     		cmp	r5, r4
 731 0034 F8D1     		bne	.L31
 732              	.LVL75:
 733              	.L30:
 734              	.LBE56:
 735              		.loc 1 580 0
 736 0036 0548     		ldr	r0, .L37+4
 737 0038 FFF7FEFF 		bl	spi_bb_end
 738              	.LVL76:
 739              		.loc 1 581 0
 740 003c 0248     		ldr	r0, .L37
 741 003e FFF7FEFF 		bl	chMtxUnlock
ARM GAS  /tmp/ccXmAE9k.s 			page 14


 742              	.LVL77:
 743              		.loc 1 584 0
 744 0042 0020     		movs	r0, #0
 745 0044 70BD     		pop	{r4, r5, r6, pc}
 746              	.LVL78:
 747              	.L38:
 748 0046 00BF     		.align	2
 749              	.L37:
 750 0048 24000000 		.word	.LANCHOR10+36
 751 004c 00000000 		.word	.LANCHOR10
 752              		.cfi_endproc
 753              	.LFE305:
 754              		.size	user_spi_write, .-user_spi_write
 755              		.section	.text.user_spi_read,"ax",%progbits
 756              		.align	1
 757              		.p2align 4,,15
 758              		.syntax unified
 759              		.thumb
 760              		.thumb_func
 761              		.fpu fpv4-sp-d16
 762              		.type	user_spi_read, %function
 763              	user_spi_read:
 764              	.LFB304:
 765              		.loc 1 544 0
 766              		.cfi_startproc
 767              		@ args = 0, pretend = 0, frame = 0
 768              		@ frame_needed = 0, uses_anonymous_args = 0
 769              	.LVL79:
 770 0000 70B5     		push	{r4, r5, r6, lr}
 771              		.cfi_def_cfa_offset 16
 772              		.cfi_offset 4, -16
 773              		.cfi_offset 5, -12
 774              		.cfi_offset 6, -8
 775              		.cfi_offset 14, -4
 776              		.loc 1 551 0
 777 0002 1148     		ldr	r0, .L47
 778              	.LVL80:
 779              		.loc 1 544 0
 780 0004 1D46     		mov	r5, r3
 781 0006 0E46     		mov	r6, r1
 782              	.LVL81:
 783 0008 1446     		mov	r4, r2
 784              		.loc 1 551 0
 785 000a FFF7FEFF 		bl	chMtxLock
 786              	.LVL82:
 787              		.loc 1 552 0
 788 000e 0F48     		ldr	r0, .L47+4
 789 0010 FFF7FEFF 		bl	spi_bb_begin
 790              	.LVL83:
 791              		.loc 1 553 0
 792 0014 46F08001 		orr	r1, r6, #128
 793 0018 0C48     		ldr	r0, .L47+4
 794 001a FFF7FEFF 		bl	spi_bb_exchange_8
 795              	.LVL84:
 796              		.loc 1 554 0
 797 001e FFF7FEFF 		bl	spi_bb_delay
 798              	.LVL85:
ARM GAS  /tmp/ccXmAE9k.s 			page 15


 799              	.LBB57:
 800              		.loc 1 556 0
 801 0022 4DB1     		cbz	r5, .L40
 802              		.loc 1 557 0
 803 0024 094E     		ldr	r6, .L47+4
 804              	.LVL86:
 805 0026 2544     		add	r5, r5, r4
 806              	.LVL87:
 807              	.L41:
 808              		.loc 1 557 0 is_stmt 0 discriminator 3
 809 0028 0021     		movs	r1, #0
 810 002a 3046     		mov	r0, r6
 811 002c FFF7FEFF 		bl	spi_bb_exchange_8
 812              	.LVL88:
 813 0030 04F8010B 		strb	r0, [r4], #1
 814              	.LVL89:
 815              		.loc 1 556 0 is_stmt 1 discriminator 3
 816 0034 AC42     		cmp	r4, r5
 817 0036 F7D1     		bne	.L41
 818              	.LVL90:
 819              	.L40:
 820              	.LBE57:
 821              		.loc 1 560 0
 822 0038 0448     		ldr	r0, .L47+4
 823 003a FFF7FEFF 		bl	spi_bb_end
 824              	.LVL91:
 825              		.loc 1 561 0
 826 003e 0248     		ldr	r0, .L47
 827 0040 FFF7FEFF 		bl	chMtxUnlock
 828              	.LVL92:
 829              		.loc 1 563 0
 830 0044 0020     		movs	r0, #0
 831 0046 70BD     		pop	{r4, r5, r6, pc}
 832              	.L48:
 833              		.align	2
 834              	.L47:
 835 0048 24000000 		.word	.LANCHOR10+36
 836 004c 00000000 		.word	.LANCHOR10
 837              		.cfi_endproc
 838              	.LFE304:
 839              		.size	user_spi_read, .-user_spi_read
 840              		.section	.text.rotate.constprop.0,"ax",%progbits
 841              		.align	1
 842              		.p2align 4,,15
 843              		.syntax unified
 844              		.thumb
 845              		.thumb_func
 846              		.fpu fpv4-sp-d16
 847              		.type	rotate.constprop.0, %function
 848              	rotate.constprop.0:
 849              	.LFB306:
 850              		.loc 1 509 0
 851              		.cfi_startproc
 852              		@ args = 0, pretend = 0, frame = 0
 853              		@ frame_needed = 0, uses_anonymous_args = 0
 854              	.LVL93:
 855 0000 38B5     		push	{r3, r4, r5, lr}
ARM GAS  /tmp/ccXmAE9k.s 			page 16


 856              		.cfi_def_cfa_offset 16
 857              		.cfi_offset 3, -16
 858              		.cfi_offset 4, -12
 859              		.cfi_offset 5, -8
 860              		.cfi_offset 14, -4
 861 0002 2DED088B 		vpush.64	{d8, d9, d10, d11}
 862              		.cfi_def_cfa_offset 48
 863              		.cfi_offset 80, -48
 864              		.cfi_offset 81, -44
 865              		.cfi_offset 82, -40
 866              		.cfi_offset 83, -36
 867              		.cfi_offset 84, -32
 868              		.cfi_offset 85, -28
 869              		.cfi_offset 86, -24
 870              		.cfi_offset 87, -20
 871              		.loc 1 511 0
 872 0006 91ED028A 		vldr.32	s16, [r1, #8]
 873 000a 9FED3EBA 		vldr.32	s22, .L51
 874 000e 28EE0B8A 		vmul.f32	s16, s16, s22
 875              		.loc 1 509 0
 876 0012 0446     		mov	r4, r0
 877              		.loc 1 511 0
 878 0014 B0EE480A 		vmov.f32	s0, s16
 879              		.loc 1 509 0
 880 0018 0D46     		mov	r5, r1
 881              		.loc 1 511 0
 882 001a FFF7FEFF 		bl	sinf
 883              	.LVL94:
 884 001e F0EE409A 		vmov.f32	s19, s0
 885              	.LVL95:
 886              		.loc 1 512 0
 887 0022 B0EE480A 		vmov.f32	s0, s16
 888              	.LVL96:
 889 0026 FFF7FEFF 		bl	cosf
 890              	.LVL97:
 891              		.loc 1 513 0
 892 002a 95ED018A 		vldr.32	s16, [r5, #4]
 893 002e 28EE0B8A 		vmul.f32	s16, s16, s22
 894              		.loc 1 512 0
 895 0032 F0EE408A 		vmov.f32	s17, s0
 896              	.LVL98:
 897              		.loc 1 513 0
 898 0036 B0EE480A 		vmov.f32	s0, s16
 899              	.LVL99:
 900 003a FFF7FEFF 		bl	sinf
 901              	.LVL100:
 902 003e B0EE40AA 		vmov.f32	s20, s0
 903              	.LVL101:
 904              		.loc 1 514 0
 905 0042 B0EE480A 		vmov.f32	s0, s16
 906              	.LVL102:
 907 0046 FFF7FEFF 		bl	cosf
 908              	.LVL103:
 909              		.loc 1 515 0
 910 004a D5ED00AA 		vldr.32	s21, [r5]
 911 004e 6AEE8BAA 		vmul.f32	s21, s21, s22
 912              		.loc 1 514 0
ARM GAS  /tmp/ccXmAE9k.s 			page 17


 913 0052 B0EE409A 		vmov.f32	s18, s0
 914              	.LVL104:
 915              		.loc 1 515 0
 916 0056 B0EE6A0A 		vmov.f32	s0, s21
 917              	.LVL105:
 918 005a FFF7FEFF 		bl	sinf
 919              	.LVL106:
 920 005e B0EE408A 		vmov.f32	s16, s0
 921              	.LVL107:
 922              		.loc 1 516 0
 923 0062 B0EE6A0A 		vmov.f32	s0, s21
 924              	.LVL108:
 925 0066 FFF7FEFF 		bl	cosf
 926              	.LVL109:
 927              		.loc 1 518 0
 928 006a 29EE806A 		vmul.f32	s12, s19, s0
 929              	.LVL110:
 930 006e 68EE8A7A 		vmul.f32	s15, s17, s20
 931 0072 B0EE467A 		vmov.f32	s14, s12
 932 0076 98EE277A 		vfnms.f32	s14, s16, s15
 933              		.loc 1 522 0
 934 007a 234B     		ldr	r3, .L51+4
 935 007c D4ED016A 		vldr.32	s13, [r4, #4]
 936 0080 D4ED005A 		vldr.32	s11, [r4]
 937 0084 94ED025A 		vldr.32	s10, [r4, #8]
 938              		.loc 1 518 0
 939 0088 68EE807A 		vmul.f32	s15, s17, s0
 940              	.LVL111:
 941 008c 68EE894A 		vmul.f32	s9, s17, s18
 942              	.LVL112:
 943              		.loc 1 522 0
 944 0090 27EE267A 		vmul.f32	s14, s14, s13
 945              		.loc 1 518 0
 946 0094 6AEE276A 		vmul.f32	s13, s20, s15
 947              		.loc 1 522 0
 948 0098 A4EEA57A 		vfma.f32	s14, s9, s11
 949              		.loc 1 518 0
 950 009c E9EE886A 		vfma.f32	s13, s19, s16
 951              	.LVL113:
 952              		.loc 1 519 0
 953 00a0 69EE8A5A 		vmul.f32	s11, s19, s20
 954              		.loc 1 522 0
 955 00a4 A6EE857A 		vfma.f32	s14, s13, s10
 956              		.loc 1 519 0
 957 00a8 E8EE257A 		vfma.f32	s15, s16, s11
 958              	.LVL114:
 959              		.loc 1 522 0
 960 00ac 83ED0C7A 		vstr.32	s14, [r3, #48]
 961              		.loc 1 523 0
 962 00b0 D4ED015A 		vldr.32	s11, [r4, #4]
 963 00b4 D4ED006A 		vldr.32	s13, [r4]
 964              	.LVL115:
 965 00b8 94ED027A 		vldr.32	s14, [r4, #8]
 966              		.loc 1 519 0
 967 00bc 69EE899A 		vmul.f32	s19, s19, s18
 968              	.LVL116:
 969 00c0 68EE688A 		vnmul.f32	s17, s16, s17
ARM GAS  /tmp/ccXmAE9k.s 			page 18


 970              	.LVL117:
 971              		.loc 1 523 0
 972 00c4 67EEA57A 		vmul.f32	s15, s15, s11
 973              		.loc 1 519 0
 974 00c8 EAEE068A 		vfma.f32	s17, s20, s12
 975              	.LVL118:
 976              		.loc 1 523 0
 977 00cc E9EEA67A 		vfma.f32	s15, s19, s13
 978              		.loc 1 520 0
 979 00d0 29EE088A 		vmul.f32	s16, s18, s16
 980              	.LVL119:
 981              		.loc 1 523 0
 982 00d4 E8EE877A 		vfma.f32	s15, s17, s14
 983              		.loc 1 520 0
 984 00d8 29EE009A 		vmul.f32	s18, s18, s0
 985              	.LVL120:
 986              		.loc 1 523 0
 987 00dc C3ED0D7A 		vstr.32	s15, [r3, #52]
 988              		.loc 1 524 0
 989 00e0 D4ED016A 		vldr.32	s13, [r4, #4]
 990 00e4 94ED007A 		vldr.32	s14, [r4]
 991 00e8 D4ED027A 		vldr.32	s15, [r4, #8]
 992 00ec 28EE268A 		vmul.f32	s16, s16, s13
 993              	.LVL121:
 994 00f0 AAEE478A 		vfms.f32	s16, s20, s14
 995 00f4 A9EE278A 		vfma.f32	s16, s18, s15
 996 00f8 83ED0E8A 		vstr.32	s16, [r3, #56]
 997              		.loc 1 525 0
 998 00fc BDEC088B 		vldm	sp!, {d8-d11}
 999              		.cfi_restore 86
 1000              		.cfi_restore 87
 1001              		.cfi_restore 84
 1002              		.cfi_restore 85
 1003              		.cfi_restore 82
 1004              		.cfi_restore 83
 1005              		.cfi_restore 80
 1006              		.cfi_restore 81
 1007              		.cfi_def_cfa_offset 16
 1008              	.LVL122:
 1009 0100 38BD     		pop	{r3, r4, r5, pc}
 1010              	.LVL123:
 1011              	.L52:
 1012 0102 00BF     		.align	2
 1013              	.L51:
 1014 0104 35FA8E3C 		.word	1016003125
 1015 0108 00000000 		.word	.LANCHOR3
 1016              		.cfi_endproc
 1017              	.LFE306:
 1018              		.size	rotate.constprop.0, .-rotate.constprop.0
 1019              		.section	.text.imu_reset_orientation,"ax",%progbits
 1020              		.align	1
 1021              		.p2align 4,,15
 1022              		.global	imu_reset_orientation
 1023              		.syntax unified
 1024              		.thumb
 1025              		.thumb_func
 1026              		.fpu fpv4-sp-d16
ARM GAS  /tmp/ccXmAE9k.s 			page 19


 1027              		.type	imu_reset_orientation, %function
 1028              	imu_reset_orientation:
 1029              	.LFB281:
 1030              		.loc 1 114 0
 1031              		.cfi_startproc
 1032              		@ args = 0, pretend = 0, frame = 0
 1033              		@ frame_needed = 0, uses_anonymous_args = 0
 1034 0000 08B5     		push	{r3, lr}
 1035              		.cfi_def_cfa_offset 8
 1036              		.cfi_offset 3, -8
 1037              		.cfi_offset 14, -4
 1038              	.LBB58:
 1039              	.LBB59:
 1040              		.loc 3 231 0
 1041 0002 0E49     		ldr	r1, .L55
 1042              	.LBE59:
 1043              	.LBE58:
 1044              		.loc 1 116 0
 1045 0004 0E4A     		ldr	r2, .L55+4
 1046              		.loc 1 115 0
 1047 0006 0F4B     		ldr	r3, .L55+8
 1048              	.LBB61:
 1049              	.LBB60:
 1050              		.loc 3 231 0
 1051 0008 896A     		ldr	r1, [r1, #40]
 1052              	.LBE60:
 1053              	.LBE61:
 1054              		.loc 1 116 0
 1055 000a 1160     		str	r1, [r2]
 1056              		.loc 1 117 0
 1057 000c 0E48     		ldr	r0, .L55+12
 1058              		.loc 1 115 0
 1059 000e 0022     		movs	r2, #0
 1060 0010 1A70     		strb	r2, [r3]
 1061              		.loc 1 117 0
 1062 0012 FFF7FEFF 		bl	ahrs_init_attitude_info
 1063              	.LVL124:
 1064              		.loc 1 118 0
 1065 0016 F7EE000A 		vmov.f32	s1, #1.0e+0
 1066 001a B2EE040A 		vmov.f32	s0, #1.0e+1
 1067 001e 0B48     		ldr	r0, .L55+16
 1068 0020 FFF7FEFF 		bl	FusionAhrsInitialise
 1069              	.LVL125:
 1070              		.loc 1 119 0
 1071 0024 F0EE001A 		vmov.f32	s3, #2.0e+0
 1072 0028 9FED091A 		vldr.32	s2, .L55+20
 1073 002c F2EE040A 		vmov.f32	s1, #1.0e+1
 1074 0030 B7EE000A 		vmov.f32	s0, #1.0e+0
 1075              		.loc 1 120 0
 1076 0034 BDE80840 		pop	{r3, lr}
 1077              		.cfi_restore 14
 1078              		.cfi_restore 3
 1079              		.cfi_def_cfa_offset 0
 1080              		.loc 1 119 0
 1081 0038 FFF7FEBF 		b	ahrs_update_all_parameters
 1082              	.LVL126:
 1083              	.L56:
ARM GAS  /tmp/ccXmAE9k.s 			page 20


 1084              		.align	2
 1085              	.L55:
 1086 003c 00000000 		.word	ch
 1087 0040 00000000 		.word	.LANCHOR2
 1088 0044 00000000 		.word	.LANCHOR1
 1089 0048 00000000 		.word	.LANCHOR8
 1090 004c 00000000 		.word	.LANCHOR4
 1091 0050 00000000 		.word	0
 1092              		.cfi_endproc
 1093              	.LFE281:
 1094              		.size	imu_reset_orientation, .-imu_reset_orientation
 1095              		.section	.text.imu_get_i2c,"ax",%progbits
 1096              		.align	1
 1097              		.p2align 4,,15
 1098              		.global	imu_get_i2c
 1099              		.syntax unified
 1100              		.thumb
 1101              		.thumb_func
 1102              		.fpu fpv4-sp-d16
 1103              		.type	imu_get_i2c, %function
 1104              	imu_get_i2c:
 1105              	.LFB282:
 1106              		.loc 1 122 0
 1107              		.cfi_startproc
 1108              		@ args = 0, pretend = 0, frame = 0
 1109              		@ frame_needed = 0, uses_anonymous_args = 0
 1110              		@ link register save eliminated.
 1111              		.loc 1 124 0
 1112 0000 0048     		ldr	r0, .L58
 1113 0002 7047     		bx	lr
 1114              	.L59:
 1115              		.align	2
 1116              	.L58:
 1117 0004 00000000 		.word	.LANCHOR9
 1118              		.cfi_endproc
 1119              	.LFE282:
 1120              		.size	imu_get_i2c, .-imu_get_i2c
 1121              		.section	.text.imu_init_lsm6ds3,"ax",%progbits
 1122              		.align	1
 1123              		.p2align 4,,15
 1124              		.global	imu_init_lsm6ds3
 1125              		.syntax unified
 1126              		.thumb
 1127              		.thumb_func
 1128              		.fpu fpv4-sp-d16
 1129              		.type	imu_init_lsm6ds3, %function
 1130              	imu_init_lsm6ds3:
 1131              	.LFB287:
 1132              		.loc 1 198 0
 1133              		.cfi_startproc
 1134              		@ args = 0, pretend = 0, frame = 0
 1135              		@ frame_needed = 0, uses_anonymous_args = 0
 1136              	.LVL127:
 1137 0000 30B5     		push	{r4, r5, lr}
 1138              		.cfi_def_cfa_offset 12
 1139              		.cfi_offset 4, -12
 1140              		.cfi_offset 5, -8
ARM GAS  /tmp/ccXmAE9k.s 			page 21


 1141              		.cfi_offset 14, -4
 1142              		.loc 1 200 0
 1143 0002 074C     		ldr	r4, .L62
 1144              		.loc 1 198 0
 1145 0004 83B0     		sub	sp, sp, #12
 1146              		.cfi_def_cfa_offset 24
 1147              		.loc 1 200 0
 1148 0006 4FF4B465 		mov	r5, #1440
 1149 000a CDE90045 		strd	r4, r5, [sp]
 1150 000e FFF7FEFF 		bl	lsm6ds3_init
 1151              	.LVL128:
 1152              		.loc 1 203 0
 1153 0012 0448     		ldr	r0, .L62+4
 1154              		.loc 1 205 0
 1155 0014 03B0     		add	sp, sp, #12
 1156              		.cfi_def_cfa_offset 12
 1157              		@ sp needed
 1158 0016 BDE83040 		pop	{r4, r5, lr}
 1159              		.cfi_restore 14
 1160              		.cfi_restore 5
 1161              		.cfi_restore 4
 1162              		.cfi_def_cfa_offset 0
 1163              		.loc 1 203 0
 1164 001a FFF7FEBF 		b	lsm6ds3_set_read_callback
 1165              	.LVL129:
 1166              	.L63:
 1167 001e 00BF     		.align	2
 1168              	.L62:
 1169 0020 00000000 		.word	.LANCHOR11
 1170 0024 00000000 		.word	imu_read_callback
 1171              		.cfi_endproc
 1172              	.LFE287:
 1173              		.size	imu_init_lsm6ds3, .-imu_init_lsm6ds3
 1174              		.section	.text.imu_stop,"ax",%progbits
 1175              		.align	1
 1176              		.p2align 4,,15
 1177              		.global	imu_stop
 1178              		.syntax unified
 1179              		.thumb
 1180              		.thumb_func
 1181              		.fpu fpv4-sp-d16
 1182              		.type	imu_stop, %function
 1183              	imu_stop:
 1184              	.LFB288:
 1185              		.loc 1 207 0
 1186              		.cfi_startproc
 1187              		@ args = 0, pretend = 0, frame = 0
 1188              		@ frame_needed = 0, uses_anonymous_args = 0
 1189 0000 08B5     		push	{r3, lr}
 1190              		.cfi_def_cfa_offset 8
 1191              		.cfi_offset 3, -8
 1192              		.cfi_offset 14, -4
 1193              		.loc 1 208 0
 1194 0002 FFF7FEFF 		bl	mpu9150_stop
 1195              	.LVL130:
 1196              		.loc 1 209 0
 1197 0006 0548     		ldr	r0, .L66
ARM GAS  /tmp/ccXmAE9k.s 			page 22


 1198 0008 FFF7FEFF 		bl	icm20948_stop
 1199              	.LVL131:
 1200              		.loc 1 210 0
 1201 000c 0448     		ldr	r0, .L66+4
 1202 000e FFF7FEFF 		bl	bmi160_wrapper_stop
 1203              	.LVL132:
 1204              		.loc 1 212 0
 1205 0012 BDE80840 		pop	{r3, lr}
 1206              		.cfi_restore 14
 1207              		.cfi_restore 3
 1208              		.cfi_def_cfa_offset 0
 1209              		.loc 1 211 0
 1210 0016 FFF7FEBF 		b	lsm6ds3_stop
 1211              	.LVL133:
 1212              	.L67:
 1213 001a 00BF     		.align	2
 1214              	.L66:
 1215 001c 00000000 		.word	.LANCHOR12
 1216 0020 00000000 		.word	.LANCHOR13
 1217              		.cfi_endproc
 1218              	.LFE288:
 1219              		.size	imu_stop, .-imu_stop
 1220              		.section	.text.imu_init_mpu9x50,"ax",%progbits
 1221              		.align	1
 1222              		.p2align 4,,15
 1223              		.global	imu_init_mpu9x50
 1224              		.syntax unified
 1225              		.thumb
 1226              		.thumb_func
 1227              		.fpu fpv4-sp-d16
 1228              		.type	imu_init_mpu9x50, %function
 1229              	imu_init_mpu9x50:
 1230              	.LFB283:
 1231              		.loc 1 127 0
 1232              		.cfi_startproc
 1233              		@ args = 0, pretend = 0, frame = 0
 1234              		@ frame_needed = 0, uses_anonymous_args = 0
 1235              	.LVL134:
 1236 0000 2DE9F041 		push	{r4, r5, r6, r7, r8, lr}
 1237              		.cfi_def_cfa_offset 24
 1238              		.cfi_offset 4, -24
 1239              		.cfi_offset 5, -20
 1240              		.cfi_offset 6, -16
 1241              		.cfi_offset 7, -12
 1242              		.cfi_offset 8, -8
 1243              		.cfi_offset 14, -4
 1244 0004 82B0     		sub	sp, sp, #8
 1245              		.cfi_def_cfa_offset 32
 1246              		.loc 1 127 0
 1247 0006 9846     		mov	r8, r3
 1248 0008 0546     		mov	r5, r0
 1249 000a 0E46     		mov	r6, r1
 1250 000c 1746     		mov	r7, r2
 1251              		.loc 1 130 0
 1252 000e 094C     		ldr	r4, .L70
 1253              		.loc 1 128 0
 1254 0010 FFF7FEFF 		bl	imu_stop
ARM GAS  /tmp/ccXmAE9k.s 			page 23


 1255              	.LVL135:
 1256              		.loc 1 130 0
 1257 0014 4FF4B463 		mov	r3, #1440
 1258 0018 0193     		str	r3, [sp, #4]
 1259 001a 2846     		mov	r0, r5
 1260 001c 4346     		mov	r3, r8
 1261 001e 3A46     		mov	r2, r7
 1262 0020 3146     		mov	r1, r6
 1263 0022 0094     		str	r4, [sp]
 1264 0024 FFF7FEFF 		bl	mpu9150_init
 1265              	.LVL136:
 1266              		.loc 1 133 0
 1267 0028 0348     		ldr	r0, .L70+4
 1268              		.loc 1 134 0
 1269 002a 02B0     		add	sp, sp, #8
 1270              		.cfi_def_cfa_offset 24
 1271              		@ sp needed
 1272 002c BDE8F041 		pop	{r4, r5, r6, r7, r8, lr}
 1273              		.cfi_restore 14
 1274              		.cfi_restore 8
 1275              		.cfi_restore 7
 1276              		.cfi_restore 6
 1277              		.cfi_restore 5
 1278              		.cfi_restore 4
 1279              		.cfi_def_cfa_offset 0
 1280              	.LVL137:
 1281              		.loc 1 133 0
 1282 0030 FFF7FEBF 		b	mpu9150_set_read_callback
 1283              	.LVL138:
 1284              	.L71:
 1285              		.align	2
 1286              	.L70:
 1287 0034 00000000 		.word	.LANCHOR11
 1288 0038 00000000 		.word	imu_read_callback
 1289              		.cfi_endproc
 1290              	.LFE283:
 1291              		.size	imu_init_mpu9x50, .-imu_init_mpu9x50
 1292              		.section	.text.imu_init_icm20948,"ax",%progbits
 1293              		.align	1
 1294              		.p2align 4,,15
 1295              		.global	imu_init_icm20948
 1296              		.syntax unified
 1297              		.thumb
 1298              		.thumb_func
 1299              		.fpu fpv4-sp-d16
 1300              		.type	imu_init_icm20948, %function
 1301              	imu_init_icm20948:
 1302              	.LFB284:
 1303              		.loc 1 137 0
 1304              		.cfi_startproc
 1305              		@ args = 4, pretend = 0, frame = 0
 1306              		@ frame_needed = 0, uses_anonymous_args = 0
 1307              	.LVL139:
 1308 0000 2DE9F047 		push	{r4, r5, r6, r7, r8, r9, r10, lr}
 1309              		.cfi_def_cfa_offset 32
 1310              		.cfi_offset 4, -32
 1311              		.cfi_offset 5, -28
ARM GAS  /tmp/ccXmAE9k.s 			page 24


 1312              		.cfi_offset 6, -24
 1313              		.cfi_offset 7, -20
 1314              		.cfi_offset 8, -16
 1315              		.cfi_offset 9, -12
 1316              		.cfi_offset 10, -8
 1317              		.cfi_offset 14, -4
 1318              		.loc 1 140 0
 1319 0004 104C     		ldr	r4, .L74
 1320              		.loc 1 146 0
 1321 0006 114D     		ldr	r5, .L74+4
 1322              		.loc 1 137 0
 1323 0008 82B0     		sub	sp, sp, #8
 1324              		.cfi_def_cfa_offset 40
 1325              		.loc 1 137 0
 1326 000a 8946     		mov	r9, r1
 1327 000c 9046     		mov	r8, r2
 1328 000e 1F46     		mov	r7, r3
 1329 0010 8246     		mov	r10, r0
 1330 0012 0A9E     		ldr	r6, [sp, #40]
 1331              		.loc 1 138 0
 1332 0014 FFF7FEFF 		bl	imu_stop
 1333              	.LVL140:
 1334              		.loc 1 144 0
 1335 0018 2046     		mov	r0, r4
 1336              		.loc 1 140 0
 1337 001a C4F800A0 		str	r10, [r4]
 1338              		.loc 1 142 0
 1339 001e C4E90198 		strd	r9, r8, [r4, #4]
 1340              		.loc 1 143 0
 1341 0022 E760     		str	r7, [r4, #12]
 1342              		.loc 1 144 0
 1343 0024 FFF7FEFF 		bl	i2c_bb_init
 1344              	.LVL141:
 1345              		.loc 1 146 0
 1346 0028 4FF4B463 		mov	r3, #1440
 1347 002c 2146     		mov	r1, r4
 1348 002e 2846     		mov	r0, r5
 1349 0030 0093     		str	r3, [sp]
 1350 0032 3246     		mov	r2, r6
 1351 0034 064B     		ldr	r3, .L74+8
 1352 0036 FFF7FEFF 		bl	icm20948_init
 1353              	.LVL142:
 1354              		.loc 1 149 0
 1355 003a 0649     		ldr	r1, .L74+12
 1356 003c 2846     		mov	r0, r5
 1357              		.loc 1 150 0
 1358 003e 02B0     		add	sp, sp, #8
 1359              		.cfi_def_cfa_offset 32
 1360              		@ sp needed
 1361 0040 BDE8F047 		pop	{r4, r5, r6, r7, r8, r9, r10, lr}
 1362              		.cfi_restore 14
 1363              		.cfi_restore 10
 1364              		.cfi_restore 9
 1365              		.cfi_restore 8
 1366              		.cfi_restore 7
 1367              		.cfi_restore 6
 1368              		.cfi_restore 5
ARM GAS  /tmp/ccXmAE9k.s 			page 25


 1369              		.cfi_restore 4
 1370              		.cfi_def_cfa_offset 0
 1371              	.LVL143:
 1372              		.loc 1 149 0
 1373 0044 FFF7FEBF 		b	icm20948_set_read_callback
 1374              	.LVL144:
 1375              	.L75:
 1376              		.align	2
 1377              	.L74:
 1378 0048 00000000 		.word	.LANCHOR9
 1379 004c 00000000 		.word	.LANCHOR12
 1380 0050 00000000 		.word	.LANCHOR11
 1381 0054 00000000 		.word	imu_read_callback
 1382              		.cfi_endproc
 1383              	.LFE284:
 1384              		.size	imu_init_icm20948, .-imu_init_icm20948
 1385              		.section	.text.imu_init_bmi160_i2c,"ax",%progbits
 1386              		.align	1
 1387              		.p2align 4,,15
 1388              		.global	imu_init_bmi160_i2c
 1389              		.syntax unified
 1390              		.thumb
 1391              		.thumb_func
 1392              		.fpu fpv4-sp-d16
 1393              		.type	imu_init_bmi160_i2c, %function
 1394              	imu_init_bmi160_i2c:
 1395              	.LFB285:
 1396              		.loc 1 153 0
 1397              		.cfi_startproc
 1398              		@ args = 0, pretend = 0, frame = 0
 1399              		@ frame_needed = 0, uses_anonymous_args = 0
 1400              	.LVL145:
 1401 0000 2DE9F843 		push	{r3, r4, r5, r6, r7, r8, r9, lr}
 1402              		.cfi_def_cfa_offset 32
 1403              		.cfi_offset 3, -32
 1404              		.cfi_offset 4, -28
 1405              		.cfi_offset 5, -24
 1406              		.cfi_offset 6, -20
 1407              		.cfi_offset 7, -16
 1408              		.cfi_offset 8, -12
 1409              		.cfi_offset 9, -8
 1410              		.cfi_offset 14, -4
 1411              		.loc 1 156 0
 1412 0004 114D     		ldr	r5, .L78
 1413              		.loc 1 162 0
 1414 0006 124C     		ldr	r4, .L78+4
 1415              		.loc 1 153 0
 1416 0008 8846     		mov	r8, r1
 1417 000a 1746     		mov	r7, r2
 1418 000c 1E46     		mov	r6, r3
 1419 000e 8146     		mov	r9, r0
 1420              		.loc 1 154 0
 1421 0010 FFF7FEFF 		bl	imu_stop
 1422              	.LVL146:
 1423              		.loc 1 160 0
 1424 0014 2846     		mov	r0, r5
 1425              		.loc 1 156 0
ARM GAS  /tmp/ccXmAE9k.s 			page 26


 1426 0016 C5F80090 		str	r9, [r5]
 1427              		.loc 1 158 0
 1428 001a C5E90187 		strd	r8, r7, [r5, #4]
 1429              		.loc 1 159 0
 1430 001e EE60     		str	r6, [r5, #12]
 1431              		.loc 1 160 0
 1432 0020 FFF7FEFF 		bl	i2c_bb_init
 1433              	.LVL147:
 1434              		.loc 1 164 0
 1435 0024 0B4D     		ldr	r5, .L78+8
 1436              		.loc 1 165 0
 1437 0026 0C4B     		ldr	r3, .L78+12
 1438              		.loc 1 167 0
 1439 0028 0C49     		ldr	r1, .L78+16
 1440              		.loc 1 162 0
 1441 002a 6820     		movs	r0, #104
 1442              		.loc 1 163 0
 1443 002c 0022     		movs	r2, #0
 1444              		.loc 1 162 0
 1445 002e 6071     		strb	r0, [r4, #5]
 1446              		.loc 1 163 0
 1447 0030 A271     		strb	r2, [r4, #6]
 1448              		.loc 1 167 0
 1449 0032 2046     		mov	r0, r4
 1450 0034 4FF4B462 		mov	r2, #1440
 1451              		.loc 1 165 0
 1452 0038 C4E90853 		strd	r5, r3, [r4, #32]
 1453              		.loc 1 167 0
 1454 003c FFF7FEFF 		bl	bmi160_wrapper_init
 1455              	.LVL148:
 1456              		.loc 1 168 0
 1457 0040 2046     		mov	r0, r4
 1458 0042 0749     		ldr	r1, .L78+20
 1459              		.loc 1 169 0
 1460 0044 BDE8F843 		pop	{r3, r4, r5, r6, r7, r8, r9, lr}
 1461              		.cfi_restore 14
 1462              		.cfi_restore 9
 1463              		.cfi_restore 8
 1464              		.cfi_restore 7
 1465              		.cfi_restore 6
 1466              		.cfi_restore 5
 1467              		.cfi_restore 4
 1468              		.cfi_restore 3
 1469              		.cfi_def_cfa_offset 0
 1470              	.LVL149:
 1471              		.loc 1 168 0
 1472 0048 FFF7FEBF 		b	bmi160_wrapper_set_read_callback
 1473              	.LVL150:
 1474              	.L79:
 1475              		.align	2
 1476              	.L78:
 1477 004c 00000000 		.word	.LANCHOR9
 1478 0050 00000000 		.word	.LANCHOR13
 1479 0054 00000000 		.word	user_i2c_read
 1480 0058 00000000 		.word	user_i2c_write
 1481 005c 00000000 		.word	.LANCHOR11
 1482 0060 00000000 		.word	imu_read_callback
ARM GAS  /tmp/ccXmAE9k.s 			page 27


 1483              		.cfi_endproc
 1484              	.LFE285:
 1485              		.size	imu_init_bmi160_i2c, .-imu_init_bmi160_i2c
 1486              		.section	.text.imu_init,"ax",%progbits
 1487              		.align	1
 1488              		.p2align 4,,15
 1489              		.global	imu_init
 1490              		.syntax unified
 1491              		.thumb
 1492              		.thumb_func
 1493              		.fpu fpv4-sp-d16
 1494              		.type	imu_init, %function
 1495              	imu_init:
 1496              	.LFB280:
 1497              		.loc 1 57 0
 1498              		.cfi_startproc
 1499              		@ args = 0, pretend = 0, frame = 0
 1500              		@ frame_needed = 0, uses_anonymous_args = 0
 1501              	.LVL151:
 1502 0000 70B5     		push	{r4, r5, r6, lr}
 1503              		.cfi_def_cfa_offset 16
 1504              		.cfi_offset 4, -16
 1505              		.cfi_offset 5, -12
 1506              		.cfi_offset 6, -8
 1507              		.cfi_offset 14, -4
 1508              		.loc 1 58 0
 1509 0002 0546     		mov	r5, r0
 1510              		.loc 1 57 0
 1511 0004 0646     		mov	r6, r0
 1512              		.loc 1 58 0
 1513 0006 0FCD     		ldmia	r5!, {r0, r1, r2, r3}
 1514              	.LVL152:
 1515 0008 294C     		ldr	r4, .L93
 1516 000a 0FC4     		stmia	r4!, {r0, r1, r2, r3}
 1517 000c 0FCD     		ldmia	r5!, {r0, r1, r2, r3}
 1518 000e 0FC4     		stmia	r4!, {r0, r1, r2, r3}
 1519 0010 0FCD     		ldmia	r5!, {r0, r1, r2, r3}
 1520 0012 0FC4     		stmia	r4!, {r0, r1, r2, r3}
 1521 0014 95E80700 		ldm	r5, {r0, r1, r2}
 1522              		.loc 1 57 0
 1523 0018 82B0     		sub	sp, sp, #8
 1524              		.cfi_def_cfa_offset 24
 1525              		.loc 1 58 0
 1526 001a 84E80700 		stm	r4, {r0, r1, r2}
 1527              		.loc 1 60 0
 1528 001e FFF7FEFF 		bl	imu_stop
 1529              	.LVL153:
 1530              		.loc 1 61 0
 1531 0022 FFF7FEFF 		bl	imu_reset_orientation
 1532              	.LVL154:
 1533              		.loc 1 63 0
 1534 0026 7068     		ldr	r0, [r6, #4]
 1535 0028 FFF7FEFF 		bl	mpu9150_set_rate_hz
 1536              	.LVL155:
 1537              		.loc 1 64 0
 1538 002c 7368     		ldr	r3, [r6, #4]
 1539 002e 2149     		ldr	r1, .L93+4
ARM GAS  /tmp/ccXmAE9k.s 			page 28


 1540              		.loc 1 65 0
 1541 0030 214A     		ldr	r2, .L93+8
 1542              		.loc 1 64 0
 1543 0032 0B61     		str	r3, [r1, #16]
 1544              		.loc 1 66 0
 1545 0034 1846     		mov	r0, r3
 1546              		.loc 1 65 0
 1547 0036 1363     		str	r3, [r2, #48]
 1548              		.loc 1 66 0
 1549 0038 FFF7FEFF 		bl	lsm6ds3_set_rate_hz
 1550              	.LVL156:
 1551              		.loc 1 68 0
 1552 003c 3378     		ldrb	r3, [r6]	@ zero_extendqisi2
 1553 003e 012B     		cmp	r3, #1
 1554 0040 07D0     		beq	.L80
 1555              		.loc 1 96 0
 1556 0042 022B     		cmp	r3, #2
 1557 0044 22D0     		beq	.L89
 1558              		.loc 1 99 0
 1559 0046 032B     		cmp	r3, #3
 1560 0048 05D0     		beq	.L90
 1561              		.loc 1 102 0
 1562 004a 042B     		cmp	r3, #4
 1563 004c 27D0     		beq	.L91
 1564              		.loc 1 105 0
 1565 004e 052B     		cmp	r3, #5
 1566 0050 0BD0     		beq	.L92
 1567              	.L80:
 1568              		.loc 1 112 0
 1569 0052 02B0     		add	sp, sp, #8
 1570              		.cfi_remember_state
 1571              		.cfi_def_cfa_offset 16
 1572              		@ sp needed
 1573 0054 70BD     		pop	{r4, r5, r6, pc}
 1574              	.LVL157:
 1575              	.L90:
 1576              		.cfi_restore_state
 1577              		.loc 1 100 0
 1578 0056 194A     		ldr	r2, .L93+12
 1579 0058 0023     		movs	r3, #0
 1580 005a 0093     		str	r3, [sp]
 1581 005c 1046     		mov	r0, r2
 1582 005e 0A23     		movs	r3, #10
 1583 0060 0B21     		movs	r1, #11
 1584 0062 FFF7FEFF 		bl	imu_init_icm20948
 1585              	.LVL158:
 1586              		.loc 1 112 0
 1587 0066 02B0     		add	sp, sp, #8
 1588              		.cfi_remember_state
 1589              		.cfi_def_cfa_offset 16
 1590              		@ sp needed
 1591 0068 70BD     		pop	{r4, r5, r6, pc}
 1592              	.LVL159:
 1593              	.L92:
 1594              		.cfi_restore_state
 1595              	.LBB62:
 1596              	.LBB63:
ARM GAS  /tmp/ccXmAE9k.s 			page 29


 1597              		.loc 1 200 0
 1598 006a 144A     		ldr	r2, .L93+12
 1599 006c 144B     		ldr	r3, .L93+16
 1600 006e 0093     		str	r3, [sp]
 1601 0070 4FF4B463 		mov	r3, #1440
 1602 0074 1046     		mov	r0, r2
 1603 0076 0193     		str	r3, [sp, #4]
 1604 0078 0B21     		movs	r1, #11
 1605 007a 0A23     		movs	r3, #10
 1606 007c FFF7FEFF 		bl	lsm6ds3_init
 1607              	.LVL160:
 1608              		.loc 1 203 0
 1609 0080 1048     		ldr	r0, .L93+20
 1610              	.LBE63:
 1611              	.LBE62:
 1612              		.loc 1 112 0
 1613 0082 02B0     		add	sp, sp, #8
 1614              		.cfi_remember_state
 1615              		.cfi_def_cfa_offset 16
 1616              		@ sp needed
 1617 0084 BDE87040 		pop	{r4, r5, r6, lr}
 1618              		.cfi_restore 14
 1619              		.cfi_restore 6
 1620              		.cfi_restore 5
 1621              		.cfi_restore 4
 1622              		.cfi_def_cfa_offset 0
 1623              	.LVL161:
 1624              	.LBB65:
 1625              	.LBB64:
 1626              		.loc 1 203 0
 1627 0088 FFF7FEBF 		b	lsm6ds3_set_read_callback
 1628              	.LVL162:
 1629              	.L89:
 1630              		.cfi_restore_state
 1631              	.LBE64:
 1632              	.LBE65:
 1633              		.loc 1 97 0
 1634 008c 0B4A     		ldr	r2, .L93+12
 1635 008e 0A23     		movs	r3, #10
 1636 0090 1046     		mov	r0, r2
 1637 0092 0B21     		movs	r1, #11
 1638              		.loc 1 112 0
 1639 0094 02B0     		add	sp, sp, #8
 1640              		.cfi_remember_state
 1641              		.cfi_def_cfa_offset 16
 1642              		@ sp needed
 1643 0096 BDE87040 		pop	{r4, r5, r6, lr}
 1644              		.cfi_restore 14
 1645              		.cfi_restore 6
 1646              		.cfi_restore 5
 1647              		.cfi_restore 4
 1648              		.cfi_def_cfa_offset 0
 1649              	.LVL163:
 1650              		.loc 1 97 0
 1651 009a FFF7FEBF 		b	imu_init_mpu9x50
 1652              	.LVL164:
 1653              	.L91:
ARM GAS  /tmp/ccXmAE9k.s 			page 30


 1654              		.cfi_restore_state
 1655              		.loc 1 103 0
 1656 009e 074A     		ldr	r2, .L93+12
 1657 00a0 0A23     		movs	r3, #10
 1658 00a2 1046     		mov	r0, r2
 1659 00a4 0B21     		movs	r1, #11
 1660              		.loc 1 112 0
 1661 00a6 02B0     		add	sp, sp, #8
 1662              		.cfi_def_cfa_offset 16
 1663              		@ sp needed
 1664 00a8 BDE87040 		pop	{r4, r5, r6, lr}
 1665              		.cfi_restore 14
 1666              		.cfi_restore 6
 1667              		.cfi_restore 5
 1668              		.cfi_restore 4
 1669              		.cfi_def_cfa_offset 0
 1670              	.LVL165:
 1671              		.loc 1 103 0
 1672 00ac FFF7FEBF 		b	imu_init_bmi160_i2c
 1673              	.LVL166:
 1674              	.L94:
 1675              		.align	2
 1676              	.L93:
 1677 00b0 00000000 		.word	.LANCHOR3
 1678 00b4 00000000 		.word	.LANCHOR12
 1679 00b8 00000000 		.word	.LANCHOR13
 1680 00bc 00040240 		.word	1073873920
 1681 00c0 00000000 		.word	.LANCHOR11
 1682 00c4 00000000 		.word	imu_read_callback
 1683              		.cfi_endproc
 1684              	.LFE280:
 1685              		.size	imu_init, .-imu_init
 1686              		.section	.text.imu_init_bmi160_spi,"ax",%progbits
 1687              		.align	1
 1688              		.p2align 4,,15
 1689              		.global	imu_init_bmi160_spi
 1690              		.syntax unified
 1691              		.thumb
 1692              		.thumb_func
 1693              		.fpu fpv4-sp-d16
 1694              		.type	imu_init_bmi160_spi, %function
 1695              	imu_init_bmi160_spi:
 1696              	.LFB286:
 1697              		.loc 1 173 0
 1698              		.cfi_startproc
 1699              		@ args = 16, pretend = 0, frame = 8
 1700              		@ frame_needed = 0, uses_anonymous_args = 0
 1701              	.LVL167:
 1702 0000 2DE9F04F 		push	{r4, r5, r6, r7, r8, r9, r10, fp, lr}
 1703              		.cfi_def_cfa_offset 36
 1704              		.cfi_offset 4, -36
 1705              		.cfi_offset 5, -32
 1706              		.cfi_offset 6, -28
 1707              		.cfi_offset 7, -24
 1708              		.cfi_offset 8, -20
 1709              		.cfi_offset 9, -16
 1710              		.cfi_offset 10, -12
ARM GAS  /tmp/ccXmAE9k.s 			page 31


 1711              		.cfi_offset 11, -8
 1712              		.cfi_offset 14, -4
 1713 0004 83B0     		sub	sp, sp, #12
 1714              		.cfi_def_cfa_offset 48
 1715              		.loc 1 176 0
 1716 0006 174C     		ldr	r4, .L97
 1717              		.loc 1 187 0
 1718 0008 174D     		ldr	r5, .L97+4
 1719              		.loc 1 173 0
 1720 000a DDE90E76 		ldrd	r7, r6, [sp, #56]
 1721 000e DDE90C98 		ldrd	r9, r8, [sp, #48]
 1722 0012 9346     		mov	fp, r2
 1723 0014 9A46     		mov	r10, r3
 1724 0016 CDE90010 		strd	r1, r0, [sp]
 1725              		.loc 1 174 0
 1726 001a FFF7FEFF 		bl	imu_stop
 1727              	.LVL168:
 1728              		.loc 1 176 0
 1729 001e 0198     		ldr	r0, [sp, #4]
 1730              		.loc 1 177 0
 1731 0020 0099     		ldr	r1, [sp]
 1732              		.loc 1 176 0
 1733 0022 2060     		str	r0, [r4]
 1734              		.loc 1 185 0
 1735 0024 2046     		mov	r0, r4
 1736              		.loc 1 178 0
 1737 0026 C4E9011B 		strd	r1, fp, [r4, #4]
 1738              		.loc 1 180 0
 1739 002a C4E903A9 		strd	r10, r9, [r4, #12]
 1740              		.loc 1 182 0
 1741 002e C4E90587 		strd	r8, r7, [r4, #20]
 1742              		.loc 1 183 0
 1743 0032 E661     		str	r6, [r4, #28]
 1744              		.loc 1 185 0
 1745 0034 FFF7FEFF 		bl	spi_bb_init
 1746              	.LVL169:
 1747              		.loc 1 189 0
 1748 0038 0C4C     		ldr	r4, .L97+8
 1749              		.loc 1 190 0
 1750 003a 0D4B     		ldr	r3, .L97+12
 1751              		.loc 1 192 0
 1752 003c 0D49     		ldr	r1, .L97+16
 1753              		.loc 1 187 0
 1754 003e 0022     		movs	r2, #0
 1755 0040 6A71     		strb	r2, [r5, #5]
 1756              		.loc 1 192 0
 1757 0042 2846     		mov	r0, r5
 1758              		.loc 1 188 0
 1759 0044 0126     		movs	r6, #1
 1760              		.loc 1 192 0
 1761 0046 4FF4B462 		mov	r2, #1440
 1762              		.loc 1 188 0
 1763 004a AE71     		strb	r6, [r5, #6]
 1764              		.loc 1 190 0
 1765 004c C5E90843 		strd	r4, r3, [r5, #32]
 1766              		.loc 1 192 0
 1767 0050 FFF7FEFF 		bl	bmi160_wrapper_init
ARM GAS  /tmp/ccXmAE9k.s 			page 32


 1768              	.LVL170:
 1769              		.loc 1 194 0
 1770 0054 0849     		ldr	r1, .L97+20
 1771 0056 2846     		mov	r0, r5
 1772              		.loc 1 195 0
 1773 0058 03B0     		add	sp, sp, #12
 1774              		.cfi_def_cfa_offset 36
 1775              	.LVL171:
 1776              		@ sp needed
 1777 005a BDE8F04F 		pop	{r4, r5, r6, r7, r8, r9, r10, fp, lr}
 1778              		.cfi_restore 14
 1779              		.cfi_restore 11
 1780              		.cfi_restore 10
 1781              		.cfi_restore 9
 1782              		.cfi_restore 8
 1783              		.cfi_restore 7
 1784              		.cfi_restore 6
 1785              		.cfi_restore 5
 1786              		.cfi_restore 4
 1787              		.cfi_def_cfa_offset 0
 1788              	.LVL172:
 1789              		.loc 1 194 0
 1790 005e FFF7FEBF 		b	bmi160_wrapper_set_read_callback
 1791              	.LVL173:
 1792              	.L98:
 1793 0062 00BF     		.align	2
 1794              	.L97:
 1795 0064 00000000 		.word	.LANCHOR10
 1796 0068 00000000 		.word	.LANCHOR13
 1797 006c 00000000 		.word	user_spi_read
 1798 0070 00000000 		.word	user_spi_write
 1799 0074 00000000 		.word	.LANCHOR11
 1800 0078 00000000 		.word	imu_read_callback
 1801              		.cfi_endproc
 1802              	.LFE286:
 1803              		.size	imu_init_bmi160_spi, .-imu_init_bmi160_spi
 1804              		.section	.text.imu_startup_done,"ax",%progbits
 1805              		.align	1
 1806              		.p2align 4,,15
 1807              		.global	imu_startup_done
 1808              		.syntax unified
 1809              		.thumb
 1810              		.thumb_func
 1811              		.fpu fpv4-sp-d16
 1812              		.type	imu_startup_done, %function
 1813              	imu_startup_done:
 1814              	.LFB289:
 1815              		.loc 1 214 0
 1816              		.cfi_startproc
 1817              		@ args = 0, pretend = 0, frame = 0
 1818              		@ frame_needed = 0, uses_anonymous_args = 0
 1819              		@ link register save eliminated.
 1820              		.loc 1 215 0
 1821 0000 014B     		ldr	r3, .L100
 1822              		.loc 1 216 0
 1823 0002 1878     		ldrb	r0, [r3]	@ zero_extendqisi2
 1824 0004 7047     		bx	lr
ARM GAS  /tmp/ccXmAE9k.s 			page 33


 1825              	.L101:
 1826 0006 00BF     		.align	2
 1827              	.L100:
 1828 0008 00000000 		.word	.LANCHOR1
 1829              		.cfi_endproc
 1830              	.LFE289:
 1831              		.size	imu_startup_done, .-imu_startup_done
 1832              		.section	.text.imu_get_roll,"ax",%progbits
 1833              		.align	1
 1834              		.p2align 4,,15
 1835              		.global	imu_get_roll
 1836              		.syntax unified
 1837              		.thumb
 1838              		.thumb_func
 1839              		.fpu fpv4-sp-d16
 1840              		.type	imu_get_roll, %function
 1841              	imu_get_roll:
 1842              	.LFB290:
 1843              		.loc 1 218 0
 1844              		.cfi_startproc
 1845              		@ args = 0, pretend = 0, frame = 0
 1846              		@ frame_needed = 0, uses_anonymous_args = 0
 1847              		@ link register save eliminated.
 1848              		.loc 1 219 0
 1849 0000 0148     		ldr	r0, .L103
 1850 0002 FFF7FEBF 		b	ahrs_get_roll
 1851              	.LVL174:
 1852              	.L104:
 1853 0006 00BF     		.align	2
 1854              	.L103:
 1855 0008 00000000 		.word	.LANCHOR8
 1856              		.cfi_endproc
 1857              	.LFE290:
 1858              		.size	imu_get_roll, .-imu_get_roll
 1859              		.section	.text.imu_get_pitch,"ax",%progbits
 1860              		.align	1
 1861              		.p2align 4,,15
 1862              		.global	imu_get_pitch
 1863              		.syntax unified
 1864              		.thumb
 1865              		.thumb_func
 1866              		.fpu fpv4-sp-d16
 1867              		.type	imu_get_pitch, %function
 1868              	imu_get_pitch:
 1869              	.LFB291:
 1870              		.loc 1 222 0
 1871              		.cfi_startproc
 1872              		@ args = 0, pretend = 0, frame = 0
 1873              		@ frame_needed = 0, uses_anonymous_args = 0
 1874              		@ link register save eliminated.
 1875              		.loc 1 223 0
 1876 0000 0148     		ldr	r0, .L106
 1877 0002 FFF7FEBF 		b	ahrs_get_pitch
 1878              	.LVL175:
 1879              	.L107:
 1880 0006 00BF     		.align	2
 1881              	.L106:
ARM GAS  /tmp/ccXmAE9k.s 			page 34


 1882 0008 00000000 		.word	.LANCHOR8
 1883              		.cfi_endproc
 1884              	.LFE291:
 1885              		.size	imu_get_pitch, .-imu_get_pitch
 1886              		.section	.text.imu_get_yaw,"ax",%progbits
 1887              		.align	1
 1888              		.p2align 4,,15
 1889              		.global	imu_get_yaw
 1890              		.syntax unified
 1891              		.thumb
 1892              		.thumb_func
 1893              		.fpu fpv4-sp-d16
 1894              		.type	imu_get_yaw, %function
 1895              	imu_get_yaw:
 1896              	.LFB292:
 1897              		.loc 1 226 0
 1898              		.cfi_startproc
 1899              		@ args = 0, pretend = 0, frame = 0
 1900              		@ frame_needed = 0, uses_anonymous_args = 0
 1901              		@ link register save eliminated.
 1902              		.loc 1 227 0
 1903 0000 0148     		ldr	r0, .L109
 1904 0002 FFF7FEBF 		b	ahrs_get_yaw
 1905              	.LVL176:
 1906              	.L110:
 1907 0006 00BF     		.align	2
 1908              	.L109:
 1909 0008 00000000 		.word	.LANCHOR8
 1910              		.cfi_endproc
 1911              	.LFE292:
 1912              		.size	imu_get_yaw, .-imu_get_yaw
 1913              		.section	.text.imu_get_rpy,"ax",%progbits
 1914              		.align	1
 1915              		.p2align 4,,15
 1916              		.global	imu_get_rpy
 1917              		.syntax unified
 1918              		.thumb
 1919              		.thumb_func
 1920              		.fpu fpv4-sp-d16
 1921              		.type	imu_get_rpy, %function
 1922              	imu_get_rpy:
 1923              	.LFB293:
 1924              		.loc 1 230 0
 1925              		.cfi_startproc
 1926              		@ args = 0, pretend = 0, frame = 0
 1927              		@ frame_needed = 0, uses_anonymous_args = 0
 1928              		@ link register save eliminated.
 1929              	.LVL177:
 1930              		.loc 1 231 0
 1931 0000 0149     		ldr	r1, .L112
 1932 0002 FFF7FEBF 		b	ahrs_get_roll_pitch_yaw
 1933              	.LVL178:
 1934              	.L113:
 1935 0006 00BF     		.align	2
 1936              	.L112:
 1937 0008 00000000 		.word	.LANCHOR8
 1938              		.cfi_endproc
ARM GAS  /tmp/ccXmAE9k.s 			page 35


 1939              	.LFE293:
 1940              		.size	imu_get_rpy, .-imu_get_rpy
 1941              		.section	.text.imu_get_accel,"ax",%progbits
 1942              		.align	1
 1943              		.p2align 4,,15
 1944              		.global	imu_get_accel
 1945              		.syntax unified
 1946              		.thumb
 1947              		.thumb_func
 1948              		.fpu fpv4-sp-d16
 1949              		.type	imu_get_accel, %function
 1950              	imu_get_accel:
 1951              	.LFB294:
 1952              		.loc 1 234 0
 1953              		.cfi_startproc
 1954              		@ args = 0, pretend = 0, frame = 0
 1955              		@ frame_needed = 0, uses_anonymous_args = 0
 1956              		@ link register save eliminated.
 1957              	.LVL179:
 1958 0000 10B4     		push	{r4}
 1959              		.cfi_def_cfa_offset 4
 1960              		.cfi_offset 4, -4
 1961              		.loc 1 235 0
 1962 0002 044B     		ldr	r3, .L116
 1963              		.loc 1 234 0
 1964 0004 0446     		mov	r4, r0
 1965              		.loc 1 235 0
 1966 0006 07CB     		ldmia	r3!, {r0, r1, r2}
 1967              	.LVL180:
 1968 0008 2060     		str	r0, [r4]	@ unaligned
 1969 000a 6160     		str	r1, [r4, #4]	@ unaligned
 1970 000c A260     		str	r2, [r4, #8]	@ unaligned
 1971              		.loc 1 236 0
 1972 000e 5DF8044B 		ldr	r4, [sp], #4
 1973              		.cfi_restore 4
 1974              		.cfi_def_cfa_offset 0
 1975              	.LVL181:
 1976 0012 7047     		bx	lr
 1977              	.L117:
 1978              		.align	2
 1979              	.L116:
 1980 0014 00000000 		.word	.LANCHOR5
 1981              		.cfi_endproc
 1982              	.LFE294:
 1983              		.size	imu_get_accel, .-imu_get_accel
 1984              		.section	.text.imu_get_gyro,"ax",%progbits
 1985              		.align	1
 1986              		.p2align 4,,15
 1987              		.global	imu_get_gyro
 1988              		.syntax unified
 1989              		.thumb
 1990              		.thumb_func
 1991              		.fpu fpv4-sp-d16
 1992              		.type	imu_get_gyro, %function
 1993              	imu_get_gyro:
 1994              	.LFB295:
 1995              		.loc 1 238 0
ARM GAS  /tmp/ccXmAE9k.s 			page 36


 1996              		.cfi_startproc
 1997              		@ args = 0, pretend = 0, frame = 0
 1998              		@ frame_needed = 0, uses_anonymous_args = 0
 1999              		@ link register save eliminated.
 2000              	.LVL182:
 2001 0000 10B4     		push	{r4}
 2002              		.cfi_def_cfa_offset 4
 2003              		.cfi_offset 4, -4
 2004              		.loc 1 239 0
 2005 0002 044B     		ldr	r3, .L120
 2006              		.loc 1 238 0
 2007 0004 0446     		mov	r4, r0
 2008              		.loc 1 239 0
 2009 0006 07CB     		ldmia	r3!, {r0, r1, r2}
 2010              	.LVL183:
 2011 0008 2060     		str	r0, [r4]	@ unaligned
 2012 000a 6160     		str	r1, [r4, #4]	@ unaligned
 2013 000c A260     		str	r2, [r4, #8]	@ unaligned
 2014              		.loc 1 240 0
 2015 000e 5DF8044B 		ldr	r4, [sp], #4
 2016              		.cfi_restore 4
 2017              		.cfi_def_cfa_offset 0
 2018              	.LVL184:
 2019 0012 7047     		bx	lr
 2020              	.L121:
 2021              		.align	2
 2022              	.L120:
 2023 0014 00000000 		.word	.LANCHOR6
 2024              		.cfi_endproc
 2025              	.LFE295:
 2026              		.size	imu_get_gyro, .-imu_get_gyro
 2027              		.section	.text.imu_get_mag,"ax",%progbits
 2028              		.align	1
 2029              		.p2align 4,,15
 2030              		.global	imu_get_mag
 2031              		.syntax unified
 2032              		.thumb
 2033              		.thumb_func
 2034              		.fpu fpv4-sp-d16
 2035              		.type	imu_get_mag, %function
 2036              	imu_get_mag:
 2037              	.LFB296:
 2038              		.loc 1 242 0
 2039              		.cfi_startproc
 2040              		@ args = 0, pretend = 0, frame = 0
 2041              		@ frame_needed = 0, uses_anonymous_args = 0
 2042              		@ link register save eliminated.
 2043              	.LVL185:
 2044 0000 10B4     		push	{r4}
 2045              		.cfi_def_cfa_offset 4
 2046              		.cfi_offset 4, -4
 2047              		.loc 1 243 0
 2048 0002 044B     		ldr	r3, .L124
 2049              		.loc 1 242 0
 2050 0004 0446     		mov	r4, r0
 2051              		.loc 1 243 0
 2052 0006 07CB     		ldmia	r3!, {r0, r1, r2}
ARM GAS  /tmp/ccXmAE9k.s 			page 37


 2053              	.LVL186:
 2054 0008 2060     		str	r0, [r4]	@ unaligned
 2055 000a 6160     		str	r1, [r4, #4]	@ unaligned
 2056 000c A260     		str	r2, [r4, #8]	@ unaligned
 2057              		.loc 1 244 0
 2058 000e 5DF8044B 		ldr	r4, [sp], #4
 2059              		.cfi_restore 4
 2060              		.cfi_def_cfa_offset 0
 2061              	.LVL187:
 2062 0012 7047     		bx	lr
 2063              	.L125:
 2064              		.align	2
 2065              	.L124:
 2066 0014 00000000 		.word	.LANCHOR7
 2067              		.cfi_endproc
 2068              	.LFE296:
 2069              		.size	imu_get_mag, .-imu_get_mag
 2070              		.section	.text.imu_get_accel_derotated,"ax",%progbits
 2071              		.align	1
 2072              		.p2align 4,,15
 2073              		.global	imu_get_accel_derotated
 2074              		.syntax unified
 2075              		.thumb
 2076              		.thumb_func
 2077              		.fpu fpv4-sp-d16
 2078              		.type	imu_get_accel_derotated, %function
 2079              	imu_get_accel_derotated:
 2080              	.LFB297:
 2081              		.loc 1 246 0
 2082              		.cfi_startproc
 2083              		@ args = 0, pretend = 0, frame = 16
 2084              		@ frame_needed = 0, uses_anonymous_args = 0
 2085              	.LVL188:
 2086 0000 10B5     		push	{r4, lr}
 2087              		.cfi_def_cfa_offset 8
 2088              		.cfi_offset 4, -8
 2089              		.cfi_offset 14, -4
 2090 0002 2DED0A8B 		vpush.64	{d8, d9, d10, d11, d12}
 2091              		.cfi_def_cfa_offset 48
 2092              		.cfi_offset 80, -48
 2093              		.cfi_offset 81, -44
 2094              		.cfi_offset 82, -40
 2095              		.cfi_offset 83, -36
 2096              		.cfi_offset 84, -32
 2097              		.cfi_offset 85, -28
 2098              		.cfi_offset 86, -24
 2099              		.cfi_offset 87, -20
 2100              		.cfi_offset 88, -16
 2101              		.cfi_offset 89, -12
 2102 0006 84B0     		sub	sp, sp, #16
 2103              		.cfi_def_cfa_offset 64
 2104              	.LVL189:
 2105              	.LBB66:
 2106              	.LBB67:
 2107              		.loc 1 231 0
 2108 0008 2E49     		ldr	r1, .L128
 2109              	.LBE67:
ARM GAS  /tmp/ccXmAE9k.s 			page 38


 2110              	.LBE66:
 2111              		.loc 1 246 0
 2112 000a 0446     		mov	r4, r0
 2113              	.LBB69:
 2114              	.LBB68:
 2115              		.loc 1 231 0
 2116 000c 01A8     		add	r0, sp, #4
 2117              	.LVL190:
 2118 000e FFF7FEFF 		bl	ahrs_get_roll_pitch_yaw
 2119              	.LVL191:
 2120              	.LBE68:
 2121              	.LBE69:
 2122              		.loc 1 254 0
 2123 0012 DDED018A 		vldr.32	s17, [sp, #4]
 2124              		.loc 1 250 0
 2125 0016 2C4B     		ldr	r3, .L128+4
 2126              		.loc 1 254 0
 2127 0018 B0EE680A 		vmov.f32	s0, s17
 2128              		.loc 1 251 0
 2129 001c D3ED01AA 		vldr.32	s21, [r3, #4]
 2130              		.loc 1 252 0
 2131 0020 93ED028A 		vldr.32	s16, [r3, #8]
 2132              		.loc 1 250 0
 2133 0024 D3ED00BA 		vldr.32	s23, [r3]
 2134              	.LVL192:
 2135              		.loc 1 254 0
 2136 0028 FFF7FEFF 		bl	sinf
 2137              	.LVL193:
 2138 002c B0EE40AA 		vmov.f32	s20, s0
 2139              	.LVL194:
 2140              		.loc 1 255 0
 2141 0030 B0EE680A 		vmov.f32	s0, s17
 2142              	.LVL195:
 2143 0034 FFF7FEFF 		bl	cosf
 2144              	.LVL196:
 2145              		.loc 1 256 0
 2146 0038 9DED029A 		vldr.32	s18, [sp, #8]
 2147              		.loc 1 255 0
 2148 003c F1EE408A 		vneg.f32	s17, s0
 2149              	.LVL197:
 2150              		.loc 1 256 0
 2151 0040 B0EE490A 		vmov.f32	s0, s18
 2152 0044 FFF7FEFF 		bl	sinf
 2153              	.LVL198:
 2154 0048 F0EE409A 		vmov.f32	s19, s0
 2155              	.LVL199:
 2156              		.loc 1 257 0
 2157 004c B0EE490A 		vmov.f32	s0, s18
 2158              	.LVL200:
 2159 0050 FFF7FEFF 		bl	cosf
 2160              	.LVL201:
 2161              		.loc 1 258 0
 2162 0054 9DED03CA 		vldr.32	s24, [sp, #12]
 2163              		.loc 1 257 0
 2164 0058 B1EE409A 		vneg.f32	s18, s0
 2165              	.LVL202:
 2166              		.loc 1 258 0
ARM GAS  /tmp/ccXmAE9k.s 			page 39


 2167 005c B0EE4C0A 		vmov.f32	s0, s24
 2168 0060 FFF7FEFF 		bl	sinf
 2169              	.LVL203:
 2170 0064 B0EE40BA 		vmov.f32	s22, s0
 2171              	.LVL204:
 2172              		.loc 1 259 0
 2173 0068 B0EE4C0A 		vmov.f32	s0, s24
 2174              	.LVL205:
 2175 006c FFF7FEFF 		bl	cosf
 2176              	.LVL206:
 2177              		.loc 1 261 0
 2178 0070 2AEEA97A 		vmul.f32	s14, s21, s19
 2179              		.loc 1 262 0
 2180 0074 6AEE487A 		vnmul.f32	s15, s20, s16
 2181              		.loc 1 261 0
 2182 0078 27EE0A7A 		vmul.f32	s14, s14, s20
 2183              		.loc 1 263 0
 2184 007c 6AEE896A 		vmul.f32	s13, s21, s18
 2185              		.loc 1 261 0
 2186 0080 ABEE897A 		vfma.f32	s14, s23, s18
 2187 0084 28EE296A 		vmul.f32	s12, s16, s19
 2188              		.loc 1 262 0
 2189 0088 EAEEA87A 		vfma.f32	s15, s21, s17
 2190              		.loc 1 263 0
 2191 008c 66EE8A6A 		vmul.f32	s13, s13, s20
 2192              		.loc 1 261 0
 2193 0090 A6EE287A 		vfma.f32	s14, s12, s17
 2194              	.LVL207:
 2195              		.loc 1 263 0
 2196 0094 EBEEE96A 		vfms.f32	s13, s23, s19
 2197              		.loc 1 264 0
 2198 0098 2BEE276A 		vmul.f32	s12, s22, s15
 2199              		.loc 1 263 0
 2200 009c 28EE098A 		vmul.f32	s16, s16, s18
 2201              	.LVL208:
 2202              		.loc 1 265 0
 2203 00a0 67EEC07A 		vnmul.f32	s15, s15, s0
 2204              	.LVL209:
 2205              		.loc 1 263 0
 2206 00a4 E8EE286A 		vfma.f32	s13, s16, s17
 2207              		.loc 1 264 0
 2208 00a8 A0EE076A 		vfma.f32	s12, s0, s14
 2209              	.LVL210:
 2210              		.loc 1 265 0
 2211 00ac EBEE077A 		vfma.f32	s15, s22, s14
 2212              	.LVL211:
 2213              		.loc 1 269 0
 2214 00b0 C4ED026A 		vstr.32	s13, [r4, #8]
 2215              		.loc 1 267 0
 2216 00b4 84ED006A 		vstr.32	s12, [r4]
 2217              		.loc 1 268 0
 2218 00b8 C4ED017A 		vstr.32	s15, [r4, #4]
 2219              		.loc 1 270 0
 2220 00bc 04B0     		add	sp, sp, #16
 2221              		.cfi_def_cfa_offset 48
 2222              		@ sp needed
 2223 00be BDEC0A8B 		vldm	sp!, {d8-d12}
ARM GAS  /tmp/ccXmAE9k.s 			page 40


 2224              		.cfi_restore 88
 2225              		.cfi_restore 89
 2226              		.cfi_restore 86
 2227              		.cfi_restore 87
 2228              		.cfi_restore 84
 2229              		.cfi_restore 85
 2230              		.cfi_restore 82
 2231              		.cfi_restore 83
 2232              		.cfi_restore 80
 2233              		.cfi_restore 81
 2234              		.cfi_def_cfa_offset 8
 2235              	.LVL212:
 2236 00c2 10BD     		pop	{r4, pc}
 2237              	.LVL213:
 2238              	.L129:
 2239              		.align	2
 2240              	.L128:
 2241 00c4 00000000 		.word	.LANCHOR8
 2242 00c8 00000000 		.word	.LANCHOR5
 2243              		.cfi_endproc
 2244              	.LFE297:
 2245              		.size	imu_get_accel_derotated, .-imu_get_accel_derotated
 2246              		.section	.text.imu_get_quaternions,"ax",%progbits
 2247              		.align	1
 2248              		.p2align 4,,15
 2249              		.global	imu_get_quaternions
 2250              		.syntax unified
 2251              		.thumb
 2252              		.thumb_func
 2253              		.fpu fpv4-sp-d16
 2254              		.type	imu_get_quaternions, %function
 2255              	imu_get_quaternions:
 2256              	.LFB298:
 2257              		.loc 1 272 0
 2258              		.cfi_startproc
 2259              		@ args = 0, pretend = 0, frame = 0
 2260              		@ frame_needed = 0, uses_anonymous_args = 0
 2261              		@ link register save eliminated.
 2262              	.LVL214:
 2263              		.loc 1 273 0
 2264 0000 044B     		ldr	r3, .L131
 2265 0002 1A68     		ldr	r2, [r3]	@ float
 2266 0004 0260     		str	r2, [r0]	@ float
 2267              		.loc 1 274 0
 2268 0006 5A68     		ldr	r2, [r3, #4]	@ float
 2269 0008 4260     		str	r2, [r0, #4]	@ float
 2270              		.loc 1 275 0
 2271 000a 9A68     		ldr	r2, [r3, #8]	@ float
 2272 000c 8260     		str	r2, [r0, #8]	@ float
 2273              		.loc 1 276 0
 2274 000e DB68     		ldr	r3, [r3, #12]	@ float
 2275 0010 C360     		str	r3, [r0, #12]	@ float
 2276              		.loc 1 277 0
 2277 0012 7047     		bx	lr
 2278              	.L132:
 2279              		.align	2
 2280              	.L131:
ARM GAS  /tmp/ccXmAE9k.s 			page 41


 2281 0014 00000000 		.word	.LANCHOR8
 2282              		.cfi_endproc
 2283              	.LFE298:
 2284              		.size	imu_get_quaternions, .-imu_get_quaternions
 2285              		.section	.text.imu_get_calibration,"ax",%progbits
 2286              		.align	1
 2287              		.p2align 4,,15
 2288              		.global	imu_get_calibration
 2289              		.syntax unified
 2290              		.thumb
 2291              		.thumb_func
 2292              		.fpu fpv4-sp-d16
 2293              		.type	imu_get_calibration, %function
 2294              	imu_get_calibration:
 2295              	.LFB299:
 2296              		.loc 1 279 0
 2297              		.cfi_startproc
 2298              		@ args = 0, pretend = 0, frame = 48
 2299              		@ frame_needed = 0, uses_anonymous_args = 0
 2300              	.LVL215:
 2301 0000 2DE9F04F 		push	{r4, r5, r6, r7, r8, r9, r10, fp, lr}
 2302              		.cfi_def_cfa_offset 36
 2303              		.cfi_offset 4, -36
 2304              		.cfi_offset 5, -32
 2305              		.cfi_offset 6, -28
 2306              		.cfi_offset 7, -24
 2307              		.cfi_offset 8, -20
 2308              		.cfi_offset 9, -16
 2309              		.cfi_offset 10, -12
 2310              		.cfi_offset 11, -8
 2311              		.cfi_offset 14, -4
 2312              		.loc 1 281 0
 2313 0004 8D4E     		ldr	r6, .L142
 2314 0006 8E4D     		ldr	r5, .L142+4
 2315 0008 D6ED017A 		vldr.32	s15, [r6, #4]	@ int
 2316              		.loc 1 282 0
 2317 000c 96F80180 		ldrb	r8, [r6, #1]	@ zero_extendqisi2
 2318              		.loc 1 289 0
 2319 0010 D6F830B0 		ldr	fp, [r6, #48]	@ float
 2320              		.loc 1 290 0
 2321 0014 D6F834A0 		ldr	r10, [r6, #52]	@ float
 2322              		.loc 1 291 0
 2323 0018 D6F83890 		ldr	r9, [r6, #56]	@ float
 2324              		.loc 1 279 0
 2325 001c 2DED0A8B 		vpush.64	{d8, d9, d10, d11, d12}
 2326              		.cfi_def_cfa_offset 76
 2327              		.cfi_offset 80, -76
 2328              		.cfi_offset 81, -72
 2329              		.cfi_offset 82, -68
 2330              		.cfi_offset 83, -64
 2331              		.cfi_offset 84, -60
 2332              		.cfi_offset 85, -56
 2333              		.cfi_offset 86, -52
 2334              		.cfi_offset 87, -48
 2335              		.cfi_offset 88, -44
 2336              		.cfi_offset 89, -40
 2337              		.loc 1 296 0
ARM GAS  /tmp/ccXmAE9k.s 			page 42


 2338 0020 9FED88CA 		vldr.32	s24, .L142+8
 2339              		.loc 1 283 0
 2340 0024 D6ED06BA 		vldr.32	s23, [r6, #24]
 2341              		.loc 1 284 0
 2342 0028 96ED07BA 		vldr.32	s22, [r6, #28]
 2343              		.loc 1 285 0
 2344 002c D6ED08AA 		vldr.32	s21, [r6, #32]
 2345              		.loc 1 286 0
 2346 0030 96ED09AA 		vldr.32	s20, [r6, #36]
 2347              		.loc 1 287 0
 2348 0034 D6ED0A9A 		vldr.32	s19, [r6, #40]
 2349              		.loc 1 288 0
 2350 0038 96ED0B9A 		vldr.32	s18, [r6, #44]
 2351              		.loc 1 295 0
 2352 003c 0023     		movs	r3, #0
 2353              		.loc 1 279 0
 2354 003e 8DB0     		sub	sp, sp, #52
 2355              		.cfi_def_cfa_offset 128
 2356              		.loc 1 279 0
 2357 0040 F0EE408A 		vmov.f32	s17, s0
 2358              		.loc 1 296 0
 2359 0044 B0EE4C1A 		vmov.f32	s2, s24
 2360 0048 F0EE001A 		vmov.f32	s3, #2.0e+0
 2361 004c F2EE040A 		vmov.f32	s1, #1.0e+1
 2362 0050 B7EE000A 		vmov.f32	s0, #1.0e+0
 2363              	.LVL216:
 2364              		.loc 1 294 0
 2365 0054 4FF47A74 		mov	r4, #1000
 2366              		.loc 1 281 0
 2367 0058 B8EEE78A 		vcvt.f32.s32	s16, s15
 2368              	.LVL217:
 2369              		.loc 1 279 0
 2370 005c 0746     		mov	r7, r0
 2371              		.loc 1 295 0
 2372 005e 7370     		strb	r3, [r6, #1]
 2373              		.loc 1 294 0
 2374 0060 7460     		str	r4, [r6, #4]
 2375              		.loc 1 296 0
 2376 0062 FFF7FEFF 		bl	ahrs_update_all_parameters
 2377              	.LVL218:
 2378              		.loc 1 305 0
 2379 0066 F0EE4C7A 		vmov.f32	s15, s24
 2380 006a F0EE4C5A 		vmov.f32	s11, s24
 2381 006e F0EE4C6A 		vmov.f32	s13, s24
 2382              		.loc 1 297 0
 2383 0072 86ED06CA 		vstr.32	s24, [r6, #24]
 2384              		.loc 1 298 0
 2385 0076 86ED07CA 		vstr.32	s24, [r6, #28]
 2386              		.loc 1 299 0
 2387 007a 86ED08CA 		vstr.32	s24, [r6, #32]
 2388              		.loc 1 300 0
 2389 007e 86ED09CA 		vstr.32	s24, [r6, #36]
 2390              		.loc 1 301 0
 2391 0082 86ED0ACA 		vstr.32	s24, [r6, #40]
 2392              		.loc 1 302 0
 2393 0086 86ED0BCA 		vstr.32	s24, [r6, #44]
 2394              		.loc 1 303 0
ARM GAS  /tmp/ccXmAE9k.s 			page 43


 2395 008a 86ED0CCA 		vstr.32	s24, [r6, #48]
 2396              		.loc 1 304 0
 2397 008e 86ED0DCA 		vstr.32	s24, [r6, #52]
 2398              		.loc 1 305 0
 2399 0092 86ED0ECA 		vstr.32	s24, [r6, #56]
 2400              	.LVL219:
 2401 0096 03E0     		b	.L135
 2402              	.LVL220:
 2403              	.L141:
 2404 0098 DDED015A 		vldr.32	s11, [sp, #4]
 2405 009c DDED027A 		vldr.32	s15, [sp, #8]
 2406              	.LVL221:
 2407              	.L135:
 2408              	.LBB70:
 2409              		.loc 1 310 0 discriminator 3
 2410 00a0 95ED006A 		vldr.32	s12, [r5]
 2411              		.loc 1 311 0 discriminator 3
 2412 00a4 95ED015A 		vldr.32	s10, [r5, #4]
 2413              		.loc 1 312 0 discriminator 3
 2414 00a8 95ED027A 		vldr.32	s14, [r5, #8]
 2415              		.loc 1 310 0 discriminator 3
 2416 00ac 76EE266A 		vadd.f32	s13, s12, s13
 2417              		.loc 1 311 0 discriminator 3
 2418 00b0 75EE255A 		vadd.f32	s11, s10, s11
 2419              		.loc 1 312 0 discriminator 3
 2420 00b4 77EE277A 		vadd.f32	s15, s14, s15
 2421              		.loc 1 313 0 discriminator 3
 2422 00b8 0A20     		movs	r0, #10
 2423              		.loc 1 310 0 discriminator 3
 2424 00ba CDED006A 		vstr.32	s13, [sp]
 2425              		.loc 1 311 0 discriminator 3
 2426 00be CDED015A 		vstr.32	s11, [sp, #4]
 2427              		.loc 1 312 0 discriminator 3
 2428 00c2 CDED027A 		vstr.32	s15, [sp, #8]
 2429              		.loc 1 313 0 discriminator 3
 2430 00c6 FFF7FEFF 		bl	chThdSleep
 2431              	.LVL222:
 2432              		.loc 1 309 0 discriminator 3
 2433 00ca 013C     		subs	r4, r4, #1
 2434              	.LVL223:
 2435 00cc DDED006A 		vldr.32	s13, [sp]
 2436 00d0 E2D1     		bne	.L141
 2437              	.LBE70:
 2438              		.loc 1 315 0
 2439 00d2 DFED5D7A 		vldr.32	s15, .L142+12
 2440              		.loc 1 316 0
 2441 00d6 9DED017A 		vldr.32	s14, [sp, #4]
 2442              		.loc 1 317 0
 2443 00da DDED025A 		vldr.32	s11, [sp, #8]
 2444              		.loc 1 325 0
 2445 00de 5B48     		ldr	r0, .L142+16
 2446              		.loc 1 329 0
 2447 00e0 9FED58CA 		vldr.32	s24, .L142+8
 2448              		.loc 1 315 0
 2449 00e4 86EEA76A 		vdiv.f32	s12, s13, s15
 2450              	.LBB71:
 2451              	.LBB72:
ARM GAS  /tmp/ccXmAE9k.s 			page 44


 2452              	.LBB73:
 2453              		.loc 1 219 0
 2454 00e8 0546     		mov	r5, r0
 2455              	.LBE73:
 2456              	.LBE72:
 2457              	.LBE71:
 2458              		.loc 1 326 0
 2459 00ea FA24     		movs	r4, #250
 2460              	.LVL224:
 2461              		.loc 1 316 0
 2462 00ec C7EE276A 		vdiv.f32	s13, s14, s15
 2463              		.loc 1 317 0
 2464 00f0 85EEA77A 		vdiv.f32	s14, s11, s15
 2465              		.loc 1 315 0
 2466 00f4 8DED006A 		vstr.32	s12, [sp]
 2467              		.loc 1 316 0
 2468 00f8 CDED016A 		vstr.32	s13, [sp, #4]
 2469              		.loc 1 320 0
 2470 00fc 86ED0C6A 		vstr.32	s12, [r6, #48]
 2471              		.loc 1 321 0
 2472 0100 C6ED0D6A 		vstr.32	s13, [r6, #52]
 2473              		.loc 1 317 0
 2474 0104 8DED027A 		vstr.32	s14, [sp, #8]
 2475              		.loc 1 322 0
 2476 0108 86ED0E7A 		vstr.32	s14, [r6, #56]
 2477              		.loc 1 325 0
 2478 010c FFF7FEFF 		bl	ahrs_init_attitude_info
 2479              	.LVL225:
 2480              		.loc 1 326 0
 2481 0110 43F69820 		movw	r0, #15000
 2482 0114 FFF7FEFF 		bl	chThdSleep
 2483              	.LVL226:
 2484              	.L136:
 2485              	.LBB76:
 2486              	.LBB75:
 2487              	.LBB74:
 2488              		.loc 1 219 0
 2489 0118 2846     		mov	r0, r5
 2490 011a FFF7FEFF 		bl	ahrs_get_roll
 2491              	.LVL227:
 2492              	.LBE74:
 2493              	.LBE75:
 2494              		.loc 1 332 0
 2495 011e 0A20     		movs	r0, #10
 2496              		.loc 1 331 0
 2497 0120 3CEE00CA 		vadd.f32	s24, s24, s0
 2498              	.LVL228:
 2499              		.loc 1 332 0
 2500 0124 FFF7FEFF 		bl	chThdSleep
 2501              	.LVL229:
 2502              		.loc 1 330 0
 2503 0128 013C     		subs	r4, r4, #1
 2504              	.LVL230:
 2505 012a F5D1     		bne	.L136
 2506              	.LVL231:
 2507              	.LBE76:
 2508              		.loc 1 334 0
ARM GAS  /tmp/ccXmAE9k.s 			page 45


 2509 012c DFED486A 		vldr.32	s13, .L142+20
 2510              		.loc 1 337 0
 2511 0130 DFED487A 		vldr.32	s15, .L142+24
 2512              	.LBB77:
 2513              	.LBB78:
 2514              	.LBB79:
 2515              		.loc 1 223 0
 2516 0134 454D     		ldr	r5, .L142+16
 2517              	.LBE79:
 2518              	.LBE78:
 2519              	.LBE77:
 2520              		.loc 1 340 0
 2521 0136 F269     		ldr	r2, [r6, #28]	@ float
 2522 0138 336A     		ldr	r3, [r6, #32]	@ float
 2523 013a 0492     		str	r2, [sp, #16]	@ float
 2524              		.loc 1 334 0
 2525 013c 8CEE267A 		vdiv.f32	s14, s24, s13
 2526              	.LVL232:
 2527              		.loc 1 341 0
 2528 0140 03A9     		add	r1, sp, #12
 2529 0142 6846     		mov	r0, sp
 2530              		.loc 1 340 0
 2531 0144 0593     		str	r3, [sp, #20]	@ float
 2532              		.loc 1 345 0
 2533 0146 FA24     		movs	r4, #250
 2534              	.LVL233:
 2535              		.loc 1 348 0
 2536 0148 9FED3ECA 		vldr.32	s24, .L142+8
 2537              		.loc 1 337 0
 2538 014c 67EEC77A 		vnmul.f32	s15, s15, s14
 2539 0150 C6ED067A 		vstr.32	s15, [r6, #24]
 2540              		.loc 1 340 0
 2541 0154 CDED037A 		vstr.32	s15, [sp, #12]
 2542              		.loc 1 341 0
 2543 0158 FFF7FEFF 		bl	rotate.constprop.0
 2544              	.LVL234:
 2545              		.loc 1 344 0
 2546 015c 2846     		mov	r0, r5
 2547 015e FFF7FEFF 		bl	ahrs_init_attitude_info
 2548              	.LVL235:
 2549              		.loc 1 345 0
 2550 0162 43F69820 		movw	r0, #15000
 2551 0166 FFF7FEFF 		bl	chThdSleep
 2552              	.LVL236:
 2553              	.L137:
 2554              	.LBB82:
 2555              	.LBB81:
 2556              	.LBB80:
 2557              		.loc 1 223 0
 2558 016a 2846     		mov	r0, r5
 2559 016c FFF7FEFF 		bl	ahrs_get_pitch
 2560              	.LVL237:
 2561              	.LBE80:
 2562              	.LBE81:
 2563              		.loc 1 351 0
 2564 0170 0A20     		movs	r0, #10
 2565              		.loc 1 350 0
ARM GAS  /tmp/ccXmAE9k.s 			page 46


 2566 0172 3CEE00CA 		vadd.f32	s24, s24, s0
 2567              	.LVL238:
 2568              		.loc 1 351 0
 2569 0176 FFF7FEFF 		bl	chThdSleep
 2570              	.LVL239:
 2571              		.loc 1 349 0
 2572 017a 013C     		subs	r4, r4, #1
 2573              	.LVL240:
 2574 017c F5D1     		bne	.L137
 2575              	.LVL241:
 2576              	.LBE82:
 2577              		.loc 1 353 0
 2578 017e DFED346A 		vldr.32	s13, .L142+20
 2579              		.loc 1 356 0
 2580 0182 9FED347A 		vldr.32	s14, .L142+24
 2581              		.loc 1 359 0
 2582 0186 B269     		ldr	r2, [r6, #24]	@ float
 2583 0188 336A     		ldr	r3, [r6, #32]	@ float
 2584 018a 0692     		str	r2, [sp, #24]	@ float
 2585              		.loc 1 353 0
 2586 018c CCEE267A 		vdiv.f32	s15, s24, s13
 2587              	.LVL242:
 2588              		.loc 1 360 0
 2589 0190 06A9     		add	r1, sp, #24
 2590 0192 6846     		mov	r0, sp
 2591              		.loc 1 359 0
 2592 0194 0893     		str	r3, [sp, #32]	@ float
 2593              		.loc 1 356 0
 2594 0196 67EE877A 		vmul.f32	s15, s15, s14
 2595              	.LVL243:
 2596 019a C6ED077A 		vstr.32	s15, [r6, #28]
 2597              		.loc 1 359 0
 2598 019e CDED077A 		vstr.32	s15, [sp, #28]
 2599              		.loc 1 360 0
 2600 01a2 FFF7FEFF 		bl	rotate.constprop.0
 2601              	.LVL244:
 2602              		.loc 1 366 0
 2603 01a6 B269     		ldr	r2, [r6, #24]	@ float
 2604 01a8 F369     		ldr	r3, [r6, #28]	@ float
 2605 01aa 0992     		str	r2, [sp, #36]	@ float
 2606              		.loc 1 367 0
 2607 01ac 09A9     		add	r1, sp, #36
 2608 01ae 6846     		mov	r0, sp
 2609              		.loc 1 366 0
 2610 01b0 0A93     		str	r3, [sp, #40]	@ float
 2611              		.loc 1 363 0
 2612 01b2 C6ED088A 		vstr.32	s17, [r6, #32]
 2613              		.loc 1 366 0
 2614 01b6 CDED0B8A 		vstr.32	s17, [sp, #44]
 2615              		.loc 1 367 0
 2616 01ba FFF7FEFF 		bl	rotate.constprop.0
 2617              	.LVL245:
 2618              		.loc 1 375 0
 2619 01be B369     		ldr	r3, [r6, #24]	@ float
 2620 01c0 3B60     		str	r3, [r7]	@ float
 2621              		.loc 1 376 0
 2622 01c2 F369     		ldr	r3, [r6, #28]	@ float
ARM GAS  /tmp/ccXmAE9k.s 			page 47


 2623 01c4 7B60     		str	r3, [r7, #4]	@ float
 2624              		.loc 1 377 0
 2625 01c6 336A     		ldr	r3, [r6, #32]	@ float
 2626 01c8 BB60     		str	r3, [r7, #8]	@ float
 2627              		.loc 1 378 0
 2628 01ca 736A     		ldr	r3, [r6, #36]	@ float
 2629 01cc FB60     		str	r3, [r7, #12]	@ float
 2630              		.loc 1 379 0
 2631 01ce B36A     		ldr	r3, [r6, #40]	@ float
 2632 01d0 3B61     		str	r3, [r7, #16]	@ float
 2633              		.loc 1 380 0
 2634 01d2 F36A     		ldr	r3, [r6, #44]	@ float
 2635 01d4 7B61     		str	r3, [r7, #20]	@ float
 2636              		.loc 1 381 0
 2637 01d6 336B     		ldr	r3, [r6, #48]	@ float
 2638 01d8 BB61     		str	r3, [r7, #24]	@ float
 2639              		.loc 1 382 0
 2640 01da 736B     		ldr	r3, [r6, #52]	@ float
 2641 01dc FB61     		str	r3, [r7, #28]	@ float
 2642              		.loc 1 383 0
 2643 01de B36B     		ldr	r3, [r6, #56]	@ float
 2644              		.loc 1 388 0
 2645 01e0 96ED020A 		vldr.32	s0, [r6, #8]
 2646 01e4 D6ED030A 		vldr.32	s1, [r6, #12]
 2647 01e8 96ED041A 		vldr.32	s2, [r6, #16]
 2648 01ec D6ED051A 		vldr.32	s3, [r6, #20]
 2649              		.loc 1 383 0
 2650 01f0 3B62     		str	r3, [r7, #32]	@ float
 2651              		.loc 1 386 0
 2652 01f2 BDEEC88A 		vcvt.s32.f32	s16, s16
 2653              	.LVL246:
 2654              		.loc 1 387 0
 2655 01f6 86F80180 		strb	r8, [r6, #1]
 2656              		.loc 1 386 0
 2657 01fa 86ED018A 		vstr.32	s16, [r6, #4]	@ int
 2658              		.loc 1 388 0
 2659 01fe FFF7FEFF 		bl	ahrs_update_all_parameters
 2660              	.LVL247:
 2661              		.loc 1 403 0
 2662 0202 1248     		ldr	r0, .L142+16
 2663              		.loc 1 393 0
 2664 0204 C6ED06BA 		vstr.32	s23, [r6, #24]
 2665              		.loc 1 394 0
 2666 0208 86ED07BA 		vstr.32	s22, [r6, #28]
 2667              		.loc 1 395 0
 2668 020c C6ED08AA 		vstr.32	s21, [r6, #32]
 2669              		.loc 1 396 0
 2670 0210 86ED09AA 		vstr.32	s20, [r6, #36]
 2671              		.loc 1 397 0
 2672 0214 C6ED0A9A 		vstr.32	s19, [r6, #40]
 2673              		.loc 1 398 0
 2674 0218 86ED0B9A 		vstr.32	s18, [r6, #44]
 2675              		.loc 1 399 0
 2676 021c C6F830B0 		str	fp, [r6, #48]	@ float
 2677              		.loc 1 400 0
 2678 0220 C6F834A0 		str	r10, [r6, #52]	@ float
 2679              		.loc 1 401 0
ARM GAS  /tmp/ccXmAE9k.s 			page 48


 2680 0224 C6F83890 		str	r9, [r6, #56]	@ float
 2681              		.loc 1 403 0
 2682 0228 FFF7FEFF 		bl	ahrs_init_attitude_info
 2683              	.LVL248:
 2684              		.loc 1 404 0
 2685 022c 0A48     		ldr	r0, .L142+28
 2686 022e FFF7FEFF 		bl	FusionAhrsReinitialise
 2687              	.LVL249:
 2688              		.loc 1 405 0
 2689 0232 0DB0     		add	sp, sp, #52
 2690              		.cfi_def_cfa_offset 76
 2691              		@ sp needed
 2692 0234 BDEC0A8B 		vldm	sp!, {d8-d12}
 2693              		.cfi_restore 88
 2694              		.cfi_restore 89
 2695              		.cfi_restore 86
 2696              		.cfi_restore 87
 2697              		.cfi_restore 84
 2698              		.cfi_restore 85
 2699              		.cfi_restore 82
 2700              		.cfi_restore 83
 2701              		.cfi_restore 80
 2702              		.cfi_restore 81
 2703              		.cfi_def_cfa_offset 36
 2704              	.LVL250:
 2705 0238 BDE8F08F 		pop	{r4, r5, r6, r7, r8, r9, r10, fp, pc}
 2706              	.LVL251:
 2707              	.L143:
 2708              		.align	2
 2709              	.L142:
 2710 023c 00000000 		.word	.LANCHOR3
 2711 0240 00000000 		.word	.LANCHOR6
 2712 0244 00000000 		.word	0
 2713 0248 00007A44 		.word	1148846080
 2714 024c 00000000 		.word	.LANCHOR8
 2715 0250 00007A43 		.word	1132068864
 2716 0254 E02E6542 		.word	1113927392
 2717 0258 00000000 		.word	.LANCHOR4
 2718              		.cfi_endproc
 2719              	.LFE299:
 2720              		.size	imu_get_calibration, .-imu_get_calibration
 2721              		.section	.bss.imu_ready,"aw",%nobits
 2722              		.set	.LANCHOR1,. + 0
 2723              		.type	imu_ready, %object
 2724              		.size	imu_ready, 1
 2725              	imu_ready:
 2726 0000 00       		.space	1
 2727              		.section	.bss.init_time,"aw",%nobits
 2728              		.align	2
 2729              		.set	.LANCHOR2,. + 0
 2730              		.type	init_time, %object
 2731              		.size	init_time, 4
 2732              	init_time:
 2733 0000 00000000 		.space	4
 2734              		.section	.bss.last_time.14454,"aw",%nobits
 2735              		.align	2
 2736              		.set	.LANCHOR0,. + 0
ARM GAS  /tmp/ccXmAE9k.s 			page 49


 2737              		.type	last_time.14454, %object
 2738              		.size	last_time.14454, 4
 2739              	last_time.14454:
 2740 0000 00000000 		.space	4
 2741              		.section	.bss.m_accel,"aw",%nobits
 2742              		.align	2
 2743              		.set	.LANCHOR5,. + 0
 2744              		.type	m_accel, %object
 2745              		.size	m_accel, 12
 2746              	m_accel:
 2747 0000 00000000 		.space	12
 2747      00000000 
 2747      00000000 
 2748              		.section	.bss.m_att,"aw",%nobits
 2749              		.align	2
 2750              		.set	.LANCHOR8,. + 0
 2751              		.type	m_att, %object
 2752              		.size	m_att, 36
 2753              	m_att:
 2754 0000 00000000 		.space	36
 2754      00000000 
 2754      00000000 
 2754      00000000 
 2754      00000000 
 2755              		.section	.bss.m_bmi_state,"aw",%nobits
 2756              		.align	2
 2757              		.set	.LANCHOR13,. + 0
 2758              		.type	m_bmi_state, %object
 2759              		.size	m_bmi_state, 52
 2760              	m_bmi_state:
 2761 0000 00000000 		.space	52
 2761      00000000 
 2761      00000000 
 2761      00000000 
 2761      00000000 
 2762              		.section	.bss.m_fusionAhrs,"aw",%nobits
 2763              		.align	2
 2764              		.set	.LANCHOR4,. + 0
 2765              		.type	m_fusionAhrs, %object
 2766              		.size	m_fusionAhrs, 48
 2767              	m_fusionAhrs:
 2768 0000 00000000 		.space	48
 2768      00000000 
 2768      00000000 
 2768      00000000 
 2768      00000000 
 2769              		.section	.bss.m_gyro,"aw",%nobits
 2770              		.align	2
 2771              		.set	.LANCHOR6,. + 0
 2772              		.type	m_gyro, %object
 2773              		.size	m_gyro, 12
 2774              	m_gyro:
 2775 0000 00000000 		.space	12
 2775      00000000 
 2775      00000000 
 2776              		.section	.bss.m_i2c_bb,"aw",%nobits
 2777              		.align	2
ARM GAS  /tmp/ccXmAE9k.s 			page 50


 2778              		.set	.LANCHOR9,. + 0
 2779              		.type	m_i2c_bb, %object
 2780              		.size	m_i2c_bb, 36
 2781              	m_i2c_bb:
 2782 0000 00000000 		.space	36
 2782      00000000 
 2782      00000000 
 2782      00000000 
 2782      00000000 
 2783              		.section	.bss.m_icm20948_state,"aw",%nobits
 2784              		.align	2
 2785              		.set	.LANCHOR12,. + 0
 2786              		.type	m_icm20948_state, %object
 2787              		.size	m_icm20948_state, 20
 2788              	m_icm20948_state:
 2789 0000 00000000 		.space	20
 2789      00000000 
 2789      00000000 
 2789      00000000 
 2789      00000000 
 2790              		.section	.bss.m_mag,"aw",%nobits
 2791              		.align	2
 2792              		.set	.LANCHOR7,. + 0
 2793              		.type	m_mag, %object
 2794              		.size	m_mag, 12
 2795              	m_mag:
 2796 0000 00000000 		.space	12
 2796      00000000 
 2796      00000000 
 2797              		.section	.bss.m_settings,"aw",%nobits
 2798              		.align	2
 2799              		.set	.LANCHOR3,. + 0
 2800              		.type	m_settings, %object
 2801              		.size	m_settings, 60
 2802              	m_settings:
 2803 0000 00000000 		.space	60
 2803      00000000 
 2803      00000000 
 2803      00000000 
 2803      00000000 
 2804              		.section	.bss.m_spi_bb,"aw",%nobits
 2805              		.align	2
 2806              		.set	.LANCHOR10,. + 0
 2807              		.type	m_spi_bb, %object
 2808              		.size	m_spi_bb, 52
 2809              	m_spi_bb:
 2810 0000 00000000 		.space	52
 2810      00000000 
 2810      00000000 
 2810      00000000 
 2810      00000000 
 2811              		.section	.bss.m_thd_work_area,"aw",%nobits
 2812              		.align	3
 2813              		.set	.LANCHOR11,. + 0
 2814              		.type	m_thd_work_area, %object
 2815              		.size	m_thd_work_area, 1440
 2816              	m_thd_work_area:
ARM GAS  /tmp/ccXmAE9k.s 			page 51


 2817 0000 00000000 		.space	1440
 2817      00000000 
 2817      00000000 
 2817      00000000 
 2817      00000000 
 2818              		.text
 2819              	.Letext0:
 2820              		.file 4 "/usr/lib/gcc/arm-none-eabi/7.3.1/include/stddef.h"
 2821              		.file 5 "/usr/arm-none-eabi/include/machine/_default_types.h"
 2822              		.file 6 "/usr/arm-none-eabi/include/sys/_stdint.h"
 2823              		.file 7 "ChibiOS_3.0.5/os/rt/ports/ARMCMx/compilers/GCC/chtypes.h"
 2824              		.file 8 "ChibiOS_3.0.5/os/rt/include/chsystypes.h"
 2825              		.file 9 "ChibiOS_3.0.5/os/rt/include/chschd.h"
 2826              		.file 10 "ChibiOS_3.0.5/os/ext/CMSIS/include/core_cm4.h"
 2827              		.file 11 "ChibiOS_3.0.5/os/ext/CMSIS/ST/system_stm32f4xx.h"
 2828              		.file 12 "ChibiOS_3.0.5/os/ext/CMSIS/ST/stm32f407xx.h"
 2829              		.file 13 "ChibiOS_3.0.5/os/rt/ports/ARMCMx/chcore.h"
 2830              		.file 14 "ChibiOS_3.0.5/os/rt/ports/ARMCMx/chcore_v7m.h"
 2831              		.file 15 "ChibiOS_3.0.5/os/rt/include/chtm.h"
 2832              		.file 16 "ChibiOS_3.0.5/os/rt/include/chsem.h"
 2833              		.file 17 "ChibiOS_3.0.5/os/rt/include/chmtx.h"
 2834              		.file 18 "ChibiOS_3.0.5/os/rt/include/chregistry.h"
 2835              		.file 19 "ChibiOS_3.0.5/os/rt/include/chevents.h"
 2836              		.file 20 "ChibiOS_3.0.5/os/rt/include/chqueues.h"
 2837              		.file 21 "./datatypes.h"
 2838              		.file 22 "./conf_general.h"
 2839              		.file 23 "ChibiOS_3.0.5/os/hal/ports/STM32/STM32F4xx/stm32_dma.h"
 2840              		.file 24 "ChibiOS_3.0.5/os/hal/ports/STM32/LLD/GPIOv2/pal_lld.h"
 2841              		.file 25 "ChibiOS_3.0.5/os/hal/include/can.h"
 2842              		.file 26 "ChibiOS_3.0.5/os/hal/ports/STM32/LLD/can_lld.h"
 2843              		.file 27 "ChibiOS_3.0.5/os/hal/include/i2c.h"
 2844              		.file 28 "ChibiOS_3.0.5/os/hal/ports/STM32/LLD/I2Cv1/i2c_lld.h"
 2845              		.file 29 "ChibiOS_3.0.5/os/hal/include/icu.h"
 2846              		.file 30 "ChibiOS_3.0.5/os/hal/ports/STM32/LLD/TIMv1/icu_lld.h"
 2847              		.file 31 "ChibiOS_3.0.5/os/hal/ports/STM32/LLD/TIMv1/stm32_tim.h"
 2848              		.file 32 "ChibiOS_3.0.5/os/hal/include/serial.h"
 2849              		.file 33 "ChibiOS_3.0.5/os/hal/ports/STM32/LLD/USARTv1/serial_lld.h"
 2850              		.file 34 "ChibiOS_3.0.5/os/hal/include/spi.h"
 2851              		.file 35 "ChibiOS_3.0.5/os/hal/ports/STM32/LLD/SPIv1/spi_lld.h"
 2852              		.file 36 "ChibiOS_3.0.5/os/hal/include/usb.h"
 2853              		.file 37 "ChibiOS_3.0.5/os/hal/ports/STM32/LLD/OTGv1/usb_lld.h"
 2854              		.file 38 "ChibiOS_3.0.5/os/hal/ports/STM32/LLD/OTGv1/stm32_otg.h"
 2855              		.file 39 "./i2c_bb.h"
 2856              		.file 40 "./spi_bb.h"
 2857              		.file 41 "./commands.h"
 2858              		.file 42 "imu/icm20948.h"
 2859              		.file 43 "imu/BMI160_driver/bmi160_defs.h"
 2860              		.file 44 "/usr/arm-none-eabi/include/sys/lock.h"
 2861              		.file 45 "/usr/arm-none-eabi/include/sys/_types.h"
 2862              		.file 46 "/usr/arm-none-eabi/include/sys/reent.h"
 2863              		.file 47 "/usr/arm-none-eabi/include/math.h"
 2864              		.file 48 "/usr/arm-none-eabi/include/stdlib.h"
 2865              		.file 49 "imu/bmi160_wrapper.h"
 2866              		.file 50 "./utils.h"
 2867              		.file 51 "imu/Fusion/FusionTypes.h"
 2868              		.file 52 "imu/Fusion/FusionAhrs.h"
 2869              		.file 53 "ChibiOS_3.0.5/os/rt/include/chsys.h"
ARM GAS  /tmp/ccXmAE9k.s 			page 52


 2870              		.file 54 "./timer.h"
 2871              		.file 55 "imu/ahrs.h"
 2872              		.file 56 "ChibiOS_3.0.5/os/rt/include/chthreads.h"
 2873              		.file 57 "imu/mpu9150.h"
 2874              		.file 58 "imu/lsm6ds3.h"
 2875              		.file 59 "<built-in>"