ARM GAS  /tmp/ccVqEFkj.s 			page 1


   1              		.cpu cortex-m4
   2              		.eabi_attribute 27, 1
   3              		.eabi_attribute 28, 1
   4              		.eabi_attribute 20, 1
   5              		.eabi_attribute 21, 1
   6              		.eabi_attribute 23, 3
   7              		.eabi_attribute 24, 1
   8              		.eabi_attribute 25, 1
   9              		.eabi_attribute 26, 1
  10              		.eabi_attribute 30, 2
  11              		.eabi_attribute 34, 1
  12              		.eabi_attribute 18, 4
  13              		.file	"irq_handlers.c"
  14              		.text
  15              	.Ltext0:
  16              		.cfi_sections	.debug_frame
  17              		.section	.text.Vector88,"ax",%progbits
  18              		.align	1
  19              		.p2align 4,,15
  20              		.global	Vector88
  21              		.syntax unified
  22              		.thumb
  23              		.thumb_func
  24              		.fpu fpv4-sp-d16
  25              		.type	Vector88, %function
  26              	Vector88:
  27              	.LFB256:
  28              		.file 1 "irq_handlers.c"
  29              		.loc 1 29 0
  30              		.cfi_startproc
  31              		@ args = 0, pretend = 0, frame = 0
  32              		@ frame_needed = 0, uses_anonymous_args = 0
  33 0000 08B5     		push	{r3, lr}
  34              		.cfi_def_cfa_offset 8
  35              		.cfi_offset 3, -8
  36              		.cfi_offset 14, -4
  37              		.loc 1 31 0
  38 0002 40F20741 		movw	r1, #1031
  39 0006 0448     		ldr	r0, .L4
  40 0008 FFF7FEFF 		bl	ADC_ClearITPendingBit
  41              	.LVL0:
  42              		.loc 1 32 0
  43 000c FFF7FEFF 		bl	mc_interface_adc_inj_int_handler
  44              	.LVL1:
  45              		.loc 1 34 0
  46 0010 BDE80840 		pop	{r3, lr}
  47              		.cfi_restore 14
  48              		.cfi_restore 3
  49              		.cfi_def_cfa_offset 0
  50              		.loc 1 33 0
  51 0014 FFF7FEBF 		b	_port_irq_epilogue
  52              	.LVL2:
  53              	.L5:
  54              		.align	2
  55              	.L4:
  56 0018 00200140 		.word	1073815552
  57              		.cfi_endproc
ARM GAS  /tmp/ccVqEFkj.s 			page 2


  58              	.LFE256:
  59              		.size	Vector88, .-Vector88
  60              		.section	.text.Vector9C,"ax",%progbits
  61              		.align	1
  62              		.p2align 4,,15
  63              		.global	Vector9C
  64              		.syntax unified
  65              		.thumb
  66              		.thumb_func
  67              		.fpu fpv4-sp-d16
  68              		.type	Vector9C, %function
  69              	Vector9C:
  70              	.LFB257:
  71              		.loc 1 36 0
  72              		.cfi_startproc
  73              		@ args = 0, pretend = 0, frame = 0
  74              		@ frame_needed = 0, uses_anonymous_args = 0
  75 0000 08B5     		push	{r3, lr}
  76              		.cfi_def_cfa_offset 8
  77              		.cfi_offset 3, -8
  78              		.cfi_offset 14, -4
  79              		.loc 1 37 0
  80 0002 4FF48070 		mov	r0, #256
  81 0006 FFF7FEFF 		bl	EXTI_GetITStatus
  82              	.LVL3:
  83 000a 00B9     		cbnz	r0, .L9
  84              		.loc 1 43 0
  85 000c 08BD     		pop	{r3, pc}
  86              	.L9:
  87              		.loc 1 38 0
  88 000e FFF7FEFF 		bl	encoder_reset
  89              	.LVL4:
  90              		.loc 1 41 0
  91 0012 4FF48070 		mov	r0, #256
  92              		.loc 1 43 0
  93 0016 BDE80840 		pop	{r3, lr}
  94              		.cfi_restore 14
  95              		.cfi_restore 3
  96              		.cfi_def_cfa_offset 0
  97              		.loc 1 41 0
  98 001a FFF7FEBF 		b	EXTI_ClearITPendingBit
  99              	.LVL5:
 100              		.cfi_endproc
 101              	.LFE257:
 102              		.size	Vector9C, .-Vector9C
 103 001e 00BF     		.section	.text.VectorB4,"ax",%progbits
 104              		.align	1
 105              		.p2align 4,,15
 106              		.global	VectorB4
 107              		.syntax unified
 108              		.thumb
 109              		.thumb_func
 110              		.fpu fpv4-sp-d16
 111              		.type	VectorB4, %function
 112              	VectorB4:
 113              	.LFB258:
 114              		.loc 1 45 0
ARM GAS  /tmp/ccVqEFkj.s 			page 3


 115              		.cfi_startproc
 116              		@ args = 0, pretend = 0, frame = 0
 117              		@ frame_needed = 0, uses_anonymous_args = 0
 118 0000 08B5     		push	{r3, lr}
 119              		.cfi_def_cfa_offset 8
 120              		.cfi_offset 3, -8
 121              		.cfi_offset 14, -4
 122              		.loc 1 46 0
 123 0002 0121     		movs	r1, #1
 124 0004 0648     		ldr	r0, .L14
 125 0006 FFF7FEFF 		bl	TIM_GetITStatus
 126              	.LVL6:
 127 000a 00B9     		cbnz	r0, .L13
 128              		.loc 1 52 0
 129 000c 08BD     		pop	{r3, pc}
 130              	.L13:
 131              		.loc 1 47 0
 132 000e FFF7FEFF 		bl	encoder_tim_isr
 133              	.LVL7:
 134              		.loc 1 50 0
 135 0012 0121     		movs	r1, #1
 136 0014 0248     		ldr	r0, .L14
 137              		.loc 1 52 0
 138 0016 BDE80840 		pop	{r3, lr}
 139              		.cfi_restore 14
 140              		.cfi_restore 3
 141              		.cfi_def_cfa_offset 0
 142              		.loc 1 50 0
 143 001a FFF7FEBF 		b	TIM_ClearITPendingBit
 144              	.LVL8:
 145              	.L15:
 146 001e 00BF     		.align	2
 147              	.L14:
 148 0020 00040040 		.word	1073742848
 149              		.cfi_endproc
 150              	.LFE258:
 151              		.size	VectorB4, .-VectorB4
 152              		.section	.text.VectorB0,"ax",%progbits
 153              		.align	1
 154              		.p2align 4,,15
 155              		.global	VectorB0
 156              		.syntax unified
 157              		.thumb
 158              		.thumb_func
 159              		.fpu fpv4-sp-d16
 160              		.type	VectorB0, %function
 161              	VectorB0:
 162              	.LFB259:
 163              		.loc 1 54 0
 164              		.cfi_startproc
 165              		@ args = 0, pretend = 0, frame = 0
 166              		@ frame_needed = 0, uses_anonymous_args = 0
 167 0000 08B5     		push	{r3, lr}
 168              		.cfi_def_cfa_offset 8
 169              		.cfi_offset 3, -8
 170              		.cfi_offset 14, -4
 171              		.loc 1 55 0
ARM GAS  /tmp/ccVqEFkj.s 			page 4


 172 0002 0421     		movs	r1, #4
 173 0004 4FF08040 		mov	r0, #1073741824
 174 0008 FFF7FEFF 		bl	TIM_GetITStatus
 175              	.LVL9:
 176 000c 30B1     		cbz	r0, .L17
 177              		.loc 1 56 0
 178 000e FFF7FEFF 		bl	mcpwm_foc_tim_sample_int_handler
 179              	.LVL10:
 180              		.loc 1 59 0
 181 0012 0421     		movs	r1, #4
 182 0014 4FF08040 		mov	r0, #1073741824
 183 0018 FFF7FEFF 		bl	TIM_ClearITPendingBit
 184              	.LVL11:
 185              	.L17:
 186              		.loc 1 61 0
 187 001c 0421     		movs	r1, #4
 188 001e 4FF08040 		mov	r0, #1073741824
 189              		.loc 1 62 0
 190 0022 BDE80840 		pop	{r3, lr}
 191              		.cfi_restore 14
 192              		.cfi_restore 3
 193              		.cfi_def_cfa_offset 0
 194              		.loc 1 61 0
 195 0026 FFF7FEBF 		b	TIM_ClearITPendingBit
 196              	.LVL12:
 197              		.cfi_endproc
 198              	.LFE259:
 199              		.size	VectorB0, .-VectorB0
 200 002a 00BF     		.section	.text.Vector44,"ax",%progbits
 201              		.align	1
 202              		.p2align 4,,15
 203              		.global	Vector44
 204              		.syntax unified
 205              		.thumb
 206              		.thumb_func
 207              		.fpu fpv4-sp-d16
 208              		.type	Vector44, %function
 209              	Vector44:
 210              	.LFB260:
 211              		.loc 1 64 0
 212              		.cfi_startproc
 213              		@ args = 0, pretend = 0, frame = 0
 214              		@ frame_needed = 0, uses_anonymous_args = 0
 215 0000 08B5     		push	{r3, lr}
 216              		.cfi_def_cfa_offset 8
 217              		.cfi_offset 3, -8
 218              		.cfi_offset 14, -4
 219              		.loc 1 65 0
 220 0002 4FF48030 		mov	r0, #65536
 221 0006 FFF7FEFF 		bl	EXTI_GetITStatus
 222              	.LVL13:
 223 000a 00B9     		cbnz	r0, .L25
 224              		.loc 1 74 0
 225 000c 08BD     		pop	{r3, pc}
 226              	.L25:
 227              		.loc 1 68 0
 228 000e 0122     		movs	r2, #1
ARM GAS  /tmp/ccVqEFkj.s 			page 5


 229 0010 0021     		movs	r1, #0
 230 0012 0920     		movs	r0, #9
 231 0014 FFF7FEFF 		bl	mc_interface_fault_stop
 232              	.LVL14:
 233              		.loc 1 71 0
 234 0018 4FF48030 		mov	r0, #65536
 235 001c FFF7FEFF 		bl	EXTI_ClearITPendingBit
 236              	.LVL15:
 237              		.loc 1 72 0
 238 0020 4FF48030 		mov	r0, #65536
 239              		.loc 1 74 0
 240 0024 BDE80840 		pop	{r3, lr}
 241              		.cfi_restore 14
 242              		.cfi_restore 3
 243              		.cfi_def_cfa_offset 0
 244              		.loc 1 72 0
 245 0028 FFF7FEBF 		b	EXTI_ClearFlag
 246              	.LVL16:
 247              		.cfi_endproc
 248              	.LFE260:
 249              		.size	Vector44, .-Vector44
 250              		.text
 251              	.Letext0:
 252              		.file 2 "/usr/lib/gcc/arm-none-eabi/7.3.1/include/stddef.h"
 253              		.file 3 "/usr/arm-none-eabi/include/machine/_default_types.h"
 254              		.file 4 "/usr/arm-none-eabi/include/sys/_stdint.h"
 255              		.file 5 "ChibiOS_3.0.5/os/rt/ports/ARMCMx/compilers/GCC/chtypes.h"
 256              		.file 6 "ChibiOS_3.0.5/os/rt/include/chsystypes.h"
 257              		.file 7 "ChibiOS_3.0.5/os/rt/include/chschd.h"
 258              		.file 8 "ChibiOS_3.0.5/os/ext/CMSIS/include/core_cm4.h"
 259              		.file 9 "ChibiOS_3.0.5/os/ext/CMSIS/ST/system_stm32f4xx.h"
 260              		.file 10 "ChibiOS_3.0.5/os/ext/CMSIS/ST/stm32f407xx.h"
 261              		.file 11 "ChibiOS_3.0.5/os/rt/ports/ARMCMx/chcore.h"
 262              		.file 12 "ChibiOS_3.0.5/os/rt/ports/ARMCMx/chcore_v7m.h"
 263              		.file 13 "ChibiOS_3.0.5/os/rt/include/chtm.h"
 264              		.file 14 "ChibiOS_3.0.5/os/rt/include/chsem.h"
 265              		.file 15 "ChibiOS_3.0.5/os/rt/include/chmtx.h"
 266              		.file 16 "ChibiOS_3.0.5/os/rt/include/chregistry.h"
 267              		.file 17 "ChibiOS_3.0.5/os/rt/include/chevents.h"
 268              		.file 18 "ChibiOS_3.0.5/os/rt/include/chqueues.h"
 269              		.file 19 "ChibiOS_3.0.5/os/ext/CMSIS/ST/stm32f4xx.h"
 270              		.file 20 "./datatypes.h"
 271              		.file 21 "./conf_general.h"
 272              		.file 22 "ChibiOS_3.0.5/os/hal/ports/STM32/STM32F4xx/stm32_dma.h"
 273              		.file 23 "ChibiOS_3.0.5/os/hal/ports/STM32/LLD/GPIOv2/pal_lld.h"
 274              		.file 24 "ChibiOS_3.0.5/os/hal/include/can.h"
 275              		.file 25 "ChibiOS_3.0.5/os/hal/ports/STM32/LLD/can_lld.h"
 276              		.file 26 "ChibiOS_3.0.5/os/hal/include/i2c.h"
 277              		.file 27 "ChibiOS_3.0.5/os/hal/ports/STM32/LLD/I2Cv1/i2c_lld.h"
 278              		.file 28 "ChibiOS_3.0.5/os/hal/include/icu.h"
 279              		.file 29 "ChibiOS_3.0.5/os/hal/ports/STM32/LLD/TIMv1/icu_lld.h"
 280              		.file 30 "ChibiOS_3.0.5/os/hal/ports/STM32/LLD/TIMv1/stm32_tim.h"
 281              		.file 31 "ChibiOS_3.0.5/os/hal/include/serial.h"
 282              		.file 32 "ChibiOS_3.0.5/os/hal/ports/STM32/LLD/USARTv1/serial_lld.h"
 283              		.file 33 "ChibiOS_3.0.5/os/hal/include/spi.h"
 284              		.file 34 "ChibiOS_3.0.5/os/hal/ports/STM32/LLD/SPIv1/spi_lld.h"
 285              		.file 35 "ChibiOS_3.0.5/os/hal/include/usb.h"
ARM GAS  /tmp/ccVqEFkj.s 			page 6


 286              		.file 36 "ChibiOS_3.0.5/os/hal/ports/STM32/LLD/OTGv1/usb_lld.h"
 287              		.file 37 "ChibiOS_3.0.5/os/hal/ports/STM32/LLD/OTGv1/stm32_otg.h"
 288              		.file 38 "mc_interface.h"
 289              		.file 39 "ChibiOS_3.0.5/ext/stdperiph_stm32f4/inc/stm32f4xx_exti.h"
 290              		.file 40 "ChibiOS_3.0.5/ext/stdperiph_stm32f4/inc/stm32f4xx_tim.h"
 291              		.file 41 "mcpwm_foc.h"
 292              		.file 42 "encoder.h"
 293              		.file 43 "ChibiOS_3.0.5/ext/stdperiph_stm32f4/inc/stm32f4xx_adc.h"