ARM GAS  /tmp/ccvik3Iq.s 			page 1


   1              		.cpu cortex-m4
   2              		.eabi_attribute 27, 1
   3              		.eabi_attribute 28, 1
   4              		.eabi_attribute 20, 1
   5              		.eabi_attribute 21, 1
   6              		.eabi_attribute 23, 3
   7              		.eabi_attribute 24, 1
   8              		.eabi_attribute 25, 1
   9              		.eabi_attribute 26, 1
  10              		.eabi_attribute 30, 2
  11              		.eabi_attribute 34, 1
  12              		.eabi_attribute 18, 4
  13              		.file	"lbm_c_interop.c"
  14              		.text
  15              	.Ltext0:
  16              		.cfi_sections	.debug_frame
  17              		.section	.text.eval_cps_load_and_eval,"ax",%progbits
  18              		.align	1
  19              		.p2align 4,,15
  20              		.global	eval_cps_load_and_eval
  21              		.syntax unified
  22              		.thumb
  23              		.thumb_func
  24              		.fpu fpv4-sp-d16
  25              		.type	eval_cps_load_and_eval, %function
  26              	eval_cps_load_and_eval:
  27              	.LFB45:
  28              		.file 1 "lispBM/lispBM/src/lbm_c_interop.c"
  29              		.loc 1 26 0
  30              		.cfi_startproc
  31              		@ args = 0, pretend = 0, frame = 0
  32              		@ frame_needed = 0, uses_anonymous_args = 0
  33              	.LVL0:
  34 0000 70B5     		push	{r4, r5, r6, lr}
  35              		.cfi_def_cfa_offset 16
  36              		.cfi_offset 4, -16
  37              		.cfi_offset 5, -12
  38              		.cfi_offset 6, -8
  39              		.cfi_offset 14, -4
  40              		.loc 1 26 0
  41 0002 0D46     		mov	r5, r1
  42              		.loc 1 28 0
  43 0004 FFF7FEFF 		bl	lbm_create_token_stream
  44              	.LVL1:
  45              	.LBB73:
  46              	.LBB74:
  47              		.file 2 "lispBM/lispBM/include/heap.h"
  48              		.loc 2 461 0
  49 0008 C107     		lsls	r1, r0, #31
  50 000a 4CBF     		ite	mi
  51 000c 00F07C43 		andmi	r3, r0, #-67108864
  52 0010 00F00C03 		andpl	r3, r0, #12
  53              	.LBE74:
  54              	.LBE73:
  55              		.loc 1 28 0
  56 0014 0446     		mov	r4, r0
  57              	.LVL2:
ARM GAS  /tmp/ccvik3Iq.s 			page 2


  58              		.loc 1 30 0
  59 0016 0BB9     		cbnz	r3, .L25
  60              		.loc 1 52 0
  61 0018 0020     		movs	r0, #0
  62              	.LVL3:
  63 001a 70BD     		pop	{r4, r5, r6, pc}
  64              	.LVL4:
  65              	.L25:
  66              		.loc 1 37 0
  67 001c 0021     		movs	r1, #0
  68 001e FFF7FEFF 		bl	lbm_cons
  69              	.LVL5:
  70 0022 0146     		mov	r1, r0
  71              	.LVL6:
  72              		.loc 1 38 0
  73 0024 65BB     		cbnz	r5, .L5
  74 0026 4FF48070 		mov	r0, #256
  75              	.LVL7:
  76 002a FFF7FEFF 		bl	lbm_cons
  77              	.LVL8:
  78              		.loc 1 39 0
  79 002e 2946     		mov	r1, r5
  80              		.loc 1 38 0
  81 0030 0646     		mov	r6, r0
  82              	.LVL9:
  83              		.loc 1 39 0
  84 0032 FFF7FEFF 		bl	lbm_cons
  85              	.LVL10:
  86 0036 0146     		mov	r1, r0
  87              	.LVL11:
  88 0038 41F29000 		movw	r0, #4240
  89              	.LVL12:
  90              	.L9:
  91              		.loc 1 40 0 discriminator 4
  92 003c FFF7FEFF 		bl	lbm_cons
  93              	.LVL13:
  94              		.loc 1 41 0 discriminator 4
  95 0040 0021     		movs	r1, #0
  96              		.loc 1 40 0 discriminator 4
  97 0042 0546     		mov	r5, r0
  98              	.LVL14:
  99              		.loc 1 41 0 discriminator 4
 100 0044 FFF7FEFF 		bl	lbm_cons
 101              	.LVL15:
 102              	.LBB75:
 103              	.LBB76:
 104              		.loc 2 461 0 discriminator 4
 105 0048 F207     		lsls	r2, r6, #31
 106 004a 25D5     		bpl	.L7
 107              	.LVL16:
 108              		.loc 2 461 0 is_stmt 0
 109 004c 06F07C46 		and	r6, r6, #-67108864
 110              	.LVL17:
 111              	.LBE76:
 112              	.LBE75:
 113              		.loc 1 45 0 is_stmt 1
 114 0050 B6F1805F 		cmp	r6, #268435456
ARM GAS  /tmp/ccvik3Iq.s 			page 3


 115 0054 20D1     		bne	.L7
 116              	.LVL18:
 117              	.LBB77:
 118              	.LBB78:
 119              		.loc 2 461 0
 120 0056 E907     		lsls	r1, r5, #31
 121 0058 1ED5     		bpl	.L7
 122              	.LVL19:
 123 005a 05F07C45 		and	r5, r5, #-67108864
 124              	.LVL20:
 125              	.LBE78:
 126              	.LBE77:
 127              		.loc 1 45 0
 128 005e B5F1805F 		cmp	r5, #268435456
 129 0062 19D1     		bne	.L7
 130              	.LVL21:
 131              	.LBB79:
 132              	.LBB80:
 133              		.loc 2 461 0
 134 0064 C207     		lsls	r2, r0, #31
 135 0066 17D5     		bpl	.L7
 136              	.LVL22:
 137 0068 00F07C43 		and	r3, r0, #-67108864
 138              	.LBE80:
 139              	.LBE79:
 140              		.loc 1 46 0
 141 006c B3F1805F 		cmp	r3, #268435456
 142 0070 12D1     		bne	.L7
 143              		.loc 1 51 0
 144 0072 4FF48072 		mov	r2, #256
 145 0076 0021     		movs	r1, #0
 146              		.loc 1 52 0
 147 0078 BDE87040 		pop	{r4, r5, r6, lr}
 148              		.cfi_remember_state
 149              		.cfi_restore 14
 150              		.cfi_restore 6
 151              		.cfi_restore 5
 152              		.cfi_restore 4
 153              		.cfi_def_cfa_offset 0
 154              	.LVL23:
 155              		.loc 1 51 0
 156 007c FFF7FEBF 		b	lbm_create_ctx
 157              	.LVL24:
 158              	.L5:
 159              		.cfi_restore_state
 160              		.loc 1 38 0
 161 0080 4FF48870 		mov	r0, #272
 162              	.LVL25:
 163 0084 FFF7FEFF 		bl	lbm_cons
 164              	.LVL26:
 165              		.loc 1 39 0
 166 0088 0021     		movs	r1, #0
 167              		.loc 1 38 0
 168 008a 0646     		mov	r6, r0
 169              	.LVL27:
 170              		.loc 1 39 0
 171 008c FFF7FEFF 		bl	lbm_cons
ARM GAS  /tmp/ccvik3Iq.s 			page 4


 172              	.LVL28:
 173 0090 0146     		mov	r1, r0
 174              	.LVL29:
 175 0092 4FF48550 		mov	r0, #4256
 176              	.LVL30:
 177 0096 D1E7     		b	.L9
 178              	.LVL31:
 179              	.L7:
 180              		.loc 1 48 0
 181 0098 2046     		mov	r0, r4
 182              	.LVL32:
 183 009a FFF7FEFF 		bl	lbm_memory_free
 184              	.LVL33:
 185              		.loc 1 52 0
 186 009e 0020     		movs	r0, #0
 187 00a0 70BD     		pop	{r4, r5, r6, pc}
 188              		.cfi_endproc
 189              	.LFE45:
 190              		.size	eval_cps_load_and_eval, .-eval_cps_load_and_eval
 191 00a2 00BF     		.section	.text.eval_cps_load_and_define,"ax",%progbits
 192              		.align	1
 193              		.p2align 4,,15
 194              		.global	eval_cps_load_and_define
 195              		.syntax unified
 196              		.thumb
 197              		.thumb_func
 198              		.fpu fpv4-sp-d16
 199              		.type	eval_cps_load_and_define, %function
 200              	eval_cps_load_and_define:
 201              	.LFB46:
 202              		.loc 1 54 0
 203              		.cfi_startproc
 204              		@ args = 0, pretend = 0, frame = 8
 205              		@ frame_needed = 0, uses_anonymous_args = 0
 206              	.LVL34:
 207 0000 70B5     		push	{r4, r5, r6, lr}
 208              		.cfi_def_cfa_offset 16
 209              		.cfi_offset 4, -16
 210              		.cfi_offset 5, -12
 211              		.cfi_offset 6, -8
 212              		.cfi_offset 14, -4
 213 0002 82B0     		sub	sp, sp, #8
 214              		.cfi_def_cfa_offset 24
 215              		.loc 1 54 0
 216 0004 0C46     		mov	r4, r1
 217 0006 1646     		mov	r6, r2
 218              		.loc 1 56 0
 219 0008 FFF7FEFF 		bl	lbm_create_token_stream
 220              	.LVL35:
 221 000c 0546     		mov	r5, r0
 222              	.LVL36:
 223              	.LBB81:
 224              	.LBB82:
 225              		.loc 2 461 0
 226 000e C107     		lsls	r1, r0, #31
 227 0010 4CBF     		ite	mi
 228 0012 00F07C40 		andmi	r0, r0, #-67108864
ARM GAS  /tmp/ccvik3Iq.s 			page 5


 229              	.LVL37:
 230 0016 05F00C00 		andpl	r0, r5, #12
 231              	.LBE82:
 232              	.LBE81:
 233              		.loc 1 58 0
 234 001a 08B9     		cbnz	r0, .L46
 235              	.LVL38:
 236              	.L29:
 237              		.loc 1 88 0
 238 001c 02B0     		add	sp, sp, #8
 239              		.cfi_remember_state
 240              		.cfi_def_cfa_offset 16
 241              		@ sp needed
 242 001e 70BD     		pop	{r4, r5, r6, pc}
 243              	.LVL39:
 244              	.L46:
 245              		.cfi_restore_state
 246              		.loc 1 64 0
 247 0020 01A9     		add	r1, sp, #4
 248 0022 2046     		mov	r0, r4
 249 0024 FFF7FEFF 		bl	lbm_get_symbol_by_name
 250              	.LVL40:
 251 0028 20B9     		cbnz	r0, .L30
 252              		.loc 1 65 0
 253 002a 01A9     		add	r1, sp, #4
 254 002c 2046     		mov	r0, r4
 255 002e FFF7FEFF 		bl	lbm_add_symbol
 256              	.LVL41:
 257 0032 C0B3     		cbz	r0, .L32
 258              	.L30:
 259              		.loc 1 73 0
 260 0034 0021     		movs	r1, #0
 261 0036 2846     		mov	r0, r5
 262 0038 FFF7FEFF 		bl	lbm_cons
 263              	.LVL42:
 264              		.loc 1 74 0
 265 003c 002E     		cmp	r6, #0
 266 003e 0146     		mov	r1, r0
 267 0040 0CBF     		ite	eq
 268 0042 4FF48070 		moveq	r0, #256
 269              	.LVL43:
 270 0046 4FF48870 		movne	r0, #272
 271 004a FFF7FEFF 		bl	lbm_cons
 272              	.LVL44:
 273              		.loc 1 75 0
 274 004e 0021     		movs	r1, #0
 275              		.loc 1 74 0
 276 0050 0446     		mov	r4, r0
 277              	.LVL45:
 278              		.loc 1 75 0
 279 0052 FFF7FEFF 		bl	lbm_cons
 280              	.LVL46:
 281              	.LBB83:
 282              	.LBB84:
 283              		.loc 2 481 0
 284 0056 019B     		ldr	r3, [sp, #4]
 285              	.LBE84:
ARM GAS  /tmp/ccvik3Iq.s 			page 6


 286              	.LBE83:
 287              		.loc 1 76 0
 288 0058 0146     		mov	r1, r0
 289 005a 1801     		lsls	r0, r3, #4
 290              	.LVL47:
 291 005c FFF7FEFF 		bl	lbm_cons
 292              	.LVL48:
 293              		.loc 1 77 0
 294 0060 0146     		mov	r1, r0
 295              		.loc 1 76 0
 296 0062 0646     		mov	r6, r0
 297              	.LVL49:
 298              		.loc 1 77 0
 299 0064 E020     		movs	r0, #224
 300              	.LVL50:
 301 0066 FFF7FEFF 		bl	lbm_cons
 302              	.LVL51:
 303              		.loc 1 78 0
 304 006a 0021     		movs	r1, #0
 305 006c FFF7FEFF 		bl	lbm_cons
 306              	.LVL52:
 307              	.LBB85:
 308              	.LBB86:
 309              		.loc 2 461 0
 310 0070 E207     		lsls	r2, r4, #31
 311 0072 18D5     		bpl	.L32
 312              	.LVL53:
 313 0074 04F07C44 		and	r4, r4, #-67108864
 314              	.LVL54:
 315              	.LBE86:
 316              	.LBE85:
 317              		.loc 1 81 0
 318 0078 B4F1805F 		cmp	r4, #268435456
 319 007c 13D1     		bne	.L32
 320              	.LVL55:
 321              	.LBB87:
 322              	.LBB88:
 323              		.loc 2 461 0
 324 007e F107     		lsls	r1, r6, #31
 325 0080 11D5     		bpl	.L32
 326              	.LVL56:
 327 0082 06F07C46 		and	r6, r6, #-67108864
 328              	.LVL57:
 329              	.LBE88:
 330              	.LBE87:
 331              		.loc 1 81 0
 332 0086 B6F1805F 		cmp	r6, #268435456
 333 008a 0CD1     		bne	.L32
 334              	.LVL58:
 335              	.LBB89:
 336              	.LBB90:
 337              		.loc 2 461 0
 338 008c C207     		lsls	r2, r0, #31
 339 008e 0AD5     		bpl	.L32
 340              	.LVL59:
 341 0090 00F07C43 		and	r3, r0, #-67108864
 342              	.LBE90:
ARM GAS  /tmp/ccvik3Iq.s 			page 7


 343              	.LBE89:
 344              		.loc 1 82 0
 345 0094 B3F1805F 		cmp	r3, #268435456
 346 0098 05D1     		bne	.L32
 347              		.loc 1 87 0
 348 009a 4FF48072 		mov	r2, #256
 349 009e 0021     		movs	r1, #0
 350 00a0 FFF7FEFF 		bl	lbm_create_ctx
 351              	.LVL60:
 352 00a4 BAE7     		b	.L29
 353              	.L32:
 354              		.loc 1 84 0
 355 00a6 2846     		mov	r0, r5
 356 00a8 FFF7FEFF 		bl	lbm_memory_free
 357              	.LVL61:
 358              		.loc 1 85 0
 359 00ac 0020     		movs	r0, #0
 360              		.loc 1 88 0
 361 00ae 02B0     		add	sp, sp, #8
 362              		.cfi_def_cfa_offset 16
 363              		@ sp needed
 364 00b0 70BD     		pop	{r4, r5, r6, pc}
 365              		.cfi_endproc
 366              	.LFE46:
 367              		.size	eval_cps_load_and_define, .-eval_cps_load_and_define
 368 00b2 00BF     		.section	.text.lbm_eval_defined,"ax",%progbits
 369              		.align	1
 370              		.p2align 4,,15
 371              		.global	lbm_eval_defined
 372              		.syntax unified
 373              		.thumb
 374              		.thumb_func
 375              		.fpu fpv4-sp-d16
 376              		.type	lbm_eval_defined, %function
 377              	lbm_eval_defined:
 378              	.LFB47:
 379              		.loc 1 90 0
 380              		.cfi_startproc
 381              		@ args = 0, pretend = 0, frame = 8
 382              		@ frame_needed = 0, uses_anonymous_args = 0
 383              	.LVL62:
 384 0000 30B5     		push	{r4, r5, lr}
 385              		.cfi_def_cfa_offset 12
 386              		.cfi_offset 4, -12
 387              		.cfi_offset 5, -8
 388              		.cfi_offset 14, -4
 389 0002 83B0     		sub	sp, sp, #12
 390              		.cfi_def_cfa_offset 24
 391              		.loc 1 90 0
 392 0004 0D46     		mov	r5, r1
 393              		.loc 1 94 0
 394 0006 01A9     		add	r1, sp, #4
 395              	.LVL63:
 396 0008 FFF7FEFF 		bl	lbm_get_symbol_by_name
 397              	.LVL64:
 398 000c 10B9     		cbnz	r0, .L48
 399              	.L53:
ARM GAS  /tmp/ccvik3Iq.s 			page 8


 400              		.loc 1 96 0
 401 000e 0020     		movs	r0, #0
 402              	.L49:
 403              		.loc 1 121 0
 404 0010 03B0     		add	sp, sp, #12
 405              		.cfi_remember_state
 406              		.cfi_def_cfa_offset 12
 407              		@ sp needed
 408 0012 30BD     		pop	{r4, r5, pc}
 409              	.L48:
 410              		.cfi_restore_state
 411              	.LVL65:
 412              	.LBB91:
 413              	.LBB92:
 414              		.loc 2 481 0
 415 0014 0198     		ldr	r0, [sp, #4]
 416 0016 0401     		lsls	r4, r0, #4
 417              	.LVL66:
 418              	.LBE92:
 419              	.LBE91:
 420              		.loc 1 99 0
 421 0018 FFF7FEFF 		bl	lbm_get_env_ptr
 422              	.LVL67:
 423 001c 0168     		ldr	r1, [r0]
 424 001e 2046     		mov	r0, r4
 425 0020 FFF7FEFF 		bl	lbm_env_lookup
 426              	.LVL68:
 427              	.LBB93:
 428              	.LBB94:
 429              		.loc 2 461 0
 430 0024 C107     		lsls	r1, r0, #31
 431 0026 4CBF     		ite	mi
 432 0028 00F07C43 		andmi	r3, r0, #-67108864
 433 002c 00F00C03 		andpl	r3, r0, #12
 434              	.LBE94:
 435              	.LBE93:
 436              		.loc 1 101 0
 437 0030 13B9     		cbnz	r3, .L52
 438              	.LBB95:
 439              	.LBB96:
 440              		.loc 2 529 0
 441 0032 0009     		lsrs	r0, r0, #4
 442              	.LVL69:
 443              	.LBE96:
 444              	.LBE95:
 445              		.loc 1 101 0
 446 0034 2928     		cmp	r0, #41
 447 0036 EAD0     		beq	.L53
 448              	.L52:
 449              	.LBB97:
 450              	.LBB98:
 451              		.loc 2 481 0
 452 0038 0198     		ldr	r0, [sp, #4]
 453              	.LBE98:
 454              	.LBE97:
 455              		.loc 1 108 0
 456 003a 0021     		movs	r1, #0
ARM GAS  /tmp/ccvik3Iq.s 			page 9


 457 003c 0001     		lsls	r0, r0, #4
 458 003e FFF7FEFF 		bl	lbm_cons
 459              	.LVL70:
 460              		.loc 1 110 0
 461 0042 002D     		cmp	r5, #0
 462              		.loc 1 108 0
 463 0044 0446     		mov	r4, r0
 464              	.LVL71:
 465              		.loc 1 110 0
 466 0046 2146     		mov	r1, r4
 467 0048 41F29000 		movw	r0, #4240
 468              	.LVL72:
 469 004c 18BF     		it	ne
 470 004e 4FF48550 		movne	r0, #4256
 471 0052 FFF7FEFF 		bl	lbm_cons
 472              	.LVL73:
 473              		.loc 1 111 0
 474 0056 0021     		movs	r1, #0
 475              		.loc 1 110 0
 476 0058 0546     		mov	r5, r0
 477              	.LVL74:
 478              		.loc 1 111 0
 479 005a FFF7FEFF 		bl	lbm_cons
 480              	.LVL75:
 481              	.LBB99:
 482              	.LBB100:
 483              		.loc 2 461 0
 484 005e E207     		lsls	r2, r4, #31
 485 0060 D5D5     		bpl	.L53
 486              	.LVL76:
 487 0062 04F07C44 		and	r4, r4, #-67108864
 488              	.LVL77:
 489              	.LBE100:
 490              	.LBE99:
 491              		.loc 1 115 0
 492 0066 B4F1805F 		cmp	r4, #268435456
 493 006a D0D1     		bne	.L53
 494              	.LVL78:
 495              	.LBB101:
 496              	.LBB102:
 497              		.loc 2 461 0
 498 006c E907     		lsls	r1, r5, #31
 499 006e CED5     		bpl	.L53
 500              	.LVL79:
 501 0070 05F07C45 		and	r5, r5, #-67108864
 502              	.LVL80:
 503              	.LBE102:
 504              	.LBE101:
 505              		.loc 1 115 0
 506 0074 B5F1805F 		cmp	r5, #268435456
 507 0078 C9D1     		bne	.L53
 508              	.LVL81:
 509              	.LBB103:
 510              	.LBB104:
 511              		.loc 2 461 0
 512 007a C207     		lsls	r2, r0, #31
 513 007c C7D5     		bpl	.L53
ARM GAS  /tmp/ccvik3Iq.s 			page 10


 514              	.LVL82:
 515 007e 00F07C43 		and	r3, r0, #-67108864
 516              	.LBE104:
 517              	.LBE103:
 518              		.loc 1 116 0
 519 0082 B3F1805F 		cmp	r3, #268435456
 520 0086 C2D1     		bne	.L53
 521              		.loc 1 120 0
 522 0088 4FF48072 		mov	r2, #256
 523 008c 0021     		movs	r1, #0
 524 008e FFF7FEFF 		bl	lbm_create_ctx
 525              	.LVL83:
 526 0092 BDE7     		b	.L49
 527              		.cfi_endproc
 528              	.LFE47:
 529              		.size	lbm_eval_defined, .-lbm_eval_defined
 530              		.section	.text.lbm_load_and_eval_expression,"ax",%progbits
 531              		.align	1
 532              		.p2align 4,,15
 533              		.global	lbm_load_and_eval_expression
 534              		.syntax unified
 535              		.thumb
 536              		.thumb_func
 537              		.fpu fpv4-sp-d16
 538              		.type	lbm_load_and_eval_expression, %function
 539              	lbm_load_and_eval_expression:
 540              	.LFB48:
 541              		.loc 1 125 0
 542              		.cfi_startproc
 543              		@ args = 0, pretend = 0, frame = 0
 544              		@ frame_needed = 0, uses_anonymous_args = 0
 545              		@ link register save eliminated.
 546              	.LVL84:
 547              		.loc 1 126 0
 548 0000 0021     		movs	r1, #0
 549 0002 FFF7FEBF 		b	eval_cps_load_and_eval
 550              	.LVL85:
 551              		.cfi_endproc
 552              	.LFE48:
 553              		.size	lbm_load_and_eval_expression, .-lbm_load_and_eval_expression
 554 0006 00BF     		.section	.text.lbm_load_and_define_expression,"ax",%progbits
 555              		.align	1
 556              		.p2align 4,,15
 557              		.global	lbm_load_and_define_expression
 558              		.syntax unified
 559              		.thumb
 560              		.thumb_func
 561              		.fpu fpv4-sp-d16
 562              		.type	lbm_load_and_define_expression, %function
 563              	lbm_load_and_define_expression:
 564              	.LFB49:
 565              		.loc 1 129 0
 566              		.cfi_startproc
 567              		@ args = 0, pretend = 0, frame = 0
 568              		@ frame_needed = 0, uses_anonymous_args = 0
 569              		@ link register save eliminated.
 570              	.LVL86:
ARM GAS  /tmp/ccvik3Iq.s 			page 11


 571              		.loc 1 130 0
 572 0000 0022     		movs	r2, #0
 573 0002 FFF7FEBF 		b	eval_cps_load_and_define
 574              	.LVL87:
 575              		.cfi_endproc
 576              	.LFE49:
 577              		.size	lbm_load_and_define_expression, .-lbm_load_and_define_expression
 578 0006 00BF     		.section	.text.lbm_load_and_eval_program,"ax",%progbits
 579              		.align	1
 580              		.p2align 4,,15
 581              		.global	lbm_load_and_eval_program
 582              		.syntax unified
 583              		.thumb
 584              		.thumb_func
 585              		.fpu fpv4-sp-d16
 586              		.type	lbm_load_and_eval_program, %function
 587              	lbm_load_and_eval_program:
 588              	.LFB50:
 589              		.loc 1 133 0
 590              		.cfi_startproc
 591              		@ args = 0, pretend = 0, frame = 0
 592              		@ frame_needed = 0, uses_anonymous_args = 0
 593              		@ link register save eliminated.
 594              	.LVL88:
 595              		.loc 1 134 0
 596 0000 0121     		movs	r1, #1
 597 0002 FFF7FEBF 		b	eval_cps_load_and_eval
 598              	.LVL89:
 599              		.cfi_endproc
 600              	.LFE50:
 601              		.size	lbm_load_and_eval_program, .-lbm_load_and_eval_program
 602 0006 00BF     		.section	.text.lbm_load_and_define_program,"ax",%progbits
 603              		.align	1
 604              		.p2align 4,,15
 605              		.global	lbm_load_and_define_program
 606              		.syntax unified
 607              		.thumb
 608              		.thumb_func
 609              		.fpu fpv4-sp-d16
 610              		.type	lbm_load_and_define_program, %function
 611              	lbm_load_and_define_program:
 612              	.LFB51:
 613              		.loc 1 137 0
 614              		.cfi_startproc
 615              		@ args = 0, pretend = 0, frame = 0
 616              		@ frame_needed = 0, uses_anonymous_args = 0
 617              		@ link register save eliminated.
 618              	.LVL90:
 619              		.loc 1 138 0
 620 0000 0122     		movs	r2, #1
 621 0002 FFF7FEBF 		b	eval_cps_load_and_define
 622              	.LVL91:
 623              		.cfi_endproc
 624              	.LFE51:
 625              		.size	lbm_load_and_define_program, .-lbm_load_and_define_program
 626 0006 00BF     		.section	.text.lbm_eval_defined_expression,"ax",%progbits
 627              		.align	1
ARM GAS  /tmp/ccvik3Iq.s 			page 12


 628              		.p2align 4,,15
 629              		.global	lbm_eval_defined_expression
 630              		.syntax unified
 631              		.thumb
 632              		.thumb_func
 633              		.fpu fpv4-sp-d16
 634              		.type	lbm_eval_defined_expression, %function
 635              	lbm_eval_defined_expression:
 636              	.LFB52:
 637              		.loc 1 141 0
 638              		.cfi_startproc
 639              		@ args = 0, pretend = 0, frame = 0
 640              		@ frame_needed = 0, uses_anonymous_args = 0
 641              		@ link register save eliminated.
 642              	.LVL92:
 643              		.loc 1 142 0
 644 0000 0021     		movs	r1, #0
 645 0002 FFF7FEBF 		b	lbm_eval_defined
 646              	.LVL93:
 647              		.cfi_endproc
 648              	.LFE52:
 649              		.size	lbm_eval_defined_expression, .-lbm_eval_defined_expression
 650 0006 00BF     		.section	.text.lbm_eval_defined_program,"ax",%progbits
 651              		.align	1
 652              		.p2align 4,,15
 653              		.global	lbm_eval_defined_program
 654              		.syntax unified
 655              		.thumb
 656              		.thumb_func
 657              		.fpu fpv4-sp-d16
 658              		.type	lbm_eval_defined_program, %function
 659              	lbm_eval_defined_program:
 660              	.LFB53:
 661              		.loc 1 145 0
 662              		.cfi_startproc
 663              		@ args = 0, pretend = 0, frame = 0
 664              		@ frame_needed = 0, uses_anonymous_args = 0
 665              		@ link register save eliminated.
 666              	.LVL94:
 667              		.loc 1 146 0
 668 0000 0121     		movs	r1, #1
 669 0002 FFF7FEBF 		b	lbm_eval_defined
 670              	.LVL95:
 671              		.cfi_endproc
 672              	.LFE53:
 673              		.size	lbm_eval_defined_program, .-lbm_eval_defined_program
 674 0006 00BF     		.section	.text.lbm_send_message,"ax",%progbits
 675              		.align	1
 676              		.p2align 4,,15
 677              		.global	lbm_send_message
 678              		.syntax unified
 679              		.thumb
 680              		.thumb_func
 681              		.fpu fpv4-sp-d16
 682              		.type	lbm_send_message, %function
 683              	lbm_send_message:
 684              	.LFB54:
ARM GAS  /tmp/ccvik3Iq.s 			page 13


 685              		.loc 1 149 0
 686              		.cfi_startproc
 687              		@ args = 0, pretend = 0, frame = 0
 688              		@ frame_needed = 0, uses_anonymous_args = 0
 689              	.LVL96:
 690 0000 38B5     		push	{r3, r4, r5, lr}
 691              		.cfi_def_cfa_offset 16
 692              		.cfi_offset 3, -16
 693              		.cfi_offset 4, -12
 694              		.cfi_offset 5, -8
 695              		.cfi_offset 14, -4
 696              		.loc 1 149 0
 697 0002 0446     		mov	r4, r0
 698 0004 0D46     		mov	r5, r1
 699              		.loc 1 152 0
 700 0006 FFF7FEFF 		bl	lbm_get_eval_state
 701              	.LVL97:
 702 000a 0128     		cmp	r0, #1
 703 000c 01D0     		beq	.L76
 704              	.L80:
 705              		.loc 1 150 0
 706 000e 0020     		movs	r0, #0
 707              		.loc 1 162 0
 708 0010 38BD     		pop	{r3, r4, r5, pc}
 709              	.LVL98:
 710              	.L76:
 711              	.LBB105:
 712              		.loc 1 154 0
 713 0012 2946     		mov	r1, r5
 714 0014 2046     		mov	r0, r4
 715 0016 FFF7FEFF 		bl	lbm_find_receiver_and_send
 716              	.LVL99:
 717              	.LBB106:
 718              	.LBB107:
 719              		.loc 2 461 0
 720 001a C307     		lsls	r3, r0, #31
 721 001c 4CBF     		ite	mi
 722 001e 00F07C43 		andmi	r3, r0, #-67108864
 723 0022 00F00C03 		andpl	r3, r0, #12
 724              	.LBE107:
 725              	.LBE106:
 726              		.loc 1 156 0
 727 0026 002B     		cmp	r3, #0
 728 0028 F1D1     		bne	.L80
 729              	.LBB108:
 730              	.LBB109:
 731              		.loc 2 529 0
 732 002a 0009     		lsrs	r0, r0, #4
 733              	.LVL100:
 734              	.LBE109:
 735              	.LBE108:
 736              		.loc 1 156 0
 737 002c A0F10200 		sub	r0, #2
 738 0030 B0FA80F0 		clz	r0, r0
 739 0034 4009     		lsrs	r0, r0, #5
 740              	.LVL101:
 741              	.LBE105:
ARM GAS  /tmp/ccvik3Iq.s 			page 14


 742              		.loc 1 162 0
 743 0036 38BD     		pop	{r3, r4, r5, pc}
 744              		.cfi_endproc
 745              	.LFE54:
 746              		.size	lbm_send_message, .-lbm_send_message
 747              		.section	.text.lbm_define,"ax",%progbits
 748              		.align	1
 749              		.p2align 4,,15
 750              		.global	lbm_define
 751              		.syntax unified
 752              		.thumb
 753              		.thumb_func
 754              		.fpu fpv4-sp-d16
 755              		.type	lbm_define, %function
 756              	lbm_define:
 757              	.LFB55:
 758              		.loc 1 164 0
 759              		.cfi_startproc
 760              		@ args = 0, pretend = 0, frame = 8
 761              		@ frame_needed = 0, uses_anonymous_args = 0
 762              	.LVL102:
 763 0000 30B5     		push	{r4, r5, lr}
 764              		.cfi_def_cfa_offset 12
 765              		.cfi_offset 4, -12
 766              		.cfi_offset 5, -8
 767              		.cfi_offset 14, -4
 768 0002 83B0     		sub	sp, sp, #12
 769              		.cfi_def_cfa_offset 24
 770              		.loc 1 164 0
 771 0004 0446     		mov	r4, r0
 772 0006 0D46     		mov	r5, r1
 773              		.loc 1 168 0
 774 0008 FFF7FEFF 		bl	lbm_get_eval_state
 775              	.LVL103:
 776 000c 0128     		cmp	r0, #1
 777 000e 02D0     		beq	.L92
 778              	.L84:
 779              		.loc 1 178 0
 780 0010 0020     		movs	r0, #0
 781 0012 03B0     		add	sp, sp, #12
 782              		.cfi_remember_state
 783              		.cfi_def_cfa_offset 12
 784              		@ sp needed
 785 0014 30BD     		pop	{r4, r5, pc}
 786              	.LVL104:
 787              	.L92:
 788              		.cfi_restore_state
 789              		.loc 1 170 0
 790 0016 01A9     		add	r1, sp, #4
 791 0018 2046     		mov	r0, r4
 792 001a FFF7FEFF 		bl	lbm_get_symbol_by_name
 793              	.LVL105:
 794 001e 28B9     		cbnz	r0, .L87
 795              		.loc 1 171 0
 796 0020 01A9     		add	r1, sp, #4
 797 0022 2046     		mov	r0, r4
 798 0024 FFF7FEFF 		bl	lbm_add_symbol_const
ARM GAS  /tmp/ccvik3Iq.s 			page 15


 799              	.LVL106:
 800 0028 0028     		cmp	r0, #0
 801 002a F1D0     		beq	.L84
 802              	.L87:
 803              		.loc 1 175 0
 804 002c FFF7FEFF 		bl	lbm_get_env
 805              	.LVL107:
 806              	.LBB110:
 807              	.LBB111:
 808              		.loc 2 481 0
 809 0030 0199     		ldr	r1, [sp, #4]
 810              	.LBE111:
 811              	.LBE110:
 812              		.loc 1 175 0
 813 0032 2A46     		mov	r2, r5
 814 0034 0901     		lsls	r1, r1, #4
 815 0036 FFF7FEFF 		bl	lbm_env_set
 816              	.LVL108:
 817              		.loc 1 178 0
 818 003a 0020     		movs	r0, #0
 819 003c 03B0     		add	sp, sp, #12
 820              		.cfi_def_cfa_offset 12
 821              		@ sp needed
 822 003e 30BD     		pop	{r4, r5, pc}
 823              		.cfi_endproc
 824              	.LFE55:
 825              		.size	lbm_define, .-lbm_define
 826              		.text
 827              	.Letext0:
 828              		.file 3 "/usr/arm-none-eabi/include/machine/_default_types.h"
 829              		.file 4 "/usr/arm-none-eabi/include/sys/_stdint.h"
 830              		.file 5 "lispBM/lispBM/include/lbm_types.h"
 831              		.file 6 "/usr/arm-none-eabi/include/sys/lock.h"
 832              		.file 7 "/usr/arm-none-eabi/include/sys/_types.h"
 833              		.file 8 "/usr/lib/gcc/arm-none-eabi/7.3.1/include/stddef.h"
 834              		.file 9 "/usr/arm-none-eabi/include/sys/reent.h"
 835              		.file 10 "/usr/arm-none-eabi/include/stdlib.h"
 836              		.file 11 "lispBM/lispBM/include/eval_cps.h"
 837              		.file 12 "lispBM/lispBM/include/symrepr.h"
 838              		.file 13 "lispBM/lispBM/include/env.h"
 839              		.file 14 "lispBM/lispBM/include/lbm_memory.h"