ARM GAS  /tmp/ccvik3Iq.s 			page 1


   1              		.cpu cortex-m4
   2              		.eabi_attribute 27, 1
   3              		.eabi_attribute 28, 1
   4              		.eabi_attribute 20, 1
   5              		.eabi_attribute 21, 1
   6              		.eabi_attribute 23, 3
   7              		.eabi_attribute 24, 1
   8              		.eabi_attribute 25, 1
   9              		.eabi_attribute 26, 1
  10              		.eabi_attribute 30, 2
  11              		.eabi_attribute 34, 1
  12              		.eabi_attribute 18, 4
  13              		.file	"lbm_c_interop.c"
  14              		.text
  15              	.Ltext0:
  16              		.cfi_sections	.debug_frame
  17              		.section	.text.eval_cps_load_and_eval,"ax",%progbits
  18              		.align	1
  19              		.p2align 4,,15
  20              		.global	eval_cps_load_and_eval
  21              		.syntax unified
  22              		.thumb
  23              		.thumb_func
  24              		.fpu fpv4-sp-d16
  25              		.type	eval_cps_load_and_eval, %function
  26              	eval_cps_load_and_eval:
  27              	.LFB45:
  28              		.file 1 "lispBM/lispBM/src/lbm_c_interop.c"
  29              		.loc 1 26 0
  30              		.cfi_startproc
  31              		@ args = 0, pretend = 0, frame = 0
  32              		@ frame_needed = 0, uses_anonymous_args = 0
  33              	.LVL0:
  34 0000 70B5     		push	{r4, r5, r6, lr}
  35              		.cfi_def_cfa_offset 16
  36              		.cfi_offset 4, -16
  37              		.cfi_offset 5, -12
  38              		.cfi_offset 6, -8
  39              		.cfi_offset 14, -4
  40              		.loc 1 26 0
  41 0002 0D46     		mov	r5, r1
  42              		.loc 1 28 0
  43 0004 FFF7FEFF 		bl	lbm_create_token_stream
  44              	.LVL1:
  45              	.LBB73:
  46              	.LBB74:
  47              		.file 2 "lispBM/lispBM/include/heap.h"
  48              		.loc 2 461 0
  49 0008 C107     		lsls	r1, r0, #31
  50 000a 4CBF     		ite	mi
  51 000c 00F07C43 		andmi	r3, r0, #-67108864
  52 0010 00F00C03 		andpl	r3, r0, #12
  53              	.LBE74:
  54              	.LBE73:
  55              		.loc 1 28 0
  56 0014 0446     		mov	r4, r0
  57              	.LVL2:
ARM GAS  /tmp/ccvik3Iq.s 			page 2


  58              		.loc 1 30 0
  59 0016 0BB9     		cbnz	r3, .L25
  60              		.loc 1 52 0
  61 0018 0020     		movs	r0, #0
  62              	.LVL3:
  63 001a 70BD     		pop	{r4, r5, r6, pc}
  64              	.LVL4:
  65              	.L25:
  66              		.loc 1 37 0
  67 001c 0021     		movs	r1, #0
  68 001e FFF7FEFF 		bl	lbm_cons
  69              	.LVL5:
  70 0022 0146     		mov	r1, r0
  71              	.LVL6:
  72              		.loc 1 38 0
  73 0024 65BB     		cbnz	r5, .L5
  74 0026 4FF48070 		mov	r0, #256
  75              	.LVL7:
  76 002a FFF7FEFF 		bl	lbm_cons
  77              	.LVL8:
  78              		.loc 1 39 0
  79 002e 2946     		mov	r1, r5
  80              		.loc 1 38 0
  81 0030 0646     		mov	r6, r0
  82              	.LVL9:
  83              		.loc 1 39 0
  84 0032 FFF7FEFF 		bl	lbm_cons
  85              	.LVL10:
  86 0036 0146     		mov	r1, r0
  87              	.LVL11:
  88 0038 41F29000 		movw	r0, #4240
  89              	.LVL12:
  90              	.L9:
  91              		.loc 1 40 0 discriminator 4
  92 003c FFF7FEFF 		bl	lbm_cons
  93              	.LVL13:
  94              		.loc 1 41 0 discriminator 4
  95 0040 0021     		movs	r1, #0
  96              		.loc 1 40 0 discriminator 4
  97 0042 0546     		mov	r5, r0
  98              	.LVL14:
  99              		.loc 1 41 0 discriminator 4
 100 0044 FFF7FEFF 		bl	lbm_cons
 101              	.LVL15:
 102              	.LBB75:
 103              	.LBB76:
 104              		.loc 2 461 0 discriminator 4
 105 0048 F207     		lsls	r2, r6, #31
 106 004a 25D5     		bpl	.L7
 107              	.LVL16:
 108              		.loc 2 461 0 is_stmt 0
 109 004c 06F07C46 		and	r6, r6, #-67108864
 110              	.LVL17:
 111              	.LBE76:
 112              	.LBE75:
 113              		.loc 1 45 0 is_stmt 1
 114 0050 B6F1805F 		cmp	r6, #268435456
ARM GAS  /tmp/ccvik3Iq.s 			page 3


 115 0054 20D1     		bne	.L7
 116              	.LVL18:
 117              	.LBB77:
 118              	.LBB78:
 119              		.loc 2 461 0
 120 0056 E907     		lsls	r1, r5, #31
 121 0058 1ED5     		bpl	.L7
 122              	.LVL19:
 123 005a 05F07C45 		and	r5, r5, #-67108864
 124              	.LVL20:
 125              	.LBE78:
 126              	.LBE77:
 127              		.loc 1 45 0
 128 005e B5F1805F 		cmp	r5, #268435456
 129 0062 19D1     		bne	.L7
 130              	.LVL21:
 131              	.LBB79:
 132              	.LBB80:
 133              		.loc 2 461 0
 134 0064 C207     		lsls	r2, r0, #31
 135 0066 17D5     		bpl	.L7
 136              	.LVL22:
 137 0068 00F07C43 		and	r3, r0, #-67108864
 138              	.LBE80:
 139              	.LBE79:
 140              		.loc 1 46 0
 141 006c B3F1805F 		cmp	r3, #268435456
 142 0070 12D1     		bne	.L7
 143              		.loc 1 51 0
 144 0072 4FF48072 		mov	r2, #256
 145 0076 0021     		movs	r1, #0
 146              		.loc 1 52 0
 147 0078 BDE87040 		pop	{r4, r5, r6, lr}
 148              		.cfi_remember_state
 149              		.cfi_restore 14
 150              		.cfi_restore 6
 151              		.cfi_restore 5
 152              		.cfi_restore 4
 153              		.cfi_def_cfa_offset 0
 154              	.LVL23:
 155              		.loc 1 51 0
 156 007c FFF7FEBF 		b	lbm_create_ctx
 157              	.LVL24:
 158              	.L5:
 159              		.cfi_restore_state
 160              		.loc 1 38 0
 161 0080 4FF48870 		mov	r0, #272
 162              	.LVL25:
 163 0084 FFF7FEFF 		bl	lbm_cons
 164              	.LVL26:
 165              		.loc 1 39 0
 166 0088 0021     		movs	r1, #0
 167              		.loc 1 38 0
 168 008a 0646     		mov	r6, r0
 169              	.LVL27:
 170              		.loc 1 39 0
 171 008c FFF7FEFF 		bl	lbm_cons
ARM GAS  /tmp/ccvik3Iq.s 			page 4


 172              	.LVL28:
 173 0090 0146     		mov	r1, r0
 174              	.LVL29:
 175 0092 4FF48550 		mov	r0, #4256
 176              	.LVL30:
 177 0096 D1E7     		b	.L9
 178              	.LVL31:
 179              	.L7:
 180              		.loc 1 48 0
 181 0098 2046     		mov	r0, r4
 182              	.LVL32:
 183 009a FFF7FEFF 		bl	lbm_memory_free
 184              	.LVL33:
 185              		.loc 1 52 0
 186 009e 0020     		movs	r0, #0
 187 00a0 70BD     		pop	{r4, r5, r6, pc}
 188              		.cfi_endproc
 189              	.LFE45:
 190              		.size	eval_cps_load_and_eval, .-eval_cps_load_and_eval
 191 00a2 00BF     		.section	.text.eval_cps_load_and_define,"ax",%progbits
 192              		.align	1
 193              		.p2align 4,,15
 194              		.global	eval_cps_load_and_define
 195              		.syntax unified
 196              		.thumb
 197              		.thumb_func
 198              		.fpu fpv4-sp-d16
 199              		.type	eval_cps_load_and_define, %function
 200              	eval_cps_load_and_define:
 201              	.LFB46:
 202              		.loc 1 54 0
 203              		.cfi_startproc
 204              		@ args = 0, pretend = 0, frame = 8
 205              		@ frame_needed = 0, uses_anonymous_args = 0
 206              	.LVL34:
 207 0000 70B5     		push	{r4, r5, r6, lr}
 208              		.cfi_def_cfa_offset 16
 209              		.cfi_offset 4, -16
 210              		.cfi_offset 5, -12
 211              		.cfi_offset 6, -8
 212              		.cfi_offset 14, -4
 213 0002 82B0     		sub	sp, sp, #8
 214              		.cfi_def_cfa_offset 24
 215              		.loc 1 54 0
 216 0004 0C46     		mov	r4, r1
 217 0006 1646     		mov	r6, r2
 218              		.loc 1 56 0
 219 0008 FFF7FEFF 		bl	lbm_create_token_stream
 220              	.LVL35:
 221 000c 0546     		mov	r5, r0
 222              	.LVL36:
 223              	.LBB81:
 224              	.LBB82:
 225              		.loc 2 461 0
 226 000e C107     		lsls	r1, r0, #31
 227 0010 4CBF     		ite	mi
 228 0012 00F07C40 		andmi	r0, r0, #-67108864
ARM GAS  /tmp/ccvik3Iq.s 			page 5


 229              	.LVL37:
 230 0016 05F00C00 		andpl	r0, r5, #12
 231              	.LBE82:
 232              	.LBE81:
 233              		.loc 1 58 0
 234 001a 08B9     		cbnz	r0, .L46
 235              	.LVL38:
 236              	.L29:
 237              		.loc 1 88 0
 238 001c 02B0     		add	sp, sp, #8
 239              		.cfi_remember_state
 240              		.cfi_def_cfa_offset 16
 241              		@ sp needed
 242 001e 70BD     		pop	{r4, r5, r6, pc}
 243              	.LVL39:
 244              	.L46:
 245              		.cfi_restore_state
 246              		.loc 1 64 0
 247 0020 01A9     		add	r1, sp, #4
 248 0022 2046     		mov	r0, r4
 249 0024 FFF7FEFF 		bl	lbm_get_symbol_by_name
 250              	.LVL40:
 251 0028 20B9     		cbnz	r0, .L30
 252              		.loc 1 65 0
 253 002a 01A9     		add	r1, sp, #4
 254 002c 2046     		mov	r0, r4
 255 002e FFF7FEFF 		bl	lbm_add_symbol
 256              	.LVL41:
 257 0032 C0B3     		cbz	r0, .L32
 258              	.L30:
 259              		.loc 1 73 0
 260 0034 0021     		movs	r1, #0
 261 0036 2846     		mov	r0, r5
 262 0038 FFF7FEFF 		bl	lbm_cons
 263              	.LVL42:
 264              		.loc 1 74 0
 265 003c 002E     		cmp	r6, #0
 266 003e 0146     		mov	r1, r0
 267 0040 0CBF     		ite	eq
 268 0042 4FF48070 		moveq	r0, #256
 269              	.LVL43:
 270 0046 4FF48870 		movne	r0, #272
 271 004a FFF7FEFF 		bl	lbm_cons
 272              	.LVL44:
 273              		.loc 1 75 0
 274 004e 0021     		movs	r1, #0
 275              		.loc 1 74 0
 276 0050 0446     		mov	r4, r0
 277              	.LVL45:
 278              		.loc 1 75 0
 279 0052 FFF7FEFF 		bl	lbm_cons
 280              	.LVL46:
 281              	.LBB83:
 282              	.LBB84:
 283              		.loc 2 481 0
 284 0056 019B     		ldr	r3, [sp, #4]
 285              	.LBE84:
ARM GAS  /tmp/ccvik3Iq.s 			page 6


 286              	.LBE83:
 287              		.loc 1 76 0
 288 0058 0146     		mov	r1, r0
 289 005a 1801     		lsls	r0, r3, #4
 290              	.LVL47:
 291 005c FFF7FEFF 		bl	lbm_cons
 292              	.LVL48:
 293              		.loc 1 77 0
 294 0060 0146     		mov	r1, r0
 295              		.loc 1 76 0
 296 0062 0646     		mov	r6, r0
 297              	.LVL49:
 298              		.loc 1 77 0
 299 0064 E020     		movs	r0, #224
 300              	.LVL50:
 301 0066 FFF7FEFF 		bl	lbm_cons
 302              	.LVL51:
 303              		.loc 1 78 0
 304 006a 0021     		movs	r1, #0
 305 006c FFF7FEFF 		bl	lbm_cons
 306              	.LVL52:
 307              	.LBB85:
 308              	.LBB86:
 309              		.loc 2 461 0
 310 0070 E207     		lsls	r2, r4, #31
 311 0072 18D5     		bpl	.L32
 312              	.LVL53:
 313 0074 04F07C44 		and	r4, r4, #-67108864
 314              	.LVL54:
 315              	.LBE86:
 316              	.LBE85:
 317              		.loc 1 81 0
 318 0078 B4F1805F 		cmp	r4, #268435456
 319 007c 13D1     		bne	.L32
 320              	.LVL55:
 321              	.LBB87:
 322              	.LBB88:
 323              		.loc 2 461 0
 324 007e F107     		lsls	r1, r6, #31
 325 0080 11D5     		bpl	.L32
 326              	.LVL56:
 327 0082 06F07C46 		and	r6, r6, #-67108864
 328              	.LVL57:
 329              	.LBE88:
 330              	.LBE87:
 331              		.loc 1 81 0
 332 0086 B6F1805F 		cmp	r6, #268435456
 333 008a 0CD1     		bne	.L32
 334              	.LVL58:
 335              	.LBB89:
 336              	.LBB90:
 337              		.loc 2 461 0
 338 008c C207     		lsls	r2, r0, #31
 339 008e 0AD5     		bpl	.L32
 340              	.LVL59:
 341 0090 00F07C43 		and	r3, r0, #-67108864
 342              	.LBE90:
ARM GAS  /tmp/ccvik3Iq.s 			page 7


 343              	.LBE89:
 344              		.loc 1 82 0
 345 0094 B3F1805F 		cmp	r3, #268435456
 346 0098 05D1     		bne	.L32
 347              		.loc 1 87 0
 348 009a 4FF48072 		mov	r2, #256
 349 009e 0021     		movs	r1, #0
 350 00a0 FFF7FEFF 		bl	lbm_create_ctx
 351              	.LVL60:
 352 00a4 BAE7     		b	.L29
 353              	.L32:
 354              		.loc 1 84 0
 355 00a6 2846     		mov	r0, r5
 356 00a8 FFF7FEFF 		bl	lbm_memory_free
 357              	.LVL61:
 358              		.loc 1 85 0
 359 00ac 0020     		movs	r0, #0
 360              		.loc 1 88 0
 361 00ae 02B0     		add	sp, sp, #8
 362              		.cfi_def_cfa_offset 16
 363              		@ sp needed
 364 00b0 70BD     		pop	{r4, r5, r6, pc}
 365              		.cfi_endproc
 366              	.LFE46:
 367              		.size	eval_cps_load_and_define, .-eval_cps_load_and_define
 368 00b2 00BF     		.section	.text.lbm_eval_defined,"ax",%progbits
 369              		.align	1
 370              		.p2align 4,,15
 371              		.global	lbm_eval_defined
 372              		.syntax unified
 373              		.thumb
 374              		.thumb_func
 375              		.fpu fpv4-sp-d16
 376              		.type	lbm_eval_defined, %function
 377              	lbm_eval_defined:
 378              	.LFB47:
 379              		.loc 1 90 0
 380              		.cfi_startproc
 381              		@ args = 0, pretend = 0, frame = 8
 382              		@ frame_needed = 0, uses_anonymous_args = 0
 383              	.LVL62:
 384 0000 30B5     		push	{r4, r5, lr}
 385              		.cfi_def_cfa_offset 12
 386              		.cfi_offset 4, -12
 387              		.cfi_offset 5, -8
 388              		.cfi_offset 14, -4
 389 0002 83B0     		sub	sp, sp, #12
 390              		.cfi_def_cfa_offset 24
 391              		.loc 1 90 0
 392 0004 0D46     		mov	r5, r1
 393              		.loc 1 94 0
 394 0006 01A9     		add	r1, sp, #4
 395              	.LVL63:
 396 0008 FFF7FEFF 		bl	lbm_get_symbol_by_name
 397              	.LVL64:
 398 000c 10B9     		cbnz	r0, .L48
 399              	.L53:
ARM GAS  /tmp/ccvik3Iq.s 			page 8


 400              		.loc 1 96 0
 401 000e 0020     		movs	r0, #0
 402              	.L49:
 403              		.loc 1 121 0
 404 0010 03B0     		add	sp, sp, #12
 405              		.cfi_remember_state
 406              		.cfi_def_cfa_offset 12
 407              		@ sp needed
 408 0012 30BD     		pop	{r4, r5, pc}
 409              	.L48:
 410              		.cfi_restore_state
 411              	.LVL65:
 412              	.LBB91:
 413              	.LBB92:
 414              		.loc 2 481 0
 415 0014 0198     		ldr	r0, [sp, #4]
 416 0016 0401     		lsls	r4, r0, #4
 417              	.LVL66:
 418              	.LBE92:
 419              	.LBE91:
 420              		.loc 1 99 0
 421 0018 FFF7FEFF 		bl	lbm_get_env_ptr
 422              	.LVL67:
 423 001c 0168     		ldr	r1, [r0]
 424 001e 2046     		mov	r0, r4
 425 0020 FFF7FEFF 		bl	lbm_env_lookup
 426              	.LVL68:
 427              	.LBB93:
 428              	.LBB94:
 429              		.loc 2 461 0
 430 0024 C107     		lsls	r1, r0, #31
 431 0026 4CBF     		ite	mi
 432 0028 00F07C43 		andmi	r3, r0, #-67108864
 433 002c 00F00C03 		andpl	r3, r0, #12
 434              	.LBE94:
 435              	.LBE93:
 436              		.loc 1 101 0
 437 0030 13B9     		cbnz	r3, .L52
 438              	.LBB95:
 439              	.LBB96:
 440              		.loc 2 529 0
 441 0032 0009     		lsrs	r0, r0, #4
 442              	.LVL69:
 443              	.LBE96:
 444              	.LBE95:
 445              		.loc 1 101 0
 446 0034 2928     		cmp	r0, #41
 447 0036 EAD0     		beq	.L53
 448              	.L52:
 449              	.LBB97:
 450              	.LBB98:
 451              		.loc 2 481 0
 452 0038 0198     		ldr	r0, [sp, #4]
 453              	.LBE98:
 454              	.LBE97:
 455              		.loc 1 108 0
 456 003a 0021     		movs	r1, #0
ARM GAS  /tmp/ccvik3Iq.s 			page 9


 457 003c 0001     		lsls	r0, r0, #4
 458 003e FFF7FEFF 		bl	lbm_cons
 459              	.LVL70:
 460              		.loc 1 110 0
 461 0042 002D     		cmp	r5, #0
 462              		.loc 1 108 0
 463 0044 0446     		mov	r4, r0
 464              	.LVL71:
 465              		.loc 1 110 0
 466 0046 2146     		mov	r1, r4
 467 0048 41F29000 		movw	r0, #4240
 468              	.LVL72:
 469 004c 18BF     		it	ne
 470 004e 4FF48550 		movne	r0, #4256
 471 0052 FFF7FEFF 		bl	lbm_cons
 472              	.LVL73:
 473              		.loc 1 111 0
 474 0056 0021     		movs	r1, #0
 475              		.loc 1 110 0
 476 0058 0546     		mov	r5, r0
 477              	.LVL74:
 478              		.loc 1 111 0
 479 005a FFF7FEFF 		bl	lbm_cons
 480              	.LVL75:
 481              	.LBB99:
 482              	.LBB100:
 483              		.loc 2 461 0
 484 005e E207     		lsls	r2, r4, #31
 485 0060 D5D5     		bpl	.L53
 486              	.LVL76:
 487 0062 04F07C44 		and	r4, r4, #-67108864
 488              	.LVL77:
 489              	.LBE100:
 490              	.LBE99:
 491              		.loc 1 115 0
 492 0066 B4F1805F 		cmp	r4, #268435456
 493 006a D0D1     		bne	.L53
 494              	.LVL78:
 495              	.LBB101:
 496              	.LBB102:
 497              		.loc 2 461 0
 498 006c E907     		lsls	r1, r5, #31
 499 006e CED5     		bpl	.L53
 500              	.LVL79:
 501 0070 05F07C45 		and	r5, r5, #-67108864
 502              	.LVL80:
 503              	.LBE102:
 504              	.LBE101:
 505              		.loc 1 115 0
 506 0074 B5F1805F 		cmp	r5, #268435456
 507 0078 C9D1     		bne	.L53
 508              	.LVL81:
 509              	.LBB103:
 510              	.LBB104:
 511              		.loc 2 461 0
 512 007a C207     		lsls	r2, r0, #31
 513 007c C7D5     		bpl	.L53
ARM GAS  /tmp/ccvik3Iq.s 			page 10


 514              	.LVL82:
 515 007e 00F07C43 		and	r3, r0, #-67108864
 516              	.LBE104:
 517              	.LBE103:
 518              		.loc 1 116 0
 519 0082 B3F1805F 		cmp	r3, #268435456
 520 0086 C2D1     		bne	.L53
 521              		.loc 1 120 0
 522 0088 4FF48072 		mov	r2, #256
 523 008c 0021     		movs	r1, #0
 524 008e FFF7FEFF 		bl	lbm_create_ctx
 525              	.LVL83:
 526 0092 BDE7     		b	.L49
 527              		.cfi_endproc
 528              	.LFE47:
 529              		.size	lbm_eval_defined, .-lbm_eval_defined
 530              		.section	.text.lbm_load_and_eval_expression,"ax",%progbits
 531              		.align	1
 532              		.p2align 4,,15
 533              		.global	lbm_load_and_eval_expression
 534              		.syntax unified
 535              		.thumb
 536              		.thumb_func
 537              		.fpu fpv4-sp-d16
 538              		.type	lbm_load_and_eval_expression, %function
 539              	lbm_load_and_eval_expression:
 540              	.LFB48:
 541              		.loc 1 125 0
 542              		.cfi_startproc
 543              		@ args = 0, pretend = 0, frame = 0
 544              		@ frame_needed = 0, uses_anonymous_args = 0
 545              		@ link register save eliminated.
 546              	.LVL84:
 547              		.loc 1 126 0
 548 0000 0021     		movs	r1, #0
 549 0002 FFF7FEBF 		b	eval_cps_load_and_eval
 550              	.LVL85:
 551              		.cfi_endproc
 552              	.LFE48:
 553              		.size	lbm_load_and_eval_expression, .-lbm_load_and_eval_expression
 554 0006 00BF     		.section	.text.lbm_load_and_define_expression,"ax",%progbits
 555              		.align	1
 556              		.p2align 4,,15
 557              		.global	lbm_load_and_define_expression
 558              		.syntax unified
 559              		.thumb
 560              		.thumb_func
 561              		.fpu fpv4-sp-d16
 562              		.type	lbm_load_and_define_expression, %function
 563              	lbm_load_and_define_expression:
 564              	.LFB49:
 565              		.loc 1 129 0
 566              		.cfi_startproc
 567              		@ args = 0, pretend = 0, frame = 0
 568              		@ frame_needed = 0, uses_anonymous_args = 0
 569              		@ link register save eliminated.
 570              	.LVL86:
ARM GAS  /tmp/ccvik3Iq.s 			page 11


 571              		.loc 1 130 0
 572 0000 0022     		movs	r2, #0
 573 0002 FFF7FEBF 		b	eval_cps_load_and_define
 574              	.LVL87:
 575              		.cfi_endproc
 576              	.LFE49:
 577              		.size	lbm_load_and_define_expression, .-lbm_load_and_define_expression
 578 0006 00BF     		.section	.text.lbm_load_and_eval_program,"ax",%progbits
 579              		.align	1
 580              		.p2align 4,,15
 581              		.global	lbm_load_and_eval_program
 582              		.syntax unified
 583              		.thumb
 584              		.thumb_func
 585              		.fpu fpv4-sp-d16
 586              		.type	lbm_load_and_eval_program, %function
 587              	lbm_load_and_eval_program:
 588              	.LFB50:
 589              		.loc 1 133 0
 590              		.cfi_startproc
 591              		@ args = 0, pretend = 0, frame = 0
 592              		@ frame_needed = 0, uses_anonymous_args = 0
 593              		@ link register save eliminated.
 594              	.LVL88:
 595              		.loc 1 134 0
 596 0000 0121     		movs	r1, #1
 597 0002 FFF7FEBF 		b	eval_cps_load_and_eval
 598              	.LVL89:
 599              		.cfi_endproc
 600              	.LFE50:
 601              		.size	lbm_load_and_eval_program, .-lbm_load_and_eval_program
 602 0006 00BF     		.section	.text.lbm_load_and_define_program,"ax",%progbits
 603              		.align	1
 604              		.p2align 4,,15
 605              		.global	lbm_load_and_define_program
 606              		.syntax unified
 607              		.thumb
 608              		.thumb_func
 609              		.fpu fpv4-sp-d16
 610              		.type	lbm_load_and_define_program, %function
 611              	lbm_load_and_define_program:
 612              	.LFB51:
 613              		.loc 1 137 0
 614              		.cfi_startproc
 615              		@ args = 0, pretend = 0, frame = 0
 616              		@ frame_needed = 0, uses_anonymous_args = 0
 617              		@ link register save eliminated.
 618              	.LVL90:
 619              		.loc 1 138 0
 620 0000 0122     		movs	r2, #1
 621 0002 FFF7FEBF 		b	eval_cps_load_and_define
 622              	.LVL91:
 623              		.cfi_endproc
 624              	.LFE51:
 625              		.size	lbm_load_and_define_program, .-lbm_load_and_define_program
 626 0006 00BF     		.section	.text.lbm_eval_defined_expression,"ax",%progbits
 627              		.align	1
ARM GAS  /tmp/ccvik3Iq.s 			page 12


 628              		.p2align 4,,15
 629              		.global	lbm_eval_defined_expression
 630              		.syntax unified
 631              		.thumb
 632              		.thumb_func
 633              		.fpu fpv4-sp-d16
 634              		.type	lbm_eval_defined_expression, %function
 635              	lbm_eval_defined_expression:
 636              	.LFB52:
 637              		.loc 1 141 0
 638              		.cfi_startproc
 639              		@ args = 0, pretend = 0, frame = 0
 640              		@ frame_needed = 0, uses_anonymous_args = 0
 641              		@ link register save eliminated.
 642              	.LVL92:
 643              		.loc 1 142 0
 644 0000 0021     		movs	r1, #0
 645 0002 FFF7FEBF 		b	lbm_eval_defined
 646              	.LVL93:
 647              		.cfi_endproc
 648              	.LFE52:
 649              		.size	lbm_eval_defined_expression, .-lbm_eval_defined_expression
 650 0006 00BF     		.section	.text.lbm_eval_defined_program,"ax",%progbits
 651              		.align	1
 652              		.p2align 4,,15
 653              		.global	lbm_eval_defined_program
 654              		.syntax unified
 655              		.thumb
 656              		.thumb_func
 657              		.fpu fpv4-sp-d16
 658              		.type	lbm_eval_defined_program, %function
 659              	lbm_eval_defined_program:
 660              	.LFB53:
 661              		.loc 1 145 0
 662              		.cfi_startproc
 663              		@ args = 0, pretend = 0, frame = 0
 664              		@ frame_needed = 0, uses_anonymous_args = 0
 665              		@ link register save eliminated.
 666              	.LVL94:
 667              		.loc 1 146 0
 668 0000 0121     		movs	r1, #1
 669 0002 FFF7FEBF 		b	lbm_eval_defined
 670              	.LVL95:
 671              		.cfi_endproc
 672              	.LFE53:
 673              		.size	lbm_eval_defined_program, .-lbm_eval_defined_program
 674 0006 00BF     		.section	.text.lbm_send_message,"ax",%progbits
 675              		.align	1
 676              		.p2align 4,,15
 677              		.global	lbm_send_message
 678              		.syntax unified
 679              		.thumb
 680              		.thumb_func
 681              		.fpu fpv4-sp-d16
 682              		.type	lbm_send_message, %function
 683              	lbm_send_message:
 684              	.LFB54:
ARM GAS  /tmp/ccvik3Iq.s 			page 13


 685              		.loc 1 149 0
 686              		.cfi_startproc
 687              		@ args = 0, pretend = 0, frame = 0
 688              		@ frame_needed = 0, uses_anonymous_args = 0
 689              	.LVL96:
 690 0000 38B5     		push	{r3, r4, r5, lr}
 691              		.cfi_def_cfa_offset 16
 692              		.cfi_offset 3, -16
 693              		.cfi_offset 4, -12
 694              		.cfi_offset 5, -8
 695              		.cfi_offset 14, -4
 696              		.loc 1 149 0
 697 0002 0446     		mov	r4, r0
 698 0004 0D46     		mov	r5, r1
 699              		.loc 1 152 0
 700 0006 FFF7FEFF 		bl	lbm_get_eval_state
 701              	.LVL97:
 702 000a 0128     		cmp	r0, #1
 703 000c 01D0     		beq	.L76
 704              	.L80:
 705              		.loc 1 150 0
 706 000e 0020     		movs	r0, #0
 707              		.loc 1 162 0
 708 0010 38BD     		pop	{r3, r4, r5, pc}
 709              	.LVL98:
 710              	.L76:
 711              	.LBB105:
 712              		.loc 1 154 0
 713 0012 2946     		mov	r1, r5
 714 0014 2046     		mov	r0, r4
 715 0016 FFF7FEFF 		bl	lbm_find_receiver_and_send
 716              	.LVL99:
 717              	.LBB106:
 718              	.LBB107:
 719              		.loc 2 461 0
 720 001a C307     		lsls	r3, r0, #31
 721 001c 4CBF     		ite	mi
 722 001e 00F07C43 		andmi	r3, r0, #-67108864
 723 0022 00F00C03 		andpl	r3, r0, #12
 724              	.LBE107:
 725              	.LBE106:
 726              		.loc 1 156 0
 727 0026 002B     		cmp	r3, #0
 728 0028 F1D1     		bne	.L80
 729              	.LBB108:
 730              	.LBB109:
 731              		.loc 2 529 0
 732 002a 0009     		lsrs	r0, r0, #4
 733              	.LVL100:
 734              	.LBE109:
 735              	.LBE108:
 736              		.loc 1 156 0
 737 002c A0F10200 		sub	r0, #2
 738 0030 B0FA80F0 		clz	r0, r0
 739 0034 4009     		lsrs	r0, r0, #5
 740              	.LVL101:
 741              	.LBE105:
ARM GAS  /tmp/ccvik3Iq.s 			page 14


 742              		.loc 1 162 0
 743 0036 38BD     		pop	{r3, r4, r5, pc}
 744              		.cfi_endproc
 745              	.LFE54:
 746              		.size	lbm_send_message, .-lbm_send_message
 747              		.section	.text.lbm_define,"ax",%progbits
 748              		.align	1
 749              		.p2align 4,,15
 750              		.global	lbm_define
 751              		.syntax unified
 752              		.thumb
 753              		.thumb_func
 754              		.fpu fpv4-sp-d16
 755              		.type	lbm_define, %function
 756              	lbm_define:
 757              	.LFB55:
 758              		.loc 1 164 0
 759              		.cfi_startproc
 760              		@ args = 0, pretend = 0, frame = 8
 761              		@ frame_needed = 0, uses_anonymous_args = 0
 762              	.LVL102:
 763 0000 30B5     		push	{r4, r5, lr}
 764              		.cfi_def_cfa_offset 12
 765              		.cfi_offset 4, -12
 766              		.cfi_offset 5, -8
 767              		.cfi_offset 14, -4
 768 0002 83B0     		sub	sp, sp, #12
 769              		.cfi_def_cfa_offset 24
 770              		.loc 1 164 0
 771 0004 0446     		mov	r4, r0
 772 0006 0D46     		mov	r5, r1
 773              		.loc 1 168 0
 774 0008 FFF7FEFF 		bl	lbm_get_eval_state
 775              	.LVL103:
 776 000c 0128     		cmp	r0, #1
 777 000e 02D0     		beq	.L92
 778              	.L84:
 779              		.loc 1 178 0
 780 0010 0020     		movs	r0, #0
 781 0012 03B0     		add	sp, sp, #12
 782              		.cfi_remember_state
 783              		.cfi_def_cfa_offset 12
 784              		@ sp needed
 785 0014 30BD     		pop	{r4, r5, pc}
 786              	.LVL104:
 787              	.L92:
 788              		.cfi_restore_state
 789              		.loc 1 170 0
 790 0016 01A9     		add	r1, sp, #4
 791 0018 2046     		mov	r0, r4
 792 001a FFF7FEFF 		bl	lbm_get_symbol_by_name
 793              	.LVL105:
 794 001e 28B9     		cbnz	r0, .L87
 795              		.loc 1 171 0
 796 0020 01A9     		add	r1, sp, #4
 797 0022 2046     		mov	r0, r4
 798 0024 FFF7FEFF 		bl	lbm_add_symbol_const
ARM GAS  /tmp/ccvik3Iq.s 			page 15


 799              	.LVL106:
 800 0028 0028     		cmp	r0, #0
 801 002a F1D0     		beq	.L84
 802              	.L87:
 803              		.loc 1 175 0
 804 002c FFF7FEFF 		bl	lbm_get_env
 805              	.LVL107:
 806              	.LBB110:
 807              	.LBB111:
 808              		.loc 2 481 0
 809 0030 0199     		ldr	r1, [sp, #4]
 810              	.LBE111:
 811              	.LBE110:
 812              		.loc 1 175 0
 813 0032 2A46     		mov	r2, r5
 814 0034 0901     		lsls	r1, r1, #4
 815 0036 FFF7FEFF 		bl	lbm_env_set
 816              	.LVL108:
 817              		.loc 1 178 0
 818 003a 0020     		movs	r0, #0
 819 003c 03B0     		add	sp, sp, #12
 820              		.cfi_def_cfa_offset 12
 821              		@ sp needed
 822 003e 30BD     		pop	{r4, r5, pc}
 823              		.cfi_endproc
 824              	.LFE55:
 825              		.size	lbm_define, .-lbm_define
 826              		.text
 827              	.Letext0:
 828              		.file 3 "/usr/arm-none-eabi/include/machine/_default_types.h"
 829              		.file 4 "/usr/arm-none-eabi/include/sys/_stdint.h"
 830              		.file 5 "lispBM/lispBM/include/lbm_types.h"
 831              		.file 6 "/usr/arm-none-eabi/include/sys/lock.h"
 832              		.file 7 "/usr/arm-none-eabi/include/sys/_types.h"
 833              		.file 8 "/usr/lib/gcc/arm-none-eabi/7.3.1/include/stddef.h"
 834              		.file 9 "/usr/arm-none-eabi/include/sys/reent.h"
 835              		.file 10 "/usr/arm-none-eabi/include/stdlib.h"
 836              		.file 11 "lispBM/lispBM/include/eval_cps.h"
 837              		.file 12 "lispBM/lispBM/include/symrepr.h"
 838              		.file 13 "lispBM/lispBM/include/env.h"
 839              		.file 14 "lispBM/lispBM/include/lbm_memory.h"
 840              		.section	.debug_info,"",%progbits
 841              	.Ldebug_info0:
 842 0000 48130000 		.4byte	0x1348
 843 0004 0400     		.2byte	0x4
 844 0006 00000000 		.4byte	.Ldebug_abbrev0
 845 000a 04       		.byte	0x4
 846 000b 01       		.uleb128 0x1
 847 000c AE010000 		.4byte	.LASF175
 848 0010 0C       		.byte	0xc
 849 0011 29080000 		.4byte	.LASF176
 850 0015 DE040000 		.4byte	.LASF177
 851 0019 00000000 		.4byte	.Ldebug_ranges0+0
 852 001d 00000000 		.4byte	0
 853 0021 00000000 		.4byte	.Ldebug_line0
 854 0025 02       		.uleb128 0x2
 855 0026 01       		.byte	0x1
ARM GAS  /tmp/ccvik3Iq.s 			page 16


 856 0027 06       		.byte	0x6
 857 0028 B9070000 		.4byte	.LASF0
 858 002c 02       		.uleb128 0x2
 859 002d 01       		.byte	0x1
 860 002e 08       		.byte	0x8
 861 002f 25070000 		.4byte	.LASF1
 862 0033 02       		.uleb128 0x2
 863 0034 02       		.byte	0x2
 864 0035 05       		.byte	0x5
 865 0036 A0050000 		.4byte	.LASF2
 866 003a 03       		.uleb128 0x3
 867 003b 15030000 		.4byte	.LASF5
 868 003f 03       		.byte	0x3
 869 0040 39       		.byte	0x39
 870 0041 45000000 		.4byte	0x45
 871 0045 02       		.uleb128 0x2
 872 0046 02       		.byte	0x2
 873 0047 07       		.byte	0x7
 874 0048 CC070000 		.4byte	.LASF3
 875 004c 02       		.uleb128 0x2
 876 004d 04       		.byte	0x4
 877 004e 05       		.byte	0x5
 878 004f BA050000 		.4byte	.LASF4
 879 0053 03       		.uleb128 0x3
 880 0054 33070000 		.4byte	.LASF6
 881 0058 03       		.byte	0x3
 882 0059 4F       		.byte	0x4f
 883 005a 5E000000 		.4byte	0x5e
 884 005e 02       		.uleb128 0x2
 885 005f 04       		.byte	0x4
 886 0060 07       		.byte	0x7
 887 0061 A8060000 		.4byte	.LASF7
 888 0065 02       		.uleb128 0x2
 889 0066 08       		.byte	0x8
 890 0067 05       		.byte	0x5
 891 0068 57040000 		.4byte	.LASF8
 892 006c 02       		.uleb128 0x2
 893 006d 08       		.byte	0x8
 894 006e 07       		.byte	0x7
 895 006f E4020000 		.4byte	.LASF9
 896 0073 04       		.uleb128 0x4
 897 0074 04       		.byte	0x4
 898 0075 05       		.byte	0x5
 899 0076 696E7400 		.ascii	"int\000"
 900 007a 02       		.uleb128 0x2
 901 007b 04       		.byte	0x4
 902 007c 07       		.byte	0x7
 903 007d 52000000 		.4byte	.LASF10
 904 0081 03       		.uleb128 0x3
 905 0082 F5040000 		.4byte	.LASF11
 906 0086 04       		.byte	0x4
 907 0087 24       		.byte	0x24
 908 0088 3A000000 		.4byte	0x3a
 909 008c 03       		.uleb128 0x3
 910 008d 4D010000 		.4byte	.LASF12
 911 0091 04       		.byte	0x4
 912 0092 30       		.byte	0x30
ARM GAS  /tmp/ccvik3Iq.s 			page 17


 913 0093 53000000 		.4byte	0x53
 914 0097 05       		.uleb128 0x5
 915 0098 04       		.byte	0x4
 916 0099 9D000000 		.4byte	0x9d
 917 009d 06       		.uleb128 0x6
 918 009e 63080000 		.4byte	.LASF26
 919 00a2 03       		.uleb128 0x3
 920 00a3 49030000 		.4byte	.LASF13
 921 00a7 05       		.byte	0x5
 922 00a8 1E       		.byte	0x1e
 923 00a9 8C000000 		.4byte	0x8c
 924 00ad 03       		.uleb128 0x3
 925 00ae A7040000 		.4byte	.LASF14
 926 00b2 05       		.byte	0x5
 927 00b3 20       		.byte	0x20
 928 00b4 8C000000 		.4byte	0x8c
 929 00b8 03       		.uleb128 0x3
 930 00b9 2B050000 		.4byte	.LASF15
 931 00bd 05       		.byte	0x5
 932 00be 22       		.byte	0x22
 933 00bf 8C000000 		.4byte	0x8c
 934 00c3 02       		.uleb128 0x2
 935 00c4 04       		.byte	0x4
 936 00c5 04       		.byte	0x4
 937 00c6 77010000 		.4byte	.LASF16
 938 00ca 03       		.uleb128 0x3
 939 00cb D1000000 		.4byte	.LASF17
 940 00cf 05       		.byte	0x5
 941 00d0 2F       		.byte	0x2f
 942 00d1 81000000 		.4byte	0x81
 943 00d5 07       		.uleb128 0x7
 944 00d6 99040000 		.4byte	.LASF38
 945 00da 14       		.byte	0x14
 946 00db 05       		.byte	0x5
 947 00dc 34       		.byte	0x34
 948 00dd 1E010000 		.4byte	0x11e
 949 00e1 08       		.uleb128 0x8
 950 00e2 7A070000 		.4byte	.LASF18
 951 00e6 05       		.byte	0x5
 952 00e7 35       		.byte	0x35
 953 00e8 1E010000 		.4byte	0x11e
 954 00ec 00       		.byte	0
 955 00ed 08       		.uleb128 0x8
 956 00ee 3C000000 		.4byte	.LASF19
 957 00f2 05       		.byte	0x5
 958 00f3 36       		.byte	0x36
 959 00f4 3C010000 		.4byte	0x13c
 960 00f8 04       		.byte	0x4
 961 00f9 09       		.uleb128 0x9
 962 00fa 67657400 		.ascii	"get\000"
 963 00fe 05       		.byte	0x5
 964 00ff 37       		.byte	0x37
 965 0100 5D010000 		.4byte	0x15d
 966 0104 08       		.byte	0x8
 967 0105 08       		.uleb128 0x8
 968 0106 53080000 		.4byte	.LASF20
 969 010a 05       		.byte	0x5
ARM GAS  /tmp/ccvik3Iq.s 			page 18


 970 010b 38       		.byte	0x38
 971 010c 77010000 		.4byte	0x177
 972 0110 0C       		.byte	0xc
 973 0111 08       		.uleb128 0x8
 974 0112 75070000 		.4byte	.LASF21
 975 0116 05       		.byte	0x5
 976 0117 39       		.byte	0x39
 977 0118 8D010000 		.4byte	0x18d
 978 011c 10       		.byte	0x10
 979 011d 00       		.byte	0
 980 011e 0A       		.uleb128 0xa
 981 011f 04       		.byte	0x4
 982 0120 0B       		.uleb128 0xb
 983 0121 2F010000 		.4byte	0x12f
 984 0125 2F010000 		.4byte	0x12f
 985 0129 0C       		.uleb128 0xc
 986 012a 36010000 		.4byte	0x136
 987 012e 00       		.byte	0
 988 012f 02       		.uleb128 0x2
 989 0130 01       		.byte	0x1
 990 0131 02       		.byte	0x2
 991 0132 75030000 		.4byte	.LASF22
 992 0136 05       		.uleb128 0x5
 993 0137 04       		.byte	0x4
 994 0138 D5000000 		.4byte	0xd5
 995 013c 05       		.uleb128 0x5
 996 013d 04       		.byte	0x4
 997 013e 20010000 		.4byte	0x120
 998 0142 0B       		.uleb128 0xb
 999 0143 51010000 		.4byte	0x151
 1000 0147 51010000 		.4byte	0x151
 1001 014b 0C       		.uleb128 0xc
 1002 014c 36010000 		.4byte	0x136
 1003 0150 00       		.byte	0
 1004 0151 02       		.uleb128 0x2
 1005 0152 01       		.byte	0x1
 1006 0153 08       		.byte	0x8
 1007 0154 DA030000 		.4byte	.LASF23
 1008 0158 0D       		.uleb128 0xd
 1009 0159 51010000 		.4byte	0x151
 1010 015d 05       		.uleb128 0x5
 1011 015e 04       		.byte	0x4
 1012 015f 42010000 		.4byte	0x142
 1013 0163 0B       		.uleb128 0xb
 1014 0164 51010000 		.4byte	0x151
 1015 0168 77010000 		.4byte	0x177
 1016 016c 0C       		.uleb128 0xc
 1017 016d 36010000 		.4byte	0x136
 1018 0171 0C       		.uleb128 0xc
 1019 0172 7A000000 		.4byte	0x7a
 1020 0176 00       		.byte	0
 1021 0177 05       		.uleb128 0x5
 1022 0178 04       		.byte	0x4
 1023 0179 63010000 		.4byte	0x163
 1024 017d 0E       		.uleb128 0xe
 1025 017e 8D010000 		.4byte	0x18d
 1026 0182 0C       		.uleb128 0xc
ARM GAS  /tmp/ccvik3Iq.s 			page 19


 1027 0183 36010000 		.4byte	0x136
 1028 0187 0C       		.uleb128 0xc
 1029 0188 7A000000 		.4byte	0x7a
 1030 018c 00       		.byte	0
 1031 018d 05       		.uleb128 0x5
 1032 018e 04       		.byte	0x4
 1033 018f 7D010000 		.4byte	0x17d
 1034 0193 03       		.uleb128 0x3
 1035 0194 00010000 		.4byte	.LASF24
 1036 0198 05       		.byte	0x5
 1037 0199 3D       		.byte	0x3d
 1038 019a D5000000 		.4byte	0xd5
 1039 019e 03       		.uleb128 0x3
 1040 019f ED040000 		.4byte	.LASF25
 1041 01a3 06       		.byte	0x6
 1042 01a4 22       		.byte	0x22
 1043 01a5 A9010000 		.4byte	0x1a9
 1044 01a9 05       		.uleb128 0x5
 1045 01aa 04       		.byte	0x4
 1046 01ab AF010000 		.4byte	0x1af
 1047 01af 06       		.uleb128 0x6
 1048 01b0 F7060000 		.4byte	.LASF27
 1049 01b4 03       		.uleb128 0x3
 1050 01b5 EE070000 		.4byte	.LASF28
 1051 01b9 07       		.byte	0x7
 1052 01ba 2C       		.byte	0x2c
 1053 01bb 4C000000 		.4byte	0x4c
 1054 01bf 03       		.uleb128 0x3
 1055 01c0 D9000000 		.4byte	.LASF29
 1056 01c4 07       		.byte	0x7
 1057 01c5 72       		.byte	0x72
 1058 01c6 4C000000 		.4byte	0x4c
 1059 01ca 0F       		.uleb128 0xf
 1060 01cb C1060000 		.4byte	.LASF30
 1061 01cf 08       		.byte	0x8
 1062 01d0 6501     		.2byte	0x165
 1063 01d2 7A000000 		.4byte	0x7a
 1064 01d6 10       		.uleb128 0x10
 1065 01d7 04       		.byte	0x4
 1066 01d8 07       		.byte	0x7
 1067 01d9 A6       		.byte	0xa6
 1068 01da F5010000 		.4byte	0x1f5
 1069 01de 11       		.uleb128 0x11
 1070 01df 14040000 		.4byte	.LASF31
 1071 01e3 07       		.byte	0x7
 1072 01e4 A8       		.byte	0xa8
 1073 01e5 CA010000 		.4byte	0x1ca
 1074 01e9 11       		.uleb128 0x11
 1075 01ea F0050000 		.4byte	.LASF32
 1076 01ee 07       		.byte	0x7
 1077 01ef A9       		.byte	0xa9
 1078 01f0 F5010000 		.4byte	0x1f5
 1079 01f4 00       		.byte	0
 1080 01f5 12       		.uleb128 0x12
 1081 01f6 2C000000 		.4byte	0x2c
 1082 01fa 05020000 		.4byte	0x205
 1083 01fe 13       		.uleb128 0x13
ARM GAS  /tmp/ccvik3Iq.s 			page 20


 1084 01ff 7A000000 		.4byte	0x7a
 1085 0203 03       		.byte	0x3
 1086 0204 00       		.byte	0
 1087 0205 14       		.uleb128 0x14
 1088 0206 08       		.byte	0x8
 1089 0207 07       		.byte	0x7
 1090 0208 A3       		.byte	0xa3
 1091 0209 26020000 		.4byte	0x226
 1092 020d 08       		.uleb128 0x8
 1093 020e 60010000 		.4byte	.LASF33
 1094 0212 07       		.byte	0x7
 1095 0213 A5       		.byte	0xa5
 1096 0214 73000000 		.4byte	0x73
 1097 0218 00       		.byte	0
 1098 0219 08       		.uleb128 0x8
 1099 021a AF030000 		.4byte	.LASF34
 1100 021e 07       		.byte	0x7
 1101 021f AA       		.byte	0xaa
 1102 0220 D6010000 		.4byte	0x1d6
 1103 0224 04       		.byte	0x4
 1104 0225 00       		.byte	0
 1105 0226 03       		.uleb128 0x3
 1106 0227 BA040000 		.4byte	.LASF35
 1107 022b 07       		.byte	0x7
 1108 022c AB       		.byte	0xab
 1109 022d 05020000 		.4byte	0x205
 1110 0231 03       		.uleb128 0x3
 1111 0232 0B040000 		.4byte	.LASF36
 1112 0236 07       		.byte	0x7
 1113 0237 AF       		.byte	0xaf
 1114 0238 9E010000 		.4byte	0x19e
 1115 023c 05       		.uleb128 0x5
 1116 023d 04       		.byte	0x4
 1117 023e 51010000 		.4byte	0x151
 1118 0242 03       		.uleb128 0x3
 1119 0243 82040000 		.4byte	.LASF37
 1120 0247 09       		.byte	0x9
 1121 0248 16       		.byte	0x16
 1122 0249 5E000000 		.4byte	0x5e
 1123 024d 07       		.uleb128 0x7
 1124 024e F8000000 		.4byte	.LASF39
 1125 0252 18       		.byte	0x18
 1126 0253 09       		.byte	0x9
 1127 0254 2F       		.byte	0x2f
 1128 0255 A0020000 		.4byte	0x2a0
 1129 0259 08       		.uleb128 0x8
 1130 025a 8F030000 		.4byte	.LASF40
 1131 025e 09       		.byte	0x9
 1132 025f 31       		.byte	0x31
 1133 0260 A0020000 		.4byte	0x2a0
 1134 0264 00       		.byte	0
 1135 0265 09       		.uleb128 0x9
 1136 0266 5F6B00   		.ascii	"_k\000"
 1137 0269 09       		.byte	0x9
 1138 026a 32       		.byte	0x32
 1139 026b 73000000 		.4byte	0x73
 1140 026f 04       		.byte	0x4
ARM GAS  /tmp/ccvik3Iq.s 			page 21


 1141 0270 08       		.uleb128 0x8
 1142 0271 7A060000 		.4byte	.LASF41
 1143 0275 09       		.byte	0x9
 1144 0276 32       		.byte	0x32
 1145 0277 73000000 		.4byte	0x73
 1146 027b 08       		.byte	0x8
 1147 027c 08       		.uleb128 0x8
 1148 027d E4050000 		.4byte	.LASF42
 1149 0281 09       		.byte	0x9
 1150 0282 32       		.byte	0x32
 1151 0283 73000000 		.4byte	0x73
 1152 0287 0C       		.byte	0xc
 1153 0288 08       		.uleb128 0x8
 1154 0289 10030000 		.4byte	.LASF43
 1155 028d 09       		.byte	0x9
 1156 028e 32       		.byte	0x32
 1157 028f 73000000 		.4byte	0x73
 1158 0293 10       		.byte	0x10
 1159 0294 09       		.uleb128 0x9
 1160 0295 5F7800   		.ascii	"_x\000"
 1161 0298 09       		.byte	0x9
 1162 0299 33       		.byte	0x33
 1163 029a A6020000 		.4byte	0x2a6
 1164 029e 14       		.byte	0x14
 1165 029f 00       		.byte	0
 1166 02a0 05       		.uleb128 0x5
 1167 02a1 04       		.byte	0x4
 1168 02a2 4D020000 		.4byte	0x24d
 1169 02a6 12       		.uleb128 0x12
 1170 02a7 42020000 		.4byte	0x242
 1171 02ab B6020000 		.4byte	0x2b6
 1172 02af 13       		.uleb128 0x13
 1173 02b0 7A000000 		.4byte	0x7a
 1174 02b4 00       		.byte	0
 1175 02b5 00       		.byte	0
 1176 02b6 07       		.uleb128 0x7
 1177 02b7 95060000 		.4byte	.LASF44
 1178 02bb 24       		.byte	0x24
 1179 02bc 09       		.byte	0x9
 1180 02bd 37       		.byte	0x37
 1181 02be 2F030000 		.4byte	0x32f
 1182 02c2 08       		.uleb128 0x8
 1183 02c3 53030000 		.4byte	.LASF45
 1184 02c7 09       		.byte	0x9
 1185 02c8 39       		.byte	0x39
 1186 02c9 73000000 		.4byte	0x73
 1187 02cd 00       		.byte	0
 1188 02ce 08       		.uleb128 0x8
 1189 02cf 7D010000 		.4byte	.LASF46
 1190 02d3 09       		.byte	0x9
 1191 02d4 3A       		.byte	0x3a
 1192 02d5 73000000 		.4byte	0x73
 1193 02d9 04       		.byte	0x4
 1194 02da 08       		.uleb128 0x8
 1195 02db 56010000 		.4byte	.LASF47
 1196 02df 09       		.byte	0x9
 1197 02e0 3B       		.byte	0x3b
ARM GAS  /tmp/ccvik3Iq.s 			page 22


 1198 02e1 73000000 		.4byte	0x73
 1199 02e5 08       		.byte	0x8
 1200 02e6 08       		.uleb128 0x8
 1201 02e7 DF030000 		.4byte	.LASF48
 1202 02eb 09       		.byte	0x9
 1203 02ec 3C       		.byte	0x3c
 1204 02ed 73000000 		.4byte	0x73
 1205 02f1 0C       		.byte	0xc
 1206 02f2 08       		.uleb128 0x8
 1207 02f3 E4040000 		.4byte	.LASF49
 1208 02f7 09       		.byte	0x9
 1209 02f8 3D       		.byte	0x3d
 1210 02f9 73000000 		.4byte	0x73
 1211 02fd 10       		.byte	0x10
 1212 02fe 08       		.uleb128 0x8
 1213 02ff 0A060000 		.4byte	.LASF50
 1214 0303 09       		.byte	0x9
 1215 0304 3E       		.byte	0x3e
 1216 0305 73000000 		.4byte	0x73
 1217 0309 14       		.byte	0x14
 1218 030a 08       		.uleb128 0x8
 1219 030b 1C010000 		.4byte	.LASF51
 1220 030f 09       		.byte	0x9
 1221 0310 3F       		.byte	0x3f
 1222 0311 73000000 		.4byte	0x73
 1223 0315 18       		.byte	0x18
 1224 0316 08       		.uleb128 0x8
 1225 0317 66030000 		.4byte	.LASF52
 1226 031b 09       		.byte	0x9
 1227 031c 40       		.byte	0x40
 1228 031d 73000000 		.4byte	0x73
 1229 0321 1C       		.byte	0x1c
 1230 0322 08       		.uleb128 0x8
 1231 0323 C5040000 		.4byte	.LASF53
 1232 0327 09       		.byte	0x9
 1233 0328 41       		.byte	0x41
 1234 0329 73000000 		.4byte	0x73
 1235 032d 20       		.byte	0x20
 1236 032e 00       		.byte	0
 1237 032f 15       		.uleb128 0x15
 1238 0330 08000000 		.4byte	.LASF54
 1239 0334 0801     		.2byte	0x108
 1240 0336 09       		.byte	0x9
 1241 0337 4A       		.byte	0x4a
 1242 0338 6F030000 		.4byte	0x36f
 1243 033c 08       		.uleb128 0x8
 1244 033d B1070000 		.4byte	.LASF55
 1245 0341 09       		.byte	0x9
 1246 0342 4B       		.byte	0x4b
 1247 0343 6F030000 		.4byte	0x36f
 1248 0347 00       		.byte	0
 1249 0348 08       		.uleb128 0x8
 1250 0349 D2060000 		.4byte	.LASF56
 1251 034d 09       		.byte	0x9
 1252 034e 4C       		.byte	0x4c
 1253 034f 6F030000 		.4byte	0x36f
 1254 0353 80       		.byte	0x80
ARM GAS  /tmp/ccvik3Iq.s 			page 23


 1255 0354 16       		.uleb128 0x16
 1256 0355 DF070000 		.4byte	.LASF57
 1257 0359 09       		.byte	0x9
 1258 035a 4E       		.byte	0x4e
 1259 035b 42020000 		.4byte	0x242
 1260 035f 0001     		.2byte	0x100
 1261 0361 16       		.uleb128 0x16
 1262 0362 4B080000 		.4byte	.LASF58
 1263 0366 09       		.byte	0x9
 1264 0367 51       		.byte	0x51
 1265 0368 42020000 		.4byte	0x242
 1266 036c 0401     		.2byte	0x104
 1267 036e 00       		.byte	0
 1268 036f 12       		.uleb128 0x12
 1269 0370 1E010000 		.4byte	0x11e
 1270 0374 7F030000 		.4byte	0x37f
 1271 0378 13       		.uleb128 0x13
 1272 0379 7A000000 		.4byte	0x7a
 1273 037d 1F       		.byte	0x1f
 1274 037e 00       		.byte	0
 1275 037f 15       		.uleb128 0x15
 1276 0380 7C050000 		.4byte	.LASF59
 1277 0384 9001     		.2byte	0x190
 1278 0386 09       		.byte	0x9
 1279 0387 5D       		.byte	0x5d
 1280 0388 BD030000 		.4byte	0x3bd
 1281 038c 08       		.uleb128 0x8
 1282 038d 8F030000 		.4byte	.LASF40
 1283 0391 09       		.byte	0x9
 1284 0392 5E       		.byte	0x5e
 1285 0393 BD030000 		.4byte	0x3bd
 1286 0397 00       		.byte	0
 1287 0398 08       		.uleb128 0x8
 1288 0399 D0040000 		.4byte	.LASF60
 1289 039d 09       		.byte	0x9
 1290 039e 5F       		.byte	0x5f
 1291 039f 73000000 		.4byte	0x73
 1292 03a3 04       		.byte	0x4
 1293 03a4 08       		.uleb128 0x8
 1294 03a5 EB000000 		.4byte	.LASF61
 1295 03a9 09       		.byte	0x9
 1296 03aa 61       		.byte	0x61
 1297 03ab C3030000 		.4byte	0x3c3
 1298 03af 08       		.byte	0x8
 1299 03b0 08       		.uleb128 0x8
 1300 03b1 08000000 		.4byte	.LASF54
 1301 03b5 09       		.byte	0x9
 1302 03b6 62       		.byte	0x62
 1303 03b7 2F030000 		.4byte	0x32f
 1304 03bb 88       		.byte	0x88
 1305 03bc 00       		.byte	0
 1306 03bd 05       		.uleb128 0x5
 1307 03be 04       		.byte	0x4
 1308 03bf 7F030000 		.4byte	0x37f
 1309 03c3 12       		.uleb128 0x12
 1310 03c4 D3030000 		.4byte	0x3d3
 1311 03c8 D3030000 		.4byte	0x3d3
ARM GAS  /tmp/ccvik3Iq.s 			page 24


 1312 03cc 13       		.uleb128 0x13
 1313 03cd 7A000000 		.4byte	0x7a
 1314 03d1 1F       		.byte	0x1f
 1315 03d2 00       		.byte	0
 1316 03d3 05       		.uleb128 0x5
 1317 03d4 04       		.byte	0x4
 1318 03d5 D9030000 		.4byte	0x3d9
 1319 03d9 17       		.uleb128 0x17
 1320 03da 07       		.uleb128 0x7
 1321 03db 1D050000 		.4byte	.LASF62
 1322 03df 08       		.byte	0x8
 1323 03e0 09       		.byte	0x9
 1324 03e1 75       		.byte	0x75
 1325 03e2 FF030000 		.4byte	0x3ff
 1326 03e6 08       		.uleb128 0x8
 1327 03e7 65040000 		.4byte	.LASF63
 1328 03eb 09       		.byte	0x9
 1329 03ec 76       		.byte	0x76
 1330 03ed FF030000 		.4byte	0x3ff
 1331 03f1 00       		.byte	0
 1332 03f2 08       		.uleb128 0x8
 1333 03f3 E8070000 		.4byte	.LASF64
 1334 03f7 09       		.byte	0x9
 1335 03f8 77       		.byte	0x77
 1336 03f9 73000000 		.4byte	0x73
 1337 03fd 04       		.byte	0x4
 1338 03fe 00       		.byte	0
 1339 03ff 05       		.uleb128 0x5
 1340 0400 04       		.byte	0x4
 1341 0401 2C000000 		.4byte	0x2c
 1342 0405 07       		.uleb128 0x7
 1343 0406 08030000 		.4byte	.LASF65
 1344 040a 68       		.byte	0x68
 1345 040b 09       		.byte	0x9
 1346 040c B5       		.byte	0xb5
 1347 040d 2F050000 		.4byte	0x52f
 1348 0411 09       		.uleb128 0x9
 1349 0412 5F7000   		.ascii	"_p\000"
 1350 0415 09       		.byte	0x9
 1351 0416 B6       		.byte	0xb6
 1352 0417 FF030000 		.4byte	0x3ff
 1353 041b 00       		.byte	0
 1354 041c 09       		.uleb128 0x9
 1355 041d 5F7200   		.ascii	"_r\000"
 1356 0420 09       		.byte	0x9
 1357 0421 B7       		.byte	0xb7
 1358 0422 73000000 		.4byte	0x73
 1359 0426 04       		.byte	0x4
 1360 0427 09       		.uleb128 0x9
 1361 0428 5F7700   		.ascii	"_w\000"
 1362 042b 09       		.byte	0x9
 1363 042c B8       		.byte	0xb8
 1364 042d 73000000 		.4byte	0x73
 1365 0431 08       		.byte	0x8
 1366 0432 08       		.uleb128 0x8
 1367 0433 68000000 		.4byte	.LASF66
 1368 0437 09       		.byte	0x9
ARM GAS  /tmp/ccvik3Iq.s 			page 25


 1369 0438 B9       		.byte	0xb9
 1370 0439 33000000 		.4byte	0x33
 1371 043d 0C       		.byte	0xc
 1372 043e 08       		.uleb128 0x8
 1373 043f A1040000 		.4byte	.LASF67
 1374 0443 09       		.byte	0x9
 1375 0444 BA       		.byte	0xba
 1376 0445 33000000 		.4byte	0x33
 1377 0449 0E       		.byte	0xe
 1378 044a 09       		.uleb128 0x9
 1379 044b 5F626600 		.ascii	"_bf\000"
 1380 044f 09       		.byte	0x9
 1381 0450 BB       		.byte	0xbb
 1382 0451 DA030000 		.4byte	0x3da
 1383 0455 10       		.byte	0x10
 1384 0456 08       		.uleb128 0x8
 1385 0457 5F000000 		.4byte	.LASF68
 1386 045b 09       		.byte	0x9
 1387 045c BC       		.byte	0xbc
 1388 045d 73000000 		.4byte	0x73
 1389 0461 18       		.byte	0x18
 1390 0462 08       		.uleb128 0x8
 1391 0463 F0000000 		.4byte	.LASF69
 1392 0467 09       		.byte	0x9
 1393 0468 C3       		.byte	0xc3
 1394 0469 1E010000 		.4byte	0x11e
 1395 046d 1C       		.byte	0x1c
 1396 046e 08       		.uleb128 0x8
 1397 046f BD000000 		.4byte	.LASF70
 1398 0473 09       		.byte	0x9
 1399 0474 C5       		.byte	0xc5
 1400 0475 8A060000 		.4byte	0x68a
 1401 0479 20       		.byte	0x20
 1402 047a 08       		.uleb128 0x8
 1403 047b 24050000 		.4byte	.LASF71
 1404 047f 09       		.byte	0x9
 1405 0480 C7       		.byte	0xc7
 1406 0481 B4060000 		.4byte	0x6b4
 1407 0485 24       		.byte	0x24
 1408 0486 08       		.uleb128 0x8
 1409 0487 6E080000 		.4byte	.LASF72
 1410 048b 09       		.byte	0x9
 1411 048c CA       		.byte	0xca
 1412 048d D8060000 		.4byte	0x6d8
 1413 0491 28       		.byte	0x28
 1414 0492 08       		.uleb128 0x8
 1415 0493 2F040000 		.4byte	.LASF73
 1416 0497 09       		.byte	0x9
 1417 0498 CB       		.byte	0xcb
 1418 0499 F2060000 		.4byte	0x6f2
 1419 049d 2C       		.byte	0x2c
 1420 049e 09       		.uleb128 0x9
 1421 049f 5F756200 		.ascii	"_ub\000"
 1422 04a3 09       		.byte	0x9
 1423 04a4 CE       		.byte	0xce
 1424 04a5 DA030000 		.4byte	0x3da
 1425 04a9 30       		.byte	0x30
ARM GAS  /tmp/ccvik3Iq.s 			page 26


 1426 04aa 09       		.uleb128 0x9
 1427 04ab 5F757000 		.ascii	"_up\000"
 1428 04af 09       		.byte	0x9
 1429 04b0 CF       		.byte	0xcf
 1430 04b1 FF030000 		.4byte	0x3ff
 1431 04b5 38       		.byte	0x38
 1432 04b6 09       		.uleb128 0x9
 1433 04b7 5F757200 		.ascii	"_ur\000"
 1434 04bb 09       		.byte	0x9
 1435 04bc D0       		.byte	0xd0
 1436 04bd 73000000 		.4byte	0x73
 1437 04c1 3C       		.byte	0x3c
 1438 04c2 08       		.uleb128 0x8
 1439 04c3 A1080000 		.4byte	.LASF74
 1440 04c7 09       		.byte	0x9
 1441 04c8 D3       		.byte	0xd3
 1442 04c9 F8060000 		.4byte	0x6f8
 1443 04cd 40       		.byte	0x40
 1444 04ce 08       		.uleb128 0x8
 1445 04cf F5070000 		.4byte	.LASF75
 1446 04d3 09       		.byte	0x9
 1447 04d4 D4       		.byte	0xd4
 1448 04d5 08070000 		.4byte	0x708
 1449 04d9 43       		.byte	0x43
 1450 04da 09       		.uleb128 0x9
 1451 04db 5F6C6200 		.ascii	"_lb\000"
 1452 04df 09       		.byte	0x9
 1453 04e0 D7       		.byte	0xd7
 1454 04e1 DA030000 		.4byte	0x3da
 1455 04e5 44       		.byte	0x44
 1456 04e6 08       		.uleb128 0x8
 1457 04e7 8C060000 		.4byte	.LASF76
 1458 04eb 09       		.byte	0x9
 1459 04ec DA       		.byte	0xda
 1460 04ed 73000000 		.4byte	0x73
 1461 04f1 4C       		.byte	0x4c
 1462 04f2 08       		.uleb128 0x8
 1463 04f3 30030000 		.4byte	.LASF77
 1464 04f7 09       		.byte	0x9
 1465 04f8 DB       		.byte	0xdb
 1466 04f9 B4010000 		.4byte	0x1b4
 1467 04fd 50       		.byte	0x50
 1468 04fe 08       		.uleb128 0x8
 1469 04ff EA050000 		.4byte	.LASF78
 1470 0503 09       		.byte	0x9
 1471 0504 DE       		.byte	0xde
 1472 0505 4D050000 		.4byte	0x54d
 1473 0509 54       		.byte	0x54
 1474 050a 08       		.uleb128 0x8
 1475 050b A2060000 		.4byte	.LASF79
 1476 050f 09       		.byte	0x9
 1477 0510 E2       		.byte	0xe2
 1478 0511 31020000 		.4byte	0x231
 1479 0515 58       		.byte	0x58
 1480 0516 08       		.uleb128 0x8
 1481 0517 9B000000 		.4byte	.LASF80
 1482 051b 09       		.byte	0x9
ARM GAS  /tmp/ccvik3Iq.s 			page 27


 1483 051c E4       		.byte	0xe4
 1484 051d 26020000 		.4byte	0x226
 1485 0521 5C       		.byte	0x5c
 1486 0522 08       		.uleb128 0x8
 1487 0523 21080000 		.4byte	.LASF81
 1488 0527 09       		.byte	0x9
 1489 0528 E5       		.byte	0xe5
 1490 0529 73000000 		.4byte	0x73
 1491 052d 64       		.byte	0x64
 1492 052e 00       		.byte	0
 1493 052f 0B       		.uleb128 0xb
 1494 0530 73000000 		.4byte	0x73
 1495 0534 4D050000 		.4byte	0x54d
 1496 0538 0C       		.uleb128 0xc
 1497 0539 4D050000 		.4byte	0x54d
 1498 053d 0C       		.uleb128 0xc
 1499 053e 1E010000 		.4byte	0x11e
 1500 0542 0C       		.uleb128 0xc
 1501 0543 3C020000 		.4byte	0x23c
 1502 0547 0C       		.uleb128 0xc
 1503 0548 73000000 		.4byte	0x73
 1504 054c 00       		.byte	0
 1505 054d 05       		.uleb128 0x5
 1506 054e 04       		.byte	0x4
 1507 054f 58050000 		.4byte	0x558
 1508 0553 0D       		.uleb128 0xd
 1509 0554 4D050000 		.4byte	0x54d
 1510 0558 18       		.uleb128 0x18
 1511 0559 C5070000 		.4byte	.LASF82
 1512 055d 2804     		.2byte	0x428
 1513 055f 09       		.byte	0x9
 1514 0560 6002     		.2byte	0x260
 1515 0562 8A060000 		.4byte	0x68a
 1516 0566 19       		.uleb128 0x19
 1517 0567 76000000 		.4byte	.LASF83
 1518 056b 09       		.byte	0x9
 1519 056c 6202     		.2byte	0x262
 1520 056e 73000000 		.4byte	0x73
 1521 0572 00       		.byte	0
 1522 0573 19       		.uleb128 0x19
 1523 0574 41040000 		.4byte	.LASF84
 1524 0578 09       		.byte	0x9
 1525 0579 6702     		.2byte	0x267
 1526 057b 5F070000 		.4byte	0x75f
 1527 057f 04       		.byte	0x4
 1528 0580 19       		.uleb128 0x19
 1529 0581 15070000 		.4byte	.LASF85
 1530 0585 09       		.byte	0x9
 1531 0586 6702     		.2byte	0x267
 1532 0588 5F070000 		.4byte	0x75f
 1533 058c 08       		.byte	0x8
 1534 058d 19       		.uleb128 0x19
 1535 058e 90080000 		.4byte	.LASF86
 1536 0592 09       		.byte	0x9
 1537 0593 6702     		.2byte	0x267
 1538 0595 5F070000 		.4byte	0x75f
 1539 0599 0C       		.byte	0xc
ARM GAS  /tmp/ccvik3Iq.s 			page 28


 1540 059a 19       		.uleb128 0x19
 1541 059b 70030000 		.4byte	.LASF87
 1542 059f 09       		.byte	0x9
 1543 05a0 6902     		.2byte	0x269
 1544 05a2 73000000 		.4byte	0x73
 1545 05a6 10       		.byte	0x10
 1546 05a7 19       		.uleb128 0x19
 1547 05a8 3E030000 		.4byte	.LASF88
 1548 05ac 09       		.byte	0x9
 1549 05ad 6A02     		.2byte	0x26a
 1550 05af 41090000 		.4byte	0x941
 1551 05b3 14       		.byte	0x14
 1552 05b4 19       		.uleb128 0x19
 1553 05b5 08080000 		.4byte	.LASF89
 1554 05b9 09       		.byte	0x9
 1555 05ba 6D02     		.2byte	0x26d
 1556 05bc 73000000 		.4byte	0x73
 1557 05c0 30       		.byte	0x30
 1558 05c1 19       		.uleb128 0x19
 1559 05c2 A9070000 		.4byte	.LASF90
 1560 05c6 09       		.byte	0x9
 1561 05c7 6E02     		.2byte	0x26e
 1562 05c9 97000000 		.4byte	0x97
 1563 05cd 34       		.byte	0x34
 1564 05ce 19       		.uleb128 0x19
 1565 05cf 36040000 		.4byte	.LASF91
 1566 05d3 09       		.byte	0x9
 1567 05d4 7002     		.2byte	0x270
 1568 05d6 73000000 		.4byte	0x73
 1569 05da 38       		.byte	0x38
 1570 05db 19       		.uleb128 0x19
 1571 05dc B0040000 		.4byte	.LASF92
 1572 05e0 09       		.byte	0x9
 1573 05e1 7202     		.2byte	0x272
 1574 05e3 5C090000 		.4byte	0x95c
 1575 05e7 3C       		.byte	0x3c
 1576 05e8 19       		.uleb128 0x19
 1577 05e9 26010000 		.4byte	.LASF93
 1578 05ed 09       		.byte	0x9
 1579 05ee 7502     		.2byte	0x275
 1580 05f0 A0020000 		.4byte	0x2a0
 1581 05f4 40       		.byte	0x40
 1582 05f5 19       		.uleb128 0x19
 1583 05f6 DA020000 		.4byte	.LASF94
 1584 05fa 09       		.byte	0x9
 1585 05fb 7602     		.2byte	0x276
 1586 05fd 73000000 		.4byte	0x73
 1587 0601 44       		.byte	0x44
 1588 0602 19       		.uleb128 0x19
 1589 0603 B7030000 		.4byte	.LASF95
 1590 0607 09       		.byte	0x9
 1591 0608 7702     		.2byte	0x277
 1592 060a A0020000 		.4byte	0x2a0
 1593 060e 48       		.byte	0x48
 1594 060f 19       		.uleb128 0x19
 1595 0610 72040000 		.4byte	.LASF96
 1596 0614 09       		.byte	0x9
ARM GAS  /tmp/ccvik3Iq.s 			page 29


 1597 0615 7802     		.2byte	0x278
 1598 0617 62090000 		.4byte	0x962
 1599 061b 4C       		.byte	0x4c
 1600 061c 19       		.uleb128 0x19
 1601 061d 72060000 		.4byte	.LASF97
 1602 0621 09       		.byte	0x9
 1603 0622 7B02     		.2byte	0x27b
 1604 0624 73000000 		.4byte	0x73
 1605 0628 50       		.byte	0x50
 1606 0629 19       		.uleb128 0x19
 1607 062a 1D070000 		.4byte	.LASF98
 1608 062e 09       		.byte	0x9
 1609 062f 7C02     		.2byte	0x27c
 1610 0631 3C020000 		.4byte	0x23c
 1611 0635 54       		.byte	0x54
 1612 0636 19       		.uleb128 0x19
 1613 0637 55060000 		.4byte	.LASF99
 1614 063b 09       		.byte	0x9
 1615 063c 9F02     		.2byte	0x29f
 1616 063e 1F090000 		.4byte	0x91f
 1617 0642 58       		.byte	0x58
 1618 0643 1A       		.uleb128 0x1a
 1619 0644 7C050000 		.4byte	.LASF59
 1620 0648 09       		.byte	0x9
 1621 0649 A302     		.2byte	0x2a3
 1622 064b BD030000 		.4byte	0x3bd
 1623 064f 4801     		.2byte	0x148
 1624 0651 1A       		.uleb128 0x1a
 1625 0652 02040000 		.4byte	.LASF100
 1626 0656 09       		.byte	0x9
 1627 0657 A402     		.2byte	0x2a4
 1628 0659 7F030000 		.4byte	0x37f
 1629 065d 4C01     		.2byte	0x14c
 1630 065f 1A       		.uleb128 0x1a
 1631 0660 E9030000 		.4byte	.LASF101
 1632 0664 09       		.byte	0x9
 1633 0665 A802     		.2byte	0x2a8
 1634 0667 73090000 		.4byte	0x973
 1635 066b DC02     		.2byte	0x2dc
 1636 066d 1A       		.uleb128 0x1a
 1637 066e 86070000 		.4byte	.LASF102
 1638 0672 09       		.byte	0x9
 1639 0673 AD02     		.2byte	0x2ad
 1640 0675 24070000 		.4byte	0x724
 1641 0679 E002     		.2byte	0x2e0
 1642 067b 1A       		.uleb128 0x1a
 1643 067c DF050000 		.4byte	.LASF103
 1644 0680 09       		.byte	0x9
 1645 0681 AF02     		.2byte	0x2af
 1646 0683 7F090000 		.4byte	0x97f
 1647 0687 EC02     		.2byte	0x2ec
 1648 0689 00       		.byte	0
 1649 068a 05       		.uleb128 0x5
 1650 068b 04       		.byte	0x4
 1651 068c 2F050000 		.4byte	0x52f
 1652 0690 0B       		.uleb128 0xb
 1653 0691 73000000 		.4byte	0x73
ARM GAS  /tmp/ccvik3Iq.s 			page 30


 1654 0695 AE060000 		.4byte	0x6ae
 1655 0699 0C       		.uleb128 0xc
 1656 069a 4D050000 		.4byte	0x54d
 1657 069e 0C       		.uleb128 0xc
 1658 069f 1E010000 		.4byte	0x11e
 1659 06a3 0C       		.uleb128 0xc
 1660 06a4 AE060000 		.4byte	0x6ae
 1661 06a8 0C       		.uleb128 0xc
 1662 06a9 73000000 		.4byte	0x73
 1663 06ad 00       		.byte	0
 1664 06ae 05       		.uleb128 0x5
 1665 06af 04       		.byte	0x4
 1666 06b0 58010000 		.4byte	0x158
 1667 06b4 05       		.uleb128 0x5
 1668 06b5 04       		.byte	0x4
 1669 06b6 90060000 		.4byte	0x690
 1670 06ba 0B       		.uleb128 0xb
 1671 06bb BF010000 		.4byte	0x1bf
 1672 06bf D8060000 		.4byte	0x6d8
 1673 06c3 0C       		.uleb128 0xc
 1674 06c4 4D050000 		.4byte	0x54d
 1675 06c8 0C       		.uleb128 0xc
 1676 06c9 1E010000 		.4byte	0x11e
 1677 06cd 0C       		.uleb128 0xc
 1678 06ce BF010000 		.4byte	0x1bf
 1679 06d2 0C       		.uleb128 0xc
 1680 06d3 73000000 		.4byte	0x73
 1681 06d7 00       		.byte	0
 1682 06d8 05       		.uleb128 0x5
 1683 06d9 04       		.byte	0x4
 1684 06da BA060000 		.4byte	0x6ba
 1685 06de 0B       		.uleb128 0xb
 1686 06df 73000000 		.4byte	0x73
 1687 06e3 F2060000 		.4byte	0x6f2
 1688 06e7 0C       		.uleb128 0xc
 1689 06e8 4D050000 		.4byte	0x54d
 1690 06ec 0C       		.uleb128 0xc
 1691 06ed 1E010000 		.4byte	0x11e
 1692 06f1 00       		.byte	0
 1693 06f2 05       		.uleb128 0x5
 1694 06f3 04       		.byte	0x4
 1695 06f4 DE060000 		.4byte	0x6de
 1696 06f8 12       		.uleb128 0x12
 1697 06f9 2C000000 		.4byte	0x2c
 1698 06fd 08070000 		.4byte	0x708
 1699 0701 13       		.uleb128 0x13
 1700 0702 7A000000 		.4byte	0x7a
 1701 0706 02       		.byte	0x2
 1702 0707 00       		.byte	0
 1703 0708 12       		.uleb128 0x12
 1704 0709 2C000000 		.4byte	0x2c
 1705 070d 18070000 		.4byte	0x718
 1706 0711 13       		.uleb128 0x13
 1707 0712 7A000000 		.4byte	0x7a
 1708 0716 00       		.byte	0
 1709 0717 00       		.byte	0
 1710 0718 0F       		.uleb128 0xf
ARM GAS  /tmp/ccvik3Iq.s 			page 31


 1711 0719 20030000 		.4byte	.LASF104
 1712 071d 09       		.byte	0x9
 1713 071e 1F01     		.2byte	0x11f
 1714 0720 05040000 		.4byte	0x405
 1715 0724 1B       		.uleb128 0x1b
 1716 0725 80070000 		.4byte	.LASF105
 1717 0729 0C       		.byte	0xc
 1718 072a 09       		.byte	0x9
 1719 072b 2301     		.2byte	0x123
 1720 072d 59070000 		.4byte	0x759
 1721 0731 19       		.uleb128 0x19
 1722 0732 8F030000 		.4byte	.LASF40
 1723 0736 09       		.byte	0x9
 1724 0737 2501     		.2byte	0x125
 1725 0739 59070000 		.4byte	0x759
 1726 073d 00       		.byte	0
 1727 073e 19       		.uleb128 0x19
 1728 073f BA060000 		.4byte	.LASF106
 1729 0743 09       		.byte	0x9
 1730 0744 2601     		.2byte	0x126
 1731 0746 73000000 		.4byte	0x73
 1732 074a 04       		.byte	0x4
 1733 074b 19       		.uleb128 0x19
 1734 074c 1A040000 		.4byte	.LASF107
 1735 0750 09       		.byte	0x9
 1736 0751 2701     		.2byte	0x127
 1737 0753 5F070000 		.4byte	0x75f
 1738 0757 08       		.byte	0x8
 1739 0758 00       		.byte	0
 1740 0759 05       		.uleb128 0x5
 1741 075a 04       		.byte	0x4
 1742 075b 24070000 		.4byte	0x724
 1743 075f 05       		.uleb128 0x5
 1744 0760 04       		.byte	0x4
 1745 0761 18070000 		.4byte	0x718
 1746 0765 1B       		.uleb128 0x1b
 1747 0766 D2020000 		.4byte	.LASF108
 1748 076a 0E       		.byte	0xe
 1749 076b 09       		.byte	0x9
 1750 076c 3F01     		.2byte	0x13f
 1751 076e 9A070000 		.4byte	0x79a
 1752 0772 19       		.uleb128 0x19
 1753 0773 89000000 		.4byte	.LASF109
 1754 0777 09       		.byte	0x9
 1755 0778 4001     		.2byte	0x140
 1756 077a 9A070000 		.4byte	0x79a
 1757 077e 00       		.byte	0
 1758 077f 19       		.uleb128 0x19
 1759 0780 7C040000 		.4byte	.LASF110
 1760 0784 09       		.byte	0x9
 1761 0785 4101     		.2byte	0x141
 1762 0787 9A070000 		.4byte	0x79a
 1763 078b 06       		.byte	0x6
 1764 078c 19       		.uleb128 0x19
 1765 078d 66070000 		.4byte	.LASF111
 1766 0791 09       		.byte	0x9
 1767 0792 4201     		.2byte	0x142
ARM GAS  /tmp/ccvik3Iq.s 			page 32


 1768 0794 45000000 		.4byte	0x45
 1769 0798 0C       		.byte	0xc
 1770 0799 00       		.byte	0
 1771 079a 12       		.uleb128 0x12
 1772 079b 45000000 		.4byte	0x45
 1773 079f AA070000 		.4byte	0x7aa
 1774 07a3 13       		.uleb128 0x13
 1775 07a4 7A000000 		.4byte	0x7a
 1776 07a8 02       		.byte	0x2
 1777 07a9 00       		.byte	0
 1778 07aa 1C       		.uleb128 0x1c
 1779 07ab D0       		.byte	0xd0
 1780 07ac 09       		.byte	0x9
 1781 07ad 8002     		.2byte	0x280
 1782 07af AB080000 		.4byte	0x8ab
 1783 07b3 19       		.uleb128 0x19
 1784 07b4 FB070000 		.4byte	.LASF112
 1785 07b8 09       		.byte	0x9
 1786 07b9 8202     		.2byte	0x282
 1787 07bb 7A000000 		.4byte	0x7a
 1788 07bf 00       		.byte	0
 1789 07c0 19       		.uleb128 0x19
 1790 07c1 8E070000 		.4byte	.LASF113
 1791 07c5 09       		.byte	0x9
 1792 07c6 8302     		.2byte	0x283
 1793 07c8 3C020000 		.4byte	0x23c
 1794 07cc 04       		.byte	0x4
 1795 07cd 19       		.uleb128 0x19
 1796 07ce FB020000 		.4byte	.LASF114
 1797 07d2 09       		.byte	0x9
 1798 07d3 8402     		.2byte	0x284
 1799 07d5 AB080000 		.4byte	0x8ab
 1800 07d9 08       		.byte	0x8
 1801 07da 19       		.uleb128 0x19
 1802 07db 3E060000 		.4byte	.LASF115
 1803 07df 09       		.byte	0x9
 1804 07e0 8502     		.2byte	0x285
 1805 07e2 B6020000 		.4byte	0x2b6
 1806 07e6 24       		.byte	0x24
 1807 07e7 19       		.uleb128 0x19
 1808 07e8 48040000 		.4byte	.LASF116
 1809 07ec 09       		.byte	0x9
 1810 07ed 8602     		.2byte	0x286
 1811 07ef 73000000 		.4byte	0x73
 1812 07f3 48       		.byte	0x48
 1813 07f4 19       		.uleb128 0x19
 1814 07f5 58080000 		.4byte	.LASF117
 1815 07f9 09       		.byte	0x9
 1816 07fa 8702     		.2byte	0x287
 1817 07fc 6C000000 		.4byte	0x6c
 1818 0800 50       		.byte	0x50
 1819 0801 19       		.uleb128 0x19
 1820 0802 41000000 		.4byte	.LASF118
 1821 0806 09       		.byte	0x9
 1822 0807 8802     		.2byte	0x288
 1823 0809 65070000 		.4byte	0x765
 1824 080d 58       		.byte	0x58
ARM GAS  /tmp/ccvik3Iq.s 			page 33


 1825 080e 19       		.uleb128 0x19
 1826 080f CD030000 		.4byte	.LASF119
 1827 0813 09       		.byte	0x9
 1828 0814 8902     		.2byte	0x289
 1829 0816 26020000 		.4byte	0x226
 1830 081a 68       		.byte	0x68
 1831 081b 19       		.uleb128 0x19
 1832 081c 9B070000 		.4byte	.LASF120
 1833 0820 09       		.byte	0x9
 1834 0821 8A02     		.2byte	0x28a
 1835 0823 26020000 		.4byte	0x226
 1836 0827 70       		.byte	0x70
 1837 0828 19       		.uleb128 0x19
 1838 0829 16000000 		.4byte	.LASF121
 1839 082d 09       		.byte	0x9
 1840 082e 8B02     		.2byte	0x28b
 1841 0830 26020000 		.4byte	0x226
 1842 0834 78       		.byte	0x78
 1843 0835 19       		.uleb128 0x19
 1844 0836 82060000 		.4byte	.LASF122
 1845 083a 09       		.byte	0x9
 1846 083b 8C02     		.2byte	0x28c
 1847 083d BB080000 		.4byte	0x8bb
 1848 0841 80       		.byte	0x80
 1849 0842 19       		.uleb128 0x19
 1850 0843 46000000 		.4byte	.LASF123
 1851 0847 09       		.byte	0x9
 1852 0848 8D02     		.2byte	0x28d
 1853 084a CB080000 		.4byte	0x8cb
 1854 084e 88       		.byte	0x88
 1855 084f 19       		.uleb128 0x19
 1856 0850 59070000 		.4byte	.LASF124
 1857 0854 09       		.byte	0x9
 1858 0855 8E02     		.2byte	0x28e
 1859 0857 73000000 		.4byte	0x73
 1860 085b A0       		.byte	0xa0
 1861 085c 19       		.uleb128 0x19
 1862 085d C3000000 		.4byte	.LASF125
 1863 0861 09       		.byte	0x9
 1864 0862 8F02     		.2byte	0x28f
 1865 0864 26020000 		.4byte	0x226
 1866 0868 A4       		.byte	0xa4
 1867 0869 19       		.uleb128 0x19
 1868 086a F3030000 		.4byte	.LASF126
 1869 086e 09       		.byte	0x9
 1870 086f 9002     		.2byte	0x290
 1871 0871 26020000 		.4byte	0x226
 1872 0875 AC       		.byte	0xac
 1873 0876 19       		.uleb128 0x19
 1874 0877 95030000 		.4byte	.LASF127
 1875 087b 09       		.byte	0x9
 1876 087c 9102     		.2byte	0x291
 1877 087e 26020000 		.4byte	0x226
 1878 0882 B4       		.byte	0xb4
 1879 0883 19       		.uleb128 0x19
 1880 0884 8A040000 		.4byte	.LASF128
 1881 0888 09       		.byte	0x9
ARM GAS  /tmp/ccvik3Iq.s 			page 34


 1882 0889 9202     		.2byte	0x292
 1883 088b 26020000 		.4byte	0x226
 1884 088f BC       		.byte	0xbc
 1885 0890 19       		.uleb128 0x19
 1886 0891 BC030000 		.4byte	.LASF129
 1887 0895 09       		.byte	0x9
 1888 0896 9302     		.2byte	0x293
 1889 0898 26020000 		.4byte	0x226
 1890 089c C4       		.byte	0xc4
 1891 089d 19       		.uleb128 0x19
 1892 089e 27030000 		.4byte	.LASF130
 1893 08a2 09       		.byte	0x9
 1894 08a3 9402     		.2byte	0x294
 1895 08a5 73000000 		.4byte	0x73
 1896 08a9 CC       		.byte	0xcc
 1897 08aa 00       		.byte	0
 1898 08ab 12       		.uleb128 0x12
 1899 08ac 51010000 		.4byte	0x151
 1900 08b0 BB080000 		.4byte	0x8bb
 1901 08b4 13       		.uleb128 0x13
 1902 08b5 7A000000 		.4byte	0x7a
 1903 08b9 19       		.byte	0x19
 1904 08ba 00       		.byte	0
 1905 08bb 12       		.uleb128 0x12
 1906 08bc 51010000 		.4byte	0x151
 1907 08c0 CB080000 		.4byte	0x8cb
 1908 08c4 13       		.uleb128 0x13
 1909 08c5 7A000000 		.4byte	0x7a
 1910 08c9 07       		.byte	0x7
 1911 08ca 00       		.byte	0
 1912 08cb 12       		.uleb128 0x12
 1913 08cc 51010000 		.4byte	0x151
 1914 08d0 DB080000 		.4byte	0x8db
 1915 08d4 13       		.uleb128 0x13
 1916 08d5 7A000000 		.4byte	0x7a
 1917 08d9 17       		.byte	0x17
 1918 08da 00       		.byte	0
 1919 08db 1C       		.uleb128 0x1c
 1920 08dc F0       		.byte	0xf0
 1921 08dd 09       		.byte	0x9
 1922 08de 9902     		.2byte	0x299
 1923 08e0 FF080000 		.4byte	0x8ff
 1924 08e4 19       		.uleb128 0x19
 1925 08e5 92010000 		.4byte	.LASF131
 1926 08e9 09       		.byte	0x9
 1927 08ea 9C02     		.2byte	0x29c
 1928 08ec FF080000 		.4byte	0x8ff
 1929 08f0 00       		.byte	0
 1930 08f1 19       		.uleb128 0x19
 1931 08f2 98080000 		.4byte	.LASF132
 1932 08f6 09       		.byte	0x9
 1933 08f7 9D02     		.2byte	0x29d
 1934 08f9 0F090000 		.4byte	0x90f
 1935 08fd 78       		.byte	0x78
 1936 08fe 00       		.byte	0
 1937 08ff 12       		.uleb128 0x12
 1938 0900 FF030000 		.4byte	0x3ff
ARM GAS  /tmp/ccvik3Iq.s 			page 35


 1939 0904 0F090000 		.4byte	0x90f
 1940 0908 13       		.uleb128 0x13
 1941 0909 7A000000 		.4byte	0x7a
 1942 090d 1D       		.byte	0x1d
 1943 090e 00       		.byte	0
 1944 090f 12       		.uleb128 0x12
 1945 0910 7A000000 		.4byte	0x7a
 1946 0914 1F090000 		.4byte	0x91f
 1947 0918 13       		.uleb128 0x13
 1948 0919 7A000000 		.4byte	0x7a
 1949 091d 1D       		.byte	0x1d
 1950 091e 00       		.byte	0
 1951 091f 1D       		.uleb128 0x1d
 1952 0920 F0       		.byte	0xf0
 1953 0921 09       		.byte	0x9
 1954 0922 7E02     		.2byte	0x27e
 1955 0924 41090000 		.4byte	0x941
 1956 0928 1E       		.uleb128 0x1e
 1957 0929 C5070000 		.4byte	.LASF82
 1958 092d 09       		.byte	0x9
 1959 092e 9502     		.2byte	0x295
 1960 0930 AA070000 		.4byte	0x7aa
 1961 0934 1E       		.uleb128 0x1e
 1962 0935 4D060000 		.4byte	.LASF133
 1963 0939 09       		.byte	0x9
 1964 093a 9E02     		.2byte	0x29e
 1965 093c DB080000 		.4byte	0x8db
 1966 0940 00       		.byte	0
 1967 0941 12       		.uleb128 0x12
 1968 0942 51010000 		.4byte	0x151
 1969 0946 51090000 		.4byte	0x951
 1970 094a 13       		.uleb128 0x13
 1971 094b 7A000000 		.4byte	0x7a
 1972 094f 18       		.byte	0x18
 1973 0950 00       		.byte	0
 1974 0951 0E       		.uleb128 0xe
 1975 0952 5C090000 		.4byte	0x95c
 1976 0956 0C       		.uleb128 0xc
 1977 0957 4D050000 		.4byte	0x54d
 1978 095b 00       		.byte	0
 1979 095c 05       		.uleb128 0x5
 1980 095d 04       		.byte	0x4
 1981 095e 51090000 		.4byte	0x951
 1982 0962 05       		.uleb128 0x5
 1983 0963 04       		.byte	0x4
 1984 0964 A0020000 		.4byte	0x2a0
 1985 0968 0E       		.uleb128 0xe
 1986 0969 73090000 		.4byte	0x973
 1987 096d 0C       		.uleb128 0xc
 1988 096e 73000000 		.4byte	0x73
 1989 0972 00       		.byte	0
 1990 0973 05       		.uleb128 0x5
 1991 0974 04       		.byte	0x4
 1992 0975 79090000 		.4byte	0x979
 1993 0979 05       		.uleb128 0x5
 1994 097a 04       		.byte	0x4
 1995 097b 68090000 		.4byte	0x968
ARM GAS  /tmp/ccvik3Iq.s 			page 36


 1996 097f 12       		.uleb128 0x12
 1997 0980 18070000 		.4byte	0x718
 1998 0984 8F090000 		.4byte	0x98f
 1999 0988 13       		.uleb128 0x13
 2000 0989 7A000000 		.4byte	0x7a
 2001 098d 02       		.byte	0x2
 2002 098e 00       		.byte	0
 2003 098f 1F       		.uleb128 0x1f
 2004 0990 86010000 		.4byte	.LASF134
 2005 0994 09       		.byte	0x9
 2006 0995 2E03     		.2byte	0x32e
 2007 0997 4D050000 		.4byte	0x54d
 2008 099b 1F       		.uleb128 0x1f
 2009 099c F7050000 		.4byte	.LASF135
 2010 09a0 09       		.byte	0x9
 2011 09a1 2F03     		.2byte	0x32f
 2012 09a3 53050000 		.4byte	0x553
 2013 09a7 20       		.uleb128 0x20
 2014 09a8 5C030000 		.4byte	.LASF136
 2015 09ac 0A       		.byte	0xa
 2016 09ad 63       		.byte	0x63
 2017 09ae 3C020000 		.4byte	0x23c
 2018 09b2 21       		.uleb128 0x21
 2019 09b3 C3050000 		.4byte	.LASF140
 2020 09b7 01       		.byte	0x1
 2021 09b8 A4       		.byte	0xa4
 2022 09b9 73000000 		.4byte	0x73
 2023 09bd 00000000 		.4byte	.LFB55
 2024 09c1 40000000 		.4byte	.LFE55-.LFB55
 2025 09c5 01       		.uleb128 0x1
 2026 09c6 9C       		.byte	0x9c
 2027 09c7 730A0000 		.4byte	0xa73
 2028 09cb 22       		.uleb128 0x22
 2029 09cc 6F000000 		.4byte	.LASF137
 2030 09d0 01       		.byte	0x1
 2031 09d1 A4       		.byte	0xa4
 2032 09d2 3C020000 		.4byte	0x23c
 2033 09d6 00000000 		.4byte	.LLST41
 2034 09da 22       		.uleb128 0x22
 2035 09db 38030000 		.4byte	.LASF138
 2036 09df 01       		.byte	0x1
 2037 09e0 A4       		.byte	0xa4
 2038 09e1 A2000000 		.4byte	0xa2
 2039 09e5 1E000000 		.4byte	.LLST42
 2040 09e9 23       		.uleb128 0x23
 2041 09ea 72657300 		.ascii	"res\000"
 2042 09ee 01       		.byte	0x1
 2043 09ef A5       		.byte	0xa5
 2044 09f0 73000000 		.4byte	0x73
 2045 09f4 00       		.byte	0
 2046 09f5 24       		.uleb128 0x24
 2047 09f6 6B040000 		.4byte	.LASF139
 2048 09fa 01       		.byte	0x1
 2049 09fb A7       		.byte	0xa7
 2050 09fc B8000000 		.4byte	0xb8
 2051 0a00 02       		.uleb128 0x2
 2052 0a01 91       		.byte	0x91
ARM GAS  /tmp/ccvik3Iq.s 			page 37


 2053 0a02 6C       		.sleb128 -20
 2054 0a03 25       		.uleb128 0x25
 2055 0a04 83120000 		.4byte	0x1283
 2056 0a08 30000000 		.4byte	.LBB110
 2057 0a0c 02000000 		.4byte	.LBE110-.LBB110
 2058 0a10 01       		.byte	0x1
 2059 0a11 AF       		.byte	0xaf
 2060 0a12 1C0A0000 		.4byte	0xa1c
 2061 0a16 26       		.uleb128 0x26
 2062 0a17 94120000 		.4byte	0x1294
 2063 0a1b 00       		.byte	0
 2064 0a1c 27       		.uleb128 0x27
 2065 0a1d 0C000000 		.4byte	.LVL103
 2066 0a21 BB120000 		.4byte	0x12bb
 2067 0a25 28       		.uleb128 0x28
 2068 0a26 1E000000 		.4byte	.LVL105
 2069 0a2a C6120000 		.4byte	0x12c6
 2070 0a2e 3F0A0000 		.4byte	0xa3f
 2071 0a32 29       		.uleb128 0x29
 2072 0a33 01       		.uleb128 0x1
 2073 0a34 50       		.byte	0x50
 2074 0a35 02       		.uleb128 0x2
 2075 0a36 74       		.byte	0x74
 2076 0a37 00       		.sleb128 0
 2077 0a38 29       		.uleb128 0x29
 2078 0a39 01       		.uleb128 0x1
 2079 0a3a 51       		.byte	0x51
 2080 0a3b 02       		.uleb128 0x2
 2081 0a3c 91       		.byte	0x91
 2082 0a3d 6C       		.sleb128 -20
 2083 0a3e 00       		.byte	0
 2084 0a3f 28       		.uleb128 0x28
 2085 0a40 28000000 		.4byte	.LVL106
 2086 0a44 D1120000 		.4byte	0x12d1
 2087 0a48 590A0000 		.4byte	0xa59
 2088 0a4c 29       		.uleb128 0x29
 2089 0a4d 01       		.uleb128 0x1
 2090 0a4e 50       		.byte	0x50
 2091 0a4f 02       		.uleb128 0x2
 2092 0a50 74       		.byte	0x74
 2093 0a51 00       		.sleb128 0
 2094 0a52 29       		.uleb128 0x29
 2095 0a53 01       		.uleb128 0x1
 2096 0a54 51       		.byte	0x51
 2097 0a55 02       		.uleb128 0x2
 2098 0a56 91       		.byte	0x91
 2099 0a57 6C       		.sleb128 -20
 2100 0a58 00       		.byte	0
 2101 0a59 27       		.uleb128 0x27
 2102 0a5a 30000000 		.4byte	.LVL107
 2103 0a5e DC120000 		.4byte	0x12dc
 2104 0a62 2A       		.uleb128 0x2a
 2105 0a63 3A000000 		.4byte	.LVL108
 2106 0a67 E7120000 		.4byte	0x12e7
 2107 0a6b 29       		.uleb128 0x29
 2108 0a6c 01       		.uleb128 0x1
 2109 0a6d 52       		.byte	0x52
ARM GAS  /tmp/ccvik3Iq.s 			page 38


 2110 0a6e 02       		.uleb128 0x2
 2111 0a6f 75       		.byte	0x75
 2112 0a70 00       		.sleb128 0
 2113 0a71 00       		.byte	0
 2114 0a72 00       		.byte	0
 2115 0a73 21       		.uleb128 0x21
 2116 0a74 CE050000 		.4byte	.LASF141
 2117 0a78 01       		.byte	0x1
 2118 0a79 95       		.byte	0x95
 2119 0a7a 73000000 		.4byte	0x73
 2120 0a7e 00000000 		.4byte	.LFB54
 2121 0a82 38000000 		.4byte	.LFE54-.LFB54
 2122 0a86 01       		.uleb128 0x1
 2123 0a87 9C       		.byte	0x9c
 2124 0a88 260B0000 		.4byte	0xb26
 2125 0a8c 2B       		.uleb128 0x2b
 2126 0a8d 63696400 		.ascii	"cid\000"
 2127 0a91 01       		.byte	0x1
 2128 0a92 95       		.byte	0x95
 2129 0a93 CA000000 		.4byte	0xca
 2130 0a97 3C000000 		.4byte	.LLST37
 2131 0a9b 2B       		.uleb128 0x2b
 2132 0a9c 6D736700 		.ascii	"msg\000"
 2133 0aa0 01       		.byte	0x1
 2134 0aa1 95       		.byte	0x95
 2135 0aa2 A2000000 		.4byte	0xa2
 2136 0aa6 5D000000 		.4byte	.LLST38
 2137 0aaa 2C       		.uleb128 0x2c
 2138 0aab 72657300 		.ascii	"res\000"
 2139 0aaf 01       		.byte	0x1
 2140 0ab0 96       		.byte	0x96
 2141 0ab1 73000000 		.4byte	0x73
 2142 0ab5 7B000000 		.4byte	.LLST39
 2143 0ab9 2D       		.uleb128 0x2d
 2144 0aba 12000000 		.4byte	.LBB105
 2145 0abe 24000000 		.4byte	.LBE105-.LBB105
 2146 0ac2 1C0B0000 		.4byte	0xb1c
 2147 0ac6 2C       		.uleb128 0x2c
 2148 0ac7 7600     		.ascii	"v\000"
 2149 0ac9 01       		.byte	0x1
 2150 0aca 9A       		.byte	0x9a
 2151 0acb A2000000 		.4byte	0xa2
 2152 0acf 9A000000 		.4byte	.LLST40
 2153 0ad3 25       		.uleb128 0x25
 2154 0ad4 9F120000 		.4byte	0x129f
 2155 0ad8 1A000000 		.4byte	.LBB106
 2156 0adc 0C000000 		.4byte	.LBE106-.LBB106
 2157 0ae0 01       		.byte	0x1
 2158 0ae1 9C       		.byte	0x9c
 2159 0ae2 EC0A0000 		.4byte	0xaec
 2160 0ae6 26       		.uleb128 0x26
 2161 0ae7 B0120000 		.4byte	0x12b0
 2162 0aeb 00       		.byte	0
 2163 0aec 25       		.uleb128 0x25
 2164 0aed 67120000 		.4byte	0x1267
 2165 0af1 2A000000 		.4byte	.LBB108
 2166 0af5 02000000 		.4byte	.LBE108-.LBB108
ARM GAS  /tmp/ccvik3Iq.s 			page 39


 2167 0af9 01       		.byte	0x1
 2168 0afa 9D       		.byte	0x9d
 2169 0afb 050B0000 		.4byte	0xb05
 2170 0aff 26       		.uleb128 0x26
 2171 0b00 78120000 		.4byte	0x1278
 2172 0b04 00       		.byte	0
 2173 0b05 2A       		.uleb128 0x2a
 2174 0b06 1A000000 		.4byte	.LVL99
 2175 0b0a F2120000 		.4byte	0x12f2
 2176 0b0e 29       		.uleb128 0x29
 2177 0b0f 01       		.uleb128 0x1
 2178 0b10 50       		.byte	0x50
 2179 0b11 02       		.uleb128 0x2
 2180 0b12 74       		.byte	0x74
 2181 0b13 00       		.sleb128 0
 2182 0b14 29       		.uleb128 0x29
 2183 0b15 01       		.uleb128 0x1
 2184 0b16 51       		.byte	0x51
 2185 0b17 02       		.uleb128 0x2
 2186 0b18 75       		.byte	0x75
 2187 0b19 00       		.sleb128 0
 2188 0b1a 00       		.byte	0
 2189 0b1b 00       		.byte	0
 2190 0b1c 27       		.uleb128 0x27
 2191 0b1d 0A000000 		.4byte	.LVL97
 2192 0b21 BB120000 		.4byte	0x12bb
 2193 0b25 00       		.byte	0
 2194 0b26 21       		.uleb128 0x21
 2195 0b27 DE060000 		.4byte	.LASF142
 2196 0b2b 01       		.byte	0x1
 2197 0b2c 91       		.byte	0x91
 2198 0b2d CA000000 		.4byte	0xca
 2199 0b31 00000000 		.4byte	.LFB53
 2200 0b35 06000000 		.4byte	.LFE53-.LFB53
 2201 0b39 01       		.uleb128 0x1
 2202 0b3a 9C       		.byte	0x9c
 2203 0b3b 650B0000 		.4byte	0xb65
 2204 0b3f 22       		.uleb128 0x22
 2205 0b40 6F000000 		.4byte	.LASF137
 2206 0b44 01       		.byte	0x1
 2207 0b45 91       		.byte	0x91
 2208 0b46 3C020000 		.4byte	0x23c
 2209 0b4a AD000000 		.4byte	.LLST36
 2210 0b4e 2E       		.uleb128 0x2e
 2211 0b4f 06000000 		.4byte	.LVL95
 2212 0b53 D20C0000 		.4byte	0xcd2
 2213 0b57 29       		.uleb128 0x29
 2214 0b58 01       		.uleb128 0x1
 2215 0b59 50       		.byte	0x50
 2216 0b5a 03       		.uleb128 0x3
 2217 0b5b F3       		.byte	0xf3
 2218 0b5c 01       		.uleb128 0x1
 2219 0b5d 50       		.byte	0x50
 2220 0b5e 29       		.uleb128 0x29
 2221 0b5f 01       		.uleb128 0x1
 2222 0b60 51       		.byte	0x51
 2223 0b61 01       		.uleb128 0x1
ARM GAS  /tmp/ccvik3Iq.s 			page 40


 2224 0b62 31       		.byte	0x31
 2225 0b63 00       		.byte	0
 2226 0b64 00       		.byte	0
 2227 0b65 21       		.uleb128 0x21
 2228 0b66 84050000 		.4byte	.LASF143
 2229 0b6a 01       		.byte	0x1
 2230 0b6b 8D       		.byte	0x8d
 2231 0b6c CA000000 		.4byte	0xca
 2232 0b70 00000000 		.4byte	.LFB52
 2233 0b74 06000000 		.4byte	.LFE52-.LFB52
 2234 0b78 01       		.uleb128 0x1
 2235 0b79 9C       		.byte	0x9c
 2236 0b7a A40B0000 		.4byte	0xba4
 2237 0b7e 22       		.uleb128 0x22
 2238 0b7f 6F000000 		.4byte	.LASF137
 2239 0b83 01       		.byte	0x1
 2240 0b84 8D       		.byte	0x8d
 2241 0b85 3C020000 		.4byte	0x23c
 2242 0b89 CE000000 		.4byte	.LLST35
 2243 0b8d 2E       		.uleb128 0x2e
 2244 0b8e 06000000 		.4byte	.LVL93
 2245 0b92 D20C0000 		.4byte	0xcd2
 2246 0b96 29       		.uleb128 0x29
 2247 0b97 01       		.uleb128 0x1
 2248 0b98 50       		.byte	0x50
 2249 0b99 03       		.uleb128 0x3
 2250 0b9a F3       		.byte	0xf3
 2251 0b9b 01       		.uleb128 0x1
 2252 0b9c 50       		.byte	0x50
 2253 0b9d 29       		.uleb128 0x29
 2254 0b9e 01       		.uleb128 0x1
 2255 0b9f 51       		.byte	0x51
 2256 0ba0 01       		.uleb128 0x1
 2257 0ba1 30       		.byte	0x30
 2258 0ba2 00       		.byte	0
 2259 0ba3 00       		.byte	0
 2260 0ba4 21       		.uleb128 0x21
 2261 0ba5 74080000 		.4byte	.LASF144
 2262 0ba9 01       		.byte	0x1
 2263 0baa 89       		.byte	0x89
 2264 0bab CA000000 		.4byte	0xca
 2265 0baf 00000000 		.4byte	.LFB51
 2266 0bb3 06000000 		.4byte	.LFE51-.LFB51
 2267 0bb7 01       		.uleb128 0x1
 2268 0bb8 9C       		.byte	0x9c
 2269 0bb9 F90B0000 		.4byte	0xbf9
 2270 0bbd 22       		.uleb128 0x22
 2271 0bbe C8060000 		.4byte	.LASF145
 2272 0bc2 01       		.byte	0x1
 2273 0bc3 89       		.byte	0x89
 2274 0bc4 F90B0000 		.4byte	0xbf9
 2275 0bc8 EF000000 		.4byte	.LLST33
 2276 0bcc 22       		.uleb128 0x22
 2277 0bcd 6F000000 		.4byte	.LASF137
 2278 0bd1 01       		.byte	0x1
 2279 0bd2 89       		.byte	0x89
 2280 0bd3 3C020000 		.4byte	0x23c
ARM GAS  /tmp/ccvik3Iq.s 			page 41


 2281 0bd7 10010000 		.4byte	.LLST34
 2282 0bdb 2E       		.uleb128 0x2e
 2283 0bdc 06000000 		.4byte	.LVL91
 2284 0be0 B40E0000 		.4byte	0xeb4
 2285 0be4 29       		.uleb128 0x29
 2286 0be5 01       		.uleb128 0x1
 2287 0be6 50       		.byte	0x50
 2288 0be7 03       		.uleb128 0x3
 2289 0be8 F3       		.byte	0xf3
 2290 0be9 01       		.uleb128 0x1
 2291 0bea 50       		.byte	0x50
 2292 0beb 29       		.uleb128 0x29
 2293 0bec 01       		.uleb128 0x1
 2294 0bed 51       		.byte	0x51
 2295 0bee 03       		.uleb128 0x3
 2296 0bef F3       		.byte	0xf3
 2297 0bf0 01       		.uleb128 0x1
 2298 0bf1 51       		.byte	0x51
 2299 0bf2 29       		.uleb128 0x29
 2300 0bf3 01       		.uleb128 0x1
 2301 0bf4 52       		.byte	0x52
 2302 0bf5 01       		.uleb128 0x1
 2303 0bf6 31       		.byte	0x31
 2304 0bf7 00       		.byte	0
 2305 0bf8 00       		.byte	0
 2306 0bf9 05       		.uleb128 0x5
 2307 0bfa 04       		.byte	0x4
 2308 0bfb 93010000 		.4byte	0x193
 2309 0bff 21       		.uleb128 0x21
 2310 0c00 62050000 		.4byte	.LASF146
 2311 0c04 01       		.byte	0x1
 2312 0c05 85       		.byte	0x85
 2313 0c06 CA000000 		.4byte	0xca
 2314 0c0a 00000000 		.4byte	.LFB50
 2315 0c0e 06000000 		.4byte	.LFE50-.LFB50
 2316 0c12 01       		.uleb128 0x1
 2317 0c13 9C       		.byte	0x9c
 2318 0c14 3E0C0000 		.4byte	0xc3e
 2319 0c18 22       		.uleb128 0x22
 2320 0c19 C8060000 		.4byte	.LASF145
 2321 0c1d 01       		.byte	0x1
 2322 0c1e 85       		.byte	0x85
 2323 0c1f F90B0000 		.4byte	0xbf9
 2324 0c23 31010000 		.4byte	.LLST32
 2325 0c27 2E       		.uleb128 0x2e
 2326 0c28 06000000 		.4byte	.LVL89
 2327 0c2c B2100000 		.4byte	0x10b2
 2328 0c30 29       		.uleb128 0x29
 2329 0c31 01       		.uleb128 0x1
 2330 0c32 50       		.byte	0x50
 2331 0c33 03       		.uleb128 0x3
 2332 0c34 F3       		.byte	0xf3
 2333 0c35 01       		.uleb128 0x1
 2334 0c36 50       		.byte	0x50
 2335 0c37 29       		.uleb128 0x29
 2336 0c38 01       		.uleb128 0x1
 2337 0c39 51       		.byte	0x51
ARM GAS  /tmp/ccvik3Iq.s 			page 42


 2338 0c3a 01       		.uleb128 0x1
 2339 0c3b 31       		.byte	0x31
 2340 0c3c 00       		.byte	0
 2341 0c3d 00       		.byte	0
 2342 0c3e 21       		.uleb128 0x21
 2343 0c3f FE040000 		.4byte	.LASF147
 2344 0c43 01       		.byte	0x1
 2345 0c44 81       		.byte	0x81
 2346 0c45 CA000000 		.4byte	0xca
 2347 0c49 00000000 		.4byte	.LFB49
 2348 0c4d 06000000 		.4byte	.LFE49-.LFB49
 2349 0c51 01       		.uleb128 0x1
 2350 0c52 9C       		.byte	0x9c
 2351 0c53 930C0000 		.4byte	0xc93
 2352 0c57 22       		.uleb128 0x22
 2353 0c58 C8060000 		.4byte	.LASF145
 2354 0c5c 01       		.byte	0x1
 2355 0c5d 81       		.byte	0x81
 2356 0c5e F90B0000 		.4byte	0xbf9
 2357 0c62 52010000 		.4byte	.LLST30
 2358 0c66 22       		.uleb128 0x22
 2359 0c67 6F000000 		.4byte	.LASF137
 2360 0c6b 01       		.byte	0x1
 2361 0c6c 81       		.byte	0x81
 2362 0c6d 3C020000 		.4byte	0x23c
 2363 0c71 73010000 		.4byte	.LLST31
 2364 0c75 2E       		.uleb128 0x2e
 2365 0c76 06000000 		.4byte	.LVL87
 2366 0c7a B40E0000 		.4byte	0xeb4
 2367 0c7e 29       		.uleb128 0x29
 2368 0c7f 01       		.uleb128 0x1
 2369 0c80 50       		.byte	0x50
 2370 0c81 03       		.uleb128 0x3
 2371 0c82 F3       		.byte	0xf3
 2372 0c83 01       		.uleb128 0x1
 2373 0c84 50       		.byte	0x50
 2374 0c85 29       		.uleb128 0x29
 2375 0c86 01       		.uleb128 0x1
 2376 0c87 51       		.byte	0x51
 2377 0c88 03       		.uleb128 0x3
 2378 0c89 F3       		.byte	0xf3
 2379 0c8a 01       		.uleb128 0x1
 2380 0c8b 51       		.byte	0x51
 2381 0c8c 29       		.uleb128 0x29
 2382 0c8d 01       		.uleb128 0x1
 2383 0c8e 52       		.byte	0x52
 2384 0c8f 01       		.uleb128 0x1
 2385 0c90 30       		.byte	0x30
 2386 0c91 00       		.byte	0
 2387 0c92 00       		.byte	0
 2388 0c93 21       		.uleb128 0x21
 2389 0c94 34050000 		.4byte	.LASF148
 2390 0c98 01       		.byte	0x1
 2391 0c99 7D       		.byte	0x7d
 2392 0c9a CA000000 		.4byte	0xca
 2393 0c9e 00000000 		.4byte	.LFB48
 2394 0ca2 06000000 		.4byte	.LFE48-.LFB48
ARM GAS  /tmp/ccvik3Iq.s 			page 43


 2395 0ca6 01       		.uleb128 0x1
 2396 0ca7 9C       		.byte	0x9c
 2397 0ca8 D20C0000 		.4byte	0xcd2
 2398 0cac 22       		.uleb128 0x22
 2399 0cad C8060000 		.4byte	.LASF145
 2400 0cb1 01       		.byte	0x1
 2401 0cb2 7D       		.byte	0x7d
 2402 0cb3 F90B0000 		.4byte	0xbf9
 2403 0cb7 94010000 		.4byte	.LLST29
 2404 0cbb 2E       		.uleb128 0x2e
 2405 0cbc 06000000 		.4byte	.LVL85
 2406 0cc0 B2100000 		.4byte	0x10b2
 2407 0cc4 29       		.uleb128 0x29
 2408 0cc5 01       		.uleb128 0x1
 2409 0cc6 50       		.byte	0x50
 2410 0cc7 03       		.uleb128 0x3
 2411 0cc8 F3       		.byte	0xf3
 2412 0cc9 01       		.uleb128 0x1
 2413 0cca 50       		.byte	0x50
 2414 0ccb 29       		.uleb128 0x29
 2415 0ccc 01       		.uleb128 0x1
 2416 0ccd 51       		.byte	0x51
 2417 0cce 01       		.uleb128 0x1
 2418 0ccf 30       		.byte	0x30
 2419 0cd0 00       		.byte	0
 2420 0cd1 00       		.byte	0
 2421 0cd2 21       		.uleb128 0x21
 2422 0cd3 51050000 		.4byte	.LASF149
 2423 0cd7 01       		.byte	0x1
 2424 0cd8 5A       		.byte	0x5a
 2425 0cd9 CA000000 		.4byte	0xca
 2426 0cdd 00000000 		.4byte	.LFB47
 2427 0ce1 94000000 		.4byte	.LFE47-.LFB47
 2428 0ce5 01       		.uleb128 0x1
 2429 0ce6 9C       		.byte	0x9c
 2430 0ce7 B40E0000 		.4byte	0xeb4
 2431 0ceb 22       		.uleb128 0x22
 2432 0cec 6F000000 		.4byte	.LASF137
 2433 0cf0 01       		.byte	0x1
 2434 0cf1 5A       		.byte	0x5a
 2435 0cf2 3C020000 		.4byte	0x23c
 2436 0cf6 B5010000 		.4byte	.LLST19
 2437 0cfa 22       		.uleb128 0x22
 2438 0cfb 87030000 		.4byte	.LASF150
 2439 0cff 01       		.byte	0x1
 2440 0d00 5A       		.byte	0x5a
 2441 0d01 2F010000 		.4byte	0x12f
 2442 0d05 D6010000 		.4byte	.LLST20
 2443 0d09 24       		.uleb128 0x24
 2444 0d0a 6B040000 		.4byte	.LASF139
 2445 0d0e 01       		.byte	0x1
 2446 0d0f 5C       		.byte	0x5c
 2447 0d10 B8000000 		.4byte	0xb8
 2448 0d14 02       		.uleb128 0x2
 2449 0d15 91       		.byte	0x91
 2450 0d16 6C       		.sleb128 -20
 2451 0d17 2F       		.uleb128 0x2f
ARM GAS  /tmp/ccvik3Iq.s 			page 44


 2452 0d18 00000000 		.4byte	.LASF151
 2453 0d1c 01       		.byte	0x1
 2454 0d1d 63       		.byte	0x63
 2455 0d1e A2000000 		.4byte	0xa2
 2456 0d22 F7010000 		.4byte	.LLST21
 2457 0d26 2F       		.uleb128 0x2f
 2458 0d27 A6030000 		.4byte	.LASF152
 2459 0d2b 01       		.byte	0x1
 2460 0d2c 6C       		.byte	0x6c
 2461 0d2d A2000000 		.4byte	0xa2
 2462 0d31 0A020000 		.4byte	.LLST22
 2463 0d35 2F       		.uleb128 0x2f
 2464 0d36 6B070000 		.4byte	.LASF153
 2465 0d3a 01       		.byte	0x1
 2466 0d3b 6D       		.byte	0x6d
 2467 0d3c A2000000 		.4byte	0xa2
 2468 0d40 33020000 		.4byte	.LLST23
 2469 0d44 2F       		.uleb128 0x2f
 2470 0d45 E1000000 		.4byte	.LASF154
 2471 0d49 01       		.byte	0x1
 2472 0d4a 6F       		.byte	0x6f
 2473 0d4b A2000000 		.4byte	0xa2
 2474 0d4f 72020000 		.4byte	.LLST24
 2475 0d53 25       		.uleb128 0x25
 2476 0d54 83120000 		.4byte	0x1283
 2477 0d58 14000000 		.4byte	.LBB91
 2478 0d5c 04000000 		.4byte	.LBE91-.LBB91
 2479 0d60 01       		.byte	0x1
 2480 0d61 63       		.byte	0x63
 2481 0d62 700D0000 		.4byte	0xd70
 2482 0d66 30       		.uleb128 0x30
 2483 0d67 94120000 		.4byte	0x1294
 2484 0d6b 85020000 		.4byte	.LLST25
 2485 0d6f 00       		.byte	0
 2486 0d70 25       		.uleb128 0x25
 2487 0d71 9F120000 		.4byte	0x129f
 2488 0d75 24000000 		.4byte	.LBB93
 2489 0d79 0C000000 		.4byte	.LBE93-.LBB93
 2490 0d7d 01       		.byte	0x1
 2491 0d7e 65       		.byte	0x65
 2492 0d7f 890D0000 		.4byte	0xd89
 2493 0d83 26       		.uleb128 0x26
 2494 0d84 B0120000 		.4byte	0x12b0
 2495 0d88 00       		.byte	0
 2496 0d89 25       		.uleb128 0x25
 2497 0d8a 67120000 		.4byte	0x1267
 2498 0d8e 32000000 		.4byte	.LBB95
 2499 0d92 02000000 		.4byte	.LBE95-.LBB95
 2500 0d96 01       		.byte	0x1
 2501 0d97 66       		.byte	0x66
 2502 0d98 A20D0000 		.4byte	0xda2
 2503 0d9c 26       		.uleb128 0x26
 2504 0d9d 78120000 		.4byte	0x1278
 2505 0da1 00       		.byte	0
 2506 0da2 25       		.uleb128 0x25
 2507 0da3 83120000 		.4byte	0x1283
 2508 0da7 38000000 		.4byte	.LBB97
ARM GAS  /tmp/ccvik3Iq.s 			page 45


 2509 0dab 02000000 		.4byte	.LBE97-.LBB97
 2510 0daf 01       		.byte	0x1
 2511 0db0 6C       		.byte	0x6c
 2512 0db1 BB0D0000 		.4byte	0xdbb
 2513 0db5 26       		.uleb128 0x26
 2514 0db6 94120000 		.4byte	0x1294
 2515 0dba 00       		.byte	0
 2516 0dbb 25       		.uleb128 0x25
 2517 0dbc 9F120000 		.4byte	0x129f
 2518 0dc0 5E000000 		.4byte	.LBB99
 2519 0dc4 08000000 		.4byte	.LBE99-.LBB99
 2520 0dc8 01       		.byte	0x1
 2521 0dc9 73       		.byte	0x73
 2522 0dca D80D0000 		.4byte	0xdd8
 2523 0dce 30       		.uleb128 0x30
 2524 0dcf B0120000 		.4byte	0x12b0
 2525 0dd3 99020000 		.4byte	.LLST26
 2526 0dd7 00       		.byte	0
 2527 0dd8 25       		.uleb128 0x25
 2528 0dd9 9F120000 		.4byte	0x129f
 2529 0ddd 6C000000 		.4byte	.LBB101
 2530 0de1 08000000 		.4byte	.LBE101-.LBB101
 2531 0de5 01       		.byte	0x1
 2532 0de6 74       		.byte	0x74
 2533 0de7 F50D0000 		.4byte	0xdf5
 2534 0deb 30       		.uleb128 0x30
 2535 0dec B0120000 		.4byte	0x12b0
 2536 0df0 AC020000 		.4byte	.LLST27
 2537 0df4 00       		.byte	0
 2538 0df5 25       		.uleb128 0x25
 2539 0df6 9F120000 		.4byte	0x129f
 2540 0dfa 7A000000 		.4byte	.LBB103
 2541 0dfe 08000000 		.4byte	.LBE103-.LBB103
 2542 0e02 01       		.byte	0x1
 2543 0e03 75       		.byte	0x75
 2544 0e04 120E0000 		.4byte	0xe12
 2545 0e08 30       		.uleb128 0x30
 2546 0e09 B0120000 		.4byte	0x12b0
 2547 0e0d BF020000 		.4byte	.LLST28
 2548 0e11 00       		.byte	0
 2549 0e12 28       		.uleb128 0x28
 2550 0e13 0C000000 		.4byte	.LVL64
 2551 0e17 C6120000 		.4byte	0x12c6
 2552 0e1b 2D0E0000 		.4byte	0xe2d
 2553 0e1f 29       		.uleb128 0x29
 2554 0e20 01       		.uleb128 0x1
 2555 0e21 50       		.byte	0x50
 2556 0e22 03       		.uleb128 0x3
 2557 0e23 F3       		.byte	0xf3
 2558 0e24 01       		.uleb128 0x1
 2559 0e25 50       		.byte	0x50
 2560 0e26 29       		.uleb128 0x29
 2561 0e27 01       		.uleb128 0x1
 2562 0e28 51       		.byte	0x51
 2563 0e29 02       		.uleb128 0x2
 2564 0e2a 91       		.byte	0x91
 2565 0e2b 6C       		.sleb128 -20
ARM GAS  /tmp/ccvik3Iq.s 			page 46


 2566 0e2c 00       		.byte	0
 2567 0e2d 27       		.uleb128 0x27
 2568 0e2e 1C000000 		.4byte	.LVL67
 2569 0e32 FD120000 		.4byte	0x12fd
 2570 0e36 28       		.uleb128 0x28
 2571 0e37 24000000 		.4byte	.LVL68
 2572 0e3b 08130000 		.4byte	0x1308
 2573 0e3f 4A0E0000 		.4byte	0xe4a
 2574 0e43 29       		.uleb128 0x29
 2575 0e44 01       		.uleb128 0x1
 2576 0e45 50       		.byte	0x50
 2577 0e46 02       		.uleb128 0x2
 2578 0e47 74       		.byte	0x74
 2579 0e48 00       		.sleb128 0
 2580 0e49 00       		.byte	0
 2581 0e4a 28       		.uleb128 0x28
 2582 0e4b 42000000 		.4byte	.LVL70
 2583 0e4f 13130000 		.4byte	0x1313
 2584 0e53 5D0E0000 		.4byte	0xe5d
 2585 0e57 29       		.uleb128 0x29
 2586 0e58 01       		.uleb128 0x1
 2587 0e59 51       		.byte	0x51
 2588 0e5a 01       		.uleb128 0x1
 2589 0e5b 30       		.byte	0x30
 2590 0e5c 00       		.byte	0
 2591 0e5d 28       		.uleb128 0x28
 2592 0e5e 56000000 		.4byte	.LVL73
 2593 0e62 13130000 		.4byte	0x1313
 2594 0e66 840E0000 		.4byte	0xe84
 2595 0e6a 29       		.uleb128 0x29
 2596 0e6b 01       		.uleb128 0x1
 2597 0e6c 50       		.byte	0x50
 2598 0e6d 0F       		.uleb128 0xf
 2599 0e6e 0A       		.byte	0xa
 2600 0e6f A010     		.2byte	0x10a0
 2601 0e71 0A       		.byte	0xa
 2602 0e72 9010     		.2byte	0x1090
 2603 0e74 75       		.byte	0x75
 2604 0e75 00       		.sleb128 0
 2605 0e76 30       		.byte	0x30
 2606 0e77 2E       		.byte	0x2e
 2607 0e78 28       		.byte	0x28
 2608 0e79 0100     		.2byte	0x1
 2609 0e7b 16       		.byte	0x16
 2610 0e7c 13       		.byte	0x13
 2611 0e7d 29       		.uleb128 0x29
 2612 0e7e 01       		.uleb128 0x1
 2613 0e7f 51       		.byte	0x51
 2614 0e80 02       		.uleb128 0x2
 2615 0e81 74       		.byte	0x74
 2616 0e82 00       		.sleb128 0
 2617 0e83 00       		.byte	0
 2618 0e84 28       		.uleb128 0x28
 2619 0e85 5E000000 		.4byte	.LVL75
 2620 0e89 13130000 		.4byte	0x1313
 2621 0e8d 9D0E0000 		.4byte	0xe9d
 2622 0e91 29       		.uleb128 0x29
ARM GAS  /tmp/ccvik3Iq.s 			page 47


 2623 0e92 01       		.uleb128 0x1
 2624 0e93 50       		.byte	0x50
 2625 0e94 02       		.uleb128 0x2
 2626 0e95 75       		.byte	0x75
 2627 0e96 00       		.sleb128 0
 2628 0e97 29       		.uleb128 0x29
 2629 0e98 01       		.uleb128 0x1
 2630 0e99 51       		.byte	0x51
 2631 0e9a 01       		.uleb128 0x1
 2632 0e9b 30       		.byte	0x30
 2633 0e9c 00       		.byte	0
 2634 0e9d 2A       		.uleb128 0x2a
 2635 0e9e 92000000 		.4byte	.LVL83
 2636 0ea2 1F130000 		.4byte	0x131f
 2637 0ea6 29       		.uleb128 0x29
 2638 0ea7 01       		.uleb128 0x1
 2639 0ea8 51       		.byte	0x51
 2640 0ea9 01       		.uleb128 0x1
 2641 0eaa 30       		.byte	0x30
 2642 0eab 29       		.uleb128 0x29
 2643 0eac 01       		.uleb128 0x1
 2644 0ead 52       		.byte	0x52
 2645 0eae 03       		.uleb128 0x3
 2646 0eaf 0A       		.byte	0xa
 2647 0eb0 0001     		.2byte	0x100
 2648 0eb2 00       		.byte	0
 2649 0eb3 00       		.byte	0
 2650 0eb4 21       		.uleb128 0x21
 2651 0eb5 A4000000 		.4byte	.LASF155
 2652 0eb9 01       		.byte	0x1
 2653 0eba 36       		.byte	0x36
 2654 0ebb CA000000 		.4byte	0xca
 2655 0ebf 00000000 		.4byte	.LFB46
 2656 0ec3 B2000000 		.4byte	.LFE46-.LFB46
 2657 0ec7 01       		.uleb128 0x1
 2658 0ec8 9C       		.byte	0x9c
 2659 0ec9 B2100000 		.4byte	0x10b2
 2660 0ecd 22       		.uleb128 0x22
 2661 0ece C8060000 		.4byte	.LASF145
 2662 0ed2 01       		.byte	0x1
 2663 0ed3 36       		.byte	0x36
 2664 0ed4 F90B0000 		.4byte	0xbf9
 2665 0ed8 D2020000 		.4byte	.LLST9
 2666 0edc 22       		.uleb128 0x22
 2667 0edd 6F000000 		.4byte	.LASF137
 2668 0ee1 01       		.byte	0x1
 2669 0ee2 36       		.byte	0x36
 2670 0ee3 3C020000 		.4byte	0x23c
 2671 0ee7 F3020000 		.4byte	.LLST10
 2672 0eeb 22       		.uleb128 0x22
 2673 0eec 87030000 		.4byte	.LASF150
 2674 0ef0 01       		.byte	0x1
 2675 0ef1 36       		.byte	0x36
 2676 0ef2 2F010000 		.4byte	0x12f
 2677 0ef6 38030000 		.4byte	.LLST11
 2678 0efa 2F       		.uleb128 0x2f
 2679 0efb A7080000 		.4byte	.LASF156
ARM GAS  /tmp/ccvik3Iq.s 			page 48


 2680 0eff 01       		.byte	0x1
 2681 0f00 38       		.byte	0x38
 2682 0f01 A2000000 		.4byte	0xa2
 2683 0f05 59030000 		.4byte	.LLST12
 2684 0f09 24       		.uleb128 0x24
 2685 0f0a 6B040000 		.4byte	.LASF139
 2686 0f0e 01       		.byte	0x1
 2687 0f0f 3E       		.byte	0x3e
 2688 0f10 B8000000 		.4byte	0xb8
 2689 0f14 02       		.uleb128 0x2
 2690 0f15 91       		.byte	0x91
 2691 0f16 6C       		.sleb128 -20
 2692 0f17 2F       		.uleb128 0x2f
 2693 0f18 A6030000 		.4byte	.LASF152
 2694 0f1c 01       		.byte	0x1
 2695 0f1d 49       		.byte	0x49
 2696 0f1e A2000000 		.4byte	0xa2
 2697 0f22 77030000 		.4byte	.LLST13
 2698 0f26 2F       		.uleb128 0x2f
 2699 0f27 00000000 		.4byte	.LASF151
 2700 0f2b 01       		.byte	0x1
 2701 0f2c 4B       		.byte	0x4b
 2702 0f2d A2000000 		.4byte	0xa2
 2703 0f31 AB030000 		.4byte	.LLST14
 2704 0f35 2F       		.uleb128 0x2f
 2705 0f36 9A060000 		.4byte	.LASF157
 2706 0f3a 01       		.byte	0x1
 2707 0f3b 4D       		.byte	0x4d
 2708 0f3c A2000000 		.4byte	0xa2
 2709 0f40 EA030000 		.4byte	.LLST15
 2710 0f44 25       		.uleb128 0x25
 2711 0f45 9F120000 		.4byte	0x129f
 2712 0f49 0E000000 		.4byte	.LBB81
 2713 0f4d 0C000000 		.4byte	.LBE81-.LBB81
 2714 0f51 01       		.byte	0x1
 2715 0f52 3A       		.byte	0x3a
 2716 0f53 5D0F0000 		.4byte	0xf5d
 2717 0f57 26       		.uleb128 0x26
 2718 0f58 B0120000 		.4byte	0x12b0
 2719 0f5c 00       		.byte	0
 2720 0f5d 25       		.uleb128 0x25
 2721 0f5e 83120000 		.4byte	0x1283
 2722 0f62 56000000 		.4byte	.LBB83
 2723 0f66 02000000 		.4byte	.LBE83-.LBB83
 2724 0f6a 01       		.byte	0x1
 2725 0f6b 4C       		.byte	0x4c
 2726 0f6c 760F0000 		.4byte	0xf76
 2727 0f70 26       		.uleb128 0x26
 2728 0f71 94120000 		.4byte	0x1294
 2729 0f75 00       		.byte	0
 2730 0f76 25       		.uleb128 0x25
 2731 0f77 9F120000 		.4byte	0x129f
 2732 0f7b 70000000 		.4byte	.LBB85
 2733 0f7f 08000000 		.4byte	.LBE85-.LBB85
 2734 0f83 01       		.byte	0x1
 2735 0f84 51       		.byte	0x51
 2736 0f85 930F0000 		.4byte	0xf93
ARM GAS  /tmp/ccvik3Iq.s 			page 49


 2737 0f89 30       		.uleb128 0x30
 2738 0f8a B0120000 		.4byte	0x12b0
 2739 0f8e 08040000 		.4byte	.LLST16
 2740 0f92 00       		.byte	0
 2741 0f93 25       		.uleb128 0x25
 2742 0f94 9F120000 		.4byte	0x129f
 2743 0f98 7E000000 		.4byte	.LBB87
 2744 0f9c 08000000 		.4byte	.LBE87-.LBB87
 2745 0fa0 01       		.byte	0x1
 2746 0fa1 52       		.byte	0x52
 2747 0fa2 B00F0000 		.4byte	0xfb0
 2748 0fa6 30       		.uleb128 0x30
 2749 0fa7 B0120000 		.4byte	0x12b0
 2750 0fab 1B040000 		.4byte	.LLST17
 2751 0faf 00       		.byte	0
 2752 0fb0 25       		.uleb128 0x25
 2753 0fb1 9F120000 		.4byte	0x129f
 2754 0fb5 8C000000 		.4byte	.LBB89
 2755 0fb9 08000000 		.4byte	.LBE89-.LBB89
 2756 0fbd 01       		.byte	0x1
 2757 0fbe 53       		.byte	0x53
 2758 0fbf CD0F0000 		.4byte	0xfcd
 2759 0fc3 30       		.uleb128 0x30
 2760 0fc4 B0120000 		.4byte	0x12b0
 2761 0fc8 2E040000 		.4byte	.LLST18
 2762 0fcc 00       		.byte	0
 2763 0fcd 28       		.uleb128 0x28
 2764 0fce 0C000000 		.4byte	.LVL35
 2765 0fd2 2A130000 		.4byte	0x132a
 2766 0fd6 E20F0000 		.4byte	0xfe2
 2767 0fda 29       		.uleb128 0x29
 2768 0fdb 01       		.uleb128 0x1
 2769 0fdc 50       		.byte	0x50
 2770 0fdd 03       		.uleb128 0x3
 2771 0fde F3       		.byte	0xf3
 2772 0fdf 01       		.uleb128 0x1
 2773 0fe0 50       		.byte	0x50
 2774 0fe1 00       		.byte	0
 2775 0fe2 28       		.uleb128 0x28
 2776 0fe3 28000000 		.4byte	.LVL40
 2777 0fe7 C6120000 		.4byte	0x12c6
 2778 0feb FC0F0000 		.4byte	0xffc
 2779 0fef 29       		.uleb128 0x29
 2780 0ff0 01       		.uleb128 0x1
 2781 0ff1 50       		.byte	0x50
 2782 0ff2 02       		.uleb128 0x2
 2783 0ff3 74       		.byte	0x74
 2784 0ff4 00       		.sleb128 0
 2785 0ff5 29       		.uleb128 0x29
 2786 0ff6 01       		.uleb128 0x1
 2787 0ff7 51       		.byte	0x51
 2788 0ff8 02       		.uleb128 0x2
 2789 0ff9 91       		.byte	0x91
 2790 0ffa 6C       		.sleb128 -20
 2791 0ffb 00       		.byte	0
 2792 0ffc 28       		.uleb128 0x28
 2793 0ffd 32000000 		.4byte	.LVL41
ARM GAS  /tmp/ccvik3Iq.s 			page 50


 2794 1001 35130000 		.4byte	0x1335
 2795 1005 16100000 		.4byte	0x1016
 2796 1009 29       		.uleb128 0x29
 2797 100a 01       		.uleb128 0x1
 2798 100b 50       		.byte	0x50
 2799 100c 02       		.uleb128 0x2
 2800 100d 74       		.byte	0x74
 2801 100e 00       		.sleb128 0
 2802 100f 29       		.uleb128 0x29
 2803 1010 01       		.uleb128 0x1
 2804 1011 51       		.byte	0x51
 2805 1012 02       		.uleb128 0x2
 2806 1013 91       		.byte	0x91
 2807 1014 6C       		.sleb128 -20
 2808 1015 00       		.byte	0
 2809 1016 28       		.uleb128 0x28
 2810 1017 3C000000 		.4byte	.LVL42
 2811 101b 13130000 		.4byte	0x1313
 2812 101f 2F100000 		.4byte	0x102f
 2813 1023 29       		.uleb128 0x29
 2814 1024 01       		.uleb128 0x1
 2815 1025 50       		.byte	0x50
 2816 1026 02       		.uleb128 0x2
 2817 1027 75       		.byte	0x75
 2818 1028 00       		.sleb128 0
 2819 1029 29       		.uleb128 0x29
 2820 102a 01       		.uleb128 0x1
 2821 102b 51       		.byte	0x51
 2822 102c 01       		.uleb128 0x1
 2823 102d 30       		.byte	0x30
 2824 102e 00       		.byte	0
 2825 102f 27       		.uleb128 0x27
 2826 1030 4E000000 		.4byte	.LVL44
 2827 1034 13130000 		.4byte	0x1313
 2828 1038 28       		.uleb128 0x28
 2829 1039 56000000 		.4byte	.LVL46
 2830 103d 13130000 		.4byte	0x1313
 2831 1041 51100000 		.4byte	0x1051
 2832 1045 29       		.uleb128 0x29
 2833 1046 01       		.uleb128 0x1
 2834 1047 50       		.byte	0x50
 2835 1048 02       		.uleb128 0x2
 2836 1049 74       		.byte	0x74
 2837 104a 00       		.sleb128 0
 2838 104b 29       		.uleb128 0x29
 2839 104c 01       		.uleb128 0x1
 2840 104d 51       		.byte	0x51
 2841 104e 01       		.uleb128 0x1
 2842 104f 30       		.byte	0x30
 2843 1050 00       		.byte	0
 2844 1051 27       		.uleb128 0x27
 2845 1052 60000000 		.4byte	.LVL48
 2846 1056 13130000 		.4byte	0x1313
 2847 105a 28       		.uleb128 0x28
 2848 105b 6A000000 		.4byte	.LVL51
 2849 105f 13130000 		.4byte	0x1313
 2850 1063 74100000 		.4byte	0x1074
ARM GAS  /tmp/ccvik3Iq.s 			page 51


 2851 1067 29       		.uleb128 0x29
 2852 1068 01       		.uleb128 0x1
 2853 1069 50       		.byte	0x50
 2854 106a 02       		.uleb128 0x2
 2855 106b 08       		.byte	0x8
 2856 106c E0       		.byte	0xe0
 2857 106d 29       		.uleb128 0x29
 2858 106e 01       		.uleb128 0x1
 2859 106f 51       		.byte	0x51
 2860 1070 02       		.uleb128 0x2
 2861 1071 76       		.byte	0x76
 2862 1072 00       		.sleb128 0
 2863 1073 00       		.byte	0
 2864 1074 28       		.uleb128 0x28
 2865 1075 70000000 		.4byte	.LVL52
 2866 1079 13130000 		.4byte	0x1313
 2867 107d 87100000 		.4byte	0x1087
 2868 1081 29       		.uleb128 0x29
 2869 1082 01       		.uleb128 0x1
 2870 1083 51       		.byte	0x51
 2871 1084 01       		.uleb128 0x1
 2872 1085 30       		.byte	0x30
 2873 1086 00       		.byte	0
 2874 1087 28       		.uleb128 0x28
 2875 1088 A4000000 		.4byte	.LVL60
 2876 108c 1F130000 		.4byte	0x131f
 2877 1090 A1100000 		.4byte	0x10a1
 2878 1094 29       		.uleb128 0x29
 2879 1095 01       		.uleb128 0x1
 2880 1096 51       		.byte	0x51
 2881 1097 01       		.uleb128 0x1
 2882 1098 30       		.byte	0x30
 2883 1099 29       		.uleb128 0x29
 2884 109a 01       		.uleb128 0x1
 2885 109b 52       		.byte	0x52
 2886 109c 03       		.uleb128 0x3
 2887 109d 0A       		.byte	0xa
 2888 109e 0001     		.2byte	0x100
 2889 10a0 00       		.byte	0
 2890 10a1 2A       		.uleb128 0x2a
 2891 10a2 AC000000 		.4byte	.LVL61
 2892 10a6 40130000 		.4byte	0x1340
 2893 10aa 29       		.uleb128 0x29
 2894 10ab 01       		.uleb128 0x1
 2895 10ac 50       		.byte	0x50
 2896 10ad 02       		.uleb128 0x2
 2897 10ae 75       		.byte	0x75
 2898 10af 00       		.sleb128 0
 2899 10b0 00       		.byte	0
 2900 10b1 00       		.byte	0
 2901 10b2 21       		.uleb128 0x21
 2902 10b3 14060000 		.4byte	.LASF158
 2903 10b7 01       		.byte	0x1
 2904 10b8 1A       		.byte	0x1a
 2905 10b9 CA000000 		.4byte	0xca
 2906 10bd 00000000 		.4byte	.LFB45
 2907 10c1 A2000000 		.4byte	.LFE45-.LFB45
ARM GAS  /tmp/ccvik3Iq.s 			page 52


 2908 10c5 01       		.uleb128 0x1
 2909 10c6 9C       		.byte	0x9c
 2910 10c7 67120000 		.4byte	0x1267
 2911 10cb 22       		.uleb128 0x22
 2912 10cc C8060000 		.4byte	.LASF145
 2913 10d0 01       		.byte	0x1
 2914 10d1 1A       		.byte	0x1a
 2915 10d2 F90B0000 		.4byte	0xbf9
 2916 10d6 41040000 		.4byte	.LLST0
 2917 10da 22       		.uleb128 0x22
 2918 10db 87030000 		.4byte	.LASF150
 2919 10df 01       		.byte	0x1
 2920 10e0 1A       		.byte	0x1a
 2921 10e1 2F010000 		.4byte	0x12f
 2922 10e5 62040000 		.4byte	.LLST1
 2923 10e9 2F       		.uleb128 0x2f
 2924 10ea A7080000 		.4byte	.LASF156
 2925 10ee 01       		.byte	0x1
 2926 10ef 1C       		.byte	0x1c
 2927 10f0 A2000000 		.4byte	0xa2
 2928 10f4 83040000 		.4byte	.LLST2
 2929 10f8 2F       		.uleb128 0x2f
 2930 10f9 A6030000 		.4byte	.LASF152
 2931 10fd 01       		.byte	0x1
 2932 10fe 25       		.byte	0x25
 2933 10ff A2000000 		.4byte	0xa2
 2934 1103 C2040000 		.4byte	.LLST3
 2935 1107 2F       		.uleb128 0x2f
 2936 1108 6B070000 		.4byte	.LASF153
 2937 110c 01       		.byte	0x1
 2938 110d 27       		.byte	0x27
 2939 110e A2000000 		.4byte	0xa2
 2940 1112 22050000 		.4byte	.LLST4
 2941 1116 2F       		.uleb128 0x2f
 2942 1117 E1000000 		.4byte	.LASF154
 2943 111b 01       		.byte	0x1
 2944 111c 29       		.byte	0x29
 2945 111d A2000000 		.4byte	0xa2
 2946 1121 6C050000 		.4byte	.LLST5
 2947 1125 25       		.uleb128 0x25
 2948 1126 9F120000 		.4byte	0x129f
 2949 112a 08000000 		.4byte	.LBB73
 2950 112e 0C000000 		.4byte	.LBE73-.LBB73
 2951 1132 01       		.byte	0x1
 2952 1133 1E       		.byte	0x1e
 2953 1134 3E110000 		.4byte	0x113e
 2954 1138 26       		.uleb128 0x26
 2955 1139 B0120000 		.4byte	0x12b0
 2956 113d 00       		.byte	0
 2957 113e 25       		.uleb128 0x25
 2958 113f 9F120000 		.4byte	0x129f
 2959 1143 48000000 		.4byte	.LBB75
 2960 1147 08000000 		.4byte	.LBE75-.LBB75
 2961 114b 01       		.byte	0x1
 2962 114c 2D       		.byte	0x2d
 2963 114d 5B110000 		.4byte	0x115b
 2964 1151 30       		.uleb128 0x30
ARM GAS  /tmp/ccvik3Iq.s 			page 53


 2965 1152 B0120000 		.4byte	0x12b0
 2966 1156 8A050000 		.4byte	.LLST6
 2967 115a 00       		.byte	0
 2968 115b 25       		.uleb128 0x25
 2969 115c 9F120000 		.4byte	0x129f
 2970 1160 56000000 		.4byte	.LBB77
 2971 1164 08000000 		.4byte	.LBE77-.LBB77
 2972 1168 01       		.byte	0x1
 2973 1169 2E       		.byte	0x2e
 2974 116a 78110000 		.4byte	0x1178
 2975 116e 30       		.uleb128 0x30
 2976 116f B0120000 		.4byte	0x12b0
 2977 1173 9D050000 		.4byte	.LLST7
 2978 1177 00       		.byte	0
 2979 1178 25       		.uleb128 0x25
 2980 1179 9F120000 		.4byte	0x129f
 2981 117d 64000000 		.4byte	.LBB79
 2982 1181 08000000 		.4byte	.LBE79-.LBB79
 2983 1185 01       		.byte	0x1
 2984 1186 2F       		.byte	0x2f
 2985 1187 95110000 		.4byte	0x1195
 2986 118b 30       		.uleb128 0x30
 2987 118c B0120000 		.4byte	0x12b0
 2988 1190 B0050000 		.4byte	.LLST8
 2989 1194 00       		.byte	0
 2990 1195 28       		.uleb128 0x28
 2991 1196 08000000 		.4byte	.LVL1
 2992 119a 2A130000 		.4byte	0x132a
 2993 119e AA110000 		.4byte	0x11aa
 2994 11a2 29       		.uleb128 0x29
 2995 11a3 01       		.uleb128 0x1
 2996 11a4 50       		.byte	0x50
 2997 11a5 03       		.uleb128 0x3
 2998 11a6 F3       		.byte	0xf3
 2999 11a7 01       		.uleb128 0x1
 3000 11a8 50       		.byte	0x50
 3001 11a9 00       		.byte	0
 3002 11aa 28       		.uleb128 0x28
 3003 11ab 22000000 		.4byte	.LVL5
 3004 11af 13130000 		.4byte	0x1313
 3005 11b3 BD110000 		.4byte	0x11bd
 3006 11b7 29       		.uleb128 0x29
 3007 11b8 01       		.uleb128 0x1
 3008 11b9 51       		.byte	0x51
 3009 11ba 01       		.uleb128 0x1
 3010 11bb 30       		.byte	0x30
 3011 11bc 00       		.byte	0
 3012 11bd 28       		.uleb128 0x28
 3013 11be 2E000000 		.4byte	.LVL8
 3014 11c2 13130000 		.4byte	0x1313
 3015 11c6 D2110000 		.4byte	0x11d2
 3016 11ca 29       		.uleb128 0x29
 3017 11cb 01       		.uleb128 0x1
 3018 11cc 50       		.byte	0x50
 3019 11cd 03       		.uleb128 0x3
 3020 11ce 0A       		.byte	0xa
 3021 11cf 0001     		.2byte	0x100
ARM GAS  /tmp/ccvik3Iq.s 			page 54


 3022 11d1 00       		.byte	0
 3023 11d2 28       		.uleb128 0x28
 3024 11d3 36000000 		.4byte	.LVL10
 3025 11d7 13130000 		.4byte	0x1313
 3026 11db EC110000 		.4byte	0x11ec
 3027 11df 29       		.uleb128 0x29
 3028 11e0 01       		.uleb128 0x1
 3029 11e1 50       		.byte	0x50
 3030 11e2 02       		.uleb128 0x2
 3031 11e3 76       		.byte	0x76
 3032 11e4 00       		.sleb128 0
 3033 11e5 29       		.uleb128 0x29
 3034 11e6 01       		.uleb128 0x1
 3035 11e7 51       		.byte	0x51
 3036 11e8 02       		.uleb128 0x2
 3037 11e9 75       		.byte	0x75
 3038 11ea 00       		.sleb128 0
 3039 11eb 00       		.byte	0
 3040 11ec 27       		.uleb128 0x27
 3041 11ed 40000000 		.4byte	.LVL13
 3042 11f1 13130000 		.4byte	0x1313
 3043 11f5 28       		.uleb128 0x28
 3044 11f6 48000000 		.4byte	.LVL15
 3045 11fa 13130000 		.4byte	0x1313
 3046 11fe 0E120000 		.4byte	0x120e
 3047 1202 29       		.uleb128 0x29
 3048 1203 01       		.uleb128 0x1
 3049 1204 50       		.byte	0x50
 3050 1205 02       		.uleb128 0x2
 3051 1206 75       		.byte	0x75
 3052 1207 00       		.sleb128 0
 3053 1208 29       		.uleb128 0x29
 3054 1209 01       		.uleb128 0x1
 3055 120a 51       		.byte	0x51
 3056 120b 01       		.uleb128 0x1
 3057 120c 30       		.byte	0x30
 3058 120d 00       		.byte	0
 3059 120e 31       		.uleb128 0x31
 3060 120f 80000000 		.4byte	.LVL24
 3061 1213 1F130000 		.4byte	0x131f
 3062 1217 28120000 		.4byte	0x1228
 3063 121b 29       		.uleb128 0x29
 3064 121c 01       		.uleb128 0x1
 3065 121d 51       		.byte	0x51
 3066 121e 01       		.uleb128 0x1
 3067 121f 30       		.byte	0x30
 3068 1220 29       		.uleb128 0x29
 3069 1221 01       		.uleb128 0x1
 3070 1222 52       		.byte	0x52
 3071 1223 03       		.uleb128 0x3
 3072 1224 0A       		.byte	0xa
 3073 1225 0001     		.2byte	0x100
 3074 1227 00       		.byte	0
 3075 1228 28       		.uleb128 0x28
 3076 1229 88000000 		.4byte	.LVL26
 3077 122d 13130000 		.4byte	0x1313
 3078 1231 3D120000 		.4byte	0x123d
ARM GAS  /tmp/ccvik3Iq.s 			page 55


 3079 1235 29       		.uleb128 0x29
 3080 1236 01       		.uleb128 0x1
 3081 1237 50       		.byte	0x50
 3082 1238 03       		.uleb128 0x3
 3083 1239 0A       		.byte	0xa
 3084 123a 1001     		.2byte	0x110
 3085 123c 00       		.byte	0
 3086 123d 28       		.uleb128 0x28
 3087 123e 90000000 		.4byte	.LVL28
 3088 1242 13130000 		.4byte	0x1313
 3089 1246 56120000 		.4byte	0x1256
 3090 124a 29       		.uleb128 0x29
 3091 124b 01       		.uleb128 0x1
 3092 124c 50       		.byte	0x50
 3093 124d 02       		.uleb128 0x2
 3094 124e 76       		.byte	0x76
 3095 124f 00       		.sleb128 0
 3096 1250 29       		.uleb128 0x29
 3097 1251 01       		.uleb128 0x1
 3098 1252 51       		.byte	0x51
 3099 1253 01       		.uleb128 0x1
 3100 1254 30       		.byte	0x30
 3101 1255 00       		.byte	0
 3102 1256 2A       		.uleb128 0x2a
 3103 1257 9E000000 		.4byte	.LVL33
 3104 125b 40130000 		.4byte	0x1340
 3105 125f 29       		.uleb128 0x29
 3106 1260 01       		.uleb128 0x1
 3107 1261 50       		.byte	0x50
 3108 1262 02       		.uleb128 0x2
 3109 1263 74       		.byte	0x74
 3110 1264 00       		.sleb128 0
 3111 1265 00       		.byte	0
 3112 1266 00       		.byte	0
 3113 1267 32       		.uleb128 0x32
 3114 1268 30000000 		.4byte	.LASF159
 3115 126c 02       		.byte	0x2
 3116 126d 1002     		.2byte	0x210
 3117 126f B8000000 		.4byte	0xb8
 3118 1273 03       		.byte	0x3
 3119 1274 83120000 		.4byte	0x1283
 3120 1278 33       		.uleb128 0x33
 3121 1279 7800     		.ascii	"x\000"
 3122 127b 02       		.byte	0x2
 3123 127c 1002     		.2byte	0x210
 3124 127e A2000000 		.4byte	0xa2
 3125 1282 00       		.byte	0
 3126 1283 32       		.uleb128 0x32
 3127 1284 24000000 		.4byte	.LASF160
 3128 1288 02       		.byte	0x2
 3129 1289 E001     		.2byte	0x1e0
 3130 128b A2000000 		.4byte	0xa2
 3131 128f 03       		.byte	0x3
 3132 1290 9F120000 		.4byte	0x129f
 3133 1294 33       		.uleb128 0x33
 3134 1295 7300     		.ascii	"s\000"
 3135 1297 02       		.byte	0x2
ARM GAS  /tmp/ccvik3Iq.s 			page 56


 3136 1298 E001     		.2byte	0x1e0
 3137 129a 8C000000 		.4byte	0x8c
 3138 129e 00       		.byte	0
 3139 129f 32       		.uleb128 0x32
 3140 12a0 7B030000 		.4byte	.LASF161
 3141 12a4 02       		.byte	0x2
 3142 12a5 CC01     		.2byte	0x1cc
 3143 12a7 AD000000 		.4byte	0xad
 3144 12ab 03       		.byte	0x3
 3145 12ac BB120000 		.4byte	0x12bb
 3146 12b0 33       		.uleb128 0x33
 3147 12b1 7800     		.ascii	"x\000"
 3148 12b3 02       		.byte	0x2
 3149 12b4 CC01     		.2byte	0x1cc
 3150 12b6 A2000000 		.4byte	0xa2
 3151 12ba 00       		.byte	0
 3152 12bb 34       		.uleb128 0x34
 3153 12bc 2B060000 		.4byte	.LASF162
 3154 12c0 2B060000 		.4byte	.LASF162
 3155 12c4 0B       		.byte	0xb
 3156 12c5 8D       		.byte	0x8d
 3157 12c6 34       		.uleb128 0x34
 3158 12c7 FE060000 		.4byte	.LASF163
 3159 12cb FE060000 		.4byte	.LASF163
 3160 12cf 0C       		.byte	0xc
 3161 12d0 B7       		.byte	0xb7
 3162 12d1 34       		.uleb128 0x34
 3163 12d2 99010000 		.4byte	.LASF164
 3164 12d6 99010000 		.4byte	.LASF164
 3165 12da 0C       		.byte	0xc
 3166 12db B0       		.byte	0xb0
 3167 12dc 34       		.uleb128 0x34
 3168 12dd 7D000000 		.4byte	.LASF165
 3169 12e1 7D000000 		.4byte	.LASF165
 3170 12e5 0D       		.byte	0xd
 3171 12e6 27       		.byte	0x27
 3172 12e7 34       		.uleb128 0x34
 3173 12e8 8F000000 		.4byte	.LASF166
 3174 12ec 8F000000 		.4byte	.LASF166
 3175 12f0 0D       		.byte	0xd
 3176 12f1 3F       		.byte	0x3f
 3177 12f2 34       		.uleb128 0x34
 3178 12f3 3E070000 		.4byte	.LASF167
 3179 12f7 3E070000 		.4byte	.LASF167
 3180 12fb 0B       		.byte	0xb
 3181 12fc D2       		.byte	0xd2
 3182 12fd 34       		.uleb128 0x34
 3183 12fe AA050000 		.4byte	.LASF168
 3184 1302 AA050000 		.4byte	.LASF168
 3185 1306 0D       		.byte	0xd
 3186 1307 22       		.byte	0x22
 3187 1308 34       		.uleb128 0x34
 3188 1309 3E010000 		.4byte	.LASF169
 3189 130d 3E010000 		.4byte	.LASF169
 3190 1311 0D       		.byte	0xd
 3191 1312 37       		.byte	0x37
 3192 1313 35       		.uleb128 0x35
ARM GAS  /tmp/ccvik3Iq.s 			page 57


 3193 1314 D5040000 		.4byte	.LASF170
 3194 1318 D5040000 		.4byte	.LASF170
 3195 131c 02       		.byte	0x2
 3196 131d 5301     		.2byte	0x153
 3197 131f 34       		.uleb128 0x34
 3198 1320 20040000 		.4byte	.LASF171
 3199 1324 20040000 		.4byte	.LASF171
 3200 1328 0B       		.byte	0xb
 3201 1329 96       		.byte	0x96
 3202 132a 34       		.uleb128 0x34
 3203 132b 5A060000 		.4byte	.LASF172
 3204 132f 5A060000 		.4byte	.LASF172
 3205 1333 0B       		.byte	0xb
 3206 1334 CA       		.byte	0xca
 3207 1335 34       		.uleb128 0x34
 3208 1336 68010000 		.4byte	.LASF173
 3209 133a 68010000 		.4byte	.LASF173
 3210 133e 0C       		.byte	0xc
 3211 133f A9       		.byte	0xa9
 3212 1340 34       		.uleb128 0x34
 3213 1341 2E010000 		.4byte	.LASF174
 3214 1345 2E010000 		.4byte	.LASF174
 3215 1349 0E       		.byte	0xe
 3216 134a 86       		.byte	0x86
 3217 134b 00       		.byte	0
 3218              		.section	.debug_abbrev,"",%progbits
 3219              	.Ldebug_abbrev0:
 3220 0000 01       		.uleb128 0x1
 3221 0001 11       		.uleb128 0x11
 3222 0002 01       		.byte	0x1
 3223 0003 25       		.uleb128 0x25
 3224 0004 0E       		.uleb128 0xe
 3225 0005 13       		.uleb128 0x13
 3226 0006 0B       		.uleb128 0xb
 3227 0007 03       		.uleb128 0x3
 3228 0008 0E       		.uleb128 0xe
 3229 0009 1B       		.uleb128 0x1b
 3230 000a 0E       		.uleb128 0xe
 3231 000b 55       		.uleb128 0x55
 3232 000c 17       		.uleb128 0x17
 3233 000d 11       		.uleb128 0x11
 3234 000e 01       		.uleb128 0x1
 3235 000f 10       		.uleb128 0x10
 3236 0010 17       		.uleb128 0x17
 3237 0011 00       		.byte	0
 3238 0012 00       		.byte	0
 3239 0013 02       		.uleb128 0x2
 3240 0014 24       		.uleb128 0x24
 3241 0015 00       		.byte	0
 3242 0016 0B       		.uleb128 0xb
 3243 0017 0B       		.uleb128 0xb
 3244 0018 3E       		.uleb128 0x3e
 3245 0019 0B       		.uleb128 0xb
 3246 001a 03       		.uleb128 0x3
 3247 001b 0E       		.uleb128 0xe
 3248 001c 00       		.byte	0
 3249 001d 00       		.byte	0
ARM GAS  /tmp/ccvik3Iq.s 			page 58


 3250 001e 03       		.uleb128 0x3
 3251 001f 16       		.uleb128 0x16
 3252 0020 00       		.byte	0
 3253 0021 03       		.uleb128 0x3
 3254 0022 0E       		.uleb128 0xe
 3255 0023 3A       		.uleb128 0x3a
 3256 0024 0B       		.uleb128 0xb
 3257 0025 3B       		.uleb128 0x3b
 3258 0026 0B       		.uleb128 0xb
 3259 0027 49       		.uleb128 0x49
 3260 0028 13       		.uleb128 0x13
 3261 0029 00       		.byte	0
 3262 002a 00       		.byte	0
 3263 002b 04       		.uleb128 0x4
 3264 002c 24       		.uleb128 0x24
 3265 002d 00       		.byte	0
 3266 002e 0B       		.uleb128 0xb
 3267 002f 0B       		.uleb128 0xb
 3268 0030 3E       		.uleb128 0x3e
 3269 0031 0B       		.uleb128 0xb
 3270 0032 03       		.uleb128 0x3
 3271 0033 08       		.uleb128 0x8
 3272 0034 00       		.byte	0
 3273 0035 00       		.byte	0
 3274 0036 05       		.uleb128 0x5
 3275 0037 0F       		.uleb128 0xf
 3276 0038 00       		.byte	0
 3277 0039 0B       		.uleb128 0xb
 3278 003a 0B       		.uleb128 0xb
 3279 003b 49       		.uleb128 0x49
 3280 003c 13       		.uleb128 0x13
 3281 003d 00       		.byte	0
 3282 003e 00       		.byte	0
 3283 003f 06       		.uleb128 0x6
 3284 0040 13       		.uleb128 0x13
 3285 0041 00       		.byte	0
 3286 0042 03       		.uleb128 0x3
 3287 0043 0E       		.uleb128 0xe
 3288 0044 3C       		.uleb128 0x3c
 3289 0045 19       		.uleb128 0x19
 3290 0046 00       		.byte	0
 3291 0047 00       		.byte	0
 3292 0048 07       		.uleb128 0x7
 3293 0049 13       		.uleb128 0x13
 3294 004a 01       		.byte	0x1
 3295 004b 03       		.uleb128 0x3
 3296 004c 0E       		.uleb128 0xe
 3297 004d 0B       		.uleb128 0xb
 3298 004e 0B       		.uleb128 0xb
 3299 004f 3A       		.uleb128 0x3a
 3300 0050 0B       		.uleb128 0xb
 3301 0051 3B       		.uleb128 0x3b
 3302 0052 0B       		.uleb128 0xb
 3303 0053 01       		.uleb128 0x1
 3304 0054 13       		.uleb128 0x13
 3305 0055 00       		.byte	0
 3306 0056 00       		.byte	0
ARM GAS  /tmp/ccvik3Iq.s 			page 59


 3307 0057 08       		.uleb128 0x8
 3308 0058 0D       		.uleb128 0xd
 3309 0059 00       		.byte	0
 3310 005a 03       		.uleb128 0x3
 3311 005b 0E       		.uleb128 0xe
 3312 005c 3A       		.uleb128 0x3a
 3313 005d 0B       		.uleb128 0xb
 3314 005e 3B       		.uleb128 0x3b
 3315 005f 0B       		.uleb128 0xb
 3316 0060 49       		.uleb128 0x49
 3317 0061 13       		.uleb128 0x13
 3318 0062 38       		.uleb128 0x38
 3319 0063 0B       		.uleb128 0xb
 3320 0064 00       		.byte	0
 3321 0065 00       		.byte	0
 3322 0066 09       		.uleb128 0x9
 3323 0067 0D       		.uleb128 0xd
 3324 0068 00       		.byte	0
 3325 0069 03       		.uleb128 0x3
 3326 006a 08       		.uleb128 0x8
 3327 006b 3A       		.uleb128 0x3a
 3328 006c 0B       		.uleb128 0xb
 3329 006d 3B       		.uleb128 0x3b
 3330 006e 0B       		.uleb128 0xb
 3331 006f 49       		.uleb128 0x49
 3332 0070 13       		.uleb128 0x13
 3333 0071 38       		.uleb128 0x38
 3334 0072 0B       		.uleb128 0xb
 3335 0073 00       		.byte	0
 3336 0074 00       		.byte	0
 3337 0075 0A       		.uleb128 0xa
 3338 0076 0F       		.uleb128 0xf
 3339 0077 00       		.byte	0
 3340 0078 0B       		.uleb128 0xb
 3341 0079 0B       		.uleb128 0xb
 3342 007a 00       		.byte	0
 3343 007b 00       		.byte	0
 3344 007c 0B       		.uleb128 0xb
 3345 007d 15       		.uleb128 0x15
 3346 007e 01       		.byte	0x1
 3347 007f 27       		.uleb128 0x27
 3348 0080 19       		.uleb128 0x19
 3349 0081 49       		.uleb128 0x49
 3350 0082 13       		.uleb128 0x13
 3351 0083 01       		.uleb128 0x1
 3352 0084 13       		.uleb128 0x13
 3353 0085 00       		.byte	0
 3354 0086 00       		.byte	0
 3355 0087 0C       		.uleb128 0xc
 3356 0088 05       		.uleb128 0x5
 3357 0089 00       		.byte	0
 3358 008a 49       		.uleb128 0x49
 3359 008b 13       		.uleb128 0x13
 3360 008c 00       		.byte	0
 3361 008d 00       		.byte	0
 3362 008e 0D       		.uleb128 0xd
 3363 008f 26       		.uleb128 0x26
ARM GAS  /tmp/ccvik3Iq.s 			page 60


 3364 0090 00       		.byte	0
 3365 0091 49       		.uleb128 0x49
 3366 0092 13       		.uleb128 0x13
 3367 0093 00       		.byte	0
 3368 0094 00       		.byte	0
 3369 0095 0E       		.uleb128 0xe
 3370 0096 15       		.uleb128 0x15
 3371 0097 01       		.byte	0x1
 3372 0098 27       		.uleb128 0x27
 3373 0099 19       		.uleb128 0x19
 3374 009a 01       		.uleb128 0x1
 3375 009b 13       		.uleb128 0x13
 3376 009c 00       		.byte	0
 3377 009d 00       		.byte	0
 3378 009e 0F       		.uleb128 0xf
 3379 009f 16       		.uleb128 0x16
 3380 00a0 00       		.byte	0
 3381 00a1 03       		.uleb128 0x3
 3382 00a2 0E       		.uleb128 0xe
 3383 00a3 3A       		.uleb128 0x3a
 3384 00a4 0B       		.uleb128 0xb
 3385 00a5 3B       		.uleb128 0x3b
 3386 00a6 05       		.uleb128 0x5
 3387 00a7 49       		.uleb128 0x49
 3388 00a8 13       		.uleb128 0x13
 3389 00a9 00       		.byte	0
 3390 00aa 00       		.byte	0
 3391 00ab 10       		.uleb128 0x10
 3392 00ac 17       		.uleb128 0x17
 3393 00ad 01       		.byte	0x1
 3394 00ae 0B       		.uleb128 0xb
 3395 00af 0B       		.uleb128 0xb
 3396 00b0 3A       		.uleb128 0x3a
 3397 00b1 0B       		.uleb128 0xb
 3398 00b2 3B       		.uleb128 0x3b
 3399 00b3 0B       		.uleb128 0xb
 3400 00b4 01       		.uleb128 0x1
 3401 00b5 13       		.uleb128 0x13
 3402 00b6 00       		.byte	0
 3403 00b7 00       		.byte	0
 3404 00b8 11       		.uleb128 0x11
 3405 00b9 0D       		.uleb128 0xd
 3406 00ba 00       		.byte	0
 3407 00bb 03       		.uleb128 0x3
 3408 00bc 0E       		.uleb128 0xe
 3409 00bd 3A       		.uleb128 0x3a
 3410 00be 0B       		.uleb128 0xb
 3411 00bf 3B       		.uleb128 0x3b
 3412 00c0 0B       		.uleb128 0xb
 3413 00c1 49       		.uleb128 0x49
 3414 00c2 13       		.uleb128 0x13
 3415 00c3 00       		.byte	0
 3416 00c4 00       		.byte	0
 3417 00c5 12       		.uleb128 0x12
 3418 00c6 01       		.uleb128 0x1
 3419 00c7 01       		.byte	0x1
 3420 00c8 49       		.uleb128 0x49
ARM GAS  /tmp/ccvik3Iq.s 			page 61


 3421 00c9 13       		.uleb128 0x13
 3422 00ca 01       		.uleb128 0x1
 3423 00cb 13       		.uleb128 0x13
 3424 00cc 00       		.byte	0
 3425 00cd 00       		.byte	0
 3426 00ce 13       		.uleb128 0x13
 3427 00cf 21       		.uleb128 0x21
 3428 00d0 00       		.byte	0
 3429 00d1 49       		.uleb128 0x49
 3430 00d2 13       		.uleb128 0x13
 3431 00d3 2F       		.uleb128 0x2f
 3432 00d4 0B       		.uleb128 0xb
 3433 00d5 00       		.byte	0
 3434 00d6 00       		.byte	0
 3435 00d7 14       		.uleb128 0x14
 3436 00d8 13       		.uleb128 0x13
 3437 00d9 01       		.byte	0x1
 3438 00da 0B       		.uleb128 0xb
 3439 00db 0B       		.uleb128 0xb
 3440 00dc 3A       		.uleb128 0x3a
 3441 00dd 0B       		.uleb128 0xb
 3442 00de 3B       		.uleb128 0x3b
 3443 00df 0B       		.uleb128 0xb
 3444 00e0 01       		.uleb128 0x1
 3445 00e1 13       		.uleb128 0x13
 3446 00e2 00       		.byte	0
 3447 00e3 00       		.byte	0
 3448 00e4 15       		.uleb128 0x15
 3449 00e5 13       		.uleb128 0x13
 3450 00e6 01       		.byte	0x1
 3451 00e7 03       		.uleb128 0x3
 3452 00e8 0E       		.uleb128 0xe
 3453 00e9 0B       		.uleb128 0xb
 3454 00ea 05       		.uleb128 0x5
 3455 00eb 3A       		.uleb128 0x3a
 3456 00ec 0B       		.uleb128 0xb
 3457 00ed 3B       		.uleb128 0x3b
 3458 00ee 0B       		.uleb128 0xb
 3459 00ef 01       		.uleb128 0x1
 3460 00f0 13       		.uleb128 0x13
 3461 00f1 00       		.byte	0
 3462 00f2 00       		.byte	0
 3463 00f3 16       		.uleb128 0x16
 3464 00f4 0D       		.uleb128 0xd
 3465 00f5 00       		.byte	0
 3466 00f6 03       		.uleb128 0x3
 3467 00f7 0E       		.uleb128 0xe
 3468 00f8 3A       		.uleb128 0x3a
 3469 00f9 0B       		.uleb128 0xb
 3470 00fa 3B       		.uleb128 0x3b
 3471 00fb 0B       		.uleb128 0xb
 3472 00fc 49       		.uleb128 0x49
 3473 00fd 13       		.uleb128 0x13
 3474 00fe 38       		.uleb128 0x38
 3475 00ff 05       		.uleb128 0x5
 3476 0100 00       		.byte	0
 3477 0101 00       		.byte	0
ARM GAS  /tmp/ccvik3Iq.s 			page 62


 3478 0102 17       		.uleb128 0x17
 3479 0103 15       		.uleb128 0x15
 3480 0104 00       		.byte	0
 3481 0105 27       		.uleb128 0x27
 3482 0106 19       		.uleb128 0x19
 3483 0107 00       		.byte	0
 3484 0108 00       		.byte	0
 3485 0109 18       		.uleb128 0x18
 3486 010a 13       		.uleb128 0x13
 3487 010b 01       		.byte	0x1
 3488 010c 03       		.uleb128 0x3
 3489 010d 0E       		.uleb128 0xe
 3490 010e 0B       		.uleb128 0xb
 3491 010f 05       		.uleb128 0x5
 3492 0110 3A       		.uleb128 0x3a
 3493 0111 0B       		.uleb128 0xb
 3494 0112 3B       		.uleb128 0x3b
 3495 0113 05       		.uleb128 0x5
 3496 0114 01       		.uleb128 0x1
 3497 0115 13       		.uleb128 0x13
 3498 0116 00       		.byte	0
 3499 0117 00       		.byte	0
 3500 0118 19       		.uleb128 0x19
 3501 0119 0D       		.uleb128 0xd
 3502 011a 00       		.byte	0
 3503 011b 03       		.uleb128 0x3
 3504 011c 0E       		.uleb128 0xe
 3505 011d 3A       		.uleb128 0x3a
 3506 011e 0B       		.uleb128 0xb
 3507 011f 3B       		.uleb128 0x3b
 3508 0120 05       		.uleb128 0x5
 3509 0121 49       		.uleb128 0x49
 3510 0122 13       		.uleb128 0x13
 3511 0123 38       		.uleb128 0x38
 3512 0124 0B       		.uleb128 0xb
 3513 0125 00       		.byte	0
 3514 0126 00       		.byte	0
 3515 0127 1A       		.uleb128 0x1a
 3516 0128 0D       		.uleb128 0xd
 3517 0129 00       		.byte	0
 3518 012a 03       		.uleb128 0x3
 3519 012b 0E       		.uleb128 0xe
 3520 012c 3A       		.uleb128 0x3a
 3521 012d 0B       		.uleb128 0xb
 3522 012e 3B       		.uleb128 0x3b
 3523 012f 05       		.uleb128 0x5
 3524 0130 49       		.uleb128 0x49
 3525 0131 13       		.uleb128 0x13
 3526 0132 38       		.uleb128 0x38
 3527 0133 05       		.uleb128 0x5
 3528 0134 00       		.byte	0
 3529 0135 00       		.byte	0
 3530 0136 1B       		.uleb128 0x1b
 3531 0137 13       		.uleb128 0x13
 3532 0138 01       		.byte	0x1
 3533 0139 03       		.uleb128 0x3
 3534 013a 0E       		.uleb128 0xe
ARM GAS  /tmp/ccvik3Iq.s 			page 63


 3535 013b 0B       		.uleb128 0xb
 3536 013c 0B       		.uleb128 0xb
 3537 013d 3A       		.uleb128 0x3a
 3538 013e 0B       		.uleb128 0xb
 3539 013f 3B       		.uleb128 0x3b
 3540 0140 05       		.uleb128 0x5
 3541 0141 01       		.uleb128 0x1
 3542 0142 13       		.uleb128 0x13
 3543 0143 00       		.byte	0
 3544 0144 00       		.byte	0
 3545 0145 1C       		.uleb128 0x1c
 3546 0146 13       		.uleb128 0x13
 3547 0147 01       		.byte	0x1
 3548 0148 0B       		.uleb128 0xb
 3549 0149 0B       		.uleb128 0xb
 3550 014a 3A       		.uleb128 0x3a
 3551 014b 0B       		.uleb128 0xb
 3552 014c 3B       		.uleb128 0x3b
 3553 014d 05       		.uleb128 0x5
 3554 014e 01       		.uleb128 0x1
 3555 014f 13       		.uleb128 0x13
 3556 0150 00       		.byte	0
 3557 0151 00       		.byte	0
 3558 0152 1D       		.uleb128 0x1d
 3559 0153 17       		.uleb128 0x17
 3560 0154 01       		.byte	0x1
 3561 0155 0B       		.uleb128 0xb
 3562 0156 0B       		.uleb128 0xb
 3563 0157 3A       		.uleb128 0x3a
 3564 0158 0B       		.uleb128 0xb
 3565 0159 3B       		.uleb128 0x3b
 3566 015a 05       		.uleb128 0x5
 3567 015b 01       		.uleb128 0x1
 3568 015c 13       		.uleb128 0x13
 3569 015d 00       		.byte	0
 3570 015e 00       		.byte	0
 3571 015f 1E       		.uleb128 0x1e
 3572 0160 0D       		.uleb128 0xd
 3573 0161 00       		.byte	0
 3574 0162 03       		.uleb128 0x3
 3575 0163 0E       		.uleb128 0xe
 3576 0164 3A       		.uleb128 0x3a
 3577 0165 0B       		.uleb128 0xb
 3578 0166 3B       		.uleb128 0x3b
 3579 0167 05       		.uleb128 0x5
 3580 0168 49       		.uleb128 0x49
 3581 0169 13       		.uleb128 0x13
 3582 016a 00       		.byte	0
 3583 016b 00       		.byte	0
 3584 016c 1F       		.uleb128 0x1f
 3585 016d 34       		.uleb128 0x34
 3586 016e 00       		.byte	0
 3587 016f 03       		.uleb128 0x3
 3588 0170 0E       		.uleb128 0xe
 3589 0171 3A       		.uleb128 0x3a
 3590 0172 0B       		.uleb128 0xb
 3591 0173 3B       		.uleb128 0x3b
ARM GAS  /tmp/ccvik3Iq.s 			page 64


 3592 0174 05       		.uleb128 0x5
 3593 0175 49       		.uleb128 0x49
 3594 0176 13       		.uleb128 0x13
 3595 0177 3F       		.uleb128 0x3f
 3596 0178 19       		.uleb128 0x19
 3597 0179 3C       		.uleb128 0x3c
 3598 017a 19       		.uleb128 0x19
 3599 017b 00       		.byte	0
 3600 017c 00       		.byte	0
 3601 017d 20       		.uleb128 0x20
 3602 017e 34       		.uleb128 0x34
 3603 017f 00       		.byte	0
 3604 0180 03       		.uleb128 0x3
 3605 0181 0E       		.uleb128 0xe
 3606 0182 3A       		.uleb128 0x3a
 3607 0183 0B       		.uleb128 0xb
 3608 0184 3B       		.uleb128 0x3b
 3609 0185 0B       		.uleb128 0xb
 3610 0186 49       		.uleb128 0x49
 3611 0187 13       		.uleb128 0x13
 3612 0188 3F       		.uleb128 0x3f
 3613 0189 19       		.uleb128 0x19
 3614 018a 3C       		.uleb128 0x3c
 3615 018b 19       		.uleb128 0x19
 3616 018c 00       		.byte	0
 3617 018d 00       		.byte	0
 3618 018e 21       		.uleb128 0x21
 3619 018f 2E       		.uleb128 0x2e
 3620 0190 01       		.byte	0x1
 3621 0191 3F       		.uleb128 0x3f
 3622 0192 19       		.uleb128 0x19
 3623 0193 03       		.uleb128 0x3
 3624 0194 0E       		.uleb128 0xe
 3625 0195 3A       		.uleb128 0x3a
 3626 0196 0B       		.uleb128 0xb
 3627 0197 3B       		.uleb128 0x3b
 3628 0198 0B       		.uleb128 0xb
 3629 0199 27       		.uleb128 0x27
 3630 019a 19       		.uleb128 0x19
 3631 019b 49       		.uleb128 0x49
 3632 019c 13       		.uleb128 0x13
 3633 019d 11       		.uleb128 0x11
 3634 019e 01       		.uleb128 0x1
 3635 019f 12       		.uleb128 0x12
 3636 01a0 06       		.uleb128 0x6
 3637 01a1 40       		.uleb128 0x40
 3638 01a2 18       		.uleb128 0x18
 3639 01a3 9742     		.uleb128 0x2117
 3640 01a5 19       		.uleb128 0x19
 3641 01a6 01       		.uleb128 0x1
 3642 01a7 13       		.uleb128 0x13
 3643 01a8 00       		.byte	0
 3644 01a9 00       		.byte	0
 3645 01aa 22       		.uleb128 0x22
 3646 01ab 05       		.uleb128 0x5
 3647 01ac 00       		.byte	0
 3648 01ad 03       		.uleb128 0x3
ARM GAS  /tmp/ccvik3Iq.s 			page 65


 3649 01ae 0E       		.uleb128 0xe
 3650 01af 3A       		.uleb128 0x3a
 3651 01b0 0B       		.uleb128 0xb
 3652 01b1 3B       		.uleb128 0x3b
 3653 01b2 0B       		.uleb128 0xb
 3654 01b3 49       		.uleb128 0x49
 3655 01b4 13       		.uleb128 0x13
 3656 01b5 02       		.uleb128 0x2
 3657 01b6 17       		.uleb128 0x17
 3658 01b7 00       		.byte	0
 3659 01b8 00       		.byte	0
 3660 01b9 23       		.uleb128 0x23
 3661 01ba 34       		.uleb128 0x34
 3662 01bb 00       		.byte	0
 3663 01bc 03       		.uleb128 0x3
 3664 01bd 08       		.uleb128 0x8
 3665 01be 3A       		.uleb128 0x3a
 3666 01bf 0B       		.uleb128 0xb
 3667 01c0 3B       		.uleb128 0x3b
 3668 01c1 0B       		.uleb128 0xb
 3669 01c2 49       		.uleb128 0x49
 3670 01c3 13       		.uleb128 0x13
 3671 01c4 1C       		.uleb128 0x1c
 3672 01c5 0B       		.uleb128 0xb
 3673 01c6 00       		.byte	0
 3674 01c7 00       		.byte	0
 3675 01c8 24       		.uleb128 0x24
 3676 01c9 34       		.uleb128 0x34
 3677 01ca 00       		.byte	0
 3678 01cb 03       		.uleb128 0x3
 3679 01cc 0E       		.uleb128 0xe
 3680 01cd 3A       		.uleb128 0x3a
 3681 01ce 0B       		.uleb128 0xb
 3682 01cf 3B       		.uleb128 0x3b
 3683 01d0 0B       		.uleb128 0xb
 3684 01d1 49       		.uleb128 0x49
 3685 01d2 13       		.uleb128 0x13
 3686 01d3 02       		.uleb128 0x2
 3687 01d4 18       		.uleb128 0x18
 3688 01d5 00       		.byte	0
 3689 01d6 00       		.byte	0
 3690 01d7 25       		.uleb128 0x25
 3691 01d8 1D       		.uleb128 0x1d
 3692 01d9 01       		.byte	0x1
 3693 01da 31       		.uleb128 0x31
 3694 01db 13       		.uleb128 0x13
 3695 01dc 11       		.uleb128 0x11
 3696 01dd 01       		.uleb128 0x1
 3697 01de 12       		.uleb128 0x12
 3698 01df 06       		.uleb128 0x6
 3699 01e0 58       		.uleb128 0x58
 3700 01e1 0B       		.uleb128 0xb
 3701 01e2 59       		.uleb128 0x59
 3702 01e3 0B       		.uleb128 0xb
 3703 01e4 01       		.uleb128 0x1
 3704 01e5 13       		.uleb128 0x13
 3705 01e6 00       		.byte	0
ARM GAS  /tmp/ccvik3Iq.s 			page 66


 3706 01e7 00       		.byte	0
 3707 01e8 26       		.uleb128 0x26
 3708 01e9 05       		.uleb128 0x5
 3709 01ea 00       		.byte	0
 3710 01eb 31       		.uleb128 0x31
 3711 01ec 13       		.uleb128 0x13
 3712 01ed 00       		.byte	0
 3713 01ee 00       		.byte	0
 3714 01ef 27       		.uleb128 0x27
 3715 01f0 898201   		.uleb128 0x4109
 3716 01f3 00       		.byte	0
 3717 01f4 11       		.uleb128 0x11
 3718 01f5 01       		.uleb128 0x1
 3719 01f6 31       		.uleb128 0x31
 3720 01f7 13       		.uleb128 0x13
 3721 01f8 00       		.byte	0
 3722 01f9 00       		.byte	0
 3723 01fa 28       		.uleb128 0x28
 3724 01fb 898201   		.uleb128 0x4109
 3725 01fe 01       		.byte	0x1
 3726 01ff 11       		.uleb128 0x11
 3727 0200 01       		.uleb128 0x1
 3728 0201 31       		.uleb128 0x31
 3729 0202 13       		.uleb128 0x13
 3730 0203 01       		.uleb128 0x1
 3731 0204 13       		.uleb128 0x13
 3732 0205 00       		.byte	0
 3733 0206 00       		.byte	0
 3734 0207 29       		.uleb128 0x29
 3735 0208 8A8201   		.uleb128 0x410a
 3736 020b 00       		.byte	0
 3737 020c 02       		.uleb128 0x2
 3738 020d 18       		.uleb128 0x18
 3739 020e 9142     		.uleb128 0x2111
 3740 0210 18       		.uleb128 0x18
 3741 0211 00       		.byte	0
 3742 0212 00       		.byte	0
 3743 0213 2A       		.uleb128 0x2a
 3744 0214 898201   		.uleb128 0x4109
 3745 0217 01       		.byte	0x1
 3746 0218 11       		.uleb128 0x11
 3747 0219 01       		.uleb128 0x1
 3748 021a 31       		.uleb128 0x31
 3749 021b 13       		.uleb128 0x13
 3750 021c 00       		.byte	0
 3751 021d 00       		.byte	0
 3752 021e 2B       		.uleb128 0x2b
 3753 021f 05       		.uleb128 0x5
 3754 0220 00       		.byte	0
 3755 0221 03       		.uleb128 0x3
 3756 0222 08       		.uleb128 0x8
 3757 0223 3A       		.uleb128 0x3a
 3758 0224 0B       		.uleb128 0xb
 3759 0225 3B       		.uleb128 0x3b
 3760 0226 0B       		.uleb128 0xb
 3761 0227 49       		.uleb128 0x49
 3762 0228 13       		.uleb128 0x13
ARM GAS  /tmp/ccvik3Iq.s 			page 67


 3763 0229 02       		.uleb128 0x2
 3764 022a 17       		.uleb128 0x17
 3765 022b 00       		.byte	0
 3766 022c 00       		.byte	0
 3767 022d 2C       		.uleb128 0x2c
 3768 022e 34       		.uleb128 0x34
 3769 022f 00       		.byte	0
 3770 0230 03       		.uleb128 0x3
 3771 0231 08       		.uleb128 0x8
 3772 0232 3A       		.uleb128 0x3a
 3773 0233 0B       		.uleb128 0xb
 3774 0234 3B       		.uleb128 0x3b
 3775 0235 0B       		.uleb128 0xb
 3776 0236 49       		.uleb128 0x49
 3777 0237 13       		.uleb128 0x13
 3778 0238 02       		.uleb128 0x2
 3779 0239 17       		.uleb128 0x17
 3780 023a 00       		.byte	0
 3781 023b 00       		.byte	0
 3782 023c 2D       		.uleb128 0x2d
 3783 023d 0B       		.uleb128 0xb
 3784 023e 01       		.byte	0x1
 3785 023f 11       		.uleb128 0x11
 3786 0240 01       		.uleb128 0x1
 3787 0241 12       		.uleb128 0x12
 3788 0242 06       		.uleb128 0x6
 3789 0243 01       		.uleb128 0x1
 3790 0244 13       		.uleb128 0x13
 3791 0245 00       		.byte	0
 3792 0246 00       		.byte	0
 3793 0247 2E       		.uleb128 0x2e
 3794 0248 898201   		.uleb128 0x4109
 3795 024b 01       		.byte	0x1
 3796 024c 11       		.uleb128 0x11
 3797 024d 01       		.uleb128 0x1
 3798 024e 9542     		.uleb128 0x2115
 3799 0250 19       		.uleb128 0x19
 3800 0251 31       		.uleb128 0x31
 3801 0252 13       		.uleb128 0x13
 3802 0253 00       		.byte	0
 3803 0254 00       		.byte	0
 3804 0255 2F       		.uleb128 0x2f
 3805 0256 34       		.uleb128 0x34
 3806 0257 00       		.byte	0
 3807 0258 03       		.uleb128 0x3
 3808 0259 0E       		.uleb128 0xe
 3809 025a 3A       		.uleb128 0x3a
 3810 025b 0B       		.uleb128 0xb
 3811 025c 3B       		.uleb128 0x3b
 3812 025d 0B       		.uleb128 0xb
 3813 025e 49       		.uleb128 0x49
 3814 025f 13       		.uleb128 0x13
 3815 0260 02       		.uleb128 0x2
 3816 0261 17       		.uleb128 0x17
 3817 0262 00       		.byte	0
 3818 0263 00       		.byte	0
 3819 0264 30       		.uleb128 0x30
ARM GAS  /tmp/ccvik3Iq.s 			page 68


 3820 0265 05       		.uleb128 0x5
 3821 0266 00       		.byte	0
 3822 0267 31       		.uleb128 0x31
 3823 0268 13       		.uleb128 0x13
 3824 0269 02       		.uleb128 0x2
 3825 026a 17       		.uleb128 0x17
 3826 026b 00       		.byte	0
 3827 026c 00       		.byte	0
 3828 026d 31       		.uleb128 0x31
 3829 026e 898201   		.uleb128 0x4109
 3830 0271 01       		.byte	0x1
 3831 0272 11       		.uleb128 0x11
 3832 0273 01       		.uleb128 0x1
 3833 0274 9542     		.uleb128 0x2115
 3834 0276 19       		.uleb128 0x19
 3835 0277 31       		.uleb128 0x31
 3836 0278 13       		.uleb128 0x13
 3837 0279 01       		.uleb128 0x1
 3838 027a 13       		.uleb128 0x13
 3839 027b 00       		.byte	0
 3840 027c 00       		.byte	0
 3841 027d 32       		.uleb128 0x32
 3842 027e 2E       		.uleb128 0x2e
 3843 027f 01       		.byte	0x1
 3844 0280 03       		.uleb128 0x3
 3845 0281 0E       		.uleb128 0xe
 3846 0282 3A       		.uleb128 0x3a
 3847 0283 0B       		.uleb128 0xb
 3848 0284 3B       		.uleb128 0x3b
 3849 0285 05       		.uleb128 0x5
 3850 0286 27       		.uleb128 0x27
 3851 0287 19       		.uleb128 0x19
 3852 0288 49       		.uleb128 0x49
 3853 0289 13       		.uleb128 0x13
 3854 028a 20       		.uleb128 0x20
 3855 028b 0B       		.uleb128 0xb
 3856 028c 01       		.uleb128 0x1
 3857 028d 13       		.uleb128 0x13
 3858 028e 00       		.byte	0
 3859 028f 00       		.byte	0
 3860 0290 33       		.uleb128 0x33
 3861 0291 05       		.uleb128 0x5
 3862 0292 00       		.byte	0
 3863 0293 03       		.uleb128 0x3
 3864 0294 08       		.uleb128 0x8
 3865 0295 3A       		.uleb128 0x3a
 3866 0296 0B       		.uleb128 0xb
 3867 0297 3B       		.uleb128 0x3b
 3868 0298 05       		.uleb128 0x5
 3869 0299 49       		.uleb128 0x49
 3870 029a 13       		.uleb128 0x13
 3871 029b 00       		.byte	0
 3872 029c 00       		.byte	0
 3873 029d 34       		.uleb128 0x34
 3874 029e 2E       		.uleb128 0x2e
 3875 029f 00       		.byte	0
 3876 02a0 3F       		.uleb128 0x3f
ARM GAS  /tmp/ccvik3Iq.s 			page 69


 3877 02a1 19       		.uleb128 0x19
 3878 02a2 3C       		.uleb128 0x3c
 3879 02a3 19       		.uleb128 0x19
 3880 02a4 6E       		.uleb128 0x6e
 3881 02a5 0E       		.uleb128 0xe
 3882 02a6 03       		.uleb128 0x3
 3883 02a7 0E       		.uleb128 0xe
 3884 02a8 3A       		.uleb128 0x3a
 3885 02a9 0B       		.uleb128 0xb
 3886 02aa 3B       		.uleb128 0x3b
 3887 02ab 0B       		.uleb128 0xb
 3888 02ac 00       		.byte	0
 3889 02ad 00       		.byte	0
 3890 02ae 35       		.uleb128 0x35
 3891 02af 2E       		.uleb128 0x2e
 3892 02b0 00       		.byte	0
 3893 02b1 3F       		.uleb128 0x3f
 3894 02b2 19       		.uleb128 0x19
 3895 02b3 3C       		.uleb128 0x3c
 3896 02b4 19       		.uleb128 0x19
 3897 02b5 6E       		.uleb128 0x6e
 3898 02b6 0E       		.uleb128 0xe
 3899 02b7 03       		.uleb128 0x3
 3900 02b8 0E       		.uleb128 0xe
 3901 02b9 3A       		.uleb128 0x3a
 3902 02ba 0B       		.uleb128 0xb
 3903 02bb 3B       		.uleb128 0x3b
 3904 02bc 05       		.uleb128 0x5
 3905 02bd 00       		.byte	0
 3906 02be 00       		.byte	0
 3907 02bf 00       		.byte	0
 3908              		.section	.debug_loc,"",%progbits
 3909              	.Ldebug_loc0:
 3910              	.LLST41:
 3911 0000 00000000 		.4byte	.LVL102
 3912 0004 0B000000 		.4byte	.LVL103-1
 3913 0008 0100     		.2byte	0x1
 3914 000a 50       		.byte	0x50
 3915 000b 0B000000 		.4byte	.LVL103-1
 3916 000f 40000000 		.4byte	.LFE55
 3917 0013 0100     		.2byte	0x1
 3918 0015 54       		.byte	0x54
 3919 0016 00000000 		.4byte	0
 3920 001a 00000000 		.4byte	0
 3921              	.LLST42:
 3922 001e 00000000 		.4byte	.LVL102
 3923 0022 0B000000 		.4byte	.LVL103-1
 3924 0026 0100     		.2byte	0x1
 3925 0028 51       		.byte	0x51
 3926 0029 0B000000 		.4byte	.LVL103-1
 3927 002d 40000000 		.4byte	.LFE55
 3928 0031 0100     		.2byte	0x1
 3929 0033 55       		.byte	0x55
 3930 0034 00000000 		.4byte	0
 3931 0038 00000000 		.4byte	0
 3932              	.LLST37:
 3933 003c 00000000 		.4byte	.LVL96
ARM GAS  /tmp/ccvik3Iq.s 			page 70


 3934 0040 09000000 		.4byte	.LVL97-1
 3935 0044 0100     		.2byte	0x1
 3936 0046 50       		.byte	0x50
 3937 0047 09000000 		.4byte	.LVL97-1
 3938 004b 38000000 		.4byte	.LFE54
 3939 004f 0400     		.2byte	0x4
 3940 0051 F3       		.byte	0xf3
 3941 0052 01       		.uleb128 0x1
 3942 0053 50       		.byte	0x50
 3943 0054 9F       		.byte	0x9f
 3944 0055 00000000 		.4byte	0
 3945 0059 00000000 		.4byte	0
 3946              	.LLST38:
 3947 005d 00000000 		.4byte	.LVL96
 3948 0061 09000000 		.4byte	.LVL97-1
 3949 0065 0100     		.2byte	0x1
 3950 0067 51       		.byte	0x51
 3951 0068 09000000 		.4byte	.LVL97-1
 3952 006c 38000000 		.4byte	.LFE54
 3953 0070 0100     		.2byte	0x1
 3954 0072 55       		.byte	0x55
 3955 0073 00000000 		.4byte	0
 3956 0077 00000000 		.4byte	0
 3957              	.LLST39:
 3958 007b 00000000 		.4byte	.LVL96
 3959 007f 36000000 		.4byte	.LVL101
 3960 0083 0200     		.2byte	0x2
 3961 0085 30       		.byte	0x30
 3962 0086 9F       		.byte	0x9f
 3963 0087 36000000 		.4byte	.LVL101
 3964 008b 38000000 		.4byte	.LFE54
 3965 008f 0100     		.2byte	0x1
 3966 0091 50       		.byte	0x50
 3967 0092 00000000 		.4byte	0
 3968 0096 00000000 		.4byte	0
 3969              	.LLST40:
 3970 009a 1A000000 		.4byte	.LVL99
 3971 009e 2C000000 		.4byte	.LVL100
 3972 00a2 0100     		.2byte	0x1
 3973 00a4 50       		.byte	0x50
 3974 00a5 00000000 		.4byte	0
 3975 00a9 00000000 		.4byte	0
 3976              	.LLST36:
 3977 00ad 00000000 		.4byte	.LVL94
 3978 00b1 05000000 		.4byte	.LVL95-1
 3979 00b5 0100     		.2byte	0x1
 3980 00b7 50       		.byte	0x50
 3981 00b8 05000000 		.4byte	.LVL95-1
 3982 00bc 06000000 		.4byte	.LFE53
 3983 00c0 0400     		.2byte	0x4
 3984 00c2 F3       		.byte	0xf3
 3985 00c3 01       		.uleb128 0x1
 3986 00c4 50       		.byte	0x50
 3987 00c5 9F       		.byte	0x9f
 3988 00c6 00000000 		.4byte	0
 3989 00ca 00000000 		.4byte	0
 3990              	.LLST35:
ARM GAS  /tmp/ccvik3Iq.s 			page 71


 3991 00ce 00000000 		.4byte	.LVL92
 3992 00d2 05000000 		.4byte	.LVL93-1
 3993 00d6 0100     		.2byte	0x1
 3994 00d8 50       		.byte	0x50
 3995 00d9 05000000 		.4byte	.LVL93-1
 3996 00dd 06000000 		.4byte	.LFE52
 3997 00e1 0400     		.2byte	0x4
 3998 00e3 F3       		.byte	0xf3
 3999 00e4 01       		.uleb128 0x1
 4000 00e5 50       		.byte	0x50
 4001 00e6 9F       		.byte	0x9f
 4002 00e7 00000000 		.4byte	0
 4003 00eb 00000000 		.4byte	0
 4004              	.LLST33:
 4005 00ef 00000000 		.4byte	.LVL90
 4006 00f3 05000000 		.4byte	.LVL91-1
 4007 00f7 0100     		.2byte	0x1
 4008 00f9 50       		.byte	0x50
 4009 00fa 05000000 		.4byte	.LVL91-1
 4010 00fe 06000000 		.4byte	.LFE51
 4011 0102 0400     		.2byte	0x4
 4012 0104 F3       		.byte	0xf3
 4013 0105 01       		.uleb128 0x1
 4014 0106 50       		.byte	0x50
 4015 0107 9F       		.byte	0x9f
 4016 0108 00000000 		.4byte	0
 4017 010c 00000000 		.4byte	0
 4018              	.LLST34:
 4019 0110 00000000 		.4byte	.LVL90
 4020 0114 05000000 		.4byte	.LVL91-1
 4021 0118 0100     		.2byte	0x1
 4022 011a 51       		.byte	0x51
 4023 011b 05000000 		.4byte	.LVL91-1
 4024 011f 06000000 		.4byte	.LFE51
 4025 0123 0400     		.2byte	0x4
 4026 0125 F3       		.byte	0xf3
 4027 0126 01       		.uleb128 0x1
 4028 0127 51       		.byte	0x51
 4029 0128 9F       		.byte	0x9f
 4030 0129 00000000 		.4byte	0
 4031 012d 00000000 		.4byte	0
 4032              	.LLST32:
 4033 0131 00000000 		.4byte	.LVL88
 4034 0135 05000000 		.4byte	.LVL89-1
 4035 0139 0100     		.2byte	0x1
 4036 013b 50       		.byte	0x50
 4037 013c 05000000 		.4byte	.LVL89-1
 4038 0140 06000000 		.4byte	.LFE50
 4039 0144 0400     		.2byte	0x4
 4040 0146 F3       		.byte	0xf3
 4041 0147 01       		.uleb128 0x1
 4042 0148 50       		.byte	0x50
 4043 0149 9F       		.byte	0x9f
 4044 014a 00000000 		.4byte	0
 4045 014e 00000000 		.4byte	0
 4046              	.LLST30:
 4047 0152 00000000 		.4byte	.LVL86
ARM GAS  /tmp/ccvik3Iq.s 			page 72


 4048 0156 05000000 		.4byte	.LVL87-1
 4049 015a 0100     		.2byte	0x1
 4050 015c 50       		.byte	0x50
 4051 015d 05000000 		.4byte	.LVL87-1
 4052 0161 06000000 		.4byte	.LFE49
 4053 0165 0400     		.2byte	0x4
 4054 0167 F3       		.byte	0xf3
 4055 0168 01       		.uleb128 0x1
 4056 0169 50       		.byte	0x50
 4057 016a 9F       		.byte	0x9f
 4058 016b 00000000 		.4byte	0
 4059 016f 00000000 		.4byte	0
 4060              	.LLST31:
 4061 0173 00000000 		.4byte	.LVL86
 4062 0177 05000000 		.4byte	.LVL87-1
 4063 017b 0100     		.2byte	0x1
 4064 017d 51       		.byte	0x51
 4065 017e 05000000 		.4byte	.LVL87-1
 4066 0182 06000000 		.4byte	.LFE49
 4067 0186 0400     		.2byte	0x4
 4068 0188 F3       		.byte	0xf3
 4069 0189 01       		.uleb128 0x1
 4070 018a 51       		.byte	0x51
 4071 018b 9F       		.byte	0x9f
 4072 018c 00000000 		.4byte	0
 4073 0190 00000000 		.4byte	0
 4074              	.LLST29:
 4075 0194 00000000 		.4byte	.LVL84
 4076 0198 05000000 		.4byte	.LVL85-1
 4077 019c 0100     		.2byte	0x1
 4078 019e 50       		.byte	0x50
 4079 019f 05000000 		.4byte	.LVL85-1
 4080 01a3 06000000 		.4byte	.LFE48
 4081 01a7 0400     		.2byte	0x4
 4082 01a9 F3       		.byte	0xf3
 4083 01aa 01       		.uleb128 0x1
 4084 01ab 50       		.byte	0x50
 4085 01ac 9F       		.byte	0x9f
 4086 01ad 00000000 		.4byte	0
 4087 01b1 00000000 		.4byte	0
 4088              	.LLST19:
 4089 01b5 00000000 		.4byte	.LVL62
 4090 01b9 0B000000 		.4byte	.LVL64-1
 4091 01bd 0100     		.2byte	0x1
 4092 01bf 50       		.byte	0x50
 4093 01c0 0B000000 		.4byte	.LVL64-1
 4094 01c4 94000000 		.4byte	.LFE47
 4095 01c8 0400     		.2byte	0x4
 4096 01ca F3       		.byte	0xf3
 4097 01cb 01       		.uleb128 0x1
 4098 01cc 50       		.byte	0x50
 4099 01cd 9F       		.byte	0x9f
 4100 01ce 00000000 		.4byte	0
 4101 01d2 00000000 		.4byte	0
 4102              	.LLST20:
 4103 01d6 00000000 		.4byte	.LVL62
 4104 01da 08000000 		.4byte	.LVL63
ARM GAS  /tmp/ccvik3Iq.s 			page 73


 4105 01de 0100     		.2byte	0x1
 4106 01e0 51       		.byte	0x51
 4107 01e1 08000000 		.4byte	.LVL63
 4108 01e5 94000000 		.4byte	.LFE47
 4109 01e9 0400     		.2byte	0x4
 4110 01eb F3       		.byte	0xf3
 4111 01ec 01       		.uleb128 0x1
 4112 01ed 51       		.byte	0x51
 4113 01ee 9F       		.byte	0x9f
 4114 01ef 00000000 		.4byte	0
 4115 01f3 00000000 		.4byte	0
 4116              	.LLST21:
 4117 01f7 24000000 		.4byte	.LVL68
 4118 01fb 34000000 		.4byte	.LVL69
 4119 01ff 0100     		.2byte	0x1
 4120 0201 50       		.byte	0x50
 4121 0202 00000000 		.4byte	0
 4122 0206 00000000 		.4byte	0
 4123              	.LLST22:
 4124 020a 46000000 		.4byte	.LVL71
 4125 020e 4C000000 		.4byte	.LVL72
 4126 0212 0100     		.2byte	0x1
 4127 0214 50       		.byte	0x50
 4128 0215 4C000000 		.4byte	.LVL72
 4129 0219 55000000 		.4byte	.LVL73-1
 4130 021d 0100     		.2byte	0x1
 4131 021f 51       		.byte	0x51
 4132 0220 55000000 		.4byte	.LVL73-1
 4133 0224 66000000 		.4byte	.LVL77
 4134 0228 0100     		.2byte	0x1
 4135 022a 54       		.byte	0x54
 4136 022b 00000000 		.4byte	0
 4137 022f 00000000 		.4byte	0
 4138              	.LLST23:
 4139 0233 46000000 		.4byte	.LVL71
 4140 0237 4C000000 		.4byte	.LVL72
 4141 023b 0100     		.2byte	0x1
 4142 023d 50       		.byte	0x50
 4143 023e 4C000000 		.4byte	.LVL72
 4144 0242 55000000 		.4byte	.LVL73-1
 4145 0246 0100     		.2byte	0x1
 4146 0248 51       		.byte	0x51
 4147 0249 55000000 		.4byte	.LVL73-1
 4148 024d 5A000000 		.4byte	.LVL74
 4149 0251 0100     		.2byte	0x1
 4150 0253 54       		.byte	0x54
 4151 0254 5A000000 		.4byte	.LVL74
 4152 0258 5D000000 		.4byte	.LVL75-1
 4153 025c 0100     		.2byte	0x1
 4154 025e 50       		.byte	0x50
 4155 025f 5D000000 		.4byte	.LVL75-1
 4156 0263 74000000 		.4byte	.LVL80
 4157 0267 0100     		.2byte	0x1
 4158 0269 55       		.byte	0x55
 4159 026a 00000000 		.4byte	0
 4160 026e 00000000 		.4byte	0
 4161              	.LLST24:
ARM GAS  /tmp/ccvik3Iq.s 			page 74


 4162 0272 5E000000 		.4byte	.LVL75
 4163 0276 91000000 		.4byte	.LVL83-1
 4164 027a 0100     		.2byte	0x1
 4165 027c 50       		.byte	0x50
 4166 027d 00000000 		.4byte	0
 4167 0281 00000000 		.4byte	0
 4168              	.LLST25:
 4169 0285 14000000 		.4byte	.LVL65
 4170 0289 18000000 		.4byte	.LVL66
 4171 028d 0200     		.2byte	0x2
 4172 028f 91       		.byte	0x91
 4173 0290 6C       		.sleb128 -20
 4174 0291 00000000 		.4byte	0
 4175 0295 00000000 		.4byte	0
 4176              	.LLST26:
 4177 0299 5E000000 		.4byte	.LVL75
 4178 029d 62000000 		.4byte	.LVL76
 4179 02a1 0100     		.2byte	0x1
 4180 02a3 54       		.byte	0x54
 4181 02a4 00000000 		.4byte	0
 4182 02a8 00000000 		.4byte	0
 4183              	.LLST27:
 4184 02ac 6C000000 		.4byte	.LVL78
 4185 02b0 70000000 		.4byte	.LVL79
 4186 02b4 0100     		.2byte	0x1
 4187 02b6 55       		.byte	0x55
 4188 02b7 00000000 		.4byte	0
 4189 02bb 00000000 		.4byte	0
 4190              	.LLST28:
 4191 02bf 7A000000 		.4byte	.LVL81
 4192 02c3 7E000000 		.4byte	.LVL82
 4193 02c7 0100     		.2byte	0x1
 4194 02c9 50       		.byte	0x50
 4195 02ca 00000000 		.4byte	0
 4196 02ce 00000000 		.4byte	0
 4197              	.LLST9:
 4198 02d2 00000000 		.4byte	.LVL34
 4199 02d6 0B000000 		.4byte	.LVL35-1
 4200 02da 0100     		.2byte	0x1
 4201 02dc 50       		.byte	0x50
 4202 02dd 0B000000 		.4byte	.LVL35-1
 4203 02e1 B2000000 		.4byte	.LFE46
 4204 02e5 0400     		.2byte	0x4
 4205 02e7 F3       		.byte	0xf3
 4206 02e8 01       		.uleb128 0x1
 4207 02e9 50       		.byte	0x50
 4208 02ea 9F       		.byte	0x9f
 4209 02eb 00000000 		.4byte	0
 4210 02ef 00000000 		.4byte	0
 4211              	.LLST10:
 4212 02f3 00000000 		.4byte	.LVL34
 4213 02f7 0B000000 		.4byte	.LVL35-1
 4214 02fb 0100     		.2byte	0x1
 4215 02fd 51       		.byte	0x51
 4216 02fe 0B000000 		.4byte	.LVL35-1
 4217 0302 1C000000 		.4byte	.LVL38
 4218 0306 0100     		.2byte	0x1
ARM GAS  /tmp/ccvik3Iq.s 			page 75


 4219 0308 54       		.byte	0x54
 4220 0309 1C000000 		.4byte	.LVL38
 4221 030d 20000000 		.4byte	.LVL39
 4222 0311 0400     		.2byte	0x4
 4223 0313 F3       		.byte	0xf3
 4224 0314 01       		.uleb128 0x1
 4225 0315 51       		.byte	0x51
 4226 0316 9F       		.byte	0x9f
 4227 0317 20000000 		.4byte	.LVL39
 4228 031b 52000000 		.4byte	.LVL45
 4229 031f 0100     		.2byte	0x1
 4230 0321 54       		.byte	0x54
 4231 0322 52000000 		.4byte	.LVL45
 4232 0326 B2000000 		.4byte	.LFE46
 4233 032a 0400     		.2byte	0x4
 4234 032c F3       		.byte	0xf3
 4235 032d 01       		.uleb128 0x1
 4236 032e 51       		.byte	0x51
 4237 032f 9F       		.byte	0x9f
 4238 0330 00000000 		.4byte	0
 4239 0334 00000000 		.4byte	0
 4240              	.LLST11:
 4241 0338 00000000 		.4byte	.LVL34
 4242 033c 0B000000 		.4byte	.LVL35-1
 4243 0340 0100     		.2byte	0x1
 4244 0342 52       		.byte	0x52
 4245 0343 0B000000 		.4byte	.LVL35-1
 4246 0347 B2000000 		.4byte	.LFE46
 4247 034b 0400     		.2byte	0x4
 4248 034d F3       		.byte	0xf3
 4249 034e 01       		.uleb128 0x1
 4250 034f 52       		.byte	0x52
 4251 0350 9F       		.byte	0x9f
 4252 0351 00000000 		.4byte	0
 4253 0355 00000000 		.4byte	0
 4254              	.LLST12:
 4255 0359 0E000000 		.4byte	.LVL36
 4256 035d 16000000 		.4byte	.LVL37
 4257 0361 0100     		.2byte	0x1
 4258 0363 50       		.byte	0x50
 4259 0364 16000000 		.4byte	.LVL37
 4260 0368 B2000000 		.4byte	.LFE46
 4261 036c 0100     		.2byte	0x1
 4262 036e 55       		.byte	0x55
 4263 036f 00000000 		.4byte	0
 4264 0373 00000000 		.4byte	0
 4265              	.LLST13:
 4266 0377 3C000000 		.4byte	.LVL42
 4267 037b 46000000 		.4byte	.LVL43
 4268 037f 0100     		.2byte	0x1
 4269 0381 50       		.byte	0x50
 4270 0382 46000000 		.4byte	.LVL43
 4271 0386 4D000000 		.4byte	.LVL44-1
 4272 038a 0100     		.2byte	0x1
 4273 038c 51       		.byte	0x51
 4274 038d 52000000 		.4byte	.LVL45
 4275 0391 55000000 		.4byte	.LVL46-1
ARM GAS  /tmp/ccvik3Iq.s 			page 76


 4276 0395 0100     		.2byte	0x1
 4277 0397 50       		.byte	0x50
 4278 0398 55000000 		.4byte	.LVL46-1
 4279 039c 78000000 		.4byte	.LVL54
 4280 03a0 0100     		.2byte	0x1
 4281 03a2 54       		.byte	0x54
 4282 03a3 00000000 		.4byte	0
 4283 03a7 00000000 		.4byte	0
 4284              	.LLST14:
 4285 03ab 56000000 		.4byte	.LVL46
 4286 03af 5C000000 		.4byte	.LVL47
 4287 03b3 0100     		.2byte	0x1
 4288 03b5 50       		.byte	0x50
 4289 03b6 5C000000 		.4byte	.LVL47
 4290 03ba 5F000000 		.4byte	.LVL48-1
 4291 03be 0100     		.2byte	0x1
 4292 03c0 51       		.byte	0x51
 4293 03c1 64000000 		.4byte	.LVL49
 4294 03c5 66000000 		.4byte	.LVL50
 4295 03c9 0100     		.2byte	0x1
 4296 03cb 50       		.byte	0x50
 4297 03cc 66000000 		.4byte	.LVL50
 4298 03d0 69000000 		.4byte	.LVL51-1
 4299 03d4 0100     		.2byte	0x1
 4300 03d6 51       		.byte	0x51
 4301 03d7 69000000 		.4byte	.LVL51-1
 4302 03db 86000000 		.4byte	.LVL57
 4303 03df 0100     		.2byte	0x1
 4304 03e1 56       		.byte	0x56
 4305 03e2 00000000 		.4byte	0
 4306 03e6 00000000 		.4byte	0
 4307              	.LLST15:
 4308 03ea 6A000000 		.4byte	.LVL51
 4309 03ee 6F000000 		.4byte	.LVL52-1
 4310 03f2 0100     		.2byte	0x1
 4311 03f4 50       		.byte	0x50
 4312 03f5 70000000 		.4byte	.LVL52
 4313 03f9 A3000000 		.4byte	.LVL60-1
 4314 03fd 0100     		.2byte	0x1
 4315 03ff 50       		.byte	0x50
 4316 0400 00000000 		.4byte	0
 4317 0404 00000000 		.4byte	0
 4318              	.LLST16:
 4319 0408 70000000 		.4byte	.LVL52
 4320 040c 74000000 		.4byte	.LVL53
 4321 0410 0100     		.2byte	0x1
 4322 0412 54       		.byte	0x54
 4323 0413 00000000 		.4byte	0
 4324 0417 00000000 		.4byte	0
 4325              	.LLST17:
 4326 041b 7E000000 		.4byte	.LVL55
 4327 041f 82000000 		.4byte	.LVL56
 4328 0423 0100     		.2byte	0x1
 4329 0425 56       		.byte	0x56
 4330 0426 00000000 		.4byte	0
 4331 042a 00000000 		.4byte	0
 4332              	.LLST18:
ARM GAS  /tmp/ccvik3Iq.s 			page 77


 4333 042e 8C000000 		.4byte	.LVL58
 4334 0432 90000000 		.4byte	.LVL59
 4335 0436 0100     		.2byte	0x1
 4336 0438 50       		.byte	0x50
 4337 0439 00000000 		.4byte	0
 4338 043d 00000000 		.4byte	0
 4339              	.LLST0:
 4340 0441 00000000 		.4byte	.LVL0
 4341 0445 07000000 		.4byte	.LVL1-1
 4342 0449 0100     		.2byte	0x1
 4343 044b 50       		.byte	0x50
 4344 044c 07000000 		.4byte	.LVL1-1
 4345 0450 A2000000 		.4byte	.LFE45
 4346 0454 0400     		.2byte	0x4
 4347 0456 F3       		.byte	0xf3
 4348 0457 01       		.uleb128 0x1
 4349 0458 50       		.byte	0x50
 4350 0459 9F       		.byte	0x9f
 4351 045a 00000000 		.4byte	0
 4352 045e 00000000 		.4byte	0
 4353              	.LLST1:
 4354 0462 00000000 		.4byte	.LVL0
 4355 0466 07000000 		.4byte	.LVL1-1
 4356 046a 0100     		.2byte	0x1
 4357 046c 51       		.byte	0x51
 4358 046d 07000000 		.4byte	.LVL1-1
 4359 0471 A2000000 		.4byte	.LFE45
 4360 0475 0400     		.2byte	0x4
 4361 0477 F3       		.byte	0xf3
 4362 0478 01       		.uleb128 0x1
 4363 0479 51       		.byte	0x51
 4364 047a 9F       		.byte	0x9f
 4365 047b 00000000 		.4byte	0
 4366 047f 00000000 		.4byte	0
 4367              	.LLST2:
 4368 0483 16000000 		.4byte	.LVL2
 4369 0487 1A000000 		.4byte	.LVL3
 4370 048b 0100     		.2byte	0x1
 4371 048d 50       		.byte	0x50
 4372 048e 1A000000 		.4byte	.LVL3
 4373 0492 1C000000 		.4byte	.LVL4
 4374 0496 0100     		.2byte	0x1
 4375 0498 54       		.byte	0x54
 4376 0499 1C000000 		.4byte	.LVL4
 4377 049d 21000000 		.4byte	.LVL5-1
 4378 04a1 0100     		.2byte	0x1
 4379 04a3 50       		.byte	0x50
 4380 04a4 21000000 		.4byte	.LVL5-1
 4381 04a8 7C000000 		.4byte	.LVL23
 4382 04ac 0100     		.2byte	0x1
 4383 04ae 54       		.byte	0x54
 4384 04af 80000000 		.4byte	.LVL24
 4385 04b3 A2000000 		.4byte	.LFE45
 4386 04b7 0100     		.2byte	0x1
 4387 04b9 54       		.byte	0x54
 4388 04ba 00000000 		.4byte	0
 4389 04be 00000000 		.4byte	0
ARM GAS  /tmp/ccvik3Iq.s 			page 78


 4390              	.LLST3:
 4391 04c2 24000000 		.4byte	.LVL6
 4392 04c6 2A000000 		.4byte	.LVL7
 4393 04ca 0100     		.2byte	0x1
 4394 04cc 50       		.byte	0x50
 4395 04cd 2A000000 		.4byte	.LVL7
 4396 04d1 2D000000 		.4byte	.LVL8-1
 4397 04d5 0100     		.2byte	0x1
 4398 04d7 51       		.byte	0x51
 4399 04d8 32000000 		.4byte	.LVL9
 4400 04dc 35000000 		.4byte	.LVL10-1
 4401 04e0 0100     		.2byte	0x1
 4402 04e2 50       		.byte	0x50
 4403 04e3 35000000 		.4byte	.LVL10-1
 4404 04e7 50000000 		.4byte	.LVL17
 4405 04eb 0100     		.2byte	0x1
 4406 04ed 56       		.byte	0x56
 4407 04ee 80000000 		.4byte	.LVL24
 4408 04f2 84000000 		.4byte	.LVL25
 4409 04f6 0100     		.2byte	0x1
 4410 04f8 50       		.byte	0x50
 4411 04f9 84000000 		.4byte	.LVL25
 4412 04fd 87000000 		.4byte	.LVL26-1
 4413 0501 0100     		.2byte	0x1
 4414 0503 51       		.byte	0x51
 4415 0504 8C000000 		.4byte	.LVL27
 4416 0508 8F000000 		.4byte	.LVL28-1
 4417 050c 0100     		.2byte	0x1
 4418 050e 50       		.byte	0x50
 4419 050f 8F000000 		.4byte	.LVL28-1
 4420 0513 98000000 		.4byte	.LVL31
 4421 0517 0100     		.2byte	0x1
 4422 0519 56       		.byte	0x56
 4423 051a 00000000 		.4byte	0
 4424 051e 00000000 		.4byte	0
 4425              	.LLST4:
 4426 0522 38000000 		.4byte	.LVL11
 4427 0526 3C000000 		.4byte	.LVL12
 4428 052a 0100     		.2byte	0x1
 4429 052c 50       		.byte	0x50
 4430 052d 3C000000 		.4byte	.LVL12
 4431 0531 3F000000 		.4byte	.LVL13-1
 4432 0535 0100     		.2byte	0x1
 4433 0537 51       		.byte	0x51
 4434 0538 44000000 		.4byte	.LVL14
 4435 053c 47000000 		.4byte	.LVL15-1
 4436 0540 0100     		.2byte	0x1
 4437 0542 50       		.byte	0x50
 4438 0543 47000000 		.4byte	.LVL15-1
 4439 0547 5E000000 		.4byte	.LVL20
 4440 054b 0100     		.2byte	0x1
 4441 054d 55       		.byte	0x55
 4442 054e 92000000 		.4byte	.LVL29
 4443 0552 96000000 		.4byte	.LVL30
 4444 0556 0100     		.2byte	0x1
 4445 0558 50       		.byte	0x50
 4446 0559 96000000 		.4byte	.LVL30
ARM GAS  /tmp/ccvik3Iq.s 			page 79


 4447 055d 98000000 		.4byte	.LVL31
 4448 0561 0100     		.2byte	0x1
 4449 0563 51       		.byte	0x51
 4450 0564 00000000 		.4byte	0
 4451 0568 00000000 		.4byte	0
 4452              	.LLST5:
 4453 056c 48000000 		.4byte	.LVL15
 4454 0570 7F000000 		.4byte	.LVL24-1
 4455 0574 0100     		.2byte	0x1
 4456 0576 50       		.byte	0x50
 4457 0577 98000000 		.4byte	.LVL31
 4458 057b 9A000000 		.4byte	.LVL32
 4459 057f 0100     		.2byte	0x1
 4460 0581 50       		.byte	0x50
 4461 0582 00000000 		.4byte	0
 4462 0586 00000000 		.4byte	0
 4463              	.LLST6:
 4464 058a 48000000 		.4byte	.LVL15
 4465 058e 4C000000 		.4byte	.LVL16
 4466 0592 0100     		.2byte	0x1
 4467 0594 56       		.byte	0x56
 4468 0595 00000000 		.4byte	0
 4469 0599 00000000 		.4byte	0
 4470              	.LLST7:
 4471 059d 56000000 		.4byte	.LVL18
 4472 05a1 5A000000 		.4byte	.LVL19
 4473 05a5 0100     		.2byte	0x1
 4474 05a7 55       		.byte	0x55
 4475 05a8 00000000 		.4byte	0
 4476 05ac 00000000 		.4byte	0
 4477              	.LLST8:
 4478 05b0 64000000 		.4byte	.LVL21
 4479 05b4 68000000 		.4byte	.LVL22
 4480 05b8 0100     		.2byte	0x1
 4481 05ba 50       		.byte	0x50
 4482 05bb 00000000 		.4byte	0
 4483 05bf 00000000 		.4byte	0
 4484              		.section	.debug_aranges,"",%progbits
 4485 0000 6C000000 		.4byte	0x6c
 4486 0004 0200     		.2byte	0x2
 4487 0006 00000000 		.4byte	.Ldebug_info0
 4488 000a 04       		.byte	0x4
 4489 000b 00       		.byte	0
 4490 000c 0000     		.2byte	0
 4491 000e 0000     		.2byte	0
 4492 0010 00000000 		.4byte	.LFB45
 4493 0014 A2000000 		.4byte	.LFE45-.LFB45
 4494 0018 00000000 		.4byte	.LFB46
 4495 001c B2000000 		.4byte	.LFE46-.LFB46
 4496 0020 00000000 		.4byte	.LFB47
 4497 0024 94000000 		.4byte	.LFE47-.LFB47
 4498 0028 00000000 		.4byte	.LFB48
 4499 002c 06000000 		.4byte	.LFE48-.LFB48
 4500 0030 00000000 		.4byte	.LFB49
 4501 0034 06000000 		.4byte	.LFE49-.LFB49
 4502 0038 00000000 		.4byte	.LFB50
 4503 003c 06000000 		.4byte	.LFE50-.LFB50
ARM GAS  /tmp/ccvik3Iq.s 			page 80


 4504 0040 00000000 		.4byte	.LFB51
 4505 0044 06000000 		.4byte	.LFE51-.LFB51
 4506 0048 00000000 		.4byte	.LFB52
 4507 004c 06000000 		.4byte	.LFE52-.LFB52
 4508 0050 00000000 		.4byte	.LFB53
 4509 0054 06000000 		.4byte	.LFE53-.LFB53
 4510 0058 00000000 		.4byte	.LFB54
 4511 005c 38000000 		.4byte	.LFE54-.LFB54
 4512 0060 00000000 		.4byte	.LFB55
 4513 0064 40000000 		.4byte	.LFE55-.LFB55
 4514 0068 00000000 		.4byte	0
 4515 006c 00000000 		.4byte	0
 4516              		.section	.debug_ranges,"",%progbits
 4517              	.Ldebug_ranges0:
 4518 0000 00000000 		.4byte	.LFB45
 4519 0004 A2000000 		.4byte	.LFE45
 4520 0008 00000000 		.4byte	.LFB46
 4521 000c B2000000 		.4byte	.LFE46
 4522 0010 00000000 		.4byte	.LFB47
 4523 0014 94000000 		.4byte	.LFE47
 4524 0018 00000000 		.4byte	.LFB48
 4525 001c 06000000 		.4byte	.LFE48
 4526 0020 00000000 		.4byte	.LFB49
 4527 0024 06000000 		.4byte	.LFE49
 4528 0028 00000000 		.4byte	.LFB50
 4529 002c 06000000 		.4byte	.LFE50
 4530 0030 00000000 		.4byte	.LFB51
 4531 0034 06000000 		.4byte	.LFE51
 4532 0038 00000000 		.4byte	.LFB52
 4533 003c 06000000 		.4byte	.LFE52
 4534 0040 00000000 		.4byte	.LFB53
 4535 0044 06000000 		.4byte	.LFE53
 4536 0048 00000000 		.4byte	.LFB54
 4537 004c 38000000 		.4byte	.LFE54
 4538 0050 00000000 		.4byte	.LFB55
 4539 0054 40000000 		.4byte	.LFE55
 4540 0058 00000000 		.4byte	0
 4541 005c 00000000 		.4byte	0
 4542              		.section	.debug_line,"",%progbits
 4543              	.Ldebug_line0:
 4544 0000 86030000 		.section	.debug_str,"MS",%progbits,1
 4544      02007B01 
 4544      00000201 
 4544      FB0E0D00 
 4544      01010101 
 4545              	.LASF151:
 4546 0000 62696E64 		.ascii	"binding\000"
 4546      696E6700 
 4547              	.LASF54:
 4548 0008 5F6F6E5F 		.ascii	"_on_exit_args\000"
 4548      65786974 
 4548      5F617267 
 4548      7300
 4549              	.LASF121:
 4550 0016 5F776374 		.ascii	"_wctomb_state\000"
 4550      6F6D625F 
 4550      73746174 
ARM GAS  /tmp/ccvik3Iq.s 			page 81


 4550      6500
 4551              	.LASF160:
 4552 0024 6C626D5F 		.ascii	"lbm_enc_sym\000"
 4552      656E635F 
 4552      73796D00 
 4553              	.LASF159:
 4554 0030 6C626D5F 		.ascii	"lbm_dec_sym\000"
 4554      6465635F 
 4554      73796D00 
 4555              	.LASF19:
 4556 003c 6D6F7265 		.ascii	"more\000"
 4556      00
 4557              	.LASF118:
 4558 0041 5F723438 		.ascii	"_r48\000"
 4558      00
 4559              	.LASF123:
 4560 0046 5F736967 		.ascii	"_signal_buf\000"
 4560      6E616C5F 
 4560      62756600 
 4561              	.LASF10:
 4562 0052 756E7369 		.ascii	"unsigned int\000"
 4562      676E6564 
 4562      20696E74 
 4562      00
 4563              	.LASF68:
 4564 005f 5F6C6266 		.ascii	"_lbfsize\000"
 4564      73697A65 
 4564      00
 4565              	.LASF66:
 4566 0068 5F666C61 		.ascii	"_flags\000"
 4566      677300
 4567              	.LASF137:
 4568 006f 73796D62 		.ascii	"symbol\000"
 4568      6F6C00
 4569              	.LASF83:
 4570 0076 5F657272 		.ascii	"_errno\000"
 4570      6E6F00
 4571              	.LASF165:
 4572 007d 6C626D5F 		.ascii	"lbm_get_env\000"
 4572      6765745F 
 4572      656E7600 
 4573              	.LASF109:
 4574 0089 5F736565 		.ascii	"_seed\000"
 4574      6400
 4575              	.LASF166:
 4576 008f 6C626D5F 		.ascii	"lbm_env_set\000"
 4576      656E765F 
 4576      73657400 
 4577              	.LASF80:
 4578 009b 5F6D6273 		.ascii	"_mbstate\000"
 4578      74617465 
 4578      00
 4579              	.LASF155:
 4580 00a4 6576616C 		.ascii	"eval_cps_load_and_define\000"
 4580      5F637073 
 4580      5F6C6F61 
 4580      645F616E 
ARM GAS  /tmp/ccvik3Iq.s 			page 82


 4580      645F6465 
 4581              	.LASF70:
 4582 00bd 5F726561 		.ascii	"_read\000"
 4582      6400
 4583              	.LASF125:
 4584 00c3 5F6D6272 		.ascii	"_mbrlen_state\000"
 4584      6C656E5F 
 4584      73746174 
 4584      6500
 4585              	.LASF17:
 4586 00d1 6C626D5F 		.ascii	"lbm_cid\000"
 4586      63696400 
 4587              	.LASF29:
 4588 00d9 5F66706F 		.ascii	"_fpos_t\000"
 4588      735F7400 
 4589              	.LASF154:
 4590 00e1 73746172 		.ascii	"start_prg\000"
 4590      745F7072 
 4590      6700
 4591              	.LASF61:
 4592 00eb 5F666E73 		.ascii	"_fns\000"
 4592      00
 4593              	.LASF69:
 4594 00f0 5F636F6F 		.ascii	"_cookie\000"
 4594      6B696500 
 4595              	.LASF39:
 4596 00f8 5F426967 		.ascii	"_Bigint\000"
 4596      696E7400 
 4597              	.LASF24:
 4598 0100 6C626D5F 		.ascii	"lbm_tokenizer_char_stream_t\000"
 4598      746F6B65 
 4598      6E697A65 
 4598      725F6368 
 4598      61725F73 
 4599              	.LASF51:
 4600 011c 5F5F746D 		.ascii	"__tm_wday\000"
 4600      5F776461 
 4600      7900
 4601              	.LASF93:
 4602 0126 5F726573 		.ascii	"_result\000"
 4602      756C7400 
 4603              	.LASF174:
 4604 012e 6C626D5F 		.ascii	"lbm_memory_free\000"
 4604      6D656D6F 
 4604      72795F66 
 4604      72656500 
 4605              	.LASF169:
 4606 013e 6C626D5F 		.ascii	"lbm_env_lookup\000"
 4606      656E765F 
 4606      6C6F6F6B 
 4606      757000
 4607              	.LASF12:
 4608 014d 75696E74 		.ascii	"uint32_t\000"
 4608      33325F74 
 4608      00
 4609              	.LASF47:
 4610 0156 5F5F746D 		.ascii	"__tm_hour\000"
ARM GAS  /tmp/ccvik3Iq.s 			page 83


 4610      5F686F75 
 4610      7200
 4611              	.LASF33:
 4612 0160 5F5F636F 		.ascii	"__count\000"
 4612      756E7400 
 4613              	.LASF173:
 4614 0168 6C626D5F 		.ascii	"lbm_add_symbol\000"
 4614      6164645F 
 4614      73796D62 
 4614      6F6C00
 4615              	.LASF16:
 4616 0177 666C6F61 		.ascii	"float\000"
 4616      7400
 4617              	.LASF46:
 4618 017d 5F5F746D 		.ascii	"__tm_min\000"
 4618      5F6D696E 
 4618      00
 4619              	.LASF134:
 4620 0186 5F696D70 		.ascii	"_impure_ptr\000"
 4620      7572655F 
 4620      70747200 
 4621              	.LASF131:
 4622 0192 5F6E6578 		.ascii	"_nextf\000"
 4622      746600
 4623              	.LASF164:
 4624 0199 6C626D5F 		.ascii	"lbm_add_symbol_const\000"
 4624      6164645F 
 4624      73796D62 
 4624      6F6C5F63 
 4624      6F6E7374 
 4625              	.LASF175:
 4626 01ae 474E5520 		.ascii	"GNU C99 7.3.1 20180622 (release) [ARM/embedded-7-br"
 4626      43393920 
 4626      372E332E 
 4626      31203230 
 4626      31383036 
 4627 01e1 616E6368 		.ascii	"anch revision 261907] -mcpu=cortex-m4 -mfloat-abi=h"
 4627      20726576 
 4627      6973696F 
 4627      6E203236 
 4627      31393037 
 4628 0214 61726420 		.ascii	"ard -mfpu=fpv4-sp-d16 -mno-thumb-interwork -mthumb "
 4628      2D6D6670 
 4628      753D6670 
 4628      76342D73 
 4628      702D6431 
 4629 0247 2D676764 		.ascii	"-ggdb -O2 -std=gnu99 -fomit-frame-pointer -falign-f"
 4629      62202D4F 
 4629      32202D73 
 4629      74643D67 
 4629      6E753939 
 4630 027a 756E6374 		.ascii	"unctions=16 -ffunction-sections -fdata-sections -fn"
 4630      696F6E73 
 4630      3D313620 
 4630      2D666675 
 4630      6E637469 
 4631 02ad 6F2D636F 		.ascii	"o-common -fsingle-precision-constant\000"
ARM GAS  /tmp/ccvik3Iq.s 			page 84


 4631      6D6D6F6E 
 4631      202D6673 
 4631      696E676C 
 4631      652D7072 
 4632              	.LASF108:
 4633 02d2 5F72616E 		.ascii	"_rand48\000"
 4633      64343800 
 4634              	.LASF94:
 4635 02da 5F726573 		.ascii	"_result_k\000"
 4635      756C745F 
 4635      6B00
 4636              	.LASF9:
 4637 02e4 6C6F6E67 		.ascii	"long long unsigned int\000"
 4637      206C6F6E 
 4637      6720756E 
 4637      7369676E 
 4637      65642069 
 4638              	.LASF114:
 4639 02fb 5F617363 		.ascii	"_asctime_buf\000"
 4639      74696D65 
 4639      5F627566 
 4639      00
 4640              	.LASF65:
 4641 0308 5F5F7346 		.ascii	"__sFILE\000"
 4641      494C4500 
 4642              	.LASF43:
 4643 0310 5F776473 		.ascii	"_wds\000"
 4643      00
 4644              	.LASF5:
 4645 0315 5F5F7569 		.ascii	"__uint16_t\000"
 4645      6E743136 
 4645      5F7400
 4646              	.LASF104:
 4647 0320 5F5F4649 		.ascii	"__FILE\000"
 4647      4C4500
 4648              	.LASF130:
 4649 0327 5F685F65 		.ascii	"_h_errno\000"
 4649      72726E6F 
 4649      00
 4650              	.LASF77:
 4651 0330 5F6F6666 		.ascii	"_offset\000"
 4651      73657400 
 4652              	.LASF138:
 4653 0338 76616C75 		.ascii	"value\000"
 4653      6500
 4654              	.LASF88:
 4655 033e 5F656D65 		.ascii	"_emergency\000"
 4655      7267656E 
 4655      637900
 4656              	.LASF13:
 4657 0349 6C626D5F 		.ascii	"lbm_value\000"
 4657      76616C75 
 4657      6500
 4658              	.LASF45:
 4659 0353 5F5F746D 		.ascii	"__tm_sec\000"
 4659      5F736563 
 4659      00
ARM GAS  /tmp/ccvik3Iq.s 			page 85


 4660              	.LASF136:
 4661 035c 7375626F 		.ascii	"suboptarg\000"
 4661      70746172 
 4661      6700
 4662              	.LASF52:
 4663 0366 5F5F746D 		.ascii	"__tm_yday\000"
 4663      5F796461 
 4663      7900
 4664              	.LASF87:
 4665 0370 5F696E63 		.ascii	"_inc\000"
 4665      00
 4666              	.LASF22:
 4667 0375 5F426F6F 		.ascii	"_Bool\000"
 4667      6C00
 4668              	.LASF161:
 4669 037b 6C626D5F 		.ascii	"lbm_type_of\000"
 4669      74797065 
 4669      5F6F6600 
 4670              	.LASF150:
 4671 0387 70726F67 		.ascii	"program\000"
 4671      72616D00 
 4672              	.LASF40:
 4673 038f 5F6E6578 		.ascii	"_next\000"
 4673      7400
 4674              	.LASF127:
 4675 0395 5F6D6273 		.ascii	"_mbsrtowcs_state\000"
 4675      72746F77 
 4675      63735F73 
 4675      74617465 
 4675      00
 4676              	.LASF152:
 4677 03a6 6C61756E 		.ascii	"launcher\000"
 4677      63686572 
 4677      00
 4678              	.LASF34:
 4679 03af 5F5F7661 		.ascii	"__value\000"
 4679      6C756500 
 4680              	.LASF95:
 4681 03b7 5F703573 		.ascii	"_p5s\000"
 4681      00
 4682              	.LASF129:
 4683 03bc 5F776373 		.ascii	"_wcsrtombs_state\000"
 4683      72746F6D 
 4683      62735F73 
 4683      74617465 
 4683      00
 4684              	.LASF119:
 4685 03cd 5F6D626C 		.ascii	"_mblen_state\000"
 4685      656E5F73 
 4685      74617465 
 4685      00
 4686              	.LASF23:
 4687 03da 63686172 		.ascii	"char\000"
 4687      00
 4688              	.LASF48:
 4689 03df 5F5F746D 		.ascii	"__tm_mday\000"
 4689      5F6D6461 
ARM GAS  /tmp/ccvik3Iq.s 			page 86


 4689      7900
 4690              	.LASF101:
 4691 03e9 5F736967 		.ascii	"_sig_func\000"
 4691      5F66756E 
 4691      6300
 4692              	.LASF126:
 4693 03f3 5F6D6272 		.ascii	"_mbrtowc_state\000"
 4693      746F7763 
 4693      5F737461 
 4693      746500
 4694              	.LASF100:
 4695 0402 5F617465 		.ascii	"_atexit0\000"
 4695      78697430 
 4695      00
 4696              	.LASF36:
 4697 040b 5F666C6F 		.ascii	"_flock_t\000"
 4697      636B5F74 
 4697      00
 4698              	.LASF31:
 4699 0414 5F5F7763 		.ascii	"__wch\000"
 4699      6800
 4700              	.LASF107:
 4701 041a 5F696F62 		.ascii	"_iobs\000"
 4701      7300
 4702              	.LASF171:
 4703 0420 6C626D5F 		.ascii	"lbm_create_ctx\000"
 4703      63726561 
 4703      74655F63 
 4703      747800
 4704              	.LASF73:
 4705 042f 5F636C6F 		.ascii	"_close\000"
 4705      736500
 4706              	.LASF91:
 4707 0436 5F5F7364 		.ascii	"__sdidinit\000"
 4707      6964696E 
 4707      697400
 4708              	.LASF84:
 4709 0441 5F737464 		.ascii	"_stdin\000"
 4709      696E00
 4710              	.LASF116:
 4711 0448 5F67616D 		.ascii	"_gamma_signgam\000"
 4711      6D615F73 
 4711      69676E67 
 4711      616D00
 4712              	.LASF8:
 4713 0457 6C6F6E67 		.ascii	"long long int\000"
 4713      206C6F6E 
 4713      6720696E 
 4713      7400
 4714              	.LASF63:
 4715 0465 5F626173 		.ascii	"_base\000"
 4715      6500
 4716              	.LASF139:
 4717 046b 73796D5F 		.ascii	"sym_id\000"
 4717      696400
 4718              	.LASF96:
 4719 0472 5F667265 		.ascii	"_freelist\000"
ARM GAS  /tmp/ccvik3Iq.s 			page 87


 4719      656C6973 
 4719      7400
 4720              	.LASF110:
 4721 047c 5F6D756C 		.ascii	"_mult\000"
 4721      7400
 4722              	.LASF37:
 4723 0482 5F5F554C 		.ascii	"__ULong\000"
 4723      6F6E6700 
 4724              	.LASF128:
 4725 048a 5F776372 		.ascii	"_wcrtomb_state\000"
 4725      746F6D62 
 4725      5F737461 
 4725      746500
 4726              	.LASF38:
 4727 0499 6C626D5F 		.ascii	"lbm_tcs\000"
 4727      74637300 
 4728              	.LASF67:
 4729 04a1 5F66696C 		.ascii	"_file\000"
 4729      6500
 4730              	.LASF14:
 4731 04a7 6C626D5F 		.ascii	"lbm_type\000"
 4731      74797065 
 4731      00
 4732              	.LASF92:
 4733 04b0 5F5F636C 		.ascii	"__cleanup\000"
 4733      65616E75 
 4733      7000
 4734              	.LASF35:
 4735 04ba 5F6D6273 		.ascii	"_mbstate_t\000"
 4735      74617465 
 4735      5F7400
 4736              	.LASF53:
 4737 04c5 5F5F746D 		.ascii	"__tm_isdst\000"
 4737      5F697364 
 4737      737400
 4738              	.LASF60:
 4739 04d0 5F696E64 		.ascii	"_ind\000"
 4739      00
 4740              	.LASF170:
 4741 04d5 6C626D5F 		.ascii	"lbm_cons\000"
 4741      636F6E73 
 4741      00
 4742              	.LASF177:
 4743 04de 2F626C64 		.ascii	"/bldc\000"
 4743      6300
 4744              	.LASF49:
 4745 04e4 5F5F746D 		.ascii	"__tm_mon\000"
 4745      5F6D6F6E 
 4745      00
 4746              	.LASF25:
 4747 04ed 5F4C4F43 		.ascii	"_LOCK_T\000"
 4747      4B5F5400 
 4748              	.LASF11:
 4749 04f5 75696E74 		.ascii	"uint16_t\000"
 4749      31365F74 
 4749      00
 4750              	.LASF147:
ARM GAS  /tmp/ccvik3Iq.s 			page 88


 4751 04fe 6C626D5F 		.ascii	"lbm_load_and_define_expression\000"
 4751      6C6F6164 
 4751      5F616E64 
 4751      5F646566 
 4751      696E655F 
 4752              	.LASF62:
 4753 051d 5F5F7362 		.ascii	"__sbuf\000"
 4753      756600
 4754              	.LASF71:
 4755 0524 5F777269 		.ascii	"_write\000"
 4755      746500
 4756              	.LASF15:
 4757 052b 6C626D5F 		.ascii	"lbm_uint\000"
 4757      75696E74 
 4757      00
 4758              	.LASF148:
 4759 0534 6C626D5F 		.ascii	"lbm_load_and_eval_expression\000"
 4759      6C6F6164 
 4759      5F616E64 
 4759      5F657661 
 4759      6C5F6578 
 4760              	.LASF149:
 4761 0551 6C626D5F 		.ascii	"lbm_eval_defined\000"
 4761      6576616C 
 4761      5F646566 
 4761      696E6564 
 4761      00
 4762              	.LASF146:
 4763 0562 6C626D5F 		.ascii	"lbm_load_and_eval_program\000"
 4763      6C6F6164 
 4763      5F616E64 
 4763      5F657661 
 4763      6C5F7072 
 4764              	.LASF59:
 4765 057c 5F617465 		.ascii	"_atexit\000"
 4765      78697400 
 4766              	.LASF143:
 4767 0584 6C626D5F 		.ascii	"lbm_eval_defined_expression\000"
 4767      6576616C 
 4767      5F646566 
 4767      696E6564 
 4767      5F657870 
 4768              	.LASF2:
 4769 05a0 73686F72 		.ascii	"short int\000"
 4769      7420696E 
 4769      7400
 4770              	.LASF168:
 4771 05aa 6C626D5F 		.ascii	"lbm_get_env_ptr\000"
 4771      6765745F 
 4771      656E765F 
 4771      70747200 
 4772              	.LASF4:
 4773 05ba 6C6F6E67 		.ascii	"long int\000"
 4773      20696E74 
 4773      00
 4774              	.LASF140:
 4775 05c3 6C626D5F 		.ascii	"lbm_define\000"
ARM GAS  /tmp/ccvik3Iq.s 			page 89


 4775      64656669 
 4775      6E6500
 4776              	.LASF141:
 4777 05ce 6C626D5F 		.ascii	"lbm_send_message\000"
 4777      73656E64 
 4777      5F6D6573 
 4777      73616765 
 4777      00
 4778              	.LASF103:
 4779 05df 5F5F7366 		.ascii	"__sf\000"
 4779      00
 4780              	.LASF42:
 4781 05e4 5F736967 		.ascii	"_sign\000"
 4781      6E00
 4782              	.LASF78:
 4783 05ea 5F646174 		.ascii	"_data\000"
 4783      6100
 4784              	.LASF32:
 4785 05f0 5F5F7763 		.ascii	"__wchb\000"
 4785      686200
 4786              	.LASF135:
 4787 05f7 5F676C6F 		.ascii	"_global_impure_ptr\000"
 4787      62616C5F 
 4787      696D7075 
 4787      72655F70 
 4787      747200
 4788              	.LASF50:
 4789 060a 5F5F746D 		.ascii	"__tm_year\000"
 4789      5F796561 
 4789      7200
 4790              	.LASF158:
 4791 0614 6576616C 		.ascii	"eval_cps_load_and_eval\000"
 4791      5F637073 
 4791      5F6C6F61 
 4791      645F616E 
 4791      645F6576 
 4792              	.LASF162:
 4793 062b 6C626D5F 		.ascii	"lbm_get_eval_state\000"
 4793      6765745F 
 4793      6576616C 
 4793      5F737461 
 4793      746500
 4794              	.LASF115:
 4795 063e 5F6C6F63 		.ascii	"_localtime_buf\000"
 4795      616C7469 
 4795      6D655F62 
 4795      756600
 4796              	.LASF133:
 4797 064d 5F756E75 		.ascii	"_unused\000"
 4797      73656400 
 4798              	.LASF99:
 4799 0655 5F6E6577 		.ascii	"_new\000"
 4799      00
 4800              	.LASF172:
 4801 065a 6C626D5F 		.ascii	"lbm_create_token_stream\000"
 4801      63726561 
 4801      74655F74 
ARM GAS  /tmp/ccvik3Iq.s 			page 90


 4801      6F6B656E 
 4801      5F737472 
 4802              	.LASF97:
 4803 0672 5F637674 		.ascii	"_cvtlen\000"
 4803      6C656E00 
 4804              	.LASF41:
 4805 067a 5F6D6178 		.ascii	"_maxwds\000"
 4805      77647300 
 4806              	.LASF122:
 4807 0682 5F6C3634 		.ascii	"_l64a_buf\000"
 4807      615F6275 
 4807      6600
 4808              	.LASF76:
 4809 068c 5F626C6B 		.ascii	"_blksize\000"
 4809      73697A65 
 4809      00
 4810              	.LASF44:
 4811 0695 5F5F746D 		.ascii	"__tm\000"
 4811      00
 4812              	.LASF157:
 4813 069a 64656669 		.ascii	"definer\000"
 4813      6E657200 
 4814              	.LASF79:
 4815 06a2 5F6C6F63 		.ascii	"_lock\000"
 4815      6B00
 4816              	.LASF7:
 4817 06a8 6C6F6E67 		.ascii	"long unsigned int\000"
 4817      20756E73 
 4817      69676E65 
 4817      6420696E 
 4817      7400
 4818              	.LASF106:
 4819 06ba 5F6E696F 		.ascii	"_niobs\000"
 4819      627300
 4820              	.LASF30:
 4821 06c1 77696E74 		.ascii	"wint_t\000"
 4821      5F7400
 4822              	.LASF145:
 4823 06c8 746F6B65 		.ascii	"tokenizer\000"
 4823      6E697A65 
 4823      7200
 4824              	.LASF56:
 4825 06d2 5F64736F 		.ascii	"_dso_handle\000"
 4825      5F68616E 
 4825      646C6500 
 4826              	.LASF142:
 4827 06de 6C626D5F 		.ascii	"lbm_eval_defined_program\000"
 4827      6576616C 
 4827      5F646566 
 4827      696E6564 
 4827      5F70726F 
 4828              	.LASF27:
 4829 06f7 5F5F6C6F 		.ascii	"__lock\000"
 4829      636B00
 4830              	.LASF163:
 4831 06fe 6C626D5F 		.ascii	"lbm_get_symbol_by_name\000"
 4831      6765745F 
ARM GAS  /tmp/ccvik3Iq.s 			page 91


 4831      73796D62 
 4831      6F6C5F62 
 4831      795F6E61 
 4832              	.LASF85:
 4833 0715 5F737464 		.ascii	"_stdout\000"
 4833      6F757400 
 4834              	.LASF98:
 4835 071d 5F637674 		.ascii	"_cvtbuf\000"
 4835      62756600 
 4836              	.LASF1:
 4837 0725 756E7369 		.ascii	"unsigned char\000"
 4837      676E6564 
 4837      20636861 
 4837      7200
 4838              	.LASF6:
 4839 0733 5F5F7569 		.ascii	"__uint32_t\000"
 4839      6E743332 
 4839      5F7400
 4840              	.LASF167:
 4841 073e 6C626D5F 		.ascii	"lbm_find_receiver_and_send\000"
 4841      66696E64 
 4841      5F726563 
 4841      65697665 
 4841      725F616E 
 4842              	.LASF124:
 4843 0759 5F676574 		.ascii	"_getdate_err\000"
 4843      64617465 
 4843      5F657272 
 4843      00
 4844              	.LASF111:
 4845 0766 5F616464 		.ascii	"_add\000"
 4845      00
 4846              	.LASF153:
 4847 076b 6576616C 		.ascii	"evaluator\000"
 4847      7561746F 
 4847      7200
 4848              	.LASF21:
 4849 0775 64726F70 		.ascii	"drop\000"
 4849      00
 4850              	.LASF18:
 4851 077a 73746174 		.ascii	"state\000"
 4851      6500
 4852              	.LASF105:
 4853 0780 5F676C75 		.ascii	"_glue\000"
 4853      6500
 4854              	.LASF102:
 4855 0786 5F5F7367 		.ascii	"__sglue\000"
 4855      6C756500 
 4856              	.LASF113:
 4857 078e 5F737472 		.ascii	"_strtok_last\000"
 4857      746F6B5F 
 4857      6C617374 
 4857      00
 4858              	.LASF120:
 4859 079b 5F6D6274 		.ascii	"_mbtowc_state\000"
 4859      6F77635F 
 4859      73746174 
ARM GAS  /tmp/ccvik3Iq.s 			page 92


 4859      6500
 4860              	.LASF90:
 4861 07a9 5F6C6F63 		.ascii	"_locale\000"
 4861      616C6500 
 4862              	.LASF55:
 4863 07b1 5F666E61 		.ascii	"_fnargs\000"
 4863      72677300 
 4864              	.LASF0:
 4865 07b9 7369676E 		.ascii	"signed char\000"
 4865      65642063 
 4865      68617200 
 4866              	.LASF82:
 4867 07c5 5F726565 		.ascii	"_reent\000"
 4867      6E7400
 4868              	.LASF3:
 4869 07cc 73686F72 		.ascii	"short unsigned int\000"
 4869      7420756E 
 4869      7369676E 
 4869      65642069 
 4869      6E7400
 4870              	.LASF57:
 4871 07df 5F666E74 		.ascii	"_fntypes\000"
 4871      79706573 
 4871      00
 4872              	.LASF64:
 4873 07e8 5F73697A 		.ascii	"_size\000"
 4873      6500
 4874              	.LASF28:
 4875 07ee 5F6F6666 		.ascii	"_off_t\000"
 4875      5F7400
 4876              	.LASF75:
 4877 07f5 5F6E6275 		.ascii	"_nbuf\000"
 4877      6600
 4878              	.LASF112:
 4879 07fb 5F756E75 		.ascii	"_unused_rand\000"
 4879      7365645F 
 4879      72616E64 
 4879      00
 4880              	.LASF89:
 4881 0808 5F756E73 		.ascii	"_unspecified_locale_info\000"
 4881      70656369 
 4881      66696564 
 4881      5F6C6F63 
 4881      616C655F 
 4882              	.LASF81:
 4883 0821 5F666C61 		.ascii	"_flags2\000"
 4883      67733200 
 4884              	.LASF176:
 4885 0829 6C697370 		.ascii	"lispBM/lispBM/src/lbm_c_interop.c\000"
 4885      424D2F6C 
 4885      69737042 
 4885      4D2F7372 
 4885      632F6C62 
 4886              	.LASF58:
 4887 084b 5F69735F 		.ascii	"_is_cxa\000"
 4887      63786100 
 4888              	.LASF20:
ARM GAS  /tmp/ccvik3Iq.s 			page 93


 4889 0853 7065656B 		.ascii	"peek\000"
 4889      00
 4890              	.LASF117:
 4891 0858 5F72616E 		.ascii	"_rand_next\000"
 4891      645F6E65 
 4891      787400
 4892              	.LASF26:
 4893 0863 5F5F6C6F 		.ascii	"__locale_t\000"
 4893      63616C65 
 4893      5F7400
 4894              	.LASF72:
 4895 086e 5F736565 		.ascii	"_seek\000"
 4895      6B00
 4896              	.LASF144:
 4897 0874 6C626D5F 		.ascii	"lbm_load_and_define_program\000"
 4897      6C6F6164 
 4897      5F616E64 
 4897      5F646566 
 4897      696E655F 
 4898              	.LASF86:
 4899 0890 5F737464 		.ascii	"_stderr\000"
 4899      65727200 
 4900              	.LASF132:
 4901 0898 5F6E6D61 		.ascii	"_nmalloc\000"
 4901      6C6C6F63 
 4901      00
 4902              	.LASF74:
 4903 08a1 5F756275 		.ascii	"_ubuf\000"
 4903      6600
 4904              	.LASF156:
 4905 08a7 73747265 		.ascii	"stream\000"
 4905      616D00
 4906              		.ident	"GCC: (GNU Tools for Arm Embedded Processors 7-2018-q3-update) 7.3.1 20180622 (release) [AR
ARM GAS  /tmp/ccvik3Iq.s 			page 94


DEFINED SYMBOLS
                            *ABS*:0000000000000000 lbm_c_interop.c
     /tmp/ccvik3Iq.s:18     .text.eval_cps_load_and_eval:0000000000000000 $t
     /tmp/ccvik3Iq.s:26     .text.eval_cps_load_and_eval:0000000000000000 eval_cps_load_and_eval
     /tmp/ccvik3Iq.s:192    .text.eval_cps_load_and_define:0000000000000000 $t
     /tmp/ccvik3Iq.s:200    .text.eval_cps_load_and_define:0000000000000000 eval_cps_load_and_define
     /tmp/ccvik3Iq.s:369    .text.lbm_eval_defined:0000000000000000 $t
     /tmp/ccvik3Iq.s:377    .text.lbm_eval_defined:0000000000000000 lbm_eval_defined
     /tmp/ccvik3Iq.s:531    .text.lbm_load_and_eval_expression:0000000000000000 $t
     /tmp/ccvik3Iq.s:539    .text.lbm_load_and_eval_expression:0000000000000000 lbm_load_and_eval_expression
     /tmp/ccvik3Iq.s:555    .text.lbm_load_and_define_expression:0000000000000000 $t
     /tmp/ccvik3Iq.s:563    .text.lbm_load_and_define_expression:0000000000000000 lbm_load_and_define_expression
     /tmp/ccvik3Iq.s:579    .text.lbm_load_and_eval_program:0000000000000000 $t
     /tmp/ccvik3Iq.s:587    .text.lbm_load_and_eval_program:0000000000000000 lbm_load_and_eval_program
     /tmp/ccvik3Iq.s:603    .text.lbm_load_and_define_program:0000000000000000 $t
     /tmp/ccvik3Iq.s:611    .text.lbm_load_and_define_program:0000000000000000 lbm_load_and_define_program
     /tmp/ccvik3Iq.s:627    .text.lbm_eval_defined_expression:0000000000000000 $t
     /tmp/ccvik3Iq.s:635    .text.lbm_eval_defined_expression:0000000000000000 lbm_eval_defined_expression
     /tmp/ccvik3Iq.s:651    .text.lbm_eval_defined_program:0000000000000000 $t
     /tmp/ccvik3Iq.s:659    .text.lbm_eval_defined_program:0000000000000000 lbm_eval_defined_program
     /tmp/ccvik3Iq.s:675    .text.lbm_send_message:0000000000000000 $t
     /tmp/ccvik3Iq.s:683    .text.lbm_send_message:0000000000000000 lbm_send_message
     /tmp/ccvik3Iq.s:748    .text.lbm_define:0000000000000000 $t
     /tmp/ccvik3Iq.s:756    .text.lbm_define:0000000000000000 lbm_define

UNDEFINED SYMBOLS
lbm_create_token_stream
lbm_cons
lbm_create_ctx
lbm_memory_free
lbm_get_symbol_by_name
lbm_add_symbol
lbm_get_env_ptr
lbm_env_lookup
lbm_get_eval_state
lbm_find_receiver_and_send
lbm_add_symbol_const
lbm_get_env
lbm_env_set
