ARM GAS  /tmp/cc1M0aUz.s 			page 1


   1              		.cpu cortex-m4
   2              		.eabi_attribute 27, 1
   3              		.eabi_attribute 28, 1
   4              		.eabi_attribute 20, 1
   5              		.eabi_attribute 21, 1
   6              		.eabi_attribute 23, 3
   7              		.eabi_attribute 24, 1
   8              		.eabi_attribute 25, 1
   9              		.eabi_attribute 26, 1
  10              		.eabi_attribute 30, 2
  11              		.eabi_attribute 34, 1
  12              		.eabi_attribute 18, 4
  13              		.file	"lbm_memory.c"
  14              		.text
  15              	.Ltext0:
  16              		.cfi_sections	.debug_frame
  17              		.section	.text.lbm_memory_init,"ax",%progbits
  18              		.align	1
  19              		.p2align 4,,15
  20              		.global	lbm_memory_init
  21              		.syntax unified
  22              		.thumb
  23              		.thumb_func
  24              		.fpu fpv4-sp-d16
  25              		.type	lbm_memory_init, %function
  26              	lbm_memory_init:
  27              	.LFB3:
  28              		.file 1 "lispBM/lispBM/src/lbm_memory.c"
  29              		.loc 1 44 0
  30              		.cfi_startproc
  31              		@ args = 0, pretend = 0, frame = 0
  32              		@ frame_needed = 0, uses_anonymous_args = 0
  33              		@ link register save eliminated.
  34              	.LVL0:
  35              		.loc 1 46 0
  36 0000 50B1     		cbz	r0, .L13
  37              		.loc 1 46 0 is_stmt 0 discriminator 2
  38 0002 32B3     		cbz	r2, .L5
  39              		.loc 1 44 0 is_stmt 1
  40 0004 70B4     		push	{r4, r5, r6}
  41              		.cfi_def_cfa_offset 12
  42              		.cfi_offset 4, -12
  43              		.cfi_offset 5, -8
  44              		.cfi_offset 6, -4
  45              		.loc 1 48 0
  46 0006 10F00304 		ands	r4, r0, #3
  47 000a 02D1     		bne	.L6
  48              		.loc 1 48 0 is_stmt 0 discriminator 1
  49 000c 1D01     		lsls	r5, r3, #4
  50 000e 8D42     		cmp	r5, r1
  51 0010 03D0     		beq	.L17
  52              	.L6:
  53              		.loc 1 46 0 is_stmt 1
  54 0012 0020     		movs	r0, #0
  55              	.LVL1:
  56              	.L1:
  57              		.loc 1 67 0
ARM GAS  /tmp/cc1M0aUz.s 			page 2


  58 0014 70BC     		pop	{r4, r5, r6}
  59              		.cfi_restore 6
  60              		.cfi_restore 5
  61              		.cfi_restore 4
  62              		.cfi_def_cfa_offset 0
  63 0016 7047     		bx	lr
  64              	.LVL2:
  65              	.L13:
  66 0018 7047     		bx	lr
  67              	.L17:
  68              		.cfi_def_cfa_offset 12
  69              		.cfi_offset 4, -12
  70              		.cfi_offset 5, -8
  71              		.cfi_offset 6, -4
  72              		.loc 1 48 0 discriminator 3
  73 001a 12F00306 		ands	r6, r2, #3
  74 001e F8D1     		bne	.L6
  75              		.loc 1 49 0
  76 0020 002B     		cmp	r3, #0
  77 0022 F6D0     		beq	.L6
  78              		.loc 1 49 0 is_stmt 0 discriminator 1
  79 0024 13F00301 		ands	r1, r3, #3
  80              	.LVL3:
  81 0028 15D1     		bne	.L10
  82              		.loc 1 56 0 is_stmt 1
  83 002a 0C4C     		ldr	r4, .L18
  84              		.loc 1 57 0
  85 002c 0C4E     		ldr	r6, .L18+4
  86              		.loc 1 56 0
  87 002e 2260     		str	r2, [r4]
  88 0030 02EB8304 		add	r4, r2, r3, lsl #2
  89              		.loc 1 57 0
  90 0034 3360     		str	r3, [r6]
  91              	.LVL4:
  92 0036 043A     		subs	r2, r2, #4
  93              	.LVL5:
  94 0038 231F     		subs	r3, r4, #4
  95              	.LVL6:
  96              	.L3:
  97              	.LBB29:
  98              		.loc 1 60 0 discriminator 3
  99 003a 42F8041F 		str	r1, [r2, #4]!
 100              		.loc 1 59 0 discriminator 3
 101 003e 9342     		cmp	r3, r2
 102 0040 FBD1     		bne	.L3
 103              	.LBE29:
 104              		.loc 1 63 0
 105 0042 0849     		ldr	r1, .L18+8
 106              		.loc 1 64 0
 107 0044 084A     		ldr	r2, .L18+12
 108              		.loc 1 65 0
 109 0046 094B     		ldr	r3, .L18+16
 110              		.loc 1 63 0
 111 0048 0860     		str	r0, [r1]
 112              		.loc 1 64 0
 113 004a 1060     		str	r0, [r2]
 114              		.loc 1 65 0
ARM GAS  /tmp/cc1M0aUz.s 			page 3


 115 004c 1D60     		str	r5, [r3]
 116              		.loc 1 66 0
 117 004e 0120     		movs	r0, #1
 118              	.LVL7:
 119 0050 E0E7     		b	.L1
 120              	.LVL8:
 121              	.L5:
 122              		.cfi_def_cfa_offset 0
 123              		.cfi_restore 4
 124              		.cfi_restore 5
 125              		.cfi_restore 6
 126              		.loc 1 46 0
 127 0052 1046     		mov	r0, r2
 128              	.LVL9:
 129 0054 7047     		bx	lr
 130              	.LVL10:
 131              	.L10:
 132              		.cfi_def_cfa_offset 12
 133              		.cfi_offset 4, -12
 134              		.cfi_offset 5, -8
 135              		.cfi_offset 6, -4
 136 0056 3046     		mov	r0, r6
 137              	.LVL11:
 138 0058 DCE7     		b	.L1
 139              	.L19:
 140 005a 00BF     		.align	2
 141              	.L18:
 142 005c 00000000 		.word	.LANCHOR0
 143 0060 00000000 		.word	.LANCHOR1
 144 0064 00000000 		.word	.LANCHOR2
 145 0068 00000000 		.word	.LANCHOR3
 146 006c 00000000 		.word	.LANCHOR4
 147              		.cfi_endproc
 148              	.LFE3:
 149              		.size	lbm_memory_init, .-lbm_memory_init
 150              		.section	.text.lbm_memory_num_words,"ax",%progbits
 151              		.align	1
 152              		.p2align 4,,15
 153              		.global	lbm_memory_num_words
 154              		.syntax unified
 155              		.thumb
 156              		.thumb_func
 157              		.fpu fpv4-sp-d16
 158              		.type	lbm_memory_num_words, %function
 159              	lbm_memory_num_words:
 160              	.LFB8:
 161              		.loc 1 98 0
 162              		.cfi_startproc
 163              		@ args = 0, pretend = 0, frame = 0
 164              		@ frame_needed = 0, uses_anonymous_args = 0
 165              		@ link register save eliminated.
 166              		.loc 1 99 0
 167 0000 014B     		ldr	r3, .L21
 168              		.loc 1 100 0
 169 0002 1868     		ldr	r0, [r3]
 170 0004 7047     		bx	lr
 171              	.L22:
ARM GAS  /tmp/cc1M0aUz.s 			page 4


 172 0006 00BF     		.align	2
 173              	.L21:
 174 0008 00000000 		.word	.LANCHOR4
 175              		.cfi_endproc
 176              	.LFE8:
 177              		.size	lbm_memory_num_words, .-lbm_memory_num_words
 178              		.section	.text.lbm_memory_num_free,"ax",%progbits
 179              		.align	1
 180              		.p2align 4,,15
 181              		.global	lbm_memory_num_free
 182              		.syntax unified
 183              		.thumb
 184              		.thumb_func
 185              		.fpu fpv4-sp-d16
 186              		.type	lbm_memory_num_free, %function
 187              	lbm_memory_num_free:
 188              	.LFB9:
 189              		.loc 1 102 0
 190              		.cfi_startproc
 191              		@ args = 0, pretend = 0, frame = 0
 192              		@ frame_needed = 0, uses_anonymous_args = 0
 193              		.loc 1 103 0
 194 0000 B14B     		ldr	r3, .L91
 195 0002 1868     		ldr	r0, [r3]
 196 0004 78B3     		cbz	r0, .L88
 197              		.loc 1 103 0 is_stmt 0 discriminator 1
 198 0006 B14B     		ldr	r3, .L91+4
 199              		.loc 1 102 0 is_stmt 1 discriminator 1
 200 0008 2DE9F041 		push	{r4, r5, r6, r7, r8, lr}
 201              		.cfi_def_cfa_offset 24
 202              		.cfi_offset 4, -24
 203              		.cfi_offset 5, -20
 204              		.cfi_offset 6, -16
 205              		.cfi_offset 7, -12
 206              		.cfi_offset 8, -8
 207              		.cfi_offset 14, -4
 208              		.loc 1 103 0 discriminator 1
 209 000c 1D68     		ldr	r5, [r3]
 210 000e 3DB3     		cbz	r5, .L28
 211              	.LVL12:
 212              	.LBB30:
 213              		.loc 1 110 0
 214 0010 AF4B     		ldr	r3, .L91+8
 215 0012 1968     		ldr	r1, [r3]
 216 0014 0901     		lsls	r1, r1, #4
 217 0016 00F01381 		beq	.L66
 218              	.LBB31:
 219              	.LBB32:
 220              		.loc 1 84 0
 221 001a 2B68     		ldr	r3, [r5]
 222 001c 03F00303 		and	r3, r3, #3
 223              	.LBE32:
 224              	.LBE31:
 225              		.loc 1 112 0
 226 0020 022B     		cmp	r3, #2
 227 0022 41D0     		beq	.L67
 228 0024 032B     		cmp	r3, #3
ARM GAS  /tmp/cc1M0aUz.s 			page 5


 229 0026 1FD0     		beq	.L69
 230 0028 012B     		cmp	r3, #1
 231 002a 1DD0     		beq	.L69
 232              	.LBE30:
 233              		.loc 1 108 0
 234 002c 0020     		movs	r0, #0
 235              	.LBB95:
 236              		.loc 1 110 0
 237 002e 0446     		mov	r4, r0
 238              	.LVL13:
 239              	.L25:
 240              	.LBB64:
 241              	.LBB33:
 242              		.loc 1 83 0
 243 0030 4FF0030C 		mov	ip, #3
 244              	.L36:
 245 0034 661C     		adds	r6, r4, #1
 246 0036 7700     		lsls	r7, r6, #1
 247              	.L43:
 248              	.LVL14:
 249              		.loc 1 81 0
 250 0038 07F01F04 		and	r4, r7, #31
 251              	.LVL15:
 252              	.LBE33:
 253              	.LBE64:
 254              		.loc 1 110 0
 255 003c 8E42     		cmp	r6, r1
 256              	.LBB65:
 257              	.LBB34:
 258              		.loc 1 80 0
 259 003e 4FEA5713 		lsr	r3, r7, #5
 260              	.LBE34:
 261              	.LBE65:
 262              		.loc 1 117 0
 263 0042 00F10100 		add	r0, r0, #1
 264              	.LVL16:
 265              	.LBB66:
 266              	.LBB35:
 267              		.loc 1 83 0
 268 0046 0CFA04F2 		lsl	r2, ip, r4
 269              	.LBE35:
 270              	.LBE66:
 271              		.loc 1 110 0
 272 004a 0AD2     		bcs	.L23
 273              	.LBB67:
 274              	.LBB36:
 275              		.loc 1 84 0
 276 004c 55F82330 		ldr	r3, [r5, r3, lsl #2]
 277 0050 1340     		ands	r3, r3, r2
 278 0052 E340     		lsrs	r3, r3, r4
 279              	.LBE36:
 280              	.LBE67:
 281              		.loc 1 112 0
 282 0054 032B     		cmp	r3, #3
 283 0056 03D8     		bhi	.L28
 284 0058 DFE803F0 		tbb	[pc, r3]
 285              	.L38:
ARM GAS  /tmp/cc1M0aUz.s 			page 6


 286 005c 8E       		.byte	(.L37-.L38)/2
 287 005d D3       		.byte	(.L39-.L38)/2
 288 005e D1       		.byte	(.L71-.L38)/2
 289 005f D3       		.byte	(.L39-.L38)/2
 290              	.LVL17:
 291              		.p2align 1
 292              	.L28:
 293              		.loc 1 137 0
 294 0060 0020     		movs	r0, #0
 295              	.L23:
 296              	.LBE95:
 297              		.loc 1 142 0
 298 0062 BDE8F081 		pop	{r4, r5, r6, r7, r8, pc}
 299              	.L88:
 300              		.cfi_def_cfa_offset 0
 301              		.cfi_restore 4
 302              		.cfi_restore 5
 303              		.cfi_restore 6
 304              		.cfi_restore 7
 305              		.cfi_restore 8
 306              		.cfi_restore 14
 307 0066 7047     		bx	lr
 308              	.LVL18:
 309              	.L69:
 310              		.cfi_def_cfa_offset 24
 311              		.cfi_offset 4, -24
 312              		.cfi_offset 5, -20
 313              		.cfi_offset 6, -16
 314              		.cfi_offset 7, -12
 315              		.cfi_offset 8, -8
 316              		.cfi_offset 14, -4
 317              		.loc 1 108 0
 318 0068 0020     		movs	r0, #0
 319              	.LBB96:
 320              		.loc 1 110 0
 321 006a 0446     		mov	r4, r0
 322              	.LVL19:
 323              	.L27:
 324 006c 0134     		adds	r4, r4, #1
 325 006e 6600     		lsls	r6, r4, #1
 326              	.LBB68:
 327              	.LBB37:
 328              		.loc 1 83 0
 329 0070 4FF0030C 		mov	ip, #3
 330              	.L60:
 331              	.LVL20:
 332              		.loc 1 81 0
 333 0074 06F01F07 		and	r7, r6, #31
 334              	.LVL21:
 335              	.LBE37:
 336              	.LBE68:
 337              		.loc 1 110 0
 338 0078 A142     		cmp	r1, r4
 339              	.LBB69:
 340              	.LBB38:
 341              		.loc 1 80 0
 342 007a 4FEA5613 		lsr	r3, r6, #5
ARM GAS  /tmp/cc1M0aUz.s 			page 7


 343              		.loc 1 83 0
 344 007e 0CFA07F2 		lsl	r2, ip, r7
 345              	.LBE38:
 346              	.LBE69:
 347              		.loc 1 110 0
 348 0082 EED9     		bls	.L23
 349              	.LBB70:
 350              	.LBB39:
 351              		.loc 1 84 0
 352 0084 55F82330 		ldr	r3, [r5, r3, lsl #2]
 353 0088 1340     		ands	r3, r3, r2
 354 008a FB40     		lsrs	r3, r3, r7
 355              	.LBE39:
 356              	.LBE70:
 357              		.loc 1 112 0
 358 008c 032B     		cmp	r3, #3
 359 008e E7D8     		bhi	.L28
 360 0090 01A2     		adr	r2, .L29
 361 0092 52F823F0 		ldr	pc, [r2, r3, lsl #2]
 362 0096 00BF     		.p2align 2
 363              	.L29:
 364 0098 31000000 		.word	.L25+1
 365 009c 4D010000 		.word	.L30+1
 366 00a0 AD000000 		.word	.L26+1
 367 00a4 4D010000 		.word	.L30+1
 368              	.LVL22:
 369              		.p2align 1
 370              	.L67:
 371              		.loc 1 110 0
 372 00a8 0024     		movs	r4, #0
 373              	.LBE96:
 374              		.loc 1 108 0
 375 00aa 2046     		mov	r0, r4
 376              	.LVL23:
 377              	.L26:
 378              	.LBB97:
 379              	.LBB71:
 380              	.LBB40:
 381              		.loc 1 83 0
 382 00ac 4FF0030E 		mov	lr, #3
 383              	.L50:
 384 00b0 671C     		adds	r7, r4, #1
 385 00b2 7E00     		lsls	r6, r7, #1
 386              	.L56:
 387              	.LVL24:
 388              		.loc 1 81 0
 389 00b4 06F01F0C 		and	ip, r6, #31
 390              	.LVL25:
 391              	.LBE40:
 392              	.LBE71:
 393              		.loc 1 110 0
 394 00b8 8F42     		cmp	r7, r1
 395              	.LBB72:
 396              	.LBB41:
 397              		.loc 1 80 0
 398 00ba 4FEA5613 		lsr	r3, r6, #5
 399              		.loc 1 83 0
ARM GAS  /tmp/cc1M0aUz.s 			page 8


 400 00be 0EFA0CF2 		lsl	r2, lr, ip
 401              	.LBE41:
 402              	.LBE72:
 403              		.loc 1 110 0
 404 00c2 CED2     		bcs	.L23
 405              	.LBB73:
 406              	.LBB42:
 407              		.loc 1 84 0
 408 00c4 55F82330 		ldr	r3, [r5, r3, lsl #2]
 409 00c8 1340     		ands	r3, r3, r2
 410 00ca 23FA0CF3 		lsr	r3, r3, ip
 411              	.LBE42:
 412              	.LBE73:
 413              		.loc 1 112 0
 414 00ce 032B     		cmp	r3, #3
 415 00d0 C6D8     		bhi	.L28
 416 00d2 DFE803F0 		tbb	[pc, r3]
 417              	.L52:
 418 00d6 21       		.byte	(.L51-.L52)/2
 419 00d7 06       		.byte	(.L53-.L52)/2
 420 00d8 02       		.byte	(.L54-.L52)/2
 421 00d9 06       		.byte	(.L53-.L52)/2
 422              		.p2align 1
 423              	.L54:
 424 00da 3C46     		mov	r4, r7
 425 00dc 0236     		adds	r6, r6, #2
 426 00de 0137     		adds	r7, r7, #1
 427              	.LVL26:
 428 00e0 E8E7     		b	.L56
 429              	.LVL27:
 430              	.L53:
 431              		.loc 1 110 0
 432 00e2 0234     		adds	r4, r4, #2
 433              	.LVL28:
 434 00e4 A142     		cmp	r1, r4
 435 00e6 BCD9     		bls	.L23
 436              	.LVL29:
 437              	.LBB74:
 438              	.LBB43:
 439              		.loc 1 79 0
 440 00e8 6300     		lsls	r3, r4, #1
 441              	.LVL30:
 442              		.loc 1 80 0
 443 00ea 5E09     		lsrs	r6, r3, #5
 444              	.LVL31:
 445              		.loc 1 81 0
 446 00ec 03F01F02 		and	r2, r3, #31
 447              	.LVL32:
 448              		.loc 1 84 0
 449 00f0 55F82660 		ldr	r6, [r5, r6, lsl #2]
 450              		.loc 1 83 0
 451 00f4 0EFA02F3 		lsl	r3, lr, r2
 452              		.loc 1 84 0
 453 00f8 3340     		ands	r3, r3, r6
 454 00fa D340     		lsrs	r3, r3, r2
 455              	.LBE43:
 456              	.LBE74:
ARM GAS  /tmp/cc1M0aUz.s 			page 9


 457              		.loc 1 112 0
 458 00fc 032B     		cmp	r3, #3
 459 00fe AFD8     		bhi	.L28
 460 0100 01A2     		adr	r2, .L61
 461 0102 52F823F0 		ldr	pc, [r2, r3, lsl #2]
 462 0106 00BF     		.p2align 2
 463              	.L61:
 464 0108 31000000 		.word	.L25+1
 465 010c 6D000000 		.word	.L27+1
 466 0110 B1000000 		.word	.L50+1
 467 0114 6D000000 		.word	.L27+1
 468              	.LVL33:
 469              		.p2align 1
 470              	.L51:
 471              		.loc 1 110 0
 472 0118 0234     		adds	r4, r4, #2
 473              	.LVL34:
 474 011a A142     		cmp	r1, r4
 475 011c A1D9     		bls	.L23
 476              	.LVL35:
 477              	.LBB75:
 478              	.LBB44:
 479              		.loc 1 79 0
 480 011e 6300     		lsls	r3, r4, #1
 481              	.LVL36:
 482              		.loc 1 80 0
 483 0120 5E09     		lsrs	r6, r3, #5
 484              	.LVL37:
 485              		.loc 1 81 0
 486 0122 03F01F02 		and	r2, r3, #31
 487              	.LVL38:
 488              		.loc 1 84 0
 489 0126 55F82660 		ldr	r6, [r5, r6, lsl #2]
 490              		.loc 1 83 0
 491 012a 0EFA02F3 		lsl	r3, lr, r2
 492              		.loc 1 84 0
 493 012e 3340     		ands	r3, r3, r6
 494 0130 D340     		lsrs	r3, r3, r2
 495              	.LBE44:
 496              	.LBE75:
 497              		.loc 1 112 0
 498 0132 032B     		cmp	r3, #3
 499 0134 94D8     		bhi	.L28
 500 0136 01A2     		adr	r2, .L57
 501 0138 52F823F0 		ldr	pc, [r2, r3, lsl #2]
 502              		.p2align 2
 503              	.L57:
 504 013c 45020000 		.word	.L32+1
 505 0140 6D000000 		.word	.L27+1
 506 0144 B1000000 		.word	.L50+1
 507 0148 6D000000 		.word	.L27+1
 508              	.LVL39:
 509              		.p2align 1
 510              	.L30:
 511              	.LBB76:
 512              	.LBB45:
 513              		.loc 1 79 0
ARM GAS  /tmp/cc1M0aUz.s 			page 10


 514 014c B31C     		adds	r3, r6, #2
 515              	.LVL40:
 516              	.LBE45:
 517              	.LBE76:
 518              		.loc 1 110 0
 519 014e 671C     		adds	r7, r4, #1
 520              	.LVL41:
 521              	.LBB77:
 522              	.LBB46:
 523              		.loc 1 81 0
 524 0150 03F01F02 		and	r2, r3, #31
 525              	.LVL42:
 526              	.LBE46:
 527              	.LBE77:
 528              		.loc 1 110 0
 529 0154 B942     		cmp	r1, r7
 530              	.LBB78:
 531              	.LBB47:
 532              		.loc 1 80 0
 533 0156 4FEA531E 		lsr	lr, r3, #5
 534              		.loc 1 83 0
 535 015a 0CFA02F3 		lsl	r3, ip, r2
 536              	.LBE47:
 537              	.LBE78:
 538              		.loc 1 110 0
 539 015e 80D9     		bls	.L23
 540              	.LBB79:
 541              	.LBB48:
 542              		.loc 1 84 0
 543 0160 55F82EE0 		ldr	lr, [r5, lr, lsl #2]
 544 0164 03EA0E03 		and	r3, r3, lr
 545 0168 D340     		lsrs	r3, r3, r2
 546              	.LBE48:
 547              	.LBE79:
 548              		.loc 1 112 0
 549 016a 032B     		cmp	r3, #3
 550 016c 3FF678AF 		bhi	.L28
 551 0170 DFE803F0 		tbb	[pc, r3]
 552              	.L58:
 553 0174 80       		.byte	(.L72-.L58)/2
 554 0175 82       		.byte	(.L59-.L58)/2
 555 0176 7E       		.byte	(.L73-.L58)/2
 556 0177 82       		.byte	(.L59-.L58)/2
 557              	.LVL43:
 558              		.p2align 1
 559              	.L37:
 560 0178 771C     		adds	r7, r6, #1
 561 017a 4FEA470E 		lsl	lr, r7, #1
 562              	.L40:
 563              	.LVL44:
 564              	.LBB80:
 565              	.LBB49:
 566              		.loc 1 81 0
 567 017e 0EF01F08 		and	r8, lr, #31
 568              	.LVL45:
 569              	.LBE49:
 570              	.LBE80:
ARM GAS  /tmp/cc1M0aUz.s 			page 11


 571              		.loc 1 110 0
 572 0182 8F42     		cmp	r7, r1
 573              	.LBB81:
 574              	.LBB50:
 575              		.loc 1 80 0
 576 0184 4FEA5E13 		lsr	r3, lr, #5
 577              	.LBE50:
 578              	.LBE81:
 579              		.loc 1 120 0
 580 0188 00F10100 		add	r0, r0, #1
 581              	.LVL46:
 582              		.loc 1 110 0
 583 018c 3C46     		mov	r4, r7
 584              	.LVL47:
 585              	.LBB82:
 586              	.LBB51:
 587              		.loc 1 83 0
 588 018e 0CFA08F2 		lsl	r2, ip, r8
 589              	.LBE51:
 590              	.LBE82:
 591              		.loc 1 110 0
 592 0192 BFF466AF 		bcs	.L23
 593              	.LBB83:
 594              	.LBB52:
 595              		.loc 1 84 0
 596 0196 55F82330 		ldr	r3, [r5, r3, lsl #2]
 597 019a 1340     		ands	r3, r3, r2
 598 019c 23FA08F3 		lsr	r3, r3, r8
 599              	.LBE52:
 600              	.LBE83:
 601              		.loc 1 112 0
 602 01a0 032B     		cmp	r3, #3
 603 01a2 3FF65DAF 		bhi	.L28
 604 01a6 01A2     		adr	r2, .L45
 605 01a8 52F823F0 		ldr	pc, [r2, r3, lsl #2]
 606              		.p2align 2
 607              	.L45:
 608 01ac F5010000 		.word	.L44+1
 609 01b0 BD010000 		.word	.L46+1
 610 01b4 AD000000 		.word	.L26+1
 611 01b8 BD010000 		.word	.L46+1
 612              		.p2align 1
 613              	.L46:
 614              	.LVL48:
 615              		.loc 1 110 0
 616 01bc B41C     		adds	r4, r6, #2
 617              	.LVL49:
 618 01be A142     		cmp	r1, r4
 619 01c0 7FF64FAF 		bls	.L23
 620              	.LVL50:
 621              	.LBB84:
 622              	.LBB53:
 623              		.loc 1 79 0
 624 01c4 6300     		lsls	r3, r4, #1
 625              	.LVL51:
 626              		.loc 1 80 0
 627 01c6 5E09     		lsrs	r6, r3, #5
ARM GAS  /tmp/cc1M0aUz.s 			page 12


 628              	.LVL52:
 629              		.loc 1 81 0
 630 01c8 03F01F02 		and	r2, r3, #31
 631              	.LVL53:
 632              		.loc 1 84 0
 633 01cc 55F82660 		ldr	r6, [r5, r6, lsl #2]
 634              		.loc 1 83 0
 635 01d0 0CFA02F3 		lsl	r3, ip, r2
 636              		.loc 1 84 0
 637 01d4 3340     		ands	r3, r3, r6
 638 01d6 D340     		lsrs	r3, r3, r2
 639              	.LBE53:
 640              	.LBE84:
 641              		.loc 1 112 0
 642 01d8 032B     		cmp	r3, #3
 643 01da 3FF641AF 		bhi	.L28
 644 01de 01A2     		adr	r2, .L63
 645 01e0 52F823F0 		ldr	pc, [r2, r3, lsl #2]
 646              		.p2align 2
 647              	.L63:
 648 01e4 35000000 		.word	.L36+1
 649 01e8 6D000000 		.word	.L27+1
 650 01ec AD000000 		.word	.L26+1
 651 01f0 6D000000 		.word	.L27+1
 652              	.LVL54:
 653              		.p2align 1
 654              	.L44:
 655 01f4 3E46     		mov	r6, r7
 656 01f6 0EF1020E 		add	lr, lr, #2
 657 01fa 0137     		adds	r7, r7, #1
 658 01fc BFE7     		b	.L40
 659              	.LVL55:
 660              	.L71:
 661 01fe 3446     		mov	r4, r6
 662 0200 54E7     		b	.L26
 663              	.L39:
 664              	.LVL56:
 665              	.LBB85:
 666              	.LBB54:
 667              		.loc 1 79 0
 668 0202 BB1C     		adds	r3, r7, #2
 669              	.LVL57:
 670              	.LBE54:
 671              	.LBE85:
 672              		.loc 1 110 0
 673 0204 741C     		adds	r4, r6, #1
 674              	.LVL58:
 675              	.LBB86:
 676              	.LBB55:
 677              		.loc 1 81 0
 678 0206 03F01F02 		and	r2, r3, #31
 679              	.LVL59:
 680              	.LBE55:
 681              	.LBE86:
 682              		.loc 1 110 0
 683 020a 8C42     		cmp	r4, r1
 684              	.LBB87:
ARM GAS  /tmp/cc1M0aUz.s 			page 13


 685              	.LBB56:
 686              		.loc 1 80 0
 687 020c 4FEA531E 		lsr	lr, r3, #5
 688              		.loc 1 83 0
 689 0210 0CFA02F3 		lsl	r3, ip, r2
 690              	.LBE56:
 691              	.LBE87:
 692              		.loc 1 110 0
 693 0214 BFF425AF 		bcs	.L23
 694              	.LBB88:
 695              	.LBB57:
 696              		.loc 1 84 0
 697 0218 55F82EE0 		ldr	lr, [r5, lr, lsl #2]
 698 021c 03EA0E03 		and	r3, r3, lr
 699 0220 D340     		lsrs	r3, r3, r2
 700              	.LBE57:
 701              	.LBE88:
 702              		.loc 1 112 0
 703 0222 032B     		cmp	r3, #3
 704 0224 3FF61CAF 		bhi	.L28
 705 0228 01A2     		adr	r2, .L42
 706 022a 52F823F0 		ldr	pc, [r2, r3, lsl #2]
 707 022e 00BF     		.p2align 2
 708              	.L42:
 709 0230 7F020000 		.word	.L41+1
 710 0234 6D000000 		.word	.L27+1
 711 0238 AD000000 		.word	.L26+1
 712 023c 6D000000 		.word	.L27+1
 713              	.LVL60:
 714              		.p2align 1
 715              	.L66:
 716              	.LBE97:
 717              		.loc 1 104 0
 718 0240 0846     		mov	r0, r1
 719 0242 0EE7     		b	.L23
 720              	.LVL61:
 721              	.L32:
 722              	.LBB98:
 723              		.loc 1 110 0
 724 0244 661C     		adds	r6, r4, #1
 725              	.LVL62:
 726              	.LBB89:
 727              	.LBB58:
 728              		.loc 1 79 0
 729 0246 7300     		lsls	r3, r6, #1
 730              	.LVL63:
 731              		.loc 1 81 0
 732 0248 03F01F02 		and	r2, r3, #31
 733              	.LVL64:
 734              	.LBE58:
 735              	.LBE89:
 736              		.loc 1 110 0
 737 024c 8E42     		cmp	r6, r1
 738              	.LBB90:
 739              	.LBB59:
 740              		.loc 1 80 0
 741 024e 4FEA5317 		lsr	r7, r3, #5
ARM GAS  /tmp/cc1M0aUz.s 			page 14


 742              		.loc 1 83 0
 743 0252 0EFA02F3 		lsl	r3, lr, r2
 744              	.LBE59:
 745              	.LBE90:
 746              		.loc 1 110 0
 747 0256 BFF404AF 		bcs	.L23
 748              	.LBB91:
 749              	.LBB60:
 750              		.loc 1 84 0
 751 025a 55F82770 		ldr	r7, [r5, r7, lsl #2]
 752 025e 3B40     		ands	r3, r3, r7
 753 0260 D340     		lsrs	r3, r3, r2
 754              	.LBE60:
 755              	.LBE91:
 756              		.loc 1 112 0
 757 0262 032B     		cmp	r3, #3
 758 0264 3FF6FCAE 		bhi	.L28
 759 0268 DFE803F0 		tbb	[pc, r3]
 760              	.L34:
 761 026c 11       		.byte	(.L33-.L34)/2
 762 026d 0F       		.byte	(.L70-.L34)/2
 763 026e 0D       		.byte	(.L35-.L34)/2
 764 026f 0F       		.byte	(.L70-.L34)/2
 765              	.LVL65:
 766              		.p2align 1
 767              	.L73:
 768              		.loc 1 110 0
 769 0270 3C46     		mov	r4, r7
 770 0272 1BE7     		b	.L26
 771              	.L72:
 772 0274 3C46     		mov	r4, r7
 773 0276 DBE6     		b	.L25
 774              	.L59:
 775 0278 0234     		adds	r4, r4, #2
 776 027a 0436     		adds	r6, r6, #4
 777 027c FAE6     		b	.L60
 778              	.LVL66:
 779              	.L41:
 780 027e 0236     		adds	r6, r6, #2
 781 0280 0437     		adds	r7, r7, #4
 782 0282 D9E6     		b	.L43
 783              	.LVL67:
 784              	.L74:
 785              		.loc 1 112 0
 786 0284 2646     		mov	r6, r4
 787              	.LVL68:
 788              	.L35:
 789              		.loc 1 130 0
 790 0286 3446     		mov	r4, r6
 791 0288 12E7     		b	.L50
 792              	.L70:
 793              		.loc 1 112 0
 794 028a 3446     		mov	r4, r6
 795 028c EEE6     		b	.L27
 796              	.L33:
 797              		.loc 1 110 0
 798 028e 0234     		adds	r4, r4, #2
ARM GAS  /tmp/cc1M0aUz.s 			page 15


 799              	.LVL69:
 800              	.LBB92:
 801              	.LBB61:
 802              		.loc 1 79 0
 803 0290 6300     		lsls	r3, r4, #1
 804              	.LVL70:
 805              		.loc 1 81 0
 806 0292 03F01F02 		and	r2, r3, #31
 807              	.LVL71:
 808              	.LBE61:
 809              	.LBE92:
 810              		.loc 1 110 0
 811 0296 A142     		cmp	r1, r4
 812              	.LBB93:
 813              	.LBB62:
 814              		.loc 1 80 0
 815 0298 4FEA5316 		lsr	r6, r3, #5
 816              		.loc 1 83 0
 817 029c 0EFA02F3 		lsl	r3, lr, r2
 818              	.LBE62:
 819              	.LBE93:
 820              		.loc 1 110 0
 821 02a0 7FF6DFAE 		bls	.L23
 822              	.LBB94:
 823              	.LBB63:
 824              		.loc 1 84 0
 825 02a4 55F82660 		ldr	r6, [r5, r6, lsl #2]
 826 02a8 3340     		ands	r3, r3, r6
 827 02aa D340     		lsrs	r3, r3, r2
 828              	.LBE63:
 829              	.LBE94:
 830              		.loc 1 112 0
 831 02ac 032B     		cmp	r3, #3
 832 02ae 3FF6D7AE 		bhi	.L28
 833 02b2 01A2     		adr	r2, .L62
 834 02b4 52F823F0 		ldr	pc, [r2, r3, lsl #2]
 835              		.p2align 2
 836              	.L62:
 837 02b8 45020000 		.word	.L32+1
 838 02bc 6D000000 		.word	.L27+1
 839 02c0 85020000 		.word	.L74+1
 840 02c4 6D000000 		.word	.L27+1
 841              		.p2align 1
 842              	.L92:
 843              		.align	2
 844              	.L91:
 845 02c8 00000000 		.word	.LANCHOR2
 846 02cc 00000000 		.word	.LANCHOR0
 847 02d0 00000000 		.word	.LANCHOR1
 848              	.LBE98:
 849              		.cfi_endproc
 850              	.LFE9:
 851              		.size	lbm_memory_num_free, .-lbm_memory_num_free
 852              		.section	.text.lbm_memory_allocate,"ax",%progbits
 853              		.align	1
 854              		.p2align 4,,15
 855              		.global	lbm_memory_allocate
ARM GAS  /tmp/cc1M0aUz.s 			page 16


 856              		.syntax unified
 857              		.thumb
 858              		.thumb_func
 859              		.fpu fpv4-sp-d16
 860              		.type	lbm_memory_allocate, %function
 861              	lbm_memory_allocate:
 862              	.LFB10:
 863              		.loc 1 144 0
 864              		.cfi_startproc
 865              		@ args = 0, pretend = 0, frame = 0
 866              		@ frame_needed = 0, uses_anonymous_args = 0
 867              	.LVL72:
 868              		.loc 1 146 0
 869 0000 C74B     		ldr	r3, .L164
 870 0002 1B68     		ldr	r3, [r3]
 871 0004 002B     		cmp	r3, #0
 872 0006 00F08981 		beq	.L163
 873              		.loc 1 146 0 is_stmt 0 discriminator 1
 874 000a C64B     		ldr	r3, .L164+4
 875              		.loc 1 144 0 is_stmt 1 discriminator 1
 876 000c 2DE9F041 		push	{r4, r5, r6, r7, r8, lr}
 877              		.cfi_def_cfa_offset 24
 878              		.cfi_offset 4, -24
 879              		.cfi_offset 5, -20
 880              		.cfi_offset 6, -16
 881              		.cfi_offset 7, -12
 882              		.cfi_offset 8, -8
 883              		.cfi_offset 14, -4
 884              		.loc 1 146 0 discriminator 1
 885 0010 1D68     		ldr	r5, [r3]
 886 0012 55B3     		cbz	r5, .L100
 887              	.LVL73:
 888              	.LBB99:
 889              		.loc 1 155 0
 890 0014 C44B     		ldr	r3, .L164+8
 891 0016 1C68     		ldr	r4, [r3]
 892 0018 2401     		lsls	r4, r4, #4
 893 001a 26D0     		beq	.L100
 894              	.LBB100:
 895              	.LBB101:
 896              		.loc 1 84 0
 897 001c 2B68     		ldr	r3, [r5]
 898 001e 03F00303 		and	r3, r3, #3
 899              	.LBE101:
 900              	.LBE100:
 901              		.loc 1 158 0
 902 0022 022B     		cmp	r3, #2
 903 0024 5BD0     		beq	.L134
 904 0026 032B     		cmp	r3, #3
 905 0028 22D0     		beq	.L136
 906 002a 012B     		cmp	r3, #1
 907 002c 20D0     		beq	.L136
 908              		.loc 1 155 0
 909 002e 0023     		movs	r3, #0
 910              	.LVL74:
 911              	.L97:
 912 0030 5A1C     		adds	r2, r3, #1
ARM GAS  /tmp/cc1M0aUz.s 			page 17


 913 0032 5200     		lsls	r2, r2, #1
 914              	.LBB133:
 915              	.LBB102:
 916              		.loc 1 83 0
 917 0034 0327     		movs	r7, #3
 918              	.L113:
 919              	.LVL75:
 920              		.loc 1 81 0
 921 0036 02F01F06 		and	r6, r2, #31
 922              	.LBE102:
 923              	.LBE133:
 924              		.loc 1 163 0
 925 003a 0128     		cmp	r0, #1
 926              	.LBB134:
 927              	.LBB103:
 928              		.loc 1 80 0
 929 003c 4FEA521E 		lsr	lr, r2, #5
 930              	.LVL76:
 931              	.LBE103:
 932              	.LBE134:
 933              		.loc 1 155 0
 934 0040 03F1010C 		add	ip, r3, #1
 935              	.LVL77:
 936              	.LBB135:
 937              	.LBB104:
 938              		.loc 1 83 0
 939 0044 07FA06F1 		lsl	r1, r7, r6
 940              	.LBE104:
 941              	.LBE135:
 942              		.loc 1 163 0
 943 0048 00F0A480 		beq	.L107
 944              		.loc 1 155 0
 945 004c A445     		cmp	ip, r4
 946 004e 0CD2     		bcs	.L100
 947              	.LBB136:
 948              	.LBB105:
 949              		.loc 1 84 0
 950 0050 55F82EE0 		ldr	lr, [r5, lr, lsl #2]
 951 0054 01EA0E01 		and	r1, r1, lr
 952 0058 F140     		lsrs	r1, r1, r6
 953              	.LBE105:
 954              	.LBE136:
 955              		.loc 1 158 0
 956 005a 0329     		cmp	r1, #3
 957 005c 05D8     		bhi	.L100
 958 005e DFE811F0 		tbh	[pc, r1, lsl #1]
 959              	.L109:
 960 0062 AC00     		.2byte	(.L108-.L109)/2
 961 0064 1401     		.2byte	(.L110-.L109)/2
 962 0066 D300     		.2byte	(.L139-.L109)/2
 963 0068 1401     		.2byte	(.L110-.L109)/2
 964              	.LVL78:
 965              		.p2align 1
 966              	.L100:
 967              		.loc 1 194 0
 968 006a 0020     		movs	r0, #0
 969              	.LVL79:
ARM GAS  /tmp/cc1M0aUz.s 			page 18


 970              	.LBE99:
 971              		.loc 1 209 0
 972 006c BDE8F081 		pop	{r4, r5, r6, r7, r8, pc}
 973              	.LVL80:
 974              	.L136:
 975              	.LBB164:
 976              		.loc 1 155 0
 977 0070 0023     		movs	r3, #0
 978              	.LVL81:
 979              	.L99:
 980 0072 0133     		adds	r3, r3, #1
 981 0074 5E00     		lsls	r6, r3, #1
 982              	.LBB137:
 983              	.LBB106:
 984              		.loc 1 83 0
 985 0076 4FF0030C 		mov	ip, #3
 986              	.L128:
 987              	.LVL82:
 988              		.loc 1 81 0
 989 007a 06F01F07 		and	r7, r6, #31
 990              	.LVL83:
 991              	.LBE106:
 992              	.LBE137:
 993              		.loc 1 155 0
 994 007e A342     		cmp	r3, r4
 995              	.LBB138:
 996              	.LBB107:
 997              		.loc 1 80 0
 998 0080 4FEA5612 		lsr	r2, r6, #5
 999              		.loc 1 83 0
 1000 0084 0CFA07F1 		lsl	r1, ip, r7
 1001              	.LBE107:
 1002              	.LBE138:
 1003              		.loc 1 155 0
 1004 0088 EFD2     		bcs	.L100
 1005              	.LBB139:
 1006              	.LBB108:
 1007              		.loc 1 84 0
 1008 008a 55F82220 		ldr	r2, [r5, r2, lsl #2]
 1009 008e 0A40     		ands	r2, r2, r1
 1010 0090 FA40     		lsrs	r2, r2, r7
 1011              	.LBE108:
 1012              	.LBE139:
 1013              		.loc 1 158 0
 1014 0092 032A     		cmp	r2, #3
 1015 0094 E9D8     		bhi	.L100
 1016 0096 01A1     		adr	r1, .L101
 1017 0098 51F822F0 		ldr	pc, [r1, r2, lsl #2]
 1018              		.p2align 2
 1019              	.L101:
 1020 009c 31000000 		.word	.L97+1
 1021 00a0 59010000 		.word	.L102+1
 1022 00a4 AF000000 		.word	.L98+1
 1023 00a8 59010000 		.word	.L102+1
 1024              	.LVL84:
 1025              		.p2align 1
 1026              	.L141:
ARM GAS  /tmp/cc1M0aUz.s 			page 19


 1027 00ac 3B46     		mov	r3, r7
 1028              	.LVL85:
 1029              	.L98:
 1030              	.LBB140:
 1031              	.LBB109:
 1032              		.loc 1 83 0
 1033 00ae 4FF00308 		mov	r8, #3
 1034              	.L120:
 1035 00b2 5E1C     		adds	r6, r3, #1
 1036 00b4 7700     		lsls	r7, r6, #1
 1037              	.L124:
 1038              	.LVL86:
 1039              		.loc 1 81 0
 1040 00b6 07F01F0E 		and	lr, r7, #31
 1041              	.LVL87:
 1042              	.LBE109:
 1043              	.LBE140:
 1044              		.loc 1 155 0
 1045 00ba A642     		cmp	r6, r4
 1046              	.LBB141:
 1047              	.LBB110:
 1048              		.loc 1 80 0
 1049 00bc 4FEA5712 		lsr	r2, r7, #5
 1050              	.LBE110:
 1051              	.LBE141:
 1052              		.loc 1 155 0
 1053 00c0 B446     		mov	ip, r6
 1054              	.LBB142:
 1055              	.LBB111:
 1056              		.loc 1 83 0
 1057 00c2 08FA0EF1 		lsl	r1, r8, lr
 1058              	.LBE111:
 1059              	.LBE142:
 1060              		.loc 1 155 0
 1061 00c6 D0D2     		bcs	.L100
 1062              	.LBB143:
 1063              	.LBB112:
 1064              		.loc 1 84 0
 1065 00c8 55F82220 		ldr	r2, [r5, r2, lsl #2]
 1066 00cc 0A40     		ands	r2, r2, r1
 1067 00ce 22FA0EF2 		lsr	r2, r2, lr
 1068              	.LBE112:
 1069              	.LBE143:
 1070              		.loc 1 158 0
 1071 00d2 032A     		cmp	r2, #3
 1072 00d4 C9D8     		bhi	.L100
 1073 00d6 DFE802F0 		tbb	[pc, r2]
 1074              	.L122:
 1075 00da 08       		.byte	(.L121-.L122)/2
 1076 00db 23       		.byte	(.L117-.L122)/2
 1077 00dc 04       		.byte	(.L123-.L122)/2
 1078 00dd 23       		.byte	(.L117-.L122)/2
 1079              	.LVL88:
 1080              		.p2align 1
 1081              	.L134:
 1082              		.loc 1 155 0
 1083 00de 0023     		movs	r3, #0
ARM GAS  /tmp/cc1M0aUz.s 			page 20


 1084 00e0 E5E7     		b	.L98
 1085              	.LVL89:
 1086              	.L123:
 1087 00e2 3346     		mov	r3, r6
 1088 00e4 0237     		adds	r7, r7, #2
 1089 00e6 0136     		adds	r6, r6, #1
 1090 00e8 E5E7     		b	.L124
 1091              	.L121:
 1092 00ea 0233     		adds	r3, r3, #2
 1093              	.LVL90:
 1094 00ec A342     		cmp	r3, r4
 1095 00ee BCD2     		bcs	.L100
 1096              	.LVL91:
 1097              	.LBB144:
 1098              	.LBB113:
 1099              		.loc 1 79 0
 1100 00f0 5A00     		lsls	r2, r3, #1
 1101              	.LVL92:
 1102              		.loc 1 80 0
 1103 00f2 5609     		lsrs	r6, r2, #5
 1104              	.LVL93:
 1105              		.loc 1 81 0
 1106 00f4 02F01F01 		and	r1, r2, #31
 1107              	.LVL94:
 1108              		.loc 1 84 0
 1109 00f8 55F82660 		ldr	r6, [r5, r6, lsl #2]
 1110              		.loc 1 83 0
 1111 00fc 08FA01F2 		lsl	r2, r8, r1
 1112              		.loc 1 84 0
 1113 0100 3240     		ands	r2, r2, r6
 1114 0102 CA40     		lsrs	r2, r2, r1
 1115              	.LBE113:
 1116              	.LBE144:
 1117              		.loc 1 158 0
 1118 0104 032A     		cmp	r2, #3
 1119 0106 B0D8     		bhi	.L100
 1120 0108 01A1     		adr	r1, .L125
 1121 010a 51F822F0 		ldr	pc, [r1, r2, lsl #2]
 1122 010e 00BF     		.p2align 2
 1123              	.L125:
 1124 0110 5B020000 		.word	.L103+1
 1125 0114 73000000 		.word	.L99+1
 1126 0118 B3000000 		.word	.L120+1
 1127 011c 73000000 		.word	.L99+1
 1128              	.LVL95:
 1129              		.p2align 1
 1130              	.L117:
 1131              		.loc 1 155 0 discriminator 2
 1132 0120 0CF10103 		add	r3, ip, #1
 1133              	.LVL96:
 1134 0124 A342     		cmp	r3, r4
 1135 0126 A0D2     		bcs	.L100
 1136              	.LVL97:
 1137              	.LBB145:
 1138              	.LBB114:
 1139              		.loc 1 79 0
 1140 0128 5A00     		lsls	r2, r3, #1
ARM GAS  /tmp/cc1M0aUz.s 			page 21


 1141              	.LVL98:
 1142              		.loc 1 80 0
 1143 012a 5609     		lsrs	r6, r2, #5
 1144              	.LVL99:
 1145              		.loc 1 81 0
 1146 012c 02F01F01 		and	r1, r2, #31
 1147              	.LVL100:
 1148              		.loc 1 84 0
 1149 0130 55F82660 		ldr	r6, [r5, r6, lsl #2]
 1150              		.loc 1 83 0
 1151 0134 0322     		movs	r2, #3
 1152 0136 8A40     		lsls	r2, r2, r1
 1153              		.loc 1 84 0
 1154 0138 3240     		ands	r2, r2, r6
 1155 013a CA40     		lsrs	r2, r2, r1
 1156              	.LBE114:
 1157              	.LBE145:
 1158              		.loc 1 158 0
 1159 013c 032A     		cmp	r2, #3
 1160 013e 94D8     		bhi	.L100
 1161 0140 01A1     		adr	r1, .L130
 1162 0142 51F822F0 		ldr	pc, [r1, r2, lsl #2]
 1163 0146 00BF     		.p2align 2
 1164              	.L130:
 1165 0148 31000000 		.word	.L97+1
 1166 014c 73000000 		.word	.L99+1
 1167 0150 AF000000 		.word	.L98+1
 1168 0154 73000000 		.word	.L99+1
 1169              		.p2align 1
 1170              	.L102:
 1171              	.LVL101:
 1172              	.LBB146:
 1173              	.LBB115:
 1174              		.loc 1 79 0
 1175 0158 B21C     		adds	r2, r6, #2
 1176              	.LVL102:
 1177              	.LBE115:
 1178              	.LBE146:
 1179              		.loc 1 155 0
 1180 015a 5F1C     		adds	r7, r3, #1
 1181              	.LVL103:
 1182              	.LBB147:
 1183              	.LBB116:
 1184              		.loc 1 81 0
 1185 015c 02F01F01 		and	r1, r2, #31
 1186              	.LVL104:
 1187              	.LBE116:
 1188              	.LBE147:
 1189              		.loc 1 155 0
 1190 0160 A742     		cmp	r7, r4
 1191              	.LBB148:
 1192              	.LBB117:
 1193              		.loc 1 80 0
 1194 0162 4FEA521E 		lsr	lr, r2, #5
 1195              		.loc 1 83 0
 1196 0166 0CFA01F2 		lsl	r2, ip, r1
 1197              	.LBE117:
ARM GAS  /tmp/cc1M0aUz.s 			page 22


 1198              	.LBE148:
 1199              		.loc 1 155 0
 1200 016a BFF47EAF 		bcs	.L100
 1201              	.LBB149:
 1202              	.LBB118:
 1203              		.loc 1 84 0
 1204 016e 55F82EE0 		ldr	lr, [r5, lr, lsl #2]
 1205 0172 02EA0E02 		and	r2, r2, lr
 1206 0176 CA40     		lsrs	r2, r2, r1
 1207              	.LBE118:
 1208              	.LBE149:
 1209              		.loc 1 158 0
 1210 0178 032A     		cmp	r2, #3
 1211 017a 3FF676AF 		bhi	.L100
 1212 017e 01A1     		adr	r1, .L126
 1213 0180 51F822F0 		ldr	pc, [r1, r2, lsl #2]
 1214              		.p2align 2
 1215              	.L126:
 1216 0184 C9020000 		.word	.L140+1
 1217 0188 CD020000 		.word	.L127+1
 1218 018c AD000000 		.word	.L141+1
 1219 0190 CD020000 		.word	.L127+1
 1220              	.LVL105:
 1221              		.p2align 1
 1222              	.L107:
 1223 0194 5800     		lsls	r0, r3, #1
 1224              	.LVL106:
 1225 0196 00F01F02 		and	r2, r0, #31
 1226 019a 0321     		movs	r1, #3
 1227 019c 4009     		lsrs	r0, r0, #5
 1228 019e 05EB8000 		add	r0, r5, r0, lsl #2
 1229 01a2 01FA02FE 		lsl	lr, r1, r2
 1230              	.LVL107:
 1231              	.L132:
 1232              	.LBE164:
 1233              	.LBB165:
 1234              	.LBB166:
 1235              		.loc 1 95 0
 1236 01a6 0168     		ldr	r1, [r0]
 1237 01a8 41EA0E01 		orr	r1, r1, lr
 1238 01ac 0160     		str	r1, [r0]
 1239              	.LVL108:
 1240              	.L131:
 1241              	.LBE166:
 1242              	.LBE165:
 1243              	.LBB167:
 1244              	.LBB168:
 1245              		.loc 1 74 0
 1246 01ae 5F4A     		ldr	r2, .L164+12
 1247 01b0 1068     		ldr	r0, [r2]
 1248 01b2 00EB8300 		add	r0, r0, r3, lsl #2
 1249              	.LVL109:
 1250              	.LBE168:
 1251              	.LBE167:
 1252              		.loc 1 209 0
 1253 01b6 BDE8F081 		pop	{r4, r5, r6, r7, r8, pc}
 1254              	.LVL110:
ARM GAS  /tmp/cc1M0aUz.s 			page 23


 1255              	.L108:
 1256 01ba 9A1C     		adds	r2, r3, #2
 1257 01bc 5200     		lsls	r2, r2, #1
 1258              	.LBB169:
 1259              		.loc 1 171 0
 1260 01be 0126     		movs	r6, #1
 1261              	.LBB150:
 1262              	.LBB119:
 1263              		.loc 1 83 0
 1264 01c0 4FF0030E 		mov	lr, #3
 1265              	.LVL111:
 1266              	.L118:
 1267              	.LBE119:
 1268              	.LBE150:
 1269              		.loc 1 172 0
 1270 01c4 0136     		adds	r6, r6, #1
 1271              	.LVL112:
 1272              	.LBB151:
 1273              	.LBB120:
 1274              		.loc 1 81 0
 1275 01c6 02F01F07 		and	r7, r2, #31
 1276              	.LVL113:
 1277              	.LBE120:
 1278              	.LBE151:
 1279              		.loc 1 173 0
 1280 01ca 8642     		cmp	r6, r0
 1281              	.LBB152:
 1282              	.LBB121:
 1283              		.loc 1 80 0
 1284 01cc 4FEA5218 		lsr	r8, r2, #5
 1285              		.loc 1 83 0
 1286 01d0 0EFA07F1 		lsl	r1, lr, r7
 1287              	.LBE121:
 1288              	.LBE152:
 1289              		.loc 1 173 0
 1290 01d4 1AD0     		beq	.L114
 1291              		.loc 1 155 0
 1292 01d6 0CF1010C 		add	ip, ip, #1
 1293              	.LVL114:
 1294 01da A445     		cmp	ip, r4
 1295 01dc BFF445AF 		bcs	.L100
 1296              	.LBB153:
 1297              	.LBB122:
 1298              		.loc 1 84 0
 1299 01e0 55F82880 		ldr	r8, [r5, r8, lsl #2]
 1300 01e4 01EA0801 		and	r1, r1, r8
 1301 01e8 F940     		lsrs	r1, r1, r7
 1302              	.LBE122:
 1303              	.LBE153:
 1304              		.loc 1 158 0
 1305 01ea 0329     		cmp	r1, #3
 1306 01ec 3FF63DAF 		bhi	.L100
 1307 01f0 01A7     		adr	r7, .L116
 1308 01f2 57F821F0 		ldr	pc, [r7, r1, lsl #2]
 1309 01f6 00BF     		.p2align 2
 1310              	.L116:
 1311 01f8 87020000 		.word	.L115+1
ARM GAS  /tmp/cc1M0aUz.s 			page 24


 1312 01fc 21010000 		.word	.L117+1
 1313 0200 09020000 		.word	.L139+1
 1314 0204 21010000 		.word	.L117+1
 1315              	.LVL115:
 1316              		.p2align 1
 1317              	.L139:
 1318 0208 6346     		mov	r3, ip
 1319 020a 50E7     		b	.L98
 1320              	.LVL116:
 1321              	.L114:
 1322 020c 4FEA4C02 		lsl	r2, ip, #1
 1323 0210 02F01F07 		and	r7, r2, #31
 1324 0214 0326     		movs	r6, #3
 1325              	.LVL117:
 1326 0216 5209     		lsrs	r2, r2, #5
 1327              	.LBE169:
 1328              		.loc 1 200 0
 1329 0218 6345     		cmp	r3, ip
 1330 021a 06FA07FE 		lsl	lr, r6, r7
 1331 021e 05EB8200 		add	r0, r5, r2, lsl #2
 1332              	.LVL118:
 1333 0222 C0D0     		beq	.L132
 1334              	.LVL119:
 1335              	.LBB170:
 1336              	.LBB171:
 1337              		.loc 1 88 0
 1338 0224 5C00     		lsls	r4, r3, #1
 1339              	.LVL120:
 1340              		.loc 1 89 0
 1341 0226 6109     		lsrs	r1, r4, #5
 1342              	.LVL121:
 1343              		.loc 1 90 0
 1344 0228 04F01F04 		and	r4, r4, #31
 1345              	.LVL122:
 1346              		.loc 1 94 0
 1347 022c 55F82100 		ldr	r0, [r5, r1, lsl #2]
 1348              		.loc 1 92 0
 1349 0230 A640     		lsls	r6, r6, r4
 1350              		.loc 1 93 0
 1351 0232 4FF0020C 		mov	ip, #2
 1352              	.LVL123:
 1353              		.loc 1 94 0
 1354 0236 20EA0600 		bic	r0, r0, r6
 1355              		.loc 1 93 0
 1356 023a 0CFA04F4 		lsl	r4, ip, r4
 1357              	.LVL124:
 1358              		.loc 1 95 0
 1359 023e 2043     		orrs	r0, r0, r4
 1360 0240 45F82100 		str	r0, [r5, r1, lsl #2]
 1361              	.LVL125:
 1362              	.LBE171:
 1363              	.LBE170:
 1364              	.LBB172:
 1365              	.LBB173:
 1366              		.loc 1 94 0
 1367 0244 55F82210 		ldr	r1, [r5, r2, lsl #2]
 1368              		.loc 1 93 0
ARM GAS  /tmp/cc1M0aUz.s 			page 25


 1369 0248 0120     		movs	r0, #1
 1370              		.loc 1 94 0
 1371 024a 21EA0E01 		bic	r1, r1, lr
 1372              		.loc 1 93 0
 1373 024e 00FA07F7 		lsl	r7, r0, r7
 1374              	.LVL126:
 1375              		.loc 1 95 0
 1376 0252 3943     		orrs	r1, r1, r7
 1377 0254 45F82210 		str	r1, [r5, r2, lsl #2]
 1378 0258 A9E7     		b	.L131
 1379              	.LVL127:
 1380              	.L103:
 1381              	.LBE173:
 1382              	.LBE172:
 1383              	.LBB174:
 1384              		.loc 1 155 0
 1385 025a 5E1C     		adds	r6, r3, #1
 1386              	.LVL128:
 1387              	.LBB154:
 1388              	.LBB123:
 1389              		.loc 1 79 0
 1390 025c 7200     		lsls	r2, r6, #1
 1391              	.LVL129:
 1392              		.loc 1 81 0
 1393 025e 02F01F01 		and	r1, r2, #31
 1394              	.LVL130:
 1395              	.LBE123:
 1396              	.LBE154:
 1397              		.loc 1 155 0
 1398 0262 B442     		cmp	r4, r6
 1399              	.LBB155:
 1400              	.LBB124:
 1401              		.loc 1 80 0
 1402 0264 4FEA5217 		lsr	r7, r2, #5
 1403              		.loc 1 83 0
 1404 0268 08FA01F2 		lsl	r2, r8, r1
 1405              	.LBE124:
 1406              	.LBE155:
 1407              		.loc 1 155 0
 1408 026c 7FF6FDAE 		bls	.L100
 1409              	.LBB156:
 1410              	.LBB125:
 1411              		.loc 1 84 0
 1412 0270 55F82770 		ldr	r7, [r5, r7, lsl #2]
 1413 0274 3A40     		ands	r2, r2, r7
 1414 0276 CA40     		lsrs	r2, r2, r1
 1415              	.LBE125:
 1416              	.LBE156:
 1417              		.loc 1 158 0
 1418 0278 032A     		cmp	r2, #3
 1419 027a 3FF6F6AE 		bhi	.L100
 1420 027e DFE802F0 		tbb	[pc, r2]
 1421              	.L105:
 1422 0282 2D       		.byte	(.L104-.L105)/2
 1423 0283 28       		.byte	(.L137-.L105)/2
 1424 0284 2B       		.byte	(.L106-.L105)/2
 1425 0285 28       		.byte	(.L137-.L105)/2
ARM GAS  /tmp/cc1M0aUz.s 			page 26


 1426              	.LVL131:
 1427              		.p2align 1
 1428              	.L115:
 1429 0286 0232     		adds	r2, r2, #2
 1430 0288 9CE7     		b	.L118
 1431              	.LVL132:
 1432              	.L110:
 1433              	.LBB157:
 1434              	.LBB126:
 1435              		.loc 1 79 0
 1436 028a 911C     		adds	r1, r2, #2
 1437              	.LBE126:
 1438              	.LBE157:
 1439              		.loc 1 155 0
 1440 028c 0233     		adds	r3, r3, #2
 1441              	.LVL133:
 1442              	.LBB158:
 1443              	.LBB127:
 1444              		.loc 1 81 0
 1445 028e 01F01F06 		and	r6, r1, #31
 1446              	.LVL134:
 1447              	.LBE127:
 1448              	.LBE158:
 1449              		.loc 1 155 0
 1450 0292 9C42     		cmp	r4, r3
 1451              	.LBB159:
 1452              	.LBB128:
 1453              		.loc 1 80 0
 1454 0294 4FEA511C 		lsr	ip, r1, #5
 1455              		.loc 1 83 0
 1456 0298 07FA06F1 		lsl	r1, r7, r6
 1457              	.LBE128:
 1458              	.LBE159:
 1459              		.loc 1 155 0
 1460 029c 7FF6E5AE 		bls	.L100
 1461              	.LBB160:
 1462              	.LBB129:
 1463              		.loc 1 84 0
 1464 02a0 55F82CC0 		ldr	ip, [r5, ip, lsl #2]
 1465 02a4 01EA0C01 		and	r1, r1, ip
 1466 02a8 F140     		lsrs	r1, r1, r6
 1467              	.LBE129:
 1468              	.LBE160:
 1469              		.loc 1 158 0
 1470 02aa 0329     		cmp	r1, #3
 1471 02ac 3FF6DDAE 		bhi	.L100
 1472 02b0 01A6     		adr	r6, .L112
 1473 02b2 56F821F0 		ldr	pc, [r6, r1, lsl #2]
 1474 02b6 00BF     		.p2align 2
 1475              	.L112:
 1476 02b8 19030000 		.word	.L111+1
 1477 02bc 73000000 		.word	.L99+1
 1478 02c0 AF000000 		.word	.L98+1
 1479 02c4 73000000 		.word	.L99+1
 1480              	.LVL135:
 1481              		.p2align 1
 1482              	.L140:
ARM GAS  /tmp/cc1M0aUz.s 			page 27


 1483 02c8 3B46     		mov	r3, r7
 1484 02ca B1E6     		b	.L97
 1485              	.L127:
 1486 02cc 0233     		adds	r3, r3, #2
 1487 02ce 0436     		adds	r6, r6, #4
 1488 02d0 D3E6     		b	.L128
 1489              	.LVL136:
 1490              	.L137:
 1491 02d2 3346     		mov	r3, r6
 1492 02d4 CDE6     		b	.L99
 1493              	.LVL137:
 1494              	.L142:
 1495 02d6 1E46     		mov	r6, r3
 1496              	.LVL138:
 1497              	.L106:
 1498 02d8 3346     		mov	r3, r6
 1499 02da EAE6     		b	.L120
 1500              	.L104:
 1501              		.loc 1 155 0
 1502 02dc 0233     		adds	r3, r3, #2
 1503              	.LVL139:
 1504              	.LBB161:
 1505              	.LBB130:
 1506              		.loc 1 79 0
 1507 02de 5A00     		lsls	r2, r3, #1
 1508              	.LVL140:
 1509              		.loc 1 81 0
 1510 02e0 02F01F01 		and	r1, r2, #31
 1511              	.LVL141:
 1512              	.LBE130:
 1513              	.LBE161:
 1514              		.loc 1 155 0
 1515 02e4 A342     		cmp	r3, r4
 1516              	.LBB162:
 1517              	.LBB131:
 1518              		.loc 1 80 0
 1519 02e6 4FEA5216 		lsr	r6, r2, #5
 1520              		.loc 1 83 0
 1521 02ea 08FA01F2 		lsl	r2, r8, r1
 1522              	.LBE131:
 1523              	.LBE162:
 1524              		.loc 1 155 0
 1525 02ee BFF4BCAE 		bcs	.L100
 1526              	.LBB163:
 1527              	.LBB132:
 1528              		.loc 1 84 0
 1529 02f2 55F82660 		ldr	r6, [r5, r6, lsl #2]
 1530 02f6 3240     		ands	r2, r2, r6
 1531 02f8 CA40     		lsrs	r2, r2, r1
 1532              	.LBE132:
 1533              	.LBE163:
 1534              		.loc 1 158 0
 1535 02fa 032A     		cmp	r2, #3
 1536 02fc 3FF6B5AE 		bhi	.L100
 1537 0300 01A1     		adr	r1, .L129
 1538 0302 51F822F0 		ldr	pc, [r1, r2, lsl #2]
 1539 0306 00BF     		.p2align 2
ARM GAS  /tmp/cc1M0aUz.s 			page 28


 1540              	.L129:
 1541 0308 5B020000 		.word	.L103+1
 1542 030c 73000000 		.word	.L99+1
 1543 0310 D7020000 		.word	.L142+1
 1544 0314 73000000 		.word	.L99+1
 1545              	.LVL142:
 1546              		.p2align 1
 1547              	.L111:
 1548 0318 0432     		adds	r2, r2, #4
 1549 031a 8CE6     		b	.L113
 1550              	.LVL143:
 1551              	.L163:
 1552              		.cfi_def_cfa_offset 0
 1553              		.cfi_restore 4
 1554              		.cfi_restore 5
 1555              		.cfi_restore 6
 1556              		.cfi_restore 7
 1557              		.cfi_restore 8
 1558              		.cfi_restore 14
 1559              	.LBE174:
 1560              		.loc 1 147 0
 1561 031c 0020     		movs	r0, #0
 1562              	.LVL144:
 1563              		.loc 1 209 0
 1564 031e 7047     		bx	lr
 1565              	.L165:
 1566              		.align	2
 1567              	.L164:
 1568 0320 00000000 		.word	.LANCHOR2
 1569 0324 00000000 		.word	.LANCHOR0
 1570 0328 00000000 		.word	.LANCHOR1
 1571 032c 00000000 		.word	.LANCHOR3
 1572              		.cfi_endproc
 1573              	.LFE10:
 1574              		.size	lbm_memory_allocate, .-lbm_memory_allocate
 1575              		.section	.text.lbm_memory_free,"ax",%progbits
 1576              		.align	1
 1577              		.p2align 4,,15
 1578              		.global	lbm_memory_free
 1579              		.syntax unified
 1580              		.thumb
 1581              		.thumb_func
 1582              		.fpu fpv4-sp-d16
 1583              		.type	lbm_memory_free, %function
 1584              	lbm_memory_free:
 1585              	.LFB11:
 1586              		.loc 1 211 0
 1587              		.cfi_startproc
 1588              		@ args = 0, pretend = 0, frame = 0
 1589              		@ frame_needed = 0, uses_anonymous_args = 0
 1590              	.LVL145:
 1591              	.LBB175:
 1592              	.LBB176:
 1593              		.loc 1 70 0
 1594 0000 284B     		ldr	r3, .L184
 1595              	.LBE176:
 1596              	.LBE175:
ARM GAS  /tmp/cc1M0aUz.s 			page 29


 1597              	.LBB179:
 1598              	.LBB180:
 1599              		.loc 1 84 0
 1600 0002 294A     		ldr	r2, .L184+4
 1601              	.LBE180:
 1602              	.LBE179:
 1603              	.LBB185:
 1604              	.LBB177:
 1605              		.loc 1 70 0
 1606 0004 1B68     		ldr	r3, [r3]
 1607              	.LBE177:
 1608              	.LBE185:
 1609              	.LBB186:
 1610              	.LBB181:
 1611              		.loc 1 84 0
 1612 0006 1168     		ldr	r1, [r2]
 1613              	.LBE181:
 1614              	.LBE186:
 1615              	.LBB187:
 1616              	.LBB178:
 1617              		.loc 1 70 0
 1618 0008 C01A     		subs	r0, r0, r3
 1619              	.LVL146:
 1620 000a 8008     		lsrs	r0, r0, #2
 1621              	.LVL147:
 1622              	.LBE178:
 1623              	.LBE187:
 1624              	.LBB188:
 1625              	.LBB182:
 1626              		.loc 1 79 0
 1627 000c 4300     		lsls	r3, r0, #1
 1628              	.LVL148:
 1629              	.LBE182:
 1630              	.LBE188:
 1631              		.loc 1 211 0
 1632 000e 2DE9F041 		push	{r4, r5, r6, r7, r8, lr}
 1633              		.cfi_def_cfa_offset 24
 1634              		.cfi_offset 4, -24
 1635              		.cfi_offset 5, -20
 1636              		.cfi_offset 6, -16
 1637              		.cfi_offset 7, -12
 1638              		.cfi_offset 8, -8
 1639              		.cfi_offset 14, -4
 1640              	.LBB189:
 1641              	.LBB183:
 1642              		.loc 1 80 0
 1643 0012 4FEA5318 		lsr	r8, r3, #5
 1644              		.loc 1 83 0
 1645 0016 4FF0030E 		mov	lr, #3
 1646              		.loc 1 81 0
 1647 001a 03F01F03 		and	r3, r3, #31
 1648              	.LVL149:
 1649              		.loc 1 84 0
 1650 001e 51F82820 		ldr	r2, [r1, r8, lsl #2]
 1651              		.loc 1 83 0
 1652 0022 0EFA03F5 		lsl	r5, lr, r3
 1653              	.LVL150:
ARM GAS  /tmp/cc1M0aUz.s 			page 30


 1654              		.loc 1 84 0
 1655 0026 05EA0204 		and	r4, r5, r2
 1656 002a DC40     		lsrs	r4, r4, r3
 1657              	.LBE183:
 1658              	.LBE189:
 1659              		.loc 1 213 0
 1660 002c 022C     		cmp	r4, #2
 1661              	.LBB190:
 1662              	.LBB184:
 1663              		.loc 1 84 0
 1664 002e 01EB880C 		add	ip, r1, r8, lsl #2
 1665              	.LBE184:
 1666              	.LBE190:
 1667              		.loc 1 213 0
 1668 0032 0BD0     		beq	.L168
 1669 0034 7445     		cmp	r4, lr
 1670 0036 02D0     		beq	.L169
 1671              	.L175:
 1672              		.loc 1 222 0
 1673 0038 0020     		movs	r0, #0
 1674              		.loc 1 229 0
 1675 003a BDE8F081 		pop	{r4, r5, r6, r7, r8, pc}
 1676              	.L169:
 1677              	.LVL151:
 1678              	.LBB191:
 1679              	.LBB192:
 1680              		.loc 1 94 0
 1681 003e 22EA0502 		bic	r2, r2, r5
 1682              		.loc 1 95 0
 1683 0042 41F82820 		str	r2, [r1, r8, lsl #2]
 1684              	.LVL152:
 1685              	.LBE192:
 1686              	.LBE191:
 1687              		.loc 1 225 0
 1688 0046 0120     		movs	r0, #1
 1689              		.loc 1 229 0
 1690 0048 BDE8F081 		pop	{r4, r5, r6, r7, r8, pc}
 1691              	.L168:
 1692              	.LVL153:
 1693              	.LBB193:
 1694              		.loc 1 216 0
 1695 004c 174C     		ldr	r4, .L184+8
 1696 004e 2768     		ldr	r7, [r4]
 1697              	.LBE193:
 1698              	.LBB204:
 1699              	.LBB205:
 1700              		.loc 1 92 0
 1701 0050 EE43     		mvns	r6, r5
 1702              	.LVL154:
 1703              	.LBE205:
 1704              	.LBE204:
 1705              	.LBB208:
 1706              		.loc 1 216 0
 1707 0052 3F01     		lsls	r7, r7, #4
 1708              	.LBE208:
 1709              	.LBB209:
 1710              	.LBB206:
ARM GAS  /tmp/cc1M0aUz.s 			page 31


 1711              		.loc 1 94 0
 1712 0054 3240     		ands	r2, r2, r6
 1713              	.LBE206:
 1714              	.LBE209:
 1715              	.LBB210:
 1716              		.loc 1 216 0
 1717 0056 B842     		cmp	r0, r7
 1718              	.LBE210:
 1719              	.LBB211:
 1720              	.LBB207:
 1721              		.loc 1 95 0
 1722 0058 41F82820 		str	r2, [r1, r8, lsl #2]
 1723              	.LVL155:
 1724              	.LBE207:
 1725              	.LBE211:
 1726              	.LBB212:
 1727              		.loc 1 216 0
 1728 005c ECD2     		bcs	.L175
 1729              	.LBB194:
 1730              	.LBB195:
 1731              		.loc 1 84 0
 1732 005e 1540     		ands	r5, r5, r2
 1733 0060 25FA03F3 		lsr	r3, r5, r3
 1734              	.LBE195:
 1735              	.LBE194:
 1736              		.loc 1 217 0
 1737 0064 012B     		cmp	r3, #1
 1738 0066 17D0     		beq	.L170
 1739 0068 0130     		adds	r0, r0, #1
 1740              	.LVL156:
 1741 006a 4300     		lsls	r3, r0, #1
 1742 006c 07E0     		b	.L172
 1743              	.LVL157:
 1744              	.L173:
 1745              	.LBB199:
 1746              	.LBB196:
 1747              		.loc 1 84 0
 1748 006e 51F82220 		ldr	r2, [r1, r2, lsl #2]
 1749              	.LVL158:
 1750 0072 06EA0204 		and	r4, r6, r2
 1751 0076 EC40     		lsrs	r4, r4, r5
 1752              	.LBE196:
 1753              	.LBE199:
 1754              		.loc 1 217 0
 1755 0078 012C     		cmp	r4, #1
 1756 007a 0CD0     		beq	.L182
 1757 007c 0130     		adds	r0, r0, #1
 1758              	.LVL159:
 1759              	.L172:
 1760              	.LBB200:
 1761              	.LBB197:
 1762              		.loc 1 80 0 discriminator 2
 1763 007e 5A09     		lsrs	r2, r3, #5
 1764              		.loc 1 81 0 discriminator 2
 1765 0080 03F01F05 		and	r5, r3, #31
 1766              	.LVL160:
 1767              	.LBE197:
ARM GAS  /tmp/cc1M0aUz.s 			page 32


 1768              	.LBE200:
 1769              		.loc 1 216 0 discriminator 2
 1770 0084 B842     		cmp	r0, r7
 1771              	.LBB201:
 1772              	.LBB198:
 1773              		.loc 1 83 0 discriminator 2
 1774 0086 0EFA05F6 		lsl	r6, lr, r5
 1775              	.LVL161:
 1776              		.loc 1 84 0 discriminator 2
 1777 008a 01EB820C 		add	ip, r1, r2, lsl #2
 1778 008e 03F10203 		add	r3, r3, #2
 1779              	.LBE198:
 1780              	.LBE201:
 1781              		.loc 1 216 0 discriminator 2
 1782 0092 ECD1     		bne	.L173
 1783              		.loc 1 216 0 is_stmt 0
 1784 0094 D0E7     		b	.L175
 1785              	.LVL162:
 1786              	.L182:
 1787 0096 F643     		mvns	r6, r6
 1788              	.LVL163:
 1789              	.L170:
 1790              	.LBB202:
 1791              	.LBB203:
 1792              		.loc 1 94 0 is_stmt 1
 1793 0098 1640     		ands	r6, r6, r2
 1794              		.loc 1 95 0
 1795 009a CCF80060 		str	r6, [ip]
 1796              	.LVL164:
 1797              	.LBE203:
 1798              	.LBE202:
 1799              		.loc 1 219 0
 1800 009e 0120     		movs	r0, #1
 1801              	.LBE212:
 1802              		.loc 1 229 0
 1803 00a0 BDE8F081 		pop	{r4, r5, r6, r7, r8, pc}
 1804              	.L185:
 1805              		.align	2
 1806              	.L184:
 1807 00a4 00000000 		.word	.LANCHOR3
 1808 00a8 00000000 		.word	.LANCHOR0
 1809 00ac 00000000 		.word	.LANCHOR1
 1810              		.cfi_endproc
 1811              	.LFE11:
 1812              		.size	lbm_memory_free, .-lbm_memory_free
 1813              		.section	.text.lbm_memory_ptr_inside,"ax",%progbits
 1814              		.align	1
 1815              		.p2align 4,,15
 1816              		.global	lbm_memory_ptr_inside
 1817              		.syntax unified
 1818              		.thumb
 1819              		.thumb_func
 1820              		.fpu fpv4-sp-d16
 1821              		.type	lbm_memory_ptr_inside, %function
 1822              	lbm_memory_ptr_inside:
 1823              	.LFB12:
 1824              		.loc 1 231 0
ARM GAS  /tmp/cc1M0aUz.s 			page 33


 1825              		.cfi_startproc
 1826              		@ args = 0, pretend = 0, frame = 0
 1827              		@ frame_needed = 0, uses_anonymous_args = 0
 1828              		@ link register save eliminated.
 1829              	.LVL165:
 1830              		.loc 1 234 0
 1831 0000 074B     		ldr	r3, .L189
 1832 0002 1B68     		ldr	r3, [r3]
 1833 0004 9842     		cmp	r0, r3
 1834 0006 08D3     		bcc	.L188
 1835              		.loc 1 235 0 discriminator 1
 1836 0008 064A     		ldr	r2, .L189+4
 1837 000a 1268     		ldr	r2, [r2]
 1838 000c 03EB8203 		add	r3, r3, r2, lsl #2
 1839              		.loc 1 234 0 discriminator 1
 1840 0010 9842     		cmp	r0, r3
 1841 0012 2CBF     		ite	cs
 1842 0014 0020     		movcs	r0, #0
 1843              	.LVL166:
 1844 0016 0120     		movcc	r0, #1
 1845 0018 7047     		bx	lr
 1846              	.LVL167:
 1847              	.L188:
 1848              		.loc 1 232 0
 1849 001a 0020     		movs	r0, #0
 1850              	.LVL168:
 1851              		.loc 1 238 0
 1852 001c 7047     		bx	lr
 1853              	.L190:
 1854 001e 00BF     		.align	2
 1855              	.L189:
 1856 0020 00000000 		.word	.LANCHOR2
 1857 0024 00000000 		.word	.LANCHOR4
 1858              		.cfi_endproc
 1859              	.LFE12:
 1860              		.size	lbm_memory_ptr_inside, .-lbm_memory_ptr_inside
 1861              		.section	.bss.bitmap,"aw",%nobits
 1862              		.align	2
 1863              		.set	.LANCHOR0,. + 0
 1864              		.type	bitmap, %object
 1865              		.size	bitmap, 4
 1866              	bitmap:
 1867 0000 00000000 		.space	4
 1868              		.section	.bss.bitmap_size,"aw",%nobits
 1869              		.align	2
 1870              		.set	.LANCHOR1,. + 0
 1871              		.type	bitmap_size, %object
 1872              		.size	bitmap_size, 4
 1873              	bitmap_size:
 1874 0000 00000000 		.space	4
 1875              		.section	.bss.memory,"aw",%nobits
 1876              		.align	2
 1877              		.set	.LANCHOR2,. + 0
 1878              		.type	memory, %object
 1879              		.size	memory, 4
 1880              	memory:
 1881 0000 00000000 		.space	4
ARM GAS  /tmp/cc1M0aUz.s 			page 34


 1882              		.section	.bss.memory_base_address,"aw",%nobits
 1883              		.align	2
 1884              		.set	.LANCHOR3,. + 0
 1885              		.type	memory_base_address, %object
 1886              		.size	memory_base_address, 4
 1887              	memory_base_address:
 1888 0000 00000000 		.space	4
 1889              		.section	.bss.memory_size,"aw",%nobits
 1890              		.align	2
 1891              		.set	.LANCHOR4,. + 0
 1892              		.type	memory_size, %object
 1893              		.size	memory_size, 4
 1894              	memory_size:
 1895 0000 00000000 		.space	4
 1896              		.text
 1897              	.Letext0:
 1898              		.file 2 "/usr/arm-none-eabi/include/machine/_default_types.h"
 1899              		.file 3 "/usr/arm-none-eabi/include/sys/_stdint.h"
 1900              		.file 4 "/usr/arm-none-eabi/include/sys/lock.h"
 1901              		.file 5 "/usr/arm-none-eabi/include/sys/_types.h"
 1902              		.file 6 "/usr/lib/gcc/arm-none-eabi/7.3.1/include/stddef.h"
 1903              		.file 7 "/usr/arm-none-eabi/include/sys/reent.h"
 1904              		.file 8 "/usr/arm-none-eabi/include/stdlib.h"