ARM GAS  /tmp/ccoaWWew.s 			page 1


   1              		.cpu cortex-m4
   2              		.eabi_attribute 27, 1
   3              		.eabi_attribute 28, 1
   4              		.eabi_attribute 20, 1
   5              		.eabi_attribute 21, 1
   6              		.eabi_attribute 23, 3
   7              		.eabi_attribute 24, 1
   8              		.eabi_attribute 25, 1
   9              		.eabi_attribute 26, 1
  10              		.eabi_attribute 30, 2
  11              		.eabi_attribute 34, 1
  12              		.eabi_attribute 18, 4
  13              		.file	"ledpwm.c"
  14              		.text
  15              	.Ltext0:
  16              		.cfi_sections	.debug_frame
  17              		.section	.text.ledpwm_init,"ax",%progbits
  18              		.align	1
  19              		.p2align 4,,15
  20              		.global	ledpwm_init
  21              		.syntax unified
  22              		.thumb
  23              		.thumb_func
  24              		.fpu fpv4-sp-d16
  25              		.type	ledpwm_init, %function
  26              	ledpwm_init:
  27              	.LFB256:
  28              		.file 1 "ledpwm.c"
  29              		.loc 1 30 0
  30              		.cfi_startproc
  31              		@ args = 0, pretend = 0, frame = 0
  32              		@ frame_needed = 0, uses_anonymous_args = 0
  33 0000 70B5     		push	{r4, r5, r6, lr}
  34              		.cfi_def_cfa_offset 16
  35              		.cfi_offset 4, -16
  36              		.cfi_offset 5, -12
  37              		.cfi_offset 6, -8
  38              		.cfi_offset 14, -4
  39              		.loc 1 31 0
  40 0002 144B     		ldr	r3, .L6
  41 0004 144D     		ldr	r5, .L6+4
  42              		.loc 1 30 0
  43 0006 2DED028B 		vpush.64	{d8}
  44              		.cfi_def_cfa_offset 24
  45              		.cfi_offset 80, -24
  46              		.cfi_offset 81, -20
  47              		.loc 1 31 0
  48 000a 0022     		movs	r2, #0
  49              	.LBB2:
  50              		.loc 1 35 0
  51 000c 9FED138A 		vldr.32	s16, .L6+8
  52 0010 DFED138A 		vldr.32	s17, .L6+12
  53              	.LBE2:
  54              		.loc 1 31 0
  55 0014 1A60     		str	r2, [r3]
  56 0016 05F1C906 		add	r6, r5, #201
  57 001a 5A60     		str	r2, [r3, #4]
ARM GAS  /tmp/ccoaWWew.s 			page 2


  58              	.LVL0:
  59 001c 2C46     		mov	r4, r5
  60              	.LVL1:
  61              	.L2:
  62              	.LBB3:
  63              		.loc 1 35 0 discriminator 3
  64 001e 631B     		subs	r3, r4, r5
  65              	.LVL2:
  66 0020 00EE103A 		vmov	s0, r3	@ int
  67 0024 B8EEC00A 		vcvt.f32.s32	s0, s0
  68 0028 F0EE680A 		vmov.f32	s1, s17
  69 002c 80EE080A 		vdiv.f32	s0, s0, s16
  70 0030 FFF7FEFF 		bl	powf
  71              	.LVL3:
  72 0034 20EE080A 		vmul.f32	s0, s0, s16
  73 0038 FFF7FEFF 		bl	roundf
  74              	.LVL4:
  75 003c FDEEC07A 		vcvt.s32.f32	s15, s0
  76 0040 17EE903A 		vmov	r3, s15	@ int
  77 0044 04F8013B 		strb	r3, [r4], #1
  78              	.LVL5:
  79              		.loc 1 34 0 discriminator 3
  80 0048 B442     		cmp	r4, r6
  81 004a E8D1     		bne	.L2
  82              	.LBE3:
  83              		.loc 1 37 0
  84 004c BDEC028B 		vldm	sp!, {d8}
  85              		.cfi_restore 80
  86              		.cfi_restore 81
  87              		.cfi_def_cfa_offset 16
  88 0050 70BD     		pop	{r4, r5, r6, pc}
  89              	.LVL6:
  90              	.L7:
  91 0052 00BF     		.align	2
  92              	.L6:
  93 0054 00000000 		.word	.LANCHOR0
  94 0058 00000000 		.word	.LANCHOR1
  95 005c 00004843 		.word	1128792064
  96 0060 E4380E40 		.word	1074673892
  97              		.cfi_endproc
  98              	.LFE256:
  99              		.size	ledpwm_init, .-ledpwm_init
 100              		.section	.text.ledpwm_set_intensity,"ax",%progbits
 101              		.align	1
 102              		.p2align 4,,15
 103              		.global	ledpwm_set_intensity
 104              		.syntax unified
 105              		.thumb
 106              		.thumb_func
 107              		.fpu fpv4-sp-d16
 108              		.type	ledpwm_set_intensity, %function
 109              	ledpwm_set_intensity:
 110              	.LFB257:
 111              		.loc 1 45 0
 112              		.cfi_startproc
 113              		@ args = 0, pretend = 0, frame = 0
 114              		@ frame_needed = 0, uses_anonymous_args = 0
ARM GAS  /tmp/ccoaWWew.s 			page 3


 115              		@ link register save eliminated.
 116              	.LVL7:
 117              		.loc 1 46 0
 118 0000 0128     		cmp	r0, #1
 119 0002 00D9     		bls	.L13
 120              		.loc 1 59 0
 121 0004 7047     		bx	lr
 122              	.L13:
 123              		.loc 1 50 0
 124 0006 B5EEC00A 		vcmpe.f32	s0, #0
 125 000a F1EE10FA 		vmrs	APSR_nzcv, FPSCR
 126 000e 0ED4     		bmi	.L11
 127              		.loc 1 54 0
 128 0010 F7EE007A 		vmov.f32	s15, #1.0e+0
 129 0014 B4EEE70A 		vcmpe.f32	s0, s15
 130 0018 F1EE10FA 		vmrs	APSR_nzcv, FPSCR
 131 001c C8BF     		it	gt
 132 001e C823     		movgt	r3, #200
 133 0020 07DD     		ble	.L14
 134              	.LVL8:
 135              	.L10:
 136              		.loc 1 58 0
 137 0022 0849     		ldr	r1, .L15
 138 0024 084A     		ldr	r2, .L15+4
 139 0026 CB5C     		ldrb	r3, [r1, r3]	@ zero_extendqisi2
 140 0028 42F82030 		str	r3, [r2, r0, lsl #2]
 141              		.loc 1 59 0
 142 002c 7047     		bx	lr
 143              	.LVL9:
 144              	.L11:
 145 002e 0023     		movs	r3, #0
 146 0030 F7E7     		b	.L10
 147              	.L14:
 148 0032 DFED067A 		vldr.32	s15, .L15+8
 149 0036 20EE270A 		vmul.f32	s0, s0, s15
 150              	.LVL10:
 151 003a FDEEC07A 		vcvt.s32.f32	s15, s0
 152 003e 17EE903A 		vmov	r3, s15	@ int
 153 0042 EEE7     		b	.L10
 154              	.L16:
 155              		.align	2
 156              	.L15:
 157 0044 00000000 		.word	.LANCHOR1
 158 0048 00000000 		.word	.LANCHOR0
 159 004c 00004843 		.word	1128792064
 160              		.cfi_endproc
 161              	.LFE257:
 162              		.size	ledpwm_set_intensity, .-ledpwm_set_intensity
 163              		.section	.text.ledpwm_led_on,"ax",%progbits
 164              		.align	1
 165              		.p2align 4,,15
 166              		.global	ledpwm_led_on
 167              		.syntax unified
 168              		.thumb
 169              		.thumb_func
 170              		.fpu fpv4-sp-d16
 171              		.type	ledpwm_led_on, %function
ARM GAS  /tmp/ccoaWWew.s 			page 4


 172              	ledpwm_led_on:
 173              	.LFB258:
 174              		.loc 1 61 0
 175              		.cfi_startproc
 176              		@ args = 0, pretend = 0, frame = 0
 177              		@ frame_needed = 0, uses_anonymous_args = 0
 178              		@ link register save eliminated.
 179              	.LVL11:
 180              		.loc 1 62 0
 181 0000 0128     		cmp	r0, #1
 182 0002 03DC     		bgt	.L17
 183              		.loc 1 66 0
 184 0004 024B     		ldr	r3, .L19
 185 0006 C822     		movs	r2, #200
 186 0008 43F82020 		str	r2, [r3, r0, lsl #2]
 187              	.L17:
 188              		.loc 1 67 0
 189 000c 7047     		bx	lr
 190              	.L20:
 191 000e 00BF     		.align	2
 192              	.L19:
 193 0010 00000000 		.word	.LANCHOR0
 194              		.cfi_endproc
 195              	.LFE258:
 196              		.size	ledpwm_led_on, .-ledpwm_led_on
 197              		.section	.text.ledpwm_led_off,"ax",%progbits
 198              		.align	1
 199              		.p2align 4,,15
 200              		.global	ledpwm_led_off
 201              		.syntax unified
 202              		.thumb
 203              		.thumb_func
 204              		.fpu fpv4-sp-d16
 205              		.type	ledpwm_led_off, %function
 206              	ledpwm_led_off:
 207              	.LFB259:
 208              		.loc 1 69 0
 209              		.cfi_startproc
 210              		@ args = 0, pretend = 0, frame = 0
 211              		@ frame_needed = 0, uses_anonymous_args = 0
 212              		@ link register save eliminated.
 213              	.LVL12:
 214              		.loc 1 70 0
 215 0000 0128     		cmp	r0, #1
 216 0002 03DC     		bgt	.L21
 217              		.loc 1 74 0
 218 0004 024B     		ldr	r3, .L23
 219 0006 0022     		movs	r2, #0
 220 0008 43F82020 		str	r2, [r3, r0, lsl #2]
 221              	.L21:
 222              		.loc 1 75 0
 223 000c 7047     		bx	lr
 224              	.L24:
 225 000e 00BF     		.align	2
 226              	.L23:
 227 0010 00000000 		.word	.LANCHOR0
 228              		.cfi_endproc
ARM GAS  /tmp/ccoaWWew.s 			page 5


 229              	.LFE259:
 230              		.size	ledpwm_led_off, .-ledpwm_led_off
 231              		.section	.text.ledpwm_update_pwm,"ax",%progbits
 232              		.align	1
 233              		.p2align 4,,15
 234              		.global	ledpwm_update_pwm
 235              		.syntax unified
 236              		.thumb
 237              		.thumb_func
 238              		.fpu fpv4-sp-d16
 239              		.type	ledpwm_update_pwm, %function
 240              	ledpwm_update_pwm:
 241              	.LFB260:
 242              		.loc 1 80 0
 243              		.cfi_startproc
 244              		@ args = 0, pretend = 0, frame = 0
 245              		@ frame_needed = 0, uses_anonymous_args = 0
 246              		@ link register save eliminated.
 247              		.loc 1 82 0
 248 0000 0C4A     		ldr	r2, .L33
 249 0002 1368     		ldr	r3, [r2]
 250 0004 0133     		adds	r3, r3, #1
 251              		.loc 1 83 0
 252 0006 C82B     		cmp	r3, #200
 253              		.loc 1 84 0
 254 0008 08BF     		it	eq
 255 000a 0023     		moveq	r3, #0
 256 000c 1360     		str	r3, [r2]
 257              		.loc 1 87 0
 258 000e 0A4A     		ldr	r2, .L33+4
 259 0010 1168     		ldr	r1, [r2]
 260 0012 9942     		cmp	r1, r3
 261              		.loc 1 88 0
 262 0014 0949     		ldr	r1, .L33+8
 263 0016 4FF02000 		mov	r0, #32
 264 001a D4BF     		ite	le
 265 001c 4883     		strhle	r0, [r1, #26]	@ movhi
 266              		.loc 1 90 0
 267 001e 0883     		strhgt	r0, [r1, #24]	@ movhi
 268              		.loc 1 93 0
 269 0020 5268     		ldr	r2, [r2, #4]
 270 0022 9A42     		cmp	r2, r3
 271              		.loc 1 94 0
 272 0024 054B     		ldr	r3, .L33+8
 273 0026 4FF08002 		mov	r2, #128
 274 002a D4BF     		ite	le
 275 002c 5A83     		strhle	r2, [r3, #26]	@ movhi
 276              		.loc 1 96 0
 277 002e 1A83     		strhgt	r2, [r3, #24]	@ movhi
 278              		.loc 1 131 0
 279 0030 7047     		bx	lr
 280              	.L34:
 281 0032 00BF     		.align	2
 282              	.L33:
 283 0034 00000000 		.word	.LANCHOR2
 284 0038 00000000 		.word	.LANCHOR0
 285 003c 00040240 		.word	1073873920
ARM GAS  /tmp/ccoaWWew.s 			page 6


 286              		.cfi_endproc
 287              	.LFE260:
 288              		.size	ledpwm_update_pwm, .-ledpwm_update_pwm
 289              		.section	.bss.cnt.12122,"aw",%nobits
 290              		.align	2
 291              		.set	.LANCHOR2,. + 0
 292              		.type	cnt.12122, %object
 293              		.size	cnt.12122, 4
 294              	cnt.12122:
 295 0000 00000000 		.space	4
 296              		.section	.bss.gamma_table,"aw",%nobits
 297              		.align	2
 298              		.set	.LANCHOR1,. + 0
 299              		.type	gamma_table, %object
 300              		.size	gamma_table, 201
 301              	gamma_table:
 302 0000 00000000 		.space	201
 302      00000000 
 302      00000000 
 302      00000000 
 302      00000000 
 303              		.section	.bss.led_values,"aw",%nobits
 304              		.align	2
 305              		.set	.LANCHOR0,. + 0
 306              		.type	led_values, %object
 307              		.size	led_values, 8
 308              	led_values:
 309 0000 00000000 		.space	8
 309      00000000 
 310              		.text
 311              	.Letext0:
 312              		.file 2 "/usr/arm-none-eabi/include/machine/_default_types.h"
 313              		.file 3 "/usr/arm-none-eabi/include/sys/_stdint.h"
 314              		.file 4 "/usr/lib/gcc/arm-none-eabi/7.3.1/include/stddef.h"
 315              		.file 5 "ChibiOS_3.0.5/os/rt/ports/ARMCMx/compilers/GCC/chtypes.h"
 316              		.file 6 "ChibiOS_3.0.5/os/rt/include/chsystypes.h"
 317              		.file 7 "ChibiOS_3.0.5/os/rt/include/chschd.h"
 318              		.file 8 "ChibiOS_3.0.5/os/ext/CMSIS/include/core_cm4.h"
 319              		.file 9 "ChibiOS_3.0.5/os/ext/CMSIS/ST/system_stm32f4xx.h"
 320              		.file 10 "ChibiOS_3.0.5/os/ext/CMSIS/ST/stm32f407xx.h"
 321              		.file 11 "ChibiOS_3.0.5/os/rt/ports/ARMCMx/chcore.h"
 322              		.file 12 "ChibiOS_3.0.5/os/rt/ports/ARMCMx/chcore_v7m.h"
 323              		.file 13 "ChibiOS_3.0.5/os/rt/include/chtm.h"
 324              		.file 14 "ChibiOS_3.0.5/os/rt/include/chsem.h"
 325              		.file 15 "ChibiOS_3.0.5/os/rt/include/chmtx.h"
 326              		.file 16 "ChibiOS_3.0.5/os/rt/include/chregistry.h"
 327              		.file 17 "ChibiOS_3.0.5/os/rt/include/chevents.h"
 328              		.file 18 "ChibiOS_3.0.5/os/rt/include/chqueues.h"
 329              		.file 19 "datatypes.h"
 330              		.file 20 "conf_general.h"
 331              		.file 21 "ChibiOS_3.0.5/os/hal/ports/STM32/STM32F4xx/stm32_dma.h"
 332              		.file 22 "ChibiOS_3.0.5/os/hal/ports/STM32/LLD/GPIOv2/pal_lld.h"
 333              		.file 23 "ChibiOS_3.0.5/os/hal/include/can.h"
 334              		.file 24 "ChibiOS_3.0.5/os/hal/ports/STM32/LLD/can_lld.h"
 335              		.file 25 "ChibiOS_3.0.5/os/hal/include/i2c.h"
 336              		.file 26 "ChibiOS_3.0.5/os/hal/ports/STM32/LLD/I2Cv1/i2c_lld.h"
 337              		.file 27 "ChibiOS_3.0.5/os/hal/include/icu.h"
ARM GAS  /tmp/ccoaWWew.s 			page 7


 338              		.file 28 "ChibiOS_3.0.5/os/hal/ports/STM32/LLD/TIMv1/icu_lld.h"
 339              		.file 29 "ChibiOS_3.0.5/os/hal/ports/STM32/LLD/TIMv1/stm32_tim.h"
 340              		.file 30 "ChibiOS_3.0.5/os/hal/include/serial.h"
 341              		.file 31 "ChibiOS_3.0.5/os/hal/ports/STM32/LLD/USARTv1/serial_lld.h"
 342              		.file 32 "ChibiOS_3.0.5/os/hal/include/spi.h"
 343              		.file 33 "ChibiOS_3.0.5/os/hal/ports/STM32/LLD/SPIv1/spi_lld.h"
 344              		.file 34 "ChibiOS_3.0.5/os/hal/include/usb.h"
 345              		.file 35 "ChibiOS_3.0.5/os/hal/ports/STM32/LLD/OTGv1/usb_lld.h"
 346              		.file 36 "ChibiOS_3.0.5/os/hal/ports/STM32/LLD/OTGv1/stm32_otg.h"
 347              		.file 37 "/usr/arm-none-eabi/include/sys/lock.h"
 348              		.file 38 "/usr/arm-none-eabi/include/sys/_types.h"
 349              		.file 39 "/usr/arm-none-eabi/include/sys/reent.h"
 350              		.file 40 "/usr/arm-none-eabi/include/math.h"