ARM GAS  /tmp/cchUFGpm.s 			page 1


   1              		.cpu cortex-m4
   2              		.eabi_attribute 27, 1
   3              		.eabi_attribute 28, 1
   4              		.eabi_attribute 20, 1
   5              		.eabi_attribute 21, 1
   6              		.eabi_attribute 23, 3
   7              		.eabi_attribute 24, 1
   8              		.eabi_attribute 25, 1
   9              		.eabi_attribute 26, 1
  10              		.eabi_attribute 30, 2
  11              		.eabi_attribute 34, 1
  12              		.eabi_attribute 18, 4
  13              		.file	"lispbm.c"
  14              		.text
  15              	.Ltext0:
  16              		.cfi_sections	.debug_frame
  17              		.section	.text.lbm_init,"ax",%progbits
  18              		.align	1
  19              		.p2align 4,,15
  20              		.global	lbm_init
  21              		.syntax unified
  22              		.thumb
  23              		.thumb_func
  24              		.fpu fpv4-sp-d16
  25              		.type	lbm_init, %function
  26              	lbm_init:
  27              	.LFB46:
  28              		.file 1 "lispBM/lispBM/src/lispbm.c"
  29              		.loc 1 22 0
  30              		.cfi_startproc
  31              		@ args = 8, pretend = 0, frame = 0
  32              		@ frame_needed = 0, uses_anonymous_args = 0
  33              	.LVL0:
  34 0000 38B5     		push	{r3, r4, r5, lr}
  35              		.cfi_def_cfa_offset 16
  36              		.cfi_offset 3, -16
  37              		.cfi_offset 4, -12
  38              		.cfi_offset 5, -8
  39              		.cfi_offset 14, -4
  40              		.loc 1 22 0
  41 0002 0446     		mov	r4, r0
  42 0004 0D46     		mov	r5, r1
  43              		.loc 1 25 0
  44 0006 1046     		mov	r0, r2
  45              	.LVL1:
  46 0008 1946     		mov	r1, r3
  47              	.LVL2:
  48 000a DDE90423 		ldrd	r2, r3, [sp, #16]
  49              	.LVL3:
  50 000e FFF7FEFF 		bl	lbm_memory_init
  51              	.LVL4:
  52 0012 08B9     		cbnz	r0, .L2
  53              	.L4:
  54              		.loc 1 27 0
  55 0014 0020     		movs	r0, #0
  56              		.loc 1 45 0
  57 0016 38BD     		pop	{r3, r4, r5, pc}
ARM GAS  /tmp/cchUFGpm.s 			page 2


  58              	.LVL5:
  59              	.L2:
  60              		.loc 1 29 0
  61 0018 FFF7FEFF 		bl	lbm_symrepr_init
  62              	.LVL6:
  63 001c 0028     		cmp	r0, #0
  64 001e F9D0     		beq	.L4
  65              		.loc 1 32 0
  66 0020 2946     		mov	r1, r5
  67 0022 2046     		mov	r0, r4
  68 0024 FFF7FEFF 		bl	lbm_heap_init
  69              	.LVL7:
  70 0028 0028     		cmp	r0, #0
  71 002a F3D0     		beq	.L4
  72              		.loc 1 35 0
  73 002c FFF7FEFF 		bl	lbm_init_env
  74              	.LVL8:
  75 0030 0028     		cmp	r0, #0
  76 0032 EFD0     		beq	.L4
  77              		.loc 1 38 0
  78 0034 FFF7FEFF 		bl	lbm_eval_init
  79              	.LVL9:
  80 0038 0028     		cmp	r0, #0
  81 003a EBD0     		beq	.L4
  82              		.loc 1 41 0
  83 003c FFF7FEFF 		bl	lbm_extensions_init
  84              	.LVL10:
  85 0040 0030     		adds	r0, r0, #0
  86 0042 18BF     		it	ne
  87 0044 0120     		movne	r0, #1
  88              		.loc 1 45 0
  89 0046 38BD     		pop	{r3, r4, r5, pc}
  90              		.cfi_endproc
  91              	.LFE46:
  92              		.size	lbm_init, .-lbm_init
  93              		.text
  94              	.Letext0:
  95              		.file 2 "/usr/arm-none-eabi/include/machine/_default_types.h"
  96              		.file 3 "/usr/arm-none-eabi/include/sys/lock.h"
  97              		.file 4 "/usr/arm-none-eabi/include/sys/_types.h"
  98              		.file 5 "/usr/lib/gcc/arm-none-eabi/7.3.1/include/stddef.h"
  99              		.file 6 "/usr/arm-none-eabi/include/sys/reent.h"
 100              		.file 7 "/usr/arm-none-eabi/include/sys/_stdint.h"
 101              		.file 8 "lispBM/lispBM/include/lbm_types.h"
 102              		.file 9 "lispBM/lispBM/include/heap.h"
 103              		.file 10 "/usr/arm-none-eabi/include/stdlib.h"
 104              		.file 11 "lispBM/lispBM/include/lbm_memory.h"
 105              		.file 12 "lispBM/lispBM/include/symrepr.h"
 106              		.file 13 "lispBM/lispBM/include/env.h"
 107              		.file 14 "lispBM/lispBM/include/eval_cps.h"
 108              		.file 15 "lispBM/lispBM/include/extensions.h"
 109              		.section	.debug_info,"",%progbits
 110              	.Ldebug_info0:
 111 0000 1B0A0000 		.4byte	0xa1b
 112 0004 0400     		.2byte	0x4
 113 0006 00000000 		.4byte	.Ldebug_abbrev0
 114 000a 04       		.byte	0x4
ARM GAS  /tmp/cchUFGpm.s 			page 3


 115 000b 01       		.uleb128 0x1
 116 000c 1A010000 		.4byte	.LASF139
 117 0010 0C       		.byte	0xc
 118 0011 8D020000 		.4byte	.LASF140
 119 0015 71040000 		.4byte	.LASF141
 120 0019 00000000 		.4byte	.Ldebug_ranges0+0
 121 001d 00000000 		.4byte	0
 122 0021 00000000 		.4byte	.Ldebug_line0
 123 0025 02       		.uleb128 0x2
 124 0026 04       		.byte	0x4
 125 0027 05       		.byte	0x5
 126 0028 696E7400 		.ascii	"int\000"
 127 002c 03       		.uleb128 0x3
 128 002d 04       		.byte	0x4
 129 002e 07       		.byte	0x7
 130 002f 3B000000 		.4byte	.LASF0
 131 0033 03       		.uleb128 0x3
 132 0034 01       		.byte	0x1
 133 0035 06       		.byte	0x6
 134 0036 D6050000 		.4byte	.LASF1
 135 003a 03       		.uleb128 0x3
 136 003b 01       		.byte	0x1
 137 003c 08       		.byte	0x8
 138 003d 6B050000 		.4byte	.LASF2
 139 0041 03       		.uleb128 0x3
 140 0042 02       		.byte	0x2
 141 0043 05       		.byte	0x5
 142 0044 9E040000 		.4byte	.LASF3
 143 0048 03       		.uleb128 0x3
 144 0049 02       		.byte	0x2
 145 004a 07       		.byte	0x7
 146 004b E9050000 		.4byte	.LASF4
 147 004f 03       		.uleb128 0x3
 148 0050 04       		.byte	0x4
 149 0051 05       		.byte	0x5
 150 0052 A8040000 		.4byte	.LASF5
 151 0056 04       		.uleb128 0x4
 152 0057 79050000 		.4byte	.LASF9
 153 005b 02       		.byte	0x2
 154 005c 4F       		.byte	0x4f
 155 005d 61000000 		.4byte	0x61
 156 0061 03       		.uleb128 0x3
 157 0062 04       		.byte	0x4
 158 0063 07       		.byte	0x7
 159 0064 30050000 		.4byte	.LASF6
 160 0068 03       		.uleb128 0x3
 161 0069 08       		.byte	0x8
 162 006a 05       		.byte	0x5
 163 006b C4030000 		.4byte	.LASF7
 164 006f 03       		.uleb128 0x3
 165 0070 08       		.byte	0x8
 166 0071 07       		.byte	0x7
 167 0072 5C020000 		.4byte	.LASF8
 168 0076 04       		.uleb128 0x4
 169 0077 87040000 		.4byte	.LASF10
 170 007b 03       		.byte	0x3
 171 007c 22       		.byte	0x22
ARM GAS  /tmp/cchUFGpm.s 			page 4


 172 007d 81000000 		.4byte	0x81
 173 0081 05       		.uleb128 0x5
 174 0082 04       		.byte	0x4
 175 0083 87000000 		.4byte	0x87
 176 0087 06       		.uleb128 0x6
 177 0088 5C050000 		.4byte	.LASF117
 178 008c 04       		.uleb128 0x4
 179 008d 0B060000 		.4byte	.LASF11
 180 0091 04       		.byte	0x4
 181 0092 2C       		.byte	0x2c
 182 0093 4F000000 		.4byte	0x4f
 183 0097 04       		.uleb128 0x4
 184 0098 A3000000 		.4byte	.LASF12
 185 009c 04       		.byte	0x4
 186 009d 72       		.byte	0x72
 187 009e 4F000000 		.4byte	0x4f
 188 00a2 07       		.uleb128 0x7
 189 00a3 49050000 		.4byte	.LASF13
 190 00a7 05       		.byte	0x5
 191 00a8 6501     		.2byte	0x165
 192 00aa 2C000000 		.4byte	0x2c
 193 00ae 08       		.uleb128 0x8
 194 00af 04       		.byte	0x4
 195 00b0 04       		.byte	0x4
 196 00b1 A6       		.byte	0xa6
 197 00b2 CD000000 		.4byte	0xcd
 198 00b6 09       		.uleb128 0x9
 199 00b7 90030000 		.4byte	.LASF14
 200 00bb 04       		.byte	0x4
 201 00bc A8       		.byte	0xa8
 202 00bd A2000000 		.4byte	0xa2
 203 00c1 09       		.uleb128 0x9
 204 00c2 C2040000 		.4byte	.LASF15
 205 00c6 04       		.byte	0x4
 206 00c7 A9       		.byte	0xa9
 207 00c8 CD000000 		.4byte	0xcd
 208 00cc 00       		.byte	0
 209 00cd 0A       		.uleb128 0xa
 210 00ce 3A000000 		.4byte	0x3a
 211 00d2 DD000000 		.4byte	0xdd
 212 00d6 0B       		.uleb128 0xb
 213 00d7 2C000000 		.4byte	0x2c
 214 00db 03       		.byte	0x3
 215 00dc 00       		.byte	0
 216 00dd 0C       		.uleb128 0xc
 217 00de 08       		.byte	0x8
 218 00df 04       		.byte	0x4
 219 00e0 A3       		.byte	0xa3
 220 00e1 FE000000 		.4byte	0xfe
 221 00e5 0D       		.uleb128 0xd
 222 00e6 F0000000 		.4byte	.LASF16
 223 00ea 04       		.byte	0x4
 224 00eb A5       		.byte	0xa5
 225 00ec 25000000 		.4byte	0x25
 226 00f0 00       		.byte	0
 227 00f1 0D       		.uleb128 0xd
 228 00f2 2B030000 		.4byte	.LASF17
ARM GAS  /tmp/cchUFGpm.s 			page 5


 229 00f6 04       		.byte	0x4
 230 00f7 AA       		.byte	0xaa
 231 00f8 AE000000 		.4byte	0xae
 232 00fc 04       		.byte	0x4
 233 00fd 00       		.byte	0
 234 00fe 04       		.uleb128 0x4
 235 00ff 0F040000 		.4byte	.LASF18
 236 0103 04       		.byte	0x4
 237 0104 AB       		.byte	0xab
 238 0105 DD000000 		.4byte	0xdd
 239 0109 04       		.uleb128 0x4
 240 010a 87030000 		.4byte	.LASF19
 241 010e 04       		.byte	0x4
 242 010f AF       		.byte	0xaf
 243 0110 76000000 		.4byte	0x76
 244 0114 0E       		.uleb128 0xe
 245 0115 04       		.byte	0x4
 246 0116 05       		.uleb128 0x5
 247 0117 04       		.byte	0x4
 248 0118 1C010000 		.4byte	0x11c
 249 011c 03       		.uleb128 0x3
 250 011d 01       		.byte	0x1
 251 011e 08       		.byte	0x8
 252 011f 56030000 		.4byte	.LASF20
 253 0123 0F       		.uleb128 0xf
 254 0124 1C010000 		.4byte	0x11c
 255 0128 04       		.uleb128 0x4
 256 0129 E8030000 		.4byte	.LASF21
 257 012d 06       		.byte	0x6
 258 012e 16       		.byte	0x16
 259 012f 61000000 		.4byte	0x61
 260 0133 10       		.uleb128 0x10
 261 0134 B8000000 		.4byte	.LASF26
 262 0138 18       		.byte	0x18
 263 0139 06       		.byte	0x6
 264 013a 2F       		.byte	0x2f
 265 013b 86010000 		.4byte	0x186
 266 013f 0D       		.uleb128 0xd
 267 0140 0B030000 		.4byte	.LASF22
 268 0144 06       		.byte	0x6
 269 0145 31       		.byte	0x31
 270 0146 86010000 		.4byte	0x186
 271 014a 00       		.byte	0
 272 014b 11       		.uleb128 0x11
 273 014c 5F6B00   		.ascii	"_k\000"
 274 014f 06       		.byte	0x6
 275 0150 32       		.byte	0x32
 276 0151 25000000 		.4byte	0x25
 277 0155 04       		.byte	0x4
 278 0156 0D       		.uleb128 0xd
 279 0157 0A050000 		.4byte	.LASF23
 280 015b 06       		.byte	0x6
 281 015c 32       		.byte	0x32
 282 015d 25000000 		.4byte	0x25
 283 0161 08       		.byte	0x8
 284 0162 0D       		.uleb128 0xd
 285 0163 B6040000 		.4byte	.LASF24
ARM GAS  /tmp/cchUFGpm.s 			page 6


 286 0167 06       		.byte	0x6
 287 0168 32       		.byte	0x32
 288 0169 25000000 		.4byte	0x25
 289 016d 0C       		.byte	0xc
 290 016e 0D       		.uleb128 0xd
 291 016f 88020000 		.4byte	.LASF25
 292 0173 06       		.byte	0x6
 293 0174 32       		.byte	0x32
 294 0175 25000000 		.4byte	0x25
 295 0179 10       		.byte	0x10
 296 017a 11       		.uleb128 0x11
 297 017b 5F7800   		.ascii	"_x\000"
 298 017e 06       		.byte	0x6
 299 017f 33       		.byte	0x33
 300 0180 8C010000 		.4byte	0x18c
 301 0184 14       		.byte	0x14
 302 0185 00       		.byte	0
 303 0186 05       		.uleb128 0x5
 304 0187 04       		.byte	0x4
 305 0188 33010000 		.4byte	0x133
 306 018c 0A       		.uleb128 0xa
 307 018d 28010000 		.4byte	0x128
 308 0191 9C010000 		.4byte	0x19c
 309 0195 0B       		.uleb128 0xb
 310 0196 2C000000 		.4byte	0x2c
 311 019a 00       		.byte	0
 312 019b 00       		.byte	0
 313 019c 10       		.uleb128 0x10
 314 019d 25050000 		.4byte	.LASF27
 315 01a1 24       		.byte	0x24
 316 01a2 06       		.byte	0x6
 317 01a3 37       		.byte	0x37
 318 01a4 15020000 		.4byte	0x215
 319 01a8 0D       		.uleb128 0xd
 320 01a9 E4020000 		.4byte	.LASF28
 321 01ad 06       		.byte	0x6
 322 01ae 39       		.byte	0x39
 323 01af 25000000 		.4byte	0x25
 324 01b3 00       		.byte	0
 325 01b4 0D       		.uleb128 0xd
 326 01b5 FE000000 		.4byte	.LASF29
 327 01b9 06       		.byte	0x6
 328 01ba 3A       		.byte	0x3a
 329 01bb 25000000 		.4byte	0x25
 330 01bf 04       		.byte	0x4
 331 01c0 0D       		.uleb128 0xd
 332 01c1 E6000000 		.4byte	.LASF30
 333 01c5 06       		.byte	0x6
 334 01c6 3B       		.byte	0x3b
 335 01c7 25000000 		.4byte	0x25
 336 01cb 08       		.byte	0x8
 337 01cc 0D       		.uleb128 0xd
 338 01cd 5B030000 		.4byte	.LASF31
 339 01d1 06       		.byte	0x6
 340 01d2 3C       		.byte	0x3c
 341 01d3 25000000 		.4byte	0x25
 342 01d7 0C       		.byte	0xc
ARM GAS  /tmp/cchUFGpm.s 			page 7


 343 01d8 0D       		.uleb128 0xd
 344 01d9 77040000 		.4byte	.LASF32
 345 01dd 06       		.byte	0x6
 346 01de 3D       		.byte	0x3d
 347 01df 25000000 		.4byte	0x25
 348 01e3 10       		.byte	0x10
 349 01e4 0D       		.uleb128 0xd
 350 01e5 DC040000 		.4byte	.LASF33
 351 01e9 06       		.byte	0x6
 352 01ea 3E       		.byte	0x3e
 353 01eb 25000000 		.4byte	0x25
 354 01ef 14       		.byte	0x14
 355 01f0 0D       		.uleb128 0xd
 356 01f1 CB000000 		.4byte	.LASF34
 357 01f5 06       		.byte	0x6
 358 01f6 3F       		.byte	0x3f
 359 01f7 25000000 		.4byte	0x25
 360 01fb 18       		.byte	0x18
 361 01fc 0D       		.uleb128 0xd
 362 01fd F7020000 		.4byte	.LASF35
 363 0201 06       		.byte	0x6
 364 0202 40       		.byte	0x40
 365 0203 25000000 		.4byte	0x25
 366 0207 1C       		.byte	0x1c
 367 0208 0D       		.uleb128 0xd
 368 0209 1A040000 		.4byte	.LASF36
 369 020d 06       		.byte	0x6
 370 020e 41       		.byte	0x41
 371 020f 25000000 		.4byte	0x25
 372 0213 20       		.byte	0x20
 373 0214 00       		.byte	0
 374 0215 12       		.uleb128 0x12
 375 0216 0E000000 		.4byte	.LASF37
 376 021a 0801     		.2byte	0x108
 377 021c 06       		.byte	0x6
 378 021d 4A       		.byte	0x4a
 379 021e 55020000 		.4byte	0x255
 380 0222 0D       		.uleb128 0xd
 381 0223 CE050000 		.4byte	.LASF38
 382 0227 06       		.byte	0x6
 383 0228 4B       		.byte	0x4b
 384 0229 55020000 		.4byte	0x255
 385 022d 00       		.byte	0
 386 022e 0D       		.uleb128 0xd
 387 022f 50050000 		.4byte	.LASF39
 388 0233 06       		.byte	0x6
 389 0234 4C       		.byte	0x4c
 390 0235 55020000 		.4byte	0x255
 391 0239 80       		.byte	0x80
 392 023a 13       		.uleb128 0x13
 393 023b FC050000 		.4byte	.LASF40
 394 023f 06       		.byte	0x6
 395 0240 4E       		.byte	0x4e
 396 0241 28010000 		.4byte	0x128
 397 0245 0001     		.2byte	0x100
 398 0247 13       		.uleb128 0x13
 399 0248 53060000 		.4byte	.LASF41
ARM GAS  /tmp/cchUFGpm.s 			page 8


 400 024c 06       		.byte	0x6
 401 024d 51       		.byte	0x51
 402 024e 28010000 		.4byte	0x128
 403 0252 0401     		.2byte	0x104
 404 0254 00       		.byte	0
 405 0255 0A       		.uleb128 0xa
 406 0256 14010000 		.4byte	0x114
 407 025a 65020000 		.4byte	0x265
 408 025e 0B       		.uleb128 0xb
 409 025f 2C000000 		.4byte	0x2c
 410 0263 1F       		.byte	0x1f
 411 0264 00       		.byte	0
 412 0265 12       		.uleb128 0x12
 413 0266 96040000 		.4byte	.LASF42
 414 026a 9001     		.2byte	0x190
 415 026c 06       		.byte	0x6
 416 026d 5D       		.byte	0x5d
 417 026e A3020000 		.4byte	0x2a3
 418 0272 0D       		.uleb128 0xd
 419 0273 0B030000 		.4byte	.LASF22
 420 0277 06       		.byte	0x6
 421 0278 5E       		.byte	0x5e
 422 0279 A3020000 		.4byte	0x2a3
 423 027d 00       		.byte	0
 424 027e 0D       		.uleb128 0xd
 425 027f 06030000 		.4byte	.LASF43
 426 0283 06       		.byte	0x6
 427 0284 5F       		.byte	0x5f
 428 0285 25000000 		.4byte	0x25
 429 0289 04       		.byte	0x4
 430 028a 0D       		.uleb128 0xd
 431 028b AB000000 		.4byte	.LASF44
 432 028f 06       		.byte	0x6
 433 0290 61       		.byte	0x61
 434 0291 A9020000 		.4byte	0x2a9
 435 0295 08       		.byte	0x8
 436 0296 0D       		.uleb128 0xd
 437 0297 0E000000 		.4byte	.LASF37
 438 029b 06       		.byte	0x6
 439 029c 62       		.byte	0x62
 440 029d 15020000 		.4byte	0x215
 441 02a1 88       		.byte	0x88
 442 02a2 00       		.byte	0
 443 02a3 05       		.uleb128 0x5
 444 02a4 04       		.byte	0x4
 445 02a5 65020000 		.4byte	0x265
 446 02a9 0A       		.uleb128 0xa
 447 02aa B9020000 		.4byte	0x2b9
 448 02ae B9020000 		.4byte	0x2b9
 449 02b2 0B       		.uleb128 0xb
 450 02b3 2C000000 		.4byte	0x2c
 451 02b7 1F       		.byte	0x1f
 452 02b8 00       		.byte	0
 453 02b9 05       		.uleb128 0x5
 454 02ba 04       		.byte	0x4
 455 02bb BF020000 		.4byte	0x2bf
 456 02bf 14       		.uleb128 0x14
ARM GAS  /tmp/cchUFGpm.s 			page 9


 457 02c0 10       		.uleb128 0x10
 458 02c1 96050000 		.4byte	.LASF45
 459 02c5 08       		.byte	0x8
 460 02c6 06       		.byte	0x6
 461 02c7 75       		.byte	0x75
 462 02c8 E5020000 		.4byte	0x2e5
 463 02cc 0D       		.uleb128 0xd
 464 02cd D2030000 		.4byte	.LASF46
 465 02d1 06       		.byte	0x6
 466 02d2 76       		.byte	0x76
 467 02d3 E5020000 		.4byte	0x2e5
 468 02d7 00       		.byte	0
 469 02d8 0D       		.uleb128 0xd
 470 02d9 05060000 		.4byte	.LASF47
 471 02dd 06       		.byte	0x6
 472 02de 77       		.byte	0x77
 473 02df 25000000 		.4byte	0x25
 474 02e3 04       		.byte	0x4
 475 02e4 00       		.byte	0
 476 02e5 05       		.uleb128 0x5
 477 02e6 04       		.byte	0x4
 478 02e7 3A000000 		.4byte	0x3a
 479 02eb 10       		.uleb128 0x10
 480 02ec 80020000 		.4byte	.LASF48
 481 02f0 68       		.byte	0x68
 482 02f1 06       		.byte	0x6
 483 02f2 B5       		.byte	0xb5
 484 02f3 15040000 		.4byte	0x415
 485 02f7 11       		.uleb128 0x11
 486 02f8 5F7000   		.ascii	"_p\000"
 487 02fb 06       		.byte	0x6
 488 02fc B6       		.byte	0xb6
 489 02fd E5020000 		.4byte	0x2e5
 490 0301 00       		.byte	0
 491 0302 11       		.uleb128 0x11
 492 0303 5F7200   		.ascii	"_r\000"
 493 0306 06       		.byte	0x6
 494 0307 B7       		.byte	0xb7
 495 0308 25000000 		.4byte	0x25
 496 030c 04       		.byte	0x4
 497 030d 11       		.uleb128 0x11
 498 030e 5F7700   		.ascii	"_w\000"
 499 0311 06       		.byte	0x6
 500 0312 B8       		.byte	0xb8
 501 0313 25000000 		.4byte	0x25
 502 0317 08       		.byte	0x8
 503 0318 0D       		.uleb128 0xd
 504 0319 51000000 		.4byte	.LASF49
 505 031d 06       		.byte	0x6
 506 031e B9       		.byte	0xb9
 507 031f 41000000 		.4byte	0x41
 508 0323 0C       		.byte	0xc
 509 0324 0D       		.uleb128 0xd
 510 0325 FF030000 		.4byte	.LASF50
 511 0329 06       		.byte	0x6
 512 032a BA       		.byte	0xba
 513 032b 41000000 		.4byte	0x41
ARM GAS  /tmp/cchUFGpm.s 			page 10


 514 032f 0E       		.byte	0xe
 515 0330 11       		.uleb128 0x11
 516 0331 5F626600 		.ascii	"_bf\000"
 517 0335 06       		.byte	0x6
 518 0336 BB       		.byte	0xbb
 519 0337 C0020000 		.4byte	0x2c0
 520 033b 10       		.byte	0x10
 521 033c 0D       		.uleb128 0xd
 522 033d 48000000 		.4byte	.LASF51
 523 0341 06       		.byte	0x6
 524 0342 BC       		.byte	0xbc
 525 0343 25000000 		.4byte	0x25
 526 0347 18       		.byte	0x18
 527 0348 0D       		.uleb128 0xd
 528 0349 B0000000 		.4byte	.LASF52
 529 034d 06       		.byte	0x6
 530 034e C3       		.byte	0xc3
 531 034f 14010000 		.4byte	0x114
 532 0353 1C       		.byte	0x1c
 533 0354 0D       		.uleb128 0xd
 534 0355 68000000 		.4byte	.LASF53
 535 0359 06       		.byte	0x6
 536 035a C5       		.byte	0xc5
 537 035b 70050000 		.4byte	0x570
 538 035f 20       		.byte	0x20
 539 0360 0D       		.uleb128 0xd
 540 0361 8F040000 		.4byte	.LASF54
 541 0365 06       		.byte	0x6
 542 0366 C7       		.byte	0xc7
 543 0367 9A050000 		.4byte	0x59a
 544 036b 24       		.byte	0x24
 545 036c 0D       		.uleb128 0xd
 546 036d 77060000 		.4byte	.LASF55
 547 0371 06       		.byte	0x6
 548 0372 CA       		.byte	0xca
 549 0373 BE050000 		.4byte	0x5be
 550 0377 28       		.byte	0x28
 551 0378 0D       		.uleb128 0xd
 552 0379 9C030000 		.4byte	.LASF56
 553 037d 06       		.byte	0x6
 554 037e CB       		.byte	0xcb
 555 037f D8050000 		.4byte	0x5d8
 556 0383 2C       		.byte	0x2c
 557 0384 11       		.uleb128 0x11
 558 0385 5F756200 		.ascii	"_ub\000"
 559 0389 06       		.byte	0x6
 560 038a CE       		.byte	0xce
 561 038b C0020000 		.4byte	0x2c0
 562 038f 30       		.byte	0x30
 563 0390 11       		.uleb128 0x11
 564 0391 5F757000 		.ascii	"_up\000"
 565 0395 06       		.byte	0x6
 566 0396 CF       		.byte	0xcf
 567 0397 E5020000 		.4byte	0x2e5
 568 039b 38       		.byte	0x38
 569 039c 11       		.uleb128 0x11
 570 039d 5F757200 		.ascii	"_ur\000"
ARM GAS  /tmp/cchUFGpm.s 			page 11


 571 03a1 06       		.byte	0x6
 572 03a2 D0       		.byte	0xd0
 573 03a3 25000000 		.4byte	0x25
 574 03a7 3C       		.byte	0x3c
 575 03a8 0D       		.uleb128 0xd
 576 03a9 8E060000 		.4byte	.LASF57
 577 03ad 06       		.byte	0x6
 578 03ae D3       		.byte	0xd3
 579 03af DE050000 		.4byte	0x5de
 580 03b3 40       		.byte	0x40
 581 03b4 0D       		.uleb128 0xd
 582 03b5 1F060000 		.4byte	.LASF58
 583 03b9 06       		.byte	0x6
 584 03ba D4       		.byte	0xd4
 585 03bb EE050000 		.4byte	0x5ee
 586 03bf 43       		.byte	0x43
 587 03c0 11       		.uleb128 0x11
 588 03c1 5F6C6200 		.ascii	"_lb\000"
 589 03c5 06       		.byte	0x6
 590 03c6 D7       		.byte	0xd7
 591 03c7 C0020000 		.4byte	0x2c0
 592 03cb 44       		.byte	0x44
 593 03cc 0D       		.uleb128 0xd
 594 03cd 1C050000 		.4byte	.LASF59
 595 03d1 06       		.byte	0x6
 596 03d2 DA       		.byte	0xda
 597 03d3 25000000 		.4byte	0x25
 598 03d7 4C       		.byte	0x4c
 599 03d8 0D       		.uleb128 0xd
 600 03d9 AF020000 		.4byte	.LASF60
 601 03dd 06       		.byte	0x6
 602 03de DB       		.byte	0xdb
 603 03df 8C000000 		.4byte	0x8c
 604 03e3 50       		.byte	0x50
 605 03e4 0D       		.uleb128 0xd
 606 03e5 BC040000 		.4byte	.LASF61
 607 03e9 06       		.byte	0x6
 608 03ea DE       		.byte	0xde
 609 03eb 33040000 		.4byte	0x433
 610 03ef 54       		.byte	0x54
 611 03f0 0D       		.uleb128 0xd
 612 03f1 2A050000 		.4byte	.LASF62
 613 03f5 06       		.byte	0x6
 614 03f6 E2       		.byte	0xe2
 615 03f7 09010000 		.4byte	0x109
 616 03fb 58       		.byte	0x58
 617 03fc 0D       		.uleb128 0xd
 618 03fd 5F000000 		.4byte	.LASF63
 619 0401 06       		.byte	0x6
 620 0402 E4       		.byte	0xe4
 621 0403 FE000000 		.4byte	0xfe
 622 0407 5C       		.byte	0x5c
 623 0408 0D       		.uleb128 0xd
 624 0409 4B060000 		.4byte	.LASF64
 625 040d 06       		.byte	0x6
 626 040e E5       		.byte	0xe5
 627 040f 25000000 		.4byte	0x25
ARM GAS  /tmp/cchUFGpm.s 			page 12


 628 0413 64       		.byte	0x64
 629 0414 00       		.byte	0
 630 0415 15       		.uleb128 0x15
 631 0416 25000000 		.4byte	0x25
 632 041a 33040000 		.4byte	0x433
 633 041e 16       		.uleb128 0x16
 634 041f 33040000 		.4byte	0x433
 635 0423 16       		.uleb128 0x16
 636 0424 14010000 		.4byte	0x114
 637 0428 16       		.uleb128 0x16
 638 0429 16010000 		.4byte	0x116
 639 042d 16       		.uleb128 0x16
 640 042e 25000000 		.4byte	0x25
 641 0432 00       		.byte	0
 642 0433 05       		.uleb128 0x5
 643 0434 04       		.byte	0x4
 644 0435 3E040000 		.4byte	0x43e
 645 0439 0F       		.uleb128 0xf
 646 043a 33040000 		.4byte	0x433
 647 043e 17       		.uleb128 0x17
 648 043f E2050000 		.4byte	.LASF65
 649 0443 2804     		.2byte	0x428
 650 0445 06       		.byte	0x6
 651 0446 6002     		.2byte	0x260
 652 0448 70050000 		.4byte	0x570
 653 044c 18       		.uleb128 0x18
 654 044d 58000000 		.4byte	.LASF66
 655 0451 06       		.byte	0x6
 656 0452 6202     		.2byte	0x262
 657 0454 25000000 		.4byte	0x25
 658 0458 00       		.byte	0
 659 0459 18       		.uleb128 0x18
 660 045a AE030000 		.4byte	.LASF67
 661 045e 06       		.byte	0x6
 662 045f 6702     		.2byte	0x267
 663 0461 45060000 		.4byte	0x645
 664 0465 04       		.byte	0x4
 665 0466 18       		.uleb128 0x18
 666 0467 8D000000 		.4byte	.LASF68
 667 046b 06       		.byte	0x6
 668 046c 6702     		.2byte	0x267
 669 046e 45060000 		.4byte	0x645
 670 0472 08       		.byte	0x8
 671 0473 18       		.uleb128 0x18
 672 0474 7D060000 		.4byte	.LASF69
 673 0478 06       		.byte	0x6
 674 0479 6702     		.2byte	0x267
 675 047b 45060000 		.4byte	0x645
 676 047f 0C       		.byte	0xc
 677 0480 18       		.uleb128 0x18
 678 0481 01030000 		.4byte	.LASF70
 679 0485 06       		.byte	0x6
 680 0486 6902     		.2byte	0x269
 681 0488 25000000 		.4byte	0x25
 682 048c 10       		.byte	0x10
 683 048d 18       		.uleb128 0x18
 684 048e B7020000 		.4byte	.LASF71
ARM GAS  /tmp/cchUFGpm.s 			page 13


 685 0492 06       		.byte	0x6
 686 0493 6A02     		.2byte	0x26a
 687 0495 27080000 		.4byte	0x827
 688 0499 14       		.byte	0x14
 689 049a 18       		.uleb128 0x18
 690 049b 32060000 		.4byte	.LASF72
 691 049f 06       		.byte	0x6
 692 04a0 6D02     		.2byte	0x26d
 693 04a2 25000000 		.4byte	0x25
 694 04a6 30       		.byte	0x30
 695 04a7 18       		.uleb128 0x18
 696 04a8 C6050000 		.4byte	.LASF73
 697 04ac 06       		.byte	0x6
 698 04ad 6E02     		.2byte	0x26e
 699 04af 3C080000 		.4byte	0x83c
 700 04b3 34       		.byte	0x34
 701 04b4 18       		.uleb128 0x18
 702 04b5 A3030000 		.4byte	.LASF74
 703 04b9 06       		.byte	0x6
 704 04ba 7002     		.2byte	0x270
 705 04bc 25000000 		.4byte	0x25
 706 04c0 38       		.byte	0x38
 707 04c1 18       		.uleb128 0x18
 708 04c2 05040000 		.4byte	.LASF75
 709 04c6 06       		.byte	0x6
 710 04c7 7202     		.2byte	0x272
 711 04c9 4D080000 		.4byte	0x84d
 712 04cd 3C       		.byte	0x3c
 713 04ce 18       		.uleb128 0x18
 714 04cf D5000000 		.4byte	.LASF76
 715 04d3 06       		.byte	0x6
 716 04d4 7502     		.2byte	0x275
 717 04d6 86010000 		.4byte	0x186
 718 04da 40       		.byte	0x40
 719 04db 18       		.uleb128 0x18
 720 04dc 52020000 		.4byte	.LASF77
 721 04e0 06       		.byte	0x6
 722 04e1 7602     		.2byte	0x276
 723 04e3 25000000 		.4byte	0x25
 724 04e7 44       		.byte	0x44
 725 04e8 18       		.uleb128 0x18
 726 04e9 33030000 		.4byte	.LASF78
 727 04ed 06       		.byte	0x6
 728 04ee 7702     		.2byte	0x277
 729 04f0 86010000 		.4byte	0x186
 730 04f4 48       		.byte	0x48
 731 04f5 18       		.uleb128 0x18
 732 04f6 D8030000 		.4byte	.LASF79
 733 04fa 06       		.byte	0x6
 734 04fb 7802     		.2byte	0x278
 735 04fd 53080000 		.4byte	0x853
 736 0501 4C       		.byte	0x4c
 737 0502 18       		.uleb128 0x18
 738 0503 02050000 		.4byte	.LASF80
 739 0507 06       		.byte	0x6
 740 0508 7B02     		.2byte	0x27b
 741 050a 25000000 		.4byte	0x25
ARM GAS  /tmp/cchUFGpm.s 			page 14


 742 050e 50       		.byte	0x50
 743 050f 18       		.uleb128 0x18
 744 0510 63050000 		.4byte	.LASF81
 745 0514 06       		.byte	0x6
 746 0515 7C02     		.2byte	0x27c
 747 0517 16010000 		.4byte	0x116
 748 051b 54       		.byte	0x54
 749 051c 18       		.uleb128 0x18
 750 051d FD040000 		.4byte	.LASF82
 751 0521 06       		.byte	0x6
 752 0522 9F02     		.2byte	0x29f
 753 0524 05080000 		.4byte	0x805
 754 0528 58       		.byte	0x58
 755 0529 19       		.uleb128 0x19
 756 052a 96040000 		.4byte	.LASF42
 757 052e 06       		.byte	0x6
 758 052f A302     		.2byte	0x2a3
 759 0531 A3020000 		.4byte	0x2a3
 760 0535 4801     		.2byte	0x148
 761 0537 19       		.uleb128 0x19
 762 0538 7E030000 		.4byte	.LASF83
 763 053c 06       		.byte	0x6
 764 053d A402     		.2byte	0x2a4
 765 053f 65020000 		.4byte	0x265
 766 0543 4C01     		.2byte	0x14c
 767 0545 19       		.uleb128 0x19
 768 0546 65030000 		.4byte	.LASF84
 769 054a 06       		.byte	0x6
 770 054b A802     		.2byte	0x2a8
 771 054d 64080000 		.4byte	0x864
 772 0551 DC02     		.2byte	0x2dc
 773 0553 19       		.uleb128 0x19
 774 0554 A3050000 		.4byte	.LASF85
 775 0558 06       		.byte	0x6
 776 0559 AD02     		.2byte	0x2ad
 777 055b 0A060000 		.4byte	0x60a
 778 055f E002     		.2byte	0x2e0
 779 0561 19       		.uleb128 0x19
 780 0562 B1040000 		.4byte	.LASF86
 781 0566 06       		.byte	0x6
 782 0567 AF02     		.2byte	0x2af
 783 0569 70080000 		.4byte	0x870
 784 056d EC02     		.2byte	0x2ec
 785 056f 00       		.byte	0
 786 0570 05       		.uleb128 0x5
 787 0571 04       		.byte	0x4
 788 0572 15040000 		.4byte	0x415
 789 0576 15       		.uleb128 0x15
 790 0577 25000000 		.4byte	0x25
 791 057b 94050000 		.4byte	0x594
 792 057f 16       		.uleb128 0x16
 793 0580 33040000 		.4byte	0x433
 794 0584 16       		.uleb128 0x16
 795 0585 14010000 		.4byte	0x114
 796 0589 16       		.uleb128 0x16
 797 058a 94050000 		.4byte	0x594
 798 058e 16       		.uleb128 0x16
ARM GAS  /tmp/cchUFGpm.s 			page 15


 799 058f 25000000 		.4byte	0x25
 800 0593 00       		.byte	0
 801 0594 05       		.uleb128 0x5
 802 0595 04       		.byte	0x4
 803 0596 23010000 		.4byte	0x123
 804 059a 05       		.uleb128 0x5
 805 059b 04       		.byte	0x4
 806 059c 76050000 		.4byte	0x576
 807 05a0 15       		.uleb128 0x15
 808 05a1 97000000 		.4byte	0x97
 809 05a5 BE050000 		.4byte	0x5be
 810 05a9 16       		.uleb128 0x16
 811 05aa 33040000 		.4byte	0x433
 812 05ae 16       		.uleb128 0x16
 813 05af 14010000 		.4byte	0x114
 814 05b3 16       		.uleb128 0x16
 815 05b4 97000000 		.4byte	0x97
 816 05b8 16       		.uleb128 0x16
 817 05b9 25000000 		.4byte	0x25
 818 05bd 00       		.byte	0
 819 05be 05       		.uleb128 0x5
 820 05bf 04       		.byte	0x4
 821 05c0 A0050000 		.4byte	0x5a0
 822 05c4 15       		.uleb128 0x15
 823 05c5 25000000 		.4byte	0x25
 824 05c9 D8050000 		.4byte	0x5d8
 825 05cd 16       		.uleb128 0x16
 826 05ce 33040000 		.4byte	0x433
 827 05d2 16       		.uleb128 0x16
 828 05d3 14010000 		.4byte	0x114
 829 05d7 00       		.byte	0
 830 05d8 05       		.uleb128 0x5
 831 05d9 04       		.byte	0x4
 832 05da C4050000 		.4byte	0x5c4
 833 05de 0A       		.uleb128 0xa
 834 05df 3A000000 		.4byte	0x3a
 835 05e3 EE050000 		.4byte	0x5ee
 836 05e7 0B       		.uleb128 0xb
 837 05e8 2C000000 		.4byte	0x2c
 838 05ec 02       		.byte	0x2
 839 05ed 00       		.byte	0
 840 05ee 0A       		.uleb128 0xa
 841 05ef 3A000000 		.4byte	0x3a
 842 05f3 FE050000 		.4byte	0x5fe
 843 05f7 0B       		.uleb128 0xb
 844 05f8 2C000000 		.4byte	0x2c
 845 05fc 00       		.byte	0
 846 05fd 00       		.byte	0
 847 05fe 07       		.uleb128 0x7
 848 05ff A8020000 		.4byte	.LASF87
 849 0603 06       		.byte	0x6
 850 0604 1F01     		.2byte	0x11f
 851 0606 EB020000 		.4byte	0x2eb
 852 060a 1A       		.uleb128 0x1a
 853 060b 9D050000 		.4byte	.LASF88
 854 060f 0C       		.byte	0xc
 855 0610 06       		.byte	0x6
ARM GAS  /tmp/cchUFGpm.s 			page 16


 856 0611 2301     		.2byte	0x123
 857 0613 3F060000 		.4byte	0x63f
 858 0617 18       		.uleb128 0x18
 859 0618 0B030000 		.4byte	.LASF22
 860 061c 06       		.byte	0x6
 861 061d 2501     		.2byte	0x125
 862 061f 3F060000 		.4byte	0x63f
 863 0623 00       		.byte	0
 864 0624 18       		.uleb128 0x18
 865 0625 42050000 		.4byte	.LASF89
 866 0629 06       		.byte	0x6
 867 062a 2601     		.2byte	0x126
 868 062c 25000000 		.4byte	0x25
 869 0630 04       		.byte	0x4
 870 0631 18       		.uleb128 0x18
 871 0632 96030000 		.4byte	.LASF90
 872 0636 06       		.byte	0x6
 873 0637 2701     		.2byte	0x127
 874 0639 45060000 		.4byte	0x645
 875 063d 08       		.byte	0x8
 876 063e 00       		.byte	0
 877 063f 05       		.uleb128 0x5
 878 0640 04       		.byte	0x4
 879 0641 0A060000 		.4byte	0x60a
 880 0645 05       		.uleb128 0x5
 881 0646 04       		.byte	0x4
 882 0647 FE050000 		.4byte	0x5fe
 883 064b 1A       		.uleb128 0x1a
 884 064c 3E020000 		.4byte	.LASF91
 885 0650 0E       		.byte	0xe
 886 0651 06       		.byte	0x6
 887 0652 3F01     		.2byte	0x13f
 888 0654 80060000 		.4byte	0x680
 889 0658 18       		.uleb128 0x18
 890 0659 5B060000 		.4byte	.LASF92
 891 065d 06       		.byte	0x6
 892 065e 4001     		.2byte	0x140
 893 0660 80060000 		.4byte	0x680
 894 0664 00       		.byte	0
 895 0665 18       		.uleb128 0x18
 896 0666 E2030000 		.4byte	.LASF93
 897 066a 06       		.byte	0x6
 898 066b 4101     		.2byte	0x141
 899 066d 80060000 		.4byte	0x680
 900 0671 06       		.byte	0x6
 901 0672 18       		.uleb128 0x18
 902 0673 91050000 		.4byte	.LASF94
 903 0677 06       		.byte	0x6
 904 0678 4201     		.2byte	0x142
 905 067a 48000000 		.4byte	0x48
 906 067e 0C       		.byte	0xc
 907 067f 00       		.byte	0
 908 0680 0A       		.uleb128 0xa
 909 0681 48000000 		.4byte	0x48
 910 0685 90060000 		.4byte	0x690
 911 0689 0B       		.uleb128 0xb
 912 068a 2C000000 		.4byte	0x2c
ARM GAS  /tmp/cchUFGpm.s 			page 17


 913 068e 02       		.byte	0x2
 914 068f 00       		.byte	0
 915 0690 1B       		.uleb128 0x1b
 916 0691 D0       		.byte	0xd0
 917 0692 06       		.byte	0x6
 918 0693 8002     		.2byte	0x280
 919 0695 91070000 		.4byte	0x791
 920 0699 18       		.uleb128 0x18
 921 069a 25060000 		.4byte	.LASF95
 922 069e 06       		.byte	0x6
 923 069f 8202     		.2byte	0x282
 924 06a1 2C000000 		.4byte	0x2c
 925 06a5 00       		.byte	0
 926 06a6 18       		.uleb128 0x18
 927 06a7 AB050000 		.4byte	.LASF96
 928 06ab 06       		.byte	0x6
 929 06ac 8302     		.2byte	0x283
 930 06ae 16010000 		.4byte	0x116
 931 06b2 04       		.byte	0x4
 932 06b3 18       		.uleb128 0x18
 933 06b4 73020000 		.4byte	.LASF97
 934 06b8 06       		.byte	0x6
 935 06b9 8402     		.2byte	0x284
 936 06bb 91070000 		.4byte	0x791
 937 06bf 08       		.byte	0x8
 938 06c0 18       		.uleb128 0x18
 939 06c1 E6040000 		.4byte	.LASF98
 940 06c5 06       		.byte	0x6
 941 06c6 8502     		.2byte	0x285
 942 06c8 9C010000 		.4byte	0x19c
 943 06cc 24       		.byte	0x24
 944 06cd 18       		.uleb128 0x18
 945 06ce B5030000 		.4byte	.LASF99
 946 06d2 06       		.byte	0x6
 947 06d3 8602     		.2byte	0x286
 948 06d5 25000000 		.4byte	0x25
 949 06d9 48       		.byte	0x48
 950 06da 18       		.uleb128 0x18
 951 06db 61060000 		.4byte	.LASF100
 952 06df 06       		.byte	0x6
 953 06e0 8702     		.2byte	0x287
 954 06e2 6F000000 		.4byte	0x6f
 955 06e6 50       		.byte	0x50
 956 06e7 18       		.uleb128 0x18
 957 06e8 2A000000 		.4byte	.LASF101
 958 06ec 06       		.byte	0x6
 959 06ed 8802     		.2byte	0x288
 960 06ef 4B060000 		.4byte	0x64b
 961 06f3 58       		.byte	0x58
 962 06f4 18       		.uleb128 0x18
 963 06f5 49030000 		.4byte	.LASF102
 964 06f9 06       		.byte	0x6
 965 06fa 8902     		.2byte	0x289
 966 06fc FE000000 		.4byte	0xfe
 967 0700 68       		.byte	0x68
 968 0701 18       		.uleb128 0x18
 969 0702 B8050000 		.4byte	.LASF103
ARM GAS  /tmp/cchUFGpm.s 			page 18


 970 0706 06       		.byte	0x6
 971 0707 8A02     		.2byte	0x28a
 972 0709 FE000000 		.4byte	0xfe
 973 070d 70       		.byte	0x70
 974 070e 18       		.uleb128 0x18
 975 070f 1C000000 		.4byte	.LASF104
 976 0713 06       		.byte	0x6
 977 0714 8B02     		.2byte	0x28b
 978 0716 FE000000 		.4byte	0xfe
 979 071a 78       		.byte	0x78
 980 071b 18       		.uleb128 0x18
 981 071c 12050000 		.4byte	.LASF105
 982 0720 06       		.byte	0x6
 983 0721 8C02     		.2byte	0x28c
 984 0723 A1070000 		.4byte	0x7a1
 985 0727 80       		.byte	0x80
 986 0728 18       		.uleb128 0x18
 987 0729 2F000000 		.4byte	.LASF106
 988 072d 06       		.byte	0x6
 989 072e 8D02     		.2byte	0x28d
 990 0730 B1070000 		.4byte	0x7b1
 991 0734 88       		.byte	0x88
 992 0735 18       		.uleb128 0x18
 993 0736 84050000 		.4byte	.LASF107
 994 073a 06       		.byte	0x6
 995 073b 8E02     		.2byte	0x28e
 996 073d 25000000 		.4byte	0x25
 997 0741 A0       		.byte	0xa0
 998 0742 18       		.uleb128 0x18
 999 0743 6E000000 		.4byte	.LASF108
 1000 0747 06       		.byte	0x6
 1001 0748 8F02     		.2byte	0x28f
 1002 074a FE000000 		.4byte	0xfe
 1003 074e A4       		.byte	0xa4
 1004 074f 18       		.uleb128 0x18
 1005 0750 6F030000 		.4byte	.LASF109
 1006 0754 06       		.byte	0x6
 1007 0755 9002     		.2byte	0x290
 1008 0757 FE000000 		.4byte	0xfe
 1009 075b AC       		.byte	0xac
 1010 075c 18       		.uleb128 0x18
 1011 075d 11030000 		.4byte	.LASF110
 1012 0761 06       		.byte	0x6
 1013 0762 9102     		.2byte	0x291
 1014 0764 FE000000 		.4byte	0xfe
 1015 0768 B4       		.byte	0xb4
 1016 0769 18       		.uleb128 0x18
 1017 076a F0030000 		.4byte	.LASF111
 1018 076e 06       		.byte	0x6
 1019 076f 9202     		.2byte	0x292
 1020 0771 FE000000 		.4byte	0xfe
 1021 0775 BC       		.byte	0xbc
 1022 0776 18       		.uleb128 0x18
 1023 0777 38030000 		.4byte	.LASF112
 1024 077b 06       		.byte	0x6
 1025 077c 9302     		.2byte	0x293
 1026 077e FE000000 		.4byte	0xfe
ARM GAS  /tmp/cchUFGpm.s 			page 19


 1027 0782 C4       		.byte	0xc4
 1028 0783 18       		.uleb128 0x18
 1029 0784 32040000 		.4byte	.LASF113
 1030 0788 06       		.byte	0x6
 1031 0789 9402     		.2byte	0x294
 1032 078b 25000000 		.4byte	0x25
 1033 078f CC       		.byte	0xcc
 1034 0790 00       		.byte	0
 1035 0791 0A       		.uleb128 0xa
 1036 0792 1C010000 		.4byte	0x11c
 1037 0796 A1070000 		.4byte	0x7a1
 1038 079a 0B       		.uleb128 0xb
 1039 079b 2C000000 		.4byte	0x2c
 1040 079f 19       		.byte	0x19
 1041 07a0 00       		.byte	0
 1042 07a1 0A       		.uleb128 0xa
 1043 07a2 1C010000 		.4byte	0x11c
 1044 07a6 B1070000 		.4byte	0x7b1
 1045 07aa 0B       		.uleb128 0xb
 1046 07ab 2C000000 		.4byte	0x2c
 1047 07af 07       		.byte	0x7
 1048 07b0 00       		.byte	0
 1049 07b1 0A       		.uleb128 0xa
 1050 07b2 1C010000 		.4byte	0x11c
 1051 07b6 C1070000 		.4byte	0x7c1
 1052 07ba 0B       		.uleb128 0xb
 1053 07bb 2C000000 		.4byte	0x2c
 1054 07bf 17       		.byte	0x17
 1055 07c0 00       		.byte	0
 1056 07c1 1B       		.uleb128 0x1b
 1057 07c2 F0       		.byte	0xf0
 1058 07c3 06       		.byte	0x6
 1059 07c4 9902     		.2byte	0x299
 1060 07c6 E5070000 		.4byte	0x7e5
 1061 07ca 18       		.uleb128 0x18
 1062 07cb 13010000 		.4byte	.LASF114
 1063 07cf 06       		.byte	0x6
 1064 07d0 9C02     		.2byte	0x29c
 1065 07d2 E5070000 		.4byte	0x7e5
 1066 07d6 00       		.byte	0
 1067 07d7 18       		.uleb128 0x18
 1068 07d8 85060000 		.4byte	.LASF115
 1069 07dc 06       		.byte	0x6
 1070 07dd 9D02     		.2byte	0x29d
 1071 07df F5070000 		.4byte	0x7f5
 1072 07e3 78       		.byte	0x78
 1073 07e4 00       		.byte	0
 1074 07e5 0A       		.uleb128 0xa
 1075 07e6 E5020000 		.4byte	0x2e5
 1076 07ea F5070000 		.4byte	0x7f5
 1077 07ee 0B       		.uleb128 0xb
 1078 07ef 2C000000 		.4byte	0x2c
 1079 07f3 1D       		.byte	0x1d
 1080 07f4 00       		.byte	0
 1081 07f5 0A       		.uleb128 0xa
 1082 07f6 2C000000 		.4byte	0x2c
 1083 07fa 05080000 		.4byte	0x805
ARM GAS  /tmp/cchUFGpm.s 			page 20


 1084 07fe 0B       		.uleb128 0xb
 1085 07ff 2C000000 		.4byte	0x2c
 1086 0803 1D       		.byte	0x1d
 1087 0804 00       		.byte	0
 1088 0805 1C       		.uleb128 0x1c
 1089 0806 F0       		.byte	0xf0
 1090 0807 06       		.byte	0x6
 1091 0808 7E02     		.2byte	0x27e
 1092 080a 27080000 		.4byte	0x827
 1093 080e 1D       		.uleb128 0x1d
 1094 080f E2050000 		.4byte	.LASF65
 1095 0813 06       		.byte	0x6
 1096 0814 9502     		.2byte	0x295
 1097 0816 90060000 		.4byte	0x690
 1098 081a 1D       		.uleb128 0x1d
 1099 081b F5040000 		.4byte	.LASF116
 1100 081f 06       		.byte	0x6
 1101 0820 9E02     		.2byte	0x29e
 1102 0822 C1070000 		.4byte	0x7c1
 1103 0826 00       		.byte	0
 1104 0827 0A       		.uleb128 0xa
 1105 0828 1C010000 		.4byte	0x11c
 1106 082c 37080000 		.4byte	0x837
 1107 0830 0B       		.uleb128 0xb
 1108 0831 2C000000 		.4byte	0x2c
 1109 0835 18       		.byte	0x18
 1110 0836 00       		.byte	0
 1111 0837 06       		.uleb128 0x6
 1112 0838 6C060000 		.4byte	.LASF118
 1113 083c 05       		.uleb128 0x5
 1114 083d 04       		.byte	0x4
 1115 083e 37080000 		.4byte	0x837
 1116 0842 1E       		.uleb128 0x1e
 1117 0843 4D080000 		.4byte	0x84d
 1118 0847 16       		.uleb128 0x16
 1119 0848 33040000 		.4byte	0x433
 1120 084c 00       		.byte	0
 1121 084d 05       		.uleb128 0x5
 1122 084e 04       		.byte	0x4
 1123 084f 42080000 		.4byte	0x842
 1124 0853 05       		.uleb128 0x5
 1125 0854 04       		.byte	0x4
 1126 0855 86010000 		.4byte	0x186
 1127 0859 1E       		.uleb128 0x1e
 1128 085a 64080000 		.4byte	0x864
 1129 085e 16       		.uleb128 0x16
 1130 085f 25000000 		.4byte	0x25
 1131 0863 00       		.byte	0
 1132 0864 05       		.uleb128 0x5
 1133 0865 04       		.byte	0x4
 1134 0866 6A080000 		.4byte	0x86a
 1135 086a 05       		.uleb128 0x5
 1136 086b 04       		.byte	0x4
 1137 086c 59080000 		.4byte	0x859
 1138 0870 0A       		.uleb128 0xa
 1139 0871 FE050000 		.4byte	0x5fe
 1140 0875 80080000 		.4byte	0x880
ARM GAS  /tmp/cchUFGpm.s 			page 21


 1141 0879 0B       		.uleb128 0xb
 1142 087a 2C000000 		.4byte	0x2c
 1143 087e 02       		.byte	0x2
 1144 087f 00       		.byte	0
 1145 0880 1F       		.uleb128 0x1f
 1146 0881 07010000 		.4byte	.LASF119
 1147 0885 06       		.byte	0x6
 1148 0886 2E03     		.2byte	0x32e
 1149 0888 33040000 		.4byte	0x433
 1150 088c 1F       		.uleb128 0x1f
 1151 088d C9040000 		.4byte	.LASF120
 1152 0891 06       		.byte	0x6
 1153 0892 2F03     		.2byte	0x32f
 1154 0894 39040000 		.4byte	0x439
 1155 0898 04       		.uleb128 0x4
 1156 0899 DD000000 		.4byte	.LASF121
 1157 089d 07       		.byte	0x7
 1158 089e 30       		.byte	0x30
 1159 089f 56000000 		.4byte	0x56
 1160 08a3 04       		.uleb128 0x4
 1161 08a4 DA020000 		.4byte	.LASF122
 1162 08a8 08       		.byte	0x8
 1163 08a9 1E       		.byte	0x1e
 1164 08aa 98080000 		.4byte	0x898
 1165 08ae 03       		.uleb128 0x3
 1166 08af 04       		.byte	0x4
 1167 08b0 04       		.byte	0x4
 1168 08b1 F8000000 		.4byte	.LASF123
 1169 08b5 03       		.uleb128 0x3
 1170 08b6 01       		.byte	0x1
 1171 08b7 02       		.byte	0x2
 1172 08b8 5B040000 		.4byte	.LASF124
 1173 08bc 0C       		.uleb128 0xc
 1174 08bd 08       		.byte	0x8
 1175 08be 09       		.byte	0x9
 1176 08bf DB       		.byte	0xdb
 1177 08c0 DD080000 		.4byte	0x8dd
 1178 08c4 11       		.uleb128 0x11
 1179 08c5 63617200 		.ascii	"car\000"
 1180 08c9 09       		.byte	0x9
 1181 08ca DC       		.byte	0xdc
 1182 08cb A3080000 		.4byte	0x8a3
 1183 08cf 00       		.byte	0
 1184 08d0 11       		.uleb128 0x11
 1185 08d1 63647200 		.ascii	"cdr\000"
 1186 08d5 09       		.byte	0x9
 1187 08d6 DD       		.byte	0xdd
 1188 08d7 A3080000 		.4byte	0x8a3
 1189 08db 04       		.byte	0x4
 1190 08dc 00       		.byte	0
 1191 08dd 04       		.uleb128 0x4
 1192 08de C0000000 		.4byte	.LASF125
 1193 08e2 09       		.byte	0x9
 1194 08e3 DE       		.byte	0xde
 1195 08e4 BC080000 		.4byte	0x8bc
 1196 08e8 05       		.uleb128 0x5
 1197 08e9 04       		.byte	0x4
ARM GAS  /tmp/cchUFGpm.s 			page 22


 1198 08ea DD080000 		.4byte	0x8dd
 1199 08ee 05       		.uleb128 0x5
 1200 08ef 04       		.byte	0x4
 1201 08f0 98080000 		.4byte	0x898
 1202 08f4 20       		.uleb128 0x20
 1203 08f5 ED020000 		.4byte	.LASF126
 1204 08f9 0A       		.byte	0xa
 1205 08fa 63       		.byte	0x63
 1206 08fb 16010000 		.4byte	0x116
 1207 08ff 21       		.uleb128 0x21
 1208 0900 22030000 		.4byte	.LASF142
 1209 0904 01       		.byte	0x1
 1210 0905 14       		.byte	0x14
 1211 0906 25000000 		.4byte	0x25
 1212 090a 00000000 		.4byte	.LFB46
 1213 090e 48000000 		.4byte	.LFE46-.LFB46
 1214 0912 01       		.uleb128 0x1
 1215 0913 9C       		.byte	0x9c
 1216 0914 DB090000 		.4byte	0x9db
 1217 0918 22       		.uleb128 0x22
 1218 0919 25040000 		.4byte	.LASF127
 1219 091d 01       		.byte	0x1
 1220 091e 14       		.byte	0x14
 1221 091f E8080000 		.4byte	0x8e8
 1222 0923 00000000 		.4byte	.LLST0
 1223 0927 22       		.uleb128 0x22
 1224 0928 D0020000 		.4byte	.LASF128
 1225 092c 01       		.byte	0x1
 1226 092d 14       		.byte	0x14
 1227 092e 98080000 		.4byte	0x898
 1228 0932 1E000000 		.4byte	.LLST1
 1229 0936 22       		.uleb128 0x22
 1230 0937 80040000 		.4byte	.LASF129
 1231 093b 01       		.byte	0x1
 1232 093c 15       		.byte	0x15
 1233 093d EE080000 		.4byte	0x8ee
 1234 0941 3C000000 		.4byte	.LLST2
 1235 0945 22       		.uleb128 0x22
 1236 0946 46020000 		.4byte	.LASF130
 1237 094a 01       		.byte	0x1
 1238 094b 15       		.byte	0x15
 1239 094c 98080000 		.4byte	0x898
 1240 0950 68000000 		.4byte	.LLST3
 1241 0954 22       		.uleb128 0x22
 1242 0955 00000000 		.4byte	.LASF131
 1243 0959 01       		.byte	0x1
 1244 095a 16       		.byte	0x16
 1245 095b EE080000 		.4byte	0x8ee
 1246 095f 94000000 		.4byte	.LLST4
 1247 0963 22       		.uleb128 0x22
 1248 0964 3B040000 		.4byte	.LASF132
 1249 0968 01       		.byte	0x1
 1250 0969 16       		.byte	0x16
 1251 096a 98080000 		.4byte	0x898
 1252 096e B4000000 		.4byte	.LLST5
 1253 0972 23       		.uleb128 0x23
 1254 0973 12000000 		.4byte	.LVL4
ARM GAS  /tmp/cchUFGpm.s 			page 23


 1255 0977 DB090000 		.4byte	0x9db
 1256 097b 9C090000 		.4byte	0x99c
 1257 097f 24       		.uleb128 0x24
 1258 0980 01       		.uleb128 0x1
 1259 0981 50       		.byte	0x50
 1260 0982 03       		.uleb128 0x3
 1261 0983 F3       		.byte	0xf3
 1262 0984 01       		.uleb128 0x1
 1263 0985 52       		.byte	0x52
 1264 0986 24       		.uleb128 0x24
 1265 0987 01       		.uleb128 0x1
 1266 0988 51       		.byte	0x51
 1267 0989 03       		.uleb128 0x3
 1268 098a F3       		.byte	0xf3
 1269 098b 01       		.uleb128 0x1
 1270 098c 53       		.byte	0x53
 1271 098d 24       		.uleb128 0x24
 1272 098e 01       		.uleb128 0x1
 1273 098f 52       		.byte	0x52
 1274 0990 03       		.uleb128 0x3
 1275 0991 91       		.byte	0x91
 1276 0992 00       		.sleb128 0
 1277 0993 06       		.byte	0x6
 1278 0994 24       		.uleb128 0x24
 1279 0995 01       		.uleb128 0x1
 1280 0996 53       		.byte	0x53
 1281 0997 03       		.uleb128 0x3
 1282 0998 91       		.byte	0x91
 1283 0999 04       		.sleb128 4
 1284 099a 06       		.byte	0x6
 1285 099b 00       		.byte	0
 1286 099c 25       		.uleb128 0x25
 1287 099d 1C000000 		.4byte	.LVL6
 1288 09a1 E6090000 		.4byte	0x9e6
 1289 09a5 23       		.uleb128 0x23
 1290 09a6 28000000 		.4byte	.LVL7
 1291 09aa F1090000 		.4byte	0x9f1
 1292 09ae BF090000 		.4byte	0x9bf
 1293 09b2 24       		.uleb128 0x24
 1294 09b3 01       		.uleb128 0x1
 1295 09b4 50       		.byte	0x50
 1296 09b5 02       		.uleb128 0x2
 1297 09b6 74       		.byte	0x74
 1298 09b7 00       		.sleb128 0
 1299 09b8 24       		.uleb128 0x24
 1300 09b9 01       		.uleb128 0x1
 1301 09ba 51       		.byte	0x51
 1302 09bb 02       		.uleb128 0x2
 1303 09bc 75       		.byte	0x75
 1304 09bd 00       		.sleb128 0
 1305 09be 00       		.byte	0
 1306 09bf 25       		.uleb128 0x25
 1307 09c0 30000000 		.4byte	.LVL8
 1308 09c4 FD090000 		.4byte	0x9fd
 1309 09c8 25       		.uleb128 0x25
 1310 09c9 38000000 		.4byte	.LVL9
 1311 09cd 080A0000 		.4byte	0xa08
ARM GAS  /tmp/cchUFGpm.s 			page 24


 1312 09d1 25       		.uleb128 0x25
 1313 09d2 40000000 		.4byte	.LVL10
 1314 09d6 130A0000 		.4byte	0xa13
 1315 09da 00       		.byte	0
 1316 09db 26       		.uleb128 0x26
 1317 09dc 61040000 		.4byte	.LASF133
 1318 09e0 61040000 		.4byte	.LASF133
 1319 09e4 0B       		.byte	0xb
 1320 09e5 6F       		.byte	0x6f
 1321 09e6 26       		.uleb128 0x26
 1322 09e7 7C000000 		.4byte	.LASF134
 1323 09eb 7C000000 		.4byte	.LASF134
 1324 09ef 0C       		.byte	0xc
 1325 09f0 A2       		.byte	0xa2
 1326 09f1 27       		.uleb128 0x27
 1327 09f2 C2020000 		.4byte	.LASF135
 1328 09f6 C2020000 		.4byte	.LASF135
 1329 09fa 09       		.byte	0x9
 1330 09fb 0701     		.2byte	0x107
 1331 09fd 26       		.uleb128 0x26
 1332 09fe 12060000 		.4byte	.LASF136
 1333 0a02 12060000 		.4byte	.LASF136
 1334 0a06 0D       		.byte	0xd
 1335 0a07 1D       		.byte	0x1d
 1336 0a08 26       		.uleb128 0x26
 1337 0a09 95000000 		.4byte	.LASF137
 1338 0a0d 95000000 		.4byte	.LASF137
 1339 0a11 0E       		.byte	0xe
 1340 0a12 47       		.byte	0x47
 1341 0a13 26       		.uleb128 0x26
 1342 0a14 47040000 		.4byte	.LASF138
 1343 0a18 47040000 		.4byte	.LASF138
 1344 0a1c 0F       		.byte	0xf
 1345 0a1d 25       		.byte	0x25
 1346 0a1e 00       		.byte	0
 1347              		.section	.debug_abbrev,"",%progbits
 1348              	.Ldebug_abbrev0:
 1349 0000 01       		.uleb128 0x1
 1350 0001 11       		.uleb128 0x11
 1351 0002 01       		.byte	0x1
 1352 0003 25       		.uleb128 0x25
 1353 0004 0E       		.uleb128 0xe
 1354 0005 13       		.uleb128 0x13
 1355 0006 0B       		.uleb128 0xb
 1356 0007 03       		.uleb128 0x3
 1357 0008 0E       		.uleb128 0xe
 1358 0009 1B       		.uleb128 0x1b
 1359 000a 0E       		.uleb128 0xe
 1360 000b 55       		.uleb128 0x55
 1361 000c 17       		.uleb128 0x17
 1362 000d 11       		.uleb128 0x11
 1363 000e 01       		.uleb128 0x1
 1364 000f 10       		.uleb128 0x10
 1365 0010 17       		.uleb128 0x17
 1366 0011 00       		.byte	0
 1367 0012 00       		.byte	0
 1368 0013 02       		.uleb128 0x2
ARM GAS  /tmp/cchUFGpm.s 			page 25


 1369 0014 24       		.uleb128 0x24
 1370 0015 00       		.byte	0
 1371 0016 0B       		.uleb128 0xb
 1372 0017 0B       		.uleb128 0xb
 1373 0018 3E       		.uleb128 0x3e
 1374 0019 0B       		.uleb128 0xb
 1375 001a 03       		.uleb128 0x3
 1376 001b 08       		.uleb128 0x8
 1377 001c 00       		.byte	0
 1378 001d 00       		.byte	0
 1379 001e 03       		.uleb128 0x3
 1380 001f 24       		.uleb128 0x24
 1381 0020 00       		.byte	0
 1382 0021 0B       		.uleb128 0xb
 1383 0022 0B       		.uleb128 0xb
 1384 0023 3E       		.uleb128 0x3e
 1385 0024 0B       		.uleb128 0xb
 1386 0025 03       		.uleb128 0x3
 1387 0026 0E       		.uleb128 0xe
 1388 0027 00       		.byte	0
 1389 0028 00       		.byte	0
 1390 0029 04       		.uleb128 0x4
 1391 002a 16       		.uleb128 0x16
 1392 002b 00       		.byte	0
 1393 002c 03       		.uleb128 0x3
 1394 002d 0E       		.uleb128 0xe
 1395 002e 3A       		.uleb128 0x3a
 1396 002f 0B       		.uleb128 0xb
 1397 0030 3B       		.uleb128 0x3b
 1398 0031 0B       		.uleb128 0xb
 1399 0032 49       		.uleb128 0x49
 1400 0033 13       		.uleb128 0x13
 1401 0034 00       		.byte	0
 1402 0035 00       		.byte	0
 1403 0036 05       		.uleb128 0x5
 1404 0037 0F       		.uleb128 0xf
 1405 0038 00       		.byte	0
 1406 0039 0B       		.uleb128 0xb
 1407 003a 0B       		.uleb128 0xb
 1408 003b 49       		.uleb128 0x49
 1409 003c 13       		.uleb128 0x13
 1410 003d 00       		.byte	0
 1411 003e 00       		.byte	0
 1412 003f 06       		.uleb128 0x6
 1413 0040 13       		.uleb128 0x13
 1414 0041 00       		.byte	0
 1415 0042 03       		.uleb128 0x3
 1416 0043 0E       		.uleb128 0xe
 1417 0044 3C       		.uleb128 0x3c
 1418 0045 19       		.uleb128 0x19
 1419 0046 00       		.byte	0
 1420 0047 00       		.byte	0
 1421 0048 07       		.uleb128 0x7
 1422 0049 16       		.uleb128 0x16
 1423 004a 00       		.byte	0
 1424 004b 03       		.uleb128 0x3
 1425 004c 0E       		.uleb128 0xe
ARM GAS  /tmp/cchUFGpm.s 			page 26


 1426 004d 3A       		.uleb128 0x3a
 1427 004e 0B       		.uleb128 0xb
 1428 004f 3B       		.uleb128 0x3b
 1429 0050 05       		.uleb128 0x5
 1430 0051 49       		.uleb128 0x49
 1431 0052 13       		.uleb128 0x13
 1432 0053 00       		.byte	0
 1433 0054 00       		.byte	0
 1434 0055 08       		.uleb128 0x8
 1435 0056 17       		.uleb128 0x17
 1436 0057 01       		.byte	0x1
 1437 0058 0B       		.uleb128 0xb
 1438 0059 0B       		.uleb128 0xb
 1439 005a 3A       		.uleb128 0x3a
 1440 005b 0B       		.uleb128 0xb
 1441 005c 3B       		.uleb128 0x3b
 1442 005d 0B       		.uleb128 0xb
 1443 005e 01       		.uleb128 0x1
 1444 005f 13       		.uleb128 0x13
 1445 0060 00       		.byte	0
 1446 0061 00       		.byte	0
 1447 0062 09       		.uleb128 0x9
 1448 0063 0D       		.uleb128 0xd
 1449 0064 00       		.byte	0
 1450 0065 03       		.uleb128 0x3
 1451 0066 0E       		.uleb128 0xe
 1452 0067 3A       		.uleb128 0x3a
 1453 0068 0B       		.uleb128 0xb
 1454 0069 3B       		.uleb128 0x3b
 1455 006a 0B       		.uleb128 0xb
 1456 006b 49       		.uleb128 0x49
 1457 006c 13       		.uleb128 0x13
 1458 006d 00       		.byte	0
 1459 006e 00       		.byte	0
 1460 006f 0A       		.uleb128 0xa
 1461 0070 01       		.uleb128 0x1
 1462 0071 01       		.byte	0x1
 1463 0072 49       		.uleb128 0x49
 1464 0073 13       		.uleb128 0x13
 1465 0074 01       		.uleb128 0x1
 1466 0075 13       		.uleb128 0x13
 1467 0076 00       		.byte	0
 1468 0077 00       		.byte	0
 1469 0078 0B       		.uleb128 0xb
 1470 0079 21       		.uleb128 0x21
 1471 007a 00       		.byte	0
 1472 007b 49       		.uleb128 0x49
 1473 007c 13       		.uleb128 0x13
 1474 007d 2F       		.uleb128 0x2f
 1475 007e 0B       		.uleb128 0xb
 1476 007f 00       		.byte	0
 1477 0080 00       		.byte	0
 1478 0081 0C       		.uleb128 0xc
 1479 0082 13       		.uleb128 0x13
 1480 0083 01       		.byte	0x1
 1481 0084 0B       		.uleb128 0xb
 1482 0085 0B       		.uleb128 0xb
ARM GAS  /tmp/cchUFGpm.s 			page 27


 1483 0086 3A       		.uleb128 0x3a
 1484 0087 0B       		.uleb128 0xb
 1485 0088 3B       		.uleb128 0x3b
 1486 0089 0B       		.uleb128 0xb
 1487 008a 01       		.uleb128 0x1
 1488 008b 13       		.uleb128 0x13
 1489 008c 00       		.byte	0
 1490 008d 00       		.byte	0
 1491 008e 0D       		.uleb128 0xd
 1492 008f 0D       		.uleb128 0xd
 1493 0090 00       		.byte	0
 1494 0091 03       		.uleb128 0x3
 1495 0092 0E       		.uleb128 0xe
 1496 0093 3A       		.uleb128 0x3a
 1497 0094 0B       		.uleb128 0xb
 1498 0095 3B       		.uleb128 0x3b
 1499 0096 0B       		.uleb128 0xb
 1500 0097 49       		.uleb128 0x49
 1501 0098 13       		.uleb128 0x13
 1502 0099 38       		.uleb128 0x38
 1503 009a 0B       		.uleb128 0xb
 1504 009b 00       		.byte	0
 1505 009c 00       		.byte	0
 1506 009d 0E       		.uleb128 0xe
 1507 009e 0F       		.uleb128 0xf
 1508 009f 00       		.byte	0
 1509 00a0 0B       		.uleb128 0xb
 1510 00a1 0B       		.uleb128 0xb
 1511 00a2 00       		.byte	0
 1512 00a3 00       		.byte	0
 1513 00a4 0F       		.uleb128 0xf
 1514 00a5 26       		.uleb128 0x26
 1515 00a6 00       		.byte	0
 1516 00a7 49       		.uleb128 0x49
 1517 00a8 13       		.uleb128 0x13
 1518 00a9 00       		.byte	0
 1519 00aa 00       		.byte	0
 1520 00ab 10       		.uleb128 0x10
 1521 00ac 13       		.uleb128 0x13
 1522 00ad 01       		.byte	0x1
 1523 00ae 03       		.uleb128 0x3
 1524 00af 0E       		.uleb128 0xe
 1525 00b0 0B       		.uleb128 0xb
 1526 00b1 0B       		.uleb128 0xb
 1527 00b2 3A       		.uleb128 0x3a
 1528 00b3 0B       		.uleb128 0xb
 1529 00b4 3B       		.uleb128 0x3b
 1530 00b5 0B       		.uleb128 0xb
 1531 00b6 01       		.uleb128 0x1
 1532 00b7 13       		.uleb128 0x13
 1533 00b8 00       		.byte	0
 1534 00b9 00       		.byte	0
 1535 00ba 11       		.uleb128 0x11
 1536 00bb 0D       		.uleb128 0xd
 1537 00bc 00       		.byte	0
 1538 00bd 03       		.uleb128 0x3
 1539 00be 08       		.uleb128 0x8
ARM GAS  /tmp/cchUFGpm.s 			page 28


 1540 00bf 3A       		.uleb128 0x3a
 1541 00c0 0B       		.uleb128 0xb
 1542 00c1 3B       		.uleb128 0x3b
 1543 00c2 0B       		.uleb128 0xb
 1544 00c3 49       		.uleb128 0x49
 1545 00c4 13       		.uleb128 0x13
 1546 00c5 38       		.uleb128 0x38
 1547 00c6 0B       		.uleb128 0xb
 1548 00c7 00       		.byte	0
 1549 00c8 00       		.byte	0
 1550 00c9 12       		.uleb128 0x12
 1551 00ca 13       		.uleb128 0x13
 1552 00cb 01       		.byte	0x1
 1553 00cc 03       		.uleb128 0x3
 1554 00cd 0E       		.uleb128 0xe
 1555 00ce 0B       		.uleb128 0xb
 1556 00cf 05       		.uleb128 0x5
 1557 00d0 3A       		.uleb128 0x3a
 1558 00d1 0B       		.uleb128 0xb
 1559 00d2 3B       		.uleb128 0x3b
 1560 00d3 0B       		.uleb128 0xb
 1561 00d4 01       		.uleb128 0x1
 1562 00d5 13       		.uleb128 0x13
 1563 00d6 00       		.byte	0
 1564 00d7 00       		.byte	0
 1565 00d8 13       		.uleb128 0x13
 1566 00d9 0D       		.uleb128 0xd
 1567 00da 00       		.byte	0
 1568 00db 03       		.uleb128 0x3
 1569 00dc 0E       		.uleb128 0xe
 1570 00dd 3A       		.uleb128 0x3a
 1571 00de 0B       		.uleb128 0xb
 1572 00df 3B       		.uleb128 0x3b
 1573 00e0 0B       		.uleb128 0xb
 1574 00e1 49       		.uleb128 0x49
 1575 00e2 13       		.uleb128 0x13
 1576 00e3 38       		.uleb128 0x38
 1577 00e4 05       		.uleb128 0x5
 1578 00e5 00       		.byte	0
 1579 00e6 00       		.byte	0
 1580 00e7 14       		.uleb128 0x14
 1581 00e8 15       		.uleb128 0x15
 1582 00e9 00       		.byte	0
 1583 00ea 27       		.uleb128 0x27
 1584 00eb 19       		.uleb128 0x19
 1585 00ec 00       		.byte	0
 1586 00ed 00       		.byte	0
 1587 00ee 15       		.uleb128 0x15
 1588 00ef 15       		.uleb128 0x15
 1589 00f0 01       		.byte	0x1
 1590 00f1 27       		.uleb128 0x27
 1591 00f2 19       		.uleb128 0x19
 1592 00f3 49       		.uleb128 0x49
 1593 00f4 13       		.uleb128 0x13
 1594 00f5 01       		.uleb128 0x1
 1595 00f6 13       		.uleb128 0x13
 1596 00f7 00       		.byte	0
ARM GAS  /tmp/cchUFGpm.s 			page 29


 1597 00f8 00       		.byte	0
 1598 00f9 16       		.uleb128 0x16
 1599 00fa 05       		.uleb128 0x5
 1600 00fb 00       		.byte	0
 1601 00fc 49       		.uleb128 0x49
 1602 00fd 13       		.uleb128 0x13
 1603 00fe 00       		.byte	0
 1604 00ff 00       		.byte	0
 1605 0100 17       		.uleb128 0x17
 1606 0101 13       		.uleb128 0x13
 1607 0102 01       		.byte	0x1
 1608 0103 03       		.uleb128 0x3
 1609 0104 0E       		.uleb128 0xe
 1610 0105 0B       		.uleb128 0xb
 1611 0106 05       		.uleb128 0x5
 1612 0107 3A       		.uleb128 0x3a
 1613 0108 0B       		.uleb128 0xb
 1614 0109 3B       		.uleb128 0x3b
 1615 010a 05       		.uleb128 0x5
 1616 010b 01       		.uleb128 0x1
 1617 010c 13       		.uleb128 0x13
 1618 010d 00       		.byte	0
 1619 010e 00       		.byte	0
 1620 010f 18       		.uleb128 0x18
 1621 0110 0D       		.uleb128 0xd
 1622 0111 00       		.byte	0
 1623 0112 03       		.uleb128 0x3
 1624 0113 0E       		.uleb128 0xe
 1625 0114 3A       		.uleb128 0x3a
 1626 0115 0B       		.uleb128 0xb
 1627 0116 3B       		.uleb128 0x3b
 1628 0117 05       		.uleb128 0x5
 1629 0118 49       		.uleb128 0x49
 1630 0119 13       		.uleb128 0x13
 1631 011a 38       		.uleb128 0x38
 1632 011b 0B       		.uleb128 0xb
 1633 011c 00       		.byte	0
 1634 011d 00       		.byte	0
 1635 011e 19       		.uleb128 0x19
 1636 011f 0D       		.uleb128 0xd
 1637 0120 00       		.byte	0
 1638 0121 03       		.uleb128 0x3
 1639 0122 0E       		.uleb128 0xe
 1640 0123 3A       		.uleb128 0x3a
 1641 0124 0B       		.uleb128 0xb
 1642 0125 3B       		.uleb128 0x3b
 1643 0126 05       		.uleb128 0x5
 1644 0127 49       		.uleb128 0x49
 1645 0128 13       		.uleb128 0x13
 1646 0129 38       		.uleb128 0x38
 1647 012a 05       		.uleb128 0x5
 1648 012b 00       		.byte	0
 1649 012c 00       		.byte	0
 1650 012d 1A       		.uleb128 0x1a
 1651 012e 13       		.uleb128 0x13
 1652 012f 01       		.byte	0x1
 1653 0130 03       		.uleb128 0x3
ARM GAS  /tmp/cchUFGpm.s 			page 30


 1654 0131 0E       		.uleb128 0xe
 1655 0132 0B       		.uleb128 0xb
 1656 0133 0B       		.uleb128 0xb
 1657 0134 3A       		.uleb128 0x3a
 1658 0135 0B       		.uleb128 0xb
 1659 0136 3B       		.uleb128 0x3b
 1660 0137 05       		.uleb128 0x5
 1661 0138 01       		.uleb128 0x1
 1662 0139 13       		.uleb128 0x13
 1663 013a 00       		.byte	0
 1664 013b 00       		.byte	0
 1665 013c 1B       		.uleb128 0x1b
 1666 013d 13       		.uleb128 0x13
 1667 013e 01       		.byte	0x1
 1668 013f 0B       		.uleb128 0xb
 1669 0140 0B       		.uleb128 0xb
 1670 0141 3A       		.uleb128 0x3a
 1671 0142 0B       		.uleb128 0xb
 1672 0143 3B       		.uleb128 0x3b
 1673 0144 05       		.uleb128 0x5
 1674 0145 01       		.uleb128 0x1
 1675 0146 13       		.uleb128 0x13
 1676 0147 00       		.byte	0
 1677 0148 00       		.byte	0
 1678 0149 1C       		.uleb128 0x1c
 1679 014a 17       		.uleb128 0x17
 1680 014b 01       		.byte	0x1
 1681 014c 0B       		.uleb128 0xb
 1682 014d 0B       		.uleb128 0xb
 1683 014e 3A       		.uleb128 0x3a
 1684 014f 0B       		.uleb128 0xb
 1685 0150 3B       		.uleb128 0x3b
 1686 0151 05       		.uleb128 0x5
 1687 0152 01       		.uleb128 0x1
 1688 0153 13       		.uleb128 0x13
 1689 0154 00       		.byte	0
 1690 0155 00       		.byte	0
 1691 0156 1D       		.uleb128 0x1d
 1692 0157 0D       		.uleb128 0xd
 1693 0158 00       		.byte	0
 1694 0159 03       		.uleb128 0x3
 1695 015a 0E       		.uleb128 0xe
 1696 015b 3A       		.uleb128 0x3a
 1697 015c 0B       		.uleb128 0xb
 1698 015d 3B       		.uleb128 0x3b
 1699 015e 05       		.uleb128 0x5
 1700 015f 49       		.uleb128 0x49
 1701 0160 13       		.uleb128 0x13
 1702 0161 00       		.byte	0
 1703 0162 00       		.byte	0
 1704 0163 1E       		.uleb128 0x1e
 1705 0164 15       		.uleb128 0x15
 1706 0165 01       		.byte	0x1
 1707 0166 27       		.uleb128 0x27
 1708 0167 19       		.uleb128 0x19
 1709 0168 01       		.uleb128 0x1
 1710 0169 13       		.uleb128 0x13
ARM GAS  /tmp/cchUFGpm.s 			page 31


 1711 016a 00       		.byte	0
 1712 016b 00       		.byte	0
 1713 016c 1F       		.uleb128 0x1f
 1714 016d 34       		.uleb128 0x34
 1715 016e 00       		.byte	0
 1716 016f 03       		.uleb128 0x3
 1717 0170 0E       		.uleb128 0xe
 1718 0171 3A       		.uleb128 0x3a
 1719 0172 0B       		.uleb128 0xb
 1720 0173 3B       		.uleb128 0x3b
 1721 0174 05       		.uleb128 0x5
 1722 0175 49       		.uleb128 0x49
 1723 0176 13       		.uleb128 0x13
 1724 0177 3F       		.uleb128 0x3f
 1725 0178 19       		.uleb128 0x19
 1726 0179 3C       		.uleb128 0x3c
 1727 017a 19       		.uleb128 0x19
 1728 017b 00       		.byte	0
 1729 017c 00       		.byte	0
 1730 017d 20       		.uleb128 0x20
 1731 017e 34       		.uleb128 0x34
 1732 017f 00       		.byte	0
 1733 0180 03       		.uleb128 0x3
 1734 0181 0E       		.uleb128 0xe
 1735 0182 3A       		.uleb128 0x3a
 1736 0183 0B       		.uleb128 0xb
 1737 0184 3B       		.uleb128 0x3b
 1738 0185 0B       		.uleb128 0xb
 1739 0186 49       		.uleb128 0x49
 1740 0187 13       		.uleb128 0x13
 1741 0188 3F       		.uleb128 0x3f
 1742 0189 19       		.uleb128 0x19
 1743 018a 3C       		.uleb128 0x3c
 1744 018b 19       		.uleb128 0x19
 1745 018c 00       		.byte	0
 1746 018d 00       		.byte	0
 1747 018e 21       		.uleb128 0x21
 1748 018f 2E       		.uleb128 0x2e
 1749 0190 01       		.byte	0x1
 1750 0191 3F       		.uleb128 0x3f
 1751 0192 19       		.uleb128 0x19
 1752 0193 03       		.uleb128 0x3
 1753 0194 0E       		.uleb128 0xe
 1754 0195 3A       		.uleb128 0x3a
 1755 0196 0B       		.uleb128 0xb
 1756 0197 3B       		.uleb128 0x3b
 1757 0198 0B       		.uleb128 0xb
 1758 0199 27       		.uleb128 0x27
 1759 019a 19       		.uleb128 0x19
 1760 019b 49       		.uleb128 0x49
 1761 019c 13       		.uleb128 0x13
 1762 019d 11       		.uleb128 0x11
 1763 019e 01       		.uleb128 0x1
 1764 019f 12       		.uleb128 0x12
 1765 01a0 06       		.uleb128 0x6
 1766 01a1 40       		.uleb128 0x40
 1767 01a2 18       		.uleb128 0x18
ARM GAS  /tmp/cchUFGpm.s 			page 32


 1768 01a3 9742     		.uleb128 0x2117
 1769 01a5 19       		.uleb128 0x19
 1770 01a6 01       		.uleb128 0x1
 1771 01a7 13       		.uleb128 0x13
 1772 01a8 00       		.byte	0
 1773 01a9 00       		.byte	0
 1774 01aa 22       		.uleb128 0x22
 1775 01ab 05       		.uleb128 0x5
 1776 01ac 00       		.byte	0
 1777 01ad 03       		.uleb128 0x3
 1778 01ae 0E       		.uleb128 0xe
 1779 01af 3A       		.uleb128 0x3a
 1780 01b0 0B       		.uleb128 0xb
 1781 01b1 3B       		.uleb128 0x3b
 1782 01b2 0B       		.uleb128 0xb
 1783 01b3 49       		.uleb128 0x49
 1784 01b4 13       		.uleb128 0x13
 1785 01b5 02       		.uleb128 0x2
 1786 01b6 17       		.uleb128 0x17
 1787 01b7 00       		.byte	0
 1788 01b8 00       		.byte	0
 1789 01b9 23       		.uleb128 0x23
 1790 01ba 898201   		.uleb128 0x4109
 1791 01bd 01       		.byte	0x1
 1792 01be 11       		.uleb128 0x11
 1793 01bf 01       		.uleb128 0x1
 1794 01c0 31       		.uleb128 0x31
 1795 01c1 13       		.uleb128 0x13
 1796 01c2 01       		.uleb128 0x1
 1797 01c3 13       		.uleb128 0x13
 1798 01c4 00       		.byte	0
 1799 01c5 00       		.byte	0
 1800 01c6 24       		.uleb128 0x24
 1801 01c7 8A8201   		.uleb128 0x410a
 1802 01ca 00       		.byte	0
 1803 01cb 02       		.uleb128 0x2
 1804 01cc 18       		.uleb128 0x18
 1805 01cd 9142     		.uleb128 0x2111
 1806 01cf 18       		.uleb128 0x18
 1807 01d0 00       		.byte	0
 1808 01d1 00       		.byte	0
 1809 01d2 25       		.uleb128 0x25
 1810 01d3 898201   		.uleb128 0x4109
 1811 01d6 00       		.byte	0
 1812 01d7 11       		.uleb128 0x11
 1813 01d8 01       		.uleb128 0x1
 1814 01d9 31       		.uleb128 0x31
 1815 01da 13       		.uleb128 0x13
 1816 01db 00       		.byte	0
 1817 01dc 00       		.byte	0
 1818 01dd 26       		.uleb128 0x26
 1819 01de 2E       		.uleb128 0x2e
 1820 01df 00       		.byte	0
 1821 01e0 3F       		.uleb128 0x3f
 1822 01e1 19       		.uleb128 0x19
 1823 01e2 3C       		.uleb128 0x3c
 1824 01e3 19       		.uleb128 0x19
ARM GAS  /tmp/cchUFGpm.s 			page 33


 1825 01e4 6E       		.uleb128 0x6e
 1826 01e5 0E       		.uleb128 0xe
 1827 01e6 03       		.uleb128 0x3
 1828 01e7 0E       		.uleb128 0xe
 1829 01e8 3A       		.uleb128 0x3a
 1830 01e9 0B       		.uleb128 0xb
 1831 01ea 3B       		.uleb128 0x3b
 1832 01eb 0B       		.uleb128 0xb
 1833 01ec 00       		.byte	0
 1834 01ed 00       		.byte	0
 1835 01ee 27       		.uleb128 0x27
 1836 01ef 2E       		.uleb128 0x2e
 1837 01f0 00       		.byte	0
 1838 01f1 3F       		.uleb128 0x3f
 1839 01f2 19       		.uleb128 0x19
 1840 01f3 3C       		.uleb128 0x3c
 1841 01f4 19       		.uleb128 0x19
 1842 01f5 6E       		.uleb128 0x6e
 1843 01f6 0E       		.uleb128 0xe
 1844 01f7 03       		.uleb128 0x3
 1845 01f8 0E       		.uleb128 0xe
 1846 01f9 3A       		.uleb128 0x3a
 1847 01fa 0B       		.uleb128 0xb
 1848 01fb 3B       		.uleb128 0x3b
 1849 01fc 05       		.uleb128 0x5
 1850 01fd 00       		.byte	0
 1851 01fe 00       		.byte	0
 1852 01ff 00       		.byte	0
 1853              		.section	.debug_loc,"",%progbits
 1854              	.Ldebug_loc0:
 1855              	.LLST0:
 1856 0000 00000000 		.4byte	.LVL0
 1857 0004 08000000 		.4byte	.LVL1
 1858 0008 0100     		.2byte	0x1
 1859 000a 50       		.byte	0x50
 1860 000b 08000000 		.4byte	.LVL1
 1861 000f 48000000 		.4byte	.LFE46
 1862 0013 0100     		.2byte	0x1
 1863 0015 54       		.byte	0x54
 1864 0016 00000000 		.4byte	0
 1865 001a 00000000 		.4byte	0
 1866              	.LLST1:
 1867 001e 00000000 		.4byte	.LVL0
 1868 0022 0A000000 		.4byte	.LVL2
 1869 0026 0100     		.2byte	0x1
 1870 0028 51       		.byte	0x51
 1871 0029 0A000000 		.4byte	.LVL2
 1872 002d 48000000 		.4byte	.LFE46
 1873 0031 0100     		.2byte	0x1
 1874 0033 55       		.byte	0x55
 1875 0034 00000000 		.4byte	0
 1876 0038 00000000 		.4byte	0
 1877              	.LLST2:
 1878 003c 00000000 		.4byte	.LVL0
 1879 0040 0E000000 		.4byte	.LVL3
 1880 0044 0100     		.2byte	0x1
 1881 0046 52       		.byte	0x52
ARM GAS  /tmp/cchUFGpm.s 			page 34


 1882 0047 0E000000 		.4byte	.LVL3
 1883 004b 11000000 		.4byte	.LVL4-1
 1884 004f 0100     		.2byte	0x1
 1885 0051 50       		.byte	0x50
 1886 0052 11000000 		.4byte	.LVL4-1
 1887 0056 48000000 		.4byte	.LFE46
 1888 005a 0400     		.2byte	0x4
 1889 005c F3       		.byte	0xf3
 1890 005d 01       		.uleb128 0x1
 1891 005e 52       		.byte	0x52
 1892 005f 9F       		.byte	0x9f
 1893 0060 00000000 		.4byte	0
 1894 0064 00000000 		.4byte	0
 1895              	.LLST3:
 1896 0068 00000000 		.4byte	.LVL0
 1897 006c 0E000000 		.4byte	.LVL3
 1898 0070 0100     		.2byte	0x1
 1899 0072 53       		.byte	0x53
 1900 0073 0E000000 		.4byte	.LVL3
 1901 0077 11000000 		.4byte	.LVL4-1
 1902 007b 0100     		.2byte	0x1
 1903 007d 51       		.byte	0x51
 1904 007e 11000000 		.4byte	.LVL4-1
 1905 0082 48000000 		.4byte	.LFE46
 1906 0086 0400     		.2byte	0x4
 1907 0088 F3       		.byte	0xf3
 1908 0089 01       		.uleb128 0x1
 1909 008a 53       		.byte	0x53
 1910 008b 9F       		.byte	0x9f
 1911 008c 00000000 		.4byte	0
 1912 0090 00000000 		.4byte	0
 1913              	.LLST4:
 1914 0094 00000000 		.4byte	.LVL0
 1915 0098 18000000 		.4byte	.LVL5
 1916 009c 0200     		.2byte	0x2
 1917 009e 91       		.byte	0x91
 1918 009f 00       		.sleb128 0
 1919 00a0 18000000 		.4byte	.LVL5
 1920 00a4 48000000 		.4byte	.LFE46
 1921 00a8 0200     		.2byte	0x2
 1922 00aa 91       		.byte	0x91
 1923 00ab 00       		.sleb128 0
 1924 00ac 00000000 		.4byte	0
 1925 00b0 00000000 		.4byte	0
 1926              	.LLST5:
 1927 00b4 00000000 		.4byte	.LVL0
 1928 00b8 18000000 		.4byte	.LVL5
 1929 00bc 0200     		.2byte	0x2
 1930 00be 91       		.byte	0x91
 1931 00bf 04       		.sleb128 4
 1932 00c0 18000000 		.4byte	.LVL5
 1933 00c4 48000000 		.4byte	.LFE46
 1934 00c8 0200     		.2byte	0x2
 1935 00ca 91       		.byte	0x91
 1936 00cb 04       		.sleb128 4
 1937 00cc 00000000 		.4byte	0
 1938 00d0 00000000 		.4byte	0
ARM GAS  /tmp/cchUFGpm.s 			page 35


 1939              		.section	.debug_aranges,"",%progbits
 1940 0000 1C000000 		.4byte	0x1c
 1941 0004 0200     		.2byte	0x2
 1942 0006 00000000 		.4byte	.Ldebug_info0
 1943 000a 04       		.byte	0x4
 1944 000b 00       		.byte	0
 1945 000c 0000     		.2byte	0
 1946 000e 0000     		.2byte	0
 1947 0010 00000000 		.4byte	.LFB46
 1948 0014 48000000 		.4byte	.LFE46-.LFB46
 1949 0018 00000000 		.4byte	0
 1950 001c 00000000 		.4byte	0
 1951              		.section	.debug_ranges,"",%progbits
 1952              	.Ldebug_ranges0:
 1953 0000 00000000 		.4byte	.LFB46
 1954 0004 48000000 		.4byte	.LFE46
 1955 0008 00000000 		.4byte	0
 1956 000c 00000000 		.4byte	0
 1957              		.section	.debug_line,"",%progbits
 1958              	.Ldebug_line0:
 1959 0000 A7010000 		.section	.debug_str,"MS",%progbits,1
 1959      02008401 
 1959      00000201 
 1959      FB0E0D00 
 1959      01010101 
 1960              	.LASF131:
 1961 0000 6D656D6F 		.ascii	"memory_bitmap\000"
 1961      72795F62 
 1961      69746D61 
 1961      7000
 1962              	.LASF37:
 1963 000e 5F6F6E5F 		.ascii	"_on_exit_args\000"
 1963      65786974 
 1963      5F617267 
 1963      7300
 1964              	.LASF104:
 1965 001c 5F776374 		.ascii	"_wctomb_state\000"
 1965      6F6D625F 
 1965      73746174 
 1965      6500
 1966              	.LASF101:
 1967 002a 5F723438 		.ascii	"_r48\000"
 1967      00
 1968              	.LASF106:
 1969 002f 5F736967 		.ascii	"_signal_buf\000"
 1969      6E616C5F 
 1969      62756600 
 1970              	.LASF0:
 1971 003b 756E7369 		.ascii	"unsigned int\000"
 1971      676E6564 
 1971      20696E74 
 1971      00
 1972              	.LASF51:
 1973 0048 5F6C6266 		.ascii	"_lbfsize\000"
 1973      73697A65 
 1973      00
 1974              	.LASF49:
ARM GAS  /tmp/cchUFGpm.s 			page 36


 1975 0051 5F666C61 		.ascii	"_flags\000"
 1975      677300
 1976              	.LASF66:
 1977 0058 5F657272 		.ascii	"_errno\000"
 1977      6E6F00
 1978              	.LASF63:
 1979 005f 5F6D6273 		.ascii	"_mbstate\000"
 1979      74617465 
 1979      00
 1980              	.LASF53:
 1981 0068 5F726561 		.ascii	"_read\000"
 1981      6400
 1982              	.LASF108:
 1983 006e 5F6D6272 		.ascii	"_mbrlen_state\000"
 1983      6C656E5F 
 1983      73746174 
 1983      6500
 1984              	.LASF134:
 1985 007c 6C626D5F 		.ascii	"lbm_symrepr_init\000"
 1985      73796D72 
 1985      6570725F 
 1985      696E6974 
 1985      00
 1986              	.LASF68:
 1987 008d 5F737464 		.ascii	"_stdout\000"
 1987      6F757400 
 1988              	.LASF137:
 1989 0095 6C626D5F 		.ascii	"lbm_eval_init\000"
 1989      6576616C 
 1989      5F696E69 
 1989      7400
 1990              	.LASF12:
 1991 00a3 5F66706F 		.ascii	"_fpos_t\000"
 1991      735F7400 
 1992              	.LASF44:
 1993 00ab 5F666E73 		.ascii	"_fns\000"
 1993      00
 1994              	.LASF52:
 1995 00b0 5F636F6F 		.ascii	"_cookie\000"
 1995      6B696500 
 1996              	.LASF26:
 1997 00b8 5F426967 		.ascii	"_Bigint\000"
 1997      696E7400 
 1998              	.LASF125:
 1999 00c0 6C626D5F 		.ascii	"lbm_cons_t\000"
 1999      636F6E73 
 1999      5F7400
 2000              	.LASF34:
 2001 00cb 5F5F746D 		.ascii	"__tm_wday\000"
 2001      5F776461 
 2001      7900
 2002              	.LASF76:
 2003 00d5 5F726573 		.ascii	"_result\000"
 2003      756C7400 
 2004              	.LASF121:
 2005 00dd 75696E74 		.ascii	"uint32_t\000"
 2005      33325F74 
ARM GAS  /tmp/cchUFGpm.s 			page 37


 2005      00
 2006              	.LASF30:
 2007 00e6 5F5F746D 		.ascii	"__tm_hour\000"
 2007      5F686F75 
 2007      7200
 2008              	.LASF16:
 2009 00f0 5F5F636F 		.ascii	"__count\000"
 2009      756E7400 
 2010              	.LASF123:
 2011 00f8 666C6F61 		.ascii	"float\000"
 2011      7400
 2012              	.LASF29:
 2013 00fe 5F5F746D 		.ascii	"__tm_min\000"
 2013      5F6D696E 
 2013      00
 2014              	.LASF119:
 2015 0107 5F696D70 		.ascii	"_impure_ptr\000"
 2015      7572655F 
 2015      70747200 
 2016              	.LASF114:
 2017 0113 5F6E6578 		.ascii	"_nextf\000"
 2017      746600
 2018              	.LASF139:
 2019 011a 474E5520 		.ascii	"GNU C99 7.3.1 20180622 (release) [ARM/embedded-7-br"
 2019      43393920 
 2019      372E332E 
 2019      31203230 
 2019      31383036 
 2020 014d 616E6368 		.ascii	"anch revision 261907] -mcpu=cortex-m4 -mfloat-abi=h"
 2020      20726576 
 2020      6973696F 
 2020      6E203236 
 2020      31393037 
 2021 0180 61726420 		.ascii	"ard -mfpu=fpv4-sp-d16 -mno-thumb-interwork -mthumb "
 2021      2D6D6670 
 2021      753D6670 
 2021      76342D73 
 2021      702D6431 
 2022 01b3 2D676764 		.ascii	"-ggdb -O2 -std=gnu99 -fomit-frame-pointer -falign-f"
 2022      62202D4F 
 2022      32202D73 
 2022      74643D67 
 2022      6E753939 
 2023 01e6 756E6374 		.ascii	"unctions=16 -ffunction-sections -fdata-sections -fn"
 2023      696F6E73 
 2023      3D313620 
 2023      2D666675 
 2023      6E637469 
 2024 0219 6F2D636F 		.ascii	"o-common -fsingle-precision-constant\000"
 2024      6D6D6F6E 
 2024      202D6673 
 2024      696E676C 
 2024      652D7072 
 2025              	.LASF91:
 2026 023e 5F72616E 		.ascii	"_rand48\000"
 2026      64343800 
 2027              	.LASF130:
ARM GAS  /tmp/cchUFGpm.s 			page 38


 2028 0246 6D656D6F 		.ascii	"memory_size\000"
 2028      72795F73 
 2028      697A6500 
 2029              	.LASF77:
 2030 0252 5F726573 		.ascii	"_result_k\000"
 2030      756C745F 
 2030      6B00
 2031              	.LASF8:
 2032 025c 6C6F6E67 		.ascii	"long long unsigned int\000"
 2032      206C6F6E 
 2032      6720756E 
 2032      7369676E 
 2032      65642069 
 2033              	.LASF97:
 2034 0273 5F617363 		.ascii	"_asctime_buf\000"
 2034      74696D65 
 2034      5F627566 
 2034      00
 2035              	.LASF48:
 2036 0280 5F5F7346 		.ascii	"__sFILE\000"
 2036      494C4500 
 2037              	.LASF25:
 2038 0288 5F776473 		.ascii	"_wds\000"
 2038      00
 2039              	.LASF140:
 2040 028d 6C697370 		.ascii	"lispBM/lispBM/src/lispbm.c\000"
 2040      424D2F6C 
 2040      69737042 
 2040      4D2F7372 
 2040      632F6C69 
 2041              	.LASF87:
 2042 02a8 5F5F4649 		.ascii	"__FILE\000"
 2042      4C4500
 2043              	.LASF60:
 2044 02af 5F6F6666 		.ascii	"_offset\000"
 2044      73657400 
 2045              	.LASF71:
 2046 02b7 5F656D65 		.ascii	"_emergency\000"
 2046      7267656E 
 2046      637900
 2047              	.LASF135:
 2048 02c2 6C626D5F 		.ascii	"lbm_heap_init\000"
 2048      68656170 
 2048      5F696E69 
 2048      7400
 2049              	.LASF128:
 2050 02d0 68656170 		.ascii	"heap_size\000"
 2050      5F73697A 
 2050      6500
 2051              	.LASF122:
 2052 02da 6C626D5F 		.ascii	"lbm_value\000"
 2052      76616C75 
 2052      6500
 2053              	.LASF28:
 2054 02e4 5F5F746D 		.ascii	"__tm_sec\000"
 2054      5F736563 
 2054      00
ARM GAS  /tmp/cchUFGpm.s 			page 39


 2055              	.LASF126:
 2056 02ed 7375626F 		.ascii	"suboptarg\000"
 2056      70746172 
 2056      6700
 2057              	.LASF35:
 2058 02f7 5F5F746D 		.ascii	"__tm_yday\000"
 2058      5F796461 
 2058      7900
 2059              	.LASF70:
 2060 0301 5F696E63 		.ascii	"_inc\000"
 2060      00
 2061              	.LASF43:
 2062 0306 5F696E64 		.ascii	"_ind\000"
 2062      00
 2063              	.LASF22:
 2064 030b 5F6E6578 		.ascii	"_next\000"
 2064      7400
 2065              	.LASF110:
 2066 0311 5F6D6273 		.ascii	"_mbsrtowcs_state\000"
 2066      72746F77 
 2066      63735F73 
 2066      74617465 
 2066      00
 2067              	.LASF142:
 2068 0322 6C626D5F 		.ascii	"lbm_init\000"
 2068      696E6974 
 2068      00
 2069              	.LASF17:
 2070 032b 5F5F7661 		.ascii	"__value\000"
 2070      6C756500 
 2071              	.LASF78:
 2072 0333 5F703573 		.ascii	"_p5s\000"
 2072      00
 2073              	.LASF112:
 2074 0338 5F776373 		.ascii	"_wcsrtombs_state\000"
 2074      72746F6D 
 2074      62735F73 
 2074      74617465 
 2074      00
 2075              	.LASF102:
 2076 0349 5F6D626C 		.ascii	"_mblen_state\000"
 2076      656E5F73 
 2076      74617465 
 2076      00
 2077              	.LASF20:
 2078 0356 63686172 		.ascii	"char\000"
 2078      00
 2079              	.LASF31:
 2080 035b 5F5F746D 		.ascii	"__tm_mday\000"
 2080      5F6D6461 
 2080      7900
 2081              	.LASF84:
 2082 0365 5F736967 		.ascii	"_sig_func\000"
 2082      5F66756E 
 2082      6300
 2083              	.LASF109:
 2084 036f 5F6D6272 		.ascii	"_mbrtowc_state\000"
ARM GAS  /tmp/cchUFGpm.s 			page 40


 2084      746F7763 
 2084      5F737461 
 2084      746500
 2085              	.LASF83:
 2086 037e 5F617465 		.ascii	"_atexit0\000"
 2086      78697430 
 2086      00
 2087              	.LASF19:
 2088 0387 5F666C6F 		.ascii	"_flock_t\000"
 2088      636B5F74 
 2088      00
 2089              	.LASF14:
 2090 0390 5F5F7763 		.ascii	"__wch\000"
 2090      6800
 2091              	.LASF90:
 2092 0396 5F696F62 		.ascii	"_iobs\000"
 2092      7300
 2093              	.LASF56:
 2094 039c 5F636C6F 		.ascii	"_close\000"
 2094      736500
 2095              	.LASF74:
 2096 03a3 5F5F7364 		.ascii	"__sdidinit\000"
 2096      6964696E 
 2096      697400
 2097              	.LASF67:
 2098 03ae 5F737464 		.ascii	"_stdin\000"
 2098      696E00
 2099              	.LASF99:
 2100 03b5 5F67616D 		.ascii	"_gamma_signgam\000"
 2100      6D615F73 
 2100      69676E67 
 2100      616D00
 2101              	.LASF7:
 2102 03c4 6C6F6E67 		.ascii	"long long int\000"
 2102      206C6F6E 
 2102      6720696E 
 2102      7400
 2103              	.LASF46:
 2104 03d2 5F626173 		.ascii	"_base\000"
 2104      6500
 2105              	.LASF79:
 2106 03d8 5F667265 		.ascii	"_freelist\000"
 2106      656C6973 
 2106      7400
 2107              	.LASF93:
 2108 03e2 5F6D756C 		.ascii	"_mult\000"
 2108      7400
 2109              	.LASF21:
 2110 03e8 5F5F554C 		.ascii	"__ULong\000"
 2110      6F6E6700 
 2111              	.LASF111:
 2112 03f0 5F776372 		.ascii	"_wcrtomb_state\000"
 2112      746F6D62 
 2112      5F737461 
 2112      746500
 2113              	.LASF50:
 2114 03ff 5F66696C 		.ascii	"_file\000"
ARM GAS  /tmp/cchUFGpm.s 			page 41


 2114      6500
 2115              	.LASF75:
 2116 0405 5F5F636C 		.ascii	"__cleanup\000"
 2116      65616E75 
 2116      7000
 2117              	.LASF18:
 2118 040f 5F6D6273 		.ascii	"_mbstate_t\000"
 2118      74617465 
 2118      5F7400
 2119              	.LASF36:
 2120 041a 5F5F746D 		.ascii	"__tm_isdst\000"
 2120      5F697364 
 2120      737400
 2121              	.LASF127:
 2122 0425 68656170 		.ascii	"heap_storage\000"
 2122      5F73746F 
 2122      72616765 
 2122      00
 2123              	.LASF113:
 2124 0432 5F685F65 		.ascii	"_h_errno\000"
 2124      72726E6F 
 2124      00
 2125              	.LASF132:
 2126 043b 6269746D 		.ascii	"bitmap_size\000"
 2126      61705F73 
 2126      697A6500 
 2127              	.LASF138:
 2128 0447 6C626D5F 		.ascii	"lbm_extensions_init\000"
 2128      65787465 
 2128      6E73696F 
 2128      6E735F69 
 2128      6E697400 
 2129              	.LASF124:
 2130 045b 5F426F6F 		.ascii	"_Bool\000"
 2130      6C00
 2131              	.LASF133:
 2132 0461 6C626D5F 		.ascii	"lbm_memory_init\000"
 2132      6D656D6F 
 2132      72795F69 
 2132      6E697400 
 2133              	.LASF141:
 2134 0471 2F626C64 		.ascii	"/bldc\000"
 2134      6300
 2135              	.LASF32:
 2136 0477 5F5F746D 		.ascii	"__tm_mon\000"
 2136      5F6D6F6E 
 2136      00
 2137              	.LASF129:
 2138 0480 6D656D6F 		.ascii	"memory\000"
 2138      727900
 2139              	.LASF10:
 2140 0487 5F4C4F43 		.ascii	"_LOCK_T\000"
 2140      4B5F5400 
 2141              	.LASF54:
 2142 048f 5F777269 		.ascii	"_write\000"
 2142      746500
 2143              	.LASF42:
ARM GAS  /tmp/cchUFGpm.s 			page 42


 2144 0496 5F617465 		.ascii	"_atexit\000"
 2144      78697400 
 2145              	.LASF3:
 2146 049e 73686F72 		.ascii	"short int\000"
 2146      7420696E 
 2146      7400
 2147              	.LASF5:
 2148 04a8 6C6F6E67 		.ascii	"long int\000"
 2148      20696E74 
 2148      00
 2149              	.LASF86:
 2150 04b1 5F5F7366 		.ascii	"__sf\000"
 2150      00
 2151              	.LASF24:
 2152 04b6 5F736967 		.ascii	"_sign\000"
 2152      6E00
 2153              	.LASF61:
 2154 04bc 5F646174 		.ascii	"_data\000"
 2154      6100
 2155              	.LASF15:
 2156 04c2 5F5F7763 		.ascii	"__wchb\000"
 2156      686200
 2157              	.LASF120:
 2158 04c9 5F676C6F 		.ascii	"_global_impure_ptr\000"
 2158      62616C5F 
 2158      696D7075 
 2158      72655F70 
 2158      747200
 2159              	.LASF33:
 2160 04dc 5F5F746D 		.ascii	"__tm_year\000"
 2160      5F796561 
 2160      7200
 2161              	.LASF98:
 2162 04e6 5F6C6F63 		.ascii	"_localtime_buf\000"
 2162      616C7469 
 2162      6D655F62 
 2162      756600
 2163              	.LASF116:
 2164 04f5 5F756E75 		.ascii	"_unused\000"
 2164      73656400 
 2165              	.LASF82:
 2166 04fd 5F6E6577 		.ascii	"_new\000"
 2166      00
 2167              	.LASF80:
 2168 0502 5F637674 		.ascii	"_cvtlen\000"
 2168      6C656E00 
 2169              	.LASF23:
 2170 050a 5F6D6178 		.ascii	"_maxwds\000"
 2170      77647300 
 2171              	.LASF105:
 2172 0512 5F6C3634 		.ascii	"_l64a_buf\000"
 2172      615F6275 
 2172      6600
 2173              	.LASF59:
 2174 051c 5F626C6B 		.ascii	"_blksize\000"
 2174      73697A65 
 2174      00
ARM GAS  /tmp/cchUFGpm.s 			page 43


 2175              	.LASF27:
 2176 0525 5F5F746D 		.ascii	"__tm\000"
 2176      00
 2177              	.LASF62:
 2178 052a 5F6C6F63 		.ascii	"_lock\000"
 2178      6B00
 2179              	.LASF6:
 2180 0530 6C6F6E67 		.ascii	"long unsigned int\000"
 2180      20756E73 
 2180      69676E65 
 2180      6420696E 
 2180      7400
 2181              	.LASF89:
 2182 0542 5F6E696F 		.ascii	"_niobs\000"
 2182      627300
 2183              	.LASF13:
 2184 0549 77696E74 		.ascii	"wint_t\000"
 2184      5F7400
 2185              	.LASF39:
 2186 0550 5F64736F 		.ascii	"_dso_handle\000"
 2186      5F68616E 
 2186      646C6500 
 2187              	.LASF117:
 2188 055c 5F5F6C6F 		.ascii	"__lock\000"
 2188      636B00
 2189              	.LASF81:
 2190 0563 5F637674 		.ascii	"_cvtbuf\000"
 2190      62756600 
 2191              	.LASF2:
 2192 056b 756E7369 		.ascii	"unsigned char\000"
 2192      676E6564 
 2192      20636861 
 2192      7200
 2193              	.LASF9:
 2194 0579 5F5F7569 		.ascii	"__uint32_t\000"
 2194      6E743332 
 2194      5F7400
 2195              	.LASF107:
 2196 0584 5F676574 		.ascii	"_getdate_err\000"
 2196      64617465 
 2196      5F657272 
 2196      00
 2197              	.LASF94:
 2198 0591 5F616464 		.ascii	"_add\000"
 2198      00
 2199              	.LASF45:
 2200 0596 5F5F7362 		.ascii	"__sbuf\000"
 2200      756600
 2201              	.LASF88:
 2202 059d 5F676C75 		.ascii	"_glue\000"
 2202      6500
 2203              	.LASF85:
 2204 05a3 5F5F7367 		.ascii	"__sglue\000"
 2204      6C756500 
 2205              	.LASF96:
 2206 05ab 5F737472 		.ascii	"_strtok_last\000"
 2206      746F6B5F 
ARM GAS  /tmp/cchUFGpm.s 			page 44


 2206      6C617374 
 2206      00
 2207              	.LASF103:
 2208 05b8 5F6D6274 		.ascii	"_mbtowc_state\000"
 2208      6F77635F 
 2208      73746174 
 2208      6500
 2209              	.LASF73:
 2210 05c6 5F6C6F63 		.ascii	"_locale\000"
 2210      616C6500 
 2211              	.LASF38:
 2212 05ce 5F666E61 		.ascii	"_fnargs\000"
 2212      72677300 
 2213              	.LASF1:
 2214 05d6 7369676E 		.ascii	"signed char\000"
 2214      65642063 
 2214      68617200 
 2215              	.LASF65:
 2216 05e2 5F726565 		.ascii	"_reent\000"
 2216      6E7400
 2217              	.LASF4:
 2218 05e9 73686F72 		.ascii	"short unsigned int\000"
 2218      7420756E 
 2218      7369676E 
 2218      65642069 
 2218      6E7400
 2219              	.LASF40:
 2220 05fc 5F666E74 		.ascii	"_fntypes\000"
 2220      79706573 
 2220      00
 2221              	.LASF47:
 2222 0605 5F73697A 		.ascii	"_size\000"
 2222      6500
 2223              	.LASF11:
 2224 060b 5F6F6666 		.ascii	"_off_t\000"
 2224      5F7400
 2225              	.LASF136:
 2226 0612 6C626D5F 		.ascii	"lbm_init_env\000"
 2226      696E6974 
 2226      5F656E76 
 2226      00
 2227              	.LASF58:
 2228 061f 5F6E6275 		.ascii	"_nbuf\000"
 2228      6600
 2229              	.LASF95:
 2230 0625 5F756E75 		.ascii	"_unused_rand\000"
 2230      7365645F 
 2230      72616E64 
 2230      00
 2231              	.LASF72:
 2232 0632 5F756E73 		.ascii	"_unspecified_locale_info\000"
 2232      70656369 
 2232      66696564 
 2232      5F6C6F63 
 2232      616C655F 
 2233              	.LASF64:
 2234 064b 5F666C61 		.ascii	"_flags2\000"
ARM GAS  /tmp/cchUFGpm.s 			page 45


 2234      67733200 
 2235              	.LASF41:
 2236 0653 5F69735F 		.ascii	"_is_cxa\000"
 2236      63786100 
 2237              	.LASF92:
 2238 065b 5F736565 		.ascii	"_seed\000"
 2238      6400
 2239              	.LASF100:
 2240 0661 5F72616E 		.ascii	"_rand_next\000"
 2240      645F6E65 
 2240      787400
 2241              	.LASF118:
 2242 066c 5F5F6C6F 		.ascii	"__locale_t\000"
 2242      63616C65 
 2242      5F7400
 2243              	.LASF55:
 2244 0677 5F736565 		.ascii	"_seek\000"
 2244      6B00
 2245              	.LASF69:
 2246 067d 5F737464 		.ascii	"_stderr\000"
 2246      65727200 
 2247              	.LASF115:
 2248 0685 5F6E6D61 		.ascii	"_nmalloc\000"
 2248      6C6C6F63 
 2248      00
 2249              	.LASF57:
 2250 068e 5F756275 		.ascii	"_ubuf\000"
 2250      6600
 2251              		.ident	"GCC: (GNU Tools for Arm Embedded Processors 7-2018-q3-update) 7.3.1 20180622 (release) [AR
ARM GAS  /tmp/cchUFGpm.s 			page 46


DEFINED SYMBOLS
                            *ABS*:0000000000000000 lispbm.c
     /tmp/cchUFGpm.s:18     .text.lbm_init:0000000000000000 $t
     /tmp/cchUFGpm.s:26     .text.lbm_init:0000000000000000 lbm_init

UNDEFINED SYMBOLS
lbm_memory_init
lbm_symrepr_init
lbm_heap_init
lbm_init_env
lbm_eval_init
lbm_extensions_init
