ARM GAS  /tmp/ccEbIy6V.s 			page 1


   1              		.cpu cortex-m4
   2              		.eabi_attribute 27, 1
   3              		.eabi_attribute 28, 1
   4              		.eabi_attribute 20, 1
   5              		.eabi_attribute 21, 1
   6              		.eabi_attribute 23, 3
   7              		.eabi_attribute 24, 1
   8              		.eabi_attribute 25, 1
   9              		.eabi_attribute 26, 1
  10              		.eabi_attribute 30, 2
  11              		.eabi_attribute 34, 1
  12              		.eabi_attribute 18, 4
  13              		.file	"lispif_vesc_extensions.c"
  14              		.text
  15              	.Ltext0:
  16              		.cfi_sections	.debug_frame
  17              		.section	.text.is_number_all,"ax",%progbits
  18              		.align	1
  19              		.p2align 4,,15
  20              		.syntax unified
  21              		.thumb
  22              		.thumb_func
  23              		.fpu fpv4-sp-d16
  24              		.type	is_number_all, %function
  25              	is_number_all:
  26              	.LFB302:
  27              		.file 1 "lispBM/lispif_vesc_extensions.c"
  28              		.loc 1 46 0
  29              		.cfi_startproc
  30              		@ args = 0, pretend = 0, frame = 0
  31              		@ frame_needed = 0, uses_anonymous_args = 0
  32              		@ link register save eliminated.
  33              	.LVL0:
  34              	.LBB489:
  35              		.loc 1 47 0
  36 0000 11B3     		cbz	r1, .L7
  37              	.LBE489:
  38              		.loc 1 46 0
  39 0002 30B4     		push	{r4, r5}
  40              		.cfi_def_cfa_offset 8
  41              		.cfi_offset 4, -8
  42              		.cfi_offset 5, -4
  43 0004 0438     		subs	r0, r0, #4
  44              	.LVL1:
  45              	.LBB496:
  46              		.loc 1 47 0
  47 0006 0022     		movs	r2, #0
  48              	.LVL2:
  49              	.L6:
  50              		.loc 1 48 0
  51 0008 50F8043F 		ldr	r3, [r0, #4]!
  52              	.LVL3:
  53              	.LBB490:
  54              	.LBB491:
  55              	.LBB492:
  56              	.LBB493:
  57              		.file 2 "lispBM/lispBM/include/heap.h"
ARM GAS  /tmp/ccEbIy6V.s 			page 2


  58              		.loc 2 461 0
  59 000c DC07     		lsls	r4, r3, #31
  60 000e 4CBF     		ite	mi
  61 0010 03F07C43 		andmi	r3, r3, #-67108864
  62              	.LVL4:
  63 0014 03F00C03 		andpl	r3, r3, #12
  64              	.LVL5:
  65              	.LBE493:
  66              	.LBE492:
  67              		.loc 2 561 0
  68 0018 082B     		cmp	r3, #8
  69              	.LBE491:
  70              	.LBE490:
  71              		.loc 1 47 0
  72 001a 02F10102 		add	r2, r2, #1
  73              	.LVL6:
  74              	.LBB495:
  75              	.LBB494:
  76              		.loc 2 562 0
  77 001e 23F00804 		bic	r4, r3, #8
  78              		.loc 2 564 0
  79 0022 23F08055 		bic	r5, r3, #268435456
  80              		.loc 2 561 0
  81 0026 0AD0     		beq	.L5
  82              		.loc 2 562 0
  83 0028 042C     		cmp	r4, #4
  84 002a 08D0     		beq	.L5
  85              		.loc 2 564 0
  86 002c B5F1005F 		cmp	r5, #536870912
  87 0030 05D0     		beq	.L5
  88              		.loc 2 565 0
  89 0032 B3F1804F 		cmp	r3, #1073741824
  90 0036 02D0     		beq	.L5
  91              	.LBE494:
  92              	.LBE495:
  93              		.loc 1 49 0
  94 0038 0020     		movs	r0, #0
  95              	.LBE496:
  96              		.loc 1 53 0
  97 003a 30BC     		pop	{r4, r5}
  98              		.cfi_remember_state
  99              		.cfi_restore 5
 100              		.cfi_restore 4
 101              		.cfi_def_cfa_offset 0
 102 003c 7047     		bx	lr
 103              	.L5:
 104              		.cfi_restore_state
 105              	.LBB497:
 106              		.loc 1 47 0
 107 003e 9142     		cmp	r1, r2
 108 0040 E2D1     		bne	.L6
 109              	.LBE497:
 110              		.loc 1 52 0
 111 0042 0120     		movs	r0, #1
 112              		.loc 1 53 0
 113 0044 30BC     		pop	{r4, r5}
 114              		.cfi_restore 5
ARM GAS  /tmp/ccEbIy6V.s 			page 3


 115              		.cfi_restore 4
 116              		.cfi_def_cfa_offset 0
 117 0046 7047     		bx	lr
 118              	.LVL7:
 119              	.L7:
 120              		.loc 1 52 0
 121 0048 0120     		movs	r0, #1
 122              	.LVL8:
 123              		.loc 1 53 0
 124 004a 7047     		bx	lr
 125              		.cfi_endproc
 126              	.LFE302:
 127              		.size	is_number_all, .-is_number_all
 128              		.section	.text.lbm_enc_F,"ax",%progbits
 129              		.align	1
 130              		.p2align 4,,15
 131              		.syntax unified
 132              		.thumb
 133              		.thumb_func
 134              		.fpu fpv4-sp-d16
 135              		.type	lbm_enc_F, %function
 136              	lbm_enc_F:
 137              	.LFB11:
 138              		.loc 2 504 0
 139              		.cfi_startproc
 140              		@ args = 0, pretend = 0, frame = 0
 141              		@ frame_needed = 0, uses_anonymous_args = 0
 142              	.LVL9:
 143 0000 08B5     		push	{r3, lr}
 144              		.cfi_def_cfa_offset 8
 145              		.cfi_offset 3, -8
 146              		.cfi_offset 14, -4
 147              		.loc 2 507 0
 148 0002 4FF40C71 		mov	r1, #560
 149 0006 10EE100A 		vmov	r0, s0	@ int
 150 000a FFF7FEFF 		bl	lbm_cons
 151              	.LVL10:
 152              	.LBB502:
 153              	.LBB503:
 154              		.loc 2 461 0
 155 000e C307     		lsls	r3, r0, #31
 156 0010 4CBF     		ite	mi
 157 0012 00F07C43 		andmi	r3, r0, #-67108864
 158 0016 00F00C03 		andpl	r3, r0, #12
 159              	.LBE503:
 160              	.LBE502:
 161              		.loc 2 508 0
 162 001a 3BB1     		cbz	r3, .L27
 163              	.LVL11:
 164              	.LBB504:
 165              	.LBB505:
 166              		.loc 2 477 0
 167 001c 20F07C40 		bic	r0, r0, #-67108864
 168              	.LVL12:
 169 0020 20F00700 		bic	r0, r0, #7
 170 0024 40F08040 		orr	r0, r0, #1073741824
 171 0028 40F00100 		orr	r0, r0, #1
ARM GAS  /tmp/ccEbIy6V.s 			page 4


 172              	.LVL13:
 173              	.L27:
 174              	.LBE505:
 175              	.LBE504:
 176              		.loc 2 510 0
 177 002c 08BD     		pop	{r3, pc}
 178              		.cfi_endproc
 179              	.LFE11:
 180              		.size	lbm_enc_F, .-lbm_enc_F
 181 002e 00BF     		.section	.text.ext_get_fault,"ax",%progbits
 182              		.align	1
 183              		.p2align 4,,15
 184              		.syntax unified
 185              		.thumb
 186              		.thumb_func
 187              		.fpu fpv4-sp-d16
 188              		.type	ext_get_fault, %function
 189              	ext_get_fault:
 190              	.LFB335:
 191              		.loc 1 388 0
 192              		.cfi_startproc
 193              		@ args = 0, pretend = 0, frame = 0
 194              		@ frame_needed = 0, uses_anonymous_args = 0
 195              	.LVL14:
 196 0000 08B5     		push	{r3, lr}
 197              		.cfi_def_cfa_offset 8
 198              		.cfi_offset 3, -8
 199              		.cfi_offset 14, -4
 200              		.loc 1 390 0
 201 0002 FFF7FEFF 		bl	mc_interface_get_fault
 202              	.LVL15:
 203              	.LBB506:
 204              	.LBB507:
 205              		.loc 2 485 0
 206 0006 0001     		lsls	r0, r0, #4
 207              	.LBE507:
 208              	.LBE506:
 209              		.loc 1 391 0
 210 0008 40F00C00 		orr	r0, r0, #12
 211 000c 08BD     		pop	{r3, pc}
 212              		.cfi_endproc
 213              	.LFE335:
 214              		.size	ext_get_fault, .-ext_get_fault
 215 000e 00BF     		.section	.text.ext_get_selected_motor,"ax",%progbits
 216              		.align	1
 217              		.p2align 4,,15
 218              		.syntax unified
 219              		.thumb
 220              		.thumb_func
 221              		.fpu fpv4-sp-d16
 222              		.type	ext_get_selected_motor, %function
 223              	ext_get_selected_motor:
 224              	.LFB310:
 225              		.loc 1 129 0
 226              		.cfi_startproc
 227              		@ args = 0, pretend = 0, frame = 0
 228              		@ frame_needed = 0, uses_anonymous_args = 0
ARM GAS  /tmp/ccEbIy6V.s 			page 5


 229              	.LVL16:
 230 0000 08B5     		push	{r3, lr}
 231              		.cfi_def_cfa_offset 8
 232              		.cfi_offset 3, -8
 233              		.cfi_offset 14, -4
 234              		.loc 1 131 0
 235 0002 FFF7FEFF 		bl	mc_interface_motor_now
 236              	.LVL17:
 237              	.LBB508:
 238              	.LBB509:
 239              		.loc 2 485 0
 240 0006 0001     		lsls	r0, r0, #4
 241              	.LBE509:
 242              	.LBE508:
 243              		.loc 1 132 0
 244 0008 40F00C00 		orr	r0, r0, #12
 245 000c 08BD     		pop	{r3, pc}
 246              		.cfi_endproc
 247              	.LFE310:
 248              		.size	ext_get_selected_motor, .-ext_get_selected_motor
 249 000e 00BF     		.section	.text.ext_reset_timeout,"ax",%progbits
 250              		.align	1
 251              		.p2align 4,,15
 252              		.syntax unified
 253              		.thumb
 254              		.thumb_func
 255              		.fpu fpv4-sp-d16
 256              		.type	ext_reset_timeout, %function
 257              	ext_reset_timeout:
 258              	.LFB305:
 259              		.loc 1 98 0
 260              		.cfi_startproc
 261              		@ args = 0, pretend = 0, frame = 0
 262              		@ frame_needed = 0, uses_anonymous_args = 0
 263              	.LVL18:
 264 0000 08B5     		push	{r3, lr}
 265              		.cfi_def_cfa_offset 8
 266              		.cfi_offset 3, -8
 267              		.cfi_offset 14, -4
 268              		.loc 1 100 0
 269 0002 FFF7FEFF 		bl	timeout_reset
 270              	.LVL19:
 271              		.loc 1 102 0
 272 0006 2020     		movs	r0, #32
 273 0008 08BD     		pop	{r3, pc}
 274              		.cfi_endproc
 275              	.LFE305:
 276              		.size	ext_reset_timeout, .-ext_reset_timeout
 277 000a 00BF     		.section	.text.ext_print,"ax",%progbits
 278              		.align	1
 279              		.p2align 4,,15
 280              		.syntax unified
 281              		.thumb
 282              		.thumb_func
 283              		.fpu fpv4-sp-d16
 284              		.type	ext_print, %function
 285              	ext_print:
ARM GAS  /tmp/ccEbIy6V.s 			page 6


 286              	.LFB303:
 287              		.loc 1 61 0
 288              		.cfi_startproc
 289              		@ args = 0, pretend = 0, frame = 0
 290              		@ frame_needed = 0, uses_anonymous_args = 0
 291              	.LVL20:
 292              	.LBB510:
 293              		.loc 1 64 0
 294 0000 0029     		cmp	r1, #0
 295 0002 41D0     		beq	.L58
 296              	.LBE510:
 297              		.loc 1 61 0
 298 0004 2DE9F843 		push	{r3, r4, r5, r6, r7, r8, r9, lr}
 299              		.cfi_def_cfa_offset 32
 300              		.cfi_offset 3, -32
 301              		.cfi_offset 4, -28
 302              		.cfi_offset 5, -24
 303              		.cfi_offset 6, -20
 304              		.cfi_offset 7, -16
 305              		.cfi_offset 8, -12
 306              		.cfi_offset 9, -8
 307              		.cfi_offset 14, -4
 308 0008 0E46     		mov	r6, r1
 309              	.LBB523:
 310              	.LBB511:
 311              		.loc 1 84 0
 312 000a 204F     		ldr	r7, .L63
 313              		.loc 1 85 0
 314 000c DFF88480 		ldr	r8, .L63+8
 315              		.loc 1 81 0
 316 0010 DFF88490 		ldr	r9, .L63+12
 317 0014 051F     		subs	r5, r0, #4
 318              	.LBE511:
 319              		.loc 1 64 0
 320 0016 0024     		movs	r4, #0
 321 0018 0DE0     		b	.L50
 322              	.LVL21:
 323              	.L43:
 324              	.LBB519:
 325              	.LBB512:
 326              	.LBB513:
 327              		.loc 2 461 0
 328 001a 02F00C03 		and	r3, r2, #12
 329              	.LVL22:
 330              	.L44:
 331              	.LBE513:
 332              	.LBE512:
 333              		.loc 1 77 0
 334 001e 042B     		cmp	r3, #4
 335 0020 22D1     		bne	.L48
 336              		.loc 1 78 0
 337 0022 C2F30711 		ubfx	r1, r2, #4, #8
 338 0026 0A29     		cmp	r1, #10
 339 0028 28D0     		beq	.L61
 340              		.loc 1 81 0
 341 002a 4846     		mov	r0, r9
 342 002c FFF7FEFF 		bl	commands_printf_lisp
ARM GAS  /tmp/ccEbIy6V.s 			page 7


 343              	.LVL23:
 344              	.L47:
 345              	.LBE519:
 346              		.loc 1 64 0 discriminator 2
 347 0030 0134     		adds	r4, r4, #1
 348              	.LVL24:
 349 0032 A642     		cmp	r6, r4
 350 0034 15D0     		beq	.L62
 351              	.LVL25:
 352              	.L50:
 353              	.LBB520:
 354              		.loc 1 65 0
 355 0036 55F8042F 		ldr	r2, [r5, #4]!
 356              	.LVL26:
 357              		.loc 1 67 0
 358 003a D307     		lsls	r3, r2, #31
 359 003c EDD5     		bpl	.L43
 360              	.LVL27:
 361              	.LBB514:
 362              	.LBB515:
 363              		.loc 2 461 0
 364 003e 02F07C43 		and	r3, r2, #-67108864
 365              	.LVL28:
 366              	.LBE515:
 367              	.LBE514:
 368              		.loc 1 67 0
 369 0042 B3F1504F 		cmp	r3, #-805306368
 370 0046 EAD1     		bne	.L44
 371              	.LBB516:
 372              		.loc 1 68 0
 373 0048 1046     		mov	r0, r2
 374 004a FFF7FEFF 		bl	lbm_car
 375              	.LVL29:
 376              		.loc 1 69 0
 377 004e 0368     		ldr	r3, [r0]
 378 0050 042B     		cmp	r3, #4
 379 0052 17D1     		bne	.L56
 380              		.loc 1 71 0
 381 0054 8168     		ldr	r1, [r0, #8]
 382              	.LBE516:
 383              	.LBE520:
 384              		.loc 1 64 0
 385 0056 0134     		adds	r4, r4, #1
 386              	.LVL30:
 387              	.LBB521:
 388              	.LBB517:
 389              		.loc 1 71 0
 390 0058 4046     		mov	r0, r8
 391              	.LVL31:
 392 005a FFF7FEFF 		bl	commands_printf_lisp
 393              	.LVL32:
 394              	.LBE517:
 395              	.LBE521:
 396              		.loc 1 64 0
 397 005e A642     		cmp	r6, r4
 398 0060 E9D1     		bne	.L50
 399              	.L62:
ARM GAS  /tmp/ccEbIy6V.s 			page 8


 400              	.LBE523:
 401              		.loc 1 89 0
 402 0062 2020     		movs	r0, #32
 403              	.L41:
 404              		.loc 1 90 0
 405 0064 BDE8F883 		pop	{r3, r4, r5, r6, r7, r8, r9, pc}
 406              	.LVL33:
 407              	.L48:
 408              	.LBB524:
 409              	.LBB522:
 410              		.loc 1 84 0
 411 0068 4FF48071 		mov	r1, #256
 412 006c 3846     		mov	r0, r7
 413 006e FFF7FEFF 		bl	lbm_print_value
 414              	.LVL34:
 415              		.loc 1 85 0
 416 0072 3946     		mov	r1, r7
 417 0074 4046     		mov	r0, r8
 418 0076 FFF7FEFF 		bl	commands_printf_lisp
 419              	.LVL35:
 420 007a D9E7     		b	.L47
 421              	.LVL36:
 422              	.L61:
 423              		.loc 1 79 0
 424 007c 0448     		ldr	r0, .L63+4
 425 007e FFF7FEFF 		bl	commands_printf_lisp
 426              	.LVL37:
 427 0082 D5E7     		b	.L47
 428              	.LVL38:
 429              	.L56:
 430              	.LBB518:
 431              		.loc 1 74 0
 432 0084 0020     		movs	r0, #0
 433              	.LVL39:
 434 0086 EDE7     		b	.L41
 435              	.LVL40:
 436              	.L58:
 437              		.cfi_def_cfa_offset 0
 438              		.cfi_restore 3
 439              		.cfi_restore 4
 440              		.cfi_restore 5
 441              		.cfi_restore 6
 442              		.cfi_restore 7
 443              		.cfi_restore 8
 444              		.cfi_restore 9
 445              		.cfi_restore 14
 446              	.LBE518:
 447              	.LBE522:
 448              	.LBE524:
 449              		.loc 1 89 0
 450 0088 2020     		movs	r0, #32
 451              	.LVL41:
 452              		.loc 1 90 0
 453 008a 7047     		bx	lr
 454              	.L64:
 455              		.align	2
 456              	.L63:
ARM GAS  /tmp/ccEbIy6V.s 			page 9


 457 008c 00000000 		.word	.LANCHOR0
 458 0090 04000000 		.word	.LC1
 459 0094 00000000 		.word	.LC0
 460 0098 08000000 		.word	.LC2
 461              		.cfi_endproc
 462              	.LFE303:
 463              		.size	ext_print, .-ext_print
 464              		.section	.text.ext_register_event_handler,"ax",%progbits
 465              		.align	1
 466              		.p2align 4,,15
 467              		.syntax unified
 468              		.thumb
 469              		.thumb_func
 470              		.fpu fpv4-sp-d16
 471              		.type	ext_register_event_handler, %function
 472              	ext_register_event_handler:
 473              	.LFB356:
 474              		.loc 1 627 0
 475              		.cfi_startproc
 476              		@ args = 0, pretend = 0, frame = 0
 477              		@ frame_needed = 0, uses_anonymous_args = 0
 478              	.LVL42:
 479              		.loc 1 628 0
 480 0000 0129     		cmp	r1, #1
 481 0002 01D0     		beq	.L66
 482              	.LVL43:
 483              	.L88:
 484              		.loc 1 630 0
 485 0004 9020     		movs	r0, #144
 486              		.loc 1 641 0
 487 0006 7047     		bx	lr
 488              	.LVL44:
 489              	.L66:
 490              	.LBB541:
 491              	.LBB542:
 492              		.loc 1 629 0
 493 0008 0068     		ldr	r0, [r0]
 494              	.LVL45:
 495              	.LBB543:
 496              	.LBB544:
 497              		.loc 2 461 0
 498 000a C207     		lsls	r2, r0, #31
 499 000c FAD5     		bpl	.L88
 500              	.LVL46:
 501              	.LBE544:
 502              	.LBE543:
 503              	.LBE542:
 504              	.LBE541:
 505              		.loc 1 627 0
 506 000e 08B5     		push	{r3, lr}
 507              		.cfi_def_cfa_offset 8
 508              		.cfi_offset 3, -8
 509              		.cfi_offset 14, -4
 510              	.LBB555:
 511              	.LBB553:
 512              	.LBB546:
 513              	.LBB545:
ARM GAS  /tmp/ccEbIy6V.s 			page 10


 514              		.loc 2 461 0
 515 0010 00F07C43 		and	r3, r0, #-67108864
 516              	.LBE545:
 517              	.LBE546:
 518              		.loc 1 628 0
 519 0014 B3F1805F 		cmp	r3, #268435456
 520 0018 01D0     		beq	.L91
 521              	.LVL47:
 522              	.L68:
 523              	.LBE553:
 524              	.LBE555:
 525              		.loc 1 630 0
 526 001a 9020     		movs	r0, #144
 527              		.loc 1 641 0
 528 001c 08BD     		pop	{r3, pc}
 529              	.LVL48:
 530              	.L91:
 531              	.LBB556:
 532              	.LBB554:
 533              		.loc 1 633 0
 534 001e FFF7FEFF 		bl	lbm_car
 535              	.LVL49:
 536              	.LBB547:
 537              	.LBB548:
 538              	.LBB549:
 539              	.LBB550:
 540              		.loc 2 461 0
 541 0022 C307     		lsls	r3, r0, #31
 542 0024 4CBF     		ite	mi
 543 0026 00F07C43 		andmi	r3, r0, #-67108864
 544 002a 00F00C03 		andpl	r3, r0, #12
 545              	.LVL50:
 546              	.LBE550:
 547              	.LBE549:
 548              		.loc 2 561 0
 549 002e 082B     		cmp	r3, #8
 550 0030 0BD0     		beq	.L71
 551              		.loc 2 562 0
 552 0032 23F00802 		bic	r2, r3, #8
 553 0036 042A     		cmp	r2, #4
 554 0038 07D0     		beq	.L71
 555              		.loc 2 564 0
 556 003a 23F08052 		bic	r2, r3, #268435456
 557 003e B2F1005F 		cmp	r2, #536870912
 558 0042 02D0     		beq	.L71
 559              		.loc 2 565 0
 560 0044 B3F1804F 		cmp	r3, #1073741824
 561 0048 E7D1     		bne	.L68
 562              	.L71:
 563              	.LVL51:
 564              	.LBE548:
 565              	.LBE547:
 566              		.loc 1 636 0
 567 004a 0449     		ldr	r1, .L92
 568              		.loc 1 635 0
 569 004c 044B     		ldr	r3, .L92+4
 570              	.LBB551:
ARM GAS  /tmp/ccEbIy6V.s 			page 11


 571              	.LBB552:
 572              		.loc 2 517 0
 573 004e 0011     		asrs	r0, r0, #4
 574              	.LVL52:
 575              	.LBE552:
 576              	.LBE551:
 577              		.loc 1 635 0
 578 0050 0122     		movs	r2, #1
 579              		.loc 1 636 0
 580 0052 0860     		str	r0, [r1]
 581              		.loc 1 635 0
 582 0054 1A70     		strb	r2, [r3]
 583              		.loc 1 637 0
 584 0056 2020     		movs	r0, #32
 585              	.LBE554:
 586              	.LBE556:
 587              		.loc 1 641 0
 588 0058 08BD     		pop	{r3, pc}
 589              	.L93:
 590 005a 00BF     		.align	2
 591              	.L92:
 592 005c 00000000 		.word	.LANCHOR2
 593 0060 00000000 		.word	.LANCHOR1
 594              		.cfi_endproc
 595              	.LFE356:
 596              		.size	ext_register_event_handler, .-ext_register_event_handler
 597              		.section	.text.ext_set_aux,"ax",%progbits
 598              		.align	1
 599              		.p2align 4,,15
 600              		.syntax unified
 601              		.thumb
 602              		.thumb_func
 603              		.fpu fpv4-sp-d16
 604              		.type	ext_set_aux, %function
 605              	ext_set_aux:
 606              	.LFB315:
 607              		.loc 1 256 0
 608              		.cfi_startproc
 609              		@ args = 0, pretend = 0, frame = 0
 610              		@ frame_needed = 0, uses_anonymous_args = 0
 611              	.LVL53:
 612              		.loc 1 257 0
 613 0000 0229     		cmp	r1, #2
 614 0002 01D0     		beq	.L105
 615              	.LBB567:
 616              	.LBB568:
 617              		.loc 1 277 0
 618 0004 9020     		movs	r0, #144
 619              	.LVL54:
 620              	.LBE568:
 621              	.LBE567:
 622              		.loc 1 278 0
 623 0006 7047     		bx	lr
 624              	.LVL55:
 625              	.L105:
 626              		.loc 1 256 0 discriminator 2
 627 0008 38B5     		push	{r3, r4, r5, lr}
ARM GAS  /tmp/ccEbIy6V.s 			page 12


 628              		.cfi_def_cfa_offset 16
 629              		.cfi_offset 3, -16
 630              		.cfi_offset 4, -12
 631              		.cfi_offset 5, -8
 632              		.cfi_offset 14, -4
 633 000a 0446     		mov	r4, r0
 634              		.loc 1 257 0 discriminator 2
 635 000c FFF7FEFF 		bl	is_number_all
 636              	.LVL56:
 637 0010 08B9     		cbnz	r0, .L106
 638              	.LVL57:
 639              	.L95:
 640              	.LBB571:
 641              	.LBB569:
 642              		.loc 1 277 0
 643 0012 9020     		movs	r0, #144
 644              	.LBE569:
 645              	.LBE571:
 646              		.loc 1 278 0
 647 0014 38BD     		pop	{r3, r4, r5, pc}
 648              	.LVL58:
 649              	.L106:
 650              	.LBB572:
 651              	.LBB570:
 652              		.loc 1 259 0
 653 0016 2068     		ldr	r0, [r4]
 654 0018 FFF7FEFF 		bl	lbm_dec_as_u
 655              	.LVL59:
 656 001c 0546     		mov	r5, r0
 657              	.LVL60:
 658              		.loc 1 261 0
 659 001e 013D     		subs	r5, r5, #1
 660              		.loc 1 260 0
 661 0020 6068     		ldr	r0, [r4, #4]
 662              	.LVL61:
 663 0022 FFF7FEFF 		bl	lbm_dec_as_u
 664              	.LVL62:
 665              		.loc 1 261 0
 666 0026 012D     		cmp	r5, #1
 667 0028 F3D8     		bhi	.L95
 668              		.loc 1 267 0
 669 002a 2020     		movs	r0, #32
 670              	.LBE570:
 671              	.LBE572:
 672              		.loc 1 278 0
 673 002c 38BD     		pop	{r3, r4, r5, pc}
 674              		.cfi_endproc
 675              	.LFE315:
 676              		.size	ext_set_aux, .-ext_set_aux
 677 002e 00BF     		.section	.text.ext_can_send,"ax",%progbits
 678              		.align	1
 679              		.p2align 4,,15
 680              		.syntax unified
 681              		.thumb
 682              		.thumb_func
 683              		.fpu fpv4-sp-d16
 684              		.type	ext_can_send, %function
ARM GAS  /tmp/ccEbIy6V.s 			page 13


 685              	ext_can_send:
 686              	.LFB345:
 687              		.loc 1 473 0
 688              		.cfi_startproc
 689              		@ args = 0, pretend = 0, frame = 8
 690              		@ frame_needed = 0, uses_anonymous_args = 0
 691              	.LVL63:
 692              		.loc 1 474 0
 693 0000 0229     		cmp	r1, #2
 694 0002 01D0     		beq	.L155
 695              		.loc 1 476 0
 696 0004 9020     		movs	r0, #144
 697              	.LVL64:
 698              		.loc 1 506 0
 699 0006 7047     		bx	lr
 700              	.LVL65:
 701              	.L155:
 702              		.loc 1 475 0 discriminator 1
 703 0008 0368     		ldr	r3, [r0]
 704              	.LVL66:
 705              		.loc 1 473 0 discriminator 1
 706 000a 2DE9F041 		push	{r4, r5, r6, r7, r8, lr}
 707              		.cfi_def_cfa_offset 24
 708              		.cfi_offset 4, -24
 709              		.cfi_offset 5, -20
 710              		.cfi_offset 6, -16
 711              		.cfi_offset 7, -12
 712              		.cfi_offset 8, -8
 713              		.cfi_offset 14, -4
 714              	.LBB596:
 715              	.LBB597:
 716              	.LBB598:
 717              	.LBB599:
 718              		.loc 2 461 0 discriminator 1
 719 000e DC07     		lsls	r4, r3, #31
 720 0010 4CBF     		ite	mi
 721 0012 03F07C41 		andmi	r1, r3, #-67108864
 722              	.LVL67:
 723 0016 03F00C01 		andpl	r1, r3, #12
 724              	.LVL68:
 725              	.LBE599:
 726              	.LBE598:
 727              		.loc 2 561 0 discriminator 1
 728 001a 0829     		cmp	r1, #8
 729              	.LBE597:
 730              	.LBE596:
 731              		.loc 1 473 0 discriminator 1
 732 001c 82B0     		sub	sp, sp, #8
 733              		.cfi_def_cfa_offset 32
 734              	.LBB601:
 735              	.LBB600:
 736              		.loc 2 561 0 discriminator 1
 737 001e 0BD0     		beq	.L111
 738              		.loc 2 562 0
 739 0020 21F00804 		bic	r4, r1, #8
 740 0024 042C     		cmp	r4, #4
 741 0026 07D0     		beq	.L111
ARM GAS  /tmp/ccEbIy6V.s 			page 14


 742              		.loc 2 564 0
 743 0028 21F08054 		bic	r4, r1, #268435456
 744 002c B4F1005F 		cmp	r4, #536870912
 745 0030 02D0     		beq	.L111
 746              		.loc 2 565 0
 747 0032 B1F1804F 		cmp	r1, #1073741824
 748 0036 26D1     		bne	.L154
 749              	.L111:
 750              	.LVL69:
 751              	.LBE600:
 752              	.LBE601:
 753              	.LBB602:
 754              	.LBB603:
 755              		.loc 1 479 0
 756 0038 4468     		ldr	r4, [r0, #4]
 757              	.LBB604:
 758              	.LBB605:
 759              		.loc 2 461 0
 760 003a 14F00105 		ands	r5, r4, #1
 761 003e 1746     		mov	r7, r2
 762              	.LVL70:
 763 0040 0646     		mov	r6, r0
 764 0042 25D0     		beq	.L118
 765              	.LVL71:
 766 0044 04F07C42 		and	r2, r4, #-67108864
 767              	.LVL72:
 768              	.LBE605:
 769              	.LBE604:
 770              		.loc 1 483 0
 771 0048 B2F1805F 		cmp	r2, #268435456
 772 004c 1FD1     		bne	.L156
 773 004e 0DF1FF38 		add	r8, sp, #-1
 774              		.loc 1 481 0
 775 0052 0025     		movs	r5, #0
 776              	.LVL73:
 777              	.L117:
 778              	.LBB608:
 779              		.loc 1 484 0
 780 0054 2046     		mov	r0, r4
 781 0056 FFF7FEFF 		bl	lbm_car
 782              	.LVL74:
 783              	.LBB609:
 784              	.LBB610:
 785              	.LBB611:
 786              	.LBB612:
 787              		.loc 2 461 0
 788 005a C107     		lsls	r1, r0, #31
 789 005c 4CBF     		ite	mi
 790 005e 00F07C43 		andmi	r3, r0, #-67108864
 791 0062 00F00C03 		andpl	r3, r0, #12
 792              	.LVL75:
 793              	.LBE612:
 794              	.LBE611:
 795              		.loc 2 561 0
 796 0066 082B     		cmp	r3, #8
 797              	.LBE610:
 798              	.LBE609:
ARM GAS  /tmp/ccEbIy6V.s 			page 15


 799              		.loc 1 487 0
 800 0068 05F10105 		add	r5, r5, #1
 801              	.LVL76:
 802              	.LBB614:
 803              	.LBB613:
 804              		.loc 2 562 0
 805 006c 23F00802 		bic	r2, r3, #8
 806              		.loc 2 564 0
 807 0070 23F08051 		bic	r1, r3, #268435456
 808              		.loc 2 561 0
 809 0074 16D0     		beq	.L114
 810              		.loc 2 562 0
 811 0076 042A     		cmp	r2, #4
 812 0078 14D0     		beq	.L114
 813              		.loc 2 564 0
 814 007a B1F1005F 		cmp	r1, #536870912
 815 007e 11D0     		beq	.L114
 816              		.loc 2 565 0
 817 0080 B3F1804F 		cmp	r3, #1073741824
 818 0084 0ED0     		beq	.L114
 819              	.LVL77:
 820              	.L154:
 821              	.LBE613:
 822              	.LBE614:
 823              		.loc 1 489 0
 824 0086 9020     		movs	r0, #144
 825              	.L107:
 826              	.LBE608:
 827              	.LBE603:
 828              	.LBE602:
 829              		.loc 1 506 0
 830 0088 02B0     		add	sp, sp, #8
 831              		.cfi_remember_state
 832              		.cfi_def_cfa_offset 24
 833              		@ sp needed
 834 008a BDE8F081 		pop	{r4, r5, r6, r7, r8, pc}
 835              	.LVL78:
 836              	.L156:
 837              		.cfi_restore_state
 838              	.LBB620:
 839              	.LBB619:
 840              		.loc 1 483 0
 841 008e 0025     		movs	r5, #0
 842              	.LVL79:
 843              	.L118:
 844              		.loc 1 500 0
 845 0090 1846     		mov	r0, r3
 846              		.loc 1 499 0
 847 0092 EFB9     		cbnz	r7, .L157
 848              		.loc 1 502 0
 849 0094 FFF7FEFF 		bl	lbm_dec_as_u
 850              	.LVL80:
 851 0098 2A46     		mov	r2, r5
 852 009a 6946     		mov	r1, sp
 853 009c FFF7FEFF 		bl	comm_can_transmit_sid
 854              	.LVL81:
 855              		.loc 1 505 0
ARM GAS  /tmp/ccEbIy6V.s 			page 16


 856 00a0 2020     		movs	r0, #32
 857              	.LVL82:
 858 00a2 F1E7     		b	.L107
 859              	.LVL83:
 860              	.L114:
 861              	.LBB615:
 862              		.loc 1 487 0
 863 00a4 FFF7FEFF 		bl	lbm_dec_as_u
 864              	.LVL84:
 865              		.loc 1 492 0
 866 00a8 082D     		cmp	r5, #8
 867              		.loc 1 487 0
 868 00aa 08F8010F 		strb	r0, [r8, #1]!
 869              		.loc 1 496 0
 870 00ae 2046     		mov	r0, r4
 871              		.loc 1 492 0
 872 00b0 0CD0     		beq	.L158
 873              	.LVL85:
 874              		.loc 1 496 0
 875 00b2 FFF7FEFF 		bl	lbm_cdr
 876              	.LVL86:
 877              	.LBE615:
 878              	.LBB616:
 879              	.LBB606:
 880              		.loc 2 461 0
 881 00b6 C207     		lsls	r2, r0, #31
 882              	.LBE606:
 883              	.LBE616:
 884              	.LBB617:
 885              		.loc 1 496 0
 886 00b8 0446     		mov	r4, r0
 887              	.LVL87:
 888              	.LBE617:
 889              	.LBB618:
 890              	.LBB607:
 891              		.loc 2 461 0
 892 00ba 00F07C43 		and	r3, r0, #-67108864
 893 00be 02D5     		bpl	.L116
 894              	.LBE607:
 895              	.LBE618:
 896              		.loc 1 483 0
 897 00c0 B3F1805F 		cmp	r3, #268435456
 898 00c4 C6D0     		beq	.L117
 899              	.L116:
 900 00c6 3368     		ldr	r3, [r6]
 901 00c8 EDB2     		uxtb	r5, r5
 902              	.LVL88:
 903 00ca E1E7     		b	.L118
 904              	.LVL89:
 905              	.L158:
 906 00cc 3368     		ldr	r3, [r6]
 907 00ce DFE7     		b	.L118
 908              	.LVL90:
 909              	.L157:
 910              		.loc 1 500 0
 911 00d0 FFF7FEFF 		bl	lbm_dec_as_u
 912              	.LVL91:
ARM GAS  /tmp/ccEbIy6V.s 			page 17


 913 00d4 2A46     		mov	r2, r5
 914 00d6 6946     		mov	r1, sp
 915 00d8 FFF7FEFF 		bl	comm_can_transmit_eid
 916              	.LVL92:
 917              		.loc 1 505 0
 918 00dc 2020     		movs	r0, #32
 919 00de D3E7     		b	.L107
 920              	.LBE619:
 921              	.LBE620:
 922              		.cfi_endproc
 923              	.LFE345:
 924              		.size	ext_can_send, .-ext_can_send
 925              		.section	.text.ext_can_send_eid,"ax",%progbits
 926              		.align	1
 927              		.p2align 4,,15
 928              		.syntax unified
 929              		.thumb
 930              		.thumb_func
 931              		.fpu fpv4-sp-d16
 932              		.type	ext_can_send_eid, %function
 933              	ext_can_send_eid:
 934              	.LFB347:
 935              		.loc 1 512 0
 936              		.cfi_startproc
 937              		@ args = 0, pretend = 0, frame = 0
 938              		@ frame_needed = 0, uses_anonymous_args = 0
 939              		@ link register save eliminated.
 940              	.LVL93:
 941              		.loc 1 513 0
 942 0000 0122     		movs	r2, #1
 943 0002 FFF7FEBF 		b	ext_can_send
 944              	.LVL94:
 945              		.cfi_endproc
 946              	.LFE347:
 947              		.size	ext_can_send_eid, .-ext_can_send_eid
 948 0006 00BF     		.section	.text.ext_can_send_sid,"ax",%progbits
 949              		.align	1
 950              		.p2align 4,,15
 951              		.syntax unified
 952              		.thumb
 953              		.thumb_func
 954              		.fpu fpv4-sp-d16
 955              		.type	ext_can_send_sid, %function
 956              	ext_can_send_sid:
 957              	.LFB346:
 958              		.loc 1 508 0
 959              		.cfi_startproc
 960              		@ args = 0, pretend = 0, frame = 0
 961              		@ frame_needed = 0, uses_anonymous_args = 0
 962              		@ link register save eliminated.
 963              	.LVL95:
 964              		.loc 1 509 0
 965 0000 0022     		movs	r2, #0
 966 0002 FFF7FEBF 		b	ext_can_send
 967              	.LVL96:
 968              		.cfi_endproc
 969              	.LFE346:
ARM GAS  /tmp/ccEbIy6V.s 			page 18


 970              		.size	ext_can_send_sid, .-ext_can_send_sid
 971 0006 00BF     		.section	.text.ext_can_pos,"ax",%progbits
 972              		.align	1
 973              		.p2align 4,,15
 974              		.syntax unified
 975              		.thumb
 976              		.thumb_func
 977              		.fpu fpv4-sp-d16
 978              		.type	ext_can_pos, %function
 979              	ext_can_pos:
 980              	.LFB342:
 981              		.loc 1 447 0
 982              		.cfi_startproc
 983              		@ args = 0, pretend = 0, frame = 0
 984              		@ frame_needed = 0, uses_anonymous_args = 0
 985              	.LVL97:
 986              		.loc 1 448 0
 987 0000 0229     		cmp	r1, #2
 988 0002 01D0     		beq	.L169
 989 0004 9020     		movs	r0, #144
 990              	.LVL98:
 991              		.loc 1 451 0
 992 0006 7047     		bx	lr
 993              	.LVL99:
 994              	.L169:
 995              		.loc 1 447 0 discriminator 2
 996 0008 38B5     		push	{r3, r4, r5, lr}
 997              		.cfi_def_cfa_offset 16
 998              		.cfi_offset 3, -16
 999              		.cfi_offset 4, -12
 1000              		.cfi_offset 5, -8
 1001              		.cfi_offset 14, -4
 1002 000a 0446     		mov	r4, r0
 1003              		.loc 1 448 0 discriminator 2
 1004 000c FFF7FEFF 		bl	is_number_all
 1005              	.LVL100:
 1006 0010 08B9     		cbnz	r0, .L170
 1007              		.loc 1 448 0 is_stmt 0
 1008 0012 9020     		movs	r0, #144
 1009              		.loc 1 451 0 is_stmt 1
 1010 0014 38BD     		pop	{r3, r4, r5, pc}
 1011              	.LVL101:
 1012              	.L170:
 1013              	.LBB627:
 1014              	.LBB628:
 1015              		.loc 1 449 0
 1016 0016 2068     		ldr	r0, [r4]
 1017 0018 FFF7FEFF 		bl	lbm_dec_as_i
 1018              	.LVL102:
 1019 001c 0546     		mov	r5, r0
 1020 001e 6068     		ldr	r0, [r4, #4]
 1021 0020 FFF7FEFF 		bl	lbm_dec_as_f
 1022              	.LVL103:
 1023 0024 E8B2     		uxtb	r0, r5
 1024 0026 FFF7FEFF 		bl	comm_can_set_pos
 1025              	.LVL104:
 1026 002a 2020     		movs	r0, #32
ARM GAS  /tmp/ccEbIy6V.s 			page 19


 1027              	.LBE628:
 1028              	.LBE627:
 1029              		.loc 1 451 0
 1030 002c 38BD     		pop	{r3, r4, r5, pc}
 1031              		.cfi_endproc
 1032              	.LFE342:
 1033              		.size	ext_can_pos, .-ext_can_pos
 1034              		.section	.text.ext_can_rpm,"ax",%progbits
 1035              		.align	1
 1036              		.p2align 4,,15
 1037              		.syntax unified
 1038              		.thumb
 1039              		.thumb_func
 1040              		.fpu fpv4-sp-d16
 1041              		.type	ext_can_rpm, %function
 1042              	ext_can_rpm:
 1043              	.LFB341:
 1044              		.loc 1 441 0
 1045              		.cfi_startproc
 1046              		@ args = 0, pretend = 0, frame = 0
 1047              		@ frame_needed = 0, uses_anonymous_args = 0
 1048              	.LVL105:
 1049              		.loc 1 442 0
 1050 0000 0229     		cmp	r1, #2
 1051 0002 01D0     		beq	.L179
 1052 0004 9020     		movs	r0, #144
 1053              	.LVL106:
 1054              		.loc 1 445 0
 1055 0006 7047     		bx	lr
 1056              	.LVL107:
 1057              	.L179:
 1058              		.loc 1 441 0 discriminator 2
 1059 0008 38B5     		push	{r3, r4, r5, lr}
 1060              		.cfi_def_cfa_offset 16
 1061              		.cfi_offset 3, -16
 1062              		.cfi_offset 4, -12
 1063              		.cfi_offset 5, -8
 1064              		.cfi_offset 14, -4
 1065 000a 0446     		mov	r4, r0
 1066              		.loc 1 442 0 discriminator 2
 1067 000c FFF7FEFF 		bl	is_number_all
 1068              	.LVL108:
 1069 0010 08B9     		cbnz	r0, .L180
 1070              		.loc 1 442 0 is_stmt 0
 1071 0012 9020     		movs	r0, #144
 1072              		.loc 1 445 0 is_stmt 1
 1073 0014 38BD     		pop	{r3, r4, r5, pc}
 1074              	.LVL109:
 1075              	.L180:
 1076              	.LBB635:
 1077              	.LBB636:
 1078              		.loc 1 443 0
 1079 0016 2068     		ldr	r0, [r4]
 1080 0018 FFF7FEFF 		bl	lbm_dec_as_i
 1081              	.LVL110:
 1082 001c 0546     		mov	r5, r0
 1083 001e 6068     		ldr	r0, [r4, #4]
ARM GAS  /tmp/ccEbIy6V.s 			page 20


 1084 0020 FFF7FEFF 		bl	lbm_dec_as_f
 1085              	.LVL111:
 1086 0024 E8B2     		uxtb	r0, r5
 1087 0026 FFF7FEFF 		bl	comm_can_set_rpm
 1088              	.LVL112:
 1089 002a 2020     		movs	r0, #32
 1090              	.LBE636:
 1091              	.LBE635:
 1092              		.loc 1 445 0
 1093 002c 38BD     		pop	{r3, r4, r5, pc}
 1094              		.cfi_endproc
 1095              	.LFE341:
 1096              		.size	ext_can_rpm, .-ext_can_rpm
 1097              		.section	.text.ext_can_brake_rel,"ax",%progbits
 1098              		.align	1
 1099              		.p2align 4,,15
 1100              		.syntax unified
 1101              		.thumb
 1102              		.thumb_func
 1103              		.fpu fpv4-sp-d16
 1104              		.type	ext_can_brake_rel, %function
 1105              	ext_can_brake_rel:
 1106              	.LFB340:
 1107              		.loc 1 435 0
 1108              		.cfi_startproc
 1109              		@ args = 0, pretend = 0, frame = 0
 1110              		@ frame_needed = 0, uses_anonymous_args = 0
 1111              	.LVL113:
 1112              		.loc 1 436 0
 1113 0000 0229     		cmp	r1, #2
 1114 0002 01D0     		beq	.L189
 1115 0004 9020     		movs	r0, #144
 1116              	.LVL114:
 1117              		.loc 1 439 0
 1118 0006 7047     		bx	lr
 1119              	.LVL115:
 1120              	.L189:
 1121              		.loc 1 435 0 discriminator 2
 1122 0008 38B5     		push	{r3, r4, r5, lr}
 1123              		.cfi_def_cfa_offset 16
 1124              		.cfi_offset 3, -16
 1125              		.cfi_offset 4, -12
 1126              		.cfi_offset 5, -8
 1127              		.cfi_offset 14, -4
 1128 000a 0446     		mov	r4, r0
 1129              		.loc 1 436 0 discriminator 2
 1130 000c FFF7FEFF 		bl	is_number_all
 1131              	.LVL116:
 1132 0010 08B9     		cbnz	r0, .L190
 1133              		.loc 1 436 0 is_stmt 0
 1134 0012 9020     		movs	r0, #144
 1135              		.loc 1 439 0 is_stmt 1
 1136 0014 38BD     		pop	{r3, r4, r5, pc}
 1137              	.LVL117:
 1138              	.L190:
 1139              	.LBB643:
 1140              	.LBB644:
ARM GAS  /tmp/ccEbIy6V.s 			page 21


 1141              		.loc 1 437 0
 1142 0016 2068     		ldr	r0, [r4]
 1143 0018 FFF7FEFF 		bl	lbm_dec_as_i
 1144              	.LVL118:
 1145 001c 0546     		mov	r5, r0
 1146 001e 6068     		ldr	r0, [r4, #4]
 1147 0020 FFF7FEFF 		bl	lbm_dec_as_f
 1148              	.LVL119:
 1149 0024 E8B2     		uxtb	r0, r5
 1150 0026 FFF7FEFF 		bl	comm_can_set_current_brake_rel
 1151              	.LVL120:
 1152 002a 2020     		movs	r0, #32
 1153              	.LBE644:
 1154              	.LBE643:
 1155              		.loc 1 439 0
 1156 002c 38BD     		pop	{r3, r4, r5, pc}
 1157              		.cfi_endproc
 1158              	.LFE340:
 1159              		.size	ext_can_brake_rel, .-ext_can_brake_rel
 1160              		.section	.text.ext_can_brake,"ax",%progbits
 1161              		.align	1
 1162              		.p2align 4,,15
 1163              		.syntax unified
 1164              		.thumb
 1165              		.thumb_func
 1166              		.fpu fpv4-sp-d16
 1167              		.type	ext_can_brake, %function
 1168              	ext_can_brake:
 1169              	.LFB339:
 1170              		.loc 1 429 0
 1171              		.cfi_startproc
 1172              		@ args = 0, pretend = 0, frame = 0
 1173              		@ frame_needed = 0, uses_anonymous_args = 0
 1174              	.LVL121:
 1175              		.loc 1 430 0
 1176 0000 0229     		cmp	r1, #2
 1177 0002 01D0     		beq	.L199
 1178 0004 9020     		movs	r0, #144
 1179              	.LVL122:
 1180              		.loc 1 433 0
 1181 0006 7047     		bx	lr
 1182              	.LVL123:
 1183              	.L199:
 1184              		.loc 1 429 0 discriminator 2
 1185 0008 38B5     		push	{r3, r4, r5, lr}
 1186              		.cfi_def_cfa_offset 16
 1187              		.cfi_offset 3, -16
 1188              		.cfi_offset 4, -12
 1189              		.cfi_offset 5, -8
 1190              		.cfi_offset 14, -4
 1191 000a 0446     		mov	r4, r0
 1192              		.loc 1 430 0 discriminator 2
 1193 000c FFF7FEFF 		bl	is_number_all
 1194              	.LVL124:
 1195 0010 08B9     		cbnz	r0, .L200
 1196              		.loc 1 430 0 is_stmt 0
 1197 0012 9020     		movs	r0, #144
ARM GAS  /tmp/ccEbIy6V.s 			page 22


 1198              		.loc 1 433 0 is_stmt 1
 1199 0014 38BD     		pop	{r3, r4, r5, pc}
 1200              	.LVL125:
 1201              	.L200:
 1202              	.LBB651:
 1203              	.LBB652:
 1204              		.loc 1 431 0
 1205 0016 2068     		ldr	r0, [r4]
 1206 0018 FFF7FEFF 		bl	lbm_dec_as_i
 1207              	.LVL126:
 1208 001c 0546     		mov	r5, r0
 1209 001e 6068     		ldr	r0, [r4, #4]
 1210 0020 FFF7FEFF 		bl	lbm_dec_as_f
 1211              	.LVL127:
 1212 0024 E8B2     		uxtb	r0, r5
 1213 0026 FFF7FEFF 		bl	comm_can_set_current_brake
 1214              	.LVL128:
 1215 002a 2020     		movs	r0, #32
 1216              	.LBE652:
 1217              	.LBE651:
 1218              		.loc 1 433 0
 1219 002c 38BD     		pop	{r3, r4, r5, pc}
 1220              		.cfi_endproc
 1221              	.LFE339:
 1222              		.size	ext_can_brake, .-ext_can_brake
 1223              		.section	.text.ext_can_duty,"ax",%progbits
 1224              		.align	1
 1225              		.p2align 4,,15
 1226              		.syntax unified
 1227              		.thumb
 1228              		.thumb_func
 1229              		.fpu fpv4-sp-d16
 1230              		.type	ext_can_duty, %function
 1231              	ext_can_duty:
 1232              	.LFB338:
 1233              		.loc 1 423 0
 1234              		.cfi_startproc
 1235              		@ args = 0, pretend = 0, frame = 0
 1236              		@ frame_needed = 0, uses_anonymous_args = 0
 1237              	.LVL129:
 1238              		.loc 1 424 0
 1239 0000 0229     		cmp	r1, #2
 1240 0002 01D0     		beq	.L209
 1241 0004 9020     		movs	r0, #144
 1242              	.LVL130:
 1243              		.loc 1 427 0
 1244 0006 7047     		bx	lr
 1245              	.LVL131:
 1246              	.L209:
 1247              		.loc 1 423 0 discriminator 2
 1248 0008 38B5     		push	{r3, r4, r5, lr}
 1249              		.cfi_def_cfa_offset 16
 1250              		.cfi_offset 3, -16
 1251              		.cfi_offset 4, -12
 1252              		.cfi_offset 5, -8
 1253              		.cfi_offset 14, -4
 1254 000a 0446     		mov	r4, r0
ARM GAS  /tmp/ccEbIy6V.s 			page 23


 1255              		.loc 1 424 0 discriminator 2
 1256 000c FFF7FEFF 		bl	is_number_all
 1257              	.LVL132:
 1258 0010 08B9     		cbnz	r0, .L210
 1259              		.loc 1 424 0 is_stmt 0
 1260 0012 9020     		movs	r0, #144
 1261              		.loc 1 427 0 is_stmt 1
 1262 0014 38BD     		pop	{r3, r4, r5, pc}
 1263              	.LVL133:
 1264              	.L210:
 1265              	.LBB659:
 1266              	.LBB660:
 1267              		.loc 1 425 0
 1268 0016 2068     		ldr	r0, [r4]
 1269 0018 FFF7FEFF 		bl	lbm_dec_as_i
 1270              	.LVL134:
 1271 001c 0546     		mov	r5, r0
 1272 001e 6068     		ldr	r0, [r4, #4]
 1273 0020 FFF7FEFF 		bl	lbm_dec_as_f
 1274              	.LVL135:
 1275 0024 E8B2     		uxtb	r0, r5
 1276 0026 FFF7FEFF 		bl	comm_can_set_duty
 1277              	.LVL136:
 1278 002a 2020     		movs	r0, #32
 1279              	.LBE660:
 1280              	.LBE659:
 1281              		.loc 1 427 0
 1282 002c 38BD     		pop	{r3, r4, r5, pc}
 1283              		.cfi_endproc
 1284              	.LFE338:
 1285              		.size	ext_can_duty, .-ext_can_duty
 1286              		.section	.text.ext_can_current_rel,"ax",%progbits
 1287              		.align	1
 1288              		.p2align 4,,15
 1289              		.syntax unified
 1290              		.thumb
 1291              		.thumb_func
 1292              		.fpu fpv4-sp-d16
 1293              		.type	ext_can_current_rel, %function
 1294              	ext_can_current_rel:
 1295              	.LFB337:
 1296              		.loc 1 409 0
 1297              		.cfi_startproc
 1298              		@ args = 0, pretend = 0, frame = 0
 1299              		@ frame_needed = 0, uses_anonymous_args = 0
 1300              	.LVL137:
 1301 0000 38B5     		push	{r3, r4, r5, lr}
 1302              		.cfi_def_cfa_offset 16
 1303              		.cfi_offset 3, -16
 1304              		.cfi_offset 4, -12
 1305              		.cfi_offset 5, -8
 1306              		.cfi_offset 14, -4
 1307 0002 2DED028B 		vpush.64	{d8}
 1308              		.cfi_def_cfa_offset 24
 1309              		.cfi_offset 80, -24
 1310              		.cfi_offset 81, -20
 1311              		.loc 1 409 0
ARM GAS  /tmp/ccEbIy6V.s 			page 24


 1312 0006 0546     		mov	r5, r0
 1313              		.loc 1 410 0
 1314 0008 FFF7FEFF 		bl	is_number_all
 1315              	.LVL138:
 1316 000c 18B1     		cbz	r0, .L215
 1317              		.loc 1 412 0
 1318 000e 0229     		cmp	r1, #2
 1319 0010 1CD0     		beq	.L217
 1320              		.loc 1 414 0
 1321 0012 0329     		cmp	r1, #3
 1322 0014 03D0     		beq	.L218
 1323              	.L215:
 1324              		.loc 1 410 0
 1325 0016 9020     		movs	r0, #144
 1326              	.LVL139:
 1327              	.L211:
 1328              		.loc 1 421 0
 1329 0018 BDEC028B 		vldm	sp!, {d8}
 1330              		.cfi_remember_state
 1331              		.cfi_restore 80
 1332              		.cfi_restore 81
 1333              		.cfi_def_cfa_offset 16
 1334 001c 38BD     		pop	{r3, r4, r5, pc}
 1335              	.LVL140:
 1336              	.L218:
 1337              		.cfi_restore_state
 1338              		.loc 1 415 0
 1339 001e 2868     		ldr	r0, [r5]
 1340 0020 FFF7FEFF 		bl	lbm_dec_as_i
 1341              	.LVL141:
 1342 0024 0446     		mov	r4, r0
 1343 0026 6868     		ldr	r0, [r5, #4]
 1344 0028 FFF7FEFF 		bl	lbm_dec_as_f
 1345              	.LVL142:
 1346 002c A868     		ldr	r0, [r5, #8]
 1347 002e B0EE408A 		vmov.f32	s16, s0
 1348 0032 FFF7FEFF 		bl	lbm_dec_as_f
 1349              	.LVL143:
 1350 0036 E0B2     		uxtb	r0, r4
 1351 0038 F0EE400A 		vmov.f32	s1, s0
 1352 003c B0EE480A 		vmov.f32	s0, s16
 1353 0040 FFF7FEFF 		bl	comm_can_set_current_rel_off_delay
 1354              	.LVL144:
 1355              		.loc 1 421 0
 1356 0044 BDEC028B 		vldm	sp!, {d8}
 1357              		.cfi_remember_state
 1358              		.cfi_restore 80
 1359              		.cfi_restore 81
 1360              		.cfi_def_cfa_offset 16
 1361              		.loc 1 420 0
 1362 0048 2020     		movs	r0, #32
 1363              		.loc 1 421 0
 1364 004a 38BD     		pop	{r3, r4, r5, pc}
 1365              	.LVL145:
 1366              	.L217:
 1367              		.cfi_restore_state
 1368              	.LBB669:
ARM GAS  /tmp/ccEbIy6V.s 			page 25


 1369              	.LBB670:
 1370              		.loc 1 413 0
 1371 004c 2868     		ldr	r0, [r5]
 1372 004e FFF7FEFF 		bl	lbm_dec_as_i
 1373              	.LVL146:
 1374 0052 0446     		mov	r4, r0
 1375 0054 6868     		ldr	r0, [r5, #4]
 1376 0056 FFF7FEFF 		bl	lbm_dec_as_f
 1377              	.LVL147:
 1378 005a E0B2     		uxtb	r0, r4
 1379 005c FFF7FEFF 		bl	comm_can_set_current_rel
 1380              	.LVL148:
 1381 0060 2020     		movs	r0, #32
 1382 0062 D9E7     		b	.L211
 1383              	.LBE670:
 1384              	.LBE669:
 1385              		.cfi_endproc
 1386              	.LFE337:
 1387              		.size	ext_can_current_rel, .-ext_can_current_rel
 1388              		.section	.text.ext_can_current,"ax",%progbits
 1389              		.align	1
 1390              		.p2align 4,,15
 1391              		.syntax unified
 1392              		.thumb
 1393              		.thumb_func
 1394              		.fpu fpv4-sp-d16
 1395              		.type	ext_can_current, %function
 1396              	ext_can_current:
 1397              	.LFB336:
 1398              		.loc 1 395 0
 1399              		.cfi_startproc
 1400              		@ args = 0, pretend = 0, frame = 0
 1401              		@ frame_needed = 0, uses_anonymous_args = 0
 1402              	.LVL149:
 1403 0000 38B5     		push	{r3, r4, r5, lr}
 1404              		.cfi_def_cfa_offset 16
 1405              		.cfi_offset 3, -16
 1406              		.cfi_offset 4, -12
 1407              		.cfi_offset 5, -8
 1408              		.cfi_offset 14, -4
 1409 0002 2DED028B 		vpush.64	{d8}
 1410              		.cfi_def_cfa_offset 24
 1411              		.cfi_offset 80, -24
 1412              		.cfi_offset 81, -20
 1413              		.loc 1 395 0
 1414 0006 0546     		mov	r5, r0
 1415              		.loc 1 396 0
 1416 0008 FFF7FEFF 		bl	is_number_all
 1417              	.LVL150:
 1418 000c 18B1     		cbz	r0, .L223
 1419              		.loc 1 398 0
 1420 000e 0229     		cmp	r1, #2
 1421 0010 1CD0     		beq	.L225
 1422              		.loc 1 400 0
 1423 0012 0329     		cmp	r1, #3
 1424 0014 03D0     		beq	.L226
 1425              	.L223:
ARM GAS  /tmp/ccEbIy6V.s 			page 26


 1426              		.loc 1 396 0
 1427 0016 9020     		movs	r0, #144
 1428              	.LVL151:
 1429              	.L219:
 1430              		.loc 1 407 0
 1431 0018 BDEC028B 		vldm	sp!, {d8}
 1432              		.cfi_remember_state
 1433              		.cfi_restore 80
 1434              		.cfi_restore 81
 1435              		.cfi_def_cfa_offset 16
 1436 001c 38BD     		pop	{r3, r4, r5, pc}
 1437              	.LVL152:
 1438              	.L226:
 1439              		.cfi_restore_state
 1440              		.loc 1 401 0
 1441 001e 2868     		ldr	r0, [r5]
 1442 0020 FFF7FEFF 		bl	lbm_dec_as_i
 1443              	.LVL153:
 1444 0024 0446     		mov	r4, r0
 1445 0026 6868     		ldr	r0, [r5, #4]
 1446 0028 FFF7FEFF 		bl	lbm_dec_as_f
 1447              	.LVL154:
 1448 002c A868     		ldr	r0, [r5, #8]
 1449 002e B0EE408A 		vmov.f32	s16, s0
 1450 0032 FFF7FEFF 		bl	lbm_dec_as_f
 1451              	.LVL155:
 1452 0036 E0B2     		uxtb	r0, r4
 1453 0038 F0EE400A 		vmov.f32	s1, s0
 1454 003c B0EE480A 		vmov.f32	s0, s16
 1455 0040 FFF7FEFF 		bl	comm_can_set_current_off_delay
 1456              	.LVL156:
 1457              		.loc 1 407 0
 1458 0044 BDEC028B 		vldm	sp!, {d8}
 1459              		.cfi_remember_state
 1460              		.cfi_restore 80
 1461              		.cfi_restore 81
 1462              		.cfi_def_cfa_offset 16
 1463              		.loc 1 406 0
 1464 0048 2020     		movs	r0, #32
 1465              		.loc 1 407 0
 1466 004a 38BD     		pop	{r3, r4, r5, pc}
 1467              	.LVL157:
 1468              	.L225:
 1469              		.cfi_restore_state
 1470              	.LBB679:
 1471              	.LBB680:
 1472              		.loc 1 399 0
 1473 004c 2868     		ldr	r0, [r5]
 1474 004e FFF7FEFF 		bl	lbm_dec_as_i
 1475              	.LVL158:
 1476 0052 0446     		mov	r4, r0
 1477 0054 6868     		ldr	r0, [r5, #4]
 1478 0056 FFF7FEFF 		bl	lbm_dec_as_f
 1479              	.LVL159:
 1480 005a E0B2     		uxtb	r0, r4
 1481 005c FFF7FEFF 		bl	comm_can_set_current
 1482              	.LVL160:
ARM GAS  /tmp/ccEbIy6V.s 			page 27


 1483 0060 2020     		movs	r0, #32
 1484 0062 D9E7     		b	.L219
 1485              	.LBE680:
 1486              	.LBE679:
 1487              		.cfi_endproc
 1488              	.LFE336:
 1489              		.size	ext_can_current, .-ext_can_current
 1490              		.section	.text.ext_set_pos,"ax",%progbits
 1491              		.align	1
 1492              		.p2align 4,,15
 1493              		.syntax unified
 1494              		.thumb
 1495              		.thumb_func
 1496              		.fpu fpv4-sp-d16
 1497              		.type	ext_set_pos, %function
 1498              	ext_set_pos:
 1499              	.LFB324:
 1500              		.loc 1 330 0
 1501              		.cfi_startproc
 1502              		@ args = 0, pretend = 0, frame = 0
 1503              		@ frame_needed = 0, uses_anonymous_args = 0
 1504              	.LVL161:
 1505              		.loc 1 331 0
 1506 0000 0129     		cmp	r1, #1
 1507 0002 01D0     		beq	.L235
 1508 0004 9020     		movs	r0, #144
 1509              	.LVL162:
 1510              		.loc 1 334 0
 1511 0006 7047     		bx	lr
 1512              	.LVL163:
 1513              	.L235:
 1514              		.loc 1 330 0 discriminator 2
 1515 0008 10B5     		push	{r4, lr}
 1516              		.cfi_def_cfa_offset 8
 1517              		.cfi_offset 4, -8
 1518              		.cfi_offset 14, -4
 1519 000a 0446     		mov	r4, r0
 1520              		.loc 1 331 0 discriminator 2
 1521 000c FFF7FEFF 		bl	is_number_all
 1522              	.LVL164:
 1523 0010 08B9     		cbnz	r0, .L236
 1524              		.loc 1 331 0 is_stmt 0
 1525 0012 9020     		movs	r0, #144
 1526              		.loc 1 334 0 is_stmt 1
 1527 0014 10BD     		pop	{r4, pc}
 1528              	.LVL165:
 1529              	.L236:
 1530              	.LBB687:
 1531              	.LBB688:
 1532              		.loc 1 332 0
 1533 0016 2068     		ldr	r0, [r4]
 1534 0018 FFF7FEFF 		bl	lbm_dec_as_f
 1535              	.LVL166:
 1536 001c FFF7FEFF 		bl	mc_interface_set_pid_pos
 1537              	.LVL167:
 1538 0020 2020     		movs	r0, #32
 1539              	.LBE688:
ARM GAS  /tmp/ccEbIy6V.s 			page 28


 1540              	.LBE687:
 1541              		.loc 1 334 0
 1542 0022 10BD     		pop	{r4, pc}
 1543              		.cfi_endproc
 1544              	.LFE324:
 1545              		.size	ext_set_pos, .-ext_set_pos
 1546              		.section	.text.ext_set_rpm,"ax",%progbits
 1547              		.align	1
 1548              		.p2align 4,,15
 1549              		.syntax unified
 1550              		.thumb
 1551              		.thumb_func
 1552              		.fpu fpv4-sp-d16
 1553              		.type	ext_set_rpm, %function
 1554              	ext_set_rpm:
 1555              	.LFB323:
 1556              		.loc 1 324 0
 1557              		.cfi_startproc
 1558              		@ args = 0, pretend = 0, frame = 0
 1559              		@ frame_needed = 0, uses_anonymous_args = 0
 1560              	.LVL168:
 1561              		.loc 1 325 0
 1562 0000 0129     		cmp	r1, #1
 1563 0002 01D0     		beq	.L245
 1564 0004 9020     		movs	r0, #144
 1565              	.LVL169:
 1566              		.loc 1 328 0
 1567 0006 7047     		bx	lr
 1568              	.LVL170:
 1569              	.L245:
 1570              		.loc 1 324 0 discriminator 2
 1571 0008 10B5     		push	{r4, lr}
 1572              		.cfi_def_cfa_offset 8
 1573              		.cfi_offset 4, -8
 1574              		.cfi_offset 14, -4
 1575 000a 0446     		mov	r4, r0
 1576              		.loc 1 325 0 discriminator 2
 1577 000c FFF7FEFF 		bl	is_number_all
 1578              	.LVL171:
 1579 0010 08B9     		cbnz	r0, .L246
 1580              		.loc 1 325 0 is_stmt 0
 1581 0012 9020     		movs	r0, #144
 1582              		.loc 1 328 0 is_stmt 1
 1583 0014 10BD     		pop	{r4, pc}
 1584              	.LVL172:
 1585              	.L246:
 1586              	.LBB695:
 1587              	.LBB696:
 1588              		.loc 1 326 0
 1589 0016 2068     		ldr	r0, [r4]
 1590 0018 FFF7FEFF 		bl	lbm_dec_as_f
 1591              	.LVL173:
 1592 001c FFF7FEFF 		bl	mc_interface_set_pid_speed
 1593              	.LVL174:
 1594 0020 2020     		movs	r0, #32
 1595              	.LBE696:
 1596              	.LBE695:
ARM GAS  /tmp/ccEbIy6V.s 			page 29


 1597              		.loc 1 328 0
 1598 0022 10BD     		pop	{r4, pc}
 1599              		.cfi_endproc
 1600              	.LFE323:
 1601              		.size	ext_set_rpm, .-ext_set_rpm
 1602              		.section	.text.ext_set_handbrake_rel,"ax",%progbits
 1603              		.align	1
 1604              		.p2align 4,,15
 1605              		.syntax unified
 1606              		.thumb
 1607              		.thumb_func
 1608              		.fpu fpv4-sp-d16
 1609              		.type	ext_set_handbrake_rel, %function
 1610              	ext_set_handbrake_rel:
 1611              	.LFB322:
 1612              		.loc 1 318 0
 1613              		.cfi_startproc
 1614              		@ args = 0, pretend = 0, frame = 0
 1615              		@ frame_needed = 0, uses_anonymous_args = 0
 1616              	.LVL175:
 1617              		.loc 1 319 0
 1618 0000 0129     		cmp	r1, #1
 1619 0002 01D0     		beq	.L255
 1620 0004 9020     		movs	r0, #144
 1621              	.LVL176:
 1622              		.loc 1 322 0
 1623 0006 7047     		bx	lr
 1624              	.LVL177:
 1625              	.L255:
 1626              		.loc 1 318 0 discriminator 2
 1627 0008 10B5     		push	{r4, lr}
 1628              		.cfi_def_cfa_offset 8
 1629              		.cfi_offset 4, -8
 1630              		.cfi_offset 14, -4
 1631 000a 0446     		mov	r4, r0
 1632              		.loc 1 319 0 discriminator 2
 1633 000c FFF7FEFF 		bl	is_number_all
 1634              	.LVL178:
 1635 0010 08B9     		cbnz	r0, .L256
 1636              		.loc 1 319 0 is_stmt 0
 1637 0012 9020     		movs	r0, #144
 1638              		.loc 1 322 0 is_stmt 1
 1639 0014 10BD     		pop	{r4, pc}
 1640              	.LVL179:
 1641              	.L256:
 1642              	.LBB703:
 1643              	.LBB704:
 1644              		.loc 1 320 0
 1645 0016 2068     		ldr	r0, [r4]
 1646 0018 FFF7FEFF 		bl	lbm_dec_as_f
 1647              	.LVL180:
 1648 001c FFF7FEFF 		bl	mc_interface_set_handbrake_rel
 1649              	.LVL181:
 1650 0020 2020     		movs	r0, #32
 1651              	.LBE704:
 1652              	.LBE703:
 1653              		.loc 1 322 0
ARM GAS  /tmp/ccEbIy6V.s 			page 30


 1654 0022 10BD     		pop	{r4, pc}
 1655              		.cfi_endproc
 1656              	.LFE322:
 1657              		.size	ext_set_handbrake_rel, .-ext_set_handbrake_rel
 1658              		.section	.text.ext_set_handbrake,"ax",%progbits
 1659              		.align	1
 1660              		.p2align 4,,15
 1661              		.syntax unified
 1662              		.thumb
 1663              		.thumb_func
 1664              		.fpu fpv4-sp-d16
 1665              		.type	ext_set_handbrake, %function
 1666              	ext_set_handbrake:
 1667              	.LFB321:
 1668              		.loc 1 312 0
 1669              		.cfi_startproc
 1670              		@ args = 0, pretend = 0, frame = 0
 1671              		@ frame_needed = 0, uses_anonymous_args = 0
 1672              	.LVL182:
 1673              		.loc 1 313 0
 1674 0000 0129     		cmp	r1, #1
 1675 0002 01D0     		beq	.L265
 1676 0004 9020     		movs	r0, #144
 1677              	.LVL183:
 1678              		.loc 1 316 0
 1679 0006 7047     		bx	lr
 1680              	.LVL184:
 1681              	.L265:
 1682              		.loc 1 312 0 discriminator 2
 1683 0008 10B5     		push	{r4, lr}
 1684              		.cfi_def_cfa_offset 8
 1685              		.cfi_offset 4, -8
 1686              		.cfi_offset 14, -4
 1687 000a 0446     		mov	r4, r0
 1688              		.loc 1 313 0 discriminator 2
 1689 000c FFF7FEFF 		bl	is_number_all
 1690              	.LVL185:
 1691 0010 08B9     		cbnz	r0, .L266
 1692              		.loc 1 313 0 is_stmt 0
 1693 0012 9020     		movs	r0, #144
 1694              		.loc 1 316 0 is_stmt 1
 1695 0014 10BD     		pop	{r4, pc}
 1696              	.LVL186:
 1697              	.L266:
 1698              	.LBB711:
 1699              	.LBB712:
 1700              		.loc 1 314 0
 1701 0016 2068     		ldr	r0, [r4]
 1702 0018 FFF7FEFF 		bl	lbm_dec_as_f
 1703              	.LVL187:
 1704 001c FFF7FEFF 		bl	mc_interface_set_handbrake
 1705              	.LVL188:
 1706 0020 2020     		movs	r0, #32
 1707              	.LBE712:
 1708              	.LBE711:
 1709              		.loc 1 316 0
 1710 0022 10BD     		pop	{r4, pc}
ARM GAS  /tmp/ccEbIy6V.s 			page 31


 1711              		.cfi_endproc
 1712              	.LFE321:
 1713              		.size	ext_set_handbrake, .-ext_set_handbrake
 1714              		.section	.text.ext_set_brake_rel,"ax",%progbits
 1715              		.align	1
 1716              		.p2align 4,,15
 1717              		.syntax unified
 1718              		.thumb
 1719              		.thumb_func
 1720              		.fpu fpv4-sp-d16
 1721              		.type	ext_set_brake_rel, %function
 1722              	ext_set_brake_rel:
 1723              	.LFB320:
 1724              		.loc 1 306 0
 1725              		.cfi_startproc
 1726              		@ args = 0, pretend = 0, frame = 0
 1727              		@ frame_needed = 0, uses_anonymous_args = 0
 1728              	.LVL189:
 1729              		.loc 1 307 0
 1730 0000 0129     		cmp	r1, #1
 1731 0002 01D0     		beq	.L275
 1732 0004 9020     		movs	r0, #144
 1733              	.LVL190:
 1734              		.loc 1 310 0
 1735 0006 7047     		bx	lr
 1736              	.LVL191:
 1737              	.L275:
 1738              		.loc 1 306 0 discriminator 2
 1739 0008 10B5     		push	{r4, lr}
 1740              		.cfi_def_cfa_offset 8
 1741              		.cfi_offset 4, -8
 1742              		.cfi_offset 14, -4
 1743 000a 0446     		mov	r4, r0
 1744              		.loc 1 307 0 discriminator 2
 1745 000c FFF7FEFF 		bl	is_number_all
 1746              	.LVL192:
 1747 0010 08B9     		cbnz	r0, .L276
 1748              		.loc 1 307 0 is_stmt 0
 1749 0012 9020     		movs	r0, #144
 1750              		.loc 1 310 0 is_stmt 1
 1751 0014 10BD     		pop	{r4, pc}
 1752              	.LVL193:
 1753              	.L276:
 1754              	.LBB719:
 1755              	.LBB720:
 1756              		.loc 1 308 0
 1757 0016 2068     		ldr	r0, [r4]
 1758 0018 FFF7FEFF 		bl	lbm_dec_as_f
 1759              	.LVL194:
 1760 001c FFF7FEFF 		bl	mc_interface_set_brake_current_rel
 1761              	.LVL195:
 1762 0020 2020     		movs	r0, #32
 1763              	.LBE720:
 1764              	.LBE719:
 1765              		.loc 1 310 0
 1766 0022 10BD     		pop	{r4, pc}
 1767              		.cfi_endproc
ARM GAS  /tmp/ccEbIy6V.s 			page 32


 1768              	.LFE320:
 1769              		.size	ext_set_brake_rel, .-ext_set_brake_rel
 1770              		.section	.text.ext_set_brake,"ax",%progbits
 1771              		.align	1
 1772              		.p2align 4,,15
 1773              		.syntax unified
 1774              		.thumb
 1775              		.thumb_func
 1776              		.fpu fpv4-sp-d16
 1777              		.type	ext_set_brake, %function
 1778              	ext_set_brake:
 1779              	.LFB319:
 1780              		.loc 1 300 0
 1781              		.cfi_startproc
 1782              		@ args = 0, pretend = 0, frame = 0
 1783              		@ frame_needed = 0, uses_anonymous_args = 0
 1784              	.LVL196:
 1785              		.loc 1 301 0
 1786 0000 0129     		cmp	r1, #1
 1787 0002 01D0     		beq	.L285
 1788 0004 9020     		movs	r0, #144
 1789              	.LVL197:
 1790              		.loc 1 304 0
 1791 0006 7047     		bx	lr
 1792              	.LVL198:
 1793              	.L285:
 1794              		.loc 1 300 0 discriminator 2
 1795 0008 10B5     		push	{r4, lr}
 1796              		.cfi_def_cfa_offset 8
 1797              		.cfi_offset 4, -8
 1798              		.cfi_offset 14, -4
 1799 000a 0446     		mov	r4, r0
 1800              		.loc 1 301 0 discriminator 2
 1801 000c FFF7FEFF 		bl	is_number_all
 1802              	.LVL199:
 1803 0010 08B9     		cbnz	r0, .L286
 1804              		.loc 1 301 0 is_stmt 0
 1805 0012 9020     		movs	r0, #144
 1806              		.loc 1 304 0 is_stmt 1
 1807 0014 10BD     		pop	{r4, pc}
 1808              	.LVL200:
 1809              	.L286:
 1810              	.LBB727:
 1811              	.LBB728:
 1812              		.loc 1 302 0
 1813 0016 2068     		ldr	r0, [r4]
 1814 0018 FFF7FEFF 		bl	lbm_dec_as_f
 1815              	.LVL201:
 1816 001c FFF7FEFF 		bl	mc_interface_set_brake_current
 1817              	.LVL202:
 1818 0020 2020     		movs	r0, #32
 1819              	.LBE728:
 1820              	.LBE727:
 1821              		.loc 1 304 0
 1822 0022 10BD     		pop	{r4, pc}
 1823              		.cfi_endproc
 1824              	.LFE319:
ARM GAS  /tmp/ccEbIy6V.s 			page 33


 1825              		.size	ext_set_brake, .-ext_set_brake
 1826              		.section	.text.ext_set_duty,"ax",%progbits
 1827              		.align	1
 1828              		.p2align 4,,15
 1829              		.syntax unified
 1830              		.thumb
 1831              		.thumb_func
 1832              		.fpu fpv4-sp-d16
 1833              		.type	ext_set_duty, %function
 1834              	ext_set_duty:
 1835              	.LFB318:
 1836              		.loc 1 294 0
 1837              		.cfi_startproc
 1838              		@ args = 0, pretend = 0, frame = 0
 1839              		@ frame_needed = 0, uses_anonymous_args = 0
 1840              	.LVL203:
 1841              		.loc 1 295 0
 1842 0000 0129     		cmp	r1, #1
 1843 0002 01D0     		beq	.L295
 1844 0004 9020     		movs	r0, #144
 1845              	.LVL204:
 1846              		.loc 1 298 0
 1847 0006 7047     		bx	lr
 1848              	.LVL205:
 1849              	.L295:
 1850              		.loc 1 294 0 discriminator 2
 1851 0008 10B5     		push	{r4, lr}
 1852              		.cfi_def_cfa_offset 8
 1853              		.cfi_offset 4, -8
 1854              		.cfi_offset 14, -4
 1855 000a 0446     		mov	r4, r0
 1856              		.loc 1 295 0 discriminator 2
 1857 000c FFF7FEFF 		bl	is_number_all
 1858              	.LVL206:
 1859 0010 08B9     		cbnz	r0, .L296
 1860              		.loc 1 295 0 is_stmt 0
 1861 0012 9020     		movs	r0, #144
 1862              		.loc 1 298 0 is_stmt 1
 1863 0014 10BD     		pop	{r4, pc}
 1864              	.LVL207:
 1865              	.L296:
 1866              	.LBB735:
 1867              	.LBB736:
 1868              		.loc 1 296 0
 1869 0016 2068     		ldr	r0, [r4]
 1870 0018 FFF7FEFF 		bl	lbm_dec_as_f
 1871              	.LVL208:
 1872 001c FFF7FEFF 		bl	mc_interface_set_duty
 1873              	.LVL209:
 1874 0020 2020     		movs	r0, #32
 1875              	.LBE736:
 1876              	.LBE735:
 1877              		.loc 1 298 0
 1878 0022 10BD     		pop	{r4, pc}
 1879              		.cfi_endproc
 1880              	.LFE318:
 1881              		.size	ext_set_duty, .-ext_set_duty
ARM GAS  /tmp/ccEbIy6V.s 			page 34


 1882              		.section	.text.ext_set_current_rel,"ax",%progbits
 1883              		.align	1
 1884              		.p2align 4,,15
 1885              		.syntax unified
 1886              		.thumb
 1887              		.thumb_func
 1888              		.fpu fpv4-sp-d16
 1889              		.type	ext_set_current_rel, %function
 1890              	ext_set_current_rel:
 1891              	.LFB317:
 1892              		.loc 1 288 0
 1893              		.cfi_startproc
 1894              		@ args = 0, pretend = 0, frame = 0
 1895              		@ frame_needed = 0, uses_anonymous_args = 0
 1896              	.LVL210:
 1897              		.loc 1 289 0
 1898 0000 0129     		cmp	r1, #1
 1899 0002 01D0     		beq	.L305
 1900 0004 9020     		movs	r0, #144
 1901              	.LVL211:
 1902              		.loc 1 292 0
 1903 0006 7047     		bx	lr
 1904              	.LVL212:
 1905              	.L305:
 1906              		.loc 1 288 0 discriminator 2
 1907 0008 10B5     		push	{r4, lr}
 1908              		.cfi_def_cfa_offset 8
 1909              		.cfi_offset 4, -8
 1910              		.cfi_offset 14, -4
 1911 000a 0446     		mov	r4, r0
 1912              		.loc 1 289 0 discriminator 2
 1913 000c FFF7FEFF 		bl	is_number_all
 1914              	.LVL213:
 1915 0010 08B9     		cbnz	r0, .L306
 1916              		.loc 1 289 0 is_stmt 0
 1917 0012 9020     		movs	r0, #144
 1918              		.loc 1 292 0 is_stmt 1
 1919 0014 10BD     		pop	{r4, pc}
 1920              	.LVL214:
 1921              	.L306:
 1922              	.LBB743:
 1923              	.LBB744:
 1924              		.loc 1 290 0
 1925 0016 2068     		ldr	r0, [r4]
 1926 0018 FFF7FEFF 		bl	lbm_dec_as_f
 1927              	.LVL215:
 1928 001c FFF7FEFF 		bl	mc_interface_set_current_rel
 1929              	.LVL216:
 1930 0020 2020     		movs	r0, #32
 1931              	.LBE744:
 1932              	.LBE743:
 1933              		.loc 1 292 0
 1934 0022 10BD     		pop	{r4, pc}
 1935              		.cfi_endproc
 1936              	.LFE317:
 1937              		.size	ext_set_current_rel, .-ext_set_current_rel
 1938              		.section	.text.ext_set_current,"ax",%progbits
ARM GAS  /tmp/ccEbIy6V.s 			page 35


 1939              		.align	1
 1940              		.p2align 4,,15
 1941              		.syntax unified
 1942              		.thumb
 1943              		.thumb_func
 1944              		.fpu fpv4-sp-d16
 1945              		.type	ext_set_current, %function
 1946              	ext_set_current:
 1947              	.LFB316:
 1948              		.loc 1 282 0
 1949              		.cfi_startproc
 1950              		@ args = 0, pretend = 0, frame = 0
 1951              		@ frame_needed = 0, uses_anonymous_args = 0
 1952              	.LVL217:
 1953              		.loc 1 283 0
 1954 0000 0129     		cmp	r1, #1
 1955 0002 01D0     		beq	.L315
 1956 0004 9020     		movs	r0, #144
 1957              	.LVL218:
 1958              		.loc 1 286 0
 1959 0006 7047     		bx	lr
 1960              	.LVL219:
 1961              	.L315:
 1962              		.loc 1 282 0 discriminator 2
 1963 0008 10B5     		push	{r4, lr}
 1964              		.cfi_def_cfa_offset 8
 1965              		.cfi_offset 4, -8
 1966              		.cfi_offset 14, -4
 1967 000a 0446     		mov	r4, r0
 1968              		.loc 1 283 0 discriminator 2
 1969 000c FFF7FEFF 		bl	is_number_all
 1970              	.LVL220:
 1971 0010 08B9     		cbnz	r0, .L316
 1972              		.loc 1 283 0 is_stmt 0
 1973 0012 9020     		movs	r0, #144
 1974              		.loc 1 286 0 is_stmt 1
 1975 0014 10BD     		pop	{r4, pc}
 1976              	.LVL221:
 1977              	.L316:
 1978              	.LBB751:
 1979              	.LBB752:
 1980              		.loc 1 284 0
 1981 0016 2068     		ldr	r0, [r4]
 1982 0018 FFF7FEFF 		bl	lbm_dec_as_f
 1983              	.LVL222:
 1984 001c FFF7FEFF 		bl	mc_interface_set_current
 1985              	.LVL223:
 1986 0020 2020     		movs	r0, #32
 1987              	.LBE752:
 1988              	.LBE751:
 1989              		.loc 1 286 0
 1990 0022 10BD     		pop	{r4, pc}
 1991              		.cfi_endproc
 1992              	.LFE316:
 1993              		.size	ext_set_current, .-ext_set_current
 1994              		.section	.text.ext_enable_event,"ax",%progbits
 1995              		.align	1
ARM GAS  /tmp/ccEbIy6V.s 			page 36


 1996              		.p2align 4,,15
 1997              		.syntax unified
 1998              		.thumb
 1999              		.thumb_func
 2000              		.fpu fpv4-sp-d16
 2001              		.type	ext_enable_event, %function
 2002              	ext_enable_event:
 2003              	.LFB355:
 2004              		.loc 1 596 0
 2005              		.cfi_startproc
 2006              		@ args = 0, pretend = 0, frame = 0
 2007              		@ frame_needed = 0, uses_anonymous_args = 0
 2008              	.LVL224:
 2009 0000 38B5     		push	{r3, r4, r5, lr}
 2010              		.cfi_def_cfa_offset 16
 2011              		.cfi_offset 3, -16
 2012              		.cfi_offset 4, -12
 2013              		.cfi_offset 5, -8
 2014              		.cfi_offset 14, -4
 2015              		.loc 1 597 0
 2016 0002 4B1E     		subs	r3, r1, #1
 2017 0004 012B     		cmp	r3, #1
 2018 0006 01D9     		bls	.L318
 2019              	.LVL225:
 2020              	.L324:
 2021              		.loc 1 598 0
 2022 0008 9020     		movs	r0, #144
 2023              		.loc 1 625 0
 2024 000a 38BD     		pop	{r3, r4, r5, pc}
 2025              	.LVL226:
 2026              	.L318:
 2027              		.loc 1 601 0
 2028 000c 0229     		cmp	r1, #2
 2029 000e 0446     		mov	r4, r0
 2030 0010 18D0     		beq	.L340
 2031              	.LBB773:
 2032              	.LBB774:
 2033              		.loc 1 605 0
 2034 0012 0125     		movs	r5, #1
 2035              	.LVL227:
 2036              	.L320:
 2037              		.loc 1 610 0
 2038 0014 2068     		ldr	r0, [r4]
 2039 0016 FFF7FEFF 		bl	lbm_dec_str
 2040              	.LVL228:
 2041              		.loc 1 612 0
 2042 001a 0446     		mov	r4, r0
 2043              	.LVL229:
 2044 001c 0028     		cmp	r0, #0
 2045 001e F3D0     		beq	.L324
 2046              		.loc 1 616 0
 2047 0020 1649     		ldr	r1, .L342
 2048 0022 FFF7FEFF 		bl	strcmp
 2049              	.LVL230:
 2050 0026 48B1     		cbz	r0, .L341
 2051              		.loc 1 618 0
 2052 0028 2046     		mov	r0, r4
ARM GAS  /tmp/ccEbIy6V.s 			page 37


 2053 002a 1549     		ldr	r1, .L342+4
 2054 002c FFF7FEFF 		bl	strcmp
 2055              	.LVL231:
 2056 0030 0028     		cmp	r0, #0
 2057 0032 E9D1     		bne	.L324
 2058              		.loc 1 619 0
 2059 0034 134B     		ldr	r3, .L342+8
 2060              		.loc 1 624 0
 2061 0036 2020     		movs	r0, #32
 2062              		.loc 1 619 0
 2063 0038 1D70     		strb	r5, [r3]
 2064              	.LBE774:
 2065              	.LBE773:
 2066              		.loc 1 625 0
 2067 003a 38BD     		pop	{r3, r4, r5, pc}
 2068              	.LVL232:
 2069              	.L341:
 2070              	.LBB777:
 2071              	.LBB775:
 2072              		.loc 1 617 0
 2073 003c 124B     		ldr	r3, .L342+12
 2074              		.loc 1 624 0
 2075 003e 2020     		movs	r0, #32
 2076              		.loc 1 617 0
 2077 0040 1D70     		strb	r5, [r3]
 2078              	.LBE775:
 2079              	.LBE777:
 2080              		.loc 1 625 0
 2081 0042 38BD     		pop	{r3, r4, r5, pc}
 2082              	.LVL233:
 2083              	.L340:
 2084              		.loc 1 601 0 discriminator 1
 2085 0044 4068     		ldr	r0, [r0, #4]
 2086              	.LVL234:
 2087              	.LBB778:
 2088              	.LBB779:
 2089              	.LBB780:
 2090              	.LBB781:
 2091              		.loc 2 461 0 discriminator 1
 2092 0046 C307     		lsls	r3, r0, #31
 2093 0048 4CBF     		ite	mi
 2094 004a 00F07C43 		andmi	r3, r0, #-67108864
 2095 004e 00F00C03 		andpl	r3, r0, #12
 2096              	.LVL235:
 2097              	.LBE781:
 2098              	.LBE780:
 2099              		.loc 2 561 0 discriminator 1
 2100 0052 082B     		cmp	r3, #8
 2101 0054 0BD0     		beq	.L323
 2102              		.loc 2 562 0
 2103 0056 23F00802 		bic	r2, r3, #8
 2104 005a 042A     		cmp	r2, #4
 2105 005c 07D0     		beq	.L323
 2106              		.loc 2 564 0
 2107 005e 23F08052 		bic	r2, r3, #268435456
 2108 0062 B2F1005F 		cmp	r2, #536870912
 2109 0066 02D0     		beq	.L323
ARM GAS  /tmp/ccEbIy6V.s 			page 38


 2110              		.loc 2 565 0
 2111 0068 B3F1804F 		cmp	r3, #1073741824
 2112 006c CCD1     		bne	.L324
 2113              	.L323:
 2114              	.LVL236:
 2115              	.LBE779:
 2116              	.LBE778:
 2117              	.LBB782:
 2118              	.LBB776:
 2119              		.loc 1 606 0
 2120 006e FFF7FEFF 		bl	lbm_dec_as_i
 2121              	.LVL237:
 2122 0072 051C     		adds	r5, r0, #0
 2123 0074 18BF     		it	ne
 2124 0076 0125     		movne	r5, #1
 2125 0078 CCE7     		b	.L320
 2126              	.L343:
 2127 007a 00BF     		.align	2
 2128              	.L342:
 2129 007c 00000000 		.word	.LC3
 2130 0080 10000000 		.word	.LC4
 2131 0084 00000000 		.word	.LANCHOR4
 2132 0088 00000000 		.word	.LANCHOR3
 2133              	.LBE776:
 2134              	.LBE782:
 2135              		.cfi_endproc
 2136              	.LFE355:
 2137              		.size	ext_enable_event, .-ext_enable_event
 2138              		.section	.text.ext_select_motor,"ax",%progbits
 2139              		.align	1
 2140              		.p2align 4,,15
 2141              		.syntax unified
 2142              		.thumb
 2143              		.thumb_func
 2144              		.fpu fpv4-sp-d16
 2145              		.type	ext_select_motor, %function
 2146              	ext_select_motor:
 2147              	.LFB309:
 2148              		.loc 1 119 0
 2149              		.cfi_startproc
 2150              		@ args = 0, pretend = 0, frame = 0
 2151              		@ frame_needed = 0, uses_anonymous_args = 0
 2152              	.LVL238:
 2153              		.loc 1 120 0
 2154 0000 0129     		cmp	r1, #1
 2155 0002 01D0     		beq	.L345
 2156 0004 9020     		movs	r0, #144
 2157              	.LVL239:
 2158              		.loc 1 127 0
 2159 0006 7047     		bx	lr
 2160              	.LVL240:
 2161              	.L345:
 2162              		.loc 1 119 0 discriminator 2
 2163 0008 10B5     		push	{r4, lr}
 2164              		.cfi_def_cfa_offset 8
 2165              		.cfi_offset 4, -8
 2166              		.cfi_offset 14, -4
ARM GAS  /tmp/ccEbIy6V.s 			page 39


 2167 000a 0446     		mov	r4, r0
 2168              		.loc 1 120 0 discriminator 2
 2169 000c FFF7FEFF 		bl	is_number_all
 2170              	.LVL241:
 2171 0010 08B9     		cbnz	r0, .L354
 2172              	.LVL242:
 2173              	.L347:
 2174              		.loc 1 120 0 is_stmt 0
 2175 0012 9020     		movs	r0, #144
 2176              		.loc 1 127 0 is_stmt 1
 2177 0014 10BD     		pop	{r4, pc}
 2178              	.LVL243:
 2179              	.L354:
 2180              	.LBB791:
 2181              	.LBB792:
 2182              		.loc 1 121 0
 2183 0016 2068     		ldr	r0, [r4]
 2184 0018 FFF7FEFF 		bl	lbm_dec_as_i
 2185              	.LVL244:
 2186              		.loc 1 122 0
 2187 001c 0228     		cmp	r0, #2
 2188 001e F8D8     		bhi	.L347
 2189              		.loc 1 125 0
 2190 0020 FFF7FEFF 		bl	mc_interface_select_motor_thread
 2191              	.LVL245:
 2192              		.loc 1 126 0
 2193 0024 2020     		movs	r0, #32
 2194              	.LBE792:
 2195              	.LBE791:
 2196              		.loc 1 127 0
 2197 0026 10BD     		pop	{r4, pc}
 2198              		.cfi_endproc
 2199              	.LFE309:
 2200              		.size	ext_select_motor, .-ext_select_motor
 2201              		.section	.text.ext_set_servo,"ax",%progbits
 2202              		.align	1
 2203              		.p2align 4,,15
 2204              		.syntax unified
 2205              		.thumb
 2206              		.thumb_func
 2207              		.fpu fpv4-sp-d16
 2208              		.type	ext_set_servo, %function
 2209              	ext_set_servo:
 2210              	.LFB304:
 2211              		.loc 1 92 0
 2212              		.cfi_startproc
 2213              		@ args = 0, pretend = 0, frame = 0
 2214              		@ frame_needed = 0, uses_anonymous_args = 0
 2215              	.LVL246:
 2216              		.loc 1 93 0
 2217 0000 0129     		cmp	r1, #1
 2218 0002 01D0     		beq	.L363
 2219 0004 9020     		movs	r0, #144
 2220              	.LVL247:
 2221              		.loc 1 96 0
 2222 0006 7047     		bx	lr
 2223              	.LVL248:
ARM GAS  /tmp/ccEbIy6V.s 			page 40


 2224              	.L363:
 2225              		.loc 1 92 0 discriminator 2
 2226 0008 10B5     		push	{r4, lr}
 2227              		.cfi_def_cfa_offset 8
 2228              		.cfi_offset 4, -8
 2229              		.cfi_offset 14, -4
 2230 000a 0446     		mov	r4, r0
 2231              		.loc 1 93 0 discriminator 2
 2232 000c FFF7FEFF 		bl	is_number_all
 2233              	.LVL249:
 2234 0010 08B9     		cbnz	r0, .L364
 2235              		.loc 1 93 0 is_stmt 0
 2236 0012 9020     		movs	r0, #144
 2237              		.loc 1 96 0 is_stmt 1
 2238 0014 10BD     		pop	{r4, pc}
 2239              	.LVL250:
 2240              	.L364:
 2241              	.LBB799:
 2242              	.LBB800:
 2243              		.loc 1 94 0
 2244 0016 2068     		ldr	r0, [r4]
 2245 0018 FFF7FEFF 		bl	lbm_dec_as_f
 2246              	.LVL251:
 2247 001c FFF7FEFF 		bl	servo_simple_set_output
 2248              	.LVL252:
 2249 0020 2020     		movs	r0, #32
 2250              	.LBE800:
 2251              	.LBE799:
 2252              		.loc 1 96 0
 2253 0022 10BD     		pop	{r4, pc}
 2254              		.cfi_endproc
 2255              	.LFE304:
 2256              		.size	ext_set_servo, .-ext_set_servo
 2257              		.section	.text.ext_systime,"ax",%progbits
 2258              		.align	1
 2259              		.p2align 4,,15
 2260              		.syntax unified
 2261              		.thumb
 2262              		.thumb_func
 2263              		.fpu fpv4-sp-d16
 2264              		.type	ext_systime, %function
 2265              	ext_systime:
 2266              	.LFB313:
 2267              		.loc 1 246 0
 2268              		.cfi_startproc
 2269              		@ args = 0, pretend = 0, frame = 0
 2270              		@ frame_needed = 0, uses_anonymous_args = 0
 2271              	.LVL253:
 2272 0000 08B5     		push	{r3, lr}
 2273              		.cfi_def_cfa_offset 8
 2274              		.cfi_offset 3, -8
 2275              		.cfi_offset 14, -4
 2276              	.LBB809:
 2277              	.LBB810:
 2278              		.file 3 "ChibiOS_3.0.5/os/rt/include/chvt.h"
 2279              		.loc 3 231 0
 2280 0002 0B4B     		ldr	r3, .L373
ARM GAS  /tmp/ccEbIy6V.s 			page 41


 2281              	.LBE810:
 2282              	.LBE809:
 2283              	.LBB812:
 2284              	.LBB813:
 2285              		.loc 2 493 0
 2286 0004 4FF40471 		mov	r1, #528
 2287              	.LVL254:
 2288              	.LBE813:
 2289              	.LBE812:
 2290              	.LBB819:
 2291              	.LBB811:
 2292              		.loc 3 231 0
 2293 0008 986A     		ldr	r0, [r3, #40]
 2294              	.LVL255:
 2295              	.LBE811:
 2296              	.LBE819:
 2297              	.LBB820:
 2298              	.LBB818:
 2299              		.loc 2 493 0
 2300 000a FFF7FEFF 		bl	lbm_cons
 2301              	.LVL256:
 2302              	.LBB814:
 2303              	.LBB815:
 2304              		.loc 2 461 0
 2305 000e C307     		lsls	r3, r0, #31
 2306 0010 4CBF     		ite	mi
 2307 0012 00F07C43 		andmi	r3, r0, #-67108864
 2308 0016 00F00C03 		andpl	r3, r0, #12
 2309              	.LBE815:
 2310              	.LBE814:
 2311              		.loc 2 494 0
 2312 001a 3BB1     		cbz	r3, .L365
 2313              	.LVL257:
 2314              	.LBB816:
 2315              	.LBB817:
 2316              		.loc 2 477 0
 2317 001c 20F07C40 		bic	r0, r0, #-67108864
 2318              	.LVL258:
 2319 0020 20F00700 		bic	r0, r0, #7
 2320 0024 40F04050 		orr	r0, r0, #805306368
 2321 0028 40F00100 		orr	r0, r0, #1
 2322              	.LVL259:
 2323              	.L365:
 2324              	.LBE817:
 2325              	.LBE816:
 2326              	.LBE818:
 2327              	.LBE820:
 2328              		.loc 1 249 0
 2329 002c 08BD     		pop	{r3, pc}
 2330              	.L374:
 2331 002e 00BF     		.align	2
 2332              	.L373:
 2333 0030 00000000 		.word	ch
 2334              		.cfi_endproc
 2335              	.LFE313:
 2336              		.size	ext_systime, .-ext_systime
 2337              		.section	.text.ext_bits_enc_int,"ax",%progbits
ARM GAS  /tmp/ccEbIy6V.s 			page 42


 2338              		.align	1
 2339              		.p2align 4,,15
 2340              		.syntax unified
 2341              		.thumb
 2342              		.thumb_func
 2343              		.fpu fpv4-sp-d16
 2344              		.type	ext_bits_enc_int, %function
 2345              	ext_bits_enc_int:
 2346              	.LFB353:
 2347              		.loc 1 551 0
 2348              		.cfi_startproc
 2349              		@ args = 0, pretend = 0, frame = 0
 2350              		@ frame_needed = 0, uses_anonymous_args = 0
 2351              	.LVL260:
 2352              		.loc 1 552 0
 2353 0000 0429     		cmp	r1, #4
 2354 0002 2CD1     		bne	.L380
 2355              		.loc 1 551 0 discriminator 2
 2356 0004 F8B5     		push	{r3, r4, r5, r6, r7, lr}
 2357              		.cfi_def_cfa_offset 24
 2358              		.cfi_offset 3, -24
 2359              		.cfi_offset 4, -20
 2360              		.cfi_offset 5, -16
 2361              		.cfi_offset 6, -12
 2362              		.cfi_offset 7, -8
 2363              		.cfi_offset 14, -4
 2364 0006 0546     		mov	r5, r0
 2365              		.loc 1 552 0 discriminator 2
 2366 0008 FFF7FEFF 		bl	is_number_all
 2367              	.LVL261:
 2368 000c 28B3     		cbz	r0, .L381
 2369              	.LVL262:
 2370              	.LBB833:
 2371              	.LBB834:
 2372              		.loc 1 553 0
 2373 000e 2868     		ldr	r0, [r5]
 2374 0010 FFF7FEFF 		bl	lbm_dec_as_i
 2375              	.LVL263:
 2376 0014 0646     		mov	r6, r0
 2377              	.LVL264:
 2378              		.loc 1 554 0
 2379 0016 6868     		ldr	r0, [r5, #4]
 2380              	.LVL265:
 2381 0018 FFF7FEFF 		bl	lbm_dec_as_i
 2382              	.LVL266:
 2383 001c 0746     		mov	r7, r0
 2384              	.LVL267:
 2385              		.loc 1 555 0
 2386 001e A868     		ldr	r0, [r5, #8]
 2387              	.LVL268:
 2388 0020 FFF7FEFF 		bl	lbm_dec_as_i
 2389              	.LVL269:
 2390 0024 0446     		mov	r4, r0
 2391              	.LVL270:
 2392              		.loc 1 556 0
 2393 0026 E868     		ldr	r0, [r5, #12]
 2394              	.LVL271:
ARM GAS  /tmp/ccEbIy6V.s 			page 43


 2395 0028 FFF7FEFF 		bl	lbm_dec_as_i
 2396              	.LVL272:
 2397              		.loc 1 557 0
 2398 002c 4FF0FF32 		mov	r2, #-1
 2399 0030 C0F12001 		rsb	r1, r0, #32
 2400              		.loc 1 558 0
 2401 0034 3B18     		adds	r3, r7, r0
 2402              		.loc 1 557 0
 2403 0036 CA40     		lsrs	r2, r2, r1
 2404              		.loc 1 558 0
 2405 0038 04FA01F0 		lsl	r0, r4, r1
 2406              	.LVL273:
 2407 003c C3F12004 		rsb	r4, r3, #32
 2408              	.LVL274:
 2409              		.loc 1 557 0
 2410 0040 02FA07F3 		lsl	r3, r2, r7
 2411              		.loc 1 558 0
 2412 0044 E040     		lsrs	r0, r0, r4
 2413              		.loc 1 557 0
 2414 0046 26EA0303 		bic	r3, r6, r3
 2415              	.LVL275:
 2416              		.loc 1 558 0
 2417 004a 1843     		orrs	r0, r0, r3
 2418              	.LVL276:
 2419              		.loc 1 560 0
 2420 004c B0F1006F 		cmp	r0, #134217728
 2421 0050 07D2     		bcs	.L389
 2422              	.LVL277:
 2423              	.LBB835:
 2424              	.LBB836:
 2425              		.loc 2 485 0
 2426 0052 0001     		lsls	r0, r0, #4
 2427              	.LVL278:
 2428 0054 40F00C00 		orr	r0, r0, #12
 2429              	.L375:
 2430              	.LBE836:
 2431              	.LBE835:
 2432              	.LBE834:
 2433              	.LBE833:
 2434              		.loc 1 565 0
 2435 0058 F8BD     		pop	{r3, r4, r5, r6, r7, pc}
 2436              	.LVL279:
 2437              	.L381:
 2438              		.loc 1 552 0
 2439 005a 9020     		movs	r0, #144
 2440              		.loc 1 565 0
 2441 005c F8BD     		pop	{r3, r4, r5, r6, r7, pc}
 2442              	.LVL280:
 2443              	.L380:
 2444              		.cfi_def_cfa_offset 0
 2445              		.cfi_restore 3
 2446              		.cfi_restore 4
 2447              		.cfi_restore 5
 2448              		.cfi_restore 6
 2449              		.cfi_restore 7
 2450              		.cfi_restore 14
 2451              		.loc 1 552 0
ARM GAS  /tmp/ccEbIy6V.s 			page 44


 2452 005e 9020     		movs	r0, #144
 2453              	.LVL281:
 2454              		.loc 1 565 0
 2455 0060 7047     		bx	lr
 2456              	.LVL282:
 2457              	.L389:
 2458              		.cfi_def_cfa_offset 24
 2459              		.cfi_offset 3, -24
 2460              		.cfi_offset 4, -20
 2461              		.cfi_offset 5, -16
 2462              		.cfi_offset 6, -12
 2463              		.cfi_offset 7, -8
 2464              		.cfi_offset 14, -4
 2465              	.LBB844:
 2466              	.LBB843:
 2467              	.LBB837:
 2468              	.LBB838:
 2469              		.loc 2 493 0
 2470 0062 4FF40471 		mov	r1, #528
 2471 0066 FFF7FEFF 		bl	lbm_cons
 2472              	.LVL283:
 2473              	.LBB839:
 2474              	.LBB840:
 2475              		.loc 2 461 0
 2476 006a C307     		lsls	r3, r0, #31
 2477 006c 4CBF     		ite	mi
 2478 006e 00F07C43 		andmi	r3, r0, #-67108864
 2479 0072 00F00C03 		andpl	r3, r0, #12
 2480              	.LBE840:
 2481              	.LBE839:
 2482              		.loc 2 494 0
 2483 0076 002B     		cmp	r3, #0
 2484 0078 EED0     		beq	.L375
 2485              	.LVL284:
 2486              	.LBB841:
 2487              	.LBB842:
 2488              		.loc 2 477 0
 2489 007a 20F07C40 		bic	r0, r0, #-67108864
 2490              	.LVL285:
 2491 007e 20F00700 		bic	r0, r0, #7
 2492 0082 40F04050 		orr	r0, r0, #805306368
 2493 0086 40F00100 		orr	r0, r0, #1
 2494              	.LVL286:
 2495              	.LBE842:
 2496              	.LBE841:
 2497              	.LBE838:
 2498              	.LBE837:
 2499              	.LBE843:
 2500              	.LBE844:
 2501              		.loc 1 565 0
 2502 008a F8BD     		pop	{r3, r4, r5, r6, r7, pc}
 2503              		.cfi_endproc
 2504              	.LFE353:
 2505              		.size	ext_bits_enc_int, .-ext_bits_enc_int
 2506              		.section	.text.ext_bits_dec_int,"ax",%progbits
 2507              		.align	1
 2508              		.p2align 4,,15
ARM GAS  /tmp/ccEbIy6V.s 			page 45


 2509              		.syntax unified
 2510              		.thumb
 2511              		.thumb_func
 2512              		.fpu fpv4-sp-d16
 2513              		.type	ext_bits_dec_int, %function
 2514              	ext_bits_dec_int:
 2515              	.LFB354:
 2516              		.loc 1 572 0
 2517              		.cfi_startproc
 2518              		@ args = 0, pretend = 0, frame = 0
 2519              		@ frame_needed = 0, uses_anonymous_args = 0
 2520              	.LVL287:
 2521              		.loc 1 573 0
 2522 0000 0329     		cmp	r1, #3
 2523 0002 20D1     		bne	.L395
 2524              		.loc 1 572 0 discriminator 2
 2525 0004 70B5     		push	{r4, r5, r6, lr}
 2526              		.cfi_def_cfa_offset 16
 2527              		.cfi_offset 4, -16
 2528              		.cfi_offset 5, -12
 2529              		.cfi_offset 6, -8
 2530              		.cfi_offset 14, -4
 2531 0006 0446     		mov	r4, r0
 2532              		.loc 1 573 0 discriminator 2
 2533 0008 FFF7FEFF 		bl	is_number_all
 2534              	.LVL288:
 2535 000c C8B1     		cbz	r0, .L396
 2536              	.LVL289:
 2537              	.LBB857:
 2538              	.LBB858:
 2539              		.loc 1 574 0
 2540 000e 2068     		ldr	r0, [r4]
 2541 0010 FFF7FEFF 		bl	lbm_dec_as_i
 2542              	.LVL290:
 2543 0014 0546     		mov	r5, r0
 2544              	.LVL291:
 2545              		.loc 1 575 0
 2546 0016 6068     		ldr	r0, [r4, #4]
 2547              	.LVL292:
 2548 0018 FFF7FEFF 		bl	lbm_dec_as_i
 2549              	.LVL293:
 2550 001c 0646     		mov	r6, r0
 2551              	.LVL294:
 2552              		.loc 1 576 0
 2553 001e A068     		ldr	r0, [r4, #8]
 2554              	.LVL295:
 2555 0020 FFF7FEFF 		bl	lbm_dec_as_i
 2556              	.LVL296:
 2557              		.loc 1 578 0
 2558 0024 4FF0FF33 		mov	r3, #-1
 2559 0028 C0F12000 		rsb	r0, r0, #32
 2560              	.LVL297:
 2561              		.loc 1 577 0
 2562 002c F540     		lsrs	r5, r5, r6
 2563              	.LVL298:
 2564              		.loc 1 578 0
 2565 002e 23FA00F0 		lsr	r0, r3, r0
ARM GAS  /tmp/ccEbIy6V.s 			page 46


 2566 0032 2840     		ands	r0, r0, r5
 2567              	.LVL299:
 2568              		.loc 1 580 0
 2569 0034 B0F1006F 		cmp	r0, #134217728
 2570 0038 07D2     		bcs	.L404
 2571              	.LVL300:
 2572              	.LBB859:
 2573              	.LBB860:
 2574              		.loc 2 485 0
 2575 003a 0001     		lsls	r0, r0, #4
 2576              	.LVL301:
 2577 003c 40F00C00 		orr	r0, r0, #12
 2578              	.L390:
 2579              	.LBE860:
 2580              	.LBE859:
 2581              	.LBE858:
 2582              	.LBE857:
 2583              		.loc 1 585 0
 2584 0040 70BD     		pop	{r4, r5, r6, pc}
 2585              	.LVL302:
 2586              	.L396:
 2587              		.loc 1 573 0
 2588 0042 9020     		movs	r0, #144
 2589              		.loc 1 585 0
 2590 0044 70BD     		pop	{r4, r5, r6, pc}
 2591              	.LVL303:
 2592              	.L395:
 2593              		.cfi_def_cfa_offset 0
 2594              		.cfi_restore 4
 2595              		.cfi_restore 5
 2596              		.cfi_restore 6
 2597              		.cfi_restore 14
 2598              		.loc 1 573 0
 2599 0046 9020     		movs	r0, #144
 2600              	.LVL304:
 2601              		.loc 1 585 0
 2602 0048 7047     		bx	lr
 2603              	.LVL305:
 2604              	.L404:
 2605              		.cfi_def_cfa_offset 16
 2606              		.cfi_offset 4, -16
 2607              		.cfi_offset 5, -12
 2608              		.cfi_offset 6, -8
 2609              		.cfi_offset 14, -4
 2610              	.LBB868:
 2611              	.LBB867:
 2612              	.LBB861:
 2613              	.LBB862:
 2614              		.loc 2 493 0
 2615 004a 4FF40471 		mov	r1, #528
 2616 004e FFF7FEFF 		bl	lbm_cons
 2617              	.LVL306:
 2618              	.LBB863:
 2619              	.LBB864:
 2620              		.loc 2 461 0
 2621 0052 C307     		lsls	r3, r0, #31
 2622 0054 4CBF     		ite	mi
ARM GAS  /tmp/ccEbIy6V.s 			page 47


 2623 0056 00F07C43 		andmi	r3, r0, #-67108864
 2624 005a 00F00C03 		andpl	r3, r0, #12
 2625              	.LBE864:
 2626              	.LBE863:
 2627              		.loc 2 494 0
 2628 005e 002B     		cmp	r3, #0
 2629 0060 EED0     		beq	.L390
 2630              	.LVL307:
 2631              	.LBB865:
 2632              	.LBB866:
 2633              		.loc 2 477 0
 2634 0062 20F07C40 		bic	r0, r0, #-67108864
 2635              	.LVL308:
 2636 0066 20F00700 		bic	r0, r0, #7
 2637 006a 40F04050 		orr	r0, r0, #805306368
 2638 006e 40F00100 		orr	r0, r0, #1
 2639              	.LVL309:
 2640              	.LBE866:
 2641              	.LBE865:
 2642              	.LBE862:
 2643              	.LBE861:
 2644              	.LBE867:
 2645              	.LBE868:
 2646              		.loc 1 585 0
 2647 0072 70BD     		pop	{r4, r5, r6, pc}
 2648              		.cfi_endproc
 2649              	.LFE354:
 2650              		.size	ext_bits_dec_int, .-ext_bits_dec_int
 2651              		.section	.text.ext_get_encoder,"ax",%progbits
 2652              		.align	1
 2653              		.p2align 4,,15
 2654              		.syntax unified
 2655              		.thumb
 2656              		.thumb_func
 2657              		.fpu fpv4-sp-d16
 2658              		.type	ext_get_encoder, %function
 2659              	ext_get_encoder:
 2660              	.LFB307:
 2661              		.loc 1 109 0
 2662              		.cfi_startproc
 2663              		@ args = 0, pretend = 0, frame = 0
 2664              		@ frame_needed = 0, uses_anonymous_args = 0
 2665              	.LVL310:
 2666 0000 08B5     		push	{r3, lr}
 2667              		.cfi_def_cfa_offset 8
 2668              		.cfi_offset 3, -8
 2669              		.cfi_offset 14, -4
 2670              		.loc 1 111 0
 2671 0002 FFF7FEFF 		bl	encoder_read_deg
 2672              	.LVL311:
 2673              	.LBB875:
 2674              	.LBB876:
 2675              		.loc 2 507 0
 2676 0006 4FF40C71 		mov	r1, #560
 2677 000a 10EE100A 		vmov	r0, s0	@ int
 2678 000e FFF7FEFF 		bl	lbm_cons
 2679              	.LVL312:
ARM GAS  /tmp/ccEbIy6V.s 			page 48


 2680              	.LBB877:
 2681              	.LBB878:
 2682              		.loc 2 461 0
 2683 0012 C307     		lsls	r3, r0, #31
 2684 0014 4CBF     		ite	mi
 2685 0016 00F07C43 		andmi	r3, r0, #-67108864
 2686 001a 00F00C03 		andpl	r3, r0, #12
 2687              	.LBE878:
 2688              	.LBE877:
 2689              		.loc 2 508 0
 2690 001e 3BB1     		cbz	r3, .L405
 2691              	.LVL313:
 2692              	.LBB879:
 2693              	.LBB880:
 2694              		.loc 2 477 0
 2695 0020 20F07C40 		bic	r0, r0, #-67108864
 2696              	.LVL314:
 2697 0024 20F00700 		bic	r0, r0, #7
 2698 0028 40F08040 		orr	r0, r0, #1073741824
 2699 002c 40F00100 		orr	r0, r0, #1
 2700              	.LVL315:
 2701              	.L405:
 2702              	.LBE880:
 2703              	.LBE879:
 2704              	.LBE876:
 2705              	.LBE875:
 2706              		.loc 1 112 0
 2707 0030 08BD     		pop	{r3, pc}
 2708              		.cfi_endproc
 2709              	.LFE307:
 2710              		.size	ext_get_encoder, .-ext_get_encoder
 2711 0032 00BF     		.section	.text.ext_get_vin,"ax",%progbits
 2712              		.align	1
 2713              		.p2align 4,,15
 2714              		.syntax unified
 2715              		.thumb
 2716              		.thumb_func
 2717              		.fpu fpv4-sp-d16
 2718              		.type	ext_get_vin, %function
 2719              	ext_get_vin:
 2720              	.LFB308:
 2721              		.loc 1 114 0
 2722              		.cfi_startproc
 2723              		@ args = 0, pretend = 0, frame = 0
 2724              		@ frame_needed = 0, uses_anonymous_args = 0
 2725              	.LVL316:
 2726 0000 08B5     		push	{r3, lr}
 2727              		.cfi_def_cfa_offset 8
 2728              		.cfi_offset 3, -8
 2729              		.cfi_offset 14, -4
 2730              		.loc 1 116 0
 2731 0002 FFF7FEFF 		bl	mc_interface_get_input_voltage_filtered
 2732              	.LVL317:
 2733              	.LBB887:
 2734              	.LBB888:
 2735              		.loc 2 507 0
 2736 0006 4FF40C71 		mov	r1, #560
ARM GAS  /tmp/ccEbIy6V.s 			page 49


 2737 000a 10EE100A 		vmov	r0, s0	@ int
 2738 000e FFF7FEFF 		bl	lbm_cons
 2739              	.LVL318:
 2740              	.LBB889:
 2741              	.LBB890:
 2742              		.loc 2 461 0
 2743 0012 C307     		lsls	r3, r0, #31
 2744 0014 4CBF     		ite	mi
 2745 0016 00F07C43 		andmi	r3, r0, #-67108864
 2746 001a 00F00C03 		andpl	r3, r0, #12
 2747              	.LBE890:
 2748              	.LBE889:
 2749              		.loc 2 508 0
 2750 001e 3BB1     		cbz	r3, .L413
 2751              	.LVL319:
 2752              	.LBB891:
 2753              	.LBB892:
 2754              		.loc 2 477 0
 2755 0020 20F07C40 		bic	r0, r0, #-67108864
 2756              	.LVL320:
 2757 0024 20F00700 		bic	r0, r0, #7
 2758 0028 40F08040 		orr	r0, r0, #1073741824
 2759 002c 40F00100 		orr	r0, r0, #1
 2760              	.LVL321:
 2761              	.L413:
 2762              	.LBE892:
 2763              	.LBE891:
 2764              	.LBE888:
 2765              	.LBE887:
 2766              		.loc 1 117 0
 2767 0030 08BD     		pop	{r3, pc}
 2768              		.cfi_endproc
 2769              	.LFE308:
 2770              		.size	ext_get_vin, .-ext_get_vin
 2771 0032 00BF     		.section	.text.ext_get_dist,"ax",%progbits
 2772              		.align	1
 2773              		.p2align 4,,15
 2774              		.syntax unified
 2775              		.thumb
 2776              		.thumb_func
 2777              		.fpu fpv4-sp-d16
 2778              		.type	ext_get_dist, %function
 2779              	ext_get_dist:
 2780              	.LFB333:
 2781              		.loc 1 378 0
 2782              		.cfi_startproc
 2783              		@ args = 0, pretend = 0, frame = 0
 2784              		@ frame_needed = 0, uses_anonymous_args = 0
 2785              	.LVL322:
 2786 0000 08B5     		push	{r3, lr}
 2787              		.cfi_def_cfa_offset 8
 2788              		.cfi_offset 3, -8
 2789              		.cfi_offset 14, -4
 2790              		.loc 1 380 0
 2791 0002 FFF7FEFF 		bl	mc_interface_get_distance_abs
 2792              	.LVL323:
 2793              	.LBB899:
ARM GAS  /tmp/ccEbIy6V.s 			page 50


 2794              	.LBB900:
 2795              		.loc 2 507 0
 2796 0006 4FF40C71 		mov	r1, #560
 2797 000a 10EE100A 		vmov	r0, s0	@ int
 2798 000e FFF7FEFF 		bl	lbm_cons
 2799              	.LVL324:
 2800              	.LBB901:
 2801              	.LBB902:
 2802              		.loc 2 461 0
 2803 0012 C307     		lsls	r3, r0, #31
 2804 0014 4CBF     		ite	mi
 2805 0016 00F07C43 		andmi	r3, r0, #-67108864
 2806 001a 00F00C03 		andpl	r3, r0, #12
 2807              	.LBE902:
 2808              	.LBE901:
 2809              		.loc 2 508 0
 2810 001e 3BB1     		cbz	r3, .L421
 2811              	.LVL325:
 2812              	.LBB903:
 2813              	.LBB904:
 2814              		.loc 2 477 0
 2815 0020 20F07C40 		bic	r0, r0, #-67108864
 2816              	.LVL326:
 2817 0024 20F00700 		bic	r0, r0, #7
 2818 0028 40F08040 		orr	r0, r0, #1073741824
 2819 002c 40F00100 		orr	r0, r0, #1
 2820              	.LVL327:
 2821              	.L421:
 2822              	.LBE904:
 2823              	.LBE903:
 2824              	.LBE900:
 2825              	.LBE899:
 2826              		.loc 1 381 0
 2827 0030 08BD     		pop	{r3, pc}
 2828              		.cfi_endproc
 2829              	.LFE333:
 2830              		.size	ext_get_dist, .-ext_get_dist
 2831 0032 00BF     		.section	.text.ext_get_rpm,"ax",%progbits
 2832              		.align	1
 2833              		.p2align 4,,15
 2834              		.syntax unified
 2835              		.thumb
 2836              		.thumb_func
 2837              		.fpu fpv4-sp-d16
 2838              		.type	ext_get_rpm, %function
 2839              	ext_get_rpm:
 2840              	.LFB329:
 2841              		.loc 1 358 0
 2842              		.cfi_startproc
 2843              		@ args = 0, pretend = 0, frame = 0
 2844              		@ frame_needed = 0, uses_anonymous_args = 0
 2845              	.LVL328:
 2846 0000 08B5     		push	{r3, lr}
 2847              		.cfi_def_cfa_offset 8
 2848              		.cfi_offset 3, -8
 2849              		.cfi_offset 14, -4
 2850              		.loc 1 360 0
ARM GAS  /tmp/ccEbIy6V.s 			page 51


 2851 0002 FFF7FEFF 		bl	mc_interface_get_rpm
 2852              	.LVL329:
 2853              	.LBB911:
 2854              	.LBB912:
 2855              		.loc 2 507 0
 2856 0006 4FF40C71 		mov	r1, #560
 2857 000a 10EE100A 		vmov	r0, s0	@ int
 2858 000e FFF7FEFF 		bl	lbm_cons
 2859              	.LVL330:
 2860              	.LBB913:
 2861              	.LBB914:
 2862              		.loc 2 461 0
 2863 0012 C307     		lsls	r3, r0, #31
 2864 0014 4CBF     		ite	mi
 2865 0016 00F07C43 		andmi	r3, r0, #-67108864
 2866 001a 00F00C03 		andpl	r3, r0, #12
 2867              	.LBE914:
 2868              	.LBE913:
 2869              		.loc 2 508 0
 2870 001e 3BB1     		cbz	r3, .L429
 2871              	.LVL331:
 2872              	.LBB915:
 2873              	.LBB916:
 2874              		.loc 2 477 0
 2875 0020 20F07C40 		bic	r0, r0, #-67108864
 2876              	.LVL332:
 2877 0024 20F00700 		bic	r0, r0, #7
 2878 0028 40F08040 		orr	r0, r0, #1073741824
 2879 002c 40F00100 		orr	r0, r0, #1
 2880              	.LVL333:
 2881              	.L429:
 2882              	.LBE916:
 2883              	.LBE915:
 2884              	.LBE912:
 2885              	.LBE911:
 2886              		.loc 1 361 0
 2887 0030 08BD     		pop	{r3, pc}
 2888              		.cfi_endproc
 2889              	.LFE329:
 2890              		.size	ext_get_rpm, .-ext_get_rpm
 2891 0032 00BF     		.section	.text.ext_get_temp_fet,"ax",%progbits
 2892              		.align	1
 2893              		.p2align 4,,15
 2894              		.syntax unified
 2895              		.thumb
 2896              		.thumb_func
 2897              		.fpu fpv4-sp-d16
 2898              		.type	ext_get_temp_fet, %function
 2899              	ext_get_temp_fet:
 2900              	.LFB330:
 2901              		.loc 1 363 0
 2902              		.cfi_startproc
 2903              		@ args = 0, pretend = 0, frame = 0
 2904              		@ frame_needed = 0, uses_anonymous_args = 0
 2905              	.LVL334:
 2906 0000 08B5     		push	{r3, lr}
 2907              		.cfi_def_cfa_offset 8
ARM GAS  /tmp/ccEbIy6V.s 			page 52


 2908              		.cfi_offset 3, -8
 2909              		.cfi_offset 14, -4
 2910              		.loc 1 365 0
 2911 0002 FFF7FEFF 		bl	mc_interface_temp_fet_filtered
 2912              	.LVL335:
 2913              	.LBB923:
 2914              	.LBB924:
 2915              		.loc 2 507 0
 2916 0006 4FF40C71 		mov	r1, #560
 2917 000a 10EE100A 		vmov	r0, s0	@ int
 2918 000e FFF7FEFF 		bl	lbm_cons
 2919              	.LVL336:
 2920              	.LBB925:
 2921              	.LBB926:
 2922              		.loc 2 461 0
 2923 0012 C307     		lsls	r3, r0, #31
 2924 0014 4CBF     		ite	mi
 2925 0016 00F07C43 		andmi	r3, r0, #-67108864
 2926 001a 00F00C03 		andpl	r3, r0, #12
 2927              	.LBE926:
 2928              	.LBE925:
 2929              		.loc 2 508 0
 2930 001e 3BB1     		cbz	r3, .L437
 2931              	.LVL337:
 2932              	.LBB927:
 2933              	.LBB928:
 2934              		.loc 2 477 0
 2935 0020 20F07C40 		bic	r0, r0, #-67108864
 2936              	.LVL338:
 2937 0024 20F00700 		bic	r0, r0, #7
 2938 0028 40F08040 		orr	r0, r0, #1073741824
 2939 002c 40F00100 		orr	r0, r0, #1
 2940              	.LVL339:
 2941              	.L437:
 2942              	.LBE928:
 2943              	.LBE927:
 2944              	.LBE924:
 2945              	.LBE923:
 2946              		.loc 1 366 0
 2947 0030 08BD     		pop	{r3, pc}
 2948              		.cfi_endproc
 2949              	.LFE330:
 2950              		.size	ext_get_temp_fet, .-ext_get_temp_fet
 2951 0032 00BF     		.section	.text.ext_get_temp_mot,"ax",%progbits
 2952              		.align	1
 2953              		.p2align 4,,15
 2954              		.syntax unified
 2955              		.thumb
 2956              		.thumb_func
 2957              		.fpu fpv4-sp-d16
 2958              		.type	ext_get_temp_mot, %function
 2959              	ext_get_temp_mot:
 2960              	.LFB331:
 2961              		.loc 1 368 0
 2962              		.cfi_startproc
 2963              		@ args = 0, pretend = 0, frame = 0
 2964              		@ frame_needed = 0, uses_anonymous_args = 0
ARM GAS  /tmp/ccEbIy6V.s 			page 53


 2965              	.LVL340:
 2966 0000 08B5     		push	{r3, lr}
 2967              		.cfi_def_cfa_offset 8
 2968              		.cfi_offset 3, -8
 2969              		.cfi_offset 14, -4
 2970              		.loc 1 370 0
 2971 0002 FFF7FEFF 		bl	mc_interface_temp_motor_filtered
 2972              	.LVL341:
 2973              	.LBB935:
 2974              	.LBB936:
 2975              		.loc 2 507 0
 2976 0006 4FF40C71 		mov	r1, #560
 2977 000a 10EE100A 		vmov	r0, s0	@ int
 2978 000e FFF7FEFF 		bl	lbm_cons
 2979              	.LVL342:
 2980              	.LBB937:
 2981              	.LBB938:
 2982              		.loc 2 461 0
 2983 0012 C307     		lsls	r3, r0, #31
 2984 0014 4CBF     		ite	mi
 2985 0016 00F07C43 		andmi	r3, r0, #-67108864
 2986 001a 00F00C03 		andpl	r3, r0, #12
 2987              	.LBE938:
 2988              	.LBE937:
 2989              		.loc 2 508 0
 2990 001e 3BB1     		cbz	r3, .L445
 2991              	.LVL343:
 2992              	.LBB939:
 2993              	.LBB940:
 2994              		.loc 2 477 0
 2995 0020 20F07C40 		bic	r0, r0, #-67108864
 2996              	.LVL344:
 2997 0024 20F00700 		bic	r0, r0, #7
 2998 0028 40F08040 		orr	r0, r0, #1073741824
 2999 002c 40F00100 		orr	r0, r0, #1
 3000              	.LVL345:
 3001              	.L445:
 3002              	.LBE940:
 3003              	.LBE939:
 3004              	.LBE936:
 3005              	.LBE935:
 3006              		.loc 1 371 0
 3007 0030 08BD     		pop	{r3, pc}
 3008              		.cfi_endproc
 3009              	.LFE331:
 3010              		.size	ext_get_temp_mot, .-ext_get_temp_mot
 3011 0032 00BF     		.section	.text.ext_get_speed,"ax",%progbits
 3012              		.align	1
 3013              		.p2align 4,,15
 3014              		.syntax unified
 3015              		.thumb
 3016              		.thumb_func
 3017              		.fpu fpv4-sp-d16
 3018              		.type	ext_get_speed, %function
 3019              	ext_get_speed:
 3020              	.LFB332:
 3021              		.loc 1 373 0
ARM GAS  /tmp/ccEbIy6V.s 			page 54


 3022              		.cfi_startproc
 3023              		@ args = 0, pretend = 0, frame = 0
 3024              		@ frame_needed = 0, uses_anonymous_args = 0
 3025              	.LVL346:
 3026 0000 08B5     		push	{r3, lr}
 3027              		.cfi_def_cfa_offset 8
 3028              		.cfi_offset 3, -8
 3029              		.cfi_offset 14, -4
 3030              		.loc 1 375 0
 3031 0002 FFF7FEFF 		bl	mc_interface_get_speed
 3032              	.LVL347:
 3033              	.LBB947:
 3034              	.LBB948:
 3035              		.loc 2 507 0
 3036 0006 4FF40C71 		mov	r1, #560
 3037 000a 10EE100A 		vmov	r0, s0	@ int
 3038 000e FFF7FEFF 		bl	lbm_cons
 3039              	.LVL348:
 3040              	.LBB949:
 3041              	.LBB950:
 3042              		.loc 2 461 0
 3043 0012 C307     		lsls	r3, r0, #31
 3044 0014 4CBF     		ite	mi
 3045 0016 00F07C43 		andmi	r3, r0, #-67108864
 3046 001a 00F00C03 		andpl	r3, r0, #12
 3047              	.LBE950:
 3048              	.LBE949:
 3049              		.loc 2 508 0
 3050 001e 3BB1     		cbz	r3, .L453
 3051              	.LVL349:
 3052              	.LBB951:
 3053              	.LBB952:
 3054              		.loc 2 477 0
 3055 0020 20F07C40 		bic	r0, r0, #-67108864
 3056              	.LVL350:
 3057 0024 20F00700 		bic	r0, r0, #7
 3058 0028 40F08040 		orr	r0, r0, #1073741824
 3059 002c 40F00100 		orr	r0, r0, #1
 3060              	.LVL351:
 3061              	.L453:
 3062              	.LBE952:
 3063              	.LBE951:
 3064              	.LBE948:
 3065              	.LBE947:
 3066              		.loc 1 376 0
 3067 0030 08BD     		pop	{r3, pc}
 3068              		.cfi_endproc
 3069              	.LFE332:
 3070              		.size	ext_get_speed, .-ext_get_speed
 3071 0032 00BF     		.section	.text.ext_get_current,"ax",%progbits
 3072              		.align	1
 3073              		.p2align 4,,15
 3074              		.syntax unified
 3075              		.thumb
 3076              		.thumb_func
 3077              		.fpu fpv4-sp-d16
 3078              		.type	ext_get_current, %function
ARM GAS  /tmp/ccEbIy6V.s 			page 55


 3079              	ext_get_current:
 3080              	.LFB325:
 3081              		.loc 1 338 0
 3082              		.cfi_startproc
 3083              		@ args = 0, pretend = 0, frame = 0
 3084              		@ frame_needed = 0, uses_anonymous_args = 0
 3085              	.LVL352:
 3086 0000 08B5     		push	{r3, lr}
 3087              		.cfi_def_cfa_offset 8
 3088              		.cfi_offset 3, -8
 3089              		.cfi_offset 14, -4
 3090              		.loc 1 340 0
 3091 0002 FFF7FEFF 		bl	mc_interface_get_tot_current_filtered
 3092              	.LVL353:
 3093              	.LBB959:
 3094              	.LBB960:
 3095              		.loc 2 507 0
 3096 0006 4FF40C71 		mov	r1, #560
 3097 000a 10EE100A 		vmov	r0, s0	@ int
 3098 000e FFF7FEFF 		bl	lbm_cons
 3099              	.LVL354:
 3100              	.LBB961:
 3101              	.LBB962:
 3102              		.loc 2 461 0
 3103 0012 C307     		lsls	r3, r0, #31
 3104 0014 4CBF     		ite	mi
 3105 0016 00F07C43 		andmi	r3, r0, #-67108864
 3106 001a 00F00C03 		andpl	r3, r0, #12
 3107              	.LBE962:
 3108              	.LBE961:
 3109              		.loc 2 508 0
 3110 001e 3BB1     		cbz	r3, .L461
 3111              	.LVL355:
 3112              	.LBB963:
 3113              	.LBB964:
 3114              		.loc 2 477 0
 3115 0020 20F07C40 		bic	r0, r0, #-67108864
 3116              	.LVL356:
 3117 0024 20F00700 		bic	r0, r0, #7
 3118 0028 40F08040 		orr	r0, r0, #1073741824
 3119 002c 40F00100 		orr	r0, r0, #1
 3120              	.LVL357:
 3121              	.L461:
 3122              	.LBE964:
 3123              	.LBE963:
 3124              	.LBE960:
 3125              	.LBE959:
 3126              		.loc 1 341 0
 3127 0030 08BD     		pop	{r3, pc}
 3128              		.cfi_endproc
 3129              	.LFE325:
 3130              		.size	ext_get_current, .-ext_get_current
 3131 0032 00BF     		.section	.text.ext_get_current_dir,"ax",%progbits
 3132              		.align	1
 3133              		.p2align 4,,15
 3134              		.syntax unified
 3135              		.thumb
ARM GAS  /tmp/ccEbIy6V.s 			page 56


 3136              		.thumb_func
 3137              		.fpu fpv4-sp-d16
 3138              		.type	ext_get_current_dir, %function
 3139              	ext_get_current_dir:
 3140              	.LFB326:
 3141              		.loc 1 343 0
 3142              		.cfi_startproc
 3143              		@ args = 0, pretend = 0, frame = 0
 3144              		@ frame_needed = 0, uses_anonymous_args = 0
 3145              	.LVL358:
 3146 0000 08B5     		push	{r3, lr}
 3147              		.cfi_def_cfa_offset 8
 3148              		.cfi_offset 3, -8
 3149              		.cfi_offset 14, -4
 3150              		.loc 1 345 0
 3151 0002 FFF7FEFF 		bl	mc_interface_get_tot_current_directional_filtered
 3152              	.LVL359:
 3153              	.LBB971:
 3154              	.LBB972:
 3155              		.loc 2 507 0
 3156 0006 4FF40C71 		mov	r1, #560
 3157 000a 10EE100A 		vmov	r0, s0	@ int
 3158 000e FFF7FEFF 		bl	lbm_cons
 3159              	.LVL360:
 3160              	.LBB973:
 3161              	.LBB974:
 3162              		.loc 2 461 0
 3163 0012 C307     		lsls	r3, r0, #31
 3164 0014 4CBF     		ite	mi
 3165 0016 00F07C43 		andmi	r3, r0, #-67108864
 3166 001a 00F00C03 		andpl	r3, r0, #12
 3167              	.LBE974:
 3168              	.LBE973:
 3169              		.loc 2 508 0
 3170 001e 3BB1     		cbz	r3, .L469
 3171              	.LVL361:
 3172              	.LBB975:
 3173              	.LBB976:
 3174              		.loc 2 477 0
 3175 0020 20F07C40 		bic	r0, r0, #-67108864
 3176              	.LVL362:
 3177 0024 20F00700 		bic	r0, r0, #7
 3178 0028 40F08040 		orr	r0, r0, #1073741824
 3179 002c 40F00100 		orr	r0, r0, #1
 3180              	.LVL363:
 3181              	.L469:
 3182              	.LBE976:
 3183              	.LBE975:
 3184              	.LBE972:
 3185              	.LBE971:
 3186              		.loc 1 346 0
 3187 0030 08BD     		pop	{r3, pc}
 3188              		.cfi_endproc
 3189              	.LFE326:
 3190              		.size	ext_get_current_dir, .-ext_get_current_dir
 3191 0032 00BF     		.section	.text.ext_get_current_in,"ax",%progbits
 3192              		.align	1
ARM GAS  /tmp/ccEbIy6V.s 			page 57


 3193              		.p2align 4,,15
 3194              		.syntax unified
 3195              		.thumb
 3196              		.thumb_func
 3197              		.fpu fpv4-sp-d16
 3198              		.type	ext_get_current_in, %function
 3199              	ext_get_current_in:
 3200              	.LFB327:
 3201              		.loc 1 348 0
 3202              		.cfi_startproc
 3203              		@ args = 0, pretend = 0, frame = 0
 3204              		@ frame_needed = 0, uses_anonymous_args = 0
 3205              	.LVL364:
 3206 0000 08B5     		push	{r3, lr}
 3207              		.cfi_def_cfa_offset 8
 3208              		.cfi_offset 3, -8
 3209              		.cfi_offset 14, -4
 3210              		.loc 1 350 0
 3211 0002 FFF7FEFF 		bl	mc_interface_get_tot_current_in_filtered
 3212              	.LVL365:
 3213              	.LBB983:
 3214              	.LBB984:
 3215              		.loc 2 507 0
 3216 0006 4FF40C71 		mov	r1, #560
 3217 000a 10EE100A 		vmov	r0, s0	@ int
 3218 000e FFF7FEFF 		bl	lbm_cons
 3219              	.LVL366:
 3220              	.LBB985:
 3221              	.LBB986:
 3222              		.loc 2 461 0
 3223 0012 C307     		lsls	r3, r0, #31
 3224 0014 4CBF     		ite	mi
 3225 0016 00F07C43 		andmi	r3, r0, #-67108864
 3226 001a 00F00C03 		andpl	r3, r0, #12
 3227              	.LBE986:
 3228              	.LBE985:
 3229              		.loc 2 508 0
 3230 001e 3BB1     		cbz	r3, .L477
 3231              	.LVL367:
 3232              	.LBB987:
 3233              	.LBB988:
 3234              		.loc 2 477 0
 3235 0020 20F07C40 		bic	r0, r0, #-67108864
 3236              	.LVL368:
 3237 0024 20F00700 		bic	r0, r0, #7
 3238 0028 40F08040 		orr	r0, r0, #1073741824
 3239 002c 40F00100 		orr	r0, r0, #1
 3240              	.LVL369:
 3241              	.L477:
 3242              	.LBE988:
 3243              	.LBE987:
 3244              	.LBE984:
 3245              	.LBE983:
 3246              		.loc 1 351 0
 3247 0030 08BD     		pop	{r3, pc}
 3248              		.cfi_endproc
 3249              	.LFE327:
ARM GAS  /tmp/ccEbIy6V.s 			page 58


 3250              		.size	ext_get_current_in, .-ext_get_current_in
 3251 0032 00BF     		.section	.text.ext_get_duty,"ax",%progbits
 3252              		.align	1
 3253              		.p2align 4,,15
 3254              		.syntax unified
 3255              		.thumb
 3256              		.thumb_func
 3257              		.fpu fpv4-sp-d16
 3258              		.type	ext_get_duty, %function
 3259              	ext_get_duty:
 3260              	.LFB328:
 3261              		.loc 1 353 0
 3262              		.cfi_startproc
 3263              		@ args = 0, pretend = 0, frame = 0
 3264              		@ frame_needed = 0, uses_anonymous_args = 0
 3265              	.LVL370:
 3266 0000 08B5     		push	{r3, lr}
 3267              		.cfi_def_cfa_offset 8
 3268              		.cfi_offset 3, -8
 3269              		.cfi_offset 14, -4
 3270              		.loc 1 355 0
 3271 0002 FFF7FEFF 		bl	mc_interface_get_duty_cycle_now
 3272              	.LVL371:
 3273              	.LBB995:
 3274              	.LBB996:
 3275              		.loc 2 507 0
 3276 0006 4FF40C71 		mov	r1, #560
 3277 000a 10EE100A 		vmov	r0, s0	@ int
 3278 000e FFF7FEFF 		bl	lbm_cons
 3279              	.LVL372:
 3280              	.LBB997:
 3281              	.LBB998:
 3282              		.loc 2 461 0
 3283 0012 C307     		lsls	r3, r0, #31
 3284 0014 4CBF     		ite	mi
 3285 0016 00F07C43 		andmi	r3, r0, #-67108864
 3286 001a 00F00C03 		andpl	r3, r0, #12
 3287              	.LBE998:
 3288              	.LBE997:
 3289              		.loc 2 508 0
 3290 001e 3BB1     		cbz	r3, .L485
 3291              	.LVL373:
 3292              	.LBB999:
 3293              	.LBB1000:
 3294              		.loc 2 477 0
 3295 0020 20F07C40 		bic	r0, r0, #-67108864
 3296              	.LVL374:
 3297 0024 20F00700 		bic	r0, r0, #7
 3298 0028 40F08040 		orr	r0, r0, #1073741824
 3299 002c 40F00100 		orr	r0, r0, #1
 3300              	.LVL375:
 3301              	.L485:
 3302              	.LBE1000:
 3303              	.LBE999:
 3304              	.LBE996:
 3305              	.LBE995:
 3306              		.loc 1 356 0
ARM GAS  /tmp/ccEbIy6V.s 			page 59


 3307 0030 08BD     		pop	{r3, pc}
 3308              		.cfi_endproc
 3309              	.LFE328:
 3310              		.size	ext_get_duty, .-ext_get_duty
 3311 0032 00BF     		.section	.text.ext_get_ppm,"ax",%progbits
 3312              		.align	1
 3313              		.p2align 4,,15
 3314              		.syntax unified
 3315              		.thumb
 3316              		.thumb_func
 3317              		.fpu fpv4-sp-d16
 3318              		.type	ext_get_ppm, %function
 3319              	ext_get_ppm:
 3320              	.LFB306:
 3321              		.loc 1 104 0
 3322              		.cfi_startproc
 3323              		@ args = 0, pretend = 0, frame = 0
 3324              		@ frame_needed = 0, uses_anonymous_args = 0
 3325              	.LVL376:
 3326 0000 08B5     		push	{r3, lr}
 3327              		.cfi_def_cfa_offset 8
 3328              		.cfi_offset 3, -8
 3329              		.cfi_offset 14, -4
 3330              		.loc 1 106 0
 3331 0002 0020     		movs	r0, #0
 3332              	.LVL377:
 3333 0004 FFF7FEFF 		bl	servodec_get_servo
 3334              	.LVL378:
 3335              	.LBB1007:
 3336              	.LBB1008:
 3337              		.loc 2 507 0
 3338 0008 4FF40C71 		mov	r1, #560
 3339 000c 10EE100A 		vmov	r0, s0	@ int
 3340 0010 FFF7FEFF 		bl	lbm_cons
 3341              	.LVL379:
 3342              	.LBB1009:
 3343              	.LBB1010:
 3344              		.loc 2 461 0
 3345 0014 C307     		lsls	r3, r0, #31
 3346 0016 4CBF     		ite	mi
 3347 0018 00F07C43 		andmi	r3, r0, #-67108864
 3348 001c 00F00C03 		andpl	r3, r0, #12
 3349              	.LBE1010:
 3350              	.LBE1009:
 3351              		.loc 2 508 0
 3352 0020 3BB1     		cbz	r3, .L493
 3353              	.LVL380:
 3354              	.LBB1011:
 3355              	.LBB1012:
 3356              		.loc 2 477 0
 3357 0022 20F07C40 		bic	r0, r0, #-67108864
 3358              	.LVL381:
 3359 0026 20F00700 		bic	r0, r0, #7
 3360 002a 40F08040 		orr	r0, r0, #1073741824
 3361 002e 40F00100 		orr	r0, r0, #1
 3362              	.LVL382:
 3363              	.L493:
ARM GAS  /tmp/ccEbIy6V.s 			page 60


 3364              	.LBE1012:
 3365              	.LBE1011:
 3366              	.LBE1008:
 3367              	.LBE1007:
 3368              		.loc 1 107 0
 3369 0032 08BD     		pop	{r3, pc}
 3370              		.cfi_endproc
 3371              	.LFE306:
 3372              		.size	ext_get_ppm, .-ext_get_ppm
 3373              		.section	.text.ext_get_batt,"ax",%progbits
 3374              		.align	1
 3375              		.p2align 4,,15
 3376              		.syntax unified
 3377              		.thumb
 3378              		.thumb_func
 3379              		.fpu fpv4-sp-d16
 3380              		.type	ext_get_batt, %function
 3381              	ext_get_batt:
 3382              	.LFB334:
 3383              		.loc 1 383 0
 3384              		.cfi_startproc
 3385              		@ args = 0, pretend = 0, frame = 0
 3386              		@ frame_needed = 0, uses_anonymous_args = 0
 3387              	.LVL383:
 3388 0000 08B5     		push	{r3, lr}
 3389              		.cfi_def_cfa_offset 8
 3390              		.cfi_offset 3, -8
 3391              		.cfi_offset 14, -4
 3392              		.loc 1 385 0
 3393 0002 0020     		movs	r0, #0
 3394              	.LVL384:
 3395 0004 FFF7FEFF 		bl	mc_interface_get_battery_level
 3396              	.LVL385:
 3397              	.LBB1019:
 3398              	.LBB1020:
 3399              		.loc 2 507 0
 3400 0008 4FF40C71 		mov	r1, #560
 3401 000c 10EE100A 		vmov	r0, s0	@ int
 3402 0010 FFF7FEFF 		bl	lbm_cons
 3403              	.LVL386:
 3404              	.LBB1021:
 3405              	.LBB1022:
 3406              		.loc 2 461 0
 3407 0014 C307     		lsls	r3, r0, #31
 3408 0016 4CBF     		ite	mi
 3409 0018 00F07C43 		andmi	r3, r0, #-67108864
 3410 001c 00F00C03 		andpl	r3, r0, #12
 3411              	.LBE1022:
 3412              	.LBE1021:
 3413              		.loc 2 508 0
 3414 0020 3BB1     		cbz	r3, .L501
 3415              	.LVL387:
 3416              	.LBB1023:
 3417              	.LBB1024:
 3418              		.loc 2 477 0
 3419 0022 20F07C40 		bic	r0, r0, #-67108864
 3420              	.LVL388:
ARM GAS  /tmp/ccEbIy6V.s 			page 61


 3421 0026 20F00700 		bic	r0, r0, #7
 3422 002a 40F08040 		orr	r0, r0, #1073741824
 3423 002e 40F00100 		orr	r0, r0, #1
 3424              	.LVL389:
 3425              	.L501:
 3426              	.LBE1024:
 3427              	.LBE1023:
 3428              	.LBE1020:
 3429              	.LBE1019:
 3430              		.loc 1 386 0
 3431 0032 08BD     		pop	{r3, pc}
 3432              		.cfi_endproc
 3433              	.LFE334:
 3434              		.size	ext_get_batt, .-ext_get_batt
 3435              		.section	.text.ext_secs_since,"ax",%progbits
 3436              		.align	1
 3437              		.p2align 4,,15
 3438              		.syntax unified
 3439              		.thumb
 3440              		.thumb_func
 3441              		.fpu fpv4-sp-d16
 3442              		.type	ext_secs_since, %function
 3443              	ext_secs_since:
 3444              	.LFB314:
 3445              		.loc 1 251 0
 3446              		.cfi_startproc
 3447              		@ args = 0, pretend = 0, frame = 0
 3448              		@ frame_needed = 0, uses_anonymous_args = 0
 3449              	.LVL390:
 3450              		.loc 1 252 0
 3451 0000 0129     		cmp	r1, #1
 3452 0002 2AD1     		bne	.L513
 3453              		.loc 1 251 0 discriminator 2
 3454 0004 10B5     		push	{r4, lr}
 3455              		.cfi_def_cfa_offset 8
 3456              		.cfi_offset 4, -8
 3457              		.cfi_offset 14, -4
 3458 0006 0446     		mov	r4, r0
 3459              		.loc 1 252 0 discriminator 2
 3460 0008 FFF7FEFF 		bl	is_number_all
 3461              	.LVL391:
 3462 000c 18B3     		cbz	r0, .L514
 3463              	.LVL392:
 3464              	.LBB1039:
 3465              	.LBB1040:
 3466              		.loc 1 253 0
 3467 000e 2068     		ldr	r0, [r4]
 3468 0010 FFF7FEFF 		bl	lbm_dec_as_u
 3469              	.LVL393:
 3470              	.LBB1041:
 3471              	.LBB1042:
 3472              	.LBB1043:
 3473              	.LBB1044:
 3474              		.loc 3 231 0
 3475 0014 124B     		ldr	r3, .L522
 3476              	.LBE1044:
 3477              	.LBE1043:
ARM GAS  /tmp/ccEbIy6V.s 			page 62


 3478              	.LBE1042:
 3479              	.LBE1041:
 3480              		.loc 1 253 0
 3481 0016 9FED137A 		vldr.32	s14, .L522+4
 3482              	.LBB1048:
 3483              	.LBB1047:
 3484              	.LBB1046:
 3485              	.LBB1045:
 3486              		.loc 3 231 0
 3487 001a 9B6A     		ldr	r3, [r3, #40]
 3488              	.LVL394:
 3489              	.LBE1045:
 3490              	.LBE1046:
 3491              		.loc 3 267 0
 3492 001c 181A     		subs	r0, r3, r0
 3493              	.LVL395:
 3494              	.LBE1047:
 3495              	.LBE1048:
 3496              		.loc 1 253 0
 3497 001e 07EE900A 		vmov	s15, r0	@ int
 3498 0022 F8EE677A 		vcvt.f32.u32	s15, s15
 3499              	.LBB1049:
 3500              	.LBB1050:
 3501              		.loc 2 507 0
 3502 0026 4FF40C71 		mov	r1, #560
 3503 002a C7EE877A 		vdiv.f32	s15, s15, s14
 3504              	.LVL396:
 3505 002e 17EE900A 		vmov	r0, s15
 3506 0032 FFF7FEFF 		bl	lbm_cons
 3507              	.LVL397:
 3508              	.LBB1051:
 3509              	.LBB1052:
 3510              		.loc 2 461 0
 3511 0036 C307     		lsls	r3, r0, #31
 3512 0038 4CBF     		ite	mi
 3513 003a 00F07C43 		andmi	r3, r0, #-67108864
 3514 003e 00F00C03 		andpl	r3, r0, #12
 3515              	.LBE1052:
 3516              	.LBE1051:
 3517              		.loc 2 508 0
 3518 0042 3BB1     		cbz	r3, .L509
 3519              	.LVL398:
 3520              	.LBB1053:
 3521              	.LBB1054:
 3522              		.loc 2 477 0
 3523 0044 20F07C40 		bic	r0, r0, #-67108864
 3524              	.LVL399:
 3525 0048 20F00700 		bic	r0, r0, #7
 3526 004c 40F08040 		orr	r0, r0, #1073741824
 3527 0050 40F00100 		orr	r0, r0, #1
 3528              	.LVL400:
 3529              	.L509:
 3530              	.LBE1054:
 3531              	.LBE1053:
 3532              	.LBE1050:
 3533              	.LBE1049:
 3534              	.LBE1040:
ARM GAS  /tmp/ccEbIy6V.s 			page 63


 3535              	.LBE1039:
 3536              		.loc 1 254 0
 3537 0054 10BD     		pop	{r4, pc}
 3538              	.LVL401:
 3539              	.L514:
 3540              		.loc 1 252 0
 3541 0056 9020     		movs	r0, #144
 3542              		.loc 1 254 0
 3543 0058 10BD     		pop	{r4, pc}
 3544              	.LVL402:
 3545              	.L513:
 3546              		.cfi_def_cfa_offset 0
 3547              		.cfi_restore 4
 3548              		.cfi_restore 14
 3549              		.loc 1 252 0
 3550 005a 9020     		movs	r0, #144
 3551              	.LVL403:
 3552              		.loc 1 254 0
 3553 005c 7047     		bx	lr
 3554              	.L523:
 3555 005e 00BF     		.align	2
 3556              	.L522:
 3557 0060 00000000 		.word	ch
 3558 0064 00401C46 		.word	1176256512
 3559              		.cfi_endproc
 3560              	.LFE314:
 3561              		.size	ext_secs_since, .-ext_secs_since
 3562              		.section	.text.ext_atan,"ax",%progbits
 3563              		.align	1
 3564              		.p2align 4,,15
 3565              		.syntax unified
 3566              		.thumb
 3567              		.thumb_func
 3568              		.fpu fpv4-sp-d16
 3569              		.type	ext_atan, %function
 3570              	ext_atan:
 3571              	.LFB350:
 3572              		.loc 1 528 0
 3573              		.cfi_startproc
 3574              		@ args = 0, pretend = 0, frame = 0
 3575              		@ frame_needed = 0, uses_anonymous_args = 0
 3576              	.LVL404:
 3577              		.loc 1 529 0
 3578 0000 0129     		cmp	r1, #1
 3579 0002 21D1     		bne	.L528
 3580              		.loc 1 528 0 discriminator 2
 3581 0004 10B5     		push	{r4, lr}
 3582              		.cfi_def_cfa_offset 8
 3583              		.cfi_offset 4, -8
 3584              		.cfi_offset 14, -4
 3585 0006 0446     		mov	r4, r0
 3586              		.loc 1 529 0 discriminator 2
 3587 0008 FFF7FEFF 		bl	is_number_all
 3588              	.LVL405:
 3589 000c D0B1     		cbz	r0, .L529
 3590              	.LVL406:
 3591              	.LBB1065:
ARM GAS  /tmp/ccEbIy6V.s 			page 64


 3592              	.LBB1066:
 3593              		.loc 1 530 0
 3594 000e 2068     		ldr	r0, [r4]
 3595 0010 FFF7FEFF 		bl	lbm_dec_as_f
 3596              	.LVL407:
 3597 0014 FFF7FEFF 		bl	atanf
 3598              	.LVL408:
 3599              	.LBB1067:
 3600              	.LBB1068:
 3601              		.loc 2 507 0
 3602 0018 4FF40C71 		mov	r1, #560
 3603 001c 10EE100A 		vmov	r0, s0	@ int
 3604 0020 FFF7FEFF 		bl	lbm_cons
 3605              	.LVL409:
 3606              	.LBB1069:
 3607              	.LBB1070:
 3608              		.loc 2 461 0
 3609 0024 C307     		lsls	r3, r0, #31
 3610 0026 4CBF     		ite	mi
 3611 0028 00F07C43 		andmi	r3, r0, #-67108864
 3612 002c 00F00C03 		andpl	r3, r0, #12
 3613              	.LBE1070:
 3614              	.LBE1069:
 3615              		.loc 2 508 0
 3616 0030 3BB1     		cbz	r3, .L524
 3617              	.LVL410:
 3618              	.LBB1071:
 3619              	.LBB1072:
 3620              		.loc 2 477 0
 3621 0032 20F07C40 		bic	r0, r0, #-67108864
 3622              	.LVL411:
 3623 0036 20F00700 		bic	r0, r0, #7
 3624 003a 40F08040 		orr	r0, r0, #1073741824
 3625 003e 40F00100 		orr	r0, r0, #1
 3626              	.LVL412:
 3627              	.L524:
 3628              	.LBE1072:
 3629              	.LBE1071:
 3630              	.LBE1068:
 3631              	.LBE1067:
 3632              	.LBE1066:
 3633              	.LBE1065:
 3634              		.loc 1 531 0
 3635 0042 10BD     		pop	{r4, pc}
 3636              	.LVL413:
 3637              	.L529:
 3638              		.loc 1 529 0
 3639 0044 9020     		movs	r0, #144
 3640              		.loc 1 531 0
 3641 0046 10BD     		pop	{r4, pc}
 3642              	.LVL414:
 3643              	.L528:
 3644              		.cfi_def_cfa_offset 0
 3645              		.cfi_restore 4
 3646              		.cfi_restore 14
 3647              		.loc 1 529 0
 3648 0048 9020     		movs	r0, #144
ARM GAS  /tmp/ccEbIy6V.s 			page 65


 3649              	.LVL415:
 3650              		.loc 1 531 0
 3651 004a 7047     		bx	lr
 3652              		.cfi_endproc
 3653              	.LFE350:
 3654              		.size	ext_atan, .-ext_atan
 3655              		.section	.text.ext_cos,"ax",%progbits
 3656              		.align	1
 3657              		.p2align 4,,15
 3658              		.syntax unified
 3659              		.thumb
 3660              		.thumb_func
 3661              		.fpu fpv4-sp-d16
 3662              		.type	ext_cos, %function
 3663              	ext_cos:
 3664              	.LFB349:
 3665              		.loc 1 523 0
 3666              		.cfi_startproc
 3667              		@ args = 0, pretend = 0, frame = 0
 3668              		@ frame_needed = 0, uses_anonymous_args = 0
 3669              	.LVL416:
 3670              		.loc 1 524 0
 3671 0000 0129     		cmp	r1, #1
 3672 0002 21D1     		bne	.L541
 3673              		.loc 1 523 0 discriminator 2
 3674 0004 10B5     		push	{r4, lr}
 3675              		.cfi_def_cfa_offset 8
 3676              		.cfi_offset 4, -8
 3677              		.cfi_offset 14, -4
 3678 0006 0446     		mov	r4, r0
 3679              		.loc 1 524 0 discriminator 2
 3680 0008 FFF7FEFF 		bl	is_number_all
 3681              	.LVL417:
 3682 000c D0B1     		cbz	r0, .L542
 3683              	.LVL418:
 3684              	.LBB1083:
 3685              	.LBB1084:
 3686              		.loc 1 525 0
 3687 000e 2068     		ldr	r0, [r4]
 3688 0010 FFF7FEFF 		bl	lbm_dec_as_f
 3689              	.LVL419:
 3690 0014 FFF7FEFF 		bl	cosf
 3691              	.LVL420:
 3692              	.LBB1085:
 3693              	.LBB1086:
 3694              		.loc 2 507 0
 3695 0018 4FF40C71 		mov	r1, #560
 3696 001c 10EE100A 		vmov	r0, s0	@ int
 3697 0020 FFF7FEFF 		bl	lbm_cons
 3698              	.LVL421:
 3699              	.LBB1087:
 3700              	.LBB1088:
 3701              		.loc 2 461 0
 3702 0024 C307     		lsls	r3, r0, #31
 3703 0026 4CBF     		ite	mi
 3704 0028 00F07C43 		andmi	r3, r0, #-67108864
 3705 002c 00F00C03 		andpl	r3, r0, #12
ARM GAS  /tmp/ccEbIy6V.s 			page 66


 3706              	.LBE1088:
 3707              	.LBE1087:
 3708              		.loc 2 508 0
 3709 0030 3BB1     		cbz	r3, .L537
 3710              	.LVL422:
 3711              	.LBB1089:
 3712              	.LBB1090:
 3713              		.loc 2 477 0
 3714 0032 20F07C40 		bic	r0, r0, #-67108864
 3715              	.LVL423:
 3716 0036 20F00700 		bic	r0, r0, #7
 3717 003a 40F08040 		orr	r0, r0, #1073741824
 3718 003e 40F00100 		orr	r0, r0, #1
 3719              	.LVL424:
 3720              	.L537:
 3721              	.LBE1090:
 3722              	.LBE1089:
 3723              	.LBE1086:
 3724              	.LBE1085:
 3725              	.LBE1084:
 3726              	.LBE1083:
 3727              		.loc 1 526 0
 3728 0042 10BD     		pop	{r4, pc}
 3729              	.LVL425:
 3730              	.L542:
 3731              		.loc 1 524 0
 3732 0044 9020     		movs	r0, #144
 3733              		.loc 1 526 0
 3734 0046 10BD     		pop	{r4, pc}
 3735              	.LVL426:
 3736              	.L541:
 3737              		.cfi_def_cfa_offset 0
 3738              		.cfi_restore 4
 3739              		.cfi_restore 14
 3740              		.loc 1 524 0
 3741 0048 9020     		movs	r0, #144
 3742              	.LVL427:
 3743              		.loc 1 526 0
 3744 004a 7047     		bx	lr
 3745              		.cfi_endproc
 3746              	.LFE349:
 3747              		.size	ext_cos, .-ext_cos
 3748              		.section	.text.ext_sin,"ax",%progbits
 3749              		.align	1
 3750              		.p2align 4,,15
 3751              		.syntax unified
 3752              		.thumb
 3753              		.thumb_func
 3754              		.fpu fpv4-sp-d16
 3755              		.type	ext_sin, %function
 3756              	ext_sin:
 3757              	.LFB348:
 3758              		.loc 1 518 0
 3759              		.cfi_startproc
 3760              		@ args = 0, pretend = 0, frame = 0
 3761              		@ frame_needed = 0, uses_anonymous_args = 0
 3762              	.LVL428:
ARM GAS  /tmp/ccEbIy6V.s 			page 67


 3763              		.loc 1 519 0
 3764 0000 0129     		cmp	r1, #1
 3765 0002 21D1     		bne	.L554
 3766              		.loc 1 518 0 discriminator 2
 3767 0004 10B5     		push	{r4, lr}
 3768              		.cfi_def_cfa_offset 8
 3769              		.cfi_offset 4, -8
 3770              		.cfi_offset 14, -4
 3771 0006 0446     		mov	r4, r0
 3772              		.loc 1 519 0 discriminator 2
 3773 0008 FFF7FEFF 		bl	is_number_all
 3774              	.LVL429:
 3775 000c D0B1     		cbz	r0, .L555
 3776              	.LVL430:
 3777              	.LBB1101:
 3778              	.LBB1102:
 3779              		.loc 1 520 0
 3780 000e 2068     		ldr	r0, [r4]
 3781 0010 FFF7FEFF 		bl	lbm_dec_as_f
 3782              	.LVL431:
 3783 0014 FFF7FEFF 		bl	sinf
 3784              	.LVL432:
 3785              	.LBB1103:
 3786              	.LBB1104:
 3787              		.loc 2 507 0
 3788 0018 4FF40C71 		mov	r1, #560
 3789 001c 10EE100A 		vmov	r0, s0	@ int
 3790 0020 FFF7FEFF 		bl	lbm_cons
 3791              	.LVL433:
 3792              	.LBB1105:
 3793              	.LBB1106:
 3794              		.loc 2 461 0
 3795 0024 C307     		lsls	r3, r0, #31
 3796 0026 4CBF     		ite	mi
 3797 0028 00F07C43 		andmi	r3, r0, #-67108864
 3798 002c 00F00C03 		andpl	r3, r0, #12
 3799              	.LBE1106:
 3800              	.LBE1105:
 3801              		.loc 2 508 0
 3802 0030 3BB1     		cbz	r3, .L550
 3803              	.LVL434:
 3804              	.LBB1107:
 3805              	.LBB1108:
 3806              		.loc 2 477 0
 3807 0032 20F07C40 		bic	r0, r0, #-67108864
 3808              	.LVL435:
 3809 0036 20F00700 		bic	r0, r0, #7
 3810 003a 40F08040 		orr	r0, r0, #1073741824
 3811 003e 40F00100 		orr	r0, r0, #1
 3812              	.LVL436:
 3813              	.L550:
 3814              	.LBE1108:
 3815              	.LBE1107:
 3816              	.LBE1104:
 3817              	.LBE1103:
 3818              	.LBE1102:
 3819              	.LBE1101:
ARM GAS  /tmp/ccEbIy6V.s 			page 68


 3820              		.loc 1 521 0
 3821 0042 10BD     		pop	{r4, pc}
 3822              	.LVL437:
 3823              	.L555:
 3824              		.loc 1 519 0
 3825 0044 9020     		movs	r0, #144
 3826              		.loc 1 521 0
 3827 0046 10BD     		pop	{r4, pc}
 3828              	.LVL438:
 3829              	.L554:
 3830              		.cfi_def_cfa_offset 0
 3831              		.cfi_restore 4
 3832              		.cfi_restore 14
 3833              		.loc 1 519 0
 3834 0048 9020     		movs	r0, #144
 3835              	.LVL439:
 3836              		.loc 1 521 0
 3837 004a 7047     		bx	lr
 3838              		.cfi_endproc
 3839              	.LFE348:
 3840              		.size	ext_sin, .-ext_sin
 3841              		.section	.text.ext_atan2,"ax",%progbits
 3842              		.align	1
 3843              		.p2align 4,,15
 3844              		.syntax unified
 3845              		.thumb
 3846              		.thumb_func
 3847              		.fpu fpv4-sp-d16
 3848              		.type	ext_atan2, %function
 3849              	ext_atan2:
 3850              	.LFB351:
 3851              		.loc 1 533 0
 3852              		.cfi_startproc
 3853              		@ args = 0, pretend = 0, frame = 0
 3854              		@ frame_needed = 0, uses_anonymous_args = 0
 3855              	.LVL440:
 3856              		.loc 1 534 0
 3857 0000 0229     		cmp	r1, #2
 3858 0002 30D1     		bne	.L567
 3859              		.loc 1 533 0 discriminator 2
 3860 0004 10B5     		push	{r4, lr}
 3861              		.cfi_def_cfa_offset 8
 3862              		.cfi_offset 4, -8
 3863              		.cfi_offset 14, -4
 3864 0006 2DED028B 		vpush.64	{d8}
 3865              		.cfi_def_cfa_offset 16
 3866              		.cfi_offset 80, -16
 3867              		.cfi_offset 81, -12
 3868 000a 0446     		mov	r4, r0
 3869              		.loc 1 534 0 discriminator 2
 3870 000c FFF7FEFF 		bl	is_number_all
 3871              	.LVL441:
 3872 0010 28B3     		cbz	r0, .L568
 3873              	.LVL442:
 3874              	.LBB1119:
 3875              	.LBB1120:
 3876              		.loc 1 535 0
ARM GAS  /tmp/ccEbIy6V.s 			page 69


 3877 0012 2068     		ldr	r0, [r4]
 3878 0014 FFF7FEFF 		bl	lbm_dec_as_f
 3879              	.LVL443:
 3880 0018 6068     		ldr	r0, [r4, #4]
 3881 001a B0EE408A 		vmov.f32	s16, s0
 3882 001e FFF7FEFF 		bl	lbm_dec_as_f
 3883              	.LVL444:
 3884 0022 F0EE400A 		vmov.f32	s1, s0
 3885 0026 B0EE480A 		vmov.f32	s0, s16
 3886 002a FFF7FEFF 		bl	atan2f
 3887              	.LVL445:
 3888              	.LBB1121:
 3889              	.LBB1122:
 3890              		.loc 2 507 0
 3891 002e 4FF40C71 		mov	r1, #560
 3892 0032 10EE100A 		vmov	r0, s0	@ int
 3893 0036 FFF7FEFF 		bl	lbm_cons
 3894              	.LVL446:
 3895              	.LBB1123:
 3896              	.LBB1124:
 3897              		.loc 2 461 0
 3898 003a C307     		lsls	r3, r0, #31
 3899 003c 4CBF     		ite	mi
 3900 003e 00F07C43 		andmi	r3, r0, #-67108864
 3901 0042 00F00C03 		andpl	r3, r0, #12
 3902              	.LBE1124:
 3903              	.LBE1123:
 3904              		.loc 2 508 0
 3905 0046 5BB1     		cbz	r3, .L563
 3906              	.LVL447:
 3907              	.LBE1122:
 3908              	.LBE1121:
 3909              	.LBE1120:
 3910              	.LBE1119:
 3911              		.loc 1 536 0
 3912 0048 BDEC028B 		vldm	sp!, {d8}
 3913              		.cfi_remember_state
 3914              		.cfi_restore 80
 3915              		.cfi_restore 81
 3916              		.cfi_def_cfa_offset 8
 3917              	.LBB1130:
 3918              	.LBB1129:
 3919              	.LBB1128:
 3920              	.LBB1127:
 3921              	.LBB1125:
 3922              	.LBB1126:
 3923              		.loc 2 477 0
 3924 004c 20F07C40 		bic	r0, r0, #-67108864
 3925              	.LVL448:
 3926 0050 20F00700 		bic	r0, r0, #7
 3927 0054 40F08040 		orr	r0, r0, #1073741824
 3928 0058 40F00100 		orr	r0, r0, #1
 3929              	.LVL449:
 3930              	.LBE1126:
 3931              	.LBE1125:
 3932              	.LBE1127:
 3933              	.LBE1128:
ARM GAS  /tmp/ccEbIy6V.s 			page 70


 3934              	.LBE1129:
 3935              	.LBE1130:
 3936              		.loc 1 536 0
 3937 005c 10BD     		pop	{r4, pc}
 3938              	.LVL450:
 3939              	.L568:
 3940              		.cfi_restore_state
 3941              		.loc 1 534 0
 3942 005e 9020     		movs	r0, #144
 3943              	.LVL451:
 3944              	.L563:
 3945              		.loc 1 536 0
 3946 0060 BDEC028B 		vldm	sp!, {d8}
 3947              		.cfi_restore 80
 3948              		.cfi_restore 81
 3949              		.cfi_def_cfa_offset 8
 3950 0064 10BD     		pop	{r4, pc}
 3951              	.LVL452:
 3952              	.L567:
 3953              		.cfi_def_cfa_offset 0
 3954              		.cfi_restore 4
 3955              		.cfi_restore 14
 3956              		.loc 1 534 0
 3957 0066 9020     		movs	r0, #144
 3958              	.LVL453:
 3959              		.loc 1 536 0
 3960 0068 7047     		bx	lr
 3961              		.cfi_endproc
 3962              	.LFE351:
 3963              		.size	ext_atan2, .-ext_atan2
 3964 006a 00BF     		.section	.text.ext_pow,"ax",%progbits
 3965              		.align	1
 3966              		.p2align 4,,15
 3967              		.syntax unified
 3968              		.thumb
 3969              		.thumb_func
 3970              		.fpu fpv4-sp-d16
 3971              		.type	ext_pow, %function
 3972              	ext_pow:
 3973              	.LFB352:
 3974              		.loc 1 538 0
 3975              		.cfi_startproc
 3976              		@ args = 0, pretend = 0, frame = 0
 3977              		@ frame_needed = 0, uses_anonymous_args = 0
 3978              	.LVL454:
 3979              		.loc 1 539 0
 3980 0000 0229     		cmp	r1, #2
 3981 0002 30D1     		bne	.L580
 3982              		.loc 1 538 0 discriminator 2
 3983 0004 10B5     		push	{r4, lr}
 3984              		.cfi_def_cfa_offset 8
 3985              		.cfi_offset 4, -8
 3986              		.cfi_offset 14, -4
 3987 0006 2DED028B 		vpush.64	{d8}
 3988              		.cfi_def_cfa_offset 16
 3989              		.cfi_offset 80, -16
 3990              		.cfi_offset 81, -12
ARM GAS  /tmp/ccEbIy6V.s 			page 71


 3991 000a 0446     		mov	r4, r0
 3992              		.loc 1 539 0 discriminator 2
 3993 000c FFF7FEFF 		bl	is_number_all
 3994              	.LVL455:
 3995 0010 28B3     		cbz	r0, .L581
 3996              	.LVL456:
 3997              	.LBB1141:
 3998              	.LBB1142:
 3999              		.loc 1 540 0
 4000 0012 2068     		ldr	r0, [r4]
 4001 0014 FFF7FEFF 		bl	lbm_dec_as_f
 4002              	.LVL457:
 4003 0018 6068     		ldr	r0, [r4, #4]
 4004 001a B0EE408A 		vmov.f32	s16, s0
 4005 001e FFF7FEFF 		bl	lbm_dec_as_f
 4006              	.LVL458:
 4007 0022 F0EE400A 		vmov.f32	s1, s0
 4008 0026 B0EE480A 		vmov.f32	s0, s16
 4009 002a FFF7FEFF 		bl	powf
 4010              	.LVL459:
 4011              	.LBB1143:
 4012              	.LBB1144:
 4013              		.loc 2 507 0
 4014 002e 4FF40C71 		mov	r1, #560
 4015 0032 10EE100A 		vmov	r0, s0	@ int
 4016 0036 FFF7FEFF 		bl	lbm_cons
 4017              	.LVL460:
 4018              	.LBB1145:
 4019              	.LBB1146:
 4020              		.loc 2 461 0
 4021 003a C307     		lsls	r3, r0, #31
 4022 003c 4CBF     		ite	mi
 4023 003e 00F07C43 		andmi	r3, r0, #-67108864
 4024 0042 00F00C03 		andpl	r3, r0, #12
 4025              	.LBE1146:
 4026              	.LBE1145:
 4027              		.loc 2 508 0
 4028 0046 5BB1     		cbz	r3, .L576
 4029              	.LVL461:
 4030              	.LBE1144:
 4031              	.LBE1143:
 4032              	.LBE1142:
 4033              	.LBE1141:
 4034              		.loc 1 541 0
 4035 0048 BDEC028B 		vldm	sp!, {d8}
 4036              		.cfi_remember_state
 4037              		.cfi_restore 80
 4038              		.cfi_restore 81
 4039              		.cfi_def_cfa_offset 8
 4040              	.LBB1152:
 4041              	.LBB1151:
 4042              	.LBB1150:
 4043              	.LBB1149:
 4044              	.LBB1147:
 4045              	.LBB1148:
 4046              		.loc 2 477 0
 4047 004c 20F07C40 		bic	r0, r0, #-67108864
ARM GAS  /tmp/ccEbIy6V.s 			page 72


 4048              	.LVL462:
 4049 0050 20F00700 		bic	r0, r0, #7
 4050 0054 40F08040 		orr	r0, r0, #1073741824
 4051 0058 40F00100 		orr	r0, r0, #1
 4052              	.LVL463:
 4053              	.LBE1148:
 4054              	.LBE1147:
 4055              	.LBE1149:
 4056              	.LBE1150:
 4057              	.LBE1151:
 4058              	.LBE1152:
 4059              		.loc 1 541 0
 4060 005c 10BD     		pop	{r4, pc}
 4061              	.LVL464:
 4062              	.L581:
 4063              		.cfi_restore_state
 4064              		.loc 1 539 0
 4065 005e 9020     		movs	r0, #144
 4066              	.LVL465:
 4067              	.L576:
 4068              		.loc 1 541 0
 4069 0060 BDEC028B 		vldm	sp!, {d8}
 4070              		.cfi_restore 80
 4071              		.cfi_restore 81
 4072              		.cfi_def_cfa_offset 8
 4073 0064 10BD     		pop	{r4, pc}
 4074              	.LVL466:
 4075              	.L580:
 4076              		.cfi_def_cfa_offset 0
 4077              		.cfi_restore 4
 4078              		.cfi_restore 14
 4079              		.loc 1 539 0
 4080 0066 9020     		movs	r0, #144
 4081              	.LVL467:
 4082              		.loc 1 541 0
 4083 0068 7047     		bx	lr
 4084              		.cfi_endproc
 4085              	.LFE352:
 4086              		.size	ext_pow, .-ext_pow
 4087 006a 00BF     		.section	.text.ext_can_get_current_dir,"ax",%progbits
 4088              		.align	1
 4089              		.p2align 4,,15
 4090              		.syntax unified
 4091              		.thumb
 4092              		.thumb_func
 4093              		.fpu fpv4-sp-d16
 4094              		.type	ext_can_get_current_dir, %function
 4095              	ext_can_get_current_dir:
 4096              	.LFB344:
 4097              		.loc 1 463 0
 4098              		.cfi_startproc
 4099              		@ args = 0, pretend = 0, frame = 0
 4100              		@ frame_needed = 0, uses_anonymous_args = 0
 4101              	.LVL468:
 4102              		.loc 1 464 0
 4103 0000 0129     		cmp	r1, #1
 4104 0002 2AD1     		bne	.L610
ARM GAS  /tmp/ccEbIy6V.s 			page 73


 4105              		.loc 1 463 0 discriminator 2
 4106 0004 10B5     		push	{r4, lr}
 4107              		.cfi_def_cfa_offset 8
 4108              		.cfi_offset 4, -8
 4109              		.cfi_offset 14, -4
 4110 0006 0446     		mov	r4, r0
 4111              		.loc 1 464 0 discriminator 2
 4112 0008 FFF7FEFF 		bl	is_number_all
 4113              	.LVL469:
 4114 000c 18B3     		cbz	r0, .L592
 4115              	.LVL470:
 4116              	.LBB1165:
 4117              	.LBB1166:
 4118              		.loc 1 465 0
 4119 000e 2068     		ldr	r0, [r4]
 4120 0010 FFF7FEFF 		bl	lbm_dec_as_i
 4121              	.LVL471:
 4122 0014 FFF7FEFF 		bl	comm_can_get_status_msg_id
 4123              	.LVL472:
 4124              		.loc 1 466 0
 4125 0018 E8B1     		cbz	r0, .L592
 4126              		.loc 1 467 0
 4127 001a D0ED047A 		vldr.32	s15, [r0, #16]
 4128 001e C068     		ldr	r0, [r0, #12]	@ float
 4129              	.LVL473:
 4130 0020 F5EEC07A 		vcmpe.f32	s15, #0
 4131 0024 F1EE10FA 		vmrs	APSR_nzcv, FPSCR
 4132 0028 48BF     		it	mi
 4133 002a 80F00040 		eormi	r0, r0, #-2147483648
 4134              	.LVL474:
 4135              	.LBB1167:
 4136              	.LBB1168:
 4137              		.loc 2 507 0
 4138 002e 4FF40C71 		mov	r1, #560
 4139 0032 FFF7FEFF 		bl	lbm_cons
 4140              	.LVL475:
 4141              	.LBB1169:
 4142              	.LBB1170:
 4143              		.loc 2 461 0
 4144 0036 C307     		lsls	r3, r0, #31
 4145 0038 4CBF     		ite	mi
 4146 003a 00F07C43 		andmi	r3, r0, #-67108864
 4147 003e 00F00C03 		andpl	r3, r0, #12
 4148              	.LBE1170:
 4149              	.LBE1169:
 4150              		.loc 2 508 0
 4151 0042 3BB1     		cbz	r3, .L589
 4152              	.LVL476:
 4153              	.LBB1171:
 4154              	.LBB1172:
 4155              		.loc 2 477 0
 4156 0044 20F07C40 		bic	r0, r0, #-67108864
 4157              	.LVL477:
 4158 0048 20F00700 		bic	r0, r0, #7
 4159 004c 40F08040 		orr	r0, r0, #1073741824
 4160 0050 40F00100 		orr	r0, r0, #1
 4161              	.LVL478:
ARM GAS  /tmp/ccEbIy6V.s 			page 74


 4162              	.L589:
 4163              	.LBE1172:
 4164              	.LBE1171:
 4165              	.LBE1168:
 4166              	.LBE1167:
 4167              	.LBE1166:
 4168              	.LBE1165:
 4169              		.loc 1 471 0
 4170 0054 10BD     		pop	{r4, pc}
 4171              	.LVL479:
 4172              	.L592:
 4173              		.loc 1 464 0
 4174 0056 9020     		movs	r0, #144
 4175              		.loc 1 471 0
 4176 0058 10BD     		pop	{r4, pc}
 4177              	.LVL480:
 4178              	.L610:
 4179              		.cfi_def_cfa_offset 0
 4180              		.cfi_restore 4
 4181              		.cfi_restore 14
 4182              		.loc 1 464 0
 4183 005a 9020     		movs	r0, #144
 4184              	.LVL481:
 4185              		.loc 1 471 0
 4186 005c 7047     		bx	lr
 4187              		.cfi_endproc
 4188              	.LFE344:
 4189              		.size	ext_can_get_current_dir, .-ext_can_get_current_dir
 4190 005e 00BF     		.section	.text.ext_can_get_current,"ax",%progbits
 4191              		.align	1
 4192              		.p2align 4,,15
 4193              		.syntax unified
 4194              		.thumb
 4195              		.thumb_func
 4196              		.fpu fpv4-sp-d16
 4197              		.type	ext_can_get_current, %function
 4198              	ext_can_get_current:
 4199              	.LFB343:
 4200              		.loc 1 453 0
 4201              		.cfi_startproc
 4202              		@ args = 0, pretend = 0, frame = 0
 4203              		@ frame_needed = 0, uses_anonymous_args = 0
 4204              	.LVL482:
 4205              		.loc 1 454 0
 4206 0000 0129     		cmp	r1, #1
 4207 0002 21D1     		bne	.L629
 4208              		.loc 1 453 0 discriminator 2
 4209 0004 10B5     		push	{r4, lr}
 4210              		.cfi_def_cfa_offset 8
 4211              		.cfi_offset 4, -8
 4212              		.cfi_offset 14, -4
 4213 0006 0446     		mov	r4, r0
 4214              		.loc 1 454 0 discriminator 2
 4215 0008 FFF7FEFF 		bl	is_number_all
 4216              	.LVL483:
 4217 000c D0B1     		cbz	r0, .L614
 4218              	.LVL484:
ARM GAS  /tmp/ccEbIy6V.s 			page 75


 4219              	.LBB1185:
 4220              	.LBB1186:
 4221              		.loc 1 455 0
 4222 000e 2068     		ldr	r0, [r4]
 4223 0010 FFF7FEFF 		bl	lbm_dec_as_i
 4224              	.LVL485:
 4225 0014 FFF7FEFF 		bl	comm_can_get_status_msg_id
 4226              	.LVL486:
 4227              		.loc 1 456 0
 4228 0018 A0B1     		cbz	r0, .L614
 4229              	.LVL487:
 4230              	.LBB1187:
 4231              	.LBB1188:
 4232              		.loc 2 507 0
 4233 001a C068     		ldr	r0, [r0, #12]
 4234              	.LVL488:
 4235 001c 4FF40C71 		mov	r1, #560
 4236 0020 FFF7FEFF 		bl	lbm_cons
 4237              	.LVL489:
 4238              	.LBB1189:
 4239              	.LBB1190:
 4240              		.loc 2 461 0
 4241 0024 C307     		lsls	r3, r0, #31
 4242 0026 4CBF     		ite	mi
 4243 0028 00F07C43 		andmi	r3, r0, #-67108864
 4244 002c 00F00C03 		andpl	r3, r0, #12
 4245              	.LBE1190:
 4246              	.LBE1189:
 4247              		.loc 2 508 0
 4248 0030 3BB1     		cbz	r3, .L611
 4249              	.LVL490:
 4250              	.LBB1191:
 4251              	.LBB1192:
 4252              		.loc 2 477 0
 4253 0032 20F07C40 		bic	r0, r0, #-67108864
 4254              	.LVL491:
 4255 0036 20F00700 		bic	r0, r0, #7
 4256 003a 40F08040 		orr	r0, r0, #1073741824
 4257 003e 40F00100 		orr	r0, r0, #1
 4258              	.LVL492:
 4259              	.L611:
 4260              	.LBE1192:
 4261              	.LBE1191:
 4262              	.LBE1188:
 4263              	.LBE1187:
 4264              	.LBE1186:
 4265              	.LBE1185:
 4266              		.loc 1 461 0
 4267 0042 10BD     		pop	{r4, pc}
 4268              	.LVL493:
 4269              	.L614:
 4270              		.loc 1 454 0
 4271 0044 9020     		movs	r0, #144
 4272              		.loc 1 461 0
 4273 0046 10BD     		pop	{r4, pc}
 4274              	.LVL494:
 4275              	.L629:
ARM GAS  /tmp/ccEbIy6V.s 			page 76


 4276              		.cfi_def_cfa_offset 0
 4277              		.cfi_restore 4
 4278              		.cfi_restore 14
 4279              		.loc 1 454 0
 4280 0048 9020     		movs	r0, #144
 4281              	.LVL495:
 4282              		.loc 1 461 0
 4283 004a 7047     		bx	lr
 4284              		.cfi_endproc
 4285              	.LFE343:
 4286              		.size	ext_can_get_current, .-ext_can_get_current
 4287              		.section	.text.ext_get_adc,"ax",%progbits
 4288              		.align	1
 4289              		.p2align 4,,15
 4290              		.syntax unified
 4291              		.thumb
 4292              		.thumb_func
 4293              		.fpu fpv4-sp-d16
 4294              		.type	ext_get_adc, %function
 4295              	ext_get_adc:
 4296              	.LFB312:
 4297              		.loc 1 227 0
 4298              		.cfi_startproc
 4299              		@ args = 0, pretend = 0, frame = 0
 4300              		@ frame_needed = 0, uses_anonymous_args = 0
 4301              	.LVL496:
 4302 0000 38B5     		push	{r3, r4, r5, lr}
 4303              		.cfi_def_cfa_offset 16
 4304              		.cfi_offset 3, -16
 4305              		.cfi_offset 4, -12
 4306              		.cfi_offset 5, -8
 4307              		.cfi_offset 14, -4
 4308              		.loc 1 227 0
 4309 0002 0546     		mov	r5, r0
 4310              		.loc 1 228 0
 4311 0004 FFF7FEFF 		bl	is_number_all
 4312              	.LVL497:
 4313 0008 10B1     		cbz	r0, .L636
 4314              		.loc 1 230 0
 4315 000a 19B1     		cbz	r1, .L657
 4316              		.loc 1 232 0
 4317 000c 0129     		cmp	r1, #1
 4318 000e 22D0     		beq	.L658
 4319              	.LVL498:
 4320              	.L636:
 4321              		.loc 1 228 0
 4322 0010 9020     		movs	r0, #144
 4323              	.L630:
 4324              		.loc 1 244 0
 4325 0012 38BD     		pop	{r3, r4, r5, pc}
 4326              	.LVL499:
 4327              	.L657:
 4328              	.LBB1221:
 4329              		.loc 1 235 0
 4330 0014 164B     		ldr	r3, .L659
 4331 0016 9FED177A 		vldr.32	s14, .L659+4
 4332 001a 9B89     		ldrh	r3, [r3, #12]
ARM GAS  /tmp/ccEbIy6V.s 			page 77


 4333              	.L655:
 4334              	.LBE1221:
 4335              	.LBB1222:
 4336              	.LBB1223:
 4337              		.loc 1 237 0
 4338 001c 07EE903A 		vmov	s15, r3	@ int
 4339              	.LVL500:
 4340 0020 FBEECA7A 		vcvt.f32.u32	s15, s15, #12
 4341              	.LBB1224:
 4342              	.LBB1225:
 4343              		.loc 2 507 0
 4344 0024 4FF40C71 		mov	r1, #560
 4345 0028 67EE877A 		vmul.f32	s15, s15, s14
 4346 002c 17EE900A 		vmov	r0, s15
 4347 0030 FFF7FEFF 		bl	lbm_cons
 4348              	.LVL501:
 4349              	.LBB1226:
 4350              	.LBB1227:
 4351              		.loc 2 461 0
 4352 0034 C307     		lsls	r3, r0, #31
 4353 0036 4CBF     		ite	mi
 4354 0038 00F07C43 		andmi	r3, r0, #-67108864
 4355 003c 00F00C03 		andpl	r3, r0, #12
 4356              	.LBE1227:
 4357              	.LBE1226:
 4358              		.loc 2 508 0
 4359 0040 002B     		cmp	r3, #0
 4360 0042 E6D0     		beq	.L630
 4361              	.LVL502:
 4362              	.LBB1228:
 4363              	.LBB1229:
 4364              		.loc 2 477 0
 4365 0044 20F07C40 		bic	r0, r0, #-67108864
 4366              	.LVL503:
 4367 0048 20F00700 		bic	r0, r0, #7
 4368 004c 40F08040 		orr	r0, r0, #1073741824
 4369 0050 40F00100 		orr	r0, r0, #1
 4370              	.LVL504:
 4371              	.LBE1229:
 4372              	.LBE1228:
 4373              	.LBE1225:
 4374              	.LBE1224:
 4375              	.LBE1223:
 4376              	.LBE1222:
 4377              		.loc 1 244 0
 4378 0054 38BD     		pop	{r3, r4, r5, pc}
 4379              	.LVL505:
 4380              	.L658:
 4381              	.LBB1231:
 4382              		.loc 1 233 0
 4383 0056 2868     		ldr	r0, [r5]
 4384 0058 FFF7FEFF 		bl	lbm_dec_as_i
 4385              	.LVL506:
 4386              		.loc 1 234 0
 4387 005c 0028     		cmp	r0, #0
 4388 005e D9D0     		beq	.L657
 4389              		.loc 1 236 0
ARM GAS  /tmp/ccEbIy6V.s 			page 78


 4390 0060 0128     		cmp	r0, #1
 4391 0062 D5D1     		bne	.L636
 4392              	.LVL507:
 4393              	.LBE1231:
 4394              	.LBB1232:
 4395              	.LBB1230:
 4396              		.loc 1 237 0
 4397 0064 024B     		ldr	r3, .L659
 4398 0066 9FED037A 		vldr.32	s14, .L659+4
 4399 006a DB89     		ldrh	r3, [r3, #14]
 4400 006c D6E7     		b	.L655
 4401              	.L660:
 4402 006e 00BF     		.align	2
 4403              	.L659:
 4404 0070 00000000 		.word	ADC_Value
 4405 0074 33335340 		.word	1079194419
 4406              	.LBE1230:
 4407              	.LBE1232:
 4408              		.cfi_endproc
 4409              	.LFE312:
 4410              		.size	ext_get_adc, .-ext_get_adc
 4411              		.section	.text.ext_get_bms_val,"ax",%progbits
 4412              		.align	1
 4413              		.p2align 4,,15
 4414              		.syntax unified
 4415              		.thumb
 4416              		.thumb_func
 4417              		.fpu fpv4-sp-d16
 4418              		.type	ext_get_bms_val, %function
 4419              	ext_get_bms_val:
 4420              	.LFB311:
 4421              		.loc 1 134 0
 4422              		.cfi_startproc
 4423              		@ args = 0, pretend = 0, frame = 0
 4424              		@ frame_needed = 0, uses_anonymous_args = 0
 4425              	.LVL508:
 4426 0000 F8B5     		push	{r3, r4, r5, r6, r7, lr}
 4427              		.cfi_def_cfa_offset 24
 4428              		.cfi_offset 3, -24
 4429              		.cfi_offset 4, -20
 4430              		.cfi_offset 5, -16
 4431              		.cfi_offset 6, -12
 4432              		.cfi_offset 7, -8
 4433              		.cfi_offset 14, -4
 4434              		.loc 1 137 0
 4435 0002 4B1E     		subs	r3, r1, #1
 4436 0004 012B     		cmp	r3, #1
 4437 0006 01D9     		bls	.L662
 4438              	.LVL509:
 4439              	.L664:
 4440              		.loc 1 138 0
 4441 0008 9020     		movs	r0, #144
 4442              	.L661:
 4443              		.loc 1 225 0
 4444 000a F8BD     		pop	{r3, r4, r5, r6, r7, pc}
 4445              	.LVL510:
 4446              	.L662:
ARM GAS  /tmp/ccEbIy6V.s 			page 79


 4447 000c 0546     		mov	r5, r0
 4448              	.LBB1316:
 4449              	.LBB1317:
 4450              		.loc 1 141 0
 4451 000e 0068     		ldr	r0, [r0]
 4452              	.LVL511:
 4453 0010 0C46     		mov	r4, r1
 4454              	.LVL512:
 4455 0012 FFF7FEFF 		bl	lbm_dec_str
 4456              	.LVL513:
 4457              		.loc 1 143 0
 4458 0016 0646     		mov	r6, r0
 4459 0018 0028     		cmp	r0, #0
 4460 001a F5D0     		beq	.L664
 4461              		.loc 1 147 0
 4462 001c FFF7FEFF 		bl	bms_get_values
 4463              	.LVL514:
 4464              		.loc 1 149 0
 4465 0020 BF49     		ldr	r1, .L795
 4466              		.loc 1 147 0
 4467 0022 0746     		mov	r7, r0
 4468              	.LVL515:
 4469              		.loc 1 149 0
 4470 0024 3046     		mov	r0, r6
 4471              	.LVL516:
 4472 0026 FFF7FEFF 		bl	strcmp
 4473              	.LVL517:
 4474 002a 0028     		cmp	r0, #0
 4475 002c 4FD0     		beq	.L776
 4476              		.loc 1 151 0
 4477 002e BD49     		ldr	r1, .L795+4
 4478 0030 3046     		mov	r0, r6
 4479 0032 FFF7FEFF 		bl	strcmp
 4480              	.LVL518:
 4481 0036 0028     		cmp	r0, #0
 4482 0038 67D0     		beq	.L777
 4483              		.loc 1 153 0
 4484 003a BB49     		ldr	r1, .L795+8
 4485 003c 3046     		mov	r0, r6
 4486 003e FFF7FEFF 		bl	strcmp
 4487              	.LVL519:
 4488 0042 0028     		cmp	r0, #0
 4489 0044 71D0     		beq	.L778
 4490              		.loc 1 155 0
 4491 0046 B949     		ldr	r1, .L795+12
 4492 0048 3046     		mov	r0, r6
 4493 004a FFF7FEFF 		bl	strcmp
 4494              	.LVL520:
 4495 004e 0028     		cmp	r0, #0
 4496 0050 73D0     		beq	.L779
 4497              		.loc 1 157 0
 4498 0052 B749     		ldr	r1, .L795+16
 4499 0054 3046     		mov	r0, r6
 4500 0056 FFF7FEFF 		bl	strcmp
 4501              	.LVL521:
 4502 005a 0028     		cmp	r0, #0
 4503 005c 5DD0     		beq	.L780
ARM GAS  /tmp/ccEbIy6V.s 			page 80


 4504              		.loc 1 159 0
 4505 005e B549     		ldr	r1, .L795+20
 4506 0060 3046     		mov	r0, r6
 4507 0062 FFF7FEFF 		bl	strcmp
 4508              	.LVL522:
 4509 0066 0028     		cmp	r0, #0
 4510 0068 45D0     		beq	.L781
 4511              		.loc 1 161 0
 4512 006a B349     		ldr	r1, .L795+24
 4513 006c 3046     		mov	r0, r6
 4514 006e FFF7FEFF 		bl	strcmp
 4515              	.LVL523:
 4516 0072 0028     		cmp	r0, #0
 4517 0074 69D0     		beq	.L782
 4518              		.loc 1 163 0
 4519 0076 B149     		ldr	r1, .L795+28
 4520 0078 3046     		mov	r0, r6
 4521 007a FFF7FEFF 		bl	strcmp
 4522              	.LVL524:
 4523 007e 0028     		cmp	r0, #0
 4524 0080 68D1     		bne	.L684
 4525              	.LBB1318:
 4526              		.loc 1 164 0
 4527 0082 022C     		cmp	r4, #2
 4528 0084 C0D1     		bne	.L664
 4529 0086 6868     		ldr	r0, [r5, #4]
 4530              	.LVL525:
 4531              	.LBB1319:
 4532              	.LBB1320:
 4533              	.LBB1321:
 4534              	.LBB1322:
 4535              		.loc 2 461 0
 4536 0088 C107     		lsls	r1, r0, #31
 4537 008a 4CBF     		ite	mi
 4538 008c 00F07C43 		andmi	r3, r0, #-67108864
 4539 0090 00F00C03 		andpl	r3, r0, #12
 4540              	.LVL526:
 4541              	.LBE1322:
 4542              	.LBE1321:
 4543              		.loc 2 561 0
 4544 0094 082B     		cmp	r3, #8
 4545 0096 0BD0     		beq	.L687
 4546              		.loc 2 562 0
 4547 0098 23F00802 		bic	r2, r3, #8
 4548 009c 042A     		cmp	r2, #4
 4549 009e 07D0     		beq	.L687
 4550              		.loc 2 564 0
 4551 00a0 23F08052 		bic	r2, r3, #268435456
 4552 00a4 B2F1005F 		cmp	r2, #536870912
 4553 00a8 02D0     		beq	.L687
 4554              		.loc 2 565 0
 4555 00aa B3F1804F 		cmp	r3, #1073741824
 4556 00ae ABD1     		bne	.L664
 4557              	.L687:
 4558              	.LVL527:
 4559              	.LBE1320:
 4560              	.LBE1319:
ARM GAS  /tmp/ccEbIy6V.s 			page 81


 4561              		.loc 1 168 0
 4562 00b0 FFF7FEFF 		bl	lbm_dec_as_i
 4563              	.LVL528:
 4564              		.loc 1 169 0
 4565 00b4 0028     		cmp	r0, #0
 4566 00b6 A7DB     		blt	.L664
 4567 00b8 BB69     		ldr	r3, [r7, #24]
 4568 00ba 9842     		cmp	r0, r3
 4569 00bc A4DA     		bge	.L664
 4570              		.loc 1 173 0
 4571 00be 07EB8000 		add	r0, r7, r0, lsl #2
 4572              	.LVL529:
 4573 00c2 90ED070A 		vldr.32	s0, [r0, #28]
 4574              	.LBE1318:
 4575              	.LBE1317:
 4576              	.LBE1316:
 4577              		.loc 1 225 0
 4578 00c6 BDE8F840 		pop	{r3, r4, r5, r6, r7, lr}
 4579              		.cfi_remember_state
 4580              		.cfi_restore 14
 4581              		.cfi_restore 7
 4582              		.cfi_restore 6
 4583              		.cfi_restore 5
 4584              		.cfi_restore 4
 4585              		.cfi_restore 3
 4586              		.cfi_def_cfa_offset 0
 4587              	.LVL530:
 4588              	.LBB1399:
 4589              	.LBB1381:
 4590              	.LBB1323:
 4591              		.loc 1 173 0
 4592 00ca FFF7FEBF 		b	lbm_enc_F
 4593              	.LVL531:
 4594              	.L776:
 4595              		.cfi_restore_state
 4596              	.LBE1323:
 4597              	.LBB1324:
 4598              	.LBB1325:
 4599              		.loc 2 507 0
 4600 00ce 3868     		ldr	r0, [r7]
 4601 00d0 4FF40C71 		mov	r1, #560
 4602 00d4 FFF7FEFF 		bl	lbm_cons
 4603              	.LVL532:
 4604              	.LBB1326:
 4605              	.LBB1327:
 4606              		.loc 2 461 0
 4607 00d8 C207     		lsls	r2, r0, #31
 4608 00da 13D5     		bpl	.L681
 4609              	.LVL533:
 4610              	.L775:
 4611              	.LBE1327:
 4612              	.LBE1326:
 4613              	.LBE1325:
 4614              	.LBE1324:
 4615              	.LBB1328:
 4616              	.LBB1329:
 4617              	.LBB1330:
ARM GAS  /tmp/ccEbIy6V.s 			page 82


 4618              	.LBB1331:
 4619 00dc 00F07C43 		and	r3, r0, #-67108864
 4620              	.L682:
 4621              	.LBE1331:
 4622              	.LBE1330:
 4623              		.loc 2 508 0
 4624 00e0 002B     		cmp	r3, #0
 4625 00e2 92D0     		beq	.L661
 4626              	.LVL534:
 4627              	.LBB1333:
 4628              	.LBB1334:
 4629              		.loc 2 477 0
 4630 00e4 20F07C40 		bic	r0, r0, #-67108864
 4631              	.LVL535:
 4632 00e8 20F00700 		bic	r0, r0, #7
 4633 00ec 40F08040 		orr	r0, r0, #1073741824
 4634 00f0 40F00100 		orr	r0, r0, #1
 4635              	.LVL536:
 4636              	.LBE1334:
 4637              	.LBE1333:
 4638              	.LBE1329:
 4639              	.LBE1328:
 4640              	.LBE1381:
 4641              	.LBE1399:
 4642              		.loc 1 225 0
 4643 00f4 F8BD     		pop	{r3, r4, r5, r6, r7, pc}
 4644              	.LVL537:
 4645              	.L781:
 4646              	.LBB1400:
 4647              	.LBB1382:
 4648              	.LBB1337:
 4649              	.LBB1336:
 4650              		.loc 2 507 0
 4651 00f6 7869     		ldr	r0, [r7, #20]
 4652 00f8 4FF40C71 		mov	r1, #560
 4653 00fc FFF7FEFF 		bl	lbm_cons
 4654              	.LVL538:
 4655              	.LBB1335:
 4656              	.LBB1332:
 4657              		.loc 2 461 0
 4658 0100 C407     		lsls	r4, r0, #31
 4659              	.LVL539:
 4660 0102 EBD4     		bmi	.L775
 4661              	.LVL540:
 4662              	.L681:
 4663 0104 00F00C03 		and	r3, r0, #12
 4664 0108 EAE7     		b	.L682
 4665              	.LVL541:
 4666              	.L777:
 4667              	.LBE1332:
 4668              	.LBE1335:
 4669              	.LBE1336:
 4670              	.LBE1337:
 4671              	.LBB1338:
 4672              	.LBB1339:
 4673              		.loc 2 507 0
 4674 010a 7868     		ldr	r0, [r7, #4]
ARM GAS  /tmp/ccEbIy6V.s 			page 83


 4675 010c 4FF40C71 		mov	r1, #560
 4676 0110 FFF7FEFF 		bl	lbm_cons
 4677              	.LVL542:
 4678              	.LBB1340:
 4679              	.LBB1341:
 4680              		.loc 2 461 0
 4681 0114 C307     		lsls	r3, r0, #31
 4682 0116 F5D5     		bpl	.L681
 4683 0118 E0E7     		b	.L775
 4684              	.LVL543:
 4685              	.L780:
 4686              	.LBE1341:
 4687              	.LBE1340:
 4688              	.LBE1339:
 4689              	.LBE1338:
 4690              	.LBB1342:
 4691              	.LBB1343:
 4692              		.loc 2 507 0
 4693 011a 3869     		ldr	r0, [r7, #16]
 4694 011c 4FF40C71 		mov	r1, #560
 4695 0120 FFF7FEFF 		bl	lbm_cons
 4696              	.LVL544:
 4697              	.LBB1344:
 4698              	.LBB1345:
 4699              		.loc 2 461 0
 4700 0124 C507     		lsls	r5, r0, #31
 4701              	.LVL545:
 4702 0126 EDD5     		bpl	.L681
 4703 0128 D8E7     		b	.L775
 4704              	.LVL546:
 4705              	.L778:
 4706              	.LBE1345:
 4707              	.LBE1344:
 4708              	.LBE1343:
 4709              	.LBE1342:
 4710              	.LBB1346:
 4711              	.LBB1347:
 4712              		.loc 2 507 0
 4713 012a B868     		ldr	r0, [r7, #8]
 4714 012c 4FF40C71 		mov	r1, #560
 4715 0130 FFF7FEFF 		bl	lbm_cons
 4716              	.LVL547:
 4717              	.LBB1348:
 4718              	.LBB1349:
 4719              		.loc 2 461 0
 4720 0134 C707     		lsls	r7, r0, #31
 4721              	.LVL548:
 4722 0136 E5D5     		bpl	.L681
 4723 0138 D0E7     		b	.L775
 4724              	.LVL549:
 4725              	.L779:
 4726              	.LBE1349:
 4727              	.LBE1348:
 4728              	.LBE1347:
 4729              	.LBE1346:
 4730              	.LBB1350:
 4731              	.LBB1351:
ARM GAS  /tmp/ccEbIy6V.s 			page 84


 4732              		.loc 2 507 0
 4733 013a F868     		ldr	r0, [r7, #12]
 4734 013c 4FF40C71 		mov	r1, #560
 4735 0140 FFF7FEFF 		bl	lbm_cons
 4736              	.LVL550:
 4737              	.LBB1352:
 4738              	.LBB1353:
 4739              		.loc 2 461 0
 4740 0144 C607     		lsls	r6, r0, #31
 4741              	.LVL551:
 4742 0146 DDD5     		bpl	.L681
 4743 0148 C8E7     		b	.L775
 4744              	.LVL552:
 4745              	.L782:
 4746              	.LBE1353:
 4747              	.LBE1352:
 4748              	.LBE1351:
 4749              	.LBE1350:
 4750              	.LBB1354:
 4751              	.LBB1355:
 4752              		.loc 2 485 0
 4753 014a B869     		ldr	r0, [r7, #24]
 4754 014c 0001     		lsls	r0, r0, #4
 4755 014e 40F00C00 		orr	r0, r0, #12
 4756              	.LVL553:
 4757              	.LBE1355:
 4758              	.LBE1354:
 4759              	.LBE1382:
 4760              	.LBE1400:
 4761              		.loc 1 225 0
 4762 0152 F8BD     		pop	{r3, r4, r5, r6, r7, pc}
 4763              	.LVL554:
 4764              	.L684:
 4765              	.LBB1401:
 4766              	.LBB1383:
 4767              		.loc 1 174 0
 4768 0154 7A49     		ldr	r1, .L795+32
 4769 0156 3046     		mov	r0, r6
 4770 0158 FFF7FEFF 		bl	strcmp
 4771              	.LVL555:
 4772 015c 40BB     		cbnz	r0, .L688
 4773              	.LBB1356:
 4774              		.loc 1 175 0
 4775 015e 022C     		cmp	r4, #2
 4776 0160 7FF452AF 		bne	.L664
 4777 0164 6868     		ldr	r0, [r5, #4]
 4778              	.LVL556:
 4779              	.LBB1357:
 4780              	.LBB1358:
 4781              	.LBB1359:
 4782              	.LBB1360:
 4783              		.loc 2 461 0
 4784 0166 C207     		lsls	r2, r0, #31
 4785 0168 4CBF     		ite	mi
 4786 016a 00F07C43 		andmi	r3, r0, #-67108864
 4787 016e 00F00C03 		andpl	r3, r0, #12
 4788              	.LVL557:
ARM GAS  /tmp/ccEbIy6V.s 			page 85


 4789              	.LBE1360:
 4790              	.LBE1359:
 4791              		.loc 2 561 0
 4792 0172 082B     		cmp	r3, #8
 4793 0174 0CD0     		beq	.L691
 4794              		.loc 2 562 0
 4795 0176 23F00802 		bic	r2, r3, #8
 4796 017a 042A     		cmp	r2, #4
 4797 017c 08D0     		beq	.L691
 4798              		.loc 2 564 0
 4799 017e 23F08052 		bic	r2, r3, #268435456
 4800 0182 B2F1005F 		cmp	r2, #536870912
 4801 0186 03D0     		beq	.L691
 4802              		.loc 2 565 0
 4803 0188 B3F1804F 		cmp	r3, #1073741824
 4804 018c 7FF43CAF 		bne	.L664
 4805              	.L691:
 4806              	.LVL558:
 4807              	.LBE1358:
 4808              	.LBE1357:
 4809              		.loc 1 179 0
 4810 0190 FFF7FEFF 		bl	lbm_dec_as_i
 4811              	.LVL559:
 4812              		.loc 1 180 0
 4813 0194 0028     		cmp	r0, #0
 4814 0196 FFF637AF 		blt	.L664
 4815 019a BB69     		ldr	r3, [r7, #24]
 4816 019c 9842     		cmp	r0, r3
 4817 019e BFF633AF 		bge	.L664
 4818              	.LVL560:
 4819              		.loc 1 184 0
 4820 01a2 3844     		add	r0, r0, r7
 4821              	.LVL561:
 4822              	.LBB1361:
 4823              	.LBB1362:
 4824              		.loc 2 485 0
 4825 01a4 90F89C00 		ldrb	r0, [r0, #156]	@ zero_extendqisi2
 4826              	.LVL562:
 4827 01a8 0001     		lsls	r0, r0, #4
 4828              	.LVL563:
 4829 01aa 40F00C00 		orr	r0, r0, #12
 4830              	.LBE1362:
 4831              	.LBE1361:
 4832              	.LBE1356:
 4833              	.LBE1383:
 4834              	.LBE1401:
 4835              		.loc 1 225 0
 4836 01ae F8BD     		pop	{r3, r4, r5, r6, r7, pc}
 4837              	.LVL564:
 4838              	.L688:
 4839              	.LBB1402:
 4840              	.LBB1384:
 4841              		.loc 1 185 0
 4842 01b0 6449     		ldr	r1, .L795+36
 4843 01b2 3046     		mov	r0, r6
 4844 01b4 FFF7FEFF 		bl	strcmp
 4845              	.LVL565:
ARM GAS  /tmp/ccEbIy6V.s 			page 86


 4846 01b8 78B3     		cbz	r0, .L783
 4847              		.loc 1 187 0
 4848 01ba 6349     		ldr	r1, .L795+40
 4849 01bc 3046     		mov	r0, r6
 4850 01be FFF7FEFF 		bl	strcmp
 4851              	.LVL566:
 4852 01c2 80BB     		cbnz	r0, .L693
 4853              	.LBB1363:
 4854              		.loc 1 188 0
 4855 01c4 022C     		cmp	r4, #2
 4856 01c6 7FF41FAF 		bne	.L664
 4857 01ca 6868     		ldr	r0, [r5, #4]
 4858              	.LVL567:
 4859              	.LBB1364:
 4860              	.LBB1365:
 4861              	.LBB1366:
 4862              	.LBB1367:
 4863              		.loc 2 461 0
 4864 01cc C307     		lsls	r3, r0, #31
 4865 01ce 4CBF     		ite	mi
 4866 01d0 00F07C43 		andmi	r3, r0, #-67108864
 4867 01d4 00F00C03 		andpl	r3, r0, #12
 4868              	.LVL568:
 4869              	.LBE1367:
 4870              	.LBE1366:
 4871              		.loc 2 561 0
 4872 01d8 082B     		cmp	r3, #8
 4873 01da 0CD0     		beq	.L696
 4874              		.loc 2 562 0
 4875 01dc 23F00802 		bic	r2, r3, #8
 4876 01e0 042A     		cmp	r2, #4
 4877 01e2 08D0     		beq	.L696
 4878              		.loc 2 564 0
 4879 01e4 23F08052 		bic	r2, r3, #268435456
 4880 01e8 B2F1005F 		cmp	r2, #536870912
 4881 01ec 03D0     		beq	.L696
 4882              		.loc 2 565 0
 4883 01ee B3F1804F 		cmp	r3, #1073741824
 4884 01f2 7FF409AF 		bne	.L664
 4885              	.L696:
 4886              	.LVL569:
 4887              	.LBE1365:
 4888              	.LBE1364:
 4889              		.loc 1 192 0
 4890 01f6 FFF7FEFF 		bl	lbm_dec_as_i
 4891              	.LVL570:
 4892              		.loc 1 193 0
 4893 01fa 0028     		cmp	r0, #0
 4894 01fc FFF604AF 		blt	.L664
 4895 0200 D7F8BC30 		ldr	r3, [r7, #188]
 4896 0204 9842     		cmp	r0, r3
 4897 0206 BFF6FFAE 		bge	.L664
 4898              		.loc 1 197 0
 4899 020a 07EB8000 		add	r0, r7, r0, lsl #2
 4900              	.LVL571:
 4901 020e 90ED300A 		vldr.32	s0, [r0, #192]
 4902              	.LBE1363:
ARM GAS  /tmp/ccEbIy6V.s 			page 87


 4903              	.LBE1384:
 4904              	.LBE1402:
 4905              		.loc 1 225 0
 4906 0212 BDE8F840 		pop	{r3, r4, r5, r6, r7, lr}
 4907              		.cfi_remember_state
 4908              		.cfi_restore 14
 4909              		.cfi_restore 7
 4910              		.cfi_restore 6
 4911              		.cfi_restore 5
 4912              		.cfi_restore 4
 4913              		.cfi_restore 3
 4914              		.cfi_def_cfa_offset 0
 4915              	.LVL572:
 4916              	.LBB1403:
 4917              	.LBB1385:
 4918              	.LBB1368:
 4919              		.loc 1 197 0
 4920 0216 FFF7FEBF 		b	lbm_enc_F
 4921              	.LVL573:
 4922              	.L783:
 4923              		.cfi_restore_state
 4924              	.LBE1368:
 4925              	.LBB1369:
 4926              	.LBB1370:
 4927              		.loc 2 485 0
 4928 021a D7F8BC00 		ldr	r0, [r7, #188]
 4929 021e 0001     		lsls	r0, r0, #4
 4930 0220 40F00C00 		orr	r0, r0, #12
 4931              	.LVL574:
 4932              	.LBE1370:
 4933              	.LBE1369:
 4934              	.LBE1385:
 4935              	.LBE1403:
 4936              		.loc 1 225 0
 4937 0224 F8BD     		pop	{r3, r4, r5, r6, r7, pc}
 4938              	.LVL575:
 4939              	.L693:
 4940              	.LBB1404:
 4941              	.LBB1386:
 4942              		.loc 1 198 0
 4943 0226 4949     		ldr	r1, .L795+44
 4944 0228 3046     		mov	r0, r6
 4945 022a FFF7FEFF 		bl	strcmp
 4946              	.LVL576:
 4947 022e 0028     		cmp	r0, #0
 4948 0230 58D0     		beq	.L784
 4949              		.loc 1 200 0
 4950 0232 4749     		ldr	r1, .L795+48
 4951 0234 3046     		mov	r0, r6
 4952 0236 FFF7FEFF 		bl	strcmp
 4953              	.LVL577:
 4954 023a 0028     		cmp	r0, #0
 4955 023c 58D0     		beq	.L785
 4956              		.loc 1 202 0
 4957 023e 4549     		ldr	r1, .L795+52
 4958 0240 3046     		mov	r0, r6
 4959 0242 FFF7FEFF 		bl	strcmp
ARM GAS  /tmp/ccEbIy6V.s 			page 88


 4960              	.LVL578:
 4961 0246 0028     		cmp	r0, #0
 4962 0248 58D0     		beq	.L786
 4963              		.loc 1 204 0
 4964 024a 4349     		ldr	r1, .L795+56
 4965 024c 3046     		mov	r0, r6
 4966 024e FFF7FEFF 		bl	strcmp
 4967              	.LVL579:
 4968 0252 0028     		cmp	r0, #0
 4969 0254 5ED0     		beq	.L787
 4970              		.loc 1 206 0
 4971 0256 4149     		ldr	r1, .L795+60
 4972 0258 3046     		mov	r0, r6
 4973 025a FFF7FEFF 		bl	strcmp
 4974              	.LVL580:
 4975 025e 0028     		cmp	r0, #0
 4976 0260 52D0     		beq	.L788
 4977              		.loc 1 208 0
 4978 0262 3F49     		ldr	r1, .L795+64
 4979 0264 3046     		mov	r0, r6
 4980 0266 FFF7FEFF 		bl	strcmp
 4981              	.LVL581:
 4982 026a 0028     		cmp	r0, #0
 4983 026c 00F09080 		beq	.L789
 4984              		.loc 1 210 0
 4985 0270 3C49     		ldr	r1, .L795+68
 4986 0272 3046     		mov	r0, r6
 4987 0274 FFF7FEFF 		bl	strcmp
 4988              	.LVL582:
 4989 0278 0028     		cmp	r0, #0
 4990 027a 00F08380 		beq	.L790
 4991              		.loc 1 212 0
 4992 027e 3A49     		ldr	r1, .L795+72
 4993 0280 3046     		mov	r0, r6
 4994 0282 FFF7FEFF 		bl	strcmp
 4995              	.LVL583:
 4996 0286 0028     		cmp	r0, #0
 4997 0288 00F09A80 		beq	.L791
 4998              		.loc 1 214 0
 4999 028c 3749     		ldr	r1, .L795+76
 5000 028e 3046     		mov	r0, r6
 5001 0290 FFF7FEFF 		bl	strcmp
 5002              	.LVL584:
 5003 0294 0028     		cmp	r0, #0
 5004 0296 00F08D80 		beq	.L792
 5005              		.loc 1 216 0
 5006 029a 3549     		ldr	r1, .L795+80
 5007 029c 3046     		mov	r0, r6
 5008 029e FFF7FEFF 		bl	strcmp
 5009              	.LVL585:
 5010 02a2 0028     		cmp	r0, #0
 5011 02a4 00F08080 		beq	.L793
 5012              		.loc 1 218 0
 5013 02a8 3249     		ldr	r1, .L795+84
 5014 02aa 3046     		mov	r0, r6
 5015 02ac FFF7FEFF 		bl	strcmp
 5016              	.LVL586:
ARM GAS  /tmp/ccEbIy6V.s 			page 89


 5017 02b0 0028     		cmp	r0, #0
 5018 02b2 73D0     		beq	.L794
 5019              		.loc 1 220 0
 5020 02b4 3046     		mov	r0, r6
 5021 02b6 3049     		ldr	r1, .L795+88
 5022 02b8 FFF7FEFF 		bl	strcmp
 5023              	.LVL587:
 5024 02bc 0028     		cmp	r0, #0
 5025 02be 7FF4A3AE 		bne	.L664
 5026              	.LVL588:
 5027              	.LBB1371:
 5028              	.LBB1372:
 5029              	.LBB1373:
 5030              	.LBB1374:
 5031              		.loc 3 231 0
 5032 02c2 2E4B     		ldr	r3, .L795+92
 5033              	.LBE1374:
 5034              	.LBE1373:
 5035              		.loc 3 267 0
 5036 02c4 D7F81421 		ldr	r2, [r7, #276]
 5037              	.LBB1376:
 5038              	.LBB1375:
 5039              		.loc 3 231 0
 5040 02c8 9B6A     		ldr	r3, [r3, #40]
 5041              	.LVL589:
 5042              	.LBE1375:
 5043              	.LBE1376:
 5044              	.LBE1372:
 5045              	.LBE1371:
 5046              		.loc 1 221 0
 5047 02ca 9FED2D0A 		vldr.32	s0, .L795+96
 5048              	.LBB1378:
 5049              	.LBB1377:
 5050              		.loc 3 267 0
 5051 02ce 9B1A     		subs	r3, r3, r2
 5052              	.LBE1377:
 5053              	.LBE1378:
 5054              		.loc 1 221 0
 5055 02d0 07EE903A 		vmov	s15, r3	@ int
 5056 02d4 F8EE677A 		vcvt.f32.u32	s15, s15
 5057              	.LBE1386:
 5058              	.LBE1404:
 5059              		.loc 1 225 0
 5060 02d8 BDE8F840 		pop	{r3, r4, r5, r6, r7, lr}
 5061              		.cfi_remember_state
 5062              		.cfi_restore 14
 5063              		.cfi_restore 7
 5064              		.cfi_restore 6
 5065              		.cfi_restore 5
 5066              		.cfi_restore 4
 5067              		.cfi_restore 3
 5068              		.cfi_def_cfa_offset 0
 5069              	.LVL590:
 5070              	.LBB1405:
 5071              	.LBB1387:
 5072              		.loc 1 221 0
 5073 02dc 87EE800A 		vdiv.f32	s0, s15, s0
ARM GAS  /tmp/ccEbIy6V.s 			page 90


 5074 02e0 FFF7FEBF 		b	lbm_enc_F
 5075              	.LVL591:
 5076              	.L784:
 5077              		.cfi_restore_state
 5078              		.loc 1 199 0
 5079 02e4 97ED3A0A 		vldr.32	s0, [r7, #232]
 5080              	.LBE1387:
 5081              	.LBE1405:
 5082              		.loc 1 225 0
 5083 02e8 BDE8F840 		pop	{r3, r4, r5, r6, r7, lr}
 5084              		.cfi_remember_state
 5085              		.cfi_restore 14
 5086              		.cfi_restore 7
 5087              		.cfi_restore 6
 5088              		.cfi_restore 5
 5089              		.cfi_restore 4
 5090              		.cfi_restore 3
 5091              		.cfi_def_cfa_offset 0
 5092              	.LVL592:
 5093              	.LBB1406:
 5094              	.LBB1388:
 5095              		.loc 1 199 0
 5096 02ec FFF7FEBF 		b	lbm_enc_F
 5097              	.LVL593:
 5098              	.L785:
 5099              		.cfi_restore_state
 5100              		.loc 1 201 0
 5101 02f0 97ED3B0A 		vldr.32	s0, [r7, #236]
 5102              	.LBE1388:
 5103              	.LBE1406:
 5104              		.loc 1 225 0
 5105 02f4 BDE8F840 		pop	{r3, r4, r5, r6, r7, lr}
 5106              		.cfi_remember_state
 5107              		.cfi_restore 14
 5108              		.cfi_restore 7
 5109              		.cfi_restore 6
 5110              		.cfi_restore 5
 5111              		.cfi_restore 4
 5112              		.cfi_restore 3
 5113              		.cfi_def_cfa_offset 0
 5114              	.LVL594:
 5115              	.LBB1407:
 5116              	.LBB1389:
 5117              		.loc 1 201 0
 5118 02f8 FFF7FEBF 		b	lbm_enc_F
 5119              	.LVL595:
 5120              	.L786:
 5121              		.cfi_restore_state
 5122              		.loc 1 203 0
 5123 02fc 97ED3C0A 		vldr.32	s0, [r7, #240]
 5124              	.LBE1389:
 5125              	.LBE1407:
 5126              		.loc 1 225 0
 5127 0300 BDE8F840 		pop	{r3, r4, r5, r6, r7, lr}
 5128              		.cfi_remember_state
 5129              		.cfi_restore 14
 5130              		.cfi_restore 7
ARM GAS  /tmp/ccEbIy6V.s 			page 91


 5131              		.cfi_restore 6
 5132              		.cfi_restore 5
 5133              		.cfi_restore 4
 5134              		.cfi_restore 3
 5135              		.cfi_def_cfa_offset 0
 5136              	.LVL596:
 5137              	.LBB1408:
 5138              	.LBB1390:
 5139              		.loc 1 203 0
 5140 0304 FFF7FEBF 		b	lbm_enc_F
 5141              	.LVL597:
 5142              	.L788:
 5143              		.cfi_restore_state
 5144              		.loc 1 207 0
 5145 0308 97ED3E0A 		vldr.32	s0, [r7, #248]
 5146              	.LBE1390:
 5147              	.LBE1408:
 5148              		.loc 1 225 0
 5149 030c BDE8F840 		pop	{r3, r4, r5, r6, r7, lr}
 5150              		.cfi_remember_state
 5151              		.cfi_restore 14
 5152              		.cfi_restore 7
 5153              		.cfi_restore 6
 5154              		.cfi_restore 5
 5155              		.cfi_restore 4
 5156              		.cfi_restore 3
 5157              		.cfi_def_cfa_offset 0
 5158              	.LVL598:
 5159              	.LBB1409:
 5160              	.LBB1391:
 5161              		.loc 1 207 0
 5162 0310 FFF7FEBF 		b	lbm_enc_F
 5163              	.LVL599:
 5164              	.L787:
 5165              		.cfi_restore_state
 5166              		.loc 1 205 0
 5167 0314 97ED3D0A 		vldr.32	s0, [r7, #244]
 5168              	.LBE1391:
 5169              	.LBE1409:
 5170              		.loc 1 225 0
 5171 0318 BDE8F840 		pop	{r3, r4, r5, r6, r7, lr}
 5172              		.cfi_remember_state
 5173              		.cfi_restore 14
 5174              		.cfi_restore 7
 5175              		.cfi_restore 6
 5176              		.cfi_restore 5
 5177              		.cfi_restore 4
 5178              		.cfi_restore 3
 5179              		.cfi_def_cfa_offset 0
 5180              	.LVL600:
 5181              	.LBB1410:
 5182              	.LBB1392:
 5183              		.loc 1 205 0
 5184 031c FFF7FEBF 		b	lbm_enc_F
 5185              	.LVL601:
 5186              	.L796:
 5187              		.align	2
ARM GAS  /tmp/ccEbIy6V.s 			page 92


 5188              	.L795:
 5189 0320 00000000 		.word	.LC5
 5190 0324 08000000 		.word	.LC6
 5191 0328 14000000 		.word	.LC7
 5192 032c 1C000000 		.word	.LC8
 5193 0330 24000000 		.word	.LC9
 5194 0334 2C000000 		.word	.LC10
 5195 0338 34000000 		.word	.LC11
 5196 033c 40000000 		.word	.LC12
 5197 0340 48000000 		.word	.LC13
 5198 0344 54000000 		.word	.LC14
 5199 0348 64000000 		.word	.LC15
 5200 034c 70000000 		.word	.LC16
 5201 0350 78000000 		.word	.LC17
 5202 0354 84000000 		.word	.LC18
 5203 0358 88000000 		.word	.LC19
 5204 035c 98000000 		.word	.LC20
 5205 0360 9C000000 		.word	.LC21
 5206 0364 A0000000 		.word	.LC22
 5207 0368 A8000000 		.word	.LC23
 5208 036c BC000000 		.word	.LC24
 5209 0370 D0000000 		.word	.LC25
 5210 0374 E4000000 		.word	.LC26
 5211 0378 F8000000 		.word	.LC27
 5212 037c 00000000 		.word	ch
 5213 0380 00401C46 		.word	1176256512
 5214              	.LVL602:
 5215              	.L790:
 5216              		.cfi_restore_state
 5217              	.LBB1379:
 5218              	.LBB1380:
 5219              		.loc 2 485 0
 5220 0384 D7F80001 		ldr	r0, [r7, #256]
 5221 0388 0001     		lsls	r0, r0, #4
 5222 038a 40F00C00 		orr	r0, r0, #12
 5223              	.LVL603:
 5224              	.LBE1380:
 5225              	.LBE1379:
 5226              	.LBE1392:
 5227              	.LBE1410:
 5228              		.loc 1 225 0
 5229 038e F8BD     		pop	{r3, r4, r5, r6, r7, pc}
 5230              	.LVL604:
 5231              	.L789:
 5232              	.LBB1411:
 5233              	.LBB1393:
 5234              		.loc 1 209 0
 5235 0390 97ED3F0A 		vldr.32	s0, [r7, #252]
 5236              	.LBE1393:
 5237              	.LBE1411:
 5238              		.loc 1 225 0
 5239 0394 BDE8F840 		pop	{r3, r4, r5, r6, r7, lr}
 5240              		.cfi_remember_state
 5241              		.cfi_restore 14
 5242              		.cfi_restore 7
 5243              		.cfi_restore 6
 5244              		.cfi_restore 5
ARM GAS  /tmp/ccEbIy6V.s 			page 93


 5245              		.cfi_restore 4
 5246              		.cfi_restore 3
 5247              		.cfi_def_cfa_offset 0
 5248              	.LVL605:
 5249              	.LBB1412:
 5250              	.LBB1394:
 5251              		.loc 1 209 0
 5252 0398 FFF7FEBF 		b	lbm_enc_F
 5253              	.LVL606:
 5254              	.L794:
 5255              		.cfi_restore_state
 5256              		.loc 1 219 0
 5257 039c 97ED440A 		vldr.32	s0, [r7, #272]
 5258              	.LBE1394:
 5259              	.LBE1412:
 5260              		.loc 1 225 0
 5261 03a0 BDE8F840 		pop	{r3, r4, r5, r6, r7, lr}
 5262              		.cfi_remember_state
 5263              		.cfi_restore 14
 5264              		.cfi_restore 7
 5265              		.cfi_restore 6
 5266              		.cfi_restore 5
 5267              		.cfi_restore 4
 5268              		.cfi_restore 3
 5269              		.cfi_def_cfa_offset 0
 5270              	.LVL607:
 5271              	.LBB1413:
 5272              	.LBB1395:
 5273              		.loc 1 219 0
 5274 03a4 FFF7FEBF 		b	lbm_enc_F
 5275              	.LVL608:
 5276              	.L793:
 5277              		.cfi_restore_state
 5278              		.loc 1 217 0
 5279 03a8 97ED430A 		vldr.32	s0, [r7, #268]
 5280              	.LBE1395:
 5281              	.LBE1413:
 5282              		.loc 1 225 0
 5283 03ac BDE8F840 		pop	{r3, r4, r5, r6, r7, lr}
 5284              		.cfi_remember_state
 5285              		.cfi_restore 14
 5286              		.cfi_restore 7
 5287              		.cfi_restore 6
 5288              		.cfi_restore 5
 5289              		.cfi_restore 4
 5290              		.cfi_restore 3
 5291              		.cfi_def_cfa_offset 0
 5292              	.LVL609:
 5293              	.LBB1414:
 5294              	.LBB1396:
 5295              		.loc 1 217 0
 5296 03b0 FFF7FEBF 		b	lbm_enc_F
 5297              	.LVL610:
 5298              	.L792:
 5299              		.cfi_restore_state
 5300              		.loc 1 215 0
 5301 03b4 97ED420A 		vldr.32	s0, [r7, #264]
ARM GAS  /tmp/ccEbIy6V.s 			page 94


 5302              	.LBE1396:
 5303              	.LBE1414:
 5304              		.loc 1 225 0
 5305 03b8 BDE8F840 		pop	{r3, r4, r5, r6, r7, lr}
 5306              		.cfi_remember_state
 5307              		.cfi_restore 14
 5308              		.cfi_restore 7
 5309              		.cfi_restore 6
 5310              		.cfi_restore 5
 5311              		.cfi_restore 4
 5312              		.cfi_restore 3
 5313              		.cfi_def_cfa_offset 0
 5314              	.LVL611:
 5315              	.LBB1415:
 5316              	.LBB1397:
 5317              		.loc 1 215 0
 5318 03bc FFF7FEBF 		b	lbm_enc_F
 5319              	.LVL612:
 5320              	.L791:
 5321              		.cfi_restore_state
 5322              		.loc 1 213 0
 5323 03c0 97ED410A 		vldr.32	s0, [r7, #260]
 5324              	.LBE1397:
 5325              	.LBE1415:
 5326              		.loc 1 225 0
 5327 03c4 BDE8F840 		pop	{r3, r4, r5, r6, r7, lr}
 5328              		.cfi_restore 14
 5329              		.cfi_restore 7
 5330              		.cfi_restore 6
 5331              		.cfi_restore 5
 5332              		.cfi_restore 4
 5333              		.cfi_restore 3
 5334              		.cfi_def_cfa_offset 0
 5335              	.LVL613:
 5336              	.LBB1416:
 5337              	.LBB1398:
 5338              		.loc 1 213 0
 5339 03c8 FFF7FEBF 		b	lbm_enc_F
 5340              	.LVL614:
 5341              	.LBE1398:
 5342              	.LBE1416:
 5343              		.cfi_endproc
 5344              	.LFE311:
 5345              		.size	ext_get_bms_val, .-ext_get_bms_val
 5346              		.section	.text.lispif_process_can,"ax",%progbits
 5347              		.align	1
 5348              		.p2align 4,,15
 5349              		.global	lispif_process_can
 5350              		.syntax unified
 5351              		.thumb
 5352              		.thumb_func
 5353              		.fpu fpv4-sp-d16
 5354              		.type	lispif_process_can, %function
 5355              	lispif_process_can:
 5356              	.LFB357:
 5357              		.loc 1 643 0
 5358              		.cfi_startproc
ARM GAS  /tmp/ccEbIy6V.s 			page 95


 5359              		@ args = 0, pretend = 0, frame = 0
 5360              		@ frame_needed = 0, uses_anonymous_args = 0
 5361              	.LVL615:
 5362 0000 2DE9F041 		push	{r4, r5, r6, r7, r8, lr}
 5363              		.cfi_def_cfa_offset 24
 5364              		.cfi_offset 4, -24
 5365              		.cfi_offset 5, -20
 5366              		.cfi_offset 6, -16
 5367              		.cfi_offset 7, -12
 5368              		.cfi_offset 8, -8
 5369              		.cfi_offset 14, -4
 5370              		.loc 1 644 0
 5371 0004 324C     		ldr	r4, .L826
 5372 0006 2478     		ldrb	r4, [r4]	@ zero_extendqisi2
 5373 0008 34B1     		cbz	r4, .L797
 5374              	.LBB1432:
 5375              		.loc 1 645 0
 5376 000a 324C     		ldr	r4, .L826+4
 5377 000c 2478     		ldrb	r4, [r4]	@ zero_extendqisi2
 5378 000e 2CB9     		cbnz	r4, .L799
 5379              		.loc 1 645 0 is_stmt 0 discriminator 1
 5380 0010 13B1     		cbz	r3, .L797
 5381              		.loc 1 649 0 is_stmt 1
 5382 0012 314C     		ldr	r4, .L826+8
 5383 0014 2478     		ldrb	r4, [r4]	@ zero_extendqisi2
 5384 0016 34B9     		cbnz	r4, .L801
 5385              	.L797:
 5386              	.LBE1432:
 5387              		.loc 1 683 0
 5388 0018 BDE8F081 		pop	{r4, r5, r6, r7, r8, pc}
 5389              	.L799:
 5390              	.LBB1449:
 5391              		.loc 1 649 0
 5392 001c 2E4C     		ldr	r4, .L826+8
 5393 001e 2478     		ldrb	r4, [r4]	@ zero_extendqisi2
 5394 0020 0CB9     		cbnz	r4, .L801
 5395              		.loc 1 649 0 is_stmt 0 discriminator 1
 5396 0022 002B     		cmp	r3, #0
 5397 0024 F8D1     		bne	.L797
 5398              	.L801:
 5399 0026 8046     		mov	r8, r0
 5400              	.LVL616:
 5401              		.loc 1 656 0 is_stmt 1
 5402 0028 6420     		movs	r0, #100
 5403              	.LVL617:
 5404 002a 1F46     		mov	r7, r3
 5405 002c 1546     		mov	r5, r2
 5406 002e 0E46     		mov	r6, r1
 5407              		.loc 1 655 0
 5408 0030 4FF47A74 		mov	r4, #1000
 5409              		.loc 1 656 0
 5410 0034 FFF7FEFF 		bl	lbm_pause_eval_with_gc
 5411              	.LVL618:
 5412              		.loc 1 657 0
 5413 0038 04E0     		b	.L802
 5414              	.LVL619:
 5415              	.L825:
ARM GAS  /tmp/ccEbIy6V.s 			page 96


 5416              		.loc 1 657 0 is_stmt 0 discriminator 1
 5417 003a 002C     		cmp	r4, #0
 5418 003c 3BD0     		beq	.L805
 5419              		.loc 1 658 0 is_stmt 1
 5420 003e FFF7FEFF 		bl	chThdSleep
 5421              	.LVL620:
 5422              		.loc 1 659 0
 5423 0042 013C     		subs	r4, r4, #1
 5424              	.LVL621:
 5425              	.L802:
 5426              		.loc 1 657 0
 5427 0044 FFF7FEFF 		bl	lbm_get_eval_state
 5428              	.LVL622:
 5429 0048 0128     		cmp	r0, #1
 5430              		.loc 1 658 0
 5431 004a 4FF00100 		mov	r0, #1
 5432              		.loc 1 657 0
 5433 004e F4D1     		bne	.L825
 5434              	.LVL623:
 5435              		.loc 1 663 0
 5436 0050 8CB3     		cbz	r4, .L805
 5437              	.LVL624:
 5438              	.LBB1433:
 5439              	.LBB1434:
 5440              		.loc 1 665 0
 5441 0052 002D     		cmp	r5, #0
 5442 0054 39DD     		ble	.L813
 5443 0056 7419     		adds	r4, r6, r5
 5444              	.LBE1434:
 5445              		.loc 1 664 0
 5446 0058 0025     		movs	r5, #0
 5447              	.LVL625:
 5448              	.L807:
 5449              	.LBB1437:
 5450              	.LBB1435:
 5451              	.LBB1436:
 5452              		.loc 2 485 0 discriminator 3
 5453 005a 14F8010D 		ldrb	r0, [r4, #-1]!	@ zero_extendqisi2
 5454              	.LVL626:
 5455 005e 0001     		lsls	r0, r0, #4
 5456              	.LBE1436:
 5457              	.LBE1435:
 5458              		.loc 1 666 0 discriminator 3
 5459 0060 2946     		mov	r1, r5
 5460 0062 40F00C00 		orr	r0, r0, #12
 5461 0066 FFF7FEFF 		bl	lbm_cons
 5462              	.LVL627:
 5463              		.loc 1 665 0 discriminator 3
 5464 006a A642     		cmp	r6, r4
 5465              		.loc 1 666 0 discriminator 3
 5466 006c 0546     		mov	r5, r0
 5467              	.LVL628:
 5468              		.loc 1 665 0 discriminator 3
 5469 006e F4D1     		bne	.L807
 5470              	.LVL629:
 5471              	.L806:
 5472              	.LBE1437:
ARM GAS  /tmp/ccEbIy6V.s 			page 97


 5473              	.LBB1438:
 5474              	.LBB1439:
 5475              		.loc 2 493 0
 5476 0070 4046     		mov	r0, r8
 5477 0072 4FF40471 		mov	r1, #528
 5478 0076 FFF7FEFF 		bl	lbm_cons
 5479              	.LVL630:
 5480              	.LBB1440:
 5481              	.LBB1441:
 5482              		.loc 2 461 0
 5483 007a C307     		lsls	r3, r0, #31
 5484 007c 4CBF     		ite	mi
 5485 007e 00F07C43 		andmi	r3, r0, #-67108864
 5486 0082 00F00C03 		andpl	r3, r0, #12
 5487              	.LBE1441:
 5488              	.LBE1440:
 5489              		.loc 2 494 0
 5490 0086 3BB1     		cbz	r3, .L810
 5491              	.LVL631:
 5492              	.LBB1442:
 5493              	.LBB1443:
 5494              		.loc 2 477 0
 5495 0088 20F07C40 		bic	r0, r0, #-67108864
 5496              	.LVL632:
 5497 008c 20F00700 		bic	r0, r0, #7
 5498 0090 40F04050 		orr	r0, r0, #805306368
 5499 0094 40F00100 		orr	r0, r0, #1
 5500              	.LVL633:
 5501              	.L810:
 5502              	.LBE1443:
 5503              	.LBE1442:
 5504              	.LBE1439:
 5505              	.LBE1438:
 5506              		.loc 1 669 0
 5507 0098 2946     		mov	r1, r5
 5508 009a FFF7FEFF 		bl	lbm_cons
 5509              	.LVL634:
 5510 009e 0146     		mov	r1, r0
 5511              	.LVL635:
 5512              		.loc 1 672 0
 5513 00a0 6FB1     		cbz	r7, .L811
 5514              		.loc 1 673 0
 5515 00a2 0E4B     		ldr	r3, .L826+12
 5516              	.LBB1444:
 5517              	.LBB1445:
 5518              		.loc 2 481 0
 5519 00a4 1868     		ldr	r0, [r3]
 5520              	.LVL636:
 5521              	.LBE1445:
 5522              	.LBE1444:
 5523              		.loc 1 673 0
 5524 00a6 0001     		lsls	r0, r0, #4
 5525 00a8 FFF7FEFF 		bl	lbm_cons
 5526              	.LVL637:
 5527              	.L812:
 5528              		.loc 1 678 0
 5529 00ac 0C4B     		ldr	r3, .L826+16
ARM GAS  /tmp/ccEbIy6V.s 			page 98


 5530 00ae 0146     		mov	r1, r0
 5531 00b0 1888     		ldrh	r0, [r3]
 5532              	.LVL638:
 5533 00b2 FFF7FEFF 		bl	lbm_send_message
 5534              	.LVL639:
 5535              	.L805:
 5536              	.LBE1433:
 5537              	.LBE1449:
 5538              		.loc 1 683 0
 5539 00b6 BDE8F041 		pop	{r4, r5, r6, r7, r8, lr}
 5540              		.cfi_remember_state
 5541              		.cfi_restore 14
 5542              		.cfi_restore 8
 5543              		.cfi_restore 7
 5544              		.cfi_restore 6
 5545              		.cfi_restore 5
 5546              		.cfi_restore 4
 5547              		.cfi_def_cfa_offset 0
 5548              	.LVL640:
 5549              	.LBB1450:
 5550              		.loc 1 681 0
 5551 00ba FFF7FEBF 		b	lbm_continue_eval
 5552              	.LVL641:
 5553              	.L811:
 5554              		.cfi_restore_state
 5555              	.LBB1448:
 5556              		.loc 1 675 0
 5557 00be 094B     		ldr	r3, .L826+20
 5558              	.LBB1446:
 5559              	.LBB1447:
 5560              		.loc 2 481 0
 5561 00c0 1868     		ldr	r0, [r3]
 5562              	.LVL642:
 5563              	.LBE1447:
 5564              	.LBE1446:
 5565              		.loc 1 675 0
 5566 00c2 0001     		lsls	r0, r0, #4
 5567 00c4 FFF7FEFF 		bl	lbm_cons
 5568              	.LVL643:
 5569 00c8 F0E7     		b	.L812
 5570              	.LVL644:
 5571              	.L813:
 5572              		.loc 1 664 0
 5573 00ca 0025     		movs	r5, #0
 5574              	.LVL645:
 5575 00cc D0E7     		b	.L806
 5576              	.L827:
 5577 00ce 00BF     		.align	2
 5578              	.L826:
 5579 00d0 00000000 		.word	.LANCHOR1
 5580 00d4 00000000 		.word	.LANCHOR3
 5581 00d8 00000000 		.word	.LANCHOR4
 5582 00dc 00000000 		.word	.LANCHOR5
 5583 00e0 00000000 		.word	.LANCHOR2
 5584 00e4 00000000 		.word	.LANCHOR6
 5585              	.LBE1448:
 5586              	.LBE1450:
ARM GAS  /tmp/ccEbIy6V.s 			page 99


 5587              		.cfi_endproc
 5588              	.LFE357:
 5589              		.size	lispif_process_can, .-lispif_process_can
 5590              		.section	.text.lispif_disable_all_events,"ax",%progbits
 5591              		.align	1
 5592              		.p2align 4,,15
 5593              		.global	lispif_disable_all_events
 5594              		.syntax unified
 5595              		.thumb
 5596              		.thumb_func
 5597              		.fpu fpv4-sp-d16
 5598              		.type	lispif_disable_all_events, %function
 5599              	lispif_disable_all_events:
 5600              	.LFB358:
 5601              		.loc 1 685 0
 5602              		.cfi_startproc
 5603              		@ args = 0, pretend = 0, frame = 0
 5604              		@ frame_needed = 0, uses_anonymous_args = 0
 5605              		@ link register save eliminated.
 5606              		.loc 1 686 0
 5607 0000 0348     		ldr	r0, .L829
 5608              		.loc 1 687 0
 5609 0002 0449     		ldr	r1, .L829+4
 5610              		.loc 1 688 0
 5611 0004 044A     		ldr	r2, .L829+8
 5612              		.loc 1 686 0
 5613 0006 0023     		movs	r3, #0
 5614 0008 0370     		strb	r3, [r0]
 5615              		.loc 1 687 0
 5616 000a 0B70     		strb	r3, [r1]
 5617              		.loc 1 688 0
 5618 000c 1370     		strb	r3, [r2]
 5619              		.loc 1 689 0
 5620 000e 7047     		bx	lr
 5621              	.L830:
 5622              		.align	2
 5623              	.L829:
 5624 0010 00000000 		.word	.LANCHOR1
 5625 0014 00000000 		.word	.LANCHOR3
 5626 0018 00000000 		.word	.LANCHOR4
 5627              		.cfi_endproc
 5628              	.LFE358:
 5629              		.size	lispif_disable_all_events, .-lispif_disable_all_events
 5630              		.section	.text.lispif_load_vesc_extensions,"ax",%progbits
 5631              		.align	1
 5632              		.p2align 4,,15
 5633              		.global	lispif_load_vesc_extensions
 5634              		.syntax unified
 5635              		.thumb
 5636              		.thumb_func
 5637              		.fpu fpv4-sp-d16
 5638              		.type	lispif_load_vesc_extensions, %function
 5639              	lispif_load_vesc_extensions:
 5640              	.LFB359:
 5641              		.loc 1 691 0
 5642              		.cfi_startproc
 5643              		@ args = 0, pretend = 0, frame = 0
ARM GAS  /tmp/ccEbIy6V.s 			page 100


 5644              		@ frame_needed = 0, uses_anonymous_args = 0
 5645 0000 08B5     		push	{r3, lr}
 5646              		.cfi_def_cfa_offset 8
 5647              		.cfi_offset 3, -8
 5648              		.cfi_offset 14, -4
 5649              		.loc 1 692 0
 5650 0002 6F49     		ldr	r1, .L833
 5651 0004 6F48     		ldr	r0, .L833+4
 5652 0006 FFF7FEFF 		bl	lbm_add_symbol_const
 5653              	.LVL646:
 5654              		.loc 1 693 0
 5655 000a 6F49     		ldr	r1, .L833+8
 5656 000c 6F48     		ldr	r0, .L833+12
 5657 000e FFF7FEFF 		bl	lbm_add_symbol_const
 5658              	.LVL647:
 5659              		.loc 1 696 0
 5660 0012 6F49     		ldr	r1, .L833+16
 5661 0014 6F48     		ldr	r0, .L833+20
 5662 0016 FFF7FEFF 		bl	lbm_add_extension
 5663              	.LVL648:
 5664              		.loc 1 697 0
 5665 001a 6F49     		ldr	r1, .L833+24
 5666 001c 6F48     		ldr	r0, .L833+28
 5667 001e FFF7FEFF 		bl	lbm_add_extension
 5668              	.LVL649:
 5669              		.loc 1 698 0
 5670 0022 6F49     		ldr	r1, .L833+32
 5671 0024 6F48     		ldr	r0, .L833+36
 5672 0026 FFF7FEFF 		bl	lbm_add_extension
 5673              	.LVL650:
 5674              		.loc 1 699 0
 5675 002a 6F49     		ldr	r1, .L833+40
 5676 002c 6F48     		ldr	r0, .L833+44
 5677 002e FFF7FEFF 		bl	lbm_add_extension
 5678              	.LVL651:
 5679              		.loc 1 700 0
 5680 0032 6F49     		ldr	r1, .L833+48
 5681 0034 6F48     		ldr	r0, .L833+52
 5682 0036 FFF7FEFF 		bl	lbm_add_extension
 5683              	.LVL652:
 5684              		.loc 1 701 0
 5685 003a 6F49     		ldr	r1, .L833+56
 5686 003c 6F48     		ldr	r0, .L833+60
 5687 003e FFF7FEFF 		bl	lbm_add_extension
 5688              	.LVL653:
 5689              		.loc 1 702 0
 5690 0042 6F49     		ldr	r1, .L833+64
 5691 0044 6F48     		ldr	r0, .L833+68
 5692 0046 FFF7FEFF 		bl	lbm_add_extension
 5693              	.LVL654:
 5694              		.loc 1 703 0
 5695 004a 6F49     		ldr	r1, .L833+72
 5696 004c 6F48     		ldr	r0, .L833+76
 5697 004e FFF7FEFF 		bl	lbm_add_extension
 5698              	.LVL655:
 5699              		.loc 1 704 0
 5700 0052 6F49     		ldr	r1, .L833+80
ARM GAS  /tmp/ccEbIy6V.s 			page 101


 5701 0054 6F48     		ldr	r0, .L833+84
 5702 0056 FFF7FEFF 		bl	lbm_add_extension
 5703              	.LVL656:
 5704              		.loc 1 705 0
 5705 005a 6F49     		ldr	r1, .L833+88
 5706 005c 6F48     		ldr	r0, .L833+92
 5707 005e FFF7FEFF 		bl	lbm_add_extension
 5708              	.LVL657:
 5709              		.loc 1 706 0
 5710 0062 6F49     		ldr	r1, .L833+96
 5711 0064 6F48     		ldr	r0, .L833+100
 5712 0066 FFF7FEFF 		bl	lbm_add_extension
 5713              	.LVL658:
 5714              		.loc 1 707 0
 5715 006a 6F49     		ldr	r1, .L833+104
 5716 006c 6F48     		ldr	r0, .L833+108
 5717 006e FFF7FEFF 		bl	lbm_add_extension
 5718              	.LVL659:
 5719              		.loc 1 708 0
 5720 0072 6F49     		ldr	r1, .L833+112
 5721 0074 6F48     		ldr	r0, .L833+116
 5722 0076 FFF7FEFF 		bl	lbm_add_extension
 5723              	.LVL660:
 5724              		.loc 1 709 0
 5725 007a 6F49     		ldr	r1, .L833+120
 5726 007c 6F48     		ldr	r0, .L833+124
 5727 007e FFF7FEFF 		bl	lbm_add_extension
 5728              	.LVL661:
 5729              		.loc 1 710 0
 5730 0082 6F49     		ldr	r1, .L833+128
 5731 0084 6F48     		ldr	r0, .L833+132
 5732 0086 FFF7FEFF 		bl	lbm_add_extension
 5733              	.LVL662:
 5734              		.loc 1 713 0
 5735 008a 6F49     		ldr	r1, .L833+136
 5736 008c 6F48     		ldr	r0, .L833+140
 5737 008e FFF7FEFF 		bl	lbm_add_extension
 5738              	.LVL663:
 5739              		.loc 1 714 0
 5740 0092 6F49     		ldr	r1, .L833+144
 5741 0094 6F48     		ldr	r0, .L833+148
 5742 0096 FFF7FEFF 		bl	lbm_add_extension
 5743              	.LVL664:
 5744              		.loc 1 715 0
 5745 009a 6F49     		ldr	r1, .L833+152
 5746 009c 6F48     		ldr	r0, .L833+156
 5747 009e FFF7FEFF 		bl	lbm_add_extension
 5748              	.LVL665:
 5749              		.loc 1 716 0
 5750 00a2 6F49     		ldr	r1, .L833+160
 5751 00a4 6F48     		ldr	r0, .L833+164
 5752 00a6 FFF7FEFF 		bl	lbm_add_extension
 5753              	.LVL666:
 5754              		.loc 1 717 0
 5755 00aa 6F49     		ldr	r1, .L833+168
 5756 00ac 6F48     		ldr	r0, .L833+172
 5757 00ae FFF7FEFF 		bl	lbm_add_extension
ARM GAS  /tmp/ccEbIy6V.s 			page 102


 5758              	.LVL667:
 5759              		.loc 1 718 0
 5760 00b2 6F49     		ldr	r1, .L833+176
 5761 00b4 6F48     		ldr	r0, .L833+180
 5762 00b6 FFF7FEFF 		bl	lbm_add_extension
 5763              	.LVL668:
 5764              		.loc 1 719 0
 5765 00ba 6F49     		ldr	r1, .L833+184
 5766 00bc 6F48     		ldr	r0, .L833+188
 5767 00be FFF7FEFF 		bl	lbm_add_extension
 5768              	.LVL669:
 5769              		.loc 1 720 0
 5770 00c2 6F49     		ldr	r1, .L833+192
 5771 00c4 6F48     		ldr	r0, .L833+196
 5772 00c6 FFF7FEFF 		bl	lbm_add_extension
 5773              	.LVL670:
 5774              		.loc 1 721 0
 5775 00ca 6F49     		ldr	r1, .L833+200
 5776 00cc 6F48     		ldr	r0, .L833+204
 5777 00ce FFF7FEFF 		bl	lbm_add_extension
 5778              	.LVL671:
 5779              		.loc 1 724 0
 5780 00d2 6F49     		ldr	r1, .L833+208
 5781 00d4 6F48     		ldr	r0, .L833+212
 5782 00d6 FFF7FEFF 		bl	lbm_add_extension
 5783              	.LVL672:
 5784              		.loc 1 725 0
 5785 00da 6F49     		ldr	r1, .L833+216
 5786 00dc 6F48     		ldr	r0, .L833+220
 5787 00de FFF7FEFF 		bl	lbm_add_extension
 5788              	.LVL673:
 5789              		.loc 1 726 0
 5790 00e2 6F49     		ldr	r1, .L833+224
 5791 00e4 6F48     		ldr	r0, .L833+228
 5792 00e6 FFF7FEFF 		bl	lbm_add_extension
 5793              	.LVL674:
 5794              		.loc 1 727 0
 5795 00ea 6F49     		ldr	r1, .L833+232
 5796 00ec 6F48     		ldr	r0, .L833+236
 5797 00ee FFF7FEFF 		bl	lbm_add_extension
 5798              	.LVL675:
 5799              		.loc 1 728 0
 5800 00f2 6F49     		ldr	r1, .L833+240
 5801 00f4 6F48     		ldr	r0, .L833+244
 5802 00f6 FFF7FEFF 		bl	lbm_add_extension
 5803              	.LVL676:
 5804              		.loc 1 729 0
 5805 00fa 6F49     		ldr	r1, .L833+248
 5806 00fc 6F48     		ldr	r0, .L833+252
 5807 00fe FFF7FEFF 		bl	lbm_add_extension
 5808              	.LVL677:
 5809              		.loc 1 730 0
 5810 0102 6F49     		ldr	r1, .L833+256
 5811 0104 6F48     		ldr	r0, .L833+260
 5812 0106 FFF7FEFF 		bl	lbm_add_extension
 5813              	.LVL678:
 5814              		.loc 1 731 0
ARM GAS  /tmp/ccEbIy6V.s 			page 103


 5815 010a 6F49     		ldr	r1, .L833+264
 5816 010c 6F48     		ldr	r0, .L833+268
 5817 010e FFF7FEFF 		bl	lbm_add_extension
 5818              	.LVL679:
 5819              		.loc 1 732 0
 5820 0112 6F49     		ldr	r1, .L833+272
 5821 0114 6F48     		ldr	r0, .L833+276
 5822 0116 FFF7FEFF 		bl	lbm_add_extension
 5823              	.LVL680:
 5824              		.loc 1 733 0
 5825 011a 6F49     		ldr	r1, .L833+280
 5826 011c 6F48     		ldr	r0, .L833+284
 5827 011e FFF7FEFF 		bl	lbm_add_extension
 5828              	.LVL681:
 5829              		.loc 1 734 0
 5830 0122 6F49     		ldr	r1, .L833+288
 5831 0124 6F48     		ldr	r0, .L833+292
 5832 0126 FFF7FEFF 		bl	lbm_add_extension
 5833              	.LVL682:
 5834              		.loc 1 737 0
 5835 012a 6F49     		ldr	r1, .L833+296
 5836 012c 6F48     		ldr	r0, .L833+300
 5837 012e FFF7FEFF 		bl	lbm_add_extension
 5838              	.LVL683:
 5839              		.loc 1 738 0
 5840 0132 6F49     		ldr	r1, .L833+304
 5841 0134 6F48     		ldr	r0, .L833+308
 5842 0136 FFF7FEFF 		bl	lbm_add_extension
 5843              	.LVL684:
 5844              		.loc 1 739 0
 5845 013a 6F49     		ldr	r1, .L833+312
 5846 013c 6F48     		ldr	r0, .L833+316
 5847 013e FFF7FEFF 		bl	lbm_add_extension
 5848              	.LVL685:
 5849              		.loc 1 740 0
 5850 0142 6F49     		ldr	r1, .L833+320
 5851 0144 6F48     		ldr	r0, .L833+324
 5852 0146 FFF7FEFF 		bl	lbm_add_extension
 5853              	.LVL686:
 5854              		.loc 1 741 0
 5855 014a 6F49     		ldr	r1, .L833+328
 5856 014c 6F48     		ldr	r0, .L833+332
 5857 014e FFF7FEFF 		bl	lbm_add_extension
 5858              	.LVL687:
 5859              		.loc 1 742 0
 5860 0152 6F49     		ldr	r1, .L833+336
 5861 0154 6F48     		ldr	r0, .L833+340
 5862 0156 FFF7FEFF 		bl	lbm_add_extension
 5863              	.LVL688:
 5864              		.loc 1 743 0
 5865 015a 6F49     		ldr	r1, .L833+344
 5866 015c 6F48     		ldr	r0, .L833+348
 5867 015e FFF7FEFF 		bl	lbm_add_extension
 5868              	.LVL689:
 5869              		.loc 1 745 0
 5870 0162 6F49     		ldr	r1, .L833+352
 5871 0164 6F48     		ldr	r0, .L833+356
ARM GAS  /tmp/ccEbIy6V.s 			page 104


 5872 0166 FFF7FEFF 		bl	lbm_add_extension
 5873              	.LVL690:
 5874              		.loc 1 746 0
 5875 016a 6F49     		ldr	r1, .L833+360
 5876 016c 6F48     		ldr	r0, .L833+364
 5877 016e FFF7FEFF 		bl	lbm_add_extension
 5878              	.LVL691:
 5879              		.loc 1 748 0
 5880 0172 6F49     		ldr	r1, .L833+368
 5881 0174 6F48     		ldr	r0, .L833+372
 5882 0176 FFF7FEFF 		bl	lbm_add_extension
 5883              	.LVL692:
 5884              		.loc 1 749 0
 5885 017a 6F49     		ldr	r1, .L833+376
 5886 017c 6F48     		ldr	r0, .L833+380
 5887 017e FFF7FEFF 		bl	lbm_add_extension
 5888              	.LVL693:
 5889              		.loc 1 752 0
 5890 0182 6F49     		ldr	r1, .L833+384
 5891 0184 6F48     		ldr	r0, .L833+388
 5892 0186 FFF7FEFF 		bl	lbm_add_extension
 5893              	.LVL694:
 5894              		.loc 1 753 0
 5895 018a 6F49     		ldr	r1, .L833+392
 5896 018c 6F48     		ldr	r0, .L833+396
 5897 018e FFF7FEFF 		bl	lbm_add_extension
 5898              	.LVL695:
 5899              		.loc 1 754 0
 5900 0192 6F49     		ldr	r1, .L833+400
 5901 0194 6F48     		ldr	r0, .L833+404
 5902 0196 FFF7FEFF 		bl	lbm_add_extension
 5903              	.LVL696:
 5904              		.loc 1 755 0
 5905 019a 6F49     		ldr	r1, .L833+408
 5906 019c 6F48     		ldr	r0, .L833+412
 5907 019e FFF7FEFF 		bl	lbm_add_extension
 5908              	.LVL697:
 5909              		.loc 1 756 0
 5910 01a2 6F49     		ldr	r1, .L833+416
 5911 01a4 6F48     		ldr	r0, .L833+420
 5912 01a6 FFF7FEFF 		bl	lbm_add_extension
 5913              	.LVL698:
 5914              		.loc 1 759 0
 5915 01aa 6F49     		ldr	r1, .L833+424
 5916 01ac 6F48     		ldr	r0, .L833+428
 5917 01ae FFF7FEFF 		bl	lbm_add_extension
 5918              	.LVL699:
 5919              		.loc 1 760 0
 5920 01b2 6F49     		ldr	r1, .L833+432
 5921 01b4 6F48     		ldr	r0, .L833+436
 5922              		.loc 1 761 0
 5923 01b6 BDE80840 		pop	{r3, lr}
 5924              		.cfi_restore 14
 5925              		.cfi_restore 3
 5926              		.cfi_def_cfa_offset 0
 5927              		.loc 1 760 0
 5928 01ba FFF7FEBF 		b	lbm_add_extension
ARM GAS  /tmp/ccEbIy6V.s 			page 105


 5929              	.LVL700:
 5930              	.L834:
 5931 01be 00BF     		.align	2
 5932              	.L833:
 5933 01c0 00000000 		.word	.LANCHOR6
 5934 01c4 00000000 		.word	.LC28
 5935 01c8 00000000 		.word	.LANCHOR5
 5936 01cc 10000000 		.word	.LC29
 5937 01d0 00000000 		.word	ext_print
 5938 01d4 20000000 		.word	.LC30
 5939 01d8 00000000 		.word	ext_reset_timeout
 5940 01dc 28000000 		.word	.LC31
 5941 01e0 00000000 		.word	ext_get_ppm
 5942 01e4 38000000 		.word	.LC32
 5943 01e8 00000000 		.word	ext_get_encoder
 5944 01ec 40000000 		.word	.LC33
 5945 01f0 00000000 		.word	ext_set_servo
 5946 01f4 4C000000 		.word	.LC34
 5947 01f8 00000000 		.word	ext_get_vin
 5948 01fc 58000000 		.word	.LC35
 5949 0200 00000000 		.word	ext_select_motor
 5950 0204 60000000 		.word	.LC36
 5951 0208 00000000 		.word	ext_get_selected_motor
 5952 020c 70000000 		.word	.LC37
 5953 0210 00000000 		.word	ext_get_bms_val
 5954 0214 84000000 		.word	.LC38
 5955 0218 00000000 		.word	ext_get_adc
 5956 021c 90000000 		.word	.LC39
 5957 0220 00000000 		.word	ext_systime
 5958 0224 98000000 		.word	.LC40
 5959 0228 00000000 		.word	ext_secs_since
 5960 022c A0000000 		.word	.LC41
 5961 0230 00000000 		.word	ext_set_aux
 5962 0234 AC000000 		.word	.LC42
 5963 0238 00000000 		.word	ext_register_event_handler
 5964 023c B4000000 		.word	.LC43
 5965 0240 00000000 		.word	ext_enable_event
 5966 0244 CC000000 		.word	.LC44
 5967 0248 00000000 		.word	ext_set_current
 5968 024c DC000000 		.word	.LC45
 5969 0250 00000000 		.word	ext_set_current_rel
 5970 0254 E8000000 		.word	.LC46
 5971 0258 00000000 		.word	ext_set_duty
 5972 025c F8000000 		.word	.LC47
 5973 0260 00000000 		.word	ext_set_brake
 5974 0264 04010000 		.word	.LC48
 5975 0268 00000000 		.word	ext_set_brake_rel
 5976 026c 10010000 		.word	.LC49
 5977 0270 00000000 		.word	ext_set_handbrake
 5978 0274 20010000 		.word	.LC50
 5979 0278 00000000 		.word	ext_set_handbrake_rel
 5980 027c 30010000 		.word	.LC51
 5981 0280 00000000 		.word	ext_set_rpm
 5982 0284 44010000 		.word	.LC52
 5983 0288 00000000 		.word	ext_set_pos
 5984 028c 4C010000 		.word	.LC53
 5985 0290 00000000 		.word	ext_get_current
ARM GAS  /tmp/ccEbIy6V.s 			page 106


 5986 0294 54010000 		.word	.LC54
 5987 0298 00000000 		.word	ext_get_current_dir
 5988 029c 60010000 		.word	.LC55
 5989 02a0 00000000 		.word	ext_get_current_in
 5990 02a4 70010000 		.word	.LC56
 5991 02a8 00000000 		.word	ext_get_duty
 5992 02ac 80010000 		.word	.LC57
 5993 02b0 00000000 		.word	ext_get_rpm
 5994 02b4 8C010000 		.word	.LC58
 5995 02b8 00000000 		.word	ext_get_temp_fet
 5996 02bc 94010000 		.word	.LC59
 5997 02c0 00000000 		.word	ext_get_temp_mot
 5998 02c4 A4010000 		.word	.LC60
 5999 02c8 00000000 		.word	ext_get_speed
 6000 02cc B4010000 		.word	.LC61
 6001 02d0 00000000 		.word	ext_get_dist
 6002 02d4 C0010000 		.word	.LC62
 6003 02d8 00000000 		.word	ext_get_batt
 6004 02dc CC010000 		.word	.LC63
 6005 02e0 00000000 		.word	ext_get_fault
 6006 02e4 D8010000 		.word	.LC64
 6007 02e8 00000000 		.word	ext_can_current
 6008 02ec E4010000 		.word	.LC65
 6009 02f0 00000000 		.word	ext_can_current_rel
 6010 02f4 F4010000 		.word	.LC66
 6011 02f8 00000000 		.word	ext_can_duty
 6012 02fc 08020000 		.word	.LC67
 6013 0300 00000000 		.word	ext_can_brake
 6014 0304 14020000 		.word	.LC68
 6015 0308 00000000 		.word	ext_can_brake_rel
 6016 030c 24020000 		.word	.LC69
 6017 0310 00000000 		.word	ext_can_rpm
 6018 0314 38020000 		.word	.LC70
 6019 0318 00000000 		.word	ext_can_pos
 6020 031c 44020000 		.word	.LC71
 6021 0320 00000000 		.word	ext_can_get_current
 6022 0324 50020000 		.word	.LC72
 6023 0328 00000000 		.word	ext_can_get_current_dir
 6024 032c 60020000 		.word	.LC73
 6025 0330 00000000 		.word	ext_can_send_sid
 6026 0334 74020000 		.word	.LC74
 6027 0338 00000000 		.word	ext_can_send_eid
 6028 033c 84020000 		.word	.LC75
 6029 0340 00000000 		.word	ext_sin
 6030 0344 94020000 		.word	.LC76
 6031 0348 00000000 		.word	ext_cos
 6032 034c 98020000 		.word	.LC77
 6033 0350 00000000 		.word	ext_atan
 6034 0354 9C020000 		.word	.LC78
 6035 0358 00000000 		.word	ext_atan2
 6036 035c A4020000 		.word	.LC79
 6037 0360 00000000 		.word	ext_pow
 6038 0364 AC020000 		.word	.LC80
 6039 0368 00000000 		.word	ext_bits_enc_int
 6040 036c B0020000 		.word	.LC81
 6041 0370 00000000 		.word	ext_bits_dec_int
 6042 0374 C0020000 		.word	.LC82
ARM GAS  /tmp/ccEbIy6V.s 			page 107


 6043              		.cfi_endproc
 6044              	.LFE359:
 6045              		.size	lispif_load_vesc_extensions, .-lispif_load_vesc_extensions
 6046              		.section	.bss.event_can_eid_en,"aw",%nobits
 6047              		.set	.LANCHOR4,. + 0
 6048              		.type	event_can_eid_en, %object
 6049              		.size	event_can_eid_en, 1
 6050              	event_can_eid_en:
 6051 0000 00       		.space	1
 6052              		.section	.bss.event_can_sid_en,"aw",%nobits
 6053              		.set	.LANCHOR3,. + 0
 6054              		.type	event_can_sid_en, %object
 6055              		.size	event_can_sid_en, 1
 6056              	event_can_sid_en:
 6057 0000 00       		.space	1
 6058              		.section	.bss.event_handler_pid,"aw",%nobits
 6059              		.align	2
 6060              		.set	.LANCHOR2,. + 0
 6061              		.type	event_handler_pid, %object
 6062              		.size	event_handler_pid, 4
 6063              	event_handler_pid:
 6064 0000 00000000 		.space	4
 6065              		.section	.bss.event_handler_registered,"aw",%nobits
 6066              		.set	.LANCHOR1,. + 0
 6067              		.type	event_handler_registered, %object
 6068              		.size	event_handler_registered, 1
 6069              	event_handler_registered:
 6070 0000 00       		.space	1
 6071              		.section	.bss.output.14785,"aw",%nobits
 6072              		.align	2
 6073              		.set	.LANCHOR0,. + 0
 6074              		.type	output.14785, %object
 6075              		.size	output.14785, 256
 6076              	output.14785:
 6077 0000 00000000 		.space	256
 6077      00000000 
 6077      00000000 
 6077      00000000 
 6077      00000000 
 6078              		.section	.bss.sym_signal_can_eid,"aw",%nobits
 6079              		.align	2
 6080              		.set	.LANCHOR5,. + 0
 6081              		.type	sym_signal_can_eid, %object
 6082              		.size	sym_signal_can_eid, 4
 6083              	sym_signal_can_eid:
 6084 0000 00000000 		.space	4
 6085              		.section	.bss.sym_signal_can_sid,"aw",%nobits
 6086              		.align	2
 6087              		.set	.LANCHOR6,. + 0
 6088              		.type	sym_signal_can_sid, %object
 6089              		.size	sym_signal_can_sid, 4
 6090              	sym_signal_can_sid:
 6091 0000 00000000 		.space	4
 6092              		.section	.rodata.ext_enable_event.str1.4,"aMS",%progbits,1
 6093              		.align	2
 6094              	.LC3:
 6095 0000 6576656E 		.ascii	"event-can-sid\000"
ARM GAS  /tmp/ccEbIy6V.s 			page 108


 6095      742D6361 
 6095      6E2D7369 
 6095      6400
 6096 000e 0000     		.space	2
 6097              	.LC4:
 6098 0010 6576656E 		.ascii	"event-can-eid\000"
 6098      742D6361 
 6098      6E2D6569 
 6098      6400
 6099              		.section	.rodata.ext_get_bms_val.str1.4,"aMS",%progbits,1
 6100              		.align	2
 6101              	.LC5:
 6102 0000 765F746F 		.ascii	"v_tot\000"
 6102      7400
 6103 0006 0000     		.space	2
 6104              	.LC6:
 6105 0008 765F6368 		.ascii	"v_charge\000"
 6105      61726765 
 6105      00
 6106 0011 000000   		.space	3
 6107              	.LC7:
 6108 0014 695F696E 		.ascii	"i_in\000"
 6108      00
 6109 0019 000000   		.space	3
 6110              	.LC8:
 6111 001c 695F696E 		.ascii	"i_in_ic\000"
 6111      5F696300 
 6112              	.LC9:
 6113 0024 61685F63 		.ascii	"ah_cnt\000"
 6113      6E7400
 6114 002b 00       		.space	1
 6115              	.LC10:
 6116 002c 77685F63 		.ascii	"wh_cnt\000"
 6116      6E7400
 6117 0033 00       		.space	1
 6118              	.LC11:
 6119 0034 63656C6C 		.ascii	"cell_num\000"
 6119      5F6E756D 
 6119      00
 6120 003d 000000   		.space	3
 6121              	.LC12:
 6122 0040 765F6365 		.ascii	"v_cell\000"
 6122      6C6C00
 6123 0047 00       		.space	1
 6124              	.LC13:
 6125 0048 62616C5F 		.ascii	"bal_state\000"
 6125      73746174 
 6125      6500
 6126 0052 0000     		.space	2
 6127              	.LC14:
 6128 0054 74656D70 		.ascii	"temp_adc_num\000"
 6128      5F616463 
 6128      5F6E756D 
 6128      00
 6129 0061 000000   		.space	3
 6130              	.LC15:
 6131 0064 74656D70 		.ascii	"temps_adc\000"
ARM GAS  /tmp/ccEbIy6V.s 			page 109


 6131      735F6164 
 6131      6300
 6132 006e 0000     		.space	2
 6133              	.LC16:
 6134 0070 74656D70 		.ascii	"temp_ic\000"
 6134      5F696300 
 6135              	.LC17:
 6136 0078 74656D70 		.ascii	"temp_hum\000"
 6136      5F68756D 
 6136      00
 6137 0081 000000   		.space	3
 6138              	.LC18:
 6139 0084 68756D00 		.ascii	"hum\000"
 6140              	.LC19:
 6141 0088 74656D70 		.ascii	"temp_max_cell\000"
 6141      5F6D6178 
 6141      5F63656C 
 6141      6C00
 6142 0096 0000     		.space	2
 6143              	.LC20:
 6144 0098 736F6300 		.ascii	"soc\000"
 6145              	.LC21:
 6146 009c 736F6800 		.ascii	"soh\000"
 6147              	.LC22:
 6148 00a0 63616E5F 		.ascii	"can_id\000"
 6148      696400
 6149 00a7 00       		.space	1
 6150              	.LC23:
 6151 00a8 61685F63 		.ascii	"ah_cnt_chg_total\000"
 6151      6E745F63 
 6151      68675F74 
 6151      6F74616C 
 6151      00
 6152 00b9 000000   		.space	3
 6153              	.LC24:
 6154 00bc 77685F63 		.ascii	"wh_cnt_chg_total\000"
 6154      6E745F63 
 6154      68675F74 
 6154      6F74616C 
 6154      00
 6155 00cd 000000   		.space	3
 6156              	.LC25:
 6157 00d0 61685F63 		.ascii	"ah_cnt_dis_total\000"
 6157      6E745F64 
 6157      69735F74 
 6157      6F74616C 
 6157      00
 6158 00e1 000000   		.space	3
 6159              	.LC26:
 6160 00e4 77685F63 		.ascii	"wh_cnt_dis_total\000"
 6160      6E745F64 
 6160      69735F74 
 6160      6F74616C 
 6160      00
 6161 00f5 000000   		.space	3
 6162              	.LC27:
 6163 00f8 6D73675F 		.ascii	"msg_age\000"
ARM GAS  /tmp/ccEbIy6V.s 			page 110


 6163      61676500 
 6164              		.section	.rodata.ext_print.str1.4,"aMS",%progbits,1
 6165              		.align	2
 6166              	.LC0:
 6167 0000 257300   		.ascii	"%s\000"
 6168 0003 00       		.space	1
 6169              	.LC1:
 6170 0004 2000     		.ascii	" \000"
 6171 0006 0000     		.space	2
 6172              	.LC2:
 6173 0008 256300   		.ascii	"%c\000"
 6174              		.section	.rodata.lispif_load_vesc_extensions.str1.4,"aMS",%progbits,1
 6175              		.align	2
 6176              	.LC28:
 6177 0000 7369676E 		.ascii	"signal-can-sid\000"
 6177      616C2D63 
 6177      616E2D73 
 6177      696400
 6178 000f 00       		.space	1
 6179              	.LC29:
 6180 0010 7369676E 		.ascii	"signal-can-eid\000"
 6180      616C2D63 
 6180      616E2D65 
 6180      696400
 6181 001f 00       		.space	1
 6182              	.LC30:
 6183 0020 7072696E 		.ascii	"print\000"
 6183      7400
 6184 0026 0000     		.space	2
 6185              	.LC31:
 6186 0028 74696D65 		.ascii	"timeout-reset\000"
 6186      6F75742D 
 6186      72657365 
 6186      7400
 6187 0036 0000     		.space	2
 6188              	.LC32:
 6189 0038 6765742D 		.ascii	"get-ppm\000"
 6189      70706D00 
 6190              	.LC33:
 6191 0040 6765742D 		.ascii	"get-encoder\000"
 6191      656E636F 
 6191      64657200 
 6192              	.LC34:
 6193 004c 7365742D 		.ascii	"set-servo\000"
 6193      73657276 
 6193      6F00
 6194 0056 0000     		.space	2
 6195              	.LC35:
 6196 0058 6765742D 		.ascii	"get-vin\000"
 6196      76696E00 
 6197              	.LC36:
 6198 0060 73656C65 		.ascii	"select-motor\000"
 6198      63742D6D 
 6198      6F746F72 
 6198      00
 6199 006d 000000   		.space	3
 6200              	.LC37:
ARM GAS  /tmp/ccEbIy6V.s 			page 111


 6201 0070 6765742D 		.ascii	"get-selected-motor\000"
 6201      73656C65 
 6201      63746564 
 6201      2D6D6F74 
 6201      6F7200
 6202 0083 00       		.space	1
 6203              	.LC38:
 6204 0084 6765742D 		.ascii	"get-bms-val\000"
 6204      626D732D 
 6204      76616C00 
 6205              	.LC39:
 6206 0090 6765742D 		.ascii	"get-adc\000"
 6206      61646300 
 6207              	.LC40:
 6208 0098 73797374 		.ascii	"systime\000"
 6208      696D6500 
 6209              	.LC41:
 6210 00a0 73656373 		.ascii	"secs-since\000"
 6210      2D73696E 
 6210      636500
 6211 00ab 00       		.space	1
 6212              	.LC42:
 6213 00ac 7365742D 		.ascii	"set-aux\000"
 6213      61757800 
 6214              	.LC43:
 6215 00b4 6576656E 		.ascii	"event-register-handler\000"
 6215      742D7265 
 6215      67697374 
 6215      65722D68 
 6215      616E646C 
 6216 00cb 00       		.space	1
 6217              	.LC44:
 6218 00cc 6576656E 		.ascii	"event-enable\000"
 6218      742D656E 
 6218      61626C65 
 6218      00
 6219 00d9 000000   		.space	3
 6220              	.LC45:
 6221 00dc 7365742D 		.ascii	"set-current\000"
 6221      63757272 
 6221      656E7400 
 6222              	.LC46:
 6223 00e8 7365742D 		.ascii	"set-current-rel\000"
 6223      63757272 
 6223      656E742D 
 6223      72656C00 
 6224              	.LC47:
 6225 00f8 7365742D 		.ascii	"set-duty\000"
 6225      64757479 
 6225      00
 6226 0101 000000   		.space	3
 6227              	.LC48:
 6228 0104 7365742D 		.ascii	"set-brake\000"
 6228      6272616B 
 6228      6500
 6229 010e 0000     		.space	2
 6230              	.LC49:
ARM GAS  /tmp/ccEbIy6V.s 			page 112


 6231 0110 7365742D 		.ascii	"set-brake-rel\000"
 6231      6272616B 
 6231      652D7265 
 6231      6C00
 6232 011e 0000     		.space	2
 6233              	.LC50:
 6234 0120 7365742D 		.ascii	"set-handbrake\000"
 6234      68616E64 
 6234      6272616B 
 6234      6500
 6235 012e 0000     		.space	2
 6236              	.LC51:
 6237 0130 7365742D 		.ascii	"set-handbrake-rel\000"
 6237      68616E64 
 6237      6272616B 
 6237      652D7265 
 6237      6C00
 6238 0142 0000     		.space	2
 6239              	.LC52:
 6240 0144 7365742D 		.ascii	"set-rpm\000"
 6240      72706D00 
 6241              	.LC53:
 6242 014c 7365742D 		.ascii	"set-pos\000"
 6242      706F7300 
 6243              	.LC54:
 6244 0154 6765742D 		.ascii	"get-current\000"
 6244      63757272 
 6244      656E7400 
 6245              	.LC55:
 6246 0160 6765742D 		.ascii	"get-current-dir\000"
 6246      63757272 
 6246      656E742D 
 6246      64697200 
 6247              	.LC56:
 6248 0170 6765742D 		.ascii	"get-current-in\000"
 6248      63757272 
 6248      656E742D 
 6248      696E00
 6249 017f 00       		.space	1
 6250              	.LC57:
 6251 0180 6765742D 		.ascii	"get-duty\000"
 6251      64757479 
 6251      00
 6252 0189 000000   		.space	3
 6253              	.LC58:
 6254 018c 6765742D 		.ascii	"get-rpm\000"
 6254      72706D00 
 6255              	.LC59:
 6256 0194 6765742D 		.ascii	"get-temp-fet\000"
 6256      74656D70 
 6256      2D666574 
 6256      00
 6257 01a1 000000   		.space	3
 6258              	.LC60:
 6259 01a4 6765742D 		.ascii	"get-temp-mot\000"
 6259      74656D70 
 6259      2D6D6F74 
ARM GAS  /tmp/ccEbIy6V.s 			page 113


 6259      00
 6260 01b1 000000   		.space	3
 6261              	.LC61:
 6262 01b4 6765742D 		.ascii	"get-speed\000"
 6262      73706565 
 6262      6400
 6263 01be 0000     		.space	2
 6264              	.LC62:
 6265 01c0 6765742D 		.ascii	"get-dist\000"
 6265      64697374 
 6265      00
 6266 01c9 000000   		.space	3
 6267              	.LC63:
 6268 01cc 6765742D 		.ascii	"get-batt\000"
 6268      62617474 
 6268      00
 6269 01d5 000000   		.space	3
 6270              	.LC64:
 6271 01d8 6765742D 		.ascii	"get-fault\000"
 6271      6661756C 
 6271      7400
 6272 01e2 0000     		.space	2
 6273              	.LC65:
 6274 01e4 63616E73 		.ascii	"canset-current\000"
 6274      65742D63 
 6274      75727265 
 6274      6E7400
 6275 01f3 00       		.space	1
 6276              	.LC66:
 6277 01f4 63616E73 		.ascii	"canset-current-rel\000"
 6277      65742D63 
 6277      75727265 
 6277      6E742D72 
 6277      656C00
 6278 0207 00       		.space	1
 6279              	.LC67:
 6280 0208 63616E73 		.ascii	"canset-duty\000"
 6280      65742D64 
 6280      75747900 
 6281              	.LC68:
 6282 0214 63616E73 		.ascii	"canset-brake\000"
 6282      65742D62 
 6282      72616B65 
 6282      00
 6283 0221 000000   		.space	3
 6284              	.LC69:
 6285 0224 63616E73 		.ascii	"canset-brake-rel\000"
 6285      65742D62 
 6285      72616B65 
 6285      2D72656C 
 6285      00
 6286 0235 000000   		.space	3
 6287              	.LC70:
 6288 0238 63616E73 		.ascii	"canset-rpm\000"
 6288      65742D72 
 6288      706D00
 6289 0243 00       		.space	1
ARM GAS  /tmp/ccEbIy6V.s 			page 114


 6290              	.LC71:
 6291 0244 63616E73 		.ascii	"canset-pos\000"
 6291      65742D70 
 6291      6F7300
 6292 024f 00       		.space	1
 6293              	.LC72:
 6294 0250 63616E67 		.ascii	"canget-current\000"
 6294      65742D63 
 6294      75727265 
 6294      6E7400
 6295 025f 00       		.space	1
 6296              	.LC73:
 6297 0260 63616E67 		.ascii	"canget-current-dir\000"
 6297      65742D63 
 6297      75727265 
 6297      6E742D64 
 6297      697200
 6298 0273 00       		.space	1
 6299              	.LC74:
 6300 0274 63616E2D 		.ascii	"can-send-sid\000"
 6300      73656E64 
 6300      2D736964 
 6300      00
 6301 0281 000000   		.space	3
 6302              	.LC75:
 6303 0284 63616E2D 		.ascii	"can-send-eid\000"
 6303      73656E64 
 6303      2D656964 
 6303      00
 6304 0291 000000   		.space	3
 6305              	.LC76:
 6306 0294 73696E00 		.ascii	"sin\000"
 6307              	.LC77:
 6308 0298 636F7300 		.ascii	"cos\000"
 6309              	.LC78:
 6310 029c 6174616E 		.ascii	"atan\000"
 6310      00
 6311 02a1 000000   		.space	3
 6312              	.LC79:
 6313 02a4 6174616E 		.ascii	"atan2\000"
 6313      3200
 6314 02aa 0000     		.space	2
 6315              	.LC80:
 6316 02ac 706F7700 		.ascii	"pow\000"
 6317              	.LC81:
 6318 02b0 62697473 		.ascii	"bits-enc-int\000"
 6318      2D656E63 
 6318      2D696E74 
 6318      00
 6319 02bd 000000   		.space	3
 6320              	.LC82:
 6321 02c0 62697473 		.ascii	"bits-dec-int\000"
 6321      2D646563 
 6321      2D696E74 
 6321      00
 6322              		.text
 6323              	.Letext0:
ARM GAS  /tmp/ccEbIy6V.s 			page 115


 6324              		.file 4 "/usr/arm-none-eabi/include/machine/_default_types.h"
 6325              		.file 5 "/usr/arm-none-eabi/include/sys/_stdint.h"
 6326              		.file 6 "/usr/lib/gcc/arm-none-eabi/7.3.1/include/stddef.h"
 6327              		.file 7 "/usr/arm-none-eabi/include/sys/lock.h"
 6328              		.file 8 "/usr/arm-none-eabi/include/sys/_types.h"
 6329              		.file 9 "/usr/arm-none-eabi/include/sys/reent.h"
 6330              		.file 10 "lispBM/lispBM/include/lbm_types.h"
 6331              		.file 11 "/usr/arm-none-eabi/include/stdlib.h"
 6332              		.file 12 "ChibiOS_3.0.5/os/rt/ports/ARMCMx/compilers/GCC/chtypes.h"
 6333              		.file 13 "ChibiOS_3.0.5/os/rt/include/chsystypes.h"
 6334              		.file 14 "ChibiOS_3.0.5/os/rt/include/chschd.h"
 6335              		.file 15 "ChibiOS_3.0.5/os/ext/CMSIS/include/core_cm4.h"
 6336              		.file 16 "ChibiOS_3.0.5/os/ext/CMSIS/ST/system_stm32f4xx.h"
 6337              		.file 17 "ChibiOS_3.0.5/os/ext/CMSIS/ST/stm32f407xx.h"
 6338              		.file 18 "ChibiOS_3.0.5/os/rt/ports/ARMCMx/chcore.h"
 6339              		.file 19 "ChibiOS_3.0.5/os/rt/ports/ARMCMx/chcore_v7m.h"
 6340              		.file 20 "ChibiOS_3.0.5/os/rt/include/chtm.h"
 6341              		.file 21 "ChibiOS_3.0.5/os/rt/include/chsem.h"
 6342              		.file 22 "ChibiOS_3.0.5/os/rt/include/chmtx.h"
 6343              		.file 23 "ChibiOS_3.0.5/os/rt/include/chregistry.h"
 6344              		.file 24 "ChibiOS_3.0.5/os/rt/include/chevents.h"
 6345              		.file 25 "ChibiOS_3.0.5/os/rt/include/chqueues.h"
 6346              		.file 26 "./datatypes.h"
 6347              		.file 27 "./commands.h"
 6348              		.file 28 "./conf_general.h"
 6349              		.file 29 "./mc_interface.h"
 6350              		.file 30 "ChibiOS_3.0.5/os/hal/ports/STM32/STM32F4xx/stm32_dma.h"
 6351              		.file 31 "ChibiOS_3.0.5/os/hal/ports/STM32/LLD/GPIOv2/pal_lld.h"
 6352              		.file 32 "ChibiOS_3.0.5/os/hal/include/can.h"
 6353              		.file 33 "ChibiOS_3.0.5/os/hal/ports/STM32/LLD/can_lld.h"
 6354              		.file 34 "ChibiOS_3.0.5/os/hal/include/i2c.h"
 6355              		.file 35 "ChibiOS_3.0.5/os/hal/ports/STM32/LLD/I2Cv1/i2c_lld.h"
 6356              		.file 36 "ChibiOS_3.0.5/os/hal/include/icu.h"
 6357              		.file 37 "ChibiOS_3.0.5/os/hal/ports/STM32/LLD/TIMv1/icu_lld.h"
 6358              		.file 38 "ChibiOS_3.0.5/os/hal/ports/STM32/LLD/TIMv1/stm32_tim.h"
 6359              		.file 39 "ChibiOS_3.0.5/os/hal/include/serial.h"
 6360              		.file 40 "ChibiOS_3.0.5/os/hal/ports/STM32/LLD/USARTv1/serial_lld.h"
 6361              		.file 41 "ChibiOS_3.0.5/os/hal/include/spi.h"
 6362              		.file 42 "ChibiOS_3.0.5/os/hal/ports/STM32/LLD/SPIv1/spi_lld.h"
 6363              		.file 43 "ChibiOS_3.0.5/os/hal/include/usb.h"
 6364              		.file 44 "ChibiOS_3.0.5/os/hal/ports/STM32/LLD/OTGv1/usb_lld.h"
 6365              		.file 45 "ChibiOS_3.0.5/os/hal/ports/STM32/LLD/OTGv1/stm32_otg.h"
 6366              		.file 46 "./utils.h"
 6367              		.file 47 "/usr/arm-none-eabi/include/math.h"
 6368              		.file 48 "lispBM/lispBM/include/symrepr.h"
 6369              		.file 49 "lispBM/lispBM/include/extensions.h"
 6370              		.file 50 "lispBM/lispBM/include/lbm_c_interop.h"
 6371              		.file 51 "lispBM/lispBM/include/eval_cps.h"
 6372              		.file 52 "ChibiOS_3.0.5/os/rt/include/chthreads.h"
 6373              		.file 53 "./encoder.h"
 6374              		.file 54 "./servo_dec.h"
 6375              		.file 55 "./timeout.h"
 6376              		.file 56 "lispBM/lispBM/include/print.h"
 6377              		.file 57 "./comm_can.h"
 6378              		.file 58 "/usr/arm-none-eabi/include/string.h"
 6379              		.file 59 "./servo_simple.h"
 6380              		.file 60 "./bms.h"
ARM GAS  /tmp/ccEbIy6V.s 			page 116

