ARM GAS  /tmp/cchUFGpm.s 			page 1


   1              		.cpu cortex-m4
   2              		.eabi_attribute 27, 1
   3              		.eabi_attribute 28, 1
   4              		.eabi_attribute 20, 1
   5              		.eabi_attribute 21, 1
   6              		.eabi_attribute 23, 3
   7              		.eabi_attribute 24, 1
   8              		.eabi_attribute 25, 1
   9              		.eabi_attribute 26, 1
  10              		.eabi_attribute 30, 2
  11              		.eabi_attribute 34, 1
  12              		.eabi_attribute 18, 4
  13              		.file	"lispbm.c"
  14              		.text
  15              	.Ltext0:
  16              		.cfi_sections	.debug_frame
  17              		.section	.text.lbm_init,"ax",%progbits
  18              		.align	1
  19              		.p2align 4,,15
  20              		.global	lbm_init
  21              		.syntax unified
  22              		.thumb
  23              		.thumb_func
  24              		.fpu fpv4-sp-d16
  25              		.type	lbm_init, %function
  26              	lbm_init:
  27              	.LFB46:
  28              		.file 1 "lispBM/lispBM/src/lispbm.c"
  29              		.loc 1 22 0
  30              		.cfi_startproc
  31              		@ args = 8, pretend = 0, frame = 0
  32              		@ frame_needed = 0, uses_anonymous_args = 0
  33              	.LVL0:
  34 0000 38B5     		push	{r3, r4, r5, lr}
  35              		.cfi_def_cfa_offset 16
  36              		.cfi_offset 3, -16
  37              		.cfi_offset 4, -12
  38              		.cfi_offset 5, -8
  39              		.cfi_offset 14, -4
  40              		.loc 1 22 0
  41 0002 0446     		mov	r4, r0
  42 0004 0D46     		mov	r5, r1
  43              		.loc 1 25 0
  44 0006 1046     		mov	r0, r2
  45              	.LVL1:
  46 0008 1946     		mov	r1, r3
  47              	.LVL2:
  48 000a DDE90423 		ldrd	r2, r3, [sp, #16]
  49              	.LVL3:
  50 000e FFF7FEFF 		bl	lbm_memory_init
  51              	.LVL4:
  52 0012 08B9     		cbnz	r0, .L2
  53              	.L4:
  54              		.loc 1 27 0
  55 0014 0020     		movs	r0, #0
  56              		.loc 1 45 0
  57 0016 38BD     		pop	{r3, r4, r5, pc}
ARM GAS  /tmp/cchUFGpm.s 			page 2


  58              	.LVL5:
  59              	.L2:
  60              		.loc 1 29 0
  61 0018 FFF7FEFF 		bl	lbm_symrepr_init
  62              	.LVL6:
  63 001c 0028     		cmp	r0, #0
  64 001e F9D0     		beq	.L4
  65              		.loc 1 32 0
  66 0020 2946     		mov	r1, r5
  67 0022 2046     		mov	r0, r4
  68 0024 FFF7FEFF 		bl	lbm_heap_init
  69              	.LVL7:
  70 0028 0028     		cmp	r0, #0
  71 002a F3D0     		beq	.L4
  72              		.loc 1 35 0
  73 002c FFF7FEFF 		bl	lbm_init_env
  74              	.LVL8:
  75 0030 0028     		cmp	r0, #0
  76 0032 EFD0     		beq	.L4
  77              		.loc 1 38 0
  78 0034 FFF7FEFF 		bl	lbm_eval_init
  79              	.LVL9:
  80 0038 0028     		cmp	r0, #0
  81 003a EBD0     		beq	.L4
  82              		.loc 1 41 0
  83 003c FFF7FEFF 		bl	lbm_extensions_init
  84              	.LVL10:
  85 0040 0030     		adds	r0, r0, #0
  86 0042 18BF     		it	ne
  87 0044 0120     		movne	r0, #1
  88              		.loc 1 45 0
  89 0046 38BD     		pop	{r3, r4, r5, pc}
  90              		.cfi_endproc
  91              	.LFE46:
  92              		.size	lbm_init, .-lbm_init
  93              		.text
  94              	.Letext0:
  95              		.file 2 "/usr/arm-none-eabi/include/machine/_default_types.h"
  96              		.file 3 "/usr/arm-none-eabi/include/sys/lock.h"
  97              		.file 4 "/usr/arm-none-eabi/include/sys/_types.h"
  98              		.file 5 "/usr/lib/gcc/arm-none-eabi/7.3.1/include/stddef.h"
  99              		.file 6 "/usr/arm-none-eabi/include/sys/reent.h"
 100              		.file 7 "/usr/arm-none-eabi/include/sys/_stdint.h"
 101              		.file 8 "lispBM/lispBM/include/lbm_types.h"
 102              		.file 9 "lispBM/lispBM/include/heap.h"
 103              		.file 10 "/usr/arm-none-eabi/include/stdlib.h"
 104              		.file 11 "lispBM/lispBM/include/lbm_memory.h"
 105              		.file 12 "lispBM/lispBM/include/symrepr.h"
 106              		.file 13 "lispBM/lispBM/include/env.h"
 107              		.file 14 "lispBM/lispBM/include/eval_cps.h"
 108              		.file 15 "lispBM/lispBM/include/extensions.h"