ARM GAS  /tmp/ccafjxle.s 			page 1


   1              		.cpu cortex-m4
   2              		.eabi_attribute 27, 1
   3              		.eabi_attribute 28, 1
   4              		.eabi_attribute 20, 1
   5              		.eabi_attribute 21, 1
   6              		.eabi_attribute 23, 3
   7              		.eabi_attribute 24, 1
   8              		.eabi_attribute 25, 1
   9              		.eabi_attribute 26, 1
  10              		.eabi_attribute 30, 2
  11              		.eabi_attribute 34, 1
  12              		.eabi_attribute 18, 4
  13              		.file	"lsm6ds3.c"
  14              		.text
  15              	.Ltext0:
  16              		.cfi_sections	.debug_frame
  17              		.section	.text.lsm6ds3_thread,"ax",%progbits
  18              		.align	1
  19              		.p2align 4,,15
  20              		.syntax unified
  21              		.thumb
  22              		.thumb_func
  23              		.fpu fpv4-sp-d16
  24              		.type	lsm6ds3_thread, %function
  25              	lsm6ds3_thread:
  26              	.LFB265:
  27              		.file 1 "imu/lsm6ds3.c"
  28              		.loc 1 159 0
  29              		.cfi_startproc
  30              		@ args = 0, pretend = 0, frame = 56
  31              		@ frame_needed = 0, uses_anonymous_args = 0
  32              	.LVL0:
  33 0000 2DE9F04F 		push	{r4, r5, r6, r7, r8, r9, r10, fp, lr}
  34              		.cfi_def_cfa_offset 36
  35              		.cfi_offset 4, -36
  36              		.cfi_offset 5, -32
  37              		.cfi_offset 6, -28
  38              		.cfi_offset 7, -24
  39              		.cfi_offset 8, -20
  40              		.cfi_offset 9, -16
  41              		.cfi_offset 10, -12
  42              		.cfi_offset 11, -8
  43              		.cfi_offset 14, -4
  44              	.LBB14:
  45              	.LBB15:
  46              		.file 2 "ChibiOS_3.0.5/os/rt/include/chregistry.h"
  47              		.loc 2 135 0
  48 0004 6F4F     		ldr	r7, .L15
  49 0006 7049     		ldr	r1, .L15+4
  50 0008 BB69     		ldr	r3, [r7, #24]
  51              	.LBE15:
  52              	.LBE14:
  53              		.loc 1 159 0
  54 000a 2DED048B 		vpush.64	{d8, d9}
  55              		.cfi_def_cfa_offset 52
  56              		.cfi_offset 80, -52
  57              		.cfi_offset 81, -48
ARM GAS  /tmp/ccafjxle.s 			page 2


  58              		.cfi_offset 82, -44
  59              		.cfi_offset 83, -40
  60              		.loc 1 163 0
  61 000e 93F82120 		ldrb	r2, [r3, #33]	@ zero_extendqisi2
  62              	.LBB17:
  63              	.LBB16:
  64              		.loc 2 135 0
  65 0012 9961     		str	r1, [r3, #24]
  66              	.LBE16:
  67              	.LBE17:
  68              		.loc 1 163 0
  69 0014 5207     		lsls	r2, r2, #29
  70              		.loc 1 159 0
  71 0016 91B0     		sub	sp, sp, #68
  72              		.cfi_def_cfa_offset 120
  73              		.loc 1 163 0
  74 0018 00F1CE80 		bmi	.L1
  75 001c 6B4E     		ldr	r6, .L15+8
  76 001e DFF8C881 		ldr	r8, .L15+36
  77              	.LBB18:
  78              		.loc 1 171 0
  79 0022 6B4D     		ldr	r5, .L15+12
  80              		.loc 1 181 0
  81 0024 9FED6B9A 		vldr.32	s18, .L15+16
  82 0028 9FED6B8A 		vldr.32	s16, .L15+20
  83              		.loc 1 178 0
  84 002c DFED6B8A 		vldr.32	s17, .L15+24
  85 0030 04AC     		add	r4, sp, #16
  86              	.LVL1:
  87              	.L4:
  88              		.loc 1 171 0
  89 0032 4FF00109 		mov	r9, #1
  90              		.loc 1 169 0
  91 0036 44F2124C 		movw	ip, #17426
  92              		.loc 1 171 0
  93 003a 3188     		ldrh	r1, [r6]
  94 003c 0094     		str	r4, [sp]
  95 003e 0223     		movs	r3, #2
  96 0040 03AA     		add	r2, sp, #12
  97 0042 CDF80490 		str	r9, [sp, #4]
  98 0046 2846     		mov	r0, r5
  99              		.loc 1 169 0
 100 0048 ADF80CC0 		strh	ip, [sp, #12]	@ movhi
 101              		.loc 1 171 0
 102 004c FFF7FEFF 		bl	i2c_bb_tx_rx
 103              	.LVL2:
 104              		.loc 1 175 0
 105 0050 0C22     		movs	r2, #12
 106 0052 4B46     		mov	r3, r9
 107 0054 0192     		str	r2, [sp, #4]
 108              		.loc 1 174 0
 109 0056 4FF0220C 		mov	ip, #34
 110              		.loc 1 175 0
 111 005a 3188     		ldrh	r1, [r6]
 112 005c 0094     		str	r4, [sp]
 113 005e 6A44     		add	r2, sp, r2
 114 0060 2846     		mov	r0, r5
ARM GAS  /tmp/ccafjxle.s 			page 3


 115              		.loc 1 174 0
 116 0062 8DF80CC0 		strb	ip, [sp, #12]
 117              		.loc 1 175 0
 118 0066 FFF7FEFF 		bl	i2c_bb_tx_rx
 119              	.LVL3:
 120              	.LBB19:
 121              		.loc 1 186 0
 122 006a DFF880A1 		ldr	r10, .L15+40
 123              	.LBE19:
 124              		.loc 1 181 0
 125 006e F2EE007A 		vmov.f32	s15, #8.0e+0
 126              		.loc 1 178 0
 127 0072 F3EE006A 		vmov.f32	s13, #1.6e+1
 128              	.LBB20:
 129              		.loc 1 186 0
 130 0076 0DAB     		add	r3, sp, #52
 131              	.LBE20:
 132              		.loc 1 185 0
 133 0078 0028     		cmp	r0, #0
 134 007a 00F08180 		beq	.L3
 135              		.loc 1 185 0 is_stmt 0 discriminator 1
 136 007e 584A     		ldr	r2, .L15+28
 137 0080 D2F80090 		ldr	r9, [r2]
 138 0084 B9F1000F 		cmp	r9, #0
 139 0088 7AD0     		beq	.L3
 140              		.loc 1 178 0 is_stmt 1
 141 008a 9DF811E0 		ldrb	lr, [sp, #17]	@ zero_extendqisi2
 142 008e 9DF810B0 		ldrb	fp, [sp, #16]	@ zero_extendqisi2
 143              		.loc 1 179 0
 144 0092 9DF813C0 		ldrb	ip, [sp, #19]	@ zero_extendqisi2
 145              		.loc 1 180 0
 146 0096 9DF81500 		ldrb	r0, [sp, #21]	@ zero_extendqisi2
 147              	.LVL4:
 148              		.loc 1 182 0
 149 009a 9DF81910 		ldrb	r1, [sp, #25]	@ zero_extendqisi2
 150              		.loc 1 183 0
 151 009e 9DF81B20 		ldrb	r2, [sp, #27]	@ zero_extendqisi2
 152              		.loc 1 178 0
 153 00a2 4FEA0E2E 		lsl	lr, lr, #8
 154 00a6 0BFA8EFE 		sxtah	lr, fp, lr
 155 00aa 04EE10EA 		vmov	s8, lr	@ int
 156              		.loc 1 179 0
 157 00ae 9DF812E0 		ldrb	lr, [sp, #18]	@ zero_extendqisi2
 158 00b2 4FEA0C2C 		lsl	ip, ip, #8
 159 00b6 0EFA8CFC 		sxtah	ip, lr, ip
 160              		.loc 1 180 0
 161 00ba 9DF814E0 		ldrb	lr, [sp, #20]	@ zero_extendqisi2
 162 00be 0002     		lsls	r0, r0, #8
 163              		.loc 1 179 0
 164 00c0 04EE90CA 		vmov	s9, ip	@ int
 165              		.loc 1 180 0
 166 00c4 0EFA80F0 		sxtah	r0, lr, r0
 167              		.loc 1 182 0
 168 00c8 9DF818C0 		ldrb	ip, [sp, #24]	@ zero_extendqisi2
 169              		.loc 1 180 0
 170 00cc 06EE100A 		vmov	s12, r0	@ int
 171              		.loc 1 182 0
ARM GAS  /tmp/ccafjxle.s 			page 4


 172 00d0 0902     		lsls	r1, r1, #8
 173              		.loc 1 183 0
 174 00d2 9DF81A00 		ldrb	r0, [sp, #26]	@ zero_extendqisi2
 175              		.loc 1 182 0
 176 00d6 0CFA81F1 		sxtah	r1, ip, r1
 177              		.loc 1 183 0
 178 00da 1202     		lsls	r2, r2, #8
 179 00dc 00FA82F2 		sxtah	r2, r0, r2
 180              		.loc 1 182 0
 181 00e0 05EE101A 		vmov	s10, r1	@ int
 182              		.loc 1 181 0
 183 00e4 9DF81600 		ldrb	r0, [sp, #22]	@ zero_extendqisi2
 184 00e8 9DF91710 		ldrsb	r1, [sp, #23]
 185              		.loc 1 183 0
 186 00ec 05EE902A 		vmov	s11, r2	@ int
 187              		.loc 1 181 0
 188 00f0 00EB0122 		add	r2, r0, r1, lsl #8
 189 00f4 07EE102A 		vmov	s14, r2	@ int
 190              		.loc 1 179 0
 191 00f8 F8EEE44A 		vcvt.f32.s32	s9, s9
 192              		.loc 1 178 0
 193 00fc B8EEC44A 		vcvt.f32.s32	s8, s8
 194              		.loc 1 180 0
 195 0100 B8EEC66A 		vcvt.f32.s32	s12, s12
 196              		.loc 1 182 0
 197 0104 B8EEC55A 		vcvt.f32.s32	s10, s10
 198              		.loc 1 183 0
 199 0108 F8EEE55A 		vcvt.f32.s32	s11, s11
 200              		.loc 1 181 0
 201 010c B8EEC77A 		vcvt.f32.s32	s14, s14
 202              		.loc 1 179 0
 203 0110 64EEA84A 		vmul.f32	s9, s9, s17
 204              		.loc 1 180 0
 205 0114 26EE286A 		vmul.f32	s12, s12, s17
 206              		.loc 1 183 0
 207 0118 65EE895A 		vmul.f32	s11, s11, s18
 208              		.loc 1 181 0
 209 011c 27EE097A 		vmul.f32	s14, s14, s18
 210              		.loc 1 179 0
 211 0120 64EEA64A 		vmul.f32	s9, s9, s13
 212              		.loc 1 178 0
 213 0124 24EE284A 		vmul.f32	s8, s8, s17
 214              		.loc 1 182 0
 215 0128 25EE095A 		vmul.f32	s10, s10, s18
 216              		.loc 1 178 0
 217 012c 24EE264A 		vmul.f32	s8, s8, s13
 218              		.loc 1 182 0
 219 0130 25EE275A 		vmul.f32	s10, s10, s15
 220              		.loc 1 180 0
 221 0134 66EE266A 		vmul.f32	s13, s12, s13
 222              		.loc 1 183 0
 223 0138 25EEA76A 		vmul.f32	s12, s11, s15
 224              		.loc 1 181 0
 225 013c 67EE277A 		vmul.f32	s15, s14, s15
 226              		.loc 1 179 0
 227 0140 84EE887A 		vdiv.f32	s14, s9, s16
 228              	.LBB21:
ARM GAS  /tmp/ccafjxle.s 			page 5


 229              		.loc 1 186 0
 230 0144 9AE80700 		ldm	r10, {r0, r1, r2}
 231 0148 83E80700 		stm	r3, {r0, r1, r2}
 232              		.loc 1 187 0
 233 014c 1A46     		mov	r2, r3
 234 014e 0AA9     		add	r1, sp, #40
 235 0150 07A8     		add	r0, sp, #28
 236              	.LBE21:
 237              		.loc 1 178 0
 238 0152 C4EE085A 		vdiv.f32	s11, s8, s16
 239              	.LBB22:
 240              		.loc 1 186 0
 241 0156 8DED0B7A 		vstr.32	s14, [sp, #44]
 242              	.LBE22:
 243              		.loc 1 182 0
 244 015a 85EE087A 		vdiv.f32	s14, s10, s16
 245              	.LBB23:
 246              		.loc 1 186 0
 247 015e CDED0A5A 		vstr.32	s11, [sp, #40]
 248 0162 8DED087A 		vstr.32	s14, [sp, #32]
 249              	.LBE23:
 250              		.loc 1 180 0
 251 0166 C6EE885A 		vdiv.f32	s11, s13, s16
 252              		.loc 1 181 0
 253 016a 87EE887A 		vdiv.f32	s14, s15, s16
 254              		.loc 1 183 0
 255 016e C6EE086A 		vdiv.f32	s13, s12, s16
 256              	.LBB24:
 257              		.loc 1 186 0
 258 0172 CDED0C5A 		vstr.32	s11, [sp, #48]
 259 0176 CDED096A 		vstr.32	s13, [sp, #36]
 260 017a 8DED077A 		vstr.32	s14, [sp, #28]
 261              		.loc 1 187 0
 262 017e C847     		blx	r9
 263              	.LVL5:
 264              	.L3:
 265              	.LBE24:
 266              		.loc 1 191 0 discriminator 1
 267 0180 D8ED007A 		vldr.32	s15, [r8]	@ int
 268 0184 B8EEE77A 		vcvt.f32.s32	s14, s15
 269 0188 42F21073 		movw	r3, #10000
 270 018c C8EE077A 		vdiv.f32	s15, s16, s14
 271 0190 FDEEE77A 		vcvt.s32.f32	s15, s15
 272 0194 17EE900A 		vmov	r0, s15	@ int
 273 0198 03FB00F0 		mul	r0, r3, r0
 274 019c 114B     		ldr	r3, .L15+32
 275 019e 00F2E730 		addw	r0, r0, #999
 276 01a2 A3FB0030 		umull	r3, r0, r3, r0
 277 01a6 8009     		lsrs	r0, r0, #6
 278 01a8 FFF7FEFF 		bl	chThdSleep
 279              	.LVL6:
 280              	.LBE18:
 281              	.LBB25:
 282              	.LBB26:
 283              		.file 3 "ChibiOS_3.0.5/os/rt/include/chthreads.h"
 284              		.loc 3 233 0 discriminator 1
 285 01ac BB69     		ldr	r3, [r7, #24]
ARM GAS  /tmp/ccafjxle.s 			page 6


 286              	.LBE26:
 287              	.LBE25:
 288              		.loc 1 163 0 discriminator 1
 289 01ae 93F82130 		ldrb	r3, [r3, #33]	@ zero_extendqisi2
 290 01b2 5B07     		lsls	r3, r3, #29
 291 01b4 7FF53DAF 		bpl	.L4
 292              	.L1:
 293              		.loc 1 193 0
 294 01b8 11B0     		add	sp, sp, #68
 295              		.cfi_def_cfa_offset 52
 296              		@ sp needed
 297 01ba BDEC048B 		vldm	sp!, {d8-d9}
 298              		.cfi_restore 82
 299              		.cfi_restore 83
 300              		.cfi_restore 80
 301              		.cfi_restore 81
 302              		.cfi_def_cfa_offset 36
 303 01be BDE8F08F 		pop	{r4, r5, r6, r7, r8, r9, r10, fp, pc}
 304              	.L16:
 305 01c2 00BF     		.align	2
 306              	.L15:
 307 01c4 00000000 		.word	ch
 308 01c8 00000000 		.word	.LC1
 309 01cc 00000000 		.word	.LANCHOR0
 310 01d0 00000000 		.word	.LANCHOR1
 311 01d4 23DB793D 		.word	1031396131
 312 01d8 00007A44 		.word	1148846080
 313 01dc 00008C40 		.word	1082916864
 314 01e0 00000000 		.word	.LANCHOR2
 315 01e4 D34D6210 		.word	274877907
 316 01e8 00000000 		.word	.LANCHOR4
 317 01ec 00000000 		.word	.LANCHOR3
 318              		.cfi_endproc
 319              	.LFE265:
 320              		.size	lsm6ds3_thread, .-lsm6ds3_thread
 321              		.section	.text.terminal_read_reg,"ax",%progbits
 322              		.align	1
 323              		.p2align 4,,15
 324              		.syntax unified
 325              		.thumb
 326              		.thumb_func
 327              		.fpu fpv4-sp-d16
 328              		.type	terminal_read_reg, %function
 329              	terminal_read_reg:
 330              	.LFB264:
 331              		.loc 1 139 0
 332              		.cfi_startproc
 333              		@ args = 0, pretend = 0, frame = 24
 334              		@ frame_needed = 0, uses_anonymous_args = 0
 335              	.LVL7:
 336 0000 30B5     		push	{r4, r5, lr}
 337              		.cfi_def_cfa_offset 12
 338              		.cfi_offset 4, -12
 339              		.cfi_offset 5, -8
 340              		.cfi_offset 14, -4
 341              		.loc 1 140 0
 342 0002 0228     		cmp	r0, #2
ARM GAS  /tmp/ccafjxle.s 			page 7


 343              		.loc 1 139 0
 344 0004 89B0     		sub	sp, sp, #36
 345              		.cfi_def_cfa_offset 48
 346              		.loc 1 140 0
 347 0006 04D0     		beq	.L25
 348              		.loc 1 155 0
 349 0008 1948     		ldr	r0, .L26
 350              	.LVL8:
 351 000a FFF7FEFF 		bl	commands_printf
 352              	.LVL9:
 353              		.loc 1 157 0
 354 000e 09B0     		add	sp, sp, #36
 355              		.cfi_remember_state
 356              		.cfi_def_cfa_offset 12
 357              		@ sp needed
 358 0010 30BD     		pop	{r4, r5, pc}
 359              	.LVL10:
 360              	.L25:
 361              		.cfi_restore_state
 362              	.LBB33:
 363              	.LBB34:
 364              		.loc 1 141 0
 365 0012 08AA     		add	r2, sp, #32
 366 0014 4FF0FF33 		mov	r3, #-1
 367 0018 42F8103D 		str	r3, [r2, #-16]!
 368 001c 0446     		mov	r4, r0
 369              		.loc 1 142 0
 370 001e 4868     		ldr	r0, [r1, #4]
 371              	.LVL11:
 372 0020 1449     		ldr	r1, .L26+4
 373              	.LVL12:
 374 0022 FFF7FEFF 		bl	sscanf
 375              	.LVL13:
 376              		.loc 1 144 0
 377 0026 049B     		ldr	r3, [sp, #16]
 378 0028 002B     		cmp	r3, #0
 379 002a 1CDB     		blt	.L19
 380              	.LVL14:
 381              	.LBB35:
 382              		.loc 1 145 0
 383 002c 08AA     		add	r2, sp, #32
 384              	.LBB36:
 385              	.LBB37:
 386              		.loc 1 130 0
 387 002e 1249     		ldr	r1, .L26+8
 388              	.LBE37:
 389              	.LBE36:
 390              		.loc 1 145 0
 391 0030 02F8143D 		strb	r3, [r2, #-20]!
 392              	.LBB40:
 393              	.LBB38:
 394              		.loc 1 130 0
 395 0034 0988     		ldrh	r1, [r1]
 396 0036 0194     		str	r4, [sp, #4]
 397 0038 05AC     		add	r4, sp, #20
 398              	.LVL15:
 399 003a 0094     		str	r4, [sp]
ARM GAS  /tmp/ccafjxle.s 			page 8


 400 003c 0123     		movs	r3, #1
 401              	.LVL16:
 402 003e 0F48     		ldr	r0, .L26+12
 403 0040 FFF7FEFF 		bl	i2c_bb_tx_rx
 404              	.LVL17:
 405              		.loc 1 132 0
 406 0044 68B1     		cbz	r0, .L23
 407              		.loc 1 133 0
 408 0046 9DF81450 		ldrb	r5, [sp, #20]	@ zero_extendqisi2
 409 004a 2846     		mov	r0, r5
 410              	.LVL18:
 411              	.L20:
 412              	.LBE38:
 413              	.LBE40:
 414              		.loc 1 148 0
 415 004c 2146     		mov	r1, r4
 416 004e FFF7FEFF 		bl	utils_byte_to_binary
 417              	.LVL19:
 418              		.loc 1 150 0
 419 0052 2B46     		mov	r3, r5
 420 0054 2246     		mov	r2, r4
 421 0056 0499     		ldr	r1, [sp, #16]
 422 0058 0948     		ldr	r0, .L26+16
 423 005a FFF7FEFF 		bl	commands_printf
 424              	.LVL20:
 425              	.LBE35:
 426              	.LBE34:
 427              	.LBE33:
 428              		.loc 1 157 0
 429 005e 09B0     		add	sp, sp, #36
 430              		.cfi_remember_state
 431              		.cfi_def_cfa_offset 12
 432              		@ sp needed
 433 0060 30BD     		pop	{r4, r5, pc}
 434              	.LVL21:
 435              	.L23:
 436              		.cfi_restore_state
 437              	.LBB44:
 438              	.LBB43:
 439              	.LBB42:
 440              	.LBB41:
 441              	.LBB39:
 442              		.loc 1 132 0
 443 0062 0546     		mov	r5, r0
 444 0064 F2E7     		b	.L20
 445              	.LVL22:
 446              	.L19:
 447              	.LBE39:
 448              	.LBE41:
 449              	.LBE42:
 450              		.loc 1 152 0
 451 0066 0748     		ldr	r0, .L26+20
 452 0068 FFF7FEFF 		bl	commands_printf
 453              	.LVL23:
 454              	.LBE43:
 455              	.LBE44:
 456              		.loc 1 157 0
ARM GAS  /tmp/ccafjxle.s 			page 9


 457 006c 09B0     		add	sp, sp, #36
 458              		.cfi_def_cfa_offset 12
 459              		@ sp needed
 460 006e 30BD     		pop	{r4, r5, pc}
 461              	.LVL24:
 462              	.L27:
 463              		.align	2
 464              	.L26:
 465 0070 38000000 		.word	.LC5
 466 0074 00000000 		.word	.LC2
 467 0078 00000000 		.word	.LANCHOR0
 468 007c 00000000 		.word	.LANCHOR1
 469 0080 04000000 		.word	.LC3
 470 0084 20000000 		.word	.LC4
 471              		.cfi_endproc
 472              	.LFE264:
 473              		.size	terminal_read_reg, .-terminal_read_reg
 474              		.section	.text.lsm6ds3_set_rate_hz,"ax",%progbits
 475              		.align	1
 476              		.p2align 4,,15
 477              		.global	lsm6ds3_set_rate_hz
 478              		.syntax unified
 479              		.thumb
 480              		.thumb_func
 481              		.fpu fpv4-sp-d16
 482              		.type	lsm6ds3_set_rate_hz, %function
 483              	lsm6ds3_set_rate_hz:
 484              	.LFB259:
 485              		.loc 1 42 0
 486              		.cfi_startproc
 487              		@ args = 0, pretend = 0, frame = 0
 488              		@ frame_needed = 0, uses_anonymous_args = 0
 489              		@ link register save eliminated.
 490              	.LVL25:
 491              		.loc 1 43 0
 492 0000 014B     		ldr	r3, .L29
 493 0002 1860     		str	r0, [r3]
 494              		.loc 1 44 0
 495 0004 7047     		bx	lr
 496              	.L30:
 497 0006 00BF     		.align	2
 498              	.L29:
 499 0008 00000000 		.word	.LANCHOR4
 500              		.cfi_endproc
 501              	.LFE259:
 502              		.size	lsm6ds3_set_rate_hz, .-lsm6ds3_set_rate_hz
 503              		.section	.text.lsm6ds3_init,"ax",%progbits
 504              		.align	1
 505              		.p2align 4,,15
 506              		.global	lsm6ds3_init
 507              		.syntax unified
 508              		.thumb
 509              		.thumb_func
 510              		.fpu fpv4-sp-d16
 511              		.type	lsm6ds3_init, %function
 512              	lsm6ds3_init:
 513              	.LFB260:
ARM GAS  /tmp/ccafjxle.s 			page 10


 514              		.loc 1 48 0
 515              		.cfi_startproc
 516              		@ args = 8, pretend = 0, frame = 8
 517              		@ frame_needed = 0, uses_anonymous_args = 0
 518              	.LVL26:
 519 0000 F0B5     		push	{r4, r5, r6, r7, lr}
 520              		.cfi_def_cfa_offset 20
 521              		.cfi_offset 4, -20
 522              		.cfi_offset 5, -16
 523              		.cfi_offset 6, -12
 524              		.cfi_offset 7, -8
 525              		.cfi_offset 14, -4
 526              		.loc 1 52 0
 527 0002 3F4C     		ldr	r4, .L54
 528              		.loc 1 50 0
 529 0004 3F4D     		ldr	r5, .L54+4
 530              		.loc 1 52 0
 531 0006 2060     		str	r0, [r4]
 532              		.loc 1 48 0
 533 0008 85B0     		sub	sp, sp, #20
 534              		.cfi_def_cfa_offset 40
 535              		.loc 1 50 0
 536 000a 0027     		movs	r7, #0
 537              		.loc 1 56 0
 538 000c 2046     		mov	r0, r4
 539              	.LVL27:
 540              		.loc 1 62 0
 541 000e 3E4E     		ldr	r6, .L54+8
 542              		.loc 1 50 0
 543 0010 2F60     		str	r7, [r5]
 544              		.loc 1 54 0
 545 0012 C4E90112 		strd	r1, r2, [r4, #4]
 546              		.loc 1 55 0
 547 0016 E360     		str	r3, [r4, #12]
 548              		.loc 1 61 0
 549 0018 04AD     		add	r5, sp, #16
 550              		.loc 1 56 0
 551 001a FFF7FEFF 		bl	i2c_bb_init
 552              	.LVL28:
 553              		.loc 1 62 0
 554 001e 6A23     		movs	r3, #106
 555 0020 3380     		strh	r3, [r6]	@ movhi
 556              		.loc 1 61 0
 557 0022 0F23     		movs	r3, #15
 558 0024 05F8083D 		strb	r3, [r5, #-8]!
 559              		.loc 1 63 0
 560 0028 03AF     		add	r7, sp, #12
 561 002a 0123     		movs	r3, #1
 562 002c 3188     		ldrh	r1, [r6]
 563 002e 2046     		mov	r0, r4
 564 0030 2A46     		mov	r2, r5
 565 0032 CDE90073 		strd	r7, r3, [sp]
 566 0036 FFF7FEFF 		bl	i2c_bb_tx_rx
 567              	.LVL29:
 568              		.loc 1 64 0
 569 003a 18B1     		cbz	r0, .L32
 570              		.loc 1 64 0 is_stmt 0 discriminator 1
ARM GAS  /tmp/ccafjxle.s 			page 11


 571 003c 9DF80C30 		ldrb	r3, [sp, #12]	@ zero_extendqisi2
 572 0040 692B     		cmp	r3, #105
 573 0042 16D0     		beq	.L33
 574              	.L32:
 575              		.loc 1 65 0 is_stmt 1
 576 0044 3148     		ldr	r0, .L54+12
 577              	.LVL30:
 578 0046 FFF7FEFF 		bl	commands_printf
 579              	.LVL31:
 580              		.loc 1 66 0
 581 004a 6B23     		movs	r3, #107
 582 004c 3380     		strh	r3, [r6]	@ movhi
 583              		.loc 1 67 0
 584 004e 0123     		movs	r3, #1
 585 0050 3188     		ldrh	r1, [r6]
 586 0052 0097     		str	r7, [sp]
 587 0054 0193     		str	r3, [sp, #4]
 588 0056 2A46     		mov	r2, r5
 589 0058 2948     		ldr	r0, .L54
 590 005a FFF7FEFF 		bl	i2c_bb_tx_rx
 591              	.LVL32:
 592              		.loc 1 68 0
 593 005e 18B1     		cbz	r0, .L34
 594              		.loc 1 68 0 is_stmt 0 discriminator 1
 595 0060 9DF80C30 		ldrb	r3, [sp, #12]	@ zero_extendqisi2
 596 0064 692B     		cmp	r3, #105
 597 0066 04D0     		beq	.L33
 598              	.L34:
 599              		.loc 1 69 0 is_stmt 1
 600 0068 2948     		ldr	r0, .L54+16
 601              	.LVL33:
 602 006a FFF7FEFF 		bl	commands_printf
 603              	.LVL34:
 604              	.L31:
 605              		.loc 1 110 0
 606 006e 05B0     		add	sp, sp, #20
 607              		.cfi_remember_state
 608              		.cfi_def_cfa_offset 20
 609              		@ sp needed
 610 0070 F0BD     		pop	{r4, r5, r6, r7, pc}
 611              	.LVL35:
 612              	.L33:
 613              		.cfi_restore_state
 614              		.loc 1 79 0
 615 0072 0124     		movs	r4, #1
 616              		.loc 1 77 0
 617 0074 4AF2104C 		movw	ip, #42000
 618              		.loc 1 79 0
 619 0078 3188     		ldrh	r1, [r6]
 620 007a 0097     		str	r7, [sp]
 621 007c 0194     		str	r4, [sp, #4]
 622 007e 0223     		movs	r3, #2
 623 0080 2A46     		mov	r2, r5
 624 0082 1F48     		ldr	r0, .L54
 625              	.LVL36:
 626              		.loc 1 77 0
 627 0084 ADF808C0 		strh	ip, [sp, #8]	@ movhi
ARM GAS  /tmp/ccafjxle.s 			page 12


 628              		.loc 1 79 0
 629 0088 FFF7FEFF 		bl	i2c_bb_tx_rx
 630              	.LVL37:
 631              		.loc 1 80 0
 632 008c 20B9     		cbnz	r0, .L36
 633              		.loc 1 81 0
 634 008e 2148     		ldr	r0, .L54+20
 635              	.LVL38:
 636 0090 FFF7FEFF 		bl	commands_printf
 637              	.LVL39:
 638              		.loc 1 110 0
 639 0094 05B0     		add	sp, sp, #20
 640              		.cfi_remember_state
 641              		.cfi_def_cfa_offset 20
 642              		@ sp needed
 643 0096 F0BD     		pop	{r4, r5, r6, r7, pc}
 644              	.LVL40:
 645              	.L36:
 646              		.cfi_restore_state
 647              		.loc 1 86 0
 648 0098 48F6114C 		movw	ip, #35857
 649              		.loc 1 88 0
 650 009c 3188     		ldrh	r1, [r6]
 651 009e 1848     		ldr	r0, .L54
 652              	.LVL41:
 653              		.loc 1 86 0
 654 00a0 ADF808C0 		strh	ip, [sp, #8]	@ movhi
 655              		.loc 1 88 0
 656 00a4 CDE90074 		strd	r7, r4, [sp]
 657 00a8 0223     		movs	r3, #2
 658 00aa 2A46     		mov	r2, r5
 659 00ac FFF7FEFF 		bl	i2c_bb_tx_rx
 660              	.LVL42:
 661              		.loc 1 89 0
 662 00b0 80B1     		cbz	r0, .L53
 663              		.loc 1 97 0
 664 00b2 CDE90074 		strd	r7, r4, [sp]
 665 00b6 2346     		mov	r3, r4
 666 00b8 3188     		ldrh	r1, [r6]
 667 00ba 1148     		ldr	r0, .L54
 668              	.LVL43:
 669              		.loc 1 95 0
 670 00bc 48F21304 		movw	r4, #32787
 671              		.loc 1 97 0
 672 00c0 2A46     		mov	r2, r5
 673              		.loc 1 95 0
 674 00c2 ADF80840 		strh	r4, [sp, #8]	@ movhi
 675              		.loc 1 97 0
 676 00c6 FFF7FEFF 		bl	i2c_bb_tx_rx
 677              	.LVL44:
 678              		.loc 1 98 0
 679 00ca 40B9     		cbnz	r0, .L38
 680              		.loc 1 99 0
 681 00cc 1248     		ldr	r0, .L54+24
 682              	.LVL45:
 683 00ce FFF7FEFF 		bl	commands_printf
 684              	.LVL46:
ARM GAS  /tmp/ccafjxle.s 			page 13


 685              		.loc 1 100 0
 686 00d2 CCE7     		b	.L31
 687              	.LVL47:
 688              	.L53:
 689              		.loc 1 90 0
 690 00d4 1148     		ldr	r0, .L54+28
 691              	.LVL48:
 692 00d6 FFF7FEFF 		bl	commands_printf
 693              	.LVL49:
 694              		.loc 1 110 0
 695 00da 05B0     		add	sp, sp, #20
 696              		.cfi_remember_state
 697              		.cfi_def_cfa_offset 20
 698              		@ sp needed
 699 00dc F0BD     		pop	{r4, r5, r6, r7, pc}
 700              	.LVL50:
 701              	.L38:
 702              		.cfi_restore_state
 703              		.loc 1 103 0
 704 00de 104B     		ldr	r3, .L54+32
 705 00e0 104A     		ldr	r2, .L54+36
 706 00e2 1149     		ldr	r1, .L54+40
 707 00e4 1148     		ldr	r0, .L54+44
 708              	.LVL51:
 709 00e6 FFF7FEFF 		bl	terminal_register_command_callback
 710              	.LVL52:
 711              		.loc 1 109 0
 712 00ea 0023     		movs	r3, #0
 713 00ec 0093     		str	r3, [sp]
 714 00ee 4022     		movs	r2, #64
 715 00f0 0F4B     		ldr	r3, .L54+48
 716 00f2 DDE90A01 		ldrd	r0, r1, [sp, #40]
 717 00f6 FFF7FEFF 		bl	chThdCreateStatic
 718              	.LVL53:
 719 00fa 0E4B     		ldr	r3, .L54+52
 720 00fc 1860     		str	r0, [r3]
 721 00fe B6E7     		b	.L31
 722              	.L55:
 723              		.align	2
 724              	.L54:
 725 0100 00000000 		.word	.LANCHOR1
 726 0104 00000000 		.word	.LANCHOR2
 727 0108 00000000 		.word	.LANCHOR0
 728 010c 00000000 		.word	.LC6
 729 0110 24000000 		.word	.LC7
 730 0114 40000000 		.word	.LC8
 731 0118 78000000 		.word	.LC10
 732 011c 5C000000 		.word	.LC9
 733 0120 00000000 		.word	terminal_read_reg
 734 0124 94000000 		.word	.LC11
 735 0128 9C000000 		.word	.LC12
 736 012c BC000000 		.word	.LC13
 737 0130 00000000 		.word	lsm6ds3_thread
 738 0134 00000000 		.word	.LANCHOR5
 739              		.cfi_endproc
 740              	.LFE260:
 741              		.size	lsm6ds3_init, .-lsm6ds3_init
ARM GAS  /tmp/ccafjxle.s 			page 14


 742              		.section	.text.lsm6ds3_stop,"ax",%progbits
 743              		.align	1
 744              		.p2align 4,,15
 745              		.global	lsm6ds3_stop
 746              		.syntax unified
 747              		.thumb
 748              		.thumb_func
 749              		.fpu fpv4-sp-d16
 750              		.type	lsm6ds3_stop, %function
 751              	lsm6ds3_stop:
 752              	.LFB261:
 753              		.loc 1 112 0
 754              		.cfi_startproc
 755              		@ args = 0, pretend = 0, frame = 0
 756              		@ frame_needed = 0, uses_anonymous_args = 0
 757 0000 10B5     		push	{r4, lr}
 758              		.cfi_def_cfa_offset 8
 759              		.cfi_offset 4, -8
 760              		.cfi_offset 14, -4
 761              		.loc 1 113 0
 762 0002 074C     		ldr	r4, .L62
 763 0004 2068     		ldr	r0, [r4]
 764 0006 20B1     		cbz	r0, .L57
 765              		.loc 1 114 0
 766 0008 FFF7FEFF 		bl	chThdTerminate
 767              	.LVL54:
 768              		.loc 1 115 0
 769 000c 2068     		ldr	r0, [r4]
 770 000e FFF7FEFF 		bl	chThdWait
 771              	.LVL55:
 772              	.L57:
 773              		.loc 1 117 0
 774 0012 0023     		movs	r3, #0
 775 0014 2360     		str	r3, [r4]
 776              		.loc 1 118 0
 777 0016 0348     		ldr	r0, .L62+4
 778              		.loc 1 119 0
 779 0018 BDE81040 		pop	{r4, lr}
 780              		.cfi_restore 14
 781              		.cfi_restore 4
 782              		.cfi_def_cfa_offset 0
 783              		.loc 1 118 0
 784 001c FFF7FEBF 		b	terminal_unregister_callback
 785              	.LVL56:
 786              	.L63:
 787              		.align	2
 788              	.L62:
 789 0020 00000000 		.word	.LANCHOR5
 790 0024 00000000 		.word	terminal_read_reg
 791              		.cfi_endproc
 792              	.LFE261:
 793              		.size	lsm6ds3_stop, .-lsm6ds3_stop
 794              		.section	.text.lsm6ds3_set_read_callback,"ax",%progbits
 795              		.align	1
 796              		.p2align 4,,15
 797              		.global	lsm6ds3_set_read_callback
 798              		.syntax unified
ARM GAS  /tmp/ccafjxle.s 			page 15


 799              		.thumb
 800              		.thumb_func
 801              		.fpu fpv4-sp-d16
 802              		.type	lsm6ds3_set_read_callback, %function
 803              	lsm6ds3_set_read_callback:
 804              	.LFB262:
 805              		.loc 1 121 0
 806              		.cfi_startproc
 807              		@ args = 0, pretend = 0, frame = 0
 808              		@ frame_needed = 0, uses_anonymous_args = 0
 809              		@ link register save eliminated.
 810              	.LVL57:
 811              		.loc 1 122 0
 812 0000 014B     		ldr	r3, .L65
 813 0002 1860     		str	r0, [r3]
 814              		.loc 1 123 0
 815 0004 7047     		bx	lr
 816              	.L66:
 817 0006 00BF     		.align	2
 818              	.L65:
 819 0008 00000000 		.word	.LANCHOR2
 820              		.cfi_endproc
 821              	.LFE262:
 822              		.size	lsm6ds3_set_read_callback, .-lsm6ds3_set_read_callback
 823              		.section	.rodata
 824              		.align	2
 825              		.set	.LANCHOR3,. + 0
 826              	.LC0:
 827 0000 0000803F 		.word	1065353216
 828 0004 00000040 		.word	1073741824
 829 0008 00004040 		.word	1077936128
 830              		.section	.bss.lsm6ds3_addr,"aw",%nobits
 831              		.align	1
 832              		.set	.LANCHOR0,. + 0
 833              		.type	lsm6ds3_addr, %object
 834              		.size	lsm6ds3_addr, 2
 835              	lsm6ds3_addr:
 836 0000 0000     		.space	2
 837              		.section	.bss.lsm6ds3_thread_ref,"aw",%nobits
 838              		.align	2
 839              		.set	.LANCHOR5,. + 0
 840              		.type	lsm6ds3_thread_ref, %object
 841              		.size	lsm6ds3_thread_ref, 4
 842              	lsm6ds3_thread_ref:
 843 0000 00000000 		.space	4
 844              		.section	.bss.m_i2c_bb,"aw",%nobits
 845              		.align	2
 846              		.set	.LANCHOR1,. + 0
 847              		.type	m_i2c_bb, %object
 848              		.size	m_i2c_bb, 36
 849              	m_i2c_bb:
 850 0000 00000000 		.space	36
 850      00000000 
 850      00000000 
 850      00000000 
 850      00000000 
 851              		.section	.bss.read_callback,"aw",%nobits
ARM GAS  /tmp/ccafjxle.s 			page 16


 852              		.align	2
 853              		.set	.LANCHOR2,. + 0
 854              		.type	read_callback, %object
 855              		.size	read_callback, 4
 856              	read_callback:
 857 0000 00000000 		.space	4
 858              		.section	.data.rate_hz,"aw",%progbits
 859              		.align	2
 860              		.set	.LANCHOR4,. + 0
 861              		.type	rate_hz, %object
 862              		.size	rate_hz, 4
 863              	rate_hz:
 864 0000 E8030000 		.word	1000
 865              		.section	.rodata.lsm6ds3_init.str1.4,"aMS",%progbits,1
 866              		.align	2
 867              	.LC6:
 868 0000 4C534D36 		.ascii	"LSM6DS3 Address A failed, trying B\000"
 868      44533320 
 868      41646472 
 868      65737320 
 868      41206661 
 869 0023 00       		.space	1
 870              	.LC7:
 871 0024 4C534D36 		.ascii	"LSM6DS3 Address B failed\000"
 871      44533320 
 871      41646472 
 871      65737320 
 871      42206661 
 872 003d 000000   		.space	3
 873              	.LC8:
 874 0040 4C534D36 		.ascii	"LSM6DS3 Accel Config FAILED\000"
 874      44533320 
 874      41636365 
 874      6C20436F 
 874      6E666967 
 875              	.LC9:
 876 005c 4C534D36 		.ascii	"LSM6DS3 Gyro Config FAILED\000"
 876      44533320 
 876      4779726F 
 876      20436F6E 
 876      66696720 
 877 0077 00       		.space	1
 878              	.LC10:
 879 0078 4C534D36 		.ascii	"LSM6DS3 ODR Config FAILED\000"
 879      44533320 
 879      4F445220 
 879      436F6E66 
 879      69672046 
 880 0092 0000     		.space	2
 881              	.LC11:
 882 0094 5B726567 		.ascii	"[reg]\000"
 882      5D00
 883 009a 0000     		.space	2
 884              	.LC12:
 885 009c 52656164 		.ascii	"Read register of the LSM6DS3\000"
 885      20726567 
 885      69737465 
ARM GAS  /tmp/ccafjxle.s 			page 17


 885      72206F66 
 885      20746865 
 886 00b9 000000   		.space	3
 887              	.LC13:
 888 00bc 6C736D5F 		.ascii	"lsm_read_reg\000"
 888      72656164 
 888      5F726567 
 888      00
 889              		.section	.rodata.lsm6ds3_thread.str1.4,"aMS",%progbits,1
 890              		.align	2
 891              	.LC1:
 892 0000 4C534D36 		.ascii	"LSM6SD3 Sampling\000"
 892      53443320 
 892      53616D70 
 892      6C696E67 
 892      00
 893              		.section	.rodata.terminal_read_reg.str1.4,"aMS",%progbits,1
 894              		.align	2
 895              	.LC2:
 896 0000 256400   		.ascii	"%d\000"
 897 0003 00       		.space	1
 898              	.LC3:
 899 0004 52656720 		.ascii	"Reg 0x%02x: %s (0x%02x)\012\000"
 899      30782530 
 899      32783A20 
 899      25732028 
 899      30782530 
 900 001d 000000   		.space	3
 901              	.LC4:
 902 0020 496E7661 		.ascii	"Invalid argument(s).\012\000"
 902      6C696420 
 902      61726775 
 902      6D656E74 
 902      2873292E 
 903 0036 0000     		.space	2
 904              	.LC5:
 905 0038 54686973 		.ascii	"This command requires one argument.\012\000"
 905      20636F6D 
 905      6D616E64 
 905      20726571 
 905      75697265 
 906              		.text
 907              	.Letext0:
 908              		.file 4 "/usr/lib/gcc/arm-none-eabi/7.3.1/include/stddef.h"
 909              		.file 5 "/usr/arm-none-eabi/include/machine/_default_types.h"
 910              		.file 6 "/usr/arm-none-eabi/include/sys/_stdint.h"
 911              		.file 7 "ChibiOS_3.0.5/os/rt/ports/ARMCMx/compilers/GCC/chtypes.h"
 912              		.file 8 "ChibiOS_3.0.5/os/rt/include/chsystypes.h"
 913              		.file 9 "ChibiOS_3.0.5/os/rt/include/chschd.h"
 914              		.file 10 "ChibiOS_3.0.5/os/ext/CMSIS/include/core_cm4.h"
 915              		.file 11 "ChibiOS_3.0.5/os/ext/CMSIS/ST/system_stm32f4xx.h"
 916              		.file 12 "ChibiOS_3.0.5/os/ext/CMSIS/ST/stm32f407xx.h"
 917              		.file 13 "ChibiOS_3.0.5/os/rt/ports/ARMCMx/chcore.h"
 918              		.file 14 "ChibiOS_3.0.5/os/rt/ports/ARMCMx/chcore_v7m.h"
 919              		.file 15 "ChibiOS_3.0.5/os/rt/include/chtm.h"
 920              		.file 16 "ChibiOS_3.0.5/os/rt/include/chsem.h"
 921              		.file 17 "ChibiOS_3.0.5/os/rt/include/chmtx.h"
ARM GAS  /tmp/ccafjxle.s 			page 18


 922              		.file 18 "ChibiOS_3.0.5/os/rt/include/chevents.h"
 923              		.file 19 "ChibiOS_3.0.5/os/rt/include/chqueues.h"
 924              		.file 20 "./datatypes.h"
 925              		.file 21 "./conf_general.h"
 926              		.file 22 "ChibiOS_3.0.5/os/hal/ports/STM32/STM32F4xx/stm32_dma.h"
 927              		.file 23 "ChibiOS_3.0.5/os/hal/ports/STM32/LLD/GPIOv2/pal_lld.h"
 928              		.file 24 "ChibiOS_3.0.5/os/hal/include/can.h"
 929              		.file 25 "ChibiOS_3.0.5/os/hal/ports/STM32/LLD/can_lld.h"
 930              		.file 26 "ChibiOS_3.0.5/os/hal/include/i2c.h"
 931              		.file 27 "ChibiOS_3.0.5/os/hal/ports/STM32/LLD/I2Cv1/i2c_lld.h"
 932              		.file 28 "ChibiOS_3.0.5/os/hal/include/icu.h"
 933              		.file 29 "ChibiOS_3.0.5/os/hal/ports/STM32/LLD/TIMv1/icu_lld.h"
 934              		.file 30 "ChibiOS_3.0.5/os/hal/ports/STM32/LLD/TIMv1/stm32_tim.h"
 935              		.file 31 "ChibiOS_3.0.5/os/hal/include/serial.h"
 936              		.file 32 "ChibiOS_3.0.5/os/hal/ports/STM32/LLD/USARTv1/serial_lld.h"
 937              		.file 33 "ChibiOS_3.0.5/os/hal/include/spi.h"
 938              		.file 34 "ChibiOS_3.0.5/os/hal/ports/STM32/LLD/SPIv1/spi_lld.h"
 939              		.file 35 "ChibiOS_3.0.5/os/hal/include/usb.h"
 940              		.file 36 "ChibiOS_3.0.5/os/hal/ports/STM32/LLD/OTGv1/usb_lld.h"
 941              		.file 37 "ChibiOS_3.0.5/os/hal/ports/STM32/LLD/OTGv1/stm32_otg.h"
 942              		.file 38 "imu/lsm6ds3.h"
 943              		.file 39 "./i2c_bb.h"
 944              		.file 40 "./commands.h"
 945              		.file 41 "./utils.h"
 946              		.file 42 "/usr/arm-none-eabi/include/sys/lock.h"
 947              		.file 43 "/usr/arm-none-eabi/include/sys/_types.h"
 948              		.file 44 "/usr/arm-none-eabi/include/sys/reent.h"
 949              		.file 45 "./terminal.h"
 950              		.file 46 "/usr/arm-none-eabi/include/stdio.h"