ARM GAS  /tmp/ccRkfBQD.s 			page 1


   1              		.cpu cortex-m4
   2              		.eabi_attribute 27, 1
   3              		.eabi_attribute 28, 1
   4              		.eabi_attribute 20, 1
   5              		.eabi_attribute 21, 1
   6              		.eabi_attribute 23, 3
   7              		.eabi_attribute 24, 1
   8              		.eabi_attribute 25, 1
   9              		.eabi_attribute 26, 1
  10              		.eabi_attribute 30, 2
  11              		.eabi_attribute 34, 1
  12              		.eabi_attribute 18, 4
  13              		.file	"main.c"
  14              		.text
  15              	.Ltext0:
  16              		.cfi_sections	.debug_frame
  17              		.section	.text.flash_integrity_check_thread,"ax",%progbits
  18              		.align	1
  19              		.p2align 4,,15
  20              		.syntax unified
  21              		.thumb
  22              		.thumb_func
  23              		.fpu fpv4-sp-d16
  24              		.type	flash_integrity_check_thread, %function
  25              	flash_integrity_check_thread:
  26              	.LFB259:
  27              		.file 1 "main.c"
  28              		.loc 1 88 0
  29              		.cfi_startproc
  30              		@ Volatile: function does not return.
  31              		@ args = 0, pretend = 0, frame = 0
  32              		@ frame_needed = 0, uses_anonymous_args = 0
  33              	.LVL0:
  34 0000 08B5     		push	{r3, lr}
  35              		.cfi_def_cfa_offset 8
  36              		.cfi_offset 3, -8
  37              		.cfi_offset 14, -4
  38              	.LBB24:
  39              	.LBB25:
  40              		.file 2 "ChibiOS_3.0.5/os/rt/include/chregistry.h"
  41              		.loc 2 135 0
  42 0002 0F4B     		ldr	r3, .L7
  43 0004 0F4A     		ldr	r2, .L7+4
  44 0006 9B69     		ldr	r3, [r3, #24]
  45              	.LBE25:
  46              	.LBE24:
  47              		.loc 1 92 0
  48 0008 0121     		movs	r1, #1
  49              	.LBB27:
  50              	.LBB26:
  51              		.loc 2 135 0
  52 000a 9A61     		str	r2, [r3, #24]
  53              	.LVL1:
  54              	.LBE26:
  55              	.LBE27:
  56              		.loc 1 92 0
  57 000c 4FF48050 		mov	r0, #4096
ARM GAS  /tmp/ccRkfBQD.s 			page 2


  58              	.LVL2:
  59 0010 FFF7FEFF 		bl	RCC_AHB1PeriphClockCmd
  60              	.LVL3:
  61 0014 01E0     		b	.L4
  62              	.L2:
  63              		.loc 1 99 0
  64 0016 FFF7FEFF 		bl	chThdSleep
  65              	.LVL4:
  66              	.L4:
  67              		.loc 1 95 0
  68 001a FFF7FEFF 		bl	flash_helper_verify_flash_memory_chunk
  69              	.LVL5:
  70 001e 0E28     		cmp	r0, #14
  71              		.loc 1 99 0
  72 0020 4FF03C00 		mov	r0, #60
  73              		.loc 1 95 0
  74 0024 F7D1     		bne	.L2
  75              	.LBB28:
  76              	.LBB29:
  77              	.LBB30:
  78              	.LBB31:
  79              		.file 3 "ChibiOS_3.0.5/os/ext/CMSIS/include/core_cmInstr.h"
  80              		.loc 3 382 0
  81              		.syntax unified
  82              	@ 382 "ChibiOS_3.0.5/os/ext/CMSIS/include/core_cmInstr.h" 1
  83 0026 BFF34F8F 		dsb
  84              	@ 0 "" 2
  85              		.thumb
  86              		.syntax unified
  87              	.LBE31:
  88              	.LBE30:
  89              		.file 4 "ChibiOS_3.0.5/os/ext/CMSIS/include/core_cm4.h"
  90              		.loc 4 1643 0
  91 002a 0749     		ldr	r1, .L7+8
  92 002c 074B     		ldr	r3, .L7+12
  93 002e CA68     		ldr	r2, [r1, #12]
  94 0030 02F4E062 		and	r2, r2, #1792
  95 0034 1343     		orrs	r3, r3, r2
  96              		.loc 4 1642 0
  97 0036 CB60     		str	r3, [r1, #12]
  98              	.LBB32:
  99              	.LBB33:
 100              		.loc 3 382 0
 101              		.syntax unified
 102              	@ 382 "ChibiOS_3.0.5/os/ext/CMSIS/include/core_cmInstr.h" 1
 103 0038 BFF34F8F 		dsb
 104              	@ 0 "" 2
 105              		.thumb
 106              		.syntax unified
 107              	.L3:
 108 003c FEE7     		b	.L3
 109              	.L8:
 110 003e 00BF     		.align	2
 111              	.L7:
 112 0040 00000000 		.word	ch
 113 0044 00000000 		.word	.LC0
 114 0048 00ED00E0 		.word	-536810240
ARM GAS  /tmp/ccRkfBQD.s 			page 3


 115 004c 0400FA05 		.word	100270084
 116              	.LBE33:
 117              	.LBE32:
 118              	.LBE29:
 119              	.LBE28:
 120              		.cfi_endproc
 121              	.LFE259:
 122              		.size	flash_integrity_check_thread, .-flash_integrity_check_thread
 123              		.section	.text.periodic_thread,"ax",%progbits
 124              		.align	1
 125              		.p2align 4,,15
 126              		.syntax unified
 127              		.thumb
 128              		.thumb_func
 129              		.fpu fpv4-sp-d16
 130              		.type	periodic_thread, %function
 131              	periodic_thread:
 132              	.LFB261:
 133              		.loc 1 149 0
 134              		.cfi_startproc
 135              		@ args = 0, pretend = 0, frame = 0
 136              		@ frame_needed = 0, uses_anonymous_args = 0
 137              	.LVL6:
 138 0000 10B5     		push	{r4, lr}
 139              		.cfi_def_cfa_offset 8
 140              		.cfi_offset 4, -8
 141              		.cfi_offset 14, -4
 142              	.LBB34:
 143              	.LBB35:
 144              		.loc 2 135 0
 145 0002 2B4B     		ldr	r3, .L25
 146 0004 2B4A     		ldr	r2, .L25+4
 147 0006 9B69     		ldr	r3, [r3, #24]
 148              	.LBE35:
 149              	.LBE34:
 150              		.loc 1 149 0
 151 0008 2DED028B 		vpush.64	{d8}
 152              		.cfi_def_cfa_offset 16
 153              		.cfi_offset 80, -16
 154              		.cfi_offset 81, -12
 155              	.LBB37:
 156              	.LBB36:
 157              		.loc 2 135 0
 158 000c 9A61     		str	r2, [r3, #24]
 159 000e 1EE0     		b	.L19
 160              	.LVL7:
 161              	.L24:
 162              	.LBE36:
 163              	.LBE37:
 164              	.LBB38:
 165              		.loc 1 161 0
 166 0010 0528     		cmp	r0, #5
 167 0012 33D0     		beq	.L13
 168 0014 0328     		cmp	r0, #3
 169 0016 2CD0     		beq	.L22
 170              		.loc 1 178 0
 171 0018 FFF7FEFF 		bl	mc_interface_get_configuration
ARM GAS  /tmp/ccRkfBQD.s 			page 4


 172              	.LVL8:
 173 001c 90F88630 		ldrb	r3, [r0, #134]	@ zero_extendqisi2
 174 0020 022B     		cmp	r3, #2
 175 0022 11D1     		bne	.L16
 176              		.loc 1 179 0
 177 0024 022C     		cmp	r4, #2
 178 0026 3DD0     		beq	.L17
 179 0028 062C     		cmp	r4, #6
 180 002a 0DD1     		bne	.L16
 181              		.loc 1 185 0
 182 002c FFF7FEFF 		bl	mcpwm_foc_get_phase_observer
 183              	.LVL9:
 184 0030 B0EE408A 		vmov.f32	s16, s0
 185 0034 FFF7FEFF 		bl	mcpwm_foc_get_phase_encoder
 186              	.LVL10:
 187 0038 F0EE400A 		vmov.f32	s1, s0
 188 003c B0EE480A 		vmov.f32	s0, s16
 189 0040 FFF7FEFF 		bl	utils_angle_difference
 190              	.LVL11:
 191 0044 FFF7FEFF 		bl	commands_send_rotor_pos
 192              	.LVL12:
 193              	.L16:
 194              		.loc 1 193 0
 195 0048 6420     		movs	r0, #100
 196 004a FFF7FEFF 		bl	chThdSleep
 197              	.LVL13:
 198              	.L19:
 199              		.loc 1 155 0
 200 004e FFF7FEFF 		bl	mc_interface_get_state
 201              	.LVL14:
 202 0052 0128     		cmp	r0, #1
 203 0054 21D0     		beq	.L23
 204              	.L10:
 205              		.loc 1 159 0
 206 0056 FFF7FEFF 		bl	commands_get_disp_pos_mode
 207              	.LVL15:
 208              		.loc 1 161 0
 209 005a 0428     		cmp	r0, #4
 210              		.loc 1 159 0
 211 005c 0446     		mov	r4, r0
 212              	.LVL16:
 213              		.loc 1 161 0
 214 005e D7D1     		bne	.L24
 215              		.loc 1 167 0
 216 0060 FFF7FEFF 		bl	mc_interface_get_pid_pos_now
 217              	.LVL17:
 218 0064 FFF7FEFF 		bl	commands_send_rotor_pos
 219              	.LVL18:
 220              	.L15:
 221              		.loc 1 178 0
 222 0068 FFF7FEFF 		bl	mc_interface_get_configuration
 223              	.LVL19:
 224 006c 90F88630 		ldrb	r3, [r0, #134]	@ zero_extendqisi2
 225 0070 EAE7     		b	.L16
 226              	.LVL20:
 227              	.L22:
 228              		.loc 1 163 0
ARM GAS  /tmp/ccRkfBQD.s 			page 5


 229 0072 FFF7FEFF 		bl	encoder_read_deg
 230              	.LVL21:
 231 0076 FFF7FEFF 		bl	commands_send_rotor_pos
 232              	.LVL22:
 233              		.loc 1 164 0
 234 007a F5E7     		b	.L15
 235              	.LVL23:
 236              	.L13:
 237              		.loc 1 171 0
 238 007c FFF7FEFF 		bl	mc_interface_get_pid_pos_set
 239              	.LVL24:
 240 0080 B0EE408A 		vmov.f32	s16, s0
 241 0084 FFF7FEFF 		bl	mc_interface_get_pid_pos_now
 242              	.LVL25:
 243 0088 F0EE400A 		vmov.f32	s1, s0
 244 008c B0EE480A 		vmov.f32	s0, s16
 245 0090 FFF7FEFF 		bl	utils_angle_difference
 246              	.LVL26:
 247 0094 FFF7FEFF 		bl	commands_send_rotor_pos
 248              	.LVL27:
 249              		.loc 1 172 0
 250 0098 E6E7     		b	.L15
 251              	.L23:
 252              		.loc 1 156 0
 253 009a FFF7FEFF 		bl	mcpwm_get_detect_pos
 254              	.LVL28:
 255 009e FFF7FEFF 		bl	commands_send_rotor_pos
 256              	.LVL29:
 257 00a2 D8E7     		b	.L10
 258              	.L17:
 259              		.loc 1 181 0
 260 00a4 FFF7FEFF 		bl	mcpwm_foc_get_phase_observer
 261              	.LVL30:
 262 00a8 FFF7FEFF 		bl	commands_send_rotor_pos
 263              	.LVL31:
 264              		.loc 1 182 0
 265 00ac CCE7     		b	.L16
 266              	.L26:
 267 00ae 00BF     		.align	2
 268              	.L25:
 269 00b0 00000000 		.word	ch
 270 00b4 00000000 		.word	.LC1
 271              	.LBE38:
 272              		.cfi_endproc
 273              	.LFE261:
 274              		.size	periodic_thread, .-periodic_thread
 275              		.section	.text.led_thread,"ax",%progbits
 276              		.align	1
 277              		.p2align 4,,15
 278              		.syntax unified
 279              		.thumb
 280              		.thumb_func
 281              		.fpu fpv4-sp-d16
 282              		.type	led_thread, %function
 283              	led_thread:
 284              	.LFB260:
 285              		.loc 1 103 0
ARM GAS  /tmp/ccRkfBQD.s 			page 6


 286              		.cfi_startproc
 287              		@ args = 0, pretend = 0, frame = 0
 288              		@ frame_needed = 0, uses_anonymous_args = 0
 289              	.LVL32:
 290 0000 70B5     		push	{r4, r5, r6, lr}
 291              		.cfi_def_cfa_offset 16
 292              		.cfi_offset 4, -16
 293              		.cfi_offset 5, -12
 294              		.cfi_offset 6, -8
 295              		.cfi_offset 14, -4
 296              	.LBB39:
 297              	.LBB40:
 298              		.loc 2 135 0
 299 0002 394B     		ldr	r3, .L52
 300 0004 394A     		ldr	r2, .L52+4
 301 0006 9B69     		ldr	r3, [r3, #24]
 302              	.LBE40:
 303              	.LBE39:
 304              		.loc 1 103 0
 305 0008 2DED028B 		vpush.64	{d8}
 306              		.cfi_def_cfa_offset 24
 307              		.cfi_offset 80, -24
 308              		.cfi_offset 81, -20
 309              	.LBB42:
 310              		.loc 1 116 0
 311 000c DFED388A 		vldr.32	s17, .L52+8
 312              	.LBB43:
 313              		.loc 1 127 0
 314 0010 9FED388A 		vldr.32	s16, .L52+12
 315              	.LBE43:
 316              	.LBE42:
 317              	.LBB46:
 318              	.LBB41:
 319              		.loc 2 135 0
 320 0014 9A61     		str	r2, [r3, #24]
 321 0016 1AE0     		b	.L37
 322              	.LVL33:
 323              	.L29:
 324              	.LBE41:
 325              	.LBE46:
 326              	.LBB47:
 327              		.loc 1 116 0
 328 0018 B0EE680A 		vmov.f32	s0, s17
 329 001c 0020     		movs	r0, #0
 330 001e FFF7FEFF 		bl	ledpwm_set_intensity
 331              	.LVL34:
 332              	.L30:
 333              		.loc 1 119 0
 334 0022 FFF7FEFF 		bl	mc_interface_get_fault
 335              	.LVL35:
 336 0026 0646     		mov	r6, r0
 337              	.LVL36:
 338              		.loc 1 120 0
 339 0028 0220     		movs	r0, #2
 340 002a FFF7FEFF 		bl	mc_interface_select_motor_thread
 341              	.LVL37:
 342              		.loc 1 121 0
ARM GAS  /tmp/ccRkfBQD.s 			page 7


 343 002e FFF7FEFF 		bl	mc_interface_get_fault
 344              	.LVL38:
 345 0032 0546     		mov	r5, r0
 346              	.LVL39:
 347              		.loc 1 122 0
 348 0034 0120     		movs	r0, #1
 349 0036 FFF7FEFF 		bl	mc_interface_select_motor_thread
 350              	.LVL40:
 351              		.loc 1 123 0
 352 003a F6B9     		cbnz	r6, .L51
 353              		.loc 1 123 0 is_stmt 0 discriminator 1
 354 003c 9DBB     		cbnz	r5, .L31
 355              		.loc 1 142 0 is_stmt 1
 356 003e B0EE480A 		vmov.f32	s0, s16
 357 0042 0120     		movs	r0, #1
 358 0044 FFF7FEFF 		bl	ledpwm_set_intensity
 359              	.LVL41:
 360              	.L36:
 361              		.loc 1 145 0
 362 0048 6420     		movs	r0, #100
 363 004a FFF7FEFF 		bl	chThdSleep
 364              	.LVL42:
 365              	.L37:
 366              		.loc 1 109 0
 367 004e FFF7FEFF 		bl	mc_interface_get_state
 368              	.LVL43:
 369 0052 0446     		mov	r4, r0
 370              	.LVL44:
 371              		.loc 1 110 0
 372 0054 0220     		movs	r0, #2
 373 0056 FFF7FEFF 		bl	mc_interface_select_motor_thread
 374              	.LVL45:
 375              		.loc 1 111 0
 376 005a FFF7FEFF 		bl	mc_interface_get_state
 377              	.LVL46:
 378 005e 0546     		mov	r5, r0
 379              	.LVL47:
 380              		.loc 1 112 0
 381 0060 0120     		movs	r0, #1
 382 0062 FFF7FEFF 		bl	mc_interface_select_motor_thread
 383              	.LVL48:
 384              		.loc 1 113 0
 385 0066 022C     		cmp	r4, #2
 386 0068 01D0     		beq	.L28
 387              		.loc 1 113 0 is_stmt 0 discriminator 1
 388 006a 022D     		cmp	r5, #2
 389 006c D4D1     		bne	.L29
 390              	.L28:
 391              		.loc 1 114 0 is_stmt 1
 392 006e B7EE000A 		vmov.f32	s0, #1.0e+0
 393 0072 0020     		movs	r0, #0
 394 0074 FFF7FEFF 		bl	ledpwm_set_intensity
 395              	.LVL49:
 396 0078 D3E7     		b	.L30
 397              	.LVL50:
 398              	.L51:
 399              	.LBB44:
ARM GAS  /tmp/ccRkfBQD.s 			page 8


 400              		.loc 1 124 0
 401 007a 0024     		movs	r4, #0
 402              	.LVL51:
 403              	.L33:
 404              		.loc 1 125 0 discriminator 3
 405 007c B7EE000A 		vmov.f32	s0, #1.0e+0
 406 0080 0120     		movs	r0, #1
 407 0082 FFF7FEFF 		bl	ledpwm_set_intensity
 408              	.LVL52:
 409              		.loc 1 126 0 discriminator 3
 410 0086 40F6C410 		movw	r0, #2500
 411 008a FFF7FEFF 		bl	chThdSleep
 412              	.LVL53:
 413              		.loc 1 127 0 discriminator 3
 414 008e 0120     		movs	r0, #1
 415 0090 B0EE480A 		vmov.f32	s0, s16
 416              		.loc 1 124 0 discriminator 3
 417 0094 0444     		add	r4, r4, r0
 418              	.LVL54:
 419              		.loc 1 127 0 discriminator 3
 420 0096 FFF7FEFF 		bl	ledpwm_set_intensity
 421              	.LVL55:
 422              		.loc 1 128 0 discriminator 3
 423 009a 40F6C410 		movw	r0, #2500
 424 009e FFF7FEFF 		bl	chThdSleep
 425              	.LVL56:
 426              		.loc 1 124 0 discriminator 3
 427 00a2 B442     		cmp	r4, r6
 428 00a4 EAD1     		bne	.L33
 429              	.LVL57:
 430              	.L31:
 431              	.LBE44:
 432              		.loc 1 131 0
 433 00a6 41F28830 		movw	r0, #5000
 434 00aa FFF7FEFF 		bl	chThdSleep
 435              	.LVL58:
 436              	.LBB45:
 437              		.loc 1 133 0
 438 00ae ADB1     		cbz	r5, .L34
 439 00b0 0024     		movs	r4, #0
 440              	.LVL59:
 441              	.L35:
 442              		.loc 1 134 0 discriminator 3
 443 00b2 B7EE000A 		vmov.f32	s0, #1.0e+0
 444 00b6 0120     		movs	r0, #1
 445 00b8 FFF7FEFF 		bl	ledpwm_set_intensity
 446              	.LVL60:
 447              		.loc 1 135 0 discriminator 3
 448 00bc 40F6C410 		movw	r0, #2500
 449 00c0 FFF7FEFF 		bl	chThdSleep
 450              	.LVL61:
 451              		.loc 1 136 0 discriminator 3
 452 00c4 0120     		movs	r0, #1
 453 00c6 B0EE480A 		vmov.f32	s0, s16
 454              		.loc 1 133 0 discriminator 3
 455 00ca 0444     		add	r4, r4, r0
 456              	.LVL62:
ARM GAS  /tmp/ccRkfBQD.s 			page 9


 457              		.loc 1 136 0 discriminator 3
 458 00cc FFF7FEFF 		bl	ledpwm_set_intensity
 459              	.LVL63:
 460              		.loc 1 137 0 discriminator 3
 461 00d0 40F6C410 		movw	r0, #2500
 462 00d4 FFF7FEFF 		bl	chThdSleep
 463              	.LVL64:
 464              		.loc 1 133 0 discriminator 3
 465 00d8 AC42     		cmp	r4, r5
 466 00da EAD1     		bne	.L35
 467              	.LVL65:
 468              	.L34:
 469              	.LBE45:
 470              		.loc 1 140 0
 471 00dc 41F28830 		movw	r0, #5000
 472 00e0 FFF7FEFF 		bl	chThdSleep
 473              	.LVL66:
 474 00e4 B0E7     		b	.L36
 475              	.L53:
 476 00e6 00BF     		.align	2
 477              	.L52:
 478 00e8 00000000 		.word	ch
 479 00ec 00000000 		.word	.LC2
 480 00f0 CDCC4C3E 		.word	1045220557
 481 00f4 00000000 		.word	0
 482              	.LBE47:
 483              		.cfi_endproc
 484              	.LFE260:
 485              		.size	led_thread, .-led_thread
 486              		.section	.text.assert_failed,"ax",%progbits
 487              		.align	1
 488              		.p2align 4,,15
 489              		.global	assert_failed
 490              		.syntax unified
 491              		.thumb
 492              		.thumb_func
 493              		.fpu fpv4-sp-d16
 494              		.type	assert_failed, %function
 495              	assert_failed:
 496              	.LFB262:
 497              		.loc 1 198 0
 498              		.cfi_startproc
 499              		@ Volatile: function does not return.
 500              		@ args = 0, pretend = 0, frame = 0
 501              		@ frame_needed = 0, uses_anonymous_args = 0
 502              	.LVL67:
 503              		.loc 1 199 0
 504 0000 0A46     		mov	r2, r1
 505              		.loc 1 198 0
 506 0002 08B5     		push	{r3, lr}
 507              		.cfi_def_cfa_offset 8
 508              		.cfi_offset 3, -8
 509              		.cfi_offset 14, -4
 510              		.loc 1 199 0
 511 0004 0146     		mov	r1, r0
 512              	.LVL68:
 513 0006 0448     		ldr	r0, .L57
ARM GAS  /tmp/ccRkfBQD.s 			page 10


 514              	.LVL69:
 515 0008 FFF7FEFF 		bl	commands_printf
 516              	.LVL70:
 517              		.loc 1 200 0
 518 000c FFF7FEFF 		bl	mc_interface_release_motor
 519              	.LVL71:
 520              	.L55:
 521              		.loc 1 202 0 discriminator 1
 522 0010 0A20     		movs	r0, #10
 523 0012 FFF7FEFF 		bl	chThdSleep
 524              	.LVL72:
 525 0016 FBE7     		b	.L55
 526              	.L58:
 527              		.align	2
 528              	.L57:
 529 0018 00000000 		.word	.LC3
 530              		.cfi_endproc
 531              	.LFE262:
 532              		.size	assert_failed, .-assert_failed
 533              		.section	.text.main_init_done,"ax",%progbits
 534              		.align	1
 535              		.p2align 4,,15
 536              		.global	main_init_done
 537              		.syntax unified
 538              		.thumb
 539              		.thumb_func
 540              		.fpu fpv4-sp-d16
 541              		.type	main_init_done, %function
 542              	main_init_done:
 543              	.LFB263:
 544              		.loc 1 206 0
 545              		.cfi_startproc
 546              		@ args = 0, pretend = 0, frame = 0
 547              		@ frame_needed = 0, uses_anonymous_args = 0
 548              		@ link register save eliminated.
 549              		.loc 1 207 0
 550 0000 014B     		ldr	r3, .L60
 551 0002 1878     		ldrb	r0, [r3]	@ zero_extendqisi2
 552              		.loc 1 208 0
 553 0004 7047     		bx	lr
 554              	.L61:
 555 0006 00BF     		.align	2
 556              	.L60:
 557 0008 00000000 		.word	.LANCHOR0
 558              		.cfi_endproc
 559              	.LFE263:
 560              		.size	main_init_done, .-main_init_done
 561              		.section	.text.startup.main,"ax",%progbits
 562              		.align	1
 563              		.p2align 4,,15
 564              		.global	main
 565              		.syntax unified
 566              		.thumb
 567              		.thumb_func
 568              		.fpu fpv4-sp-d16
 569              		.type	main, %function
 570              	main:
ARM GAS  /tmp/ccRkfBQD.s 			page 11


 571              	.LFB264:
 572              		.loc 1 210 0
 573              		.cfi_startproc
 574              		@ args = 0, pretend = 0, frame = 0
 575              		@ frame_needed = 0, uses_anonymous_args = 0
 576 0000 30B5     		push	{r4, r5, lr}
 577              		.cfi_def_cfa_offset 12
 578              		.cfi_offset 4, -12
 579              		.cfi_offset 5, -8
 580              		.cfi_offset 14, -4
 581 0002 83B0     		sub	sp, sp, #12
 582              		.cfi_def_cfa_offset 24
 583              		.loc 1 211 0
 584 0004 FFF7FEFF 		bl	halInit
 585              	.LVL73:
 586              		.loc 1 232 0
 587 0008 354C     		ldr	r4, .L67
 588              		.loc 1 212 0
 589 000a FFF7FEFF 		bl	chSysInit
 590              	.LVL74:
 591              		.loc 1 228 0
 592 000e 4FF47A70 		mov	r0, #1000
 593 0012 FFF7FEFF 		bl	chThdSleep
 594              	.LVL75:
 595              		.loc 1 232 0
 596 0016 8025     		movs	r5, #128
 597              		.loc 1 230 0
 598 0018 FFF7FEFF 		bl	events_init
 599              	.LVL76:
 600              		.loc 1 231 0
 601 001c FFF7FEFF 		bl	hw_init_gpio
 602              	.LVL77:
 603              		.loc 1 233 0
 604 0020 2023     		movs	r3, #32
 605              		.loc 1 232 0
 606 0022 6583     		strh	r5, [r4, #26]	@ movhi
 607              		.loc 1 233 0
 608 0024 6383     		strh	r3, [r4, #26]	@ movhi
 609              		.loc 1 235 0
 610 0026 FFF7FEFF 		bl	timer_init
 611              	.LVL78:
 612              		.loc 1 236 0
 613 002a FFF7FEFF 		bl	conf_general_init
 614              	.LVL79:
 615              		.loc 1 238 0
 616 002e FFF7FEFF 		bl	flash_helper_verify_flash_memory
 617              	.LVL80:
 618 0032 0E28     		cmp	r0, #14
 619 0034 48D0     		beq	.L64
 620              		.loc 1 248 0
 621 0036 FFF7FEFF 		bl	ledpwm_init
 622              	.LVL81:
 623              		.loc 1 249 0
 624 003a FFF7FEFF 		bl	mc_interface_init
 625              	.LVL82:
 626              		.loc 1 251 0
 627 003e FFF7FEFF 		bl	commands_init
ARM GAS  /tmp/ccRkfBQD.s 			page 12


 628              	.LVL83:
 629              		.loc 1 254 0
 630 0042 FFF7FEFF 		bl	comm_usb_init
 631              	.LVL84:
 632              		.loc 1 258 0
 633 0046 FFF7FEFF 		bl	comm_can_init
 634              	.LVL85:
 635              		.loc 1 261 0
 636 004a FFF7FEFF 		bl	app_uartcomm_initialize
 637              	.LVL86:
 638              		.loc 1 262 0
 639 004e FFF7FEFF 		bl	mempools_alloc_appconf
 640              	.LVL87:
 641 0052 0446     		mov	r4, r0
 642              	.LVL88:
 643              		.loc 1 263 0
 644 0054 FFF7FEFF 		bl	conf_general_read_app_configuration
 645              	.LVL89:
 646              		.loc 1 264 0
 647 0058 2046     		mov	r0, r4
 648 005a FFF7FEFF 		bl	app_set_configuration
 649              	.LVL90:
 650              		.loc 1 265 0
 651 005e 0120     		movs	r0, #1
 652 0060 FFF7FEFF 		bl	app_uartcomm_start
 653              	.LVL91:
 654              		.loc 1 286 0
 655 0064 0025     		movs	r5, #0
 656              		.loc 1 266 0
 657 0066 0220     		movs	r0, #2
 658 0068 FFF7FEFF 		bl	app_uartcomm_start
 659              	.LVL92:
 660              		.loc 1 286 0
 661 006c 1D4B     		ldr	r3, .L67+4
 662 006e 0095     		str	r5, [sp]
 663 0070 4022     		movs	r2, #64
 664 0072 4FF42871 		mov	r1, #672
 665 0076 1C48     		ldr	r0, .L67+8
 666 0078 FFF7FEFF 		bl	chThdCreateStatic
 667              	.LVL93:
 668              		.loc 1 287 0
 669 007c 1B4B     		ldr	r3, .L67+12
 670 007e 0095     		str	r5, [sp]
 671 0080 4022     		movs	r2, #64
 672 0082 4FF42871 		mov	r1, #672
 673 0086 1A48     		ldr	r0, .L67+16
 674 0088 FFF7FEFF 		bl	chThdCreateStatic
 675              	.LVL94:
 676              		.loc 1 288 0
 677 008c 194B     		ldr	r3, .L67+20
 678 008e 0095     		str	r5, [sp]
 679 0090 0222     		movs	r2, #2
 680 0092 4FF42871 		mov	r1, #672
 681 0096 1848     		ldr	r0, .L67+24
 682 0098 FFF7FEFF 		bl	chThdCreateStatic
 683              	.LVL95:
 684              		.loc 1 290 0
ARM GAS  /tmp/ccRkfBQD.s 			page 13


 685 009c FFF7FEFF 		bl	timeout_init
 686              	.LVL96:
 687              		.loc 1 291 0
 688 00a0 617E     		ldrb	r1, [r4, #25]	@ zero_extendqisi2
 689 00a2 94ED020A 		vldr.32	s0, [r4, #8]
 690 00a6 6068     		ldr	r0, [r4, #4]
 691 00a8 FFF7FEFF 		bl	timeout_configure
 692              	.LVL97:
 693              		.loc 1 293 0
 694 00ac 2046     		mov	r0, r4
 695 00ae FFF7FEFF 		bl	mempools_free_appconf
 696              	.LVL98:
 697              		.loc 1 296 0
 698 00b2 FFF7FEFF 		bl	bm_init
 699              	.LVL99:
 700              		.loc 1 303 0
 701 00b6 FFF7FEFF 		bl	imu_reset_orientation
 702              	.LVL100:
 703              		.loc 1 310 0
 704 00ba 104B     		ldr	r3, .L67+28
 705 00bc 0122     		movs	r2, #1
 706 00be 1A70     		strb	r2, [r3]
 707              	.L65:
 708              		.loc 1 313 0 discriminator 1
 709 00c0 6420     		movs	r0, #100
 710 00c2 FFF7FEFF 		bl	chThdSleep
 711              	.LVL101:
 712 00c6 FBE7     		b	.L65
 713              	.LVL102:
 714              	.L64:
 715              		.loc 1 241 0 discriminator 1
 716 00c8 4FF47A70 		mov	r0, #1000
 717 00cc FFF7FEFF 		bl	chThdSleep
 718              	.LVL103:
 719              		.loc 1 242 0 discriminator 1
 720 00d0 2583     		strh	r5, [r4, #24]	@ movhi
 721              		.loc 1 243 0 discriminator 1
 722 00d2 40F2EE20 		movw	r0, #750
 723 00d6 FFF7FEFF 		bl	chThdSleep
 724              	.LVL104:
 725              		.loc 1 244 0 discriminator 1
 726 00da 6583     		strh	r5, [r4, #26]	@ movhi
 727 00dc F4E7     		b	.L64
 728              	.L68:
 729 00de 00BF     		.align	2
 730              	.L67:
 731 00e0 00040240 		.word	1073873920
 732 00e4 00000000 		.word	led_thread
 733 00e8 00000000 		.word	.LANCHOR1
 734 00ec 00000000 		.word	periodic_thread
 735 00f0 00000000 		.word	.LANCHOR2
 736 00f4 00000000 		.word	flash_integrity_check_thread
 737 00f8 00000000 		.word	.LANCHOR3
 738 00fc 00000000 		.word	.LANCHOR0
 739              		.cfi_endproc
 740              	.LFE264:
 741              		.size	main, .-main
ARM GAS  /tmp/ccRkfBQD.s 			page 14


 742              		.section	.bss.flash_integrity_check_thread_wa,"aw",%nobits
 743              		.align	3
 744              		.set	.LANCHOR3,. + 0
 745              		.type	flash_integrity_check_thread_wa, %object
 746              		.size	flash_integrity_check_thread_wa, 672
 747              	flash_integrity_check_thread_wa:
 748 0000 00000000 		.space	672
 748      00000000 
 748      00000000 
 748      00000000 
 748      00000000 
 749              		.section	.bss.led_thread_wa,"aw",%nobits
 750              		.align	3
 751              		.set	.LANCHOR1,. + 0
 752              		.type	led_thread_wa, %object
 753              		.size	led_thread_wa, 672
 754              	led_thread_wa:
 755 0000 00000000 		.space	672
 755      00000000 
 755      00000000 
 755      00000000 
 755      00000000 
 756              		.section	.bss.m_init_done,"aw",%nobits
 757              		.set	.LANCHOR0,. + 0
 758              		.type	m_init_done, %object
 759              		.size	m_init_done, 1
 760              	m_init_done:
 761 0000 00       		.space	1
 762              		.section	.bss.periodic_thread_wa,"aw",%nobits
 763              		.align	3
 764              		.set	.LANCHOR2,. + 0
 765              		.type	periodic_thread_wa, %object
 766              		.size	periodic_thread_wa, 672
 767              	periodic_thread_wa:
 768 0000 00000000 		.space	672
 768      00000000 
 768      00000000 
 768      00000000 
 768      00000000 
 769              		.section	.rodata.assert_failed.str1.4,"aMS",%progbits,1
 770              		.align	2
 771              	.LC3:
 772 0000 57726F6E 		.ascii	"Wrong parameters value: file %s on line %d\015\012\000"
 772      67207061 
 772      72616D65 
 772      74657273 
 772      2076616C 
 773              		.section	.rodata.flash_integrity_check_thread.str1.4,"aMS",%progbits,1
 774              		.align	2
 775              	.LC0:
 776 0000 466C6173 		.ascii	"Flash check\000"
 776      68206368 
 776      65636B00 
 777              		.section	.rodata.led_thread.str1.4,"aMS",%progbits,1
 778              		.align	2
 779              	.LC2:
 780 0000 4D61696E 		.ascii	"Main LED\000"
ARM GAS  /tmp/ccRkfBQD.s 			page 15


 780      204C4544 
 780      00
 781              		.section	.rodata.periodic_thread.str1.4,"aMS",%progbits,1
 782              		.align	2
 783              	.LC1:
 784 0000 4D61696E 		.ascii	"Main periodic\000"
 784      20706572 
 784      696F6469 
 784      6300
 785              		.text
 786              	.Letext0:
 787              		.file 5 "/usr/lib/gcc/arm-none-eabi/7.3.1/include/stddef.h"
 788              		.file 6 "/usr/arm-none-eabi/include/machine/_default_types.h"
 789              		.file 7 "/usr/arm-none-eabi/include/sys/_stdint.h"
 790              		.file 8 "ChibiOS_3.0.5/os/rt/ports/ARMCMx/compilers/GCC/chtypes.h"
 791              		.file 9 "ChibiOS_3.0.5/os/rt/include/chsystypes.h"
 792              		.file 10 "ChibiOS_3.0.5/os/rt/include/chschd.h"
 793              		.file 11 "ChibiOS_3.0.5/os/ext/CMSIS/ST/system_stm32f4xx.h"
 794              		.file 12 "ChibiOS_3.0.5/os/ext/CMSIS/ST/stm32f407xx.h"
 795              		.file 13 "ChibiOS_3.0.5/os/rt/ports/ARMCMx/chcore.h"
 796              		.file 14 "ChibiOS_3.0.5/os/rt/ports/ARMCMx/chcore_v7m.h"
 797              		.file 15 "ChibiOS_3.0.5/os/rt/include/chtm.h"
 798              		.file 16 "ChibiOS_3.0.5/os/rt/include/chsem.h"
 799              		.file 17 "ChibiOS_3.0.5/os/rt/include/chmtx.h"
 800              		.file 18 "ChibiOS_3.0.5/os/rt/include/chevents.h"
 801              		.file 19 "ChibiOS_3.0.5/os/rt/include/chqueues.h"
 802              		.file 20 "ChibiOS_3.0.5/os/ext/CMSIS/ST/stm32f4xx.h"
 803              		.file 21 "./datatypes.h"
 804              		.file 22 "./conf_general.h"
 805              		.file 23 "ChibiOS_3.0.5/os/hal/ports/STM32/STM32F4xx/stm32_dma.h"
 806              		.file 24 "ChibiOS_3.0.5/os/hal/ports/STM32/LLD/GPIOv2/pal_lld.h"
 807              		.file 25 "ChibiOS_3.0.5/os/hal/include/can.h"
 808              		.file 26 "ChibiOS_3.0.5/os/hal/ports/STM32/LLD/can_lld.h"
 809              		.file 27 "ChibiOS_3.0.5/os/hal/include/i2c.h"
 810              		.file 28 "ChibiOS_3.0.5/os/hal/ports/STM32/LLD/I2Cv1/i2c_lld.h"
 811              		.file 29 "ChibiOS_3.0.5/os/hal/include/icu.h"
 812              		.file 30 "ChibiOS_3.0.5/os/hal/ports/STM32/LLD/TIMv1/icu_lld.h"
 813              		.file 31 "ChibiOS_3.0.5/os/hal/ports/STM32/LLD/TIMv1/stm32_tim.h"
 814              		.file 32 "ChibiOS_3.0.5/os/hal/include/serial.h"
 815              		.file 33 "ChibiOS_3.0.5/os/hal/ports/STM32/LLD/USARTv1/serial_lld.h"
 816              		.file 34 "ChibiOS_3.0.5/os/hal/include/spi.h"
 817              		.file 35 "ChibiOS_3.0.5/os/hal/ports/STM32/LLD/SPIv1/spi_lld.h"
 818              		.file 36 "ChibiOS_3.0.5/os/hal/include/usb.h"
 819              		.file 37 "ChibiOS_3.0.5/os/hal/ports/STM32/LLD/OTGv1/usb_lld.h"
 820              		.file 38 "ChibiOS_3.0.5/os/hal/ports/STM32/LLD/OTGv1/stm32_otg.h"
 821              		.file 39 "/usr/arm-none-eabi/include/sys/lock.h"
 822              		.file 40 "/usr/arm-none-eabi/include/sys/_types.h"
 823              		.file 41 "/usr/arm-none-eabi/include/sys/reent.h"
 824              		.file 42 "/usr/arm-none-eabi/include/math.h"
 825              		.file 43 "/usr/arm-none-eabi/include/stdlib.h"
 826              		.file 44 "mc_interface.h"
 827              		.file 45 "mcpwm.h"
 828              		.file 46 "applications/app.h"
 829              		.file 47 "commands.h"
 830              		.file 48 "utils.h"
 831              		.file 49 "ChibiOS_3.0.5/os/hal/include/hal.h"
 832              		.file 50 "ChibiOS_3.0.5/os/rt/include/chsys.h"
ARM GAS  /tmp/ccRkfBQD.s 			page 16


 833              		.file 51 "ChibiOS_3.0.5/os/rt/include/chthreads.h"
 834              		.file 52 "events.h"
 835              		.file 53 "hwconf/hw.h"
 836              		.file 54 "timer.h"
 837              		.file 55 "flash_helper.h"
 838              		.file 56 "ledpwm.h"
 839              		.file 57 "comm_usb.h"
 840              		.file 58 "comm_can.h"
 841              		.file 59 "mempools.h"
 842              		.file 60 "timeout.h"
 843              		.file 61 "blackmagic/bm_if.h"
 844              		.file 62 "imu/imu.h"
 845              		.file 63 "mcpwm_foc.h"
 846              		.file 64 "encoder.h"
 847              		.file 65 "ChibiOS_3.0.5/ext/stdperiph_stm32f4/inc/stm32f4xx_rcc.h"