ARM GAS  /tmp/ccqyMDDx.s 			page 1


   1              		.cpu cortex-m4
   2              		.eabi_attribute 27, 1
   3              		.eabi_attribute 28, 1
   4              		.eabi_attribute 20, 1
   5              		.eabi_attribute 21, 1
   6              		.eabi_attribute 23, 3
   7              		.eabi_attribute 24, 1
   8              		.eabi_attribute 25, 1
   9              		.eabi_attribute 26, 1
  10              		.eabi_attribute 30, 2
  11              		.eabi_attribute 34, 1
  12              		.eabi_attribute 18, 4
  13              		.file	"mc_interface.c"
  14              		.text
  15              	.Ltext0:
  16              		.cfi_sections	.debug_frame
  17              		.section	.text.sample_send_thread,"ax",%progbits
  18              		.align	1
  19              		.p2align 4,,15
  20              		.syntax unified
  21              		.thumb
  22              		.thumb_func
  23              		.fpu fpv4-sp-d16
  24              		.type	sample_send_thread, %function
  25              	sample_send_thread:
  26              	.LFB350:
  27              		.file 1 "mc_interface.c"
  28              		.loc 1 2676 0
  29              		.cfi_startproc
  30              		@ args = 0, pretend = 0, frame = 48
  31              		@ frame_needed = 0, uses_anonymous_args = 0
  32              	.LVL0:
  33 0000 2DE9F04F 		push	{r4, r5, r6, r7, r8, r9, r10, fp, lr}
  34              		.cfi_def_cfa_offset 36
  35              		.cfi_offset 4, -36
  36              		.cfi_offset 5, -32
  37              		.cfi_offset 6, -28
  38              		.cfi_offset 7, -24
  39              		.cfi_offset 8, -20
  40              		.cfi_offset 9, -16
  41              		.cfi_offset 10, -12
  42              		.cfi_offset 11, -8
  43              		.cfi_offset 14, -4
  44              	.LBB619:
  45              	.LBB620:
  46              		.file 2 "ChibiOS_3.0.5/os/rt/include/chregistry.h"
  47              		.loc 2 135 0
  48 0004 AA4B     		ldr	r3, .L23
  49              	.LBE620:
  50              	.LBE619:
  51              		.loc 1 2680 0
  52 0006 AB4A     		ldr	r2, .L23+4
  53              	.LBB623:
  54              	.LBB621:
  55              		.loc 2 135 0
  56 0008 9B69     		ldr	r3, [r3, #24]
  57 000a AB49     		ldr	r1, .L23+8
ARM GAS  /tmp/ccqyMDDx.s 			page 2


  58 000c DFF8E8B2 		ldr	fp, .L23+72
  59 0010 AA4E     		ldr	r6, .L23+12
  60 0012 DFF8E8A2 		ldr	r10, .L23+76
  61              	.LBE621:
  62              	.LBE623:
  63              		.loc 1 2676 0
  64 0016 2DED068B 		vpush.64	{d8, d9, d10}
  65              		.cfi_def_cfa_offset 60
  66              		.cfi_offset 80, -60
  67              		.cfi_offset 81, -56
  68              		.cfi_offset 82, -52
  69              		.cfi_offset 83, -48
  70              		.cfi_offset 84, -44
  71              		.cfi_offset 85, -40
  72              	.LBB624:
  73              	.LBB625:
  74              	.LBB626:
  75              		.loc 1 2730 0
  76 001a DFEDA99A 		vldr.32	s19, .L23+16
  77              		.loc 1 2732 0
  78 001e 9FEDA99A 		vldr.32	s18, .L23+20
  79 0022 DFEDA98A 		vldr.32	s17, .L23+24
  80 0026 9FEDA98A 		vldr.32	s16, .L23+28
  81              	.LBE626:
  82              	.LBE625:
  83              	.LBE624:
  84              	.LBB636:
  85              	.LBB622:
  86              		.loc 2 135 0
  87 002a 9961     		str	r1, [r3, #24]
  88              	.LVL1:
  89              	.LBE622:
  90              	.LBE636:
  91              		.loc 1 2676 0
  92 002c 8DB0     		sub	sp, sp, #52
  93              		.cfi_def_cfa_offset 112
  94              		.loc 1 2680 0
  95 002e 1360     		str	r3, [r2]
  96              	.LVL2:
  97              	.L15:
  98              	.LBB637:
  99              		.loc 1 2683 0
 100 0030 0120     		movs	r0, #1
 101 0032 FFF7FEFF 		bl	chEvtWaitAny
 102              	.LVL3:
 103              		.loc 1 2688 0
 104 0036 A64B     		ldr	r3, .L23+32
 105 0038 1B78     		ldrb	r3, [r3]	@ zero_extendqisi2
 106 003a 013B     		subs	r3, r3, #1
 107 003c 052B     		cmp	r3, #5
 108 003e F7D8     		bhi	.L15
 109 0040 DFE803F0 		tbb	[pc, r3]
 110              	.L4:
 111 0044 03       		.byte	(.L3-.L4)/2
 112 0045 03       		.byte	(.L3-.L4)/2
 113 0046 B4       		.byte	(.L5-.L4)/2
 114 0047 B4       		.byte	(.L5-.L4)/2
ARM GAS  /tmp/ccqyMDDx.s 			page 3


 115 0048 B4       		.byte	(.L5-.L4)/2
 116 0049 B4       		.byte	(.L5-.L4)/2
 117              		.p2align 1
 118              	.L3:
 119              		.loc 1 2691 0
 120 004a A24B     		ldr	r3, .L23+36
 121 004c 1F68     		ldr	r7, [r3]
 122              	.LVL4:
 123              	.LBB632:
 124              		.loc 1 2706 0
 125 004e 002F     		cmp	r7, #0
 126              	.LBE632:
 127              		.loc 1 2686 0
 128 0050 C8BF     		it	gt
 129 0052 0023     		movgt	r3, #0
 130              	.LBB633:
 131              		.loc 1 2706 0
 132 0054 ECDD     		ble	.L15
 133              	.LVL5:
 134              	.L6:
 135 0056 9846     		mov	r8, r3
 136              	.LBB627:
 137              		.loc 1 2711 0
 138 0058 B8F5FA6F 		cmp	r8, #2000
 139              		.loc 1 2736 0
 140 005c 9FED9EAA 		vldr.32	s20, .L23+40
 141              	.LBE627:
 142              	.LBE633:
 143              		.loc 1 2698 0
 144 0060 4FF00005 		mov	r5, #0
 145              	.LVL6:
 146              	.LBB634:
 147              	.LBB628:
 148              		.loc 1 2709 0
 149 0064 4446     		mov	r4, r8
 150              	.LVL7:
 151              		.loc 1 2711 0
 152 0066 C0F29980 		blt	.L7
 153              	.LVL8:
 154              	.L8:
 155              		.loc 1 2712 0
 156 006a A4F5FA64 		sub	r4, r4, #2000
 157              	.LVL9:
 158              		.loc 1 2711 0
 159 006e B4F5FA6F 		cmp	r4, #2000
 160 0072 FADA     		bge	.L8
 161              	.L9:
 162              		.loc 1 2719 0
 163 0074 0122     		movs	r2, #1
 164              		.loc 1 2721 0
 165 0076 9BF80030 		ldrb	r3, [fp]	@ zero_extendqisi2
 166              		.loc 1 2719 0
 167 007a 0192     		str	r2, [sp, #4]
 168 007c 1322     		movs	r2, #19
 169 007e 8DF80820 		strb	r2, [sp, #8]
 170              		.loc 1 2721 0
 171 0082 002B     		cmp	r3, #0
ARM GAS  /tmp/ccqyMDDx.s 			page 4


 172 0084 00F09A80 		beq	.L11
 173              		.loc 1 2722 0
 174 0088 36F81430 		ldrh	r3, [r6, r4, lsl #1]
 175 008c 1BB2     		sxth	r3, r3
 176 008e 00EE103A 		vmov	s0, r3	@ int
 177              		.loc 1 2723 0
 178 0092 4FEA4409 		lsl	r9, r4, #1
 179              		.loc 1 2722 0
 180 0096 B8EEC00A 		vcvt.f32.s32	s0, s0
 181 009a 01A9     		add	r1, sp, #4
 182 009c 02A8     		add	r0, sp, #8
 183 009e FFF7FEFF 		bl	buffer_append_float32_auto
 184              	.LVL10:
 185              		.loc 1 2723 0
 186 00a2 06EB0903 		add	r3, r6, r9
 187 00a6 01A9     		add	r1, sp, #4
 188 00a8 B3F8A03F 		ldrh	r3, [r3, #4000]
 189 00ac 1BB2     		sxth	r3, r3
 190 00ae 00EE103A 		vmov	s0, r3	@ int
 191 00b2 02A8     		add	r0, sp, #8
 192 00b4 B8EEC00A 		vcvt.f32.s32	s0, s0
 193 00b8 FFF7FEFF 		bl	buffer_append_float32_auto
 194              	.LVL11:
 195              		.loc 1 2724 0
 196 00bc 0AEB0903 		add	r3, r10, r9
 197 00c0 01A9     		add	r1, sp, #4
 198 00c2 B3F8483E 		ldrh	r3, [r3, #3656]
 199 00c6 1BB2     		sxth	r3, r3
 200 00c8 00EE103A 		vmov	s0, r3	@ int
 201 00cc 02A8     		add	r0, sp, #8
 202 00ce B8EEC00A 		vcvt.f32.s32	s0, s0
 203 00d2 FFF7FEFF 		bl	buffer_append_float32_auto
 204              	.LVL12:
 205              		.loc 1 2725 0
 206 00d6 814B     		ldr	r3, .L23+44
 207 00d8 4B44     		add	r3, r3, r9
 208 00da 01A9     		add	r1, sp, #4
 209 00dc B3F8F03C 		ldrh	r3, [r3, #3312]
 210 00e0 1BB2     		sxth	r3, r3
 211 00e2 00EE103A 		vmov	s0, r3	@ int
 212 00e6 02A8     		add	r0, sp, #8
 213 00e8 B8EEC00A 		vcvt.f32.s32	s0, s0
 214 00ec FFF7FEFF 		bl	buffer_append_float32_auto
 215              	.LVL13:
 216              		.loc 1 2726 0
 217 00f0 7B4B     		ldr	r3, .L23+48
 218 00f2 4B44     		add	r3, r3, r9
 219 00f4 01A9     		add	r1, sp, #4
 220 00f6 B3F8983B 		ldrh	r3, [r3, #2968]
 221 00fa 1BB2     		sxth	r3, r3
 222 00fc 00EE103A 		vmov	s0, r3	@ int
 223 0100 02A8     		add	r0, sp, #8
 224 0102 B8EEC00A 		vcvt.f32.s32	s0, s0
 225 0106 FFF7FEFF 		bl	buffer_append_float32_auto
 226              	.LVL14:
 227              		.loc 1 2727 0
 228 010a 764B     		ldr	r3, .L23+52
ARM GAS  /tmp/ccqyMDDx.s 			page 5


 229 010c 4B44     		add	r3, r3, r9
 230 010e 01A9     		add	r1, sp, #4
 231 0110 B3F8403A 		ldrh	r3, [r3, #2624]
 232 0114 1BB2     		sxth	r3, r3
 233 0116 00EE103A 		vmov	s0, r3	@ int
 234 011a 02A8     		add	r0, sp, #8
 235 011c B8EEC00A 		vcvt.f32.s32	s0, s0
 236 0120 FFF7FEFF 		bl	buffer_append_float32_auto
 237              	.LVL15:
 238              		.loc 1 2728 0
 239 0124 704B     		ldr	r3, .L23+56
 240 0126 4B44     		add	r3, r3, r9
 241 0128 01A9     		add	r1, sp, #4
 242 012a B3F8E838 		ldrh	r3, [r3, #2280]
 243 012e 1BB2     		sxth	r3, r3
 244 0130 00EE103A 		vmov	s0, r3	@ int
 245 0134 02A8     		add	r0, sp, #8
 246 0136 B8EEC00A 		vcvt.f32.s32	s0, s0
 247 013a FFF7FEFF 		bl	buffer_append_float32_auto
 248              	.LVL16:
 249              	.L12:
 250              		.loc 1 2739 0 discriminator 2
 251 013e 6B4B     		ldr	r3, .L23+60
 252 0140 9944     		add	r9, r9, r3
 253 0142 B2EE040A 		vmov.f32	s0, #1.0e+1
 254 0146 B9F89037 		ldrh	r3, [r9, #1936]
 255 014a 1BB2     		sxth	r3, r3
 256 014c 07EE903A 		vmov	s15, r3	@ int
 257 0150 F8EEE77A 		vcvt.f32.s32	s15, s15
 258 0154 01A9     		add	r1, sp, #4
 259 0156 02A8     		add	r0, sp, #8
 260 0158 27EE800A 		vmul.f32	s0, s15, s0
 261 015c FFF7FEFF 		bl	buffer_append_float32_auto
 262              	.LVL17:
 263              		.loc 1 2740 0 discriminator 2
 264 0160 634A     		ldr	r2, .L23+64
 265 0162 019B     		ldr	r3, [sp, #4]
 266 0164 1444     		add	r4, r4, r2
 267              	.LVL18:
 268 0166 0CAA     		add	r2, sp, #48
 269 0168 1A44     		add	r2, r2, r3
 270 016a 94F83816 		ldrb	r1, [r4, #1592]	@ zero_extendqisi2
 271 016e 02F8281C 		strb	r1, [r2, #-40]
 272              		.loc 1 2741 0 discriminator 2
 273 0172 0233     		adds	r3, r3, #2
 274 0174 94F8084E 		ldrb	r4, [r4, #3592]	@ zero_extendqisi2
 275              	.LVL19:
 276 0178 02F8274C 		strb	r4, [r2, #-39]
 277              	.LBE628:
 278              		.loc 1 2706 0 discriminator 2
 279 017c 0135     		adds	r5, r5, #1
 280              	.LVL20:
 281              	.LBB629:
 282              		.loc 1 2743 0 discriminator 2
 283 017e 1946     		mov	r1, r3
 284 0180 02A8     		add	r0, sp, #8
 285              		.loc 1 2741 0 discriminator 2
ARM GAS  /tmp/ccqyMDDx.s 			page 6


 286 0182 0193     		str	r3, [sp, #4]
 287              		.loc 1 2743 0 discriminator 2
 288 0184 FFF7FEFF 		bl	commands_send_packet
 289              	.LVL21:
 290              	.LBE629:
 291              		.loc 1 2706 0 discriminator 2
 292 0188 BD42     		cmp	r5, r7
 293 018a 08F10108 		add	r8, r8, #1
 294 018e BFF64FAF 		bge	.L15
 295              	.LBB630:
 296              		.loc 1 2711 0
 297 0192 B8F5FA6F 		cmp	r8, #2000
 298              		.loc 1 2709 0
 299 0196 4446     		mov	r4, r8
 300              	.LVL22:
 301              		.loc 1 2711 0
 302 0198 BFF667AF 		bge	.L8
 303              	.L7:
 304              		.loc 1 2715 0
 305 019c B8F1000F 		cmp	r8, #0
 306 01a0 BFF668AF 		bge	.L9
 307              	.L10:
 308              	.LVL23:
 309 01a4 14F5FA64 		adds	r4, r4, #2000
 310              	.LVL24:
 311 01a8 FCD4     		bmi	.L10
 312 01aa 63E7     		b	.L9
 313              	.LVL25:
 314              	.L5:
 315              	.LBE630:
 316              	.LBE634:
 317              		.loc 1 2699 0
 318 01ac 514B     		ldr	r3, .L23+68
 319 01ae 494A     		ldr	r2, .L23+36
 320 01b0 1B68     		ldr	r3, [r3]
 321 01b2 1268     		ldr	r2, [r2]
 322              		.loc 1 2698 0
 323 01b4 4FF4FA67 		mov	r7, #2000
 324              		.loc 1 2699 0
 325 01b8 9B1A     		subs	r3, r3, r2
 326              	.LVL26:
 327 01ba 4CE7     		b	.L6
 328              	.LVL27:
 329              	.L11:
 330              	.LBB635:
 331              	.LBB631:
 332              		.loc 1 2730 0
 333 01bc 36F81430 		ldrh	r3, [r6, r4, lsl #1]
 334 01c0 1BB2     		sxth	r3, r3
 335 01c2 07EE903A 		vmov	s15, r3	@ int
 336 01c6 B8EEE70A 		vcvt.f32.s32	s0, s15
 337              		.loc 1 2731 0
 338 01ca 4FEA4409 		lsl	r9, r4, #1
 339              		.loc 1 2730 0
 340 01ce 01A9     		add	r1, sp, #4
 341 01d0 20EE290A 		vmul.f32	s0, s0, s19
 342 01d4 02A8     		add	r0, sp, #8
ARM GAS  /tmp/ccqyMDDx.s 			page 7


 343 01d6 FFF7FEFF 		bl	buffer_append_float32_auto
 344              	.LVL28:
 345              		.loc 1 2731 0
 346 01da 06EB0903 		add	r3, r6, r9
 347 01de 01A9     		add	r1, sp, #4
 348 01e0 B3F8A03F 		ldrh	r3, [r3, #4000]
 349 01e4 1BB2     		sxth	r3, r3
 350 01e6 07EE903A 		vmov	s15, r3	@ int
 351 01ea B8EEE70A 		vcvt.f32.s32	s0, s15
 352 01ee 02A8     		add	r0, sp, #8
 353 01f0 20EE290A 		vmul.f32	s0, s0, s19
 354 01f4 FFF7FEFF 		bl	buffer_append_float32_auto
 355              	.LVL29:
 356              		.loc 1 2732 0
 357 01f8 0AEB0903 		add	r3, r10, r9
 358 01fc 01A9     		add	r1, sp, #4
 359 01fe B3F8483E 		ldrh	r3, [r3, #3656]
 360 0202 1BB2     		sxth	r3, r3
 361 0204 00EE103A 		vmov	s0, r3	@ int
 362 0208 B8EEC00A 		vcvt.f32.s32	s0, s0
 363 020c 02A8     		add	r0, sp, #8
 364 020e 20EE090A 		vmul.f32	s0, s0, s18
 365 0212 20EE280A 		vmul.f32	s0, s0, s17
 366 0216 20EE080A 		vmul.f32	s0, s0, s16
 367 021a FFF7FEFF 		bl	buffer_append_float32_auto
 368              	.LVL30:
 369              		.loc 1 2733 0
 370 021e 2F4B     		ldr	r3, .L23+44
 371 0220 4B44     		add	r3, r3, r9
 372 0222 01A9     		add	r1, sp, #4
 373 0224 B3F8F03C 		ldrh	r3, [r3, #3312]
 374 0228 1BB2     		sxth	r3, r3
 375 022a 00EE103A 		vmov	s0, r3	@ int
 376 022e B8EEC00A 		vcvt.f32.s32	s0, s0
 377 0232 02A8     		add	r0, sp, #8
 378 0234 20EE090A 		vmul.f32	s0, s0, s18
 379 0238 20EE280A 		vmul.f32	s0, s0, s17
 380 023c 20EE080A 		vmul.f32	s0, s0, s16
 381 0240 FFF7FEFF 		bl	buffer_append_float32_auto
 382              	.LVL31:
 383              		.loc 1 2734 0
 384 0244 264B     		ldr	r3, .L23+48
 385 0246 4B44     		add	r3, r3, r9
 386 0248 01A9     		add	r1, sp, #4
 387 024a B3F8983B 		ldrh	r3, [r3, #2968]
 388 024e 1BB2     		sxth	r3, r3
 389 0250 00EE103A 		vmov	s0, r3	@ int
 390 0254 B8EEC00A 		vcvt.f32.s32	s0, s0
 391 0258 02A8     		add	r0, sp, #8
 392 025a 20EE090A 		vmul.f32	s0, s0, s18
 393 025e 20EE280A 		vmul.f32	s0, s0, s17
 394 0262 20EE080A 		vmul.f32	s0, s0, s16
 395 0266 FFF7FEFF 		bl	buffer_append_float32_auto
 396              	.LVL32:
 397              		.loc 1 2735 0
 398 026a 1E4B     		ldr	r3, .L23+52
 399 026c 4B44     		add	r3, r3, r9
ARM GAS  /tmp/ccqyMDDx.s 			page 8


 400 026e 01A9     		add	r1, sp, #4
 401 0270 B3F8403A 		ldrh	r3, [r3, #2624]
 402 0274 1BB2     		sxth	r3, r3
 403 0276 00EE103A 		vmov	s0, r3	@ int
 404 027a B8EEC00A 		vcvt.f32.s32	s0, s0
 405 027e 02A8     		add	r0, sp, #8
 406 0280 20EE090A 		vmul.f32	s0, s0, s18
 407 0284 20EE280A 		vmul.f32	s0, s0, s17
 408 0288 20EE080A 		vmul.f32	s0, s0, s16
 409 028c FFF7FEFF 		bl	buffer_append_float32_auto
 410              	.LVL33:
 411              		.loc 1 2736 0
 412 0290 154B     		ldr	r3, .L23+56
 413 0292 4B44     		add	r3, r3, r9
 414 0294 01A9     		add	r1, sp, #4
 415 0296 B3F8E838 		ldrh	r3, [r3, #2280]
 416 029a 1BB2     		sxth	r3, r3
 417 029c 07EE903A 		vmov	s15, r3	@ int
 418 02a0 B8EEE70A 		vcvt.f32.s32	s0, s15
 419 02a4 02A8     		add	r0, sp, #8
 420 02a6 80EE0A0A 		vdiv.f32	s0, s0, s20
 421 02aa FFF7FEFF 		bl	buffer_append_float32_auto
 422              	.LVL34:
 423 02ae 46E7     		b	.L12
 424              	.L24:
 425              		.align	2
 426              	.L23:
 427 02b0 00000000 		.word	ch
 428 02b4 00000000 		.word	.LANCHOR0
 429 02b8 00000000 		.word	.LC0
 430 02bc 00000000 		.word	.LANCHOR5
 431 02c0 4008043F 		.word	1057228864
 432 02c4 00008039 		.word	964689920
 433 02c8 33335340 		.word	1079194419
 434 02cc ABAA5E42 		.word	1113500331
 435 02d0 00000000 		.word	.LANCHOR1
 436 02d4 00000000 		.word	.LANCHOR2
 437 02d8 8D2E7841 		.word	1098395277
 438 02dc F0210000 		.word	.LANCHOR7
 439 02e0 E8320000 		.word	.LANCHOR8
 440 02e4 E0430000 		.word	.LANCHOR9
 441 02e8 D8540000 		.word	.LANCHOR10
 442 02ec D0650000 		.word	.LANCHOR11
 443 02f0 C8760000 		.word	.LANCHOR12
 444 02f4 00000000 		.word	.LANCHOR3
 445 02f8 00000000 		.word	.LANCHOR4
 446 02fc F8100000 		.word	.LANCHOR6
 447              	.LBE631:
 448              	.LBE635:
 449              	.LBE637:
 450              		.cfi_endproc
 451              	.LFE350:
 452              		.size	sample_send_thread, .-sample_send_thread
 453              		.section	.text.init_sensor_port,"ax",%progbits
 454              		.align	1
 455              		.p2align 4,,15
 456              		.syntax unified
ARM GAS  /tmp/ccqyMDDx.s 			page 9


 457              		.thumb
 458              		.thumb_func
 459              		.fpu fpv4-sp-d16
 460              		.type	init_sensor_port, %function
 461              	init_sensor_port:
 462              	.LFB256:
 463              		.loc 1 146 0
 464              		.cfi_startproc
 465              		@ args = 0, pretend = 0, frame = 0
 466              		@ frame_needed = 0, uses_anonymous_args = 0
 467              	.LVL35:
 468              		.loc 1 147 0
 469 0000 90F82832 		ldrb	r3, [r0, #552]	@ zero_extendqisi2
 470 0004 013B     		subs	r3, r3, #1
 471 0006 062B     		cmp	r3, #6
 472 0008 2DD8     		bhi	.L25
 473 000a DFE803F0 		tbb	[pc, r3]
 474              	.L28:
 475 000e 06       		.byte	(.L27-.L28)/2
 476 000f 0A       		.byte	(.L29-.L28)/2
 477 0010 0C       		.byte	(.L30-.L28)/2
 478 0011 0E       		.byte	(.L31-.L28)/2
 479 0012 1A       		.byte	(.L32-.L28)/2
 480 0013 1A       		.byte	(.L32-.L28)/2
 481 0014 04       		.byte	(.L33-.L28)/2
 482 0015 00       		.p2align 1
 483              	.L33:
 484              		.loc 1 160 0
 485 0016 FFF7FEBF 		b	encoder_init_mt6816_spi
 486              	.LVL36:
 487              	.L27:
 488              		.loc 1 150 0
 489 001a D0F82402 		ldr	r0, [r0, #548]
 490              	.LVL37:
 491 001e FFF7FEBF 		b	encoder_init_abi
 492              	.LVL38:
 493              	.L29:
 494              		.loc 1 155 0
 495 0022 FFF7FEBF 		b	encoder_init_as5047p_spi
 496              	.LVL39:
 497              	.L30:
 498              		.loc 1 165 0
 499 0026 FFF7FEBF 		b	encoder_init_ad2s1205_spi
 500              	.LVL40:
 501              	.L31:
 502              		.loc 1 170 0
 503 002a 90ED340A 		vldr.32	s0, [r0, #208]
 504 002e D0ED330A 		vldr.32	s1, [r0, #204]
 505 0032 90ED361A 		vldr.32	s2, [r0, #216]
 506 0036 D0ED351A 		vldr.32	s3, [r0, #212]
 507 003a 90ED372A 		vldr.32	s4, [r0, #220]
 508 003e FFF7FEBF 		b	encoder_init_sincos
 509              	.LVL41:
 510              	.L32:
 511              		.loc 1 146 0
 512 0042 10B5     		push	{r4, lr}
 513              		.cfi_def_cfa_offset 8
ARM GAS  /tmp/ccqyMDDx.s 			page 10


 514              		.cfi_offset 4, -8
 515              		.cfi_offset 14, -4
 516              	.LBB641:
 517              	.LBB642:
 518              	.LBB643:
 519              		.loc 1 178 0
 520 0044 FFF7FEFF 		bl	mempools_alloc_appconf
 521              	.LVL42:
 522 0048 0446     		mov	r4, r0
 523              	.LVL43:
 524              		.loc 1 179 0
 525 004a FFF7FEFF 		bl	conf_general_read_app_configuration
 526              	.LVL44:
 527              		.loc 1 182 0
 528 004e 94F82430 		ldrb	r3, [r4, #36]	@ zero_extendqisi2
 529              		.loc 1 180 0
 530 0052 023B     		subs	r3, r3, #2
 531 0054 032B     		cmp	r3, #3
 532 0056 07D9     		bls	.L37
 533              	.L34:
 534              		.loc 1 187 0
 535 0058 2046     		mov	r0, r4
 536 005a FFF7FEFF 		bl	mempools_free_appconf
 537              	.LVL45:
 538              	.LBE643:
 539              	.LBE642:
 540              	.LBE641:
 541              		.loc 1 195 0
 542 005e BDE81040 		pop	{r4, lr}
 543              		.cfi_remember_state
 544              		.cfi_restore 14
 545              		.cfi_restore 4
 546              		.cfi_def_cfa_offset 0
 547              	.LVL46:
 548              	.LBB646:
 549              	.LBB645:
 550              	.LBB644:
 551              		.loc 1 188 0
 552 0062 FFF7FEBF 		b	encoder_init_ts5700n8501
 553              	.LVL47:
 554              	.L25:
 555 0066 7047     		bx	lr
 556              	.LVL48:
 557              	.L37:
 558              		.cfi_restore_state
 559              		.loc 1 184 0
 560 0068 0023     		movs	r3, #0
 561 006a 84F82430 		strb	r3, [r4, #36]
 562              		.loc 1 185 0
 563 006e 2046     		mov	r0, r4
 564 0070 FFF7FEFF 		bl	conf_general_store_app_configuration
 565              	.LVL49:
 566 0074 F0E7     		b	.L34
 567              	.LBE644:
 568              	.LBE645:
 569              	.LBE646:
 570              		.cfi_endproc
ARM GAS  /tmp/ccqyMDDx.s 			page 11


 571              	.LFE256:
 572              		.size	init_sensor_port, .-init_sensor_port
 573 0076 00BF     		.section	.text.mc_interface_set_duty.part.1,"ax",%progbits
 574              		.align	1
 575              		.p2align 4,,15
 576              		.syntax unified
 577              		.thumb
 578              		.thumb_func
 579              		.fpu fpv4-sp-d16
 580              		.type	mc_interface_set_duty.part.1, %function
 581              	mc_interface_set_duty.part.1:
 582              	.LFB354:
 583              		.loc 1 559 0
 584              		.cfi_startproc
 585              		@ args = 0, pretend = 0, frame = 0
 586              		@ frame_needed = 0, uses_anonymous_args = 0
 587              	.LVL50:
 588              		.loc 1 568 0
 589 0000 124A     		ldr	r2, .L47
 590              		.loc 1 559 0
 591 0002 08B5     		push	{r3, lr}
 592              		.cfi_def_cfa_offset 8
 593              		.cfi_offset 3, -8
 594              		.cfi_offset 14, -4
 595              		.loc 1 568 0
 596 0004 92F88630 		ldrb	r3, [r2, #134]	@ zero_extendqisi2
 597 0008 DBB2     		uxtb	r3, r3
 598 000a 012B     		cmp	r3, #1
 599              		.loc 1 559 0
 600 000c 2DED028B 		vpush.64	{d8}
 601              		.cfi_def_cfa_offset 16
 602              		.cfi_offset 80, -16
 603              		.cfi_offset 81, -12
 604              		.loc 1 559 0
 605 0010 B0EE408A 		vmov.f32	s16, s0
 606              		.loc 1 568 0
 607 0014 11D9     		bls	.L40
 608 0016 022B     		cmp	r3, #2
 609 0018 06D1     		bne	.L39
 610              		.loc 1 575 0
 611 001a 92F82932 		ldrb	r3, [r2, #553]	@ zero_extendqisi2
 612 001e 0BB1     		cbz	r3, .L43
 613 0020 B1EE400A 		vneg.f32	s0, s0
 614              	.LVL51:
 615              	.L43:
 616 0024 FFF7FEFF 		bl	mcpwm_foc_set_duty
 617              	.LVL52:
 618              	.L39:
 619              		.loc 1 582 0
 620 0028 B0EE480A 		vmov.f32	s0, s16
 621              		.loc 1 583 0
 622 002c BDEC028B 		vldm	sp!, {d8}
 623              		.cfi_remember_state
 624              		.cfi_restore 80
 625              		.cfi_restore 81
 626              		.cfi_def_cfa_offset 8
 627              	.LVL53:
ARM GAS  /tmp/ccqyMDDx.s 			page 12


 628              		.loc 1 582 0
 629 0030 0748     		ldr	r0, .L47+4
 630              		.loc 1 583 0
 631 0032 BDE80840 		pop	{r3, lr}
 632              		.cfi_restore 14
 633              		.cfi_restore 3
 634              		.cfi_def_cfa_offset 0
 635              		.loc 1 582 0
 636 0036 FFF7FEBF 		b	events_add
 637              	.LVL54:
 638              	.L40:
 639              		.cfi_restore_state
 640              		.loc 1 571 0
 641 003a 92F82932 		ldrb	r3, [r2, #553]	@ zero_extendqisi2
 642 003e 0BB1     		cbz	r3, .L42
 643 0040 B1EE400A 		vneg.f32	s0, s0
 644              	.LVL55:
 645              	.L42:
 646 0044 FFF7FEFF 		bl	mcpwm_set_duty
 647              	.LVL56:
 648 0048 EEE7     		b	.L39
 649              	.L48:
 650 004a 00BF     		.align	2
 651              	.L47:
 652 004c 00000000 		.word	.LANCHOR13
 653 0050 00000000 		.word	.LC1
 654              		.cfi_endproc
 655              	.LFE354:
 656              		.size	mc_interface_set_duty.part.1, .-mc_interface_set_duty.part.1
 657              		.section	.text.mc_interface_set_current.part.2,"ax",%progbits
 658              		.align	1
 659              		.p2align 4,,15
 660              		.syntax unified
 661              		.thumb
 662              		.thumb_func
 663              		.fpu fpv4-sp-d16
 664              		.type	mc_interface_set_current.part.2, %function
 665              	mc_interface_set_current.part.2:
 666              	.LFB355:
 667              		.loc 1 676 0
 668              		.cfi_startproc
 669              		@ args = 0, pretend = 0, frame = 0
 670              		@ frame_needed = 0, uses_anonymous_args = 0
 671              	.LVL57:
 672              		.loc 1 685 0
 673 0000 124A     		ldr	r2, .L58
 674              		.loc 1 676 0
 675 0002 08B5     		push	{r3, lr}
 676              		.cfi_def_cfa_offset 8
 677              		.cfi_offset 3, -8
 678              		.cfi_offset 14, -4
 679              		.loc 1 685 0
 680 0004 92F88630 		ldrb	r3, [r2, #134]	@ zero_extendqisi2
 681 0008 DBB2     		uxtb	r3, r3
 682 000a 012B     		cmp	r3, #1
 683              		.loc 1 676 0
 684 000c 2DED028B 		vpush.64	{d8}
ARM GAS  /tmp/ccqyMDDx.s 			page 13


 685              		.cfi_def_cfa_offset 16
 686              		.cfi_offset 80, -16
 687              		.cfi_offset 81, -12
 688              		.loc 1 676 0
 689 0010 B0EE408A 		vmov.f32	s16, s0
 690              		.loc 1 685 0
 691 0014 11D9     		bls	.L51
 692 0016 022B     		cmp	r3, #2
 693 0018 06D1     		bne	.L50
 694              		.loc 1 692 0
 695 001a 92F82932 		ldrb	r3, [r2, #553]	@ zero_extendqisi2
 696 001e 0BB1     		cbz	r3, .L54
 697 0020 B1EE400A 		vneg.f32	s0, s0
 698              	.LVL58:
 699              	.L54:
 700 0024 FFF7FEFF 		bl	mcpwm_foc_set_current
 701              	.LVL59:
 702              	.L50:
 703              		.loc 1 699 0
 704 0028 B0EE480A 		vmov.f32	s0, s16
 705              		.loc 1 700 0
 706 002c BDEC028B 		vldm	sp!, {d8}
 707              		.cfi_remember_state
 708              		.cfi_restore 80
 709              		.cfi_restore 81
 710              		.cfi_def_cfa_offset 8
 711              	.LVL60:
 712              		.loc 1 699 0
 713 0030 0748     		ldr	r0, .L58+4
 714              		.loc 1 700 0
 715 0032 BDE80840 		pop	{r3, lr}
 716              		.cfi_restore 14
 717              		.cfi_restore 3
 718              		.cfi_def_cfa_offset 0
 719              		.loc 1 699 0
 720 0036 FFF7FEBF 		b	events_add
 721              	.LVL61:
 722              	.L51:
 723              		.cfi_restore_state
 724              		.loc 1 688 0
 725 003a 92F82932 		ldrb	r3, [r2, #553]	@ zero_extendqisi2
 726 003e 0BB1     		cbz	r3, .L53
 727 0040 B1EE400A 		vneg.f32	s0, s0
 728              	.LVL62:
 729              	.L53:
 730 0044 FFF7FEFF 		bl	mcpwm_set_current
 731              	.LVL63:
 732 0048 EEE7     		b	.L50
 733              	.L59:
 734 004a 00BF     		.align	2
 735              	.L58:
 736 004c 00000000 		.word	.LANCHOR13
 737 0050 00000000 		.word	.LC2
 738              		.cfi_endproc
 739              	.LFE355:
 740              		.size	mc_interface_set_current.part.2, .-mc_interface_set_current.part.2
 741              		.section	.text.mc_interface_set_brake_current.part.3,"ax",%progbits
ARM GAS  /tmp/ccqyMDDx.s 			page 14


 742              		.align	1
 743              		.p2align 4,,15
 744              		.syntax unified
 745              		.thumb
 746              		.thumb_func
 747              		.fpu fpv4-sp-d16
 748              		.type	mc_interface_set_brake_current.part.3, %function
 749              	mc_interface_set_brake_current.part.3:
 750              	.LFB356:
 751              		.loc 1 702 0
 752              		.cfi_startproc
 753              		@ args = 0, pretend = 0, frame = 0
 754              		@ frame_needed = 0, uses_anonymous_args = 0
 755              	.LVL64:
 756 0000 08B5     		push	{r3, lr}
 757              		.cfi_def_cfa_offset 8
 758              		.cfi_offset 3, -8
 759              		.cfi_offset 14, -4
 760              		.loc 1 711 0
 761 0002 144A     		ldr	r2, .L71
 762 0004 92F88630 		ldrb	r3, [r2, #134]	@ zero_extendqisi2
 763              		.loc 1 702 0
 764 0008 2DED028B 		vpush.64	{d8}
 765              		.cfi_def_cfa_offset 16
 766              		.cfi_offset 80, -16
 767              		.cfi_offset 81, -12
 768              		.loc 1 702 0
 769 000c B0EE408A 		vmov.f32	s16, s0
 770              		.loc 1 711 0
 771 0010 032B     		cmp	r3, #3
 772 0012 06D8     		bhi	.L61
 773 0014 DFE803F0 		tbb	[pc, r3]
 774              	.L63:
 775 0018 16       		.byte	(.L62-.L63)/2
 776 0019 16       		.byte	(.L62-.L63)/2
 777 001a 0E       		.byte	(.L64-.L63)/2
 778 001b 02       		.byte	(.L65-.L63)/2
 779              		.p2align 1
 780              	.L65:
 781              		.loc 1 723 0
 782 001c 0020     		movs	r0, #0
 783 001e FFF7FEFF 		bl	gpdrive_set_mode
 784              	.LVL65:
 785              	.L61:
 786              		.loc 1 730 0
 787 0022 B0EE480A 		vmov.f32	s0, s16
 788              		.loc 1 731 0
 789 0026 BDEC028B 		vldm	sp!, {d8}
 790              		.cfi_remember_state
 791              		.cfi_restore 80
 792              		.cfi_restore 81
 793              		.cfi_def_cfa_offset 8
 794              	.LVL66:
 795              		.loc 1 730 0
 796 002a 0B48     		ldr	r0, .L71+4
 797              		.loc 1 731 0
 798 002c BDE80840 		pop	{r3, lr}
ARM GAS  /tmp/ccqyMDDx.s 			page 15


 799              		.cfi_restore 14
 800              		.cfi_restore 3
 801              		.cfi_def_cfa_offset 0
 802              		.loc 1 730 0
 803 0030 FFF7FEBF 		b	events_add
 804              	.LVL67:
 805              	.L64:
 806              		.cfi_restore_state
 807              		.loc 1 718 0
 808 0034 92F82932 		ldrb	r3, [r2, #553]	@ zero_extendqisi2
 809 0038 0BB1     		cbz	r3, .L67
 810 003a B1EE400A 		vneg.f32	s0, s0
 811              	.LVL68:
 812              	.L67:
 813 003e FFF7FEFF 		bl	mcpwm_foc_set_brake_current
 814              	.LVL69:
 815 0042 EEE7     		b	.L61
 816              	.LVL70:
 817              	.L62:
 818              		.loc 1 714 0
 819 0044 92F82932 		ldrb	r3, [r2, #553]	@ zero_extendqisi2
 820 0048 0BB1     		cbz	r3, .L66
 821 004a B1EE400A 		vneg.f32	s0, s0
 822              	.LVL71:
 823              	.L66:
 824 004e FFF7FEFF 		bl	mcpwm_set_brake_current
 825              	.LVL72:
 826 0052 E6E7     		b	.L61
 827              	.L72:
 828              		.align	2
 829              	.L71:
 830 0054 00000000 		.word	.LANCHOR13
 831 0058 00000000 		.word	.LC3
 832              		.cfi_endproc
 833              	.LFE356:
 834              		.size	mc_interface_set_brake_current.part.3, .-mc_interface_set_brake_current.part.3
 835              		.section	.text.mc_interface_set_handbrake.part.4,"ax",%progbits
 836              		.align	1
 837              		.p2align 4,,15
 838              		.syntax unified
 839              		.thumb
 840              		.thumb_func
 841              		.fpu fpv4-sp-d16
 842              		.type	mc_interface_set_handbrake.part.4, %function
 843              	mc_interface_set_handbrake.part.4:
 844              	.LFB357:
 845              		.loc 1 767 0
 846              		.cfi_startproc
 847              		@ args = 0, pretend = 0, frame = 0
 848              		@ frame_needed = 0, uses_anonymous_args = 0
 849              	.LVL73:
 850 0000 08B5     		push	{r3, lr}
 851              		.cfi_def_cfa_offset 8
 852              		.cfi_offset 3, -8
 853              		.cfi_offset 14, -4
 854              		.loc 1 776 0
 855 0002 0D4B     		ldr	r3, .L78
ARM GAS  /tmp/ccqyMDDx.s 			page 16


 856 0004 93F88630 		ldrb	r3, [r3, #134]	@ zero_extendqisi2
 857 0008 DBB2     		uxtb	r3, r3
 858 000a 012B     		cmp	r3, #1
 859              		.loc 1 767 0
 860 000c 2DED028B 		vpush.64	{d8}
 861              		.cfi_def_cfa_offset 16
 862              		.cfi_offset 80, -16
 863              		.cfi_offset 81, -12
 864              		.loc 1 767 0
 865 0010 B0EE408A 		vmov.f32	s16, s0
 866              		.loc 1 776 0
 867 0014 0CD9     		bls	.L75
 868 0016 022B     		cmp	r3, #2
 869 0018 01D1     		bne	.L74
 870              		.loc 1 784 0
 871 001a FFF7FEFF 		bl	mcpwm_foc_set_handbrake
 872              	.LVL74:
 873              	.L74:
 874              		.loc 1 791 0
 875 001e B0EE480A 		vmov.f32	s0, s16
 876              		.loc 1 792 0
 877 0022 BDEC028B 		vldm	sp!, {d8}
 878              		.cfi_remember_state
 879              		.cfi_restore 80
 880              		.cfi_restore 81
 881              		.cfi_def_cfa_offset 8
 882              	.LVL75:
 883              		.loc 1 791 0
 884 0026 0548     		ldr	r0, .L78+4
 885              		.loc 1 792 0
 886 0028 BDE80840 		pop	{r3, lr}
 887              		.cfi_restore 14
 888              		.cfi_restore 3
 889              		.cfi_def_cfa_offset 0
 890              		.loc 1 791 0
 891 002c FFF7FEBF 		b	events_add
 892              	.LVL76:
 893              	.L75:
 894              		.cfi_restore_state
 895              		.loc 1 780 0
 896 0030 FFF7FEFF 		bl	mcpwm_set_brake_current
 897              	.LVL77:
 898 0034 F3E7     		b	.L74
 899              	.L79:
 900 0036 00BF     		.align	2
 901              	.L78:
 902 0038 00000000 		.word	.LANCHOR13
 903 003c 00000000 		.word	.LC4
 904              		.cfi_endproc
 905              	.LFE357:
 906              		.size	mc_interface_set_handbrake.part.4, .-mc_interface_set_handbrake.part.4
 907              		.section	.text.mc_interface_fault_stop.part.5,"ax",%progbits
 908              		.align	1
 909              		.p2align 4,,15
 910              		.syntax unified
 911              		.thumb
 912              		.thumb_func
ARM GAS  /tmp/ccqyMDDx.s 			page 17


 913              		.fpu fpv4-sp-d16
 914              		.type	mc_interface_fault_stop.part.5, %function
 915              	mc_interface_fault_stop.part.5:
 916              	.LFB358:
 917              		.loc 1 1712 0
 918              		.cfi_startproc
 919              		@ args = 0, pretend = 0, frame = 0
 920              		@ frame_needed = 0, uses_anonymous_args = 0
 921              	.LVL78:
 922 0000 08B5     		push	{r3, lr}
 923              		.cfi_def_cfa_offset 8
 924              		.cfi_offset 3, -8
 925              		.cfi_offset 14, -4
 926              	.LBB647:
 927              	.LBB648:
 928              	.LBB649:
 929              	.LBB650:
 930              	.LBB651:
 931              		.file 3 "ChibiOS_3.0.5/os/ext/CMSIS/include/core_cmFunc.h"
 932              		.loc 3 342 0
 933              		.syntax unified
 934              	@ 342 "ChibiOS_3.0.5/os/ext/CMSIS/include/core_cmFunc.h" 1
 935 0002 72B6     		cpsid i
 936              	@ 0 "" 2
 937              		.thumb
 938              		.syntax unified
 939              	.LBE651:
 940              	.LBE650:
 941              	.LBE649:
 942              	.LBE648:
 943              	.LBE647:
 944              		.loc 1 1718 0
 945 0004 034B     		ldr	r3, .L82
 946 0006 0121     		movs	r1, #1
 947 0008 1868     		ldr	r0, [r3]
 948 000a FFF7FEFF 		bl	chEvtSignalI
 949              	.LVL79:
 950              	.LBB652:
 951              	.LBB653:
 952              	.LBB654:
 953              	.LBB655:
 954              	.LBB656:
 955              		.loc 3 331 0
 956              		.syntax unified
 957              	@ 331 "ChibiOS_3.0.5/os/ext/CMSIS/include/core_cmFunc.h" 1
 958 000e 62B6     		cpsie i
 959              	@ 0 "" 2
 960              		.thumb
 961              		.syntax unified
 962              	.LBE656:
 963              	.LBE655:
 964              	.LBE654:
 965              	.LBE653:
 966              	.LBE652:
 967              		.loc 1 1723 0
 968 0010 08BD     		pop	{r3, pc}
 969              	.L83:
ARM GAS  /tmp/ccqyMDDx.s 			page 18


 970 0012 00BF     		.align	2
 971              	.L82:
 972 0014 00000000 		.word	.LANCHOR14
 973              		.cfi_endproc
 974              	.LFE358:
 975              		.size	mc_interface_fault_stop.part.5, .-mc_interface_fault_stop.part.5
 976              		.section	.text.mc_interface_init,"ax",%progbits
 977              		.align	1
 978              		.p2align 4,,15
 979              		.global	mc_interface_init
 980              		.syntax unified
 981              		.thumb
 982              		.thumb_func
 983              		.fpu fpv4-sp-d16
 984              		.type	mc_interface_init, %function
 985              	mc_interface_init:
 986              	.LFB257:
 987              		.loc 1 197 0
 988              		.cfi_startproc
 989              		@ args = 0, pretend = 0, frame = 0
 990              		@ frame_needed = 0, uses_anonymous_args = 0
 991 0000 F0B5     		push	{r4, r5, r6, r7, lr}
 992              		.cfi_def_cfa_offset 20
 993              		.cfi_offset 4, -20
 994              		.cfi_offset 5, -16
 995              		.cfi_offset 6, -12
 996              		.cfi_offset 7, -8
 997              		.cfi_offset 14, -4
 998              		.loc 1 198 0
 999 0002 3D4D     		ldr	r5, .L91
 1000              		.loc 1 214 0
 1001 0004 3D4F     		ldr	r7, .L91+4
 1002              		.loc 1 215 0
 1003 0006 3E4E     		ldr	r6, .L91+8
 1004              		.loc 1 197 0
 1005 0008 83B0     		sub	sp, sp, #12
 1006              		.cfi_def_cfa_offset 32
 1007              		.loc 1 198 0
 1008 000a 4FF45E72 		mov	r2, #888
 1009 000e 0021     		movs	r1, #0
 1010 0010 2846     		mov	r0, r5
 1011 0012 FFF7FEFF 		bl	memset
 1012              	.LVL80:
 1013              		.loc 1 203 0
 1014 0016 2846     		mov	r0, r5
 1015 0018 0021     		movs	r1, #0
 1016 001a FFF7FEFF 		bl	conf_general_read_mc_configuration
 1017              	.LVL81:
 1018              		.loc 1 213 0
 1019 001e 394A     		ldr	r2, .L91+12
 1020              		.loc 1 216 0
 1021 0020 394B     		ldr	r3, .L91+16
 1022              		.loc 1 218 0
 1023 0022 3A48     		ldr	r0, .L91+20
 1024              		.loc 1 214 0
 1025 0024 4FF47A7C 		mov	ip, #1000
 1026              		.loc 1 213 0
ARM GAS  /tmp/ccqyMDDx.s 			page 19


 1027 0028 0021     		movs	r1, #0
 1028              		.loc 1 216 0
 1029 002a 0024     		movs	r4, #0
 1030              		.loc 1 213 0
 1031 002c 1160     		str	r1, [r2]	@ float
 1032              		.loc 1 214 0
 1033 002e C7F800C0 		str	ip, [r7]
 1034              		.loc 1 217 0
 1035 0032 3749     		ldr	r1, .L91+24
 1036              		.loc 1 219 0
 1037 0034 374A     		ldr	r2, .L91+28
 1038              		.loc 1 215 0
 1039 0036 0127     		movs	r7, #1
 1040 0038 3760     		str	r7, [r6]
 1041              		.loc 1 216 0
 1042 003a 1C60     		str	r4, [r3]
 1043              		.loc 1 220 0
 1044 003c 364E     		ldr	r6, .L91+32
 1045              		.loc 1 221 0
 1046 003e 374B     		ldr	r3, .L91+36
 1047              		.loc 1 217 0
 1048 0040 0C70     		strb	r4, [r1]
 1049              		.loc 1 218 0
 1050 0042 0460     		str	r4, [r0]
 1051              	.LBB657:
 1052              	.LBB658:
 1053              		.loc 1 2655 0
 1054 0044 2146     		mov	r1, r4
 1055              	.LBE658:
 1056              	.LBE657:
 1057              		.loc 1 219 0
 1058 0046 1470     		strb	r4, [r2]
 1059              	.LBB668:
 1060              	.LBB663:
 1061              		.loc 1 2655 0
 1062 0048 05F52470 		add	r0, r5, #656
 1063 004c 6022     		movs	r2, #96
 1064              	.LBE663:
 1065              	.LBE668:
 1066              		.loc 1 220 0
 1067 004e 3470     		strb	r4, [r6]
 1068              		.loc 1 221 0
 1069 0050 1C70     		strb	r4, [r3]
 1070              	.LVL82:
 1071              	.LBB669:
 1072              	.LBB664:
 1073              		.loc 1 2655 0
 1074 0052 FFF7FEFF 		bl	memset
 1075              	.LVL83:
 1076              	.LBB659:
 1077              	.LBB660:
 1078              		.file 4 "ChibiOS_3.0.5/os/rt/include/chvt.h"
 1079              		.loc 4 231 0
 1080 0056 324B     		ldr	r3, .L91+40
 1081              	.LBE660:
 1082              	.LBE659:
 1083              	.LBE664:
ARM GAS  /tmp/ccqyMDDx.s 			page 20


 1084              	.LBE669:
 1085              		.loc 1 226 0
 1086 0058 0094     		str	r4, [sp]
 1087              	.LBB670:
 1088              	.LBB665:
 1089              	.LBB662:
 1090              	.LBB661:
 1091              		.loc 4 231 0
 1092 005a 9A6A     		ldr	r2, [r3, #40]
 1093              	.LBE661:
 1094              	.LBE662:
 1095              		.loc 1 2656 0
 1096 005c C5F89022 		str	r2, [r5, #656]
 1097              		.loc 1 2657 0
 1098 0060 304E     		ldr	r6, .L91+44
 1099              	.LBE665:
 1100              	.LBE670:
 1101              		.loc 1 226 0
 1102 0062 314B     		ldr	r3, .L91+48
 1103 0064 3148     		ldr	r0, .L91+52
 1104              	.LBB671:
 1105              	.LBB666:
 1106              		.loc 1 2657 0
 1107 0066 C5F8D862 		str	r6, [r5, #728]	@ float
 1108              	.LBE666:
 1109              	.LBE671:
 1110              		.loc 1 226 0
 1111 006a 4022     		movs	r2, #64
 1112 006c 4FF46871 		mov	r1, #928
 1113              	.LBB672:
 1114              	.LBB667:
 1115              		.loc 1 2658 0
 1116 0070 C5F8C862 		str	r6, [r5, #712]	@ float
 1117              	.LBE667:
 1118              	.LBE672:
 1119              		.loc 1 226 0
 1120 0074 FFF7FEFF 		bl	chThdCreateStatic
 1121              	.LVL84:
 1122              		.loc 1 227 0
 1123 0078 2D4B     		ldr	r3, .L91+56
 1124 007a 0094     		str	r4, [sp]
 1125 007c 3F22     		movs	r2, #63
 1126 007e 4FF46871 		mov	r1, #928
 1127 0082 2C48     		ldr	r0, .L91+60
 1128 0084 FFF7FEFF 		bl	chThdCreateStatic
 1129              	.LVL85:
 1130              		.loc 1 228 0
 1131 0088 2B4B     		ldr	r3, .L91+64
 1132 008a 0094     		str	r4, [sp]
 1133 008c 7C22     		movs	r2, #124
 1134 008e 4FF46871 		mov	r1, #928
 1135 0092 2A48     		ldr	r0, .L91+68
 1136 0094 FFF7FEFF 		bl	chThdCreateStatic
 1137              	.LVL86:
 1138              		.loc 1 229 0
 1139 0098 294B     		ldr	r3, .L91+72
 1140 009a 0094     		str	r4, [sp]
ARM GAS  /tmp/ccqyMDDx.s 			page 21


 1141 009c 4022     		movs	r2, #64
 1142 009e 4FF46871 		mov	r1, #928
 1143 00a2 2848     		ldr	r0, .L91+76
 1144 00a4 FFF7FEFF 		bl	chThdCreateStatic
 1145              	.LVL87:
 1146              		.loc 1 261 0
 1147 00a8 2846     		mov	r0, r5
 1148 00aa FFF7FEFF 		bl	init_sensor_port
 1149              	.LVL88:
 1150              		.loc 1 264 0
 1151 00ae 95F88630 		ldrb	r3, [r5, #134]	@ zero_extendqisi2
 1152 00b2 032B     		cmp	r3, #3
 1153 00b4 06D8     		bhi	.L85
 1154 00b6 DFE803F0 		tbb	[pc, r3]
 1155              	.L87:
 1156 00ba 02       		.byte	(.L86-.L87)/2
 1157 00bb 02       		.byte	(.L86-.L87)/2
 1158 00bc 14       		.byte	(.L88-.L87)/2
 1159 00bd 0B       		.byte	(.L89-.L87)/2
 1160              		.p2align 1
 1161              	.L86:
 1162              		.loc 1 267 0
 1163 00be 0E48     		ldr	r0, .L91
 1164 00c0 FFF7FEFF 		bl	mcpwm_init
 1165              	.LVL89:
 1166              	.L85:
 1167              		.loc 1 286 0
 1168 00c4 2048     		ldr	r0, .L91+80
 1169              		.loc 1 287 0
 1170 00c6 03B0     		add	sp, sp, #12
 1171              		.cfi_remember_state
 1172              		.cfi_def_cfa_offset 20
 1173              		@ sp needed
 1174 00c8 BDE8F040 		pop	{r4, r5, r6, r7, lr}
 1175              		.cfi_restore 14
 1176              		.cfi_restore 7
 1177              		.cfi_restore 6
 1178              		.cfi_restore 5
 1179              		.cfi_restore 4
 1180              		.cfi_def_cfa_offset 0
 1181              		.loc 1 286 0
 1182 00cc FFF7FEBF 		b	bms_init
 1183              	.LVL90:
 1184              	.L89:
 1185              		.cfi_restore_state
 1186              		.loc 1 279 0
 1187 00d0 0948     		ldr	r0, .L91
 1188 00d2 FFF7FEFF 		bl	gpdrive_init
 1189              	.LVL91:
 1190              		.loc 1 286 0
 1191 00d6 1C48     		ldr	r0, .L91+80
 1192              		.loc 1 287 0
 1193 00d8 03B0     		add	sp, sp, #12
 1194              		.cfi_remember_state
 1195              		.cfi_def_cfa_offset 20
 1196              		@ sp needed
 1197 00da BDE8F040 		pop	{r4, r5, r6, r7, lr}
ARM GAS  /tmp/ccqyMDDx.s 			page 22


 1198              		.cfi_restore 14
 1199              		.cfi_restore 7
 1200              		.cfi_restore 6
 1201              		.cfi_restore 5
 1202              		.cfi_restore 4
 1203              		.cfi_def_cfa_offset 0
 1204              		.loc 1 286 0
 1205 00de FFF7FEBF 		b	bms_init
 1206              	.LVL92:
 1207              	.L88:
 1208              		.cfi_restore_state
 1209              		.loc 1 274 0
 1210 00e2 0549     		ldr	r1, .L91
 1211 00e4 0846     		mov	r0, r1
 1212 00e6 FFF7FEFF 		bl	mcpwm_foc_init
 1213              	.LVL93:
 1214              		.loc 1 286 0
 1215 00ea 1748     		ldr	r0, .L91+80
 1216              		.loc 1 287 0
 1217 00ec 03B0     		add	sp, sp, #12
 1218              		.cfi_def_cfa_offset 20
 1219              		@ sp needed
 1220 00ee BDE8F040 		pop	{r4, r5, r6, r7, lr}
 1221              		.cfi_restore 14
 1222              		.cfi_restore 7
 1223              		.cfi_restore 6
 1224              		.cfi_restore 5
 1225              		.cfi_restore 4
 1226              		.cfi_def_cfa_offset 0
 1227              		.loc 1 286 0
 1228 00f2 FFF7FEBF 		b	bms_init
 1229              	.LVL94:
 1230              	.L92:
 1231 00f6 00BF     		.align	2
 1232              	.L91:
 1233 00f8 00000000 		.word	.LANCHOR13
 1234 00fc 00000000 		.word	.LANCHOR2
 1235 0100 00000000 		.word	.LANCHOR16
 1236 0104 00000000 		.word	.LANCHOR15
 1237 0108 00000000 		.word	.LANCHOR17
 1238 010c 00000000 		.word	.LANCHOR3
 1239 0110 00000000 		.word	.LANCHOR4
 1240 0114 00000000 		.word	.LANCHOR18
 1241 0118 00000000 		.word	.LANCHOR1
 1242 011c 00000000 		.word	.LANCHOR19
 1243 0120 00000000 		.word	ch
 1244 0124 000096C3 		.word	-1013579776
 1245 0128 00000000 		.word	timer_thread
 1246 012c 00000000 		.word	.LANCHOR20
 1247 0130 00000000 		.word	sample_send_thread
 1248 0134 00000000 		.word	.LANCHOR21
 1249 0138 00000000 		.word	fault_stop_thread
 1250 013c 00000000 		.word	.LANCHOR22
 1251 0140 00000000 		.word	stat_thread
 1252 0144 00000000 		.word	.LANCHOR23
 1253 0148 70020000 		.word	.LANCHOR13+624
 1254              		.cfi_endproc
ARM GAS  /tmp/ccqyMDDx.s 			page 23


 1255              	.LFE257:
 1256              		.size	mc_interface_init, .-mc_interface_init
 1257              		.section	.text.mc_interface_motor_now,"ax",%progbits
 1258              		.align	1
 1259              		.p2align 4,,15
 1260              		.global	mc_interface_motor_now
 1261              		.syntax unified
 1262              		.thumb
 1263              		.thumb_func
 1264              		.fpu fpv4-sp-d16
 1265              		.type	mc_interface_motor_now, %function
 1266              	mc_interface_motor_now:
 1267              	.LFB258:
 1268              		.loc 1 289 0
 1269              		.cfi_startproc
 1270              		@ args = 0, pretend = 0, frame = 0
 1271              		@ frame_needed = 0, uses_anonymous_args = 0
 1272              		@ link register save eliminated.
 1273              		.loc 1 304 0
 1274 0000 0120     		movs	r0, #1
 1275 0002 7047     		bx	lr
 1276              		.cfi_endproc
 1277              	.LFE258:
 1278              		.size	mc_interface_motor_now, .-mc_interface_motor_now
 1279              		.section	.text.mc_interface_select_motor_thread,"ax",%progbits
 1280              		.align	1
 1281              		.p2align 4,,15
 1282              		.global	mc_interface_select_motor_thread
 1283              		.syntax unified
 1284              		.thumb
 1285              		.thumb_func
 1286              		.fpu fpv4-sp-d16
 1287              		.type	mc_interface_select_motor_thread, %function
 1288              	mc_interface_select_motor_thread:
 1289              	.LFB259:
 1290              		.loc 1 316 0
 1291              		.cfi_startproc
 1292              		@ args = 0, pretend = 0, frame = 0
 1293              		@ frame_needed = 0, uses_anonymous_args = 0
 1294              		@ link register save eliminated.
 1295              	.LVL95:
 1296              		.loc 1 324 0
 1297 0000 7047     		bx	lr
 1298              		.cfi_endproc
 1299              	.LFE259:
 1300              		.size	mc_interface_select_motor_thread, .-mc_interface_select_motor_thread
 1301 0002 00BF     		.section	.text.mc_interface_get_motor_thread,"ax",%progbits
 1302              		.align	1
 1303              		.p2align 4,,15
 1304              		.global	mc_interface_get_motor_thread
 1305              		.syntax unified
 1306              		.thumb
 1307              		.thumb_func
 1308              		.fpu fpv4-sp-d16
 1309              		.type	mc_interface_get_motor_thread, %function
 1310              	mc_interface_get_motor_thread:
 1311              	.LFB260:
ARM GAS  /tmp/ccqyMDDx.s 			page 24


 1312              		.loc 1 334 0
 1313              		.cfi_startproc
 1314              		@ args = 0, pretend = 0, frame = 0
 1315              		@ frame_needed = 0, uses_anonymous_args = 0
 1316              		@ link register save eliminated.
 1317              	.LBB673:
 1318              	.LBB674:
 1319              		.file 5 "ChibiOS_3.0.5/os/rt/include/chthreads.h"
 1320              		.loc 5 176 0
 1321 0000 014B     		ldr	r3, .L96
 1322              	.LBE674:
 1323              	.LBE673:
 1324              		.loc 1 335 0
 1325 0002 9B69     		ldr	r3, [r3, #24]
 1326              		.loc 1 336 0
 1327 0004 D86C     		ldr	r0, [r3, #76]
 1328 0006 7047     		bx	lr
 1329              	.L97:
 1330              		.align	2
 1331              	.L96:
 1332 0008 00000000 		.word	ch
 1333              		.cfi_endproc
 1334              	.LFE260:
 1335              		.size	mc_interface_get_motor_thread, .-mc_interface_get_motor_thread
 1336              		.section	.text.mc_interface_get_configuration,"ax",%progbits
 1337              		.align	1
 1338              		.p2align 4,,15
 1339              		.global	mc_interface_get_configuration
 1340              		.syntax unified
 1341              		.thumb
 1342              		.thumb_func
 1343              		.fpu fpv4-sp-d16
 1344              		.type	mc_interface_get_configuration, %function
 1345              	mc_interface_get_configuration:
 1346              	.LFB261:
 1347              		.loc 1 338 0
 1348              		.cfi_startproc
 1349              		@ args = 0, pretend = 0, frame = 0
 1350              		@ frame_needed = 0, uses_anonymous_args = 0
 1351              		@ link register save eliminated.
 1352              		.loc 1 340 0
 1353 0000 0048     		ldr	r0, .L99
 1354 0002 7047     		bx	lr
 1355              	.L100:
 1356              		.align	2
 1357              	.L99:
 1358 0004 00000000 		.word	.LANCHOR13
 1359              		.cfi_endproc
 1360              	.LFE261:
 1361              		.size	mc_interface_get_configuration, .-mc_interface_get_configuration
 1362              		.section	.text.mc_interface_dccal_done,"ax",%progbits
 1363              		.align	1
 1364              		.p2align 4,,15
 1365              		.global	mc_interface_dccal_done
 1366              		.syntax unified
 1367              		.thumb
 1368              		.thumb_func
ARM GAS  /tmp/ccqyMDDx.s 			page 25


 1369              		.fpu fpv4-sp-d16
 1370              		.type	mc_interface_dccal_done, %function
 1371              	mc_interface_dccal_done:
 1372              	.LFB263:
 1373              		.loc 1 446 0
 1374              		.cfi_startproc
 1375              		@ args = 0, pretend = 0, frame = 0
 1376              		@ frame_needed = 0, uses_anonymous_args = 0
 1377              		@ link register save eliminated.
 1378              	.LVL96:
 1379              		.loc 1 448 0
 1380 0000 084B     		ldr	r3, .L107
 1381 0002 93F88630 		ldrb	r3, [r3, #134]	@ zero_extendqisi2
 1382 0006 032B     		cmp	r3, #3
 1383 0008 09D8     		bhi	.L102
 1384 000a DFE803F0 		tbb	[pc, r3]
 1385              	.L104:
 1386 000e 06       		.byte	(.L103-.L104)/2
 1387 000f 06       		.byte	(.L103-.L104)/2
 1388 0010 04       		.byte	(.L105-.L104)/2
 1389 0011 02       		.byte	(.L106-.L104)/2
 1390              		.p2align 1
 1391              	.L106:
 1392              		.loc 1 459 0
 1393 0012 FFF7FEBF 		b	gpdrive_is_dccal_done
 1394              	.LVL97:
 1395              	.L105:
 1396              		.loc 1 455 0
 1397 0016 FFF7FEBF 		b	mcpwm_foc_is_dccal_done
 1398              	.LVL98:
 1399              	.L103:
 1400              		.loc 1 451 0
 1401 001a FFF7FEBF 		b	mcpwm_is_dccal_done
 1402              	.LVL99:
 1403              	.L102:
 1404              		.loc 1 467 0
 1405 001e 0020     		movs	r0, #0
 1406 0020 7047     		bx	lr
 1407              	.L108:
 1408 0022 00BF     		.align	2
 1409              	.L107:
 1410 0024 00000000 		.word	.LANCHOR13
 1411              		.cfi_endproc
 1412              	.LFE263:
 1413              		.size	mc_interface_dccal_done, .-mc_interface_dccal_done
 1414              		.section	.text.mc_interface_set_pwm_callback,"ax",%progbits
 1415              		.align	1
 1416              		.p2align 4,,15
 1417              		.global	mc_interface_set_pwm_callback
 1418              		.syntax unified
 1419              		.thumb
 1420              		.thumb_func
 1421              		.fpu fpv4-sp-d16
 1422              		.type	mc_interface_set_pwm_callback, %function
 1423              	mc_interface_set_pwm_callback:
 1424              	.LFB264:
 1425              		.loc 1 477 0
ARM GAS  /tmp/ccqyMDDx.s 			page 26


 1426              		.cfi_startproc
 1427              		@ args = 0, pretend = 0, frame = 0
 1428              		@ frame_needed = 0, uses_anonymous_args = 0
 1429              		@ link register save eliminated.
 1430              	.LVL100:
 1431              		.loc 1 478 0
 1432 0000 014B     		ldr	r3, .L110
 1433 0002 1860     		str	r0, [r3]
 1434              		.loc 1 479 0
 1435 0004 7047     		bx	lr
 1436              	.L111:
 1437 0006 00BF     		.align	2
 1438              	.L110:
 1439 0008 00000000 		.word	.LANCHOR24
 1440              		.cfi_endproc
 1441              	.LFE264:
 1442              		.size	mc_interface_set_pwm_callback, .-mc_interface_set_pwm_callback
 1443              		.section	.text.mc_interface_lock,"ax",%progbits
 1444              		.align	1
 1445              		.p2align 4,,15
 1446              		.global	mc_interface_lock
 1447              		.syntax unified
 1448              		.thumb
 1449              		.thumb_func
 1450              		.fpu fpv4-sp-d16
 1451              		.type	mc_interface_lock, %function
 1452              	mc_interface_lock:
 1453              	.LFB265:
 1454              		.loc 1 484 0
 1455              		.cfi_startproc
 1456              		@ args = 0, pretend = 0, frame = 0
 1457              		@ frame_needed = 0, uses_anonymous_args = 0
 1458              		@ link register save eliminated.
 1459              		.loc 1 485 0
 1460 0000 024B     		ldr	r3, .L113
 1461 0002 0122     		movs	r2, #1
 1462 0004 83F8FC22 		strb	r2, [r3, #764]
 1463              		.loc 1 486 0
 1464 0008 7047     		bx	lr
 1465              	.L114:
 1466 000a 00BF     		.align	2
 1467              	.L113:
 1468 000c 00000000 		.word	.LANCHOR13
 1469              		.cfi_endproc
 1470              	.LFE265:
 1471              		.size	mc_interface_lock, .-mc_interface_lock
 1472              		.section	.text.mc_interface_unlock,"ax",%progbits
 1473              		.align	1
 1474              		.p2align 4,,15
 1475              		.global	mc_interface_unlock
 1476              		.syntax unified
 1477              		.thumb
 1478              		.thumb_func
 1479              		.fpu fpv4-sp-d16
 1480              		.type	mc_interface_unlock, %function
 1481              	mc_interface_unlock:
 1482              	.LFB266:
ARM GAS  /tmp/ccqyMDDx.s 			page 27


 1483              		.loc 1 491 0
 1484              		.cfi_startproc
 1485              		@ args = 0, pretend = 0, frame = 0
 1486              		@ frame_needed = 0, uses_anonymous_args = 0
 1487              		@ link register save eliminated.
 1488              		.loc 1 492 0
 1489 0000 024B     		ldr	r3, .L116
 1490 0002 0022     		movs	r2, #0
 1491 0004 83F8FC22 		strb	r2, [r3, #764]
 1492              		.loc 1 493 0
 1493 0008 7047     		bx	lr
 1494              	.L117:
 1495 000a 00BF     		.align	2
 1496              	.L116:
 1497 000c 00000000 		.word	.LANCHOR13
 1498              		.cfi_endproc
 1499              	.LFE266:
 1500              		.size	mc_interface_unlock, .-mc_interface_unlock
 1501              		.section	.text.mc_interface_lock_override_once,"ax",%progbits
 1502              		.align	1
 1503              		.p2align 4,,15
 1504              		.global	mc_interface_lock_override_once
 1505              		.syntax unified
 1506              		.thumb
 1507              		.thumb_func
 1508              		.fpu fpv4-sp-d16
 1509              		.type	mc_interface_lock_override_once, %function
 1510              	mc_interface_lock_override_once:
 1511              	.LFB267:
 1512              		.loc 1 498 0
 1513              		.cfi_startproc
 1514              		@ args = 0, pretend = 0, frame = 0
 1515              		@ frame_needed = 0, uses_anonymous_args = 0
 1516              		@ link register save eliminated.
 1517              		.loc 1 499 0
 1518 0000 024B     		ldr	r3, .L119
 1519 0002 0122     		movs	r2, #1
 1520 0004 83F8FD22 		strb	r2, [r3, #765]
 1521              		.loc 1 500 0
 1522 0008 7047     		bx	lr
 1523              	.L120:
 1524 000a 00BF     		.align	2
 1525              	.L119:
 1526 000c 00000000 		.word	.LANCHOR13
 1527              		.cfi_endproc
 1528              	.LFE267:
 1529              		.size	mc_interface_lock_override_once, .-mc_interface_lock_override_once
 1530              		.section	.text.mc_interface_get_fault,"ax",%progbits
 1531              		.align	1
 1532              		.p2align 4,,15
 1533              		.global	mc_interface_get_fault
 1534              		.syntax unified
 1535              		.thumb
 1536              		.thumb_func
 1537              		.fpu fpv4-sp-d16
 1538              		.type	mc_interface_get_fault, %function
 1539              	mc_interface_get_fault:
ARM GAS  /tmp/ccqyMDDx.s 			page 28


 1540              	.LFB268:
 1541              		.loc 1 502 0
 1542              		.cfi_startproc
 1543              		@ args = 0, pretend = 0, frame = 0
 1544              		@ frame_needed = 0, uses_anonymous_args = 0
 1545              		@ link register save eliminated.
 1546              		.loc 1 503 0
 1547 0000 014B     		ldr	r3, .L122
 1548 0002 93F88C02 		ldrb	r0, [r3, #652]	@ zero_extendqisi2
 1549              		.loc 1 504 0
 1550 0006 7047     		bx	lr
 1551              	.L123:
 1552              		.align	2
 1553              	.L122:
 1554 0008 00000000 		.word	.LANCHOR13
 1555              		.cfi_endproc
 1556              	.LFE268:
 1557              		.size	mc_interface_get_fault, .-mc_interface_get_fault
 1558              		.section	.text.mc_interface_fault_to_string,"ax",%progbits
 1559              		.align	1
 1560              		.p2align 4,,15
 1561              		.global	mc_interface_fault_to_string
 1562              		.syntax unified
 1563              		.thumb
 1564              		.thumb_func
 1565              		.fpu fpv4-sp-d16
 1566              		.type	mc_interface_fault_to_string, %function
 1567              	mc_interface_fault_to_string:
 1568              	.LFB269:
 1569              		.loc 1 506 0
 1570              		.cfi_startproc
 1571              		@ args = 0, pretend = 0, frame = 0
 1572              		@ frame_needed = 0, uses_anonymous_args = 0
 1573              		@ link register save eliminated.
 1574              	.LVL101:
 1575 0000 1A28     		cmp	r0, #26
 1576 0002 9ABF     		itte	ls
 1577 0004 024B     		ldrls	r3, .L127
 1578 0006 53F82000 		ldrls	r0, [r3, r0, lsl #2]
 1579              	.LVL102:
 1580              		.loc 1 506 0
 1581 000a 0248     		ldrhi	r0, .L127+4
 1582              		.loc 1 538 0
 1583 000c 7047     		bx	lr
 1584              	.L128:
 1585 000e 00BF     		.align	2
 1586              	.L127:
 1587 0010 00000000 		.word	.LANCHOR25
 1588 0014 00000000 		.word	.LC5
 1589              		.cfi_endproc
 1590              	.LFE269:
 1591              		.size	mc_interface_fault_to_string, .-mc_interface_fault_to_string
 1592              		.section	.text.mc_interface_get_state,"ax",%progbits
 1593              		.align	1
 1594              		.p2align 4,,15
 1595              		.global	mc_interface_get_state
 1596              		.syntax unified
ARM GAS  /tmp/ccqyMDDx.s 			page 29


 1597              		.thumb
 1598              		.thumb_func
 1599              		.fpu fpv4-sp-d16
 1600              		.type	mc_interface_get_state, %function
 1601              	mc_interface_get_state:
 1602              	.LFB270:
 1603              		.loc 1 540 0
 1604              		.cfi_startproc
 1605              		@ args = 0, pretend = 0, frame = 0
 1606              		@ frame_needed = 0, uses_anonymous_args = 0
 1607              		@ link register save eliminated.
 1608              	.LVL103:
 1609              		.loc 1 542 0
 1610 0000 064B     		ldr	r3, .L135
 1611 0002 93F88630 		ldrb	r3, [r3, #134]	@ zero_extendqisi2
 1612 0006 DBB2     		uxtb	r3, r3
 1613 0008 012B     		cmp	r3, #1
 1614 000a 05D9     		bls	.L131
 1615 000c 022B     		cmp	r3, #2
 1616 000e 01D1     		bne	.L134
 1617              		.loc 1 549 0
 1618 0010 FFF7FEBF 		b	mcpwm_foc_get_state
 1619              	.LVL104:
 1620              	.L134:
 1621              		.loc 1 557 0
 1622 0014 0020     		movs	r0, #0
 1623 0016 7047     		bx	lr
 1624              	.L131:
 1625              		.loc 1 545 0
 1626 0018 FFF7FEBF 		b	mcpwm_get_state
 1627              	.LVL105:
 1628              	.L136:
 1629              		.align	2
 1630              	.L135:
 1631 001c 00000000 		.word	.LANCHOR13
 1632              		.cfi_endproc
 1633              	.LFE270:
 1634              		.size	mc_interface_get_state, .-mc_interface_get_state
 1635              		.section	.text.mc_interface_release_motor_override,"ax",%progbits
 1636              		.align	1
 1637              		.p2align 4,,15
 1638              		.global	mc_interface_release_motor_override
 1639              		.syntax unified
 1640              		.thumb
 1641              		.thumb_func
 1642              		.fpu fpv4-sp-d16
 1643              		.type	mc_interface_release_motor_override, %function
 1644              	mc_interface_release_motor_override:
 1645              	.LFB283:
 1646              		.loc 1 838 0
 1647              		.cfi_startproc
 1648              		@ args = 0, pretend = 0, frame = 0
 1649              		@ frame_needed = 0, uses_anonymous_args = 0
 1650 0000 08B5     		push	{r3, lr}
 1651              		.cfi_def_cfa_offset 8
 1652              		.cfi_offset 3, -8
 1653              		.cfi_offset 14, -4
ARM GAS  /tmp/ccqyMDDx.s 			page 30


 1654              		.loc 1 839 0
 1655 0002 0D4B     		ldr	r3, .L142
 1656 0004 93F88630 		ldrb	r3, [r3, #134]	@ zero_extendqisi2
 1657 0008 DBB2     		uxtb	r3, r3
 1658 000a 012B     		cmp	r3, #1
 1659 000c 0AD9     		bls	.L139
 1660 000e 022B     		cmp	r3, #2
 1661 0010 01D1     		bne	.L138
 1662              		.loc 1 846 0
 1663 0012 FFF7FEFF 		bl	mcpwm_foc_release_motor
 1664              	.LVL106:
 1665              	.L138:
 1666              		.loc 1 853 0
 1667 0016 9FED090A 		vldr.32	s0, .L142+4
 1668 001a 0948     		ldr	r0, .L142+8
 1669              		.loc 1 854 0
 1670 001c BDE80840 		pop	{r3, lr}
 1671              		.cfi_remember_state
 1672              		.cfi_restore 14
 1673              		.cfi_restore 3
 1674              		.cfi_def_cfa_offset 0
 1675              		.loc 1 853 0
 1676 0020 FFF7FEBF 		b	events_add
 1677              	.LVL107:
 1678              	.L139:
 1679              		.cfi_restore_state
 1680              		.loc 1 842 0
 1681 0024 FFF7FEFF 		bl	mcpwm_release_motor
 1682              	.LVL108:
 1683              		.loc 1 853 0
 1684 0028 9FED040A 		vldr.32	s0, .L142+4
 1685 002c 0448     		ldr	r0, .L142+8
 1686              		.loc 1 854 0
 1687 002e BDE80840 		pop	{r3, lr}
 1688              		.cfi_restore 14
 1689              		.cfi_restore 3
 1690              		.cfi_def_cfa_offset 0
 1691              		.loc 1 853 0
 1692 0032 FFF7FEBF 		b	events_add
 1693              	.LVL109:
 1694              	.L143:
 1695 0036 00BF     		.align	2
 1696              	.L142:
 1697 0038 00000000 		.word	.LANCHOR13
 1698 003c 00000000 		.word	0
 1699 0040 00000000 		.word	.LC6
 1700              		.cfi_endproc
 1701              	.LFE283:
 1702              		.size	mc_interface_release_motor_override, .-mc_interface_release_motor_override
 1703              		.section	.text.mc_interface_wait_for_motor_release,"ax",%progbits
 1704              		.align	1
 1705              		.p2align 4,,15
 1706              		.global	mc_interface_wait_for_motor_release
 1707              		.syntax unified
 1708              		.thumb
 1709              		.thumb_func
 1710              		.fpu fpv4-sp-d16
ARM GAS  /tmp/ccqyMDDx.s 			page 31


 1711              		.type	mc_interface_wait_for_motor_release, %function
 1712              	mc_interface_wait_for_motor_release:
 1713              	.LFB284:
 1714              		.loc 1 856 0
 1715              		.cfi_startproc
 1716              		@ args = 0, pretend = 0, frame = 0
 1717              		@ frame_needed = 0, uses_anonymous_args = 0
 1718              	.LVL110:
 1719 0000 38B5     		push	{r3, r4, r5, lr}
 1720              		.cfi_def_cfa_offset 16
 1721              		.cfi_offset 3, -16
 1722              		.cfi_offset 4, -12
 1723              		.cfi_offset 5, -8
 1724              		.cfi_offset 14, -4
 1725              	.LBB675:
 1726              	.LBB676:
 1727              		.loc 4 231 0
 1728 0002 304C     		ldr	r4, .L165
 1729              	.LBE676:
 1730              	.LBE675:
 1731              		.loc 1 860 0
 1732 0004 304B     		ldr	r3, .L165+4
 1733              	.LBB678:
 1734              	.LBB677:
 1735              		.loc 4 231 0
 1736 0006 A56A     		ldr	r5, [r4, #40]
 1737              	.LVL111:
 1738              	.LBE677:
 1739              	.LBE678:
 1740              		.loc 1 860 0
 1741 0008 93F88630 		ldrb	r3, [r3, #134]	@ zero_extendqisi2
 1742 000c DBB2     		uxtb	r3, r3
 1743 000e 012B     		cmp	r3, #1
 1744              		.loc 1 856 0
 1745 0010 2DED028B 		vpush.64	{d8}
 1746              		.cfi_def_cfa_offset 24
 1747              		.cfi_offset 80, -24
 1748              		.cfi_offset 81, -20
 1749              		.loc 1 856 0
 1750 0014 B0EE408A 		vmov.f32	s16, s0
 1751              		.loc 1 860 0
 1752 0018 2DD9     		bls	.L146
 1753 001a 022B     		cmp	r3, #2
 1754 001c 27D1     		bne	.L161
 1755              	.LVL112:
 1756              	.LBB679:
 1757              	.LBB680:
 1758              	.LBB681:
 1759              	.LBB682:
 1760              		.loc 4 231 0
 1761 001e A36A     		ldr	r3, [r4, #40]
 1762              	.LVL113:
 1763              	.LBE682:
 1764              	.LBE681:
 1765              	.LBE680:
 1766              	.LBE679:
 1767              		.loc 1 874 0
ARM GAS  /tmp/ccqyMDDx.s 			page 32


 1768 0020 DFED2A8A 		vldr.32	s17, .L165+8
 1769              	.LBB687:
 1770              	.LBB685:
 1771              		.loc 4 267 0
 1772 0024 5B1B     		subs	r3, r3, r5
 1773              	.LBE685:
 1774              	.LBE687:
 1775              		.loc 1 874 0
 1776 0026 07EE903A 		vmov	s15, r3	@ int
 1777 002a F8EE677A 		vcvt.f32.u32	s15, s15
 1778 002e 87EEA87A 		vdiv.f32	s14, s15, s17
 1779 0032 B4EEC70A 		vcmpe.f32	s0, s14
 1780 0036 F1EE10FA 		vmrs	APSR_nzcv, FPSCR
 1781 003a 10DC     		bgt	.L148
 1782 003c 17E0     		b	.L161
 1783              	.LVL114:
 1784              	.L163:
 1785              		.loc 1 880 0
 1786 003e 0A20     		movs	r0, #10
 1787 0040 FFF7FEFF 		bl	chThdSleep
 1788              	.LVL115:
 1789              	.LBB688:
 1790              	.LBB686:
 1791              	.LBB684:
 1792              	.LBB683:
 1793              		.loc 4 231 0
 1794 0044 A36A     		ldr	r3, [r4, #40]
 1795              	.LVL116:
 1796              	.LBE683:
 1797              	.LBE684:
 1798              		.loc 4 267 0
 1799 0046 5B1B     		subs	r3, r3, r5
 1800              	.LBE686:
 1801              	.LBE688:
 1802              		.loc 1 874 0
 1803 0048 07EE903A 		vmov	s15, r3	@ int
 1804 004c F8EE677A 		vcvt.f32.u32	s15, s15
 1805 0050 87EEA87A 		vdiv.f32	s14, s15, s17
 1806 0054 B4EEC87A 		vcmpe.f32	s14, s16
 1807 0058 F1EE10FA 		vmrs	APSR_nzcv, FPSCR
 1808 005c 07D5     		bpl	.L161
 1809              	.L148:
 1810              		.loc 1 875 0
 1811 005e FFF7FEFF 		bl	mcpwm_foc_get_state
 1812              	.LVL117:
 1813 0062 0028     		cmp	r0, #0
 1814 0064 EBD1     		bne	.L163
 1815              		.loc 1 865 0
 1816 0066 0120     		movs	r0, #1
 1817              	.L164:
 1818              	.LVL118:
 1819              		.loc 1 889 0
 1820 0068 BDEC028B 		vldm	sp!, {d8}
 1821              		.cfi_remember_state
 1822              		.cfi_restore 80
 1823              		.cfi_restore 81
 1824              		.cfi_def_cfa_offset 16
ARM GAS  /tmp/ccqyMDDx.s 			page 33


 1825              	.LVL119:
 1826 006c 38BD     		pop	{r3, r4, r5, pc}
 1827              	.LVL120:
 1828              	.L161:
 1829              		.cfi_restore_state
 1830 006e BDEC028B 		vldm	sp!, {d8}
 1831              		.cfi_remember_state
 1832              		.cfi_restore 80
 1833              		.cfi_restore 81
 1834              		.cfi_def_cfa_offset 16
 1835              	.LVL121:
 1836              		.loc 1 858 0
 1837 0072 0020     		movs	r0, #0
 1838              	.LVL122:
 1839              		.loc 1 889 0
 1840 0074 38BD     		pop	{r3, r4, r5, pc}
 1841              	.LVL123:
 1842              	.L146:
 1843              		.cfi_restore_state
 1844              	.LBB689:
 1845              	.LBB690:
 1846              	.LBB691:
 1847              	.LBB692:
 1848              		.loc 4 231 0
 1849 0076 A36A     		ldr	r3, [r4, #40]
 1850              	.LVL124:
 1851              	.LBE692:
 1852              	.LBE691:
 1853              	.LBE690:
 1854              	.LBE689:
 1855              		.loc 1 863 0
 1856 0078 DFED148A 		vldr.32	s17, .L165+8
 1857              	.LBB697:
 1858              	.LBB695:
 1859              		.loc 4 267 0
 1860 007c 5B1B     		subs	r3, r3, r5
 1861              	.LBE695:
 1862              	.LBE697:
 1863              		.loc 1 863 0
 1864 007e 07EE903A 		vmov	s15, r3	@ int
 1865 0082 F8EE677A 		vcvt.f32.u32	s15, s15
 1866 0086 87EEA87A 		vdiv.f32	s14, s15, s17
 1867 008a B4EEC70A 		vcmpe.f32	s0, s14
 1868 008e F1EE10FA 		vmrs	APSR_nzcv, FPSCR
 1869 0092 10DC     		bgt	.L152
 1870 0094 EBE7     		b	.L161
 1871              	.LVL125:
 1872              	.L151:
 1873              		.loc 1 869 0
 1874 0096 0A20     		movs	r0, #10
 1875 0098 FFF7FEFF 		bl	chThdSleep
 1876              	.LVL126:
 1877              	.LBB698:
 1878              	.LBB696:
 1879              	.LBB694:
 1880              	.LBB693:
 1881              		.loc 4 231 0
ARM GAS  /tmp/ccqyMDDx.s 			page 34


 1882 009c A36A     		ldr	r3, [r4, #40]
 1883              	.LVL127:
 1884              	.LBE693:
 1885              	.LBE694:
 1886              		.loc 4 267 0
 1887 009e 5B1B     		subs	r3, r3, r5
 1888              	.LBE696:
 1889              	.LBE698:
 1890              		.loc 1 863 0
 1891 00a0 07EE903A 		vmov	s15, r3	@ int
 1892 00a4 F8EE677A 		vcvt.f32.u32	s15, s15
 1893 00a8 87EEA87A 		vdiv.f32	s14, s15, s17
 1894 00ac B4EEC87A 		vcmpe.f32	s14, s16
 1895 00b0 F1EE10FA 		vmrs	APSR_nzcv, FPSCR
 1896 00b4 DBD5     		bpl	.L161
 1897              	.L152:
 1898              		.loc 1 864 0
 1899 00b6 FFF7FEFF 		bl	mcpwm_get_state
 1900              	.LVL128:
 1901 00ba 0028     		cmp	r0, #0
 1902 00bc EBD1     		bne	.L151
 1903              		.loc 1 865 0
 1904 00be 0120     		movs	r0, #1
 1905 00c0 D2E7     		b	.L164
 1906              	.L166:
 1907 00c2 00BF     		.align	2
 1908              	.L165:
 1909 00c4 00000000 		.word	ch
 1910 00c8 00000000 		.word	.LANCHOR13
 1911 00cc 00401C46 		.word	1176256512
 1912              		.cfi_endproc
 1913              	.LFE284:
 1914              		.size	mc_interface_wait_for_motor_release, .-mc_interface_wait_for_motor_release
 1915              		.section	.text.mc_interface_get_duty_cycle_set,"ax",%progbits
 1916              		.align	1
 1917              		.p2align 4,,15
 1918              		.global	mc_interface_get_duty_cycle_set
 1919              		.syntax unified
 1920              		.thumb
 1921              		.thumb_func
 1922              		.fpu fpv4-sp-d16
 1923              		.type	mc_interface_get_duty_cycle_set, %function
 1924              	mc_interface_get_duty_cycle_set:
 1925              	.LFB285:
 1926              		.loc 1 894 0
 1927              		.cfi_startproc
 1928              		@ args = 0, pretend = 0, frame = 0
 1929              		@ frame_needed = 0, uses_anonymous_args = 0
 1930              	.LVL129:
 1931 0000 10B5     		push	{r4, lr}
 1932              		.cfi_def_cfa_offset 8
 1933              		.cfi_offset 4, -8
 1934              		.cfi_offset 14, -4
 1935              		.loc 1 897 0
 1936 0002 0B4C     		ldr	r4, .L179
 1937 0004 94F88630 		ldrb	r3, [r4, #134]	@ zero_extendqisi2
 1938 0008 DBB2     		uxtb	r3, r3
ARM GAS  /tmp/ccqyMDDx.s 			page 35


 1939 000a 012B     		cmp	r3, #1
 1940 000c 0DD9     		bls	.L169
 1941 000e 022B     		cmp	r3, #2
 1942 0010 08D0     		beq	.L170
 1943              		.loc 1 895 0
 1944 0012 9FED080A 		vldr.32	s0, .L179+4
 1945              	.LVL130:
 1946              	.L168:
 1947              		.loc 1 911 0
 1948 0016 94F82932 		ldrb	r3, [r4, #553]	@ zero_extendqisi2
 1949 001a 03B9     		cbnz	r3, .L178
 1950              		.loc 1 912 0
 1951 001c 10BD     		pop	{r4, pc}
 1952              	.L178:
 1953 001e B1EE400A 		vneg.f32	s0, s0
 1954              	.LVL131:
 1955 0022 10BD     		pop	{r4, pc}
 1956              	.LVL132:
 1957              	.L170:
 1958              		.loc 1 904 0
 1959 0024 FFF7FEFF 		bl	mcpwm_foc_get_duty_cycle_set
 1960              	.LVL133:
 1961              		.loc 1 905 0
 1962 0028 F5E7     		b	.L168
 1963              	.LVL134:
 1964              	.L169:
 1965              		.loc 1 900 0
 1966 002a FFF7FEFF 		bl	mcpwm_get_duty_cycle_set
 1967              	.LVL135:
 1968              		.loc 1 901 0
 1969 002e F2E7     		b	.L168
 1970              	.L180:
 1971              		.align	2
 1972              	.L179:
 1973 0030 00000000 		.word	.LANCHOR13
 1974 0034 00000000 		.word	0
 1975              		.cfi_endproc
 1976              	.LFE285:
 1977              		.size	mc_interface_get_duty_cycle_set, .-mc_interface_get_duty_cycle_set
 1978              		.section	.text.mc_interface_get_duty_cycle_now,"ax",%progbits
 1979              		.align	1
 1980              		.p2align 4,,15
 1981              		.global	mc_interface_get_duty_cycle_now
 1982              		.syntax unified
 1983              		.thumb
 1984              		.thumb_func
 1985              		.fpu fpv4-sp-d16
 1986              		.type	mc_interface_get_duty_cycle_now, %function
 1987              	mc_interface_get_duty_cycle_now:
 1988              	.LFB286:
 1989              		.loc 1 914 0
 1990              		.cfi_startproc
 1991              		@ args = 0, pretend = 0, frame = 0
 1992              		@ frame_needed = 0, uses_anonymous_args = 0
 1993              	.LVL136:
 1994 0000 10B5     		push	{r4, lr}
 1995              		.cfi_def_cfa_offset 8
ARM GAS  /tmp/ccqyMDDx.s 			page 36


 1996              		.cfi_offset 4, -8
 1997              		.cfi_offset 14, -4
 1998              		.loc 1 917 0
 1999 0002 0B4C     		ldr	r4, .L193
 2000 0004 94F88630 		ldrb	r3, [r4, #134]	@ zero_extendqisi2
 2001 0008 DBB2     		uxtb	r3, r3
 2002 000a 012B     		cmp	r3, #1
 2003 000c 0DD9     		bls	.L183
 2004 000e 022B     		cmp	r3, #2
 2005 0010 08D0     		beq	.L184
 2006              		.loc 1 915 0
 2007 0012 9FED080A 		vldr.32	s0, .L193+4
 2008              	.LVL137:
 2009              	.L182:
 2010              		.loc 1 931 0
 2011 0016 94F82932 		ldrb	r3, [r4, #553]	@ zero_extendqisi2
 2012 001a 03B9     		cbnz	r3, .L192
 2013              		.loc 1 932 0
 2014 001c 10BD     		pop	{r4, pc}
 2015              	.L192:
 2016 001e B1EE400A 		vneg.f32	s0, s0
 2017              	.LVL138:
 2018 0022 10BD     		pop	{r4, pc}
 2019              	.LVL139:
 2020              	.L184:
 2021              		.loc 1 924 0
 2022 0024 FFF7FEFF 		bl	mcpwm_foc_get_duty_cycle_now
 2023              	.LVL140:
 2024              		.loc 1 925 0
 2025 0028 F5E7     		b	.L182
 2026              	.LVL141:
 2027              	.L183:
 2028              		.loc 1 920 0
 2029 002a FFF7FEFF 		bl	mcpwm_get_duty_cycle_now
 2030              	.LVL142:
 2031              		.loc 1 921 0
 2032 002e F2E7     		b	.L182
 2033              	.L194:
 2034              		.align	2
 2035              	.L193:
 2036 0030 00000000 		.word	.LANCHOR13
 2037 0034 00000000 		.word	0
 2038              		.cfi_endproc
 2039              	.LFE286:
 2040              		.size	mc_interface_get_duty_cycle_now, .-mc_interface_get_duty_cycle_now
 2041              		.section	.text.mc_interface_get_sampling_frequency_now,"ax",%progbits
 2042              		.align	1
 2043              		.p2align 4,,15
 2044              		.global	mc_interface_get_sampling_frequency_now
 2045              		.syntax unified
 2046              		.thumb
 2047              		.thumb_func
 2048              		.fpu fpv4-sp-d16
 2049              		.type	mc_interface_get_sampling_frequency_now, %function
 2050              	mc_interface_get_sampling_frequency_now:
 2051              	.LFB287:
 2052              		.loc 1 934 0
ARM GAS  /tmp/ccqyMDDx.s 			page 37


 2053              		.cfi_startproc
 2054              		@ args = 0, pretend = 0, frame = 0
 2055              		@ frame_needed = 0, uses_anonymous_args = 0
 2056              		@ link register save eliminated.
 2057              	.LVL143:
 2058              		.loc 1 937 0
 2059 0000 084B     		ldr	r3, .L201
 2060 0002 93F88630 		ldrb	r3, [r3, #134]	@ zero_extendqisi2
 2061 0006 032B     		cmp	r3, #3
 2062 0008 09D8     		bhi	.L196
 2063 000a DFE803F0 		tbb	[pc, r3]
 2064              	.L198:
 2065 000e 06       		.byte	(.L197-.L198)/2
 2066 000f 06       		.byte	(.L197-.L198)/2
 2067 0010 04       		.byte	(.L199-.L198)/2
 2068 0011 02       		.byte	(.L200-.L198)/2
 2069              		.p2align 1
 2070              	.L200:
 2071              		.loc 1 948 0
 2072 0012 FFF7FEBF 		b	gpdrive_get_switching_frequency_now
 2073              	.LVL144:
 2074              	.L199:
 2075              		.loc 1 944 0
 2076 0016 FFF7FEBF 		b	mcpwm_foc_get_sampling_frequency_now
 2077              	.LVL145:
 2078              	.L197:
 2079              		.loc 1 940 0
 2080 001a FFF7FEBF 		b	mcpwm_get_switching_frequency_now
 2081              	.LVL146:
 2082              	.L196:
 2083              		.loc 1 956 0
 2084 001e 9FED020A 		vldr.32	s0, .L201+4
 2085 0022 7047     		bx	lr
 2086              	.L202:
 2087              		.align	2
 2088              	.L201:
 2089 0024 00000000 		.word	.LANCHOR13
 2090 0028 00000000 		.word	0
 2091              		.cfi_endproc
 2092              	.LFE287:
 2093              		.size	mc_interface_get_sampling_frequency_now, .-mc_interface_get_sampling_frequency_now
 2094              		.section	.text.mc_interface_get_rpm,"ax",%progbits
 2095              		.align	1
 2096              		.p2align 4,,15
 2097              		.global	mc_interface_get_rpm
 2098              		.syntax unified
 2099              		.thumb
 2100              		.thumb_func
 2101              		.fpu fpv4-sp-d16
 2102              		.type	mc_interface_get_rpm, %function
 2103              	mc_interface_get_rpm:
 2104              	.LFB288:
 2105              		.loc 1 958 0
 2106              		.cfi_startproc
 2107              		@ args = 0, pretend = 0, frame = 0
 2108              		@ frame_needed = 0, uses_anonymous_args = 0
 2109              	.LVL147:
ARM GAS  /tmp/ccqyMDDx.s 			page 38


 2110 0000 10B5     		push	{r4, lr}
 2111              		.cfi_def_cfa_offset 8
 2112              		.cfi_offset 4, -8
 2113              		.cfi_offset 14, -4
 2114              		.loc 1 961 0
 2115 0002 0B4C     		ldr	r4, .L215
 2116 0004 94F88630 		ldrb	r3, [r4, #134]	@ zero_extendqisi2
 2117 0008 DBB2     		uxtb	r3, r3
 2118 000a 012B     		cmp	r3, #1
 2119 000c 0DD9     		bls	.L205
 2120 000e 022B     		cmp	r3, #2
 2121 0010 08D0     		beq	.L206
 2122              		.loc 1 959 0
 2123 0012 9FED080A 		vldr.32	s0, .L215+4
 2124              	.LVL148:
 2125              	.L204:
 2126              		.loc 1 975 0
 2127 0016 94F82932 		ldrb	r3, [r4, #553]	@ zero_extendqisi2
 2128 001a 03B9     		cbnz	r3, .L214
 2129              		.loc 1 976 0
 2130 001c 10BD     		pop	{r4, pc}
 2131              	.L214:
 2132 001e B1EE400A 		vneg.f32	s0, s0
 2133              	.LVL149:
 2134 0022 10BD     		pop	{r4, pc}
 2135              	.LVL150:
 2136              	.L206:
 2137              		.loc 1 968 0
 2138 0024 FFF7FEFF 		bl	mcpwm_foc_get_rpm
 2139              	.LVL151:
 2140              		.loc 1 969 0
 2141 0028 F5E7     		b	.L204
 2142              	.LVL152:
 2143              	.L205:
 2144              		.loc 1 964 0
 2145 002a FFF7FEFF 		bl	mcpwm_get_rpm
 2146              	.LVL153:
 2147              		.loc 1 965 0
 2148 002e F2E7     		b	.L204
 2149              	.L216:
 2150              		.align	2
 2151              	.L215:
 2152 0030 00000000 		.word	.LANCHOR13
 2153 0034 00000000 		.word	0
 2154              		.cfi_endproc
 2155              	.LFE288:
 2156              		.size	mc_interface_get_rpm, .-mc_interface_get_rpm
 2157              		.section	.text.update_override_limits.constprop.8,"ax",%progbits
 2158              		.align	1
 2159              		.p2align 4,,15
 2160              		.syntax unified
 2161              		.thumb
 2162              		.thumb_func
 2163              		.fpu fpv4-sp-d16
 2164              		.type	update_override_limits.constprop.8, %function
 2165              	update_override_limits.constprop.8:
 2166              	.LFB361:
ARM GAS  /tmp/ccqyMDDx.s 			page 39


 2167              		.loc 1 2065 0
 2168              		.cfi_startproc
 2169              		@ args = 0, pretend = 0, frame = 8
 2170              		@ frame_needed = 0, uses_anonymous_args = 0
 2171              	.LVL154:
 2172 0000 30B5     		push	{r4, r5, lr}
 2173              		.cfi_def_cfa_offset 12
 2174              		.cfi_offset 4, -12
 2175              		.cfi_offset 5, -8
 2176              		.cfi_offset 14, -4
 2177              		.loc 1 2068 0
 2178 0002 1E4C     		ldr	r4, .L321
 2179              		.loc 1 2065 0
 2180 0004 2DED0C8B 		vpush.64	{d8, d9, d10, d11, d12, d13}
 2181              		.cfi_def_cfa_offset 60
 2182              		.cfi_offset 80, -60
 2183              		.cfi_offset 81, -56
 2184              		.cfi_offset 82, -52
 2185              		.cfi_offset 83, -48
 2186              		.cfi_offset 84, -44
 2187              		.cfi_offset 85, -40
 2188              		.cfi_offset 86, -36
 2189              		.cfi_offset 87, -32
 2190              		.cfi_offset 88, -28
 2191              		.cfi_offset 89, -24
 2192              		.cfi_offset 90, -20
 2193              		.cfi_offset 91, -16
 2194              		.loc 1 2068 0
 2195 0008 94EDD79A 		vldr.32	s18, [r4, #860]
 2196              	.LVL155:
 2197              		.loc 1 2071 0
 2198 000c 94F88630 		ldrb	r3, [r4, #134]	@ zero_extendqisi2
 2199 0010 022B     		cmp	r3, #2
 2200              		.loc 1 2065 0
 2201 0012 83B0     		sub	sp, sp, #12
 2202              		.cfi_def_cfa_offset 72
 2203              		.loc 1 2071 0
 2204 0014 2DD1     		bne	.L218
 2205              		.loc 1 2073 0
 2206 0016 94F82932 		ldrb	r3, [r4, #553]	@ zero_extendqisi2
 2207 001a FFEE007A 		vmov.f32	s15, #-1.0e+0
 2208 001e 002B     		cmp	r3, #0
 2209 0020 F7EE008A 		vmov.f32	s17, #1.0e+0
 2210 0024 18BF     		it	ne
 2211 0026 F0EE678A 		vmovne.f32	s17, s15
 2212 002a FFF7FEFF 		bl	mcpwm_foc_get_rpm_fast
 2213              	.LVL156:
 2214 002e 60EE288A 		vmul.f32	s17, s0, s17
 2215              	.LVL157:
 2216              	.L220:
 2217              		.loc 1 2078 0
 2218 0032 FFF7FEFF 		bl	mc_interface_get_duty_cycle_now
 2219              	.LVL158:
 2220              		.loc 1 2080 0
 2221 0036 94EDD18A 		vldr.32	s16, [r4, #836]
 2222              		.loc 1 2078 0
 2223 003a F0EEC09A 		vabs.f32	s19, s0
ARM GAS  /tmp/ccqyMDDx.s 			page 40


 2224              	.LVL159:
 2225              		.loc 1 2080 0
 2226 003e FFF7FEFF 		bl	hwgigavesc_get_temp
 2227              	.LVL160:
 2228 0042 D4EDD17A 		vldr.32	s15, [r4, #836]
 2229 0046 9FED0E7A 		vldr.32	s14, .L321+4
 2230 004a 38EE400A 		vsub.f32	s0, s16, s0
 2231 004e E0EE477A 		vfms.f32	s15, s0, s14
 2232 0052 C4EDD17A 		vstr.32	s15, [r4, #836]
 2233              	.LVL161:
 2234              		.loc 1 2083 0
 2235 0056 94F84132 		ldrb	r3, [r4, #577]	@ zero_extendqisi2
 2236 005a 062B     		cmp	r3, #6
 2237 005c 00F2F083 		bhi	.L287
 2238 0060 DFE813F0 		tbh	[pc, r3, lsl #1]
 2239              	.L267:
 2240 0064 8903     		.2byte	(.L221-.L267)/2
 2241 0066 6603     		.2byte	(.L224-.L267)/2
 2242 0068 5902     		.2byte	(.L225-.L267)/2
 2243 006a 3F03     		.2byte	(.L223-.L267)/2
 2244 006c 1000     		.2byte	(.L226-.L267)/2
 2245 006e C303     		.2byte	(.L227-.L267)/2
 2246 0070 9C03     		.2byte	(.L228-.L267)/2
 2247              	.LVL162:
 2248              		.p2align 1
 2249              	.L218:
 2250              		.loc 1 2075 0
 2251 0072 FFF7FEFF 		bl	mc_interface_get_rpm
 2252              	.LVL163:
 2253 0076 F0EE408A 		vmov.f32	s17, s0
 2254              	.LVL164:
 2255 007a DAE7     		b	.L220
 2256              	.L322:
 2257              		.align	2
 2258              	.L321:
 2259 007c 00000000 		.word	.LANCHOR13
 2260 0080 CDCCCC3D 		.word	1036831949
 2261              	.LVL165:
 2262              	.L226:
 2263              	.LBB699:
 2264              		.loc 1 2108 0
 2265 0084 F84B     		ldr	r3, .L323
 2266 0086 9FEDF93A 		vldr.32	s6, .L323+4
 2267 008a 5B8A     		ldrh	r3, [r3, #18]
 2268 008c 9FEDF84A 		vldr.32	s8, .L323+8
 2269              		.loc 1 2109 0
 2270 0090 DFEDF87A 		vldr.32	s15, .L323+12
 2271 0094 DFEDF86A 		vldr.32	s13, .L323+16
 2272              		.loc 1 2110 0
 2273 0098 9FEDF86A 		vldr.32	s12, .L323+20
 2274 009c DFEDF84A 		vldr.32	s9, .L323+24
 2275              		.loc 1 2109 0
 2276 00a0 9FEDF85A 		vldr.32	s10, .L323+28
 2277              		.loc 1 2108 0
 2278 00a4 07EE103A 		vmov	s14, r3	@ int
 2279 00a8 B8EE477A 		vcvt.f32.u32	s14, s14
 2280 00ac F7EE003A 		vmov.f32	s7, #1.0e+0
ARM GAS  /tmp/ccqyMDDx.s 			page 41


 2281 00b0 C3EE075A 		vdiv.f32	s11, s6, s14
 2282 00b4 75EEE35A 		vsub.f32	s11, s11, s7
 2283 00b8 84EE257A 		vdiv.f32	s14, s8, s11
 2284              	.LVL166:
 2285              		.loc 1 2109 0
 2286 00bc 67EE277A 		vmul.f32	s15, s14, s15
 2287 00c0 67EE266A 		vmul.f32	s13, s14, s13
 2288 00c4 67EE877A 		vmul.f32	s15, s15, s14
 2289 00c8 66EE876A 		vmul.f32	s13, s13, s14
 2290 00cc 67EE877A 		vmul.f32	s15, s15, s14
 2291 00d0 66EE876A 		vmul.f32	s13, s13, s14
 2292              		.loc 1 2110 0
 2293 00d4 27EE066A 		vmul.f32	s12, s14, s12
 2294              		.loc 1 2109 0
 2295 00d8 E7EE267A 		vfma.f32	s15, s14, s13
 2296 00dc E7EE467A 		vfms.f32	s15, s14, s12
 2297              		.loc 1 2110 0
 2298 00e0 E7EE247A 		vfma.f32	s15, s14, s9
 2299              		.loc 1 2109 0
 2300 00e4 77EEC57A 		vsub.f32	s15, s15, s10
 2301              	.LVL167:
 2302              	.L222:
 2303              	.LBE699:
 2304              		.loc 1 2128 0
 2305 00e8 F4EE677A 		vcmp.f32	s15, s15
 2306 00ec F1EE10FA 		vmrs	APSR_nzcv, FPSCR
 2307 00f0 00F03D82 		beq	.L230
 2308              	.L229:
 2309              		.loc 1 2129 0
 2310 00f4 DFEDE47A 		vldr.32	s15, .L323+32
 2311              	.LVL168:
 2312              	.L231:
 2313              		.loc 1 2132 0
 2314 00f8 D4EDD26A 		vldr.32	s13, [r4, #840]
 2315 00fc DFEDE35A 		vldr.32	s11, .L323+36
 2316 0100 94EDD27A 		vldr.32	s14, [r4, #840]
 2317              		.loc 1 2144 0
 2318 0104 9FEDE26A 		vldr.32	s12, .L323+40
 2319              		.loc 1 2132 0
 2320 0108 76EEE77A 		vsub.f32	s15, s13, s15
 2321              	.LVL169:
 2322 010c A7EEE57A 		vfms.f32	s14, s15, s11
 2323 0110 84EDD27A 		vstr.32	s14, [r4, #840]
 2324              		.loc 1 2138 0
 2325 0114 94ED01AA 		vldr.32	s20, [r4, #4]
 2326 0118 D4ED195A 		vldr.32	s11, [r4, #100]
 2327              		.loc 1 2139 0
 2328 011c 94ED008A 		vldr.32	s16, [r4]
 2329 0120 D4ED186A 		vldr.32	s13, [r4, #96]
 2330              		.loc 1 2144 0
 2331 0124 94EDD17A 		vldr.32	s14, [r4, #836]
 2332 0128 D4ED0F7A 		vldr.32	s15, [r4, #60]
 2333 012c 77EE867A 		vadd.f32	s15, s15, s12
 2334              		.loc 1 2138 0
 2335 0130 2AEE25AA 		vmul.f32	s20, s20, s11
 2336              	.LVL170:
 2337              		.loc 1 2144 0
ARM GAS  /tmp/ccqyMDDx.s 			page 42


 2338 0134 B4EEE77A 		vcmpe.f32	s14, s15
 2339 0138 F1EE10FA 		vmrs	APSR_nzcv, FPSCR
 2340              		.loc 1 2139 0
 2341 013c 28EE268A 		vmul.f32	s16, s16, s13
 2342              	.LVL171:
 2343              		.loc 1 2144 0
 2344 0140 00F14282 		bmi	.L269
 2345              		.loc 1 2146 0
 2346 0144 94EDD17A 		vldr.32	s14, [r4, #836]
 2347 0148 D4ED107A 		vldr.32	s15, [r4, #64]
 2348 014c 37EEC66A 		vsub.f32	s12, s15, s12
 2349 0150 B4EEC67A 		vcmpe.f32	s14, s12
 2350 0154 F1EE10FA 		vmrs	APSR_nzcv, FPSCR
 2351 0158 00F38A82 		bgt	.L312
 2352              	.LBB700:
 2353              		.loc 1 2152 0
 2354 015c F0EECABA 		vabs.f32	s23, s20
 2355              		.loc 1 2151 0
 2356 0160 B0EEC8BA 		vabs.f32	s22, s16
 2357              	.LVL172:
 2358 0164 B4EEEBBA 		vcmpe.f32	s22, s23
 2359 0168 F1EE10FA 		vmrs	APSR_nzcv, FPSCR
 2360              	.LVL173:
 2361              		.loc 1 2156 0
 2362 016c 94EDD10A 		vldr.32	s0, [r4, #836]
 2363 0170 9FEDC92A 		vldr.32	s4, .L323+48
 2364 0174 D4ED0F0A 		vldr.32	s1, [r4, #60]
 2365 0178 94ED101A 		vldr.32	s2, [r4, #64]
 2366 017c 54BF     		ite	pl
 2367 017e F0EE4B1A 		vmovpl.f32	s3, s22
 2368 0182 F0EE6B1A 		vmovmi.f32	s3, s23
 2369              	.LVL174:
 2370 0186 FFF7FEFF 		bl	utils_map
 2371              	.LVL175:
 2372              		.loc 1 2158 0
 2373 018a F4EEC0BA 		vcmpe.f32	s23, s0
 2374 018e F1EE10FA 		vmrs	APSR_nzcv, FPSCR
 2375              		.loc 1 2156 0
 2376 0192 F0EE40AA 		vmov.f32	s21, s0
 2377              	.LVL176:
 2378              		.loc 1 2158 0
 2379 0196 40F33A82 		ble	.L302
 2380              		.loc 1 2159 0
 2381 019a B5EEC0AA 		vcmpe.f32	s20, #0
 2382 019e F1EE10FA 		vmrs	APSR_nzcv, FPSCR
 2383 01a2 4CBF     		ite	mi
 2384 01a4 F1EE40BA 		vnegmi.f32	s23, s0
 2385 01a8 F0EE40BA 		vmovpl.f32	s23, s0
 2386              	.LVL177:
 2387              	.L237:
 2388              		.loc 1 2162 0
 2389 01ac B4EEEABA 		vcmpe.f32	s22, s21
 2390 01b0 F1EE10FA 		vmrs	APSR_nzcv, FPSCR
 2391 01b4 40F32882 		ble	.L304
 2392              		.loc 1 2163 0
 2393 01b8 B5EEC08A 		vcmpe.f32	s16, #0
 2394 01bc F1EE10FA 		vmrs	APSR_nzcv, FPSCR
ARM GAS  /tmp/ccqyMDDx.s 			page 43


 2395 01c0 01D5     		bpl	.L233
 2396 01c2 F1EE6AAA 		vneg.f32	s21, s21
 2397              	.LVL178:
 2398              	.L233:
 2399              	.LBE700:
 2400              		.loc 1 2170 0
 2401 01c6 D4EDD26A 		vldr.32	s13, [r4, #840]
 2402 01ca 9FEDB17A 		vldr.32	s14, .L323+40
 2403 01ce D4ED117A 		vldr.32	s15, [r4, #68]
 2404 01d2 77EE877A 		vadd.f32	s15, s15, s14
 2405 01d6 F4EEE76A 		vcmpe.f32	s13, s15
 2406 01da F1EE10FA 		vmrs	APSR_nzcv, FPSCR
 2407 01de 00F1ED81 		bmi	.L307
 2408              		.loc 1 2172 0
 2409 01e2 D4EDD26A 		vldr.32	s13, [r4, #840]
 2410 01e6 D4ED127A 		vldr.32	s15, [r4, #72]
 2411 01ea 37EEC77A 		vsub.f32	s14, s15, s14
 2412 01ee F4EEC76A 		vcmpe.f32	s13, s14
 2413 01f2 F1EE10FA 		vmrs	APSR_nzcv, FPSCR
 2414 01f6 00F31882 		bgt	.L313
 2415              	.LBB701:
 2416              		.loc 1 2178 0
 2417 01fa B0EECACA 		vabs.f32	s24, s20
 2418              		.loc 1 2177 0
 2419 01fe B0EEC8BA 		vabs.f32	s22, s16
 2420              	.LVL179:
 2421 0202 B4EECCBA 		vcmpe.f32	s22, s24
 2422 0206 F1EE10FA 		vmrs	APSR_nzcv, FPSCR
 2423              	.LVL180:
 2424              		.loc 1 2182 0
 2425 020a 94EDD20A 		vldr.32	s0, [r4, #840]
 2426 020e 9FEDA22A 		vldr.32	s4, .L323+48
 2427 0212 D4ED110A 		vldr.32	s1, [r4, #68]
 2428 0216 94ED121A 		vldr.32	s2, [r4, #72]
 2429 021a 54BF     		ite	pl
 2430 021c F0EE4B1A 		vmovpl.f32	s3, s22
 2431 0220 F0EE4C1A 		vmovmi.f32	s3, s24
 2432              	.LVL181:
 2433 0224 FFF7FEFF 		bl	utils_map
 2434              	.LVL182:
 2435              		.loc 1 2184 0
 2436 0228 B4EEC0CA 		vcmpe.f32	s24, s0
 2437 022c F1EE10FA 		vmrs	APSR_nzcv, FPSCR
 2438              		.loc 1 2182 0
 2439 0230 F0EE40CA 		vmov.f32	s25, s0
 2440              	.LVL183:
 2441              		.loc 1 2184 0
 2442 0234 08DD     		ble	.L248
 2443              		.loc 1 2185 0
 2444 0236 B5EEC0AA 		vcmpe.f32	s20, #0
 2445 023a F1EE10FA 		vmrs	APSR_nzcv, FPSCR
 2446 023e 4CBF     		ite	mi
 2447 0240 B1EE40AA 		vnegmi.f32	s20, s0
 2448              	.LVL184:
 2449 0244 B0EE40AA 		vmovpl.f32	s20, s0
 2450              	.L248:
 2451              	.LVL185:
ARM GAS  /tmp/ccqyMDDx.s 			page 44


 2452              		.loc 1 2188 0
 2453 0248 B4EEECBA 		vcmpe.f32	s22, s25
 2454 024c F1EE10FA 		vmrs	APSR_nzcv, FPSCR
 2455 0250 40F3B481 		ble	.L307
 2456              		.loc 1 2189 0
 2457 0254 B5EEC08A 		vcmpe.f32	s16, #0
 2458 0258 F1EE10FA 		vmrs	APSR_nzcv, FPSCR
 2459 025c 01D5     		bpl	.L244
 2460 025e F1EE6CCA 		vneg.f32	s25, s25
 2461              	.LVL186:
 2462              	.L244:
 2463              	.LBE701:
 2464              		.loc 1 2195 0
 2465 0262 94ED130A 		vldr.32	s0, [r4, #76]
 2466 0266 DFED8C0A 		vldr.32	s1, .L323+48
 2467 026a D4ED0F1A 		vldr.32	s3, [r4, #60]
 2468 026e B3EE092A 		vmov.f32	s4, #2.5e+1
 2469 0272 B7EE001A 		vmov.f32	s2, #1.0e+0
 2470 0276 FFF7FEFF 		bl	utils_map
 2471              	.LVL187:
 2472              		.loc 1 2196 0
 2473 027a DFED870A 		vldr.32	s1, .L323+48
 2474              		.loc 1 2195 0
 2475 027e B0EE40CA 		vmov.f32	s24, s0
 2476              	.LVL188:
 2477              		.loc 1 2196 0
 2478 0282 B3EE092A 		vmov.f32	s4, #2.5e+1
 2479 0286 94ED130A 		vldr.32	s0, [r4, #76]
 2480              	.LVL189:
 2481 028a D4ED101A 		vldr.32	s3, [r4, #64]
 2482 028e B7EE001A 		vmov.f32	s2, #1.0e+0
 2483 0292 FFF7FEFF 		bl	utils_map
 2484              	.LVL190:
 2485              		.loc 1 2197 0
 2486 0296 DFED800A 		vldr.32	s1, .L323+48
 2487 029a B3EE092A 		vmov.f32	s4, #2.5e+1
 2488 029e B7EE001A 		vmov.f32	s2, #1.0e+0
 2489              		.loc 1 2196 0
 2490 02a2 B0EE40DA 		vmov.f32	s26, s0
 2491              	.LVL191:
 2492              		.loc 1 2197 0
 2493 02a6 94ED130A 		vldr.32	s0, [r4, #76]
 2494              	.LVL192:
 2495 02aa D4ED111A 		vldr.32	s3, [r4, #68]
 2496 02ae FFF7FEFF 		bl	utils_map
 2497              	.LVL193:
 2498              		.loc 1 2198 0
 2499 02b2 DFED790A 		vldr.32	s1, .L323+48
 2500              		.loc 1 2197 0
 2501 02b6 B0EE40BA 		vmov.f32	s22, s0
 2502              	.LVL194:
 2503              		.loc 1 2198 0
 2504 02ba B3EE092A 		vmov.f32	s4, #2.5e+1
 2505 02be 94ED130A 		vldr.32	s0, [r4, #76]
 2506              	.LVL195:
 2507 02c2 D4ED121A 		vldr.32	s3, [r4, #72]
 2508 02c6 B7EE001A 		vmov.f32	s2, #1.0e+0
ARM GAS  /tmp/ccqyMDDx.s 			page 45


 2509 02ca FFF7FEFF 		bl	utils_map
 2510              	.LVL196:
 2511              		.loc 1 2201 0
 2512 02ce DFED707A 		vldr.32	s15, .L323+40
 2513 02d2 D4EDD16A 		vldr.32	s13, [r4, #836]
 2514 02d6 3CEE277A 		vadd.f32	s14, s24, s15
 2515              		.loc 1 2198 0
 2516 02da F0EE40DA 		vmov.f32	s27, s0
 2517              	.LVL197:
 2518              		.loc 1 2201 0
 2519 02de F4EEC76A 		vcmpe.f32	s13, s14
 2520 02e2 F1EE10FA 		vmrs	APSR_nzcv, FPSCR
 2521 02e6 00F16C81 		bmi	.L278
 2522              		.loc 1 2203 0
 2523 02ea 7DEE677A 		vsub.f32	s15, s26, s15
 2524 02ee 94EDD17A 		vldr.32	s14, [r4, #836]
 2525 02f2 B4EEE77A 		vcmpe.f32	s14, s15
 2526 02f6 F1EE10FA 		vmrs	APSR_nzcv, FPSCR
 2527 02fa 40F3E381 		ble	.L314
 2528              		.loc 1 2204 0
 2529 02fe 9FED66CA 		vldr.32	s24, .L323+48
 2530              	.LVL198:
 2531              	.L255:
 2532              		.loc 1 2211 0
 2533 0302 DFED637A 		vldr.32	s15, .L323+40
 2534 0306 D4EDD26A 		vldr.32	s13, [r4, #840]
 2535 030a 3BEE277A 		vadd.f32	s14, s22, s15
 2536 030e F4EEC76A 		vcmpe.f32	s13, s14
 2537 0312 F1EE10FA 		vmrs	APSR_nzcv, FPSCR
 2538 0316 00F15F81 		bmi	.L280
 2539              		.loc 1 2213 0
 2540 031a 7DEEE77A 		vsub.f32	s15, s27, s15
 2541 031e 94EDD27A 		vldr.32	s14, [r4, #840]
 2542 0322 B4EEE77A 		vcmpe.f32	s14, s15
 2543 0326 F1EE10FA 		vmrs	APSR_nzcv, FPSCR
 2544 032a 40F3BC81 		ble	.L315
 2545              		.loc 1 2214 0
 2546 032e 9FED5ABA 		vldr.32	s22, .L323+48
 2547              	.LVL199:
 2548              	.L256:
 2549              		.loc 1 2222 0
 2550 0332 D4ED060A 		vldr.32	s1, [r4, #24]
 2551 0336 94ED077A 		vldr.32	s14, [r4, #28]
 2552              		.loc 1 2224 0
 2553 033a DFED557A 		vldr.32	s15, .L323+40
 2554              		.loc 1 2223 0
 2555 033e 94ED061A 		vldr.32	s2, [r4, #24]
 2556              		.loc 1 2222 0
 2557 0342 60EE870A 		vmul.f32	s1, s1, s14
 2558              	.LVL200:
 2559              		.loc 1 2224 0
 2560 0346 30EEA77A 		vadd.f32	s14, s1, s15
 2561 034a F4EEC78A 		vcmpe.f32	s17, s14
 2562 034e F1EE10FA 		vmrs	APSR_nzcv, FPSCR
 2563 0352 00F13E81 		bmi	.L282
 2564              		.loc 1 2226 0
 2565 0356 71EE677A 		vsub.f32	s15, s2, s15
ARM GAS  /tmp/ccqyMDDx.s 			page 46


 2566 035a F4EEE78A 		vcmpe.f32	s17, s15
 2567 035e F1EE10FA 		vmrs	APSR_nzcv, FPSCR
 2568 0362 40F39581 		ble	.L316
 2569              		.loc 1 2227 0
 2570 0366 9FED4CDA 		vldr.32	s26, .L323+48
 2571              	.LVL201:
 2572              	.L257:
 2573              		.loc 1 2234 0
 2574 036a D4ED050A 		vldr.32	s1, [r4, #20]
 2575 036e 94ED077A 		vldr.32	s14, [r4, #28]
 2576              		.loc 1 2236 0
 2577 0372 DFED477A 		vldr.32	s15, .L323+40
 2578              		.loc 1 2235 0
 2579 0376 94ED051A 		vldr.32	s2, [r4, #20]
 2580              		.loc 1 2234 0
 2581 037a 60EE870A 		vmul.f32	s1, s1, s14
 2582              	.LVL202:
 2583              		.loc 1 2236 0
 2584 037e 30EEE77A 		vsub.f32	s14, s1, s15
 2585 0382 F4EEC78A 		vcmpe.f32	s17, s14
 2586 0386 F1EE10FA 		vmrs	APSR_nzcv, FPSCR
 2587 038a 00F32881 		bgt	.L284
 2588              		.loc 1 2238 0
 2589 038e 71EE277A 		vadd.f32	s15, s2, s15
 2590 0392 F4EEE78A 		vcmpe.f32	s17, s15
 2591 0396 F1EE10FA 		vmrs	APSR_nzcv, FPSCR
 2592 039a 40F13B81 		bpl	.L317
 2593              		.loc 1 2239 0
 2594 039e DFED3EDA 		vldr.32	s27, .L323+48
 2595              	.LVL203:
 2596              	.L258:
 2597              		.loc 1 2246 0
 2598 03a2 D4ED1A7A 		vldr.32	s15, [r4, #104]
 2599 03a6 94ED157A 		vldr.32	s14, [r4, #84]
 2600 03aa 67EE877A 		vmul.f32	s15, s15, s14
 2601 03ae F4EEE79A 		vcmpe.f32	s19, s15
 2602 03b2 F1EE10FA 		vmrs	APSR_nzcv, FPSCR
 2603 03b6 09D4     		bmi	.L259
 2604 03b8 94ED1A7A 		vldr.32	s14, [r4, #104]
 2605 03bc DFED357A 		vldr.32	s15, .L323+44
 2606 03c0 B4EEE77A 		vcmpe.f32	s14, s15
 2607 03c4 F1EE10FA 		vmrs	APSR_nzcv, FPSCR
 2608 03c8 40F33F81 		ble	.L318
 2609              	.LVL204:
 2610              	.L259:
 2611              		.loc 1 2253 0
 2612 03cc F0EE6C0A 		vmov.f32	s1, s25
 2613 03d0 B0EE6A0A 		vmov.f32	s0, s21
 2614 03d4 FFF7FEFF 		bl	utils_min_abs
 2615              	.LVL205:
 2616              		.loc 1 2254 0
 2617 03d8 F0EE4A0A 		vmov.f32	s1, s20
 2618              		.loc 1 2253 0
 2619 03dc F0EE409A 		vmov.f32	s19, s0
 2620              	.LVL206:
 2621              		.loc 1 2254 0
 2622 03e0 B0EE6B0A 		vmov.f32	s0, s23
ARM GAS  /tmp/ccqyMDDx.s 			page 47


 2623              	.LVL207:
 2624 03e4 FFF7FEFF 		bl	utils_min_abs
 2625              	.LVL208:
 2626              		.loc 1 2256 0
 2627 03e8 F0EE4D0A 		vmov.f32	s1, s26
 2628              		.loc 1 2254 0
 2629 03ec F0EE408A 		vmov.f32	s17, s0
 2630              	.LVL209:
 2631              		.loc 1 2256 0
 2632 03f0 B0EE690A 		vmov.f32	s0, s19
 2633              	.LVL210:
 2634 03f4 FFF7FEFF 		bl	utils_min_abs
 2635              	.LVL211:
 2636              		.loc 1 2257 0
 2637 03f8 F0EE6D0A 		vmov.f32	s1, s27
 2638 03fc FFF7FEFF 		bl	utils_min_abs
 2639              	.LVL212:
 2640              		.loc 1 2258 0
 2641 0400 F0EE4C0A 		vmov.f32	s1, s24
 2642 0404 FFF7FEFF 		bl	utils_min_abs
 2643              	.LVL213:
 2644              		.loc 1 2259 0
 2645 0408 F0EE4B0A 		vmov.f32	s1, s22
 2646 040c FFF7FEFF 		bl	utils_min_abs
 2647              	.LVL214:
 2648              		.loc 1 2260 0
 2649 0410 F0EE480A 		vmov.f32	s1, s16
 2650 0414 FFF7FEFF 		bl	utils_min_abs
 2651              	.LVL215:
 2652              		.loc 1 2262 0
 2653 0418 D4ED837A 		vldr.32	s15, [r4, #524]
 2654              		.loc 1 2275 0
 2655 041c 9FED1C7A 		vldr.32	s14, .L323+40
 2656              		.loc 1 2262 0
 2657 0420 B4EEE70A 		vcmpe.f32	s0, s15
 2658 0424 F1EE10FA 		vmrs	APSR_nzcv, FPSCR
 2659              		.loc 1 2263 0
 2660 0428 48BF     		it	mi
 2661 042a 94ED830A 		vldrmi.32	s0, [r4, #524]
 2662              	.LVL216:
 2663              		.loc 1 2266 0
 2664 042e D4ED837A 		vldr.32	s15, [r4, #524]
 2665 0432 F1EE677A 		vneg.f32	s15, s15
 2666 0436 F4EEE78A 		vcmpe.f32	s17, s15
 2667 043a F1EE10FA 		vmrs	APSR_nzcv, FPSCR
 2668              		.loc 1 2267 0
 2669 043e C8BF     		it	gt
 2670 0440 D4ED838A 		vldrgt.32	s17, [r4, #524]
 2671              	.LVL217:
 2672              		.loc 1 2270 0
 2673 0444 84ED1B0A 		vstr.32	s0, [r4, #108]
 2674              		.loc 1 2267 0
 2675 0448 C8BF     		it	gt
 2676 044a F1EE688A 		vneggt.f32	s17, s17
 2677              	.LVL218:
 2678              		.loc 1 2271 0
 2679 044e C4ED1C8A 		vstr.32	s17, [r4, #112]
ARM GAS  /tmp/ccqyMDDx.s 			page 48


 2680              	.LVL219:
 2681              		.loc 1 2275 0
 2682 0452 D4ED0C7A 		vldr.32	s15, [r4, #48]
 2683 0456 77EEC77A 		vsub.f32	s15, s15, s14
 2684 045a B4EEE79A 		vcmpe.f32	s18, s15
 2685 045e F1EE10FA 		vmrs	APSR_nzcv, FPSCR
 2686 0462 00F3BF80 		bgt	.L319
 2687 0466 19E0     		b	.L324
 2688              	.L325:
 2689              		.align	2
 2690              	.L323:
 2691 0468 00000000 		.word	.LANCHOR26
 2692 046c 00F07F45 		.word	1166012416
 2693 0470 00401C46 		.word	1176256512
 2694 0474 083F8833 		.word	864567048
 2695 0478 18AA09AD 		.word	2903091736
 2696 047c F3F65239 		.word	961738483
 2697 0480 D4BBD03E 		.word	1053866964
 2698 0484 875B2143 		.word	1126259591
 2699 0488 0000C8C2 		.word	3267887104
 2700 048c 0AD7233C 		.word	1008981770
 2701 0490 CDCCCC3D 		.word	1036831949
 2702 0494 A4707D3F 		.word	1065185444
 2703 0498 00000000 		.word	0
 2704              	.L324:
 2705              		.loc 1 2277 0
 2706 049c D4ED0D7A 		vldr.32	s15, [r4, #52]
 2707 04a0 37EE877A 		vadd.f32	s14, s15, s14
 2708 04a4 B4EEC79A 		vcmpe.f32	s18, s14
 2709 04a8 F1EE10FA 		vmrs	APSR_nzcv, FPSCR
 2710 04ac 40F19D80 		bpl	.L320
 2711              		.loc 1 2278 0
 2712 04b0 5FED070A 		vldr.32	s1, .L323+48
 2713              	.LVL220:
 2714              	.L266:
 2715              		.loc 1 2285 0
 2716 04b4 94ED160A 		vldr.32	s0, [r4, #88]
 2717              	.LVL221:
 2718              		.loc 1 2286 0
 2719 04b8 94ED177A 		vldr.32	s14, [r4, #92]
 2720 04bc 87EE098A 		vdiv.f32	s16, s14, s18
 2721              	.LVL222:
 2722              		.loc 1 2288 0
 2723 04c0 80EE090A 		vdiv.f32	s0, s0, s18
 2724              	.LVL223:
 2725 04c4 FFF7FEFF 		bl	utils_min_abs
 2726              	.LVL224:
 2727              		.loc 1 2292 0
 2728 04c8 6946     		mov	r1, sp
 2729 04ca 01A8     		add	r0, sp, #4
 2730 04cc D4ED037A 		vldr.32	s15, [r4, #12]
 2731              		.loc 1 2288 0
 2732 04d0 8DED000A 		vstr.32	s0, [sp]
 2733              		.loc 1 2292 0
 2734 04d4 D4ED020A 		vldr.32	s1, [r4, #8]
 2735              		.loc 1 2289 0
 2736 04d8 8DED018A 		vstr.32	s16, [sp, #4]
ARM GAS  /tmp/ccqyMDDx.s 			page 49


 2737              		.loc 1 2292 0
 2738 04dc B0EE670A 		vmov.f32	s0, s15
 2739 04e0 FFF7FEFF 		bl	bms_update_limits
 2740              	.LVL225:
 2741              		.loc 1 2294 0
 2742 04e4 DDED000A 		vldr.32	s1, [sp]
 2743 04e8 94ED020A 		vldr.32	s0, [r4, #8]
 2744 04ec FFF7FEFF 		bl	utils_min_abs
 2745              	.LVL226:
 2746 04f0 84ED1D0A 		vstr.32	s0, [r4, #116]
 2747              		.loc 1 2295 0
 2748 04f4 94ED030A 		vldr.32	s0, [r4, #12]
 2749 04f8 DDED010A 		vldr.32	s1, [sp, #4]
 2750 04fc FFF7FEFF 		bl	utils_min_abs
 2751              	.LVL227:
 2752 0500 84ED1E0A 		vstr.32	s0, [r4, #120]
 2753              		.loc 1 2315 0
 2754 0504 E36E     		ldr	r3, [r4, #108]	@ float
 2755 0506 E367     		str	r3, [r4, #124]	@ float
 2756              		.loc 1 2316 0
 2757 0508 236F     		ldr	r3, [r4, #112]	@ float
 2758 050a C4F88030 		str	r3, [r4, #128]	@ float
 2759              		.loc 1 2317 0
 2760 050e 03B0     		add	sp, sp, #12
 2761              		.cfi_remember_state
 2762              		.cfi_def_cfa_offset 60
 2763              		@ sp needed
 2764 0510 BDEC0C8B 		vldm	sp!, {d8-d13}
 2765              		.cfi_restore 90
 2766              		.cfi_restore 91
 2767              		.cfi_restore 88
 2768              		.cfi_restore 89
 2769              		.cfi_restore 86
 2770              		.cfi_restore 87
 2771              		.cfi_restore 84
 2772              		.cfi_restore 85
 2773              		.cfi_restore 82
 2774              		.cfi_restore 83
 2775              		.cfi_restore 80
 2776              		.cfi_restore 81
 2777              		.cfi_def_cfa_offset 12
 2778              	.LVL228:
 2779 0514 30BD     		pop	{r4, r5, pc}
 2780              	.LVL229:
 2781              	.L225:
 2782              		.cfi_restore_state
 2783              	.LBB702:
 2784              		.loc 1 2101 0
 2785 0516 CC4B     		ldr	r3, .L326
 2786 0518 DFEDCC3A 		vldr.32	s7, .L326+4
 2787 051c 5B8A     		ldrh	r3, [r3, #18]
 2788 051e DFEDCC6A 		vldr.32	s13, .L326+8
 2789              		.loc 1 2103 0
 2790 0522 DFEDCC7A 		vldr.32	s15, .L326+12
 2791 0526 DFEDCC4A 		vldr.32	s9, .L326+16
 2792 052a 9FEDCC5A 		vldr.32	s10, .L326+20
 2793 052e DFEDCC5A 		vldr.32	s11, .L326+24
ARM GAS  /tmp/ccqyMDDx.s 			page 50


 2794              		.loc 1 2101 0
 2795 0532 07EE103A 		vmov	s14, r3	@ int
 2796 0536 B8EE477A 		vcvt.f32.u32	s14, s14
 2797 053a B7EE004A 		vmov.f32	s8, #1.0e+0
 2798 053e 83EE876A 		vdiv.f32	s12, s7, s14
 2799 0542 36EE446A 		vsub.f32	s12, s12, s8
 2800 0546 86EE867A 		vdiv.f32	s14, s13, s12
 2801              	.LVL230:
 2802              		.loc 1 2102 0
 2803 054a 67EE076A 		vmul.f32	s13, s14, s14
 2804              	.LVL231:
 2805              		.loc 1 2103 0
 2806 054e 67EEE67A 		vnmul.f32	s15, s15, s13
 2807 0552 66EEA46A 		vmul.f32	s13, s13, s9
 2808              	.LVL232:
 2809 0556 E7EE267A 		vfma.f32	s15, s14, s13
 2810 055a E7EE057A 		vfma.f32	s15, s14, s10
 2811 055e 77EEE57A 		vsub.f32	s15, s15, s11
 2812              	.LVL233:
 2813              	.LBE702:
 2814              		.loc 1 2128 0
 2815 0562 F4EE677A 		vcmp.f32	s15, s15
 2816 0566 F1EE10FA 		vmrs	APSR_nzcv, FPSCR
 2817 056a 7FF4C3AD 		bne	.L229
 2818              	.LVL234:
 2819              	.L230:
 2820 056e 9FEDBD7A 		vldr.32	s14, .L326+28
 2821 0572 B7EE006A 		vmov.f32	s12, #1.0e+0
 2822 0576 C6EE076A 		vdiv.f32	s13, s12, s14
 2823 057a F4EE667A 		vcmp.f32	s15, s13
 2824 057e F1EE10FA 		vmrs	APSR_nzcv, FPSCR
 2825 0582 3FF4B7AD 		beq	.L229
 2826 0586 BFEE006A 		vmov.f32	s12, #-1.0e+0
 2827 058a C6EE076A 		vdiv.f32	s13, s12, s14
 2828 058e F4EE667A 		vcmp.f32	s15, s13
 2829 0592 F1EE10FA 		vmrs	APSR_nzcv, FPSCR
 2830 0596 3FF4ADAD 		beq	.L229
 2831 059a 9FEDB37A 		vldr.32	s14, .L326+32
 2832 059e F4EEC77A 		vcmpe.f32	s15, s14
 2833 05a2 F1EE10FA 		vmrs	APSR_nzcv, FPSCR
 2834 05a6 3FF7A5AD 		bgt	.L229
 2835 05aa 9FEDB07A 		vldr.32	s14, .L326+36
 2836 05ae F4EEC77A 		vcmpe.f32	s15, s14
 2837 05b2 F1EE10FA 		vmrs	APSR_nzcv, FPSCR
 2838 05b6 7FF59FAD 		bpl	.L231
 2839 05ba 9BE5     		b	.L229
 2840              	.LVL235:
 2841              	.L307:
 2842              		.loc 1 2169 0
 2843 05bc F0EE48CA 		vmov.f32	s25, s16
 2844 05c0 4FE6     		b	.L244
 2845              	.LVL236:
 2846              	.L278:
 2847              		.loc 1 2202 0
 2848 05c2 B0EE48CA 		vmov.f32	s24, s16
 2849              	.LVL237:
 2850 05c6 9CE6     		b	.L255
ARM GAS  /tmp/ccqyMDDx.s 			page 51


 2851              	.LVL238:
 2852              	.L269:
 2853              		.loc 1 2143 0
 2854 05c8 F0EE48AA 		vmov.f32	s21, s16
 2855              		.loc 1 2142 0
 2856 05cc F0EE4ABA 		vmov.f32	s23, s20
 2857 05d0 F9E5     		b	.L233
 2858              	.LVL239:
 2859              	.L282:
 2860              		.loc 1 2225 0
 2861 05d2 B0EE48DA 		vmov.f32	s26, s16
 2862              	.LVL240:
 2863 05d6 C8E6     		b	.L257
 2864              	.LVL241:
 2865              	.L280:
 2866              		.loc 1 2212 0
 2867 05d8 B0EE48BA 		vmov.f32	s22, s16
 2868              	.LVL242:
 2869 05dc A9E6     		b	.L256
 2870              	.LVL243:
 2871              	.L284:
 2872              		.loc 1 2237 0
 2873 05de F0EE48DA 		vmov.f32	s27, s16
 2874              	.LVL244:
 2875 05e2 DEE6     		b	.L258
 2876              	.LVL245:
 2877              	.L319:
 2878              		.loc 1 2276 0
 2879 05e4 D4ED020A 		vldr.32	s1, [r4, #8]
 2880              	.LVL246:
 2881 05e8 64E7     		b	.L266
 2882              	.LVL247:
 2883              	.L320:
 2884              		.loc 1 2280 0
 2885 05ea D4ED0C0A 		vldr.32	s1, [r4, #48]
 2886 05ee 9FED9D2A 		vldr.32	s4, .L326+28
 2887 05f2 94ED0D1A 		vldr.32	s2, [r4, #52]
 2888 05f6 D4ED021A 		vldr.32	s3, [r4, #8]
 2889 05fa B0EE490A 		vmov.f32	s0, s18
 2890              	.LVL248:
 2891 05fe FFF7FEFF 		bl	utils_map
 2892              	.LVL249:
 2893 0602 F0EE400A 		vmov.f32	s1, s0
 2894              	.LVL250:
 2895 0606 55E7     		b	.L266
 2896              	.LVL251:
 2897              	.L304:
 2898              		.loc 1 2143 0
 2899 0608 F0EE48AA 		vmov.f32	s21, s16
 2900 060c DBE5     		b	.L233
 2901              	.LVL252:
 2902              	.L302:
 2903              		.loc 1 2142 0
 2904 060e F0EE4ABA 		vmov.f32	s23, s20
 2905 0612 CBE5     		b	.L237
 2906              	.LVL253:
 2907              	.L317:
ARM GAS  /tmp/ccqyMDDx.s 			page 52


 2908              		.loc 1 2241 0
 2909 0614 B0EE680A 		vmov.f32	s0, s17
 2910 0618 9FED922A 		vldr.32	s4, .L326+28
 2911 061c F0EE481A 		vmov.f32	s3, s16
 2912 0620 FFF7FEFF 		bl	utils_map
 2913              	.LVL254:
 2914 0624 F0EE40DA 		vmov.f32	s27, s0
 2915              	.LVL255:
 2916 0628 BBE6     		b	.L258
 2917              	.LVL256:
 2918              	.L313:
 2919              	.LBB703:
 2920              	.LBB704:
 2921              		.loc 1 1721 0
 2922 062a 914A     		ldr	r2, .L326+40
 2923              		.loc 1 1713 0
 2924 062c 9149     		ldr	r1, .L326+44
 2925              		.loc 1 1714 0
 2926 062e 924B     		ldr	r3, .L326+48
 2927              	.LBE704:
 2928              	.LBE703:
 2929              		.loc 1 2174 0
 2930 0630 9FED8CAA 		vldr.32	s20, .L326+28
 2931              	.LVL257:
 2932              	.LBB707:
 2933              	.LBB705:
 2934              		.loc 1 1721 0
 2935 0634 1068     		ldr	r0, [r2]
 2936              		.loc 1 1713 0
 2937 0636 0625     		movs	r5, #6
 2938 0638 0D70     		strb	r5, [r1]
 2939              		.loc 1 1714 0
 2940 063a 0022     		movs	r2, #0
 2941              		.loc 1 1721 0
 2942 063c 0121     		movs	r1, #1
 2943              		.loc 1 1714 0
 2944 063e 1A70     		strb	r2, [r3]
 2945              	.LBE705:
 2946              	.LBE707:
 2947              		.loc 1 2173 0
 2948 0640 F0EE4ACA 		vmov.f32	s25, s20
 2949              	.LBB708:
 2950              	.LBB706:
 2951              		.loc 1 1721 0
 2952 0644 FFF7FEFF 		bl	chEvtSignal
 2953              	.LVL258:
 2954 0648 0BE6     		b	.L244
 2955              	.LVL259:
 2956              	.L318:
 2957              	.LBE706:
 2958              	.LBE708:
 2959              		.loc 1 2249 0
 2960 064a D4ED1A0A 		vldr.32	s1, [r4, #104]
 2961 064e D4ED157A 		vldr.32	s15, [r4, #84]
 2962 0652 9FED842A 		vldr.32	s4, .L326+28
 2963 0656 94ED151A 		vldr.32	s2, [r4, #84]
 2964 065a F0EE481A 		vmov.f32	s3, s16
ARM GAS  /tmp/ccqyMDDx.s 			page 53


 2965 065e B0EE690A 		vmov.f32	s0, s19
 2966 0662 60EEA70A 		vmul.f32	s1, s1, s15
 2967 0666 FFF7FEFF 		bl	utils_map
 2968              	.LVL260:
 2969 066a B0EE408A 		vmov.f32	s16, s0
 2970              	.LVL261:
 2971 066e ADE6     		b	.L259
 2972              	.LVL262:
 2973              	.L312:
 2974              	.LBB709:
 2975              	.LBB710:
 2976              		.loc 1 1721 0
 2977 0670 7F4A     		ldr	r2, .L326+40
 2978              		.loc 1 1713 0
 2979 0672 8049     		ldr	r1, .L326+44
 2980              		.loc 1 1714 0
 2981 0674 804B     		ldr	r3, .L326+48
 2982              	.LBE710:
 2983              	.LBE709:
 2984              		.loc 1 2148 0
 2985 0676 DFED7BAA 		vldr.32	s21, .L326+28
 2986              	.LBB713:
 2987              	.LBB711:
 2988              		.loc 1 1721 0
 2989 067a 1068     		ldr	r0, [r2]
 2990              		.loc 1 1713 0
 2991 067c 0525     		movs	r5, #5
 2992 067e 0D70     		strb	r5, [r1]
 2993              		.loc 1 1714 0
 2994 0680 0022     		movs	r2, #0
 2995              		.loc 1 1721 0
 2996 0682 0121     		movs	r1, #1
 2997              		.loc 1 1714 0
 2998 0684 1A70     		strb	r2, [r3]
 2999              	.LBE711:
 3000              	.LBE713:
 3001              		.loc 1 2147 0
 3002 0686 F0EE6ABA 		vmov.f32	s23, s21
 3003              	.LBB714:
 3004              	.LBB712:
 3005              		.loc 1 1721 0
 3006 068a FFF7FEFF 		bl	chEvtSignal
 3007              	.LVL263:
 3008 068e 9AE5     		b	.L233
 3009              	.LVL264:
 3010              	.L316:
 3011              	.LBE712:
 3012              	.LBE714:
 3013              		.loc 1 2229 0
 3014 0690 9FED742A 		vldr.32	s4, .L326+28
 3015 0694 F0EE481A 		vmov.f32	s3, s16
 3016 0698 B0EE680A 		vmov.f32	s0, s17
 3017 069c FFF7FEFF 		bl	utils_map
 3018              	.LVL265:
 3019 06a0 B0EE40DA 		vmov.f32	s26, s0
 3020              	.LVL266:
 3021 06a4 61E6     		b	.L257
ARM GAS  /tmp/ccqyMDDx.s 			page 54


 3022              	.LVL267:
 3023              	.L315:
 3024              		.loc 1 2216 0
 3025 06a6 F0EE4B0A 		vmov.f32	s1, s22
 3026 06aa 94EDD20A 		vldr.32	s0, [r4, #840]
 3027 06ae 9FED6D2A 		vldr.32	s4, .L326+28
 3028 06b2 B0EE6D1A 		vmov.f32	s2, s27
 3029 06b6 F0EE481A 		vmov.f32	s3, s16
 3030 06ba FFF7FEFF 		bl	utils_map
 3031              	.LVL268:
 3032 06be B0EE40BA 		vmov.f32	s22, s0
 3033              	.LVL269:
 3034 06c2 36E6     		b	.L256
 3035              	.LVL270:
 3036              	.L314:
 3037              		.loc 1 2206 0
 3038 06c4 F0EE4C0A 		vmov.f32	s1, s24
 3039 06c8 94EDD10A 		vldr.32	s0, [r4, #836]
 3040              	.LVL271:
 3041 06cc 9FED652A 		vldr.32	s4, .L326+28
 3042 06d0 B0EE4D1A 		vmov.f32	s2, s26
 3043 06d4 F0EE481A 		vmov.f32	s3, s16
 3044 06d8 FFF7FEFF 		bl	utils_map
 3045              	.LVL272:
 3046 06dc B0EE40CA 		vmov.f32	s24, s0
 3047              	.LVL273:
 3048 06e0 0FE6     		b	.L255
 3049              	.LVL274:
 3050              	.L223:
 3051              		.loc 1 2089 0
 3052 06e2 594B     		ldr	r3, .L326
 3053 06e4 DFED595A 		vldr.32	s11, .L326+4
 3054 06e8 5B8A     		ldrh	r3, [r3, #18]
 3055 06ea 9FED596A 		vldr.32	s12, .L326+8
 3056 06ee DFED636A 		vldr.32	s13, .L326+52
 3057 06f2 07EE103A 		vmov	s14, r3	@ int
 3058 06f6 B8EE477A 		vcvt.f32.u32	s14, s14
 3059 06fa B7EE008A 		vmov.f32	s16, #1.0e+0
 3060 06fe C5EE877A 		vdiv.f32	s15, s11, s14
 3061 0702 77EEC87A 		vsub.f32	s15, s15, s16
 3062 0706 86EE270A 		vdiv.f32	s0, s12, s15
 3063              	.L311:
 3064 070a 80EE260A 		vdiv.f32	s0, s0, s13
 3065 070e FFF7FEFF 		bl	logf
 3066              	.LVL275:
 3067 0712 D4ED8F6A 		vldr.32	s13, [r4, #572]
 3068 0716 DFED5A7A 		vldr.32	s15, .L326+56
 3069 071a 9FED5A7A 		vldr.32	s14, .L326+60
 3070 071e 80EE260A 		vdiv.f32	s0, s0, s13
 3071 0722 30EE270A 		vadd.f32	s0, s0, s15
 3072 0726 C8EE007A 		vdiv.f32	s15, s16, s0
 3073 072a 77EEC77A 		vsub.f32	s15, s15, s14
 3074 072e DBE4     		b	.L222
 3075              	.L224:
 3076              		.loc 1 2093 0
 3077 0730 454B     		ldr	r3, .L326
 3078 0732 9FED464A 		vldr.32	s8, .L326+4
ARM GAS  /tmp/ccqyMDDx.s 			page 55


 3079 0736 5B8A     		ldrh	r3, [r3, #18]
 3080 0738 9FED455A 		vldr.32	s10, .L326+8
 3081 073c DFED527A 		vldr.32	s15, .L326+64
 3082 0740 9FED526A 		vldr.32	s12, .L326+68
 3083 0744 D4ED915A 		vldr.32	s11, [r4, #580]
 3084 0748 06EE903A 		vmov	s13, r3	@ int
 3085 074c F8EE666A 		vcvt.f32.u32	s13, s13
 3086 0750 F7EE004A 		vmov.f32	s9, #1.0e+0
 3087 0754 84EE267A 		vdiv.f32	s14, s8, s13
 3088 0758 37EE647A 		vsub.f32	s14, s14, s9
 3089 075c C5EE076A 		vdiv.f32	s13, s10, s14
 3090 0760 76EEE76A 		vsub.f32	s13, s13, s15
 3091 0764 86EEA77A 		vdiv.f32	s14, s13, s15
 3092 0768 27EE067A 		vmul.f32	s14, s14, s12
 3093 076c C7EE257A 		vdiv.f32	s15, s14, s11
 3094 0770 77EE867A 		vadd.f32	s15, s15, s12
 3095 0774 B8E4     		b	.L222
 3096              	.L221:
 3097              		.loc 1 2085 0
 3098 0776 344B     		ldr	r3, .L326
 3099 0778 9FED346A 		vldr.32	s12, .L326+4
 3100 077c 5B8A     		ldrh	r3, [r3, #18]
 3101 077e DFED346A 		vldr.32	s13, .L326+8
 3102 0782 07EE103A 		vmov	s14, r3	@ int
 3103 0786 B8EE477A 		vcvt.f32.u32	s14, s14
 3104 078a B7EE008A 		vmov.f32	s16, #1.0e+0
 3105 078e C6EE077A 		vdiv.f32	s15, s12, s14
 3106 0792 77EEC87A 		vsub.f32	s15, s15, s16
 3107 0796 86EEA70A 		vdiv.f32	s0, s13, s15
 3108 079a B6E7     		b	.L311
 3109              	.L228:
 3110              		.loc 1 2119 0
 3111 079c 2A4B     		ldr	r3, .L326
 3112 079e 9FED2B3A 		vldr.32	s6, .L326+4
 3113 07a2 5B8A     		ldrh	r3, [r3, #18]
 3114 07a4 DFED2A3A 		vldr.32	s7, .L326+8
 3115 07a8 94ED947A 		vldr.32	s14, [r4, #592]
 3116 07ac 94ED944A 		vldr.32	s8, [r4, #592]
 3117 07b0 DFED367A 		vldr.32	s15, .L326+68
 3118 07b4 D4ED914A 		vldr.32	s9, [r4, #580]
 3119 07b8 94ED935A 		vldr.32	s10, [r4, #588]
 3120 07bc 05EE903A 		vmov	s11, r3	@ int
 3121 07c0 F8EE655A 		vcvt.f32.u32	s11, s11
 3122 07c4 F7EE006A 		vmov.f32	s13, #1.0e+0
 3123 07c8 83EE256A 		vdiv.f32	s12, s6, s11
 3124 07cc 36EE666A 		vsub.f32	s12, s12, s13
 3125 07d0 C3EE866A 		vdiv.f32	s13, s7, s12
 3126 07d4 76EEC76A 		vsub.f32	s13, s13, s14
 3127 07d8 86EE847A 		vdiv.f32	s14, s13, s8
 3128 07dc 27EE277A 		vmul.f32	s14, s14, s15
 3129 07e0 C7EE247A 		vdiv.f32	s15, s14, s9
 3130 07e4 77EE857A 		vadd.f32	s15, s15, s10
 3131 07e8 7EE4     		b	.L222
 3132              	.L227:
 3133              		.loc 1 2114 0
 3134 07ea 174B     		ldr	r3, .L326
 3135 07ec DFED175A 		vldr.32	s11, .L326+4
ARM GAS  /tmp/ccqyMDDx.s 			page 56


 3136 07f0 5B8A     		ldrh	r3, [r3, #18]
 3137 07f2 9FED176A 		vldr.32	s12, .L326+8
 3138 07f6 D4ED946A 		vldr.32	s13, [r4, #592]
 3139 07fa 07EE103A 		vmov	s14, r3	@ int
 3140 07fe B8EE477A 		vcvt.f32.u32	s14, s14
 3141 0802 B7EE008A 		vmov.f32	s16, #1.0e+0
 3142 0806 C5EE877A 		vdiv.f32	s15, s11, s14
 3143 080a 77EEC87A 		vsub.f32	s15, s15, s16
 3144 080e 86EE270A 		vdiv.f32	s0, s12, s15
 3145 0812 80EE260A 		vdiv.f32	s0, s0, s13
 3146 0816 FFF7FEFF 		bl	logf
 3147              	.LVL276:
 3148 081a D4ED8F7A 		vldr.32	s15, [r4, #572]
 3149 081e 9FED196A 		vldr.32	s12, .L326+60
 3150 0822 D4ED936A 		vldr.32	s13, [r4, #588]
 3151 0826 76EE866A 		vadd.f32	s13, s13, s12
 3152 082a 80EE270A 		vdiv.f32	s0, s0, s15
 3153 082e 88EE267A 		vdiv.f32	s14, s16, s13
 3154 0832 37EE000A 		vadd.f32	s0, s14, s0
 3155 0836 C8EE007A 		vdiv.f32	s15, s16, s0
 3156 083a 77EEC67A 		vsub.f32	s15, s15, s12
 3157 083e 53E4     		b	.L222
 3158              	.L287:
 3159              		.loc 1 2081 0
 3160 0840 DFED087A 		vldr.32	s15, .L326+28
 3161 0844 93E6     		b	.L230
 3162              	.L327:
 3163 0846 00BF     		.align	2
 3164              	.L326:
 3165 0848 00000000 		.word	.LANCHOR26
 3166 084c 00F07F45 		.word	1166012416
 3167 0850 00401C46 		.word	1176256512
 3168 0854 C8BB9238 		.word	949140424
 3169 0858 996E2F32 		.word	841969305
 3170 085c 623E793E 		.word	1048133218
 3171 0860 22252043 		.word	1126180130
 3172 0864 00000000 		.word	0
 3173 0868 00001644 		.word	1142292480
 3174 086c 000048C3 		.word	3276275712
 3175 0870 00000000 		.word	.LANCHOR14
 3176 0874 00000000 		.word	.LANCHOR27
 3177 0878 00000000 		.word	.LANCHOR28
 3178 087c 0050C347 		.word	1203982336
 3179 0880 0FCF5B3B 		.word	995872527
 3180 0884 33938843 		.word	1133024051
 3181 0888 00007A44 		.word	1148846080
 3182 088c 0000C842 		.word	1120403456
 3183              		.cfi_endproc
 3184              	.LFE361:
 3185              		.size	update_override_limits.constprop.8, .-update_override_limits.constprop.8
 3186              		.section	.text.mc_interface_set_configuration,"ax",%progbits
 3187              		.align	1
 3188              		.p2align 4,,15
 3189              		.global	mc_interface_set_configuration
 3190              		.syntax unified
 3191              		.thumb
 3192              		.thumb_func
ARM GAS  /tmp/ccqyMDDx.s 			page 57


 3193              		.fpu fpv4-sp-d16
 3194              		.type	mc_interface_set_configuration, %function
 3195              	mc_interface_set_configuration:
 3196              	.LFB262:
 3197              		.loc 1 342 0
 3198              		.cfi_startproc
 3199              		@ args = 0, pretend = 0, frame = 0
 3200              		@ frame_needed = 0, uses_anonymous_args = 0
 3201              	.LVL277:
 3202 0000 38B5     		push	{r3, r4, r5, lr}
 3203              		.cfi_def_cfa_offset 16
 3204              		.cfi_offset 3, -16
 3205              		.cfi_offset 4, -12
 3206              		.cfi_offset 5, -8
 3207              		.cfi_offset 14, -4
 3208              		.loc 1 349 0
 3209 0002 344D     		ldr	r5, .L345
 3210 0004 90F82832 		ldrb	r3, [r0, #552]	@ zero_extendqisi2
 3211 0008 95F82822 		ldrb	r2, [r5, #552]	@ zero_extendqisi2
 3212 000c 9A42     		cmp	r2, r3
 3213              		.loc 1 342 0
 3214 000e 0446     		mov	r4, r0
 3215              		.loc 1 349 0
 3216 0010 06D0     		beq	.L329
 3217              		.loc 1 350 0
 3218 0012 FFF7FEFF 		bl	encoder_deinit
 3219              	.LVL278:
 3220              		.loc 1 351 0
 3221 0016 2046     		mov	r0, r4
 3222 0018 FFF7FEFF 		bl	init_sensor_port
 3223              	.LVL279:
 3224 001c 94F82832 		ldrb	r3, [r4, #552]	@ zero_extendqisi2
 3225              	.L329:
 3226              		.loc 1 354 0
 3227 0020 012B     		cmp	r3, #1
 3228 0022 44D0     		beq	.L343
 3229              	.L330:
 3230              		.loc 1 384 0
 3231 0024 95F88630 		ldrb	r3, [r5, #134]	@ zero_extendqisi2
 3232 0028 94F88620 		ldrb	r2, [r4, #134]	@ zero_extendqisi2
 3233 002c 9A42     		cmp	r2, r3
 3234 002e 2AD1     		bne	.L344
 3235              		.loc 1 413 0
 3236 0030 4FF42372 		mov	r2, #652
 3237 0034 2146     		mov	r1, r4
 3238 0036 2748     		ldr	r0, .L345
 3239 0038 FFF7FEFF 		bl	memcpy
 3240              	.LVL280:
 3241              	.L332:
 3242              		.loc 1 416 0
 3243 003c FFF7FEFF 		bl	update_override_limits.constprop.8
 3244              	.LVL281:
 3245              		.loc 1 418 0
 3246 0040 95F88630 		ldrb	r3, [r5, #134]	@ zero_extendqisi2
 3247 0044 032B     		cmp	r3, #3
 3248 0046 06D8     		bhi	.L337
 3249 0048 DFE803F0 		tbb	[pc, r3]
ARM GAS  /tmp/ccqyMDDx.s 			page 58


 3250              	.L339:
 3251 004c 02       		.byte	(.L338-.L339)/2
 3252 004d 02       		.byte	(.L338-.L339)/2
 3253 004e 14       		.byte	(.L340-.L339)/2
 3254 004f 0B       		.byte	(.L341-.L339)/2
 3255              		.p2align 1
 3256              	.L338:
 3257              		.loc 1 421 0
 3258 0050 2048     		ldr	r0, .L345
 3259 0052 FFF7FEFF 		bl	mcpwm_set_configuration
 3260              	.LVL282:
 3261              	.L337:
 3262              		.loc 1 443 0
 3263 0056 04F51C70 		add	r0, r4, #624
 3264              		.loc 1 444 0
 3265 005a BDE83840 		pop	{r3, r4, r5, lr}
 3266              		.cfi_remember_state
 3267              		.cfi_restore 14
 3268              		.cfi_restore 5
 3269              		.cfi_restore 4
 3270              		.cfi_restore 3
 3271              		.cfi_def_cfa_offset 0
 3272              	.LVL283:
 3273              		.loc 1 443 0
 3274 005e FFF7FEBF 		b	bms_init
 3275              	.LVL284:
 3276              	.L341:
 3277              		.cfi_restore_state
 3278              		.loc 1 436 0
 3279 0062 1C48     		ldr	r0, .L345
 3280 0064 FFF7FEFF 		bl	gpdrive_set_configuration
 3281              	.LVL285:
 3282              		.loc 1 443 0
 3283 0068 04F51C70 		add	r0, r4, #624
 3284              		.loc 1 444 0
 3285 006c BDE83840 		pop	{r3, r4, r5, lr}
 3286              		.cfi_remember_state
 3287              		.cfi_restore 14
 3288              		.cfi_restore 5
 3289              		.cfi_restore 4
 3290              		.cfi_restore 3
 3291              		.cfi_def_cfa_offset 0
 3292              	.LVL286:
 3293              		.loc 1 443 0
 3294 0070 FFF7FEBF 		b	bms_init
 3295              	.LVL287:
 3296              	.L340:
 3297              		.cfi_restore_state
 3298              		.loc 1 432 0
 3299 0074 1748     		ldr	r0, .L345
 3300 0076 FFF7FEFF 		bl	mcpwm_foc_set_configuration
 3301              	.LVL288:
 3302              		.loc 1 443 0
 3303 007a 04F51C70 		add	r0, r4, #624
 3304              		.loc 1 444 0
 3305 007e BDE83840 		pop	{r3, r4, r5, lr}
 3306              		.cfi_remember_state
ARM GAS  /tmp/ccqyMDDx.s 			page 59


 3307              		.cfi_restore 14
 3308              		.cfi_restore 5
 3309              		.cfi_restore 4
 3310              		.cfi_restore 3
 3311              		.cfi_def_cfa_offset 0
 3312              	.LVL289:
 3313              		.loc 1 443 0
 3314 0082 FFF7FEBF 		b	bms_init
 3315              	.LVL290:
 3316              	.L344:
 3317              		.cfi_restore_state
 3318              		.loc 1 385 0
 3319 0086 FFF7FEFF 		bl	mcpwm_deinit
 3320              	.LVL291:
 3321              		.loc 1 386 0
 3322 008a FFF7FEFF 		bl	mcpwm_foc_deinit
 3323              	.LVL292:
 3324              		.loc 1 387 0
 3325 008e FFF7FEFF 		bl	gpdrive_deinit
 3326              	.LVL293:
 3327              		.loc 1 389 0
 3328 0092 4FF42372 		mov	r2, #652
 3329 0096 2146     		mov	r1, r4
 3330 0098 0E48     		ldr	r0, .L345
 3331 009a FFF7FEFF 		bl	memcpy
 3332              	.LVL294:
 3333              		.loc 1 391 0
 3334 009e 95F88630 		ldrb	r3, [r5, #134]	@ zero_extendqisi2
 3335 00a2 032B     		cmp	r3, #3
 3336 00a4 CAD8     		bhi	.L332
 3337 00a6 DFE803F0 		tbb	[pc, r3]
 3338              	.L334:
 3339 00aa 10       		.byte	(.L333-.L334)/2
 3340 00ab 10       		.byte	(.L333-.L334)/2
 3341 00ac 0B       		.byte	(.L335-.L334)/2
 3342 00ad 07       		.byte	(.L336-.L334)/2
 3343              		.p2align 1
 3344              	.L343:
 3345              		.loc 1 355 0
 3346 00ae D4F82402 		ldr	r0, [r4, #548]
 3347 00b2 FFF7FEFF 		bl	encoder_set_counts
 3348              	.LVL295:
 3349 00b6 B5E7     		b	.L330
 3350              	.L336:
 3351              		.loc 1 406 0
 3352 00b8 0648     		ldr	r0, .L345
 3353 00ba FFF7FEFF 		bl	gpdrive_init
 3354              	.LVL296:
 3355              		.loc 1 407 0
 3356 00be BDE7     		b	.L332
 3357              	.L335:
 3358              		.loc 1 401 0
 3359 00c0 0449     		ldr	r1, .L345
 3360 00c2 0846     		mov	r0, r1
 3361 00c4 FFF7FEFF 		bl	mcpwm_foc_init
 3362              	.LVL297:
 3363              		.loc 1 403 0
ARM GAS  /tmp/ccqyMDDx.s 			page 60


 3364 00c8 B8E7     		b	.L332
 3365              	.L333:
 3366              		.loc 1 394 0
 3367 00ca 0248     		ldr	r0, .L345
 3368 00cc FFF7FEFF 		bl	mcpwm_init
 3369              	.LVL298:
 3370              		.loc 1 395 0
 3371 00d0 B4E7     		b	.L332
 3372              	.L346:
 3373 00d2 00BF     		.align	2
 3374              	.L345:
 3375 00d4 00000000 		.word	.LANCHOR13
 3376              		.cfi_endproc
 3377              	.LFE262:
 3378              		.size	mc_interface_set_configuration, .-mc_interface_set_configuration
 3379              		.section	.text.mc_interface_get_amp_hours,"ax",%progbits
 3380              		.align	1
 3381              		.p2align 4,,15
 3382              		.global	mc_interface_get_amp_hours
 3383              		.syntax unified
 3384              		.thumb
 3385              		.thumb_func
 3386              		.fpu fpv4-sp-d16
 3387              		.type	mc_interface_get_amp_hours, %function
 3388              	mc_interface_get_amp_hours:
 3389              	.LFB289:
 3390              		.loc 1 987 0
 3391              		.cfi_startproc
 3392              		@ args = 0, pretend = 0, frame = 0
 3393              		@ frame_needed = 0, uses_anonymous_args = 0
 3394              		@ link register save eliminated.
 3395              	.LVL299:
 3396              		.loc 1 988 0
 3397 0000 054B     		ldr	r3, .L352
 3398 0002 DFED067A 		vldr.32	s15, .L352+4
 3399 0006 93EDCC7A 		vldr.32	s14, [r3, #816]
 3400 000a 87EE270A 		vdiv.f32	s0, s14, s15
 3401              	.LVL300:
 3402              		.loc 1 990 0
 3403 000e 10B1     		cbz	r0, .L347
 3404              		.loc 1 991 0
 3405 0010 0022     		movs	r2, #0
 3406 0012 C3F83023 		str	r2, [r3, #816]	@ float
 3407              	.L347:
 3408              		.loc 1 995 0
 3409 0016 7047     		bx	lr
 3410              	.L353:
 3411              		.align	2
 3412              	.L352:
 3413 0018 00000000 		.word	.LANCHOR13
 3414 001c 00006145 		.word	1163984896
 3415              		.cfi_endproc
 3416              	.LFE289:
 3417              		.size	mc_interface_get_amp_hours, .-mc_interface_get_amp_hours
 3418              		.section	.text.mc_interface_get_amp_hours_charged,"ax",%progbits
 3419              		.align	1
 3420              		.p2align 4,,15
ARM GAS  /tmp/ccqyMDDx.s 			page 61


 3421              		.global	mc_interface_get_amp_hours_charged
 3422              		.syntax unified
 3423              		.thumb
 3424              		.thumb_func
 3425              		.fpu fpv4-sp-d16
 3426              		.type	mc_interface_get_amp_hours_charged, %function
 3427              	mc_interface_get_amp_hours_charged:
 3428              	.LFB290:
 3429              		.loc 1 1006 0
 3430              		.cfi_startproc
 3431              		@ args = 0, pretend = 0, frame = 0
 3432              		@ frame_needed = 0, uses_anonymous_args = 0
 3433              		@ link register save eliminated.
 3434              	.LVL301:
 3435              		.loc 1 1007 0
 3436 0000 054B     		ldr	r3, .L359
 3437 0002 DFED067A 		vldr.32	s15, .L359+4
 3438 0006 93EDCD7A 		vldr.32	s14, [r3, #820]
 3439 000a 87EE270A 		vdiv.f32	s0, s14, s15
 3440              	.LVL302:
 3441              		.loc 1 1009 0
 3442 000e 10B1     		cbz	r0, .L354
 3443              		.loc 1 1010 0
 3444 0010 0022     		movs	r2, #0
 3445 0012 C3F83423 		str	r2, [r3, #820]	@ float
 3446              	.L354:
 3447              		.loc 1 1014 0
 3448 0016 7047     		bx	lr
 3449              	.L360:
 3450              		.align	2
 3451              	.L359:
 3452 0018 00000000 		.word	.LANCHOR13
 3453 001c 00006145 		.word	1163984896
 3454              		.cfi_endproc
 3455              	.LFE290:
 3456              		.size	mc_interface_get_amp_hours_charged, .-mc_interface_get_amp_hours_charged
 3457              		.section	.text.mc_interface_get_watt_hours,"ax",%progbits
 3458              		.align	1
 3459              		.p2align 4,,15
 3460              		.global	mc_interface_get_watt_hours
 3461              		.syntax unified
 3462              		.thumb
 3463              		.thumb_func
 3464              		.fpu fpv4-sp-d16
 3465              		.type	mc_interface_get_watt_hours, %function
 3466              	mc_interface_get_watt_hours:
 3467              	.LFB291:
 3468              		.loc 1 1025 0
 3469              		.cfi_startproc
 3470              		@ args = 0, pretend = 0, frame = 0
 3471              		@ frame_needed = 0, uses_anonymous_args = 0
 3472              		@ link register save eliminated.
 3473              	.LVL303:
 3474              		.loc 1 1026 0
 3475 0000 054B     		ldr	r3, .L366
 3476 0002 DFED067A 		vldr.32	s15, .L366+4
 3477 0006 93EDCE7A 		vldr.32	s14, [r3, #824]
ARM GAS  /tmp/ccqyMDDx.s 			page 62


 3478 000a 87EE270A 		vdiv.f32	s0, s14, s15
 3479              	.LVL304:
 3480              		.loc 1 1028 0
 3481 000e 10B1     		cbz	r0, .L361
 3482              		.loc 1 1029 0
 3483 0010 0022     		movs	r2, #0
 3484 0012 C3F83823 		str	r2, [r3, #824]	@ float
 3485              	.L361:
 3486              		.loc 1 1033 0
 3487 0016 7047     		bx	lr
 3488              	.L367:
 3489              		.align	2
 3490              	.L366:
 3491 0018 00000000 		.word	.LANCHOR13
 3492 001c 00006145 		.word	1163984896
 3493              		.cfi_endproc
 3494              	.LFE291:
 3495              		.size	mc_interface_get_watt_hours, .-mc_interface_get_watt_hours
 3496              		.section	.text.mc_interface_get_watt_hours_charged,"ax",%progbits
 3497              		.align	1
 3498              		.p2align 4,,15
 3499              		.global	mc_interface_get_watt_hours_charged
 3500              		.syntax unified
 3501              		.thumb
 3502              		.thumb_func
 3503              		.fpu fpv4-sp-d16
 3504              		.type	mc_interface_get_watt_hours_charged, %function
 3505              	mc_interface_get_watt_hours_charged:
 3506              	.LFB292:
 3507              		.loc 1 1044 0
 3508              		.cfi_startproc
 3509              		@ args = 0, pretend = 0, frame = 0
 3510              		@ frame_needed = 0, uses_anonymous_args = 0
 3511              		@ link register save eliminated.
 3512              	.LVL305:
 3513              		.loc 1 1045 0
 3514 0000 054B     		ldr	r3, .L373
 3515 0002 DFED067A 		vldr.32	s15, .L373+4
 3516 0006 93EDCF7A 		vldr.32	s14, [r3, #828]
 3517 000a 87EE270A 		vdiv.f32	s0, s14, s15
 3518              	.LVL306:
 3519              		.loc 1 1047 0
 3520 000e 10B1     		cbz	r0, .L368
 3521              		.loc 1 1048 0
 3522 0010 0022     		movs	r2, #0
 3523 0012 C3F83C23 		str	r2, [r3, #828]	@ float
 3524              	.L368:
 3525              		.loc 1 1052 0
 3526 0016 7047     		bx	lr
 3527              	.L374:
 3528              		.align	2
 3529              	.L373:
 3530 0018 00000000 		.word	.LANCHOR13
 3531 001c 00006145 		.word	1163984896
 3532              		.cfi_endproc
 3533              	.LFE292:
 3534              		.size	mc_interface_get_watt_hours_charged, .-mc_interface_get_watt_hours_charged
ARM GAS  /tmp/ccqyMDDx.s 			page 63


 3535              		.section	.text.mc_interface_get_tot_current,"ax",%progbits
 3536              		.align	1
 3537              		.p2align 4,,15
 3538              		.global	mc_interface_get_tot_current
 3539              		.syntax unified
 3540              		.thumb
 3541              		.thumb_func
 3542              		.fpu fpv4-sp-d16
 3543              		.type	mc_interface_get_tot_current, %function
 3544              	mc_interface_get_tot_current:
 3545              	.LFB293:
 3546              		.loc 1 1054 0
 3547              		.cfi_startproc
 3548              		@ args = 0, pretend = 0, frame = 0
 3549              		@ frame_needed = 0, uses_anonymous_args = 0
 3550              		@ link register save eliminated.
 3551              	.LVL307:
 3552              		.loc 1 1057 0
 3553 0000 074B     		ldr	r3, .L381
 3554 0002 93F88630 		ldrb	r3, [r3, #134]	@ zero_extendqisi2
 3555 0006 DBB2     		uxtb	r3, r3
 3556 0008 012B     		cmp	r3, #1
 3557 000a 06D9     		bls	.L377
 3558 000c 022B     		cmp	r3, #2
 3559 000e 01D1     		bne	.L380
 3560              		.loc 1 1064 0
 3561 0010 FFF7FEBF 		b	mcpwm_foc_get_tot_current
 3562              	.LVL308:
 3563              	.L380:
 3564              		.loc 1 1072 0
 3565 0014 9FED030A 		vldr.32	s0, .L381+4
 3566 0018 7047     		bx	lr
 3567              	.L377:
 3568              		.loc 1 1060 0
 3569 001a FFF7FEBF 		b	mcpwm_get_tot_current
 3570              	.LVL309:
 3571              	.L382:
 3572 001e 00BF     		.align	2
 3573              	.L381:
 3574 0020 00000000 		.word	.LANCHOR13
 3575 0024 00000000 		.word	0
 3576              		.cfi_endproc
 3577              	.LFE293:
 3578              		.size	mc_interface_get_tot_current, .-mc_interface_get_tot_current
 3579              		.section	.text.mc_interface_get_tot_current_filtered,"ax",%progbits
 3580              		.align	1
 3581              		.p2align 4,,15
 3582              		.global	mc_interface_get_tot_current_filtered
 3583              		.syntax unified
 3584              		.thumb
 3585              		.thumb_func
 3586              		.fpu fpv4-sp-d16
 3587              		.type	mc_interface_get_tot_current_filtered, %function
 3588              	mc_interface_get_tot_current_filtered:
 3589              	.LFB294:
 3590              		.loc 1 1074 0
 3591              		.cfi_startproc
ARM GAS  /tmp/ccqyMDDx.s 			page 64


 3592              		@ args = 0, pretend = 0, frame = 0
 3593              		@ frame_needed = 0, uses_anonymous_args = 0
 3594              		@ link register save eliminated.
 3595              	.LVL310:
 3596              		.loc 1 1077 0
 3597 0000 074B     		ldr	r3, .L389
 3598 0002 93F88630 		ldrb	r3, [r3, #134]	@ zero_extendqisi2
 3599 0006 DBB2     		uxtb	r3, r3
 3600 0008 012B     		cmp	r3, #1
 3601 000a 06D9     		bls	.L385
 3602 000c 022B     		cmp	r3, #2
 3603 000e 01D1     		bne	.L388
 3604              		.loc 1 1084 0
 3605 0010 FFF7FEBF 		b	mcpwm_foc_get_tot_current_filtered
 3606              	.LVL311:
 3607              	.L388:
 3608              		.loc 1 1092 0
 3609 0014 9FED030A 		vldr.32	s0, .L389+4
 3610 0018 7047     		bx	lr
 3611              	.L385:
 3612              		.loc 1 1080 0
 3613 001a FFF7FEBF 		b	mcpwm_get_tot_current_filtered
 3614              	.LVL312:
 3615              	.L390:
 3616 001e 00BF     		.align	2
 3617              	.L389:
 3618 0020 00000000 		.word	.LANCHOR13
 3619 0024 00000000 		.word	0
 3620              		.cfi_endproc
 3621              	.LFE294:
 3622              		.size	mc_interface_get_tot_current_filtered, .-mc_interface_get_tot_current_filtered
 3623              		.section	.text.mc_interface_get_tot_current_directional,"ax",%progbits
 3624              		.align	1
 3625              		.p2align 4,,15
 3626              		.global	mc_interface_get_tot_current_directional
 3627              		.syntax unified
 3628              		.thumb
 3629              		.thumb_func
 3630              		.fpu fpv4-sp-d16
 3631              		.type	mc_interface_get_tot_current_directional, %function
 3632              	mc_interface_get_tot_current_directional:
 3633              	.LFB295:
 3634              		.loc 1 1094 0
 3635              		.cfi_startproc
 3636              		@ args = 0, pretend = 0, frame = 0
 3637              		@ frame_needed = 0, uses_anonymous_args = 0
 3638              	.LVL313:
 3639 0000 10B5     		push	{r4, lr}
 3640              		.cfi_def_cfa_offset 8
 3641              		.cfi_offset 4, -8
 3642              		.cfi_offset 14, -4
 3643              		.loc 1 1097 0
 3644 0002 0B4C     		ldr	r4, .L403
 3645 0004 94F88630 		ldrb	r3, [r4, #134]	@ zero_extendqisi2
 3646 0008 DBB2     		uxtb	r3, r3
 3647 000a 012B     		cmp	r3, #1
 3648 000c 0DD9     		bls	.L393
ARM GAS  /tmp/ccqyMDDx.s 			page 65


 3649 000e 022B     		cmp	r3, #2
 3650 0010 08D0     		beq	.L394
 3651              		.loc 1 1095 0
 3652 0012 9FED080A 		vldr.32	s0, .L403+4
 3653              	.LVL314:
 3654              	.L392:
 3655              		.loc 1 1111 0
 3656 0016 94F82932 		ldrb	r3, [r4, #553]	@ zero_extendqisi2
 3657 001a 03B9     		cbnz	r3, .L402
 3658              		.loc 1 1112 0
 3659 001c 10BD     		pop	{r4, pc}
 3660              	.L402:
 3661 001e B1EE400A 		vneg.f32	s0, s0
 3662              	.LVL315:
 3663 0022 10BD     		pop	{r4, pc}
 3664              	.LVL316:
 3665              	.L394:
 3666              		.loc 1 1104 0
 3667 0024 FFF7FEFF 		bl	mcpwm_foc_get_tot_current_directional
 3668              	.LVL317:
 3669              		.loc 1 1105 0
 3670 0028 F5E7     		b	.L392
 3671              	.LVL318:
 3672              	.L393:
 3673              		.loc 1 1100 0
 3674 002a FFF7FEFF 		bl	mcpwm_get_tot_current_directional
 3675              	.LVL319:
 3676              		.loc 1 1101 0
 3677 002e F2E7     		b	.L392
 3678              	.L404:
 3679              		.align	2
 3680              	.L403:
 3681 0030 00000000 		.word	.LANCHOR13
 3682 0034 00000000 		.word	0
 3683              		.cfi_endproc
 3684              	.LFE295:
 3685              		.size	mc_interface_get_tot_current_directional, .-mc_interface_get_tot_current_directional
 3686              		.section	.text.mc_interface_get_tot_current_directional_filtered,"ax",%progbits
 3687              		.align	1
 3688              		.p2align 4,,15
 3689              		.global	mc_interface_get_tot_current_directional_filtered
 3690              		.syntax unified
 3691              		.thumb
 3692              		.thumb_func
 3693              		.fpu fpv4-sp-d16
 3694              		.type	mc_interface_get_tot_current_directional_filtered, %function
 3695              	mc_interface_get_tot_current_directional_filtered:
 3696              	.LFB296:
 3697              		.loc 1 1114 0
 3698              		.cfi_startproc
 3699              		@ args = 0, pretend = 0, frame = 0
 3700              		@ frame_needed = 0, uses_anonymous_args = 0
 3701              	.LVL320:
 3702 0000 10B5     		push	{r4, lr}
 3703              		.cfi_def_cfa_offset 8
 3704              		.cfi_offset 4, -8
 3705              		.cfi_offset 14, -4
ARM GAS  /tmp/ccqyMDDx.s 			page 66


 3706              		.loc 1 1117 0
 3707 0002 0B4C     		ldr	r4, .L417
 3708 0004 94F88630 		ldrb	r3, [r4, #134]	@ zero_extendqisi2
 3709 0008 DBB2     		uxtb	r3, r3
 3710 000a 012B     		cmp	r3, #1
 3711 000c 0DD9     		bls	.L407
 3712 000e 022B     		cmp	r3, #2
 3713 0010 08D0     		beq	.L408
 3714              		.loc 1 1115 0
 3715 0012 9FED080A 		vldr.32	s0, .L417+4
 3716              	.LVL321:
 3717              	.L406:
 3718              		.loc 1 1131 0
 3719 0016 94F82932 		ldrb	r3, [r4, #553]	@ zero_extendqisi2
 3720 001a 03B9     		cbnz	r3, .L416
 3721              		.loc 1 1132 0
 3722 001c 10BD     		pop	{r4, pc}
 3723              	.L416:
 3724 001e B1EE400A 		vneg.f32	s0, s0
 3725              	.LVL322:
 3726 0022 10BD     		pop	{r4, pc}
 3727              	.LVL323:
 3728              	.L408:
 3729              		.loc 1 1124 0
 3730 0024 FFF7FEFF 		bl	mcpwm_foc_get_tot_current_directional_filtered
 3731              	.LVL324:
 3732              		.loc 1 1125 0
 3733 0028 F5E7     		b	.L406
 3734              	.LVL325:
 3735              	.L407:
 3736              		.loc 1 1120 0
 3737 002a FFF7FEFF 		bl	mcpwm_get_tot_current_directional_filtered
 3738              	.LVL326:
 3739              		.loc 1 1121 0
 3740 002e F2E7     		b	.L406
 3741              	.L418:
 3742              		.align	2
 3743              	.L417:
 3744 0030 00000000 		.word	.LANCHOR13
 3745 0034 00000000 		.word	0
 3746              		.cfi_endproc
 3747              	.LFE296:
 3748              		.size	mc_interface_get_tot_current_directional_filtered, .-mc_interface_get_tot_current_directiona
 3749              		.section	.text.mc_interface_get_tot_current_in,"ax",%progbits
 3750              		.align	1
 3751              		.p2align 4,,15
 3752              		.global	mc_interface_get_tot_current_in
 3753              		.syntax unified
 3754              		.thumb
 3755              		.thumb_func
 3756              		.fpu fpv4-sp-d16
 3757              		.type	mc_interface_get_tot_current_in, %function
 3758              	mc_interface_get_tot_current_in:
 3759              	.LFB297:
 3760              		.loc 1 1134 0
 3761              		.cfi_startproc
 3762              		@ args = 0, pretend = 0, frame = 0
ARM GAS  /tmp/ccqyMDDx.s 			page 67


 3763              		@ frame_needed = 0, uses_anonymous_args = 0
 3764              		@ link register save eliminated.
 3765              	.LVL327:
 3766              		.loc 1 1137 0
 3767 0000 074B     		ldr	r3, .L425
 3768 0002 93F88630 		ldrb	r3, [r3, #134]	@ zero_extendqisi2
 3769 0006 DBB2     		uxtb	r3, r3
 3770 0008 012B     		cmp	r3, #1
 3771 000a 06D9     		bls	.L421
 3772 000c 022B     		cmp	r3, #2
 3773 000e 01D1     		bne	.L424
 3774              		.loc 1 1144 0
 3775 0010 FFF7FEBF 		b	mcpwm_foc_get_tot_current_in
 3776              	.LVL328:
 3777              	.L424:
 3778              		.loc 1 1152 0
 3779 0014 9FED030A 		vldr.32	s0, .L425+4
 3780 0018 7047     		bx	lr
 3781              	.L421:
 3782              		.loc 1 1140 0
 3783 001a FFF7FEBF 		b	mcpwm_get_tot_current_in
 3784              	.LVL329:
 3785              	.L426:
 3786 001e 00BF     		.align	2
 3787              	.L425:
 3788 0020 00000000 		.word	.LANCHOR13
 3789 0024 00000000 		.word	0
 3790              		.cfi_endproc
 3791              	.LFE297:
 3792              		.size	mc_interface_get_tot_current_in, .-mc_interface_get_tot_current_in
 3793              		.section	.text.mc_interface_get_tot_current_in_filtered,"ax",%progbits
 3794              		.align	1
 3795              		.p2align 4,,15
 3796              		.global	mc_interface_get_tot_current_in_filtered
 3797              		.syntax unified
 3798              		.thumb
 3799              		.thumb_func
 3800              		.fpu fpv4-sp-d16
 3801              		.type	mc_interface_get_tot_current_in_filtered, %function
 3802              	mc_interface_get_tot_current_in_filtered:
 3803              	.LFB298:
 3804              		.loc 1 1154 0
 3805              		.cfi_startproc
 3806              		@ args = 0, pretend = 0, frame = 0
 3807              		@ frame_needed = 0, uses_anonymous_args = 0
 3808              		@ link register save eliminated.
 3809              	.LVL330:
 3810              		.loc 1 1157 0
 3811 0000 074B     		ldr	r3, .L433
 3812 0002 93F88630 		ldrb	r3, [r3, #134]	@ zero_extendqisi2
 3813 0006 DBB2     		uxtb	r3, r3
 3814 0008 012B     		cmp	r3, #1
 3815 000a 06D9     		bls	.L429
 3816 000c 022B     		cmp	r3, #2
 3817 000e 01D1     		bne	.L432
 3818              		.loc 1 1164 0
 3819 0010 FFF7FEBF 		b	mcpwm_foc_get_tot_current_in_filtered
ARM GAS  /tmp/ccqyMDDx.s 			page 68


 3820              	.LVL331:
 3821              	.L432:
 3822              		.loc 1 1172 0
 3823 0014 9FED030A 		vldr.32	s0, .L433+4
 3824 0018 7047     		bx	lr
 3825              	.L429:
 3826              		.loc 1 1160 0
 3827 001a FFF7FEBF 		b	mcpwm_get_tot_current_in_filtered
 3828              	.LVL332:
 3829              	.L434:
 3830 001e 00BF     		.align	2
 3831              	.L433:
 3832 0020 00000000 		.word	.LANCHOR13
 3833 0024 00000000 		.word	0
 3834              		.cfi_endproc
 3835              	.LFE298:
 3836              		.size	mc_interface_get_tot_current_in_filtered, .-mc_interface_get_tot_current_in_filtered
 3837              		.section	.text.mc_interface_get_input_voltage_filtered,"ax",%progbits
 3838              		.align	1
 3839              		.p2align 4,,15
 3840              		.global	mc_interface_get_input_voltage_filtered
 3841              		.syntax unified
 3842              		.thumb
 3843              		.thumb_func
 3844              		.fpu fpv4-sp-d16
 3845              		.type	mc_interface_get_input_voltage_filtered, %function
 3846              	mc_interface_get_input_voltage_filtered:
 3847              	.LFB299:
 3848              		.loc 1 1174 0
 3849              		.cfi_startproc
 3850              		@ args = 0, pretend = 0, frame = 0
 3851              		@ frame_needed = 0, uses_anonymous_args = 0
 3852              		@ link register save eliminated.
 3853              		.loc 1 1175 0
 3854 0000 014B     		ldr	r3, .L436
 3855 0002 93EDD70A 		vldr.32	s0, [r3, #860]
 3856              		.loc 1 1176 0
 3857 0006 7047     		bx	lr
 3858              	.L437:
 3859              		.align	2
 3860              	.L436:
 3861 0008 00000000 		.word	.LANCHOR13
 3862              		.cfi_endproc
 3863              	.LFE299:
 3864              		.size	mc_interface_get_input_voltage_filtered, .-mc_interface_get_input_voltage_filtered
 3865              		.section	.text.mc_interface_get_abs_motor_current_unbalance,"ax",%progbits
 3866              		.align	1
 3867              		.p2align 4,,15
 3868              		.global	mc_interface_get_abs_motor_current_unbalance
 3869              		.syntax unified
 3870              		.thumb
 3871              		.thumb_func
 3872              		.fpu fpv4-sp-d16
 3873              		.type	mc_interface_get_abs_motor_current_unbalance, %function
 3874              	mc_interface_get_abs_motor_current_unbalance:
 3875              	.LFB300:
 3876              		.loc 1 1178 0
ARM GAS  /tmp/ccqyMDDx.s 			page 69


 3877              		.cfi_startproc
 3878              		@ args = 0, pretend = 0, frame = 0
 3879              		@ frame_needed = 0, uses_anonymous_args = 0
 3880              		@ link register save eliminated.
 3881              	.LVL333:
 3882              		.loc 1 1182 0
 3883 0000 044B     		ldr	r3, .L442
 3884 0002 93F88630 		ldrb	r3, [r3, #134]	@ zero_extendqisi2
 3885 0006 022B     		cmp	r3, #2
 3886 0008 01D1     		bne	.L441
 3887              		.loc 1 1188 0
 3888 000a FFF7FEBF 		b	mcpwm_foc_get_abs_motor_current_unbalance
 3889              	.LVL334:
 3890              	.L441:
 3891              		.loc 1 1196 0
 3892 000e 9FED020A 		vldr.32	s0, .L442+4
 3893 0012 7047     		bx	lr
 3894              	.L443:
 3895              		.align	2
 3896              	.L442:
 3897 0014 00000000 		.word	.LANCHOR13
 3898 0018 00000000 		.word	0
 3899              		.cfi_endproc
 3900              	.LFE300:
 3901              		.size	mc_interface_get_abs_motor_current_unbalance, .-mc_interface_get_abs_motor_current_unbalance
 3902              		.section	.text.mc_interface_set_tachometer_value,"ax",%progbits
 3903              		.align	1
 3904              		.p2align 4,,15
 3905              		.global	mc_interface_set_tachometer_value
 3906              		.syntax unified
 3907              		.thumb
 3908              		.thumb_func
 3909              		.fpu fpv4-sp-d16
 3910              		.type	mc_interface_set_tachometer_value, %function
 3911              	mc_interface_set_tachometer_value:
 3912              	.LFB301:
 3913              		.loc 1 1198 0
 3914              		.cfi_startproc
 3915              		@ args = 0, pretend = 0, frame = 8
 3916              		@ frame_needed = 0, uses_anonymous_args = 0
 3917              	.LVL335:
 3918 0000 10B5     		push	{r4, lr}
 3919              		.cfi_def_cfa_offset 8
 3920              		.cfi_offset 4, -8
 3921              		.cfi_offset 14, -4
 3922              		.loc 1 1200 0
 3923 0002 264C     		ldr	r4, .L459
 3924 0004 94F88630 		ldrb	r3, [r4, #134]	@ zero_extendqisi2
 3925              		.loc 1 1198 0
 3926 0008 82B0     		sub	sp, sp, #8
 3927              		.cfi_def_cfa_offset 16
 3928              		.loc 1 1200 0
 3929 000a DBB2     		uxtb	r3, r3
 3930 000c 012B     		cmp	r3, #1
 3931              		.loc 1 1198 0
 3932 000e 0190     		str	r0, [sp, #4]
 3933              		.loc 1 1200 0
ARM GAS  /tmp/ccqyMDDx.s 			page 70


 3934 0010 29D9     		bls	.L446
 3935 0012 022B     		cmp	r3, #2
 3936 0014 0CD0     		beq	.L447
 3937 0016 DFED227A 		vldr.32	s15, .L459+4
 3938              	.LVL336:
 3939              	.L445:
 3940              		.loc 1 1214 0
 3941 001a 94F82932 		ldrb	r3, [r4, #553]	@ zero_extendqisi2
 3942 001e 0BB1     		cbz	r3, .L450
 3943 0020 F1EE677A 		vneg.f32	s15, s15
 3944              	.L450:
 3945              		.loc 1 1215 0 discriminator 4
 3946 0024 FDEEE77A 		vcvt.s32.f32	s15, s15
 3947 0028 17EE900A 		vmov	r0, s15	@ int
 3948 002c 02B0     		add	sp, sp, #8
 3949              		.cfi_remember_state
 3950              		.cfi_def_cfa_offset 8
 3951              		@ sp needed
 3952 002e 10BD     		pop	{r4, pc}
 3953              	.LVL337:
 3954              	.L447:
 3955              		.cfi_restore_state
 3956              		.loc 1 1207 0
 3957 0030 94F82932 		ldrb	r3, [r4, #553]	@ zero_extendqisi2
 3958 0034 DDED017A 		vldr.32	s15, [sp, #4]	@ int
 3959 0038 002B     		cmp	r3, #0
 3960 003a FFEE006A 		vmov.f32	s13, #-1.0e+0
 3961 003e B7EE007A 		vmov.f32	s14, #1.0e+0
 3962 0042 F8EEE77A 		vcvt.f32.s32	s15, s15
 3963 0046 18BF     		it	ne
 3964 0048 B0EE667A 		vmovne.f32	s14, s13
 3965 004c 67EE877A 		vmul.f32	s15, s15, s14
 3966 0050 FDEEE77A 		vcvt.s32.f32	s15, s15
 3967 0054 17EE900A 		vmov	r0, s15	@ int
 3968              	.LVL338:
 3969 0058 FFF7FEFF 		bl	mcpwm_foc_set_tachometer_value
 3970              	.LVL339:
 3971 005c 07EE900A 		vmov	s15, r0	@ int
 3972 0060 F8EEE77A 		vcvt.f32.s32	s15, s15
 3973              		.loc 1 1208 0
 3974 0064 D9E7     		b	.L445
 3975              	.LVL340:
 3976              	.L446:
 3977              		.loc 1 1203 0
 3978 0066 94F82932 		ldrb	r3, [r4, #553]	@ zero_extendqisi2
 3979 006a DDED017A 		vldr.32	s15, [sp, #4]	@ int
 3980 006e 002B     		cmp	r3, #0
 3981 0070 FFEE006A 		vmov.f32	s13, #-1.0e+0
 3982 0074 B7EE007A 		vmov.f32	s14, #1.0e+0
 3983 0078 F8EEE77A 		vcvt.f32.s32	s15, s15
 3984 007c 18BF     		it	ne
 3985 007e B0EE667A 		vmovne.f32	s14, s13
 3986 0082 67EE877A 		vmul.f32	s15, s15, s14
 3987 0086 FDEEE77A 		vcvt.s32.f32	s15, s15
 3988 008a 17EE900A 		vmov	r0, s15	@ int
 3989              	.LVL341:
 3990 008e FFF7FEFF 		bl	mcpwm_set_tachometer_value
ARM GAS  /tmp/ccqyMDDx.s 			page 71


 3991              	.LVL342:
 3992 0092 07EE900A 		vmov	s15, r0	@ int
 3993 0096 F8EEE77A 		vcvt.f32.s32	s15, s15
 3994              		.loc 1 1204 0
 3995 009a BEE7     		b	.L445
 3996              	.L460:
 3997              		.align	2
 3998              	.L459:
 3999 009c 00000000 		.word	.LANCHOR13
 4000 00a0 00000000 		.word	0
 4001              		.cfi_endproc
 4002              	.LFE301:
 4003              		.size	mc_interface_set_tachometer_value, .-mc_interface_set_tachometer_value
 4004              		.section	.text.mc_interface_get_tachometer_value,"ax",%progbits
 4005              		.align	1
 4006              		.p2align 4,,15
 4007              		.global	mc_interface_get_tachometer_value
 4008              		.syntax unified
 4009              		.thumb
 4010              		.thumb_func
 4011              		.fpu fpv4-sp-d16
 4012              		.type	mc_interface_get_tachometer_value, %function
 4013              	mc_interface_get_tachometer_value:
 4014              	.LFB302:
 4015              		.loc 1 1217 0
 4016              		.cfi_startproc
 4017              		@ args = 0, pretend = 0, frame = 0
 4018              		@ frame_needed = 0, uses_anonymous_args = 0
 4019              	.LVL343:
 4020 0000 10B5     		push	{r4, lr}
 4021              		.cfi_def_cfa_offset 8
 4022              		.cfi_offset 4, -8
 4023              		.cfi_offset 14, -4
 4024              		.loc 1 1220 0
 4025 0002 114C     		ldr	r4, .L472
 4026 0004 94F88630 		ldrb	r3, [r4, #134]	@ zero_extendqisi2
 4027 0008 DBB2     		uxtb	r3, r3
 4028 000a 012B     		cmp	r3, #1
 4029 000c 14D9     		bls	.L463
 4030 000e 022B     		cmp	r3, #2
 4031 0010 0BD0     		beq	.L464
 4032 0012 DFED0E7A 		vldr.32	s15, .L472+4
 4033              	.LVL344:
 4034              	.L462:
 4035              		.loc 1 1234 0
 4036 0016 94F82932 		ldrb	r3, [r4, #553]	@ zero_extendqisi2
 4037 001a 0BB1     		cbz	r3, .L465
 4038 001c F1EE677A 		vneg.f32	s15, s15
 4039              	.L465:
 4040              		.loc 1 1235 0 discriminator 4
 4041 0020 FDEEE77A 		vcvt.s32.f32	s15, s15
 4042 0024 17EE900A 		vmov	r0, s15	@ int
 4043 0028 10BD     		pop	{r4, pc}
 4044              	.LVL345:
 4045              	.L464:
 4046              		.loc 1 1227 0
 4047 002a FFF7FEFF 		bl	mcpwm_foc_get_tachometer_value
ARM GAS  /tmp/ccqyMDDx.s 			page 72


 4048              	.LVL346:
 4049 002e 07EE900A 		vmov	s15, r0	@ int
 4050 0032 F8EEE77A 		vcvt.f32.s32	s15, s15
 4051              		.loc 1 1228 0
 4052 0036 EEE7     		b	.L462
 4053              	.LVL347:
 4054              	.L463:
 4055              		.loc 1 1223 0
 4056 0038 FFF7FEFF 		bl	mcpwm_get_tachometer_value
 4057              	.LVL348:
 4058 003c 07EE900A 		vmov	s15, r0	@ int
 4059 0040 F8EEE77A 		vcvt.f32.s32	s15, s15
 4060              		.loc 1 1224 0
 4061 0044 E7E7     		b	.L462
 4062              	.L473:
 4063 0046 00BF     		.align	2
 4064              	.L472:
 4065 0048 00000000 		.word	.LANCHOR13
 4066 004c 00000000 		.word	0
 4067              		.cfi_endproc
 4068              	.LFE302:
 4069              		.size	mc_interface_get_tachometer_value, .-mc_interface_get_tachometer_value
 4070              		.section	.text.fault_stop_thread,"ax",%progbits
 4071              		.align	1
 4072              		.p2align 4,,15
 4073              		.syntax unified
 4074              		.thumb
 4075              		.thumb_func
 4076              		.fpu fpv4-sp-d16
 4077              		.type	fault_stop_thread, %function
 4078              	fault_stop_thread:
 4079              	.LFB351:
 4080              		.loc 1 2748 0
 4081              		.cfi_startproc
 4082              		@ args = 0, pretend = 0, frame = 72
 4083              		@ frame_needed = 0, uses_anonymous_args = 0
 4084              	.LVL349:
 4085 0000 2DE9F043 		push	{r4, r5, r6, r7, r8, r9, lr}
 4086              		.cfi_def_cfa_offset 28
 4087              		.cfi_offset 4, -28
 4088              		.cfi_offset 5, -24
 4089              		.cfi_offset 6, -20
 4090              		.cfi_offset 7, -16
 4091              		.cfi_offset 8, -12
 4092              		.cfi_offset 9, -8
 4093              		.cfi_offset 14, -4
 4094              	.LBB715:
 4095              	.LBB716:
 4096              		.loc 2 135 0
 4097 0004 474B     		ldr	r3, .L492
 4098              	.LBE716:
 4099              	.LBE715:
 4100              		.loc 1 2752 0
 4101 0006 484A     		ldr	r2, .L492+4
 4102              	.LBB719:
 4103              	.LBB717:
 4104              		.loc 2 135 0
ARM GAS  /tmp/ccqyMDDx.s 			page 73


 4105 0008 9B69     		ldr	r3, [r3, #24]
 4106 000a 4849     		ldr	r1, .L492+8
 4107 000c 484E     		ldr	r6, .L492+12
 4108 000e 494C     		ldr	r4, .L492+16
 4109 0010 494D     		ldr	r5, .L492+20
 4110 0012 DFF83881 		ldr	r8, .L492+40
 4111              	.LBE717:
 4112              	.LBE719:
 4113              	.LBB720:
 4114              	.LBB721:
 4115              		.loc 1 2773 0
 4116 0016 494F     		ldr	r7, .L492+24
 4117              	.LBE721:
 4118              	.LBE720:
 4119              		.loc 1 2748 0
 4120 0018 2DED028B 		vpush.64	{d8}
 4121              		.cfi_def_cfa_offset 36
 4122              		.cfi_offset 80, -36
 4123              		.cfi_offset 81, -32
 4124              	.LBB724:
 4125              	.LBB722:
 4126              		.loc 1 2783 0
 4127 001c DFED488A 		vldr.32	s17, .L492+28
 4128 0020 9FED488A 		vldr.32	s16, .L492+32
 4129              	.LBE722:
 4130              	.LBE724:
 4131              	.LBB725:
 4132              	.LBB718:
 4133              		.loc 2 135 0
 4134 0024 9961     		str	r1, [r3, #24]
 4135              	.LVL350:
 4136              	.LBE718:
 4137              	.LBE725:
 4138              		.loc 1 2748 0
 4139 0026 93B0     		sub	sp, sp, #76
 4140              		.cfi_def_cfa_offset 112
 4141              		.loc 1 2752 0
 4142 0028 1360     		str	r3, [r2]
 4143              	.LVL351:
 4144              	.L475:
 4145              	.LBB726:
 4146              		.loc 1 2755 0
 4147 002a 0120     		movs	r0, #1
 4148 002c FFF7FEFF 		bl	chEvtWaitAny
 4149              	.LVL352:
 4150              		.loc 1 2762 0
 4151 0030 3378     		ldrb	r3, [r6]	@ zero_extendqisi2
 4152              		.loc 1 2764 0
 4153 0032 94F88C22 		ldrb	r2, [r4, #652]	@ zero_extendqisi2
 4154 0036 2B78     		ldrb	r3, [r5]	@ zero_extendqisi2
 4155 0038 9A42     		cmp	r2, r3
 4156 003a 22D0     		beq	.L490
 4157              		.loc 1 2769 0
 4158 003c FFF7FEFF 		bl	mc_interface_dccal_done
 4159              	.LVL353:
 4160 0040 20B1     		cbz	r0, .L478
 4161              		.loc 1 2769 0 is_stmt 0 discriminator 1
ARM GAS  /tmp/ccqyMDDx.s 			page 74


 4162 0042 94F88C32 		ldrb	r3, [r4, #652]	@ zero_extendqisi2
 4163 0046 03F0FF09 		and	r9, r3, #255
 4164 004a FBB1     		cbz	r3, .L491
 4165              	.L478:
 4166              		.loc 1 2810 0 is_stmt 1
 4167 004c D4F81832 		ldr	r3, [r4, #536]
 4168 0050 C4F8F032 		str	r3, [r4, #752]
 4169              		.loc 1 2812 0
 4170 0054 94F88630 		ldrb	r3, [r4, #134]	@ zero_extendqisi2
 4171 0058 032B     		cmp	r3, #3
 4172 005a 06D8     		bhi	.L480
 4173 005c DFE803F0 		tbb	[pc, r3]
 4174              	.L482:
 4175 0060 0E       		.byte	(.L481-.L482)/2
 4176 0061 0E       		.byte	(.L481-.L482)/2
 4177 0062 0A       		.byte	(.L483-.L482)/2
 4178 0063 02       		.byte	(.L484-.L482)/2
 4179              		.p2align 1
 4180              	.L484:
 4181              		.loc 1 2823 0
 4182 0064 0020     		movs	r0, #0
 4183 0066 FFF7FEFF 		bl	gpdrive_set_mode
 4184              	.LVL354:
 4185              	.L480:
 4186              		.loc 1 2830 0
 4187 006a 2B78     		ldrb	r3, [r5]	@ zero_extendqisi2
 4188 006c DBB2     		uxtb	r3, r3
 4189 006e 84F88C32 		strb	r3, [r4, #652]
 4190 0072 DAE7     		b	.L475
 4191              	.L483:
 4192              		.loc 1 2819 0
 4193 0074 3078     		ldrb	r0, [r6]	@ zero_extendqisi2
 4194 0076 FFF7FEFF 		bl	mcpwm_foc_stop_pwm
 4195              	.LVL355:
 4196              		.loc 1 2820 0
 4197 007a F6E7     		b	.L480
 4198              	.L481:
 4199              		.loc 1 2815 0
 4200 007c FFF7FEFF 		bl	mcpwm_stop_pwm
 4201              	.LVL356:
 4202              		.loc 1 2816 0
 4203 0080 F3E7     		b	.L480
 4204              	.L490:
 4205              		.loc 1 2765 0
 4206 0082 D4F81832 		ldr	r3, [r4, #536]
 4207 0086 C4F8F032 		str	r3, [r4, #752]
 4208              		.loc 1 2766 0
 4209 008a CEE7     		b	.L475
 4210              	.L491:
 4211              	.LBB723:
 4212              		.loc 1 2772 0
 4213 008c FFF7FEFF 		bl	utils_sys_lock_cnt
 4214              	.LVL357:
 4215              		.loc 1 2773 0
 4216 0090 7A6B     		ldr	r2, [r7, #52]
 4217              		.loc 1 2774 0
 4218 0092 2D4B     		ldr	r3, .L492+36
ARM GAS  /tmp/ccqyMDDx.s 			page 75


 4219              		.loc 1 2773 0
 4220 0094 0092     		str	r2, [sp]
 4221              		.loc 1 2774 0
 4222 0096 1A6C     		ldr	r2, [r3, #64]
 4223 0098 0192     		str	r2, [sp, #4]
 4224              		.loc 1 2775 0
 4225 009a DB6A     		ldr	r3, [r3, #44]
 4226 009c 0293     		str	r3, [sp, #8]
 4227              		.loc 1 2776 0
 4228 009e FFF7FEFF 		bl	utils_sys_unlock_cnt
 4229              	.LVL358:
 4230              		.loc 1 2779 0
 4231 00a2 3378     		ldrb	r3, [r6]	@ zero_extendqisi2
 4232              		.loc 1 2780 0
 4233 00a4 2A78     		ldrb	r2, [r5]	@ zero_extendqisi2
 4234 00a6 8DF80D20 		strb	r2, [sp, #13]
 4235              		.loc 1 2779 0
 4236 00aa 002B     		cmp	r3, #0
 4237 00ac 14BF     		ite	ne
 4238 00ae 0223     		movne	r3, #2
 4239 00b0 0123     		moveq	r3, #1
 4240 00b2 8DF80C30 		strb	r3, [sp, #12]
 4241              		.loc 1 2781 0
 4242 00b6 FFF7FEFF 		bl	mc_interface_get_tot_current
 4243              	.LVL359:
 4244 00ba 8DED040A 		vstr.32	s0, [sp, #16]
 4245              		.loc 1 2782 0
 4246 00be FFF7FEFF 		bl	mc_interface_get_tot_current_filtered
 4247              	.LVL360:
 4248              		.loc 1 2783 0
 4249 00c2 B8F81630 		ldrh	r3, [r8, #22]
 4250              		.loc 1 2782 0
 4251 00c6 8DED050A 		vstr.32	s0, [sp, #20]
 4252              		.loc 1 2783 0
 4253 00ca 07EE903A 		vmov	s15, r3	@ int
 4254 00ce F8EE677A 		vcvt.f32.u32	s15, s15
 4255              		.loc 1 2784 0
 4256 00d2 D4F84C33 		ldr	r3, [r4, #844]	@ float
 4257 00d6 0793     		str	r3, [sp, #28]	@ float
 4258              		.loc 1 2783 0
 4259 00d8 67EEA87A 		vmul.f32	s15, s15, s17
 4260 00dc 67EE887A 		vmul.f32	s15, s15, s16
 4261 00e0 CDED067A 		vstr.32	s15, [sp, #24]
 4262              		.loc 1 2785 0
 4263 00e4 FFF7FEFF 		bl	mc_interface_get_duty_cycle_now
 4264              	.LVL361:
 4265 00e8 8DED080A 		vstr.32	s0, [sp, #32]
 4266              		.loc 1 2786 0
 4267 00ec FFF7FEFF 		bl	mc_interface_get_rpm
 4268              	.LVL362:
 4269              		.loc 1 2787 0
 4270 00f0 4846     		mov	r0, r9
 4271              		.loc 1 2786 0
 4272 00f2 8DED090A 		vstr.32	s0, [sp, #36]
 4273              		.loc 1 2787 0
 4274 00f6 FFF7FEFF 		bl	mc_interface_get_tachometer_value
 4275              	.LVL363:
ARM GAS  /tmp/ccqyMDDx.s 			page 76


 4276              		.loc 1 2788 0
 4277 00fa D4F8F8C2 		ldr	ip, [r4, #760]
 4278              		.loc 1 2789 0
 4279 00fe 0099     		ldr	r1, [sp]
 4280              		.loc 1 2790 0
 4281 0100 019A     		ldr	r2, [sp, #4]
 4282              		.loc 1 2791 0
 4283 0102 029B     		ldr	r3, [sp, #8]
 4284 0104 0E93     		str	r3, [sp, #56]
 4285              		.loc 1 2788 0
 4286 0106 CDE90A0C 		strd	r0, ip, [sp, #40]
 4287              		.loc 1 2790 0
 4288 010a CDE90C12 		strd	r1, r2, [sp, #48]
 4289              		.loc 1 2792 0
 4290 010e FFF7FEFF 		bl	mcpwm_get_comm_step
 4291              	.LVL364:
 4292 0112 0F90     		str	r0, [sp, #60]
 4293              		.loc 1 2793 0
 4294 0114 FFF7FEFF 		bl	hwgigavesc_get_temp
 4295              	.LVL365:
 4296              		.loc 1 2807 0
 4297 0118 03A8     		add	r0, sp, #12
 4298              		.loc 1 2793 0
 4299 011a 8DED100A 		vstr.32	s0, [sp, #64]
 4300              		.loc 1 2807 0
 4301 011e FFF7FEFF 		bl	terminal_add_fault_data
 4302              	.LVL366:
 4303 0122 93E7     		b	.L478
 4304              	.L493:
 4305              		.align	2
 4306              	.L492:
 4307 0124 00000000 		.word	ch
 4308 0128 00000000 		.word	.LANCHOR14
 4309 012c 00000000 		.word	.LC7
 4310 0130 00000000 		.word	.LANCHOR28
 4311 0134 00000000 		.word	.LANCHOR13
 4312 0138 00000000 		.word	.LANCHOR27
 4313 013c 00040140 		.word	1073808384
 4314 0140 6740533A 		.word	978534503
 4315 0144 ABAA5E42 		.word	1113500331
 4316 0148 00000140 		.word	1073807360
 4317 014c 00000000 		.word	.LANCHOR26
 4318              	.LBE723:
 4319              	.LBE726:
 4320              		.cfi_endproc
 4321              	.LFE351:
 4322              		.size	fault_stop_thread, .-fault_stop_thread
 4323              		.section	.text.mc_interface_get_tachometer_abs_value,"ax",%progbits
 4324              		.align	1
 4325              		.p2align 4,,15
 4326              		.global	mc_interface_get_tachometer_abs_value
 4327              		.syntax unified
 4328              		.thumb
 4329              		.thumb_func
 4330              		.fpu fpv4-sp-d16
 4331              		.type	mc_interface_get_tachometer_abs_value, %function
 4332              	mc_interface_get_tachometer_abs_value:
ARM GAS  /tmp/ccqyMDDx.s 			page 77


 4333              	.LFB303:
 4334              		.loc 1 1237 0
 4335              		.cfi_startproc
 4336              		@ args = 0, pretend = 0, frame = 0
 4337              		@ frame_needed = 0, uses_anonymous_args = 0
 4338              		@ link register save eliminated.
 4339              	.LVL367:
 4340              		.loc 1 1240 0
 4341 0000 064B     		ldr	r3, .L500
 4342 0002 93F88630 		ldrb	r3, [r3, #134]	@ zero_extendqisi2
 4343 0006 DBB2     		uxtb	r3, r3
 4344 0008 012B     		cmp	r3, #1
 4345 000a 05D9     		bls	.L496
 4346 000c 022B     		cmp	r3, #2
 4347 000e 01D1     		bne	.L499
 4348              		.loc 1 1247 0
 4349 0010 FFF7FEBF 		b	mcpwm_foc_get_tachometer_abs_value
 4350              	.LVL368:
 4351              	.L499:
 4352              		.loc 1 1255 0
 4353 0014 0020     		movs	r0, #0
 4354              	.LVL369:
 4355 0016 7047     		bx	lr
 4356              	.LVL370:
 4357              	.L496:
 4358              		.loc 1 1243 0
 4359 0018 FFF7FEBF 		b	mcpwm_get_tachometer_abs_value
 4360              	.LVL371:
 4361              	.L501:
 4362              		.align	2
 4363              	.L500:
 4364 001c 00000000 		.word	.LANCHOR13
 4365              		.cfi_endproc
 4366              	.LFE303:
 4367              		.size	mc_interface_get_tachometer_abs_value, .-mc_interface_get_tachometer_abs_value
 4368              		.section	.text.mc_interface_get_last_inj_adc_isr_duration,"ax",%progbits
 4369              		.align	1
 4370              		.p2align 4,,15
 4371              		.global	mc_interface_get_last_inj_adc_isr_duration
 4372              		.syntax unified
 4373              		.thumb
 4374              		.thumb_func
 4375              		.fpu fpv4-sp-d16
 4376              		.type	mc_interface_get_last_inj_adc_isr_duration, %function
 4377              	mc_interface_get_last_inj_adc_isr_duration:
 4378              	.LFB304:
 4379              		.loc 1 1257 0
 4380              		.cfi_startproc
 4381              		@ args = 0, pretend = 0, frame = 0
 4382              		@ frame_needed = 0, uses_anonymous_args = 0
 4383              		@ link register save eliminated.
 4384              	.LVL372:
 4385              		.loc 1 1260 0
 4386 0000 084B     		ldr	r3, .L508
 4387 0002 93F88630 		ldrb	r3, [r3, #134]	@ zero_extendqisi2
 4388 0006 032B     		cmp	r3, #3
 4389 0008 09D8     		bhi	.L503
ARM GAS  /tmp/ccqyMDDx.s 			page 78


 4390 000a DFE803F0 		tbb	[pc, r3]
 4391              	.L505:
 4392 000e 06       		.byte	(.L504-.L505)/2
 4393 000f 06       		.byte	(.L504-.L505)/2
 4394 0010 04       		.byte	(.L506-.L505)/2
 4395 0011 02       		.byte	(.L507-.L505)/2
 4396              		.p2align 1
 4397              	.L507:
 4398              		.loc 1 1271 0
 4399 0012 FFF7FEBF 		b	gpdrive_get_last_adc_isr_duration
 4400              	.LVL373:
 4401              	.L506:
 4402              		.loc 1 1267 0
 4403 0016 FFF7FEBF 		b	mcpwm_foc_get_last_adc_isr_duration
 4404              	.LVL374:
 4405              	.L504:
 4406              		.loc 1 1263 0
 4407 001a FFF7FEBF 		b	mcpwm_get_last_inj_adc_isr_duration
 4408              	.LVL375:
 4409              	.L503:
 4410              		.loc 1 1279 0
 4411 001e 9FED020A 		vldr.32	s0, .L508+4
 4412 0022 7047     		bx	lr
 4413              	.L509:
 4414              		.align	2
 4415              	.L508:
 4416 0024 00000000 		.word	.LANCHOR13
 4417 0028 00000000 		.word	0
 4418              		.cfi_endproc
 4419              	.LFE304:
 4420              		.size	mc_interface_get_last_inj_adc_isr_duration, .-mc_interface_get_last_inj_adc_isr_duration
 4421              		.section	.text.mc_interface_read_reset_avg_motor_current,"ax",%progbits
 4422              		.align	1
 4423              		.p2align 4,,15
 4424              		.global	mc_interface_read_reset_avg_motor_current
 4425              		.syntax unified
 4426              		.thumb
 4427              		.thumb_func
 4428              		.fpu fpv4-sp-d16
 4429              		.type	mc_interface_read_reset_avg_motor_current, %function
 4430              	mc_interface_read_reset_avg_motor_current:
 4431              	.LFB305:
 4432              		.loc 1 1281 0
 4433              		.cfi_startproc
 4434              		@ args = 0, pretend = 0, frame = 0
 4435              		@ frame_needed = 0, uses_anonymous_args = 0
 4436              		@ link register save eliminated.
 4437              		.loc 1 1282 0
 4438 0000 094B     		ldr	r3, .L513
 4439 0002 93F88620 		ldrb	r2, [r3, #134]	@ zero_extendqisi2
 4440 0006 032A     		cmp	r2, #3
 4441 0008 0BD0     		beq	.L512
 4442              		.loc 1 1286 0
 4443 000a 93EDC00A 		vldr.32	s0, [r3, #768]
 4444 000e D3EDC27A 		vldr.32	s15, [r3, #776]
 4445              	.LVL376:
 4446              		.loc 1 1287 0
ARM GAS  /tmp/ccqyMDDx.s 			page 79


 4447 0012 0022     		movs	r2, #0
 4448 0014 C3F80023 		str	r2, [r3, #768]	@ float
 4449              		.loc 1 1290 0
 4450 0018 80EE270A 		vdiv.f32	s0, s0, s15
 4451              	.LVL377:
 4452              		.loc 1 1288 0
 4453 001c C3F80823 		str	r2, [r3, #776]	@ float
 4454              		.loc 1 1290 0
 4455 0020 7047     		bx	lr
 4456              	.LVL378:
 4457              	.L512:
 4458              		.loc 1 1283 0
 4459 0022 FFF7FEBF 		b	gpdrive_get_current_filtered
 4460              	.LVL379:
 4461              	.L514:
 4462 0026 00BF     		.align	2
 4463              	.L513:
 4464 0028 00000000 		.word	.LANCHOR13
 4465              		.cfi_endproc
 4466              	.LFE305:
 4467              		.size	mc_interface_read_reset_avg_motor_current, .-mc_interface_read_reset_avg_motor_current
 4468              		.section	.text.mc_interface_read_reset_avg_input_current,"ax",%progbits
 4469              		.align	1
 4470              		.p2align 4,,15
 4471              		.global	mc_interface_read_reset_avg_input_current
 4472              		.syntax unified
 4473              		.thumb
 4474              		.thumb_func
 4475              		.fpu fpv4-sp-d16
 4476              		.type	mc_interface_read_reset_avg_input_current, %function
 4477              	mc_interface_read_reset_avg_input_current:
 4478              	.LFB306:
 4479              		.loc 1 1292 0
 4480              		.cfi_startproc
 4481              		@ args = 0, pretend = 0, frame = 0
 4482              		@ frame_needed = 0, uses_anonymous_args = 0
 4483 0000 08B5     		push	{r3, lr}
 4484              		.cfi_def_cfa_offset 8
 4485              		.cfi_offset 3, -8
 4486              		.cfi_offset 14, -4
 4487              		.loc 1 1293 0
 4488 0002 104B     		ldr	r3, .L520
 4489 0004 93F88620 		ldrb	r2, [r3, #134]	@ zero_extendqisi2
 4490 0008 032A     		cmp	r2, #3
 4491              		.loc 1 1292 0
 4492 000a 2DED028B 		vpush.64	{d8}
 4493              		.cfi_def_cfa_offset 16
 4494              		.cfi_offset 80, -16
 4495              		.cfi_offset 81, -12
 4496              		.loc 1 1293 0
 4497 000e 0DD0     		beq	.L519
 4498              		.loc 1 1301 0
 4499 0010 BDEC028B 		vldm	sp!, {d8}
 4500              		.cfi_remember_state
 4501              		.cfi_restore 80
 4502              		.cfi_restore 81
 4503              		.cfi_def_cfa_offset 8
ARM GAS  /tmp/ccqyMDDx.s 			page 80


 4504              		.loc 1 1297 0
 4505 0014 93EDC17A 		vldr.32	s14, [r3, #772]
 4506 0018 D3EDC37A 		vldr.32	s15, [r3, #780]
 4507              		.loc 1 1298 0
 4508 001c 0022     		movs	r2, #0
 4509              		.loc 1 1297 0
 4510 001e 87EE270A 		vdiv.f32	s0, s14, s15
 4511              	.LVL380:
 4512              		.loc 1 1298 0
 4513 0022 C3F80423 		str	r2, [r3, #772]	@ float
 4514              		.loc 1 1299 0
 4515 0026 C3F80C23 		str	r2, [r3, #780]	@ float
 4516              		.loc 1 1301 0
 4517 002a 08BD     		pop	{r3, pc}
 4518              	.LVL381:
 4519              	.L519:
 4520              		.cfi_restore_state
 4521              		.loc 1 1294 0
 4522 002c FFF7FEFF 		bl	gpdrive_get_current_filtered
 4523              	.LVL382:
 4524 0030 B0EE408A 		vmov.f32	s16, s0
 4525 0034 FFF7FEFF 		bl	gpdrive_get_modulation
 4526              	.LVL383:
 4527 0038 28EE000A 		vmul.f32	s0, s16, s0
 4528              		.loc 1 1301 0
 4529 003c BDEC028B 		vldm	sp!, {d8}
 4530              		.cfi_restore 80
 4531              		.cfi_restore 81
 4532              		.cfi_def_cfa_offset 8
 4533 0040 08BD     		pop	{r3, pc}
 4534              	.L521:
 4535 0042 00BF     		.align	2
 4536              	.L520:
 4537 0044 00000000 		.word	.LANCHOR13
 4538              		.cfi_endproc
 4539              	.LFE306:
 4540              		.size	mc_interface_read_reset_avg_input_current, .-mc_interface_read_reset_avg_input_current
 4541              		.section	.text.mc_interface_read_reset_avg_id,"ax",%progbits
 4542              		.align	1
 4543              		.p2align 4,,15
 4544              		.global	mc_interface_read_reset_avg_id
 4545              		.syntax unified
 4546              		.thumb
 4547              		.thumb_func
 4548              		.fpu fpv4-sp-d16
 4549              		.type	mc_interface_read_reset_avg_id, %function
 4550              	mc_interface_read_reset_avg_id:
 4551              	.LFB307:
 4552              		.loc 1 1309 0
 4553              		.cfi_startproc
 4554              		@ args = 0, pretend = 0, frame = 0
 4555              		@ frame_needed = 0, uses_anonymous_args = 0
 4556              		@ link register save eliminated.
 4557              		.loc 1 1310 0
 4558 0000 064B     		ldr	r3, .L523
 4559 0002 93EDC40A 		vldr.32	s0, [r3, #784]
 4560 0006 D3EDC67A 		vldr.32	s15, [r3, #792]
ARM GAS  /tmp/ccqyMDDx.s 			page 81


 4561              	.LVL384:
 4562              		.loc 1 1311 0
 4563 000a 0022     		movs	r2, #0
 4564 000c C3F81023 		str	r2, [r3, #784]	@ float
 4565              		.loc 1 1314 0
 4566 0010 80EE270A 		vdiv.f32	s0, s0, s15
 4567              	.LVL385:
 4568              		.loc 1 1312 0
 4569 0014 C3F81823 		str	r2, [r3, #792]	@ float
 4570              		.loc 1 1314 0
 4571 0018 7047     		bx	lr
 4572              	.L524:
 4573 001a 00BF     		.align	2
 4574              	.L523:
 4575 001c 00000000 		.word	.LANCHOR13
 4576              		.cfi_endproc
 4577              	.LFE307:
 4578              		.size	mc_interface_read_reset_avg_id, .-mc_interface_read_reset_avg_id
 4579              		.section	.text.mc_interface_read_reset_avg_iq,"ax",%progbits
 4580              		.align	1
 4581              		.p2align 4,,15
 4582              		.global	mc_interface_read_reset_avg_iq
 4583              		.syntax unified
 4584              		.thumb
 4585              		.thumb_func
 4586              		.fpu fpv4-sp-d16
 4587              		.type	mc_interface_read_reset_avg_iq, %function
 4588              	mc_interface_read_reset_avg_iq:
 4589              	.LFB308:
 4590              		.loc 1 1322 0
 4591              		.cfi_startproc
 4592              		@ args = 0, pretend = 0, frame = 0
 4593              		@ frame_needed = 0, uses_anonymous_args = 0
 4594              		@ link register save eliminated.
 4595              		.loc 1 1323 0
 4596 0000 084B     		ldr	r3, .L530
 4597              		.loc 1 1324 0
 4598 0002 0022     		movs	r2, #0
 4599              		.loc 1 1323 0
 4600 0004 93EDC57A 		vldr.32	s14, [r3, #788]
 4601 0008 D3EDC77A 		vldr.32	s15, [r3, #796]
 4602              		.loc 1 1324 0
 4603 000c C3F81423 		str	r2, [r3, #788]	@ float
 4604              		.loc 1 1325 0
 4605 0010 C3F81C23 		str	r2, [r3, #796]	@ float
 4606              		.loc 1 1326 0
 4607 0014 93F82932 		ldrb	r3, [r3, #553]	@ zero_extendqisi2
 4608              		.loc 1 1323 0
 4609 0018 87EE270A 		vdiv.f32	s0, s14, s15
 4610              	.LVL386:
 4611              		.loc 1 1326 0
 4612 001c 0BB1     		cbz	r3, .L525
 4613 001e B1EE400A 		vneg.f32	s0, s0
 4614              	.LVL387:
 4615              	.L525:
 4616              		.loc 1 1327 0
 4617 0022 7047     		bx	lr
ARM GAS  /tmp/ccqyMDDx.s 			page 82


 4618              	.L531:
 4619              		.align	2
 4620              	.L530:
 4621 0024 00000000 		.word	.LANCHOR13
 4622              		.cfi_endproc
 4623              	.LFE308:
 4624              		.size	mc_interface_read_reset_avg_iq, .-mc_interface_read_reset_avg_iq
 4625              		.section	.text.mc_interface_read_reset_avg_vd,"ax",%progbits
 4626              		.align	1
 4627              		.p2align 4,,15
 4628              		.global	mc_interface_read_reset_avg_vd
 4629              		.syntax unified
 4630              		.thumb
 4631              		.thumb_func
 4632              		.fpu fpv4-sp-d16
 4633              		.type	mc_interface_read_reset_avg_vd, %function
 4634              	mc_interface_read_reset_avg_vd:
 4635              	.LFB309:
 4636              		.loc 1 1335 0
 4637              		.cfi_startproc
 4638              		@ args = 0, pretend = 0, frame = 0
 4639              		@ frame_needed = 0, uses_anonymous_args = 0
 4640              		@ link register save eliminated.
 4641              		.loc 1 1336 0
 4642 0000 064B     		ldr	r3, .L533
 4643 0002 93EDC80A 		vldr.32	s0, [r3, #800]
 4644 0006 D3EDCA7A 		vldr.32	s15, [r3, #808]
 4645              	.LVL388:
 4646              		.loc 1 1337 0
 4647 000a 0022     		movs	r2, #0
 4648 000c C3F82023 		str	r2, [r3, #800]	@ float
 4649              		.loc 1 1340 0
 4650 0010 80EE270A 		vdiv.f32	s0, s0, s15
 4651              	.LVL389:
 4652              		.loc 1 1338 0
 4653 0014 C3F82823 		str	r2, [r3, #808]	@ float
 4654              		.loc 1 1340 0
 4655 0018 7047     		bx	lr
 4656              	.L534:
 4657 001a 00BF     		.align	2
 4658              	.L533:
 4659 001c 00000000 		.word	.LANCHOR13
 4660              		.cfi_endproc
 4661              	.LFE309:
 4662              		.size	mc_interface_read_reset_avg_vd, .-mc_interface_read_reset_avg_vd
 4663              		.section	.text.mc_interface_read_reset_avg_vq,"ax",%progbits
 4664              		.align	1
 4665              		.p2align 4,,15
 4666              		.global	mc_interface_read_reset_avg_vq
 4667              		.syntax unified
 4668              		.thumb
 4669              		.thumb_func
 4670              		.fpu fpv4-sp-d16
 4671              		.type	mc_interface_read_reset_avg_vq, %function
 4672              	mc_interface_read_reset_avg_vq:
 4673              	.LFB310:
 4674              		.loc 1 1348 0
ARM GAS  /tmp/ccqyMDDx.s 			page 83


 4675              		.cfi_startproc
 4676              		@ args = 0, pretend = 0, frame = 0
 4677              		@ frame_needed = 0, uses_anonymous_args = 0
 4678              		@ link register save eliminated.
 4679              		.loc 1 1349 0
 4680 0000 084B     		ldr	r3, .L540
 4681              		.loc 1 1350 0
 4682 0002 0022     		movs	r2, #0
 4683              		.loc 1 1349 0
 4684 0004 93EDC97A 		vldr.32	s14, [r3, #804]
 4685 0008 D3EDCB7A 		vldr.32	s15, [r3, #812]
 4686              		.loc 1 1350 0
 4687 000c C3F82423 		str	r2, [r3, #804]	@ float
 4688              		.loc 1 1351 0
 4689 0010 C3F82C23 		str	r2, [r3, #812]	@ float
 4690              		.loc 1 1352 0
 4691 0014 93F82932 		ldrb	r3, [r3, #553]	@ zero_extendqisi2
 4692              		.loc 1 1349 0
 4693 0018 87EE270A 		vdiv.f32	s0, s14, s15
 4694              	.LVL390:
 4695              		.loc 1 1352 0
 4696 001c 0BB1     		cbz	r3, .L535
 4697 001e B1EE400A 		vneg.f32	s0, s0
 4698              	.LVL391:
 4699              	.L535:
 4700              		.loc 1 1353 0
 4701 0022 7047     		bx	lr
 4702              	.L541:
 4703              		.align	2
 4704              	.L540:
 4705 0024 00000000 		.word	.LANCHOR13
 4706              		.cfi_endproc
 4707              	.LFE310:
 4708              		.size	mc_interface_read_reset_avg_vq, .-mc_interface_read_reset_avg_vq
 4709              		.section	.text.mc_interface_get_pid_pos_set,"ax",%progbits
 4710              		.align	1
 4711              		.p2align 4,,15
 4712              		.global	mc_interface_get_pid_pos_set
 4713              		.syntax unified
 4714              		.thumb
 4715              		.thumb_func
 4716              		.fpu fpv4-sp-d16
 4717              		.type	mc_interface_get_pid_pos_set, %function
 4718              	mc_interface_get_pid_pos_set:
 4719              	.LFB311:
 4720              		.loc 1 1355 0
 4721              		.cfi_startproc
 4722              		@ args = 0, pretend = 0, frame = 0
 4723              		@ frame_needed = 0, uses_anonymous_args = 0
 4724              		@ link register save eliminated.
 4725              		.loc 1 1356 0
 4726 0000 014B     		ldr	r3, .L543
 4727 0002 93EDD00A 		vldr.32	s0, [r3, #832]
 4728              		.loc 1 1357 0
 4729 0006 7047     		bx	lr
 4730              	.L544:
 4731              		.align	2
ARM GAS  /tmp/ccqyMDDx.s 			page 84


 4732              	.L543:
 4733 0008 00000000 		.word	.LANCHOR13
 4734              		.cfi_endproc
 4735              	.LFE311:
 4736              		.size	mc_interface_get_pid_pos_set, .-mc_interface_get_pid_pos_set
 4737              		.section	.text.mc_interface_get_pid_pos_now,"ax",%progbits
 4738              		.align	1
 4739              		.p2align 4,,15
 4740              		.global	mc_interface_get_pid_pos_now
 4741              		.syntax unified
 4742              		.thumb
 4743              		.thumb_func
 4744              		.fpu fpv4-sp-d16
 4745              		.type	mc_interface_get_pid_pos_now, %function
 4746              	mc_interface_get_pid_pos_now:
 4747              	.LFB312:
 4748              		.loc 1 1359 0
 4749              		.cfi_startproc
 4750              		@ args = 0, pretend = 0, frame = 8
 4751              		@ frame_needed = 0, uses_anonymous_args = 0
 4752 0000 10B5     		push	{r4, lr}
 4753              		.cfi_def_cfa_offset 8
 4754              		.cfi_offset 4, -8
 4755              		.cfi_offset 14, -4
 4756              		.loc 1 1364 0
 4757 0002 1A4C     		ldr	r4, .L559
 4758 0004 94F88630 		ldrb	r3, [r4, #134]	@ zero_extendqisi2
 4759              		.loc 1 1359 0
 4760 0008 82B0     		sub	sp, sp, #8
 4761              		.cfi_def_cfa_offset 16
 4762              		.loc 1 1364 0
 4763 000a DBB2     		uxtb	r3, r3
 4764              		.loc 1 1360 0
 4765 000c 0022     		movs	r2, #0
 4766              		.loc 1 1364 0
 4767 000e 012B     		cmp	r3, #1
 4768              		.loc 1 1360 0
 4769 0010 0192     		str	r2, [sp, #4]	@ float
 4770              	.LVL392:
 4771              		.loc 1 1364 0
 4772 0012 26D9     		bls	.L547
 4773 0014 022B     		cmp	r3, #2
 4774 0016 1FD0     		beq	.L548
 4775              	.L546:
 4776              		.loc 1 1378 0
 4777 0018 FFF7FEFF 		bl	encoder_is_configured
 4778              	.LVL393:
 4779 001c 98B9     		cbnz	r0, .L549
 4780 001e DDED017A 		vldr.32	s15, [sp, #4]
 4781              	.L550:
 4782              		.loc 1 1384 0
 4783 0022 94F82932 		ldrb	r3, [r4, #553]	@ zero_extendqisi2
 4784 0026 0BB1     		cbz	r3, .L551
 4785 0028 F1EE677A 		vneg.f32	s15, s15
 4786              	.L551:
 4787              		.loc 1 1385 0 discriminator 4
 4788 002c 94ED817A 		vldr.32	s14, [r4, #516]
ARM GAS  /tmp/ccqyMDDx.s 			page 85


 4789 0030 77EEC77A 		vsub.f32	s15, s15, s14
 4790 0034 02A8     		add	r0, sp, #8
 4791 0036 60ED017A 		vstmdb.32	r0!, {s15}
 4792              		.loc 1 1386 0 discriminator 4
 4793 003a FFF7FEFF 		bl	utils_norm_angle
 4794              	.LVL394:
 4795              		.loc 1 1389 0 discriminator 4
 4796 003e 9DED010A 		vldr.32	s0, [sp, #4]
 4797 0042 02B0     		add	sp, sp, #8
 4798              		.cfi_remember_state
 4799              		.cfi_def_cfa_offset 8
 4800              		@ sp needed
 4801 0044 10BD     		pop	{r4, pc}
 4802              	.L549:
 4803              		.cfi_restore_state
 4804              		.loc 1 1379 0
 4805 0046 94F8C430 		ldrb	r3, [r4, #196]	@ zero_extendqisi2
 4806 004a DDED017A 		vldr.32	s15, [sp, #4]
 4807 004e 002B     		cmp	r3, #0
 4808 0050 E7D0     		beq	.L550
 4809              		.loc 1 1380 0
 4810 0052 F1EE677A 		vneg.f32	s15, s15
 4811 0056 E4E7     		b	.L550
 4812              	.L548:
 4813              		.loc 1 1371 0
 4814 0058 FFF7FEFF 		bl	mcpwm_foc_get_pid_pos_now
 4815              	.LVL395:
 4816 005c 8DED010A 		vstr.32	s0, [sp, #4]
 4817              		.loc 1 1372 0
 4818 0060 DAE7     		b	.L546
 4819              	.L547:
 4820              		.loc 1 1367 0
 4821 0062 FFF7FEFF 		bl	encoder_read_deg
 4822              	.LVL396:
 4823 0066 8DED010A 		vstr.32	s0, [sp, #4]
 4824              		.loc 1 1368 0
 4825 006a D5E7     		b	.L546
 4826              	.L560:
 4827              		.align	2
 4828              	.L559:
 4829 006c 00000000 		.word	.LANCHOR13
 4830              		.cfi_endproc
 4831              	.LFE312:
 4832              		.size	mc_interface_get_pid_pos_now, .-mc_interface_get_pid_pos_now
 4833              		.section	.text.mc_interface_update_pid_pos_offset,"ax",%progbits
 4834              		.align	1
 4835              		.p2align 4,,15
 4836              		.global	mc_interface_update_pid_pos_offset
 4837              		.syntax unified
 4838              		.thumb
 4839              		.thumb_func
 4840              		.fpu fpv4-sp-d16
 4841              		.type	mc_interface_update_pid_pos_offset, %function
 4842              	mc_interface_update_pid_pos_offset:
 4843              	.LFB313:
 4844              		.loc 1 1394 0
 4845              		.cfi_startproc
ARM GAS  /tmp/ccqyMDDx.s 			page 86


 4846              		@ args = 0, pretend = 0, frame = 0
 4847              		@ frame_needed = 0, uses_anonymous_args = 0
 4848              	.LVL397:
 4849 0000 38B5     		push	{r3, r4, r5, lr}
 4850              		.cfi_def_cfa_offset 16
 4851              		.cfi_offset 3, -16
 4852              		.cfi_offset 4, -12
 4853              		.cfi_offset 5, -8
 4854              		.cfi_offset 14, -4
 4855 0002 2DED028B 		vpush.64	{d8}
 4856              		.cfi_def_cfa_offset 24
 4857              		.cfi_offset 80, -24
 4858              		.cfi_offset 81, -20
 4859              		.loc 1 1394 0
 4860 0006 0546     		mov	r5, r0
 4861 0008 B0EE408A 		vmov.f32	s16, s0
 4862              		.loc 1 1395 0
 4863 000c FFF7FEFF 		bl	mempools_alloc_mcconf
 4864              	.LVL398:
 4865              		.loc 1 1396 0
 4866 0010 4FF42372 		mov	r2, #652
 4867 0014 1349     		ldr	r1, .L567
 4868              		.loc 1 1395 0
 4869 0016 0446     		mov	r4, r0
 4870              	.LVL399:
 4871              		.loc 1 1396 0
 4872 0018 FFF7FEFF 		bl	memcpy
 4873              	.LVL400:
 4874              		.loc 1 1398 0
 4875 001c FFF7FEFF 		bl	mc_interface_get_pid_pos_now
 4876              	.LVL401:
 4877 0020 D4ED817A 		vldr.32	s15, [r4, #516]
 4878 0024 30EE480A 		vsub.f32	s0, s0, s16
 4879              		.loc 1 1399 0
 4880 0028 04F50170 		add	r0, r4, #516
 4881              		.loc 1 1398 0
 4882 002c 77EE807A 		vadd.f32	s15, s15, s0
 4883 0030 C4ED817A 		vstr.32	s15, [r4, #516]
 4884              		.loc 1 1399 0
 4885 0034 FFF7FEFF 		bl	utils_norm_angle
 4886              	.LVL402:
 4887              		.loc 1 1401 0
 4888 0038 55B1     		cbz	r5, .L562
 4889              	.LBB727:
 4890              	.LBB728:
 4891              	.LBB729:
 4892              	.LBB730:
 4893              		.loc 5 176 0
 4894 003a 0B4B     		ldr	r3, .L567+4
 4895              	.LBE730:
 4896              	.LBE729:
 4897              		.loc 1 335 0
 4898 003c 9B69     		ldr	r3, [r3, #24]
 4899              	.LBE728:
 4900              	.LBE727:
 4901              		.loc 1 1402 0
 4902 003e D96C     		ldr	r1, [r3, #76]
ARM GAS  /tmp/ccqyMDDx.s 			page 87


 4903 0040 A1F10201 		sub	r1, #2
 4904 0044 B1FA81F1 		clz	r1, r1
 4905 0048 2046     		mov	r0, r4
 4906 004a 4909     		lsrs	r1, r1, #5
 4907 004c FFF7FEFF 		bl	conf_general_store_mc_configuration
 4908              	.LVL403:
 4909              	.L562:
 4910              		.loc 1 1405 0
 4911 0050 2046     		mov	r0, r4
 4912 0052 FFF7FEFF 		bl	mc_interface_set_configuration
 4913              	.LVL404:
 4914              		.loc 1 1408 0
 4915 0056 BDEC028B 		vldm	sp!, {d8}
 4916              		.cfi_restore 80
 4917              		.cfi_restore 81
 4918              		.cfi_def_cfa_offset 16
 4919              	.LVL405:
 4920              		.loc 1 1407 0
 4921 005a 2046     		mov	r0, r4
 4922              		.loc 1 1408 0
 4923 005c BDE83840 		pop	{r3, r4, r5, lr}
 4924              		.cfi_restore 14
 4925              		.cfi_restore 5
 4926              		.cfi_restore 4
 4927              		.cfi_restore 3
 4928              		.cfi_def_cfa_offset 0
 4929              	.LVL406:
 4930              		.loc 1 1407 0
 4931 0060 FFF7FEBF 		b	mempools_free_mcconf
 4932              	.LVL407:
 4933              	.L568:
 4934              		.align	2
 4935              	.L567:
 4936 0064 00000000 		.word	.LANCHOR13
 4937 0068 00000000 		.word	ch
 4938              		.cfi_endproc
 4939              	.LFE313:
 4940              		.size	mc_interface_update_pid_pos_offset, .-mc_interface_update_pid_pos_offset
 4941              		.section	.text.mc_interface_get_last_sample_adc_isr_duration,"ax",%progbits
 4942              		.align	1
 4943              		.p2align 4,,15
 4944              		.global	mc_interface_get_last_sample_adc_isr_duration
 4945              		.syntax unified
 4946              		.thumb
 4947              		.thumb_func
 4948              		.fpu fpv4-sp-d16
 4949              		.type	mc_interface_get_last_sample_adc_isr_duration, %function
 4950              	mc_interface_get_last_sample_adc_isr_duration:
 4951              	.LFB314:
 4952              		.loc 1 1410 0
 4953              		.cfi_startproc
 4954              		@ args = 0, pretend = 0, frame = 0
 4955              		@ frame_needed = 0, uses_anonymous_args = 0
 4956              		@ link register save eliminated.
 4957              		.loc 1 1411 0
 4958 0000 014B     		ldr	r3, .L570
 4959 0002 93ED000A 		vldr.32	s0, [r3]
ARM GAS  /tmp/ccqyMDDx.s 			page 88


 4960              		.loc 1 1412 0
 4961 0006 7047     		bx	lr
 4962              	.L571:
 4963              		.align	2
 4964              	.L570:
 4965 0008 00000000 		.word	.LANCHOR15
 4966              		.cfi_endproc
 4967              	.LFE314:
 4968              		.size	mc_interface_get_last_sample_adc_isr_duration, .-mc_interface_get_last_sample_adc_isr_durati
 4969              		.section	.text.mc_interface_sample_print_data,"ax",%progbits
 4970              		.align	1
 4971              		.p2align 4,,15
 4972              		.global	mc_interface_sample_print_data
 4973              		.syntax unified
 4974              		.thumb
 4975              		.thumb_func
 4976              		.fpu fpv4-sp-d16
 4977              		.type	mc_interface_sample_print_data, %function
 4978              	mc_interface_sample_print_data:
 4979              	.LFB315:
 4980              		.loc 1 1414 0
 4981              		.cfi_startproc
 4982              		@ args = 0, pretend = 0, frame = 0
 4983              		@ frame_needed = 0, uses_anonymous_args = 0
 4984              		@ link register save eliminated.
 4985              	.LVL408:
 4986 0000 B1F5FA6F 		cmp	r1, #2000
 4987 0004 28BF     		it	cs
 4988 0006 4FF4FA61 		movcs	r1, #2000
 4989              	.LVL409:
 4990              		.loc 1 1419 0
 4991 000a 0728     		cmp	r0, #7
 4992 000c 12D0     		beq	.L576
 4993              		.loc 1 1414 0
 4994 000e F0B4     		push	{r4, r5, r6, r7}
 4995              		.cfi_def_cfa_offset 16
 4996              		.cfi_offset 4, -16
 4997              		.cfi_offset 5, -12
 4998              		.cfi_offset 6, -8
 4999              		.cfi_offset 7, -4
 5000              		.loc 1 1422 0
 5001 0010 0B4F     		ldr	r7, .L577
 5002              		.loc 1 1423 0
 5003 0012 0C4C     		ldr	r4, .L577+4
 5004              		.loc 1 1424 0
 5005 0014 0C4E     		ldr	r6, .L577+8
 5006              		.loc 1 1425 0
 5007 0016 0D4D     		ldr	r5, .L577+12
 5008              		.loc 1 1422 0
 5009 0018 4FF0FF3C 		mov	ip, #-1
 5010 001c C7F800C0 		str	ip, [r7]
 5011              		.loc 1 1423 0
 5012 0020 0027     		movs	r7, #0
 5013 0022 2760     		str	r7, [r4]
 5014              		.loc 1 1424 0
 5015 0024 3160     		str	r1, [r6]
 5016              		.loc 1 1426 0
ARM GAS  /tmp/ccqyMDDx.s 			page 89


 5017 0026 0A4C     		ldr	r4, .L577+16
 5018              		.loc 1 1427 0
 5019 0028 0A49     		ldr	r1, .L577+20
 5020              	.LVL410:
 5021              		.loc 1 1425 0
 5022 002a 2A60     		str	r2, [r5]
 5023              	.LVL411:
 5024              		.loc 1 1426 0
 5025 002c 2070     		strb	r0, [r4]
 5026              		.loc 1 1427 0
 5027 002e 0B70     		strb	r3, [r1]
 5028              		.loc 1 1432 0
 5029 0030 F0BC     		pop	{r4, r5, r6, r7}
 5030              		.cfi_restore 7
 5031              		.cfi_restore 6
 5032              		.cfi_restore 5
 5033              		.cfi_restore 4
 5034              		.cfi_def_cfa_offset 0
 5035 0032 7047     		bx	lr
 5036              	.LVL412:
 5037              	.L576:
 5038              		.loc 1 1420 0
 5039 0034 084B     		ldr	r3, .L577+24
 5040              	.LVL413:
 5041 0036 0121     		movs	r1, #1
 5042              	.LVL414:
 5043 0038 1868     		ldr	r0, [r3]
 5044              	.LVL415:
 5045 003a FFF7FEBF 		b	chEvtSignal
 5046              	.LVL416:
 5047              	.L578:
 5048 003e 00BF     		.align	2
 5049              	.L577:
 5050 0040 00000000 		.word	.LANCHOR3
 5051 0044 00000000 		.word	.LANCHOR17
 5052 0048 00000000 		.word	.LANCHOR2
 5053 004c 00000000 		.word	.LANCHOR16
 5054 0050 00000000 		.word	.LANCHOR18
 5055 0054 00000000 		.word	.LANCHOR4
 5056 0058 00000000 		.word	.LANCHOR0
 5057              		.cfi_endproc
 5058              	.LFE315:
 5059              		.size	mc_interface_sample_print_data, .-mc_interface_sample_print_data
 5060              		.section	.text.mc_interface_temp_fet_filtered,"ax",%progbits
 5061              		.align	1
 5062              		.p2align 4,,15
 5063              		.global	mc_interface_temp_fet_filtered
 5064              		.syntax unified
 5065              		.thumb
 5066              		.thumb_func
 5067              		.fpu fpv4-sp-d16
 5068              		.type	mc_interface_temp_fet_filtered, %function
 5069              	mc_interface_temp_fet_filtered:
 5070              	.LFB316:
 5071              		.loc 1 1441 0
 5072              		.cfi_startproc
 5073              		@ args = 0, pretend = 0, frame = 0
ARM GAS  /tmp/ccqyMDDx.s 			page 90


 5074              		@ frame_needed = 0, uses_anonymous_args = 0
 5075              		@ link register save eliminated.
 5076              		.loc 1 1442 0
 5077 0000 014B     		ldr	r3, .L580
 5078 0002 93EDD10A 		vldr.32	s0, [r3, #836]
 5079              		.loc 1 1443 0
 5080 0006 7047     		bx	lr
 5081              	.L581:
 5082              		.align	2
 5083              	.L580:
 5084 0008 00000000 		.word	.LANCHOR13
 5085              		.cfi_endproc
 5086              	.LFE316:
 5087              		.size	mc_interface_temp_fet_filtered, .-mc_interface_temp_fet_filtered
 5088              		.section	.text.mc_interface_temp_motor_filtered,"ax",%progbits
 5089              		.align	1
 5090              		.p2align 4,,15
 5091              		.global	mc_interface_temp_motor_filtered
 5092              		.syntax unified
 5093              		.thumb
 5094              		.thumb_func
 5095              		.fpu fpv4-sp-d16
 5096              		.type	mc_interface_temp_motor_filtered, %function
 5097              	mc_interface_temp_motor_filtered:
 5098              	.LFB317:
 5099              		.loc 1 1452 0
 5100              		.cfi_startproc
 5101              		@ args = 0, pretend = 0, frame = 0
 5102              		@ frame_needed = 0, uses_anonymous_args = 0
 5103              		@ link register save eliminated.
 5104              		.loc 1 1453 0
 5105 0000 014B     		ldr	r3, .L583
 5106 0002 93EDD20A 		vldr.32	s0, [r3, #840]
 5107              		.loc 1 1454 0
 5108 0006 7047     		bx	lr
 5109              	.L584:
 5110              		.align	2
 5111              	.L583:
 5112 0008 00000000 		.word	.LANCHOR13
 5113              		.cfi_endproc
 5114              	.LFE317:
 5115              		.size	mc_interface_temp_motor_filtered, .-mc_interface_temp_motor_filtered
 5116              		.section	.text.mc_interface_get_battery_level,"ax",%progbits
 5117              		.align	1
 5118              		.p2align 4,,15
 5119              		.global	mc_interface_get_battery_level
 5120              		.syntax unified
 5121              		.thumb
 5122              		.thumb_func
 5123              		.fpu fpv4-sp-d16
 5124              		.type	mc_interface_get_battery_level, %function
 5125              	mc_interface_get_battery_level:
 5126              	.LFB318:
 5127              		.loc 1 1466 0
 5128              		.cfi_startproc
 5129              		@ args = 0, pretend = 0, frame = 0
 5130              		@ frame_needed = 0, uses_anonymous_args = 0
ARM GAS  /tmp/ccqyMDDx.s 			page 91


 5131              	.LVL417:
 5132 0000 38B5     		push	{r3, r4, r5, lr}
 5133              		.cfi_def_cfa_offset 16
 5134              		.cfi_offset 3, -16
 5135              		.cfi_offset 4, -12
 5136              		.cfi_offset 5, -8
 5137              		.cfi_offset 14, -4
 5138              		.loc 1 1468 0
 5139 0002 504B     		ldr	r3, .L597
 5140              		.loc 1 1466 0
 5141 0004 2DED048B 		vpush.64	{d8, d9}
 5142              		.cfi_def_cfa_offset 32
 5143              		.cfi_offset 80, -32
 5144              		.cfi_offset 81, -28
 5145              		.cfi_offset 82, -24
 5146              		.cfi_offset 83, -20
 5147              		.loc 1 1468 0
 5148 0008 93EDD88A 		vldr.32	s16, [r3, #864]
 5149              	.LVL418:
 5150              		.loc 1 1472 0
 5151 000c 93ED9A9A 		vldr.32	s18, [r3, #616]
 5152              	.LVL419:
 5153              		.loc 1 1474 0
 5154 0010 93F86022 		ldrb	r2, [r3, #608]	@ zero_extendqisi2
 5155 0014 D2B2     		uxtb	r2, r2
 5156 0016 012A     		cmp	r2, #1
 5157              		.loc 1 1466 0
 5158 0018 0446     		mov	r4, r0
 5159              		.loc 1 1474 0
 5160 001a 6AD0     		beq	.L587
 5161 001c 38D3     		bcc	.L588
 5162 001e 022A     		cmp	r2, #2
 5163 0020 0DD0     		beq	.L589
 5164 0022 9FED490A 		vldr.32	s0, .L597+4
 5165              		.loc 1 1469 0
 5166 0026 F0EE408A 		vmov.f32	s17, s0
 5167              	.LVL420:
 5168              	.L586:
 5169              		.loc 1 1504 0
 5170 002a 68EE898A 		vmul.f32	s17, s17, s18
 5171              	.LVL421:
 5172              		.loc 1 1507 0
 5173 002e 0CB1     		cbz	r4, .L590
 5174              		.loc 1 1508 0
 5175 0030 84ED000A 		vstr.32	s0, [r4]
 5176              	.L590:
 5177              		.loc 1 1512 0
 5178 0034 80EE280A 		vdiv.f32	s0, s0, s17
 5179 0038 BDEC048B 		vldm	sp!, {d8-d9}
 5180              		.cfi_remember_state
 5181              		.cfi_restore 82
 5182              		.cfi_restore 83
 5183              		.cfi_restore 80
 5184              		.cfi_restore 81
 5185              		.cfi_def_cfa_offset 16
 5186              	.LVL422:
 5187 003c 38BD     		pop	{r3, r4, r5, pc}
ARM GAS  /tmp/ccqyMDDx.s 			page 92


 5188              	.LVL423:
 5189              	.L589:
 5190              		.cfi_restore_state
 5191              	.LBB731:
 5192              		.loc 1 1494 0
 5193 003e D3ED997A 		vldr.32	s15, [r3, #612]	@ int
 5194              		.loc 1 1495 0
 5195 0042 D3F86452 		ldr	r5, [r3, #612]
 5196              		.loc 1 1496 0
 5197 0046 93ED990A 		vldr.32	s0, [r3, #612]	@ int
 5198 004a DFED409A 		vldr.32	s19, .L597+8
 5199              		.loc 1 1494 0
 5200 004e DFED408A 		vldr.32	s17, .L597+12
 5201              		.loc 1 1496 0
 5202 0052 93ED9A2A 		vldr.32	s4, [r3, #616]
 5203 0056 DFED3C1A 		vldr.32	s3, .L597+4
 5204 005a 9FED3E1A 		vldr.32	s2, .L597+16
 5205 005e B8EEC00A 		vcvt.f32.s32	s0, s0
 5206              		.loc 1 1494 0
 5207 0062 F8EEE77A 		vcvt.f32.s32	s15, s15
 5208              		.loc 1 1496 0
 5209 0066 88EE000A 		vdiv.f32	s0, s16, s0
 5210 006a F0EE690A 		vmov.f32	s1, s19
 5211              		.loc 1 1494 0
 5212 006e 67EEA88A 		vmul.f32	s17, s15, s17
 5213              	.LVL424:
 5214              		.loc 1 1496 0
 5215 0072 FFF7FEFF 		bl	utils_map
 5216              	.LVL425:
 5217              		.loc 1 1495 0
 5218 0076 07EE905A 		vmov	s15, r5	@ int
 5219 007a F8EEE77A 		vcvt.f32.s32	s15, s15
 5220 007e B6EE007A 		vmov.f32	s14, #5.0e-1
 5221 0082 A7EEA98A 		vfma.f32	s16, s15, s19
 5222              	.LVL426:
 5223 0086 28EE078A 		vmul.f32	s16, s16, s14
 5224              	.LVL427:
 5225 008a 28EE000A 		vmul.f32	s0, s16, s0
 5226              	.LVL428:
 5227              		.loc 1 1498 0
 5228 008e CCE7     		b	.L586
 5229              	.LVL429:
 5230              	.L588:
 5231              		.loc 1 1476 0
 5232 0090 D3ED997A 		vldr.32	s15, [r3, #612]	@ int
 5233              		.loc 1 1477 0
 5234 0094 D3F86452 		ldr	r5, [r3, #612]
 5235              		.loc 1 1478 0
 5236 0098 93ED990A 		vldr.32	s0, [r3, #612]	@ int
 5237 009c DFED2E9A 		vldr.32	s19, .L597+20
 5238              		.loc 1 1476 0
 5239 00a0 DFED2E8A 		vldr.32	s17, .L597+24
 5240              		.loc 1 1478 0
 5241 00a4 DFED281A 		vldr.32	s3, .L597+4
 5242 00a8 9FED2D1A 		vldr.32	s2, .L597+28
 5243 00ac B8EEC00A 		vcvt.f32.s32	s0, s0
 5244              		.loc 1 1476 0
ARM GAS  /tmp/ccqyMDDx.s 			page 93


 5245 00b0 F8EEE77A 		vcvt.f32.s32	s15, s15
 5246              		.loc 1 1478 0
 5247 00b4 88EE000A 		vdiv.f32	s0, s16, s0
 5248 00b8 F0EE690A 		vmov.f32	s1, s19
 5249 00bc B7EE002A 		vmov.f32	s4, #1.0e+0
 5250              		.loc 1 1476 0
 5251 00c0 67EEA88A 		vmul.f32	s17, s15, s17
 5252              	.LVL430:
 5253              		.loc 1 1478 0
 5254 00c4 FFF7FEFF 		bl	utils_map
 5255              	.LVL431:
 5256              		.loc 1 1480 0
 5257 00c8 FFF7FEFF 		bl	utils_batt_liion_norm_v_to_capacity
 5258              	.LVL432:
 5259              		.loc 1 1477 0
 5260 00cc 07EE905A 		vmov	s15, r5	@ int
 5261 00d0 F8EEE77A 		vcvt.f32.s32	s15, s15
 5262              		.loc 1 1481 0
 5263 00d4 9FED237A 		vldr.32	s14, .L597+32
 5264              		.loc 1 1477 0
 5265 00d8 A7EEA98A 		vfma.f32	s16, s15, s19
 5266              	.LVL433:
 5267              		.loc 1 1481 0
 5268 00dc 29EE079A 		vmul.f32	s18, s18, s14
 5269              	.LVL434:
 5270              		.loc 1 1477 0
 5271 00e0 F6EE007A 		vmov.f32	s15, #5.0e-1
 5272 00e4 28EE278A 		vmul.f32	s16, s16, s15
 5273              	.LVL435:
 5274              		.loc 1 1482 0
 5275 00e8 20EE090A 		vmul.f32	s0, s0, s18
 5276              	.LVL436:
 5277 00ec 28EE000A 		vmul.f32	s0, s16, s0
 5278              	.LVL437:
 5279              		.loc 1 1483 0
 5280 00f0 9BE7     		b	.L586
 5281              	.LVL438:
 5282              	.L587:
 5283              		.loc 1 1486 0
 5284 00f2 D3ED997A 		vldr.32	s15, [r3, #612]	@ int
 5285              		.loc 1 1487 0
 5286 00f6 D3F86452 		ldr	r5, [r3, #612]
 5287              		.loc 1 1488 0
 5288 00fa 93ED990A 		vldr.32	s0, [r3, #612]	@ int
 5289              		.loc 1 1486 0
 5290 00fe DFED1A8A 		vldr.32	s17, .L597+36
 5291              		.loc 1 1488 0
 5292 0102 93ED9A2A 		vldr.32	s4, [r3, #616]
 5293 0106 DFED101A 		vldr.32	s3, .L597+4
 5294 010a 9FED181A 		vldr.32	s2, .L597+40
 5295 010e DFED180A 		vldr.32	s1, .L597+44
 5296 0112 B8EEC00A 		vcvt.f32.s32	s0, s0
 5297              		.loc 1 1486 0
 5298 0116 F8EEE77A 		vcvt.f32.s32	s15, s15
 5299              		.loc 1 1488 0
 5300 011a 88EE000A 		vdiv.f32	s0, s16, s0
 5301              		.loc 1 1486 0
ARM GAS  /tmp/ccqyMDDx.s 			page 94


 5302 011e 67EEA88A 		vmul.f32	s17, s15, s17
 5303              	.LVL439:
 5304              		.loc 1 1488 0
 5305 0122 FFF7FEFF 		bl	utils_map
 5306              	.LVL440:
 5307              		.loc 1 1487 0
 5308 0126 07EE905A 		vmov	s15, r5	@ int
 5309 012a 9FED127A 		vldr.32	s14, .L597+48
 5310 012e F8EEE77A 		vcvt.f32.s32	s15, s15
 5311 0132 A7EE878A 		vfma.f32	s16, s15, s14
 5312              	.LVL441:
 5313 0136 F6EE007A 		vmov.f32	s15, #5.0e-1
 5314 013a 28EE278A 		vmul.f32	s16, s16, s15
 5315              	.LVL442:
 5316 013e 28EE000A 		vmul.f32	s0, s16, s0
 5317              	.LVL443:
 5318              		.loc 1 1490 0
 5319 0142 72E7     		b	.L586
 5320              	.L598:
 5321              		.align	2
 5322              	.L597:
 5323 0144 00000000 		.word	.LANCHOR13
 5324 0148 00000000 		.word	0
 5325 014c 66660640 		.word	1074161254
 5326 0150 52B80E40 		.word	1074706514
 5327 0154 3D0A1740 		.word	1075251773
 5328 0158 CDCC4C40 		.word	1078774989
 5329 015c CCCC6C40 		.word	1080872140
 5330 0160 66668640 		.word	1082549862
 5331 0164 9A99593F 		.word	1062836634
 5332 0168 CCCC4C40 		.word	1078774988
 5333 016c 66666640 		.word	1080452710
 5334 0170 66662640 		.word	1076258406
 5335 0174 33333340 		.word	1077097267
 5336              	.LBE731:
 5337              		.cfi_endproc
 5338              	.LFE318:
 5339              		.size	mc_interface_get_battery_level, .-mc_interface_get_battery_level
 5340              		.section	.text.mc_interface_get_speed,"ax",%progbits
 5341              		.align	1
 5342              		.p2align 4,,15
 5343              		.global	mc_interface_get_speed
 5344              		.syntax unified
 5345              		.thumb
 5346              		.thumb_func
 5347              		.fpu fpv4-sp-d16
 5348              		.type	mc_interface_get_speed, %function
 5349              	mc_interface_get_speed:
 5350              	.LFB319:
 5351              		.loc 1 1520 0
 5352              		.cfi_startproc
 5353              		@ args = 0, pretend = 0, frame = 0
 5354              		@ frame_needed = 0, uses_anonymous_args = 0
 5355 0000 08B5     		push	{r3, lr}
 5356              		.cfi_def_cfa_offset 8
 5357              		.cfi_offset 3, -8
 5358              		.cfi_offset 14, -4
ARM GAS  /tmp/ccqyMDDx.s 			page 95


 5359              		.loc 1 1525 0
 5360 0002 FFF7FEFF 		bl	mc_interface_get_rpm
 5361              	.LVL444:
 5362 0006 0D4B     		ldr	r3, .L601
 5363              		.loc 1 1526 0
 5364 0008 DFED0D5A 		vldr.32	s11, .L601+4
 5365              		.loc 1 1525 0
 5366 000c 93F85422 		ldrb	r2, [r3, #596]	@ zero_extendqisi2
 5367              		.loc 1 1526 0
 5368 0010 93ED976A 		vldr.32	s12, [r3, #604]
 5369 0014 DFED0B6A 		vldr.32	s13, .L601+8
 5370 0018 93ED967A 		vldr.32	s14, [r3, #600]
 5371              		.loc 1 1525 0
 5372 001c 07EE902A 		vmov	s15, r2	@ int
 5373              	.LVL445:
 5374 0020 FAEEEF7A 		vcvt.f32.s32	s15, s15, #1
 5375 0024 80EE275A 		vdiv.f32	s10, s0, s15
 5376              		.loc 1 1526 0
 5377 0028 85EE250A 		vdiv.f32	s0, s10, s11
 5378              	.LVL446:
 5379 002c 20EE060A 		vmul.f32	s0, s0, s12
 5380 0030 20EE260A 		vmul.f32	s0, s0, s13
 5381              		.loc 1 1528 0
 5382 0034 80EE070A 		vdiv.f32	s0, s0, s14
 5383 0038 08BD     		pop	{r3, pc}
 5384              	.L602:
 5385 003a 00BF     		.align	2
 5386              	.L601:
 5387 003c 00000000 		.word	.LANCHOR13
 5388 0040 00007042 		.word	1114636288
 5389 0044 DB0F4940 		.word	1078530011
 5390              		.cfi_endproc
 5391              	.LFE319:
 5392              		.size	mc_interface_get_speed, .-mc_interface_get_speed
 5393              		.section	.text.mc_interface_get_distance,"ax",%progbits
 5394              		.align	1
 5395              		.p2align 4,,15
 5396              		.global	mc_interface_get_distance
 5397              		.syntax unified
 5398              		.thumb
 5399              		.thumb_func
 5400              		.fpu fpv4-sp-d16
 5401              		.type	mc_interface_get_distance, %function
 5402              	mc_interface_get_distance:
 5403              	.LFB320:
 5404              		.loc 1 1536 0
 5405              		.cfi_startproc
 5406              		@ args = 0, pretend = 0, frame = 0
 5407              		@ frame_needed = 0, uses_anonymous_args = 0
 5408 0000 08B5     		push	{r3, lr}
 5409              		.cfi_def_cfa_offset 8
 5410              		.cfi_offset 3, -8
 5411              		.cfi_offset 14, -4
 5412 0002 2DED028B 		vpush.64	{d8}
 5413              		.cfi_def_cfa_offset 16
 5414              		.cfi_offset 80, -16
 5415              		.cfi_offset 81, -12
ARM GAS  /tmp/ccqyMDDx.s 			page 96


 5416              		.loc 1 1538 0
 5417 0006 114B     		ldr	r3, .L605
 5418 0008 9FED116A 		vldr.32	s12, .L605+4
 5419 000c 93ED977A 		vldr.32	s14, [r3, #604]
 5420 0010 93F85422 		ldrb	r2, [r3, #596]	@ zero_extendqisi2
 5421 0014 D3ED966A 		vldr.32	s13, [r3, #600]
 5422 0018 07EE902A 		vmov	s15, r2	@ int
 5423 001c F8EEE77A 		vcvt.f32.s32	s15, s15
 5424 0020 F0EE085A 		vmov.f32	s11, #3.0e+0
 5425 0024 67EEA57A 		vmul.f32	s15, s15, s11
 5426 0028 27EE067A 		vmul.f32	s14, s14, s12
 5427 002c 67EEA67A 		vmul.f32	s15, s15, s13
 5428              		.loc 1 1539 0
 5429 0030 0020     		movs	r0, #0
 5430              		.loc 1 1538 0
 5431 0032 87EE278A 		vdiv.f32	s16, s14, s15
 5432              	.LVL447:
 5433              		.loc 1 1539 0
 5434 0036 FFF7FEFF 		bl	mc_interface_get_tachometer_value
 5435              	.LVL448:
 5436 003a 07EE900A 		vmov	s15, r0	@ int
 5437 003e B8EEE70A 		vcvt.f32.s32	s0, s15
 5438              		.loc 1 1540 0
 5439 0042 20EE080A 		vmul.f32	s0, s0, s16
 5440 0046 BDEC028B 		vldm	sp!, {d8}
 5441              		.cfi_restore 80
 5442              		.cfi_restore 81
 5443              		.cfi_def_cfa_offset 8
 5444              	.LVL449:
 5445 004a 08BD     		pop	{r3, pc}
 5446              	.L606:
 5447              		.align	2
 5448              	.L605:
 5449 004c 00000000 		.word	.LANCHOR13
 5450 0050 DB0F4940 		.word	1078530011
 5451              		.cfi_endproc
 5452              	.LFE320:
 5453              		.size	mc_interface_get_distance, .-mc_interface_get_distance
 5454              		.section	.text.mc_interface_get_distance_abs,"ax",%progbits
 5455              		.align	1
 5456              		.p2align 4,,15
 5457              		.global	mc_interface_get_distance_abs
 5458              		.syntax unified
 5459              		.thumb
 5460              		.thumb_func
 5461              		.fpu fpv4-sp-d16
 5462              		.type	mc_interface_get_distance_abs, %function
 5463              	mc_interface_get_distance_abs:
 5464              	.LFB321:
 5465              		.loc 1 1548 0
 5466              		.cfi_startproc
 5467              		@ args = 0, pretend = 0, frame = 0
 5468              		@ frame_needed = 0, uses_anonymous_args = 0
 5469 0000 08B5     		push	{r3, lr}
 5470              		.cfi_def_cfa_offset 8
 5471              		.cfi_offset 3, -8
 5472              		.cfi_offset 14, -4
ARM GAS  /tmp/ccqyMDDx.s 			page 97


 5473 0002 2DED028B 		vpush.64	{d8}
 5474              		.cfi_def_cfa_offset 16
 5475              		.cfi_offset 80, -16
 5476              		.cfi_offset 81, -12
 5477              		.loc 1 1550 0
 5478 0006 114B     		ldr	r3, .L609
 5479 0008 9FED116A 		vldr.32	s12, .L609+4
 5480 000c 93ED977A 		vldr.32	s14, [r3, #604]
 5481 0010 93F85422 		ldrb	r2, [r3, #596]	@ zero_extendqisi2
 5482 0014 D3ED966A 		vldr.32	s13, [r3, #600]
 5483 0018 07EE902A 		vmov	s15, r2	@ int
 5484 001c F8EEE77A 		vcvt.f32.s32	s15, s15
 5485 0020 F0EE085A 		vmov.f32	s11, #3.0e+0
 5486 0024 67EEA57A 		vmul.f32	s15, s15, s11
 5487 0028 27EE067A 		vmul.f32	s14, s14, s12
 5488 002c 67EEA67A 		vmul.f32	s15, s15, s13
 5489              		.loc 1 1551 0
 5490 0030 0020     		movs	r0, #0
 5491              		.loc 1 1550 0
 5492 0032 87EE278A 		vdiv.f32	s16, s14, s15
 5493              	.LVL450:
 5494              		.loc 1 1551 0
 5495 0036 FFF7FEFF 		bl	mc_interface_get_tachometer_abs_value
 5496              	.LVL451:
 5497 003a 07EE900A 		vmov	s15, r0	@ int
 5498 003e B8EEE70A 		vcvt.f32.s32	s0, s15
 5499              		.loc 1 1552 0
 5500 0042 20EE080A 		vmul.f32	s0, s0, s16
 5501 0046 BDEC028B 		vldm	sp!, {d8}
 5502              		.cfi_restore 80
 5503              		.cfi_restore 81
 5504              		.cfi_def_cfa_offset 8
 5505              	.LVL452:
 5506 004a 08BD     		pop	{r3, pc}
 5507              	.L610:
 5508              		.align	2
 5509              	.L609:
 5510 004c 00000000 		.word	.LANCHOR13
 5511 0050 DB0F4940 		.word	1078530011
 5512              		.cfi_endproc
 5513              	.LFE321:
 5514              		.size	mc_interface_get_distance_abs, .-mc_interface_get_distance_abs
 5515              		.global	__aeabi_f2ulz
 5516              		.section	.text.timer_thread,"ax",%progbits
 5517              		.align	1
 5518              		.p2align 4,,15
 5519              		.syntax unified
 5520              		.thumb
 5521              		.thumb_func
 5522              		.fpu fpv4-sp-d16
 5523              		.type	timer_thread, %function
 5524              	timer_thread:
 5525              	.LFB335:
 5526              		.loc 1 2546 0
 5527              		.cfi_startproc
 5528              		@ Volatile: function does not return.
 5529              		@ args = 0, pretend = 0, frame = 72
ARM GAS  /tmp/ccqyMDDx.s 			page 98


 5530              		@ frame_needed = 0, uses_anonymous_args = 0
 5531              	.LVL453:
 5532 0000 2DE98048 		push	{r7, fp, lr}
 5533              		.cfi_def_cfa_offset 12
 5534              		.cfi_offset 7, -12
 5535              		.cfi_offset 11, -8
 5536              		.cfi_offset 14, -4
 5537              	.LBB792:
 5538              	.LBB793:
 5539              		.loc 2 135 0
 5540 0004 DFF800A2 		ldr	r10, .L710+56
 5541 0008 714C     		ldr	r4, .L710
 5542 000a DAF81830 		ldr	r3, [r10, #24]
 5543 000e 714A     		ldr	r2, .L710+4
 5544 0010 714D     		ldr	r5, .L710+8
 5545              	.LBE793:
 5546              	.LBE792:
 5547              	.LBB795:
 5548              	.LBB796:
 5549              		.loc 1 2331 0
 5550 0012 9FED728A 		vldr.32	s16, .L710+12
 5551              	.LBB797:
 5552              		.loc 1 2339 0
 5553 0016 DFF8F4B1 		ldr	fp, .L710+60
 5554              	.LBE797:
 5555              		.loc 1 2438 0
 5556 001a DFED719A 		vldr.32	s19, .L710+16
 5557              		.loc 1 2433 0
 5558 001e 9FED719A 		vldr.32	s18, .L710+20
 5559              		.loc 1 2447 0
 5560 0022 DFED718A 		vldr.32	s17, .L710+24
 5561              		.loc 1 2490 0
 5562 0026 9FED71AA 		vldr.32	s20, .L710+28
 5563              	.LBE796:
 5564              	.LBE795:
 5565              	.LBB849:
 5566              	.LBB794:
 5567              		.loc 2 135 0
 5568 002a 9A61     		str	r2, [r3, #24]
 5569              	.LBE794:
 5570              	.LBE849:
 5571              		.loc 1 2546 0
 5572 002c 93B0     		sub	sp, sp, #76
 5573              		.cfi_def_cfa_offset 88
 5574 002e 04F55A79 		add	r9, r4, #872
 5575 0032 04F55C78 		add	r8, r4, #880
 5576              	.LVL454:
 5577              	.L670:
 5578              	.LBB850:
 5579              	.LBB847:
 5580              		.loc 1 2331 0 discriminator 1
 5581 0036 94EDD87A 		vldr.32	s14, [r4, #864]
 5582 003a D4EDD77A 		vldr.32	s15, [r4, #860]
 5583 003e D4EDD86A 		vldr.32	s13, [r4, #864]
 5584 0042 77EE677A 		vsub.f32	s15, s14, s15
 5585 0046 E7EEC86A 		vfms.f32	s13, s15, s16
 5586 004a C4EDD86A 		vstr.32	s13, [r4, #864]
ARM GAS  /tmp/ccqyMDDx.s 			page 99


 5587              	.LBB800:
 5588              		.loc 1 2335 0 discriminator 1
 5589 004e FFF7FEFF 		bl	mc_interface_get_distance_abs
 5590              	.LVL455:
 5591 0052 10EE100A 		vmov	r0, s0
 5592 0056 FFF7FEFF 		bl	__aeabi_f2ulz
 5593              	.LVL456:
 5594 005a 0646     		mov	r6, r0
 5595 005c 0F46     		mov	r7, r1
 5596              	.LVL457:
 5597              		.loc 1 2336 0 discriminator 1
 5598 005e D9E90001 		ldrd	r0, [r9]
 5599 0062 6B68     		ldr	r3, [r5, #4]	@ unaligned
 5600 0064 0093     		str	r3, [sp]
 5601 0066 AB68     		ldr	r3, [r5, #8]	@ unaligned
 5602 0068 0193     		str	r3, [sp, #4]
 5603 006a DDE90023 		ldrd	r2, [sp]
 5604 006e 121A     		subs	r2, r2, r0
 5605 0070 63EB0103 		sbc	r3, r3, r1
 5606 0074 9019     		adds	r0, r2, r6
 5607 0076 43EB0701 		adc	r1, r3, r7
 5608 007a 6860     		str	r0, [r5, #4]	@ unaligned
 5609 007c A960     		str	r1, [r5, #8]	@ unaligned
 5610              		.loc 1 2337 0 discriminator 1
 5611 007e C9E90067 		strd	r6, [r9]
 5612              	.LBB798:
 5613              	.LBB799:
 5614              		.loc 4 231 0 discriminator 1
 5615 0082 DAF82860 		ldr	r6, [r10, #40]
 5616              	.LVL458:
 5617              	.LBE799:
 5618              	.LBE798:
 5619              		.loc 1 2342 0 discriminator 1
 5620 0086 D8E90023 		ldrd	r2, [r8]
 5621              		.loc 1 2339 0 discriminator 1
 5622 008a ABFB0616 		umull	r1, r6, fp, r6
 5623 008e 0027     		movs	r7, #0
 5624 0090 760B     		lsrs	r6, r6, #13
 5625              	.LVL459:
 5626              		.loc 1 2342 0 discriminator 1
 5627 0092 9F42     		cmp	r7, r3
 5628 0094 08BF     		it	eq
 5629 0096 9642     		cmpeq	r6, r2
 5630 0098 03D2     		bcs	.L612
 5631              		.loc 1 2343 0
 5632 009a 0022     		movs	r2, #0
 5633 009c 0023     		movs	r3, #0
 5634 009e C8E90023 		strd	r2, [r8]
 5635              	.LVL460:
 5636              	.L612:
 5637              		.loc 1 2346 0
 5638 00a2 D8E90001 		ldrd	r0, [r8]
 5639 00a6 2B69     		ldr	r3, [r5, #16]	@ unaligned
 5640 00a8 0093     		str	r3, [sp]
 5641 00aa 6B69     		ldr	r3, [r5, #20]	@ unaligned
 5642 00ac 0193     		str	r3, [sp, #4]
 5643 00ae DDE90023 		ldrd	r2, [sp]
ARM GAS  /tmp/ccqyMDDx.s 			page 100


 5644 00b2 121A     		subs	r2, r2, r0
 5645 00b4 63EB0103 		sbc	r3, r3, r1
 5646 00b8 9019     		adds	r0, r2, r6
 5647 00ba 43EB0701 		adc	r1, r3, r7
 5648 00be 2861     		str	r0, [r5, #16]	@ unaligned
 5649 00c0 6961     		str	r1, [r5, #20]	@ unaligned
 5650              		.loc 1 2347 0
 5651 00c2 C8E90067 		strd	r6, [r8]
 5652              	.LBE800:
 5653              		.loc 1 2350 0
 5654 00c6 FFF7FEFF 		bl	mc_interface_get_sampling_frequency_now
 5655              	.LVL461:
 5656 00ca 84EDD60A 		vstr.32	s0, [r4, #856]
 5657              		.loc 1 2353 0
 5658 00ce D4F8F032 		ldr	r3, [r4, #752]
 5659 00d2 002B     		cmp	r3, #0
 5660 00d4 40F3CE81 		ble	.L613
 5661              		.loc 1 2354 0
 5662 00d8 D4F8F032 		ldr	r3, [r4, #752]
 5663 00dc 013B     		subs	r3, r3, #1
 5664 00de C4F8F032 		str	r3, [r4, #752]
 5665              	.L614:
 5666              		.loc 1 2368 0
 5667 00e2 0023     		movs	r3, #0
 5668 00e4 C4F8F432 		str	r3, [r4, #756]
 5669              		.loc 1 2371 0
 5670 00e8 FFF7FEFF 		bl	update_override_limits.constprop.8
 5671              	.LVL462:
 5672              		.loc 1 2374 0
 5673 00ec 94F84032 		ldrb	r3, [r4, #576]	@ zero_extendqisi2
 5674 00f0 013B     		subs	r3, r3, #1
 5675 00f2 0B2B     		cmp	r3, #11
 5676 00f4 0FD8     		bhi	.L615
 5677 00f6 DFE813F0 		tbh	[pc, r3, lsl #1]
 5678              	.L617:
 5679 00fa 0C00     		.2byte	(.L619-.L617)/2
 5680 00fc 0C00     		.2byte	(.L619-.L617)/2
 5681 00fe 0C00     		.2byte	(.L619-.L617)/2
 5682 0100 0E00     		.2byte	(.L615-.L617)/2
 5683 0102 AC01     		.2byte	(.L620-.L617)/2
 5684 0104 AC01     		.2byte	(.L620-.L617)/2
 5685 0106 A901     		.2byte	(.L623-.L617)/2
 5686 0108 9300     		.2byte	(.L696-.L617)/2
 5687 010a A901     		.2byte	(.L623-.L617)/2
 5688 010c 9300     		.2byte	(.L696-.L617)/2
 5689 010e AF01     		.2byte	(.L625-.L617)/2
 5690 0110 8B00     		.2byte	(.L626-.L617)/2
 5691              		.p2align 1
 5692              	.L619:
 5693              	.LBB801:
 5694              	.LBB802:
 5695              		.loc 4 231 0
 5696 0112 DAF82830 		ldr	r3, [r10, #40]
 5697              	.L615:
 5698              	.LBE802:
 5699              	.LBE801:
 5700              		.loc 1 2445 0
ARM GAS  /tmp/ccqyMDDx.s 			page 101


 5701 0116 94F88630 		ldrb	r3, [r4, #134]	@ zero_extendqisi2
 5702 011a 022B     		cmp	r3, #2
 5703 011c 00F08780 		beq	.L697
 5704              	.LVL463:
 5705              	.L628:
 5706              		.loc 1 2452 0
 5707 0120 94F88630 		ldrb	r3, [r4, #134]	@ zero_extendqisi2
 5708 0124 022B     		cmp	r3, #2
 5709 0126 00F0A580 		beq	.L698
 5710              	.L632:
 5711              		.loc 1 2459 0
 5712 012a 94F88630 		ldrb	r3, [r4, #134]	@ zero_extendqisi2
 5713 012e 022B     		cmp	r3, #2
 5714 0130 00F0C380 		beq	.L699
 5715              	.L636:
 5716              		.loc 1 2469 0
 5717 0134 94F88630 		ldrb	r3, [r4, #134]	@ zero_extendqisi2
 5718 0138 022B     		cmp	r3, #2
 5719 013a 00F0E980 		beq	.L700
 5720              	.L642:
 5721              		.loc 1 2483 0
 5722 013e 94F88630 		ldrb	r3, [r4, #134]	@ zero_extendqisi2
 5723 0142 022B     		cmp	r3, #2
 5724 0144 00F00F81 		beq	.L701
 5725              	.L647:
 5726              		.loc 1 2494 0
 5727 0148 94F88630 		ldrb	r3, [r4, #134]	@ zero_extendqisi2
 5728 014c 022B     		cmp	r3, #2
 5729 014e 00F03D81 		beq	.L702
 5730              	.L654:
 5731              		.loc 1 2526 0
 5732 0152 94F84131 		ldrb	r3, [r4, #321]	@ zero_extendqisi2
 5733 0156 B3BB     		cbnz	r3, .L662
 5734              	.LVL464:
 5735              	.LBB803:
 5736              	.LBB804:
 5737              		.loc 1 1182 0
 5738 0158 94F88630 		ldrb	r3, [r4, #134]	@ zero_extendqisi2
 5739 015c 022B     		cmp	r3, #2
 5740 015e 40F08681 		bne	.L693
 5741              		.loc 1 1188 0
 5742 0162 FFF7FEFF 		bl	mcpwm_foc_get_abs_motor_current_unbalance
 5743              	.LVL465:
 5744              	.L663:
 5745              	.LBE804:
 5746              	.LBE803:
 5747              		.loc 1 2527 0
 5748 0166 84EDD40A 		vstr.32	s0, [r4, #848]
 5749              		.loc 1 2529 0
 5750 016a D4EDD47A 		vldr.32	s15, [r4, #848]
 5751 016e 9FED207A 		vldr.32	s14, .L710+32
 5752 0172 F0EEE77A 		vabs.f32	s15, s15
 5753 0176 F4EEC77A 		vcmpe.f32	s15, s14
 5754 017a F1EE10FA 		vmrs	APSR_nzcv, FPSCR
 5755 017e 40F37D81 		ble	.L694
 5756              		.loc 1 2530 0
 5757 0182 94EDD57A 		vldr.32	s14, [r4, #852]
ARM GAS  /tmp/ccqyMDDx.s 			page 102


 5758 0186 9FED1B6A 		vldr.32	s12, .L710+36
 5759 018a D4EDD56A 		vldr.32	s13, [r4, #852]
 5760 018e F7EE007A 		vmov.f32	s15, #1.0e+0
 5761 0192 77EE677A 		vsub.f32	s15, s14, s15
 5762 0196 E7EEC66A 		vfms.f32	s13, s15, s12
 5763 019a C4EDD56A 		vstr.32	s13, [r4, #852]
 5764              	.L667:
 5765              		.loc 1 2535 0
 5766 019e 94EDD57A 		vldr.32	s14, [r4, #852]
 5767 01a2 DFED157A 		vldr.32	s15, .L710+40
 5768 01a6 B4EEE77A 		vcmpe.f32	s14, s15
 5769 01aa F1EE10FA 		vmrs	APSR_nzcv, FPSCR
 5770 01ae 0ADD     		ble	.L662
 5771              	.LVL466:
 5772              	.LBB806:
 5773              	.LBB807:
 5774              		.loc 1 1713 0
 5775 01b0 1248     		ldr	r0, .L710+44
 5776 01b2 1222     		movs	r2, #18
 5777 01b4 0270     		strb	r2, [r0]
 5778              		.loc 1 1721 0
 5779 01b6 124A     		ldr	r2, .L710+48
 5780 01b8 1068     		ldr	r0, [r2]
 5781              		.loc 1 1714 0
 5782 01ba 124A     		ldr	r2, .L710+52
 5783 01bc 0023     		movs	r3, #0
 5784              		.loc 1 1721 0
 5785 01be 0121     		movs	r1, #1
 5786              		.loc 1 1714 0
 5787 01c0 1370     		strb	r3, [r2]
 5788              		.loc 1 1721 0
 5789 01c2 FFF7FEFF 		bl	chEvtSignal
 5790              	.LVL467:
 5791              	.L662:
 5792              	.LBE807:
 5793              	.LBE806:
 5794              	.LBE847:
 5795              	.LBE850:
 5796              		.loc 1 2557 0 discriminator 1
 5797 01c6 0A20     		movs	r0, #10
 5798 01c8 FFF7FEFF 		bl	chThdSleep
 5799              	.LVL468:
 5800 01cc 33E7     		b	.L670
 5801              	.L711:
 5802 01ce 00BF     		.align	2
 5803              	.L710:
 5804 01d0 00000000 		.word	.LANCHOR13
 5805 01d4 00000000 		.word	.LC8
 5806 01d8 00000000 		.word	g_backup
 5807 01dc 0AD7233C 		.word	1008981770
 5808 01e0 00008C42 		.word	1116471296
 5809 01e4 00004842 		.word	1112014848
 5810 01e8 CDCC4C3D 		.word	1028443341
 5811 01ec 0AD7233D 		.word	1025758986
 5812 01f0 40088443 		.word	1132726336
 5813 01f4 6F12833A 		.word	981668463
 5814 01f8 9A99993E 		.word	1050253722
ARM GAS  /tmp/ccqyMDDx.s 			page 103


 5815 01fc 00000000 		.word	.LANCHOR27
 5816 0200 00000000 		.word	.LANCHOR14
 5817 0204 00000000 		.word	.LANCHOR28
 5818 0208 00000000 		.word	ch
 5819 020c 5917B7D1 		.word	-776530087
 5820              	.LVL469:
 5821              	.L626:
 5822              	.LBB851:
 5823              	.LBB848:
 5824              	.LBB808:
 5825              	.LBB809:
 5826              		.loc 1 1453 0
 5827 0210 D4EDD27A 		vldr.32	s15, [r4, #840]
 5828              	.LBE809:
 5829              	.LBE808:
 5830              		.loc 1 2438 0
 5831 0214 F4EEE97A 		vcmpe.f32	s15, s19
 5832 0218 F1EE10FA 		vmrs	APSR_nzcv, FPSCR
 5833 021c 3FF77BAF 		bgt	.L615
 5834              	.L696:
 5835              	.LBB810:
 5836              	.LBB811:
 5837              		.loc 1 1442 0
 5838 0220 D4F84433 		ldr	r3, [r4, #836]	@ float
 5839              	.L709:
 5840              	.LBE811:
 5841              	.LBE810:
 5842              		.loc 1 2445 0
 5843 0224 94F88630 		ldrb	r3, [r4, #134]	@ zero_extendqisi2
 5844 0228 022B     		cmp	r3, #2
 5845 022a 7FF479AF 		bne	.L628
 5846              	.L697:
 5847              		.loc 1 2446 0
 5848 022e 94F82C61 		ldrb	r6, [r4, #300]	@ zero_extendqisi2
 5849              	.LVL470:
 5850 0232 F6B2     		uxtb	r6, r6
 5851              		.loc 1 2445 0
 5852 0234 012E     		cmp	r6, #1
 5853 0236 7FF473AF 		bne	.L628
 5854              		.loc 1 2447 0
 5855 023a FFF7FEFF 		bl	mcpwm_foc_is_using_encoder
 5856              	.LVL471:
 5857              		.loc 1 2446 0
 5858 023e 0028     		cmp	r0, #0
 5859 0240 3FF46EAF 		beq	.L628
 5860              		.loc 1 2448 0
 5861 0244 FFF7FEFF 		bl	encoder_spi_get_error_rate
 5862              	.LVL472:
 5863              		.loc 1 2447 0
 5864 0248 B4EEE80A 		vcmpe.f32	s0, s17
 5865 024c F1EE10FA 		vmrs	APSR_nzcv, FPSCR
 5866 0250 7FF766AF 		ble	.L628
 5867              	.LVL473:
 5868              	.LBB813:
 5869              	.LBB814:
 5870              		.loc 1 1713 0
 5871 0254 BC48     		ldr	r0, .L712
ARM GAS  /tmp/ccqyMDDx.s 			page 104


 5872 0256 0B22     		movs	r2, #11
 5873 0258 0270     		strb	r2, [r0]
 5874              		.loc 1 1721 0
 5875 025a BC4A     		ldr	r2, .L712+4
 5876 025c 1068     		ldr	r0, [r2]
 5877              		.loc 1 1714 0
 5878 025e BC4A     		ldr	r2, .L712+8
 5879 0260 0023     		movs	r3, #0
 5880              		.loc 1 1721 0
 5881 0262 3146     		mov	r1, r6
 5882              		.loc 1 1714 0
 5883 0264 1370     		strb	r3, [r2]
 5884              		.loc 1 1721 0
 5885 0266 FFF7FEFF 		bl	chEvtSignal
 5886              	.LVL474:
 5887              	.LBE814:
 5888              	.LBE813:
 5889              		.loc 1 2452 0
 5890 026a 94F88630 		ldrb	r3, [r4, #134]	@ zero_extendqisi2
 5891 026e 022B     		cmp	r3, #2
 5892 0270 7FF45BAF 		bne	.L632
 5893              	.LVL475:
 5894              	.L698:
 5895              		.loc 1 2453 0
 5896 0274 94F82C61 		ldrb	r6, [r4, #300]	@ zero_extendqisi2
 5897 0278 F6B2     		uxtb	r6, r6
 5898              		.loc 1 2452 0
 5899 027a 012E     		cmp	r6, #1
 5900 027c 7FF455AF 		bne	.L632
 5901              		.loc 1 2454 0
 5902 0280 FFF7FEFF 		bl	mcpwm_foc_is_using_encoder
 5903              	.LVL476:
 5904              		.loc 1 2453 0
 5905 0284 0028     		cmp	r0, #0
 5906 0286 3FF450AF 		beq	.L632
 5907              		.loc 1 2455 0
 5908 028a FFF7FEFF 		bl	encoder_get_no_magnet_error_rate
 5909              	.LVL477:
 5910              		.loc 1 2454 0
 5911 028e B4EEE80A 		vcmpe.f32	s0, s17
 5912 0292 F1EE10FA 		vmrs	APSR_nzcv, FPSCR
 5913 0296 7FF748AF 		ble	.L632
 5914              	.LVL478:
 5915              	.LBB815:
 5916              	.LBB816:
 5917              		.loc 1 1713 0
 5918 029a AB48     		ldr	r0, .L712
 5919 029c 1922     		movs	r2, #25
 5920 029e 0270     		strb	r2, [r0]
 5921              		.loc 1 1721 0
 5922 02a0 AA4A     		ldr	r2, .L712+4
 5923 02a2 1068     		ldr	r0, [r2]
 5924              		.loc 1 1714 0
 5925 02a4 AA4A     		ldr	r2, .L712+8
 5926 02a6 0023     		movs	r3, #0
 5927              		.loc 1 1721 0
 5928 02a8 3146     		mov	r1, r6
ARM GAS  /tmp/ccqyMDDx.s 			page 105


 5929              		.loc 1 1714 0
 5930 02aa 1370     		strb	r3, [r2]
 5931              		.loc 1 1721 0
 5932 02ac FFF7FEFF 		bl	chEvtSignal
 5933              	.LVL479:
 5934              	.LBE816:
 5935              	.LBE815:
 5936              		.loc 1 2459 0
 5937 02b0 94F88630 		ldrb	r3, [r4, #134]	@ zero_extendqisi2
 5938 02b4 022B     		cmp	r3, #2
 5939 02b6 7FF43DAF 		bne	.L636
 5940              	.LVL480:
 5941              	.L699:
 5942              		.loc 1 2460 0
 5943 02ba 94F82C61 		ldrb	r6, [r4, #300]	@ zero_extendqisi2
 5944 02be F6B2     		uxtb	r6, r6
 5945              		.loc 1 2459 0
 5946 02c0 012E     		cmp	r6, #1
 5947 02c2 7FF437AF 		bne	.L636
 5948              		.loc 1 2461 0
 5949 02c6 94F82832 		ldrb	r3, [r4, #552]	@ zero_extendqisi2
 5950              		.loc 1 2460 0
 5951 02ca 042B     		cmp	r3, #4
 5952 02cc 7FF432AF 		bne	.L636
 5953              		.loc 1 2463 0
 5954 02d0 FFF7FEFF 		bl	encoder_sincos_get_signal_below_min_error_rate
 5955              	.LVL481:
 5956 02d4 B4EEE80A 		vcmpe.f32	s0, s17
 5957 02d8 F1EE10FA 		vmrs	APSR_nzcv, FPSCR
 5958 02dc 00F30481 		bgt	.L703
 5959              	.L638:
 5960              		.loc 1 2465 0
 5961 02e0 FFF7FEFF 		bl	encoder_sincos_get_signal_above_max_error_rate
 5962              	.LVL482:
 5963 02e4 B4EEE80A 		vcmpe.f32	s0, s17
 5964 02e8 F1EE10FA 		vmrs	APSR_nzcv, FPSCR
 5965 02ec 7FF722AF 		ble	.L636
 5966              	.LVL483:
 5967              	.LBB817:
 5968              	.LBB818:
 5969              		.loc 1 1713 0
 5970 02f0 9548     		ldr	r0, .L712
 5971 02f2 0D22     		movs	r2, #13
 5972 02f4 0270     		strb	r2, [r0]
 5973              		.loc 1 1721 0
 5974 02f6 954A     		ldr	r2, .L712+4
 5975 02f8 1068     		ldr	r0, [r2]
 5976              		.loc 1 1714 0
 5977 02fa 954A     		ldr	r2, .L712+8
 5978 02fc 0023     		movs	r3, #0
 5979              		.loc 1 1721 0
 5980 02fe 0121     		movs	r1, #1
 5981              		.loc 1 1714 0
 5982 0300 1370     		strb	r3, [r2]
 5983              		.loc 1 1721 0
 5984 0302 FFF7FEFF 		bl	chEvtSignal
 5985              	.LVL484:
ARM GAS  /tmp/ccqyMDDx.s 			page 106


 5986              	.LBE818:
 5987              	.LBE817:
 5988              		.loc 1 2469 0
 5989 0306 94F88630 		ldrb	r3, [r4, #134]	@ zero_extendqisi2
 5990 030a 022B     		cmp	r3, #2
 5991 030c 7FF417AF 		bne	.L642
 5992              	.LVL485:
 5993              	.L700:
 5994              		.loc 1 2470 0
 5995 0310 94F82C61 		ldrb	r6, [r4, #300]	@ zero_extendqisi2
 5996 0314 F6B2     		uxtb	r6, r6
 5997              		.loc 1 2469 0
 5998 0316 012E     		cmp	r6, #1
 5999 0318 7FF411AF 		bne	.L642
 6000              		.loc 1 2471 0
 6001 031c 94F82832 		ldrb	r3, [r4, #552]	@ zero_extendqisi2
 6002              		.loc 1 2470 0
 6003 0320 022B     		cmp	r3, #2
 6004 0322 7FF40CAF 		bne	.L642
 6005              		.loc 1 2472 0
 6006 0326 06A8     		add	r0, sp, #24
 6007 0328 FFF7FEFF 		bl	encoder_AS504x_get_diag
 6008              	.LVL486:
 6009 032c 9DF81830 		ldrb	r3, [sp, #24]	@ zero_extendqisi2
 6010 0330 002B     		cmp	r3, #0
 6011 0332 00F0E580 		beq	.L704
 6012              	.L644:
 6013              		.loc 1 2476 0
 6014 0336 0AA8     		add	r0, sp, #40
 6015 0338 FFF7FEFF 		bl	encoder_AS504x_get_diag
 6016              	.LVL487:
 6017 033c 9DF82F60 		ldrb	r6, [sp, #47]	@ zero_extendqisi2
 6018 0340 002E     		cmp	r6, #0
 6019 0342 00F0BE80 		beq	.L645
 6020              	.LVL488:
 6021              	.LBB819:
 6022              	.LBB820:
 6023              		.loc 1 1713 0
 6024 0346 8048     		ldr	r0, .L712
 6025 0348 1922     		movs	r2, #25
 6026 034a 0270     		strb	r2, [r0]
 6027              		.loc 1 1721 0
 6028 034c 7F4A     		ldr	r2, .L712+4
 6029 034e 1068     		ldr	r0, [r2]
 6030              		.loc 1 1714 0
 6031 0350 7F4A     		ldr	r2, .L712+8
 6032 0352 0023     		movs	r3, #0
 6033              		.loc 1 1721 0
 6034 0354 0121     		movs	r1, #1
 6035              		.loc 1 1714 0
 6036 0356 1370     		strb	r3, [r2]
 6037              		.loc 1 1721 0
 6038 0358 FFF7FEFF 		bl	chEvtSignal
 6039              	.LVL489:
 6040              	.LBE820:
 6041              	.LBE819:
 6042              		.loc 1 2483 0
ARM GAS  /tmp/ccqyMDDx.s 			page 107


 6043 035c 94F88630 		ldrb	r3, [r4, #134]	@ zero_extendqisi2
 6044 0360 022B     		cmp	r3, #2
 6045 0362 7FF4F1AE 		bne	.L647
 6046              	.LVL490:
 6047              	.L701:
 6048              		.loc 1 2484 0
 6049 0366 94F82C61 		ldrb	r6, [r4, #300]	@ zero_extendqisi2
 6050 036a F6B2     		uxtb	r6, r6
 6051              		.loc 1 2483 0
 6052 036c 012E     		cmp	r6, #1
 6053 036e 7FF4EBAE 		bne	.L647
 6054              		.loc 1 2485 0
 6055 0372 94F82832 		ldrb	r3, [r4, #552]	@ zero_extendqisi2
 6056              		.loc 1 2484 0
 6057 0376 032B     		cmp	r3, #3
 6058 0378 7FF4E6AE 		bne	.L647
 6059              		.loc 1 2486 0
 6060 037c FFF7FEFF 		bl	encoder_resolver_loss_of_tracking_error_rate
 6061              	.LVL491:
 6062 0380 B4EEE80A 		vcmpe.f32	s0, s17
 6063 0384 F1EE10FA 		vmrs	APSR_nzcv, FPSCR
 6064 0388 00F3D180 		bgt	.L705
 6065              	.L649:
 6066              		.loc 1 2488 0
 6067 038c FFF7FEFF 		bl	encoder_resolver_degradation_of_signal_error_rate
 6068              	.LVL492:
 6069 0390 B4EEE80A 		vcmpe.f32	s0, s17
 6070 0394 F1EE10FA 		vmrs	APSR_nzcv, FPSCR
 6071 0398 00F3BD80 		bgt	.L706
 6072              	.L651:
 6073              		.loc 1 2490 0
 6074 039c FFF7FEFF 		bl	encoder_resolver_loss_of_signal_error_rate
 6075              	.LVL493:
 6076 03a0 B4EECA0A 		vcmpe.f32	s0, s20
 6077 03a4 F1EE10FA 		vmrs	APSR_nzcv, FPSCR
 6078 03a8 7FF7CEAE 		ble	.L647
 6079              	.LVL494:
 6080              	.LBB821:
 6081              	.LBB822:
 6082              		.loc 1 1713 0
 6083 03ac 6648     		ldr	r0, .L712
 6084 03ae 1622     		movs	r2, #22
 6085 03b0 0270     		strb	r2, [r0]
 6086              		.loc 1 1721 0
 6087 03b2 664A     		ldr	r2, .L712+4
 6088 03b4 1068     		ldr	r0, [r2]
 6089              		.loc 1 1714 0
 6090 03b6 664A     		ldr	r2, .L712+8
 6091 03b8 0023     		movs	r3, #0
 6092              		.loc 1 1721 0
 6093 03ba 0121     		movs	r1, #1
 6094              		.loc 1 1714 0
 6095 03bc 1370     		strb	r3, [r2]
 6096              		.loc 1 1721 0
 6097 03be FFF7FEFF 		bl	chEvtSignal
 6098              	.LVL495:
 6099              	.LBE822:
ARM GAS  /tmp/ccqyMDDx.s 			page 108


 6100              	.LBE821:
 6101              		.loc 1 2494 0
 6102 03c2 94F88630 		ldrb	r3, [r4, #134]	@ zero_extendqisi2
 6103 03c6 022B     		cmp	r3, #2
 6104 03c8 7FF4C3AE 		bne	.L654
 6105              	.LVL496:
 6106              	.L702:
 6107              	.LBB823:
 6108              		.loc 1 2502 0
 6109 03cc 0023     		movs	r3, #0
 6110 03ce 05AA     		add	r2, sp, #20
 6111 03d0 04A9     		add	r1, sp, #16
 6112 03d2 03A8     		add	r0, sp, #12
 6113 03d4 FFF7FEFF 		bl	mcpwm_foc_get_current_offsets
 6114              	.LVL497:
 6115              		.loc 1 2511 0
 6116 03d8 9DED037A 		vldr.32	s14, [sp, #12]
 6117 03dc DFED5D7A 		vldr.32	s15, .L712+12
 6118 03e0 DFED5D6A 		vldr.32	s13, .L712+16
 6119 03e4 77EE677A 		vsub.f32	s15, s14, s15
 6120 03e8 F0EEE77A 		vabs.f32	s15, s15
 6121 03ec F4EEE67A 		vcmpe.f32	s15, s13
 6122 03f0 F1EE10FA 		vmrs	APSR_nzcv, FPSCR
 6123 03f4 59DC     		bgt	.L707
 6124              	.L655:
 6125              		.loc 1 2514 0
 6126 03f6 9DED047A 		vldr.32	s14, [sp, #16]
 6127 03fa DFED567A 		vldr.32	s15, .L712+12
 6128 03fe DFED566A 		vldr.32	s13, .L712+16
 6129 0402 77EE677A 		vsub.f32	s15, s14, s15
 6130 0406 F0EEE77A 		vabs.f32	s15, s15
 6131 040a F4EEE67A 		vcmpe.f32	s15, s13
 6132 040e F1EE10FA 		vmrs	APSR_nzcv, FPSCR
 6133 0412 3EDC     		bgt	.L708
 6134              	.L657:
 6135              		.loc 1 2518 0
 6136 0414 9DED057A 		vldr.32	s14, [sp, #20]
 6137 0418 DFED4E7A 		vldr.32	s15, .L712+12
 6138 041c DFED4E6A 		vldr.32	s13, .L712+16
 6139 0420 77EE677A 		vsub.f32	s15, s14, s15
 6140 0424 F0EEE77A 		vabs.f32	s15, s15
 6141 0428 F4EEE67A 		vcmpe.f32	s15, s13
 6142 042c F1EE10FA 		vmrs	APSR_nzcv, FPSCR
 6143 0430 7FF78FAE 		ble	.L654
 6144              	.LVL498:
 6145              	.LBB824:
 6146              	.LBB825:
 6147              		.loc 1 1713 0
 6148 0434 4448     		ldr	r0, .L712
 6149 0436 1122     		movs	r2, #17
 6150 0438 0270     		strb	r2, [r0]
 6151              		.loc 1 1721 0
 6152 043a 444A     		ldr	r2, .L712+4
 6153 043c 1068     		ldr	r0, [r2]
 6154              		.loc 1 1714 0
 6155 043e 444A     		ldr	r2, .L712+8
 6156 0440 0023     		movs	r3, #0
ARM GAS  /tmp/ccqyMDDx.s 			page 109


 6157              		.loc 1 1721 0
 6158 0442 0121     		movs	r1, #1
 6159              		.loc 1 1714 0
 6160 0444 1370     		strb	r3, [r2]
 6161              		.loc 1 1721 0
 6162 0446 FFF7FEFF 		bl	chEvtSignal
 6163              	.LVL499:
 6164 044a 82E6     		b	.L654
 6165              	.LVL500:
 6166              	.L623:
 6167              	.LBE825:
 6168              	.LBE824:
 6169              	.LBE823:
 6170              	.LBB830:
 6171              	.LBB831:
 6172              		.loc 1 1453 0
 6173 044c D4F84833 		ldr	r3, [r4, #840]	@ float
 6174 0450 61E6     		b	.L615
 6175              	.L620:
 6176              	.LBE831:
 6177              	.LBE830:
 6178              		.loc 1 2401 0
 6179 0452 FFF7FEFF 		bl	mc_interface_get_state
 6180              	.LVL501:
 6181 0456 5EE6     		b	.L615
 6182              	.L625:
 6183              	.LBB832:
 6184              	.LBB833:
 6185              		.loc 1 1453 0
 6186 0458 D4EDD27A 		vldr.32	s15, [r4, #840]
 6187              	.LBE833:
 6188              	.LBE832:
 6189              		.loc 1 2433 0
 6190 045c F4EEC97A 		vcmpe.f32	s15, s18
 6191 0460 F1EE10FA 		vmrs	APSR_nzcv, FPSCR
 6192 0464 3FF757AE 		bgt	.L615
 6193              	.LBB834:
 6194              	.LBB812:
 6195              		.loc 1 1442 0
 6196 0468 D4F84433 		ldr	r3, [r4, #836]	@ float
 6197 046c DAE6     		b	.L709
 6198              	.LVL502:
 6199              	.L693:
 6200              	.LBE812:
 6201              	.LBE834:
 6202              	.LBB835:
 6203              	.LBB805:
 6204              		.loc 1 1179 0
 6205 046e 9FED3B0A 		vldr.32	s0, .L712+20
 6206 0472 78E6     		b	.L663
 6207              	.LVL503:
 6208              	.L613:
 6209              	.LBE805:
 6210              	.LBE835:
 6211              		.loc 1 2357 0
 6212 0474 0023     		movs	r3, #0
 6213 0476 84F88C32 		strb	r3, [r4, #652]
ARM GAS  /tmp/ccqyMDDx.s 			page 110


 6214 047a 32E6     		b	.L614
 6215              	.LVL504:
 6216              	.L694:
 6217              		.loc 1 2532 0
 6218 047c D4EDD56A 		vldr.32	s13, [r4, #852]
 6219 0480 9FED377A 		vldr.32	s14, .L712+24
 6220 0484 D4EDD57A 		vldr.32	s15, [r4, #852]
 6221 0488 E6EEC77A 		vfms.f32	s15, s13, s14
 6222 048c C4EDD57A 		vstr.32	s15, [r4, #852]
 6223 0490 85E6     		b	.L667
 6224              	.L708:
 6225              	.LVL505:
 6226              	.LBB836:
 6227              	.LBB826:
 6228              	.LBB827:
 6229              		.loc 1 1713 0
 6230 0492 2D48     		ldr	r0, .L712
 6231 0494 1022     		movs	r2, #16
 6232 0496 0270     		strb	r2, [r0]
 6233              		.loc 1 1721 0
 6234 0498 2C4A     		ldr	r2, .L712+4
 6235 049a 1068     		ldr	r0, [r2]
 6236              		.loc 1 1714 0
 6237 049c 2C4A     		ldr	r2, .L712+8
 6238 049e 0023     		movs	r3, #0
 6239              		.loc 1 1721 0
 6240 04a0 0121     		movs	r1, #1
 6241              		.loc 1 1714 0
 6242 04a2 1370     		strb	r3, [r2]
 6243              		.loc 1 1721 0
 6244 04a4 FFF7FEFF 		bl	chEvtSignal
 6245              	.LVL506:
 6246 04a8 B4E7     		b	.L657
 6247              	.LVL507:
 6248              	.L707:
 6249              	.LBE827:
 6250              	.LBE826:
 6251              	.LBB828:
 6252              	.LBB829:
 6253              		.loc 1 1713 0
 6254 04aa 2748     		ldr	r0, .L712
 6255 04ac 0F22     		movs	r2, #15
 6256 04ae 0270     		strb	r2, [r0]
 6257              		.loc 1 1721 0
 6258 04b0 264A     		ldr	r2, .L712+4
 6259 04b2 1068     		ldr	r0, [r2]
 6260              		.loc 1 1714 0
 6261 04b4 264A     		ldr	r2, .L712+8
 6262 04b6 0023     		movs	r3, #0
 6263              		.loc 1 1721 0
 6264 04b8 0121     		movs	r1, #1
 6265              		.loc 1 1714 0
 6266 04ba 1370     		strb	r3, [r2]
 6267              		.loc 1 1721 0
 6268 04bc FFF7FEFF 		bl	chEvtSignal
 6269              	.LVL508:
 6270 04c0 99E7     		b	.L655
ARM GAS  /tmp/ccqyMDDx.s 			page 111


 6271              	.LVL509:
 6272              	.L645:
 6273              	.LBE829:
 6274              	.LBE828:
 6275              	.LBE836:
 6276              		.loc 1 2478 0
 6277 04c2 0EA8     		add	r0, sp, #56
 6278 04c4 FFF7FEFF 		bl	encoder_AS504x_get_diag
 6279              	.LVL510:
 6280 04c8 9DF83E30 		ldrb	r3, [sp, #62]	@ zero_extendqisi2
 6281 04cc 002B     		cmp	r3, #0
 6282 04ce 3FF436AE 		beq	.L642
 6283              	.LVL511:
 6284              	.LBB837:
 6285              	.LBB838:
 6286              		.loc 1 1713 0
 6287 04d2 1D4A     		ldr	r2, .L712
 6288 04d4 1A23     		movs	r3, #26
 6289 04d6 1370     		strb	r3, [r2]
 6290              		.loc 1 1721 0
 6291 04d8 1C4B     		ldr	r3, .L712+4
 6292 04da 1868     		ldr	r0, [r3]
 6293              		.loc 1 1714 0
 6294 04dc 1C4B     		ldr	r3, .L712+8
 6295              		.loc 1 1721 0
 6296 04de 0121     		movs	r1, #1
 6297              		.loc 1 1714 0
 6298 04e0 1E70     		strb	r6, [r3]
 6299              		.loc 1 1721 0
 6300 04e2 FFF7FEFF 		bl	chEvtSignal
 6301              	.LVL512:
 6302 04e6 2AE6     		b	.L642
 6303              	.LVL513:
 6304              	.L703:
 6305              	.LBE838:
 6306              	.LBE837:
 6307              	.LBB839:
 6308              	.LBB840:
 6309              		.loc 1 1713 0
 6310 04e8 1748     		ldr	r0, .L712
 6311 04ea 0C22     		movs	r2, #12
 6312 04ec 0270     		strb	r2, [r0]
 6313              		.loc 1 1721 0
 6314 04ee 174A     		ldr	r2, .L712+4
 6315 04f0 1068     		ldr	r0, [r2]
 6316              		.loc 1 1714 0
 6317 04f2 174A     		ldr	r2, .L712+8
 6318 04f4 0023     		movs	r3, #0
 6319              		.loc 1 1721 0
 6320 04f6 3146     		mov	r1, r6
 6321              		.loc 1 1714 0
 6322 04f8 1370     		strb	r3, [r2]
 6323              		.loc 1 1721 0
 6324 04fa FFF7FEFF 		bl	chEvtSignal
 6325              	.LVL514:
 6326 04fe EFE6     		b	.L638
 6327              	.LVL515:
ARM GAS  /tmp/ccqyMDDx.s 			page 112


 6328              	.L704:
 6329              	.LBE840:
 6330              	.LBE839:
 6331              	.LBB841:
 6332              	.LBB842:
 6333 0500 3146     		mov	r1, r6
 6334              		.loc 1 1713 0
 6335 0502 114E     		ldr	r6, .L712
 6336              		.loc 1 1721 0
 6337 0504 1148     		ldr	r0, .L712+4
 6338              		.loc 1 1713 0
 6339 0506 0B22     		movs	r2, #11
 6340 0508 3270     		strb	r2, [r6]
 6341              		.loc 1 1714 0
 6342 050a 114A     		ldr	r2, .L712+8
 6343              		.loc 1 1721 0
 6344 050c 0068     		ldr	r0, [r0]
 6345              		.loc 1 1714 0
 6346 050e 1370     		strb	r3, [r2]
 6347              		.loc 1 1721 0
 6348 0510 FFF7FEFF 		bl	chEvtSignal
 6349              	.LVL516:
 6350 0514 0FE7     		b	.L644
 6351              	.LVL517:
 6352              	.L706:
 6353              	.LBE842:
 6354              	.LBE841:
 6355              	.LBB843:
 6356              	.LBB844:
 6357              		.loc 1 1713 0
 6358 0516 0C48     		ldr	r0, .L712
 6359 0518 1522     		movs	r2, #21
 6360 051a 0270     		strb	r2, [r0]
 6361              		.loc 1 1721 0
 6362 051c 0B4A     		ldr	r2, .L712+4
 6363 051e 1068     		ldr	r0, [r2]
 6364              		.loc 1 1714 0
 6365 0520 0B4A     		ldr	r2, .L712+8
 6366 0522 0023     		movs	r3, #0
 6367              		.loc 1 1721 0
 6368 0524 0121     		movs	r1, #1
 6369              		.loc 1 1714 0
 6370 0526 1370     		strb	r3, [r2]
 6371              		.loc 1 1721 0
 6372 0528 FFF7FEFF 		bl	chEvtSignal
 6373              	.LVL518:
 6374 052c 36E7     		b	.L651
 6375              	.LVL519:
 6376              	.L705:
 6377              	.LBE844:
 6378              	.LBE843:
 6379              	.LBB845:
 6380              	.LBB846:
 6381              		.loc 1 1713 0
 6382 052e 0648     		ldr	r0, .L712
 6383 0530 1422     		movs	r2, #20
 6384 0532 0270     		strb	r2, [r0]
ARM GAS  /tmp/ccqyMDDx.s 			page 113


 6385              		.loc 1 1721 0
 6386 0534 054A     		ldr	r2, .L712+4
 6387 0536 1068     		ldr	r0, [r2]
 6388              		.loc 1 1714 0
 6389 0538 054A     		ldr	r2, .L712+8
 6390 053a 0023     		movs	r3, #0
 6391              		.loc 1 1721 0
 6392 053c 3146     		mov	r1, r6
 6393              		.loc 1 1714 0
 6394 053e 1370     		strb	r3, [r2]
 6395              		.loc 1 1721 0
 6396 0540 FFF7FEFF 		bl	chEvtSignal
 6397              	.LVL520:
 6398 0544 22E7     		b	.L649
 6399              	.L713:
 6400 0546 00BF     		.align	2
 6401              	.L712:
 6402 0548 00000000 		.word	.LANCHOR27
 6403 054c 00000000 		.word	.LANCHOR14
 6404 0550 00000000 		.word	.LANCHOR28
 6405 0554 00000045 		.word	1157627904
 6406 0558 00001B44 		.word	1142620160
 6407 055c 00000000 		.word	0
 6408 0560 6F12833A 		.word	981668463
 6409              	.LBE846:
 6410              	.LBE845:
 6411              	.LBE848:
 6412              	.LBE851:
 6413              		.cfi_endproc
 6414              	.LFE335:
 6415              		.size	timer_thread, .-timer_thread
 6416              		.section	.text.mc_interface_get_setup_values,"ax",%progbits
 6417              		.align	1
 6418              		.p2align 4,,15
 6419              		.global	mc_interface_get_setup_values
 6420              		.syntax unified
 6421              		.thumb
 6422              		.thumb_func
 6423              		.fpu fpv4-sp-d16
 6424              		.type	mc_interface_get_setup_values, %function
 6425              	mc_interface_get_setup_values:
 6426              	.LFB322:
 6427              		.loc 1 1554 0
 6428              		.cfi_startproc
 6429              		@ args = 0, pretend = 0, frame = 0
 6430              		@ frame_needed = 0, uses_anonymous_args = 0
 6431              	.LVL521:
 6432 0000 F8B5     		push	{r3, r4, r5, r6, r7, lr}
 6433              		.cfi_def_cfa_offset 24
 6434              		.cfi_offset 3, -24
 6435              		.cfi_offset 4, -20
 6436              		.cfi_offset 5, -16
 6437              		.cfi_offset 6, -12
 6438              		.cfi_offset 7, -8
 6439              		.cfi_offset 14, -4
 6440              	.LBB852:
 6441              	.LBB853:
ARM GAS  /tmp/ccqyMDDx.s 			page 114


 6442              		.loc 1 988 0
 6443 0002 574B     		ldr	r3, .L730
 6444 0004 DFED577A 		vldr.32	s15, .L730+4
 6445 0008 D3EDCC5A 		vldr.32	s11, [r3, #816]
 6446              	.LBE853:
 6447              	.LBE852:
 6448              	.LBB855:
 6449              	.LBB856:
 6450              		.loc 1 1007 0
