ARM GAS  /tmp/ccMYeDWX.s 			page 1


   1              		.cpu cortex-m4
   2              		.eabi_attribute 27, 1
   3              		.eabi_attribute 28, 1
   4              		.eabi_attribute 20, 1
   5              		.eabi_attribute 21, 1
   6              		.eabi_attribute 23, 3
   7              		.eabi_attribute 24, 1
   8              		.eabi_attribute 25, 1
   9              		.eabi_attribute 26, 1
  10              		.eabi_attribute 30, 2
  11              		.eabi_attribute 34, 1
  12              		.eabi_attribute 18, 4
  13              		.file	"mcpwm_foc.c"
  14              		.text
  15              	.Ltext0:
  16              		.cfi_sections	.debug_frame
  17              		.section	.text.svm,"ax",%progbits
  18              		.align	1
  19              		.p2align 4,,15
  20              		.syntax unified
  21              		.thumb
  22              		.thumb_func
  23              		.fpu fpv4-sp-d16
  24              		.type	svm, %function
  25              	svm:
  26              	.LFB349:
  27              		.file 1 "mcpwm_foc.c"
  28              		.loc 1 4218 0
  29              		.cfi_startproc
  30              		@ args = 4, pretend = 0, frame = 0
  31              		@ frame_needed = 0, uses_anonymous_args = 0
  32              	.LVL0:
  33              		.loc 1 4221 0
  34 0000 F5EEC00A 		vcmpe.f32	s1, #0
  35 0004 9FED687A 		vldr.32	s14, .L26
  36 0008 07EE900A 		vmov	s15, r0	@ int
  37 000c F1EE10FA 		vmrs	APSR_nzcv, FPSCR
  38              		.loc 1 4218 0
  39 0010 F0B5     		push	{r4, r5, r6, r7, lr}
  40              		.cfi_def_cfa_offset 20
  41              		.cfi_offset 4, -20
  42              		.cfi_offset 5, -16
  43              		.cfi_offset 6, -12
  44              		.cfi_offset 7, -8
  45              		.cfi_offset 14, -4
  46 0012 20EE877A 		vmul.f32	s14, s1, s14
  47 0016 F8EE676A 		vcvt.f32.u32	s13, s15
  48              		.loc 1 4222 0
  49 001a B5EEC00A 		vcmpe.f32	s0, #0
  50              		.loc 1 4221 0
  51 001e 60DB     		blt	.L19
  52              		.loc 1 4222 0
  53 0020 F1EE10FA 		vmrs	APSR_nzcv, FPSCR
  54 0024 22DB     		blt	.L20
  55              		.loc 1 4224 0
  56 0026 B4EEC70A 		vcmpe.f32	s0, s14
  57 002a F1EE10FA 		vmrs	APSR_nzcv, FPSCR
ARM GAS  /tmp/ccMYeDWX.s 			page 2


  58 002e 41D4     		bmi	.L6
  59              	.LVL1:
  60              	.LBB463:
  61              		.loc 1 4264 0
  62 0030 DFED5E7A 		vldr.32	s15, .L26+4
  63 0034 60EEA70A 		vmul.f32	s1, s1, s15
  64              	.LVL2:
  65              		.loc 1 4263 0
  66 0038 30EE470A 		vsub.f32	s0, s0, s14
  67              	.LVL3:
  68              		.loc 1 4264 0
  69 003c 60EEA60A 		vmul.f32	s1, s1, s13
  70              		.loc 1 4263 0
  71 0040 20EE260A 		vmul.f32	s0, s0, s13
  72              		.loc 1 4264 0
  73 0044 FCEEE07A 		vcvt.u32.f32	s15, s1
  74              	.LBE463:
  75              		.loc 1 4227 0
  76 0048 0125     		movs	r5, #1
  77              	.LBB464:
  78              		.loc 1 4264 0
  79 004a 17EE907A 		vmov	r7, s15	@ int
  80              		.loc 1 4263 0
  81 004e FCEEC07A 		vcvt.u32.f32	s15, s0
  82              		.loc 1 4267 0
  83 0052 3844     		add	r0, r0, r7
  84              	.LVL4:
  85              		.loc 1 4263 0
  86 0054 17EE904A 		vmov	r4, s15	@ int
  87              	.LVL5:
  88              		.loc 1 4267 0
  89 0058 0619     		adds	r6, r0, r4
  90 005a 7608     		lsrs	r6, r6, #1
  91              	.LVL6:
  92              		.loc 1 4268 0
  93 005c 301B     		subs	r0, r6, r4
  94              	.LVL7:
  95              		.loc 1 4269 0
  96 005e C71B     		subs	r7, r0, r7
  97              	.LVL8:
  98              	.L7:
  99              	.LBE464:
 100              		.loc 1 4345 0
 101 0060 0E60     		str	r6, [r1]
 102              		.loc 1 4346 0
 103 0062 1060     		str	r0, [r2]
 104              		.loc 1 4347 0
 105 0064 1F60     		str	r7, [r3]
 106              		.loc 1 4348 0
 107 0066 059B     		ldr	r3, [sp, #20]
 108              	.LVL9:
 109 0068 1D60     		str	r5, [r3]
 110              		.loc 1 4349 0
 111 006a F0BD     		pop	{r4, r5, r6, r7, pc}
 112              	.LVL10:
 113              	.L20:
 114              		.loc 1 4231 0
ARM GAS  /tmp/ccMYeDWX.s 			page 3


 115 006c DFED507A 		vldr.32	s15, .L26+8
 116 0070 60EEA77A 		vmul.f32	s15, s1, s15
 117 0074 F4EEC07A 		vcmpe.f32	s15, s0
 118 0078 F1EE10FA 		vmrs	APSR_nzcv, FPSCR
 119 007c 1ADD     		ble	.L6
 120              	.LVL11:
 121              	.LBB465:
 122              		.loc 1 4291 0
 123 007e 9FED4B6A 		vldr.32	s12, .L26+4
 124 0082 60EE860A 		vmul.f32	s1, s1, s12
 125              	.LVL12:
 126              		.loc 1 4292 0
 127 0086 F1EE407A 		vneg.f32	s15, s0
 128 008a 37EEC70A 		vsub.f32	s0, s15, s14
 129              	.LVL13:
 130              		.loc 1 4291 0
 131 008e 60EEA60A 		vmul.f32	s1, s1, s13
 132              		.loc 1 4292 0
 133 0092 20EE260A 		vmul.f32	s0, s0, s13
 134              		.loc 1 4291 0
 135 0096 FCEEE07A 		vcvt.u32.f32	s15, s1
 136              	.LBE465:
 137              		.loc 1 4232 0
 138 009a 0325     		movs	r5, #3
 139              	.LBB466:
 140              		.loc 1 4291 0
 141 009c 17EE907A 		vmov	r7, s15	@ int
 142              	.LVL14:
 143              		.loc 1 4292 0
 144 00a0 FCEEC07A 		vcvt.u32.f32	s15, s0
 145              		.loc 1 4295 0
 146 00a4 3844     		add	r0, r0, r7
 147              	.LVL15:
 148              		.loc 1 4292 0
 149 00a6 17EE906A 		vmov	r6, s15	@ int
 150              	.LVL16:
 151              		.loc 1 4295 0
 152 00aa 3044     		add	r0, r0, r6
 153 00ac 4008     		lsrs	r0, r0, #1
 154              	.LVL17:
 155              		.loc 1 4296 0
 156 00ae C71B     		subs	r7, r0, r7
 157              	.LVL18:
 158              		.loc 1 4297 0
 159 00b0 BE1B     		subs	r6, r7, r6
 160              	.LVL19:
 161              		.loc 1 4299 0
 162 00b2 D5E7     		b	.L7
 163              	.LVL20:
 164              	.L6:
 165              	.LBE466:
 166              	.LBB467:
 167              		.loc 1 4277 0
 168 00b4 70EE077A 		vadd.f32	s15, s0, s14
 169              		.loc 1 4278 0
 170 00b8 37EE400A 		vsub.f32	s0, s14, s0
 171              	.LVL21:
ARM GAS  /tmp/ccMYeDWX.s 			page 4


 172              		.loc 1 4277 0
 173 00bc 67EEA67A 		vmul.f32	s15, s15, s13
 174              		.loc 1 4278 0
 175 00c0 20EE260A 		vmul.f32	s0, s0, s13
 176              		.loc 1 4277 0
 177 00c4 FCEEE77A 		vcvt.u32.f32	s15, s15
 178              		.loc 1 4285 0
 179 00c8 0225     		movs	r5, #2
 180              		.loc 1 4277 0
 181 00ca 17EE907A 		vmov	r7, s15	@ int
 182              	.LVL22:
 183              		.loc 1 4278 0
 184 00ce FCEEC07A 		vcvt.u32.f32	s15, s0
 185 00d2 17EE906A 		vmov	r6, s15	@ int
 186              	.LVL23:
 187              		.loc 1 4281 0
 188 00d6 BC19     		adds	r4, r7, r6
 189 00d8 2044     		add	r0, r0, r4
 190              	.LVL24:
 191 00da 4008     		lsrs	r0, r0, #1
 192              	.LVL25:
 193              		.loc 1 4282 0
 194 00dc 861B     		subs	r6, r0, r6
 195              	.LVL26:
 196              		.loc 1 4283 0
 197 00de F71B     		subs	r7, r6, r7
 198              	.LVL27:
 199              		.loc 1 4285 0
 200 00e0 BEE7     		b	.L7
 201              	.LVL28:
 202              	.L19:
 203              	.LBE467:
 204              		.loc 1 4238 0
 205 00e2 F1EE10FA 		vmrs	APSR_nzcv, FPSCR
 206 00e6 3EDB     		blt	.L21
 207              		.loc 1 4240 0
 208 00e8 DFED317A 		vldr.32	s15, .L26+8
 209 00ec 60EEA77A 		vmul.f32	s15, s1, s15
 210 00f0 F4EEC07A 		vcmpe.f32	s15, s0
 211 00f4 F1EE10FA 		vmrs	APSR_nzcv, FPSCR
 212 00f8 1ADD     		ble	.L25
 213              	.L11:
 214              	.LBB468:
 215              		.loc 1 4319 0
 216 00fa F1EE407A 		vneg.f32	s15, s0
 217 00fe 77EEC77A 		vsub.f32	s15, s15, s14
 218              		.loc 1 4320 0
 219 0102 30EE470A 		vsub.f32	s0, s0, s14
 220              	.LVL29:
 221              		.loc 1 4319 0
 222 0106 67EEA67A 		vmul.f32	s15, s15, s13
 223              		.loc 1 4320 0
 224 010a 20EE260A 		vmul.f32	s0, s0, s13
 225              		.loc 1 4319 0
 226 010e FCEEE77A 		vcvt.u32.f32	s15, s15
 227              		.loc 1 4327 0
 228 0112 0525     		movs	r5, #5
ARM GAS  /tmp/ccMYeDWX.s 			page 5


 229              		.loc 1 4319 0
 230 0114 17EE90EA 		vmov	lr, s15	@ int
 231              	.LVL30:
 232              		.loc 1 4320 0
 233 0118 FCEEC07A 		vcvt.u32.f32	s15, s0
 234 011c 17EE904A 		vmov	r4, s15	@ int
 235              	.LVL31:
 236              		.loc 1 4323 0
 237 0120 0EEB0406 		add	r6, lr, r4
 238 0124 3044     		add	r0, r0, r6
 239              	.LVL32:
 240 0126 4708     		lsrs	r7, r0, #1
 241              	.LVL33:
 242              		.loc 1 4324 0
 243 0128 A7EB0E06 		sub	r6, r7, lr
 244              	.LVL34:
 245              		.loc 1 4325 0
 246 012c 301B     		subs	r0, r6, r4
 247              	.LVL35:
 248              		.loc 1 4327 0
 249 012e 97E7     		b	.L7
 250              	.LVL36:
 251              	.L25:
 252              	.LBE468:
 253              	.LBB469:
 254              		.loc 1 4333 0
 255 0130 DFED207A 		vldr.32	s15, .L26+12
 256 0134 60EEA70A 		vmul.f32	s1, s1, s15
 257              	.LVL37:
 258              		.loc 1 4334 0
 259 0138 30EE070A 		vadd.f32	s0, s0, s14
 260              	.LVL38:
 261              		.loc 1 4333 0
 262 013c 60EEA60A 		vmul.f32	s1, s1, s13
 263              		.loc 1 4334 0
 264 0140 20EE260A 		vmul.f32	s0, s0, s13
 265              		.loc 1 4333 0
 266 0144 FCEEE07A 		vcvt.u32.f32	s15, s1
 267              	.LBE469:
 268              		.loc 1 4243 0
 269 0148 0625     		movs	r5, #6
 270              	.LBB470:
 271              		.loc 1 4333 0
 272 014a 17EE90CA 		vmov	ip, s15	@ int
 273              	.LVL39:
 274              		.loc 1 4334 0
 275 014e FCEEC07A 		vcvt.u32.f32	s15, s0
 276              		.loc 1 4337 0
 277 0152 00EB0C06 		add	r6, r0, ip
 278              		.loc 1 4334 0
 279 0156 17EE907A 		vmov	r7, s15	@ int
 280              	.LVL40:
 281              		.loc 1 4337 0
 282 015a 3E44     		add	r6, r6, r7
 283 015c 7608     		lsrs	r6, r6, #1
 284              	.LVL41:
 285              		.loc 1 4338 0
ARM GAS  /tmp/ccMYeDWX.s 			page 6


 286 015e F71B     		subs	r7, r6, r7
 287              	.LVL42:
 288              		.loc 1 4339 0
 289 0160 A7EB0C00 		sub	r0, r7, ip
 290              	.LVL43:
 291              		.loc 1 4341 0
 292 0164 7CE7     		b	.L7
 293              	.LVL44:
 294              	.L21:
 295              	.LBE470:
 296              		.loc 1 4247 0
 297 0166 B4EEC70A 		vcmpe.f32	s0, s14
 298 016a F1EE10FA 		vmrs	APSR_nzcv, FPSCR
 299 016e C4D5     		bpl	.L11
 300              	.LVL45:
 301              	.LBB471:
 302              		.loc 1 4306 0
 303 0170 DFED107A 		vldr.32	s15, .L26+12
 304 0174 60EEA70A 		vmul.f32	s1, s1, s15
 305              	.LVL46:
 306              		.loc 1 4305 0
 307 0178 37EE400A 		vsub.f32	s0, s14, s0
 308              	.LVL47:
 309              		.loc 1 4306 0
 310 017c 60EEA60A 		vmul.f32	s1, s1, s13
 311              		.loc 1 4305 0
 312 0180 20EE260A 		vmul.f32	s0, s0, s13
 313              		.loc 1 4306 0
 314 0184 FCEEE07A 		vcvt.u32.f32	s15, s1
 315              	.LBE471:
 316              		.loc 1 4248 0
 317 0188 0425     		movs	r5, #4
 318              	.LBB472:
 319              		.loc 1 4306 0
 320 018a 17EE906A 		vmov	r6, s15	@ int
 321              		.loc 1 4305 0
 322 018e FCEEC07A 		vcvt.u32.f32	s15, s0
 323              		.loc 1 4309 0
 324 0192 3044     		add	r0, r0, r6
 325              	.LVL48:
 326              		.loc 1 4305 0
 327 0194 17EE90CA 		vmov	ip, s15	@ int
 328              	.LVL49:
 329              		.loc 1 4309 0
 330 0198 00EB0C04 		add	r4, r0, ip
 331 019c 6708     		lsrs	r7, r4, #1
 332              	.LVL50:
 333              		.loc 1 4310 0
 334 019e B81B     		subs	r0, r7, r6
 335              	.LVL51:
 336              		.loc 1 4311 0
 337 01a0 A0EB0C06 		sub	r6, r0, ip
 338              	.LVL52:
 339              		.loc 1 4313 0
 340 01a4 5CE7     		b	.L7
 341              	.L27:
 342 01a6 00BF     		.align	2
ARM GAS  /tmp/ccMYeDWX.s 			page 7


 343              	.L26:
 344 01a8 3ACD133F 		.word	1058262330
 345 01ac 3ACD933F 		.word	1066650938
 346 01b0 3ACD13BF 		.word	3205745978
 347 01b4 3ACD93BF 		.word	3214134586
 348              	.LBE472:
 349              		.cfi_endproc
 350              	.LFE349:
 351              		.size	svm, .-svm
 352              		.global	__aeabi_f2d
 353              		.section	.text.terminal_tmp,"ax",%progbits
 354              		.align	1
 355              		.p2align 4,,15
 356              		.syntax unified
 357              		.thumb
 358              		.thumb_func
 359              		.fpu fpv4-sp-d16
 360              		.type	terminal_tmp, %function
 361              	terminal_tmp:
 362              	.LFB339:
 363              		.loc 1 3420 0
 364              		.cfi_startproc
 365              		@ args = 0, pretend = 0, frame = 8
 366              		@ frame_needed = 0, uses_anonymous_args = 0
 367              	.LVL53:
 368 0000 2DE9F043 		push	{r4, r5, r6, r7, r8, r9, lr}
 369              		.cfi_def_cfa_offset 28
 370              		.cfi_offset 4, -28
 371              		.cfi_offset 5, -24
 372              		.cfi_offset 6, -20
 373              		.cfi_offset 7, -16
 374              		.cfi_offset 8, -12
 375              		.cfi_offset 9, -8
 376              		.cfi_offset 14, -4
 377 0004 2DED088B 		vpush.64	{d8, d9, d10, d11}
 378              		.cfi_def_cfa_offset 60
 379              		.cfi_offset 80, -60
 380              		.cfi_offset 81, -56
 381              		.cfi_offset 82, -52
 382              		.cfi_offset 83, -48
 383              		.cfi_offset 84, -44
 384              		.cfi_offset 85, -40
 385              		.cfi_offset 86, -36
 386              		.cfi_offset 87, -32
 387              		.loc 1 3425 0
 388 0008 0228     		cmp	r0, #2
 389              		.loc 1 3420 0
 390 000a 85B0     		sub	sp, sp, #20
 391              		.cfi_def_cfa_offset 80
 392              		.loc 1 3425 0
 393 000c 00F09C80 		beq	.L38
 394              	.LVL54:
 395              	.L35:
 396              		.loc 1 3424 0
 397 0010 0126     		movs	r6, #1
 398              	.LVL55:
 399              	.L29:
ARM GAS  /tmp/ccMYeDWX.s 			page 8


 400 0012 604C     		ldr	r4, .L41
 401              	.LBB473:
 402              	.LBB474:
 403              		.loc 1 3444 0
 404 0014 DFED60AA 		vldr.32	s21, .L41+4
 405              		.loc 1 3452 0
 406 0018 604F     		ldr	r7, .L41+8
 407              		.loc 1 3456 0
 408 001a 9FED61BA 		vldr.32	s22, .L41+12
 409              	.LBE474:
 410              	.LBE473:
 411              		.loc 1 3424 0
 412 001e 0025     		movs	r5, #0
 413              	.L34:
 414              	.LVL56:
 415              	.LBB478:
 416              	.LBB475:
 417              		.loc 1 3441 0
 418 0020 D4EDC28A 		vldr.32	s17, [r4, #776]
 419              	.LVL57:
 420              		.loc 1 3442 0
 421 0024 2368     		ldr	r3, [r4]
 422 0026 93ED537A 		vldr.32	s14, [r3, #332]
 423              	.LVL58:
 424              		.loc 1 3443 0
 425 002a 2368     		ldr	r3, [r4]
 426 002c 93ED3A9A 		vldr.32	s18, [r3, #232]
 427              	.LVL59:
 428              		.loc 1 3444 0
 429 0030 C8EE897A 		vdiv.f32	s15, s17, s18
 430 0034 F7EE006A 		vmov.f32	s13, #1.0e+0
 431 0038 77EEE67A 		vsub.f32	s15, s15, s13
 432 003c 87EEAA8A 		vdiv.f32	s16, s15, s21
 433 0040 38EE078A 		vadd.f32	s16, s16, s14
 434              	.LVL60:
 435              		.loc 1 3445 0
 436 0044 FFF7FEFF 		bl	mc_interface_temp_motor_filtered
 437              	.LVL61:
 438              		.loc 1 3447 0
 439 0048 012E     		cmp	r6, #1
 440              		.loc 1 3445 0
 441 004a F0EE409A 		vmov.f32	s19, s0
 442              	.LVL62:
 443              		.loc 1 3448 0
 444 004e 4FF00000 		mov	r0, #0
 445              		.loc 1 3447 0
 446 0052 30D1     		bne	.L39
 447              		.loc 1 3456 0
 448 0054 9FED52AA 		vldr.32	s20, .L41+12
 449              		.loc 1 3455 0
 450 0058 69EE0A7A 		vmul.f32	s15, s18, s20
 451 005c 17EE900A 		vmov	r0, s15
 452 0060 FFF7FEFF 		bl	__aeabi_f2d
 453              	.LVL63:
 454 0064 68EE8A7A 		vmul.f32	s15, s17, s20
 455 0068 0446     		mov	r4, r0
 456 006a 17EE900A 		vmov	r0, s15
ARM GAS  /tmp/ccMYeDWX.s 			page 9


 457 006e 0D46     		mov	r5, r1
 458 0070 FFF7FEFF 		bl	__aeabi_f2d
 459              	.LVL64:
 460 0074 2246     		mov	r2, r4
 461 0076 2B46     		mov	r3, r5
 462 0078 CDE90001 		strd	r0, [sp]
 463 007c 4948     		ldr	r0, .L41+16
 464 007e FFF7FEFF 		bl	commands_printf
 465              	.LVL65:
 466              		.loc 1 3457 0
 467 0082 19EE900A 		vmov	r0, s19
 468 0086 FFF7FEFF 		bl	__aeabi_f2d
 469              	.LVL66:
 470 008a 0446     		mov	r4, r0
 471 008c 18EE100A 		vmov	r0, s16
 472 0090 0D46     		mov	r5, r1
 473 0092 FFF7FEFF 		bl	__aeabi_f2d
 474              	.LVL67:
 475 0096 2246     		mov	r2, r4
 476 0098 CDE90001 		strd	r0, [sp]
 477 009c 2B46     		mov	r3, r5
 478 009e 4248     		ldr	r0, .L41+20
 479 00a0 FFF7FEFF 		bl	commands_printf
 480              	.LVL68:
 481              		.loc 1 3460 0
 482 00a4 41F28830 		movw	r0, #5000
 483 00a8 FFF7FEFF 		bl	chThdSleep
 484              	.LVL69:
 485              	.L28:
 486              	.LBE475:
 487              	.LBE478:
 488              		.loc 1 3462 0
 489 00ac 05B0     		add	sp, sp, #20
 490              		.cfi_remember_state
 491              		.cfi_def_cfa_offset 60
 492              		@ sp needed
 493 00ae BDEC088B 		vldm	sp!, {d8-d11}
 494              		.cfi_restore 86
 495              		.cfi_restore 87
 496              		.cfi_restore 84
 497              		.cfi_restore 85
 498              		.cfi_restore 82
 499              		.cfi_restore 83
 500              		.cfi_restore 80
 501              		.cfi_restore 81
 502              		.cfi_def_cfa_offset 28
 503 00b2 BDE8F083 		pop	{r4, r5, r6, r7, r8, r9, pc}
 504              	.LVL70:
 505              	.L39:
 506              		.cfi_restore_state
 507              	.LBB479:
 508              	.LBB476:
 509              		.loc 1 3449 0
 510 00b6 0AEE105A 		vmov	s20, r5	@ int
 511              		.loc 1 3448 0
 512 00ba FFF7FEFF 		bl	commands_plot_set_graph
 513              	.LVL71:
ARM GAS  /tmp/ccMYeDWX.s 			page 10


 514              		.loc 1 3449 0
 515 00be BAEEEFAA 		vcvt.f32.s32	s20, s20, #1
 516 00c2 F0EE690A 		vmov.f32	s1, s19
 517 00c6 B0EE4A0A 		vmov.f32	s0, s20
 518 00ca FFF7FEFF 		bl	commands_send_plot_points
 519              	.LVL72:
 520              		.loc 1 3450 0
 521 00ce 0120     		movs	r0, #1
 522 00d0 FFF7FEFF 		bl	commands_plot_set_graph
 523              	.LVL73:
 524              		.loc 1 3451 0
 525 00d4 F0EE480A 		vmov.f32	s1, s16
 526 00d8 B0EE4A0A 		vmov.f32	s0, s20
 527 00dc FFF7FEFF 		bl	commands_send_plot_points
 528              	.LVL74:
 529              		.loc 1 3452 0
 530 00e0 3246     		mov	r2, r6
 531 00e2 2946     		mov	r1, r5
 532 00e4 3846     		mov	r0, r7
 533 00e6 FFF7FEFF 		bl	commands_printf
 534              	.LVL75:
 535              		.loc 1 3455 0
 536 00ea 69EE0B7A 		vmul.f32	s15, s18, s22
 537              	.LBE476:
 538              		.loc 1 3440 0
 539 00ee 0135     		adds	r5, r5, #1
 540              	.LBB477:
 541              		.loc 1 3455 0
 542 00f0 17EE900A 		vmov	r0, s15
 543 00f4 FFF7FEFF 		bl	__aeabi_f2d
 544              	.LVL76:
 545 00f8 68EE8B7A 		vmul.f32	s15, s17, s22
 546 00fc 8046     		mov	r8, r0
 547 00fe 17EE900A 		vmov	r0, s15
 548 0102 8946     		mov	r9, r1
 549 0104 FFF7FEFF 		bl	__aeabi_f2d
 550              	.LVL77:
 551 0108 4246     		mov	r2, r8
 552 010a 4B46     		mov	r3, r9
 553 010c CDE90001 		strd	r0, [sp]
 554 0110 2448     		ldr	r0, .L41+16
 555 0112 FFF7FEFF 		bl	commands_printf
 556              	.LVL78:
 557              		.loc 1 3457 0
 558 0116 19EE900A 		vmov	r0, s19
 559 011a FFF7FEFF 		bl	__aeabi_f2d
 560              	.LVL79:
 561 011e 8046     		mov	r8, r0
 562 0120 18EE100A 		vmov	r0, s16
 563 0124 8946     		mov	r9, r1
 564 0126 FFF7FEFF 		bl	__aeabi_f2d
 565              	.LVL80:
 566 012a 4246     		mov	r2, r8
 567 012c CDE90001 		strd	r0, [sp]
 568 0130 4B46     		mov	r3, r9
 569 0132 1D48     		ldr	r0, .L41+20
 570 0134 FFF7FEFF 		bl	commands_printf
ARM GAS  /tmp/ccMYeDWX.s 			page 11


 571              	.LVL81:
 572              		.loc 1 3460 0
 573 0138 41F28830 		movw	r0, #5000
 574 013c FFF7FEFF 		bl	chThdSleep
 575              	.LVL82:
 576              	.LBE477:
 577              		.loc 1 3440 0
 578 0140 B542     		cmp	r5, r6
 579 0142 FFF66DAF 		blt	.L34
 580 0146 B1E7     		b	.L28
 581              	.LVL83:
 582              	.L38:
 583              	.LBE479:
 584              	.LBB480:
 585              		.loc 1 3426 0
 586 0148 04AA     		add	r2, sp, #16
 587 014a 184B     		ldr	r3, .L41+24
 588              		.loc 1 3427 0
 589 014c 4868     		ldr	r0, [r1, #4]
 590              	.LVL84:
 591              		.loc 1 3426 0
 592 014e 42F8043D 		str	r3, [r2, #-4]!	@ float
 593              		.loc 1 3427 0
 594 0152 1749     		ldr	r1, .L41+28
 595              	.LVL85:
 596 0154 FFF7FEFF 		bl	sscanf
 597              	.LVL86:
 598              		.loc 1 3429 0
 599 0158 DDED037A 		vldr.32	s15, [sp, #12]
 600 015c F5EEC07A 		vcmpe.f32	s15, #0
 601 0160 F1EE10FA 		vmrs	APSR_nzcv, FPSCR
 602 0164 7FF754AF 		ble	.L35
 603              		.loc 1 3430 0
 604 0168 77EEA77A 		vadd.f32	s15, s15, s15
 605 016c FDEEE77A 		vcvt.s32.f32	s15, s15
 606 0170 17EE906A 		vmov	r6, s15	@ int
 607              	.LVL87:
 608              	.LBE480:
 609              		.loc 1 3434 0
 610 0174 012E     		cmp	r6, #1
 611 0176 02DC     		bgt	.L40
 612              	.LVL88:
 613              	.LBB481:
 614              		.loc 1 3440 0
 615 0178 002E     		cmp	r6, #0
 616 017a 97DD     		ble	.L28
 617 017c 49E7     		b	.L29
 618              	.LVL89:
 619              	.L40:
 620              	.LBE481:
 621              		.loc 1 3435 0
 622 017e 0D49     		ldr	r1, .L41+32
 623 0180 0D48     		ldr	r0, .L41+36
 624 0182 FFF7FEFF 		bl	commands_init_plot
 625              	.LVL90:
 626              		.loc 1 3436 0
 627 0186 0D48     		ldr	r0, .L41+40
ARM GAS  /tmp/ccMYeDWX.s 			page 12


 628 0188 FFF7FEFF 		bl	commands_plot_add_graph
 629              	.LVL91:
 630              		.loc 1 3437 0
 631 018c 0C48     		ldr	r0, .L41+44
 632 018e FFF7FEFF 		bl	commands_plot_add_graph
 633              	.LVL92:
 634 0192 3EE7     		b	.L29
 635              	.L42:
 636              		.align	2
 637              	.L41:
 638 0194 00000000 		.word	.LANCHOR0
 639 0198 0EF87C3B 		.word	998045710
 640 019c 38000000 		.word	.LC5
 641 01a0 00007A44 		.word	1148846080
 642 01a4 48000000 		.word	.LC6
 643 01a8 5C000000 		.word	.LC7
 644 01ac 000080BF 		.word	-1082130432
 645 01b0 00000000 		.word	.LC0
 646 01b4 04000000 		.word	.LC1
 647 01b8 10000000 		.word	.LC2
 648 01bc 18000000 		.word	.LC3
 649 01c0 28000000 		.word	.LC4
 650              		.cfi_endproc
 651              	.LFE339:
 652              		.size	terminal_tmp, .-terminal_tmp
 653              		.section	.text.terminal_plot_hfi,"ax",%progbits
 654              		.align	1
 655              		.p2align 4,,15
 656              		.syntax unified
 657              		.thumb
 658              		.thumb_func
 659              		.fpu fpv4-sp-d16
 660              		.type	terminal_plot_hfi, %function
 661              	terminal_plot_hfi:
 662              	.LFB356:
 663              		.loc 1 4780 0
 664              		.cfi_startproc
 665              		@ args = 0, pretend = 0, frame = 8
 666              		@ frame_needed = 0, uses_anonymous_args = 0
 667              	.LVL93:
 668 0000 10B5     		push	{r4, lr}
 669              		.cfi_def_cfa_offset 8
 670              		.cfi_offset 4, -8
 671              		.cfi_offset 14, -4
 672              		.loc 1 4781 0
 673 0002 0228     		cmp	r0, #2
 674              		.loc 1 4780 0
 675 0004 82B0     		sub	sp, sp, #8
 676              		.cfi_def_cfa_offset 16
 677              		.loc 1 4781 0
 678 0006 04D0     		beq	.L53
 679              		.loc 1 4809 0
 680 0008 2848     		ldr	r0, .L56
 681              	.LVL94:
 682 000a FFF7FEFF 		bl	commands_printf
 683              	.LVL95:
 684              		.loc 1 4811 0
ARM GAS  /tmp/ccMYeDWX.s 			page 13


 685 000e 02B0     		add	sp, sp, #8
 686              		.cfi_remember_state
 687              		.cfi_def_cfa_offset 8
 688              		@ sp needed
 689 0010 10BD     		pop	{r4, pc}
 690              	.LVL96:
 691              	.L53:
 692              		.cfi_restore_state
 693              	.LBB491:
 694              	.LBB492:
 695              		.loc 1 4782 0
 696 0012 02AA     		add	r2, sp, #8
 697 0014 4FF0FF33 		mov	r3, #-1
 698 0018 42F8043D 		str	r3, [r2, #-4]!
 699              		.loc 1 4783 0
 700 001c 4868     		ldr	r0, [r1, #4]
 701              	.LVL97:
 702 001e 2449     		ldr	r1, .L56+4
 703              	.LVL98:
 704 0020 FFF7FEFF 		bl	sscanf
 705              	.LVL99:
 706              		.loc 1 4785 0
 707 0024 019B     		ldr	r3, [sp, #4]
 708 0026 022B     		cmp	r3, #2
 709 0028 16D8     		bhi	.L45
 710              		.loc 1 4786 0
 711 002a 224C     		ldr	r4, .L56+8
 712 002c C4F87832 		str	r3, [r4, #632]
 713              		.loc 1 4787 0
 714 0030 D4F87832 		ldr	r3, [r4, #632]
 715 0034 012B     		cmp	r3, #1
 716 0036 14D0     		beq	.L54
 717              		.loc 1 4795 0
 718 0038 D4F87832 		ldr	r3, [r4, #632]
 719 003c 022B     		cmp	r3, #2
 720 003e 27D0     		beq	.L55
 721              	.L47:
 722              		.loc 1 4802 0
 723 0040 D4F87802 		ldr	r0, [r4, #632]
 724 0044 1C4A     		ldr	r2, .L56+12
 725 0046 1D4B     		ldr	r3, .L56+16
 726 0048 0028     		cmp	r0, #0
 727 004a 14BF     		ite	ne
 728 004c 1046     		movne	r0, r2
 729 004e 1846     		moveq	r0, r3
 730 0050 FFF7FEFF 		bl	commands_printf
 731              	.LVL100:
 732              	.LBE492:
 733              	.LBE491:
 734              		.loc 1 4811 0
 735 0054 02B0     		add	sp, sp, #8
 736              		.cfi_remember_state
 737              		.cfi_def_cfa_offset 8
 738              		@ sp needed
 739 0056 10BD     		pop	{r4, pc}
 740              	.L45:
 741              		.cfi_restore_state
ARM GAS  /tmp/ccMYeDWX.s 			page 14


 742              	.LBB495:
 743              	.LBB493:
 744              		.loc 1 4806 0
 745 0058 1948     		ldr	r0, .L56+20
 746 005a FFF7FEFF 		bl	commands_printf
 747              	.LVL101:
 748              	.LBE493:
 749              	.LBE495:
 750              		.loc 1 4811 0
 751 005e 02B0     		add	sp, sp, #8
 752              		.cfi_remember_state
 753              		.cfi_def_cfa_offset 8
 754              		@ sp needed
 755 0060 10BD     		pop	{r4, pc}
 756              	.L54:
 757              		.cfi_restore_state
 758              	.LBB496:
 759              	.LBB494:
 760              		.loc 1 4788 0
 761 0062 0023     		movs	r3, #0
 762              		.loc 1 4789 0
 763 0064 1749     		ldr	r1, .L56+24
 764 0066 1848     		ldr	r0, .L56+28
 765              		.loc 1 4788 0
 766 0068 C4F87C32 		str	r3, [r4, #636]	@ float
 767              		.loc 1 4789 0
 768 006c FFF7FEFF 		bl	commands_init_plot
 769              	.LVL102:
 770              		.loc 1 4790 0
 771 0070 1648     		ldr	r0, .L56+32
 772 0072 FFF7FEFF 		bl	commands_plot_add_graph
 773              	.LVL103:
 774              		.loc 1 4791 0
 775 0076 1648     		ldr	r0, .L56+36
 776 0078 FFF7FEFF 		bl	commands_plot_add_graph
 777              	.LVL104:
 778              		.loc 1 4792 0
 779 007c 1548     		ldr	r0, .L56+40
 780 007e FFF7FEFF 		bl	commands_plot_add_graph
 781              	.LVL105:
 782              		.loc 1 4793 0
 783 0082 1548     		ldr	r0, .L56+44
 784 0084 FFF7FEFF 		bl	commands_plot_add_graph
 785              	.LVL106:
 786              		.loc 1 4794 0
 787 0088 1448     		ldr	r0, .L56+48
 788 008a FFF7FEFF 		bl	commands_plot_add_graph
 789              	.LVL107:
 790 008e D7E7     		b	.L47
 791              	.L55:
 792              		.loc 1 4796 0
 793 0090 0023     		movs	r3, #0
 794              		.loc 1 4797 0
 795 0092 0C49     		ldr	r1, .L56+24
 796 0094 1248     		ldr	r0, .L56+52
 797              		.loc 1 4796 0
 798 0096 C4F87C32 		str	r3, [r4, #636]	@ float
ARM GAS  /tmp/ccMYeDWX.s 			page 15


 799              		.loc 1 4797 0
 800 009a FFF7FEFF 		bl	commands_init_plot
 801              	.LVL108:
 802              		.loc 1 4798 0
 803 009e 1148     		ldr	r0, .L56+56
 804 00a0 FFF7FEFF 		bl	commands_plot_add_graph
 805              	.LVL109:
 806              		.loc 1 4799 0
 807 00a4 1048     		ldr	r0, .L56+60
 808 00a6 FFF7FEFF 		bl	commands_plot_add_graph
 809              	.LVL110:
 810 00aa C9E7     		b	.L47
 811              	.L57:
 812              		.align	2
 813              	.L56:
 814 00ac D0000000 		.word	.LC22
 815 00b0 28000000 		.word	.LC10
 816 00b4 00000000 		.word	.LANCHOR0
 817 00b8 00000000 		.word	.LC8
 818 00bc 14000000 		.word	.LC9
 819 00c0 A4000000 		.word	.LC21
 820 00c4 2C000000 		.word	.LC11
 821 00c8 34000000 		.word	.LC12
 822 00cc 3C000000 		.word	.LC13
 823 00d0 44000000 		.word	.LC14
 824 00d4 50000000 		.word	.LC15
 825 00d8 5C000000 		.word	.LC16
 826 00dc 6C000000 		.word	.LC17
 827 00e0 78000000 		.word	.LC18
 828 00e4 88000000 		.word	.LC19
 829 00e8 94000000 		.word	.LC20
 830              	.LBE494:
 831              	.LBE496:
 832              		.cfi_endproc
 833              	.LFE356:
 834              		.size	terminal_plot_hfi, .-terminal_plot_hfi
 835              		.section	.text.pid_thread,"ax",%progbits
 836              		.align	1
 837              		.p2align 4,,15
 838              		.syntax unified
 839              		.thumb
 840              		.thumb_func
 841              		.fpu fpv4-sp-d16
 842              		.type	pid_thread, %function
 843              	pid_thread:
 844              	.LFB344:
 845              		.loc 1 3648 0
 846              		.cfi_startproc
 847              		@ args = 0, pretend = 0, frame = 16
 848              		@ frame_needed = 0, uses_anonymous_args = 0
 849              	.LVL111:
 850 0000 F0B5     		push	{r4, r5, r6, r7, lr}
 851              		.cfi_def_cfa_offset 20
 852              		.cfi_offset 4, -20
 853              		.cfi_offset 5, -16
 854              		.cfi_offset 6, -12
 855              		.cfi_offset 7, -8
ARM GAS  /tmp/ccMYeDWX.s 			page 16


 856              		.cfi_offset 14, -4
 857              	.LBB508:
 858              	.LBB509:
 859              		.file 2 "ChibiOS_3.0.5/os/rt/include/chregistry.h"
 860              		.loc 2 135 0
 861 0002 AD4B     		ldr	r3, .L118
 862 0004 AD4A     		ldr	r2, .L118+4
 863 0006 9B69     		ldr	r3, [r3, #24]
 864 0008 AD4F     		ldr	r7, .L118+8
 865              	.LBE509:
 866              	.LBE508:
 867              		.loc 1 3648 0
 868 000a 2DED0E8B 		vpush.64	{d8, d9, d10, d11, d12, d13, d14}
 869              		.cfi_def_cfa_offset 76
 870              		.cfi_offset 80, -76
 871              		.cfi_offset 81, -72
 872              		.cfi_offset 82, -68
 873              		.cfi_offset 83, -64
 874              		.cfi_offset 84, -60
 875              		.cfi_offset 85, -56
 876              		.cfi_offset 86, -52
 877              		.cfi_offset 87, -48
 878              		.cfi_offset 88, -44
 879              		.cfi_offset 89, -40
 880              		.cfi_offset 90, -36
 881              		.cfi_offset 91, -32
 882              		.cfi_offset 92, -28
 883              		.cfi_offset 93, -24
 884              	.LBB511:
 885              	.LBB510:
 886              		.loc 2 135 0
 887 000e 9A61     		str	r2, [r3, #24]
 888              	.LVL112:
 889              	.LBE510:
 890              	.LBE511:
 891              		.loc 1 3648 0
 892 0010 85B0     		sub	sp, sp, #20
 893              		.cfi_def_cfa_offset 96
 894              		.loc 1 3653 0
 895 0012 FFF7FEFF 		bl	timer_time_now
 896              	.LVL113:
 897              	.LBB512:
 898              	.LBB513:
 899              	.LBB514:
 900              		.loc 1 4388 0
 901 0016 DFEDABBA 		vldr.32	s23, .L118+12
 902              		.loc 1 4451 0
 903 001a DFEDABCA 		vldr.32	s25, .L118+16
 904              		.loc 1 4423 0
 905 001e 9FEDAB8A 		vldr.32	s16, .L118+20
 906              	.LBE514:
 907              	.LBE513:
 908              	.LBB523:
 909              	.LBB524:
 910              	.LBB525:
 911              	.LBB526:
 912              		.loc 1 1230 0
ARM GAS  /tmp/ccMYeDWX.s 			page 17


 913 0022 DFEDABAA 		vldr.32	s21, .L118+24
 914              	.LBE526:
 915              	.LBE525:
 916              		.loc 1 4486 0
 917 0026 9FEDABBA 		vldr.32	s22, .L118+28
 918              		.loc 1 4506 0
 919 002a 9FEDABCA 		vldr.32	s24, .L118+32
 920              	.LBE524:
 921              	.LBE523:
 922              	.LBE512:
 923              		.loc 1 3653 0
 924 002e 0646     		mov	r6, r0
 925              	.LVL114:
 926              	.L59:
 927              	.LBB544:
 928              		.loc 1 3656 0
 929 0030 3B78     		ldrb	r3, [r7]	@ zero_extendqisi2
 930 0032 002B     		cmp	r3, #0
 931 0034 36D1     		bne	.L113
 932              	.L60:
 933              		.loc 1 3661 0
 934 0036 A94C     		ldr	r4, .L118+36
 935 0038 2368     		ldr	r3, [r4]
 936 003a 93F8C831 		ldrb	r3, [r3, #456]	@ zero_extendqisi2
 937 003e 082B     		cmp	r3, #8
 938 0040 09D8     		bhi	.L61
 939 0042 DFE803F0 		tbb	[pc, r3]
 940              	.L63:
 941 0046 49       		.byte	(.L62-.L63)/2
 942 0047 45       		.byte	(.L64-.L63)/2
 943 0048 52       		.byte	(.L65-.L63)/2
 944 0049 4E       		.byte	(.L66-.L63)/2
 945 004a 41       		.byte	(.L67-.L63)/2
 946 004b 3D       		.byte	(.L68-.L63)/2
 947 004c 39       		.byte	(.L69-.L63)/2
 948 004d 35       		.byte	(.L70-.L63)/2
 949 004e 05       		.byte	(.L71-.L63)/2
 950 004f 00       		.p2align 1
 951              	.L71:
 952              		.loc 1 3670 0
 953 0050 0120     		movs	r0, #1
 954 0052 FFF7FEFF 		bl	chThdSleep
 955              	.LVL115:
 956              	.L61:
 957              		.loc 1 3673 0
 958 0056 3046     		mov	r0, r6
 959 0058 FFF7FEFF 		bl	timer_seconds_elapsed_since
 960              	.LVL116:
 961 005c F0EE409A 		vmov.f32	s19, s0
 962              	.LVL117:
 963              		.loc 1 3674 0
 964 0060 FFF7FEFF 		bl	timer_time_now
 965              	.LVL118:
 966              	.LBB535:
 967              	.LBB518:
 968              		.loc 1 4352 0
 969 0064 2568     		ldr	r5, [r4]
ARM GAS  /tmp/ccMYeDWX.s 			page 18


 970              		.loc 1 4354 0
 971 0066 94ED489A 		vldr.32	s18, [r4, #288]
 972              		.loc 1 4355 0
 973 006a 94ED350A 		vldr.32	s0, [r4, #212]
 974              		.loc 1 4362 0
 975 006e 6379     		ldrb	r3, [r4, #5]	@ zero_extendqisi2
 976 0070 042B     		cmp	r3, #4
 977              	.LBE518:
 978              	.LBE535:
 979              		.loc 1 3674 0
 980 0072 0646     		mov	r6, r0
 981              	.LVL119:
 982              	.LBB536:
 983              	.LBB519:
 984              		.loc 1 4362 0
 985 0074 66D0     		beq	.L72
 986              		.loc 1 4363 0
 987 0076 84EDB18A 		vstr.32	s16, [r4, #708]
 988              		.loc 1 4364 0
 989 007a 84EDB28A 		vstr.32	s16, [r4, #712]
 990              		.loc 1 4365 0
 991 007e 84EDB49A 		vstr.32	s18, [r4, #720]
 992              		.loc 1 4366 0
 993 0082 84EDB68A 		vstr.32	s16, [r4, #728]
 994              		.loc 1 4367 0
 995 0086 84EDB78A 		vstr.32	s16, [r4, #732]
 996              	.LVL120:
 997              	.L73:
 998              	.LBE519:
 999              	.LBE536:
 1000              	.LBB537:
 1001              	.LBB531:
 1002              		.loc 1 4459 0
 1003 008a 2568     		ldr	r5, [r4]
 1004              	.LVL121:
 1005              		.loc 1 4464 0
 1006 008c 6379     		ldrb	r3, [r4, #5]	@ zero_extendqisi2
 1007 008e 012B     		cmp	r3, #1
 1008 0090 2FD0     		beq	.L83
 1009              		.loc 1 4465 0
 1010 0092 84EDB88A 		vstr.32	s16, [r4, #736]
 1011              		.loc 1 4466 0
 1012 0096 84EDB98A 		vstr.32	s16, [r4, #740]
 1013              		.loc 1 4467 0
 1014 009a 84EDBA8A 		vstr.32	s16, [r4, #744]
 1015              	.LBE531:
 1016              	.LBE537:
 1017              		.loc 1 3656 0
 1018 009e 3B78     		ldrb	r3, [r7]	@ zero_extendqisi2
 1019 00a0 002B     		cmp	r3, #0
 1020 00a2 C8D0     		beq	.L60
 1021              	.LVL122:
 1022              	.L113:
 1023              		.loc 1 3657 0
 1024 00a4 0023     		movs	r3, #0
 1025 00a6 3B70     		strb	r3, [r7]
 1026              	.LBE544:
ARM GAS  /tmp/ccMYeDWX.s 			page 19


 1027              		.loc 1 3683 0
 1028 00a8 05B0     		add	sp, sp, #20
 1029              		.cfi_remember_state
 1030              		.cfi_def_cfa_offset 76
 1031              		@ sp needed
 1032 00aa BDEC0E8B 		vldm	sp!, {d8-d14}
 1033              		.cfi_restore 92
 1034              		.cfi_restore 93
 1035              		.cfi_restore 90
 1036              		.cfi_restore 91
 1037              		.cfi_restore 88
 1038              		.cfi_restore 89
 1039              		.cfi_restore 86
 1040              		.cfi_restore 87
 1041              		.cfi_restore 84
 1042              		.cfi_restore 85
 1043              		.cfi_restore 82
 1044              		.cfi_restore 83
 1045              		.cfi_restore 80
 1046              		.cfi_restore 81
 1047              		.cfi_def_cfa_offset 20
 1048 00ae F0BD     		pop	{r4, r5, r6, r7, pc}
 1049              	.LVL123:
 1050              	.L70:
 1051              		.cfi_restore_state
 1052              	.LBB545:
 1053              		.loc 1 3669 0
 1054 00b0 0220     		movs	r0, #2
 1055 00b2 FFF7FEFF 		bl	chThdSleep
 1056              	.LVL124:
 1057 00b6 CEE7     		b	.L61
 1058              	.L69:
 1059              		.loc 1 3668 0
 1060 00b8 0420     		movs	r0, #4
 1061 00ba FFF7FEFF 		bl	chThdSleep
 1062              	.LVL125:
 1063 00be CAE7     		b	.L61
 1064              	.L68:
 1065              		.loc 1 3667 0
 1066 00c0 0A20     		movs	r0, #10
 1067 00c2 FFF7FEFF 		bl	chThdSleep
 1068              	.LVL126:
 1069 00c6 C6E7     		b	.L61
 1070              	.L67:
 1071              		.loc 1 3666 0
 1072 00c8 1420     		movs	r0, #20
 1073 00ca FFF7FEFF 		bl	chThdSleep
 1074              	.LVL127:
 1075 00ce C2E7     		b	.L61
 1076              	.L64:
 1077              		.loc 1 3663 0
 1078 00d0 C820     		movs	r0, #200
 1079 00d2 FFF7FEFF 		bl	chThdSleep
 1080              	.LVL128:
 1081 00d6 BEE7     		b	.L61
 1082              	.L62:
 1083              		.loc 1 3662 0
ARM GAS  /tmp/ccMYeDWX.s 			page 20


 1084 00d8 4FF4C870 		mov	r0, #400
 1085 00dc FFF7FEFF 		bl	chThdSleep
 1086              	.LVL129:
 1087 00e0 B9E7     		b	.L61
 1088              	.L66:
 1089              		.loc 1 3665 0
 1090 00e2 2820     		movs	r0, #40
 1091 00e4 FFF7FEFF 		bl	chThdSleep
 1092              	.LVL130:
 1093 00e8 B5E7     		b	.L61
 1094              	.L65:
 1095              		.loc 1 3664 0
 1096 00ea 6420     		movs	r0, #100
 1097 00ec FFF7FEFF 		bl	chThdSleep
 1098              	.LVL131:
 1099 00f0 B1E7     		b	.L61
 1100              	.LVL132:
 1101              	.L83:
 1102              	.LBB538:
 1103              	.LBB532:
 1104              		.loc 1 4471 0
 1105 00f2 D5ED797A 		vldr.32	s15, [r5, #484]
 1106 00f6 F5EEC07A 		vcmpe.f32	s15, #0
 1107 00fa F1EE10FA 		vmrs	APSR_nzcv, FPSCR
 1108 00fe 08DD     		ble	.L85
 1109              		.loc 1 4472 0
 1110 0100 94ED370A 		vldr.32	s0, [r4, #220]
 1111 0104 D5ED790A 		vldr.32	s1, [r5, #484]
 1112 0108 7548     		ldr	r0, .L118+40
 1113 010a 69EEA00A 		vmul.f32	s1, s19, s1
 1114 010e FFF7FEFF 		bl	utils_step_towards
 1115              	.LVL133:
 1116              	.L85:
 1117              	.LBB529:
 1118              	.LBB527:
 1119              		.loc 1 1230 0
 1120 0112 94ED24AA 		vldr.32	s20, [r4, #144]
 1121              	.LBE527:
 1122              	.LBE529:
 1123              		.loc 1 4476 0
 1124 0116 94ED360A 		vldr.32	s0, [r4, #216]
 1125              		.loc 1 4479 0
 1126 011a D4ED367A 		vldr.32	s15, [r4, #216]
 1127 011e 95ED777A 		vldr.32	s14, [r5, #476]
 1128 0122 F0EEE77A 		vabs.f32	s15, s15
 1129              	.LBB530:
 1130              	.LBB528:
 1131              		.loc 1 1230 0
 1132 0126 2AEE2AAA 		vmul.f32	s20, s20, s21
 1133              	.LBE528:
 1134              	.LBE530:
 1135              		.loc 1 4479 0
 1136 012a F4EEC77A 		vcmpe.f32	s15, s14
 1137 012e F1EE10FA 		vmrs	APSR_nzcv, FPSCR
 1138              		.loc 1 4476 0
 1139 0132 70EE4A8A 		vsub.f32	s17, s0, s20
 1140              	.LVL134:
ARM GAS  /tmp/ccMYeDWX.s 			page 21


 1141              		.loc 1 4479 0
 1142 0136 40F1D780 		bpl	.L110
 1143              		.loc 1 4480 0
 1144 013a 84EDB88A 		vstr.32	s16, [r4, #736]
 1145              		.loc 1 4481 0
 1146 013e C4EDB98A 		vstr.32	s17, [r4, #740]
 1147 0142 75E7     		b	.L59
 1148              	.LVL135:
 1149              	.L72:
 1150              	.LBE532:
 1151              	.LBE538:
 1152              	.LBB539:
 1153              	.LBB520:
 1154              		.loc 1 4372 0
 1155 0144 F0EE490A 		vmov.f32	s1, s18
 1156 0148 FFF7FEFF 		bl	utils_angle_difference
 1157              	.LVL136:
 1158 014c B0EE40AA 		vmov.f32	s20, s0
 1159              	.LVL137:
 1160              		.loc 1 4375 0
 1161 0150 FFF7FEFF 		bl	encoder_is_configured
 1162              	.LVL138:
 1163 0154 20B1     		cbz	r0, .L97
 1164              		.loc 1 4376 0
 1165 0156 95F8C430 		ldrb	r3, [r5, #196]	@ zero_extendqisi2
 1166 015a 002B     		cmp	r3, #0
 1167 015c 40F04681 		bne	.L114
 1168              	.L97:
 1169              		.loc 1 4373 0
 1170 0160 F7EE00DA 		vmov.f32	s27, #1.0e+0
 1171              	.LVL139:
 1172              	.L74:
 1173              		.loc 1 4383 0
 1174 0164 D5ED7A8A 		vldr.32	s17, [r5, #488]
 1175              	.LVL140:
 1176              		.loc 1 4384 0
 1177 0168 D5ED7B7A 		vldr.32	s15, [r5, #492]
 1178              	.LVL141:
 1179              		.loc 1 4385 0
 1180 016c 95ED7C6A 		vldr.32	s12, [r5, #496]
 1181              	.LVL142:
 1182              		.loc 1 4386 0
 1183 0170 95ED7DEA 		vldr.32	s28, [r5, #500]
 1184              	.LVL143:
 1185              		.loc 1 4388 0
 1186 0174 95ED807A 		vldr.32	s14, [r5, #512]
 1187 0178 B4EEEB7A 		vcmpe.f32	s14, s23
 1188 017c F1EE10FA 		vmrs	APSR_nzcv, FPSCR
 1189 0180 0DDD     		ble	.L75
 1190              	.LBB515:
 1191              		.loc 1 4389 0
 1192 0182 D5ED805A 		vldr.32	s11, [r5, #512]
 1193 0186 D5ED7F6A 		vldr.32	s13, [r5, #508]
 1194 018a 85EEA67A 		vdiv.f32	s14, s11, s13
 1195              	.LVL144:
 1196              		.loc 1 4390 0
 1197 018e F0EECA6A 		vabs.f32	s13, s20
ARM GAS  /tmp/ccMYeDWX.s 			page 22


 1198              	.LVL145:
 1199              		.loc 1 4392 0
 1200 0192 B4EEE67A 		vcmpe.f32	s14, s13
 1201 0196 F1EE10FA 		vmrs	APSR_nzcv, FPSCR
 1202 019a 00F31C81 		bgt	.L115
 1203              	.LVL146:
 1204              	.L75:
 1205              	.LBE515:
 1206              		.loc 1 4402 0
 1207 019e 94EDB17A 		vldr.32	s14, [r4, #708]
 1208 01a2 69EEA77A 		vmul.f32	s15, s19, s15
 1209              	.LVL147:
 1210              		.loc 1 4401 0
 1211 01a6 68EE8A8A 		vmul.f32	s17, s17, s20
 1212              	.LVL148:
 1213              		.loc 1 4402 0
 1214 01aa A7EE8A7A 		vfma.f32	s14, s15, s20
 1215 01ae 84EDB17A 		vstr.32	s14, [r4, #708]
 1216              		.loc 1 4408 0
 1217 01b2 D4EDB37A 		vldr.32	s15, [r4, #716]
 1218 01b6 79EEA77A 		vadd.f32	s15, s19, s15
 1219 01ba C4EDB37A 		vstr.32	s15, [r4, #716]
 1220              		.loc 1 4409 0
 1221 01be D4EDB27A 		vldr.32	s15, [r4, #712]
 1222 01c2 F4EE4A7A 		vcmp.f32	s15, s20
 1223 01c6 F1EE10FA 		vmrs	APSR_nzcv, FPSCR
 1224 01ca 72D0     		beq	.L98
 1225              		.loc 1 4412 0
 1226 01cc 94EDB27A 		vldr.32	s14, [r4, #712]
 1227 01d0 D4EDB37A 		vldr.32	s15, [r4, #716]
 1228              		.loc 1 4413 0
 1229 01d4 84EDB38A 		vstr.32	s16, [r4, #716]
 1230              		.loc 1 4412 0
 1231 01d8 C6EE276A 		vdiv.f32	s13, s12, s15
 1232 01dc 3AEE477A 		vsub.f32	s14, s20, s14
 1233 01e0 67EE266A 		vmul.f32	s13, s14, s13
 1234              	.LVL149:
 1235              	.L78:
 1236              		.loc 1 4417 0
 1237 01e4 95ED7E6A 		vldr.32	s12, [r5, #504]
 1238              	.LVL150:
 1239 01e8 94EDB67A 		vldr.32	s14, [r4, #728]
 1240 01ec D4EDB67A 		vldr.32	s15, [r4, #728]
 1241 01f0 37EE667A 		vsub.f32	s14, s14, s13
 1242 01f4 E6EE477A 		vfms.f32	s15, s12, s14
 1243 01f8 C4EDB67A 		vstr.32	s15, [r4, #728]
 1244              		.loc 1 4418 0
 1245 01fc 94EDB6DA 		vldr.32	s26, [r4, #728]
 1246              	.LVL151:
 1247              		.loc 1 4421 0
 1248 0200 D4EDB57A 		vldr.32	s15, [r4, #724]
 1249 0204 79EEA77A 		vadd.f32	s15, s19, s15
 1250 0208 C4EDB57A 		vstr.32	s15, [r4, #724]
 1251              		.loc 1 4422 0
 1252 020c D4EDB47A 		vldr.32	s15, [r4, #720]
 1253 0210 B4EE679A 		vcmp.f32	s18, s15
 1254 0214 F1EE10FA 		vmrs	APSR_nzcv, FPSCR
ARM GAS  /tmp/ccMYeDWX.s 			page 23


 1255 0218 40F00A81 		bne	.L116
 1256              		.loc 1 4423 0
 1257 021c B0EE487A 		vmov.f32	s14, s16
 1258              	.L79:
 1259              	.LVL152:
 1260              		.loc 1 4430 0
 1261 0220 D5ED7E6A 		vldr.32	s13, [r5, #504]
 1262 0224 94EDB70A 		vldr.32	s0, [r4, #732]
 1263 0228 D4EDB77A 		vldr.32	s15, [r4, #732]
 1264 022c 30EE470A 		vsub.f32	s0, s0, s14
 1265              		.loc 1 4434 0
 1266 0230 18EE903A 		vmov	r3, s17
 1267              		.loc 1 4430 0
 1268 0234 E6EEC07A 		vfms.f32	s15, s13, s0
 1269              		.loc 1 4434 0
 1270 0238 04A8     		add	r0, sp, #16
 1271              		.loc 1 4435 0
 1272 023a B7EE000A 		vmov.f32	s0, #1.0e+0
 1273              		.loc 1 4430 0
 1274 023e C4EDB77A 		vstr.32	s15, [r4, #732]
 1275              		.loc 1 4434 0
 1276 0242 40F8083D 		str	r3, [r0, #-8]!	@ float
 1277              		.loc 1 4431 0
 1278 0246 94EDB7EA 		vldr.32	s28, [r4, #732]
 1279              	.LVL153:
 1280              		.loc 1 4435 0
 1281 024a FFF7FEFF 		bl	utils_truncate_number_abs
 1282              	.LVL154:
 1283              		.loc 1 4436 0
 1284 024e 9DED020A 		vldr.32	s0, [sp, #8]
 1285 0252 2448     		ldr	r0, .L118+44
 1286 0254 F7EE00DA 		vmov.f32	s27, #1.0e+0
 1287              	.LVL155:
 1288 0258 B0EEC00A 		vabs.f32	s0, s0
 1289 025c 3DEEC00A 		vsub.f32	s0, s27, s0
 1290 0260 FFF7FEFF 		bl	utils_truncate_number_abs
 1291              	.LVL156:
 1292              		.loc 1 4439 0
 1293 0264 84EDB2AA 		vstr.32	s20, [r4, #712]
 1294              		.loc 1 4440 0
 1295 0268 84EDB49A 		vstr.32	s18, [r4, #720]
 1296              		.loc 1 4443 0
 1297 026c D4EDB17A 		vldr.32	s15, [r4, #708]
 1298 0270 78EEA78A 		vadd.f32	s17, s17, s15
 1299              	.LVL157:
 1300 0274 04A8     		add	r0, sp, #16
 1301 0276 78EE8D8A 		vadd.f32	s17, s17, s26
 1302              		.loc 1 4444 0
 1303 027a F0EE6D0A 		vmov.f32	s1, s27
 1304              		.loc 1 4443 0
 1305 027e 78EE8E8A 		vadd.f32	s17, s17, s28
 1306              		.loc 1 4444 0
 1307 0282 BFEE000A 		vmov.f32	s0, #-1.0e+0
 1308              		.loc 1 4443 0
 1309 0286 60ED018A 		vstmdb.32	r0!, {s17}
 1310              		.loc 1 4444 0
 1311 028a FFF7FEFF 		bl	utils_truncate_number
ARM GAS  /tmp/ccMYeDWX.s 			page 24


 1312              	.LVL158:
 1313              		.loc 1 4446 0
 1314 028e FFF7FEFF 		bl	encoder_is_configured
 1315              	.LVL159:
 1316 0292 0028     		cmp	r0, #0
 1317 0294 40F0BC80 		bne	.L117
 1318              		.loc 1 4454 0
 1319 0298 D5ED007A 		vldr.32	s15, [r5]
 1320              	.L112:
 1321 029c DDED036A 		vldr.32	s13, [sp, #12]
 1322 02a0 95ED187A 		vldr.32	s14, [r5, #96]
 1323 02a4 67EEA67A 		vmul.f32	s15, s15, s13
 1324 02a8 67EE877A 		vmul.f32	s15, s15, s14
 1325 02ac C4ED2F7A 		vstr.32	s15, [r4, #188]
 1326 02b0 EBE6     		b	.L73
 1327              	.LVL160:
 1328              	.L98:
 1329              		.loc 1 4410 0
 1330 02b2 F0EE486A 		vmov.f32	s13, s16
 1331 02b6 95E7     		b	.L78
 1332              	.L119:
 1333              		.align	2
 1334              	.L118:
 1335 02b8 00000000 		.word	ch
 1336 02bc 00000000 		.word	.LC23
 1337 02c0 00000000 		.word	.LANCHOR1
 1338 02c4 CDCCCC3D 		.word	1036831949
 1339 02c8 CDCCCC3E 		.word	1053609165
 1340 02cc 00000000 		.word	0
 1341 02d0 EBC91841 		.word	1092143595
 1342 02d4 CDCC4C3D 		.word	1028443341
 1343 02d8 5F708930 		.word	814313567
 1344 02dc 00000000 		.word	.LANCHOR0
 1345 02e0 D8000000 		.word	.LANCHOR0+216
 1346 02e4 C4020000 		.word	.LANCHOR0+708
 1347              	.LVL161:
 1348              	.L110:
 1349              	.LBE520:
 1350              	.LBE539:
 1351              	.LBB540:
 1352              	.LBB533:
 1353              		.loc 1 4486 0
 1354 02e8 D5ED737A 		vldr.32	s15, [r5, #460]
 1355              		.loc 1 4487 0
 1356 02ec D4EDB95A 		vldr.32	s11, [r4, #740]
 1357 02f0 D5ED754A 		vldr.32	s9, [r5, #468]
 1358              		.loc 1 4490 0
 1359 02f4 95ED765A 		vldr.32	s10, [r5, #472]
 1360 02f8 D4EDBA6A 		vldr.32	s13, [r4, #744]
 1361 02fc 94EDBA7A 		vldr.32	s14, [r4, #744]
 1362              		.loc 1 4487 0
 1363 0300 84EEA96A 		vdiv.f32	s12, s9, s19
 1364              		.loc 1 4497 0
 1365 0304 01A8     		add	r0, sp, #4
 1366              		.loc 1 4487 0
 1367 0306 78EEE55A 		vsub.f32	s11, s17, s11
 1368              		.loc 1 4486 0
ARM GAS  /tmp/ccMYeDWX.s 			page 25


 1369 030a 68EEA77A 		vmul.f32	s15, s17, s15
 1370              		.loc 1 4490 0
 1371 030e 26EE656A 		vnmul.f32	s12, s12, s11
 1372              		.loc 1 4486 0
 1373 0312 67EE8B7A 		vmul.f32	s15, s15, s22
 1374              		.loc 1 4490 0
 1375 0316 E6EE0B6A 		vfma.f32	s13, s12, s22
 1376              		.loc 1 4486 0
 1377 031a CDED017A 		vstr.32	s15, [sp, #4]
 1378              		.loc 1 4490 0
 1379 031e F0EE477A 		vmov.f32	s15, s14
 1380 0322 E5EE667A 		vfms.f32	s15, s10, s13
 1381              		.loc 1 4497 0
 1382 0326 B7EE000A 		vmov.f32	s0, #1.0e+0
 1383              		.loc 1 4490 0
 1384 032a C4EDBA7A 		vstr.32	s15, [r4, #744]
 1385              		.loc 1 4491 0
 1386 032e D4F8E832 		ldr	r3, [r4, #744]	@ float
 1387 0332 0293     		str	r3, [sp, #8]	@ float
 1388              		.loc 1 4494 0
 1389 0334 C4EDB98A 		vstr.32	s17, [r4, #740]
 1390              		.loc 1 4497 0
 1391 0338 FFF7FEFF 		bl	utils_truncate_number_abs
 1392              	.LVL162:
 1393              		.loc 1 4498 0
 1394 033c B7EE000A 		vmov.f32	s0, #1.0e+0
 1395 0340 02A8     		add	r0, sp, #8
 1396 0342 FFF7FEFF 		bl	utils_truncate_number_abs
 1397              	.LVL163:
 1398              		.loc 1 4499 0
 1399 0346 9DED017A 		vldr.32	s14, [sp, #4]
 1400 034a 94EDB89A 		vldr.32	s18, [r4, #736]
 1401 034e DDED027A 		vldr.32	s15, [sp, #8]
 1402 0352 39EE079A 		vadd.f32	s18, s18, s14
 1403 0356 04A8     		add	r0, sp, #16
 1404 0358 39EE279A 		vadd.f32	s18, s18, s15
 1405              		.loc 1 4501 0
 1406 035c B7EE000A 		vmov.f32	s0, #1.0e+0
 1407              		.loc 1 4499 0
 1408 0360 20ED019A 		vstmdb.32	r0!, {s18}
 1409              	.LVL164:
 1410              		.loc 1 4501 0
 1411 0364 FFF7FEFF 		bl	utils_truncate_number_abs
 1412              	.LVL165:
 1413              		.loc 1 4505 0
 1414 0368 95ED740A 		vldr.32	s0, [r5, #464]
 1415              		.loc 1 4503 0
 1416 036c DDED037A 		vldr.32	s15, [sp, #12]
 1417              	.LVL166:
 1418              		.loc 1 4505 0
 1419 0370 94EDB87A 		vldr.32	s14, [r4, #736]
 1420 0374 29EE800A 		vmul.f32	s0, s19, s0
 1421              		.loc 1 4503 0
 1422 0378 37EEC99A 		vsub.f32	s18, s15, s18
 1423              	.LVL167:
 1424              		.loc 1 4505 0
 1425 037c 20EE280A 		vmul.f32	s0, s0, s17
ARM GAS  /tmp/ccMYeDWX.s 			page 26


 1426 0380 A0EE0B9A 		vfma.f32	s18, s0, s22
 1427              	.LVL168:
 1428 0384 39EE079A 		vadd.f32	s18, s18, s14
 1429 0388 84EDB89A 		vstr.32	s18, [r4, #736]
 1430              		.loc 1 4506 0
 1431 038c 95ED747A 		vldr.32	s14, [r5, #464]
 1432 0390 B4EECC7A 		vcmpe.f32	s14, s24
 1433 0394 F1EE10FA 		vmrs	APSR_nzcv, FPSCR
 1434              		.loc 1 4507 0
 1435 0398 48BF     		it	mi
 1436 039a 84EDB88A 		vstrmi.32	s16, [r4, #736]
 1437              		.loc 1 4511 0
 1438 039e 95F8E031 		ldrb	r3, [r5, #480]	@ zero_extendqisi2
 1439 03a2 6BB9     		cbnz	r3, .L91
 1440              		.loc 1 4512 0
 1441 03a4 B3EE047A 		vmov.f32	s14, #2.0e+1
 1442 03a8 B4EEC7AA 		vcmpe.f32	s20, s14
 1443 03ac F1EE10FA 		vmrs	APSR_nzcv, FPSCR
 1444 03b0 21DD     		ble	.L92
 1445 03b2 F5EEC07A 		vcmpe.f32	s15, #0
 1446 03b6 F1EE10FA 		vmrs	APSR_nzcv, FPSCR
 1447 03ba 1CD5     		bpl	.L92
 1448              	.L101:
 1449              		.loc 1 4516 0
 1450 03bc F0EE487A 		vmov.f32	s15, s16
 1451              	.L91:
 1452              		.loc 1 4521 0
 1453 03c0 D5ED006A 		vldr.32	s13, [r5]
 1454 03c4 95ED187A 		vldr.32	s14, [r5, #96]
 1455 03c8 67EEA67A 		vmul.f32	s15, s15, s13
 1456 03cc 67EE877A 		vmul.f32	s15, s15, s14
 1457 03d0 C4ED2F7A 		vstr.32	s15, [r4, #188]
 1458 03d4 2CE6     		b	.L59
 1459              	.LVL169:
 1460              	.L115:
 1461              	.LBE533:
 1462              	.LBE540:
 1463              	.LBB541:
 1464              	.LBB521:
 1465              	.LBB517:
 1466              	.LBB516:
 1467              		.loc 1 4393 0
 1468 03d6 C6EE875A 		vdiv.f32	s11, s13, s14
 1469              	.LVL170:
 1470              		.loc 1 4394 0
 1471 03da 68EEA58A 		vmul.f32	s17, s17, s11
 1472              	.LVL171:
 1473              		.loc 1 4395 0
 1474 03de 67EEA57A 		vmul.f32	s15, s15, s11
 1475              	.LVL172:
 1476              		.loc 1 4396 0
 1477 03e2 26EE256A 		vmul.f32	s12, s12, s11
 1478              	.LVL173:
 1479              		.loc 1 4397 0
 1480 03e6 2EEE25EA 		vmul.f32	s28, s28, s11
 1481              	.LVL174:
 1482 03ea D8E6     		b	.L75
ARM GAS  /tmp/ccMYeDWX.s 			page 27


 1483              	.LVL175:
 1484              	.L114:
 1485 03ec B1EE4AAA 		vneg.f32	s20, s20
 1486              	.LVL176:
 1487              	.LBE516:
 1488              	.LBE517:
 1489              		.loc 1 4377 0
 1490 03f0 FFEE00DA 		vmov.f32	s27, #-1.0e+0
 1491 03f4 B6E6     		b	.L74
 1492              	.LVL177:
 1493              	.L92:
 1494              	.LBE521:
 1495              	.LBE541:
 1496              	.LBB542:
 1497              	.LBB534:
 1498              		.loc 1 4516 0
 1499 03f6 BBEE047A 		vmov.f32	s14, #-2.0e+1
 1500 03fa B4EEC7AA 		vcmpe.f32	s20, s14
 1501 03fe F1EE10FA 		vmrs	APSR_nzcv, FPSCR
 1502 0402 DDD5     		bpl	.L91
 1503 0404 F5EEC07A 		vcmpe.f32	s15, #0
 1504 0408 F1EE10FA 		vmrs	APSR_nzcv, FPSCR
 1505 040c D6DC     		bgt	.L101
 1506 040e D7E7     		b	.L91
 1507              	.LVL178:
 1508              	.L117:
 1509              	.LBE534:
 1510              	.LBE542:
 1511              	.LBB543:
 1512              	.LBB522:
 1513              		.loc 1 4447 0
 1514 0410 FFF7FEFF 		bl	encoder_index_found
 1515              	.LVL179:
 1516              		.loc 1 4448 0
 1517 0414 D5ED007A 		vldr.32	s15, [r5]
 1518              		.loc 1 4447 0
 1519 0418 0028     		cmp	r0, #0
 1520 041a 7FF43FAF 		bne	.L112
 1521              		.loc 1 4451 0
 1522 041e 95ED187A 		vldr.32	s14, [r5, #96]
 1523 0422 67EEAC7A 		vmul.f32	s15, s15, s25
 1524 0426 67EE877A 		vmul.f32	s15, s15, s14
 1525 042a C4ED2F7A 		vstr.32	s15, [r4, #188]
 1526 042e 2CE6     		b	.L73
 1527              	.LVL180:
 1528              	.L116:
 1529              		.loc 1 4425 0
 1530 0430 D4EDB40A 		vldr.32	s1, [r4, #720]
 1531 0434 B0EE490A 		vmov.f32	s0, s18
 1532 0438 FFF7FEFF 		bl	utils_angle_difference
 1533              	.LVL181:
 1534 043c D4EDB57A 		vldr.32	s15, [r4, #724]
 1535              		.loc 1 4426 0
 1536 0440 84EDB58A 		vstr.32	s16, [r4, #724]
 1537              		.loc 1 4425 0
 1538 0444 8EEE277A 		vdiv.f32	s14, s28, s15
 1539 0448 20EE6D0A 		vnmul.f32	s0, s0, s27
ARM GAS  /tmp/ccMYeDWX.s 			page 28


 1540 044c 20EE077A 		vmul.f32	s14, s0, s14
 1541              	.LVL182:
 1542 0450 E6E6     		b	.L79
 1543              	.LBE522:
 1544              	.LBE543:
 1545              	.LBE545:
 1546              		.cfi_endproc
 1547              	.LFE344:
 1548              		.size	pid_thread, .-pid_thread
 1549 0452 00BF     		.section	.text.hfi_thread,"ax",%progbits
 1550              		.align	1
 1551              		.p2align 4,,15
 1552              		.syntax unified
 1553              		.thumb
 1554              		.thumb_func
 1555              		.fpu fpv4-sp-d16
 1556              		.type	hfi_thread, %function
 1557              	hfi_thread:
 1558              	.LFB343:
 1559              		.loc 1 3628 0
 1560              		.cfi_startproc
 1561              		@ args = 0, pretend = 0, frame = 32
 1562              		@ frame_needed = 0, uses_anonymous_args = 0
 1563              	.LVL183:
 1564 0000 2DE9F041 		push	{r4, r5, r6, r7, r8, lr}
 1565              		.cfi_def_cfa_offset 24
 1566              		.cfi_offset 4, -24
 1567              		.cfi_offset 5, -20
 1568              		.cfi_offset 6, -16
 1569              		.cfi_offset 7, -12
 1570              		.cfi_offset 8, -8
 1571              		.cfi_offset 14, -4
 1572              	.LBB555:
 1573              	.LBB556:
 1574              		.loc 2 135 0
 1575 0004 D94B     		ldr	r3, .L163
 1576              	.LBE556:
 1577              	.LBE555:
 1578              		.loc 1 3634 0
 1579 0006 DA4D     		ldr	r5, .L163+4
 1580              	.LBB560:
 1581              	.LBB557:
 1582              		.loc 2 135 0
 1583 0008 9A69     		ldr	r2, [r3, #24]
 1584              	.LBE557:
 1585              	.LBE560:
 1586              		.loc 1 3634 0
 1587 000a 2B78     		ldrb	r3, [r5]	@ zero_extendqisi2
 1588              	.LBB561:
 1589              	.LBB558:
 1590              		.loc 2 135 0
 1591 000c D949     		ldr	r1, .L163+8
 1592              	.LBE558:
 1593              	.LBE561:
 1594              		.loc 1 3628 0
 1595 000e 2DED088B 		vpush.64	{d8, d9, d10, d11}
 1596              		.cfi_def_cfa_offset 56
ARM GAS  /tmp/ccMYeDWX.s 			page 29


 1597              		.cfi_offset 80, -56
 1598              		.cfi_offset 81, -52
 1599              		.cfi_offset 82, -48
 1600              		.cfi_offset 83, -44
 1601              		.cfi_offset 84, -40
 1602              		.cfi_offset 85, -36
 1603              		.cfi_offset 86, -32
 1604              		.cfi_offset 87, -28
 1605              	.LBB562:
 1606              	.LBB559:
 1607              		.loc 2 135 0
 1608 0012 9161     		str	r1, [r2, #24]
 1609              	.LBE559:
 1610              	.LBE562:
 1611              		.loc 1 3628 0
 1612 0014 88B0     		sub	sp, sp, #32
 1613              		.cfi_def_cfa_offset 88
 1614              		.loc 1 3634 0
 1615 0016 002B     		cmp	r3, #0
 1616 0018 40F03581 		bne	.L147
 1617 001c D64C     		ldr	r4, .L163+12
 1618              	.LBB563:
 1619              	.LBB564:
 1620              		.loc 1 3505 0
 1621 001e DFEDD78A 		vldr.32	s17, .L163+16
 1622              	.LBB565:
 1623              		.loc 1 3519 0
 1624 0022 DFEDD79A 		vldr.32	s19, .L163+20
 1625              		.loc 1 3535 0
 1626 0026 9FEDD78A 		vldr.32	s16, .L163+24
 1627              	.LBB566:
 1628              		.loc 1 3618 0
 1629 002a 9FEDD79A 		vldr.32	s18, .L163+28
 1630              	.LBE566:
 1631              		.loc 1 3543 0
 1632 002e 9FEDD7AA 		vldr.32	s20, .L163+32
 1633              	.LBB567:
 1634              		.loc 1 3608 0
 1635 0032 0026     		movs	r6, #0
 1636 0034 6DE0     		b	.L121
 1637              	.LVL184:
 1638              	.L162:
 1639              	.LBE567:
 1640              		.loc 1 3529 0
 1641 0036 2368     		ldr	r3, [r4]
 1642 0038 D3ED2E7A 		vldr.32	s15, [r3, #184]
 1643 003c B7EE007A 		vmov.f32	s14, #1.0e+0
 1644 0040 C7EE276A 		vdiv.f32	s13, s14, s15
 1645              	.LVL185:
 1646              	.L128:
 1647              		.loc 1 3533 0
 1648 0044 94ED247A 		vldr.32	s14, [r4, #144]
 1649 0048 D4ED547A 		vldr.32	s15, [r4, #336]	@ int
 1650              		.loc 1 3535 0
 1651 004c D4ED9A0A 		vldr.32	s1, [r4, #616]
 1652              		.loc 1 3533 0
 1653 0050 FAEEEF7A 		vcvt.f32.s32	s15, s15, #1
ARM GAS  /tmp/ccMYeDWX.s 			page 30


 1654 0054 67EE877A 		vmul.f32	s15, s15, s14
 1655 0058 A7EEA60A 		vfma.f32	s0, s15, s13
 1656 005c F0EE407A 		vmov.f32	s15, s0
 1657              		.loc 1 3535 0
 1658 0060 30EE080A 		vadd.f32	s0, s0, s16
 1659              		.loc 1 3533 0
 1660 0064 CDED057A 		vstr.32	s15, [sp, #20]
 1661              		.loc 1 3535 0
 1662 0068 FFF7FEFF 		bl	utils_angle_difference_rad
 1663              	.LVL186:
 1664              		.loc 1 3536 0
 1665 006c D4ED9A0A 		vldr.32	s1, [r4, #616]
 1666              		.loc 1 3535 0
 1667 0070 B0EE40BA 		vmov.f32	s22, s0
 1668              		.loc 1 3536 0
 1669 0074 9DED050A 		vldr.32	s0, [sp, #20]
 1670 0078 FFF7FEFF 		bl	utils_angle_difference_rad
 1671              	.LVL187:
 1672              		.loc 1 3535 0
 1673 007c B0EECBBA 		vabs.f32	s22, s22
 1674              		.loc 1 3536 0
 1675 0080 B0EEC00A 		vabs.f32	s0, s0
 1676              		.loc 1 3535 0
 1677 0084 B4EEC0BA 		vcmpe.f32	s22, s0
 1678 0088 F1EE10FA 		vmrs	APSR_nzcv, FPSCR
 1679 008c 05D5     		bpl	.L129
 1680              		.loc 1 3537 0
 1681 008e DDED057A 		vldr.32	s15, [sp, #20]
 1682 0092 77EE887A 		vadd.f32	s15, s15, s16
 1683 0096 CDED057A 		vstr.32	s15, [sp, #20]
 1684              	.L129:
 1685              		.loc 1 3540 0
 1686 009a D4F86C22 		ldr	r2, [r4, #620]
 1687 009e 2368     		ldr	r3, [r4]
 1688 00a0 B3F86831 		ldrh	r3, [r3, #360]
 1689 00a4 9A42     		cmp	r2, r3
 1690 00a6 C0F2F580 		blt	.L156
 1691              	.L132:
 1692              		.loc 1 3548 0
 1693 00aa D4F86C22 		ldr	r2, [r4, #620]
 1694 00ae 2368     		ldr	r3, [r4]
 1695 00b0 B3F86831 		ldrh	r3, [r3, #360]
 1696 00b4 9A42     		cmp	r2, r3
 1697 00b6 16DB     		blt	.L136
 1698              		.loc 1 3549 0
 1699 00b8 D4F87432 		ldr	r3, [r4, #628]
 1700 00bc 2268     		ldr	r2, [r4]
 1701 00be B2F86821 		ldrh	r2, [r2, #360]
 1702 00c2 B3EB520F 		cmp	r3, r2, lsr #1
 1703 00c6 05DB     		blt	.L137
 1704              		.loc 1 3550 0
 1705 00c8 DDED057A 		vldr.32	s15, [sp, #20]
 1706 00cc 77EE887A 		vadd.f32	s15, s15, s16
 1707 00d0 CDED057A 		vstr.32	s15, [sp, #20]
 1708              	.L137:
 1709              		.loc 1 3552 0
 1710 00d4 0023     		movs	r3, #0
ARM GAS  /tmp/ccMYeDWX.s 			page 31


 1711 00d6 C4F87432 		str	r3, [r4, #628]
 1712              		.loc 1 3554 0
 1713 00da 2368     		ldr	r3, [r4]
 1714 00dc 93F82C31 		ldrb	r3, [r3, #300]	@ zero_extendqisi2
 1715 00e0 042B     		cmp	r3, #4
 1716 00e2 00F05D81 		beq	.L157
 1717              	.L136:
 1718              		.loc 1 3563 0
 1719 00e6 059B     		ldr	r3, [sp, #20]	@ float
 1720              		.loc 1 3564 0
 1721 00e8 A948     		ldr	r0, .L163+36
 1722              		.loc 1 3563 0
 1723 00ea C4F86832 		str	r3, [r4, #616]	@ float
 1724              		.loc 1 3564 0
 1725 00ee FFF7FEFF 		bl	utils_norm_angle_rad
 1726              	.LVL188:
 1727              		.loc 1 3570 0
 1728 00f2 D4F87872 		ldr	r7, [r4, #632]
 1729 00f6 012F     		cmp	r7, #1
 1730 00f8 6FD0     		beq	.L158
 1731              		.loc 1 3603 0
 1732 00fa D4F87832 		ldr	r3, [r4, #632]
 1733 00fe 022B     		cmp	r3, #2
 1734 0100 00F0E180 		beq	.L159
 1735              	.LVL189:
 1736              	.L146:
 1737              	.LBE565:
 1738              	.LBE564:
 1739              	.LBE563:
 1740              		.loc 1 3644 0
 1741 0104 0520     		movs	r0, #5
 1742 0106 FFF7FEFF 		bl	chThdSleep
 1743              	.LVL190:
 1744              		.loc 1 3634 0
 1745 010a 2B78     		ldrb	r3, [r5]	@ zero_extendqisi2
 1746 010c 002B     		cmp	r3, #0
 1747 010e 40F0BA80 		bne	.L147
 1748              	.L121:
 1749              	.LVL191:
 1750              	.LBB582:
 1751              	.LBB579:
 1752              		.loc 1 3505 0
 1753 0112 D4ED4B7A 		vldr.32	s15, [r4, #300]
 1754              	.LVL192:
 1755              		.loc 1 3507 0
 1756 0116 2368     		ldr	r3, [r4]
 1757              		.loc 1 3505 0
 1758 0118 67EEA87A 		vmul.f32	s15, s15, s17
 1759              	.LVL193:
 1760              		.loc 1 3507 0
 1761 011c 93ED597A 		vldr.32	s14, [r3, #356]
 1762              		.loc 1 3505 0
 1763 0120 F0EEE77A 		vabs.f32	s15, s15
 1764              		.loc 1 3507 0
 1765 0124 F4EEC77A 		vcmpe.f32	s15, s14
 1766 0128 F1EE10FA 		vmrs	APSR_nzcv, FPSCR
 1767              		.loc 1 3508 0
ARM GAS  /tmp/ccMYeDWX.s 			page 32


 1768 012c C4BF     		itt	gt
 1769 012e D4F8E030 		ldrgt	r3, [r4, #224]	@ float
 1770 0132 C4F86832 		strgt	r3, [r4, #616]	@ float
 1771              		.loc 1 3511 0
 1772 0136 94F85832 		ldrb	r3, [r4, #600]	@ zero_extendqisi2
 1773 013a 002B     		cmp	r3, #0
 1774 013c 00F00E81 		beq	.L124
 1775              	.LBB575:
 1776              		.loc 1 3513 0
 1777 0140 D4F84831 		ldr	r3, [r4, #328]
 1778 0144 9348     		ldr	r0, .L163+40
 1779 0146 01AA     		add	r2, sp, #4
 1780 0148 6946     		mov	r1, sp
 1781 014a 9847     		blx	r3
 1782              	.LVL194:
 1783              		.loc 1 3514 0
 1784 014c D4F84C31 		ldr	r3, [r4, #332]
 1785 0150 9048     		ldr	r0, .L163+40
 1786 0152 03AA     		add	r2, sp, #12
 1787 0154 02A9     		add	r1, sp, #8
 1788 0156 9847     		blx	r3
 1789              	.LVL195:
 1790              		.loc 1 3516 0
 1791 0158 DDED000A 		vldr.32	s1, [sp]
 1792 015c 9DED010A 		vldr.32	s0, [sp, #4]
 1793 0160 60EEA07A 		vmul.f32	s15, s1, s1
 1794 0164 E0EE007A 		vfma.f32	s15, s0, s0
 1795 0168 F5EE407A 		vcmp.f32	s15, #0
 1796 016c F1EE10FA 		vmrs	APSR_nzcv, FPSCR
 1797 0170 F1EEE7AA 		vsqrt.f32	s21, s15
 1798 0174 00F13981 		bmi	.L160
 1799              	.L125:
 1800              	.LVL196:
 1801              		.loc 1 3517 0
 1802 0178 FFF7FEFF 		bl	utils_fast_atan2
 1803              	.LVL197:
 1804              		.loc 1 3519 0
 1805 017c 08A8     		add	r0, sp, #32
 1806 017e 39EEC00A 		vsub.f32	s0, s19, s0
 1807 0182 10EE103A 		vmov	r3, s0
 1808 0186 40F8103D 		str	r3, [r0, #-16]!	@ float
 1809              		.loc 1 3520 0
 1810 018a FFF7FEFF 		bl	utils_norm_angle_rad
 1811              	.LVL198:
 1812              		.loc 1 3522 0
 1813 018e DDED020A 		vldr.32	s1, [sp, #8]
 1814 0192 9DED030A 		vldr.32	s0, [sp, #12]
 1815 0196 60EEA07A 		vmul.f32	s15, s1, s1
 1816 019a E0EE007A 		vfma.f32	s15, s0, s0
 1817 019e F5EE407A 		vcmp.f32	s15, #0
 1818 01a2 F1EE10FA 		vmrs	APSR_nzcv, FPSCR
 1819 01a6 F1EEE7BA 		vsqrt.f32	s23, s15
 1820 01aa 00F11581 		bmi	.L161
 1821              	.L126:
 1822              	.LVL199:
 1823              		.loc 1 3523 0
 1824 01ae FFF7FEFF 		bl	utils_fast_atan2
ARM GAS  /tmp/ccMYeDWX.s 			page 33


 1825              	.LVL200:
 1826              		.loc 1 3528 0
 1827 01b2 2368     		ldr	r3, [r4]
 1828 01b4 93F84031 		ldrb	r3, [r3, #320]	@ zero_extendqisi2
 1829              		.loc 1 3523 0
 1830 01b8 F6EE007A 		vmov.f32	s15, #5.0e-1
 1831 01bc 20EE670A 		vnmul.f32	s0, s0, s15
 1832              		.loc 1 3528 0
 1833 01c0 002B     		cmp	r3, #0
 1834 01c2 7FF438AF 		bne	.L162
 1835              		.loc 1 3531 0
 1836 01c6 2368     		ldr	r3, [r4]
 1837 01c8 93ED2E7A 		vldr.32	s14, [r3, #184]
 1838 01cc 67EE277A 		vmul.f32	s15, s14, s15
 1839 01d0 B7EE007A 		vmov.f32	s14, #1.0e+0
 1840 01d4 C7EE276A 		vdiv.f32	s13, s14, s15
 1841              	.LVL201:
 1842 01d8 34E7     		b	.L128
 1843              	.LVL202:
 1844              	.L158:
 1845              	.LBB568:
 1846              		.loc 1 3572 0
 1847 01da 6F4B     		ldr	r3, .L163+44
 1848 01dc D3ED007A 		vldr.32	s15, [r3]
 1849 01e0 B7EE00BA 		vmov.f32	s22, #1.0e+0
 1850 01e4 77EE8B7A 		vadd.f32	s15, s15, s22
 1851              		.loc 1 3574 0
 1852 01e8 B2EE007A 		vmov.f32	s14, #8.0e+0
 1853 01ec F4EEC77A 		vcmpe.f32	s15, s14
 1854 01f0 F1EE10FA 		vmrs	APSR_nzcv, FPSCR
 1855 01f4 C0F2B780 		blt	.L155
 1856              	.LBB569:
 1857              		.loc 1 3578 0
 1858 01f8 07AA     		add	r2, sp, #28
 1859 01fa 06A9     		add	r1, sp, #24
 1860 01fc 6548     		ldr	r0, .L163+40
 1861 01fe D4F84481 		ldr	r8, [r4, #324]
 1862              		.loc 1 3575 0
 1863 0202 1E60     		str	r6, [r3]	@ float
 1864              		.loc 1 3578 0
 1865 0204 C047     		blx	r8
 1866              	.LVL203:
 1867              		.loc 1 3580 0
 1868 0206 0020     		movs	r0, #0
 1869 0208 FFF7FEFF 		bl	commands_plot_set_graph
 1870              	.LVL204:
 1871              		.loc 1 3581 0
 1872 020c 94ED9F0A 		vldr.32	s0, [r4, #636]
 1873 0210 D4ED9A0A 		vldr.32	s1, [r4, #616]
 1874 0214 FFF7FEFF 		bl	commands_send_plot_points
 1875              	.LVL205:
 1876              		.loc 1 3583 0
 1877 0218 3846     		mov	r0, r7
 1878 021a FFF7FEFF 		bl	commands_plot_set_graph
 1879              	.LVL206:
 1880              		.loc 1 3584 0
 1881 021e 94ED9F0A 		vldr.32	s0, [r4, #636]
ARM GAS  /tmp/ccMYeDWX.s 			page 34


 1882 0222 DDED040A 		vldr.32	s1, [sp, #16]
 1883 0226 FFF7FEFF 		bl	commands_send_plot_points
 1884              	.LVL207:
 1885              		.loc 1 3586 0
 1886 022a 0220     		movs	r0, #2
 1887 022c FFF7FEFF 		bl	commands_plot_set_graph
 1888              	.LVL208:
 1889              		.loc 1 3587 0
 1890 0230 7BEEABBA 		vadd.f32	s23, s23, s23
 1891              	.LVL209:
 1892 0234 94ED9F0A 		vldr.32	s0, [r4, #636]
 1893 0238 6BEE890A 		vmul.f32	s1, s23, s18
 1894 023c FFF7FEFF 		bl	commands_send_plot_points
 1895              	.LVL210:
 1896              		.loc 1 3589 0
 1897 0240 0320     		movs	r0, #3
 1898 0242 FFF7FEFF 		bl	commands_plot_set_graph
 1899              	.LVL211:
 1900              		.loc 1 3590 0
 1901 0246 7AEEAAAA 		vadd.f32	s21, s21, s21
 1902              	.LVL212:
 1903 024a 94ED9F0A 		vldr.32	s0, [r4, #636]
 1904 024e 6AEE890A 		vmul.f32	s1, s21, s18
 1905 0252 FFF7FEFF 		bl	commands_send_plot_points
 1906              	.LVL213:
 1907              		.loc 1 3592 0
 1908 0256 0420     		movs	r0, #4
 1909 0258 FFF7FEFF 		bl	commands_plot_set_graph
 1910              	.LVL214:
 1911              		.loc 1 3593 0
 1912 025c DDED060A 		vldr.32	s1, [sp, #24]
 1913 0260 94ED9F0A 		vldr.32	s0, [r4, #636]
 1914 0264 60EE890A 		vmul.f32	s1, s1, s18
 1915 0268 FFF7FEFF 		bl	commands_send_plot_points
 1916              	.LVL215:
 1917              		.loc 1 3601 0
 1918 026c D4ED9F7A 		vldr.32	s15, [r4, #636]
 1919 0270 77EE8B7A 		vadd.f32	s15, s15, s22
 1920              	.LBE569:
 1921              	.LBE568:
 1922              	.LBE575:
 1923              	.LBE579:
 1924              	.LBE582:
 1925              		.loc 1 3644 0
 1926 0274 0520     		movs	r0, #5
 1927              	.LBB583:
 1928              	.LBB580:
 1929              	.LBB576:
 1930              	.LBB571:
 1931              	.LBB570:
 1932              		.loc 1 3601 0
 1933 0276 C4ED9F7A 		vstr.32	s15, [r4, #636]
 1934              	.LVL216:
 1935              	.LBE570:
 1936              	.LBE571:
 1937              	.LBE576:
 1938              	.LBE580:
ARM GAS  /tmp/ccMYeDWX.s 			page 35


 1939              	.LBE583:
 1940              		.loc 1 3644 0
 1941 027a FFF7FEFF 		bl	chThdSleep
 1942              	.LVL217:
 1943              		.loc 1 3634 0
 1944 027e 2B78     		ldrb	r3, [r5]	@ zero_extendqisi2
 1945 0280 002B     		cmp	r3, #0
 1946 0282 3FF446AF 		beq	.L121
 1947              	.L147:
 1948              		.loc 1 3635 0
 1949 0286 0023     		movs	r3, #0
 1950 0288 2B70     		strb	r3, [r5]
 1951              		.loc 1 3646 0
 1952 028a 08B0     		add	sp, sp, #32
 1953              		.cfi_remember_state
 1954              		.cfi_def_cfa_offset 56
 1955              		@ sp needed
 1956 028c BDEC088B 		vldm	sp!, {d8-d11}
 1957              		.cfi_restore 86
 1958              		.cfi_restore 87
 1959              		.cfi_restore 84
 1960              		.cfi_restore 85
 1961              		.cfi_restore 82
 1962              		.cfi_restore 83
 1963              		.cfi_restore 80
 1964              		.cfi_restore 81
 1965              		.cfi_def_cfa_offset 24
 1966 0290 BDE8F081 		pop	{r4, r5, r6, r7, r8, pc}
 1967              	.LVL218:
 1968              	.L156:
 1969              		.cfi_restore_state
 1970              	.LBB584:
 1971              	.LBB581:
 1972              	.LBB577:
 1973              		.loc 1 3541 0
 1974 0294 D4F86C32 		ldr	r3, [r4, #620]
 1975              		.loc 1 3543 0
 1976 0298 DDED040A 		vldr.32	s1, [sp, #16]
 1977 029c 9DED050A 		vldr.32	s0, [sp, #20]
 1978              		.loc 1 3541 0
 1979 02a0 0133     		adds	r3, r3, #1
 1980 02a2 C4F86C32 		str	r3, [r4, #620]
 1981              		.loc 1 3543 0
 1982 02a6 FFF7FEFF 		bl	utils_angle_difference_rad
 1983              	.LVL219:
 1984 02aa B0EEC00A 		vabs.f32	s0, s0
 1985 02ae B4EECA0A 		vcmpe.f32	s0, s20
 1986 02b2 F1EE10FA 		vmrs	APSR_nzcv, FPSCR
 1987 02b6 7FF7F8AE 		ble	.L132
 1988              		.loc 1 3544 0
 1989 02ba D4F87432 		ldr	r3, [r4, #628]
 1990 02be 0133     		adds	r3, r3, #1
 1991 02c0 C4F87432 		str	r3, [r4, #628]
 1992 02c4 F1E6     		b	.L132
 1993              	.L159:
 1994              	.LBB572:
 1995              		.loc 1 3605 0
ARM GAS  /tmp/ccMYeDWX.s 			page 36


 1996 02c6 354B     		ldr	r3, .L163+48
 1997 02c8 D3ED007A 		vldr.32	s15, [r3]
 1998 02cc B7EE007A 		vmov.f32	s14, #1.0e+0
 1999 02d0 77EE877A 		vadd.f32	s15, s15, s14
 2000              		.loc 1 3607 0
 2001 02d4 B2EE007A 		vmov.f32	s14, #8.0e+0
 2002 02d8 F4EEC77A 		vcmpe.f32	s15, s14
 2003 02dc F1EE10FA 		vmrs	APSR_nzcv, FPSCR
 2004 02e0 41DB     		blt	.L155
 2005              		.loc 1 3610 0
 2006 02e2 94ED9F7A 		vldr.32	s14, [r4, #636]
 2007 02e6 D4ED547A 		vldr.32	s15, [r4, #336]	@ int
 2008              		.loc 1 3608 0
 2009 02ea 1E60     		str	r6, [r3]	@ float
 2010              		.loc 1 3610 0
 2011 02ec F8EEE77A 		vcvt.f32.s32	s15, s15
 2012              		.loc 1 3614 0
 2013 02f0 0020     		movs	r0, #0
 2014              		.loc 1 3610 0
 2015 02f2 B4EEE77A 		vcmpe.f32	s14, s15
 2016 02f6 F1EE10FA 		vmrs	APSR_nzcv, FPSCR
 2017              		.loc 1 3611 0
 2018 02fa A8BF     		it	ge
 2019 02fc C4F87C62 		strge	r6, [r4, #636]	@ float
 2020              		.loc 1 3614 0
 2021 0300 FFF7FEFF 		bl	commands_plot_set_graph
 2022              	.LVL220:
 2023              		.loc 1 3615 0
 2024 0304 94ED9F0A 		vldr.32	s0, [r4, #636]
 2025 0308 D4ED9F7A 		vldr.32	s15, [r4, #636]
 2026 030c FDEEE77A 		vcvt.s32.f32	s15, s15
 2027 0310 17EE903A 		vmov	r3, s15	@ int
 2028 0314 7433     		adds	r3, r3, #116
 2029 0316 04EB8303 		add	r3, r4, r3, lsl #2
 2030 031a D3ED020A 		vldr.32	s1, [r3, #8]
 2031 031e FFF7FEFF 		bl	commands_send_plot_points
 2032              	.LVL221:
 2033              		.loc 1 3617 0
 2034 0322 0120     		movs	r0, #1
 2035 0324 FFF7FEFF 		bl	commands_plot_set_graph
 2036              	.LVL222:
 2037              		.loc 1 3618 0
 2038 0328 94ED9F0A 		vldr.32	s0, [r4, #636]
 2039 032c D4ED9F7A 		vldr.32	s15, [r4, #636]
 2040 0330 FDEEE77A 		vcvt.s32.f32	s15, s15
 2041 0334 17EE903A 		vmov	r3, s15	@ int
 2042 0338 5433     		adds	r3, r3, #84
 2043 033a 04EB8303 		add	r3, r4, r3, lsl #2
 2044 033e D3ED020A 		vldr.32	s1, [r3, #8]
 2045 0342 60EE890A 		vmul.f32	s1, s1, s18
 2046 0346 FFF7FEFF 		bl	commands_send_plot_points
 2047              	.LVL223:
 2048              		.loc 1 3620 0
 2049 034a D4ED9F7A 		vldr.32	s15, [r4, #636]
 2050 034e B7EE007A 		vmov.f32	s14, #1.0e+0
 2051 0352 77EE877A 		vadd.f32	s15, s15, s14
 2052 0356 C4ED9F7A 		vstr.32	s15, [r4, #636]
ARM GAS  /tmp/ccMYeDWX.s 			page 37


 2053 035a D3E6     		b	.L146
 2054              	.LVL224:
 2055              	.L124:
 2056              	.LBE572:
 2057              	.LBE577:
 2058              		.loc 1 3624 0
 2059 035c D4F8E030 		ldr	r3, [r4, #224]	@ float
 2060 0360 C4F86832 		str	r3, [r4, #616]	@ float
 2061 0364 CEE6     		b	.L146
 2062              	.LVL225:
 2063              	.L155:
 2064              	.LBB578:
 2065              	.LBB573:
 2066              		.loc 1 3605 0
 2067 0366 C3ED007A 		vstr.32	s15, [r3]
 2068 036a CBE6     		b	.L146
 2069              	.L164:
 2070              		.align	2
 2071              	.L163:
 2072 036c 00000000 		.word	ch
 2073 0370 00000000 		.word	.LANCHOR2
 2074 0374 00000000 		.word	.LC24
 2075 0378 00000000 		.word	.LANCHOR0
 2076 037c EBC91841 		.word	1092143595
 2077 0380 1F8BEC3F 		.word	1072466719
 2078 0384 DB0F4940 		.word	1078530011
 2079 0388 00247449 		.word	1232348160
 2080 038c DB0FC93F 		.word	1070141403
 2081 0390 68020000 		.word	.LANCHOR0+616
 2082 0394 58010000 		.word	.LANCHOR0+344
 2083 0398 00000000 		.word	.LANCHOR3
 2084 039c 00000000 		.word	.LANCHOR4
 2085              	.L157:
 2086              	.LBE573:
 2087              	.LBB574:
 2088              		.loc 1 3556 0
 2089 03a0 05A8     		add	r0, sp, #20
 2090 03a2 FFF7FEFF 		bl	utils_norm_angle_rad
 2091              	.LVL226:
 2092              		.loc 1 3557 0
 2093 03a6 07A9     		add	r1, sp, #28
 2094 03a8 06A8     		add	r0, sp, #24
 2095 03aa 9DED050A 		vldr.32	s0, [sp, #20]
 2096 03ae FFF7FEFF 		bl	utils_fast_sincos_better
 2097              	.LVL227:
 2098              		.loc 1 3558 0
 2099 03b2 2368     		ldr	r3, [r4]
 2100 03b4 DDED077A 		vldr.32	s15, [sp, #28]
 2101 03b8 93ED3B7A 		vldr.32	s14, [r3, #236]
 2102              		.loc 1 3559 0
 2103 03bc DDED066A 		vldr.32	s13, [sp, #24]
 2104              		.loc 1 3558 0
 2105 03c0 27EE277A 		vmul.f32	s14, s14, s15
 2106 03c4 84ED3F7A 		vstr.32	s14, [r4, #252]
 2107              		.loc 1 3559 0
 2108 03c8 2368     		ldr	r3, [r4]
 2109 03ca D3ED3B7A 		vldr.32	s15, [r3, #236]
ARM GAS  /tmp/ccMYeDWX.s 			page 38


 2110 03ce 67EEA67A 		vmul.f32	s15, s15, s13
 2111 03d2 C4ED407A 		vstr.32	s15, [r4, #256]
 2112 03d6 86E6     		b	.L136
 2113              	.LVL228:
 2114              	.L161:
 2115              	.LBE574:
 2116              		.loc 1 3522 0
 2117 03d8 B0EE670A 		vmov.f32	s0, s15
 2118 03dc FFF7FEFF 		bl	sqrtf
 2119              	.LVL229:
 2120 03e0 9DED030A 		vldr.32	s0, [sp, #12]
 2121 03e4 DDED020A 		vldr.32	s1, [sp, #8]
 2122 03e8 E1E6     		b	.L126
 2123              	.LVL230:
 2124              	.L160:
 2125              		.loc 1 3516 0
 2126 03ea B0EE670A 		vmov.f32	s0, s15
 2127 03ee FFF7FEFF 		bl	sqrtf
 2128              	.LVL231:
 2129 03f2 9DED010A 		vldr.32	s0, [sp, #4]
 2130 03f6 DDED000A 		vldr.32	s1, [sp]
 2131 03fa BDE6     		b	.L125
 2132              	.LBE578:
 2133              	.LBE581:
 2134              	.LBE584:
 2135              		.cfi_endproc
 2136              	.LFE343:
 2137              		.size	hfi_thread, .-hfi_thread
 2138              		.section	.text.update_valpha_vbeta.constprop.9,"ax",%progbits
 2139              		.align	1
 2140              		.p2align 4,,15
 2141              		.syntax unified
 2142              		.thumb
 2143              		.thumb_func
 2144              		.fpu fpv4-sp-d16
 2145              		.type	update_valpha_vbeta.constprop.9, %function
 2146              	update_valpha_vbeta.constprop.9:
 2147              	.LFB369:
 2148              		.loc 1 4058 0
 2149              		.cfi_startproc
 2150              		@ args = 0, pretend = 0, frame = 0
 2151              		@ frame_needed = 0, uses_anonymous_args = 0
 2152              	.LVL232:
 2153 0000 10B5     		push	{r4, lr}
 2154              		.cfi_def_cfa_offset 8
 2155              		.cfi_offset 4, -8
 2156              		.cfi_offset 14, -4
 2157              		.loc 1 4060 0
 2158 0002 AD4C     		ldr	r4, .L196
 2159              		.loc 1 4108 0
 2160 0004 9FEDAD1A 		vldr.32	s2, .L196+4
 2161              		.loc 1 4060 0
 2162 0008 2368     		ldr	r3, [r4]
 2163              	.LVL233:
 2164              		.loc 1 4064 0
 2165 000a 2279     		ldrb	r2, [r4, #4]	@ zero_extendqisi2
 2166              		.loc 1 4092 0
ARM GAS  /tmp/ccMYeDWX.s 			page 39


 2167 000c DFEDAC1A 		vldr.32	s3, .L196+8
 2168 0010 DFEDAC3A 		vldr.32	s7, .L196+12
 2169              		.loc 1 4116 0
 2170 0014 9FEDAC3A 		vldr.32	s6, .L196+16
 2171              		.loc 1 4064 0
 2172 0018 022A     		cmp	r2, #2
 2173              		.loc 1 4092 0
 2174 001a AC4A     		ldr	r2, .L196+20
 2175              		.loc 1 4063 0
 2176 001c 14BF     		ite	ne
 2177 001e 93ED636A 		vldrne.32	s12, [r3, #396]
 2178              		.loc 1 4065 0
 2179 0022 93ED606A 		vldreq.32	s12, [r3, #384]
 2180              		.loc 1 4092 0
 2181 0026 1088     		ldrh	r0, [r2]
 2182              		.loc 1 4063 0
 2183 0028 14BF     		ite	ne
 2184 002a 03F5C671 		addne	r1, r3, #396
 2185              		.loc 1 4065 0
 2186 002e 03F5C071 		addeq	r1, r3, #384
 2187              	.LVL234:
 2188              		.loc 1 4058 0
 2189 0032 2DED068B 		vpush.64	{d8, d9, d10}
 2190              		.cfi_def_cfa_offset 32
 2191              		.cfi_offset 80, -32
 2192              		.cfi_offset 81, -28
 2193              		.cfi_offset 82, -24
 2194              		.cfi_offset 83, -20
 2195              		.cfi_offset 84, -16
 2196              		.cfi_offset 85, -12
 2197              		.loc 1 4092 0
 2198 0036 04EE100A 		vmov	s8, r0	@ int
 2199              		.loc 1 4093 0
 2200 003a 5088     		ldrh	r0, [r2, #2]
 2201 003c 91ED017A 		vldr.32	s14, [r1, #4]
 2202              		.loc 1 4094 0
 2203 0040 9288     		ldrh	r2, [r2, #4]
 2204 0042 91ED028A 		vldr.32	s16, [r1, #8]
 2205              		.loc 1 4103 0
 2206 0046 D4ED102A 		vldr.32	s5, [r4, #64]
 2207              		.loc 1 4104 0
 2208 004a 94ED0F5A 		vldr.32	s10, [r4, #60]
 2209              		.loc 1 4105 0
 2210 004e D4ED1E8A 		vldr.32	s17, [r4, #120]
 2211 0052 D4ED1F6A 		vldr.32	s13, [r4, #124]
 2212              		.loc 1 4106 0
 2213 0056 94ED1F9A 		vldr.32	s18, [r4, #124]
 2214 005a D4ED1E7A 		vldr.32	s15, [r4, #120]
 2215              		.loc 1 4116 0
 2216 005e D3ED2F5A 		vldr.32	s11, [r3, #188]
 2217              		.loc 1 4106 0
 2218 0062 62EEA77A 		vmul.f32	s15, s5, s15
 2219              		.loc 1 4105 0
 2220 0066 66EEE26A 		vnmul.f32	s13, s13, s5
 2221              		.loc 1 4106 0
 2222 006a E5EE097A 		vfma.f32	s15, s10, s18
 2223              		.loc 1 4105 0
ARM GAS  /tmp/ccMYeDWX.s 			page 40


 2224 006e E5EE286A 		vfma.f32	s13, s10, s17
 2225              		.loc 1 4108 0
 2226 0072 67EE817A 		vmul.f32	s15, s15, s2
 2227 0076 BEEE005A 		vmov.f32	s10, #-5.0e-1
 2228 007a B0EE671A 		vmov.f32	s2, s15
 2229 007e A6EE851A 		vfma.f32	s2, s13, s10
 2230              		.loc 1 4109 0
 2231 0082 D6EE857A 		vfnms.f32	s15, s13, s10
 2232              		.loc 1 4093 0
 2233 0086 02EE100A 		vmov	s4, r0	@ int
 2234              		.loc 1 4113 0
 2235 008a F5EEC06A 		vcmpe.f32	s13, #0
 2236 008e F1EE10FA 		vmrs	APSR_nzcv, FPSCR
 2237 0092 F0EE002A 		vmov.f32	s5, #2.0e+0
 2238 0096 B5EEC01A 		vcmpe.f32	s2, #0
 2239              		.loc 1 4093 0
 2240 009a B8EE422A 		vcvt.f32.u32	s4, s4
 2241              		.loc 1 4113 0
 2242 009e F8EE006A 		vmov.f32	s13, #-2.0e+0
 2243 00a2 58BF     		it	pl
 2244 00a4 F0EE626A 		vmovpl.f32	s13, s5
 2245 00a8 BFEE005A 		vmov.f32	s10, #-1.0e+0
 2246 00ac F1EE10FA 		vmrs	APSR_nzcv, FPSCR
 2247 00b0 B7EE001A 		vmov.f32	s2, #1.0e+0
 2248              		.loc 1 4094 0
 2249 00b4 04EE902A 		vmov	s9, r2	@ int
 2250              		.loc 1 4092 0
 2251 00b8 B8EE444A 		vcvt.f32.u32	s8, s8
 2252              		.loc 1 4093 0
 2253 00bc 22EE212A 		vmul.f32	s4, s4, s3
 2254              		.loc 1 4113 0
 2255 00c0 F5EEC07A 		vcmpe.f32	s15, #0
 2256 00c4 54BF     		ite	pl
 2257 00c6 F0EE417A 		vmovpl.f32	s15, s2
 2258 00ca F0EE457A 		vmovmi.f32	s15, s10
 2259              		.loc 1 4092 0
 2260 00ce 24EE214A 		vmul.f32	s8, s8, s3
 2261              		.loc 1 4113 0
 2262 00d2 76EEE76A 		vsub.f32	s13, s13, s15
 2263 00d6 F1EE10FA 		vmrs	APSR_nzcv, FPSCR
 2264              		.loc 1 4094 0
 2265 00da F8EE644A 		vcvt.f32.u32	s9, s9
 2266              		.loc 1 4113 0
 2267 00de 58BF     		it	pl
 2268 00e0 B0EE415A 		vmovpl.f32	s10, s2
 2269              		.loc 1 4093 0
 2270 00e4 92EE237A 		vfnms.f32	s14, s4, s7
 2271              		.loc 1 4092 0
 2272 00e8 94EE236A 		vfnms.f32	s12, s8, s7
 2273              		.loc 1 4094 0
 2274 00ec 64EEA14A 		vmul.f32	s9, s9, s3
 2275              		.loc 1 4113 0
 2276 00f0 76EEC56A 		vsub.f32	s13, s13, s10
 2277 00f4 DFED761A 		vldr.32	s3, .L196+24
 2278              		.loc 1 4114 0
 2279 00f8 9FED762A 		vldr.32	s4, .L196+28
 2280              		.loc 1 4092 0
ARM GAS  /tmp/ccMYeDWX.s 			page 41


 2281 00fc 9FED764A 		vldr.32	s8, .L196+32
 2282              		.loc 1 4114 0
 2283 0100 37EEC55A 		vsub.f32	s10, s15, s10
 2284              		.loc 1 4116 0
 2285 0104 65EE835A 		vmul.f32	s11, s11, s6
 2286 0108 D3ED2E7A 		vldr.32	s15, [r3, #184]
 2287              		.loc 1 4094 0
 2288 010c 94EEA38A 		vfnms.f32	s16, s9, s7
 2289              		.loc 1 4116 0
 2290 0110 65EEA75A 		vmul.f32	s11, s11, s15
 2291              		.loc 1 4120 0
 2292 0114 61EEE66A 		vnmul.f32	s13, s3, s13
 2293              		.loc 1 4121 0
 2294 0118 22EE455A 		vnmul.f32	s10, s4, s10
 2295              		.loc 1 4093 0
 2296 011c 67EE047A 		vmul.f32	s15, s14, s8
 2297              		.loc 1 4092 0
 2298 0120 26EE046A 		vmul.f32	s12, s12, s8
 2299              	.LVL235:
 2300              		.loc 1 4120 0
 2301 0124 A6EEA50A 		vfma.f32	s0, s13, s11
 2302              	.LVL236:
 2303              		.loc 1 4121 0
 2304 0128 E5EE250A 		vfma.f32	s1, s10, s11
 2305              	.LVL237:
 2306              		.loc 1 4131 0
 2307 012c F0EE678A 		vmov.f32	s17, s15
 2308              		.loc 1 4094 0
 2309 0130 28EE048A 		vmul.f32	s16, s16, s8
 2310              		.loc 1 4131 0
 2311 0134 D6EE228A 		vfnms.f32	s17, s12, s5
 2312              		.loc 1 4123 0
 2313 0138 84ED026A 		vstr.32	s12, [r4, #8]
 2314              		.loc 1 4124 0
 2315 013c C4ED037A 		vstr.32	s15, [r4, #12]
 2316              		.loc 1 4125 0
 2317 0140 84ED048A 		vstr.32	s16, [r4, #16]
 2318              		.loc 1 4126 0
 2319 0144 84ED080A 		vstr.32	s0, [r4, #32]
 2320              		.loc 1 4127 0
 2321 0148 C4ED090A 		vstr.32	s1, [r4, #36]
 2322              		.loc 1 4136 0
 2323 014c 2379     		ldrb	r3, [r4, #4]	@ zero_extendqisi2
 2324              	.LVL238:
 2325              		.loc 1 4131 0
 2326 014e 78EEC88A 		vsub.f32	s17, s17, s16
 2327              		.loc 1 4132 0
 2328 0152 77EEC87A 		vsub.f32	s15, s15, s16
 2329              	.LVL239:
 2330              		.loc 1 4136 0
 2331 0156 022B     		cmp	r3, #2
 2332              		.loc 1 4120 0
 2333 0158 B0EE40AA 		vmov.f32	s20, s0
 2334              	.LVL240:
 2335              		.loc 1 4121 0
 2336 015c B0EE609A 		vmov.f32	s18, s1
 2337              		.loc 1 4131 0
ARM GAS  /tmp/ccMYeDWX.s 			page 42


 2338 0160 68EEA18A 		vmul.f32	s17, s17, s3
 2339              	.LVL241:
 2340              		.loc 1 4132 0
 2341 0164 27EE828A 		vmul.f32	s16, s15, s4
 2342              	.LVL242:
 2343              		.loc 1 4136 0
 2344 0168 09D0     		beq	.L171
 2345              	.LBB585:
 2346              		.loc 1 4138 0
 2347 016a D4ED167A 		vldr.32	s15, [r4, #88]
 2348 016e B7EE087A 		vmov.f32	s14, #1.5e+0
 2349              	.LVL243:
 2350 0172 C7EE270A 		vdiv.f32	s1, s14, s15
 2351              	.LVL244:
 2352              		.loc 1 4140 0
 2353 0176 28EEA0AA 		vmul.f32	s20, s17, s1
 2354              	.LVL245:
 2355              		.loc 1 4141 0
 2356 017a 28EE209A 		vmul.f32	s18, s16, s1
 2357              	.LVL246:
 2358              	.L171:
 2359              	.LBE585:
 2360              		.loc 1 4144 0
 2361 017e 9FED570A 		vldr.32	s0, .L196+36
 2362 0182 D4ED427A 		vldr.32	s15, [r4, #264]
 2363              		.loc 1 4147 0
 2364 0186 9FED561A 		vldr.32	s2, .L196+40
 2365              		.loc 1 4144 0
 2366 018a 67EE807A 		vmul.f32	s15, s15, s0
 2367 018e B0EEE70A 		vabs.f32	s0, s15
 2368              	.LVL247:
 2369              		.loc 1 4147 0
 2370 0192 B4EEC10A 		vcmpe.f32	s0, s2
 2371 0196 F1EE10FA 		vmrs	APSR_nzcv, FPSCR
 2372 019a 67D4     		bmi	.L193
 2373              		.loc 1 4146 0
 2374 019c F7EE00AA 		vmov.f32	s21, #1.0e+0
 2375              	.LVL248:
 2376              	.L172:
 2377              		.loc 1 4151 0
 2378 01a0 28EE080A 		vmul.f32	s0, s16, s16
 2379 01a4 A8EEA80A 		vfma.f32	s0, s17, s17
 2380 01a8 B5EE400A 		vcmp.f32	s0, #0
 2381 01ac F1EE10FA 		vmrs	APSR_nzcv, FPSCR
 2382 01b0 F1EEC09A 		vsqrt.f32	s19, s0
 2383 01b4 7DD4     		bmi	.L194
 2384              	.L174:
 2385              	.LVL249:
 2386              		.loc 1 4154 0
 2387 01b6 9FED4B6A 		vldr.32	s12, .L196+44
 2388 01ba D4ED056A 		vldr.32	s13, [r4, #20]
 2389 01be D4ED057A 		vldr.32	s15, [r4, #20]
 2390 01c2 29EE866A 		vmul.f32	s12, s19, s12
 2391 01c6 B1EE6A7A 		vneg.f32	s14, s21
 2392 01ca E6EE2A9A 		vfma.f32	s19, s12, s21
 2393              	.LVL250:
 2394 01ce 76EEE99A 		vsub.f32	s19, s13, s19
ARM GAS  /tmp/ccMYeDWX.s 			page 43


 2395 01d2 E7EE297A 		vfma.f32	s15, s14, s19
 2396 01d6 C4ED057A 		vstr.32	s15, [r4, #20]
 2397              		.loc 1 4155 0
 2398 01da 94ED060A 		vldr.32	s0, [r4, #24]
 2399 01de D4ED067A 		vldr.32	s15, [r4, #24]
 2400 01e2 30EE4A0A 		vsub.f32	s0, s0, s20
 2401 01e6 E7EE007A 		vfma.f32	s15, s14, s0
 2402 01ea C4ED067A 		vstr.32	s15, [r4, #24]
 2403              		.loc 1 4156 0
 2404 01ee D4ED070A 		vldr.32	s1, [r4, #28]
 2405 01f2 D4ED077A 		vldr.32	s15, [r4, #28]
 2406 01f6 70EEC90A 		vsub.f32	s1, s1, s18
 2407 01fa E7EE207A 		vfma.f32	s15, s14, s1
 2408 01fe C4ED077A 		vstr.32	s15, [r4, #28]
 2409              		.loc 1 4157 0
 2410 0202 94ED057A 		vldr.32	s14, [r4, #20]
 2411 0206 D4ED057A 		vldr.32	s15, [r4, #20]
 2412 020a B4EE677A 		vcmp.f32	s14, s15
 2413 020e F1EE10FA 		vmrs	APSR_nzcv, FPSCR
 2414 0212 0CBF     		ite	eq
 2415 0214 6369     		ldreq	r3, [r4, #20]	@ float
 2416 0216 0023     		movne	r3, #0
 2417 0218 6361     		str	r3, [r4, #20]	@ float
 2418              		.loc 1 4158 0
 2419 021a 94ED067A 		vldr.32	s14, [r4, #24]
 2420 021e D4ED067A 		vldr.32	s15, [r4, #24]
 2421 0222 B4EE677A 		vcmp.f32	s14, s15
 2422 0226 F1EE10FA 		vmrs	APSR_nzcv, FPSCR
 2423 022a 0CBF     		ite	eq
 2424 022c A369     		ldreq	r3, [r4, #24]	@ float
 2425 022e 0023     		movne	r3, #0
 2426 0230 A361     		str	r3, [r4, #24]	@ float
 2427              		.loc 1 4159 0
 2428 0232 94ED077A 		vldr.32	s14, [r4, #28]
 2429 0236 D4ED077A 		vldr.32	s15, [r4, #28]
 2430 023a B4EE677A 		vcmp.f32	s14, s15
 2431 023e F1EE10FA 		vmrs	APSR_nzcv, FPSCR
 2432 0242 0CBF     		ite	eq
 2433 0244 E369     		ldreq	r3, [r4, #28]	@ float
 2434 0246 0023     		movne	r3, #0
 2435 0248 E361     		str	r3, [r4, #28]	@ float
 2436              		.loc 1 4161 0
 2437 024a 94ED067A 		vldr.32	s14, [r4, #24]
 2438              	.LVL251:
 2439              		.loc 1 4162 0
 2440 024e D4ED077A 		vldr.32	s15, [r4, #28]
 2441              	.LVL252:
 2442              		.loc 1 4164 0
 2443 0252 2379     		ldrb	r3, [r4, #4]	@ zero_extendqisi2
 2444 0254 022B     		cmp	r3, #2
 2445 0256 14D0     		beq	.L195
 2446              		.loc 1 4188 0
 2447 0258 C4ED178A 		vstr.32	s17, [r4, #92]
 2448              		.loc 1 4189 0
 2449 025c 84ED188A 		vstr.32	s16, [r4, #96]
 2450              		.loc 1 4205 0
 2451 0260 BDEC068B 		vldm	sp!, {d8-d10}
ARM GAS  /tmp/ccMYeDWX.s 			page 44


 2452              		.cfi_remember_state
 2453              		.cfi_restore 84
 2454              		.cfi_restore 85
 2455              		.cfi_restore 82
 2456              		.cfi_restore 83
 2457              		.cfi_restore 80
 2458              		.cfi_restore 81
 2459              		.cfi_def_cfa_offset 8
 2460              	.LVL253:
 2461              		.loc 1 4190 0
 2462 0264 0023     		movs	r3, #0
 2463 0266 84F89830 		strb	r3, [r4, #152]
 2464              	.LVL254:
 2465              		.loc 1 4205 0
 2466 026a 10BD     		pop	{r4, pc}
 2467              	.LVL255:
 2468              	.L193:
 2469              		.cfi_restore_state
 2470              		.loc 1 4148 0
 2471 026c B7EE002A 		vmov.f32	s4, #1.0e+0
 2472 0270 DFED1D1A 		vldr.32	s3, .L196+48
 2473 0274 DFED1D0A 		vldr.32	s1, .L196+52
 2474 0278 FFF7FEFF 		bl	utils_map
 2475              	.LVL256:
 2476 027c F0EE40AA 		vmov.f32	s21, s0
 2477              	.LVL257:
 2478 0280 8EE7     		b	.L172
 2479              	.LVL258:
 2480              	.L195:
 2481              		.loc 1 4181 0
 2482 0282 DFED1B6A 		vldr.32	s13, .L196+56
 2483 0286 94ED166A 		vldr.32	s12, [r4, #88]
 2484 028a 27EE267A 		vmul.f32	s14, s14, s13
 2485              	.LVL259:
 2486              		.loc 1 4205 0
 2487 028e BDEC068B 		vldm	sp!, {d8-d10}
 2488              		.cfi_remember_state
 2489              		.cfi_restore 84
 2490              		.cfi_restore 85
 2491              		.cfi_restore 82
 2492              		.cfi_restore 83
 2493              		.cfi_restore 80
 2494              		.cfi_restore 81
 2495              		.cfi_def_cfa_offset 8
 2496              	.LVL260:
 2497              		.loc 1 4181 0
 2498 0292 27EE067A 		vmul.f32	s14, s14, s12
 2499              		.loc 1 4182 0
 2500 0296 67EEA67A 		vmul.f32	s15, s15, s13
 2501              	.LVL261:
 2502              		.loc 1 4181 0
 2503 029a 84ED177A 		vstr.32	s14, [r4, #92]
 2504              		.loc 1 4182 0
 2505 029e 94ED167A 		vldr.32	s14, [r4, #88]
 2506 02a2 67EE877A 		vmul.f32	s15, s15, s14
 2507              		.loc 1 4183 0
 2508 02a6 0023     		movs	r3, #0
ARM GAS  /tmp/ccMYeDWX.s 			page 45


 2509              		.loc 1 4182 0
 2510 02a8 C4ED187A 		vstr.32	s15, [r4, #96]
 2511              		.loc 1 4183 0
 2512 02ac 84F89830 		strb	r3, [r4, #152]
 2513              		.loc 1 4205 0
 2514 02b0 10BD     		pop	{r4, pc}
 2515              	.LVL262:
 2516              	.L194:
 2517              		.cfi_restore_state
 2518              		.loc 1 4151 0
 2519 02b2 FFF7FEFF 		bl	sqrtf
 2520              	.LVL263:
 2521 02b6 7EE7     		b	.L174
 2522              	.L197:
 2523              		.align	2
 2524              	.L196:
 2525 02b8 00000000 		.word	.LANCHOR0
 2526 02bc D7B35D3F 		.word	1063105495
 2527 02c0 00008039 		.word	964689920
 2528 02c4 33335340 		.word	1079194419
 2529 02c8 BD378635 		.word	897988541
 2530 02cc 00000000 		.word	ADC_Value
 2531 02d0 ABAAAA3E 		.word	1051372203
 2532 02d4 3ACD133F 		.word	1058262330
 2533 02d8 ABAA5E42 		.word	1113500331
 2534 02dc EBC91841 		.word	1092143595
 2535 02e0 00401C46 		.word	1176256512
 2536 02e4 CDCCCC3D 		.word	1036831949
 2537 02e8 0AD7233C 		.word	1008981770
 2538 02ec 00000000 		.word	0
 2539 02f0 ABAA2A3F 		.word	1059760811
 2540              		.cfi_endproc
 2541              	.LFE369:
 2542              		.size	update_valpha_vbeta.constprop.9, .-update_valpha_vbeta.constprop.9
 2543              		.section	.text.correct_hall.constprop.10,"ax",%progbits
 2544              		.align	1
 2545              		.p2align 4,,15
 2546              		.syntax unified
 2547              		.thumb
 2548              		.thumb_func
 2549              		.fpu fpv4-sp-d16
 2550              		.type	correct_hall.constprop.10, %function
 2551              	correct_hall.constprop.10:
 2552              	.LFB368:
 2553              		.loc 1 4667 0
 2554              		.cfi_startproc
 2555              		@ args = 0, pretend = 0, frame = 0
 2556              		@ frame_needed = 0, uses_anonymous_args = 0
 2557              	.LVL264:
 2558 0000 38B5     		push	{r3, r4, r5, lr}
 2559              		.cfi_def_cfa_offset 16
 2560              		.cfi_offset 3, -16
 2561              		.cfi_offset 4, -12
 2562              		.cfi_offset 5, -8
 2563              		.cfi_offset 14, -4
 2564              		.loc 1 4668 0
 2565 0002 B34C     		ldr	r4, .L249
ARM GAS  /tmp/ccMYeDWX.s 			page 46


 2566              		.loc 1 4671 0
 2567 0004 DFEDB35A 		vldr.32	s11, .L249+4
 2568              		.loc 1 4668 0
 2569 0008 2568     		ldr	r5, [r4]
 2570              	.LVL265:
 2571              		.loc 1 4669 0
 2572 000a D4EDC07A 		vldr.32	s15, [r4, #768]
 2573              		.loc 1 4672 0
 2574 000e 9FEDB27A 		vldr.32	s14, .L249+8
 2575              		.loc 1 4676 0
 2576 0012 DFEDB26A 		vldr.32	s13, .L249+12
 2577              		.loc 1 4669 0
 2578 0016 77EEA07A 		vadd.f32	s15, s15, s1
 2579              		.loc 1 4667 0
 2580 001a 2DED068B 		vpush.64	{d8, d9, d10}
 2581              		.cfi_def_cfa_offset 40
 2582              		.cfi_offset 80, -40
 2583              		.cfi_offset 81, -36
 2584              		.cfi_offset 82, -32
 2585              		.cfi_offset 83, -28
 2586              		.cfi_offset 84, -24
 2587              		.cfi_offset 85, -20
 2588              		.loc 1 4669 0
 2589 001e C4EDC07A 		vstr.32	s15, [r4, #768]
 2590              		.loc 1 4671 0
 2591 0022 94EDBF6A 		vldr.32	s12, [r4, #764]
 2592              		.loc 1 4672 0
 2593 0026 D4ED4B7A 		vldr.32	s15, [r4, #300]
 2594              		.loc 1 4676 0
 2595 002a D5ED4F8A 		vldr.32	s17, [r5, #316]
 2596              		.loc 1 4677 0
 2597 002e 94F8F032 		ldrb	r3, [r4, #752]	@ zero_extendqisi2
 2598              		.loc 1 4671 0
 2599 0032 C5EE86AA 		vdiv.f32	s21, s11, s12
 2600              	.LVL266:
 2601              		.loc 1 4672 0
 2602 0036 67EE877A 		vmul.f32	s15, s15, s14
 2603              		.loc 1 4673 0
 2604 003a 2AEE877A 		vmul.f32	s14, s21, s14
 2605              		.loc 1 4667 0
 2606 003e F0EE409A 		vmov.f32	s19, s0
 2607 0042 B0EE60AA 		vmov.f32	s20, s1
 2608              		.loc 1 4672 0
 2609 0046 B0EEE70A 		vabs.f32	s0, s15
 2610              	.LVL267:
 2611              		.loc 1 4673 0
 2612 004a B0EEC79A 		vabs.f32	s18, s14
 2613              	.LVL268:
 2614              		.loc 1 4676 0
 2615 004e 68EEA68A 		vmul.f32	s17, s17, s13
 2616              	.LVL269:
 2617              		.loc 1 4677 0
 2618 0052 002B     		cmp	r3, #0
 2619 0054 00F0CA80 		beq	.L199
 2620              		.loc 1 4678 0
 2621 0058 F0EE490A 		vmov.f32	s1, s18
 2622              	.LVL270:
ARM GAS  /tmp/ccMYeDWX.s 			page 47


 2623 005c FFF7FEFF 		bl	fminf
 2624              	.LVL271:
 2625 0060 D5ED4F7A 		vldr.32	s15, [r5, #316]
 2626 0064 78EEA78A 		vadd.f32	s17, s17, s15
 2627              	.LVL272:
 2628 0068 B4EEE80A 		vcmpe.f32	s0, s17
 2629 006c F1EE10FA 		vmrs	APSR_nzcv, FPSCR
 2630 0070 00F3D880 		bgt	.L243
 2631              	.L200:
 2632              		.loc 1 4687 0
 2633 0074 D5F84812 		ldr	r1, [r5, #584]
 2634 0078 0020     		movs	r0, #0
 2635 007a FFF7FEFF 		bl	utils_read_hall
 2636              	.LVL273:
 2637 007e 2844     		add	r0, r0, r5
 2638 0080 90F82D31 		ldrb	r3, [r0, #301]	@ zero_extendqisi2
 2639 0084 DBB2     		uxtb	r3, r3
 2640              	.LVL274:
 2641              		.loc 1 4691 0
 2642 0086 C82B     		cmp	r3, #200
 2643 0088 00F3BD80 		bgt	.L203
 2644              	.LBB586:
 2645              		.loc 1 4693 0
 2646 008c 07EE903A 		vmov	s15, r3	@ int
 2647 0090 9FED937A 		vldr.32	s14, .L249+16
 2648              		.loc 1 4695 0
 2649 0094 D4F8EC22 		ldr	r2, [r4, #748]
 2650              		.loc 1 4693 0
 2651 0098 9FED928A 		vldr.32	s16, .L249+20
 2652 009c F8EEE76A 		vcvt.f32.s32	s13, s15
 2653              		.loc 1 4695 0
 2654 00a0 002A     		cmp	r2, #0
 2655              		.loc 1 4693 0
 2656 00a2 C6EE877A 		vdiv.f32	s15, s13, s14
 2657 00a6 77EEA77A 		vadd.f32	s15, s15, s15
 2658 00aa 27EE888A 		vmul.f32	s16, s15, s16
 2659              	.LVL275:
 2660              		.loc 1 4695 0
 2661 00ae C0F2CB80 		blt	.L244
 2662              		.loc 1 4699 0
 2663 00b2 D4F8EC22 		ldr	r2, [r4, #748]
 2664 00b6 9342     		cmp	r3, r2
 2665 00b8 44D0     		beq	.L205
 2666              	.LBB587:
 2667              		.loc 1 4700 0
 2668 00ba D4F8EC22 		ldr	r2, [r4, #748]
 2669 00be 9A1A     		subs	r2, r3, r2
 2670              	.LVL276:
 2671              		.loc 1 4701 0
 2672 00c0 642A     		cmp	r2, #100
 2673 00c2 00F3C680 		bgt	.L245
 2674              		.loc 1 4703 0
 2675 00c6 12F1640F 		cmn	r2, #100
 2676              		.loc 1 4704 0
 2677 00ca B8BF     		it	lt
 2678 00cc C832     		addlt	r2, r2, #200
 2679              	.LVL277:
ARM GAS  /tmp/ccMYeDWX.s 			page 48


 2680              	.L207:
 2681              		.loc 1 4709 0
 2682 00ce 07EE902A 		vmov	s15, r2	@ int
 2683 00d2 F8EEE77A 		vcvt.f32.s32	s15, s15
 2684 00d6 F5EEC07A 		vcmpe.f32	s15, #0
 2685 00da F1EE10FA 		vmrs	APSR_nzcv, FPSCR
 2686 00de 00F1D580 		bmi	.L246
 2687 00e2 D4EDBF7A 		vldr.32	s15, [r4, #764]
 2688 00e6 F5EEC07A 		vcmpe.f32	s15, #0
 2689 00ea F1EE10FA 		vmrs	APSR_nzcv, FPSCR
 2690 00ee 00F1D580 		bmi	.L225
 2691              	.L224:
 2692              		.loc 1 4710 0
 2693 00f2 002A     		cmp	r2, #0
 2694 00f4 40F3E480 		ble	.L247
 2695              		.loc 1 4711 0
 2696 00f8 D4F80013 		ldr	r1, [r4, #768]	@ float
 2697 00fc C4F8FC12 		str	r1, [r4, #764]	@ float
 2698              	.L210:
 2699              		.loc 1 4719 0
 2700 0100 0021     		movs	r1, #0
 2701 0102 C4F80013 		str	r1, [r4, #768]	@ float
 2702              		.loc 1 4722 0
 2703 0106 D4F8EC12 		ldr	r1, [r4, #748]
 2704              		.loc 1 4723 0
 2705 010a 7748     		ldr	r0, .L249+24
 2706              		.loc 1 4726 0
 2707 010c 9FED746A 		vldr.32	s12, .L249+16
 2708 0110 DFED746A 		vldr.32	s13, .L249+20
 2709              		.loc 1 4722 0
 2710 0114 02EBD272 		add	r2, r2, r2, lsr #31
 2711              	.LVL278:
 2712 0118 01EB6202 		add	r2, r1, r2, asr #1
 2713              	.LVL279:
 2714              		.loc 1 4723 0
 2715 011c 80FB0210 		smull	r1, r0, r0, r2
 2716 0120 D117     		asrs	r1, r2, #31
 2717 0122 C1EBA011 		rsb	r1, r1, r0, asr #6
 2718 0126 C820     		movs	r0, #200
 2719 0128 00FB1121 		mls	r1, r0, r1, r2
 2720              		.loc 1 4726 0
 2721 012c 07EE901A 		vmov	s15, r1	@ int
 2722 0130 F8EEE77A 		vcvt.f32.s32	s15, s15
 2723 0134 87EE867A 		vdiv.f32	s14, s15, s12
 2724 0138 37EE077A 		vadd.f32	s14, s14, s14
 2725 013c 27EE267A 		vmul.f32	s14, s14, s13
 2726 0140 84EDBD7A 		vstr.32	s14, [r4, #756]
 2727              	.LVL280:
 2728              	.L205:
 2729              	.LBE587:
 2730              		.loc 1 4729 0
 2731 0144 C4F8EC32 		str	r3, [r4, #748]
 2732              		.loc 1 4731 0
 2733 0148 94EDC00A 		vldr.32	s0, [r4, #768]
 2734 014c D4EDBF0A 		vldr.32	s1, [r4, #764]
 2735 0150 B0EEC00A 		vabs.f32	s0, s0
 2736 0154 F0EEE00A 		vabs.f32	s1, s1
ARM GAS  /tmp/ccMYeDWX.s 			page 49


 2737 0158 FFF7FEFF 		bl	fmaxf
 2738              	.LVL281:
 2739 015c DFED5D6A 		vldr.32	s13, .L249+4
 2740 0160 9FED5D7A 		vldr.32	s14, .L249+8
 2741              		.loc 1 4733 0
 2742 0164 D5ED4E7A 		vldr.32	s15, [r5, #312]
 2743              		.loc 1 4731 0
 2744 0168 86EE800A 		vdiv.f32	s0, s13, s0
 2745 016c 20EE070A 		vmul.f32	s0, s0, s14
 2746 0170 B4EEE70A 		vcmpe.f32	s0, s15
 2747 0174 F1EE10FA 		vmrs	APSR_nzcv, FPSCR
 2748 0178 72D5     		bpl	.L238
 2749              		.loc 1 4736 0
 2750 017a 84EDBD8A 		vstr.32	s16, [r4, #756]
 2751              	.L213:
 2752              		.loc 1 4751 0
 2753 017e D5ED4E0A 		vldr.32	s1, [r5, #312]
 2754 0182 9FED588A 		vldr.32	s16, .L249+20
 2755              	.LVL282:
 2756 0186 B0EE490A 		vmov.f32	s0, s18
 2757 018a FFF7FEFF 		bl	fmaxf
 2758              	.LVL283:
 2759 018e 9FED577A 		vldr.32	s14, .L249+28
 2760              		.loc 1 4752 0
 2761 0192 D4EDBD6A 		vldr.32	s13, [r4, #756]
 2762 0196 D4EDBE0A 		vldr.32	s1, [r4, #760]
 2763              		.loc 1 4751 0
 2764 019a C0EE077A 		vdiv.f32	s15, s0, s14
 2765 019e B7EE087A 		vmov.f32	s14, #1.5e+0
 2766 01a2 77EEA77A 		vadd.f32	s15, s15, s15
 2767              		.loc 1 4752 0
 2768 01a6 B0EE660A 		vmov.f32	s0, s13
 2769              		.loc 1 4751 0
 2770 01aa 27EE888A 		vmul.f32	s16, s15, s16
 2771 01ae 28EE0A8A 		vmul.f32	s16, s16, s20
 2772 01b2 28EE078A 		vmul.f32	s16, s16, s14
 2773              	.LVL284:
 2774              		.loc 1 4752 0
 2775 01b6 FFF7FEFF 		bl	utils_angle_difference_rad
 2776              	.LVL285:
 2777              		.loc 1 4753 0
 2778 01ba F0EEC07A 		vabs.f32	s15, s0
 2779 01be B4EEE78A 		vcmpe.f32	s16, s15
 2780 01c2 F1EE10FA 		vmrs	APSR_nzcv, FPSCR
 2781 01c6 31DD     		ble	.L240
 2782              		.loc 1 4754 0
 2783 01c8 D4F8F432 		ldr	r3, [r4, #756]	@ float
 2784 01cc C4F8F832 		str	r3, [r4, #760]	@ float
 2785              	.LVL286:
 2786              	.L218:
 2787              		.loc 1 4759 0
 2788 01d0 4748     		ldr	r0, .L249+32
 2789 01d2 FFF7FEFF 		bl	utils_norm_angle_rad
 2790              	.LVL287:
 2791              		.loc 1 4760 0
 2792 01d6 4748     		ldr	r0, .L249+36
 2793 01d8 FFF7FEFF 		bl	utils_norm_angle_rad
ARM GAS  /tmp/ccMYeDWX.s 			page 50


 2794              	.LVL288:
 2795              		.loc 1 4762 0
 2796 01dc 94F8F032 		ldrb	r3, [r4, #752]	@ zero_extendqisi2
 2797 01e0 DBB1     		cbz	r3, .L223
 2798              	.LBE586:
 2799              		.loc 1 4778 0
 2800 01e2 BDEC068B 		vldm	sp!, {d8-d10}
 2801              		.cfi_remember_state
 2802              		.cfi_restore 84
 2803              		.cfi_restore 85
 2804              		.cfi_restore 82
 2805              		.cfi_restore 83
 2806              		.cfi_restore 80
 2807              		.cfi_restore 81
 2808              		.cfi_def_cfa_offset 16
 2809              	.LVL289:
 2810              	.LBB593:
 2811              		.loc 1 4763 0
 2812 01e6 94EDBE0A 		vldr.32	s0, [r4, #760]
 2813              	.LVL290:
 2814              	.LBE593:
 2815              		.loc 1 4778 0
 2816 01ea 38BD     		pop	{r3, r4, r5, pc}
 2817              	.LVL291:
 2818              	.L199:
 2819              		.cfi_restore_state
 2820              		.loc 1 4682 0
 2821 01ec D5ED4F7A 		vldr.32	s15, [r5, #316]
 2822 01f0 77EEE88A 		vsub.f32	s17, s15, s17
 2823              	.LVL292:
 2824 01f4 B4EEE80A 		vcmpe.f32	s0, s17
 2825 01f8 F1EE10FA 		vmrs	APSR_nzcv, FPSCR
 2826              		.loc 1 4683 0
 2827 01fc 44BF     		itt	mi
 2828 01fe 0123     		movmi	r3, #1
 2829 0200 84F8F032 		strbmi	r3, [r4, #752]
 2830 0204 36E7     		b	.L200
 2831              	.LVL293:
 2832              	.L203:
 2833              		.loc 1 4767 0
 2834 0206 4FF0FF33 		mov	r3, #-1
 2835              	.LVL294:
 2836 020a C4F8EC32 		str	r3, [r4, #748]
 2837              		.loc 1 4772 0
 2838 020e 94F8F030 		ldrb	r3, [r4, #240]	@ zero_extendqisi2
 2839 0212 13B1     		cbz	r3, .L223
 2840 0214 2379     		ldrb	r3, [r4, #4]	@ zero_extendqisi2
 2841 0216 022B     		cmp	r3, #2
 2842 0218 1DD0     		beq	.L248
 2843              	.L223:
 2844              		.loc 1 4667 0
 2845 021a B0EE690A 		vmov.f32	s0, s19
 2846              		.loc 1 4778 0
 2847 021e BDEC068B 		vldm	sp!, {d8-d10}
 2848              		.cfi_remember_state
 2849              		.cfi_restore 84
 2850              		.cfi_restore 85
ARM GAS  /tmp/ccMYeDWX.s 			page 51


 2851              		.cfi_restore 82
 2852              		.cfi_restore 83
 2853              		.cfi_restore 80
 2854              		.cfi_restore 81
 2855              		.cfi_def_cfa_offset 16
 2856              	.LVL295:
 2857 0222 38BD     		pop	{r3, r4, r5, pc}
 2858              	.LVL296:
 2859              	.L243:
 2860              		.cfi_restore_state
 2861              		.loc 1 4679 0
 2862 0224 0023     		movs	r3, #0
 2863 0226 84F8F032 		strb	r3, [r4, #752]
 2864 022a 23E7     		b	.L200
 2865              	.LVL297:
 2866              	.L240:
 2867              	.LBB594:
 2868              		.loc 1 4756 0
 2869 022c B5EEC00A 		vcmpe.f32	s0, #0
 2870 0230 D4EDBE7A 		vldr.32	s15, [r4, #760]
 2871 0234 F1EE10FA 		vmrs	APSR_nzcv, FPSCR
 2872 0238 48BF     		it	mi
 2873 023a B1EE488A 		vnegmi.f32	s16, s16
 2874              	.LVL298:
 2875 023e 37EE888A 		vadd.f32	s16, s15, s16
 2876 0242 84EDBE8A 		vstr.32	s16, [r4, #760]
 2877 0246 C3E7     		b	.L218
 2878              	.LVL299:
 2879              	.L244:
 2880              		.loc 1 4697 0
 2881 0248 C4F8EC32 		str	r3, [r4, #748]
 2882              		.loc 1 4698 0
 2883 024c 84EDBD8A 		vstr.32	s16, [r4, #756]
 2884 0250 78E7     		b	.L205
 2885              	.LVL300:
 2886              	.L245:
 2887              	.LBB588:
 2888              		.loc 1 4702 0
 2889 0252 C83A     		subs	r2, r2, #200
 2890              	.LVL301:
 2891 0254 3BE7     		b	.L207
 2892              	.LVL302:
 2893              	.L248:
 2894              	.LBE588:
 2895              	.LBE594:
 2896              		.loc 1 4778 0
 2897 0256 BDEC068B 		vldm	sp!, {d8-d10}
 2898              		.cfi_remember_state
 2899              		.cfi_restore 84
 2900              		.cfi_restore 85
 2901              		.cfi_restore 82
 2902              		.cfi_restore 83
 2903              		.cfi_restore 80
 2904              		.cfi_restore 81
 2905              		.cfi_def_cfa_offset 16
 2906              	.LVL303:
 2907              		.loc 1 4773 0
ARM GAS  /tmp/ccMYeDWX.s 			page 52


 2908 025a 94ED390A 		vldr.32	s0, [r4, #228]
 2909              	.LVL304:
 2910              		.loc 1 4778 0
 2911 025e 38BD     		pop	{r3, r4, r5, pc}
 2912              	.LVL305:
 2913              	.L238:
 2914              		.cfi_restore_state
 2915              	.LBB595:
 2916              	.LBB589:
 2917              		.loc 1 4739 0
 2918 0260 94EDBD0A 		vldr.32	s0, [r4, #756]
 2919 0264 F0EE480A 		vmov.f32	s1, s16
 2920 0268 FFF7FEFF 		bl	utils_angle_difference_rad
 2921              	.LVL306:
 2922              		.loc 1 4740 0
 2923 026c DFED227A 		vldr.32	s15, .L249+40
 2924 0270 B0EEC07A 		vabs.f32	s14, s0
 2925 0274 B4EEE77A 		vcmpe.f32	s14, s15
 2926 0278 F1EE10FA 		vmrs	APSR_nzcv, FPSCR
 2927 027c 15D5     		bpl	.L239
 2928              		.loc 1 4742 0
 2929 027e D4EDBD7A 		vldr.32	s15, [r4, #756]
 2930 0282 EAEE2A7A 		vfma.f32	s15, s20, s21
 2931 0286 C4EDBD7A 		vstr.32	s15, [r4, #756]
 2932 028a 78E7     		b	.L213
 2933              	.LVL307:
 2934              	.L246:
 2935              	.LBE589:
 2936              	.LBB590:
 2937              		.loc 1 4709 0
 2938 028c D4EDBF7A 		vldr.32	s15, [r4, #764]
 2939 0290 F5EEC07A 		vcmpe.f32	s15, #0
 2940 0294 F1EE10FA 		vmrs	APSR_nzcv, FPSCR
 2941 0298 3FF52BAF 		bmi	.L224
 2942              	.L225:
 2943              		.loc 1 4716 0
 2944 029c D4EDBF7A 		vldr.32	s15, [r4, #764]
 2945 02a0 F1EE677A 		vneg.f32	s15, s15
 2946 02a4 C4EDBF7A 		vstr.32	s15, [r4, #764]
 2947 02a8 2AE7     		b	.L210
 2948              	.LVL308:
 2949              	.L239:
 2950              	.LBE590:
 2951              	.LBB591:
 2952              		.loc 1 4745 0
 2953 02aa DFED146A 		vldr.32	s13, .L249+44
 2954 02ae D4EDBD7A 		vldr.32	s15, [r4, #756]
 2955 02b2 80EE267A 		vdiv.f32	s14, s0, s13
 2956 02b6 77EEC77A 		vsub.f32	s15, s15, s14
 2957 02ba C4EDBD7A 		vstr.32	s15, [r4, #756]
 2958 02be 5EE7     		b	.L213
 2959              	.LVL309:
 2960              	.L247:
 2961              	.LBE591:
 2962              	.LBB592:
 2963              		.loc 1 4713 0
 2964 02c0 D4EDC07A 		vldr.32	s15, [r4, #768]
ARM GAS  /tmp/ccMYeDWX.s 			page 53


 2965 02c4 F1EE677A 		vneg.f32	s15, s15
 2966 02c8 C4EDBF7A 		vstr.32	s15, [r4, #764]
 2967 02cc 18E7     		b	.L210
 2968              	.L250:
 2969 02ce 00BF     		.align	2
 2970              	.L249:
 2971 02d0 00000000 		.word	.LANCHOR0
 2972 02d4 920A863F 		.word	1065749138
 2973 02d8 EBC91841 		.word	1092143595
 2974 02dc CDCCCC3D 		.word	1036831949
 2975 02e0 00004843 		.word	1128792064
 2976 02e4 DB0F4940 		.word	1078530011
 2977 02e8 1F85EB51 		.word	1374389535
 2978 02ec 00007042 		.word	1114636288
 2979 02f0 F8020000 		.word	.LANCHOR0+760
 2980 02f4 F4020000 		.word	.LANCHOR0+756
 2981 02f8 920A063F 		.word	1057360530
 2982 02fc 0000C842 		.word	1120403456
 2983              	.LBE592:
 2984              	.LBE595:
 2985              		.cfi_endproc
 2986              	.LFE368:
 2987              		.size	correct_hall.constprop.10, .-correct_hall.constprop.10
 2988              		.section	.text.stop_pwm_hw.constprop.12,"ax",%progbits
 2989              		.align	1
 2990              		.p2align 4,,15
 2991              		.syntax unified
 2992              		.thumb
 2993              		.thumb_func
 2994              		.fpu fpv4-sp-d16
 2995              		.type	stop_pwm_hw.constprop.12, %function
 2996              	stop_pwm_hw.constprop.12:
 2997              	.LFB366:
 2998              		.loc 1 4524 0
 2999              		.cfi_startproc
 3000              		@ args = 0, pretend = 0, frame = 0
 3001              		@ frame_needed = 0, uses_anonymous_args = 0
 3002              	.LVL310:
 3003 0000 38B5     		push	{r3, r4, r5, lr}
 3004              		.cfi_def_cfa_offset 16
 3005              		.cfi_offset 3, -16
 3006              		.cfi_offset 4, -12
 3007              		.cfi_offset 5, -8
 3008              		.cfi_offset 14, -4
 3009              		.loc 1 4529 0
 3010 0002 1E4C     		ldr	r4, .L253
 3011              		.loc 1 4525 0
 3012 0004 1E4D     		ldr	r5, .L253+4
 3013 0006 0023     		movs	r3, #0
 3014              		.loc 1 4529 0
 3015 0008 2046     		mov	r0, r4
 3016 000a 4022     		movs	r2, #64
 3017 000c 0021     		movs	r1, #0
 3018              		.loc 1 4525 0
 3019 000e C5F8B830 		str	r3, [r5, #184]	@ float
 3020              		.loc 1 4526 0
 3021 0012 C5F8BC30 		str	r3, [r5, #188]	@ float
ARM GAS  /tmp/ccMYeDWX.s 			page 54


 3022              		.loc 1 4529 0
 3023 0016 FFF7FEFF 		bl	TIM_SelectOCxM
 3024              	.LVL311:
 3025              		.loc 1 4530 0
 3026 001a 2046     		mov	r0, r4
 3027 001c 0122     		movs	r2, #1
 3028 001e 0021     		movs	r1, #0
 3029 0020 FFF7FEFF 		bl	TIM_CCxCmd
 3030              	.LVL312:
 3031              		.loc 1 4531 0
 3032 0024 0022     		movs	r2, #0
 3033 0026 1146     		mov	r1, r2
 3034 0028 2046     		mov	r0, r4
 3035 002a FFF7FEFF 		bl	TIM_CCxNCmd
 3036              	.LVL313:
 3037              		.loc 1 4533 0
 3038 002e 2046     		mov	r0, r4
 3039 0030 4022     		movs	r2, #64
 3040 0032 0421     		movs	r1, #4
 3041 0034 FFF7FEFF 		bl	TIM_SelectOCxM
 3042              	.LVL314:
 3043              		.loc 1 4534 0
 3044 0038 2046     		mov	r0, r4
 3045 003a 0122     		movs	r2, #1
 3046 003c 0421     		movs	r1, #4
 3047 003e FFF7FEFF 		bl	TIM_CCxCmd
 3048              	.LVL315:
 3049              		.loc 1 4535 0
 3050 0042 2046     		mov	r0, r4
 3051 0044 0022     		movs	r2, #0
 3052 0046 0421     		movs	r1, #4
 3053 0048 FFF7FEFF 		bl	TIM_CCxNCmd
 3054              	.LVL316:
 3055              		.loc 1 4537 0
 3056 004c 2046     		mov	r0, r4
 3057 004e 4022     		movs	r2, #64
 3058 0050 0821     		movs	r1, #8
 3059 0052 FFF7FEFF 		bl	TIM_SelectOCxM
 3060              	.LVL317:
 3061              		.loc 1 4538 0
 3062 0056 2046     		mov	r0, r4
 3063 0058 0122     		movs	r2, #1
 3064 005a 0821     		movs	r1, #8
 3065 005c FFF7FEFF 		bl	TIM_CCxCmd
 3066              	.LVL318:
 3067              		.loc 1 4539 0
 3068 0060 2046     		mov	r0, r4
 3069 0062 0022     		movs	r2, #0
 3070 0064 0821     		movs	r1, #8
 3071 0066 FFF7FEFF 		bl	TIM_CCxNCmd
 3072              	.LVL319:
 3073              		.loc 1 4541 0
 3074 006a 2046     		mov	r0, r4
 3075 006c 2021     		movs	r1, #32
 3076 006e FFF7FEFF 		bl	TIM_GenerateEvent
 3077              	.LVL320:
 3078              		.loc 1 4563 0
ARM GAS  /tmp/ccMYeDWX.s 			page 55


 3079 0072 0023     		movs	r3, #0
 3080 0074 85F8D030 		strb	r3, [r5, #208]
 3081              		.loc 1 4587 0
 3082 0078 38BD     		pop	{r3, r4, r5, pc}
 3083              	.L254:
 3084 007a 00BF     		.align	2
 3085              	.L253:
 3086 007c 00000140 		.word	1073807360
 3087 0080 00000000 		.word	.LANCHOR0
 3088              		.cfi_endproc
 3089              	.LFE366:
 3090              		.size	stop_pwm_hw.constprop.12, .-stop_pwm_hw.constprop.12
 3091              		.section	.text.timer_thread,"ax",%progbits
 3092              		.align	1
 3093              		.p2align 4,,15
 3094              		.syntax unified
 3095              		.thumb
 3096              		.thumb_func
 3097              		.fpu fpv4-sp-d16
 3098              		.type	timer_thread, %function
 3099              	timer_thread:
 3100              	.LFB341:
 3101              		.loc 1 3480 0
 3102              		.cfi_startproc
 3103              		@ args = 0, pretend = 0, frame = 32
 3104              		@ frame_needed = 0, uses_anonymous_args = 0
 3105              	.LVL321:
 3106 0000 30B5     		push	{r4, r5, lr}
 3107              		.cfi_def_cfa_offset 12
 3108              		.cfi_offset 4, -12
 3109              		.cfi_offset 5, -8
 3110              		.cfi_offset 14, -4
 3111              	.LBB609:
 3112              	.LBB610:
 3113              		.loc 2 135 0
 3114 0002 0D4B     		ldr	r3, .L386
 3115              	.LBE610:
 3116              	.LBE609:
 3117              	.LBB614:
 3118              		.loc 1 3488 0
 3119 0004 0D4D     		ldr	r5, .L386+4
 3120              	.LBE614:
 3121              	.LBB641:
 3122              	.LBB611:
 3123              		.loc 2 135 0
 3124 0006 9A69     		ldr	r2, [r3, #24]
 3125              	.LBE611:
 3126              	.LBE641:
 3127              	.LBB642:
 3128              		.loc 1 3488 0
 3129 0008 2B78     		ldrb	r3, [r5]	@ zero_extendqisi2
 3130              	.LBE642:
 3131              	.LBB643:
 3132              	.LBB612:
 3133              		.loc 2 135 0
 3134 000a 0D49     		ldr	r1, .L386+8
 3135              	.LBE612:
ARM GAS  /tmp/ccMYeDWX.s 			page 56


 3136              	.LBE643:
 3137              		.loc 1 3480 0
 3138 000c 2DED0A8B 		vpush.64	{d8, d9, d10, d11, d12}
 3139              		.cfi_def_cfa_offset 52
 3140              		.cfi_offset 80, -52
 3141              		.cfi_offset 81, -48
 3142              		.cfi_offset 82, -44
 3143              		.cfi_offset 83, -40
 3144              		.cfi_offset 84, -36
 3145              		.cfi_offset 85, -32
 3146              		.cfi_offset 86, -28
 3147              		.cfi_offset 87, -24
 3148              		.cfi_offset 88, -20
 3149              		.cfi_offset 89, -16
 3150              	.LBB644:
 3151              	.LBB613:
 3152              		.loc 2 135 0
 3153 0010 9161     		str	r1, [r2, #24]
 3154              	.LVL322:
 3155              	.LBE613:
 3156              	.LBE644:
 3157              		.loc 1 3480 0
 3158 0012 89B0     		sub	sp, sp, #36
 3159              		.cfi_def_cfa_offset 88
 3160              	.LBB645:
 3161              		.loc 1 3488 0
 3162 0014 002B     		cmp	r3, #0
 3163 0016 40F0A482 		bne	.L305
 3164 001a 0A4C     		ldr	r4, .L386+12
 3165              	.LBB615:
 3166              	.LBB616:
 3167              	.LBB617:
 3168              	.LBB618:
 3169              		.loc 1 3157 0
 3170 001c DFED0A8A 		vldr.32	s17, .L386+16
 3171              	.LBB619:
 3172              		.loc 1 3173 0
 3173 0020 9FED0ABA 		vldr.32	s22, .L386+20
 3174              		.loc 1 3170 0
 3175 0024 9FED0A9A 		vldr.32	s18, .L386+24
 3176              	.LBE619:
 3177              	.LBE618:
 3178              	.LBE617:
 3179              		.loc 1 3320 0
 3180 0028 DFED0A9A 		vldr.32	s19, .L386+28
 3181              		.loc 1 3343 0
 3182 002c DFED0AAA 		vldr.32	s21, .L386+32
 3183              	.LBB625:
 3184              		.loc 1 3373 0
 3185 0030 9FED0AAA 		vldr.32	s20, .L386+36
 3186 0034 2AE1     		b	.L256
 3187              	.L387:
 3188 0036 00BF     		.align	2
 3189              	.L386:
 3190 0038 00000000 		.word	ch
 3191 003c 00000000 		.word	.LANCHOR5
 3192 0040 00000000 		.word	.LC25
ARM GAS  /tmp/ccMYeDWX.s 			page 57


 3193 0044 00000000 		.word	.LANCHOR0
 3194 0048 6F12833A 		.word	981668463
 3195 004c A4707D3F 		.word	1065185444
 3196 0050 00000000 		.word	0
 3197 0054 5077D63D 		.word	1037465424
 3198 0058 17B7D138 		.word	953267991
 3199 005c DB0F49BF 		.word	3209236443
 3200 0060 920A863F 		.word	1065749138
 3201              	.LVL323:
 3202              	.L381:
 3203              	.LBE625:
 3204              		.loc 1 3328 0
 3205 0064 94EDAE7A 		vldr.32	s14, [r4, #696]
 3206 0068 2368     		ldr	r3, [r4]
 3207 006a D3ED477A 		vldr.32	s15, [r3, #284]
 3208              		.loc 1 3327 0
 3209 006e B4EEE77A 		vcmpe.f32	s14, s15
 3210 0072 F1EE10FA 		vmrs	APSR_nzcv, FPSCR
 3211 0076 40F19B81 		bpl	.L280
 3212              		.loc 1 3329 0
 3213 007a D4EDAE7A 		vldr.32	s15, [r4, #696]
 3214 007e 77EEA87A 		vadd.f32	s15, s15, s17
 3215 0082 C4EDAE7A 		vstr.32	s15, [r4, #696]
 3216              	.L283:
 3217              		.loc 1 3335 0
 3218 0086 6379     		ldrb	r3, [r4, #5]	@ zero_extendqisi2
 3219 0088 032B     		cmp	r3, #3
 3220 008a 00F0A381 		beq	.L285
 3221              	.L382:
 3222              		.loc 1 3336 0
 3223 008e 2379     		ldrb	r3, [r4, #4]	@ zero_extendqisi2
 3224              		.loc 1 3335 0
 3225 0090 022B     		cmp	r3, #2
 3226 0092 00F01C82 		beq	.L377
 3227              	.L286:
 3228              	.LVL324:
 3229              		.loc 1 3343 0
 3230 0096 94EDAE7A 		vldr.32	s14, [r4, #696]
 3231 009a 2368     		ldr	r3, [r4]
 3232 009c D3ED477A 		vldr.32	s15, [r3, #284]
 3233 00a0 B4EEE77A 		vcmpe.f32	s14, s15
 3234 00a4 F1EE10FA 		vmrs	APSR_nzcv, FPSCR
 3235 00a8 C0F29C81 		blt	.L373
 3236              		.loc 1 3344 0
 3237 00ac D4EDAF7A 		vldr.32	s15, [r4, #700]
 3238              		.loc 1 3343 0
 3239 00b0 F4EEEA7A 		vcmpe.f32	s15, s21
 3240 00b4 F1EE10FA 		vmrs	APSR_nzcv, FPSCR
 3241 00b8 00F29481 		bhi	.L373
 3242              		.loc 1 3345 0
 3243 00bc 7BEEACBA 		vadd.f32	s23, s23, s25
 3244              	.LVL325:
 3245              		.loc 1 3346 0
 3246 00c0 0122     		movs	r2, #1
 3247              		.loc 1 3345 0
 3248 00c2 3BEE8CCA 		vadd.f32	s24, s23, s24
 3249              	.LVL326:
ARM GAS  /tmp/ccMYeDWX.s 			page 58


 3250 00c6 84EDAFCA 		vstr.32	s24, [r4, #700]
 3251              	.LVL327:
 3252              	.L288:
 3253              		.loc 1 3349 0
 3254 00ca 2379     		ldrb	r3, [r4, #4]	@ zero_extendqisi2
 3255 00cc 022B     		cmp	r3, #2
 3256              		.loc 1 3350 0
 3257 00ce 18BF     		it	ne
 3258 00d0 84EDAF9A 		vstrne.32	s18, [r4, #700]
 3259              		.loc 1 3353 0
 3260 00d4 D4EDAF7A 		vldr.32	s15, [r4, #700]
 3261 00d8 F5EEC07A 		vcmpe.f32	s15, #0
 3262 00dc F1EE10FA 		vmrs	APSR_nzcv, FPSCR
 3263 00e0 40F38281 		ble	.L374
 3264              	.LBB626:
 3265              		.loc 1 3354 0
 3266 00e4 D4ED397A 		vldr.32	s15, [r4, #228]
 3267 00e8 38EE278A 		vadd.f32	s16, s16, s15
 3268              	.LVL328:
 3269 00ec 84ED398A 		vstr.32	s16, [r4, #228]
 3270              		.loc 1 3358 0
 3271 00f0 82B1     		cbz	r2, .L294
 3272              		.loc 1 3359 0
 3273 00f2 D4ED0D7A 		vldr.32	s15, [r4, #52]
 3274              		.loc 1 3360 0
 3275 00f6 1FED267A 		vldr.32	s14, .L386+40
 3276              		.loc 1 3359 0
 3277 00fa F5EEC07A 		vcmpe.f32	s15, #0
 3278              		.loc 1 3360 0
 3279 00fe D4ED397A 		vldr.32	s15, [r4, #228]
 3280              		.loc 1 3359 0
 3281 0102 F1EE10FA 		vmrs	APSR_nzcv, FPSCR
 3282              		.loc 1 3360 0
 3283 0106 CCBF     		ite	gt
 3284 0108 77EE877A 		vaddgt.f32	s15, s15, s14
 3285              		.loc 1 3362 0
 3286 010c 77EEC77A 		vsuble.f32	s15, s15, s14
 3287 0110 C4ED397A 		vstr.32	s15, [r4, #228]
 3288              	.L294:
 3289              		.loc 1 3366 0
 3290 0114 DC48     		ldr	r0, .L388
 3291 0116 FFF7FEFF 		bl	utils_norm_angle_rad
 3292              	.LVL329:
 3293              		.loc 1 3367 0
 3294 011a 0123     		movs	r3, #1
 3295 011c 84F8F030 		strb	r3, [r4, #240]
 3296              		.loc 1 3368 0
 3297 0120 94EDAF7A 		vldr.32	s14, [r4, #700]
 3298              		.loc 1 3373 0
 3299 0124 DFEDD97A 		vldr.32	s15, .L388+4
 3300              		.loc 1 3368 0
 3301 0128 37EE687A 		vsub.f32	s14, s14, s17
 3302              		.loc 1 3373 0
 3303 012c 03A9     		add	r1, sp, #12
 3304              		.loc 1 3368 0
 3305 012e 84EDAF7A 		vstr.32	s14, [r4, #700]
 3306              		.loc 1 3369 0
ARM GAS  /tmp/ccMYeDWX.s 			page 59


 3307 0132 84EDAE9A 		vstr.32	s18, [r4, #696]
 3308              		.loc 1 3373 0
 3309 0136 94ED390A 		vldr.32	s0, [r4, #228]
 3310 013a 94ED0D7A 		vldr.32	s14, [r4, #52]
 3311 013e B5EEC07A 		vcmpe.f32	s14, #0
 3312 0142 F1EE10FA 		vmrs	APSR_nzcv, FPSCR
 3313 0146 48BF     		it	mi
 3314 0148 F0EE4A7A 		vmovmi.f32	s15, s20
 3315 014c 30EE270A 		vadd.f32	s0, s0, s15
 3316 0150 02A8     		add	r0, sp, #8
 3317 0152 FFF7FEFF 		bl	utils_fast_sincos_better
 3318              	.LVL330:
 3319              		.loc 1 3374 0
 3320 0156 2368     		ldr	r3, [r4]
 3321 0158 DDED037A 		vldr.32	s15, [sp, #12]
 3322 015c 93ED3B7A 		vldr.32	s14, [r3, #236]
 3323              		.loc 1 3375 0
 3324 0160 DDED026A 		vldr.32	s13, [sp, #8]
 3325              		.loc 1 3374 0
 3326 0164 27EE277A 		vmul.f32	s14, s14, s15
 3327 0168 84ED3A7A 		vstr.32	s14, [r4, #232]
 3328              		.loc 1 3375 0
 3329 016c 2368     		ldr	r3, [r4]
 3330 016e D3ED3B7A 		vldr.32	s15, [r3, #236]
 3331 0172 67EEA67A 		vmul.f32	s15, s15, s13
 3332 0176 C4ED3B7A 		vstr.32	s15, [r4, #236]
 3333              	.LBE626:
 3334              		.loc 1 3382 0
 3335 017a 2379     		ldrb	r3, [r4, #4]	@ zero_extendqisi2
 3336 017c 022B     		cmp	r3, #2
 3337 017e 00F03E81 		beq	.L378
 3338              	.L300:
 3339              		.loc 1 3394 0
 3340 0182 94ED0D0A 		vldr.32	s0, [r4, #52]
 3341 0186 9FEDC21A 		vldr.32	s2, .L388+8
 3342              		.loc 1 3395 0
 3343 018a D4ED167A 		vldr.32	s15, [r4, #88]
 3344              		.loc 1 3396 0
 3345 018e 2368     		ldr	r3, [r4]
 3346              		.loc 1 3394 0
 3347 0190 DFEDC00A 		vldr.32	s1, .L388+12
 3348 0194 93ED3C2A 		vldr.32	s4, [r3, #240]
 3349 0198 81EE271A 		vdiv.f32	s2, s2, s15
 3350 019c B0EEC00A 		vabs.f32	s0, s0
 3351 01a0 F0EE491A 		vmov.f32	s3, s18
 3352 01a4 FFF7FEFF 		bl	utils_map
 3353              	.LVL331:
 3354              		.loc 1 3397 0
 3355 01a8 2368     		ldr	r3, [r4]
 3356 01aa D3ED3D7A 		vldr.32	s15, [r3, #244]
 3357 01ae 2368     		ldr	r3, [r4]
 3358 01b0 93ED3C7A 		vldr.32	s14, [r3, #240]
 3359 01b4 67EE877A 		vmul.f32	s15, s15, s14
 3360 01b8 B4EEE70A 		vcmpe.f32	s0, s15
 3361 01bc F1EE10FA 		vmrs	APSR_nzcv, FPSCR
 3362 01c0 07D5     		bpl	.L303
 3363              		.loc 1 3398 0
ARM GAS  /tmp/ccMYeDWX.s 			page 60


 3364 01c2 2368     		ldr	r3, [r4]
 3365 01c4 93ED3D0A 		vldr.32	s0, [r3, #244]
 3366              	.LVL332:
 3367 01c8 2368     		ldr	r3, [r4]
 3368 01ca D3ED3C7A 		vldr.32	s15, [r3, #240]
 3369 01ce 20EE270A 		vmul.f32	s0, s0, s15
 3370              	.LVL333:
 3371              	.L303:
 3372              		.loc 1 3402 0
 3373 01d2 F1EE007A 		vmov.f32	s15, #4.0e+0
 3374 01d6 20EE270A 		vmul.f32	s0, s0, s15
 3375              	.LVL334:
 3376              	.LBB627:
 3377              		.loc 1 3410 0
 3378 01da DFEDAF7A 		vldr.32	s15, .L388+16
 3379              	.LBE627:
 3380              		.loc 1 3402 0
 3381 01de 84ED490A 		vstr.32	s0, [r4, #292]
 3382              	.LVL335:
 3383              	.LBB628:
 3384              		.loc 1 3409 0
 3385 01e2 94ED136A 		vldr.32	s12, [r4, #76]
 3386 01e6 D4ED135A 		vldr.32	s11, [r4, #76]
 3387              		.loc 1 3410 0
 3388 01ea 94EDC37A 		vldr.32	s14, [r4, #780]
 3389 01ee 2368     		ldr	r3, [r4]
 3390              		.loc 1 3411 0
 3391 01f0 9FEDAA4A 		vldr.32	s8, .L388+20
 3392              		.loc 1 3410 0
 3393 01f4 D3ED386A 		vldr.32	s13, [r3, #224]
 3394              		.loc 1 3416 0
 3395 01f8 A948     		ldr	r0, .L388+24
 3396              		.loc 1 3409 0
 3397 01fa 26EE256A 		vmul.f32	s12, s12, s11
 3398              	.LVL336:
 3399              		.loc 1 3410 0
 3400 01fe 66EEA76A 		vmul.f32	s13, s13, s15
 3401              		.loc 1 3416 0
 3402 0202 F5EE004A 		vmov.f32	s9, #2.5e-1
 3403              		.loc 1 3410 0
 3404 0206 A6EE667A 		vfms.f32	s14, s12, s13
 3405              		.loc 1 3416 0
 3406 020a B0EE085A 		vmov.f32	s10, #3.0e+0
 3407              		.loc 1 3410 0
 3408 020e 84EDC27A 		vstr.32	s14, [r4, #776]
 3409              		.loc 1 3411 0
 3410 0212 D4EDC23A 		vldr.32	s7, [r4, #776]
 3411 0216 94ED4B3A 		vldr.32	s6, [r4, #300]
 3412              		.loc 1 3412 0
 3413 021a 94ED121A 		vldr.32	s2, [r4, #72]
 3414 021e D4ED3F1A 		vldr.32	s3, [r4, #252]
 3415 0222 D4ED117A 		vldr.32	s15, [r4, #68]
 3416 0226 94ED407A 		vldr.32	s14, [r4, #256]
 3417              		.loc 1 3413 0
 3418 022a 94ED112A 		vldr.32	s4, [r4, #68]
 3419 022e D4ED172A 		vldr.32	s5, [r4, #92]
 3420 0232 D4ED126A 		vldr.32	s13, [r4, #72]
ARM GAS  /tmp/ccMYeDWX.s 			page 61


 3421 0236 D4ED180A 		vldr.32	s1, [r4, #96]
 3422              	.LVL337:
 3423              		.loc 1 3414 0
 3424 023a D4EDC35A 		vldr.32	s11, [r4, #780]
 3425              		.loc 1 3412 0
 3426 023e 67EE677A 		vnmul.f32	s15, s14, s15
 3427              	.LVL338:
 3428              		.loc 1 3413 0
 3429 0242 66EEA06A 		vmul.f32	s13, s13, s1
 3430              		.loc 1 3412 0
 3431 0246 E1EE217A 		vfma.f32	s15, s2, s3
 3432              		.loc 1 3413 0
 3433 024a E2EE226A 		vfma.f32	s13, s4, s5
 3434              		.loc 1 3411 0
 3435 024e 67EE837A 		vmul.f32	s15, s15, s6
 3436 0252 E6EE237A 		vfma.f32	s15, s12, s7
 3437              		.loc 1 3412 0
 3438 0256 77EEE67A 		vsub.f32	s15, s15, s13
 3439              		.loc 1 3411 0
 3440 025a 67EE847A 		vmul.f32	s15, s15, s8
 3441              		.loc 1 3414 0
 3442 025e E7EEA85A 		vfma.f32	s11, s15, s17
 3443 0262 C4EDC35A 		vstr.32	s11, [r4, #780]
 3444              		.loc 1 3416 0
 3445 0266 2368     		ldr	r3, [r4]
 3446 0268 93ED3A0A 		vldr.32	s0, [r3, #232]
 3447 026c 2368     		ldr	r3, [r4]
 3448 026e D3ED3A0A 		vldr.32	s1, [r3, #232]
 3449 0272 20EE240A 		vmul.f32	s0, s0, s9
 3450 0276 60EE850A 		vmul.f32	s1, s1, s10
 3451 027a FFF7FEFF 		bl	utils_truncate_number
 3452              	.LVL339:
 3453              	.LBE628:
 3454              	.LBE616:
 3455              	.LBE615:
 3456              		.loc 1 3500 0
 3457 027e 0A20     		movs	r0, #10
 3458 0280 FFF7FEFF 		bl	chThdSleep
 3459              	.LVL340:
 3460              		.loc 1 3488 0
 3461 0284 2B78     		ldrb	r3, [r5]	@ zero_extendqisi2
 3462 0286 002B     		cmp	r3, #0
 3463 0288 40F06B81 		bne	.L305
 3464              	.LVL341:
 3465              	.L256:
 3466              	.LBB639:
 3467              	.LBB637:
 3468              	.LBB629:
 3469              	.LBB622:
 3470              		.loc 1 3157 0
 3471 028c 2368     		ldr	r3, [r4]
 3472 028e 93ED698A 		vldr.32	s16, [r3, #420]
 3473 0292 2368     		ldr	r3, [r4]
 3474 0294 F0EE680A 		vmov.f32	s1, s17
 3475 0298 93ED830A 		vldr.32	s0, [r3, #524]
 3476 029c FFF7FEFF 		bl	fmaxf
 3477              	.LVL342:
ARM GAS  /tmp/ccMYeDWX.s 			page 62


 3478 02a0 B4EEC08A 		vcmpe.f32	s16, s0
 3479 02a4 F1EE10FA 		vmrs	APSR_nzcv, FPSCR
 3480 02a8 03D4     		bmi	.L257
 3481              		.loc 1 3165 0
 3482 02aa 2379     		ldrb	r3, [r4, #4]	@ zero_extendqisi2
 3483 02ac 022B     		cmp	r3, #2
 3484 02ae 00F02081 		beq	.L379
 3485              	.L257:
 3486              	.LVL343:
 3487              	.LBE622:
 3488              	.LBE629:
 3489              		.loc 1 3203 0
 3490 02b2 FFF7FEFF 		bl	utils_sys_lock_cnt
 3491              	.LVL344:
 3492              		.loc 1 3204 0
 3493 02b6 F0EE680A 		vmov.f32	s1, s17
 3494 02ba B0EE490A 		vmov.f32	s0, s18
 3495 02be 7948     		ldr	r0, .L388+28
 3496 02c0 FFF7FEFF 		bl	utils_step_towards
 3497              	.LVL345:
 3498              		.loc 1 3205 0
 3499 02c4 94F8AC30 		ldrb	r3, [r4, #172]	@ zero_extendqisi2
 3500 02c8 1BB9     		cbnz	r3, .L265
 3501 02ca 2379     		ldrb	r3, [r4, #4]	@ zero_extendqisi2
 3502 02cc 022B     		cmp	r3, #2
 3503 02ce 00F04E81 		beq	.L380
 3504              	.L265:
 3505              		.loc 1 3227 0
 3506 02d2 FFF7FEFF 		bl	utils_sys_unlock_cnt
 3507              	.LVL346:
 3508              		.loc 1 3292 0
 3509 02d6 2368     		ldr	r3, [r4]
 3510              		.loc 1 3296 0
 3511 02d8 DFED6E0A 		vldr.32	s1, .L388+12
 3512              		.loc 1 3292 0
 3513 02dc D3ED49BA 		vldr.32	s23, [r3, #292]
 3514              	.LVL347:
 3515              		.loc 1 3293 0
 3516 02e0 2368     		ldr	r3, [r4]
 3517 02e2 D3ED4ACA 		vldr.32	s25, [r3, #296]
 3518              	.LVL348:
 3519              		.loc 1 3294 0
 3520 02e6 2368     		ldr	r3, [r4]
 3521 02e8 93ED48CA 		vldr.32	s24, [r3, #288]
 3522              	.LVL349:
 3523              		.loc 1 3296 0
 3524 02ec 94ED1F0A 		vldr.32	s0, [r4, #124]
 3525              		.loc 1 3297 0
 3526 02f0 2368     		ldr	r3, [r4]
 3527              		.loc 1 3296 0
 3528 02f2 93ED001A 		vldr.32	s2, [r3]
 3529              		.loc 1 3298 0
 3530 02f6 2368     		ldr	r3, [r4]
 3531 02f8 D3ED441A 		vldr.32	s3, [r3, #272]
 3532 02fc 2368     		ldr	r3, [r4]
 3533 02fe D3ED437A 		vldr.32	s15, [r3, #268]
 3534              		.loc 1 3299 0
ARM GAS  /tmp/ccMYeDWX.s 			page 63


 3535 0302 2368     		ldr	r3, [r4]
 3536              		.loc 1 3296 0
 3537 0304 61EEA71A 		vmul.f32	s3, s3, s15
 3538 0308 93ED432A 		vldr.32	s4, [r3, #268]
 3539 030c B0EEC00A 		vabs.f32	s0, s0
 3540 0310 FFF7FEFF 		bl	utils_map
 3541              	.LVL350:
 3542              		.loc 1 3301 0
 3543 0314 2368     		ldr	r3, [r4]
 3544              		.loc 1 3296 0
 3545 0316 8DED000A 		vstr.32	s0, [sp]
 3546              		.loc 1 3301 0
 3547 031a D3ED437A 		vldr.32	s15, [r3, #268]
 3548 031e 6846     		mov	r0, sp
 3549 0320 B0EE670A 		vmov.f32	s0, s15
 3550 0324 FFF7FEFF 		bl	utils_truncate_number_abs
 3551              	.LVL351:
 3552              		.loc 1 3304 0
 3553 0328 2368     		ldr	r3, [r4]
 3554              		.loc 1 3303 0
 3555 032a 9DED002A 		vldr.32	s4, [sp]
 3556              		.loc 1 3304 0
 3557 032e 93F82C31 		ldrb	r3, [r3, #300]	@ zero_extendqisi2
 3558              		.loc 1 3303 0
 3559 0332 8DED012A 		vstr.32	s4, [sp, #4]
 3560              		.loc 1 3304 0
 3561 0336 012B     		cmp	r3, #1
 3562 0338 0FD0     		beq	.L273
 3563              	.LBB630:
 3564              		.loc 1 3305 0
 3565 033a 3BEEAC1A 		vadd.f32	s2, s23, s25
 3566 033e D4EDAF7A 		vldr.32	s15, [r4, #700]
 3567 0342 3CEE010A 		vadd.f32	s0, s24, s2
 3568 0346 30EE670A 		vsub.f32	s0, s0, s15
 3569              	.LVL352:
 3570              		.loc 1 3306 0
 3571 034a F4EEC0BA 		vcmpe.f32	s23, s0
 3572 034e F1EE10FA 		vmrs	APSR_nzcv, FPSCR
 3573 0352 40F3AB80 		ble	.L370
 3574              		.loc 1 3307 0
 3575 0356 8DED019A 		vstr.32	s18, [sp, #4]
 3576              	.LVL353:
 3577              	.L273:
 3578              	.LBE630:
 3579              		.loc 1 3314 0
 3580 035a B0EE420A 		vmov.f32	s0, s4
 3581 035e 01A8     		add	r0, sp, #4
 3582 0360 FFF7FEFF 		bl	utils_truncate_number_abs
 3583              	.LVL354:
 3584              		.loc 1 3317 0
 3585 0364 D4ED0D7A 		vldr.32	s15, [r4, #52]
 3586              		.loc 1 3318 0
 3587 0368 9DED018A 		vldr.32	s16, [sp, #4]
 3588              		.loc 1 3325 0
 3589 036c 4E48     		ldr	r0, .L388+32
 3590              		.loc 1 3317 0
 3591 036e F5EEC07A 		vcmpe.f32	s15, #0
ARM GAS  /tmp/ccMYeDWX.s 			page 64


 3592 0372 F1EE10FA 		vmrs	APSR_nzcv, FPSCR
 3593              		.loc 1 3318 0
 3594 0376 CCBF     		ite	gt
 3595 0378 28EE298A 		vmulgt.f32	s16, s16, s19
 3596              		.loc 1 3320 0
 3597 037c 29EEC88A 		vnmulle.f32	s16, s19, s16
 3598              		.loc 1 3324 0
 3599 0380 D4ED3E7A 		vldr.32	s15, [r4, #248]
 3600              		.loc 1 3320 0
 3601 0384 28EE288A 		vmul.f32	s16, s16, s17
 3602              	.LVL355:
 3603              		.loc 1 3324 0
 3604 0388 77EE887A 		vadd.f32	s15, s15, s16
 3605 038c C4ED3E7A 		vstr.32	s15, [r4, #248]
 3606              		.loc 1 3325 0
 3607 0390 FFF7FEFF 		bl	utils_norm_angle_rad
 3608              	.LVL356:
 3609              		.loc 1 3327 0
 3610 0394 DDED007A 		vldr.32	s15, [sp]
 3611 0398 94ED427A 		vldr.32	s14, [r4, #264]
 3612 039c 67EEA97A 		vmul.f32	s15, s15, s19
 3613 03a0 B0EEC77A 		vabs.f32	s14, s14
 3614 03a4 B4EEE77A 		vcmpe.f32	s14, s15
 3615 03a8 F1EE10FA 		vmrs	APSR_nzcv, FPSCR
 3616 03ac 3FF55AAE 		bmi	.L381
 3617              	.L280:
 3618              		.loc 1 3330 0
 3619 03b0 D4EDAE7A 		vldr.32	s15, [r4, #696]
 3620 03b4 F5EEC07A 		vcmpe.f32	s15, #0
 3621 03b8 F1EE10FA 		vmrs	APSR_nzcv, FPSCR
 3622 03bc 7FF763AE 		ble	.L283
 3623              		.loc 1 3331 0
 3624 03c0 D4EDAE7A 		vldr.32	s15, [r4, #696]
 3625 03c4 77EEE87A 		vsub.f32	s15, s15, s17
 3626 03c8 C4EDAE7A 		vstr.32	s15, [r4, #696]
 3627              		.loc 1 3335 0
 3628 03cc 6379     		ldrb	r3, [r4, #5]	@ zero_extendqisi2
 3629 03ce 032B     		cmp	r3, #3
 3630 03d0 7FF45DAE 		bne	.L382
 3631              	.L285:
 3632              		.loc 1 3339 0
 3633 03d4 0023     		movs	r3, #0
 3634              		.loc 1 3337 0
 3635 03d6 84EDAE9A 		vstr.32	s18, [r4, #696]
 3636              		.loc 1 3338 0
 3637 03da 84EDAF9A 		vstr.32	s18, [r4, #700]
 3638              		.loc 1 3339 0
 3639 03de 84F8F030 		strb	r3, [r4, #240]
 3640 03e2 58E6     		b	.L286
 3641              	.LVL357:
 3642              	.L373:
 3643              		.loc 1 3342 0
 3644 03e4 0022     		movs	r2, #0
 3645 03e6 70E6     		b	.L288
 3646              	.LVL358:
 3647              	.L374:
 3648              		.loc 1 3377 0
ARM GAS  /tmp/ccMYeDWX.s 			page 65


 3649 03e8 D4F8E020 		ldr	r2, [r4, #224]	@ float
 3650              	.LVL359:
 3651 03ec C4F8E420 		str	r2, [r4, #228]	@ float
 3652              		.loc 1 3378 0
 3653 03f0 0023     		movs	r3, #0
 3654 03f2 84F8F030 		strb	r3, [r4, #240]
 3655              		.loc 1 3382 0
 3656 03f6 2379     		ldrb	r3, [r4, #4]	@ zero_extendqisi2
 3657 03f8 022B     		cmp	r3, #2
 3658 03fa 7FF4C2AE 		bne	.L300
 3659              	.LVL360:
 3660              	.L378:
 3661              	.LBB631:
 3662              		.loc 1 3383 0
 3663 03fe D4F88030 		ldr	r3, [r4, #128]	@ float
 3664 0402 0493     		str	r3, [sp, #16]	@ float
 3665              		.loc 1 3384 0
 3666 0404 D4F88430 		ldr	r3, [r4, #132]	@ float
 3667 0408 0593     		str	r3, [sp, #20]	@ float
 3668              		.loc 1 3385 0
 3669 040a 236F     		ldr	r3, [r4, #112]	@ float
 3670 040c 0693     		str	r3, [sp, #24]	@ float
 3671              		.loc 1 3386 0
 3672 040e 636F     		ldr	r3, [r4, #116]	@ float
 3673 0410 0793     		str	r3, [sp, #28]	@ float
 3674              		.loc 1 3388 0
 3675 0412 9DED067A 		vldr.32	s14, [sp, #24]
 3676 0416 DDED067A 		vldr.32	s15, [sp, #24]
 3677 041a 9DED070A 		vldr.32	s0, [sp, #28]
 3678 041e DDED076A 		vldr.32	s13, [sp, #28]
 3679 0422 20EE260A 		vmul.f32	s0, s0, s13
 3680 0426 A7EE270A 		vfma.f32	s0, s14, s15
 3681 042a B5EE400A 		vcmp.f32	s0, #0
 3682 042e F1EE10FA 		vmrs	APSR_nzcv, FPSCR
 3683 0432 B1EEC08A 		vsqrt.f32	s16, s0
 3684 0436 00F10881 		bmi	.L383
 3685              	.L301:
 3686 043a D4ED447A 		vldr.32	s15, [r4, #272]
 3687 043e 38EE278A 		vadd.f32	s16, s16, s15
 3688 0442 84ED448A 		vstr.32	s16, [r4, #272]
 3689              		.loc 1 3389 0
 3690 0446 9DED047A 		vldr.32	s14, [sp, #16]
 3691 044a DDED047A 		vldr.32	s15, [sp, #16]
 3692 044e 9DED050A 		vldr.32	s0, [sp, #20]
 3693 0452 DDED056A 		vldr.32	s13, [sp, #20]
 3694 0456 20EE260A 		vmul.f32	s0, s0, s13
 3695 045a A7EE270A 		vfma.f32	s0, s14, s15
 3696 045e B5EE400A 		vcmp.f32	s0, #0
 3697 0462 F1EE10FA 		vmrs	APSR_nzcv, FPSCR
 3698 0466 B1EEC08A 		vsqrt.f32	s16, s0
 3699 046a 00F1F180 		bmi	.L384
 3700              	.L302:
 3701 046e D4ED457A 		vldr.32	s15, [r4, #276]
 3702 0472 38EE278A 		vadd.f32	s16, s16, s15
 3703 0476 84ED458A 		vstr.32	s16, [r4, #276]
 3704              		.loc 1 3390 0
 3705 047a D4F80C31 		ldr	r3, [r4, #268]
ARM GAS  /tmp/ccMYeDWX.s 			page 66


 3706 047e 0133     		adds	r3, r3, #1
 3707 0480 C4F80C31 		str	r3, [r4, #268]
 3708 0484 7DE6     		b	.L300
 3709              	.L389:
 3710 0486 00BF     		.align	2
 3711              	.L388:
 3712 0488 E4000000 		.word	.LANCHOR0+228
 3713 048c DB0F493F 		.word	1061752795
 3714 0490 00002042 		.word	1109393408
 3715 0494 00000000 		.word	0
 3716 0498 ACC52737 		.word	925353388
 3717 049c ACC5A7B7 		.word	3081225644
 3718 04a0 0C030000 		.word	.LANCHOR0+780
 3719 04a4 C4000000 		.word	.LANCHOR0+196
 3720 04a8 F8000000 		.word	.LANCHOR0+248
 3721              	.LVL361:
 3722              	.L370:
 3723              	.LBE631:
 3724              	.LBB632:
 3725              		.loc 1 3308 0
 3726 04ac B4EEC01A 		vcmpe.f32	s2, s0
 3727 04b0 F1EE10FA 		vmrs	APSR_nzcv, FPSCR
 3728 04b4 7FF751AF 		ble	.L273
 3729              		.loc 1 3309 0
 3730 04b8 F0EE491A 		vmov.f32	s3, s18
 3731 04bc F0EE6B0A 		vmov.f32	s1, s23
 3732 04c0 FFF7FEFF 		bl	utils_map
 3733              	.LVL362:
 3734 04c4 9DED002A 		vldr.32	s4, [sp]
 3735 04c8 8DED010A 		vstr.32	s0, [sp, #4]
 3736 04cc 45E7     		b	.L273
 3737              	.LVL363:
 3738              	.L377:
 3739              	.LBE632:
 3740              		.loc 1 3336 0
 3741 04ce D4ED0D7A 		vldr.32	s15, [r4, #52]
 3742 04d2 F0EEE77A 		vabs.f32	s15, s15
 3743 04d6 F4EEE87A 		vcmpe.f32	s15, s17
 3744 04da F1EE10FA 		vmrs	APSR_nzcv, FPSCR
 3745 04de 7FF5DAAD 		bpl	.L286
 3746              		.loc 1 3339 0
 3747 04e2 0023     		movs	r3, #0
 3748              		.loc 1 3337 0
 3749 04e4 84EDAE9A 		vstr.32	s18, [r4, #696]
 3750              		.loc 1 3338 0
 3751 04e8 84EDAF9A 		vstr.32	s18, [r4, #700]
 3752              		.loc 1 3339 0
 3753 04ec 84F8F030 		strb	r3, [r4, #240]
 3754 04f0 D1E5     		b	.L286
 3755              	.LVL364:
 3756              	.L379:
 3757              	.LBB633:
 3758              	.LBB623:
 3759              		.loc 1 3166 0
 3760 04f2 6379     		ldrb	r3, [r4, #5]	@ zero_extendqisi2
 3761              		.loc 1 3165 0
 3762 04f4 022B     		cmp	r3, #2
ARM GAS  /tmp/ccMYeDWX.s 			page 67


 3763 04f6 10D0     		beq	.L258
 3764              		.loc 1 3167 0
 3765 04f8 6379     		ldrb	r3, [r4, #5]	@ zero_extendqisi2
 3766              		.loc 1 3166 0
 3767 04fa 032B     		cmp	r3, #3
 3768 04fc 0DD0     		beq	.L258
 3769              		.loc 1 3168 0
 3770 04fe 6379     		ldrb	r3, [r4, #5]	@ zero_extendqisi2
 3771              		.loc 1 3167 0
 3772 0500 012B     		cmp	r3, #1
 3773 0502 0AD0     		beq	.L258
 3774              		.loc 1 3169 0
 3775 0504 94ED307A 		vldr.32	s14, [r4, #192]
 3776 0508 2368     		ldr	r3, [r4]
 3777 050a D3ED837A 		vldr.32	s15, [r3, #524]
 3778              		.loc 1 3168 0
 3779 050e B4EEE77A 		vcmpe.f32	s14, s15
 3780 0512 F1EE10FA 		vmrs	APSR_nzcv, FPSCR
 3781 0516 7FF7CCAE 		ble	.L257
 3782              	.L258:
 3783              	.LVL365:
 3784              	.LBB620:
 3785              		.loc 1 3171 0
 3786 051a 94EDA30A 		vldr.32	s0, [r4, #652]
 3787              	.LVL366:
 3788              		.loc 1 3173 0
 3789 051e 2368     		ldr	r3, [r4]
 3790 0520 D3ED6A7A 		vldr.32	s15, [r3, #424]
 3791 0524 F4EECB7A 		vcmpe.f32	s15, s22
 3792 0528 F1EE10FA 		vmrs	APSR_nzcv, FPSCR
 3793 052c 0CD5     		bpl	.L368
 3794              		.loc 1 3174 0
 3795 052e 2368     		ldr	r3, [r4]
 3796 0530 D3ED6A7A 		vldr.32	s15, [r3, #424]
 3797 0534 2368     		ldr	r3, [r4]
 3798 0536 93ED157A 		vldr.32	s14, [r3, #84]
 3799 053a 67EE877A 		vmul.f32	s15, s15, s14
 3800              		.loc 1 3173 0
 3801 053e B4EEE70A 		vcmpe.f32	s0, s15
 3802 0542 F1EE10FA 		vmrs	APSR_nzcv, FPSCR
 3803 0546 69DC     		bgt	.L385
 3804              	.L368:
 3805              		.loc 1 3170 0
 3806 0548 B0EE490A 		vmov.f32	s0, s18
 3807              	.LVL367:
 3808              	.L260:
 3809              		.loc 1 3189 0
 3810 054c 2368     		ldr	r3, [r4]
 3811 054e D3ED6B7A 		vldr.32	s15, [r3, #428]
 3812 0552 F4EEE87A 		vcmpe.f32	s15, s17
 3813 0556 F1EE10FA 		vmrs	APSR_nzcv, FPSCR
 3814 055a 51D5     		bpl	.L369
 3815              		.loc 1 3190 0
 3816 055c 84ED300A 		vstr.32	s0, [r4, #192]
 3817 0560 A7E6     		b	.L257
 3818              	.LVL368:
 3819              	.L305:
ARM GAS  /tmp/ccMYeDWX.s 			page 68


 3820              	.LBE620:
 3821              	.LBE623:
 3822              	.LBE633:
 3823              	.LBE637:
 3824              	.LBE639:
 3825              		.loc 1 3489 0
 3826 0562 0023     		movs	r3, #0
 3827 0564 2B70     		strb	r3, [r5]
 3828              	.LBE645:
 3829              		.loc 1 3502 0
 3830 0566 09B0     		add	sp, sp, #36
 3831              		.cfi_remember_state
 3832              		.cfi_def_cfa_offset 52
 3833              		@ sp needed
 3834 0568 BDEC0A8B 		vldm	sp!, {d8-d12}
 3835              		.cfi_restore 88
 3836              		.cfi_restore 89
 3837              		.cfi_restore 86
 3838              		.cfi_restore 87
 3839              		.cfi_restore 84
 3840              		.cfi_restore 85
 3841              		.cfi_restore 82
 3842              		.cfi_restore 83
 3843              		.cfi_restore 80
 3844              		.cfi_restore 81
 3845              		.cfi_def_cfa_offset 12
 3846 056c 30BD     		pop	{r4, r5, pc}
 3847              	.LVL369:
 3848              	.L380:
 3849              		.cfi_restore_state
 3850              	.LBB646:
 3851              	.LBB640:
 3852              	.LBB638:
 3853              		.loc 1 3206 0
 3854 056e 6379     		ldrb	r3, [r4, #5]	@ zero_extendqisi2
 3855              		.loc 1 3205 0
 3856 0570 022B     		cmp	r3, #2
 3857 0572 0CD0     		beq	.L266
 3858              		.loc 1 3207 0
 3859 0574 6379     		ldrb	r3, [r4, #5]	@ zero_extendqisi2
 3860              		.loc 1 3206 0
 3861 0576 032B     		cmp	r3, #3
 3862 0578 09D0     		beq	.L266
 3863              		.loc 1 3208 0
 3864 057a 6379     		ldrb	r3, [r4, #5]	@ zero_extendqisi2
 3865              		.loc 1 3207 0
 3866 057c 052B     		cmp	r3, #5
 3867 057e 06D0     		beq	.L266
 3868              		.loc 1 3209 0
 3869 0580 6379     		ldrb	r3, [r4, #5]	@ zero_extendqisi2
 3870              		.loc 1 3208 0
 3871 0582 062B     		cmp	r3, #6
 3872 0584 03D0     		beq	.L266
 3873              		.loc 1 3210 0
 3874 0586 6379     		ldrb	r3, [r4, #5]	@ zero_extendqisi2
 3875              		.loc 1 3209 0
 3876 0588 072B     		cmp	r3, #7
ARM GAS  /tmp/ccMYeDWX.s 			page 69


 3877 058a 7FF4A2AE 		bne	.L265
 3878              	.L266:
 3879              	.LBB634:
 3880              		.loc 1 3213 0
 3881 058e 2368     		ldr	r3, [r4]
 3882 0590 D3ED837A 		vldr.32	s15, [r3, #524]
 3883              	.LVL370:
 3884              		.loc 1 3214 0
 3885 0594 F4EEE87A 		vcmpe.f32	s15, s17
 3886 0598 F1EE10FA 		vmrs	APSR_nzcv, FPSCR
 3887 059c 05D5     		bpl	.L267
 3888 059e 94F80433 		ldrb	r3, [r4, #772]	@ zero_extendqisi2
 3889              		.loc 1 3215 0
 3890 05a2 002B     		cmp	r3, #0
 3891 05a4 18BF     		it	ne
 3892 05a6 F0EE687A 		vmovne.f32	s15, s17
 3893              	.LVL371:
 3894              	.L267:
 3895              		.loc 1 3218 0
 3896 05aa 94ED2F7A 		vldr.32	s14, [r4, #188]
 3897 05ae B0EEC77A 		vabs.f32	s14, s14
 3898 05b2 B4EEE77A 		vcmpe.f32	s14, s15
 3899 05b6 F1EE10FA 		vmrs	APSR_nzcv, FPSCR
 3900 05ba 7FF58AAE 		bpl	.L265
 3901              		.loc 1 3219 0
 3902 05be 94ED2E7A 		vldr.32	s14, [r4, #184]
 3903 05c2 B0EEC77A 		vabs.f32	s14, s14
 3904              		.loc 1 3218 0
 3905 05c6 F4EEC77A 		vcmpe.f32	s15, s14
 3906 05ca F1EE10FA 		vmrs	APSR_nzcv, FPSCR
 3907 05ce 7FF780AE 		ble	.L265
 3908              		.loc 1 3220 0
 3909 05d2 94ED307A 		vldr.32	s14, [r4, #192]
 3910              		.loc 1 3219 0
 3911 05d6 F4EEC77A 		vcmpe.f32	s15, s14
 3912 05da F1EE10FA 		vmrs	APSR_nzcv, FPSCR
 3913 05de 7FF778AE 		ble	.L265
 3914              		.loc 1 3221 0
 3915 05e2 D4ED317A 		vldr.32	s15, [r4, #196]
 3916              	.LVL372:
 3917              		.loc 1 3220 0
 3918 05e6 F4EEE87A 		vcmpe.f32	s15, s17
 3919 05ea F1EE10FA 		vmrs	APSR_nzcv, FPSCR
 3920 05ee 7FF570AE 		bpl	.L265
 3921              		.loc 1 3222 0
 3922 05f2 0A22     		movs	r2, #10
 3923              		.loc 1 3223 0
 3924 05f4 0023     		movs	r3, #0
 3925              		.loc 1 3222 0
 3926 05f6 6271     		strb	r2, [r4, #5]
 3927              		.loc 1 3223 0
 3928 05f8 2371     		strb	r3, [r4, #4]
 3929              		.loc 1 3224 0
 3930 05fa FFF7FEFF 		bl	stop_pwm_hw.constprop.12
 3931              	.LVL373:
 3932 05fe 68E6     		b	.L265
 3933              	.LVL374:
ARM GAS  /tmp/ccMYeDWX.s 			page 70


 3934              	.L369:
 3935              	.LBE634:
 3936              	.LBB635:
 3937              	.LBB624:
 3938              	.LBB621:
 3939              		.loc 1 3193 0
 3940 0600 2368     		ldr	r3, [r4]
 3941              		.loc 1 3192 0
 3942 0602 1548     		ldr	r0, .L390
 3943              		.loc 1 3193 0
 3944 0604 D3ED6B7A 		vldr.32	s15, [r3, #428]
 3945 0608 2368     		ldr	r3, [r4]
 3946 060a C8EEA70A 		vdiv.f32	s1, s17, s15
 3947 060e D3ED697A 		vldr.32	s15, [r3, #420]
 3948              		.loc 1 3192 0
 3949 0612 60EEA70A 		vmul.f32	s1, s1, s15
 3950 0616 FFF7FEFF 		bl	utils_step_towards
 3951              	.LVL375:
 3952 061a 4AE6     		b	.L257
 3953              	.LVL376:
 3954              	.L385:
 3955              		.loc 1 3176 0
 3956 061c 2368     		ldr	r3, [r4]
 3957 061e D3ED6A0A 		vldr.32	s1, [r3, #424]
 3958 0622 2368     		ldr	r3, [r4]
 3959 0624 D3ED157A 		vldr.32	s15, [r3, #84]
 3960              		.loc 1 3177 0
 3961 0628 2368     		ldr	r3, [r4]
 3962              		.loc 1 3175 0
 3963 062a 93ED151A 		vldr.32	s2, [r3, #84]
 3964              		.loc 1 3178 0
 3965 062e 2368     		ldr	r3, [r4]
 3966              		.loc 1 3175 0
 3967 0630 60EEA70A 		vmul.f32	s1, s1, s15
 3968 0634 93ED692A 		vldr.32	s4, [r3, #420]
 3969 0638 F0EE491A 		vmov.f32	s3, s18
 3970 063c FFF7FEFF 		bl	utils_map
 3971              	.LVL377:
 3972              		.loc 1 3186 0
 3973 0640 4FF07E53 		mov	r3, #1065353216
 3974 0644 C4F8C430 		str	r3, [r4, #196]	@ float
 3975 0648 80E7     		b	.L260
 3976              	.LVL378:
 3977              	.L383:
 3978              	.LBE621:
 3979              	.LBE624:
 3980              	.LBE635:
 3981              	.LBB636:
 3982              		.loc 1 3388 0
 3983 064a FFF7FEFF 		bl	sqrtf
 3984              	.LVL379:
 3985 064e F4E6     		b	.L301
 3986              	.L384:
 3987              		.loc 1 3389 0
 3988 0650 FFF7FEFF 		bl	sqrtf
 3989              	.LVL380:
 3990 0654 0BE7     		b	.L302
ARM GAS  /tmp/ccMYeDWX.s 			page 71


 3991              	.L391:
 3992 0656 00BF     		.align	2
 3993              	.L390:
 3994 0658 C0000000 		.word	.LANCHOR0+192
 3995              	.LBE636:
 3996              	.LBE638:
 3997              	.LBE640:
 3998              	.LBE646:
 3999              		.cfi_endproc
 4000              	.LFE341:
 4001              		.size	timer_thread, .-timer_thread
 4002              		.section	.text.update_hfi_samples.constprop.13,"ax",%progbits
 4003              		.align	1
 4004              		.p2align 4,,15
 4005              		.syntax unified
 4006              		.thumb
 4007              		.thumb_func
 4008              		.fpu fpv4-sp-d16
 4009              		.type	update_hfi_samples.constprop.13, %function
 4010              	update_hfi_samples.constprop.13:
 4011              	.LFB365:
 4012              		.loc 1 298 0
 4013              		.cfi_startproc
 4014              		@ args = 0, pretend = 0, frame = 0
 4015              		@ frame_needed = 0, uses_anonymous_args = 0
 4016              	.LVL381:
 4017 0000 38B5     		push	{r3, r4, r5, lr}
 4018              		.cfi_def_cfa_offset 16
 4019              		.cfi_offset 3, -16
 4020              		.cfi_offset 4, -12
 4021              		.cfi_offset 5, -8
 4022              		.cfi_offset 14, -4
 4023              		.loc 1 301 0
 4024 0002 174C     		ldr	r4, .L399
 4025              		.loc 1 298 0
 4026 0004 0546     		mov	r5, r0
 4027              		.loc 1 299 0
 4028 0006 FFF7FEFF 		bl	utils_sys_lock_cnt
 4029              	.LVL382:
 4030              		.loc 1 301 0
 4031 000a 04F5A270 		add	r0, r4, #324
 4032 000e 4FF49A72 		mov	r2, #308
 4033 0012 0021     		movs	r1, #0
 4034 0014 FFF7FEFF 		bl	memset
 4035              	.LVL383:
 4036              		.loc 1 302 0
 4037 0018 012D     		cmp	r5, #1
 4038 001a 1BD0     		beq	.L394
 4039 001c 14D3     		bcc	.L395
 4040 001e 022D     		cmp	r5, #2
 4041 0020 0ED1     		bne	.L393
 4042              		.loc 1 322 0
 4043 0022 1049     		ldr	r1, .L399+4
 4044              		.loc 1 323 0
 4045 0024 104A     		ldr	r2, .L399+8
 4046              		.loc 1 324 0
 4047 0026 114B     		ldr	r3, .L399+12
ARM GAS  /tmp/ccMYeDWX.s 			page 72


 4048              		.loc 1 320 0
 4049 0028 2025     		movs	r5, #32
 4050              		.loc 1 321 0
 4051 002a 0120     		movs	r0, #1
 4052              	.L398:
 4053              		.loc 1 320 0
 4054 002c C4F85051 		str	r5, [r4, #336]
 4055              		.loc 1 321 0
 4056 0030 C4F85401 		str	r0, [r4, #340]
 4057              		.loc 1 322 0
 4058 0034 C4F84411 		str	r1, [r4, #324]
 4059              		.loc 1 323 0
 4060 0038 C4F84821 		str	r2, [r4, #328]
 4061              		.loc 1 324 0
 4062 003c C4F84C31 		str	r3, [r4, #332]
 4063              	.L393:
 4064              		.loc 1 329 0
 4065 0040 BDE83840 		pop	{r3, r4, r5, lr}
 4066              		.cfi_remember_state
 4067              		.cfi_restore 14
 4068              		.cfi_restore 5
 4069              		.cfi_restore 4
 4070              		.cfi_restore 3
 4071              		.cfi_def_cfa_offset 0
 4072              		.loc 1 328 0
 4073 0044 FFF7FEBF 		b	utils_sys_unlock_cnt
 4074              	.LVL384:
 4075              	.L395:
 4076              		.cfi_restore_state
 4077              		.loc 1 304 0
 4078 0048 0825     		movs	r5, #8
 4079              		.loc 1 305 0
 4080 004a 0420     		movs	r0, #4
 4081              		.loc 1 306 0
 4082 004c 0849     		ldr	r1, .L399+16
 4083              		.loc 1 307 0
 4084 004e 094A     		ldr	r2, .L399+20
 4085              		.loc 1 308 0
 4086 0050 094B     		ldr	r3, .L399+24
 4087 0052 EBE7     		b	.L398
 4088              	.L394:
 4089              		.loc 1 312 0
 4090 0054 1025     		movs	r5, #16
 4091              		.loc 1 313 0
 4092 0056 0220     		movs	r0, #2
 4093              		.loc 1 314 0
 4094 0058 0849     		ldr	r1, .L399+28
 4095              		.loc 1 315 0
 4096 005a 094A     		ldr	r2, .L399+32
 4097              		.loc 1 316 0
 4098 005c 094B     		ldr	r3, .L399+36
 4099 005e E5E7     		b	.L398
 4100              	.L400:
 4101              		.align	2
 4102              	.L399:
 4103 0060 00000000 		.word	.LANCHOR0
 4104 0064 00000000 		.word	utils_fft32_bin0
ARM GAS  /tmp/ccMYeDWX.s 			page 73


 4105 0068 00000000 		.word	utils_fft32_bin1
 4106 006c 00000000 		.word	utils_fft32_bin2
 4107 0070 00000000 		.word	utils_fft8_bin0
 4108 0074 00000000 		.word	utils_fft8_bin1
 4109 0078 00000000 		.word	utils_fft8_bin2
 4110 007c 00000000 		.word	utils_fft16_bin0
 4111 0080 00000000 		.word	utils_fft16_bin1
 4112 0084 00000000 		.word	utils_fft16_bin2
 4113              		.cfi_endproc
 4114              	.LFE365:
 4115              		.size	update_hfi_samples.constprop.13, .-update_hfi_samples.constprop.13
 4116              		.section	.text.mcpwm_foc_deinit,"ax",%progbits
 4117              		.align	1
 4118              		.p2align 4,,15
 4119              		.global	mcpwm_foc_deinit
 4120              		.syntax unified
 4121              		.thumb
 4122              		.thumb_func
 4123              		.fpu fpv4-sp-d16
 4124              		.type	mcpwm_foc_deinit, %function
 4125              	mcpwm_foc_deinit:
 4126              	.LFB262:
 4127              		.loc 1 702 0
 4128              		.cfi_startproc
 4129              		@ args = 0, pretend = 0, frame = 0
 4130              		@ frame_needed = 0, uses_anonymous_args = 0
 4131              		.loc 1 703 0
 4132 0000 1F4B     		ldr	r3, .L424
 4133 0002 1A78     		ldrb	r2, [r3]	@ zero_extendqisi2
 4134 0004 002A     		cmp	r2, #0
 4135 0006 3AD0     		beq	.L401
 4136              		.loc 1 702 0
 4137 0008 10B5     		push	{r4, lr}
 4138              		.cfi_def_cfa_offset 8
 4139              		.cfi_offset 4, -8
 4140              		.cfi_offset 14, -4
 4141              		.loc 1 709 0
 4142 000a 1E4C     		ldr	r4, .L424+4
 4143              		.loc 1 707 0
 4144 000c 0021     		movs	r1, #0
 4145              		.loc 1 709 0
 4146 000e 0122     		movs	r2, #1
 4147              		.loc 1 707 0
 4148 0010 1970     		strb	r1, [r3]
 4149              		.loc 1 709 0
 4150 0012 2270     		strb	r2, [r4]
 4151              		.loc 1 710 0
 4152 0014 2378     		ldrb	r3, [r4]	@ zero_extendqisi2
 4153 0016 2BB1     		cbz	r3, .L403
 4154              	.L404:
 4155              		.loc 1 711 0
 4156 0018 0A20     		movs	r0, #10
 4157 001a FFF7FEFF 		bl	chThdSleep
 4158              	.LVL385:
 4159              		.loc 1 710 0
 4160 001e 2378     		ldrb	r3, [r4]	@ zero_extendqisi2
 4161 0020 002B     		cmp	r3, #0
ARM GAS  /tmp/ccMYeDWX.s 			page 74


 4162 0022 F9D1     		bne	.L404
 4163              	.L403:
 4164              		.loc 1 714 0
 4165 0024 184C     		ldr	r4, .L424+8
 4166 0026 0123     		movs	r3, #1
 4167 0028 2370     		strb	r3, [r4]
 4168              		.loc 1 715 0
 4169 002a 2378     		ldrb	r3, [r4]	@ zero_extendqisi2
 4170 002c 2BB1     		cbz	r3, .L405
 4171              	.L406:
 4172              		.loc 1 716 0
 4173 002e 0A20     		movs	r0, #10
 4174 0030 FFF7FEFF 		bl	chThdSleep
 4175              	.LVL386:
 4176              		.loc 1 715 0
 4177 0034 2378     		ldrb	r3, [r4]	@ zero_extendqisi2
 4178 0036 002B     		cmp	r3, #0
 4179 0038 F9D1     		bne	.L406
 4180              	.L405:
 4181              		.loc 1 719 0
 4182 003a 144C     		ldr	r4, .L424+12
 4183 003c 0123     		movs	r3, #1
 4184 003e 2370     		strb	r3, [r4]
 4185              		.loc 1 720 0
 4186 0040 2378     		ldrb	r3, [r4]	@ zero_extendqisi2
 4187 0042 2BB1     		cbz	r3, .L407
 4188              	.L408:
 4189              		.loc 1 721 0
 4190 0044 0A20     		movs	r0, #10
 4191 0046 FFF7FEFF 		bl	chThdSleep
 4192              	.LVL387:
 4193              		.loc 1 720 0
 4194 004a 2378     		ldrb	r3, [r4]	@ zero_extendqisi2
 4195 004c 002B     		cmp	r3, #0
 4196 004e F9D1     		bne	.L408
 4197              	.L407:
 4198              		.loc 1 724 0
 4199 0050 0F48     		ldr	r0, .L424+16
 4200 0052 FFF7FEFF 		bl	TIM_DeInit
 4201              	.LVL388:
 4202              		.loc 1 725 0
 4203 0056 4FF08040 		mov	r0, #1073741824
 4204 005a FFF7FEFF 		bl	TIM_DeInit
 4205              	.LVL389:
 4206              		.loc 1 726 0
 4207 005e 0D48     		ldr	r0, .L424+20
 4208 0060 FFF7FEFF 		bl	TIM_DeInit
 4209              	.LVL390:
 4210              		.loc 1 727 0
 4211 0064 FFF7FEFF 		bl	ADC_DeInit
 4212              	.LVL391:
 4213              		.loc 1 728 0
 4214 0068 0B48     		ldr	r0, .L424+24
 4215 006a FFF7FEFF 		bl	DMA_DeInit
 4216              	.LVL392:
 4217              		.loc 1 729 0
 4218 006e 1220     		movs	r0, #18
ARM GAS  /tmp/ccMYeDWX.s 			page 75


 4219 0070 FFF7FEFF 		bl	nvicDisableVector
 4220              	.LVL393:
 4221              		.loc 1 730 0
 4222 0074 0948     		ldr	r0, .L424+28
 4223              		.loc 1 731 0
 4224 0076 BDE81040 		pop	{r4, lr}
 4225              		.cfi_restore 14
 4226              		.cfi_restore 4
 4227              		.cfi_def_cfa_offset 0
 4228              		.loc 1 730 0
 4229 007a FFF7FEBF 		b	dmaStreamRelease
 4230              	.LVL394:
 4231              	.L401:
 4232 007e 7047     		bx	lr
 4233              	.L425:
 4234              		.align	2
 4235              	.L424:
 4236 0080 00000000 		.word	.LANCHOR6
 4237 0084 00000000 		.word	.LANCHOR5
 4238 0088 00000000 		.word	.LANCHOR2
 4239 008c 00000000 		.word	.LANCHOR1
 4240 0090 00000140 		.word	1073807360
 4241 0094 00040140 		.word	1073808384
 4242 0098 70640240 		.word	1073898608
 4243 009c 90000000 		.word	_stm32_dma_streams+144
 4244              		.cfi_endproc
 4245              	.LFE262:
 4246              		.size	mcpwm_foc_deinit, .-mcpwm_foc_deinit
 4247              		.section	.text.mcpwm_foc_init_done,"ax",%progbits
 4248              		.align	1
 4249              		.p2align 4,,15
 4250              		.global	mcpwm_foc_init_done
 4251              		.syntax unified
 4252              		.thumb
 4253              		.thumb_func
 4254              		.fpu fpv4-sp-d16
 4255              		.type	mcpwm_foc_init_done, %function
 4256              	mcpwm_foc_init_done:
 4257              	.LFB264:
 4258              		.loc 1 741 0
 4259              		.cfi_startproc
 4260              		@ args = 0, pretend = 0, frame = 0
 4261              		@ frame_needed = 0, uses_anonymous_args = 0
 4262              		@ link register save eliminated.
 4263              		.loc 1 742 0
 4264 0000 014B     		ldr	r3, .L427
 4265 0002 1878     		ldrb	r0, [r3]	@ zero_extendqisi2
 4266              		.loc 1 743 0
 4267 0004 7047     		bx	lr
 4268              	.L428:
 4269 0006 00BF     		.align	2
 4270              	.L427:
 4271 0008 00000000 		.word	.LANCHOR6
 4272              		.cfi_endproc
 4273              	.LFE264:
 4274              		.size	mcpwm_foc_init_done, .-mcpwm_foc_init_done
 4275              		.section	.text.mcpwm_foc_set_configuration,"ax",%progbits
ARM GAS  /tmp/ccMYeDWX.s 			page 76


 4276              		.align	1
 4277              		.p2align 4,,15
 4278              		.global	mcpwm_foc_set_configuration
 4279              		.syntax unified
 4280              		.thumb
 4281              		.thumb_func
 4282              		.fpu fpv4-sp-d16
 4283              		.type	mcpwm_foc_set_configuration, %function
 4284              	mcpwm_foc_set_configuration:
 4285              	.LFB265:
 4286              		.loc 1 745 0
 4287              		.cfi_startproc
 4288              		@ args = 0, pretend = 0, frame = 0
 4289              		@ frame_needed = 0, uses_anonymous_args = 0
 4290              	.LVL395:
 4291 0000 F8B5     		push	{r3, r4, r5, r6, r7, lr}
 4292              		.cfi_def_cfa_offset 24
 4293              		.cfi_offset 3, -24
 4294              		.cfi_offset 4, -20
 4295              		.cfi_offset 5, -16
 4296              		.cfi_offset 6, -12
 4297              		.cfi_offset 7, -8
 4298              		.cfi_offset 14, -4
 4299              		.loc 1 746 0
 4300 0002 224C     		ldr	r4, .L433
 4301              		.loc 1 751 0
 4302 0004 224F     		ldr	r7, .L433+4
 4303              		.loc 1 746 0
 4304 0006 2060     		str	r0, [r4]
 4305              		.loc 1 750 0
 4306 0008 D0ED2E7A 		vldr.32	s15, [r0, #184]
 4307              		.loc 1 751 0
 4308 000c FB6A     		ldr	r3, [r7, #44]
 4309              		.loc 1 750 0
 4310 000e 214D     		ldr	r5, .L433+8
 4311 0010 FDEEE77A 		vcvt.s32.f32	s15, s15
 4312              		.loc 1 745 0
 4313 0014 0646     		mov	r6, r0
 4314              		.loc 1 750 0
 4315 0016 17EE902A 		vmov	r2, s15	@ int
 4316 001a 95FBF2F5 		sdiv	r5, r5, r2
 4317              	.LVL396:
 4318              		.loc 1 751 0
 4319 001e AB42     		cmp	r3, r5
 4320 0020 1AD0     		beq	.L430
 4321              		.loc 1 763 0
 4322 0022 0A22     		movs	r2, #10
 4323              		.loc 1 764 0
 4324 0024 0023     		movs	r3, #0
 4325              		.loc 1 763 0
 4326 0026 6271     		strb	r2, [r4, #5]
 4327              		.loc 1 764 0
 4328 0028 2371     		strb	r3, [r4, #4]
 4329              		.loc 1 765 0
 4330 002a FFF7FEFF 		bl	stop_pwm_hw.constprop.12
 4331              	.LVL397:
 4332              		.loc 1 766 0
ARM GAS  /tmp/ccMYeDWX.s 			page 77


 4333 002e 3A68     		ldr	r2, [r7]
 4334 0030 4FF08043 		mov	r3, #1073741824
 4335 0034 42F00202 		orr	r2, r2, #2
 4336 0038 3A60     		str	r2, [r7]
 4337 003a 1A68     		ldr	r2, [r3]
 4338 003c 0121     		movs	r1, #1
 4339 003e 42F00202 		orr	r2, r2, #2
 4340 0042 1A60     		str	r2, [r3]
 4341 0044 FD62     		str	r5, [r7, #44]
 4342 0046 9963     		str	r1, [r3, #56]
 4343 0048 3A68     		ldr	r2, [r7]
 4344 004a 22F00202 		bic	r2, r2, #2
 4345 004e 3A60     		str	r2, [r7]
 4346 0050 1A68     		ldr	r2, [r3]
 4347 0052 22F00202 		bic	r2, r2, #2
 4348 0056 1A60     		str	r2, [r3]
 4349              	.L430:
 4350              		.loc 1 773 0
 4351 0058 2368     		ldr	r3, [r4]
 4352 005a 93F87011 		ldrb	r1, [r3, #368]	@ zero_extendqisi2
 4353 005e D4F85021 		ldr	r2, [r4, #336]
 4354 0062 0823     		movs	r3, #8
 4355 0064 8B40     		lsls	r3, r3, r1
 4356 0066 9342     		cmp	r3, r2
 4357 0068 0AD0     		beq	.L431
 4358              		.loc 1 775 0
 4359 006a 0023     		movs	r3, #0
 4360              		.loc 1 774 0
 4361 006c 0A22     		movs	r2, #10
 4362 006e 6271     		strb	r2, [r4, #5]
 4363              		.loc 1 775 0
 4364 0070 2371     		strb	r3, [r4, #4]
 4365              		.loc 1 776 0
 4366 0072 FFF7FEFF 		bl	stop_pwm_hw.constprop.12
 4367              	.LVL398:
 4368              		.loc 1 777 0
 4369 0076 2368     		ldr	r3, [r4]
 4370 0078 93F87001 		ldrb	r0, [r3, #368]	@ zero_extendqisi2
 4371 007c FFF7FEFF 		bl	update_hfi_samples.constprop.13
 4372              	.LVL399:
 4373              	.L431:
 4374              		.loc 1 780 0
 4375 0080 3046     		mov	r0, r6
 4376              		.loc 1 781 0
 4377 0082 BDE8F840 		pop	{r3, r4, r5, r6, r7, lr}
 4378              		.cfi_restore 14
 4379              		.cfi_restore 7
 4380              		.cfi_restore 6
 4381              		.cfi_restore 5
 4382              		.cfi_restore 4
 4383              		.cfi_restore 3
 4384              		.cfi_def_cfa_offset 0
 4385              	.LVL400:
 4386              		.loc 1 780 0
 4387 0086 FFF7FEBF 		b	virtual_motor_set_configuration
 4388              	.LVL401:
 4389              	.L434:
ARM GAS  /tmp/ccMYeDWX.s 			page 78


 4390 008a 00BF     		.align	2
 4391              	.L433:
 4392 008c 00000000 		.word	.LANCHOR0
 4393 0090 00000140 		.word	1073807360
 4394 0094 007A030A 		.word	168000000
 4395              		.cfi_endproc
 4396              	.LFE265:
 4397              		.size	mcpwm_foc_set_configuration, .-mcpwm_foc_set_configuration
 4398              		.section	.text.mcpwm_foc_get_state,"ax",%progbits
 4399              		.align	1
 4400              		.p2align 4,,15
 4401              		.global	mcpwm_foc_get_state
 4402              		.syntax unified
 4403              		.thumb
 4404              		.thumb_func
 4405              		.fpu fpv4-sp-d16
 4406              		.type	mcpwm_foc_get_state, %function
 4407              	mcpwm_foc_get_state:
 4408              	.LFB266:
 4409              		.loc 1 783 0
 4410              		.cfi_startproc
 4411              		@ args = 0, pretend = 0, frame = 0
 4412              		@ frame_needed = 0, uses_anonymous_args = 0
 4413              		@ link register save eliminated.
 4414              		.loc 1 784 0
 4415 0000 014B     		ldr	r3, .L436
 4416 0002 1879     		ldrb	r0, [r3, #4]	@ zero_extendqisi2
 4417              		.loc 1 785 0
 4418 0004 7047     		bx	lr
 4419              	.L437:
 4420 0006 00BF     		.align	2
 4421              	.L436:
 4422 0008 00000000 		.word	.LANCHOR0
 4423              		.cfi_endproc
 4424              	.LFE266:
 4425              		.size	mcpwm_foc_get_state, .-mcpwm_foc_get_state
 4426              		.section	.text.mcpwm_foc_is_dccal_done,"ax",%progbits
 4427              		.align	1
 4428              		.p2align 4,,15
 4429              		.global	mcpwm_foc_is_dccal_done
 4430              		.syntax unified
 4431              		.thumb
 4432              		.thumb_func
 4433              		.fpu fpv4-sp-d16
 4434              		.type	mcpwm_foc_is_dccal_done, %function
 4435              	mcpwm_foc_is_dccal_done:
 4436              	.LFB267:
 4437              		.loc 1 787 0
 4438              		.cfi_startproc
 4439              		@ args = 0, pretend = 0, frame = 0
 4440              		@ frame_needed = 0, uses_anonymous_args = 0
 4441              		@ link register save eliminated.
 4442              		.loc 1 788 0
 4443 0000 014B     		ldr	r3, .L439
 4444 0002 1878     		ldrb	r0, [r3]	@ zero_extendqisi2
 4445              		.loc 1 789 0
 4446 0004 7047     		bx	lr
ARM GAS  /tmp/ccMYeDWX.s 			page 79


 4447              	.L440:
 4448 0006 00BF     		.align	2
 4449              	.L439:
 4450 0008 00000000 		.word	.LANCHOR7
 4451              		.cfi_endproc
 4452              	.LFE267:
 4453              		.size	mcpwm_foc_is_dccal_done, .-mcpwm_foc_is_dccal_done
 4454              		.section	.text.mcpwm_foc_isr_motor,"ax",%progbits
 4455              		.align	1
 4456              		.p2align 4,,15
 4457              		.global	mcpwm_foc_isr_motor
 4458              		.syntax unified
 4459              		.thumb
 4460              		.thumb_func
 4461              		.fpu fpv4-sp-d16
 4462              		.type	mcpwm_foc_isr_motor, %function
 4463              	mcpwm_foc_isr_motor:
 4464              	.LFB268:
 4465              		.loc 1 799 0
 4466              		.cfi_startproc
 4467              		@ args = 0, pretend = 0, frame = 0
 4468              		@ frame_needed = 0, uses_anonymous_args = 0
 4469              		@ link register save eliminated.
 4470              		.loc 1 800 0
 4471 0000 014B     		ldr	r3, .L442
 4472 0002 1868     		ldr	r0, [r3]
 4473              		.loc 1 801 0
 4474 0004 7047     		bx	lr
 4475              	.L443:
 4476 0006 00BF     		.align	2
 4477              	.L442:
 4478 0008 00000000 		.word	.LANCHOR8
 4479              		.cfi_endproc
 4480              	.LFE268:
 4481              		.size	mcpwm_foc_isr_motor, .-mcpwm_foc_isr_motor
 4482              		.section	.text.mcpwm_foc_stop_pwm,"ax",%progbits
 4483              		.align	1
 4484              		.p2align 4,,15
 4485              		.global	mcpwm_foc_stop_pwm
 4486              		.syntax unified
 4487              		.thumb
 4488              		.thumb_func
 4489              		.fpu fpv4-sp-d16
 4490              		.type	mcpwm_foc_stop_pwm, %function
 4491              	mcpwm_foc_stop_pwm:
 4492              	.LFB269:
 4493              		.loc 1 806 0
 4494              		.cfi_startproc
 4495              		@ args = 0, pretend = 0, frame = 0
 4496              		@ frame_needed = 0, uses_anonymous_args = 0
 4497              		@ link register save eliminated.
 4498              	.LVL402:
 4499              		.loc 1 809 0
 4500 0000 034B     		ldr	r3, .L445
 4501 0002 0A21     		movs	r1, #10
 4502              		.loc 1 810 0
 4503 0004 0022     		movs	r2, #0
ARM GAS  /tmp/ccMYeDWX.s 			page 80


 4504              		.loc 1 809 0
 4505 0006 5971     		strb	r1, [r3, #5]
 4506              		.loc 1 810 0
 4507 0008 1A71     		strb	r2, [r3, #4]
 4508              		.loc 1 811 0
 4509 000a FFF7FEBF 		b	stop_pwm_hw.constprop.12
 4510              	.LVL403:
 4511              	.L446:
 4512 000e 00BF     		.align	2
 4513              	.L445:
 4514 0010 00000000 		.word	.LANCHOR0
 4515              		.cfi_endproc
 4516              	.LFE269:
 4517              		.size	mcpwm_foc_stop_pwm, .-mcpwm_foc_stop_pwm
 4518              		.section	.text.mcpwm_foc_set_duty,"ax",%progbits
 4519              		.align	1
 4520              		.p2align 4,,15
 4521              		.global	mcpwm_foc_set_duty
 4522              		.syntax unified
 4523              		.thumb
 4524              		.thumb_func
 4525              		.fpu fpv4-sp-d16
 4526              		.type	mcpwm_foc_set_duty, %function
 4527              	mcpwm_foc_set_duty:
 4528              	.LFB270:
 4529              		.loc 1 821 0
 4530              		.cfi_startproc
 4531              		@ args = 0, pretend = 0, frame = 0
 4532              		@ frame_needed = 0, uses_anonymous_args = 0
 4533              		@ link register save eliminated.
 4534              	.LVL404:
 4535              		.loc 1 822 0
 4536 0000 064B     		ldr	r3, .L452
 4537 0002 0022     		movs	r2, #0
 4538 0004 5A71     		strb	r2, [r3, #5]
 4539              		.loc 1 823 0
 4540 0006 83ED2D0A 		vstr.32	s0, [r3, #180]
 4541              		.loc 1 825 0
 4542 000a 1979     		ldrb	r1, [r3, #4]	@ zero_extendqisi2
 4543 000c 0229     		cmp	r1, #2
 4544 000e 03D0     		beq	.L447
 4545              		.loc 1 827 0
 4546 0010 0221     		movs	r1, #2
 4547              		.loc 1 826 0
 4548 0012 83F80423 		strb	r2, [r3, #772]
 4549              		.loc 1 827 0
 4550 0016 1971     		strb	r1, [r3, #4]
 4551              	.L447:
 4552              		.loc 1 829 0
 4553 0018 7047     		bx	lr
 4554              	.L453:
 4555 001a 00BF     		.align	2
 4556              	.L452:
 4557 001c 00000000 		.word	.LANCHOR0
 4558              		.cfi_endproc
 4559              	.LFE270:
 4560              		.size	mcpwm_foc_set_duty, .-mcpwm_foc_set_duty
ARM GAS  /tmp/ccMYeDWX.s 			page 81


 4561              		.section	.text.mcpwm_foc_set_duty_noramp,"ax",%progbits
 4562              		.align	1
 4563              		.p2align 4,,15
 4564              		.global	mcpwm_foc_set_duty_noramp
 4565              		.syntax unified
 4566              		.thumb
 4567              		.thumb_func
 4568              		.fpu fpv4-sp-d16
 4569              		.type	mcpwm_foc_set_duty_noramp, %function
 4570              	mcpwm_foc_set_duty_noramp:
 4571              	.LFB271:
 4572              		.loc 1 841 0
 4573              		.cfi_startproc
 4574              		@ args = 0, pretend = 0, frame = 0
 4575              		@ frame_needed = 0, uses_anonymous_args = 0
 4576              		@ link register save eliminated.
 4577              	.LVL405:
 4578              	.LBB647:
 4579              	.LBB648:
 4580              		.loc 1 822 0
 4581 0000 064B     		ldr	r3, .L459
 4582 0002 0022     		movs	r2, #0
 4583 0004 5A71     		strb	r2, [r3, #5]
 4584              		.loc 1 823 0
 4585 0006 83ED2D0A 		vstr.32	s0, [r3, #180]
 4586              		.loc 1 825 0
 4587 000a 1979     		ldrb	r1, [r3, #4]	@ zero_extendqisi2
 4588 000c 0229     		cmp	r1, #2
 4589 000e 03D0     		beq	.L454
 4590              		.loc 1 827 0
 4591 0010 0221     		movs	r1, #2
 4592              		.loc 1 826 0
 4593 0012 83F80423 		strb	r2, [r3, #772]
 4594              		.loc 1 827 0
 4595 0016 1971     		strb	r1, [r3, #4]
 4596              	.LVL406:
 4597              	.L454:
 4598              	.LBE648:
 4599              	.LBE647:
 4600              		.loc 1 844 0
 4601 0018 7047     		bx	lr
 4602              	.L460:
 4603 001a 00BF     		.align	2
 4604              	.L459:
 4605 001c 00000000 		.word	.LANCHOR0
 4606              		.cfi_endproc
 4607              	.LFE271:
 4608              		.size	mcpwm_foc_set_duty_noramp, .-mcpwm_foc_set_duty_noramp
 4609              		.section	.text.mcpwm_foc_set_pid_speed,"ax",%progbits
 4610              		.align	1
 4611              		.p2align 4,,15
 4612              		.global	mcpwm_foc_set_pid_speed
 4613              		.syntax unified
 4614              		.thumb
 4615              		.thumb_func
 4616              		.fpu fpv4-sp-d16
 4617              		.type	mcpwm_foc_set_pid_speed, %function
ARM GAS  /tmp/ccMYeDWX.s 			page 82


 4618              	mcpwm_foc_set_pid_speed:
 4619              	.LFB272:
 4620              		.loc 1 853 0
 4621              		.cfi_startproc
 4622              		@ args = 0, pretend = 0, frame = 0
 4623              		@ frame_needed = 0, uses_anonymous_args = 0
 4624              		@ link register save eliminated.
 4625              	.LVL407:
 4626              		.loc 1 854 0
 4627 0000 134B     		ldr	r3, .L477
 4628 0002 1A68     		ldr	r2, [r3]
 4629 0004 D2ED797A 		vldr.32	s15, [r2, #484]
 4630 0008 F5EEC07A 		vcmpe.f32	s15, #0
 4631 000c F1EE10FA 		vmrs	APSR_nzcv, FPSCR
 4632 0010 1BDD     		ble	.L475
 4633              		.loc 1 855 0
 4634 0012 5A79     		ldrb	r2, [r3, #5]	@ zero_extendqisi2
 4635 0014 012A     		cmp	r2, #1
 4636 0016 14D0     		beq	.L476
 4637              	.L464:
 4638              	.LBB649:
 4639              	.LBB650:
 4640              		.loc 1 1230 0
 4641 0018 D3ED247A 		vldr.32	s15, [r3, #144]
 4642 001c 9FED0D7A 		vldr.32	s14, .L477+4
 4643 0020 67EE877A 		vmul.f32	s15, s15, s14
 4644              	.LBE650:
 4645              	.LBE649:
 4646              		.loc 1 857 0
 4647 0024 C3ED367A 		vstr.32	s15, [r3, #216]
 4648              	.L465:
 4649              		.loc 1 860 0
 4650 0028 83ED370A 		vstr.32	s0, [r3, #220]
 4651              	.L466:
 4652              		.loc 1 865 0
 4653 002c 0122     		movs	r2, #1
 4654 002e 5A71     		strb	r2, [r3, #5]
 4655              		.loc 1 867 0
 4656 0030 1A79     		ldrb	r2, [r3, #4]	@ zero_extendqisi2
 4657 0032 022A     		cmp	r2, #2
 4658 0034 04D0     		beq	.L461
 4659              		.loc 1 868 0
 4660 0036 0021     		movs	r1, #0
 4661              		.loc 1 869 0
 4662 0038 0222     		movs	r2, #2
 4663              		.loc 1 868 0
 4664 003a 83F80413 		strb	r1, [r3, #772]
 4665              		.loc 1 869 0
 4666 003e 1A71     		strb	r2, [r3, #4]
 4667              	.L461:
 4668              		.loc 1 871 0
 4669 0040 7047     		bx	lr
 4670              	.L476:
 4671              		.loc 1 856 0
 4672 0042 1A79     		ldrb	r2, [r3, #4]	@ zero_extendqisi2
 4673              		.loc 1 855 0
 4674 0044 022A     		cmp	r2, #2
ARM GAS  /tmp/ccMYeDWX.s 			page 83


 4675 0046 E7D1     		bne	.L464
 4676 0048 EEE7     		b	.L465
 4677              	.L475:
 4678              		.loc 1 862 0
 4679 004a 83ED360A 		vstr.32	s0, [r3, #216]
 4680 004e EDE7     		b	.L466
 4681              	.L478:
 4682              		.align	2
 4683              	.L477:
 4684 0050 00000000 		.word	.LANCHOR0
 4685 0054 EBC91841 		.word	1092143595
 4686              		.cfi_endproc
 4687              	.LFE272:
 4688              		.size	mcpwm_foc_set_pid_speed, .-mcpwm_foc_set_pid_speed
 4689              		.section	.text.mcpwm_foc_set_pid_pos,"ax",%progbits
 4690              		.align	1
 4691              		.p2align 4,,15
 4692              		.global	mcpwm_foc_set_pid_pos
 4693              		.syntax unified
 4694              		.thumb
 4695              		.thumb_func
 4696              		.fpu fpv4-sp-d16
 4697              		.type	mcpwm_foc_set_pid_pos, %function
 4698              	mcpwm_foc_set_pid_pos:
 4699              	.LFB273:
 4700              		.loc 1 880 0
 4701              		.cfi_startproc
 4702              		@ args = 0, pretend = 0, frame = 0
 4703              		@ frame_needed = 0, uses_anonymous_args = 0
 4704              		@ link register save eliminated.
 4705              	.LVL408:
 4706              		.loc 1 881 0
 4707 0000 064B     		ldr	r3, .L484
 4708 0002 0422     		movs	r2, #4
 4709 0004 5A71     		strb	r2, [r3, #5]
 4710              		.loc 1 882 0
 4711 0006 83ED350A 		vstr.32	s0, [r3, #212]
 4712              		.loc 1 884 0
 4713 000a 1A79     		ldrb	r2, [r3, #4]	@ zero_extendqisi2
 4714 000c 022A     		cmp	r2, #2
 4715 000e 04D0     		beq	.L479
 4716              		.loc 1 885 0
 4717 0010 0021     		movs	r1, #0
 4718              		.loc 1 886 0
 4719 0012 0222     		movs	r2, #2
 4720              		.loc 1 885 0
 4721 0014 83F80413 		strb	r1, [r3, #772]
 4722              		.loc 1 886 0
 4723 0018 1A71     		strb	r2, [r3, #4]
 4724              	.L479:
 4725              		.loc 1 888 0
 4726 001a 7047     		bx	lr
 4727              	.L485:
 4728              		.align	2
 4729              	.L484:
 4730 001c 00000000 		.word	.LANCHOR0
 4731              		.cfi_endproc
ARM GAS  /tmp/ccMYeDWX.s 			page 84


 4732              	.LFE273:
 4733              		.size	mcpwm_foc_set_pid_pos, .-mcpwm_foc_set_pid_pos
 4734              		.section	.text.mcpwm_foc_set_current,"ax",%progbits
 4735              		.align	1
 4736              		.p2align 4,,15
 4737              		.global	mcpwm_foc_set_current
 4738              		.syntax unified
 4739              		.thumb
 4740              		.thumb_func
 4741              		.fpu fpv4-sp-d16
 4742              		.type	mcpwm_foc_set_current, %function
 4743              	mcpwm_foc_set_current:
 4744              	.LFB274:
 4745              		.loc 1 898 0
 4746              		.cfi_startproc
 4747              		@ args = 0, pretend = 0, frame = 0
 4748              		@ frame_needed = 0, uses_anonymous_args = 0
 4749              		@ link register save eliminated.
 4750              	.LVL409:
 4751              		.loc 1 899 0
 4752 0000 0C4B     		ldr	r3, .L491
 4753              		.loc 1 901 0
 4754 0002 0021     		movs	r1, #0
 4755              		.loc 1 899 0
 4756 0004 0222     		movs	r2, #2
 4757 0006 5A71     		strb	r2, [r3, #5]
 4758              		.loc 1 900 0
 4759 0008 83ED2F0A 		vstr.32	s0, [r3, #188]
 4760              		.loc 1 901 0
 4761 000c C3F8B810 		str	r1, [r3, #184]	@ float
 4762              		.loc 1 903 0
 4763 0010 1968     		ldr	r1, [r3]
 4764 0012 D1ED837A 		vldr.32	s15, [r1, #524]
 4765 0016 B0EEC00A 		vabs.f32	s0, s0
 4766              	.LVL410:
 4767 001a B4EEE70A 		vcmpe.f32	s0, s15
 4768 001e F1EE10FA 		vmrs	APSR_nzcv, FPSCR
 4769 0022 06D4     		bmi	.L486
 4770              	.LVL411:
 4771              	.LBB660:
 4772              	.LBB661:
 4773              		.loc 1 907 0
 4774 0024 1979     		ldrb	r1, [r3, #4]	@ zero_extendqisi2
 4775 0026 9142     		cmp	r1, r2
 4776 0028 03D0     		beq	.L486
 4777              		.loc 1 908 0
 4778 002a 0021     		movs	r1, #0
 4779 002c 83F80413 		strb	r1, [r3, #772]
 4780              		.loc 1 909 0
 4781 0030 1A71     		strb	r2, [r3, #4]
 4782              	.LVL412:
 4783              	.L486:
 4784              	.LBE661:
 4785              	.LBE660:
 4786              		.loc 1 911 0
 4787 0032 7047     		bx	lr
 4788              	.L492:
ARM GAS  /tmp/ccMYeDWX.s 			page 85


 4789              		.align	2
 4790              	.L491:
 4791 0034 00000000 		.word	.LANCHOR0
 4792              		.cfi_endproc
 4793              	.LFE274:
 4794              		.size	mcpwm_foc_set_current, .-mcpwm_foc_set_current
 4795              		.section	.text.mcpwm_foc_release_motor,"ax",%progbits
 4796              		.align	1
 4797              		.p2align 4,,15
 4798              		.global	mcpwm_foc_release_motor
 4799              		.syntax unified
 4800              		.thumb
 4801              		.thumb_func
 4802              		.fpu fpv4-sp-d16
 4803              		.type	mcpwm_foc_release_motor, %function
 4804              	mcpwm_foc_release_motor:
 4805              	.LFB275:
 4806              		.loc 1 913 0
 4807              		.cfi_startproc
 4808              		@ args = 0, pretend = 0, frame = 0
 4809              		@ frame_needed = 0, uses_anonymous_args = 0
 4810              		@ link register save eliminated.
 4811              		.loc 1 914 0
 4812 0000 054B     		ldr	r3, .L494
 4813              		.loc 1 915 0
 4814 0002 0022     		movs	r2, #0
 4815              		.loc 1 914 0
 4816 0004 0220     		movs	r0, #2
 4817              		.loc 1 917 0
 4818 0006 0121     		movs	r1, #1
 4819              		.loc 1 914 0
 4820 0008 5871     		strb	r0, [r3, #5]
 4821              		.loc 1 915 0
 4822 000a C3F8BC20 		str	r2, [r3, #188]	@ float
 4823              		.loc 1 916 0
 4824 000e C3F8B820 		str	r2, [r3, #184]	@ float
 4825              		.loc 1 917 0
 4826 0012 83F80413 		strb	r1, [r3, #772]
 4827              		.loc 1 918 0
 4828 0016 7047     		bx	lr
 4829              	.L495:
 4830              		.align	2
 4831              	.L494:
 4832 0018 00000000 		.word	.LANCHOR0
 4833              		.cfi_endproc
 4834              	.LFE275:
 4835              		.size	mcpwm_foc_release_motor, .-mcpwm_foc_release_motor
 4836              		.section	.text.mcpwm_foc_set_brake_current,"ax",%progbits
 4837              		.align	1
 4838              		.p2align 4,,15
 4839              		.global	mcpwm_foc_set_brake_current
 4840              		.syntax unified
 4841              		.thumb
 4842              		.thumb_func
 4843              		.fpu fpv4-sp-d16
 4844              		.type	mcpwm_foc_set_brake_current, %function
 4845              	mcpwm_foc_set_brake_current:
ARM GAS  /tmp/ccMYeDWX.s 			page 86


 4846              	.LFB276:
 4847              		.loc 1 927 0
 4848              		.cfi_startproc
 4849              		@ args = 0, pretend = 0, frame = 0
 4850              		@ frame_needed = 0, uses_anonymous_args = 0
 4851              		@ link register save eliminated.
 4852              	.LVL413:
 4853              		.loc 1 928 0
 4854 0000 0B4B     		ldr	r3, .L501
 4855 0002 0322     		movs	r2, #3
 4856 0004 5A71     		strb	r2, [r3, #5]
 4857              		.loc 1 929 0
 4858 0006 83ED2F0A 		vstr.32	s0, [r3, #188]
 4859              		.loc 1 931 0
 4860 000a 1A68     		ldr	r2, [r3]
 4861 000c D2ED837A 		vldr.32	s15, [r2, #524]
 4862 0010 B0EEC00A 		vabs.f32	s0, s0
 4863              	.LVL414:
 4864 0014 B4EEE70A 		vcmpe.f32	s0, s15
 4865 0018 F1EE10FA 		vmrs	APSR_nzcv, FPSCR
 4866 001c 07D4     		bmi	.L496
 4867              		.loc 1 935 0
 4868 001e 1A79     		ldrb	r2, [r3, #4]	@ zero_extendqisi2
 4869 0020 022A     		cmp	r2, #2
 4870 0022 04D0     		beq	.L496
 4871              		.loc 1 936 0
 4872 0024 0021     		movs	r1, #0
 4873              		.loc 1 937 0
 4874 0026 0222     		movs	r2, #2
 4875              		.loc 1 936 0
 4876 0028 83F80413 		strb	r1, [r3, #772]
 4877              	.LVL415:
 4878              		.loc 1 937 0
 4879 002c 1A71     		strb	r2, [r3, #4]
 4880              	.L496:
 4881              		.loc 1 939 0
 4882 002e 7047     		bx	lr
 4883              	.L502:
 4884              		.align	2
 4885              	.L501:
 4886 0030 00000000 		.word	.LANCHOR0
 4887              		.cfi_endproc
 4888              	.LFE276:
 4889              		.size	mcpwm_foc_set_brake_current, .-mcpwm_foc_set_brake_current
 4890              		.section	.text.mcpwm_foc_set_handbrake,"ax",%progbits
 4891              		.align	1
 4892              		.p2align 4,,15
 4893              		.global	mcpwm_foc_set_handbrake
 4894              		.syntax unified
 4895              		.thumb
 4896              		.thumb_func
 4897              		.fpu fpv4-sp-d16
 4898              		.type	mcpwm_foc_set_handbrake, %function
 4899              	mcpwm_foc_set_handbrake:
 4900              	.LFB277:
 4901              		.loc 1 948 0
 4902              		.cfi_startproc
ARM GAS  /tmp/ccMYeDWX.s 			page 87


 4903              		@ args = 0, pretend = 0, frame = 0
 4904              		@ frame_needed = 0, uses_anonymous_args = 0
 4905              		@ link register save eliminated.
 4906              	.LVL416:
 4907              		.loc 1 949 0
 4908 0000 0B4B     		ldr	r3, .L508
 4909 0002 0522     		movs	r2, #5
 4910 0004 5A71     		strb	r2, [r3, #5]
 4911              		.loc 1 950 0
 4912 0006 83ED2F0A 		vstr.32	s0, [r3, #188]
 4913              		.loc 1 952 0
 4914 000a 1A68     		ldr	r2, [r3]
 4915 000c D2ED837A 		vldr.32	s15, [r2, #524]
 4916 0010 B0EEC00A 		vabs.f32	s0, s0
 4917              	.LVL417:
 4918 0014 B4EEE70A 		vcmpe.f32	s0, s15
 4919 0018 F1EE10FA 		vmrs	APSR_nzcv, FPSCR
 4920 001c 07D4     		bmi	.L503
 4921              		.loc 1 956 0
 4922 001e 1A79     		ldrb	r2, [r3, #4]	@ zero_extendqisi2
 4923 0020 022A     		cmp	r2, #2
 4924 0022 04D0     		beq	.L503
 4925              		.loc 1 957 0
 4926 0024 0021     		movs	r1, #0
 4927              		.loc 1 958 0
 4928 0026 0222     		movs	r2, #2
 4929              		.loc 1 957 0
 4930 0028 83F80413 		strb	r1, [r3, #772]
 4931              	.LVL418:
 4932              		.loc 1 958 0
 4933 002c 1A71     		strb	r2, [r3, #4]
 4934              	.L503:
 4935              		.loc 1 960 0
 4936 002e 7047     		bx	lr
 4937              	.L509:
 4938              		.align	2
 4939              	.L508:
 4940 0030 00000000 		.word	.LANCHOR0
 4941              		.cfi_endproc
 4942              	.LFE277:
 4943              		.size	mcpwm_foc_set_handbrake, .-mcpwm_foc_set_handbrake
 4944              		.section	.text.mcpwm_foc_set_openloop,"ax",%progbits
 4945              		.align	1
 4946              		.p2align 4,,15
 4947              		.global	mcpwm_foc_set_openloop
 4948              		.syntax unified
 4949              		.thumb
 4950              		.thumb_func
 4951              		.fpu fpv4-sp-d16
 4952              		.type	mcpwm_foc_set_openloop, %function
 4953              	mcpwm_foc_set_openloop:
 4954              	.LFB278:
 4955              		.loc 1 971 0
 4956              		.cfi_startproc
 4957              		@ args = 0, pretend = 0, frame = 8
 4958              		@ frame_needed = 0, uses_anonymous_args = 0
 4959              	.LVL419:
ARM GAS  /tmp/ccMYeDWX.s 			page 88


 4960 0000 10B5     		push	{r4, lr}
 4961              		.cfi_def_cfa_offset 8
 4962              		.cfi_offset 4, -8
 4963              		.cfi_offset 14, -4
 4964              		.loc 1 972 0
 4965 0002 1E4C     		ldr	r4, .L516
 4966 0004 2368     		ldr	r3, [r4]
 4967 0006 93ED006A 		vldr.32	s12, [r3]
 4968 000a 2368     		ldr	r3, [r4]
 4969 000c D3ED186A 		vldr.32	s13, [r3, #96]
 4970              		.loc 1 973 0
 4971 0010 2368     		ldr	r3, [r4]
 4972              		.loc 1 971 0
 4973 0012 2DED028B 		vpush.64	{d8}
 4974              		.cfi_def_cfa_offset 16
 4975              		.cfi_offset 80, -16
 4976              		.cfi_offset 81, -12
 4977              		.loc 1 973 0
 4978 0016 93ED007A 		vldr.32	s14, [r3]
 4979 001a 2368     		ldr	r3, [r4]
 4980              		.loc 1 971 0
 4981 001c 82B0     		sub	sp, sp, #8
 4982              		.cfi_def_cfa_offset 24
 4983              		.loc 1 973 0
 4984 001e D3ED187A 		vldr.32	s15, [r3, #96]
 4985              		.loc 1 971 0
 4986 0022 02A8     		add	r0, sp, #8
 4987 0024 20ED010A 		vstmdb.32	r0!, {s0}
 4988 0028 B0EE608A 		vmov.f32	s16, s1
 4989              		.loc 1 972 0
 4990 002c 26EE660A 		vnmul.f32	s0, s12, s13
 4991              	.LVL420:
 4992 0030 67EE270A 		vmul.f32	s1, s14, s15
 4993              	.LVL421:
 4994 0034 FFF7FEFF 		bl	utils_truncate_number
 4995              	.LVL422:
 4996              		.loc 1 977 0
 4997 0038 9FED117A 		vldr.32	s14, .L516+4
 4998              		.loc 1 976 0
 4999 003c DDED017A 		vldr.32	s15, [sp, #4]
 5000              		.loc 1 977 0
 5001 0040 28EE078A 		vmul.f32	s16, s16, s14
 5002              	.LVL423:
 5003              		.loc 1 975 0
 5004 0044 0623     		movs	r3, #6
 5005 0046 6371     		strb	r3, [r4, #5]
 5006              		.loc 1 976 0
 5007 0048 C4ED2F7A 		vstr.32	s15, [r4, #188]
 5008              		.loc 1 977 0
 5009 004c 84ED328A 		vstr.32	s16, [r4, #200]
 5010              		.loc 1 979 0
 5011 0050 2368     		ldr	r3, [r4]
 5012 0052 93ED837A 		vldr.32	s14, [r3, #524]
 5013 0056 F0EEE77A 		vabs.f32	s15, s15
 5014 005a F4EEC77A 		vcmpe.f32	s15, s14
 5015 005e F1EE10FA 		vmrs	APSR_nzcv, FPSCR
 5016 0062 07D4     		bmi	.L510
ARM GAS  /tmp/ccMYeDWX.s 			page 89


 5017              		.loc 1 983 0
 5018 0064 2379     		ldrb	r3, [r4, #4]	@ zero_extendqisi2
 5019 0066 022B     		cmp	r3, #2
 5020 0068 04D0     		beq	.L510
 5021              		.loc 1 984 0
 5022 006a 0022     		movs	r2, #0
 5023              		.loc 1 985 0
 5024 006c 0223     		movs	r3, #2
 5025              		.loc 1 984 0
 5026 006e 84F80423 		strb	r2, [r4, #772]
 5027              		.loc 1 985 0
 5028 0072 2371     		strb	r3, [r4, #4]
 5029              	.L510:
 5030              		.loc 1 987 0
 5031 0074 02B0     		add	sp, sp, #8
 5032              		.cfi_def_cfa_offset 16
 5033              		@ sp needed
 5034 0076 BDEC028B 		vldm	sp!, {d8}
 5035              		.cfi_restore 80
 5036              		.cfi_restore 81
 5037              		.cfi_def_cfa_offset 8
 5038 007a 10BD     		pop	{r4, pc}
 5039              	.L517:
 5040              		.align	2
 5041              	.L516:
 5042 007c 00000000 		.word	.LANCHOR0
 5043 0080 5077D63D 		.word	1037465424
 5044              		.cfi_endproc
 5045              	.LFE278:
 5046              		.size	mcpwm_foc_set_openloop, .-mcpwm_foc_set_openloop
 5047              		.section	.text.mcpwm_foc_set_openloop_phase,"ax",%progbits
 5048              		.align	1
 5049              		.p2align 4,,15
 5050              		.global	mcpwm_foc_set_openloop_phase
 5051              		.syntax unified
 5052              		.thumb
 5053              		.thumb_func
 5054              		.fpu fpv4-sp-d16
 5055              		.type	mcpwm_foc_set_openloop_phase, %function
 5056              	mcpwm_foc_set_openloop_phase:
 5057              	.LFB279:
 5058              		.loc 1 998 0
 5059              		.cfi_startproc
 5060              		@ args = 0, pretend = 0, frame = 8
 5061              		@ frame_needed = 0, uses_anonymous_args = 0
 5062              	.LVL424:
 5063 0000 10B5     		push	{r4, lr}
 5064              		.cfi_def_cfa_offset 8
 5065              		.cfi_offset 4, -8
 5066              		.cfi_offset 14, -4
 5067              		.loc 1 999 0
 5068 0002 234C     		ldr	r4, .L524
 5069 0004 2368     		ldr	r3, [r4]
 5070 0006 93ED006A 		vldr.32	s12, [r3]
 5071 000a 2368     		ldr	r3, [r4]
 5072 000c D3ED186A 		vldr.32	s13, [r3, #96]
 5073              		.loc 1 1000 0
ARM GAS  /tmp/ccMYeDWX.s 			page 90


 5074 0010 2368     		ldr	r3, [r4]
 5075              		.loc 1 998 0
 5076 0012 2DED028B 		vpush.64	{d8}
 5077              		.cfi_def_cfa_offset 16
 5078              		.cfi_offset 80, -16
 5079              		.cfi_offset 81, -12
 5080              		.loc 1 1000 0
 5081 0016 93ED007A 		vldr.32	s14, [r3]
 5082 001a 2368     		ldr	r3, [r4]
 5083              		.loc 1 998 0
 5084 001c 82B0     		sub	sp, sp, #8
 5085              		.cfi_def_cfa_offset 24
 5086              		.loc 1 1000 0
 5087 001e D3ED187A 		vldr.32	s15, [r3, #96]
 5088              		.loc 1 998 0
 5089 0022 02A8     		add	r0, sp, #8
 5090 0024 20ED010A 		vstmdb.32	r0!, {s0}
 5091 0028 B0EE608A 		vmov.f32	s16, s1
 5092              		.loc 1 999 0
 5093 002c 26EE660A 		vnmul.f32	s0, s12, s13
 5094              	.LVL425:
 5095 0030 67EE270A 		vmul.f32	s1, s14, s15
 5096              	.LVL426:
 5097 0034 FFF7FEFF 		bl	utils_truncate_number
 5098              	.LVL427:
 5099              		.loc 1 1006 0
 5100 0038 DFED167A 		vldr.32	s15, .L524+4
 5101              		.loc 1 1003 0
 5102 003c 019A     		ldr	r2, [sp, #4]	@ float
 5103              		.loc 1 1006 0
 5104 003e 28EE278A 		vmul.f32	s16, s16, s15
 5105              	.LVL428:
 5106              		.loc 1 1004 0
 5107 0042 0023     		movs	r3, #0
 5108              		.loc 1 1002 0
 5109 0044 0721     		movs	r1, #7
 5110 0046 6171     		strb	r1, [r4, #5]
 5111              		.loc 1 1006 0
 5112 0048 2046     		mov	r0, r4
 5113              		.loc 1 1003 0
 5114 004a C4F8B820 		str	r2, [r4, #184]	@ float
 5115              		.loc 1 1004 0
 5116 004e C4F8BC30 		str	r3, [r4, #188]	@ float
 5117              		.loc 1 1006 0
 5118 0052 18EE103A 		vmov	r3, s16
 5119 0056 40F8CC3F 		str	r3, [r0, #204]!	@ float
 5120              		.loc 1 1007 0
 5121 005a FFF7FEFF 		bl	utils_norm_angle_rad
 5122              	.LVL429:
 5123              		.loc 1 1009 0
 5124 005e 2368     		ldr	r3, [r4]
 5125 0060 DDED017A 		vldr.32	s15, [sp, #4]
 5126 0064 93ED837A 		vldr.32	s14, [r3, #524]
 5127 0068 F0EEE77A 		vabs.f32	s15, s15
 5128 006c F4EEC77A 		vcmpe.f32	s15, s14
 5129 0070 F1EE10FA 		vmrs	APSR_nzcv, FPSCR
 5130 0074 07D4     		bmi	.L518
ARM GAS  /tmp/ccMYeDWX.s 			page 91


 5131              		.loc 1 1013 0
 5132 0076 2379     		ldrb	r3, [r4, #4]	@ zero_extendqisi2
 5133 0078 022B     		cmp	r3, #2
 5134 007a 04D0     		beq	.L518
 5135              		.loc 1 1014 0
 5136 007c 0022     		movs	r2, #0
 5137              		.loc 1 1015 0
 5138 007e 0223     		movs	r3, #2
 5139              		.loc 1 1014 0
 5140 0080 84F80423 		strb	r2, [r4, #772]
 5141              		.loc 1 1015 0
 5142 0084 2371     		strb	r3, [r4, #4]
 5143              	.L518:
 5144              		.loc 1 1017 0
 5145 0086 02B0     		add	sp, sp, #8
 5146              		.cfi_def_cfa_offset 16
 5147              		@ sp needed
 5148 0088 BDEC028B 		vldm	sp!, {d8}
 5149              		.cfi_restore 80
 5150              		.cfi_restore 81
 5151              		.cfi_def_cfa_offset 8
 5152 008c 10BD     		pop	{r4, pc}
 5153              	.L525:
 5154 008e 00BF     		.align	2
 5155              	.L524:
 5156 0090 00000000 		.word	.LANCHOR0
 5157 0094 35FA8E3C 		.word	1016003125
 5158              		.cfi_endproc
 5159              	.LFE279:
 5160              		.size	mcpwm_foc_set_openloop_phase, .-mcpwm_foc_set_openloop_phase
 5161              		.section	.text.mcpwm_foc_get_current_offsets,"ax",%progbits
 5162              		.align	1
 5163              		.p2align 4,,15
 5164              		.global	mcpwm_foc_get_current_offsets
 5165              		.syntax unified
 5166              		.thumb
 5167              		.thumb_func
 5168              		.fpu fpv4-sp-d16
 5169              		.type	mcpwm_foc_get_current_offsets, %function
 5170              	mcpwm_foc_get_current_offsets:
 5171              	.LFB280:
 5172              		.loc 1 1028 0
 5173              		.cfi_startproc
 5174              		@ args = 0, pretend = 0, frame = 0
 5175              		@ frame_needed = 0, uses_anonymous_args = 0
 5176              		@ link register save eliminated.
 5177              	.LVL430:
 5178              		.loc 1 1030 0
 5179 0000 084B     		ldr	r3, .L528
 5180              	.LVL431:
 5181              		.loc 1 1028 0
 5182 0002 10B4     		push	{r4}
 5183              		.cfi_def_cfa_offset 4
 5184              		.cfi_offset 4, -4
 5185              		.loc 1 1030 0
 5186 0004 1C68     		ldr	r4, [r3]
 5187 0006 D4F87441 		ldr	r4, [r4, #372]	@ float
ARM GAS  /tmp/ccMYeDWX.s 			page 92


 5188 000a 0460     		str	r4, [r0]	@ float
 5189              		.loc 1 1031 0
 5190 000c 1868     		ldr	r0, [r3]
 5191              	.LVL432:
 5192              		.loc 1 1033 0
 5193 000e 5DF8044B 		ldr	r4, [sp], #4
 5194              		.cfi_restore 4
 5195              		.cfi_def_cfa_offset 0
 5196              		.loc 1 1031 0
 5197 0012 D0F87801 		ldr	r0, [r0, #376]	@ float
 5198 0016 0860     		str	r0, [r1]	@ float
 5199              		.loc 1 1032 0
 5200 0018 1B68     		ldr	r3, [r3]
 5201 001a D3F87C31 		ldr	r3, [r3, #380]	@ float
 5202 001e 1360     		str	r3, [r2]	@ float
 5203              		.loc 1 1033 0
 5204 0020 7047     		bx	lr
 5205              	.L529:
 5206 0022 00BF     		.align	2
 5207              	.L528:
 5208 0024 00000000 		.word	.LANCHOR0
 5209              		.cfi_endproc
 5210              	.LFE280:
 5211              		.size	mcpwm_foc_get_current_offsets, .-mcpwm_foc_get_current_offsets
 5212              		.section	.text.mcpwm_foc_set_current_offsets,"ax",%progbits
 5213              		.align	1
 5214              		.p2align 4,,15
 5215              		.global	mcpwm_foc_set_current_offsets
 5216              		.syntax unified
 5217              		.thumb
 5218              		.thumb_func
 5219              		.fpu fpv4-sp-d16
 5220              		.type	mcpwm_foc_set_current_offsets, %function
 5221              	mcpwm_foc_set_current_offsets:
 5222              	.LFB281:
 5223              		.loc 1 1042 0
 5224              		.cfi_startproc
 5225              		@ args = 0, pretend = 0, frame = 16
 5226              		@ frame_needed = 0, uses_anonymous_args = 0
 5227              		@ link register save eliminated.
 5228              	.LVL433:
 5229 0000 84B0     		sub	sp, sp, #16
 5230              		.cfi_def_cfa_offset 16
 5231              		.loc 1 1043 0
 5232 0002 0A4B     		ldr	r3, .L532
 5233              		.loc 1 1042 0
 5234 0004 8DED030A 		vstr.32	s0, [sp, #12]
 5235 0008 CDED020A 		vstr.32	s1, [sp, #8]
 5236 000c 8DED011A 		vstr.32	s2, [sp, #4]
 5237              		.loc 1 1043 0
 5238 0010 1A68     		ldr	r2, [r3]
 5239 0012 0399     		ldr	r1, [sp, #12]	@ float
 5240 0014 C2F87411 		str	r1, [r2, #372]	@ float
 5241              		.loc 1 1044 0
 5242 0018 1A68     		ldr	r2, [r3]
 5243 001a 0299     		ldr	r1, [sp, #8]	@ float
 5244 001c C2F87811 		str	r1, [r2, #376]	@ float
ARM GAS  /tmp/ccMYeDWX.s 			page 93


 5245              		.loc 1 1045 0
 5246 0020 1B68     		ldr	r3, [r3]
 5247 0022 019A     		ldr	r2, [sp, #4]	@ float
 5248 0024 C3F87C21 		str	r2, [r3, #380]	@ float
 5249              		.loc 1 1046 0
 5250 0028 04B0     		add	sp, sp, #16
 5251              		.cfi_def_cfa_offset 0
 5252              		@ sp needed
 5253 002a 7047     		bx	lr
 5254              	.L533:
 5255              		.align	2
 5256              	.L532:
 5257 002c 00000000 		.word	.LANCHOR0
 5258              		.cfi_endproc
 5259              	.LFE281:
 5260              		.size	mcpwm_foc_set_current_offsets, .-mcpwm_foc_set_current_offsets
 5261              		.section	.text.mcpwm_foc_get_voltage_offsets,"ax",%progbits
 5262              		.align	1
 5263              		.p2align 4,,15
 5264              		.global	mcpwm_foc_get_voltage_offsets
 5265              		.syntax unified
 5266              		.thumb
 5267              		.thumb_func
 5268              		.fpu fpv4-sp-d16
 5269              		.type	mcpwm_foc_get_voltage_offsets, %function
 5270              	mcpwm_foc_get_voltage_offsets:
 5271              	.LFB282:
 5272              		.loc 1 1052 0
 5273              		.cfi_startproc
 5274              		@ args = 0, pretend = 0, frame = 0
 5275              		@ frame_needed = 0, uses_anonymous_args = 0
 5276              		@ link register save eliminated.
 5277              	.LVL434:
 5278              		.loc 1 1054 0
 5279 0000 074B     		ldr	r3, .L536
 5280              	.LVL435:
 5281              		.loc 1 1052 0
 5282 0002 30B4     		push	{r4, r5}
 5283              		.cfi_def_cfa_offset 8
 5284              		.cfi_offset 4, -8
 5285              		.cfi_offset 5, -4
 5286              		.loc 1 1054 0
 5287 0004 1C68     		ldr	r4, [r3]
 5288 0006 D4F88051 		ldr	r5, [r4, #384]	@ float
 5289              		.loc 1 1055 0
 5290 000a 1C68     		ldr	r4, [r3]
 5291              		.loc 1 1054 0
 5292 000c 0560     		str	r5, [r0]	@ float
 5293              		.loc 1 1055 0
 5294 000e D4F88401 		ldr	r0, [r4, #388]	@ float
 5295              	.LVL436:
 5296              		.loc 1 1056 0
 5297 0012 1B68     		ldr	r3, [r3]
 5298              		.loc 1 1055 0
 5299 0014 0860     		str	r0, [r1]	@ float
 5300              		.loc 1 1056 0
 5301 0016 D3F88831 		ldr	r3, [r3, #392]	@ float
ARM GAS  /tmp/ccMYeDWX.s 			page 94


 5302 001a 1360     		str	r3, [r2]	@ float
 5303              		.loc 1 1057 0
 5304 001c 30BC     		pop	{r4, r5}
 5305              		.cfi_restore 5
 5306              		.cfi_restore 4
 5307              		.cfi_def_cfa_offset 0
 5308 001e 7047     		bx	lr
 5309              	.L537:
 5310              		.align	2
 5311              	.L536:
 5312 0020 00000000 		.word	.LANCHOR0
 5313              		.cfi_endproc
 5314              	.LFE282:
 5315              		.size	mcpwm_foc_get_voltage_offsets, .-mcpwm_foc_get_voltage_offsets
 5316              		.section	.text.mcpwm_foc_get_voltage_offsets_undriven,"ax",%progbits
 5317              		.align	1
 5318              		.p2align 4,,15
 5319              		.global	mcpwm_foc_get_voltage_offsets_undriven
 5320              		.syntax unified
 5321              		.thumb
 5322              		.thumb_func
 5323              		.fpu fpv4-sp-d16
 5324              		.type	mcpwm_foc_get_voltage_offsets_undriven, %function
 5325              	mcpwm_foc_get_voltage_offsets_undriven:
 5326              	.LFB283:
 5327              		.loc 1 1063 0
 5328              		.cfi_startproc
 5329              		@ args = 0, pretend = 0, frame = 0
 5330              		@ frame_needed = 0, uses_anonymous_args = 0
 5331              		@ link register save eliminated.
 5332              	.LVL437:
 5333              		.loc 1 1065 0
 5334 0000 074B     		ldr	r3, .L540
 5335              	.LVL438:
 5336              		.loc 1 1063 0
 5337 0002 30B4     		push	{r4, r5}
 5338              		.cfi_def_cfa_offset 8
 5339              		.cfi_offset 4, -8
 5340              		.cfi_offset 5, -4
 5341              		.loc 1 1065 0
 5342 0004 1C68     		ldr	r4, [r3]
 5343 0006 D4F88C51 		ldr	r5, [r4, #396]	@ float
 5344              		.loc 1 1066 0
 5345 000a 1C68     		ldr	r4, [r3]
 5346              		.loc 1 1065 0
 5347 000c 0560     		str	r5, [r0]	@ float
 5348              		.loc 1 1066 0
 5349 000e D4F89001 		ldr	r0, [r4, #400]	@ float
 5350              	.LVL439:
 5351              		.loc 1 1067 0
 5352 0012 1B68     		ldr	r3, [r3]
 5353              		.loc 1 1066 0
 5354 0014 0860     		str	r0, [r1]	@ float
 5355              		.loc 1 1067 0
 5356 0016 D3F89431 		ldr	r3, [r3, #404]	@ float
 5357 001a 1360     		str	r3, [r2]	@ float
 5358              		.loc 1 1068 0
ARM GAS  /tmp/ccMYeDWX.s 			page 95


 5359 001c 30BC     		pop	{r4, r5}
 5360              		.cfi_restore 5
 5361              		.cfi_restore 4
 5362              		.cfi_def_cfa_offset 0
 5363 001e 7047     		bx	lr
 5364              	.L541:
 5365              		.align	2
 5366              	.L540:
 5367 0020 00000000 		.word	.LANCHOR0
 5368              		.cfi_endproc
 5369              	.LFE283:
 5370              		.size	mcpwm_foc_get_voltage_offsets_undriven, .-mcpwm_foc_get_voltage_offsets_undriven
 5371              		.section	.text.mcpwm_foc_set_openloop_duty,"ax",%progbits
 5372              		.align	1
 5373              		.p2align 4,,15
 5374              		.global	mcpwm_foc_set_openloop_duty
 5375              		.syntax unified
 5376              		.thumb
 5377              		.thumb_func
 5378              		.fpu fpv4-sp-d16
 5379              		.type	mcpwm_foc_set_openloop_duty, %function
 5380              	mcpwm_foc_set_openloop_duty:
 5381              	.LFB284:
 5382              		.loc 1 1079 0
 5383              		.cfi_startproc
 5384              		@ args = 0, pretend = 0, frame = 0
 5385              		@ frame_needed = 0, uses_anonymous_args = 0
 5386              		@ link register save eliminated.
 5387              	.LVL440:
 5388              		.loc 1 1082 0
 5389 0000 DFED097A 		vldr.32	s15, .L547
 5390              		.loc 1 1080 0
 5391 0004 094B     		ldr	r3, .L547+4
 5392              		.loc 1 1082 0
 5393 0006 60EEA70A 		vmul.f32	s1, s1, s15
 5394              	.LVL441:
 5395              		.loc 1 1080 0
 5396 000a 0822     		movs	r2, #8
 5397 000c 5A71     		strb	r2, [r3, #5]
 5398              		.loc 1 1081 0
 5399 000e 83ED2D0A 		vstr.32	s0, [r3, #180]
 5400              		.loc 1 1082 0
 5401 0012 C3ED320A 		vstr.32	s1, [r3, #200]
 5402              		.loc 1 1084 0
 5403 0016 1A79     		ldrb	r2, [r3, #4]	@ zero_extendqisi2
 5404 0018 022A     		cmp	r2, #2
 5405 001a 04D0     		beq	.L542
 5406              		.loc 1 1085 0
 5407 001c 0021     		movs	r1, #0
 5408              		.loc 1 1086 0
 5409 001e 0222     		movs	r2, #2
 5410              		.loc 1 1085 0
 5411 0020 83F80413 		strb	r1, [r3, #772]
 5412              		.loc 1 1086 0
 5413 0024 1A71     		strb	r2, [r3, #4]
 5414              	.L542:
 5415              		.loc 1 1088 0
ARM GAS  /tmp/ccMYeDWX.s 			page 96


 5416 0026 7047     		bx	lr
 5417              	.L548:
 5418              		.align	2
 5419              	.L547:
 5420 0028 5077D63D 		.word	1037465424
 5421 002c 00000000 		.word	.LANCHOR0
 5422              		.cfi_endproc
 5423              	.LFE284:
 5424              		.size	mcpwm_foc_set_openloop_duty, .-mcpwm_foc_set_openloop_duty
 5425              		.section	.text.mcpwm_foc_set_openloop_duty_phase,"ax",%progbits
 5426              		.align	1
 5427              		.p2align 4,,15
 5428              		.global	mcpwm_foc_set_openloop_duty_phase
 5429              		.syntax unified
 5430              		.thumb
 5431              		.thumb_func
 5432              		.fpu fpv4-sp-d16
 5433              		.type	mcpwm_foc_set_openloop_duty_phase, %function
 5434              	mcpwm_foc_set_openloop_duty_phase:
 5435              	.LFB285:
 5436              		.loc 1 1099 0
 5437              		.cfi_startproc
 5438              		@ args = 0, pretend = 0, frame = 0
 5439              		@ frame_needed = 0, uses_anonymous_args = 0
 5440              	.LVL442:
 5441              		.loc 1 1102 0
 5442 0000 DFED0C7A 		vldr.32	s15, .L555
 5443              		.loc 1 1099 0
 5444 0004 10B5     		push	{r4, lr}
 5445              		.cfi_def_cfa_offset 8
 5446              		.cfi_offset 4, -8
 5447              		.cfi_offset 14, -4
 5448              		.loc 1 1102 0
 5449 0006 60EEA70A 		vmul.f32	s1, s1, s15
 5450              	.LVL443:
 5451              		.loc 1 1100 0
 5452 000a 0B4C     		ldr	r4, .L555+4
 5453 000c 0923     		movs	r3, #9
 5454 000e 6371     		strb	r3, [r4, #5]
 5455              		.loc 1 1102 0
 5456 0010 2046     		mov	r0, r4
 5457 0012 10EE903A 		vmov	r3, s1
 5458              		.loc 1 1101 0
 5459 0016 84ED2D0A 		vstr.32	s0, [r4, #180]
 5460              		.loc 1 1102 0
 5461 001a 40F8CC3F 		str	r3, [r0, #204]!	@ float
 5462              		.loc 1 1103 0
 5463 001e FFF7FEFF 		bl	utils_norm_angle_rad
 5464              	.LVL444:
 5465              		.loc 1 1105 0
 5466 0022 2379     		ldrb	r3, [r4, #4]	@ zero_extendqisi2
 5467 0024 022B     		cmp	r3, #2
 5468 0026 04D0     		beq	.L549
 5469              		.loc 1 1106 0
 5470 0028 0022     		movs	r2, #0
 5471              		.loc 1 1107 0
 5472 002a 0223     		movs	r3, #2
ARM GAS  /tmp/ccMYeDWX.s 			page 97


 5473              		.loc 1 1106 0
 5474 002c 84F80423 		strb	r2, [r4, #772]
 5475              		.loc 1 1107 0
 5476 0030 2371     		strb	r3, [r4, #4]
 5477              	.L549:
 5478              		.loc 1 1109 0
 5479 0032 10BD     		pop	{r4, pc}
 5480              	.L556:
 5481              		.align	2
 5482              	.L555:
 5483 0034 35FA8E3C 		.word	1016003125
 5484 0038 00000000 		.word	.LANCHOR0
 5485              		.cfi_endproc
 5486              	.LFE285:
 5487              		.size	mcpwm_foc_set_openloop_duty_phase, .-mcpwm_foc_set_openloop_duty_phase
 5488              		.section	.text.mcpwm_foc_get_duty_cycle_set,"ax",%progbits
 5489              		.align	1
 5490              		.p2align 4,,15
 5491              		.global	mcpwm_foc_get_duty_cycle_set
 5492              		.syntax unified
 5493              		.thumb
 5494              		.thumb_func
 5495              		.fpu fpv4-sp-d16
 5496              		.type	mcpwm_foc_get_duty_cycle_set, %function
 5497              	mcpwm_foc_get_duty_cycle_set:
 5498              	.LFB286:
 5499              		.loc 1 1111 0
 5500              		.cfi_startproc
 5501              		@ args = 0, pretend = 0, frame = 0
 5502              		@ frame_needed = 0, uses_anonymous_args = 0
 5503              		@ link register save eliminated.
 5504              		.loc 1 1112 0
 5505 0000 014B     		ldr	r3, .L558
 5506 0002 93ED2D0A 		vldr.32	s0, [r3, #180]
 5507              		.loc 1 1113 0
 5508 0006 7047     		bx	lr
 5509              	.L559:
 5510              		.align	2
 5511              	.L558:
 5512 0008 00000000 		.word	.LANCHOR0
 5513              		.cfi_endproc
 5514              	.LFE286:
 5515              		.size	mcpwm_foc_get_duty_cycle_set, .-mcpwm_foc_get_duty_cycle_set
 5516              		.section	.text.mcpwm_foc_get_duty_cycle_now,"ax",%progbits
 5517              		.align	1
 5518              		.p2align 4,,15
 5519              		.global	mcpwm_foc_get_duty_cycle_now
 5520              		.syntax unified
 5521              		.thumb
 5522              		.thumb_func
 5523              		.fpu fpv4-sp-d16
 5524              		.type	mcpwm_foc_get_duty_cycle_now, %function
 5525              	mcpwm_foc_get_duty_cycle_now:
 5526              	.LFB287:
 5527              		.loc 1 1115 0
 5528              		.cfi_startproc
 5529              		@ args = 0, pretend = 0, frame = 0
ARM GAS  /tmp/ccMYeDWX.s 			page 98


 5530              		@ frame_needed = 0, uses_anonymous_args = 0
 5531              		@ link register save eliminated.
 5532              		.loc 1 1116 0
 5533 0000 014B     		ldr	r3, .L561
 5534 0002 93ED0D0A 		vldr.32	s0, [r3, #52]
 5535              		.loc 1 1117 0
 5536 0006 7047     		bx	lr
 5537              	.L562:
 5538              		.align	2
 5539              	.L561:
 5540 0008 00000000 		.word	.LANCHOR0
 5541              		.cfi_endproc
 5542              	.LFE287:
 5543              		.size	mcpwm_foc_get_duty_cycle_now, .-mcpwm_foc_get_duty_cycle_now
 5544              		.section	.text.mcpwm_foc_get_pid_pos_set,"ax",%progbits
 5545              		.align	1
 5546              		.p2align 4,,15
 5547              		.global	mcpwm_foc_get_pid_pos_set
 5548              		.syntax unified
 5549              		.thumb
 5550              		.thumb_func
 5551              		.fpu fpv4-sp-d16
 5552              		.type	mcpwm_foc_get_pid_pos_set, %function
 5553              	mcpwm_foc_get_pid_pos_set:
 5554              	.LFB288:
 5555              		.loc 1 1119 0
 5556              		.cfi_startproc
 5557              		@ args = 0, pretend = 0, frame = 0
 5558              		@ frame_needed = 0, uses_anonymous_args = 0
 5559              		@ link register save eliminated.
 5560              		.loc 1 1120 0
 5561 0000 014B     		ldr	r3, .L564
 5562 0002 93ED350A 		vldr.32	s0, [r3, #212]
 5563              		.loc 1 1121 0
 5564 0006 7047     		bx	lr
 5565              	.L565:
 5566              		.align	2
 5567              	.L564:
 5568 0008 00000000 		.word	.LANCHOR0
 5569              		.cfi_endproc
 5570              	.LFE288:
 5571              		.size	mcpwm_foc_get_pid_pos_set, .-mcpwm_foc_get_pid_pos_set
 5572              		.section	.text.mcpwm_foc_get_pid_pos_now,"ax",%progbits
 5573              		.align	1
 5574              		.p2align 4,,15
 5575              		.global	mcpwm_foc_get_pid_pos_now
 5576              		.syntax unified
 5577              		.thumb
 5578              		.thumb_func
 5579              		.fpu fpv4-sp-d16
 5580              		.type	mcpwm_foc_get_pid_pos_now, %function
 5581              	mcpwm_foc_get_pid_pos_now:
 5582              	.LFB289:
 5583              		.loc 1 1123 0
 5584              		.cfi_startproc
 5585              		@ args = 0, pretend = 0, frame = 0
 5586              		@ frame_needed = 0, uses_anonymous_args = 0
ARM GAS  /tmp/ccMYeDWX.s 			page 99


 5587              		@ link register save eliminated.
 5588              		.loc 1 1124 0
 5589 0000 014B     		ldr	r3, .L567
 5590 0002 93ED480A 		vldr.32	s0, [r3, #288]
 5591              		.loc 1 1125 0
 5592 0006 7047     		bx	lr
 5593              	.L568:
 5594              		.align	2
 5595              	.L567:
 5596 0008 00000000 		.word	.LANCHOR0
 5597              		.cfi_endproc
 5598              	.LFE289:
 5599              		.size	mcpwm_foc_get_pid_pos_now, .-mcpwm_foc_get_pid_pos_now
 5600              		.section	.text.mcpwm_foc_get_switching_frequency_now,"ax",%progbits
 5601              		.align	1
 5602              		.p2align 4,,15
 5603              		.global	mcpwm_foc_get_switching_frequency_now
 5604              		.syntax unified
 5605              		.thumb
 5606              		.thumb_func
 5607              		.fpu fpv4-sp-d16
 5608              		.type	mcpwm_foc_get_switching_frequency_now, %function
 5609              	mcpwm_foc_get_switching_frequency_now:
 5610              	.LFB290:
 5611              		.loc 1 1133 0
 5612              		.cfi_startproc
 5613              		@ args = 0, pretend = 0, frame = 0
 5614              		@ frame_needed = 0, uses_anonymous_args = 0
 5615              		@ link register save eliminated.
 5616              		.loc 1 1134 0
 5617 0000 024B     		ldr	r3, .L570
 5618 0002 1B68     		ldr	r3, [r3]
 5619 0004 93ED2E0A 		vldr.32	s0, [r3, #184]
 5620              		.loc 1 1135 0
 5621 0008 7047     		bx	lr
 5622              	.L571:
 5623 000a 00BF     		.align	2
 5624              	.L570:
 5625 000c 00000000 		.word	.LANCHOR0
 5626              		.cfi_endproc
 5627              	.LFE290:
 5628              		.size	mcpwm_foc_get_switching_frequency_now, .-mcpwm_foc_get_switching_frequency_now
 5629              		.section	.text.mcpwm_foc_get_sampling_frequency_now,"ax",%progbits
 5630              		.align	1
 5631              		.p2align 4,,15
 5632              		.global	mcpwm_foc_get_sampling_frequency_now
 5633              		.syntax unified
 5634              		.thumb
 5635              		.thumb_func
 5636              		.fpu fpv4-sp-d16
 5637              		.type	mcpwm_foc_get_sampling_frequency_now, %function
 5638              	mcpwm_foc_get_sampling_frequency_now:
 5639              	.LFB291:
 5640              		.loc 1 1143 0
 5641              		.cfi_startproc
 5642              		@ args = 0, pretend = 0, frame = 0
 5643              		@ frame_needed = 0, uses_anonymous_args = 0
ARM GAS  /tmp/ccMYeDWX.s 			page 100


 5644              		@ link register save eliminated.
 5645              		.loc 1 1151 0
 5646 0000 044B     		ldr	r3, .L573
 5647 0002 1B68     		ldr	r3, [r3]
 5648 0004 93ED2E0A 		vldr.32	s0, [r3, #184]
 5649 0008 F6EE007A 		vmov.f32	s15, #5.0e-1
 5650              		.loc 1 1153 0
 5651 000c 20EE270A 		vmul.f32	s0, s0, s15
 5652 0010 7047     		bx	lr
 5653              	.L574:
 5654 0012 00BF     		.align	2
 5655              	.L573:
 5656 0014 00000000 		.word	.LANCHOR0
 5657              		.cfi_endproc
 5658              	.LFE291:
 5659              		.size	mcpwm_foc_get_sampling_frequency_now, .-mcpwm_foc_get_sampling_frequency_now
 5660              		.section	.text.mcpwm_foc_get_ts,"ax",%progbits
 5661              		.align	1
 5662              		.p2align 4,,15
 5663              		.global	mcpwm_foc_get_ts
 5664              		.syntax unified
 5665              		.thumb
 5666              		.thumb_func
 5667              		.fpu fpv4-sp-d16
 5668              		.type	mcpwm_foc_get_ts, %function
 5669              	mcpwm_foc_get_ts:
 5670              	.LFB292:
 5671              		.loc 1 1158 0
 5672              		.cfi_startproc
 5673              		@ args = 0, pretend = 0, frame = 0
 5674              		@ frame_needed = 0, uses_anonymous_args = 0
 5675              		@ link register save eliminated.
 5676              		.loc 1 1166 0
 5677 0000 044B     		ldr	r3, .L576
 5678 0002 1B68     		ldr	r3, [r3]
 5679 0004 D3ED2E7A 		vldr.32	s15, [r3, #184]
 5680 0008 B7EE000A 		vmov.f32	s0, #1.0e+0
 5681              		.loc 1 1168 0
 5682 000c 80EE270A 		vdiv.f32	s0, s0, s15
 5683 0010 7047     		bx	lr
 5684              	.L577:
 5685 0012 00BF     		.align	2
 5686              	.L576:
 5687 0014 00000000 		.word	.LANCHOR0
 5688              		.cfi_endproc
 5689              	.LFE292:
 5690              		.size	mcpwm_foc_get_ts, .-mcpwm_foc_get_ts
 5691              		.section	.text.mcpwm_foc_is_using_encoder,"ax",%progbits
 5692              		.align	1
 5693              		.p2align 4,,15
 5694              		.global	mcpwm_foc_is_using_encoder
 5695              		.syntax unified
 5696              		.thumb
 5697              		.thumb_func
 5698              		.fpu fpv4-sp-d16
 5699              		.type	mcpwm_foc_is_using_encoder, %function
 5700              	mcpwm_foc_is_using_encoder:
ARM GAS  /tmp/ccMYeDWX.s 			page 101


 5701              	.LFB293:
 5702              		.loc 1 1170 0
 5703              		.cfi_startproc
 5704              		@ args = 0, pretend = 0, frame = 0
 5705              		@ frame_needed = 0, uses_anonymous_args = 0
 5706              		@ link register save eliminated.
 5707              		.loc 1 1171 0
 5708 0000 014B     		ldr	r3, .L579
 5709 0002 93F82801 		ldrb	r0, [r3, #296]	@ zero_extendqisi2
 5710              		.loc 1 1172 0
 5711 0006 7047     		bx	lr
 5712              	.L580:
 5713              		.align	2
 5714              	.L579:
 5715 0008 00000000 		.word	.LANCHOR0
 5716              		.cfi_endproc
 5717              	.LFE293:
 5718              		.size	mcpwm_foc_is_using_encoder, .-mcpwm_foc_is_using_encoder
 5719              		.section	.text.mcpwm_foc_get_observer_state,"ax",%progbits
 5720              		.align	1
 5721              		.p2align 4,,15
 5722              		.global	mcpwm_foc_get_observer_state
 5723              		.syntax unified
 5724              		.thumb
 5725              		.thumb_func
 5726              		.fpu fpv4-sp-d16
 5727              		.type	mcpwm_foc_get_observer_state, %function
 5728              	mcpwm_foc_get_observer_state:
 5729              	.LFB294:
 5730              		.loc 1 1174 0
 5731              		.cfi_startproc
 5732              		@ args = 0, pretend = 0, frame = 0
 5733              		@ frame_needed = 0, uses_anonymous_args = 0
 5734              		@ link register save eliminated.
 5735              	.LVL445:
 5736              		.loc 1 1176 0
 5737 0000 034B     		ldr	r3, .L582
 5738 0002 D3F8FC20 		ldr	r2, [r3, #252]	@ float
 5739 0006 0260     		str	r2, [r0]	@ float
 5740              		.loc 1 1177 0
 5741 0008 D3F80031 		ldr	r3, [r3, #256]	@ float
 5742 000c 0B60     		str	r3, [r1]	@ float
 5743              		.loc 1 1178 0
 5744 000e 7047     		bx	lr
 5745              	.L583:
 5746              		.align	2
 5747              	.L582:
 5748 0010 00000000 		.word	.LANCHOR0
 5749              		.cfi_endproc
 5750              	.LFE294:
 5751              		.size	mcpwm_foc_get_observer_state, .-mcpwm_foc_get_observer_state
 5752              		.section	.text.mcpwm_foc_set_current_off_delay,"ax",%progbits
 5753              		.align	1
 5754              		.p2align 4,,15
 5755              		.global	mcpwm_foc_set_current_off_delay
 5756              		.syntax unified
 5757              		.thumb
ARM GAS  /tmp/ccMYeDWX.s 			page 102


 5758              		.thumb_func
 5759              		.fpu fpv4-sp-d16
 5760              		.type	mcpwm_foc_set_current_off_delay, %function
 5761              	mcpwm_foc_set_current_off_delay:
 5762              	.LFB295:
 5763              		.loc 1 1184 0
 5764              		.cfi_startproc
 5765              		@ args = 0, pretend = 0, frame = 0
 5766              		@ frame_needed = 0, uses_anonymous_args = 0
 5767              		@ link register save eliminated.
 5768              	.LVL446:
 5769              		.loc 1 1185 0
 5770 0000 054B     		ldr	r3, .L588
 5771 0002 D3ED317A 		vldr.32	s15, [r3, #196]
 5772 0006 F4EEC07A 		vcmpe.f32	s15, s0
 5773 000a F1EE10FA 		vmrs	APSR_nzcv, FPSCR
 5774              		.loc 1 1186 0
 5775 000e 48BF     		it	mi
 5776 0010 83ED310A 		vstrmi.32	s0, [r3, #196]
 5777              		.loc 1 1188 0
 5778 0014 7047     		bx	lr
 5779              	.L589:
 5780 0016 00BF     		.align	2
 5781              	.L588:
 5782 0018 00000000 		.word	.LANCHOR0
 5783              		.cfi_endproc
 5784              	.LFE295:
 5785              		.size	mcpwm_foc_set_current_off_delay, .-mcpwm_foc_set_current_off_delay
 5786              		.section	.text.mcpwm_foc_get_tot_current_motor,"ax",%progbits
 5787              		.align	1
 5788              		.p2align 4,,15
 5789              		.global	mcpwm_foc_get_tot_current_motor
 5790              		.syntax unified
 5791              		.thumb
 5792              		.thumb_func
 5793              		.fpu fpv4-sp-d16
 5794              		.type	mcpwm_foc_get_tot_current_motor, %function
 5795              	mcpwm_foc_get_tot_current_motor:
 5796              	.LFB296:
 5797              		.loc 1 1190 0
 5798              		.cfi_startproc
 5799              		@ args = 0, pretend = 0, frame = 0
 5800              		@ frame_needed = 0, uses_anonymous_args = 0
 5801              		@ link register save eliminated.
 5802              	.LVL447:
 5803              		.loc 1 1192 0
 5804 0000 0B4B     		ldr	r3, .L593
 5805 0002 93ED217A 		vldr.32	s14, [r3, #132]
 5806 0006 D3ED1D7A 		vldr.32	s15, [r3, #116]
 5807 000a 93ED130A 		vldr.32	s0, [r3, #76]
 5808 000e 27EE277A 		vmul.f32	s14, s14, s15
 5809 0012 FFEE007A 		vmov.f32	s15, #-1.0e+0
 5810 0016 B5EEC07A 		vcmpe.f32	s14, #0
 5811 001a F1EE10FA 		vmrs	APSR_nzcv, FPSCR
 5812 001e B7EE007A 		vmov.f32	s14, #1.0e+0
 5813 0022 58BF     		it	pl
 5814 0024 F0EE477A 		vmovpl.f32	s15, s14
ARM GAS  /tmp/ccMYeDWX.s 			page 103


 5815              		.loc 1 1193 0
 5816 0028 20EE270A 		vmul.f32	s0, s0, s15
 5817 002c 7047     		bx	lr
 5818              	.L594:
 5819 002e 00BF     		.align	2
 5820              	.L593:
 5821 0030 00000000 		.word	.LANCHOR0
 5822              		.cfi_endproc
 5823              	.LFE296:
 5824              		.size	mcpwm_foc_get_tot_current_motor, .-mcpwm_foc_get_tot_current_motor
 5825              		.section	.text.mcpwm_foc_get_tot_current_filtered_motor,"ax",%progbits
 5826              		.align	1
 5827              		.p2align 4,,15
 5828              		.global	mcpwm_foc_get_tot_current_filtered_motor
 5829              		.syntax unified
 5830              		.thumb
 5831              		.thumb_func
 5832              		.fpu fpv4-sp-d16
 5833              		.type	mcpwm_foc_get_tot_current_filtered_motor, %function
 5834              	mcpwm_foc_get_tot_current_filtered_motor:
 5835              	.LFB297:
 5836              		.loc 1 1195 0
 5837              		.cfi_startproc
 5838              		@ args = 0, pretend = 0, frame = 0
 5839              		@ frame_needed = 0, uses_anonymous_args = 0
 5840              		@ link register save eliminated.
 5841              	.LVL448:
 5842              		.loc 1 1197 0
 5843 0000 0B4B     		ldr	r3, .L598
 5844 0002 93ED217A 		vldr.32	s14, [r3, #132]
 5845 0006 D3ED1F7A 		vldr.32	s15, [r3, #124]
 5846 000a 93ED140A 		vldr.32	s0, [r3, #80]
 5847 000e 27EE277A 		vmul.f32	s14, s14, s15
 5848 0012 FFEE007A 		vmov.f32	s15, #-1.0e+0
 5849 0016 B5EEC07A 		vcmpe.f32	s14, #0
 5850 001a F1EE10FA 		vmrs	APSR_nzcv, FPSCR
 5851 001e B7EE007A 		vmov.f32	s14, #1.0e+0
 5852 0022 58BF     		it	pl
 5853 0024 F0EE477A 		vmovpl.f32	s15, s14
 5854              		.loc 1 1198 0
 5855 0028 20EE270A 		vmul.f32	s0, s0, s15
 5856 002c 7047     		bx	lr
 5857              	.L599:
 5858 002e 00BF     		.align	2
 5859              	.L598:
 5860 0030 00000000 		.word	.LANCHOR0
 5861              		.cfi_endproc
 5862              	.LFE297:
 5863              		.size	mcpwm_foc_get_tot_current_filtered_motor, .-mcpwm_foc_get_tot_current_filtered_motor
 5864              		.section	.text.mcpwm_foc_get_tot_current_in_motor,"ax",%progbits
 5865              		.align	1
 5866              		.p2align 4,,15
 5867              		.global	mcpwm_foc_get_tot_current_in_motor
 5868              		.syntax unified
 5869              		.thumb
 5870              		.thumb_func
 5871              		.fpu fpv4-sp-d16
ARM GAS  /tmp/ccMYeDWX.s 			page 104


 5872              		.type	mcpwm_foc_get_tot_current_in_motor, %function
 5873              	mcpwm_foc_get_tot_current_in_motor:
 5874              	.LFB298:
 5875              		.loc 1 1200 0
 5876              		.cfi_startproc
 5877              		@ args = 0, pretend = 0, frame = 0
 5878              		@ frame_needed = 0, uses_anonymous_args = 0
 5879              		@ link register save eliminated.
 5880              	.LVL449:
 5881              		.loc 1 1201 0
 5882 0000 014B     		ldr	r3, .L601
 5883 0002 93ED150A 		vldr.32	s0, [r3, #84]
 5884              		.loc 1 1202 0
 5885 0006 7047     		bx	lr
 5886              	.L602:
 5887              		.align	2
 5888              	.L601:
 5889 0008 00000000 		.word	.LANCHOR0
 5890              		.cfi_endproc
 5891              	.LFE298:
 5892              		.size	mcpwm_foc_get_tot_current_in_motor, .-mcpwm_foc_get_tot_current_in_motor
 5893              		.section	.text.mcpwm_foc_get_tot_current_in_filtered_motor,"ax",%progbits
 5894              		.align	1
 5895              		.p2align 4,,15
 5896              		.global	mcpwm_foc_get_tot_current_in_filtered_motor
 5897              		.syntax unified
 5898              		.thumb
 5899              		.thumb_func
 5900              		.fpu fpv4-sp-d16
 5901              		.type	mcpwm_foc_get_tot_current_in_filtered_motor, %function
 5902              	mcpwm_foc_get_tot_current_in_filtered_motor:
 5903              	.LFB364:
 5904              		.cfi_startproc
 5905              		@ args = 0, pretend = 0, frame = 0
 5906              		@ frame_needed = 0, uses_anonymous_args = 0
 5907              		@ link register save eliminated.
 5908 0000 014B     		ldr	r3, .L604
 5909 0002 93ED150A 		vldr.32	s0, [r3, #84]
 5910 0006 7047     		bx	lr
 5911              	.L605:
 5912              		.align	2
 5913              	.L604:
 5914 0008 00000000 		.word	.LANCHOR0
 5915              		.cfi_endproc
 5916              	.LFE364:
 5917              		.size	mcpwm_foc_get_tot_current_in_filtered_motor, .-mcpwm_foc_get_tot_current_in_filtered_motor
 5918              		.section	.text.mcpwm_foc_get_abs_motor_current_motor,"ax",%progbits
 5919              		.align	1
 5920              		.p2align 4,,15
 5921              		.global	mcpwm_foc_get_abs_motor_current_motor
 5922              		.syntax unified
 5923              		.thumb
 5924              		.thumb_func
 5925              		.fpu fpv4-sp-d16
 5926              		.type	mcpwm_foc_get_abs_motor_current_motor, %function
 5927              	mcpwm_foc_get_abs_motor_current_motor:
 5928              	.LFB300:
ARM GAS  /tmp/ccMYeDWX.s 			page 105


 5929              		.loc 1 1209 0
 5930              		.cfi_startproc
 5931              		@ args = 0, pretend = 0, frame = 0
 5932              		@ frame_needed = 0, uses_anonymous_args = 0
 5933              		@ link register save eliminated.
 5934              	.LVL450:
 5935              		.loc 1 1210 0
 5936 0000 014B     		ldr	r3, .L607
 5937 0002 93ED130A 		vldr.32	s0, [r3, #76]
 5938              		.loc 1 1211 0
 5939 0006 7047     		bx	lr
 5940              	.L608:
 5941              		.align	2
 5942              	.L607:
 5943 0008 00000000 		.word	.LANCHOR0
 5944              		.cfi_endproc
 5945              	.LFE300:
 5946              		.size	mcpwm_foc_get_abs_motor_current_motor, .-mcpwm_foc_get_abs_motor_current_motor
 5947              		.section	.text.mcpwm_foc_get_abs_motor_current_filtered_motor,"ax",%progbits
 5948              		.align	1
 5949              		.p2align 4,,15
 5950              		.global	mcpwm_foc_get_abs_motor_current_filtered_motor
 5951              		.syntax unified
 5952              		.thumb
 5953              		.thumb_func
 5954              		.fpu fpv4-sp-d16
 5955              		.type	mcpwm_foc_get_abs_motor_current_filtered_motor, %function
 5956              	mcpwm_foc_get_abs_motor_current_filtered_motor:
 5957              	.LFB301:
 5958              		.loc 1 1213 0
 5959              		.cfi_startproc
 5960              		@ args = 0, pretend = 0, frame = 0
 5961              		@ frame_needed = 0, uses_anonymous_args = 0
 5962              		@ link register save eliminated.
 5963              	.LVL451:
 5964              		.loc 1 1214 0
 5965 0000 014B     		ldr	r3, .L610
 5966 0002 93ED140A 		vldr.32	s0, [r3, #80]
 5967              		.loc 1 1215 0
 5968 0006 7047     		bx	lr
 5969              	.L611:
 5970              		.align	2
 5971              	.L610:
 5972 0008 00000000 		.word	.LANCHOR0
 5973              		.cfi_endproc
 5974              	.LFE301:
 5975              		.size	mcpwm_foc_get_abs_motor_current_filtered_motor, .-mcpwm_foc_get_abs_motor_current_filtered_m
 5976              		.section	.text.mcpwm_foc_get_state_motor,"ax",%progbits
 5977              		.align	1
 5978              		.p2align 4,,15
 5979              		.global	mcpwm_foc_get_state_motor
 5980              		.syntax unified
 5981              		.thumb
 5982              		.thumb_func
 5983              		.fpu fpv4-sp-d16
 5984              		.type	mcpwm_foc_get_state_motor, %function
 5985              	mcpwm_foc_get_state_motor:
ARM GAS  /tmp/ccMYeDWX.s 			page 106


 5986              	.LFB302:
 5987              		.loc 1 1217 0
 5988              		.cfi_startproc
 5989              		@ args = 0, pretend = 0, frame = 0
 5990              		@ frame_needed = 0, uses_anonymous_args = 0
 5991              		@ link register save eliminated.
 5992              	.LVL452:
 5993              		.loc 1 1218 0
 5994 0000 014B     		ldr	r3, .L613
 5995 0002 1879     		ldrb	r0, [r3, #4]	@ zero_extendqisi2
 5996              	.LVL453:
 5997              		.loc 1 1219 0
 5998 0004 7047     		bx	lr
 5999              	.L614:
 6000 0006 00BF     		.align	2
 6001              	.L613:
 6002 0008 00000000 		.word	.LANCHOR0
 6003              		.cfi_endproc
 6004              	.LFE302:
 6005              		.size	mcpwm_foc_get_state_motor, .-mcpwm_foc_get_state_motor
 6006              		.section	.text.mcpwm_foc_get_rpm,"ax",%progbits
 6007              		.align	1
 6008              		.p2align 4,,15
 6009              		.global	mcpwm_foc_get_rpm
 6010              		.syntax unified
 6011              		.thumb
 6012              		.thumb_func
 6013              		.fpu fpv4-sp-d16
 6014              		.type	mcpwm_foc_get_rpm, %function
 6015              	mcpwm_foc_get_rpm:
 6016              	.LFB303:
 6017              		.loc 1 1229 0
 6018              		.cfi_startproc
 6019              		@ args = 0, pretend = 0, frame = 0
 6020              		@ frame_needed = 0, uses_anonymous_args = 0
 6021              		@ link register save eliminated.
 6022              		.loc 1 1230 0
 6023 0000 034B     		ldr	r3, .L616
 6024 0002 DFED047A 		vldr.32	s15, .L616+4
 6025 0006 93ED240A 		vldr.32	s0, [r3, #144]
 6026              		.loc 1 1232 0
 6027 000a 20EE270A 		vmul.f32	s0, s0, s15
 6028 000e 7047     		bx	lr
 6029              	.L617:
 6030              		.align	2
 6031              	.L616:
 6032 0010 00000000 		.word	.LANCHOR0
 6033 0014 EBC91841 		.word	1092143595
 6034              		.cfi_endproc
 6035              	.LFE303:
 6036              		.size	mcpwm_foc_get_rpm, .-mcpwm_foc_get_rpm
 6037              		.section	.text.mcpwm_foc_get_rpm_fast,"ax",%progbits
 6038              		.align	1
 6039              		.p2align 4,,15
 6040              		.global	mcpwm_foc_get_rpm_fast
 6041              		.syntax unified
 6042              		.thumb
ARM GAS  /tmp/ccMYeDWX.s 			page 107


 6043              		.thumb_func
 6044              		.fpu fpv4-sp-d16
 6045              		.type	mcpwm_foc_get_rpm_fast, %function
 6046              	mcpwm_foc_get_rpm_fast:
 6047              	.LFB304:
 6048              		.loc 1 1237 0
 6049              		.cfi_startproc
 6050              		@ args = 0, pretend = 0, frame = 0
 6051              		@ frame_needed = 0, uses_anonymous_args = 0
 6052              		@ link register save eliminated.
 6053              		.loc 1 1238 0
 6054 0000 034B     		ldr	r3, .L619
 6055 0002 DFED047A 		vldr.32	s15, .L619+4
 6056 0006 93ED4B0A 		vldr.32	s0, [r3, #300]
 6057              		.loc 1 1239 0
 6058 000a 20EE270A 		vmul.f32	s0, s0, s15
 6059 000e 7047     		bx	lr
 6060              	.L620:
 6061              		.align	2
 6062              	.L619:
 6063 0010 00000000 		.word	.LANCHOR0
 6064 0014 EBC91841 		.word	1092143595
 6065              		.cfi_endproc
 6066              	.LFE304:
 6067              		.size	mcpwm_foc_get_rpm_fast, .-mcpwm_foc_get_rpm_fast
 6068              		.section	.text.mcpwm_foc_get_rpm_faster,"ax",%progbits
 6069              		.align	1
 6070              		.p2align 4,,15
 6071              		.global	mcpwm_foc_get_rpm_faster
 6072              		.syntax unified
 6073              		.thumb
 6074              		.thumb_func
 6075              		.fpu fpv4-sp-d16
 6076              		.type	mcpwm_foc_get_rpm_faster, %function
 6077              	mcpwm_foc_get_rpm_faster:
 6078              	.LFB305:
 6079              		.loc 1 1244 0
 6080              		.cfi_startproc
 6081              		@ args = 0, pretend = 0, frame = 0
 6082              		@ frame_needed = 0, uses_anonymous_args = 0
 6083              		@ link register save eliminated.
 6084              		.loc 1 1245 0
 6085 0000 034B     		ldr	r3, .L622
 6086 0002 DFED047A 		vldr.32	s15, .L622+4
 6087 0006 93ED4C0A 		vldr.32	s0, [r3, #304]
 6088              		.loc 1 1246 0
 6089 000a 20EE270A 		vmul.f32	s0, s0, s15
 6090 000e 7047     		bx	lr
 6091              	.L623:
 6092              		.align	2
 6093              	.L622:
 6094 0010 00000000 		.word	.LANCHOR0
 6095 0014 EBC91841 		.word	1092143595
 6096              		.cfi_endproc
 6097              	.LFE305:
 6098              		.size	mcpwm_foc_get_rpm_faster, .-mcpwm_foc_get_rpm_faster
 6099              		.section	.text.mcpwm_foc_get_tot_current,"ax",%progbits
ARM GAS  /tmp/ccMYeDWX.s 			page 108


 6100              		.align	1
 6101              		.p2align 4,,15
 6102              		.global	mcpwm_foc_get_tot_current
 6103              		.syntax unified
 6104              		.thumb
 6105              		.thumb_func
 6106              		.fpu fpv4-sp-d16
 6107              		.type	mcpwm_foc_get_tot_current, %function
 6108              	mcpwm_foc_get_tot_current:
 6109              	.LFB306:
 6110              		.loc 1 1256 0
 6111              		.cfi_startproc
 6112              		@ args = 0, pretend = 0, frame = 0
 6113              		@ frame_needed = 0, uses_anonymous_args = 0
 6114              		@ link register save eliminated.
 6115              		.loc 1 1258 0
 6116 0000 0B4B     		ldr	r3, .L627
 6117 0002 93ED217A 		vldr.32	s14, [r3, #132]
 6118 0006 D3ED1D7A 		vldr.32	s15, [r3, #116]
 6119 000a 93ED130A 		vldr.32	s0, [r3, #76]
 6120 000e 27EE277A 		vmul.f32	s14, s14, s15
 6121 0012 FFEE007A 		vmov.f32	s15, #-1.0e+0
 6122 0016 B5EEC07A 		vcmpe.f32	s14, #0
 6123 001a F1EE10FA 		vmrs	APSR_nzcv, FPSCR
 6124 001e B7EE007A 		vmov.f32	s14, #1.0e+0
 6125 0022 58BF     		it	pl
 6126 0024 F0EE477A 		vmovpl.f32	s15, s14
 6127              		.loc 1 1259 0
 6128 0028 20EE270A 		vmul.f32	s0, s0, s15
 6129 002c 7047     		bx	lr
 6130              	.L628:
 6131 002e 00BF     		.align	2
 6132              	.L627:
 6133 0030 00000000 		.word	.LANCHOR0
 6134              		.cfi_endproc
 6135              	.LFE306:
 6136              		.size	mcpwm_foc_get_tot_current, .-mcpwm_foc_get_tot_current
 6137              		.section	.text.mcpwm_foc_get_tot_current_filtered,"ax",%progbits
 6138              		.align	1
 6139              		.p2align 4,,15
 6140              		.global	mcpwm_foc_get_tot_current_filtered
 6141              		.syntax unified
 6142              		.thumb
 6143              		.thumb_func
 6144              		.fpu fpv4-sp-d16
 6145              		.type	mcpwm_foc_get_tot_current_filtered, %function
 6146              	mcpwm_foc_get_tot_current_filtered:
 6147              	.LFB307:
 6148              		.loc 1 1269 0
 6149              		.cfi_startproc
 6150              		@ args = 0, pretend = 0, frame = 0
 6151              		@ frame_needed = 0, uses_anonymous_args = 0
 6152              		@ link register save eliminated.
 6153              		.loc 1 1271 0
 6154 0000 0B4B     		ldr	r3, .L632
 6155 0002 93ED217A 		vldr.32	s14, [r3, #132]
 6156 0006 D3ED1F7A 		vldr.32	s15, [r3, #124]
ARM GAS  /tmp/ccMYeDWX.s 			page 109


 6157 000a 93ED140A 		vldr.32	s0, [r3, #80]
 6158 000e 27EE277A 		vmul.f32	s14, s14, s15
 6159 0012 FFEE007A 		vmov.f32	s15, #-1.0e+0
 6160 0016 B5EEC07A 		vcmpe.f32	s14, #0
 6161 001a F1EE10FA 		vmrs	APSR_nzcv, FPSCR
 6162 001e B7EE007A 		vmov.f32	s14, #1.0e+0
 6163 0022 58BF     		it	pl
 6164 0024 F0EE477A 		vmovpl.f32	s15, s14
 6165              		.loc 1 1272 0
 6166 0028 20EE270A 		vmul.f32	s0, s0, s15
 6167 002c 7047     		bx	lr
 6168              	.L633:
 6169 002e 00BF     		.align	2
 6170              	.L632:
 6171 0030 00000000 		.word	.LANCHOR0
 6172              		.cfi_endproc
 6173              	.LFE307:
 6174              		.size	mcpwm_foc_get_tot_current_filtered, .-mcpwm_foc_get_tot_current_filtered
 6175              		.section	.text.mcpwm_foc_get_abs_motor_current,"ax",%progbits
 6176              		.align	1
 6177              		.p2align 4,,15
 6178              		.global	mcpwm_foc_get_abs_motor_current
 6179              		.syntax unified
 6180              		.thumb
 6181              		.thumb_func
 6182              		.fpu fpv4-sp-d16
 6183              		.type	mcpwm_foc_get_abs_motor_current, %function
 6184              	mcpwm_foc_get_abs_motor_current:
 6185              	.LFB308:
 6186              		.loc 1 1281 0
 6187              		.cfi_startproc
 6188              		@ args = 0, pretend = 0, frame = 0
 6189              		@ frame_needed = 0, uses_anonymous_args = 0
 6190              		@ link register save eliminated.
 6191              		.loc 1 1282 0
 6192 0000 014B     		ldr	r3, .L635
 6193 0002 93ED130A 		vldr.32	s0, [r3, #76]
 6194              		.loc 1 1283 0
 6195 0006 7047     		bx	lr
 6196              	.L636:
 6197              		.align	2
 6198              	.L635:
 6199 0008 00000000 		.word	.LANCHOR0
 6200              		.cfi_endproc
 6201              	.LFE308:
 6202              		.size	mcpwm_foc_get_abs_motor_current, .-mcpwm_foc_get_abs_motor_current
 6203              		.section	.text.mcpwm_foc_get_abs_motor_current_unbalance,"ax",%progbits
 6204              		.align	1
 6205              		.p2align 4,,15
 6206              		.global	mcpwm_foc_get_abs_motor_current_unbalance
 6207              		.syntax unified
 6208              		.thumb
 6209              		.thumb_func
 6210              		.fpu fpv4-sp-d16
 6211              		.type	mcpwm_foc_get_abs_motor_current_unbalance, %function
 6212              	mcpwm_foc_get_abs_motor_current_unbalance:
 6213              	.LFB309:
ARM GAS  /tmp/ccMYeDWX.s 			page 110


 6214              		.loc 1 1291 0
 6215              		.cfi_startproc
 6216              		@ args = 0, pretend = 0, frame = 0
 6217              		@ frame_needed = 0, uses_anonymous_args = 0
 6218              		@ link register save eliminated.
 6219              		.loc 1 1292 0
 6220 0000 034B     		ldr	r3, .L638
 6221 0002 DFED047A 		vldr.32	s15, .L638+4
 6222 0006 93ED270A 		vldr.32	s0, [r3, #156]
 6223              		.loc 1 1293 0
 6224 000a 20EE270A 		vmul.f32	s0, s0, s15
 6225 000e 7047     		bx	lr
 6226              	.L639:
 6227              		.align	2
 6228              	.L638:
 6229 0010 00000000 		.word	.LANCHOR0
 6230 0014 4008043F 		.word	1057228864
 6231              		.cfi_endproc
 6232              	.LFE309:
 6233              		.size	mcpwm_foc_get_abs_motor_current_unbalance, .-mcpwm_foc_get_abs_motor_current_unbalance
 6234              		.section	.text.mcpwm_foc_get_abs_motor_voltage,"ax",%progbits
 6235              		.align	1
 6236              		.p2align 4,,15
 6237              		.global	mcpwm_foc_get_abs_motor_voltage
 6238              		.syntax unified
 6239              		.thumb
 6240              		.thumb_func
 6241              		.fpu fpv4-sp-d16
 6242              		.type	mcpwm_foc_get_abs_motor_voltage, %function
 6243              	mcpwm_foc_get_abs_motor_voltage:
 6244              	.LFB310:
 6245              		.loc 1 1301 0
 6246              		.cfi_startproc
 6247              		@ args = 0, pretend = 0, frame = 0
 6248              		@ frame_needed = 0, uses_anonymous_args = 0
 6249 0000 08B5     		push	{r3, lr}
 6250              		.cfi_def_cfa_offset 8
 6251              		.cfi_offset 3, -8
 6252              		.cfi_offset 14, -4
 6253              		.loc 1 1302 0
 6254 0002 0D4B     		ldr	r3, .L644
 6255 0004 D3ED207A 		vldr.32	s15, [r3, #128]
 6256              	.LVL454:
 6257              		.loc 1 1303 0
 6258 0008 93ED210A 		vldr.32	s0, [r3, #132]
 6259              	.LVL455:
 6260              		.loc 1 1304 0
 6261 000c 20EE000A 		vmul.f32	s0, s0, s0
 6262              	.LVL456:
 6263              		.loc 1 1301 0
 6264 0010 2DED028B 		vpush.64	{d8}
 6265              		.cfi_def_cfa_offset 16
 6266              		.cfi_offset 80, -16
 6267              		.cfi_offset 81, -12
 6268              		.loc 1 1304 0
 6269 0014 A7EEA70A 		vfma.f32	s0, s15, s15
 6270 0018 B5EE400A 		vcmp.f32	s0, #0
ARM GAS  /tmp/ccMYeDWX.s 			page 111


 6271 001c F1EE10FA 		vmrs	APSR_nzcv, FPSCR
 6272 0020 B1EEC08A 		vsqrt.f32	s16, s0
 6273 0024 04D4     		bmi	.L643
 6274              	.LVL457:
 6275              	.L640:
 6276              		.loc 1 1305 0
 6277 0026 B0EE480A 		vmov.f32	s0, s16
 6278 002a BDEC028B 		vldm	sp!, {d8}
 6279              		.cfi_remember_state
 6280              		.cfi_restore 80
 6281              		.cfi_restore 81
 6282              		.cfi_def_cfa_offset 8
 6283 002e 08BD     		pop	{r3, pc}
 6284              	.LVL458:
 6285              	.L643:
 6286              		.cfi_restore_state
 6287              		.loc 1 1304 0
 6288 0030 FFF7FEFF 		bl	sqrtf
 6289              	.LVL459:
 6290 0034 F7E7     		b	.L640
 6291              	.L645:
 6292 0036 00BF     		.align	2
 6293              	.L644:
 6294 0038 00000000 		.word	.LANCHOR0
 6295              		.cfi_endproc
 6296              	.LFE310:
 6297              		.size	mcpwm_foc_get_abs_motor_voltage, .-mcpwm_foc_get_abs_motor_voltage
 6298              		.section	.text.mcpwm_foc_get_abs_motor_current_filtered,"ax",%progbits
 6299              		.align	1
 6300              		.p2align 4,,15
 6301              		.global	mcpwm_foc_get_abs_motor_current_filtered
 6302              		.syntax unified
 6303              		.thumb
 6304              		.thumb_func
 6305              		.fpu fpv4-sp-d16
 6306              		.type	mcpwm_foc_get_abs_motor_current_filtered, %function
 6307              	mcpwm_foc_get_abs_motor_current_filtered:
 6308              	.LFB311:
 6309              		.loc 1 1314 0
 6310              		.cfi_startproc
 6311              		@ args = 0, pretend = 0, frame = 0
 6312              		@ frame_needed = 0, uses_anonymous_args = 0
 6313              		@ link register save eliminated.
 6314              		.loc 1 1315 0
 6315 0000 014B     		ldr	r3, .L647
 6316 0002 93ED140A 		vldr.32	s0, [r3, #80]
 6317              		.loc 1 1316 0
 6318 0006 7047     		bx	lr
 6319              	.L648:
 6320              		.align	2
 6321              	.L647:
 6322 0008 00000000 		.word	.LANCHOR0
 6323              		.cfi_endproc
 6324              	.LFE311:
 6325              		.size	mcpwm_foc_get_abs_motor_current_filtered, .-mcpwm_foc_get_abs_motor_current_filtered
 6326              		.section	.text.mcpwm_foc_get_tot_current_directional,"ax",%progbits
 6327              		.align	1
ARM GAS  /tmp/ccMYeDWX.s 			page 112


 6328              		.p2align 4,,15
 6329              		.global	mcpwm_foc_get_tot_current_directional
 6330              		.syntax unified
 6331              		.thumb
 6332              		.thumb_func
 6333              		.fpu fpv4-sp-d16
 6334              		.type	mcpwm_foc_get_tot_current_directional, %function
 6335              	mcpwm_foc_get_tot_current_directional:
 6336              	.LFB312:
 6337              		.loc 1 1325 0
 6338              		.cfi_startproc
 6339              		@ args = 0, pretend = 0, frame = 0
 6340              		@ frame_needed = 0, uses_anonymous_args = 0
 6341              		@ link register save eliminated.
 6342              		.loc 1 1326 0
 6343 0000 014B     		ldr	r3, .L650
 6344 0002 93ED1D0A 		vldr.32	s0, [r3, #116]
 6345              		.loc 1 1327 0
 6346 0006 7047     		bx	lr
 6347              	.L651:
 6348              		.align	2
 6349              	.L650:
 6350 0008 00000000 		.word	.LANCHOR0
 6351              		.cfi_endproc
 6352              	.LFE312:
 6353              		.size	mcpwm_foc_get_tot_current_directional, .-mcpwm_foc_get_tot_current_directional
 6354              		.section	.text.mcpwm_foc_get_tot_current_directional_filtered,"ax",%progbits
 6355              		.align	1
 6356              		.p2align 4,,15
 6357              		.global	mcpwm_foc_get_tot_current_directional_filtered
 6358              		.syntax unified
 6359              		.thumb
 6360              		.thumb_func
 6361              		.fpu fpv4-sp-d16
 6362              		.type	mcpwm_foc_get_tot_current_directional_filtered, %function
 6363              	mcpwm_foc_get_tot_current_directional_filtered:
 6364              	.LFB313:
 6365              		.loc 1 1336 0
 6366              		.cfi_startproc
 6367              		@ args = 0, pretend = 0, frame = 0
 6368              		@ frame_needed = 0, uses_anonymous_args = 0
 6369              		@ link register save eliminated.
 6370              		.loc 1 1337 0
 6371 0000 014B     		ldr	r3, .L653
 6372 0002 93ED1F0A 		vldr.32	s0, [r3, #124]
 6373              		.loc 1 1338 0
 6374 0006 7047     		bx	lr
 6375              	.L654:
 6376              		.align	2
 6377              	.L653:
 6378 0008 00000000 		.word	.LANCHOR0
 6379              		.cfi_endproc
 6380              	.LFE313:
 6381              		.size	mcpwm_foc_get_tot_current_directional_filtered, .-mcpwm_foc_get_tot_current_directional_filt
 6382              		.section	.text.mcpwm_foc_get_id,"ax",%progbits
 6383              		.align	1
 6384              		.p2align 4,,15
ARM GAS  /tmp/ccMYeDWX.s 			page 113


 6385              		.global	mcpwm_foc_get_id
 6386              		.syntax unified
 6387              		.thumb
 6388              		.thumb_func
 6389              		.fpu fpv4-sp-d16
 6390              		.type	mcpwm_foc_get_id, %function
 6391              	mcpwm_foc_get_id:
 6392              	.LFB314:
 6393              		.loc 1 1346 0
 6394              		.cfi_startproc
 6395              		@ args = 0, pretend = 0, frame = 0
 6396              		@ frame_needed = 0, uses_anonymous_args = 0
 6397              		@ link register save eliminated.
 6398              		.loc 1 1347 0
 6399 0000 014B     		ldr	r3, .L656
 6400 0002 93ED1C0A 		vldr.32	s0, [r3, #112]
 6401              		.loc 1 1348 0
 6402 0006 7047     		bx	lr
 6403              	.L657:
 6404              		.align	2
 6405              	.L656:
 6406 0008 00000000 		.word	.LANCHOR0
 6407              		.cfi_endproc
 6408              	.LFE314:
 6409              		.size	mcpwm_foc_get_id, .-mcpwm_foc_get_id
 6410              		.section	.text.mcpwm_foc_get_iq,"ax",%progbits
 6411              		.align	1
 6412              		.p2align 4,,15
 6413              		.global	mcpwm_foc_get_iq
 6414              		.syntax unified
 6415              		.thumb
 6416              		.thumb_func
 6417              		.fpu fpv4-sp-d16
 6418              		.type	mcpwm_foc_get_iq, %function
 6419              	mcpwm_foc_get_iq:
 6420              	.LFB360:
 6421              		.cfi_startproc
 6422              		@ args = 0, pretend = 0, frame = 0
 6423              		@ frame_needed = 0, uses_anonymous_args = 0
 6424              		@ link register save eliminated.
 6425 0000 014B     		ldr	r3, .L659
 6426 0002 93ED1D0A 		vldr.32	s0, [r3, #116]
 6427 0006 7047     		bx	lr
 6428              	.L660:
 6429              		.align	2
 6430              	.L659:
 6431 0008 00000000 		.word	.LANCHOR0
 6432              		.cfi_endproc
 6433              	.LFE360:
 6434              		.size	mcpwm_foc_get_iq, .-mcpwm_foc_get_iq
 6435              		.section	.text.mcpwm_foc_get_tot_current_in,"ax",%progbits
 6436              		.align	1
 6437              		.p2align 4,,15
 6438              		.global	mcpwm_foc_get_tot_current_in
 6439              		.syntax unified
 6440              		.thumb
 6441              		.thumb_func
ARM GAS  /tmp/ccMYeDWX.s 			page 114


 6442              		.fpu fpv4-sp-d16
 6443              		.type	mcpwm_foc_get_tot_current_in, %function
 6444              	mcpwm_foc_get_tot_current_in:
 6445              	.LFB316:
 6446              		.loc 1 1366 0
 6447              		.cfi_startproc
 6448              		@ args = 0, pretend = 0, frame = 0
 6449              		@ frame_needed = 0, uses_anonymous_args = 0
 6450              		@ link register save eliminated.
 6451              		.loc 1 1367 0
 6452 0000 014B     		ldr	r3, .L662
 6453 0002 93ED150A 		vldr.32	s0, [r3, #84]
