ARM GAS  /tmp/ccTWrjJD.s 			page 1


   1              		.cpu cortex-m4
   2              		.eabi_attribute 27, 1
   3              		.eabi_attribute 28, 1
   4              		.eabi_attribute 20, 1
   5              		.eabi_attribute 21, 1
   6              		.eabi_attribute 23, 3
   7              		.eabi_attribute 24, 1
   8              		.eabi_attribute 25, 1
   9              		.eabi_attribute 26, 1
  10              		.eabi_attribute 30, 2
  11              		.eabi_attribute 34, 1
  12              		.eabi_attribute 18, 4
  13              		.file	"mcpwm.c"
  14              		.text
  15              	.Ltext0:
  16              		.cfi_sections	.debug_frame
  17              		.section	.text.update_adc_sample_pos,"ax",%progbits
  18              		.align	1
  19              		.p2align 4,,15
  20              		.syntax unified
  21              		.thumb
  22              		.thumb_func
  23              		.fpu fpv4-sp-d16
  24              		.type	update_adc_sample_pos, %function
  25              	update_adc_sample_pos:
  26              	.LFB318:
  27              		.file 1 "mcpwm.c"
  28              		.loc 1 2320 0
  29              		.cfi_startproc
  30              		@ args = 0, pretend = 0, frame = 24
  31              		@ frame_needed = 0, uses_anonymous_args = 0
  32              		@ link register save eliminated.
  33              	.LVL0:
  34 0000 F0B4     		push	{r4, r5, r6, r7}
  35              		.cfi_def_cfa_offset 16
  36              		.cfi_offset 4, -16
  37              		.cfi_offset 5, -12
  38              		.cfi_offset 6, -8
  39              		.cfi_offset 7, -4
  40 0002 86B0     		sub	sp, sp, #24
  41              		.cfi_def_cfa_offset 40
  42              		.loc 1 2321 0
  43 0004 8268     		ldr	r2, [r0, #8]
  44 0006 0092     		str	r2, [sp]
  45              		.loc 1 2322 0
  46 0008 4268     		ldr	r2, [r0, #4]
  47 000a 0192     		str	r2, [sp, #4]
  48              		.loc 1 2323 0
  49 000c C268     		ldr	r2, [r0, #12]
  50 000e 0292     		str	r2, [sp, #8]
  51              		.loc 1 2324 0
  52 0010 0269     		ldr	r2, [r0, #16]
  53 0012 0392     		str	r2, [sp, #12]
  54              		.loc 1 2325 0
  55 0014 4269     		ldr	r2, [r0, #20]
  56 0016 0492     		str	r2, [sp, #16]
  57              		.loc 1 2328 0
ARM GAS  /tmp/ccTWrjJD.s 			page 2


  58 0018 8269     		ldr	r2, [r0, #24]
  59              		.loc 1 2331 0
  60 001a 6C4B     		ldr	r3, .L46
  61              		.loc 1 2328 0
  62 001c 0592     		str	r2, [sp, #20]
  63              		.loc 1 2331 0
  64 001e DDED017A 		vldr.32	s15, [sp, #4]	@ int
  65 0022 1B68     		ldr	r3, [r3]
  66 0024 F8EE677A 		vcvt.f32.u32	s15, s15
  67 0028 93ED157A 		vldr.32	s14, [r3, #84]
  68 002c 009A     		ldr	r2, [sp]
  69 002e 67EE877A 		vmul.f32	s15, s15, s14
  70 0032 FCEEE77A 		vcvt.u32.f32	s15, s15
  71 0036 17EE901A 		vmov	r1, s15	@ int
  72 003a 9142     		cmp	r1, r2
  73 003c 0BD2     		bcs	.L2
  74              		.loc 1 2332 0
  75 003e DDED017A 		vldr.32	s15, [sp, #4]	@ int
  76 0042 93ED157A 		vldr.32	s14, [r3, #84]
  77 0046 F8EE677A 		vcvt.f32.u32	s15, s15
  78 004a 67EE877A 		vmul.f32	s15, s15, s14
  79 004e FCEEE77A 		vcvt.u32.f32	s15, s15
  80 0052 CDED007A 		vstr.32	s15, [sp]	@ int
  81              	.L2:
  82              		.loc 1 2335 0
  83 0056 5E4A     		ldr	r2, .L46+4
  84 0058 0021     		movs	r1, #0
  85 005a 1160     		str	r1, [r2]
  86              		.loc 1 2337 0
  87 005c 93F88610 		ldrb	r1, [r3, #134]	@ zero_extendqisi2
  88 0060 0129     		cmp	r1, #1
  89 0062 51D0     		beq	.L43
  90              		.loc 1 2358 0
  91 0064 5B49     		ldr	r1, .L46+8
  92 0066 0978     		ldrb	r1, [r1]	@ zero_extendqisi2
  93 0068 0129     		cmp	r1, #1
  94 006a 2AD0     		beq	.L44
  95              		.loc 1 2369 0
  96 006c 93F88430 		ldrb	r3, [r3, #132]	@ zero_extendqisi2
  97 0070 022B     		cmp	r3, #2
  98 0072 63D0     		beq	.L45
  99              		.loc 1 2454 0
 100 0074 009B     		ldr	r3, [sp]
 101 0076 5B08     		lsrs	r3, r3, #1
 102 0078 0293     		str	r3, [sp, #8]
 103              		.loc 1 2457 0
 104 007a 0199     		ldr	r1, [sp, #4]
 105 007c 009C     		ldr	r4, [sp]
 106 007e 009B     		ldr	r3, [sp]
 107 0080 091B     		subs	r1, r1, r4
 108 0082 03EB5103 		add	r3, r3, r1, lsr #1
 109 0086 0393     		str	r3, [sp, #12]
 110              		.loc 1 2458 0
 111 0088 019B     		ldr	r3, [sp, #4]
 112 008a 0399     		ldr	r1, [sp, #12]
 113 008c 463B     		subs	r3, r3, #70
 114 008e 8B42     		cmp	r3, r1
ARM GAS  /tmp/ccTWrjJD.s 			page 3


 115 0090 02D2     		bcs	.L22
 116              		.loc 1 2459 0
 117 0092 019B     		ldr	r3, [sp, #4]
 118 0094 463B     		subs	r3, r3, #70
 119 0096 0393     		str	r3, [sp, #12]
 120              	.L22:
 121              		.loc 1 2462 0
 122 0098 039B     		ldr	r3, [sp, #12]
 123 009a 0493     		str	r3, [sp, #16]
 124              		.loc 1 2464 0
 125 009c 039B     		ldr	r3, [sp, #12]
 126 009e 0593     		str	r3, [sp, #20]
 127              		.loc 1 2469 0
 128 00a0 0199     		ldr	r1, [sp, #4]
 129 00a2 009B     		ldr	r3, [sp]
 130 00a4 B3EB510F 		cmp	r3, r1, lsr #1
 131 00a8 23D9     		bls	.L5
 132              		.loc 1 2492 0
 133 00aa 4B4B     		ldr	r3, .L46+12
 134 00ac 1B68     		ldr	r3, [r3]
 135              		.loc 1 2503 0
 136 00ae 4B4B     		ldr	r3, .L46+16
 137 00b0 1B68     		ldr	r3, [r3]
 138 00b2 013B     		subs	r3, r3, #1
 139 00b4 052B     		cmp	r3, #5
 140 00b6 1CD8     		bhi	.L5
 141 00b8 DFE803F0 		tbb	[pc, r3]
 142              	.L32:
 143 00bc 3D       		.byte	(.L37-.L32)/2
 144 00bd 3D       		.byte	(.L37-.L32)/2
 145 00be 3D       		.byte	(.L37-.L32)/2
 146 00bf 3D       		.byte	(.L37-.L32)/2
 147 00c0 3D       		.byte	(.L37-.L32)/2
 148 00c1 3D       		.byte	(.L37-.L32)/2
 149              		.p2align 1
 150              	.L44:
 151              		.loc 1 2360 0
 152 00c2 009B     		ldr	r3, [sp]
 153 00c4 5B08     		lsrs	r3, r3, #1
 154 00c6 0293     		str	r3, [sp, #8]
 155              		.loc 1 2363 0
 156 00c8 019A     		ldr	r2, [sp, #4]
 157 00ca 0099     		ldr	r1, [sp]
 158 00cc 009B     		ldr	r3, [sp]
 159 00ce 521A     		subs	r2, r2, r1
 160 00d0 03EB5203 		add	r3, r3, r2, lsr #1
 161 00d4 0393     		str	r3, [sp, #12]
 162              		.loc 1 2364 0
 163 00d6 019A     		ldr	r2, [sp, #4]
 164 00d8 0099     		ldr	r1, [sp]
 165 00da 009B     		ldr	r3, [sp]
 166 00dc 521A     		subs	r2, r2, r1
 167 00de 03EB5203 		add	r3, r3, r2, lsr #1
 168 00e2 0493     		str	r3, [sp, #16]
 169              		.loc 1 2366 0
 170 00e4 019A     		ldr	r2, [sp, #4]
 171 00e6 0099     		ldr	r1, [sp]
ARM GAS  /tmp/ccTWrjJD.s 			page 4


 172 00e8 009B     		ldr	r3, [sp]
 173 00ea 521A     		subs	r2, r2, r1
 174 00ec 03EB5203 		add	r3, r3, r2, lsr #1
 175 00f0 0593     		str	r3, [sp, #20]
 176              	.L5:
 177              		.loc 1 2541 0
 178 00f2 029B     		ldr	r3, [sp, #8]
 179 00f4 C360     		str	r3, [r0, #12]
 180              		.loc 1 2542 0
 181 00f6 039B     		ldr	r3, [sp, #12]
 182 00f8 0361     		str	r3, [r0, #16]
 183              		.loc 1 2543 0
 184 00fa 049B     		ldr	r3, [sp, #16]
 185 00fc 4361     		str	r3, [r0, #20]
 186              		.loc 1 2545 0
 187 00fe 059B     		ldr	r3, [sp, #20]
 188 0100 8361     		str	r3, [r0, #24]
 189              		.loc 1 2547 0
 190 0102 06B0     		add	sp, sp, #24
 191              		.cfi_remember_state
 192              		.cfi_def_cfa_offset 16
 193              		@ sp needed
 194 0104 F0BC     		pop	{r4, r5, r6, r7}
 195              		.cfi_restore 7
 196              		.cfi_restore 6
 197              		.cfi_restore 5
 198              		.cfi_restore 4
 199              		.cfi_def_cfa_offset 0
 200 0106 7047     		bx	lr
 201              	.L43:
 202              		.cfi_restore_state
 203              		.loc 1 2338 0
 204 0108 019B     		ldr	r3, [sp, #4]
 205 010a 0A3B     		subs	r3, r3, #10
 206 010c 0393     		str	r3, [sp, #12]
 207              		.loc 1 2339 0
 208 010e 019B     		ldr	r3, [sp, #4]
 209 0110 0A3B     		subs	r3, r3, #10
 210 0112 0493     		str	r3, [sp, #16]
 211              		.loc 1 2341 0
 212 0114 019B     		ldr	r3, [sp, #4]
 213 0116 0A3B     		subs	r3, r3, #10
 214 0118 0593     		str	r3, [sp, #20]
 215              		.loc 1 2344 0
 216 011a 009B     		ldr	r3, [sp]
 217 011c B3F57A7F 		cmp	r3, #1000
 218              		.loc 1 2345 0
 219 0120 009B     		ldr	r3, [sp]
 220              		.loc 1 2344 0
 221 0122 02D9     		bls	.L4
 222              		.loc 1 2345 0
 223 0124 5B08     		lsrs	r3, r3, #1
 224 0126 0293     		str	r3, [sp, #8]
 225 0128 E3E7     		b	.L5
 226              	.L4:
 227              		.loc 1 2348 0
 228 012a 0721     		movs	r1, #7
ARM GAS  /tmp/ccTWrjJD.s 			page 5


 229              		.loc 1 2347 0
 230 012c 03F54873 		add	r3, r3, #800
 231 0130 0293     		str	r3, [sp, #8]
 232              		.loc 1 2348 0
 233 0132 1160     		str	r1, [r2]
 234 0134 DDE7     		b	.L5
 235              	.L37:
 236              		.loc 1 2509 0
 237 0136 0123     		movs	r3, #1
 238 0138 1360     		str	r3, [r2]
 239 013a DAE7     		b	.L5
 240              	.L45:
 241              	.LBB76:
 242              		.loc 1 2370 0
 243 013c 019D     		ldr	r5, [sp, #4]
 244              		.loc 1 2371 0
 245 013e 0199     		ldr	r1, [sp, #4]
 246 0140 009F     		ldr	r7, [sp]
 247 0142 009E     		ldr	r6, [sp]
 248              		.loc 1 2372 0
 249 0144 019C     		ldr	r4, [sp, #4]
 250              		.loc 1 2375 0
 251 0146 019B     		ldr	r3, [sp, #4]
 252 0148 9B08     		lsrs	r3, r3, #2
 253 014a 0293     		str	r3, [sp, #8]
 254              		.loc 1 2372 0
 255 014c 023C     		subs	r4, r4, #2
 256              		.loc 1 2383 0
 257 014e 234B     		ldr	r3, .L46+16
 258              		.loc 1 2380 0
 259 0150 0594     		str	r4, [sp, #20]
 260              		.loc 1 2383 0
 261 0152 1B68     		ldr	r3, [r3]
 262              		.loc 1 2371 0
 263 0154 C91B     		subs	r1, r1, r7
 264              		.loc 1 2383 0
 265 0156 013B     		subs	r3, r3, #1
 266              		.loc 1 2370 0
 267 0158 023D     		subs	r5, r5, #2
 268              	.LVL1:
 269              		.loc 1 2371 0
 270 015a 06EB5101 		add	r1, r6, r1, lsr #1
 271              	.LVL2:
 272              		.loc 1 2383 0
 273 015e 052B     		cmp	r3, #5
 274 0160 C7D8     		bhi	.L5
 275 0162 DFE803F0 		tbb	[pc, r3]
 276              	.L10:
 277 0166 29       		.byte	(.L9-.L10)/2
 278 0167 20       		.byte	(.L11-.L10)/2
 279 0168 1A       		.byte	(.L12-.L10)/2
 280 0169 14       		.byte	(.L13-.L10)/2
 281 016a 0B       		.byte	(.L14-.L10)/2
 282 016b 03       		.byte	(.L15-.L10)/2
 283              		.p2align 1
 284              	.L15:
 285              		.loc 1 2441 0
ARM GAS  /tmp/ccTWrjJD.s 			page 6


 286 016c 1A4B     		ldr	r3, .L46+12
 287 016e 1B68     		ldr	r3, [r3]
 288 0170 43B1     		cbz	r3, .L21
 289              	.L41:
 290              		.loc 1 2444 0
 291 0172 0123     		movs	r3, #1
 292              		.loc 1 2442 0
 293 0174 0395     		str	r5, [sp, #12]
 294              		.loc 1 2443 0
 295 0176 0494     		str	r4, [sp, #16]
 296              		.loc 1 2444 0
 297 0178 1360     		str	r3, [r2]
 298 017a BAE7     		b	.L5
 299              	.L14:
 300              		.loc 1 2429 0
 301 017c 164B     		ldr	r3, .L46+12
 302 017e 1B68     		ldr	r3, [r3]
 303 0180 002B     		cmp	r3, #0
 304 0182 F6D0     		beq	.L41
 305              	.L21:
 306              		.loc 1 2448 0
 307 0184 0123     		movs	r3, #1
 308              		.loc 1 2446 0
 309 0186 0395     		str	r5, [sp, #12]
 310              		.loc 1 2447 0
 311 0188 0491     		str	r1, [sp, #16]
 312              		.loc 1 2448 0
 313 018a 1360     		str	r3, [r2]
 314 018c B1E7     		b	.L5
 315              	.L13:
 316              		.loc 1 2418 0
 317 018e 124B     		ldr	r3, .L46+12
 318 0190 1B68     		ldr	r3, [r3]
 319 0192 ABB1     		cbz	r3, .L19
 320              	.L39:
 321              		.loc 1 2419 0
 322 0194 0394     		str	r4, [sp, #12]
 323              		.loc 1 2420 0
 324 0196 0491     		str	r1, [sp, #16]
 325 0198 ABE7     		b	.L5
 326              	.L12:
 327              		.loc 1 2407 0
 328 019a 0F4B     		ldr	r3, .L46+12
 329 019c 1B68     		ldr	r3, [r3]
 330 019e 33B1     		cbz	r3, .L18
 331              	.L40:
 332              		.loc 1 2408 0
 333 01a0 0391     		str	r1, [sp, #12]
 334              		.loc 1 2409 0
 335 01a2 0494     		str	r4, [sp, #16]
 336 01a4 A5E7     		b	.L5
 337              	.L11:
 338              		.loc 1 2396 0
 339 01a6 0C4B     		ldr	r3, .L46+12
 340 01a8 1B68     		ldr	r3, [r3]
 341 01aa 002B     		cmp	r3, #0
 342 01ac F8D0     		beq	.L40
ARM GAS  /tmp/ccTWrjJD.s 			page 7


 343              	.L18:
 344              		.loc 1 2413 0
 345 01ae 0223     		movs	r3, #2
 346              		.loc 1 2411 0
 347 01b0 0391     		str	r1, [sp, #12]
 348              		.loc 1 2412 0
 349 01b2 0495     		str	r5, [sp, #16]
 350              		.loc 1 2413 0
 351 01b4 1360     		str	r3, [r2]
 352 01b6 9CE7     		b	.L5
 353              	.L9:
 354              		.loc 1 2385 0
 355 01b8 074B     		ldr	r3, .L46+12
 356 01ba 1B68     		ldr	r3, [r3]
 357 01bc 002B     		cmp	r3, #0
 358 01be E9D0     		beq	.L39
 359              	.L19:
 360              		.loc 1 2424 0
 361 01c0 0223     		movs	r3, #2
 362              		.loc 1 2422 0
 363 01c2 0394     		str	r4, [sp, #12]
 364              		.loc 1 2423 0
 365 01c4 0495     		str	r5, [sp, #16]
 366              		.loc 1 2424 0
 367 01c6 1360     		str	r3, [r2]
 368 01c8 93E7     		b	.L5
 369              	.L47:
 370 01ca 00BF     		.align	2
 371              	.L46:
 372 01cc 00000000 		.word	.LANCHOR0
 373 01d0 00000000 		.word	.LANCHOR1
 374 01d4 00000000 		.word	.LANCHOR2
 375 01d8 00000000 		.word	.LANCHOR4
 376 01dc 00000000 		.word	.LANCHOR3
 377              	.LBE76:
 378              		.cfi_endproc
 379              	.LFE318:
 380              		.size	update_adc_sample_pos, .-update_adc_sample_pos
 381              		.section	.text.update_timer_attempt,"ax",%progbits
 382              		.align	1
 383              		.p2align 4,,15
 384              		.syntax unified
 385              		.thumb
 386              		.thumb_func
 387              		.fpu fpv4-sp-d16
 388              		.type	update_timer_attempt, %function
 389              	update_timer_attempt:
 390              	.LFB323:
 391              		.loc 1 2641 0
 392              		.cfi_startproc
 393              		@ args = 0, pretend = 0, frame = 0
 394              		@ frame_needed = 0, uses_anonymous_args = 0
 395 0000 08B5     		push	{r3, lr}
 396              		.cfi_def_cfa_offset 8
 397              		.cfi_offset 3, -8
 398              		.cfi_offset 14, -4
 399              		.loc 1 2642 0
ARM GAS  /tmp/ccTWrjJD.s 			page 8


 400 0002 FFF7FEFF 		bl	utils_sys_lock_cnt
 401              	.LVL3:
 402              		.loc 1 2645 0
 403 0006 1A4B     		ldr	r3, .L51
 404 0008 1A78     		ldrb	r2, [r3]	@ zero_extendqisi2
 405 000a 002A     		cmp	r2, #0
 406 000c 2CD1     		bne	.L49
 407              		.loc 1 2645 0 is_stmt 0 discriminator 1
 408 000e 194A     		ldr	r2, .L51+4
 409 0010 516A     		ldr	r1, [r2, #36]
 410 0012 0A29     		cmp	r1, #10
 411 0014 28D9     		bls	.L49
 412              		.loc 1 2645 0 discriminator 2
 413 0016 506A     		ldr	r0, [r2, #36]
 414 0018 D16A     		ldr	r1, [r2, #44]
 415 001a A1F5FA71 		sub	r1, r1, #500
 416 001e 8842     		cmp	r0, r1
 417 0020 22D2     		bcs	.L49
 418              		.loc 1 2647 0 is_stmt 1
 419 0022 1068     		ldr	r0, [r2]
 420              		.loc 1 2648 0
 421 0024 1449     		ldr	r1, .L51+8
 422              		.loc 1 2647 0
 423 0026 40F00200 		orr	r0, r0, #2
 424 002a 1060     		str	r0, [r2]
 425              		.loc 1 2648 0
 426 002c 0868     		ldr	r0, [r1]
 427 002e 40F00200 		orr	r0, r0, #2
 428 0032 0860     		str	r0, [r1]
 429              		.loc 1 2651 0
 430 0034 5868     		ldr	r0, [r3, #4]
 431 0036 D062     		str	r0, [r2, #44]
 432              		.loc 1 2652 0
 433 0038 9868     		ldr	r0, [r3, #8]
 434 003a 5063     		str	r0, [r2, #52]
 435              		.loc 1 2653 0
 436 003c 9868     		ldr	r0, [r3, #8]
 437 003e 9063     		str	r0, [r2, #56]
 438              		.loc 1 2654 0
 439 0040 9868     		ldr	r0, [r3, #8]
 440 0042 D063     		str	r0, [r2, #60]
 441              		.loc 1 2655 0
 442 0044 D868     		ldr	r0, [r3, #12]
 443 0046 4863     		str	r0, [r1, #52]
 444              		.loc 1 2656 0
 445 0048 1869     		ldr	r0, [r3, #16]
 446 004a 1064     		str	r0, [r2, #64]
 447              		.loc 1 2657 0
 448 004c 5869     		ldr	r0, [r3, #20]
 449 004e 8863     		str	r0, [r1, #56]
 450              		.loc 1 2659 0
 451 0050 9869     		ldr	r0, [r3, #24]
 452 0052 C863     		str	r0, [r1, #60]
 453              		.loc 1 2663 0
 454 0054 1068     		ldr	r0, [r2]
 455 0056 20F00200 		bic	r0, r0, #2
 456 005a 1060     		str	r0, [r2]
ARM GAS  /tmp/ccTWrjJD.s 			page 9


 457              		.loc 1 2664 0
 458 005c 0A68     		ldr	r2, [r1]
 459              		.loc 1 2665 0
 460 005e 0120     		movs	r0, #1
 461              		.loc 1 2664 0
 462 0060 22F00202 		bic	r2, r2, #2
 463 0064 0A60     		str	r2, [r1]
 464              		.loc 1 2665 0
 465 0066 1870     		strb	r0, [r3]
 466              	.L49:
 467              		.loc 1 2669 0
 468 0068 BDE80840 		pop	{r3, lr}
 469              		.cfi_restore 14
 470              		.cfi_restore 3
 471              		.cfi_def_cfa_offset 0
 472              		.loc 1 2668 0
 473 006c FFF7FEBF 		b	utils_sys_unlock_cnt
 474              	.LVL4:
 475              	.L52:
 476              		.align	2
 477              	.L51:
 478 0070 00000000 		.word	.LANCHOR5
 479 0074 00000140 		.word	1073807360
 480 0078 00040140 		.word	1073808384
 481              		.cfi_endproc
 482              	.LFE323:
 483              		.size	update_timer_attempt, .-update_timer_attempt
 484              		.section	.text.set_next_timer_settings,"ax",%progbits
 485              		.align	1
 486              		.p2align 4,,15
 487              		.syntax unified
 488              		.thumb
 489              		.thumb_func
 490              		.fpu fpv4-sp-d16
 491              		.type	set_next_timer_settings, %function
 492              	set_next_timer_settings:
 493              	.LFB322:
 494              		.loc 1 2628 0
 495              		.cfi_startproc
 496              		@ args = 0, pretend = 0, frame = 0
 497              		@ frame_needed = 0, uses_anonymous_args = 0
 498              	.LVL5:
 499 0000 70B5     		push	{r4, r5, r6, lr}
 500              		.cfi_def_cfa_offset 16
 501              		.cfi_offset 4, -16
 502              		.cfi_offset 5, -12
 503              		.cfi_offset 6, -8
 504              		.cfi_offset 14, -4
 505              		.loc 1 2628 0
 506 0002 0446     		mov	r4, r0
 507              		.loc 1 2629 0
 508 0004 FFF7FEFF 		bl	utils_sys_lock_cnt
 509              	.LVL6:
 510              		.loc 1 2630 0
 511 0008 0FCC     		ldmia	r4!, {r0, r1, r2, r3}
 512              	.LVL7:
 513 000a 074E     		ldr	r6, .L55
ARM GAS  /tmp/ccTWrjJD.s 			page 10


 514 000c 3546     		mov	r5, r6
 515 000e 0FC5     		stmia	r5!, {r0, r1, r2, r3}
 516 0010 94E80700 		ldm	r4, {r0, r1, r2}
 517              		.loc 1 2631 0
 518 0014 0023     		movs	r3, #0
 519              		.loc 1 2630 0
 520 0016 85E80700 		stm	r5, {r0, r1, r2}
 521              		.loc 1 2631 0
 522 001a 3370     		strb	r3, [r6]
 523              		.loc 1 2632 0
 524 001c FFF7FEFF 		bl	utils_sys_unlock_cnt
 525              	.LVL8:
 526              		.loc 1 2635 0
 527 0020 BDE87040 		pop	{r4, r5, r6, lr}
 528              		.cfi_restore 14
 529              		.cfi_restore 6
 530              		.cfi_restore 5
 531              		.cfi_restore 4
 532              		.cfi_def_cfa_offset 0
 533              	.LVL9:
 534              		.loc 1 2634 0
 535 0024 FFF7FEBF 		b	update_timer_attempt
 536              	.LVL10:
 537              	.L56:
 538              		.align	2
 539              	.L55:
 540 0028 00000000 		.word	.LANCHOR5
 541              		.cfi_endproc
 542              	.LFE322:
 543              		.size	set_next_timer_settings, .-set_next_timer_settings
 544              		.section	.text.set_switching_frequency,"ax",%progbits
 545              		.align	1
 546              		.p2align 4,,15
 547              		.syntax unified
 548              		.thumb
 549              		.thumb_func
 550              		.fpu fpv4-sp-d16
 551              		.type	set_switching_frequency, %function
 552              	set_switching_frequency:
 553              	.LFB324:
 554              		.loc 1 2671 0
 555              		.cfi_startproc
 556              		@ args = 0, pretend = 0, frame = 32
 557              		@ frame_needed = 0, uses_anonymous_args = 0
 558              	.LVL11:
 559 0000 70B5     		push	{r4, r5, r6, lr}
 560              		.cfi_def_cfa_offset 16
 561              		.cfi_offset 4, -16
 562              		.cfi_offset 5, -12
 563              		.cfi_offset 6, -8
 564              		.cfi_offset 14, -4
 565              		.loc 1 2672 0
 566 0002 114E     		ldr	r6, .L59
 567              		.loc 1 2676 0
 568 0004 114D     		ldr	r5, .L59+4
 569              		.loc 1 2672 0
 570 0006 86ED000A 		vstr.32	s0, [r6]
ARM GAS  /tmp/ccTWrjJD.s 			page 11


 571              		.loc 1 2671 0
 572 000a 88B0     		sub	sp, sp, #32
 573              		.cfi_def_cfa_offset 48
 574              		.loc 1 2675 0
 575 000c FFF7FEFF 		bl	utils_sys_lock_cnt
 576              	.LVL12:
 577              		.loc 1 2676 0
 578 0010 0FCD     		ldmia	r5!, {r0, r1, r2, r3}
 579 0012 01AC     		add	r4, sp, #4
 580 0014 0FC4     		stmia	r4!, {r0, r1, r2, r3}
 581 0016 95E80700 		ldm	r5, {r0, r1, r2}
 582 001a 84E80700 		stm	r4, {r0, r1, r2}
 583              		.loc 1 2677 0
 584 001e FFF7FEFF 		bl	utils_sys_unlock_cnt
 585              	.LVL13:
 586              		.loc 1 2679 0
 587 0022 D6ED007A 		vldr.32	s15, [r6]
 588 0026 0A4A     		ldr	r2, .L59+8
 589 0028 FDEEE77A 		vcvt.s32.f32	s15, s15
 590              		.loc 1 2680 0
 591 002c 01A8     		add	r0, sp, #4
 592              		.loc 1 2679 0
 593 002e 17EE903A 		vmov	r3, s15	@ int
 594 0032 92FBF3F3 		sdiv	r3, r2, r3
 595 0036 0293     		str	r3, [sp, #8]
 596              		.loc 1 2680 0
 597 0038 FFF7FEFF 		bl	update_adc_sample_pos
 598              	.LVL14:
 599              		.loc 1 2681 0
 600 003c 01A8     		add	r0, sp, #4
 601 003e FFF7FEFF 		bl	set_next_timer_settings
 602              	.LVL15:
 603              		.loc 1 2682 0
 604 0042 08B0     		add	sp, sp, #32
 605              		.cfi_def_cfa_offset 16
 606              		@ sp needed
 607 0044 70BD     		pop	{r4, r5, r6, pc}
 608              	.L60:
 609 0046 00BF     		.align	2
 610              	.L59:
 611 0048 00000000 		.word	.LANCHOR6
 612 004c 00000000 		.word	.LANCHOR5
 613 0050 007A030A 		.word	168000000
 614              		.cfi_endproc
 615              	.LFE324:
 616              		.size	set_switching_frequency, .-set_switching_frequency
 617              		.section	.text.set_duty_cycle_hw,"ax",%progbits
 618              		.align	1
 619              		.p2align 4,,15
 620              		.syntax unified
 621              		.thumb
 622              		.thumb_func
 623              		.fpu fpv4-sp-d16
 624              		.type	set_duty_cycle_hw, %function
 625              	set_duty_cycle_hw:
 626              	.LFB297:
 627              		.loc 1 1113 0
ARM GAS  /tmp/ccTWrjJD.s 			page 12


 628              		.cfi_startproc
 629              		@ args = 0, pretend = 0, frame = 40
 630              		@ frame_needed = 0, uses_anonymous_args = 0
 631              	.LVL16:
 632 0000 70B5     		push	{r4, r5, r6, lr}
 633              		.cfi_def_cfa_offset 16
 634              		.cfi_offset 4, -16
 635              		.cfi_offset 5, -12
 636              		.cfi_offset 6, -8
 637              		.cfi_offset 14, -4
 638              		.loc 1 1117 0
 639 0002 424D     		ldr	r5, .L77
 640              		.loc 1 1120 0
 641 0004 424E     		ldr	r6, .L77+4
 642              		.loc 1 1113 0
 643 0006 8AB0     		sub	sp, sp, #40
 644              		.cfi_def_cfa_offset 56
 645              		.loc 1 1113 0
 646 0008 8DED010A 		vstr.32	s0, [sp, #4]
 647              		.loc 1 1116 0
 648 000c FFF7FEFF 		bl	utils_sys_lock_cnt
 649              	.LVL17:
 650              		.loc 1 1117 0
 651 0010 0FCD     		ldmia	r5!, {r0, r1, r2, r3}
 652 0012 03AC     		add	r4, sp, #12
 653 0014 0FC4     		stmia	r4!, {r0, r1, r2, r3}
 654 0016 95E80700 		ldm	r5, {r0, r1, r2}
 655 001a 84E80700 		stm	r4, {r0, r1, r2}
 656              		.loc 1 1118 0
 657 001e FFF7FEFF 		bl	utils_sys_unlock_cnt
 658              	.LVL18:
 659              		.loc 1 1120 0
 660 0022 3368     		ldr	r3, [r6]
 661 0024 01A8     		add	r0, sp, #4
 662 0026 93ED140A 		vldr.32	s0, [r3, #80]
 663 002a D3ED150A 		vldr.32	s1, [r3, #84]
 664 002e FFF7FEFF 		bl	utils_truncate_number
 665              	.LVL19:
 666              		.loc 1 1122 0
 667 0032 3368     		ldr	r3, [r6]
 668 0034 93F88620 		ldrb	r2, [r3, #134]	@ zero_extendqisi2
 669 0038 012A     		cmp	r2, #1
 670 003a 44D0     		beq	.L75
 671              		.loc 1 1125 0
 672 003c 354A     		ldr	r2, .L77+8
 673 003e DDED016A 		vldr.32	s13, [sp, #4]
 674 0042 1278     		ldrb	r2, [r2]	@ zero_extendqisi2
 675 0044 012A     		cmp	r2, #1
 676 0046 39D0     		beq	.L64
 677              		.loc 1 1125 0 is_stmt 0 discriminator 1
 678 0048 93F88420 		ldrb	r2, [r3, #132]	@ zero_extendqisi2
 679 004c 022A     		cmp	r2, #2
 680 004e 35D0     		beq	.L64
 681              		.loc 1 1128 0 is_stmt 1
 682 0050 D3ED8C5A 		vldr.32	s11, [r3, #560]
 683              		.loc 1 1129 0
 684 0054 D3ED8D7A 		vldr.32	s15, [r3, #564]
ARM GAS  /tmp/ccTWrjJD.s 			page 13


 685              		.loc 1 1128 0
 686 0058 2F4A     		ldr	r2, .L77+12
 687 005a B0EEE66A 		vabs.f32	s12, s13
 688 005e B7EE007A 		vmov.f32	s14, #1.0e+0
 689              		.loc 1 1129 0
 690 0062 66EE277A 		vmul.f32	s15, s12, s15
 691              		.loc 1 1128 0
 692 0066 37EE467A 		vsub.f32	s14, s14, s12
 693 006a E5EE877A 		vfma.f32	s15, s11, s14
 694 006e C2ED007A 		vstr.32	s15, [r2]
 695              	.L63:
 696              		.loc 1 1133 0
 697 0072 92ED007A 		vldr.32	s14, [r2]
 698 0076 2949     		ldr	r1, .L77+16
 699 0078 FDEEC77A 		vcvt.s32.f32	s15, s14
 700 007c 17EE902A 		vmov	r2, s15	@ int
 701 0080 91FBF2F2 		sdiv	r2, r1, r2
 702 0084 0492     		str	r2, [sp, #16]
 703              		.loc 1 1135 0
 704 0086 93F88620 		ldrb	r2, [r3, #134]	@ zero_extendqisi2
 705 008a 1AB9     		cbnz	r2, .L66
 706              		.loc 1 1135 0 is_stmt 0 discriminator 1
 707 008c 93F88430 		ldrb	r3, [r3, #132]	@ zero_extendqisi2
 708 0090 022B     		cmp	r3, #2
 709 0092 1FD0     		beq	.L76
 710              	.L66:
 711              		.loc 1 1139 0 is_stmt 1
 712 0094 DDED047A 		vldr.32	s15, [sp, #16]	@ int
 713 0098 F8EE677A 		vcvt.f32.u32	s15, s15
 714 009c 67EEA67A 		vmul.f32	s15, s15, s13
 715 00a0 FCEEE77A 		vcvt.u32.f32	s15, s15
 716 00a4 17EE903A 		vmov	r3, s15	@ int
 717 00a8 9BB2     		uxth	r3, r3
 718 00aa 0593     		str	r3, [sp, #20]
 719              	.L67:
 720              		.loc 1 1142 0
 721 00ac 03A8     		add	r0, sp, #12
 722 00ae FFF7FEFF 		bl	update_adc_sample_pos
 723              	.LVL20:
 724              		.loc 1 1143 0
 725 00b2 03A8     		add	r0, sp, #12
 726 00b4 FFF7FEFF 		bl	set_next_timer_settings
 727              	.LVL21:
 728              		.loc 1 1144 0
 729 00b8 0AB0     		add	sp, sp, #40
 730              		.cfi_remember_state
 731              		.cfi_def_cfa_offset 16
 732              		@ sp needed
 733 00ba 70BD     		pop	{r4, r5, r6, pc}
 734              	.L64:
 735              		.cfi_restore_state
 736              		.loc 1 1126 0
 737 00bc 164A     		ldr	r2, .L77+12
 738 00be D3F83412 		ldr	r1, [r3, #564]	@ float
 739 00c2 1160     		str	r1, [r2]	@ float
 740 00c4 D5E7     		b	.L63
 741              	.L75:
ARM GAS  /tmp/ccTWrjJD.s 			page 14


 742              		.loc 1 1123 0
 743 00c6 144A     		ldr	r2, .L77+12
 744 00c8 D3F83812 		ldr	r1, [r3, #568]	@ float
 745 00cc DDED016A 		vldr.32	s13, [sp, #4]
 746 00d0 1160     		str	r1, [r2]	@ float
 747 00d2 CEE7     		b	.L63
 748              	.L76:
 749              		.loc 1 1135 0 discriminator 2
 750 00d4 0F4B     		ldr	r3, .L77+8
 751 00d6 1B78     		ldrb	r3, [r3]	@ zero_extendqisi2
 752 00d8 012B     		cmp	r3, #1
 753 00da DBD0     		beq	.L66
 754              		.loc 1 1136 0
 755 00dc 9DED047A 		vldr.32	s14, [sp, #16]	@ int
 756              		.loc 1 1137 0
 757 00e0 DDED047A 		vldr.32	s15, [sp, #16]	@ int
 758              		.loc 1 1136 0
 759 00e4 B8EE477A 		vcvt.f32.u32	s14, s14
 760              		.loc 1 1137 0
 761 00e8 F8EE677A 		vcvt.f32.u32	s15, s15
 762              		.loc 1 1136 0
 763 00ec B6EE006A 		vmov.f32	s12, #5.0e-1
 764 00f0 27EE067A 		vmul.f32	s14, s14, s12
 765              		.loc 1 1137 0
 766 00f4 67EE867A 		vmul.f32	s15, s15, s12
 767 00f8 E7EE267A 		vfma.f32	s15, s14, s13
 768              		.loc 1 1136 0
 769 00fc FCEEE77A 		vcvt.u32.f32	s15, s15
 770 0100 17EE903A 		vmov	r3, s15	@ int
 771 0104 9BB2     		uxth	r3, r3
 772 0106 0593     		str	r3, [sp, #20]
 773 0108 D0E7     		b	.L67
 774              	.L78:
 775 010a 00BF     		.align	2
 776              	.L77:
 777 010c 00000000 		.word	.LANCHOR5
 778 0110 00000000 		.word	.LANCHOR0
 779 0114 00000000 		.word	.LANCHOR2
 780 0118 00000000 		.word	.LANCHOR6
 781 011c 007A030A 		.word	168000000
 782              		.cfi_endproc
 783              	.LFE297:
 784              		.size	set_duty_cycle_hw, .-set_duty_cycle_hw
 785              		.section	.text.set_next_comm_step,"ax",%progbits
 786              		.align	1
 787              		.p2align 4,,15
 788              		.syntax unified
 789              		.thumb
 790              		.thumb_func
 791              		.fpu fpv4-sp-d16
 792              		.type	set_next_comm_step, %function
 793              	set_next_comm_step:
 794              	.LFB325:
 795              		.loc 1 2684 0
 796              		.cfi_startproc
 797              		@ args = 0, pretend = 0, frame = 0
 798              		@ frame_needed = 0, uses_anonymous_args = 0
ARM GAS  /tmp/ccTWrjJD.s 			page 15


 799              	.LVL22:
 800 0000 F8B5     		push	{r3, r4, r5, r6, r7, lr}
 801              		.cfi_def_cfa_offset 24
 802              		.cfi_offset 3, -24
 803              		.cfi_offset 4, -20
 804              		.cfi_offset 5, -16
 805              		.cfi_offset 6, -12
 806              		.cfi_offset 7, -8
 807              		.cfi_offset 14, -4
 808              		.loc 1 2685 0
 809 0002 BE4B     		ldr	r3, .L116
 810 0004 1B68     		ldr	r3, [r3]
 811 0006 93F88640 		ldrb	r4, [r3, #134]	@ zero_extendqisi2
 812 000a E4B2     		uxtb	r4, r4
 813 000c 012C     		cmp	r4, #1
 814 000e 7AD0     		beq	.L109
 815              	.LVL23:
 816              		.loc 1 2725 0
 817 0010 BB4A     		ldr	r2, .L116+4
 818 0012 1278     		ldrb	r2, [r2]	@ zero_extendqisi2
 819 0014 012A     		cmp	r2, #1
 820 0016 0546     		mov	r5, r0
 821 0018 3DD0     		beq	.L97
 822              		.loc 1 2726 0
 823 001a 93F88430 		ldrb	r3, [r3, #132]	@ zero_extendqisi2
 824 001e 03F0FF04 		and	r4, r3, #255
 825 0022 002B     		cmp	r3, #0
 826 0024 38D0     		beq	.L100
 827              		.loc 1 2720 0
 828 0026 022C     		cmp	r4, #2
 829 0028 0CBF     		ite	eq
 830 002a 7026     		moveq	r6, #112
 831 002c 2026     		movne	r6, #32
 832              		.loc 1 2740 0
 833 002e 012D     		cmp	r5, #1
 834              		.loc 1 2720 0
 835 0030 4FF00404 		mov	r4, #4
 836              	.LVL24:
 837              		.loc 1 2740 0
 838 0034 34D0     		beq	.L110
 839              	.L85:
 840              		.loc 1 2782 0
 841 0036 022D     		cmp	r5, #2
 842 0038 00F0E180 		beq	.L111
 843              		.loc 1 2824 0
 844 003c 032D     		cmp	r5, #3
 845 003e 00F00781 		beq	.L112
 846              		.loc 1 2866 0
 847 0042 042D     		cmp	r5, #4
 848 0044 00F09280 		beq	.L113
 849              		.loc 1 2908 0
 850 0048 052D     		cmp	r5, #5
 851 004a 00F05F81 		beq	.L114
 852              		.loc 1 2950 0
 853 004e 062D     		cmp	r5, #6
 854 0050 40F0D581 		bne	.L95
 855              		.loc 1 2951 0
ARM GAS  /tmp/ccTWrjJD.s 			page 16


 856 0054 AB4B     		ldr	r3, .L116+8
 857 0056 1D68     		ldr	r5, [r3]
 858              		.loc 1 2958 0
 859 0058 2022     		movs	r2, #32
 860              		.loc 1 2951 0
 861 005a 002D     		cmp	r5, #0
 862 005c 00F0B481 		beq	.L96
 863              		.loc 1 2958 0
 864 0060 0821     		movs	r1, #8
 865 0062 A948     		ldr	r0, .L116+12
 866              	.LVL25:
 867 0064 FFF7FEFF 		bl	TIM_SelectOCxM
 868              	.LVL26:
 869              		.loc 1 2959 0
 870 0068 0122     		movs	r2, #1
 871 006a 0821     		movs	r1, #8
 872 006c A648     		ldr	r0, .L116+12
 873 006e FFF7FEFF 		bl	TIM_CCxCmd
 874              	.LVL27:
 875              		.loc 1 2960 0
 876 0072 0022     		movs	r2, #0
 877 0074 0821     		movs	r1, #8
 878 0076 A448     		ldr	r0, .L116+12
 879 0078 FFF7FEFF 		bl	TIM_CCxNCmd
 880              	.LVL28:
 881              		.loc 1 2963 0
 882 007c 6022     		movs	r2, #96
 883 007e 0421     		movs	r1, #4
 884 0080 A148     		ldr	r0, .L116+12
 885 0082 FFF7FEFF 		bl	TIM_SelectOCxM
 886              	.LVL29:
 887              		.loc 1 2964 0
 888 0086 0122     		movs	r2, #1
 889 0088 0421     		movs	r1, #4
 890 008a 9F48     		ldr	r0, .L116+12
 891 008c FFF7FEFF 		bl	TIM_CCxCmd
 892              	.LVL30:
 893              		.loc 1 2965 0
 894 0090 2246     		mov	r2, r4
 895 0092 0421     		movs	r1, #4
 896 0094 59E1     		b	.L105
 897              	.LVL31:
 898              	.L97:
 899              		.loc 1 2720 0
 900 0096 0424     		movs	r4, #4
 901              	.L100:
 902              		.loc 1 2740 0
 903 0098 012D     		cmp	r5, #1
 904              		.loc 1 2717 0
 905 009a 4FF02006 		mov	r6, #32
 906              	.LVL32:
 907              		.loc 1 2740 0
 908 009e CAD1     		bne	.L85
 909              	.L110:
 910              		.loc 1 2741 0
 911 00a0 984B     		ldr	r3, .L116+8
 912 00a2 1F68     		ldr	r7, [r3]
ARM GAS  /tmp/ccTWrjJD.s 			page 17


 913              		.loc 1 2748 0
 914 00a4 2022     		movs	r2, #32
 915              		.loc 1 2741 0
 916 00a6 002F     		cmp	r7, #0
 917 00a8 66D0     		beq	.L108
 918              		.loc 1 2748 0
 919 00aa 0021     		movs	r1, #0
 920 00ac 9648     		ldr	r0, .L116+12
 921              	.LVL33:
 922 00ae FFF7FEFF 		bl	TIM_SelectOCxM
 923              	.LVL34:
 924              		.loc 1 2749 0
 925 00b2 2A46     		mov	r2, r5
 926 00b4 0021     		movs	r1, #0
 927 00b6 9448     		ldr	r0, .L116+12
 928 00b8 FFF7FEFF 		bl	TIM_CCxCmd
 929              	.LVL35:
 930              		.loc 1 2750 0
 931 00bc 0022     		movs	r2, #0
 932 00be 1146     		mov	r1, r2
 933 00c0 9148     		ldr	r0, .L116+12
 934 00c2 FFF7FEFF 		bl	TIM_CCxNCmd
 935              	.LVL36:
 936              		.loc 1 2753 0
 937 00c6 6022     		movs	r2, #96
 938 00c8 0421     		movs	r1, #4
 939 00ca 8F48     		ldr	r0, .L116+12
 940 00cc FFF7FEFF 		bl	TIM_SelectOCxM
 941              	.LVL37:
 942              		.loc 1 2754 0
 943 00d0 2A46     		mov	r2, r5
 944 00d2 0421     		movs	r1, #4
 945 00d4 8C48     		ldr	r0, .L116+12
 946 00d6 FFF7FEFF 		bl	TIM_CCxCmd
 947              	.LVL38:
 948              		.loc 1 2755 0
 949 00da 2246     		mov	r2, r4
 950 00dc 0421     		movs	r1, #4
 951 00de 8A48     		ldr	r0, .L116+12
 952 00e0 FFF7FEFF 		bl	TIM_CCxNCmd
 953              	.LVL39:
 954              		.loc 1 2758 0
 955 00e4 3246     		mov	r2, r6
 956 00e6 0821     		movs	r1, #8
 957 00e8 8748     		ldr	r0, .L116+12
 958 00ea FFF7FEFF 		bl	TIM_SelectOCxM
 959              	.LVL40:
 960              		.loc 1 2759 0
 961 00ee 2A46     		mov	r2, r5
 962              	.LVL41:
 963              	.L101:
 964 00f0 0821     		movs	r1, #8
 965 00f2 8548     		ldr	r0, .L116+12
 966 00f4 FFF7FEFF 		bl	TIM_CCxCmd
 967              	.LVL42:
 968              		.loc 1 2760 0
 969 00f8 0422     		movs	r2, #4
ARM GAS  /tmp/ccTWrjJD.s 			page 18


 970 00fa 0821     		movs	r1, #8
 971 00fc 8248     		ldr	r0, .L116+12
 972              		.loc 1 3011 0
 973 00fe BDE8F840 		pop	{r3, r4, r5, r6, r7, lr}
 974              		.cfi_remember_state
 975              		.cfi_restore 14
 976              		.cfi_restore 7
 977              		.cfi_restore 6
 978              		.cfi_restore 5
 979              		.cfi_restore 4
 980              		.cfi_restore 3
 981              		.cfi_def_cfa_offset 0
 982              		.loc 1 2760 0
 983 0102 FFF7FEBF 		b	TIM_CCxNCmd
 984              	.LVL43:
 985              	.L109:
 986              		.cfi_restore_state
 987              		.loc 1 2687 0
 988 0106 2022     		movs	r2, #32
 989 0108 0421     		movs	r1, #4
 990 010a 7F48     		ldr	r0, .L116+12
 991              	.LVL44:
 992 010c FFF7FEFF 		bl	TIM_SelectOCxM
 993              	.LVL45:
 994              		.loc 1 2688 0
 995 0110 2246     		mov	r2, r4
 996 0112 0421     		movs	r1, #4
 997 0114 7C48     		ldr	r0, .L116+12
 998 0116 FFF7FEFF 		bl	TIM_CCxCmd
 999              	.LVL46:
 1000              		.loc 1 2689 0
 1001 011a 0022     		movs	r2, #0
 1002 011c 0421     		movs	r1, #4
 1003 011e 7A48     		ldr	r0, .L116+12
 1004 0120 FFF7FEFF 		bl	TIM_CCxNCmd
 1005              	.LVL47:
 1006              		.loc 1 2691 0
 1007 0124 774B     		ldr	r3, .L116+8
 1008 0126 1D68     		ldr	r5, [r3]
 1009              		.loc 1 2693 0
 1010 0128 6022     		movs	r2, #96
 1011              		.loc 1 2691 0
 1012 012a 002D     		cmp	r5, #0
 1013 012c 52D1     		bne	.L115
 1014              		.loc 1 2703 0
 1015 012e 0821     		movs	r1, #8
 1016 0130 7548     		ldr	r0, .L116+12
 1017 0132 FFF7FEFF 		bl	TIM_SelectOCxM
 1018              	.LVL48:
 1019              		.loc 1 2704 0
 1020 0136 2246     		mov	r2, r4
 1021 0138 0821     		movs	r1, #8
 1022 013a 7348     		ldr	r0, .L116+12
 1023 013c FFF7FEFF 		bl	TIM_CCxCmd
 1024              	.LVL49:
 1025              		.loc 1 2705 0
 1026 0140 0422     		movs	r2, #4
ARM GAS  /tmp/ccTWrjJD.s 			page 19


 1027 0142 0821     		movs	r1, #8
 1028 0144 7048     		ldr	r0, .L116+12
 1029 0146 FFF7FEFF 		bl	TIM_CCxNCmd
 1030              	.LVL50:
 1031              		.loc 1 2708 0
 1032 014a 2022     		movs	r2, #32
 1033              	.L102:
 1034              		.loc 1 2988 0
 1035 014c 2946     		mov	r1, r5
 1036 014e 6E48     		ldr	r0, .L116+12
 1037 0150 FFF7FEFF 		bl	TIM_SelectOCxM
 1038              	.LVL51:
 1039              		.loc 1 2989 0
 1040 0154 2946     		mov	r1, r5
 1041 0156 0122     		movs	r2, #1
 1042 0158 6B48     		ldr	r0, .L116+12
 1043 015a FFF7FEFF 		bl	TIM_CCxCmd
 1044              	.LVL52:
 1045              		.loc 1 2990 0
 1046 015e 2946     		mov	r1, r5
 1047 0160 0422     		movs	r2, #4
 1048 0162 6948     		ldr	r0, .L116+12
 1049              		.loc 1 3011 0
 1050 0164 BDE8F840 		pop	{r3, r4, r5, r6, r7, lr}
 1051              		.cfi_remember_state
 1052              		.cfi_restore 14
 1053              		.cfi_restore 7
 1054              		.cfi_restore 6
 1055              		.cfi_restore 5
 1056              		.cfi_restore 4
 1057              		.cfi_restore 3
 1058              		.cfi_def_cfa_offset 0
 1059              		.loc 1 2990 0
 1060 0168 FFF7FEBF 		b	TIM_CCxNCmd
 1061              	.LVL53:
 1062              	.L113:
 1063              		.cfi_restore_state
 1064              		.loc 1 2867 0
 1065 016c 654B     		ldr	r3, .L116+8
 1066 016e 1F68     		ldr	r7, [r3]
 1067              		.loc 1 2874 0
 1068 0170 2022     		movs	r2, #32
 1069              		.loc 1 2867 0
 1070 0172 002F     		cmp	r7, #0
 1071 0174 00F0FD80 		beq	.L92
 1072              	.L108:
 1073              		.loc 1 2874 0
 1074 0178 0021     		movs	r1, #0
 1075 017a 6348     		ldr	r0, .L116+12
 1076              	.LVL54:
 1077 017c FFF7FEFF 		bl	TIM_SelectOCxM
 1078              	.LVL55:
 1079              		.loc 1 2875 0
 1080 0180 0122     		movs	r2, #1
 1081 0182 0021     		movs	r1, #0
 1082 0184 6048     		ldr	r0, .L116+12
 1083 0186 FFF7FEFF 		bl	TIM_CCxCmd
ARM GAS  /tmp/ccTWrjJD.s 			page 20


 1084              	.LVL56:
 1085              		.loc 1 2876 0
 1086 018a 0022     		movs	r2, #0
 1087 018c 1146     		mov	r1, r2
 1088 018e 5E48     		ldr	r0, .L116+12
 1089 0190 FFF7FEFF 		bl	TIM_CCxNCmd
 1090              	.LVL57:
 1091              		.loc 1 2879 0
 1092 0194 6022     		movs	r2, #96
 1093 0196 0821     		movs	r1, #8
 1094 0198 5B48     		ldr	r0, .L116+12
 1095 019a FFF7FEFF 		bl	TIM_SelectOCxM
 1096              	.LVL58:
 1097              		.loc 1 2880 0
 1098 019e 0122     		movs	r2, #1
 1099 01a0 0821     		movs	r1, #8
 1100 01a2 5948     		ldr	r0, .L116+12
 1101 01a4 FFF7FEFF 		bl	TIM_CCxCmd
 1102              	.LVL59:
 1103              		.loc 1 2881 0
 1104 01a8 2246     		mov	r2, r4
 1105 01aa 0821     		movs	r1, #8
 1106              	.LVL60:
 1107              	.L103:
 1108              		.loc 1 2817 0
 1109 01ac 5648     		ldr	r0, .L116+12
 1110 01ae FFF7FEFF 		bl	TIM_CCxNCmd
 1111              	.LVL61:
 1112              		.loc 1 2820 0
 1113 01b2 3246     		mov	r2, r6
 1114 01b4 0421     		movs	r1, #4
 1115 01b6 5448     		ldr	r0, .L116+12
 1116 01b8 FFF7FEFF 		bl	TIM_SelectOCxM
 1117              	.LVL62:
 1118              		.loc 1 2821 0
 1119 01bc 0122     		movs	r2, #1
 1120 01be 0421     		movs	r1, #4
 1121 01c0 5148     		ldr	r0, .L116+12
 1122 01c2 FFF7FEFF 		bl	TIM_CCxCmd
 1123              	.LVL63:
 1124              		.loc 1 2822 0
 1125 01c6 0422     		movs	r2, #4
 1126 01c8 1146     		mov	r1, r2
 1127 01ca 4F48     		ldr	r0, .L116+12
 1128              		.loc 1 3011 0
 1129 01cc BDE8F840 		pop	{r3, r4, r5, r6, r7, lr}
 1130              		.cfi_remember_state
 1131              		.cfi_restore 14
 1132              		.cfi_restore 7
 1133              		.cfi_restore 6
 1134              		.cfi_restore 5
 1135              		.cfi_restore 4
 1136              		.cfi_restore 3
 1137              		.cfi_def_cfa_offset 0
 1138              	.LVL64:
 1139              		.loc 1 2822 0
 1140 01d0 FFF7FEBF 		b	TIM_CCxNCmd
ARM GAS  /tmp/ccTWrjJD.s 			page 21


 1141              	.LVL65:
 1142              	.L115:
 1143              		.cfi_restore_state
 1144              		.loc 1 2693 0
 1145 01d4 0021     		movs	r1, #0
 1146 01d6 4C48     		ldr	r0, .L116+12
 1147 01d8 FFF7FEFF 		bl	TIM_SelectOCxM
 1148              	.LVL66:
 1149              		.loc 1 2694 0
 1150 01dc 2246     		mov	r2, r4
 1151 01de 0021     		movs	r1, #0
 1152 01e0 4948     		ldr	r0, .L116+12
 1153 01e2 FFF7FEFF 		bl	TIM_CCxCmd
 1154              	.LVL67:
 1155              		.loc 1 2695 0
 1156 01e6 0422     		movs	r2, #4
 1157 01e8 0021     		movs	r1, #0
 1158 01ea 4748     		ldr	r0, .L116+12
 1159 01ec FFF7FEFF 		bl	TIM_CCxNCmd
 1160              	.LVL68:
 1161              		.loc 1 2698 0
 1162 01f0 2022     		movs	r2, #32
 1163 01f2 0821     		movs	r1, #8
 1164 01f4 4448     		ldr	r0, .L116+12
 1165 01f6 FFF7FEFF 		bl	TIM_SelectOCxM
 1166              	.LVL69:
 1167              		.loc 1 2699 0
 1168 01fa 2246     		mov	r2, r4
 1169 01fc 78E7     		b	.L101
 1170              	.LVL70:
 1171              	.L111:
 1172              		.loc 1 2783 0
 1173 01fe 414B     		ldr	r3, .L116+8
 1174 0200 1D68     		ldr	r5, [r3]
 1175              		.loc 1 2790 0
 1176 0202 2022     		movs	r2, #32
 1177              		.loc 1 2783 0
 1178 0204 002D     		cmp	r5, #0
 1179 0206 42D0     		beq	.L88
 1180              		.loc 1 2790 0
 1181 0208 0421     		movs	r1, #4
 1182 020a 3F48     		ldr	r0, .L116+12
 1183              	.LVL71:
 1184 020c FFF7FEFF 		bl	TIM_SelectOCxM
 1185              	.LVL72:
 1186              		.loc 1 2791 0
 1187 0210 0122     		movs	r2, #1
 1188 0212 0421     		movs	r1, #4
 1189 0214 3C48     		ldr	r0, .L116+12
 1190 0216 FFF7FEFF 		bl	TIM_CCxCmd
 1191              	.LVL73:
 1192              		.loc 1 2792 0
 1193 021a 0022     		movs	r2, #0
 1194 021c 0421     		movs	r1, #4
 1195 021e 3A48     		ldr	r0, .L116+12
 1196 0220 FFF7FEFF 		bl	TIM_CCxNCmd
 1197              	.LVL74:
ARM GAS  /tmp/ccTWrjJD.s 			page 22


 1198              		.loc 1 2795 0
 1199 0224 6022     		movs	r2, #96
 1200 0226 0021     		movs	r1, #0
 1201 0228 3748     		ldr	r0, .L116+12
 1202 022a FFF7FEFF 		bl	TIM_SelectOCxM
 1203              	.LVL75:
 1204              		.loc 1 2796 0
 1205 022e 0122     		movs	r2, #1
 1206 0230 0021     		movs	r1, #0
 1207 0232 3548     		ldr	r0, .L116+12
 1208 0234 FFF7FEFF 		bl	TIM_CCxCmd
 1209              	.LVL76:
 1210              		.loc 1 2797 0
 1211 0238 2246     		mov	r2, r4
 1212 023a 0021     		movs	r1, #0
 1213              	.L107:
 1214              		.loc 1 2901 0
 1215 023c 3248     		ldr	r0, .L116+12
 1216 023e FFF7FEFF 		bl	TIM_CCxNCmd
 1217              	.LVL77:
 1218              		.loc 1 2904 0
 1219 0242 3246     		mov	r2, r6
 1220 0244 0821     		movs	r1, #8
 1221 0246 3048     		ldr	r0, .L116+12
 1222 0248 FFF7FEFF 		bl	TIM_SelectOCxM
 1223              	.LVL78:
 1224              		.loc 1 2905 0
 1225 024c 0122     		movs	r2, #1
 1226 024e 4FE7     		b	.L101
 1227              	.LVL79:
 1228              	.L112:
 1229              		.loc 1 2825 0
 1230 0250 2C4B     		ldr	r3, .L116+8
 1231 0252 1D68     		ldr	r5, [r3]
 1232              		.loc 1 2832 0
 1233 0254 2022     		movs	r2, #32
 1234              		.loc 1 2825 0
 1235 0256 ADB3     		cbz	r5, .L90
 1236              		.loc 1 2832 0
 1237 0258 0821     		movs	r1, #8
 1238 025a 2B48     		ldr	r0, .L116+12
 1239              	.LVL80:
 1240 025c FFF7FEFF 		bl	TIM_SelectOCxM
 1241              	.LVL81:
 1242              		.loc 1 2833 0
 1243 0260 0122     		movs	r2, #1
 1244 0262 0821     		movs	r1, #8
 1245 0264 2848     		ldr	r0, .L116+12
 1246 0266 FFF7FEFF 		bl	TIM_CCxCmd
 1247              	.LVL82:
 1248              		.loc 1 2834 0
 1249 026a 0022     		movs	r2, #0
 1250 026c 0821     		movs	r1, #8
 1251 026e 2648     		ldr	r0, .L116+12
 1252 0270 FFF7FEFF 		bl	TIM_CCxNCmd
 1253              	.LVL83:
 1254              		.loc 1 2837 0
ARM GAS  /tmp/ccTWrjJD.s 			page 23


 1255 0274 6022     		movs	r2, #96
 1256 0276 0021     		movs	r1, #0
 1257 0278 2348     		ldr	r0, .L116+12
 1258 027a FFF7FEFF 		bl	TIM_SelectOCxM
 1259              	.LVL84:
 1260              		.loc 1 2838 0
 1261 027e 0122     		movs	r2, #1
 1262 0280 0021     		movs	r1, #0
 1263 0282 2148     		ldr	r0, .L116+12
 1264 0284 FFF7FEFF 		bl	TIM_CCxCmd
 1265              	.LVL85:
 1266              		.loc 1 2839 0
 1267 0288 2246     		mov	r2, r4
 1268 028a 0021     		movs	r1, #0
 1269 028c 8EE7     		b	.L103
 1270              	.LVL86:
 1271              	.L88:
 1272              		.loc 1 2810 0
 1273 028e 0821     		movs	r1, #8
 1274 0290 1D48     		ldr	r0, .L116+12
 1275              	.LVL87:
 1276 0292 FFF7FEFF 		bl	TIM_SelectOCxM
 1277              	.LVL88:
 1278              		.loc 1 2811 0
 1279 0296 0122     		movs	r2, #1
 1280 0298 0821     		movs	r1, #8
 1281 029a 1B48     		ldr	r0, .L116+12
 1282 029c FFF7FEFF 		bl	TIM_CCxCmd
 1283              	.LVL89:
 1284              		.loc 1 2812 0
 1285 02a0 2A46     		mov	r2, r5
 1286 02a2 0821     		movs	r1, #8
 1287 02a4 1848     		ldr	r0, .L116+12
 1288 02a6 FFF7FEFF 		bl	TIM_CCxNCmd
 1289              	.LVL90:
 1290              		.loc 1 2815 0
 1291 02aa 6022     		movs	r2, #96
 1292 02ac 2946     		mov	r1, r5
 1293 02ae 1648     		ldr	r0, .L116+12
 1294 02b0 FFF7FEFF 		bl	TIM_SelectOCxM
 1295              	.LVL91:
 1296              		.loc 1 2816 0
 1297 02b4 0122     		movs	r2, #1
 1298 02b6 2946     		mov	r1, r5
 1299 02b8 1348     		ldr	r0, .L116+12
 1300 02ba FFF7FEFF 		bl	TIM_CCxCmd
 1301              	.LVL92:
 1302              		.loc 1 2817 0
 1303 02be 2246     		mov	r2, r4
 1304 02c0 2946     		mov	r1, r5
 1305 02c2 73E7     		b	.L103
 1306              	.LVL93:
 1307              	.L90:
 1308              		.loc 1 2852 0
 1309 02c4 0421     		movs	r1, #4
 1310 02c6 1048     		ldr	r0, .L116+12
 1311              	.LVL94:
ARM GAS  /tmp/ccTWrjJD.s 			page 24


 1312 02c8 FFF7FEFF 		bl	TIM_SelectOCxM
 1313              	.LVL95:
 1314              		.loc 1 2853 0
 1315 02cc 0122     		movs	r2, #1
 1316 02ce 0421     		movs	r1, #4
 1317 02d0 0D48     		ldr	r0, .L116+12
 1318 02d2 FFF7FEFF 		bl	TIM_CCxCmd
 1319              	.LVL96:
 1320              		.loc 1 2854 0
 1321 02d6 2A46     		mov	r2, r5
 1322 02d8 0421     		movs	r1, #4
 1323              	.L106:
 1324              		.loc 1 2896 0
 1325 02da 0B48     		ldr	r0, .L116+12
 1326 02dc FFF7FEFF 		bl	TIM_CCxNCmd
 1327              	.LVL97:
 1328              		.loc 1 2899 0
 1329 02e0 6022     		movs	r2, #96
 1330 02e2 2946     		mov	r1, r5
 1331 02e4 0848     		ldr	r0, .L116+12
 1332 02e6 FFF7FEFF 		bl	TIM_SelectOCxM
 1333              	.LVL98:
 1334              		.loc 1 2900 0
 1335 02ea 0122     		movs	r2, #1
 1336 02ec 2946     		mov	r1, r5
 1337 02ee 0648     		ldr	r0, .L116+12
 1338 02f0 FFF7FEFF 		bl	TIM_CCxCmd
 1339              	.LVL99:
 1340              		.loc 1 2901 0
 1341 02f4 2246     		mov	r2, r4
 1342 02f6 2946     		mov	r1, r5
 1343 02f8 A0E7     		b	.L107
 1344              	.L117:
 1345 02fa 00BF     		.align	2
 1346              	.L116:
 1347 02fc 00000000 		.word	.LANCHOR0
 1348 0300 00000000 		.word	.LANCHOR2
 1349 0304 00000000 		.word	.LANCHOR4
 1350 0308 00000140 		.word	1073807360
 1351              	.LVL100:
 1352              	.L114:
 1353              		.loc 1 2909 0
 1354 030c 534B     		ldr	r3, .L118
 1355 030e 1D68     		ldr	r5, [r3]
 1356              		.loc 1 2916 0
 1357 0310 2022     		movs	r2, #32
 1358              		.loc 1 2909 0
 1359 0312 002D     		cmp	r5, #0
 1360 0314 39D0     		beq	.L94
 1361              		.loc 1 2916 0
 1362 0316 0421     		movs	r1, #4
 1363 0318 5148     		ldr	r0, .L118+4
 1364              	.LVL101:
 1365 031a FFF7FEFF 		bl	TIM_SelectOCxM
 1366              	.LVL102:
 1367              		.loc 1 2917 0
 1368 031e 0122     		movs	r2, #1
ARM GAS  /tmp/ccTWrjJD.s 			page 25


 1369 0320 0421     		movs	r1, #4
 1370 0322 4F48     		ldr	r0, .L118+4
 1371 0324 FFF7FEFF 		bl	TIM_CCxCmd
 1372              	.LVL103:
 1373              		.loc 1 2918 0
 1374 0328 0022     		movs	r2, #0
 1375 032a 0421     		movs	r1, #4
 1376 032c 4C48     		ldr	r0, .L118+4
 1377 032e FFF7FEFF 		bl	TIM_CCxNCmd
 1378              	.LVL104:
 1379              		.loc 1 2921 0
 1380 0332 6022     		movs	r2, #96
 1381 0334 0821     		movs	r1, #8
 1382 0336 4A48     		ldr	r0, .L118+4
 1383 0338 FFF7FEFF 		bl	TIM_SelectOCxM
 1384              	.LVL105:
 1385              		.loc 1 2922 0
 1386 033c 0122     		movs	r2, #1
 1387 033e 0821     		movs	r1, #8
 1388 0340 4748     		ldr	r0, .L118+4
 1389 0342 FFF7FEFF 		bl	TIM_CCxCmd
 1390              	.LVL106:
 1391              		.loc 1 2923 0
 1392 0346 2246     		mov	r2, r4
 1393 0348 0821     		movs	r1, #8
 1394              	.L105:
 1395              		.loc 1 2965 0
 1396 034a 4548     		ldr	r0, .L118+4
 1397 034c FFF7FEFF 		bl	TIM_CCxNCmd
 1398              	.LVL107:
 1399              		.loc 1 2968 0
 1400 0350 3246     		mov	r2, r6
 1401 0352 0021     		movs	r1, #0
 1402 0354 4248     		ldr	r0, .L118+4
 1403 0356 FFF7FEFF 		bl	TIM_SelectOCxM
 1404              	.LVL108:
 1405              		.loc 1 2969 0
 1406 035a 0122     		movs	r2, #1
 1407 035c 0021     		movs	r1, #0
 1408 035e 4048     		ldr	r0, .L118+4
 1409 0360 FFF7FEFF 		bl	TIM_CCxCmd
 1410              	.LVL109:
 1411              		.loc 1 2970 0
 1412 0364 0422     		movs	r2, #4
 1413 0366 0021     		movs	r1, #0
 1414 0368 3D48     		ldr	r0, .L118+4
 1415              		.loc 1 3011 0
 1416 036a BDE8F840 		pop	{r3, r4, r5, r6, r7, lr}
 1417              		.cfi_remember_state
 1418              		.cfi_restore 14
 1419              		.cfi_restore 7
 1420              		.cfi_restore 6
 1421              		.cfi_restore 5
 1422              		.cfi_restore 4
 1423              		.cfi_restore 3
 1424              		.cfi_def_cfa_offset 0
 1425              	.LVL110:
ARM GAS  /tmp/ccTWrjJD.s 			page 26


 1426              		.loc 1 2970 0
 1427 036e FFF7FEBF 		b	TIM_CCxNCmd
 1428              	.LVL111:
 1429              	.L92:
 1430              		.cfi_restore_state
 1431              		.loc 1 2894 0
 1432 0372 3946     		mov	r1, r7
 1433 0374 3A48     		ldr	r0, .L118+4
 1434              	.LVL112:
 1435 0376 FFF7FEFF 		bl	TIM_SelectOCxM
 1436              	.LVL113:
 1437              		.loc 1 2895 0
 1438 037a 0122     		movs	r2, #1
 1439 037c 3946     		mov	r1, r7
 1440 037e 3848     		ldr	r0, .L118+4
 1441 0380 FFF7FEFF 		bl	TIM_CCxCmd
 1442              	.LVL114:
 1443              		.loc 1 2896 0
 1444 0384 3A46     		mov	r2, r7
 1445 0386 3946     		mov	r1, r7
 1446 0388 A7E7     		b	.L106
 1447              	.LVL115:
 1448              	.L94:
 1449              		.loc 1 2936 0
 1450 038a 0821     		movs	r1, #8
 1451 038c 3448     		ldr	r0, .L118+4
 1452              	.LVL116:
 1453 038e FFF7FEFF 		bl	TIM_SelectOCxM
 1454              	.LVL117:
 1455              		.loc 1 2937 0
 1456 0392 0122     		movs	r2, #1
 1457 0394 0821     		movs	r1, #8
 1458 0396 3248     		ldr	r0, .L118+4
 1459 0398 FFF7FEFF 		bl	TIM_CCxCmd
 1460              	.LVL118:
 1461              		.loc 1 2938 0
 1462 039c 2A46     		mov	r2, r5
 1463 039e 0821     		movs	r1, #8
 1464 03a0 2F48     		ldr	r0, .L118+4
 1465 03a2 FFF7FEFF 		bl	TIM_CCxNCmd
 1466              	.LVL119:
 1467              		.loc 1 2941 0
 1468 03a6 6022     		movs	r2, #96
 1469 03a8 0421     		movs	r1, #4
 1470 03aa 2D48     		ldr	r0, .L118+4
 1471 03ac FFF7FEFF 		bl	TIM_SelectOCxM
 1472              	.LVL120:
 1473              		.loc 1 2942 0
 1474 03b0 0122     		movs	r2, #1
 1475 03b2 0421     		movs	r1, #4
 1476 03b4 2A48     		ldr	r0, .L118+4
 1477 03b6 FFF7FEFF 		bl	TIM_CCxCmd
 1478              	.LVL121:
 1479              		.loc 1 2943 0
 1480 03ba 2246     		mov	r2, r4
 1481 03bc 0421     		movs	r1, #4
 1482              	.L104:
ARM GAS  /tmp/ccTWrjJD.s 			page 27


 1483              		.loc 1 2985 0
 1484 03be 2848     		ldr	r0, .L118+4
 1485 03c0 FFF7FEFF 		bl	TIM_CCxNCmd
 1486              	.LVL122:
 1487              		.loc 1 2988 0
 1488 03c4 3246     		mov	r2, r6
 1489 03c6 C1E6     		b	.L102
 1490              	.LVL123:
 1491              	.L96:
 1492              		.loc 1 2978 0
 1493 03c8 0421     		movs	r1, #4
 1494 03ca 2548     		ldr	r0, .L118+4
 1495              	.LVL124:
 1496 03cc FFF7FEFF 		bl	TIM_SelectOCxM
 1497              	.LVL125:
 1498              		.loc 1 2979 0
 1499 03d0 0122     		movs	r2, #1
 1500 03d2 0421     		movs	r1, #4
 1501 03d4 2248     		ldr	r0, .L118+4
 1502 03d6 FFF7FEFF 		bl	TIM_CCxCmd
 1503              	.LVL126:
 1504              		.loc 1 2980 0
 1505 03da 2A46     		mov	r2, r5
 1506 03dc 0421     		movs	r1, #4
 1507 03de 2048     		ldr	r0, .L118+4
 1508 03e0 FFF7FEFF 		bl	TIM_CCxNCmd
 1509              	.LVL127:
 1510              		.loc 1 2983 0
 1511 03e4 6022     		movs	r2, #96
 1512 03e6 0821     		movs	r1, #8
 1513 03e8 1D48     		ldr	r0, .L118+4
 1514 03ea FFF7FEFF 		bl	TIM_SelectOCxM
 1515              	.LVL128:
 1516              		.loc 1 2984 0
 1517 03ee 0122     		movs	r2, #1
 1518 03f0 0821     		movs	r1, #8
 1519 03f2 1B48     		ldr	r0, .L118+4
 1520 03f4 FFF7FEFF 		bl	TIM_CCxCmd
 1521              	.LVL129:
 1522              		.loc 1 2985 0
 1523 03f8 2246     		mov	r2, r4
 1524 03fa 0821     		movs	r1, #8
 1525 03fc DFE7     		b	.L104
 1526              	.LVL130:
 1527              	.L95:
 1528              		.loc 1 2999 0
 1529 03fe 4022     		movs	r2, #64
 1530 0400 0021     		movs	r1, #0
 1531 0402 1748     		ldr	r0, .L118+4
 1532              	.LVL131:
 1533 0404 FFF7FEFF 		bl	TIM_SelectOCxM
 1534              	.LVL132:
 1535              		.loc 1 3000 0
 1536 0408 0122     		movs	r2, #1
 1537 040a 0021     		movs	r1, #0
 1538 040c 1448     		ldr	r0, .L118+4
 1539 040e FFF7FEFF 		bl	TIM_CCxCmd
ARM GAS  /tmp/ccTWrjJD.s 			page 28


 1540              	.LVL133:
 1541              		.loc 1 3001 0
 1542 0412 0022     		movs	r2, #0
 1543 0414 1146     		mov	r1, r2
 1544 0416 1248     		ldr	r0, .L118+4
 1545 0418 FFF7FEFF 		bl	TIM_CCxNCmd
 1546              	.LVL134:
 1547              		.loc 1 3003 0
 1548 041c 4022     		movs	r2, #64
 1549 041e 0421     		movs	r1, #4
 1550 0420 0F48     		ldr	r0, .L118+4
 1551 0422 FFF7FEFF 		bl	TIM_SelectOCxM
 1552              	.LVL135:
 1553              		.loc 1 3004 0
 1554 0426 0122     		movs	r2, #1
 1555 0428 0421     		movs	r1, #4
 1556 042a 0D48     		ldr	r0, .L118+4
 1557 042c FFF7FEFF 		bl	TIM_CCxCmd
 1558              	.LVL136:
 1559              		.loc 1 3005 0
 1560 0430 0022     		movs	r2, #0
 1561 0432 0421     		movs	r1, #4
 1562 0434 0A48     		ldr	r0, .L118+4
 1563 0436 FFF7FEFF 		bl	TIM_CCxNCmd
 1564              	.LVL137:
 1565              		.loc 1 3007 0
 1566 043a 4022     		movs	r2, #64
 1567 043c 0821     		movs	r1, #8
 1568 043e 0848     		ldr	r0, .L118+4
 1569 0440 FFF7FEFF 		bl	TIM_SelectOCxM
 1570              	.LVL138:
 1571              		.loc 1 3008 0
 1572 0444 0122     		movs	r2, #1
 1573 0446 0821     		movs	r1, #8
 1574 0448 0548     		ldr	r0, .L118+4
 1575 044a FFF7FEFF 		bl	TIM_CCxCmd
 1576              	.LVL139:
 1577              		.loc 1 3009 0
 1578 044e 0022     		movs	r2, #0
 1579 0450 0821     		movs	r1, #8
 1580 0452 0348     		ldr	r0, .L118+4
 1581              		.loc 1 3011 0
 1582 0454 BDE8F840 		pop	{r3, r4, r5, r6, r7, lr}
 1583              		.cfi_restore 14
 1584              		.cfi_restore 7
 1585              		.cfi_restore 6
 1586              		.cfi_restore 5
 1587              		.cfi_restore 4
 1588              		.cfi_restore 3
 1589              		.cfi_def_cfa_offset 0
 1590              	.LVL140:
 1591              		.loc 1 3009 0
 1592 0458 FFF7FEBF 		b	TIM_CCxNCmd
 1593              	.LVL141:
 1594              	.L119:
 1595              		.align	2
 1596              	.L118:
ARM GAS  /tmp/ccTWrjJD.s 			page 29


 1597 045c 00000000 		.word	.LANCHOR4
 1598 0460 00000140 		.word	1073807360
 1599              		.cfi_endproc
 1600              	.LFE325:
 1601              		.size	set_next_comm_step, .-set_next_comm_step
 1602              		.section	.text.full_brake_hw,"ax",%progbits
 1603              		.align	1
 1604              		.p2align 4,,15
 1605              		.syntax unified
 1606              		.thumb
 1607              		.thumb_func
 1608              		.fpu fpv4-sp-d16
 1609              		.type	full_brake_hw, %function
 1610              	full_brake_hw:
 1611              	.LFB294:
 1612              		.loc 1 944 0
 1613              		.cfi_startproc
 1614              		@ args = 0, pretend = 0, frame = 0
 1615              		@ frame_needed = 0, uses_anonymous_args = 0
 1616 0000 10B5     		push	{r4, lr}
 1617              		.cfi_def_cfa_offset 8
 1618              		.cfi_offset 4, -8
 1619              		.cfi_offset 14, -4
 1620              		.loc 1 949 0
 1621 0002 1D4C     		ldr	r4, .L122
 1622 0004 4022     		movs	r2, #64
 1623 0006 2046     		mov	r0, r4
 1624 0008 0021     		movs	r1, #0
 1625 000a FFF7FEFF 		bl	TIM_SelectOCxM
 1626              	.LVL142:
 1627              		.loc 1 950 0
 1628 000e 2046     		mov	r0, r4
 1629 0010 0122     		movs	r2, #1
 1630 0012 0021     		movs	r1, #0
 1631 0014 FFF7FEFF 		bl	TIM_CCxCmd
 1632              	.LVL143:
 1633              		.loc 1 951 0
 1634 0018 2046     		mov	r0, r4
 1635 001a 0422     		movs	r2, #4
 1636 001c 0021     		movs	r1, #0
 1637 001e FFF7FEFF 		bl	TIM_CCxNCmd
 1638              	.LVL144:
 1639              		.loc 1 953 0
 1640 0022 2046     		mov	r0, r4
 1641 0024 4022     		movs	r2, #64
 1642 0026 0421     		movs	r1, #4
 1643 0028 FFF7FEFF 		bl	TIM_SelectOCxM
 1644              	.LVL145:
 1645              		.loc 1 954 0
 1646 002c 2046     		mov	r0, r4
 1647 002e 0122     		movs	r2, #1
 1648 0030 0421     		movs	r1, #4
 1649 0032 FFF7FEFF 		bl	TIM_CCxCmd
 1650              	.LVL146:
 1651              		.loc 1 955 0
 1652 0036 0422     		movs	r2, #4
 1653 0038 2046     		mov	r0, r4
ARM GAS  /tmp/ccTWrjJD.s 			page 30


 1654 003a 1146     		mov	r1, r2
 1655 003c FFF7FEFF 		bl	TIM_CCxNCmd
 1656              	.LVL147:
 1657              		.loc 1 957 0
 1658 0040 2046     		mov	r0, r4
 1659 0042 4022     		movs	r2, #64
 1660 0044 0821     		movs	r1, #8
 1661 0046 FFF7FEFF 		bl	TIM_SelectOCxM
 1662              	.LVL148:
 1663              		.loc 1 958 0
 1664 004a 2046     		mov	r0, r4
 1665 004c 0122     		movs	r2, #1
 1666 004e 0821     		movs	r1, #8
 1667 0050 FFF7FEFF 		bl	TIM_CCxCmd
 1668              	.LVL149:
 1669              		.loc 1 959 0
 1670 0054 2046     		mov	r0, r4
 1671 0056 0422     		movs	r2, #4
 1672 0058 0821     		movs	r1, #8
 1673 005a FFF7FEFF 		bl	TIM_CCxNCmd
 1674              	.LVL150:
 1675              		.loc 1 961 0
 1676 005e 2046     		mov	r0, r4
 1677 0060 2021     		movs	r1, #32
 1678 0062 FFF7FEFF 		bl	TIM_GenerateEvent
 1679              	.LVL151:
 1680              		.loc 1 963 0
 1681 0066 054B     		ldr	r3, .L122+4
 1682 0068 1B68     		ldr	r3, [r3]
 1683              		.loc 1 964 0
 1684 006a BDE81040 		pop	{r4, lr}
 1685              		.cfi_restore 14
 1686              		.cfi_restore 4
 1687              		.cfi_def_cfa_offset 0
 1688              		.loc 1 963 0
 1689 006e 93ED8D0A 		vldr.32	s0, [r3, #564]
 1690 0072 FFF7FEBF 		b	set_switching_frequency
 1691              	.LVL152:
 1692              	.L123:
 1693 0076 00BF     		.align	2
 1694              	.L122:
 1695 0078 00000140 		.word	1073807360
 1696 007c 00000000 		.word	.LANCHOR0
 1697              		.cfi_endproc
 1698              	.LFE294:
 1699              		.size	full_brake_hw, .-full_brake_hw
 1700              		.section	.text.stop_pwm_hw,"ax",%progbits
 1701              		.align	1
 1702              		.p2align 4,,15
 1703              		.syntax unified
 1704              		.thumb
 1705              		.thumb_func
 1706              		.fpu fpv4-sp-d16
 1707              		.type	stop_pwm_hw, %function
 1708              	stop_pwm_hw:
 1709              	.LFB292:
 1710              		.loc 1 916 0
ARM GAS  /tmp/ccTWrjJD.s 			page 31


 1711              		.cfi_startproc
 1712              		@ args = 0, pretend = 0, frame = 0
 1713              		@ frame_needed = 0, uses_anonymous_args = 0
 1714 0000 10B5     		push	{r4, lr}
 1715              		.cfi_def_cfa_offset 8
 1716              		.cfi_offset 4, -8
 1717              		.cfi_offset 14, -4
 1718              		.loc 1 921 0
 1719 0002 1D4C     		ldr	r4, .L126
 1720 0004 4022     		movs	r2, #64
 1721 0006 2046     		mov	r0, r4
 1722 0008 0021     		movs	r1, #0
 1723 000a FFF7FEFF 		bl	TIM_SelectOCxM
 1724              	.LVL153:
 1725              		.loc 1 922 0
 1726 000e 2046     		mov	r0, r4
 1727 0010 0122     		movs	r2, #1
 1728 0012 0021     		movs	r1, #0
 1729 0014 FFF7FEFF 		bl	TIM_CCxCmd
 1730              	.LVL154:
 1731              		.loc 1 923 0
 1732 0018 0022     		movs	r2, #0
 1733 001a 2046     		mov	r0, r4
 1734 001c 1146     		mov	r1, r2
 1735 001e FFF7FEFF 		bl	TIM_CCxNCmd
 1736              	.LVL155:
 1737              		.loc 1 925 0
 1738 0022 2046     		mov	r0, r4
 1739 0024 4022     		movs	r2, #64
 1740 0026 0421     		movs	r1, #4
 1741 0028 FFF7FEFF 		bl	TIM_SelectOCxM
 1742              	.LVL156:
 1743              		.loc 1 926 0
 1744 002c 2046     		mov	r0, r4
 1745 002e 0122     		movs	r2, #1
 1746 0030 0421     		movs	r1, #4
 1747 0032 FFF7FEFF 		bl	TIM_CCxCmd
 1748              	.LVL157:
 1749              		.loc 1 927 0
 1750 0036 2046     		mov	r0, r4
 1751 0038 0022     		movs	r2, #0
 1752 003a 0421     		movs	r1, #4
 1753 003c FFF7FEFF 		bl	TIM_CCxNCmd
 1754              	.LVL158:
 1755              		.loc 1 929 0
 1756 0040 2046     		mov	r0, r4
 1757 0042 4022     		movs	r2, #64
 1758 0044 0821     		movs	r1, #8
 1759 0046 FFF7FEFF 		bl	TIM_SelectOCxM
 1760              	.LVL159:
 1761              		.loc 1 930 0
 1762 004a 2046     		mov	r0, r4
 1763 004c 0122     		movs	r2, #1
 1764 004e 0821     		movs	r1, #8
 1765 0050 FFF7FEFF 		bl	TIM_CCxCmd
 1766              	.LVL160:
 1767              		.loc 1 931 0
ARM GAS  /tmp/ccTWrjJD.s 			page 32


 1768 0054 2046     		mov	r0, r4
 1769 0056 0022     		movs	r2, #0
 1770 0058 0821     		movs	r1, #8
 1771 005a FFF7FEFF 		bl	TIM_CCxNCmd
 1772              	.LVL161:
 1773              		.loc 1 933 0
 1774 005e 2046     		mov	r0, r4
 1775 0060 2021     		movs	r1, #32
 1776 0062 FFF7FEFF 		bl	TIM_GenerateEvent
 1777              	.LVL162:
 1778              		.loc 1 935 0
 1779 0066 054B     		ldr	r3, .L126+4
 1780 0068 1B68     		ldr	r3, [r3]
 1781              		.loc 1 936 0
 1782 006a BDE81040 		pop	{r4, lr}
 1783              		.cfi_restore 14
 1784              		.cfi_restore 4
 1785              		.cfi_def_cfa_offset 0
 1786              		.loc 1 935 0
 1787 006e 93ED8D0A 		vldr.32	s0, [r3, #564]
 1788 0072 FFF7FEBF 		b	set_switching_frequency
 1789              	.LVL163:
 1790              	.L127:
 1791 0076 00BF     		.align	2
 1792              	.L126:
 1793 0078 00000140 		.word	1073807360
 1794 007c 00000000 		.word	.LANCHOR0
 1795              		.cfi_endproc
 1796              	.LFE292:
 1797              		.size	stop_pwm_hw, .-stop_pwm_hw
 1798              		.section	.text.update_rpm_tacho,"ax",%progbits
 1799              		.align	1
 1800              		.p2align 4,,15
 1801              		.syntax unified
 1802              		.thumb
 1803              		.thumb_func
 1804              		.fpu fpv4-sp-d16
 1805              		.type	update_rpm_tacho, %function
 1806              	update_rpm_tacho:
 1807              	.LFB319:
 1808              		.loc 1 2549 0
 1809              		.cfi_startproc
 1810              		@ args = 0, pretend = 0, frame = 0
 1811              		@ frame_needed = 0, uses_anonymous_args = 0
 1812              		.loc 1 2550 0
 1813 0000 1F4B     		ldr	r3, .L140
 1814              		.loc 1 2552 0
 1815 0002 2049     		ldr	r1, .L140+4
 1816              		.loc 1 2550 0
 1817 0004 1A68     		ldr	r2, [r3]
 1818              		.loc 1 2552 0
 1819 0006 0B68     		ldr	r3, [r1]
 1820              		.loc 1 2549 0
 1821 0008 70B5     		push	{r4, r5, r6, lr}
 1822              		.cfi_def_cfa_offset 16
 1823              		.cfi_offset 4, -16
 1824              		.cfi_offset 5, -12
ARM GAS  /tmp/ccTWrjJD.s 			page 33


 1825              		.cfi_offset 6, -8
 1826              		.cfi_offset 14, -4
 1827              		.loc 1 2550 0
 1828 000a 013A     		subs	r2, r2, #1
 1829              	.LVL164:
 1830              		.loc 1 2552 0
 1831 000c 1E4C     		ldr	r4, .L140+8
 1832              		.loc 1 2553 0
 1833 000e 0A60     		str	r2, [r1]
 1834              		.loc 1 2552 0
 1835 0010 D31A     		subs	r3, r2, r3
 1836 0012 84FB0304 		smull	r0, r4, r4, r3
 1837 0016 A4EBE374 		sub	r4, r4, r3, asr #31
 1838 001a 04EB4404 		add	r4, r4, r4, lsl #1
 1839 001e A3EB4404 		sub	r4, r3, r4, lsl #1
 1840              	.LVL165:
 1841              		.loc 1 2555 0
 1842 0022 032C     		cmp	r4, #3
 1843 0024 21DD     		ble	.L129
 1844              		.loc 1 2556 0
 1845 0026 063C     		subs	r4, r4, #6
 1846              	.LVL166:
 1847              	.L130:
 1848              		.loc 1 2562 0
 1849 0028 184D     		ldr	r5, .L140+12
 1850              		.loc 1 2563 0
 1851 002a 194E     		ldr	r6, .L140+16
 1852              		.loc 1 2562 0
 1853 002c 6B69     		ldr	r3, [r5, #20]
 1854 002e 2344     		add	r3, r3, r4
 1855 0030 6B61     		str	r3, [r5, #20]
 1856              		.loc 1 2563 0
 1857 0032 3068     		ldr	r0, [r6]
 1858 0034 FFF7FEFF 		bl	timer_seconds_elapsed_since
 1859              	.LVL167:
 1860 0038 D5ED067A 		vldr.32	s15, [r5, #24]
 1861 003c 37EE800A 		vadd.f32	s0, s15, s0
 1862 0040 85ED060A 		vstr.32	s0, [r5, #24]
 1863              		.loc 1 2564 0
 1864 0044 FFF7FEFF 		bl	timer_time_now
 1865              	.LVL168:
 1866 0048 3060     		str	r0, [r6]
 1867              	.L132:
 1868              		.loc 1 2568 0
 1869 004a 1249     		ldr	r1, .L140+20
 1870              		.loc 1 2569 0
 1871 004c 124A     		ldr	r2, .L140+24
 1872              		.loc 1 2568 0
 1873 004e 0B68     		ldr	r3, [r1]
 1874              		.loc 1 2571 0
 1875 0050 1248     		ldr	r0, .L140+28
 1876              		.loc 1 2568 0
 1877 0052 2344     		add	r3, r3, r4
 1878 0054 0B60     		str	r3, [r1]
 1879              		.loc 1 2569 0
 1880 0056 1368     		ldr	r3, [r2]
 1881 0058 2344     		add	r3, r3, r4
ARM GAS  /tmp/ccTWrjJD.s 			page 34


 1882 005a 1360     		str	r3, [r2]
 1883              		.loc 1 2571 0
 1884 005c 0368     		ldr	r3, [r0]
 1885              		.loc 1 2572 0
 1886 005e 104A     		ldr	r2, .L140+32
 1887              		.loc 1 2571 0
 1888 0060 53B9     		cbnz	r3, .L139
 1889              		.loc 1 2574 0
 1890 0062 1368     		ldr	r3, [r2]
 1891 0064 1C1B     		subs	r4, r3, r4
 1892              	.LVL169:
 1893 0066 1460     		str	r4, [r2]
 1894              		.loc 1 2576 0
 1895 0068 70BD     		pop	{r4, r5, r6, pc}
 1896              	.LVL170:
 1897              	.L129:
 1898              		.loc 1 2557 0
 1899 006a A31C     		adds	r3, r4, #2
 1900 006c 01DA     		bge	.L131
 1901              		.loc 1 2558 0
 1902 006e 0634     		adds	r4, r4, #6
 1903              	.LVL171:
 1904 0070 DAE7     		b	.L130
 1905              	.L131:
 1906              		.loc 1 2561 0
 1907 0072 002C     		cmp	r4, #0
 1908 0074 E9D0     		beq	.L132
 1909 0076 D7E7     		b	.L130
 1910              	.LVL172:
 1911              	.L139:
 1912              		.loc 1 2572 0
 1913 0078 1368     		ldr	r3, [r2]
 1914 007a 1C44     		add	r4, r4, r3
 1915              	.LVL173:
 1916 007c 1460     		str	r4, [r2]
 1917              		.loc 1 2576 0
 1918 007e 70BD     		pop	{r4, r5, r6, pc}
 1919              	.L141:
 1920              		.align	2
 1921              	.L140:
 1922 0080 00000000 		.word	.LANCHOR3
 1923 0084 00000000 		.word	.LANCHOR7
 1924 0088 ABAAAA2A 		.word	715827883
 1925 008c 00000000 		.word	.LANCHOR8
 1926 0090 00000000 		.word	.LANCHOR9
 1927 0094 00000000 		.word	.LANCHOR10
 1928 0098 00000000 		.word	.LANCHOR11
 1929 009c 00000000 		.word	.LANCHOR4
 1930 00a0 00000000 		.word	.LANCHOR12
 1931              		.cfi_endproc
 1932              	.LFE319:
 1933              		.size	update_rpm_tacho, .-update_rpm_tacho
 1934              		.section	.text.timer_thread,"ax",%progbits
 1935              		.align	1
 1936              		.p2align 4,,15
 1937              		.syntax unified
 1938              		.thumb
ARM GAS  /tmp/ccTWrjJD.s 			page 35


 1939              		.thumb_func
 1940              		.fpu fpv4-sp-d16
 1941              		.type	timer_thread, %function
 1942              	timer_thread:
 1943              	.LFB301:
 1944              		.loc 1 1353 0
 1945              		.cfi_startproc
 1946              		@ args = 0, pretend = 0, frame = 0
 1947              		@ frame_needed = 0, uses_anonymous_args = 0
 1948              	.LVL174:
 1949 0000 F8B5     		push	{r3, r4, r5, r6, r7, lr}
 1950              		.cfi_def_cfa_offset 24
 1951              		.cfi_offset 3, -24
 1952              		.cfi_offset 4, -20
 1953              		.cfi_offset 5, -16
 1954              		.cfi_offset 6, -12
 1955              		.cfi_offset 7, -8
 1956              		.cfi_offset 14, -4
 1957              	.LBB77:
 1958              	.LBB78:
 1959              		.file 2 "ChibiOS_3.0.5/os/rt/include/chregistry.h"
 1960              		.loc 2 135 0
 1961 0002 714B     		ldr	r3, .L195
 1962              	.LBE78:
 1963              	.LBE77:
 1964              	.LBB82:
 1965              		.loc 1 1363 0
 1966 0004 714F     		ldr	r7, .L195+4
 1967              	.LBE82:
 1968              	.LBB92:
 1969              	.LBB79:
 1970              		.loc 2 135 0
 1971 0006 9A69     		ldr	r2, [r3, #24]
 1972              	.LBE79:
 1973              	.LBE92:
 1974              	.LBB93:
 1975              		.loc 1 1363 0
 1976 0008 3B78     		ldrb	r3, [r7]	@ zero_extendqisi2
 1977              	.LBE93:
 1978              	.LBB94:
 1979              	.LBB80:
 1980              		.loc 2 135 0
 1981 000a 7149     		ldr	r1, .L195+8
 1982              	.LBE80:
 1983              	.LBE94:
 1984              		.loc 1 1353 0
 1985 000c 2DED048B 		vpush.64	{d8, d9}
 1986              		.cfi_def_cfa_offset 40
 1987              		.cfi_offset 80, -40
 1988              		.cfi_offset 81, -36
 1989              		.cfi_offset 82, -32
 1990              		.cfi_offset 83, -28
 1991              	.LBB95:
 1992              	.LBB81:
 1993              		.loc 2 135 0
 1994 0010 9161     		str	r1, [r2, #24]
 1995              	.LBE81:
ARM GAS  /tmp/ccTWrjJD.s 			page 36


 1996              	.LBE95:
 1997              	.LBB96:
 1998              		.loc 1 1363 0
 1999 0012 002B     		cmp	r3, #0
 2000 0014 58D1     		bne	.L170
 2001 0016 6F4E     		ldr	r6, .L195+12
 2002 0018 6F4D     		ldr	r5, .L195+16
 2003              		.loc 1 1385 0
 2004 001a 9FED709A 		vldr.32	s18, .L195+20
 2005              		.loc 1 1384 0
 2006 001e DFED708A 		vldr.32	s17, .L195+24
 2007              		.loc 1 1405 0
 2008 0022 9FED708A 		vldr.32	s16, .L195+28
 2009 0026 06E0     		b	.L143
 2010              	.LVL175:
 2011              	.L191:
 2012              		.loc 1 1445 0
 2013 0028 2B60     		str	r3, [r5]
 2014              	.L166:
 2015              		.loc 1 1459 0
 2016 002a 0A20     		movs	r0, #10
 2017 002c FFF7FEFF 		bl	chThdSleep
 2018              	.LVL176:
 2019              		.loc 1 1363 0
 2020 0030 3B78     		ldrb	r3, [r7]	@ zero_extendqisi2
 2021 0032 002B     		cmp	r3, #0
 2022 0034 48D1     		bne	.L170
 2023              	.L143:
 2024              		.loc 1 1368 0
 2025 0036 3378     		ldrb	r3, [r6]	@ zero_extendqisi2
 2026 0038 03F0FF04 		and	r4, r3, #255
 2027 003c 1BB3     		cbz	r3, .L190
 2028              		.loc 1 1440 0
 2029 003e 6A4B     		ldr	r3, .L195+32
 2030 0040 0022     		movs	r2, #0
 2031 0042 1A60     		str	r2, [r3]
 2032              	.L164:
 2033              		.loc 1 1445 0
 2034 0044 2B68     		ldr	r3, [r5]
 2035 0046 0133     		adds	r3, r3, #1
 2036              		.loc 1 1446 0
 2037 0048 092B     		cmp	r3, #9
 2038 004a EDDD     		ble	.L191
 2039              		.loc 1 1448 0
 2040 004c 3378     		ldrb	r3, [r6]	@ zero_extendqisi2
 2041              		.loc 1 1447 0
 2042 004e 0022     		movs	r2, #0
 2043              		.loc 1 1448 0
 2044 0050 022B     		cmp	r3, #2
 2045              		.loc 1 1447 0
 2046 0052 2A60     		str	r2, [r5]
 2047              		.loc 1 1448 0
 2048 0054 61D0     		beq	.L192
 2049              		.loc 1 1451 0
 2050 0056 3378     		ldrb	r3, [r6]	@ zero_extendqisi2
 2051 0058 002B     		cmp	r3, #0
 2052 005a E6D1     		bne	.L166
ARM GAS  /tmp/ccTWrjJD.s 			page 37


 2053              		.loc 1 1452 0
 2054 005c 634B     		ldr	r3, .L195+36
 2055 005e 644C     		ldr	r4, .L195+40
 2056 0060 1B68     		ldr	r3, [r3]
 2057 0062 93ED147A 		vldr.32	s14, [r3, #80]
 2058 0066 D4ED007A 		vldr.32	s15, [r4]
 2059 006a B4EEE77A 		vcmpe.f32	s14, s15
 2060 006e F1EE10FA 		vmrs	APSR_nzcv, FPSCR
 2061 0072 DAD8     		bhi	.L166
 2062              	.LBB83:
 2063              	.LBB84:
 2064              		.loc 1 755 0
 2065 0074 5F4B     		ldr	r3, .L195+44
 2066 0076 D3ED009A 		vldr.32	s19, [r3]
 2067 007a FFF7FEFF 		bl	mc_interface_get_input_voltage_filtered
 2068              	.LVL177:
 2069 007e D4ED007A 		vldr.32	s15, [r4]
 2070              	.LBE84:
 2071              	.LBE83:
 2072              		.loc 1 1453 0
 2073 0082 5D4A     		ldr	r2, .L195+48
 2074 0084 52E0     		b	.L189
 2075              	.L190:
 2076              		.loc 1 1371 0
 2077 0086 5D4B     		ldr	r3, .L195+52
 2078 0088 5D49     		ldr	r1, .L195+56
 2079 008a 1B68     		ldr	r3, [r3]
 2080 008c 5D48     		ldr	r0, .L195+60
 2081 008e 0722     		movs	r2, #7
 2082 0090 FFF7FEFF 		bl	filter_run_fir_iteration
 2083              	.LVL178:
 2084              		.loc 1 1375 0
 2085 0094 554B     		ldr	r3, .L195+36
 2086 0096 1968     		ldr	r1, [r3]
 2087 0098 91F88630 		ldrb	r3, [r1, #134]	@ zero_extendqisi2
 2088 009c DBB2     		uxtb	r3, r3
 2089 009e 012B     		cmp	r3, #1
 2090 00a0 17D0     		beq	.L193
 2091              		.loc 1 1383 0
 2092 00a2 594B     		ldr	r3, .L195+64
 2093 00a4 1B78     		ldrb	r3, [r3]	@ zero_extendqisi2
 2094 00a6 03F0FF00 		and	r0, r3, #255
 2095 00aa 002B     		cmp	r3, #0
 2096 00ac 4FD1     		bne	.L194
 2097              		.loc 1 1420 0
 2098 00ae 4E4B     		ldr	r3, .L195+32
 2099 00b0 1A68     		ldr	r2, [r3]
 2100 00b2 0332     		adds	r2, r2, #3
 2101 00b4 45DA     		bge	.L159
 2102              		.loc 1 1421 0
 2103 00b6 554A     		ldr	r2, .L195+68
 2104 00b8 1468     		ldr	r4, [r2]
 2105 00ba 012C     		cmp	r4, #1
 2106 00bc 00D0     		beq	.L186
 2107              	.L160:
 2108              		.loc 1 1424 0
 2109 00be 0120     		movs	r0, #1
ARM GAS  /tmp/ccTWrjJD.s 			page 38


 2110              	.L186:
 2111 00c0 1060     		str	r0, [r2]
 2112              	.L187:
 2113              		.loc 1 1415 0
 2114 00c2 0020     		movs	r0, #0
 2115 00c4 1860     		str	r0, [r3]
 2116 00c6 0EE0     		b	.L148
 2117              	.LVL179:
 2118              	.L170:
 2119              	.LBE96:
 2120              		.loc 1 1461 0
 2121 00c8 BDEC048B 		vldm	sp!, {d8-d9}
 2122              		.cfi_remember_state
 2123              		.cfi_restore 82
 2124              		.cfi_restore 83
 2125              		.cfi_restore 80
 2126              		.cfi_restore 81
 2127              		.cfi_def_cfa_offset 24
 2128              	.LBB97:
 2129              		.loc 1 1364 0
 2130 00cc 0023     		movs	r3, #0
 2131 00ce 3B70     		strb	r3, [r7]
 2132              	.LBE97:
 2133              		.loc 1 1461 0
 2134 00d0 F8BD     		pop	{r3, r4, r5, r6, r7, pc}
 2135              	.LVL180:
 2136              	.L193:
 2137              		.cfi_restore_state
 2138              	.LBB98:
 2139              		.loc 1 1376 0
 2140 00d2 B5EEC00A 		vcmpe.f32	s0, #0
 2141              		.loc 1 1377 0
 2142 00d6 4D4A     		ldr	r2, .L195+68
 2143              		.loc 1 1376 0
 2144 00d8 F1EE10FA 		vmrs	APSR_nzcv, FPSCR
 2145              		.loc 1 1377 0
 2146 00dc CEBF     		itee	gt
 2147 00de 1460     		strgt	r4, [r2]
 2148              		.loc 1 1380 0
 2149 00e0 B1EE400A 		vnegle.f32	s0, s0
 2150              	.LVL181:
 2151              		.loc 1 1379 0
 2152 00e4 1360     		strle	r3, [r2]
 2153              	.L148:
 2154              		.loc 1 1433 0
 2155 00e6 1368     		ldr	r3, [r2]
 2156              		.loc 1 1434 0
 2157 00e8 494A     		ldr	r2, .L195+72
 2158              		.loc 1 1438 0
 2159 00ea 4148     		ldr	r0, .L195+40
 2160              		.loc 1 1434 0
 2161 00ec D28A     		ldrh	r2, [r2, #22]
 2162 00ee 07EE902A 		vmov	s15, r2	@ int
 2163              		.loc 1 1433 0
 2164 00f2 012B     		cmp	r3, #1
 2165              		.loc 1 1434 0
 2166 00f4 F8EE677A 		vcvt.f32.u32	s15, s15
ARM GAS  /tmp/ccTWrjJD.s 			page 39


 2167              		.loc 1 1436 0
 2168 00f8 18BF     		it	ne
 2169 00fa B1EE400A 		vnegne.f32	s0, s0
 2170              	.LVL182:
 2171 00fe 80EE277A 		vdiv.f32	s14, s0, s15
 2172              		.loc 1 1434 0
 2173 0102 3B4B     		ldr	r3, .L195+40
 2174              		.loc 1 1436 0
 2175 0104 83ED007A 		vstr.32	s14, [r3]
 2176              		.loc 1 1438 0
 2177 0108 91ED150A 		vldr.32	s0, [r1, #84]
 2178 010c D1ED150A 		vldr.32	s1, [r1, #84]
 2179 0110 B1EE400A 		vneg.f32	s0, s0
 2180 0114 FFF7FEFF 		bl	utils_truncate_number
 2181              	.LVL183:
 2182 0118 94E7     		b	.L164
 2183              	.L192:
 2184              	.LBB86:
 2185              	.LBB87:
 2186              		.loc 1 755 0
 2187 011a 364B     		ldr	r3, .L195+44
 2188 011c D3ED009A 		vldr.32	s19, [r3]
 2189 0120 FFF7FEFF 		bl	mc_interface_get_input_voltage_filtered
 2190              	.LVL184:
 2191 0124 324B     		ldr	r3, .L195+40
 2192              	.LBE87:
 2193              	.LBE86:
 2194              		.loc 1 1449 0
 2195 0126 344A     		ldr	r2, .L195+48
 2196              	.LBB89:
 2197              	.LBB88:
 2198              		.loc 1 755 0
 2199 0128 D3ED007A 		vldr.32	s15, [r3]
 2200              	.L189:
 2201              	.LBE88:
 2202              	.LBE89:
 2203              		.loc 1 1453 0
 2204 012c 3948     		ldr	r0, .L195+76
 2205              	.LBB90:
 2206              	.LBB85:
 2207              		.loc 1 755 0
 2208 012e F0EEE77A 		vabs.f32	s15, s15
 2209 0132 27EE800A 		vmul.f32	s0, s15, s0
 2210              	.LBE85:
 2211              	.LBE90:
 2212              		.loc 1 1453 0
 2213 0136 0721     		movs	r1, #7
 2214 0138 89EE800A 		vdiv.f32	s0, s19, s0
 2215 013c FFF7FEFF 		bl	filter_add_sample
 2216              	.LVL185:
 2217 0140 73E7     		b	.L166
 2218              	.LVL186:
 2219              	.L159:
 2220              		.loc 1 1427 0
 2221 0142 1A68     		ldr	r2, [r3]
 2222 0144 002A     		cmp	r2, #0
 2223              		.loc 1 1428 0
ARM GAS  /tmp/ccTWrjJD.s 			page 40


 2224 0146 C8BF     		it	gt
 2225 0148 1860     		strgt	r0, [r3]
 2226 014a 304A     		ldr	r2, .L195+68
 2227 014c CBE7     		b	.L148
 2228              	.L194:
 2229 014e DFF8C8C0 		ldr	ip, .L195+80
 2230              		.loc 1 1385 0
 2231 0152 F0EE497A 		vmov.f32	s15, s18
 2232              		.loc 1 1384 0
 2233 0156 F0EE686A 		vmov.f32	s13, s17
 2234              	.LBB91:
 2235              		.loc 1 1387 0
 2236 015a 2346     		mov	r3, r4
 2237              	.L154:
 2238              	.LVL187:
 2239              		.loc 1 1388 0
 2240 015c 9A00     		lsls	r2, r3, #2
 2241 015e 0CEB0200 		add	r0, ip, r2
 2242 0162 90ED007A 		vldr.32	s14, [r0]
 2243 0166 B4EEE67A 		vcmpe.f32	s14, s13
 2244 016a F1EE10FA 		vmrs	APSR_nzcv, FPSCR
 2245              		.loc 1 1389 0
 2246 016e 48BF     		it	mi
 2247 0170 D0ED006A 		vldrmi.32	s13, [r0]
 2248              	.LVL188:
 2249              		.loc 1 1392 0
 2250 0174 90ED007A 		vldr.32	s14, [r0]
 2251 0178 B4EEE77A 		vcmpe.f32	s14, s15
 2252 017c F1EE10FA 		vmrs	APSR_nzcv, FPSCR
 2253              		.loc 1 1387 0
 2254 0180 03F10103 		add	r3, r3, #1
 2255              	.LVL189:
 2256              		.loc 1 1393 0
 2257 0184 C8BF     		it	gt
 2258 0186 D0ED007A 		vldrgt.32	s15, [r0]
 2259              	.LVL190:
 2260              		.loc 1 1387 0
 2261 018a 062B     		cmp	r3, #6
 2262 018c E6D1     		bne	.L154
 2263              	.LBE91:
 2264              		.loc 1 1405 0
 2265 018e 36EEA77A 		vadd.f32	s14, s13, s15
 2266 0192 B6EE006A 		vmov.f32	s12, #5.0e-1
 2267 0196 77EEE67A 		vsub.f32	s15, s15, s13
 2268              	.LVL191:
 2269 019a 27EE067A 		vmul.f32	s14, s14, s12
 2270              		.loc 1 1406 0
 2271 019e 124B     		ldr	r3, .L195+32
 2272              	.LVL192:
 2273              		.loc 1 1405 0
 2274 01a0 C7EE876A 		vdiv.f32	s13, s15, s14
 2275              	.LVL193:
 2276 01a4 F4EEC86A 		vcmpe.f32	s13, s16
 2277 01a8 F1EE10FA 		vmrs	APSR_nzcv, FPSCR
 2278 01ac 09DD     		ble	.L182
 2279              		.loc 1 1406 0
 2280 01ae 1A68     		ldr	r2, [r3]
ARM GAS  /tmp/ccTWrjJD.s 			page 41


 2281 01b0 0C2A     		cmp	r2, #12
 2282              		.loc 1 1407 0
 2283 01b2 164A     		ldr	r2, .L195+68
 2284              		.loc 1 1406 0
 2285 01b4 97DD     		ble	.L148
 2286              		.loc 1 1407 0
 2287 01b6 1068     		ldr	r0, [r2]
 2288 01b8 0128     		cmp	r0, #1
 2289 01ba 80D1     		bne	.L160
 2290              		.loc 1 1408 0
 2291 01bc 0020     		movs	r0, #0
 2292 01be 1060     		str	r0, [r2]
 2293 01c0 7FE7     		b	.L187
 2294              	.L182:
 2295 01c2 124A     		ldr	r2, .L195+68
 2296 01c4 7DE7     		b	.L187
 2297              	.L196:
 2298 01c6 00BF     		.align	2
 2299              	.L195:
 2300 01c8 00000000 		.word	ch
 2301 01cc 00000000 		.word	.LANCHOR13
 2302 01d0 00000000 		.word	.LC1
 2303 01d4 00000000 		.word	.LANCHOR2
 2304 01d8 00000000 		.word	.LANCHOR20
 2305 01dc 00000000 		.word	0
 2306 01e0 E7841155 		.word	1427211495
 2307 01e4 9A99993F 		.word	1067030938
 2308 01e8 00000000 		.word	.LANCHOR10
 2309 01ec 00000000 		.word	.LANCHOR0
 2310 01f0 00000000 		.word	.LANCHOR19
 2311 01f4 00000000 		.word	.LANCHOR21
 2312 01f8 00000000 		.word	.LANCHOR22
 2313 01fc 00000000 		.word	.LANCHOR14
 2314 0200 00000000 		.word	.LANCHOR15
 2315 0204 00000000 		.word	.LANCHOR16
 2316 0208 00000000 		.word	.LANCHOR17
 2317 020c 00000000 		.word	.LANCHOR4
 2318 0210 00000000 		.word	ADC_Value
 2319 0214 00000000 		.word	.LANCHOR23
 2320 0218 00000000 		.word	.LANCHOR18
 2321              	.LBE98:
 2322              		.cfi_endproc
 2323              	.LFE301:
 2324              		.size	timer_thread, .-timer_thread
 2325              		.section	.text.mcpwm_get_rpm.part.0,"ax",%progbits
 2326              		.align	1
 2327              		.p2align 4,,15
 2328              		.syntax unified
 2329              		.thumb
 2330              		.thumb_func
 2331              		.fpu fpv4-sp-d16
 2332              		.type	mcpwm_get_rpm.part.0, %function
 2333              	mcpwm_get_rpm.part.0:
 2334              	.LFB326:
 2335              		.loc 1 734 0
 2336              		.cfi_startproc
 2337              		@ args = 0, pretend = 0, frame = 0
ARM GAS  /tmp/ccTWrjJD.s 			page 42


 2338              		@ frame_needed = 0, uses_anonymous_args = 0
 2339              		@ link register save eliminated.
 2340              		.loc 1 738 0
 2341 0000 064B     		ldr	r3, .L201
 2342 0002 1B68     		ldr	r3, [r3]
 2343 0004 1BB1     		cbz	r3, .L200
 2344 0006 064B     		ldr	r3, .L201+4
 2345 0008 93ED000A 		vldr.32	s0, [r3]
 2346              		.loc 1 740 0
 2347 000c 7047     		bx	lr
 2348              	.L200:
 2349              		.loc 1 738 0
 2350 000e 044B     		ldr	r3, .L201+4
 2351 0010 93ED000A 		vldr.32	s0, [r3]
 2352 0014 B1EE400A 		vneg.f32	s0, s0
 2353 0018 7047     		bx	lr
 2354              	.L202:
 2355 001a 00BF     		.align	2
 2356              	.L201:
 2357 001c 00000000 		.word	.LANCHOR4
 2358 0020 00000000 		.word	.LANCHOR21
 2359              		.cfi_endproc
 2360              	.LFE326:
 2361              		.size	mcpwm_get_rpm.part.0, .-mcpwm_get_rpm.part.0
 2362              		.section	.text.update_sensor_mode,"ax",%progbits
 2363              		.align	1
 2364              		.p2align 4,,15
 2365              		.syntax unified
 2366              		.thumb
 2367              		.thumb_func
 2368              		.fpu fpv4-sp-d16
 2369              		.type	update_sensor_mode, %function
 2370              	update_sensor_mode:
 2371              	.LFB320:
 2372              		.loc 1 2578 0
 2373              		.cfi_startproc
 2374              		@ args = 0, pretend = 0, frame = 0
 2375              		@ frame_needed = 0, uses_anonymous_args = 0
 2376 0000 08B5     		push	{r3, lr}
 2377              		.cfi_def_cfa_offset 8
 2378              		.cfi_offset 3, -8
 2379              		.cfi_offset 14, -4
 2380              		.loc 1 2579 0
 2381 0002 144B     		ldr	r3, .L212
 2382 0004 1A68     		ldr	r2, [r3]
 2383 0006 92F88730 		ldrb	r3, [r2, #135]	@ zero_extendqisi2
 2384 000a DBB1     		cbz	r3, .L209
 2385              		.loc 1 2580 0 discriminator 1
 2386 000c 92F88730 		ldrb	r3, [r2, #135]	@ zero_extendqisi2
 2387              		.loc 1 2579 0 discriminator 1
 2388 0010 022B     		cmp	r3, #2
 2389 0012 03D0     		beq	.L211
 2390              	.L206:
 2391              		.loc 1 2584 0
 2392 0014 104B     		ldr	r3, .L212+4
 2393 0016 0022     		movs	r2, #0
 2394 0018 1A70     		strb	r2, [r3]
ARM GAS  /tmp/ccTWrjJD.s 			page 43


 2395              		.loc 1 2586 0
 2396 001a 08BD     		pop	{r3, pc}
 2397              	.L211:
 2398              	.LBB99:
 2399              	.LBB100:
 2400              		.loc 1 735 0
 2401 001c 92F88630 		ldrb	r3, [r2, #134]	@ zero_extendqisi2
 2402 0020 012B     		cmp	r3, #1
 2403 0022 13D1     		bne	.L207
 2404              		.loc 1 736 0
 2405 0024 0D4B     		ldr	r3, .L212+8
 2406 0026 DFED0E7A 		vldr.32	s15, .L212+12
 2407 002a 93ED000A 		vldr.32	s0, [r3]
 2408 002e 20EE270A 		vmul.f32	s0, s0, s15
 2409              	.L208:
 2410              	.LBE100:
 2411              	.LBE99:
 2412              		.loc 1 2581 0
 2413 0032 D2ED2B7A 		vldr.32	s15, [r2, #172]
 2414 0036 B0EEC00A 		vabs.f32	s0, s0
 2415              		.loc 1 2580 0
 2416 003a B4EEE70A 		vcmpe.f32	s0, s15
 2417 003e F1EE10FA 		vmrs	APSR_nzcv, FPSCR
 2418 0042 E7DD     		ble	.L206
 2419              	.L209:
 2420              		.loc 1 2582 0
 2421 0044 044B     		ldr	r3, .L212+4
 2422 0046 0122     		movs	r2, #1
 2423 0048 1A70     		strb	r2, [r3]
 2424              		.loc 1 2586 0
 2425 004a 08BD     		pop	{r3, pc}
 2426              	.L207:
 2427              	.LBB102:
 2428              	.LBB101:
 2429 004c FFF7FEFF 		bl	mcpwm_get_rpm.part.0
 2430              	.LVL194:
 2431 0050 EFE7     		b	.L208
 2432              	.L213:
 2433 0052 00BF     		.align	2
 2434              	.L212:
 2435 0054 00000000 		.word	.LANCHOR0
 2436 0058 00000000 		.word	.LANCHOR17
 2437 005c 00000000 		.word	.LANCHOR24
 2438 0060 EBC91841 		.word	1092143595
 2439              	.LBE101:
 2440              	.LBE102:
 2441              		.cfi_endproc
 2442              	.LFE320:
 2443              		.size	update_sensor_mode, .-update_sensor_mode
 2444              		.section	.text.commutate,"ax",%progbits
 2445              		.align	1
 2446              		.p2align 4,,15
 2447              		.syntax unified
 2448              		.thumb
 2449              		.thumb_func
 2450              		.fpu fpv4-sp-d16
 2451              		.type	commutate, %function
ARM GAS  /tmp/ccTWrjJD.s 			page 44


 2452              	commutate:
 2453              	.LFB321:
 2454              		.loc 1 2588 0
 2455              		.cfi_startproc
 2456              		@ args = 0, pretend = 0, frame = 32
 2457              		@ frame_needed = 0, uses_anonymous_args = 0
 2458              	.LVL195:
 2459              		.loc 1 2589 0
 2460 0000 2F4B     		ldr	r3, .L230
 2461 0002 304A     		ldr	r2, .L230+4
 2462 0004 1968     		ldr	r1, [r3]	@ float
 2463              		.loc 1 2588 0
 2464 0006 F0B5     		push	{r4, r5, r6, r7, lr}
 2465              		.cfi_def_cfa_offset 20
 2466              		.cfi_offset 4, -20
 2467              		.cfi_offset 5, -16
 2468              		.cfi_offset 6, -12
 2469              		.cfi_offset 7, -8
 2470              		.cfi_offset 14, -4
 2471              		.loc 1 2590 0
 2472 0008 2F4C     		ldr	r4, .L230+8
 2473              		.loc 1 2589 0
 2474 000a 1160     		str	r1, [r2]	@ float
 2475              		.loc 1 2590 0
 2476 000c 2168     		ldr	r1, [r4]
 2477 000e 2F4A     		ldr	r2, .L230+12
 2478              		.loc 1 2594 0
 2479 0010 2F4E     		ldr	r6, .L230+16
 2480              		.loc 1 2590 0
 2481 0012 1F68     		ldr	r7, [r3]	@ float
 2482 0014 0139     		subs	r1, r1, #1
 2483 0016 02EB8102 		add	r2, r2, r1, lsl #2
 2484              		.loc 1 2591 0
 2485 001a 0025     		movs	r5, #0
 2486              		.loc 1 2592 0
 2487 001c 2D49     		ldr	r1, .L230+20
 2488              		.loc 1 2590 0
 2489 001e 1760     		str	r7, [r2]	@ float
 2490              		.loc 1 2591 0
 2491 0020 1D60     		str	r5, [r3]	@ float
 2492              		.loc 1 2594 0
 2493 0022 3268     		ldr	r2, [r6]
 2494              		.loc 1 2592 0
 2495 0024 0023     		movs	r3, #0
 2496 0026 0B60     		str	r3, [r1]
 2497              		.loc 1 2594 0
 2498 0028 92F88630 		ldrb	r3, [r2, #134]	@ zero_extendqisi2
 2499              		.loc 1 2588 0
 2500 002c 89B0     		sub	sp, sp, #36
 2501              		.cfi_def_cfa_offset 56
 2502              		.loc 1 2594 0
 2503 002e 23BB     		cbnz	r3, .L215
 2504              		.loc 1 2594 0 is_stmt 0 discriminator 1
 2505 0030 294B     		ldr	r3, .L230+24
 2506 0032 1B78     		ldrb	r3, [r3]	@ zero_extendqisi2
 2507 0034 0BB3     		cbz	r3, .L215
 2508              		.loc 1 2595 0 is_stmt 1
ARM GAS  /tmp/ccTWrjJD.s 			page 45


 2509 0036 2368     		ldr	r3, [r4]
 2510 0038 1844     		add	r0, r0, r3
 2511              	.LVL196:
 2512 003a 2060     		str	r0, [r4]
 2513              		.loc 1 2596 0
 2514 003c 2368     		ldr	r3, [r4]
 2515 003e 062B     		cmp	r3, #6
 2516 0040 0BDD     		ble	.L228
 2517              	.L217:
 2518              		.loc 1 2597 0
 2519 0042 2368     		ldr	r3, [r4]
 2520 0044 063B     		subs	r3, r3, #6
 2521 0046 2360     		str	r3, [r4]
 2522              		.loc 1 2596 0
 2523 0048 2368     		ldr	r3, [r4]
 2524 004a 062B     		cmp	r3, #6
 2525 004c F9DC     		bgt	.L217
 2526              		.loc 1 2599 0
 2527 004e 2368     		ldr	r3, [r4]
 2528 0050 002B     		cmp	r3, #0
 2529 0052 05DC     		bgt	.L229
 2530              	.L219:
 2531              		.loc 1 2600 0
 2532 0054 2368     		ldr	r3, [r4]
 2533 0056 0633     		adds	r3, r3, #6
 2534 0058 2360     		str	r3, [r4]
 2535              	.L228:
 2536              		.loc 1 2599 0
 2537 005a 2368     		ldr	r3, [r4]
 2538 005c 002B     		cmp	r3, #0
 2539 005e F9DD     		ble	.L219
 2540              	.L229:
 2541              		.loc 1 2603 0
 2542 0060 FFF7FEFF 		bl	update_rpm_tacho
 2543              	.LVL197:
 2544              		.loc 1 2605 0
 2545 0064 1D4B     		ldr	r3, .L230+28
 2546 0066 1B78     		ldrb	r3, [r3]	@ zero_extendqisi2
 2547 0068 022B     		cmp	r3, #2
 2548 006a 03D0     		beq	.L220
 2549              		.loc 1 2606 0
 2550 006c FFF7FEFF 		bl	update_sensor_mode
 2551              	.LVL198:
 2552              		.loc 1 2626 0
 2553 0070 09B0     		add	sp, sp, #36
 2554              		.cfi_remember_state
 2555              		.cfi_def_cfa_offset 20
 2556              		@ sp needed
 2557 0072 F0BD     		pop	{r4, r5, r6, r7, pc}
 2558              	.L220:
 2559              		.cfi_restore_state
 2560              		.loc 1 2610 0
 2561 0074 2068     		ldr	r0, [r4]
 2562 0076 FFF7FEFF 		bl	set_next_comm_step
 2563              	.LVL199:
 2564              	.L215:
 2565              		.loc 1 2613 0
ARM GAS  /tmp/ccTWrjJD.s 			page 46


 2566 007a 2021     		movs	r1, #32
 2567 007c 1848     		ldr	r0, .L230+32
 2568              		.loc 1 2619 0
 2569 007e 194D     		ldr	r5, .L230+36
 2570              		.loc 1 2613 0
 2571 0080 FFF7FEFF 		bl	TIM_GenerateEvent
 2572              	.LVL200:
 2573              		.loc 1 2614 0
 2574 0084 184B     		ldr	r3, .L230+40
 2575 0086 0122     		movs	r2, #1
 2576 0088 1A60     		str	r2, [r3]
 2577              		.loc 1 2618 0
 2578 008a FFF7FEFF 		bl	utils_sys_lock_cnt
 2579              	.LVL201:
 2580              		.loc 1 2619 0
 2581 008e 0FCD     		ldmia	r5!, {r0, r1, r2, r3}
 2582 0090 01AC     		add	r4, sp, #4
 2583 0092 0FC4     		stmia	r4!, {r0, r1, r2, r3}
 2584 0094 95E80700 		ldm	r5, {r0, r1, r2}
 2585 0098 84E80700 		stm	r4, {r0, r1, r2}
 2586              		.loc 1 2620 0
 2587 009c FFF7FEFF 		bl	utils_sys_unlock_cnt
 2588              	.LVL202:
 2589              		.loc 1 2622 0
 2590 00a0 01A8     		add	r0, sp, #4
 2591 00a2 FFF7FEFF 		bl	update_adc_sample_pos
 2592              	.LVL203:
 2593              		.loc 1 2623 0
 2594 00a6 01A8     		add	r0, sp, #4
 2595 00a8 FFF7FEFF 		bl	set_next_timer_settings
 2596              	.LVL204:
 2597              		.loc 1 2624 0
 2598 00ac FFF7FEFF 		bl	update_sensor_mode
 2599              	.LVL205:
 2600              		.loc 1 2625 0
 2601 00b0 0E4B     		ldr	r3, .L230+44
 2602 00b2 3268     		ldr	r2, [r6]
 2603 00b4 1B78     		ldrb	r3, [r3]	@ zero_extendqisi2
 2604 00b6 DBB2     		uxtb	r3, r3
 2605 00b8 82F88530 		strb	r3, [r2, #133]
 2606              		.loc 1 2626 0
 2607 00bc 09B0     		add	sp, sp, #36
 2608              		.cfi_def_cfa_offset 20
 2609              		@ sp needed
 2610 00be F0BD     		pop	{r4, r5, r6, r7, pc}
 2611              	.L231:
 2612              		.align	2
 2613              	.L230:
 2614 00c0 00000000 		.word	.LANCHOR25
 2615 00c4 00000000 		.word	.LANCHOR26
 2616 00c8 00000000 		.word	.LANCHOR3
 2617 00cc 00000000 		.word	.LANCHOR18
 2618 00d0 00000000 		.word	.LANCHOR0
 2619 00d4 00000000 		.word	.LANCHOR27
 2620 00d8 00000000 		.word	.LANCHOR17
 2621 00dc 00000000 		.word	.LANCHOR2
 2622 00e0 00000140 		.word	1073807360
ARM GAS  /tmp/ccTWrjJD.s 			page 47


 2623 00e4 00000000 		.word	.LANCHOR5
 2624 00e8 00000000 		.word	.LANCHOR28
 2625 00ec 00000000 		.word	.LANCHOR29
 2626              		.cfi_endproc
 2627              	.LFE321:
 2628              		.size	commutate, .-commutate
 2629              		.section	.text.mcpwm_deinit,"ax",%progbits
 2630              		.align	1
 2631              		.p2align 4,,15
 2632              		.global	mcpwm_deinit
 2633              		.syntax unified
 2634              		.thumb
 2635              		.thumb_func
 2636              		.fpu fpv4-sp-d16
 2637              		.type	mcpwm_deinit, %function
 2638              	mcpwm_deinit:
 2639              	.LFB260:
 2640              		.loc 1 460 0
 2641              		.cfi_startproc
 2642              		@ args = 0, pretend = 0, frame = 0
 2643              		@ frame_needed = 0, uses_anonymous_args = 0
 2644 0000 38B5     		push	{r3, r4, r5, lr}
 2645              		.cfi_def_cfa_offset 16
 2646              		.cfi_offset 3, -16
 2647              		.cfi_offset 4, -12
 2648              		.cfi_offset 5, -8
 2649              		.cfi_offset 14, -4
 2650              		.loc 1 461 0
 2651 0002 144B     		ldr	r3, .L237
 2652 0004 1A78     		ldrb	r2, [r3]	@ zero_extendqisi2
 2653 0006 1AB3     		cbz	r2, .L232
 2654              		.loc 1 467 0
 2655 0008 134C     		ldr	r4, .L237+4
 2656              		.loc 1 468 0
 2657 000a 144D     		ldr	r5, .L237+8
 2658              		.loc 1 467 0
 2659 000c 0122     		movs	r2, #1
 2660              		.loc 1 465 0
 2661 000e 0021     		movs	r1, #0
 2662 0010 1970     		strb	r1, [r3]
 2663              		.loc 1 467 0
 2664 0012 2270     		strb	r2, [r4]
 2665              		.loc 1 468 0
 2666 0014 2A70     		strb	r2, [r5]
 2667              		.loc 1 470 0
 2668 0016 01E0     		b	.L234
 2669              	.L235:
 2670              		.loc 1 471 0
 2671 0018 FFF7FEFF 		bl	chThdSleep
 2672              	.LVL206:
 2673              	.L234:
 2674              		.loc 1 470 0
 2675 001c 2378     		ldrb	r3, [r4]	@ zero_extendqisi2
 2676              		.loc 1 471 0
 2677 001e 0A20     		movs	r0, #10
 2678              		.loc 1 470 0
 2679 0020 002B     		cmp	r3, #0
ARM GAS  /tmp/ccTWrjJD.s 			page 48


 2680 0022 F9D1     		bne	.L235
 2681              		.loc 1 470 0 is_stmt 0 discriminator 1
 2682 0024 2B78     		ldrb	r3, [r5]	@ zero_extendqisi2
 2683 0026 002B     		cmp	r3, #0
 2684 0028 F6D1     		bne	.L235
 2685              		.loc 1 474 0 is_stmt 1
 2686 002a 0D48     		ldr	r0, .L237+12
 2687 002c FFF7FEFF 		bl	TIM_DeInit
 2688              	.LVL207:
 2689              		.loc 1 475 0
 2690 0030 0C48     		ldr	r0, .L237+16
 2691 0032 FFF7FEFF 		bl	TIM_DeInit
 2692              	.LVL208:
 2693              		.loc 1 476 0
 2694 0036 FFF7FEFF 		bl	ADC_DeInit
 2695              	.LVL209:
 2696              		.loc 1 477 0
 2697 003a 0B48     		ldr	r0, .L237+20
 2698 003c FFF7FEFF 		bl	DMA_DeInit
 2699              	.LVL210:
 2700              		.loc 1 478 0
 2701 0040 1220     		movs	r0, #18
 2702 0042 FFF7FEFF 		bl	nvicDisableVector
 2703              	.LVL211:
 2704              		.loc 1 479 0
 2705 0046 0948     		ldr	r0, .L237+24
 2706              		.loc 1 480 0
 2707 0048 BDE83840 		pop	{r3, r4, r5, lr}
 2708              		.cfi_remember_state
 2709              		.cfi_restore 14
 2710              		.cfi_restore 5
 2711              		.cfi_restore 4
 2712              		.cfi_restore 3
 2713              		.cfi_def_cfa_offset 0
 2714              		.loc 1 479 0
 2715 004c FFF7FEBF 		b	dmaStreamRelease
 2716              	.LVL212:
 2717              	.L232:
 2718              		.cfi_restore_state
 2719              		.loc 1 480 0
 2720 0050 38BD     		pop	{r3, r4, r5, pc}
 2721              	.L238:
 2722 0052 00BF     		.align	2
 2723              	.L237:
 2724 0054 00000000 		.word	.LANCHOR30
 2725 0058 00000000 		.word	.LANCHOR13
 2726 005c 00000000 		.word	.LANCHOR31
 2727 0060 00000140 		.word	1073807360
 2728 0064 00040140 		.word	1073808384
 2729 0068 70640240 		.word	1073898608
 2730 006c 90000000 		.word	_stm32_dma_streams+144
 2731              		.cfi_endproc
 2732              	.LFE260:
 2733              		.size	mcpwm_deinit, .-mcpwm_deinit
 2734              		.section	.text.mcpwm_init_done,"ax",%progbits
 2735              		.align	1
 2736              		.p2align 4,,15
ARM GAS  /tmp/ccTWrjJD.s 			page 49


 2737              		.global	mcpwm_init_done
 2738              		.syntax unified
 2739              		.thumb
 2740              		.thumb_func
 2741              		.fpu fpv4-sp-d16
 2742              		.type	mcpwm_init_done, %function
 2743              	mcpwm_init_done:
 2744              	.LFB261:
 2745              		.loc 1 482 0
 2746              		.cfi_startproc
 2747              		@ args = 0, pretend = 0, frame = 0
 2748              		@ frame_needed = 0, uses_anonymous_args = 0
 2749              		@ link register save eliminated.
 2750              		.loc 1 483 0
 2751 0000 014B     		ldr	r3, .L240
 2752 0002 1878     		ldrb	r0, [r3]	@ zero_extendqisi2
 2753              		.loc 1 484 0
 2754 0004 7047     		bx	lr
 2755              	.L241:
 2756 0006 00BF     		.align	2
 2757              	.L240:
 2758 0008 00000000 		.word	.LANCHOR30
 2759              		.cfi_endproc
 2760              	.LFE261:
 2761              		.size	mcpwm_init_done, .-mcpwm_init_done
 2762              		.section	.text.mcpwm_init_hall_table,"ax",%progbits
 2763              		.align	1
 2764              		.p2align 4,,15
 2765              		.global	mcpwm_init_hall_table
 2766              		.syntax unified
 2767              		.thumb
 2768              		.thumb_func
 2769              		.fpu fpv4-sp-d16
 2770              		.type	mcpwm_init_hall_table, %function
 2771              	mcpwm_init_hall_table:
 2772              	.LFB263:
 2773              		.loc 1 505 0
 2774              		.cfi_startproc
 2775              		@ args = 0, pretend = 0, frame = 32
 2776              		@ frame_needed = 0, uses_anonymous_args = 0
 2777              		@ link register save eliminated.
 2778              	.LVL213:
 2779 0000 F0B4     		push	{r4, r5, r6, r7}
 2780              		.cfi_def_cfa_offset 16
 2781              		.cfi_offset 4, -16
 2782              		.cfi_offset 5, -12
 2783              		.cfi_offset 6, -8
 2784              		.cfi_offset 7, -4
 2785              		.loc 1 506 0
 2786 0002 0F4F     		ldr	r7, .L249
 2787 0004 0F4C     		ldr	r4, .L249+4
 2788              		.loc 1 505 0
 2789 0006 0546     		mov	r5, r0
 2790              		.loc 1 506 0
 2791 0008 0FCF     		ldmia	r7!, {r0, r1, r2, r3}
 2792              	.LVL214:
 2793              		.loc 1 505 0
ARM GAS  /tmp/ccTWrjJD.s 			page 50


 2794 000a 88B0     		sub	sp, sp, #32
 2795              		.cfi_def_cfa_offset 48
 2796              		.loc 1 506 0
 2797 000c 01AE     		add	r6, sp, #4
 2798 000e 0FC6     		stmia	r6!, {r0, r1, r2, r3}
 2799 0010 97E80700 		ldm	r7, {r0, r1, r2}
 2800 0014 86E80700 		stm	r6, {r0, r1, r2}
 2801              	.LVL215:
 2802 0018 6A1E     		subs	r2, r5, #1
 2803 001a E81D     		adds	r0, r5, #7
 2804              	.LVL216:
 2805              	.L245:
 2806              	.LBB103:
 2807              	.LBB104:
 2808              		.loc 1 509 0
 2809 001c 12F9013F 		ldrsb	r3, [r2, #1]!
 2810              	.LVL217:
 2811 0020 44F8043B 		str	r3, [r4], #4
 2812              	.LVL218:
 2813              		.loc 1 517 0
 2814 0024 08A9     		add	r1, sp, #32
 2815 0026 01EB8301 		add	r1, r1, r3, lsl #2
 2816              		.loc 1 512 0
 2817 002a 002B     		cmp	r3, #0
 2818              		.loc 1 517 0
 2819 002c C8BF     		it	gt
 2820 002e 51F81C3C 		ldrgt	r3, [r1, #-28]
 2821              	.LVL219:
 2822 0032 44F8243C 		str	r3, [r4, #-36]
 2823              	.LVL220:
 2824              	.LBE104:
 2825              		.loc 1 508 0
 2826 0036 8242     		cmp	r2, r0
 2827 0038 F0D1     		bne	.L245
 2828              	.LBE103:
 2829              		.loc 1 519 0
 2830 003a 08B0     		add	sp, sp, #32
 2831              		.cfi_def_cfa_offset 16
 2832              		@ sp needed
 2833 003c F0BC     		pop	{r4, r5, r6, r7}
 2834              		.cfi_restore 7
 2835              		.cfi_restore 6
 2836              		.cfi_restore 5
 2837              		.cfi_restore 4
 2838              		.cfi_def_cfa_offset 0
 2839              	.LVL221:
 2840 003e 7047     		bx	lr
 2841              	.L250:
 2842              		.align	2
 2843              	.L249:
 2844 0040 00000000 		.word	.LANCHOR32
 2845 0044 20000000 		.word	.LANCHOR33+32
 2846              		.cfi_endproc
 2847              	.LFE263:
 2848              		.size	mcpwm_init_hall_table, .-mcpwm_init_hall_table
 2849              		.section	.text.mcpwm_init,"ax",%progbits
 2850              		.align	1
ARM GAS  /tmp/ccTWrjJD.s 			page 51


 2851              		.p2align 4,,15
 2852              		.global	mcpwm_init
 2853              		.syntax unified
 2854              		.thumb
 2855              		.thumb_func
 2856              		.fpu fpv4-sp-d16
 2857              		.type	mcpwm_init, %function
 2858              	mcpwm_init:
 2859              	.LFB259:
 2860              		.loc 1 170 0
 2861              		.cfi_startproc
 2862              		@ args = 0, pretend = 0, frame = 176
 2863              		@ frame_needed = 0, uses_anonymous_args = 0
 2864              	.LVL222:
 2865 0000 2DE9F04F 		push	{r4, r5, r6, r7, r8, r9, r10, fp, lr}
 2866              		.cfi_def_cfa_offset 36
 2867              		.cfi_offset 4, -36
 2868              		.cfi_offset 5, -32
 2869              		.cfi_offset 6, -28
 2870              		.cfi_offset 7, -24
 2871              		.cfi_offset 8, -20
 2872              		.cfi_offset 9, -16
 2873              		.cfi_offset 10, -12
 2874              		.cfi_offset 11, -8
 2875              		.cfi_offset 14, -4
 2876 0004 2DED028B 		vpush.64	{d8}
 2877              		.cfi_def_cfa_offset 44
 2878              		.cfi_offset 80, -44
 2879              		.cfi_offset 81, -40
 2880              		.loc 1 179 0
 2881 0008 CF4C     		ldr	r4, .L259
 2882              		.loc 1 185 0
 2883 000a 9FEDD08A 		vldr.32	s16, .L259+4
 2884              		.loc 1 182 0
 2885 000e DFF8E8B3 		ldr	fp, .L259+176
 2886              		.loc 1 183 0
 2887 0012 DFF8E8A3 		ldr	r10, .L259+180
 2888              		.loc 1 198 0
 2889 0016 DFF8E893 		ldr	r9, .L259+184
 2890              		.loc 1 229 0
 2891 001a CD4E     		ldr	r6, .L259+8
 2892              		.loc 1 230 0
 2893 001c CD4F     		ldr	r7, .L259+12
 2894              		.loc 1 170 0
 2895 001e AFB0     		sub	sp, sp, #188
 2896              		.cfi_def_cfa_offset 232
 2897              		.loc 1 170 0
 2898 0020 8046     		mov	r8, r0
 2899              		.loc 1 171 0
 2900 0022 FFF7FEFF 		bl	utils_sys_lock_cnt
 2901              	.LVL223:
 2902              		.loc 1 173 0
 2903 0026 CC4B     		ldr	r3, .L259+16
 2904              		.loc 1 179 0
 2905 0028 C4F80080 		str	r8, [r4]
 2906              		.loc 1 173 0
 2907 002c 0024     		movs	r4, #0
ARM GAS  /tmp/ccTWrjJD.s 			page 52


 2908 002e 1C70     		strb	r4, [r3]
 2909              		.loc 1 184 0
 2910 0030 DFF8D0E3 		ldr	lr, .L259+188
 2911              		.loc 1 185 0
 2912 0034 DFF8D0C3 		ldr	ip, .L259+192
 2913              		.loc 1 186 0
 2914 0038 C848     		ldr	r0, .L259+20
 2915              		.loc 1 187 0
 2916 003a C949     		ldr	r1, .L259+24
 2917              		.loc 1 188 0
 2918 003c C94A     		ldr	r2, .L259+28
 2919              		.loc 1 189 0
 2920 003e CA4B     		ldr	r3, .L259+32
 2921              		.loc 1 182 0
 2922 0040 0125     		movs	r5, #1
 2923 0042 CBF80050 		str	r5, [fp]
 2924              		.loc 1 183 0
 2925 0046 CAF80040 		str	r4, [r10]
 2926              		.loc 1 184 0
 2927 004a CEF80050 		str	r5, [lr]
 2928              		.loc 1 185 0
 2929 004e 8CED008A 		vstr.32	s16, [ip]
 2930              		.loc 1 190 0
 2931 0052 DFF8B8E3 		ldr	lr, .L259+196
 2932              		.loc 1 186 0
 2933 0056 80ED008A 		vstr.32	s16, [r0]
 2934              		.loc 1 187 0
 2935 005a 81ED008A 		vstr.32	s16, [r1]
 2936              		.loc 1 188 0
 2937 005e 82ED008A 		vstr.32	s16, [r2]
 2938              		.loc 1 189 0
 2939 0062 83ED008A 		vstr.32	s16, [r3]
 2940              		.loc 1 191 0
 2941 0066 C14B     		ldr	r3, .L259+36
 2942              		.loc 1 190 0
 2943 0068 8EED008A 		vstr.32	s16, [lr]
 2944              		.loc 1 193 0
 2945 006c DFF8A0C3 		ldr	ip, .L259+200
 2946              		.loc 1 191 0
 2947 0070 1C60     		str	r4, [r3]
 2948              		.loc 1 194 0
 2949 0072 BF48     		ldr	r0, .L259+40
 2950              		.loc 1 195 0
 2951 0074 BF49     		ldr	r1, .L259+44
 2952              		.loc 1 196 0
 2953 0076 C04A     		ldr	r2, .L259+48
 2954              		.loc 1 197 0
 2955 0078 DFF898A3 		ldr	r10, .L259+204
 2956              		.loc 1 192 0
 2957 007c BF4B     		ldr	r3, .L259+52
 2958              		.loc 1 195 0
 2959 007e 4FF00A0E 		mov	lr, #10
 2960              		.loc 1 192 0
 2961 0082 1C60     		str	r4, [r3]
 2962              		.loc 1 193 0
 2963 0084 CCF80040 		str	r4, [ip]
 2964              		.loc 1 194 0
ARM GAS  /tmp/ccTWrjJD.s 			page 53


 2965 0088 0470     		strb	r4, [r0]
 2966              		.loc 1 202 0
 2967 008a DFF88CC3 		ldr	ip, .L259+208
 2968              		.loc 1 195 0
 2969 008e 81F800E0 		strb	lr, [r1]
 2970              		.loc 1 200 0
 2971 0092 BB48     		ldr	r0, .L259+56
 2972              		.loc 1 196 0
 2973 0094 82ED008A 		vstr.32	s16, [r2]
 2974              		.loc 1 201 0
 2975 0098 DFF880E3 		ldr	lr, .L259+212
 2976              		.loc 1 197 0
 2977 009c 8AED008A 		vstr.32	s16, [r10]
 2978              		.loc 1 199 0
 2979 00a0 B84A     		ldr	r2, .L259+60
 2980              		.loc 1 198 0
 2981 00a2 D8F83412 		ldr	r1, [r8, #564]	@ float
 2982              		.loc 1 203 0
 2983 00a6 B84B     		ldr	r3, .L259+64
 2984              		.loc 1 198 0
 2985 00a8 C9F80010 		str	r1, [r9]	@ float
 2986              		.loc 1 207 0
 2987 00ac DFF870A3 		ldr	r10, .L259+216
 2988              		.loc 1 199 0
 2989 00b0 1460     		str	r4, [r2]
 2990              		.loc 1 204 0
 2991 00b2 B649     		ldr	r1, .L259+68
 2992              		.loc 1 200 0
 2993 00b4 0460     		str	r4, [r0]
 2994              		.loc 1 205 0
 2995 00b6 B64A     		ldr	r2, .L259+72
 2996              		.loc 1 201 0
 2997 00b8 CEF80040 		str	r4, [lr]
 2998              		.loc 1 206 0
 2999 00bc B548     		ldr	r0, .L259+76
 3000              		.loc 1 202 0
 3001 00be CCF80040 		str	r4, [ip]
 3002              		.loc 1 208 0
 3003 00c2 DFF860E3 		ldr	lr, .L259+220
 3004              		.loc 1 209 0
 3005 00c6 DFF860C3 		ldr	ip, .L259+224
 3006              		.loc 1 203 0
 3007 00ca 1C60     		str	r4, [r3]
 3008 00cc 5C60     		str	r4, [r3, #4]
 3009 00ce 9C60     		str	r4, [r3, #8]
 3010 00d0 DC60     		str	r4, [r3, #12]
 3011 00d2 1C61     		str	r4, [r3, #16]
 3012 00d4 5C61     		str	r4, [r3, #20]
 3013 00d6 9C61     		str	r4, [r3, #24]
 3014              		.loc 1 210 0
 3015 00d8 AF4B     		ldr	r3, .L259+80
 3016              		.loc 1 204 0
 3017 00da 81ED008A 		vstr.32	s16, [r1]
 3018              		.loc 1 205 0
 3019 00de 82ED008A 		vstr.32	s16, [r2]
 3020              		.loc 1 211 0
 3021 00e2 2146     		mov	r1, r4
ARM GAS  /tmp/ccTWrjJD.s 			page 54


 3022              		.loc 1 206 0
 3023 00e4 80ED008A 		vstr.32	s16, [r0]
 3024              		.loc 1 211 0
 3025 00e8 E022     		movs	r2, #224
 3026              		.loc 1 207 0
 3027 00ea CAF80040 		str	r4, [r10]
 3028              		.loc 1 211 0
 3029 00ee AB48     		ldr	r0, .L259+84
 3030              		.loc 1 208 0
 3031 00f0 8EED008A 		vstr.32	s16, [lr]
 3032              		.loc 1 209 0
 3033 00f4 CCF80040 		str	r4, [ip]
 3034 00f8 CCF80440 		str	r4, [ip, #4]
 3035 00fc CCF80840 		str	r4, [ip, #8]
 3036 0100 CCF80C40 		str	r4, [ip, #12]
 3037 0104 CCF81040 		str	r4, [ip, #16]
 3038 0108 CCF81440 		str	r4, [ip, #20]
 3039              		.loc 1 210 0
 3040 010c 1C70     		strb	r4, [r3]
 3041              		.loc 1 211 0
 3042 010e FFF7FEFF 		bl	memset
 3043              	.LVL224:
 3044              		.loc 1 212 0
 3045 0112 FFF7FEFF 		bl	update_sensor_mode
 3046              	.LVL225:
 3047              		.loc 1 213 0
 3048 0116 98F88530 		ldrb	r3, [r8, #133]	@ zero_extendqisi2
 3049 011a DFF810E3 		ldr	lr, .L259+228
 3050              		.loc 1 214 0
 3051 011e DFF810C3 		ldr	ip, .L259+232
 3052              		.loc 1 215 0
 3053 0122 9F49     		ldr	r1, .L259+88
 3054              		.loc 1 216 0
 3055 0124 9F4A     		ldr	r2, .L259+92
 3056              		.loc 1 213 0
 3057 0126 DBB2     		uxtb	r3, r3
 3058              		.loc 1 218 0
 3059 0128 08F1A400 		add	r0, r8, #164
 3060              		.loc 1 213 0
 3061 012c 8EF80030 		strb	r3, [lr]
 3062              		.loc 1 214 0
 3063 0130 8CED008A 		vstr.32	s16, [ip]
 3064              		.loc 1 215 0
 3065 0134 81ED008A 		vstr.32	s16, [r1]
 3066              		.loc 1 216 0
 3067 0138 1460     		str	r4, [r2]
 3068              		.loc 1 218 0
 3069 013a FFF7FEFF 		bl	mcpwm_init_hall_table
 3070              	.LVL226:
 3071              		.loc 1 221 0
 3072 013e 2A46     		mov	r2, r5
 3073 0140 0721     		movs	r1, #7
 3074 0142 9FED990A 		vldr.32	s0, .L259+96
 3075 0146 9948     		ldr	r0, .L259+100
 3076 0148 FFF7FEFF 		bl	filter_create_fir_lowpass
 3077              	.LVL227:
 3078              		.loc 1 224 0
ARM GAS  /tmp/ccTWrjJD.s 			page 55


 3079 014c 2A46     		mov	r2, r5
 3080 014e 0721     		movs	r1, #7
 3081 0150 9FED950A 		vldr.32	s0, .L259+96
 3082 0154 9648     		ldr	r0, .L259+104
 3083 0156 FFF7FEFF 		bl	filter_create_fir_lowpass
 3084              	.LVL228:
 3085              		.loc 1 227 0
 3086 015a 9FED960A 		vldr.32	s0, .L259+108
 3087 015e 9648     		ldr	r0, .L259+112
 3088 0160 2A46     		mov	r2, r5
 3089 0162 0421     		movs	r1, #4
 3090 0164 FFF7FEFF 		bl	filter_create_fir_lowpass
 3091              	.LVL229:
 3092              		.loc 1 229 0
 3093 0168 3046     		mov	r0, r6
 3094 016a FFF7FEFF 		bl	TIM_DeInit
 3095              	.LVL230:
 3096              		.loc 1 230 0
 3097 016e 3846     		mov	r0, r7
 3098 0170 FFF7FEFF 		bl	TIM_DeInit
 3099              	.LVL231:
 3100              		.loc 1 235 0
 3101 0174 2946     		mov	r1, r5
 3102 0176 2846     		mov	r0, r5
 3103              		.loc 1 231 0
 3104 0178 7462     		str	r4, [r6, #36]
 3105              		.loc 1 232 0
 3106 017a 7C62     		str	r4, [r7, #36]
 3107              		.loc 1 235 0
 3108 017c FFF7FEFF 		bl	RCC_APB2PeriphClockCmd
 3109              	.LVL232:
 3110              		.loc 1 240 0
 3111 0180 D9ED007A 		vldr.32	s15, [r9]
 3112 0184 8D4A     		ldr	r2, .L259+116
 3113              		.loc 1 238 0
 3114 0186 0294     		str	r4, [sp, #8]
 3115              		.loc 1 240 0
 3116 0188 FDEEE77A 		vcvt.s32.f32	s15, s15
 3117              		.loc 1 244 0
 3118 018c 3046     		mov	r0, r6
 3119              		.loc 1 240 0
 3120 018e 17EE903A 		vmov	r3, s15	@ int
 3121              		.loc 1 244 0
 3122 0192 02A9     		add	r1, sp, #8
 3123              		.loc 1 240 0
 3124 0194 92FBF3F3 		sdiv	r3, r2, r3
 3125              		.loc 1 241 0
 3126 0198 ADF81040 		strh	r4, [sp, #16]	@ movhi
 3127              		.loc 1 240 0
 3128 019c 0393     		str	r3, [sp, #12]
 3129              		.loc 1 242 0
 3130 019e 8DF81240 		strb	r4, [sp, #18]
 3131              		.loc 1 244 0
 3132 01a2 FFF7FEFF 		bl	TIM_TimeBaseInit
 3133              	.LVL233:
 3134              		.loc 1 250 0
 3135 01a6 F36A     		ldr	r3, [r6, #44]
ARM GAS  /tmp/ccTWrjJD.s 			page 56


 3136              		.loc 1 247 0
 3137 01a8 854A     		ldr	r2, .L259+120
 3138 01aa 0D92     		str	r2, [sp, #52]
 3139              		.loc 1 250 0
 3140 01ac EB40     		lsrs	r3, r3, r5
 3141              		.loc 1 256 0
 3142 01ae 3046     		mov	r0, r6
 3143 01b0 0DA9     		add	r1, sp, #52
 3144              		.loc 1 248 0
 3145 01b2 4FF00408 		mov	r8, #4
 3146              	.LVL234:
 3147              		.loc 1 251 0
 3148 01b6 CDE90F34 		strd	r3, r4, [sp, #60]
 3149              		.loc 1 252 0
 3150 01ba 824B     		ldr	r3, .L259+124
 3151 01bc 1193     		str	r3, [sp, #68]
 3152              		.loc 1 248 0
 3153 01be ADF83880 		strh	r8, [sp, #56]	@ movhi
 3154              		.loc 1 256 0
 3155 01c2 FFF7FEFF 		bl	TIM_OC1Init
 3156              	.LVL235:
 3157              		.loc 1 257 0
 3158 01c6 0DA9     		add	r1, sp, #52
 3159 01c8 3046     		mov	r0, r6
 3160 01ca FFF7FEFF 		bl	TIM_OC2Init
 3161              	.LVL236:
 3162              		.loc 1 258 0
 3163 01ce 0DA9     		add	r1, sp, #52
 3164 01d0 3046     		mov	r0, r6
 3165 01d2 FFF7FEFF 		bl	TIM_OC3Init
 3166              	.LVL237:
 3167              		.loc 1 259 0
 3168 01d6 0DA9     		add	r1, sp, #52
 3169 01d8 3046     		mov	r0, r6
 3170 01da FFF7FEFF 		bl	TIM_OC4Init
 3171              	.LVL238:
 3172              		.loc 1 261 0
 3173 01de 3046     		mov	r0, r6
 3174 01e0 0821     		movs	r1, #8
 3175 01e2 FFF7FEFF 		bl	TIM_OC1PreloadConfig
 3176              	.LVL239:
 3177              		.loc 1 262 0
 3178 01e6 3046     		mov	r0, r6
 3179 01e8 0821     		movs	r1, #8
 3180 01ea FFF7FEFF 		bl	TIM_OC2PreloadConfig
 3181              	.LVL240:
 3182              		.loc 1 263 0
 3183 01ee 3046     		mov	r0, r6
 3184 01f0 0821     		movs	r1, #8
 3185 01f2 FFF7FEFF 		bl	TIM_OC3PreloadConfig
 3186              	.LVL241:
 3187              		.loc 1 264 0
 3188 01f6 0821     		movs	r1, #8
 3189 01f8 3046     		mov	r0, r6
 3190 01fa FFF7FEFF 		bl	TIM_OC4PreloadConfig
 3191              	.LVL242:
 3192              		.loc 1 270 0
ARM GAS  /tmp/ccTWrjJD.s 			page 57


 3193 01fe DFED720A 		vldr.32	s1, .L259+128
 3194 0202 9FED720A 		vldr.32	s0, .L259+132
 3195              		.loc 1 267 0
 3196 0206 724B     		ldr	r3, .L259+136
 3197 0208 0593     		str	r3, [sp, #20]
 3198              		.loc 1 268 0
 3199 020a ADF81840 		strh	r4, [sp, #24]	@ movhi
 3200              		.loc 1 270 0
 3201 020e FFF7FEFF 		bl	conf_general_calculate_deadtime
 3202              	.LVL243:
 3203              		.loc 1 271 0
 3204 0212 4FF0005A 		mov	r10, #536870912
 3205              		.loc 1 270 0
 3206 0216 ADF81A00 		strh	r0, [sp, #26]	@ movhi
 3207              		.loc 1 275 0
 3208 021a 05A9     		add	r1, sp, #20
 3209 021c 3046     		mov	r0, r6
 3210              		.loc 1 272 0
 3211 021e ADF82040 		strh	r4, [sp, #32]	@ movhi
 3212              		.loc 1 271 0
 3213 0222 CDF81CA0 		str	r10, [sp, #28]
 3214              		.loc 1 275 0
 3215 0226 FFF7FEFF 		bl	TIM_BDTRConfig
 3216              	.LVL244:
 3217              		.loc 1 276 0
 3218 022a 2946     		mov	r1, r5
 3219 022c 3046     		mov	r0, r6
 3220 022e FFF7FEFF 		bl	TIM_CCPreloadControl
 3221              	.LVL245:
 3222              		.loc 1 277 0
 3223 0232 2946     		mov	r1, r5
 3224 0234 3046     		mov	r0, r6
 3225 0236 FFF7FEFF 		bl	TIM_ARRPreloadConfig
 3226              	.LVL246:
 3227              		.loc 1 287 0
 3228 023a 2946     		mov	r1, r5
 3229 023c 6548     		ldr	r0, .L259+140
 3230 023e FFF7FEFF 		bl	RCC_AHB1PeriphClockCmd
 3231              	.LVL247:
 3232              		.loc 1 288 0
 3233 0242 2946     		mov	r1, r5
 3234 0244 4FF4E060 		mov	r0, #1792
 3235 0248 FFF7FEFF 		bl	RCC_APB2PeriphClockCmd
 3236              	.LVL248:
 3237              		.loc 1 290 0
 3238 024c 2346     		mov	r3, r4
 3239 024e 624A     		ldr	r2, .L259+144
 3240 0250 6248     		ldr	r0, .L259+148
 3241 0252 0521     		movs	r1, #5
 3242 0254 FFF7FEFF 		bl	dmaStreamAllocate
 3243              	.LVL249:
 3244              		.loc 1 297 0
 3245 0258 614B     		ldr	r3, .L259+152
 3246              		.loc 1 298 0
 3247 025a 6249     		ldr	r1, .L259+156
 3248              		.loc 1 297 0
 3249 025c 2193     		str	r3, [sp, #132]
ARM GAS  /tmp/ccTWrjJD.s 			page 58


 3250              		.loc 1 302 0
 3251 025e 4FF48062 		mov	r2, #1024
 3252              		.loc 1 303 0
 3253 0262 4FF40063 		mov	r3, #2048
 3254              		.loc 1 298 0
 3255 0266 2091     		str	r1, [sp, #128]
 3256              		.loc 1 304 0
 3257 0268 4FF40051 		mov	r1, #8192
 3258              		.loc 1 300 0
 3259 026c 4FF0120B 		mov	fp, #18
 3260              		.loc 1 311 0
 3261 0270 5D48     		ldr	r0, .L259+160
 3262              		.loc 1 302 0
 3263 0272 2592     		str	r2, [sp, #148]
 3264              		.loc 1 303 0
 3265 0274 2693     		str	r3, [sp, #152]
 3266              		.loc 1 305 0
 3267 0276 4FF48072 		mov	r2, #256
 3268              		.loc 1 306 0
 3269 027a 4FF40033 		mov	r3, #131072
 3270              		.loc 1 304 0
 3271 027e 2791     		str	r1, [sp, #156]
 3272              		.loc 1 311 0
 3273 0280 1FA9     		add	r1, sp, #124
 3274              		.loc 1 306 0
 3275 0282 CDE92823 		strd	r2, r3, [sp, #160]
 3276              		.loc 1 296 0
 3277 0286 1F94     		str	r4, [sp, #124]
 3278              		.loc 1 299 0
 3279 0288 2294     		str	r4, [sp, #136]
 3280              		.loc 1 301 0
 3281 028a 2494     		str	r4, [sp, #144]
 3282              		.loc 1 308 0
 3283 028c CDE92A44 		strd	r4, r4, [sp, #168]
 3284              		.loc 1 310 0
 3285 0290 CDE92C44 		strd	r4, r4, [sp, #176]
 3286              		.loc 1 300 0
 3287 0294 CDF88CB0 		str	fp, [sp, #140]
 3288              		.loc 1 311 0
 3289 0298 FFF7FEFF 		bl	DMA_Init
 3290              	.LVL250:
 3291              		.loc 1 314 0
 3292 029c 2946     		mov	r1, r5
 3293 029e 5248     		ldr	r0, .L259+160
 3294 02a0 FFF7FEFF 		bl	DMA_Cmd
 3295              	.LVL251:
 3296              		.loc 1 317 0
 3297 02a4 2A46     		mov	r2, r5
 3298 02a6 1021     		movs	r1, #16
 3299 02a8 4F48     		ldr	r0, .L259+160
 3300 02aa FFF7FEFF 		bl	DMA_ITConfig
 3301              	.LVL252:
 3302              		.loc 1 322 0
 3303 02ae 1622     		movs	r2, #22
 3304              		.loc 1 324 0
 3305 02b0 4FF48043 		mov	r3, #16384
 3306              		.loc 1 326 0
ARM GAS  /tmp/ccTWrjJD.s 			page 59


 3307 02b4 09A8     		add	r0, sp, #36
 3308              		.loc 1 322 0
 3309 02b6 0992     		str	r2, [sp, #36]
 3310              		.loc 1 324 0
 3311 02b8 0B93     		str	r3, [sp, #44]
 3312              		.loc 1 335 0
 3313 02ba 4FF00609 		mov	r9, #6
 3314              		.loc 1 323 0
 3315 02be 0A94     		str	r4, [sp, #40]
 3316              		.loc 1 325 0
 3317 02c0 0C94     		str	r4, [sp, #48]
 3318              		.loc 1 326 0
 3319 02c2 FFF7FEFF 		bl	ADC_CommonInit
 3320              	.LVL253:
 3321              		.loc 1 333 0
 3322 02c6 4FF05063 		mov	r3, #218103808
 3323              		.loc 1 337 0
 3324 02ca 12A9     		add	r1, sp, #72
 3325 02cc 4748     		ldr	r0, .L259+164
 3326              		.loc 1 330 0
 3327 02ce 8DF84C50 		strb	r5, [sp, #76]
 3328              		.loc 1 333 0
 3329 02d2 CDE91534 		strd	r3, r4, [sp, #84]
 3330              		.loc 1 332 0
 3331 02d6 CDF850A0 		str	r10, [sp, #80]
 3332              		.loc 1 329 0
 3333 02da 1294     		str	r4, [sp, #72]
 3334              		.loc 1 331 0
 3335 02dc 8DF84D40 		strb	r4, [sp, #77]
 3336              		.loc 1 335 0
 3337 02e0 8DF85C90 		strb	r9, [sp, #92]
 3338              		.loc 1 337 0
 3339 02e4 FFF7FEFF 		bl	ADC_Init
 3340              	.LVL254:
 3341              		.loc 1 340 0
 3342 02e8 12A9     		add	r1, sp, #72
 3343 02ea 4148     		ldr	r0, .L259+168
 3344              		.loc 1 339 0
 3345 02ec CDE91444 		strd	r4, r4, [sp, #80]
 3346              		.loc 1 340 0
 3347 02f0 FFF7FEFF 		bl	ADC_Init
 3348              	.LVL255:
 3349              		.loc 1 341 0
 3350 02f4 12A9     		add	r1, sp, #72
 3351 02f6 3F48     		ldr	r0, .L259+172
 3352 02f8 FFF7FEFF 		bl	ADC_Init
 3353              	.LVL256:
 3354              		.loc 1 344 0
 3355 02fc 2846     		mov	r0, r5
 3356 02fe FFF7FEFF 		bl	ADC_TempSensorVrefintCmd
 3357              	.LVL257:
 3358              		.loc 1 347 0
 3359 0302 2846     		mov	r0, r5
 3360 0304 FFF7FEFF 		bl	ADC_MultiModeDMARequestAfterLastTransferCmd
 3361              	.LVL258:
 3362              		.loc 1 350 0
 3363 0308 2146     		mov	r1, r4
ARM GAS  /tmp/ccTWrjJD.s 			page 60


 3364 030a 3848     		ldr	r0, .L259+164
 3365 030c FFF7FEFF 		bl	ADC_ExternalTrigInjectedConvConfig
 3366              	.LVL259:
 3367              		.loc 1 351 0
 3368 0310 4FF44021 		mov	r1, #786432
 3369 0314 3648     		ldr	r0, .L259+168
 3370 0316 FFF7FEFF 		bl	ADC_ExternalTrigInjectedConvConfig
 3371              	.LVL260:
 3372              		.loc 1 353 0
 3373 031a 4FF45021 		mov	r1, #851968
 3374 031e 3548     		ldr	r0, .L259+172
 3375 0320 FFF7FEFF 		bl	ADC_ExternalTrigInjectedConvConfig
 3376              	.LVL261:
 3377              		.loc 1 355 0
 3378 0324 4FF40011 		mov	r1, #2097152
 3379 0328 3048     		ldr	r0, .L259+164
 3380 032a FFF7FEFF 		bl	ADC_ExternalTrigInjectedConvEdgeConfig
 3381              	.LVL262:
 3382              		.loc 1 356 0
 3383 032e 4FF40011 		mov	r1, #2097152
 3384 0332 2F48     		ldr	r0, .L259+168
 3385 0334 FFF7FEFF 		bl	ADC_ExternalTrigInjectedConvEdgeConfig
 3386              	.LVL263:
 3387              		.loc 1 358 0
 3388 0338 4FF40011 		mov	r1, #2097152
 3389 033c 2D48     		ldr	r0, .L259+172
 3390 033e FFF7FEFF 		bl	ADC_ExternalTrigInjectedConvEdgeConfig
 3391              	.LVL264:
 3392              		.loc 1 360 0
 3393 0342 0321     		movs	r1, #3
 3394 0344 76E0     		b	.L260
 3395              	.L261:
 3396 0346 00BF     		.align	2
 3397              	.L259:
 3398 0348 00000000 		.word	.LANCHOR0
 3399 034c 00000000 		.word	0
 3400 0350 00000140 		.word	1073807360
 3401 0354 00040140 		.word	1073808384
 3402 0358 00000000 		.word	.LANCHOR30
 3403 035c 00000000 		.word	.LANCHOR35
 3404 0360 00000000 		.word	.LANCHOR19
 3405 0364 00000000 		.word	.LANCHOR36
 3406 0368 00000000 		.word	.LANCHOR37
 3407 036c 00000000 		.word	.LANCHOR12
 3408 0370 00000000 		.word	.LANCHOR2
 3409 0374 00000000 		.word	.LANCHOR39
 3410 0378 00000000 		.word	.LANCHOR40
 3411 037c 00000000 		.word	.LANCHOR11
 3412 0380 00000000 		.word	.LANCHOR1
 3413 0384 00000000 		.word	.LANCHOR42
 3414 0388 00000000 		.word	.LANCHOR8
 3415 038c 00000000 		.word	.LANCHOR44
 3416 0390 00000000 		.word	.LANCHOR45
 3417 0394 00000000 		.word	.LANCHOR25
 3418 0398 00000000 		.word	.LANCHOR46
 3419 039c 00000000 		.word	.LANCHOR47
 3420 03a0 00000000 		.word	.LANCHOR24
ARM GAS  /tmp/ccTWrjJD.s 			page 61


 3421 03a4 00000000 		.word	.LANCHOR9
 3422 03a8 0AD7A33C 		.word	1017370378
 3423 03ac 00000000 		.word	.LANCHOR49
 3424 03b0 00000000 		.word	.LANCHOR15
 3425 03b4 9A99193E 		.word	1041865114
 3426 03b8 00000000 		.word	.LANCHOR50
 3427 03bc 007A030A 		.word	168000000
 3428 03c0 60000100 		.word	65632
 3429 03c4 00010002 		.word	33554688
 3430 03c8 A037204D 		.word	1293957024
 3431 03cc 00002544 		.word	1143275520
 3432 03d0 00080004 		.word	67110912
 3433 03d4 05004000 		.word	4194309
 3434 03d8 00000000 		.word	mcpwm_adc_int_handler
 3435 03dc 90000000 		.word	_stm32_dma_streams+144
 3436 03e0 00000000 		.word	ADC_Value
 3437 03e4 08230140 		.word	1073816328
 3438 03e8 70640240 		.word	1073898608
 3439 03ec 00200140 		.word	1073815552
 3440 03f0 00210140 		.word	1073815808
 3441 03f4 00220140 		.word	1073816064
 3442 03f8 00000000 		.word	.LANCHOR3
 3443 03fc 00000000 		.word	.LANCHOR34
 3444 0400 00000000 		.word	.LANCHOR6
 3445 0404 00000000 		.word	.LANCHOR4
 3446 0408 00000000 		.word	.LANCHOR21
 3447 040c 00000000 		.word	.LANCHOR38
 3448 0410 00000000 		.word	.LANCHOR10
 3449 0414 00000000 		.word	.LANCHOR41
 3450 0418 00000000 		.word	.LANCHOR28
 3451 041c 00000000 		.word	.LANCHOR43
 3452 0420 00000000 		.word	.LANCHOR27
 3453 0424 00000000 		.word	.LANCHOR26
 3454 0428 00000000 		.word	.LANCHOR18
 3455 042c 00000000 		.word	.LANCHOR29
 3456 0430 00000000 		.word	.LANCHOR48
 3457              	.L260:
 3458 0434 6C48     		ldr	r0, .L262
 3459 0436 FFF7FEFF 		bl	ADC_InjectedSequencerLengthConfig
 3460              	.LVL265:
 3461              		.loc 1 361 0
 3462 043a 0321     		movs	r1, #3
 3463 043c 6B48     		ldr	r0, .L262+4
 3464 043e FFF7FEFF 		bl	ADC_InjectedSequencerLengthConfig
 3465              	.LVL266:
 3466              		.loc 1 363 0
 3467 0442 0321     		movs	r1, #3
 3468 0444 6A48     		ldr	r0, .L262+8
 3469 0446 FFF7FEFF 		bl	ADC_InjectedSequencerLengthConfig
 3470              	.LVL267:
 3471              		.loc 1 366 0
 3472 044a FFF7FEFF 		bl	hw_setup_adc_channels
 3473              	.LVL268:
 3474              		.loc 1 369 0
 3475 044e 2A46     		mov	r2, r5
 3476 0450 40F20741 		movw	r1, #1031
 3477 0454 6448     		ldr	r0, .L262
ARM GAS  /tmp/ccTWrjJD.s 			page 62


 3478 0456 FFF7FEFF 		bl	ADC_ITConfig
 3479              	.LVL269:
 3480              		.loc 1 370 0
 3481 045a 4946     		mov	r1, r9
 3482 045c 5846     		mov	r0, fp
 3483 045e FFF7FEFF 		bl	nvicEnableVector
 3484              	.LVL270:
 3485              		.loc 1 373 0
 3486 0462 2946     		mov	r1, r5
 3487 0464 6048     		ldr	r0, .L262
 3488 0466 FFF7FEFF 		bl	ADC_Cmd
 3489              	.LVL271:
 3490              		.loc 1 376 0
 3491 046a 2946     		mov	r1, r5
 3492 046c 5F48     		ldr	r0, .L262+4
 3493 046e FFF7FEFF 		bl	ADC_Cmd
 3494              	.LVL272:
 3495              		.loc 1 379 0
 3496 0472 2946     		mov	r1, r5
 3497 0474 5E48     		ldr	r0, .L262+8
 3498 0476 FFF7FEFF 		bl	ADC_Cmd
 3499              	.LVL273:
 3500              		.loc 1 383 0
 3501 047a 2946     		mov	r1, r5
 3502 047c 0220     		movs	r0, #2
 3503 047e FFF7FEFF 		bl	RCC_APB2PeriphClockCmd
 3504              	.LVL274:
 3505              		.loc 1 386 0
 3506 0482 4FF6FF73 		movw	r3, #65535
 3507              		.loc 1 390 0
 3508 0486 02A9     		add	r1, sp, #8
 3509 0488 3846     		mov	r0, r7
 3510              		.loc 1 386 0
 3511 048a 0393     		str	r3, [sp, #12]
 3512              		.loc 1 385 0
 3513 048c 0294     		str	r4, [sp, #8]
 3514              		.loc 1 387 0
 3515 048e ADF81040 		strh	r4, [sp, #16]	@ movhi
 3516              		.loc 1 388 0
 3517 0492 8DF81240 		strb	r4, [sp, #18]
 3518              		.loc 1 390 0
 3519 0496 FFF7FEFF 		bl	TIM_TimeBaseInit
 3520              	.LVL275:
 3521              		.loc 1 392 0
 3522 049a 564A     		ldr	r2, .L262+12
 3523 049c 0D92     		str	r2, [sp, #52]
 3524              		.loc 1 396 0
 3525 049e 564A     		ldr	r2, .L262+16
 3526              		.loc 1 394 0
 3527 04a0 4FF4FA73 		mov	r3, #500
 3528              		.loc 1 399 0
 3529 04a4 0DA9     		add	r1, sp, #52
 3530 04a6 3846     		mov	r0, r7
 3531              		.loc 1 394 0
 3532 04a8 CDE91042 		strd	r4, r2, [sp, #64]
 3533 04ac 0F93     		str	r3, [sp, #60]
 3534              		.loc 1 399 0
ARM GAS  /tmp/ccTWrjJD.s 			page 63


 3535 04ae FFF7FEFF 		bl	TIM_OC1Init
 3536              	.LVL276:
 3537              		.loc 1 400 0
 3538 04b2 3846     		mov	r0, r7
 3539 04b4 0821     		movs	r1, #8
 3540 04b6 FFF7FEFF 		bl	TIM_OC1PreloadConfig
 3541              	.LVL277:
 3542              		.loc 1 401 0
 3543 04ba 0DA9     		add	r1, sp, #52
 3544 04bc 3846     		mov	r0, r7
 3545 04be FFF7FEFF 		bl	TIM_OC2Init
 3546              	.LVL278:
 3547              		.loc 1 402 0
 3548 04c2 3846     		mov	r0, r7
 3549 04c4 0821     		movs	r1, #8
 3550 04c6 FFF7FEFF 		bl	TIM_OC2PreloadConfig
 3551              	.LVL279:
 3552              		.loc 1 403 0
 3553 04ca 0DA9     		add	r1, sp, #52
 3554 04cc 3846     		mov	r0, r7
 3555 04ce FFF7FEFF 		bl	TIM_OC3Init
 3556              	.LVL280:
 3557              		.loc 1 404 0
 3558 04d2 3846     		mov	r0, r7
 3559 04d4 0821     		movs	r1, #8
 3560 04d6 FFF7FEFF 		bl	TIM_OC3PreloadConfig
 3561              	.LVL281:
 3562              		.loc 1 406 0
 3563 04da 2946     		mov	r1, r5
 3564 04dc 3846     		mov	r0, r7
 3565 04de FFF7FEFF 		bl	TIM_ARRPreloadConfig
 3566              	.LVL282:
 3567              		.loc 1 407 0
 3568 04e2 2946     		mov	r1, r5
 3569 04e4 3846     		mov	r0, r7
 3570 04e6 FFF7FEFF 		bl	TIM_CCPreloadControl
 3571              	.LVL283:
 3572              		.loc 1 410 0
 3573 04ea 2946     		mov	r1, r5
 3574 04ec 3846     		mov	r0, r7
 3575 04ee FFF7FEFF 		bl	TIM_CtrlPWMOutputs
 3576              	.LVL284:
 3577              		.loc 1 413 0
 3578 04f2 3046     		mov	r0, r6
 3579 04f4 2021     		movs	r1, #32
 3580 04f6 FFF7FEFF 		bl	TIM_SelectOutputTrigger
 3581              	.LVL285:
 3582              		.loc 1 414 0
 3583 04fa 3046     		mov	r0, r6
 3584 04fc 8021     		movs	r1, #128
 3585 04fe FFF7FEFF 		bl	TIM_SelectMasterSlaveMode
 3586              	.LVL286:
 3587              		.loc 1 415 0
 3588 0502 2146     		mov	r1, r4
 3589 0504 3846     		mov	r0, r7
 3590 0506 FFF7FEFF 		bl	TIM_SelectInputTrigger
 3591              	.LVL287:
ARM GAS  /tmp/ccTWrjJD.s 			page 64


 3592              		.loc 1 416 0
 3593 050a 4146     		mov	r1, r8
 3594 050c 3846     		mov	r0, r7
 3595 050e FFF7FEFF 		bl	TIM_SelectSlaveMode
 3596              	.LVL288:
 3597              		.loc 1 419 0
 3598 0512 2946     		mov	r1, r5
 3599 0514 3046     		mov	r0, r6
 3600 0516 FFF7FEFF 		bl	TIM_Cmd
 3601              	.LVL289:
 3602              		.loc 1 420 0
 3603 051a 2946     		mov	r1, r5
 3604 051c 3846     		mov	r0, r7
 3605 051e FFF7FEFF 		bl	TIM_Cmd
 3606              	.LVL290:
 3607              		.loc 1 423 0
 3608 0522 2946     		mov	r1, r5
 3609 0524 3046     		mov	r0, r6
 3610 0526 FFF7FEFF 		bl	TIM_CtrlPWMOutputs
 3611              	.LVL291:
 3612              		.loc 1 426 0
 3613 052a FFF7FEFF 		bl	stop_pwm_hw
 3614              	.LVL292:
 3615              		.loc 1 428 0
 3616 052e F36A     		ldr	r3, [r6, #44]
 3617 0530 1993     		str	r3, [sp, #100]
 3618              		.loc 1 429 0
 3619 0532 F36A     		ldr	r3, [r6, #44]
 3620              		.loc 1 430 0
 3621 0534 18A8     		add	r0, sp, #96
 3622              		.loc 1 429 0
 3623 0536 EB40     		lsrs	r3, r3, r5
 3624 0538 1A93     		str	r3, [sp, #104]
 3625              		.loc 1 430 0
 3626 053a FFF7FEFF 		bl	update_adc_sample_pos
 3627              	.LVL293:
 3628              		.loc 1 431 0
 3629 053e 18A8     		add	r0, sp, #96
 3630 0540 FFF7FEFF 		bl	set_next_timer_settings
 3631              	.LVL294:
 3632              		.loc 1 433 0
 3633 0544 FFF7FEFF 		bl	utils_sys_unlock_cnt
 3634              	.LVL295:
 3635              	.LBB107:
 3636              	.LBB108:
 3637              		.loc 1 534 0
 3638 0548 42F21070 		movw	r0, #10000
 3639 054c FFF7FEFF 		bl	chThdSleep
 3640              	.LVL296:
 3641              		.loc 1 536 0
 3642 0550 2A4D     		ldr	r5, .L262+20
 3643              		.loc 1 535 0
 3644 0552 2B48     		ldr	r0, .L262+24
 3645              		.loc 1 539 0
 3646 0554 2B49     		ldr	r1, .L262+28
 3647              		.loc 1 542 0
 3648 0556 2C4A     		ldr	r2, .L262+32
ARM GAS  /tmp/ccTWrjJD.s 			page 65


 3649              		.loc 1 535 0
 3650 0558 0460     		str	r4, [r0]
 3651              		.loc 1 536 0
 3652 055a 2C60     		str	r4, [r5]
 3653              		.loc 1 539 0
 3654 055c 0C60     		str	r4, [r1]
 3655              		.loc 1 542 0
 3656 055e 1460     		str	r4, [r2]
 3657              	.L252:
 3658              		.loc 1 543 0
 3659 0560 1368     		ldr	r3, [r2]
 3660 0562 B3F57A6F 		cmp	r3, #4000
 3661 0566 FBDB     		blt	.L252
 3662              		.loc 1 544 0
 3663 0568 284E     		ldr	r6, .L262+36
 3664              		.loc 1 545 0
 3665 056a 294C     		ldr	r4, .L262+40
 3666              		.loc 1 544 0
 3667 056c 0368     		ldr	r3, [r0]
 3668 056e 1068     		ldr	r0, [r2]
 3669 0570 93FBF0F3 		sdiv	r3, r3, r0
 3670 0574 3360     		str	r3, [r6]
 3671              		.loc 1 545 0
 3672 0576 2B68     		ldr	r3, [r5]
 3673 0578 1568     		ldr	r5, [r2]
 3674 057a 93FBF5F3 		sdiv	r3, r3, r5
 3675 057e 2360     		str	r3, [r4]
 3676              	.LBE108:
 3677              	.LBE107:
 3678              		.loc 1 443 0
 3679 0580 0024     		movs	r4, #0
 3680              		.loc 1 445 0
 3681 0582 0094     		str	r4, [sp]
 3682              	.LBB111:
 3683              	.LBB109:
 3684              		.loc 1 548 0
 3685 0584 0B68     		ldr	r3, [r1]
 3686 0586 2348     		ldr	r0, .L262+44
 3687              		.loc 1 552 0
 3688 0588 2349     		ldr	r1, .L262+48
 3689              	.LBE109:
 3690              	.LBE111:
 3691              		.loc 1 443 0
 3692 058a 244D     		ldr	r5, .L262+52
 3693              		.loc 1 444 0
 3694 058c 244E     		ldr	r6, .L262+56
 3695              	.LBB112:
 3696              	.LBB110:
 3697              		.loc 1 548 0
 3698 058e 1268     		ldr	r2, [r2]
 3699 0590 93FBF2F3 		sdiv	r3, r3, r2
 3700              		.loc 1 552 0
 3701 0594 0122     		movs	r2, #1
 3702              		.loc 1 548 0
 3703 0596 0360     		str	r3, [r0]
 3704              		.loc 1 552 0
 3705 0598 0A70     		strb	r2, [r1]
ARM GAS  /tmp/ccTWrjJD.s 			page 66


 3706              	.LBE110:
 3707              	.LBE112:
 3708              		.loc 1 445 0
 3709 059a 224B     		ldr	r3, .L262+60
 3710              		.loc 1 443 0
 3711 059c 2C70     		strb	r4, [r5]
 3712              		.loc 1 445 0
 3713 059e 4022     		movs	r2, #64
 3714 05a0 4FF46871 		mov	r1, #928
 3715 05a4 2048     		ldr	r0, .L262+64
 3716              		.loc 1 444 0
 3717 05a6 3470     		strb	r4, [r6]
 3718              		.loc 1 445 0
 3719 05a8 FFF7FEFF 		bl	chThdCreateStatic
 3720              	.LVL297:
 3721              		.loc 1 446 0
 3722 05ac 1F4B     		ldr	r3, .L262+68
 3723 05ae 0094     		str	r4, [sp]
 3724 05b0 4022     		movs	r2, #64
 3725 05b2 4FF46871 		mov	r1, #928
 3726 05b6 1E48     		ldr	r0, .L262+72
 3727 05b8 FFF7FEFF 		bl	chThdCreateStatic
 3728              	.LVL298:
 3729              		.loc 1 449 0
 3730 05bc FFF7FEFF 		bl	timeout_had_IWDG_reset
 3731              	.LVL299:
 3732 05c0 20B1     		cbz	r0, .L253
 3733              		.loc 1 450 0
 3734 05c2 2246     		mov	r2, r4
 3735 05c4 2146     		mov	r1, r4
 3736 05c6 0A20     		movs	r0, #10
 3737 05c8 FFF7FEFF 		bl	mc_interface_fault_stop
 3738              	.LVL300:
 3739              	.L253:
 3740              		.loc 1 454 0
 3741 05cc 1949     		ldr	r1, .L262+76
 3742 05ce 0023     		movs	r3, #0
 3743 05d0 0B60     		str	r3, [r1]
 3744              		.loc 1 455 0
 3745 05d2 1949     		ldr	r1, .L262+80
 3746 05d4 0B60     		str	r3, [r1]
 3747              		.loc 1 457 0
 3748 05d6 194B     		ldr	r3, .L262+84
 3749 05d8 0122     		movs	r2, #1
 3750 05da 1A70     		strb	r2, [r3]
 3751              		.loc 1 458 0
 3752 05dc 2FB0     		add	sp, sp, #188
 3753              		.cfi_def_cfa_offset 44
 3754              		@ sp needed
 3755 05de BDEC028B 		vldm	sp!, {d8}
 3756              		.cfi_restore 80
 3757              		.cfi_restore 81
 3758              		.cfi_def_cfa_offset 36
 3759 05e2 BDE8F08F 		pop	{r4, r5, r6, r7, r8, r9, r10, fp, pc}
 3760              	.L263:
 3761 05e6 00BF     		.align	2
 3762              	.L262:
ARM GAS  /tmp/ccTWrjJD.s 			page 67


 3763 05e8 00200140 		.word	1073815552
 3764 05ec 00210140 		.word	1073815808
 3765 05f0 00220140 		.word	1073816064
 3766 05f4 60000100 		.word	65632
 3767 05f8 00010002 		.word	33554688
 3768 05fc 00000000 		.word	.LANCHOR52
 3769 0600 00000000 		.word	.LANCHOR51
 3770 0604 00000000 		.word	.LANCHOR53
 3771 0608 00000000 		.word	.LANCHOR54
 3772 060c 00000000 		.word	.LANCHOR55
 3773 0610 00000000 		.word	.LANCHOR56
 3774 0614 00000000 		.word	.LANCHOR57
 3775 0618 00000000 		.word	.LANCHOR46
 3776 061c 00000000 		.word	.LANCHOR13
 3777 0620 00000000 		.word	.LANCHOR31
 3778 0624 00000000 		.word	timer_thread
 3779 0628 00000000 		.word	.LANCHOR58
 3780 062c 00000000 		.word	rpm_thread
 3781 0630 00000000 		.word	.LANCHOR59
 3782 0634 00000000 		.word	.LANCHOR12
 3783 0638 00000000 		.word	.LANCHOR11
 3784 063c 00000000 		.word	.LANCHOR30
 3785              		.cfi_endproc
 3786              	.LFE259:
 3787              		.size	mcpwm_init, .-mcpwm_init
 3788              		.section	.text.mcpwm_set_configuration,"ax",%progbits
 3789              		.align	1
 3790              		.p2align 4,,15
 3791              		.global	mcpwm_set_configuration
 3792              		.syntax unified
 3793              		.thumb
 3794              		.thumb_func
 3795              		.fpu fpv4-sp-d16
 3796              		.type	mcpwm_set_configuration, %function
 3797              	mcpwm_set_configuration:
 3798              	.LFB262:
 3799              		.loc 1 486 0
 3800              		.cfi_startproc
 3801              		@ args = 0, pretend = 0, frame = 0
 3802              		@ frame_needed = 0, uses_anonymous_args = 0
 3803              	.LVL301:
 3804 0000 38B5     		push	{r3, r4, r5, lr}
 3805              		.cfi_def_cfa_offset 16
 3806              		.cfi_offset 3, -16
 3807              		.cfi_offset 4, -12
 3808              		.cfi_offset 5, -8
 3809              		.cfi_offset 14, -4
 3810              	.LBB113:
 3811              	.LBB114:
 3812              		.loc 1 911 0
 3813 0002 0F49     		ldr	r1, .L266
 3814              		.loc 1 912 0
 3815 0004 0F4A     		ldr	r2, .L266+4
 3816              	.LBE114:
 3817              	.LBE113:
 3818              		.loc 1 486 0
 3819 0006 0446     		mov	r4, r0
ARM GAS  /tmp/ccTWrjJD.s 			page 68


 3820              		.loc 1 488 0
 3821 0008 0F48     		ldr	r0, .L266+8
 3822              	.LVL302:
 3823              	.LBB117:
 3824              	.LBB115:
 3825              		.loc 1 911 0
 3826 000a 0023     		movs	r3, #0
 3827              	.LBE115:
 3828              	.LBE117:
 3829              		.loc 1 488 0
 3830 000c 0A25     		movs	r5, #10
 3831 000e 0570     		strb	r5, [r0]
 3832              	.LBB118:
 3833              	.LBB116:
 3834              		.loc 1 911 0
 3835 0010 0B70     		strb	r3, [r1]
 3836              		.loc 1 912 0
 3837 0012 1360     		str	r3, [r2]
 3838              		.loc 1 913 0
 3839 0014 FFF7FEFF 		bl	stop_pwm_hw
 3840              	.LVL303:
 3841              	.LBE116:
 3842              	.LBE118:
 3843              		.loc 1 491 0
 3844 0018 FFF7FEFF 		bl	utils_sys_lock_cnt
 3845              	.LVL304:
 3846              		.loc 1 493 0
 3847 001c 94F88530 		ldrb	r3, [r4, #133]	@ zero_extendqisi2
 3848              		.loc 1 492 0
 3849 0020 0A49     		ldr	r1, .L266+12
 3850              		.loc 1 493 0
 3851 0022 0B4A     		ldr	r2, .L266+16
 3852              		.loc 1 492 0
 3853 0024 0C60     		str	r4, [r1]
 3854              		.loc 1 493 0
 3855 0026 DBB2     		uxtb	r3, r3
 3856              		.loc 1 494 0
 3857 0028 04F1A400 		add	r0, r4, #164
 3858              		.loc 1 493 0
 3859 002c 1370     		strb	r3, [r2]
 3860              		.loc 1 494 0
 3861 002e FFF7FEFF 		bl	mcpwm_init_hall_table
 3862              	.LVL305:
 3863              		.loc 1 495 0
 3864 0032 FFF7FEFF 		bl	update_sensor_mode
 3865              	.LVL306:
 3866              		.loc 1 497 0
 3867 0036 BDE83840 		pop	{r3, r4, r5, lr}
 3868              		.cfi_restore 14
 3869              		.cfi_restore 5
 3870              		.cfi_restore 4
 3871              		.cfi_restore 3
 3872              		.cfi_def_cfa_offset 0
 3873              	.LVL307:
 3874              		.loc 1 496 0
 3875 003a FFF7FEBF 		b	utils_sys_unlock_cnt
 3876              	.LVL308:
ARM GAS  /tmp/ccTWrjJD.s 			page 69


 3877              	.L267:
 3878 003e 00BF     		.align	2
 3879              	.L266:
 3880 0040 00000000 		.word	.LANCHOR2
 3881 0044 00000000 		.word	.LANCHOR42
 3882 0048 00000000 		.word	.LANCHOR39
 3883 004c 00000000 		.word	.LANCHOR0
 3884 0050 00000000 		.word	.LANCHOR29
 3885              		.cfi_endproc
 3886              	.LFE262:
 3887              		.size	mcpwm_set_configuration, .-mcpwm_set_configuration
 3888              		.section	.text.mcpwm_set_pid_speed,"ax",%progbits
 3889              		.align	1
 3890              		.p2align 4,,15
 3891              		.global	mcpwm_set_pid_speed
 3892              		.syntax unified
 3893              		.thumb
 3894              		.thumb_func
 3895              		.fpu fpv4-sp-d16
 3896              		.type	mcpwm_set_pid_speed, %function
 3897              	mcpwm_set_pid_speed:
 3898              	.LFB268:
 3899              		.loc 1 607 0
 3900              		.cfi_startproc
 3901              		@ args = 0, pretend = 0, frame = 0
 3902              		@ frame_needed = 0, uses_anonymous_args = 0
 3903              		@ link register save eliminated.
 3904              	.LVL309:
 3905              		.loc 1 608 0
 3906 0000 034A     		ldr	r2, .L269
 3907              		.loc 1 609 0
 3908 0002 044B     		ldr	r3, .L269+4
 3909              		.loc 1 608 0
 3910 0004 0121     		movs	r1, #1
 3911 0006 1170     		strb	r1, [r2]
 3912              		.loc 1 609 0
 3913 0008 83ED000A 		vstr.32	s0, [r3]
 3914              		.loc 1 610 0
 3915 000c 7047     		bx	lr
 3916              	.L270:
 3917 000e 00BF     		.align	2
 3918              	.L269:
 3919 0010 00000000 		.word	.LANCHOR39
 3920 0014 00000000 		.word	.LANCHOR36
 3921              		.cfi_endproc
 3922              	.LFE268:
 3923              		.size	mcpwm_set_pid_speed, .-mcpwm_set_pid_speed
 3924              		.section	.text.mcpwm_release_motor,"ax",%progbits
 3925              		.align	1
 3926              		.p2align 4,,15
 3927              		.global	mcpwm_release_motor
 3928              		.syntax unified
 3929              		.thumb
 3930              		.thumb_func
 3931              		.fpu fpv4-sp-d16
 3932              		.type	mcpwm_release_motor, %function
 3933              	mcpwm_release_motor:
ARM GAS  /tmp/ccTWrjJD.s 			page 70


 3934              	.LFB271:
 3935              		.loc 1 654 0
 3936              		.cfi_startproc
 3937              		@ args = 0, pretend = 0, frame = 0
 3938              		@ frame_needed = 0, uses_anonymous_args = 0
 3939              		@ link register save eliminated.
 3940              		.loc 1 655 0
 3941 0000 074B     		ldr	r3, .L273
 3942              		.loc 1 656 0
 3943 0002 0848     		ldr	r0, .L273+4
 3944              	.LBB119:
 3945              	.LBB120:
 3946              		.loc 1 911 0
 3947 0004 0849     		ldr	r1, .L273+8
 3948              		.loc 1 912 0
 3949 0006 094A     		ldr	r2, .L273+12
 3950              	.LBE120:
 3951              	.LBE119:
 3952              		.loc 1 654 0
 3953 0008 10B4     		push	{r4}
 3954              		.cfi_def_cfa_offset 4
 3955              		.cfi_offset 4, -4
 3956              		.loc 1 655 0
 3957 000a 0024     		movs	r4, #0
 3958 000c 1C60     		str	r4, [r3]	@ float
 3959              		.loc 1 656 0
 3960 000e 0A24     		movs	r4, #10
 3961 0010 0470     		strb	r4, [r0]
 3962              	.LBB123:
 3963              	.LBB121:
 3964              		.loc 1 911 0
 3965 0012 0023     		movs	r3, #0
 3966              	.LBE121:
 3967              	.LBE123:
 3968              		.loc 1 658 0
 3969 0014 5DF8044B 		ldr	r4, [sp], #4
 3970              		.cfi_restore 4
 3971              		.cfi_def_cfa_offset 0
 3972              	.LBB124:
 3973              	.LBB122:
 3974              		.loc 1 911 0
 3975 0018 0B70     		strb	r3, [r1]
 3976              		.loc 1 912 0
 3977 001a 1360     		str	r3, [r2]
 3978              		.loc 1 913 0
 3979 001c FFF7FEBF 		b	stop_pwm_hw
 3980              	.LVL310:
 3981              	.L274:
 3982              		.align	2
 3983              	.L273:
 3984 0020 00000000 		.word	.LANCHOR38
 3985 0024 00000000 		.word	.LANCHOR39
 3986 0028 00000000 		.word	.LANCHOR2
 3987 002c 00000000 		.word	.LANCHOR42
 3988              	.LBE122:
 3989              	.LBE124:
 3990              		.cfi_endproc
ARM GAS  /tmp/ccTWrjJD.s 			page 71


 3991              	.LFE271:
 3992              		.size	mcpwm_release_motor, .-mcpwm_release_motor
 3993              		.section	.text.mcpwm_set_brake_current,"ax",%progbits
 3994              		.align	1
 3995              		.p2align 4,,15
 3996              		.global	mcpwm_set_brake_current
 3997              		.syntax unified
 3998              		.thumb
 3999              		.thumb_func
 4000              		.fpu fpv4-sp-d16
 4001              		.type	mcpwm_set_brake_current, %function
 4002              	mcpwm_set_brake_current:
 4003              	.LFB272:
 4004              		.loc 1 667 0
 4005              		.cfi_startproc
 4006              		@ args = 0, pretend = 0, frame = 8
 4007              		@ frame_needed = 0, uses_anonymous_args = 0
 4008              	.LVL311:
 4009 0000 30B5     		push	{r4, r5, lr}
 4010              		.cfi_def_cfa_offset 12
 4011              		.cfi_offset 4, -12
 4012              		.cfi_offset 5, -8
 4013              		.cfi_offset 14, -4
 4014              		.loc 1 668 0
 4015 0002 2E4C     		ldr	r4, .L300
 4016 0004 2368     		ldr	r3, [r4]
 4017 0006 D3ED837A 		vldr.32	s15, [r3, #524]
 4018 000a B0EEC07A 		vabs.f32	s14, s0
 4019 000e B4EEE77A 		vcmpe.f32	s14, s15
 4020              		.loc 1 667 0
 4021 0012 83B0     		sub	sp, sp, #12
 4022              		.cfi_def_cfa_offset 24
 4023              		.loc 1 668 0
 4024 0014 F1EE10FA 		vmrs	APSR_nzcv, FPSCR
 4025              		.loc 1 667 0
 4026 0018 8DED010A 		vstr.32	s0, [sp, #4]
 4027              		.loc 1 668 0
 4028 001c 2ED4     		bmi	.L298
 4029              		.loc 1 674 0
 4030 001e 93ED1C0A 		vldr.32	s0, [r3, #112]
 4031              	.LVL312:
 4032 0022 D3ED1C0A 		vldr.32	s1, [r3, #112]
 4033              		.loc 1 676 0
 4034 0026 264D     		ldr	r5, .L300+4
 4035              		.loc 1 674 0
 4036 0028 B0EEC00A 		vabs.f32	s0, s0
 4037 002c B1EE400A 		vneg.f32	s0, s0
 4038 0030 F0EEE00A 		vabs.f32	s1, s1
 4039 0034 01A8     		add	r0, sp, #4
 4040              	.LVL313:
 4041 0036 FFF7FEFF 		bl	utils_truncate_number
 4042              	.LVL314:
 4043              		.loc 1 677 0
 4044 003a 2249     		ldr	r1, .L300+8
 4045 003c 0198     		ldr	r0, [sp, #4]	@ float
 4046              		.loc 1 679 0
 4047 003e 224B     		ldr	r3, .L300+12
ARM GAS  /tmp/ccTWrjJD.s 			page 72


 4048              		.loc 1 676 0
 4049 0040 0322     		movs	r2, #3
 4050 0042 2A70     		strb	r2, [r5]
 4051              		.loc 1 677 0
 4052 0044 0860     		str	r0, [r1]	@ float
 4053              		.loc 1 679 0
 4054 0046 1978     		ldrb	r1, [r3]	@ zero_extendqisi2
 4055 0048 0229     		cmp	r1, #2
 4056 004a 15D0     		beq	.L275
 4057              		.loc 1 679 0 is_stmt 0 discriminator 1
 4058 004c 1978     		ldrb	r1, [r3]	@ zero_extendqisi2
 4059 004e 9142     		cmp	r1, r2
 4060 0050 12D0     		beq	.L275
 4061              		.loc 1 682 0 is_stmt 1
 4062 0052 2168     		ldr	r1, [r4]
 4063 0054 91F88600 		ldrb	r0, [r1, #134]	@ zero_extendqisi2
 4064 0058 0128     		cmp	r0, #1
 4065 005a 1BD0     		beq	.L299
 4066              		.loc 1 689 0
 4067 005c 1B48     		ldr	r0, .L300+16
 4068 005e D0ED007A 		vldr.32	s15, [r0]
 4069 0062 91ED087A 		vldr.32	s14, [r1, #32]
 4070 0066 F0EEE77A 		vabs.f32	s15, s15
 4071 006a F4EEC77A 		vcmpe.f32	s15, s14
 4072 006e F1EE10FA 		vmrs	APSR_nzcv, FPSCR
 4073 0072 1BDD     		ble	.L295
 4074              	.L297:
 4075              		.loc 1 690 0
 4076 0074 0222     		movs	r2, #2
 4077 0076 1A70     		strb	r2, [r3]
 4078              	.L275:
 4079              		.loc 1 696 0
 4080 0078 03B0     		add	sp, sp, #12
 4081              		.cfi_remember_state
 4082              		.cfi_def_cfa_offset 12
 4083              		@ sp needed
 4084 007a 30BD     		pop	{r4, r5, pc}
 4085              	.LVL315:
 4086              	.L298:
 4087              		.cfi_restore_state
 4088              		.loc 1 669 0
 4089 007c 1048     		ldr	r0, .L300+4
 4090              	.LBB125:
 4091              	.LBB126:
 4092              		.loc 1 911 0
 4093 007e 1249     		ldr	r1, .L300+12
 4094              		.loc 1 912 0
 4095 0080 134A     		ldr	r2, .L300+20
 4096              		.loc 1 911 0
 4097 0082 0023     		movs	r3, #0
 4098              	.LBE126:
 4099              	.LBE125:
 4100              		.loc 1 669 0
 4101 0084 0A24     		movs	r4, #10
 4102 0086 0470     		strb	r4, [r0]
 4103              	.LBB128:
 4104              	.LBB127:
ARM GAS  /tmp/ccTWrjJD.s 			page 73


 4105              		.loc 1 911 0
 4106 0088 0B70     		strb	r3, [r1]
 4107              		.loc 1 912 0
 4108 008a 1360     		str	r3, [r2]
 4109              		.loc 1 913 0
 4110 008c FFF7FEFF 		bl	stop_pwm_hw
 4111              	.LVL316:
 4112              	.LBE127:
 4113              	.LBE128:
 4114              		.loc 1 696 0
 4115 0090 03B0     		add	sp, sp, #12
 4116              		.cfi_remember_state
 4117              		.cfi_def_cfa_offset 12
 4118              		@ sp needed
 4119 0092 30BD     		pop	{r4, r5, pc}
 4120              	.L299:
 4121              		.cfi_restore_state
 4122              		.loc 1 683 0
 4123 0094 0F49     		ldr	r1, .L300+24
 4124 0096 9FED107A 		vldr.32	s14, .L300+28
 4125 009a D1ED007A 		vldr.32	s15, [r1]
 4126 009e F0EEE77A 		vabs.f32	s15, s15
 4127 00a2 F4EEC77A 		vcmpe.f32	s15, s14
 4128 00a6 F1EE10FA 		vmrs	APSR_nzcv, FPSCR
 4129 00aa E3DC     		bgt	.L297
 4130              	.L295:
 4131              	.LBB129:
 4132              	.LBB130:
 4133              		.loc 1 940 0
 4134 00ac 0849     		ldr	r1, .L300+20
 4135              		.loc 1 939 0
 4136 00ae 1A70     		strb	r2, [r3]
 4137              		.loc 1 940 0
 4138 00b0 0023     		movs	r3, #0
 4139 00b2 0B60     		str	r3, [r1]
 4140              		.loc 1 941 0
 4141 00b4 FFF7FEFF 		bl	full_brake_hw
 4142              	.LVL317:
 4143 00b8 DEE7     		b	.L275
 4144              	.L301:
 4145 00ba 00BF     		.align	2
 4146              	.L300:
 4147 00bc 00000000 		.word	.LANCHOR0
 4148 00c0 00000000 		.word	.LANCHOR39
 4149 00c4 00000000 		.word	.LANCHOR38
 4150 00c8 00000000 		.word	.LANCHOR2
 4151 00cc 00000000 		.word	.LANCHOR21
 4152 00d0 00000000 		.word	.LANCHOR42
 4153 00d4 00000000 		.word	.LANCHOR19
 4154 00d8 CDCCCC3D 		.word	1036831949
 4155              	.LBE130:
 4156              	.LBE129:
 4157              		.cfi_endproc
 4158              	.LFE272:
 4159              		.size	mcpwm_set_brake_current, .-mcpwm_set_brake_current
 4160              		.section	.text.mcpwm_get_comm_step,"ax",%progbits
 4161              		.align	1
ARM GAS  /tmp/ccTWrjJD.s 			page 74


 4162              		.p2align 4,,15
 4163              		.global	mcpwm_get_comm_step
 4164              		.syntax unified
 4165              		.thumb
 4166              		.thumb_func
 4167              		.fpu fpv4-sp-d16
 4168              		.type	mcpwm_get_comm_step, %function
 4169              	mcpwm_get_comm_step:
 4170              	.LFB273:
 4171              		.loc 1 704 0
 4172              		.cfi_startproc
 4173              		@ args = 0, pretend = 0, frame = 0
 4174              		@ frame_needed = 0, uses_anonymous_args = 0
 4175              		@ link register save eliminated.
 4176              		.loc 1 705 0
 4177 0000 014B     		ldr	r3, .L303
 4178 0002 1868     		ldr	r0, [r3]
 4179              		.loc 1 706 0
 4180 0004 7047     		bx	lr
 4181              	.L304:
 4182 0006 00BF     		.align	2
 4183              	.L303:
 4184 0008 00000000 		.word	.LANCHOR3
 4185              		.cfi_endproc
 4186              	.LFE273:
 4187              		.size	mcpwm_get_comm_step, .-mcpwm_get_comm_step
 4188              		.section	.text.mcpwm_get_duty_cycle_set,"ax",%progbits
 4189              		.align	1
 4190              		.p2align 4,,15
 4191              		.global	mcpwm_get_duty_cycle_set
 4192              		.syntax unified
 4193              		.thumb
 4194              		.thumb_func
 4195              		.fpu fpv4-sp-d16
 4196              		.type	mcpwm_get_duty_cycle_set, %function
 4197              	mcpwm_get_duty_cycle_set:
 4198              	.LFB274:
 4199              		.loc 1 708 0
 4200              		.cfi_startproc
 4201              		@ args = 0, pretend = 0, frame = 0
 4202              		@ frame_needed = 0, uses_anonymous_args = 0
 4203              		@ link register save eliminated.
 4204              		.loc 1 709 0
 4205 0000 014B     		ldr	r3, .L306
 4206 0002 93ED000A 		vldr.32	s0, [r3]
 4207              		.loc 1 710 0
 4208 0006 7047     		bx	lr
 4209              	.L307:
 4210              		.align	2
 4211              	.L306:
 4212 0008 00000000 		.word	.LANCHOR35
 4213              		.cfi_endproc
 4214              	.LFE274:
 4215              		.size	mcpwm_get_duty_cycle_set, .-mcpwm_get_duty_cycle_set
 4216              		.section	.text.mcpwm_get_duty_cycle_now,"ax",%progbits
 4217              		.align	1
 4218              		.p2align 4,,15
ARM GAS  /tmp/ccTWrjJD.s 			page 75


 4219              		.global	mcpwm_get_duty_cycle_now
 4220              		.syntax unified
 4221              		.thumb
 4222              		.thumb_func
 4223              		.fpu fpv4-sp-d16
 4224              		.type	mcpwm_get_duty_cycle_now, %function
 4225              	mcpwm_get_duty_cycle_now:
 4226              	.LFB275:
 4227              		.loc 1 712 0
 4228              		.cfi_startproc
 4229              		@ args = 0, pretend = 0, frame = 0
 4230              		@ frame_needed = 0, uses_anonymous_args = 0
 4231              		@ link register save eliminated.
 4232              		.loc 1 713 0
 4233 0000 014B     		ldr	r3, .L309
 4234 0002 93ED000A 		vldr.32	s0, [r3]
 4235              		.loc 1 714 0
 4236 0006 7047     		bx	lr
 4237              	.L310:
 4238              		.align	2
 4239              	.L309:
 4240 0008 00000000 		.word	.LANCHOR19
 4241              		.cfi_endproc
 4242              	.LFE275:
 4243              		.size	mcpwm_get_duty_cycle_now, .-mcpwm_get_duty_cycle_now
 4244              		.section	.text.mcpwm_get_switching_frequency_now,"ax",%progbits
 4245              		.align	1
 4246              		.p2align 4,,15
 4247              		.global	mcpwm_get_switching_frequency_now
 4248              		.syntax unified
 4249              		.thumb
 4250              		.thumb_func
 4251              		.fpu fpv4-sp-d16
 4252              		.type	mcpwm_get_switching_frequency_now, %function
 4253              	mcpwm_get_switching_frequency_now:
 4254              	.LFB276:
 4255              		.loc 1 722 0
 4256              		.cfi_startproc
 4257              		@ args = 0, pretend = 0, frame = 0
 4258              		@ frame_needed = 0, uses_anonymous_args = 0
 4259              		@ link register save eliminated.
 4260              		.loc 1 723 0
 4261 0000 014B     		ldr	r3, .L312
 4262 0002 93ED000A 		vldr.32	s0, [r3]
 4263              		.loc 1 724 0
 4264 0006 7047     		bx	lr
 4265              	.L313:
 4266              		.align	2
 4267              	.L312:
 4268 0008 00000000 		.word	.LANCHOR6
 4269              		.cfi_endproc
 4270              	.LFE276:
 4271              		.size	mcpwm_get_switching_frequency_now, .-mcpwm_get_switching_frequency_now
 4272              		.section	.text.mcpwm_get_rpm,"ax",%progbits
 4273              		.align	1
 4274              		.p2align 4,,15
 4275              		.global	mcpwm_get_rpm
ARM GAS  /tmp/ccTWrjJD.s 			page 76


 4276              		.syntax unified
 4277              		.thumb
 4278              		.thumb_func
 4279              		.fpu fpv4-sp-d16
 4280              		.type	mcpwm_get_rpm, %function
 4281              	mcpwm_get_rpm:
 4282              	.LFB277:
 4283              		.loc 1 734 0
 4284              		.cfi_startproc
 4285              		@ args = 0, pretend = 0, frame = 0
 4286              		@ frame_needed = 0, uses_anonymous_args = 0
 4287              		@ link register save eliminated.
 4288              		.loc 1 735 0
 4289 0000 074B     		ldr	r3, .L319
 4290 0002 1B68     		ldr	r3, [r3]
 4291 0004 93F88630 		ldrb	r3, [r3, #134]	@ zero_extendqisi2
 4292 0008 012B     		cmp	r3, #1
 4293 000a 01D0     		beq	.L318
 4294 000c FFF7FEBF 		b	mcpwm_get_rpm.part.0
 4295              	.LVL318:
 4296              	.L318:
 4297              		.loc 1 736 0
 4298 0010 044B     		ldr	r3, .L319+4
 4299 0012 DFED057A 		vldr.32	s15, .L319+8
 4300 0016 93ED000A 		vldr.32	s0, [r3]
 4301 001a 20EE270A 		vmul.f32	s0, s0, s15
 4302              		.loc 1 740 0
 4303 001e 7047     		bx	lr
 4304              	.L320:
 4305              		.align	2
 4306              	.L319:
 4307 0020 00000000 		.word	.LANCHOR0
 4308 0024 00000000 		.word	.LANCHOR24
 4309 0028 EBC91841 		.word	1092143595
 4310              		.cfi_endproc
 4311              	.LFE277:
 4312              		.size	mcpwm_get_rpm, .-mcpwm_get_rpm
 4313              		.section	.text.mcpwm_get_state,"ax",%progbits
 4314              		.align	1
 4315              		.p2align 4,,15
 4316              		.global	mcpwm_get_state
 4317              		.syntax unified
 4318              		.thumb
 4319              		.thumb_func
 4320              		.fpu fpv4-sp-d16
 4321              		.type	mcpwm_get_state, %function
 4322              	mcpwm_get_state:
 4323              	.LFB278:
 4324              		.loc 1 742 0
 4325              		.cfi_startproc
 4326              		@ args = 0, pretend = 0, frame = 0
 4327              		@ frame_needed = 0, uses_anonymous_args = 0
 4328              		@ link register save eliminated.
 4329              		.loc 1 743 0
 4330 0000 014B     		ldr	r3, .L322
 4331 0002 1878     		ldrb	r0, [r3]	@ zero_extendqisi2
 4332              		.loc 1 744 0
ARM GAS  /tmp/ccTWrjJD.s 			page 77


 4333 0004 7047     		bx	lr
 4334              	.L323:
 4335 0006 00BF     		.align	2
 4336              	.L322:
 4337 0008 00000000 		.word	.LANCHOR2
 4338              		.cfi_endproc
 4339              	.LFE278:
 4340              		.size	mcpwm_get_state, .-mcpwm_get_state
 4341              		.section	.text.mcpwm_get_kv,"ax",%progbits
 4342              		.align	1
 4343              		.p2align 4,,15
 4344              		.global	mcpwm_get_kv
 4345              		.syntax unified
 4346              		.thumb
 4347              		.thumb_func
 4348              		.fpu fpv4-sp-d16
 4349              		.type	mcpwm_get_kv, %function
 4350              	mcpwm_get_kv:
 4351              	.LFB279:
 4352              		.loc 1 754 0
 4353              		.cfi_startproc
 4354              		@ args = 0, pretend = 0, frame = 0
 4355              		@ frame_needed = 0, uses_anonymous_args = 0
 4356 0000 08B5     		push	{r3, lr}
 4357              		.cfi_def_cfa_offset 8
 4358              		.cfi_offset 3, -8
 4359              		.cfi_offset 14, -4
 4360              		.loc 1 755 0
 4361 0002 094B     		ldr	r3, .L326
 4362              		.loc 1 754 0
 4363 0004 2DED028B 		vpush.64	{d8}
 4364              		.cfi_def_cfa_offset 16
 4365              		.cfi_offset 80, -16
 4366              		.cfi_offset 81, -12
 4367              		.loc 1 755 0
 4368 0008 93ED008A 		vldr.32	s16, [r3]
 4369 000c FFF7FEFF 		bl	mc_interface_get_input_voltage_filtered
 4370              	.LVL319:
 4371 0010 064B     		ldr	r3, .L326+4
 4372 0012 D3ED007A 		vldr.32	s15, [r3]
 4373 0016 F0EEE77A 		vabs.f32	s15, s15
 4374 001a 27EE800A 		vmul.f32	s0, s15, s0
 4375              		.loc 1 756 0
 4376 001e 88EE000A 		vdiv.f32	s0, s16, s0
 4377 0022 BDEC028B 		vldm	sp!, {d8}
 4378              		.cfi_restore 80
 4379              		.cfi_restore 81
 4380              		.cfi_def_cfa_offset 8
 4381 0026 08BD     		pop	{r3, pc}
 4382              	.L327:
 4383              		.align	2
 4384              	.L326:
 4385 0028 00000000 		.word	.LANCHOR21
 4386 002c 00000000 		.word	.LANCHOR19
 4387              		.cfi_endproc
 4388              	.LFE279:
 4389              		.size	mcpwm_get_kv, .-mcpwm_get_kv
ARM GAS  /tmp/ccTWrjJD.s 			page 78


 4390              		.section	.text.mcpwm_get_kv_filtered,"ax",%progbits
 4391              		.align	1
 4392              		.p2align 4,,15
 4393              		.global	mcpwm_get_kv_filtered
 4394              		.syntax unified
 4395              		.thumb
 4396              		.thumb_func
 4397              		.fpu fpv4-sp-d16
 4398              		.type	mcpwm_get_kv_filtered, %function
 4399              	mcpwm_get_kv_filtered:
 4400              	.LFB280:
 4401              		.loc 1 766 0
 4402              		.cfi_startproc
 4403              		@ args = 0, pretend = 0, frame = 0
 4404              		@ frame_needed = 0, uses_anonymous_args = 0
 4405              		@ link register save eliminated.
 4406              		.loc 1 767 0
 4407 0000 034B     		ldr	r3, .L329
 4408 0002 0449     		ldr	r1, .L329+4
 4409 0004 1B68     		ldr	r3, [r3]
 4410 0006 0448     		ldr	r0, .L329+8
 4411 0008 0722     		movs	r2, #7
 4412 000a FFF7FEBF 		b	filter_run_fir_iteration
 4413              	.LVL320:
 4414              	.L330:
 4415 000e 00BF     		.align	2
 4416              	.L329:
 4417 0010 00000000 		.word	.LANCHOR22
 4418 0014 00000000 		.word	.LANCHOR49
 4419 0018 00000000 		.word	.LANCHOR23
 4420              		.cfi_endproc
 4421              	.LFE280:
 4422              		.size	mcpwm_get_kv_filtered, .-mcpwm_get_kv_filtered
 4423              		.section	.text.mcpwm_get_tot_current,"ax",%progbits
 4424              		.align	1
 4425              		.p2align 4,,15
 4426              		.global	mcpwm_get_tot_current
 4427              		.syntax unified
 4428              		.thumb
 4429              		.thumb_func
 4430              		.fpu fpv4-sp-d16
 4431              		.type	mcpwm_get_tot_current, %function
 4432              	mcpwm_get_tot_current:
 4433              	.LFB281:
 4434              		.loc 1 781 0
 4435              		.cfi_startproc
 4436              		@ args = 0, pretend = 0, frame = 0
 4437              		@ frame_needed = 0, uses_anonymous_args = 0
 4438              		@ link register save eliminated.
 4439              		.loc 1 782 0
 4440 0000 014B     		ldr	r3, .L332
 4441 0002 93ED000A 		vldr.32	s0, [r3]
 4442              		.loc 1 783 0
 4443 0006 7047     		bx	lr
 4444              	.L333:
 4445              		.align	2
 4446              	.L332:
ARM GAS  /tmp/ccTWrjJD.s 			page 79


 4447 0008 00000000 		.word	.LANCHOR40
 4448              		.cfi_endproc
 4449              	.LFE281:
 4450              		.size	mcpwm_get_tot_current, .-mcpwm_get_tot_current
 4451              		.section	.text.mcpwm_get_tot_current_filtered,"ax",%progbits
 4452              		.align	1
 4453              		.p2align 4,,15
 4454              		.global	mcpwm_get_tot_current_filtered
 4455              		.syntax unified
 4456              		.thumb
 4457              		.thumb_func
 4458              		.fpu fpv4-sp-d16
 4459              		.type	mcpwm_get_tot_current_filtered, %function
 4460              	mcpwm_get_tot_current_filtered:
 4461              	.LFB282:
 4462              		.loc 1 793 0
 4463              		.cfi_startproc
 4464              		@ args = 0, pretend = 0, frame = 0
 4465              		@ frame_needed = 0, uses_anonymous_args = 0
 4466              		@ link register save eliminated.
 4467              		.loc 1 794 0
 4468 0000 014B     		ldr	r3, .L335
 4469 0002 93ED000A 		vldr.32	s0, [r3]
 4470              		.loc 1 795 0
 4471 0006 7047     		bx	lr
 4472              	.L336:
 4473              		.align	2
 4474              	.L335:
 4475 0008 00000000 		.word	.LANCHOR41
 4476              		.cfi_endproc
 4477              	.LFE282:
 4478              		.size	mcpwm_get_tot_current_filtered, .-mcpwm_get_tot_current_filtered
 4479              		.section	.text.mcpwm_get_tot_current_directional,"ax",%progbits
 4480              		.align	1
 4481              		.p2align 4,,15
 4482              		.global	mcpwm_get_tot_current_directional
 4483              		.syntax unified
 4484              		.thumb
 4485              		.thumb_func
 4486              		.fpu fpv4-sp-d16
 4487              		.type	mcpwm_get_tot_current_directional, %function
 4488              	mcpwm_get_tot_current_directional:
 4489              	.LFB283:
 4490              		.loc 1 804 0
 4491              		.cfi_startproc
 4492              		@ args = 0, pretend = 0, frame = 0
 4493              		@ frame_needed = 0, uses_anonymous_args = 0
 4494              		@ link register save eliminated.
 4495              	.LBB131:
 4496              	.LBB132:
 4497              		.loc 1 782 0
 4498 0000 064A     		ldr	r2, .L339
 4499              	.LBE132:
 4500              	.LBE131:
 4501              		.loc 1 806 0
 4502 0002 074B     		ldr	r3, .L339+4
 4503              	.LBB134:
ARM GAS  /tmp/ccTWrjJD.s 			page 80


 4504              	.LBB133:
 4505              		.loc 1 782 0
 4506 0004 92ED000A 		vldr.32	s0, [r2]
 4507              	.LBE133:
 4508              	.LBE134:
 4509              		.loc 1 806 0
 4510 0008 D3ED007A 		vldr.32	s15, [r3]
 4511 000c F5EEC07A 		vcmpe.f32	s15, #0
 4512 0010 F1EE10FA 		vmrs	APSR_nzcv, FPSCR
 4513 0014 D8BF     		it	le
 4514 0016 B1EE400A 		vnegle.f32	s0, s0
 4515              		.loc 1 807 0
 4516 001a 7047     		bx	lr
 4517              	.L340:
 4518              		.align	2
 4519              	.L339:
 4520 001c 00000000 		.word	.LANCHOR40
 4521 0020 00000000 		.word	.LANCHOR19
 4522              		.cfi_endproc
 4523              	.LFE283:
 4524              		.size	mcpwm_get_tot_current_directional, .-mcpwm_get_tot_current_directional
 4525              		.section	.text.mcpwm_get_tot_current_directional_filtered,"ax",%progbits
 4526              		.align	1
 4527              		.p2align 4,,15
 4528              		.global	mcpwm_get_tot_current_directional_filtered
 4529              		.syntax unified
 4530              		.thumb
 4531              		.thumb_func
 4532              		.fpu fpv4-sp-d16
 4533              		.type	mcpwm_get_tot_current_directional_filtered, %function
 4534              	mcpwm_get_tot_current_directional_filtered:
 4535              	.LFB284:
 4536              		.loc 1 816 0
 4537              		.cfi_startproc
 4538              		@ args = 0, pretend = 0, frame = 0
 4539              		@ frame_needed = 0, uses_anonymous_args = 0
 4540              		@ link register save eliminated.
 4541              	.LBB135:
 4542              	.LBB136:
 4543              		.loc 1 794 0
 4544 0000 064A     		ldr	r2, .L343
 4545              	.LBE136:
 4546              	.LBE135:
 4547              		.loc 1 818 0
 4548 0002 074B     		ldr	r3, .L343+4
 4549              	.LBB138:
 4550              	.LBB137:
 4551              		.loc 1 794 0
 4552 0004 92ED000A 		vldr.32	s0, [r2]
 4553              	.LBE137:
 4554              	.LBE138:
 4555              		.loc 1 818 0
 4556 0008 D3ED007A 		vldr.32	s15, [r3]
 4557 000c F5EEC07A 		vcmpe.f32	s15, #0
 4558 0010 F1EE10FA 		vmrs	APSR_nzcv, FPSCR
 4559 0014 D8BF     		it	le
 4560 0016 B1EE400A 		vnegle.f32	s0, s0
ARM GAS  /tmp/ccTWrjJD.s 			page 81


 4561              		.loc 1 819 0
 4562 001a 7047     		bx	lr
 4563              	.L344:
 4564              		.align	2
 4565              	.L343:
 4566 001c 00000000 		.word	.LANCHOR41
 4567 0020 00000000 		.word	.LANCHOR19
 4568              		.cfi_endproc
 4569              	.LFE284:
 4570              		.size	mcpwm_get_tot_current_directional_filtered, .-mcpwm_get_tot_current_directional_filtered
 4571              		.section	.text.mcpwm_get_tot_current_in,"ax",%progbits
 4572              		.align	1
 4573              		.p2align 4,,15
 4574              		.global	mcpwm_get_tot_current_in
 4575              		.syntax unified
 4576              		.thumb
 4577              		.thumb_func
 4578              		.fpu fpv4-sp-d16
 4579              		.type	mcpwm_get_tot_current_in, %function
 4580              	mcpwm_get_tot_current_in:
 4581              	.LFB285:
 4582              		.loc 1 827 0
 4583              		.cfi_startproc
 4584              		@ args = 0, pretend = 0, frame = 0
 4585              		@ frame_needed = 0, uses_anonymous_args = 0
 4586              		@ link register save eliminated.
 4587              	.LBB139:
 4588              	.LBB140:
 4589              		.loc 1 782 0
 4590 0000 054A     		ldr	r2, .L346
 4591              	.LBE140:
 4592              	.LBE139:
 4593              		.loc 1 828 0
 4594 0002 064B     		ldr	r3, .L346+4
 4595              	.LBB142:
 4596              	.LBB141:
 4597              		.loc 1 782 0
 4598 0004 92ED000A 		vldr.32	s0, [r2]
 4599              	.LBE141:
 4600              	.LBE142:
 4601              		.loc 1 828 0
 4602 0008 D3ED007A 		vldr.32	s15, [r3]
 4603 000c F0EEE77A 		vabs.f32	s15, s15
 4604              		.loc 1 829 0
 4605 0010 27EE800A 		vmul.f32	s0, s15, s0
 4606 0014 7047     		bx	lr
 4607              	.L347:
 4608 0016 00BF     		.align	2
 4609              	.L346:
 4610 0018 00000000 		.word	.LANCHOR40
 4611 001c 00000000 		.word	.LANCHOR19
 4612              		.cfi_endproc
 4613              	.LFE285:
 4614              		.size	mcpwm_get_tot_current_in, .-mcpwm_get_tot_current_in
 4615              		.section	.text.mcpwm_get_tot_current_in_filtered,"ax",%progbits
 4616              		.align	1
 4617              		.p2align 4,,15
ARM GAS  /tmp/ccTWrjJD.s 			page 82


 4618              		.global	mcpwm_get_tot_current_in_filtered
 4619              		.syntax unified
 4620              		.thumb
 4621              		.thumb_func
 4622              		.fpu fpv4-sp-d16
 4623              		.type	mcpwm_get_tot_current_in_filtered, %function
 4624              	mcpwm_get_tot_current_in_filtered:
 4625              	.LFB286:
 4626              		.loc 1 837 0
 4627              		.cfi_startproc
 4628              		@ args = 0, pretend = 0, frame = 0
 4629              		@ frame_needed = 0, uses_anonymous_args = 0
 4630              		@ link register save eliminated.
 4631              	.LBB143:
 4632              	.LBB144:
 4633              		.loc 1 794 0
 4634 0000 054A     		ldr	r2, .L349
 4635              	.LBE144:
 4636              	.LBE143:
 4637              		.loc 1 838 0
 4638 0002 064B     		ldr	r3, .L349+4
 4639              	.LBB146:
 4640              	.LBB145:
 4641              		.loc 1 794 0
 4642 0004 92ED000A 		vldr.32	s0, [r2]
 4643              	.LBE145:
 4644              	.LBE146:
 4645              		.loc 1 838 0
 4646 0008 D3ED007A 		vldr.32	s15, [r3]
 4647 000c F0EEE77A 		vabs.f32	s15, s15
 4648              		.loc 1 839 0
 4649 0010 27EE800A 		vmul.f32	s0, s15, s0
 4650 0014 7047     		bx	lr
 4651              	.L350:
 4652 0016 00BF     		.align	2
 4653              	.L349:
 4654 0018 00000000 		.word	.LANCHOR41
 4655 001c 00000000 		.word	.LANCHOR19
 4656              		.cfi_endproc
 4657              	.LFE286:
 4658              		.size	mcpwm_get_tot_current_in_filtered, .-mcpwm_get_tot_current_in_filtered
 4659              		.section	.text.mcpwm_set_tachometer_value,"ax",%progbits
 4660              		.align	1
 4661              		.p2align 4,,15
 4662              		.global	mcpwm_set_tachometer_value
 4663              		.syntax unified
 4664              		.thumb
 4665              		.thumb_func
 4666              		.fpu fpv4-sp-d16
 4667              		.type	mcpwm_set_tachometer_value, %function
 4668              	mcpwm_set_tachometer_value:
 4669              	.LFB287:
 4670              		.loc 1 853 0
 4671              		.cfi_startproc
 4672              		@ args = 0, pretend = 0, frame = 0
 4673              		@ frame_needed = 0, uses_anonymous_args = 0
 4674              		@ link register save eliminated.
ARM GAS  /tmp/ccTWrjJD.s 			page 83


 4675              	.LVL321:
 4676              		.loc 1 854 0
 4677 0000 024B     		ldr	r3, .L352
 4678 0002 1A68     		ldr	r2, [r3]
 4679              	.LVL322:
 4680              		.loc 1 856 0
 4681 0004 1860     		str	r0, [r3]
 4682              		.loc 1 859 0
 4683 0006 1046     		mov	r0, r2
 4684              	.LVL323:
 4685 0008 7047     		bx	lr
 4686              	.L353:
 4687 000a 00BF     		.align	2
 4688              	.L352:
 4689 000c 00000000 		.word	.LANCHOR12
 4690              		.cfi_endproc
 4691              	.LFE287:
 4692              		.size	mcpwm_set_tachometer_value, .-mcpwm_set_tachometer_value
 4693              		.section	.text.mcpwm_get_tachometer_value,"ax",%progbits
 4694              		.align	1
 4695              		.p2align 4,,15
 4696              		.global	mcpwm_get_tachometer_value
 4697              		.syntax unified
 4698              		.thumb
 4699              		.thumb_func
 4700              		.fpu fpv4-sp-d16
 4701              		.type	mcpwm_get_tachometer_value, %function
 4702              	mcpwm_get_tachometer_value:
 4703              	.LFB288:
 4704              		.loc 1 872 0
 4705              		.cfi_startproc
 4706              		@ args = 0, pretend = 0, frame = 0
 4707              		@ frame_needed = 0, uses_anonymous_args = 0
 4708              		@ link register save eliminated.
 4709              	.LVL324:
 4710              		.loc 1 873 0
 4711 0000 034B     		ldr	r3, .L359
 4712 0002 1A68     		ldr	r2, [r3]
 4713              	.LVL325:
 4714              		.loc 1 875 0
 4715 0004 08B1     		cbz	r0, .L354
 4716              		.loc 1 876 0
 4717 0006 0021     		movs	r1, #0
 4718 0008 1960     		str	r1, [r3]
 4719              	.L354:
 4720              		.loc 1 880 0
 4721 000a 1046     		mov	r0, r2
 4722              	.LVL326:
 4723 000c 7047     		bx	lr
 4724              	.L360:
 4725 000e 00BF     		.align	2
 4726              	.L359:
 4727 0010 00000000 		.word	.LANCHOR12
 4728              		.cfi_endproc
 4729              	.LFE288:
 4730              		.size	mcpwm_get_tachometer_value, .-mcpwm_get_tachometer_value
 4731              		.section	.text.mcpwm_get_tachometer_abs_value,"ax",%progbits
ARM GAS  /tmp/ccTWrjJD.s 			page 84


 4732              		.align	1
 4733              		.p2align 4,,15
 4734              		.global	mcpwm_get_tachometer_abs_value
 4735              		.syntax unified
 4736              		.thumb
 4737              		.thumb_func
 4738              		.fpu fpv4-sp-d16
 4739              		.type	mcpwm_get_tachometer_abs_value, %function
 4740              	mcpwm_get_tachometer_abs_value:
 4741              	.LFB289:
 4742              		.loc 1 892 0
 4743              		.cfi_startproc
 4744              		@ args = 0, pretend = 0, frame = 0
 4745              		@ frame_needed = 0, uses_anonymous_args = 0
 4746              		@ link register save eliminated.
 4747              	.LVL327:
 4748              		.loc 1 893 0
 4749 0000 034B     		ldr	r3, .L366
 4750 0002 1A68     		ldr	r2, [r3]
 4751              	.LVL328:
 4752              		.loc 1 895 0
 4753 0004 08B1     		cbz	r0, .L361
 4754              		.loc 1 896 0
 4755 0006 0021     		movs	r1, #0
 4756 0008 1960     		str	r1, [r3]
 4757              	.L361:
 4758              		.loc 1 900 0
 4759 000a 1046     		mov	r0, r2
 4760              	.LVL329:
 4761 000c 7047     		bx	lr
 4762              	.L367:
 4763 000e 00BF     		.align	2
 4764              	.L366:
 4765 0010 00000000 		.word	.LANCHOR11
 4766              		.cfi_endproc
 4767              	.LFE289:
 4768              		.size	mcpwm_get_tachometer_abs_value, .-mcpwm_get_tachometer_abs_value
 4769              		.section	.text.mcpwm_stop_pwm,"ax",%progbits
 4770              		.align	1
 4771              		.p2align 4,,15
 4772              		.global	mcpwm_stop_pwm
 4773              		.syntax unified
 4774              		.thumb
 4775              		.thumb_func
 4776              		.fpu fpv4-sp-d16
 4777              		.type	mcpwm_stop_pwm, %function
 4778              	mcpwm_stop_pwm:
 4779              	.LFB290:
 4780              		.loc 1 905 0
 4781              		.cfi_startproc
 4782              		@ args = 0, pretend = 0, frame = 0
 4783              		@ frame_needed = 0, uses_anonymous_args = 0
 4784              		@ link register save eliminated.
 4785              		.loc 1 906 0
 4786 0000 0648     		ldr	r0, .L370
 4787              	.LBB147:
 4788              	.LBB148:
ARM GAS  /tmp/ccTWrjJD.s 			page 85


 4789              		.loc 1 911 0
 4790 0002 0749     		ldr	r1, .L370+4
 4791              		.loc 1 912 0
 4792 0004 074A     		ldr	r2, .L370+8
 4793              	.LBE148:
 4794              	.LBE147:
 4795              		.loc 1 905 0
 4796 0006 10B4     		push	{r4}
 4797              		.cfi_def_cfa_offset 4
 4798              		.cfi_offset 4, -4
 4799              		.loc 1 906 0
 4800 0008 0A24     		movs	r4, #10
 4801 000a 0470     		strb	r4, [r0]
 4802              	.LBB151:
 4803              	.LBB149:
 4804              		.loc 1 911 0
 4805 000c 0023     		movs	r3, #0
 4806              	.LBE149:
 4807              	.LBE151:
 4808              		.loc 1 908 0
 4809 000e 5DF8044B 		ldr	r4, [sp], #4
 4810              		.cfi_restore 4
 4811              		.cfi_def_cfa_offset 0
 4812              	.LBB152:
 4813              	.LBB150:
 4814              		.loc 1 911 0
 4815 0012 0B70     		strb	r3, [r1]
 4816              		.loc 1 912 0
 4817 0014 1360     		str	r3, [r2]
 4818              		.loc 1 913 0
 4819 0016 FFF7FEBF 		b	stop_pwm_hw
 4820              	.LVL330:
 4821              	.L371:
 4822 001a 00BF     		.align	2
 4823              	.L370:
 4824 001c 00000000 		.word	.LANCHOR39
 4825 0020 00000000 		.word	.LANCHOR2
 4826 0024 00000000 		.word	.LANCHOR42
 4827              	.LBE150:
 4828              	.LBE152:
 4829              		.cfi_endproc
 4830              	.LFE290:
 4831              		.size	mcpwm_stop_pwm, .-mcpwm_stop_pwm
 4832              		.section	.text.mcpwm_adc_inj_int_handler,"ax",%progbits
 4833              		.align	1
 4834              		.p2align 4,,15
 4835              		.global	mcpwm_adc_inj_int_handler
 4836              		.syntax unified
 4837              		.thumb
 4838              		.thumb_func
 4839              		.fpu fpv4-sp-d16
 4840              		.type	mcpwm_adc_inj_int_handler, %function
 4841              	mcpwm_adc_inj_int_handler:
 4842              	.LFB302:
 4843              		.loc 1 1463 0
 4844              		.cfi_startproc
 4845              		@ args = 0, pretend = 0, frame = 0
ARM GAS  /tmp/ccTWrjJD.s 			page 86


 4846              		@ frame_needed = 0, uses_anonymous_args = 0
 4847 0000 2DE9F041 		push	{r4, r5, r6, r7, r8, lr}
 4848              		.cfi_def_cfa_offset 24
 4849              		.cfi_offset 4, -24
 4850              		.cfi_offset 5, -20
 4851              		.cfi_offset 6, -16
 4852              		.cfi_offset 7, -12
 4853              		.cfi_offset 8, -8
 4854              		.cfi_offset 14, -4
 4855 0004 2DED028B 		vpush.64	{d8}
 4856              		.cfi_def_cfa_offset 32
 4857              		.cfi_offset 80, -32
 4858              		.cfi_offset 81, -28
 4859              		.loc 1 1464 0
 4860 0008 FFF7FEFF 		bl	timer_time_now
 4861              	.LVL331:
 4862              		.loc 1 1466 0
 4863 000c 1421     		movs	r1, #20
 4864              		.loc 1 1464 0
 4865 000e 0446     		mov	r4, r0
 4866              	.LVL332:
 4867              		.loc 1 1466 0
 4868 0010 B548     		ldr	r0, .L444
 4869              	.LVL333:
 4870              		.loc 1 1493 0
 4871 0012 B64D     		ldr	r5, .L444+4
 4872              		.loc 1 1568 0
 4873 0014 DFF84483 		ldr	r8, .L444+116
 4874              		.loc 1 1466 0
 4875 0018 FFF7FEFF 		bl	ADC_GetInjectedConversionValue
 4876              	.LVL334:
 4877              		.loc 1 1467 0
 4878 001c 1421     		movs	r1, #20
 4879              		.loc 1 1466 0
 4880 001e 0746     		mov	r7, r0
 4881              	.LVL335:
 4882              		.loc 1 1467 0
 4883 0020 B348     		ldr	r0, .L444+8
 4884 0022 FFF7FEFF 		bl	ADC_GetInjectedConversionValue
 4885              	.LVL336:
 4886              		.loc 1 1469 0
 4887 0026 1821     		movs	r1, #24
 4888              		.loc 1 1467 0
 4889 0028 0646     		mov	r6, r0
 4890              	.LVL337:
 4891              		.loc 1 1469 0
 4892 002a B148     		ldr	r0, .L444+8
 4893 002c FFF7FEFF 		bl	ADC_GetInjectedConversionValue
 4894              	.LVL338:
 4895              		.loc 1 1470 0
 4896 0030 1821     		movs	r1, #24
 4897 0032 AD48     		ldr	r0, .L444
 4898 0034 FFF7FEFF 		bl	ADC_GetInjectedConversionValue
 4899              	.LVL339:
 4900              		.loc 1 1473 0
 4901 0038 1421     		movs	r1, #20
 4902 003a AE48     		ldr	r0, .L444+12
ARM GAS  /tmp/ccTWrjJD.s 			page 87


 4903 003c FFF7FEFF 		bl	ADC_GetInjectedConversionValue
 4904              	.LVL340:
 4905              		.loc 1 1493 0
 4906 0040 2A68     		ldr	r2, [r5]
 4907              		.loc 1 1526 0
 4908 0042 DFF81CC3 		ldr	ip, .L444+120
 4909              		.loc 1 1493 0
 4910 0046 D107     		lsls	r1, r2, #31
 4911              		.loc 1 1494 0
 4912 0048 44BF     		itt	mi
 4913 004a AB4B     		ldrmi	r3, .L444+16
 4914 004c D988     		ldrhmi	r1, [r3, #6]
 4915              		.loc 1 1497 0
 4916 004e 2A68     		ldr	r2, [r5]
 4917              		.loc 1 1477 0
 4918 0050 54BF     		ite	pl
 4919 0052 C7F57F61 		rsbpl	r1, r7, #4080
 4920              		.loc 1 1494 0
 4921 0056 C1F57F61 		rsbmi	r1, r1, #4080
 4922              		.loc 1 1497 0
 4923 005a 9207     		lsls	r2, r2, #30
 4924              		.loc 1 1498 0
 4925 005c 48BF     		it	mi
 4926 005e A64B     		ldrmi	r3, .L444+16
 4927              		.loc 1 1520 0
 4928 0060 A64F     		ldr	r7, .L444+20
 4929              	.LVL341:
 4930              		.loc 1 1498 0
 4931 0062 48BF     		it	mi
 4932 0064 1A89     		ldrhmi	r2, [r3, #8]
 4933              		.loc 1 1502 0
 4934 0066 2D68     		ldr	r5, [r5]
 4935              		.loc 1 1478 0
 4936 0068 54BF     		ite	pl
 4937 006a C6F57F62 		rsbpl	r2, r6, #4080
 4938              		.loc 1 1498 0
 4939 006e C2F57F62 		rsbmi	r2, r2, #4080
 4940              		.loc 1 1502 0
 4941 0072 6B07     		lsls	r3, r5, #29
 4942              		.loc 1 1503 0
 4943 0074 48BF     		it	mi
 4944 0076 A04B     		ldrmi	r3, .L444+16
 4945              		.loc 1 1521 0
 4946 0078 A14E     		ldr	r6, .L444+24
 4947              	.LVL342:
 4948              		.loc 1 1503 0
 4949 007a 48BF     		it	mi
 4950 007c 5B89     		ldrhmi	r3, [r3, #10]
 4951              		.loc 1 1523 0
 4952 007e A14D     		ldr	r5, .L444+28
 4953              		.loc 1 1483 0
 4954 0080 58BF     		it	pl
 4955 0082 C0F57F63 		rsbpl	r3, r0, #4080
 4956              		.loc 1 1520 0
 4957 0086 3868     		ldr	r0, [r7]
 4958              	.LVL343:
 4959              		.loc 1 1494 0
ARM GAS  /tmp/ccTWrjJD.s 			page 88


 4960 0088 01F10F01 		add	r1, r1, #15
 4961              	.LVL344:
 4962              		.loc 1 1520 0
 4963 008c 0844     		add	r0, r0, r1
 4964 008e 3860     		str	r0, [r7]
 4965              		.loc 1 1521 0
 4966 0090 3068     		ldr	r0, [r6]
 4967              		.loc 1 1536 0
 4968 0092 9D4F     		ldr	r7, .L444+32
 4969              		.loc 1 1498 0
 4970 0094 02F10F02 		add	r2, r2, #15
 4971              	.LVL345:
 4972              		.loc 1 1521 0
 4973 0098 1044     		add	r0, r0, r2
 4974 009a 3060     		str	r0, [r6]
 4975              		.loc 1 1523 0
 4976 009c 2868     		ldr	r0, [r5]
 4977              		.loc 1 1528 0
 4978 009e 9B4E     		ldr	r6, .L444+36
 4979              		.loc 1 1503 0
 4980 00a0 48BF     		it	mi
 4981 00a2 C3F57F63 		rsbmi	r3, r3, #4080
 4982 00a6 0F33     		adds	r3, r3, #15
 4983              	.LVL346:
 4984              		.loc 1 1523 0
 4985 00a8 1844     		add	r0, r0, r3
 4986 00aa 2860     		str	r0, [r5]
 4987              		.loc 1 1526 0
 4988 00ac DCF80050 		ldr	r5, [ip]
 4989              		.loc 1 1529 0
 4990 00b0 9748     		ldr	r0, .L444+40
 4991              		.loc 1 1526 0
 4992 00b2 0135     		adds	r5, r5, #1
 4993 00b4 CCF80050 		str	r5, [ip]
 4994              		.loc 1 1528 0
 4995 00b8 3568     		ldr	r5, [r6]
 4996              		.loc 1 1529 0
 4997 00ba 0568     		ldr	r5, [r0]
 4998              		.loc 1 1530 0
 4999 00bc D6F800C0 		ldr	ip, [r6]
 5000              	.LVL347:
 5001              		.loc 1 1531 0
 5002 00c0 0568     		ldr	r5, [r0]
 5003              	.LVL348:
 5004              		.loc 1 1532 0
 5005 00c2 D6F800E0 		ldr	lr, [r6]
 5006              		.loc 1 1533 0
 5007 00c6 0068     		ldr	r0, [r0]
 5008              		.loc 1 1536 0
 5009 00c8 3868     		ldr	r0, [r7]
 5010              		.loc 1 1537 0
 5011 00ca 3868     		ldr	r0, [r7]
 5012              	.LVL349:
 5013              		.loc 1 1530 0
 5014 00cc A1EB0C01 		sub	r1, r1, ip
 5015              	.LVL350:
 5016              		.loc 1 1558 0
ARM GAS  /tmp/ccTWrjJD.s 			page 89


 5017 00d0 07EE901A 		vmov	s15, r1	@ int
 5018              		.loc 1 1531 0
 5019 00d4 521B     		subs	r2, r2, r5
 5020              	.LVL351:
 5021              		.loc 1 1558 0
 5022 00d6 F8EEE76A 		vcvt.f32.s32	s13, s15
 5023              		.loc 1 1559 0
 5024 00da 07EE902A 		vmov	s15, r2	@ int
 5025              		.loc 1 1537 0
 5026 00de 1B1A     		subs	r3, r3, r0
 5027              	.LVL352:
 5028              		.loc 1 1559 0
 5029 00e0 B8EEE77A 		vcvt.f32.s32	s14, s15
 5030              		.loc 1 1562 0
 5031 00e4 07EE903A 		vmov	s15, r3	@ int
 5032              		.loc 1 1558 0
 5033 00e8 8A4D     		ldr	r5, .L444+44
 5034              		.loc 1 1568 0
 5035 00ea D8F80020 		ldr	r2, [r8]
 5036              	.LVL353:
 5037              		.loc 1 1558 0
 5038 00ee C5ED006A 		vstr.32	s13, [r5]
 5039              		.loc 1 1562 0
 5040 00f2 F8EEE77A 		vcvt.f32.s32	s15, s15
 5041              		.loc 1 1559 0
 5042 00f6 85ED017A 		vstr.32	s14, [r5, #4]
 5043              		.loc 1 1562 0
 5044 00fa C5ED027A 		vstr.32	s15, [r5, #8]
 5045              	.LVL354:
 5046              		.loc 1 1568 0
 5047 00fe 92F88630 		ldrb	r3, [r2, #134]	@ zero_extendqisi2
 5048              	.LVL355:
 5049 0102 012B     		cmp	r3, #1
 5050 0104 20D0     		beq	.L440
 5051              	.LBB153:
 5052              		.loc 1 1601 0
 5053 0106 844E     		ldr	r6, .L444+48
 5054 0108 3378     		ldrb	r3, [r6]	@ zero_extendqisi2
 5055 010a 032B     		cmp	r3, #3
 5056 010c 00F07A81 		beq	.L441
 5057              	.LBB154:
 5058              		.loc 1 1608 0
 5059 0110 824B     		ldr	r3, .L444+52
 5060 0112 1B68     		ldr	r3, [r3]
 5061 0114 6BB1     		cbz	r3, .L384
 5062              		.loc 1 1609 0
 5063 0116 824B     		ldr	r3, .L444+56
 5064 0118 1A68     		ldr	r2, [r3]
 5065 011a 013A     		subs	r2, r2, #1
 5066 011c 052A     		cmp	r2, #5
 5067 011e 00F29E81 		bhi	.L419
 5068 0122 DFE812F0 		tbh	[pc, r2, lsl #1]
 5069              	.LVL356:
 5070              	.L387:
 5071 0126 6C00     		.2byte	(.L397-.L387)/2
 5072 0128 6C00     		.2byte	(.L397-.L387)/2
 5073 012a D700     		.2byte	(.L395-.L387)/2
ARM GAS  /tmp/ccTWrjJD.s 			page 90


 5074 012c D700     		.2byte	(.L395-.L387)/2
 5075 012e DC00     		.2byte	(.L399-.L387)/2
 5076 0130 DC00     		.2byte	(.L399-.L387)/2
 5077              		.p2align 1
 5078              	.L384:
 5079              		.loc 1 1619 0
 5080 0132 7B4B     		ldr	r3, .L444+56
 5081 0134 1A68     		ldr	r2, [r3]
 5082 0136 013A     		subs	r2, r2, #1
 5083 0138 052A     		cmp	r2, #5
 5084 013a 00F29081 		bhi	.L419
 5085 013e DFE802F0 		tbb	[pc, r2]
 5086              	.LVL357:
 5087              	.L394:
 5088 0142 C9       		.byte	(.L395-.L394)/2
 5089 0143 C9       		.byte	(.L395-.L394)/2
 5090 0144 5E       		.byte	(.L397-.L394)/2
 5091 0145 5E       		.byte	(.L397-.L394)/2
 5092 0146 CE       		.byte	(.L399-.L394)/2
 5093 0147 CE       		.byte	(.L399-.L394)/2
 5094              		.p2align 1
 5095              	.L440:
 5096              	.LBE154:
 5097              	.LBE153:
 5098              		.loc 1 1569 0
 5099 0148 744B     		ldr	r3, .L444+52
 5100 014a 1B68     		ldr	r3, [r3]
 5101 014c 002B     		cmp	r3, #0
 5102 014e 52D1     		bne	.L442
 5103              		.loc 1 1576 0
 5104 0150 694B     		ldr	r3, .L444+16
 5105 0152 DB88     		ldrh	r3, [r3, #6]
 5106 0154 3168     		ldr	r1, [r6]
 5107              	.LVL358:
 5108              	.L438:
 5109 0156 C3F57F63 		rsb	r3, r3, #4080
 5110 015a 0F33     		adds	r3, r3, #15
 5111 015c 5B1A     		subs	r3, r3, r1
 5112 015e 07EE903A 		vmov	s15, r3	@ int
 5113 0162 F8EEE77A 		vcvt.f32.s32	s15, s15
 5114 0166 B1EE678A 		vneg.f32	s16, s15
 5115              	.LVL359:
 5116              	.L381:
 5117              		.loc 1 1731 0
 5118 016a DFED6E7A 		vldr.32	s15, .L444+60
 5119 016e 6E4B     		ldr	r3, .L444+64
 5120              		.loc 1 1734 0
 5121 0170 DFED6E6A 		vldr.32	s13, .L444+68
 5122              		.loc 1 1731 0
 5123 0174 68EE277A 		vmul.f32	s15, s16, s15
 5124 0178 C3ED007A 		vstr.32	s15, [r3]
 5125              		.loc 1 1734 0
 5126 017c 93ED007A 		vldr.32	s14, [r3]
 5127 0180 D2ED047A 		vldr.32	s15, [r2, #16]
 5128 0184 67EEA67A 		vmul.f32	s15, s15, s13
 5129 0188 B0EEC77A 		vabs.f32	s14, s14
 5130 018c B4EEE77A 		vcmpe.f32	s14, s15
ARM GAS  /tmp/ccTWrjJD.s 			page 91


 5131 0190 F1EE10FA 		vmrs	APSR_nzcv, FPSCR
 5132 0194 14DD     		ble	.L414
 5133              		.loc 1 1735 0
 5134 0196 93ED007A 		vldr.32	s14, [r3]
 5135 019a D2ED047A 		vldr.32	s15, [r2, #16]
 5136 019e B5EEC07A 		vcmpe.f32	s14, #0
 5137 01a2 F1EE10FA 		vmrs	APSR_nzcv, FPSCR
 5138 01a6 BFEE007A 		vmov.f32	s14, #-1.0e+0
 5139 01aa B7EE006A 		vmov.f32	s12, #1.0e+0
 5140 01ae 58BF     		it	pl
 5141 01b0 B0EE467A 		vmovpl.f32	s14, s12
 5142 01b4 67EE877A 		vmul.f32	s15, s15, s14
 5143 01b8 67EEA67A 		vmul.f32	s15, s15, s13
 5144 01bc C3ED007A 		vstr.32	s15, [r3]
 5145              	.L414:
 5146              		.loc 1 1738 0
 5147 01c0 5B4D     		ldr	r5, .L444+72
 5148 01c2 93ED000A 		vldr.32	s0, [r3]
 5149 01c6 5B48     		ldr	r0, .L444+76
 5150 01c8 2A46     		mov	r2, r5
 5151 01ca 0421     		movs	r1, #4
 5152 01cc FFF7FEFF 		bl	filter_add_sample
 5153              	.LVL360:
 5154              		.loc 1 1740 0
 5155 01d0 2B68     		ldr	r3, [r5]
 5156 01d2 5949     		ldr	r1, .L444+80
 5157 01d4 5748     		ldr	r0, .L444+76
 5158 01d6 0422     		movs	r2, #4
 5159 01d8 FFF7FEFF 		bl	filter_run_fir_iteration
 5160              	.LVL361:
 5161 01dc 574B     		ldr	r3, .L444+84
 5162              		.loc 1 1744 0
 5163 01de 2046     		mov	r0, r4
 5164              		.loc 1 1740 0
 5165 01e0 83ED000A 		vstr.32	s0, [r3]
 5166              		.loc 1 1744 0
 5167 01e4 FFF7FEFF 		bl	timer_seconds_elapsed_since
 5168              	.LVL362:
 5169              		.loc 1 1745 0
 5170 01e8 BDEC028B 		vldm	sp!, {d8}
 5171              		.cfi_remember_state
 5172              		.cfi_restore 80
 5173              		.cfi_restore 81
 5174              		.cfi_def_cfa_offset 24
 5175              	.LVL363:
 5176              		.loc 1 1744 0
 5177 01ec 544B     		ldr	r3, .L444+88
 5178 01ee 83ED000A 		vstr.32	s0, [r3]
 5179              		.loc 1 1745 0
 5180 01f2 BDE8F081 		pop	{r4, r5, r6, r7, r8, pc}
 5181              	.LVL364:
 5182              	.L442:
 5183              		.cfi_restore_state
 5184              		.loc 1 1571 0
 5185 01f6 404B     		ldr	r3, .L444+16
 5186 01f8 5B89     		ldrh	r3, [r3, #10]
 5187 01fa 3968     		ldr	r1, [r7]
ARM GAS  /tmp/ccTWrjJD.s 			page 92


 5188              	.LVL365:
 5189 01fc ABE7     		b	.L438
 5190              	.L397:
 5191              	.LBB161:
 5192              	.LBB155:
 5193              		.loc 1 1623 0
 5194 01fe D5ED027A 		vldr.32	s15, [r5, #8]
 5195 0202 F1EE677A 		vneg.f32	s15, s15
 5196              	.LVL366:
 5197              	.L385:
 5198              		.loc 1 1656 0
 5199 0206 4F4A     		ldr	r2, .L444+92
 5200 0208 1868     		ldr	r0, [r3]
 5201 020a 1168     		ldr	r1, [r2]
 5202              		.loc 1 1659 0
 5203 020c 1B68     		ldr	r3, [r3]
 5204 020e 1360     		str	r3, [r2]
 5205              		.loc 1 1656 0
 5206 0210 8842     		cmp	r0, r1
 5207              		.loc 1 1657 0
 5208 0212 16BF     		itet	ne
 5209 0214 4C49     		ldrne	r1, .L444+96
 5210 0216 4C49     		ldreq	r1, .L444+96
 5211 0218 91ED008A 		vldrne.32	s16, [r1]
 5212              	.LVL367:
 5213              		.loc 1 1660 0
 5214 021c C1ED007A 		vstr.32	s15, [r1]
 5215 0220 08BF     		it	eq
 5216 0222 B0EE678A 		vmoveq.f32	s16, s15
 5217              	.LVL368:
 5218              	.L383:
 5219              	.LBE155:
 5220              		.loc 1 1663 0
 5221 0226 494F     		ldr	r7, .L444+100
 5222 0228 3B68     		ldr	r3, [r7]
 5223 022a 042B     		cmp	r3, #4
 5224 022c 0BD0     		beq	.L443
 5225              	.L401:
 5226              		.loc 1 1710 0
 5227 022e 002B     		cmp	r3, #0
 5228 0230 00F09A80 		beq	.L410
 5229              		.loc 1 1714 0
 5230 0234 3278     		ldrb	r2, [r6]	@ zero_extendqisi2
 5231              		.loc 1 1711 0
 5232 0236 013B     		subs	r3, r3, #1
 5233              		.loc 1 1714 0
 5234 0238 012A     		cmp	r2, #1
 5235              		.loc 1 1711 0
 5236 023a 3B60     		str	r3, [r7]
 5237              		.loc 1 1714 0
 5238 023c 00F0DE80 		beq	.L411
 5239              	.L439:
 5240 0240 D8F80020 		ldr	r2, [r8]
 5241 0244 91E7     		b	.L381
 5242              	.L443:
 5243              	.LBB156:
 5244              		.loc 1 1664 0
ARM GAS  /tmp/ccTWrjJD.s 			page 93


 5245 0246 95ED007A 		vldr.32	s14, [r5]
 5246              		.loc 1 1668 0
 5247 024a 414B     		ldr	r3, .L444+104
 5248              		.loc 1 1665 0
 5249 024c D5ED017A 		vldr.32	s15, [r5, #4]
 5250              		.loc 1 1668 0
 5251 0250 404A     		ldr	r2, .L444+108
 5252 0252 1968     		ldr	r1, [r3]
 5253              		.loc 1 1664 0
 5254 0254 B0EEC77A 		vabs.f32	s14, s14
 5255              	.LVL369:
 5256              		.loc 1 1665 0
 5257 0258 F0EEE77A 		vabs.f32	s15, s15
 5258              	.LVL370:
 5259              		.loc 1 1667 0
 5260 025c B4EEE77A 		vcmpe.f32	s14, s15
 5261 0260 F1EE10FA 		vmrs	APSR_nzcv, FPSCR
 5262              		.loc 1 1668 0
 5263 0264 02EB8101 		add	r1, r2, r1, lsl #2
 5264 0268 CCBF     		ite	gt
 5265 026a 81ED007A 		vstrgt.32	s14, [r1]
 5266              		.loc 1 1670 0
 5267 026e C1ED007A 		vstrle.32	s15, [r1]
 5268              		.loc 1 1673 0
 5269 0272 1968     		ldr	r1, [r3]
 5270 0274 0029     		cmp	r1, #0
 5271 0276 40F3E080 		ble	.L405
 5272              		.loc 1 1675 0
 5273 027a 1968     		ldr	r1, [r3]
 5274              		.loc 1 1674 0
 5275 027c 3648     		ldr	r0, .L444+112
 5276              		.loc 1 1675 0
 5277 027e 0139     		subs	r1, r1, #1
 5278 0280 02EB8101 		add	r1, r2, r1, lsl #2
 5279 0284 D1ED007A 		vldr.32	s15, [r1]
 5280              	.LVL371:
 5281 0288 1968     		ldr	r1, [r3]
 5282 028a 02EB8101 		add	r1, r2, r1, lsl #2
 5283 028e 91ED007A 		vldr.32	s14, [r1]
 5284              	.LVL372:
 5285              		.loc 1 1674 0
 5286 0292 1968     		ldr	r1, [r3]
 5287              		.loc 1 1675 0
 5288 0294 77EEC77A 		vsub.f32	s15, s15, s14
 5289              		.loc 1 1674 0
 5290 0298 00EB8101 		add	r1, r0, r1, lsl #2
 5291 029c C1ED007A 		vstr.32	s15, [r1]
 5292              	.L406:
 5293              		.loc 1 1681 0
 5294 02a0 154D     		ldr	r5, .L444+16
 5295              		.loc 1 1684 0
 5296 02a2 1F48     		ldr	r0, .L444+56
 5297              		.loc 1 1681 0
 5298 02a4 E98A     		ldrh	r1, [r5, #22]
 5299              		.loc 1 1684 0
 5300 02a6 0068     		ldr	r0, [r0]
 5301 02a8 0628     		cmp	r0, #6
ARM GAS  /tmp/ccTWrjJD.s 			page 94


 5302              		.loc 1 1681 0
 5303 02aa 89B2     		uxth	r1, r1
 5304              	.LVL373:
 5305 02ac 00F28780 		bhi	.L407
 5306 02b0 4FF0010C 		mov	ip, #1
 5307 02b4 0CFA00F0 		lsl	r0, ip, r0
 5308 02b8 10F0480F 		tst	r0, #72
 5309 02bc 21FA0CF1 		lsr	r1, r1, ip
 5310              	.LVL374:
 5311 02c0 71D1     		bne	.L408
 5312 02c2 10F0240F 		tst	r0, #36
 5313 02c6 40F0C880 		bne	.L409
 5314 02ca 10F0120F 		tst	r0, #18
 5315 02ce 76D0     		beq	.L407
 5316              		.loc 1 1687 0
 5317 02d0 2888     		ldrh	r0, [r5]
 5318 02d2 69E0     		b	.L437
 5319              	.LVL375:
 5320              	.L395:
 5321              	.LBE156:
 5322              	.LBB157:
 5323              		.loc 1 1621 0
 5324 02d4 D5ED017A 		vldr.32	s15, [r5, #4]
 5325 02d8 F1EE677A 		vneg.f32	s15, s15
 5326              	.LVL376:
 5327 02dc 93E7     		b	.L385
 5328              	.LVL377:
 5329              	.L399:
 5330              		.loc 1 1625 0
 5331 02de D5ED007A 		vldr.32	s15, [r5]
 5332 02e2 F1EE677A 		vneg.f32	s15, s15
 5333              	.LVL378:
 5334 02e6 8EE7     		b	.L385
 5335              	.L445:
 5336              		.align	2
 5337              	.L444:
 5338 02e8 00200140 		.word	1073815552
 5339 02ec 00000000 		.word	.LANCHOR1
 5340 02f0 00210140 		.word	1073815808
 5341 02f4 00220140 		.word	1073816064
 5342 02f8 00000000 		.word	ADC_Value
 5343 02fc 00000000 		.word	.LANCHOR51
 5344 0300 00000000 		.word	.LANCHOR52
 5345 0304 00000000 		.word	.LANCHOR53
 5346 0308 00000000 		.word	.LANCHOR57
 5347 030c 00000000 		.word	.LANCHOR55
 5348 0310 00000000 		.word	.LANCHOR56
 5349 0314 00000000 		.word	ADC_curr_norm_value
 5350 0318 00000000 		.word	.LANCHOR2
 5351 031c 00000000 		.word	.LANCHOR4
 5352 0320 00000000 		.word	.LANCHOR3
 5353 0324 4008043F 		.word	1057228864
 5354 0328 00000000 		.word	.LANCHOR40
 5355 032c 9A99993F 		.word	1067030938
 5356 0330 00000000 		.word	.LANCHOR68
 5357 0334 00000000 		.word	.LANCHOR69
 5358 0338 00000000 		.word	.LANCHOR50
ARM GAS  /tmp/ccTWrjJD.s 			page 95


 5359 033c 00000000 		.word	.LANCHOR41
 5360 0340 00000000 		.word	.LANCHOR70
 5361 0344 00000000 		.word	.LANCHOR60
 5362 0348 00000000 		.word	.LANCHOR61
 5363 034c 00000000 		.word	.LANCHOR62
 5364 0350 00000000 		.word	.LANCHOR34
 5365 0354 00000000 		.word	.LANCHOR63
 5366 0358 00000000 		.word	.LANCHOR64
 5367 035c 00000000 		.word	.LANCHOR0
 5368 0360 00000000 		.word	.LANCHOR54
 5369 0364 CDCC4C3E 		.word	1045220557
 5370              	.LVL379:
 5371              	.L410:
 5372              	.LBE157:
 5373              		.loc 1 1714 0
 5374 0368 3378     		ldrb	r3, [r6]	@ zero_extendqisi2
 5375 036a 012B     		cmp	r3, #1
 5376 036c 7FF468AF 		bne	.L439
 5377              	.L412:
 5378              		.loc 1 1715 0
 5379 0370 0523     		movs	r3, #5
 5380              		.loc 1 1717 0
 5381 0372 1FED040A 		vldr.32	s0, .L444+124
 5382              		.loc 1 1715 0
 5383 0376 3B60     		str	r3, [r7]
 5384              		.loc 1 1717 0
 5385 0378 FFF7FEFF 		bl	set_duty_cycle_hw
 5386              	.LVL380:
 5387              		.loc 1 1719 0
 5388 037c 394B     		ldr	r3, .L446
 5389 037e 1A68     		ldr	r2, [r3]
 5390 0380 0132     		adds	r2, r2, #1
 5391 0382 1A60     		str	r2, [r3]
 5392              		.loc 1 1720 0
 5393 0384 1A68     		ldr	r2, [r3]
 5394 0386 052A     		cmp	r2, #5
 5395              		.loc 1 1721 0
 5396 0388 C4BF     		itt	gt
 5397 038a 0022     		movgt	r2, #0
 5398 038c 1A60     		strgt	r2, [r3]
 5399              		.loc 1 1724 0
 5400 038e 1B68     		ldr	r3, [r3]
 5401 0390 354A     		ldr	r2, .L446+4
 5402 0392 0133     		adds	r3, r3, #1
 5403 0394 1360     		str	r3, [r2]
 5404              		.loc 1 1726 0
 5405 0396 1068     		ldr	r0, [r2]
 5406 0398 FFF7FEFF 		bl	set_next_comm_step
 5407              	.LVL381:
 5408              		.loc 1 1727 0
 5409 039c 2021     		movs	r1, #32
 5410 039e 3348     		ldr	r0, .L446+8
 5411 03a0 FFF7FEFF 		bl	TIM_GenerateEvent
 5412              	.LVL382:
 5413 03a4 4CE7     		b	.L439
 5414              	.L408:
 5415              	.LBB158:
ARM GAS  /tmp/ccTWrjJD.s 			page 96


 5416              		.loc 1 1697 0
 5417 03a6 A888     		ldrh	r0, [r5, #4]
 5418              	.L437:
 5419 03a8 314D     		ldr	r5, .L446+12
 5420 03aa 411A     		subs	r1, r0, r1
 5421 03ac 07EE901A 		vmov	s15, r1	@ int
 5422 03b0 1868     		ldr	r0, [r3]
 5423 03b2 F8EEE77A 		vcvt.f32.s32	s15, s15
 5424 03b6 05EB8001 		add	r1, r5, r0, lsl #2
 5425 03ba C1ED007A 		vstr.32	s15, [r1]
 5426              	.L407:
 5427              		.loc 1 1704 0
 5428 03be 1868     		ldr	r0, [r3]
 5429 03c0 2C49     		ldr	r1, .L446+16
 5430 03c2 02EB8002 		add	r2, r2, r0, lsl #2
 5431 03c6 D2ED007A 		vldr.32	s15, [r2]
 5432 03ca 1868     		ldr	r0, [r3]
 5433              		.loc 1 1705 0
 5434 03cc 2A4A     		ldr	r2, .L446+20
 5435              		.loc 1 1704 0
 5436 03ce 01EB8001 		add	r1, r1, r0, lsl #2
 5437 03d2 91ED007A 		vldr.32	s14, [r1]
 5438 03d6 37EE277A 		vadd.f32	s14, s14, s15
 5439              		.loc 1 1705 0
 5440 03da F7EE006A 		vmov.f32	s13, #1.0e+0
 5441              		.loc 1 1704 0
 5442 03de 81ED007A 		vstr.32	s14, [r1]
 5443              		.loc 1 1705 0
 5444 03e2 1B68     		ldr	r3, [r3]
 5445 03e4 02EB8303 		add	r3, r2, r3, lsl #2
 5446 03e8 D3ED007A 		vldr.32	s15, [r3]
 5447 03ec 77EEA67A 		vadd.f32	s15, s15, s13
 5448 03f0 C3ED007A 		vstr.32	s15, [r3]
 5449              		.loc 1 1707 0
 5450 03f4 FFF7FEFF 		bl	stop_pwm_hw
 5451              	.LVL383:
 5452 03f8 3B68     		ldr	r3, [r7]
 5453 03fa 18E7     		b	.L401
 5454              	.L411:
 5455              	.LBE158:
 5456              		.loc 1 1714 0 discriminator 1
 5457 03fc 002B     		cmp	r3, #0
 5458 03fe 7FF41FAF 		bne	.L439
 5459 0402 B5E7     		b	.L412
 5460              	.LVL384:
 5461              	.L441:
 5462              	.LBB159:
 5463              		.loc 1 1602 0
 5464 0404 D5ED006A 		vldr.32	s13, [r5]
 5465              	.LVL385:
 5466              		.loc 1 1603 0
 5467 0408 D5ED017A 		vldr.32	s15, [r5, #4]
 5468              	.LVL386:
 5469              		.loc 1 1604 0
 5470 040c 95ED027A 		vldr.32	s14, [r5, #8]
 5471              	.LVL387:
 5472              		.loc 1 1605 0
ARM GAS  /tmp/ccTWrjJD.s 			page 97


 5473 0410 67EEA77A 		vmul.f32	s15, s15, s15
 5474              	.LVL388:
 5475 0414 B7EE086A 		vmov.f32	s12, #1.5e+0
 5476 0418 E6EEA67A 		vfma.f32	s15, s13, s13
 5477 041c E7EE077A 		vfma.f32	s15, s14, s14
 5478 0420 87EE860A 		vdiv.f32	s0, s15, s12
 5479 0424 B5EE400A 		vcmp.f32	s0, #0
 5480 0428 F1EE10FA 		vmrs	APSR_nzcv, FPSCR
 5481 042c B1EEC08A 		vsqrt.f32	s16, s0
 5482 0430 7FF5F9AE 		bpl	.L383
 5483 0434 FFF7FEFF 		bl	sqrtf
 5484              	.LVL389:
 5485 0438 F5E6     		b	.L383
 5486              	.LVL390:
 5487              	.L405:
 5488              	.LBE159:
 5489              	.LBB160:
 5490              		.loc 1 1678 0
 5491 043a D2ED057A 		vldr.32	s15, [r2, #20]
 5492              	.LVL391:
 5493 043e 1868     		ldr	r0, [r3]
 5494              		.loc 1 1677 0
 5495 0440 0E49     		ldr	r1, .L446+24
 5496              		.loc 1 1678 0
 5497 0442 02EB8000 		add	r0, r2, r0, lsl #2
 5498 0446 90ED007A 		vldr.32	s14, [r0]
 5499              	.LVL392:
 5500              		.loc 1 1677 0
 5501 044a 1868     		ldr	r0, [r3]
 5502              		.loc 1 1678 0
 5503 044c 77EEC77A 		vsub.f32	s15, s15, s14
 5504              		.loc 1 1677 0
 5505 0450 01EB8001 		add	r1, r1, r0, lsl #2
 5506 0454 C1ED007A 		vstr.32	s15, [r1]
 5507 0458 22E7     		b	.L406
 5508              	.L409:
 5509              		.loc 1 1692 0
 5510 045a 6888     		ldrh	r0, [r5, #2]
 5511 045c A4E7     		b	.L437
 5512              	.LVL393:
 5513              	.L419:
 5514              	.LBE160:
 5515              	.LBE161:
 5516              		.loc 1 1567 0
 5517 045e DFED087A 		vldr.32	s15, .L446+28
 5518 0462 D0E6     		b	.L385
 5519              	.L447:
 5520              		.align	2
 5521              	.L446:
 5522 0464 00000000 		.word	.LANCHOR34
 5523 0468 00000000 		.word	.LANCHOR3
 5524 046c 00000140 		.word	1073807360
 5525 0470 00000000 		.word	.LANCHOR65
 5526 0474 00000000 		.word	.LANCHOR66
 5527 0478 00000000 		.word	.LANCHOR67
 5528 047c 00000000 		.word	.LANCHOR64
 5529 0480 00000000 		.word	0
ARM GAS  /tmp/ccTWrjJD.s 			page 98


 5530              		.cfi_endproc
 5531              	.LFE302:
 5532              		.size	mcpwm_adc_inj_int_handler, .-mcpwm_adc_inj_int_handler
 5533              		.section	.text.mcpwm_set_detect,"ax",%progbits
 5534              		.align	1
 5535              		.p2align 4,,15
 5536              		.global	mcpwm_set_detect
 5537              		.syntax unified
 5538              		.thumb
 5539              		.thumb_func
 5540              		.fpu fpv4-sp-d16
 5541              		.type	mcpwm_set_detect, %function
 5542              	mcpwm_set_detect:
 5543              	.LFB304:
 5544              		.loc 1 2125 0
 5545              		.cfi_startproc
 5546              		@ args = 0, pretend = 0, frame = 0
 5547              		@ frame_needed = 0, uses_anonymous_args = 0
 5548 0000 F8B5     		push	{r3, r4, r5, r6, r7, lr}
 5549              		.cfi_def_cfa_offset 24
 5550              		.cfi_offset 3, -24
 5551              		.cfi_offset 4, -20
 5552              		.cfi_offset 5, -16
 5553              		.cfi_offset 6, -12
 5554              		.cfi_offset 7, -8
 5555              		.cfi_offset 14, -4
 5556              		.loc 1 2126 0
 5557 0002 FFF7FEFF 		bl	mc_interface_try_input
 5558              	.LVL394:
 5559 0006 00B1     		cbz	r0, .L453
 5560              		.loc 1 2142 0
 5561 0008 F8BD     		pop	{r3, r4, r5, r6, r7, pc}
 5562              	.L453:
 5563              		.loc 1 2130 0
 5564 000a 0F4B     		ldr	r3, .L454
 5565 000c 0F4F     		ldr	r7, .L454+4
 5566 000e 104E     		ldr	r6, .L454+8
 5567 0010 104D     		ldr	r5, .L454+12
 5568 0012 0A22     		movs	r2, #10
 5569 0014 1A70     		strb	r2, [r3]
 5570 0016 0446     		mov	r4, r0
 5571              		.loc 1 2131 0
 5572 0018 FFF7FEFF 		bl	stop_pwm_hw
 5573              	.LVL395:
 5574              		.loc 1 2133 0
 5575 001c 0E4B     		ldr	r3, .L454+16
 5576 001e 1B68     		ldr	r3, [r3]
 5577 0020 93ED8D0A 		vldr.32	s0, [r3, #564]
 5578 0024 FFF7FEFF 		bl	set_switching_frequency
 5579              	.LVL396:
 5580              	.LBB162:
 5581              		.loc 1 2136 0
 5582 0028 0022     		movs	r2, #0
 5583              	.LVL397:
 5584              	.L450:
 5585              		.loc 1 2136 0 is_stmt 0 discriminator 3
 5586 002a A300     		lsls	r3, r4, #2
ARM GAS  /tmp/ccTWrjJD.s 			page 99


 5587 002c F818     		adds	r0, r7, r3
 5588              		.loc 1 2137 0 is_stmt 1 discriminator 3
 5589 002e F118     		adds	r1, r6, r3
 5590              		.loc 1 2135 0 discriminator 3
 5591 0030 0134     		adds	r4, r4, #1
 5592              	.LVL398:
 5593              		.loc 1 2138 0 discriminator 3
 5594 0032 2B44     		add	r3, r3, r5
 5595              		.loc 1 2135 0 discriminator 3
 5596 0034 062C     		cmp	r4, #6
 5597              		.loc 1 2136 0 discriminator 3
 5598 0036 0260     		str	r2, [r0]	@ float
 5599              		.loc 1 2137 0 discriminator 3
 5600 0038 0A60     		str	r2, [r1]	@ float
 5601              		.loc 1 2138 0 discriminator 3
 5602 003a 1A60     		str	r2, [r3]	@ float
 5603              		.loc 1 2135 0 discriminator 3
 5604 003c F5D1     		bne	.L450
 5605              	.LBE162:
 5606              		.loc 1 2141 0
 5607 003e 074B     		ldr	r3, .L454+20
 5608 0040 0122     		movs	r2, #1
 5609 0042 1A70     		strb	r2, [r3]
 5610              		.loc 1 2142 0
 5611 0044 F8BD     		pop	{r3, r4, r5, r6, r7, pc}
 5612              	.LVL399:
 5613              	.L455:
 5614 0046 00BF     		.align	2
 5615              	.L454:
 5616 0048 00000000 		.word	.LANCHOR39
 5617 004c 00000000 		.word	.LANCHOR63
 5618 0050 00000000 		.word	.LANCHOR66
 5619 0054 00000000 		.word	.LANCHOR67
 5620 0058 00000000 		.word	.LANCHOR0
 5621 005c 00000000 		.word	.LANCHOR2
 5622              		.cfi_endproc
 5623              	.LFE304:
 5624              		.size	mcpwm_set_detect, .-mcpwm_set_detect
 5625              		.section	.text.mcpwm_get_detect_pos,"ax",%progbits
 5626              		.align	1
 5627              		.p2align 4,,15
 5628              		.global	mcpwm_get_detect_pos
 5629              		.syntax unified
 5630              		.thumb
 5631              		.thumb_func
 5632              		.fpu fpv4-sp-d16
 5633              		.type	mcpwm_get_detect_pos, %function
 5634              	mcpwm_get_detect_pos:
 5635              	.LFB305:
 5636              		.loc 1 2144 0
 5637              		.cfi_startproc
 5638              		@ args = 0, pretend = 0, frame = 8
 5639              		@ frame_needed = 0, uses_anonymous_args = 0
 5640 0000 30B5     		push	{r4, r5, lr}
 5641              		.cfi_def_cfa_offset 12
 5642              		.cfi_offset 4, -12
 5643              		.cfi_offset 5, -8
ARM GAS  /tmp/ccTWrjJD.s 			page 100


 5644              		.cfi_offset 14, -4
 5645              		.loc 1 2146 0
 5646 0002 3D48     		ldr	r0, .L465
 5647 0004 3D4C     		ldr	r4, .L465+4
 5648 0006 94ED002A 		vldr.32	s4, [r4]
 5649 000a D0ED002A 		vldr.32	s5, [r0]
 5650              		.loc 1 2147 0
 5651 000e 94ED013A 		vldr.32	s6, [r4, #4]
 5652 0012 D0ED013A 		vldr.32	s7, [r0, #4]
 5653              		.loc 1 2148 0
 5654 0016 94ED024A 		vldr.32	s8, [r4, #8]
 5655 001a D0ED026A 		vldr.32	s13, [r0, #8]
 5656              		.loc 1 2149 0
 5657 001e D4ED034A 		vldr.32	s9, [r4, #12]
 5658 0022 90ED037A 		vldr.32	s14, [r0, #12]
 5659              		.loc 1 2150 0
 5660 0026 94ED045A 		vldr.32	s10, [r4, #16]
 5661 002a D0ED047A 		vldr.32	s15, [r0, #16]
 5662              		.loc 1 2151 0
 5663 002e D4ED055A 		vldr.32	s11, [r4, #20]
 5664 0032 90ED056A 		vldr.32	s12, [r0, #20]
 5665              		.loc 1 2144 0
 5666 0036 2DED048B 		vpush.64	{d8, d9}
 5667              		.cfi_def_cfa_offset 28
 5668              		.cfi_offset 80, -28
 5669              		.cfi_offset 81, -24
 5670              		.cfi_offset 82, -20
 5671              		.cfi_offset 83, -16
 5672              		.loc 1 2148 0
 5673 003a 84EE268A 		vdiv.f32	s16, s8, s13
 5674              		.loc 1 2144 0
 5675 003e 83B0     		sub	sp, sp, #12
 5676              		.cfi_def_cfa_offset 40
 5677              	.LBB163:
 5678              		.loc 1 2154 0
 5679 0040 0021     		movs	r1, #0
 5680              		.loc 1 2153 0
 5681 0042 0022     		movs	r2, #0
 5682              	.LBE163:
 5683              		.loc 1 2149 0
 5684 0044 C4EE876A 		vdiv.f32	s13, s9, s14
 5685              		.loc 1 2146 0
 5686 0048 82EE229A 		vdiv.f32	s18, s4, s5
 5687              	.LVL400:
 5688              		.loc 1 2150 0
 5689 004c 85EE277A 		vdiv.f32	s14, s10, s15
 5690              		.loc 1 2147 0
 5691 0050 C3EE238A 		vdiv.f32	s17, s6, s7
 5692              	.LVL401:
 5693              		.loc 1 2151 0
 5694 0054 C5EE867A 		vdiv.f32	s15, s11, s12
 5695              	.LVL402:
 5696              	.L457:
 5697              	.LBB164:
 5698              		.loc 1 2154 0 discriminator 3
 5699 0058 9300     		lsls	r3, r2, #2
 5700 005a E518     		adds	r5, r4, r3
ARM GAS  /tmp/ccTWrjJD.s 			page 101


 5701              		.loc 1 2153 0 discriminator 3
 5702 005c 0132     		adds	r2, r2, #1
 5703              	.LVL403:
 5704              		.loc 1 2155 0 discriminator 3
 5705 005e 0344     		add	r3, r3, r0
 5706              		.loc 1 2153 0 discriminator 3
 5707 0060 062A     		cmp	r2, #6
 5708              		.loc 1 2154 0 discriminator 3
 5709 0062 2960     		str	r1, [r5]	@ float
 5710              		.loc 1 2155 0 discriminator 3
 5711 0064 1960     		str	r1, [r3]	@ float
 5712              		.loc 1 2153 0 discriminator 3
 5713 0066 F7D1     		bne	.L457
 5714              	.LBE164:
 5715              		.loc 1 2158 0
 5716 0068 39EE269A 		vadd.f32	s18, s18, s13
 5717              	.LVL404:
 5718              		.loc 1 2159 0
 5719 006c 78EE878A 		vadd.f32	s17, s17, s14
 5720              	.LVL405:
 5721              		.loc 1 2160 0
 5722 0070 38EE278A 		vadd.f32	s16, s16, s15
 5723              	.LVL406:
 5724              		.loc 1 2162 0
 5725 0074 79EE287A 		vadd.f32	s15, s18, s17
 5726              	.LVL407:
 5727 0078 B0EE086A 		vmov.f32	s12, #3.0e+0
 5728              	.LVL408:
 5729 007c 77EE887A 		vadd.f32	s15, s15, s16
 5730              		.loc 1 2167 0
 5731 0080 F7EE086A 		vmov.f32	s13, #1.5e+0
 5732              	.LVL409:
 5733              		.loc 1 2162 0
 5734 0084 87EE867A 		vdiv.f32	s14, s15, s12
 5735              	.LVL410:
 5736              		.loc 1 2164 0
 5737 0088 78EEC78A 		vsub.f32	s17, s17, s14
 5738              	.LVL411:
 5739              		.loc 1 2163 0
 5740 008c 39EE479A 		vsub.f32	s18, s18, s14
 5741              	.LVL412:
 5742              		.loc 1 2167 0
 5743 0090 68EEA87A 		vmul.f32	s15, s17, s17
 5744              		.loc 1 2165 0
 5745 0094 38EE478A 		vsub.f32	s16, s16, s14
 5746              	.LVL413:
 5747              		.loc 1 2167 0
 5748 0098 E9EE097A 		vfma.f32	s15, s18, s18
 5749 009c E8EE087A 		vfma.f32	s15, s16, s16
 5750 00a0 87EEA60A 		vdiv.f32	s0, s15, s13
 5751 00a4 B5EE400A 		vcmp.f32	s0, #0
 5752 00a8 F1EE10FA 		vmrs	APSR_nzcv, FPSCR
 5753 00ac F1EEC09A 		vsqrt.f32	s19, s0
 5754 00b0 1FD4     		bmi	.L464
 5755              	.LVL414:
 5756              	.L458:
 5757              		.loc 1 2173 0
ARM GAS  /tmp/ccTWrjJD.s 			page 102


 5758 00b2 89EE290A 		vdiv.f32	s0, s18, s19
 5759              	.LVL415:
 5760 00b6 FFF7FEFF 		bl	asinf
 5761              	.LVL416:
 5762              		.loc 1 2180 0
 5763 00ba 01A8     		add	r0, sp, #4
 5764              		.loc 1 2169 0
 5765 00bc C8EEA96A 		vdiv.f32	s13, s17, s19
 5766              	.LVL417:
 5767              		.loc 1 2170 0
 5768 00c0 88EE297A 		vdiv.f32	s14, s16, s19
 5769              	.LVL418:
 5770              		.loc 1 2173 0
 5771 00c4 DFED0E7A 		vldr.32	s15, .L465+8
 5772              		.loc 1 2176 0
 5773 00c8 F4EEC76A 		vcmpe.f32	s13, s14
 5774 00cc F1EE10FA 		vmrs	APSR_nzcv, FPSCR
 5775              		.loc 1 2173 0
 5776 00d0 20EE270A 		vmul.f32	s0, s0, s15
 5777              	.LVL419:
 5778              		.loc 1 2177 0
 5779 00d4 44BF     		itt	mi
 5780 00d6 DFED0B7A 		vldrmi.32	s15, .L465+12
 5781 00da 37EEC00A 		vsubmi.f32	s0, s15, s0
 5782              	.LVL420:
 5783 00de 8DED010A 		vstr.32	s0, [sp, #4]
 5784              		.loc 1 2180 0
 5785 00e2 FFF7FEFF 		bl	utils_norm_angle
 5786              	.LVL421:
 5787              		.loc 1 2183 0
 5788 00e6 9DED010A 		vldr.32	s0, [sp, #4]
 5789 00ea 03B0     		add	sp, sp, #12
 5790              		.cfi_remember_state
 5791              		.cfi_def_cfa_offset 28
 5792              		@ sp needed
 5793 00ec BDEC048B 		vldm	sp!, {d8-d9}
 5794              		.cfi_restore 82
 5795              		.cfi_restore 83
 5796              		.cfi_restore 80
 5797              		.cfi_restore 81
 5798              		.cfi_def_cfa_offset 12
 5799              	.LVL422:
 5800 00f0 30BD     		pop	{r4, r5, pc}
 5801              	.LVL423:
 5802              	.L464:
 5803              		.cfi_restore_state
 5804              		.loc 1 2167 0
 5805 00f2 FFF7FEFF 		bl	sqrtf
 5806              	.LVL424:
 5807 00f6 DCE7     		b	.L458
 5808              	.L466:
 5809              		.align	2
 5810              	.L465:
 5811 00f8 00000000 		.word	.LANCHOR67
 5812 00fc 00000000 		.word	.LANCHOR66
 5813 0100 E02E6542 		.word	1113927392
 5814 0104 00003443 		.word	1127481344
ARM GAS  /tmp/ccTWrjJD.s 			page 103


 5815              		.cfi_endproc
 5816              	.LFE305:
 5817              		.size	mcpwm_get_detect_pos, .-mcpwm_get_detect_pos
 5818              		.section	.text.mcpwm_read_reset_avg_cycle_integrator,"ax",%progbits
 5819              		.align	1
 5820              		.p2align 4,,15
 5821              		.global	mcpwm_read_reset_avg_cycle_integrator
 5822              		.syntax unified
 5823              		.thumb
 5824              		.thumb_func
 5825              		.fpu fpv4-sp-d16
 5826              		.type	mcpwm_read_reset_avg_cycle_integrator, %function
 5827              	mcpwm_read_reset_avg_cycle_integrator:
 5828              	.LFB306:
 5829              		.loc 1 2185 0
 5830              		.cfi_startproc
 5831              		@ args = 0, pretend = 0, frame = 0
 5832              		@ frame_needed = 0, uses_anonymous_args = 0
 5833              		@ link register save eliminated.
 5834              		.loc 1 2186 0
 5835 0000 0549     		ldr	r1, .L468
 5836 0002 064B     		ldr	r3, .L468+4
 5837 0004 91ED000A 		vldr.32	s0, [r1]
 5838 0008 D3ED007A 		vldr.32	s15, [r3]
 5839              	.LVL425:
 5840              		.loc 1 2187 0
 5841 000c 0022     		movs	r2, #0
 5842 000e 0A60     		str	r2, [r1]	@ float
 5843              		.loc 1 2190 0
 5844 0010 80EE270A 		vdiv.f32	s0, s0, s15
 5845              	.LVL426:
 5846              		.loc 1 2188 0
 5847 0014 1A60     		str	r2, [r3]	@ float
 5848              		.loc 1 2190 0
 5849 0016 7047     		bx	lr
 5850              	.L469:
 5851              		.align	2
 5852              	.L468:
 5853 0018 00000000 		.word	.LANCHOR44
 5854 001c 00000000 		.word	.LANCHOR45
 5855              		.cfi_endproc
 5856              	.LFE306:
 5857              		.size	mcpwm_read_reset_avg_cycle_integrator, .-mcpwm_read_reset_avg_cycle_integrator
 5858              		.section	.text.mcpwm_set_comm_mode,"ax",%progbits
 5859              		.align	1
 5860              		.p2align 4,,15
 5861              		.global	mcpwm_set_comm_mode
 5862              		.syntax unified
 5863              		.thumb
 5864              		.thumb_func
 5865              		.fpu fpv4-sp-d16
 5866              		.type	mcpwm_set_comm_mode, %function
 5867              	mcpwm_set_comm_mode:
 5868              	.LFB307:
 5869              		.loc 1 2201 0
 5870              		.cfi_startproc
 5871              		@ args = 0, pretend = 0, frame = 0
ARM GAS  /tmp/ccTWrjJD.s 			page 104


 5872              		@ frame_needed = 0, uses_anonymous_args = 0
 5873              		@ link register save eliminated.
 5874              	.LVL427:
 5875              		.loc 1 2202 0
 5876 0000 024B     		ldr	r3, .L471
 5877 0002 1B68     		ldr	r3, [r3]
 5878 0004 83F88500 		strb	r0, [r3, #133]
 5879              		.loc 1 2203 0
 5880 0008 7047     		bx	lr
 5881              	.L472:
 5882 000a 00BF     		.align	2
 5883              	.L471:
 5884 000c 00000000 		.word	.LANCHOR0
 5885              		.cfi_endproc
 5886              	.LFE307:
 5887              		.size	mcpwm_set_comm_mode, .-mcpwm_set_comm_mode
 5888              		.section	.text.mcpwm_get_comm_mode,"ax",%progbits
 5889              		.align	1
 5890              		.p2align 4,,15
 5891              		.global	mcpwm_get_comm_mode
 5892              		.syntax unified
 5893              		.thumb
 5894              		.thumb_func
 5895              		.fpu fpv4-sp-d16
 5896              		.type	mcpwm_get_comm_mode, %function
 5897              	mcpwm_get_comm_mode:
 5898              	.LFB308:
 5899              		.loc 1 2205 0
 5900              		.cfi_startproc
 5901              		@ args = 0, pretend = 0, frame = 0
 5902              		@ frame_needed = 0, uses_anonymous_args = 0
 5903              		@ link register save eliminated.
 5904              		.loc 1 2206 0
 5905 0000 024B     		ldr	r3, .L474
 5906 0002 1B68     		ldr	r3, [r3]
 5907 0004 93F88500 		ldrb	r0, [r3, #133]	@ zero_extendqisi2
 5908              		.loc 1 2207 0
 5909 0008 7047     		bx	lr
 5910              	.L475:
 5911 000a 00BF     		.align	2
 5912              	.L474:
 5913 000c 00000000 		.word	.LANCHOR0
 5914              		.cfi_endproc
 5915              	.LFE308:
 5916              		.size	mcpwm_get_comm_mode, .-mcpwm_get_comm_mode
 5917              		.section	.text.mcpwm_get_last_adc_isr_duration,"ax",%progbits
 5918              		.align	1
 5919              		.p2align 4,,15
 5920              		.global	mcpwm_get_last_adc_isr_duration
 5921              		.syntax unified
 5922              		.thumb
 5923              		.thumb_func
 5924              		.fpu fpv4-sp-d16
 5925              		.type	mcpwm_get_last_adc_isr_duration, %function
 5926              	mcpwm_get_last_adc_isr_duration:
 5927              	.LFB309:
 5928              		.loc 1 2209 0
ARM GAS  /tmp/ccTWrjJD.s 			page 105


 5929              		.cfi_startproc
 5930              		@ args = 0, pretend = 0, frame = 0
 5931              		@ frame_needed = 0, uses_anonymous_args = 0
 5932              		@ link register save eliminated.
 5933              		.loc 1 2210 0
 5934 0000 014B     		ldr	r3, .L477
 5935 0002 93ED000A 		vldr.32	s0, [r3]
 5936              		.loc 1 2211 0
 5937 0006 7047     		bx	lr
 5938              	.L478:
 5939              		.align	2
 5940              	.L477:
 5941 0008 00000000 		.word	.LANCHOR71
 5942              		.cfi_endproc
 5943              	.LFE309:
 5944              		.size	mcpwm_get_last_adc_isr_duration, .-mcpwm_get_last_adc_isr_duration
 5945              		.section	.text.mcpwm_get_last_inj_adc_isr_duration,"ax",%progbits
 5946              		.align	1
 5947              		.p2align 4,,15
 5948              		.global	mcpwm_get_last_inj_adc_isr_duration
 5949              		.syntax unified
 5950              		.thumb
 5951              		.thumb_func
 5952              		.fpu fpv4-sp-d16
 5953              		.type	mcpwm_get_last_inj_adc_isr_duration, %function
 5954              	mcpwm_get_last_inj_adc_isr_duration:
 5955              	.LFB310:
 5956              		.loc 1 2213 0
 5957              		.cfi_startproc
 5958              		@ args = 0, pretend = 0, frame = 0
 5959              		@ frame_needed = 0, uses_anonymous_args = 0
 5960              		@ link register save eliminated.
 5961              		.loc 1 2214 0
 5962 0000 014B     		ldr	r3, .L480
 5963 0002 93ED000A 		vldr.32	s0, [r3]
 5964              		.loc 1 2215 0
 5965 0006 7047     		bx	lr
 5966              	.L481:
 5967              		.align	2
 5968              	.L480:
 5969 0008 00000000 		.word	.LANCHOR70
 5970              		.cfi_endproc
 5971              	.LFE310:
 5972              		.size	mcpwm_get_last_inj_adc_isr_duration, .-mcpwm_get_last_inj_adc_isr_duration
 5973              		.section	.text.mcpwm_get_rpm_dep,"ax",%progbits
 5974              		.align	1
 5975              		.p2align 4,,15
 5976              		.global	mcpwm_get_rpm_dep
 5977              		.syntax unified
 5978              		.thumb
 5979              		.thumb_func
 5980              		.fpu fpv4-sp-d16
 5981              		.type	mcpwm_get_rpm_dep, %function
 5982              	mcpwm_get_rpm_dep:
 5983              	.LFB311:
 5984              		.loc 1 2217 0
 5985              		.cfi_startproc
ARM GAS  /tmp/ccTWrjJD.s 			page 106


 5986              		@ args = 0, pretend = 0, frame = 0
 5987              		@ frame_needed = 0, uses_anonymous_args = 0
 5988              		@ link register save eliminated.
 5989              	.LVL428:
 5990 0000 70B4     		push	{r4, r5, r6}
 5991              		.cfi_def_cfa_offset 12
 5992              		.cfi_offset 4, -12
 5993              		.cfi_offset 5, -8
 5994              		.cfi_offset 6, -4
 5995              		.loc 1 2218 0
 5996 0002 064D     		ldr	r5, .L484
 5997              		.loc 1 2217 0
 5998 0004 0646     		mov	r6, r0
 5999              		.loc 1 2218 0
 6000 0006 0FCD     		ldmia	r5!, {r0, r1, r2, r3}
 6001              	.LVL429:
 6002 0008 3446     		mov	r4, r6
 6003 000a 0FC4     		stmia	r4!, {r0, r1, r2, r3}
 6004 000c 95E80700 		ldm	r5, {r0, r1, r2}
 6005 0010 84E80700 		stm	r4, {r0, r1, r2}
 6006              		.loc 1 2219 0
 6007 0014 3046     		mov	r0, r6
 6008 0016 70BC     		pop	{r4, r5, r6}
 6009              		.cfi_restore 6
 6010              		.cfi_restore 5
 6011              		.cfi_restore 4
 6012              		.cfi_def_cfa_offset 0
 6013              	.LVL430:
 6014 0018 7047     		bx	lr
 6015              	.L485:
 6016 001a 00BF     		.align	2
 6017              	.L484:
 6018 001c 00000000 		.word	.LANCHOR8
 6019              		.cfi_endproc
 6020              	.LFE311:
 6021              		.size	mcpwm_get_rpm_dep, .-mcpwm_get_rpm_dep
 6022              		.section	.text.mcpwm_is_dccal_done,"ax",%progbits
 6023              		.align	1
 6024              		.p2align 4,,15
 6025              		.global	mcpwm_is_dccal_done
 6026              		.syntax unified
 6027              		.thumb
 6028              		.thumb_func
 6029              		.fpu fpv4-sp-d16
 6030              		.type	mcpwm_is_dccal_done, %function
 6031              	mcpwm_is_dccal_done:
 6032              	.LFB312:
 6033              		.loc 1 2221 0
 6034              		.cfi_startproc
 6035              		@ args = 0, pretend = 0, frame = 0
 6036              		@ frame_needed = 0, uses_anonymous_args = 0
 6037              		@ link register save eliminated.
 6038              		.loc 1 2222 0
 6039 0000 014B     		ldr	r3, .L487
 6040 0002 1878     		ldrb	r0, [r3]	@ zero_extendqisi2
 6041              		.loc 1 2223 0
 6042 0004 7047     		bx	lr
ARM GAS  /tmp/ccTWrjJD.s 			page 107


 6043              	.L488:
 6044 0006 00BF     		.align	2
 6045              	.L487:
 6046 0008 00000000 		.word	.LANCHOR46
 6047              		.cfi_endproc
 6048              	.LFE312:
 6049              		.size	mcpwm_is_dccal_done, .-mcpwm_is_dccal_done
 6050              		.section	.text.mcpwm_switch_comm_mode,"ax",%progbits
 6051              		.align	1
 6052              		.p2align 4,,15
 6053              		.global	mcpwm_switch_comm_mode
 6054              		.syntax unified
 6055              		.thumb
 6056              		.thumb_func
 6057              		.fpu fpv4-sp-d16
 6058              		.type	mcpwm_switch_comm_mode, %function
 6059              	mcpwm_switch_comm_mode:
 6060              	.LFB313:
 6061              		.loc 1 2225 0
 6062              		.cfi_startproc
 6063              		@ args = 0, pretend = 0, frame = 0
 6064              		@ frame_needed = 0, uses_anonymous_args = 0
 6065              		@ link register save eliminated.
 6066              	.LVL431:
 6067              		.loc 1 2226 0
 6068 0000 014B     		ldr	r3, .L490
 6069 0002 1870     		strb	r0, [r3]
 6070              		.loc 1 2227 0
 6071 0004 7047     		bx	lr
 6072              	.L491:
 6073 0006 00BF     		.align	2
 6074              	.L490:
 6075 0008 00000000 		.word	.LANCHOR29
 6076              		.cfi_endproc
 6077              	.LFE313:
 6078              		.size	mcpwm_switch_comm_mode, .-mcpwm_switch_comm_mode
 6079              		.section	.text.mcpwm_reset_hall_detect_table,"ax",%progbits
 6080              		.align	1
 6081              		.p2align 4,,15
 6082              		.global	mcpwm_reset_hall_detect_table
 6083              		.syntax unified
 6084              		.thumb
 6085              		.thumb_func
 6086              		.fpu fpv4-sp-d16
 6087              		.type	mcpwm_reset_hall_detect_table, %function
 6088              	mcpwm_reset_hall_detect_table:
 6089              	.LFB314:
 6090              		.loc 1 2232 0
 6091              		.cfi_startproc
 6092              		@ args = 0, pretend = 0, frame = 0
 6093              		@ frame_needed = 0, uses_anonymous_args = 0
 6094              		@ link register save eliminated.
 6095              		.loc 1 2233 0
 6096 0000 E022     		movs	r2, #224
 6097 0002 0021     		movs	r1, #0
 6098 0004 0148     		ldr	r0, .L493
 6099 0006 FFF7FEBF 		b	memset
ARM GAS  /tmp/ccTWrjJD.s 			page 108


 6100              	.LVL432:
 6101              	.L494:
 6102 000a 00BF     		.align	2
 6103              	.L493:
 6104 000c 00000000 		.word	.LANCHOR47
 6105              		.cfi_endproc
 6106              	.LFE314:
 6107              		.size	mcpwm_reset_hall_detect_table, .-mcpwm_reset_hall_detect_table
 6108              		.section	.text.mcpwm_get_hall_detect_result,"ax",%progbits
 6109              		.align	1
 6110              		.p2align 4,,15
 6111              		.global	mcpwm_get_hall_detect_result
 6112              		.syntax unified
 6113              		.thumb
 6114              		.thumb_func
 6115              		.fpu fpv4-sp-d16
 6116              		.type	mcpwm_get_hall_detect_result, %function
 6117              	mcpwm_get_hall_detect_result:
 6118              	.LFB315:
 6119              		.loc 1 2247 0
 6120              		.cfi_startproc
 6121              		@ args = 0, pretend = 0, frame = 32
 6122              		@ frame_needed = 0, uses_anonymous_args = 0
 6123              	.LVL433:
 6124              		.loc 1 2248 0
 6125 0000 2B4B     		ldr	r3, .L514
 6126 0002 1B68     		ldr	r3, [r3]
 6127 0004 93F82832 		ldrb	r3, [r3, #552]	@ zero_extendqisi2
 6128 0008 002B     		cmp	r3, #0
 6129 000a 4DD1     		bne	.L504
 6130              		.loc 1 2247 0
 6131 000c F0B5     		push	{r4, r5, r6, r7, lr}
 6132              		.cfi_def_cfa_offset 20
 6133              		.cfi_offset 4, -20
 6134              		.cfi_offset 5, -16
 6135              		.cfi_offset 6, -12
 6136              		.cfi_offset 7, -8
 6137              		.cfi_offset 14, -4
 6138 000e 294E     		ldr	r6, .L514+4
 6139 0010 89B0     		sub	sp, sp, #36
 6140              		.cfi_def_cfa_offset 56
 6141 0012 03F0FF0E 		and	lr, r3, #255
 6142              		.loc 1 2248 0
 6143 0016 0746     		mov	r7, r0
 6144              	.L497:
 6145              	.LVL434:
 6146              	.LBB165:
 6147              	.LBB166:
 6148              	.LBB167:
 6149              		.loc 1 2255 0
 6150 0018 0123     		movs	r3, #1
 6151              	.LBE167:
 6152              		.loc 1 2254 0
 6153 001a 4FF0FF34 		mov	r4, #-1
 6154              		.loc 1 2253 0
 6155 001e 0021     		movs	r1, #0
 6156              	.LBB168:
ARM GAS  /tmp/ccTWrjJD.s 			page 109


 6157              		.loc 1 2256 0
 6158 0020 CEEBCE0C 		rsb	ip, lr, lr, lsl #3
 6159              	.LVL435:
 6160              	.L499:
 6161 0024 0CEB0302 		add	r2, ip, r3
 6162 0028 56F82250 		ldr	r5, [r6, r2, lsl #2]
 6163 002c 8D42     		cmp	r5, r1
 6164 002e 04DD     		ble	.L498
 6165              		.loc 1 2257 0
 6166 0030 56F82210 		ldr	r1, [r6, r2, lsl #2]
 6167              	.LVL436:
 6168 0034 0F29     		cmp	r1, #15
 6169 0036 C8BF     		it	gt
 6170 0038 1C46     		movgt	r4, r3
 6171              	.LVL437:
 6172              	.L498:
 6173              		.loc 1 2255 0 discriminator 2
 6174 003a 0133     		adds	r3, r3, #1
 6175              	.LVL438:
 6176 003c 072B     		cmp	r3, #7
 6177              		.loc 1 2262 0 discriminator 2
 6178 003e 3C70     		strb	r4, [r7]
 6179              		.loc 1 2255 0 discriminator 2
 6180 0040 F0D1     		bne	.L499
 6181              	.LBE168:
 6182              	.LBE166:
 6183              		.loc 1 2252 0 discriminator 2
 6184 0042 0EF1010E 		add	lr, lr, #1
 6185              	.LVL439:
 6186 0046 BEF1080F 		cmp	lr, #8
 6187 004a 07F10107 		add	r7, r7, #1
 6188 004e E3D1     		bne	.L497
 6189              	.LVL440:
 6190              	.LBE165:
 6191              		.loc 1 2267 0
 6192 0050 0023     		movs	r3, #0
 6193              	.LVL441:
 6194              		.loc 1 2268 0
 6195 0052 1C46     		mov	r4, r3
 6196              	.LVL442:
 6197              		.loc 1 2267 0
 6198 0054 0193     		str	r3, [sp, #4]
 6199              		.loc 1 2266 0
 6200 0056 1D46     		mov	r5, r3
 6201              		.loc 1 2267 0
 6202 0058 CDE90233 		strd	r3, r3, [sp, #8]
 6203 005c CDE90433 		strd	r3, r3, [sp, #16]
 6204 0060 CDE90633 		strd	r3, r3, [sp, #24]
 6205              	.LVL443:
 6206              	.LBB169:
 6207              		.loc 1 2274 0
 6208 0064 0126     		movs	r6, #1
 6209 0066 431E     		subs	r3, r0, #1
 6210 0068 0730     		adds	r0, r0, #7
 6211              	.LVL444:
 6212 006a 07E0     		b	.L503
 6213              	.LVL445:
ARM GAS  /tmp/ccTWrjJD.s 			page 110


 6214              	.L501:
 6215              		.loc 1 2273 0
 6216 006c 51F81C2C 		ldr	r2, [r1, #-28]
 6217 0070 12B9     		cbnz	r2, .L502
 6218              		.loc 1 2274 0
 6219 0072 41F81C6C 		str	r6, [r1, #-28]
 6220              		.loc 1 2275 0
 6221 0076 0134     		adds	r4, r4, #1
 6222              	.LVL446:
 6223              	.L502:
 6224              		.loc 1 2269 0 discriminator 2
 6225 0078 9842     		cmp	r0, r3
 6226 007a 0AD0     		beq	.L513
 6227              	.LVL447:
 6228              	.L503:
 6229              		.loc 1 2270 0
 6230 007c 13F9012F 		ldrsb	r2, [r3, #1]!
 6231              	.LVL448:
 6232              		.loc 1 2273 0
 6233 0080 08A9     		add	r1, sp, #32
 6234 0082 01EB8201 		add	r1, r1, r2, lsl #2
 6235              		.loc 1 2270 0
 6236 0086 0132     		adds	r2, r2, #1
 6237 0088 F0D1     		bne	.L501
 6238              		.loc 1 2269 0
 6239 008a 9842     		cmp	r0, r3
 6240              		.loc 1 2271 0
 6241 008c 05F10105 		add	r5, r5, #1
 6242              	.LVL449:
 6243              		.loc 1 2269 0
 6244 0090 F4D1     		bne	.L503
 6245              	.LVL450:
 6246              	.L513:
 6247              	.LBE169:
 6248              		.loc 1 2280 0
 6249 0092 022D     		cmp	r5, #2
 6250 0094 05D1     		bne	.L506
 6251              		.loc 1 2280 0 is_stmt 0 discriminator 1
 6252 0096 A01F     		subs	r0, r4, #6
 6253              	.LVL451:
 6254 0098 18BF     		it	ne
 6255 009a 4FF0FF30 		movne	r0, #-1
 6256              	.L495:
 6257              		.loc 1 2285 0 is_stmt 1
 6258 009e 09B0     		add	sp, sp, #36
 6259              		.cfi_remember_state
 6260              		.cfi_def_cfa_offset 20
 6261              		@ sp needed
 6262 00a0 F0BD     		pop	{r4, r5, r6, r7, pc}
 6263              	.LVL452:
 6264              	.L506:
 6265              		.cfi_restore_state
 6266              		.loc 1 2283 0
 6267 00a2 4FF0FF30 		mov	r0, #-1
 6268 00a6 FAE7     		b	.L495
 6269              	.LVL453:
 6270              	.L504:
ARM GAS  /tmp/ccTWrjJD.s 			page 111


 6271              		.cfi_def_cfa_offset 0
 6272              		.cfi_restore 4
 6273              		.cfi_restore 5
 6274              		.cfi_restore 6
 6275              		.cfi_restore 7
 6276              		.cfi_restore 14
 6277              		.loc 1 2249 0
 6278 00a8 6FF00200 		mvn	r0, #2
 6279              	.LVL454:
 6280              		.loc 1 2285 0
 6281 00ac 7047     		bx	lr
 6282              	.L515:
 6283 00ae 00BF     		.align	2
 6284              	.L514:
 6285 00b0 00000000 		.word	.LANCHOR0
 6286 00b4 00000000 		.word	.LANCHOR47
 6287              		.cfi_endproc
 6288              	.LFE315:
 6289              		.size	mcpwm_get_hall_detect_result, .-mcpwm_get_hall_detect_result
 6290              		.section	.text.mcpwm_read_hall_phase,"ax",%progbits
 6291              		.align	1
 6292              		.p2align 4,,15
 6293              		.global	mcpwm_read_hall_phase
 6294              		.syntax unified
 6295              		.thumb
 6296              		.thumb_func
 6297              		.fpu fpv4-sp-d16
 6298              		.type	mcpwm_read_hall_phase, %function
 6299              	mcpwm_read_hall_phase:
 6300              	.LFB316:
 6301              		.loc 1 2292 0
 6302              		.cfi_startproc
 6303              		@ args = 0, pretend = 0, frame = 0
 6304              		@ frame_needed = 0, uses_anonymous_args = 0
 6305              		@ link register save eliminated.
 6306              	.LBB170:
 6307              	.LBB171:
 6308              		.loc 1 2297 0
 6309 0000 0A4A     		ldr	r2, .L521
 6310              	.LBE171:
 6311              	.LBE170:
 6312              		.loc 1 2293 0
 6313 0002 0B48     		ldr	r0, .L521+4
 6314              	.LBB174:
 6315              	.LBB172:
 6316              		.loc 1 2297 0
 6317 0004 1169     		ldr	r1, [r2, #16]
 6318 0006 1369     		ldr	r3, [r2, #16]
 6319 0008 1269     		ldr	r2, [r2, #16]
 6320              	.LBE172:
 6321              	.LBE174:
 6322              		.loc 1 2293 0
 6323 000a 0068     		ldr	r0, [r0]
 6324              	.LBB175:
 6325              	.LBB173:
 6326              		.loc 1 2297 0
 6327 000c 9B09     		lsrs	r3, r3, #6
ARM GAS  /tmp/ccTWrjJD.s 			page 112


 6328 000e 9209     		lsrs	r2, r2, #6
 6329 0010 03F00203 		and	r3, r3, #2
 6330 0014 02F00402 		and	r2, r2, #4
 6331 0018 C1F38011 		ubfx	r1, r1, #6, #1
 6332 001c 1343     		orrs	r3, r3, r2
 6333 001e 0B43     		orrs	r3, r3, r1
 6334              	.LBE173:
 6335              	.LBE175:
 6336              		.loc 1 2293 0
 6337 0020 00B1     		cbz	r0, .L517
 6338 0022 0833     		adds	r3, r3, #8
 6339              	.L517:
 6340              		.loc 1 2293 0 is_stmt 0 discriminator 4
 6341 0024 034A     		ldr	r2, .L521+8
 6342              		.loc 1 2294 0 is_stmt 1 discriminator 4
 6343 0026 52F82300 		ldr	r0, [r2, r3, lsl #2]
 6344 002a 7047     		bx	lr
 6345              	.L522:
 6346              		.align	2
 6347              	.L521:
 6348 002c 00080240 		.word	1073874944
 6349 0030 00000000 		.word	.LANCHOR4
 6350 0034 00000000 		.word	.LANCHOR33
 6351              		.cfi_endproc
 6352              	.LFE316:
 6353              		.size	mcpwm_read_hall_phase, .-mcpwm_read_hall_phase
 6354              		.section	.text.set_duty_cycle_ll,"ax",%progbits
 6355              		.align	1
 6356              		.p2align 4,,15
 6357              		.syntax unified
 6358              		.thumb
 6359              		.thumb_func
 6360              		.fpu fpv4-sp-d16
 6361              		.type	set_duty_cycle_ll, %function
 6362              	set_duty_cycle_ll:
 6363              	.LFB296:
 6364              		.loc 1 1027 0
 6365              		.cfi_startproc
 6366              		@ args = 0, pretend = 0, frame = 0
 6367              		@ frame_needed = 0, uses_anonymous_args = 0
 6368              	.LVL455:
 6369 0000 38B5     		push	{r3, r4, r5, lr}
 6370              		.cfi_def_cfa_offset 16
 6371              		.cfi_offset 3, -16
 6372              		.cfi_offset 4, -12
 6373              		.cfi_offset 5, -8
 6374              		.cfi_offset 14, -4
 6375              		.loc 1 1028 0
 6376 0002 5F4D     		ldr	r5, .L575
 6377 0004 2B68     		ldr	r3, [r5]
 6378 0006 D3ED147A 		vldr.32	s15, [r3, #80]
 6379 000a F4EEC07A 		vcmpe.f32	s15, s0
 6380 000e F1EE10FA 		vmrs	APSR_nzcv, FPSCR
 6381 0012 22D8     		bhi	.L565
 6382              		.loc 1 1029 0
 6383 0014 5B4A     		ldr	r2, .L575+4
 6384 0016 0121     		movs	r1, #1
ARM GAS  /tmp/ccTWrjJD.s 			page 113


 6385 0018 1160     		str	r1, [r2]
 6386              	.L526:
 6387              		.loc 1 1035 0
 6388 001a D3ED147A 		vldr.32	s15, [r3, #80]
 6389 001e F4EEC07A 		vcmpe.f32	s15, s0
 6390 0022 F1EE10FA 		vmrs	APSR_nzcv, FPSCR
 6391 0026 2DDD     		ble	.L566
 6392              	.L573:
 6393              	.LBB176:
 6394              		.loc 1 1038 0
 6395 0028 574A     		ldr	r2, .L575+8
 6396 002a 1178     		ldrb	r1, [r2]	@ zero_extendqisi2
 6397 002c 0229     		cmp	r1, #2
 6398 002e 64D0     		beq	.L530
 6399              		.loc 1 1039 0 discriminator 1
 6400 0030 1178     		ldrb	r1, [r2]	@ zero_extendqisi2
 6401              		.loc 1 1038 0 discriminator 1
 6402 0032 0329     		cmp	r1, #3
 6403 0034 61D0     		beq	.L530
 6404              		.loc 1 1040 0
 6405 0036 1278     		ldrb	r2, [r2]	@ zero_extendqisi2
 6406              		.loc 1 1039 0
 6407 0038 012A     		cmp	r2, #1
 6408 003a 5ED0     		beq	.L530
 6409              		.loc 1 1049 0
 6410 003c 534C     		ldr	r4, .L575+12
 6411              		.loc 1 1046 0
 6412 003e D3ED087A 		vldr.32	s15, [r3, #32]
 6413              	.LVL456:
 6414              		.loc 1 1049 0
 6415 0042 2278     		ldrb	r2, [r4]	@ zero_extendqisi2
 6416 0044 D2B2     		uxtb	r2, r2
 6417 0046 012A     		cmp	r2, #1
 6418 0048 5ED1     		bne	.L572
 6419              	.L534:
 6420              	.LBB177:
 6421              	.LBB178:
 6422              		.loc 1 912 0
 6423 004a 514A     		ldr	r2, .L575+16
 6424              		.loc 1 911 0
 6425 004c 0023     		movs	r3, #0
 6426 004e 2370     		strb	r3, [r4]
 6427              		.loc 1 912 0
 6428 0050 1360     		str	r3, [r2]
 6429              	.LBE178:
 6430              	.LBE177:
 6431              	.LBE176:
 6432              		.loc 1 1103 0
 6433 0052 BDE83840 		pop	{r3, r4, r5, lr}
 6434              		.cfi_remember_state
 6435              		.cfi_restore 14
 6436              		.cfi_restore 5
 6437              		.cfi_restore 4
 6438              		.cfi_restore 3
 6439              		.cfi_def_cfa_offset 0
 6440              	.LBB185:
 6441              	.LBB180:
ARM GAS  /tmp/ccTWrjJD.s 			page 114


 6442              	.LBB179:
 6443              		.loc 1 913 0
 6444 0056 FFF7FEBF 		b	stop_pwm_hw
 6445              	.LVL457:
 6446              	.L565:
 6447              		.cfi_restore_state
 6448              	.LBE179:
 6449              	.LBE180:
 6450              	.LBE185:
 6451              		.loc 1 1030 0
 6452 005a D3ED147A 		vldr.32	s15, [r3, #80]
 6453 005e F1EE677A 		vneg.f32	s15, s15
 6454 0062 F4EEC07A 		vcmpe.f32	s15, s0
 6455 0066 F1EE10FA 		vmrs	APSR_nzcv, FPSCR
 6456 006a D6DB     		blt	.L526
 6457              		.loc 1 1032 0
 6458 006c 454A     		ldr	r2, .L575+4
 6459 006e 0021     		movs	r1, #0
 6460 0070 1160     		str	r1, [r2]
 6461              		.loc 1 1035 0
 6462 0072 D3ED147A 		vldr.32	s15, [r3, #80]
 6463              		.loc 1 1031 0
 6464 0076 B1EE400A 		vneg.f32	s0, s0
 6465              	.LVL458:
 6466              		.loc 1 1035 0
 6467 007a F4EEC07A 		vcmpe.f32	s15, s0
 6468 007e F1EE10FA 		vmrs	APSR_nzcv, FPSCR
 6469 0082 D1DC     		bgt	.L573
 6470              	.L566:
 6471              		.loc 1 1068 0
 6472 0084 D3ED157A 		vldr.32	s15, [r3, #84]
 6473 0088 404C     		ldr	r4, .L575+12
 6474 008a F4EEC07A 		vcmpe.f32	s15, s0
 6475 008e F1EE10FA 		vmrs	APSR_nzcv, FPSCR
 6476              		.loc 1 1069 0
 6477 0092 48BF     		it	mi
 6478 0094 93ED150A 		vldrmi.32	s0, [r3, #84]
 6479              	.LVL459:
 6480              	.L538:
 6481              		.loc 1 1072 0
 6482 0098 FFF7FEFF 		bl	set_duty_cycle_hw
 6483              	.LVL460:
 6484              		.loc 1 1074 0
 6485 009c 2B68     		ldr	r3, [r5]
 6486 009e 93F88650 		ldrb	r5, [r3, #134]	@ zero_extendqisi2
 6487 00a2 EDB2     		uxtb	r5, r5
 6488 00a4 012D     		cmp	r5, #1
 6489 00a6 3ED0     		beq	.L574
 6490              		.loc 1 1079 0
 6491 00a8 3A4A     		ldr	r2, .L575+20
 6492 00aa 1278     		ldrb	r2, [r2]	@ zero_extendqisi2
 6493 00ac A2B1     		cbz	r2, .L541
 6494              		.loc 1 1080 0
 6495 00ae 2278     		ldrb	r2, [r4]	@ zero_extendqisi2
 6496 00b0 022A     		cmp	r2, #2
 6497 00b2 10D0     		beq	.L523
 6498              		.loc 1 1081 0
ARM GAS  /tmp/ccTWrjJD.s 			page 115


 6499 00b4 2278     		ldrb	r2, [r4]	@ zero_extendqisi2
 6500 00b6 002A     		cmp	r2, #0
 6501 00b8 39D1     		bne	.L543
 6502              		.loc 1 1082 0
 6503 00ba 0221     		movs	r1, #2
 6504              		.loc 1 1084 0
 6505 00bc 364A     		ldr	r2, .L575+24
 6506              		.loc 1 1082 0
 6507 00be 2170     		strb	r1, [r4]
 6508              		.loc 1 1084 0
 6509 00c0 D2ED007A 		vldr.32	s15, [r2]
 6510 00c4 93ED227A 		vldr.32	s14, [r3, #136]
 6511 00c8 F0EEE77A 		vabs.f32	s15, s15
 6512 00cc F4EEC77A 		vcmpe.f32	s15, s14
 6513 00d0 F1EE10FA 		vmrs	APSR_nzcv, FPSCR
 6514 00d4 0CD4     		bmi	.L571
 6515              	.L523:
 6516              		.loc 1 1103 0
 6517 00d6 38BD     		pop	{r3, r4, r5, pc}
 6518              	.L541:
 6519              		.loc 1 1095 0
 6520 00d8 2378     		ldrb	r3, [r4]	@ zero_extendqisi2
 6521 00da 022B     		cmp	r3, #2
 6522 00dc FBD0     		beq	.L523
 6523              		.loc 1 1096 0
 6524 00de 0223     		movs	r3, #2
 6525 00e0 2370     		strb	r3, [r4]
 6526              		.loc 1 1097 0
 6527 00e2 FFF7FEFF 		bl	mcpwm_read_hall_phase
 6528              	.LVL461:
 6529 00e6 2D4B     		ldr	r3, .L575+28
 6530 00e8 1860     		str	r0, [r3]
 6531              	.L570:
 6532              		.loc 1 1098 0
 6533 00ea 1868     		ldr	r0, [r3]
 6534 00ec FFF7FEFF 		bl	set_next_comm_step
 6535              	.LVL462:
 6536              	.L571:
 6537              		.loc 1 1099 0
 6538 00f0 0120     		movs	r0, #1
 6539              		.loc 1 1103 0
 6540 00f2 BDE83840 		pop	{r3, r4, r5, lr}
 6541              		.cfi_remember_state
 6542              		.cfi_restore 14
 6543              		.cfi_restore 5
 6544              		.cfi_restore 4
 6545              		.cfi_restore 3
 6546              		.cfi_def_cfa_offset 0
 6547              		.loc 1 1099 0
 6548 00f6 FFF7FEBF 		b	commutate
 6549              	.LVL463:
 6550              	.L530:
 6551              		.cfi_restore_state
 6552              	.LBB186:
 6553              		.loc 1 1049 0
 6554 00fa 244C     		ldr	r4, .L575+12
 6555              		.loc 1 1044 0
ARM GAS  /tmp/ccTWrjJD.s 			page 116


 6556 00fc D3ED097A 		vldr.32	s15, [r3, #36]
 6557              	.LVL464:
 6558              		.loc 1 1049 0
 6559 0100 2278     		ldrb	r2, [r4]	@ zero_extendqisi2
 6560 0102 D2B2     		uxtb	r2, r2
 6561 0104 012A     		cmp	r2, #1
 6562 0106 A0D0     		beq	.L534
 6563              	.L572:
 6564 0108 022A     		cmp	r2, #2
 6565 010a E4D1     		bne	.L523
 6566              		.loc 1 1052 0
 6567 010c 224A     		ldr	r2, .L575+24
 6568 010e 92ED007A 		vldr.32	s14, [r2]
 6569 0112 B0EEC77A 		vabs.f32	s14, s14
 6570 0116 B4EEE77A 		vcmpe.f32	s14, s15
 6571 011a F1EE10FA 		vmrs	APSR_nzcv, FPSCR
 6572 011e 26DD     		ble	.L567
 6573              		.loc 1 1053 0
 6574 0120 93ED140A 		vldr.32	s0, [r3, #80]
 6575              	.LVL465:
 6576              		.loc 1 1058 0
 6577 0124 B8E7     		b	.L538
 6578              	.LVL466:
 6579              	.L574:
 6580              	.LBE186:
 6581              		.loc 1 1075 0
 6582 0126 0222     		movs	r2, #2
 6583              		.loc 1 1076 0
 6584 0128 1C4B     		ldr	r3, .L575+28
 6585              		.loc 1 1075 0
 6586 012a 2270     		strb	r2, [r4]
 6587 012c DDE7     		b	.L570
 6588              	.L543:
 6589              		.loc 1 1087 0
 6590 012e 2278     		ldrb	r2, [r4]	@ zero_extendqisi2
 6591 0130 032A     		cmp	r2, #3
 6592 0132 D0D1     		bne	.L523
 6593              		.loc 1 1088 0
 6594 0134 184A     		ldr	r2, .L575+24
 6595 0136 D2ED007A 		vldr.32	s15, [r2]
 6596 013a 93ED227A 		vldr.32	s14, [r3, #136]
 6597 013e F0EEE77A 		vabs.f32	s15, s15
 6598 0142 F4EEC77A 		vcmpe.f32	s15, s14
 6599 0146 F1EE10FA 		vmrs	APSR_nzcv, FPSCR
 6600 014a C4D5     		bpl	.L523
 6601              	.LBB187:
 6602              	.LBB188:
 6603              		.loc 1 794 0
 6604 014c 144A     		ldr	r2, .L575+32
 6605 014e D2ED007A 		vldr.32	s15, [r2]
 6606              	.LBE188:
 6607              	.LBE187:
 6608              		.loc 1 1088 0
 6609 0152 93ED247A 		vldr.32	s14, [r3, #144]
 6610 0156 B4EEE77A 		vcmpe.f32	s14, s15
 6611 015a F1EE10FA 		vmrs	APSR_nzcv, FPSCR
 6612 015e BADD     		ble	.L523
ARM GAS  /tmp/ccTWrjJD.s 			page 117


 6613              		.loc 1 1089 0
 6614 0160 0223     		movs	r3, #2
 6615 0162 2370     		strb	r3, [r4]
 6616              		.loc 1 1090 0
 6617 0164 0120     		movs	r0, #1
 6618              		.loc 1 1103 0
 6619 0166 BDE83840 		pop	{r3, r4, r5, lr}
 6620              		.cfi_remember_state
 6621              		.cfi_restore 14
 6622              		.cfi_restore 5
 6623              		.cfi_restore 4
 6624              		.cfi_restore 3
 6625              		.cfi_def_cfa_offset 0
 6626              		.loc 1 1090 0
 6627 016a FFF7FEBF 		b	commutate
 6628              	.LVL467:
 6629              	.L567:
 6630              		.cfi_restore_state
 6631              	.LBB189:
 6632              	.LBB181:
 6633              	.LBB182:
 6634              		.loc 1 940 0
 6635 016e 084B     		ldr	r3, .L575+16
 6636              		.loc 1 939 0
 6637 0170 0321     		movs	r1, #3
 6638              		.loc 1 940 0
 6639 0172 0022     		movs	r2, #0
 6640              		.loc 1 939 0
 6641 0174 2170     		strb	r1, [r4]
 6642              		.loc 1 940 0
 6643 0176 1A60     		str	r2, [r3]
 6644              	.LBE182:
 6645              	.LBE181:
 6646              	.LBE189:
 6647              		.loc 1 1103 0
 6648 0178 BDE83840 		pop	{r3, r4, r5, lr}
