ARM GAS  /tmp/ccv5Hvdv.s 			page 1


   1              		.cpu cortex-m4
   2              		.eabi_attribute 27, 1
   3              		.eabi_attribute 28, 1
   4              		.eabi_attribute 20, 1
   5              		.eabi_attribute 21, 1
   6              		.eabi_attribute 23, 3
   7              		.eabi_attribute 24, 1
   8              		.eabi_attribute 25, 1
   9              		.eabi_attribute 26, 1
  10              		.eabi_attribute 30, 2
  11              		.eabi_attribute 34, 1
  12              		.eabi_attribute 18, 4
  13              		.file	"mempools.c"
  14              		.text
  15              	.Ltext0:
  16              		.cfi_sections	.debug_frame
  17              		.section	.text.mempools_alloc_mcconf,"ax",%progbits
  18              		.align	1
  19              		.p2align 4,,15
  20              		.global	mempools_alloc_mcconf
  21              		.syntax unified
  22              		.thumb
  23              		.thumb_func
  24              		.fpu fpv4-sp-d16
  25              		.type	mempools_alloc_mcconf, %function
  26              	mempools_alloc_mcconf:
  27              	.LFB219:
  28              		.file 1 "mempools.c"
  29              		.loc 1 39 0
  30              		.cfi_startproc
  31              		@ args = 0, pretend = 0, frame = 0
  32              		@ frame_needed = 0, uses_anonymous_args = 0
  33              		@ link register save eliminated.
  34              	.LVL0:
  35 0000 F0B4     		push	{r4, r5, r6, r7}
  36              		.cfi_def_cfa_offset 16
  37              		.cfi_offset 4, -16
  38              		.cfi_offset 5, -12
  39              		.cfi_offset 6, -8
  40              		.cfi_offset 7, -4
  41 0002 144F     		ldr	r7, .L17
  42 0004 1448     		ldr	r0, .L17+4
  43 0006 3E68     		ldr	r6, [r7]
  44              		.loc 1 39 0
  45 0008 0025     		movs	r5, #0
  46 000a 3146     		mov	r1, r6
  47              	.LBB2:
  48              		.loc 1 40 0
  49 000c 2B46     		mov	r3, r5
  50              		.loc 1 44 0
  51 000e 4FF42474 		mov	r4, #656
  52              	.LVL1:
  53              	.L6:
  54 0012 04FB03F2 		mul	r2, r4, r3
  55              		.loc 1 41 0
  56 0016 9942     		cmp	r1, r3
  57              		.loc 1 44 0
ARM GAS  /tmp/ccv5Hvdv.s 			page 2


  58 0018 825C     		ldrb	r2, [r0, r2]	@ zero_extendqisi2
  59              		.loc 1 41 0
  60 001a BCBF     		itt	lt
  61 001c 1946     		movlt	r1, r3
  62 001e 0125     		movlt	r5, #1
  63              		.loc 1 44 0
  64 0020 52B1     		cbz	r2, .L15
  65              		.loc 1 40 0 discriminator 2
  66 0022 0133     		adds	r3, r3, #1
  67              	.LVL2:
  68 0024 0A2B     		cmp	r3, #10
  69 0026 F4D1     		bne	.L6
  70              		.loc 1 40 0 is_stmt 0
  71 0028 002D     		cmp	r5, #0
  72 002a 18BF     		it	ne
  73 002c 0E46     		movne	r6, r1
  74              	.LBE2:
  75              		.loc 1 50 0 is_stmt 1
  76 002e 0136     		adds	r6, r6, #1
  77 0030 3E60     		str	r6, [r7]
  78              		.loc 1 52 0
  79 0032 0020     		movs	r0, #0
  80              		.loc 1 53 0
  81 0034 F0BC     		pop	{r4, r5, r6, r7}
  82              		.cfi_remember_state
  83              		.cfi_restore 7
  84              		.cfi_restore 6
  85              		.cfi_restore 5
  86              		.cfi_restore 4
  87              		.cfi_def_cfa_offset 0
  88 0036 7047     		bx	lr
  89              	.L15:
  90              		.cfi_restore_state
  91 0038 4DB9     		cbnz	r5, .L16
  92              	.L4:
  93              	.LBB3:
  94              		.loc 1 45 0
  95 003a 4FF42472 		mov	r2, #656
  96 003e 02FB03F3 		mul	r3, r2, r3
  97              	.LVL3:
  98 0042 0121     		movs	r1, #1
  99              		.loc 1 46 0
 100 0044 1A1D     		adds	r2, r3, #4
 101              		.loc 1 45 0
 102 0046 C154     		strb	r1, [r0, r3]
 103              	.LBE3:
 104              		.loc 1 53 0
 105 0048 F0BC     		pop	{r4, r5, r6, r7}
 106              		.cfi_remember_state
 107              		.cfi_restore 7
 108              		.cfi_restore 6
 109              		.cfi_restore 5
 110              		.cfi_restore 4
 111              		.cfi_def_cfa_offset 0
 112              	.LBB4:
 113              		.loc 1 46 0
 114 004a 1044     		add	r0, r0, r2
ARM GAS  /tmp/ccv5Hvdv.s 			page 3


 115              	.LBE4:
 116              		.loc 1 53 0
 117 004c 7047     		bx	lr
 118              	.LVL4:
 119              	.L16:
 120              		.cfi_restore_state
 121 004e 3960     		str	r1, [r7]
 122 0050 F3E7     		b	.L4
 123              	.L18:
 124 0052 00BF     		.align	2
 125              	.L17:
 126 0054 00000000 		.word	.LANCHOR0
 127 0058 00000000 		.word	m_mc_confs
 128              		.cfi_endproc
 129              	.LFE219:
 130              		.size	mempools_alloc_mcconf, .-mempools_alloc_mcconf
 131              		.section	.text.mempools_free_mcconf,"ax",%progbits
 132              		.align	1
 133              		.p2align 4,,15
 134              		.global	mempools_free_mcconf
 135              		.syntax unified
 136              		.thumb
 137              		.thumb_func
 138              		.fpu fpv4-sp-d16
 139              		.type	mempools_free_mcconf, %function
 140              	mempools_free_mcconf:
 141              	.LFB220:
 142              		.loc 1 55 0
 143              		.cfi_startproc
 144              		@ args = 0, pretend = 0, frame = 0
 145              		@ frame_needed = 0, uses_anonymous_args = 0
 146              		@ link register save eliminated.
 147              	.LVL5:
 148 0000 084B     		ldr	r3, .L25
 149              	.LBB5:
 150              		.loc 1 56 0
 151 0002 0022     		movs	r2, #0
 152              	.LVL6:
 153              	.L22:
 154              		.loc 1 57 0
 155 0004 9842     		cmp	r0, r3
 156 0006 03F52473 		add	r3, r3, #656
 157 000a 03D0     		beq	.L24
 158              		.loc 1 56 0 discriminator 2
 159 000c 0132     		adds	r2, r2, #1
 160              	.LVL7:
 161 000e 0A2A     		cmp	r2, #10
 162 0010 F8D1     		bne	.L22
 163              	.LBE5:
 164              		.loc 1 62 0
 165 0012 7047     		bx	lr
 166              	.L24:
 167              	.LBB6:
 168              		.loc 1 58 0
 169 0014 4FF42473 		mov	r3, #656
 170 0018 03FB02F2 		mul	r2, r3, r2
 171              	.LVL8:
ARM GAS  /tmp/ccv5Hvdv.s 			page 4


 172 001c 024B     		ldr	r3, .L25+4
 173 001e 0021     		movs	r1, #0
 174 0020 9954     		strb	r1, [r3, r2]
 175              		.loc 1 59 0
 176 0022 7047     		bx	lr
 177              	.L26:
 178              		.align	2
 179              	.L25:
 180 0024 04000000 		.word	m_mc_confs+4
 181 0028 00000000 		.word	m_mc_confs
 182              	.LBE6:
 183              		.cfi_endproc
 184              	.LFE220:
 185              		.size	mempools_free_mcconf, .-mempools_free_mcconf
 186              		.section	.text.mempools_alloc_appconf,"ax",%progbits
 187              		.align	1
 188              		.p2align 4,,15
 189              		.global	mempools_alloc_appconf
 190              		.syntax unified
 191              		.thumb
 192              		.thumb_func
 193              		.fpu fpv4-sp-d16
 194              		.type	mempools_alloc_appconf, %function
 195              	mempools_alloc_appconf:
 196              	.LFB221:
 197              		.loc 1 64 0
 198              		.cfi_startproc
 199              		@ args = 0, pretend = 0, frame = 0
 200              		@ frame_needed = 0, uses_anonymous_args = 0
 201              		@ link register save eliminated.
 202              	.LVL9:
 203 0000 F0B4     		push	{r4, r5, r6, r7}
 204              		.cfi_def_cfa_offset 16
 205              		.cfi_offset 4, -16
 206              		.cfi_offset 5, -12
 207              		.cfi_offset 6, -8
 208              		.cfi_offset 7, -4
 209 0002 144F     		ldr	r7, .L42
 210 0004 1448     		ldr	r0, .L42+4
 211 0006 3A68     		ldr	r2, [r7]
 212              		.loc 1 64 0
 213 0008 0025     		movs	r5, #0
 214 000a 1146     		mov	r1, r2
 215              	.LBB7:
 216              		.loc 1 65 0
 217 000c 2B46     		mov	r3, r5
 218              		.loc 1 69 0
 219 000e 4FF40F76 		mov	r6, #572
 220              	.LVL10:
 221              	.L32:
 222 0012 06FB03F4 		mul	r4, r6, r3
 223              		.loc 1 66 0
 224 0016 9942     		cmp	r1, r3
 225              		.loc 1 69 0
 226 0018 045D     		ldrb	r4, [r0, r4]	@ zero_extendqisi2
 227              		.loc 1 66 0
 228 001a BCBF     		itt	lt
ARM GAS  /tmp/ccv5Hvdv.s 			page 5


 229 001c 1946     		movlt	r1, r3
 230 001e 0125     		movlt	r5, #1
 231              		.loc 1 69 0
 232 0020 54B1     		cbz	r4, .L40
 233              		.loc 1 65 0 discriminator 2
 234 0022 0133     		adds	r3, r3, #1
 235              	.LVL11:
 236 0024 032B     		cmp	r3, #3
 237 0026 F4D1     		bne	.L32
 238              		.loc 1 65 0 is_stmt 0
 239 0028 002D     		cmp	r5, #0
 240 002a 18BF     		it	ne
 241 002c 0A46     		movne	r2, r1
 242              	.LBE7:
 243              		.loc 1 75 0 is_stmt 1
 244 002e 0132     		adds	r2, r2, #1
 245 0030 3A60     		str	r2, [r7]
 246              		.loc 1 77 0
 247 0032 0020     		movs	r0, #0
 248              		.loc 1 78 0
 249 0034 F0BC     		pop	{r4, r5, r6, r7}
 250              		.cfi_remember_state
 251              		.cfi_restore 7
 252              		.cfi_restore 6
 253              		.cfi_restore 5
 254              		.cfi_restore 4
 255              		.cfi_def_cfa_offset 0
 256 0036 7047     		bx	lr
 257              	.L40:
 258              		.cfi_restore_state
 259 0038 4DB9     		cbnz	r5, .L41
 260              	.L30:
 261              	.LBB8:
 262              		.loc 1 70 0
 263 003a 4FF40F72 		mov	r2, #572
 264 003e 02FB03F3 		mul	r3, r2, r3
 265              	.LVL12:
 266 0042 0121     		movs	r1, #1
 267              		.loc 1 71 0
 268 0044 1A1D     		adds	r2, r3, #4
 269              		.loc 1 70 0
 270 0046 C154     		strb	r1, [r0, r3]
 271              	.LBE8:
 272              		.loc 1 78 0
 273 0048 F0BC     		pop	{r4, r5, r6, r7}
 274              		.cfi_remember_state
 275              		.cfi_restore 7
 276              		.cfi_restore 6
 277              		.cfi_restore 5
 278              		.cfi_restore 4
 279              		.cfi_def_cfa_offset 0
 280              	.LBB9:
 281              		.loc 1 71 0
 282 004a 1044     		add	r0, r0, r2
 283              	.LBE9:
 284              		.loc 1 78 0
 285 004c 7047     		bx	lr
ARM GAS  /tmp/ccv5Hvdv.s 			page 6


 286              	.LVL13:
 287              	.L41:
 288              		.cfi_restore_state
 289 004e 3960     		str	r1, [r7]
 290 0050 F3E7     		b	.L30
 291              	.L43:
 292 0052 00BF     		.align	2
 293              	.L42:
 294 0054 00000000 		.word	.LANCHOR1
 295 0058 00000000 		.word	.LANCHOR2
 296              		.cfi_endproc
 297              	.LFE221:
 298              		.size	mempools_alloc_appconf, .-mempools_alloc_appconf
 299              		.section	.text.mempools_free_appconf,"ax",%progbits
 300              		.align	1
 301              		.p2align 4,,15
 302              		.global	mempools_free_appconf
 303              		.syntax unified
 304              		.thumb
 305              		.thumb_func
 306              		.fpu fpv4-sp-d16
 307              		.type	mempools_free_appconf, %function
 308              	mempools_free_appconf:
 309              	.LFB222:
 310              		.loc 1 80 0
 311              		.cfi_startproc
 312              		@ args = 0, pretend = 0, frame = 0
 313              		@ frame_needed = 0, uses_anonymous_args = 0
 314              		@ link register save eliminated.
 315              	.LVL14:
 316              	.LBB10:
 317              		.loc 1 82 0
 318 0000 0C4B     		ldr	r3, .L49
 319 0002 1A1D     		adds	r2, r3, #4
 320 0004 9042     		cmp	r0, r2
 321 0006 12D0     		beq	.L47
 322              	.LVL15:
 323 0008 03F51072 		add	r2, r3, #576
 324 000c 9042     		cmp	r0, r2
 325 000e 06D0     		beq	.L48
 326              	.LVL16:
 327 0010 03F27C42 		addw	r2, r3, #1148
 328 0014 9042     		cmp	r0, r2
 329              		.loc 1 81 0
 330 0016 08BF     		it	eq
 331 0018 0221     		moveq	r1, #2
 332              		.loc 1 82 0
 333 001a 01D0     		beq	.L45
 334              	.LBE10:
 335              		.loc 1 87 0
 336 001c 7047     		bx	lr
 337              	.LVL17:
 338              	.L48:
 339              	.LBB11:
 340              		.loc 1 81 0
 341 001e 0121     		movs	r1, #1
 342              	.LVL18:
ARM GAS  /tmp/ccv5Hvdv.s 			page 7


 343              	.L45:
 344              		.loc 1 83 0
 345 0020 4FF40F72 		mov	r2, #572
 346 0024 02FB01F2 		mul	r2, r2, r1
 347 0028 0021     		movs	r1, #0
 348 002a 9954     		strb	r1, [r3, r2]
 349              	.LBE11:
 350              		.loc 1 87 0
 351 002c 7047     		bx	lr
 352              	.LVL19:
 353              	.L47:
 354              	.LBB12:
 355              		.loc 1 81 0
 356 002e 0021     		movs	r1, #0
 357 0030 F6E7     		b	.L45
 358              	.L50:
 359 0032 00BF     		.align	2
 360              	.L49:
 361 0034 00000000 		.word	.LANCHOR2
 362              	.LBE12:
 363              		.cfi_endproc
 364              	.LFE222:
 365              		.size	mempools_free_appconf, .-mempools_free_appconf
 366              		.section	.text.mempools_mcconf_highest,"ax",%progbits
 367              		.align	1
 368              		.p2align 4,,15
 369              		.global	mempools_mcconf_highest
 370              		.syntax unified
 371              		.thumb
 372              		.thumb_func
 373              		.fpu fpv4-sp-d16
 374              		.type	mempools_mcconf_highest, %function
 375              	mempools_mcconf_highest:
 376              	.LFB223:
 377              		.loc 1 89 0
 378              		.cfi_startproc
 379              		@ args = 0, pretend = 0, frame = 0
 380              		@ frame_needed = 0, uses_anonymous_args = 0
 381              		@ link register save eliminated.
 382              		.loc 1 90 0
 383 0000 014B     		ldr	r3, .L52
 384              		.loc 1 91 0
 385 0002 1868     		ldr	r0, [r3]
 386 0004 7047     		bx	lr
 387              	.L53:
 388 0006 00BF     		.align	2
 389              	.L52:
 390 0008 00000000 		.word	.LANCHOR0
 391              		.cfi_endproc
 392              	.LFE223:
 393              		.size	mempools_mcconf_highest, .-mempools_mcconf_highest
 394              		.section	.text.mempools_appconf_highest,"ax",%progbits
 395              		.align	1
 396              		.p2align 4,,15
 397              		.global	mempools_appconf_highest
 398              		.syntax unified
 399              		.thumb
ARM GAS  /tmp/ccv5Hvdv.s 			page 8


 400              		.thumb_func
 401              		.fpu fpv4-sp-d16
 402              		.type	mempools_appconf_highest, %function
 403              	mempools_appconf_highest:
 404              	.LFB224:
 405              		.loc 1 93 0
 406              		.cfi_startproc
 407              		@ args = 0, pretend = 0, frame = 0
 408              		@ frame_needed = 0, uses_anonymous_args = 0
 409              		@ link register save eliminated.
 410              		.loc 1 94 0
 411 0000 014B     		ldr	r3, .L55
 412              		.loc 1 95 0
 413 0002 1868     		ldr	r0, [r3]
 414 0004 7047     		bx	lr
 415              	.L56:
 416 0006 00BF     		.align	2
 417              	.L55:
 418 0008 00000000 		.word	.LANCHOR1
 419              		.cfi_endproc
 420              	.LFE224:
 421              		.size	mempools_appconf_highest, .-mempools_appconf_highest
 422              		.section	.text.mempools_mcconf_allocated_num,"ax",%progbits
 423              		.align	1
 424              		.p2align 4,,15
 425              		.global	mempools_mcconf_allocated_num
 426              		.syntax unified
 427              		.thumb
 428              		.thumb_func
 429              		.fpu fpv4-sp-d16
 430              		.type	mempools_mcconf_allocated_num, %function
 431              	mempools_mcconf_allocated_num:
 432              	.LFB225:
 433              		.loc 1 97 0
 434              		.cfi_startproc
 435              		@ args = 0, pretend = 0, frame = 0
 436              		@ frame_needed = 0, uses_anonymous_args = 0
 437              		@ link register save eliminated.
 438              	.LVL20:
 439 0000 10B4     		push	{r4}
 440              		.cfi_def_cfa_offset 4
 441              		.cfi_offset 4, -4
 442              	.LBB13:
 443              		.loc 1 99 0
 444 0002 0023     		movs	r3, #0
 445 0004 074C     		ldr	r4, .L65
 446              	.LBE13:
 447              		.loc 1 98 0
 448 0006 1846     		mov	r0, r3
 449              	.LBB14:
 450              		.loc 1 100 0
 451 0008 4FF42471 		mov	r1, #656
 452              	.LVL21:
 453              	.L59:
 454 000c 01FB03F2 		mul	r2, r1, r3
 455 0010 0133     		adds	r3, r3, #1
 456              	.LVL22:
ARM GAS  /tmp/ccv5Hvdv.s 			page 9


 457 0012 A25C     		ldrb	r2, [r4, r2]	@ zero_extendqisi2
 458 0014 02B1     		cbz	r2, .L58
 459              		.loc 1 101 0
 460 0016 0130     		adds	r0, r0, #1
 461              	.LVL23:
 462              	.L58:
 463              		.loc 1 99 0 discriminator 2
 464 0018 0A2B     		cmp	r3, #10
 465 001a F7D1     		bne	.L59
 466              	.LBE14:
 467              		.loc 1 105 0
 468 001c 5DF8044B 		ldr	r4, [sp], #4
 469              		.cfi_restore 4
 470              		.cfi_def_cfa_offset 0
 471 0020 7047     		bx	lr
 472              	.L66:
 473 0022 00BF     		.align	2
 474              	.L65:
 475 0024 00000000 		.word	m_mc_confs
 476              		.cfi_endproc
 477              	.LFE225:
 478              		.size	mempools_mcconf_allocated_num, .-mempools_mcconf_allocated_num
 479              		.section	.text.mempools_appconf_allocated_num,"ax",%progbits
 480              		.align	1
 481              		.p2align 4,,15
 482              		.global	mempools_appconf_allocated_num
 483              		.syntax unified
 484              		.thumb
 485              		.thumb_func
 486              		.fpu fpv4-sp-d16
 487              		.type	mempools_appconf_allocated_num, %function
 488              	mempools_appconf_allocated_num:
 489              	.LFB226:
 490              		.loc 1 107 0
 491              		.cfi_startproc
 492              		@ args = 0, pretend = 0, frame = 0
 493              		@ frame_needed = 0, uses_anonymous_args = 0
 494              		@ link register save eliminated.
 495              	.LVL24:
 496              	.LBB15:
 497              		.loc 1 110 0
 498 0000 054B     		ldr	r3, .L76
 499 0002 1878     		ldrb	r0, [r3]	@ zero_extendqisi2
 500 0004 93F83C22 		ldrb	r2, [r3, #572]	@ zero_extendqisi2
 501 0008 C0B2     		uxtb	r0, r0
 502              	.LVL25:
 503 000a 02B1     		cbz	r2, .L68
 504              		.loc 1 111 0
 505 000c 0130     		adds	r0, r0, #1
 506              	.LVL26:
 507              	.L68:
 508              		.loc 1 110 0
 509 000e 93F87834 		ldrb	r3, [r3, #1144]	@ zero_extendqisi2
 510 0012 03B1     		cbz	r3, .L67
 511              		.loc 1 111 0
 512 0014 0130     		adds	r0, r0, #1
 513              	.LVL27:
ARM GAS  /tmp/ccv5Hvdv.s 			page 10


 514              	.L67:
 515              	.LBE15:
 516              		.loc 1 115 0
 517 0016 7047     		bx	lr
 518              	.L77:
 519              		.align	2
 520              	.L76:
 521 0018 00000000 		.word	.LANCHOR2
 522              		.cfi_endproc
 523              	.LFE226:
 524              		.size	mempools_appconf_allocated_num, .-mempools_appconf_allocated_num
 525              		.section	.bss.m_app_confs,"aw",%nobits
 526              		.align	2
 527              		.set	.LANCHOR2,. + 0
 528              		.type	m_app_confs, %object
 529              		.size	m_app_confs, 1716
 530              	m_app_confs:
 531 0000 00000000 		.space	1716
 531      00000000 
 531      00000000 
 531      00000000 
 531      00000000 
 532              		.section	.bss.m_appconf_highest,"aw",%nobits
 533              		.align	2
 534              		.set	.LANCHOR1,. + 0
 535              		.type	m_appconf_highest, %object
 536              		.size	m_appconf_highest, 4
 537              	m_appconf_highest:
 538 0000 00000000 		.space	4
 539              		.section	.bss.m_mc_confs,"aw",%nobits
 540              		.align	2
 541              		.type	m_mc_confs, %object
 542              		.size	m_mc_confs, 6560
 543              	m_mc_confs:
 544 0000 00000000 		.space	6560
 544      00000000 
 544      00000000 
 544      00000000 
 544      00000000 
 545              		.section	.bss.m_mcconf_highest,"aw",%nobits
 546              		.align	2
 547              		.set	.LANCHOR0,. + 0
 548              		.type	m_mcconf_highest, %object
 549              		.size	m_mcconf_highest, 4
 550              	m_mcconf_highest:
 551 0000 00000000 		.space	4
 552              		.text
 553              	.Letext0:
 554              		.file 2 "/usr/arm-none-eabi/include/machine/_default_types.h"
 555              		.file 3 "/usr/arm-none-eabi/include/sys/_stdint.h"
 556              		.file 4 "/usr/lib/gcc/arm-none-eabi/7.3.1/include/stddef.h"
 557              		.file 5 "ChibiOS_3.0.5/os/rt/ports/ARMCMx/compilers/GCC/chtypes.h"
 558              		.file 6 "ChibiOS_3.0.5/os/rt/include/chsystypes.h"
 559              		.file 7 "ChibiOS_3.0.5/os/rt/include/chschd.h"
 560              		.file 8 "ChibiOS_3.0.5/os/ext/CMSIS/include/core_cm4.h"
 561              		.file 9 "ChibiOS_3.0.5/os/ext/CMSIS/ST/system_stm32f4xx.h"
 562              		.file 10 "ChibiOS_3.0.5/os/rt/ports/ARMCMx/chcore.h"
ARM GAS  /tmp/ccv5Hvdv.s 			page 11


 563              		.file 11 "ChibiOS_3.0.5/os/rt/ports/ARMCMx/chcore_v7m.h"
 564              		.file 12 "ChibiOS_3.0.5/os/rt/include/chtm.h"
 565              		.file 13 "ChibiOS_3.0.5/os/rt/include/chsem.h"
 566              		.file 14 "ChibiOS_3.0.5/os/rt/include/chmtx.h"
 567              		.file 15 "ChibiOS_3.0.5/os/rt/include/chregistry.h"
 568              		.file 16 "datatypes.h"