ARM GAS  /tmp/ccrwCQMC.s 			page 1


   1              		.cpu cortex-m4
   2              		.eabi_attribute 27, 1
   3              		.eabi_attribute 28, 1
   4              		.eabi_attribute 20, 1
   5              		.eabi_attribute 21, 1
   6              		.eabi_attribute 23, 3
   7              		.eabi_attribute 24, 1
   8              		.eabi_attribute 25, 1
   9              		.eabi_attribute 26, 1
  10              		.eabi_attribute 30, 2
  11              		.eabi_attribute 34, 1
  12              		.eabi_attribute 18, 4
  13              		.file	"minilzo.c"
  14              		.text
  15              	.Ltext0:
  16              		.cfi_sections	.debug_frame
  17              		.section	.text.u2p,"ax",%progbits
  18              		.align	1
  19              		.p2align 4,,15
  20              		.syntax unified
  21              		.thumb
  22              		.thumb_func
  23              		.fpu fpv4-sp-d16
  24              		.type	u2p, %function
  25              	u2p:
  26              	.LFB27:
  27              		.file 1 "lzo/minilzo.c"
  28              		.loc 1 4441 0
  29              		.cfi_startproc
  30              		@ args = 0, pretend = 0, frame = 0
  31              		@ frame_needed = 0, uses_anonymous_args = 0
  32              		@ link register save eliminated.
  33              	.LVL0:
  34              		.loc 1 4443 0
  35 0000 0844     		add	r0, r0, r1
  36              	.LVL1:
  37 0002 7047     		bx	lr
  38              		.cfi_endproc
  39              	.LFE27:
  40              		.size	u2p, .-u2p
  41              		.section	.text.lzo1x_1_compress_core,"ax",%progbits
  42              		.align	1
  43              		.p2align 4,,15
  44              		.syntax unified
  45              		.thumb
  46              		.thumb_func
  47              		.fpu fpv4-sp-d16
  48              		.type	lzo1x_1_compress_core, %function
  49              	lzo1x_1_compress_core:
  50              	.LFB30:
  51              		.loc 1 4928 0
  52              		.cfi_startproc
  53              		@ args = 8, pretend = 0, frame = 16
  54              		@ frame_needed = 0, uses_anonymous_args = 0
  55              	.LVL2:
  56 0000 2DE9F04F 		push	{r4, r5, r6, r7, r8, r9, r10, fp, lr}
  57              		.cfi_def_cfa_offset 36
ARM GAS  /tmp/ccrwCQMC.s 			page 2


  58              		.cfi_offset 4, -36
  59              		.cfi_offset 5, -32
  60              		.cfi_offset 6, -28
  61              		.cfi_offset 7, -24
  62              		.cfi_offset 8, -20
  63              		.cfi_offset 9, -16
  64              		.cfi_offset 10, -12
  65              		.cfi_offset 11, -8
  66              		.cfi_offset 14, -4
  67 0004 85B0     		sub	sp, sp, #20
  68              		.cfi_def_cfa_offset 56
  69              		.loc 1 4928 0
  70 0006 DDE90E59 		ldrd	r5, r9, [sp, #56]
  71              		.loc 1 4932 0
  72 000a A1F1140C 		sub	ip, r1, #20
  73              		.loc 1 4940 0
  74 000e 032D     		cmp	r5, #3
  75              		.loc 1 4928 0
  76 0010 0092     		str	r2, [sp]
  77 0012 0293     		str	r3, [sp, #8]
  78              		.loc 1 4932 0
  79 0014 8444     		add	ip, ip, r0
  80              		.loc 1 4931 0
  81 0016 00EB0103 		add	r3, r0, r1
  82              	.LVL3:
  83              	.LBB17:
  84              	.LBB18:
  85              		.loc 1 4992 0
  86 001a DFF87CB2 		ldr	fp, .L58
  87              	.LBE18:
  88              	.LBE17:
  89              		.loc 1 4936 0
  90 001e 009C     		ldr	r4, [sp]
  91              		.loc 1 4931 0
  92 0020 0193     		str	r3, [sp, #4]
  93              	.LVL4:
  94              		.loc 1 4940 0
  95 0022 9ABF     		itte	ls
  96 0024 C5F10401 		rsbls	r1, r5, #4
  97              	.LVL5:
  98 0028 0918     		addls	r1, r1, r0
  99 002a 0146     		movhi	r1, r0
 100              	.LVL6:
 101              	.LBB42:
 102              		.loc 1 5172 0
 103 002c E246     		mov	r10, ip
 104 002e 0646     		mov	r6, r0
 105              	.LVL7:
 106              	.L5:
 107              	.LBB19:
 108              		.loc 1 4987 0
 109 0030 8B1B     		subs	r3, r1, r6
 110 0032 01EB6311 		add	r1, r1, r3, asr #5
 111              	.LVL8:
 112 0036 0131     		adds	r1, r1, #1
 113              	.LVL9:
 114              		.loc 1 4989 0
ARM GAS  /tmp/ccrwCQMC.s 			page 3


 115 0038 8A45     		cmp	r10, r1
 116 003a 40F22181 		bls	.L6
 117              		.loc 1 4991 0
 118 003e D1F800E0 		ldr	lr, [r1]
 119              	.LVL10:
 120              		.loc 1 4992 0
 121 0042 0BFB0EF7 		mul	r7, fp, lr
 122 0046 BF0C     		lsrs	r7, r7, #18
 123              		.loc 1 4994 0
 124 0048 A1EB000C 		sub	ip, r1, r0
 125              		.loc 1 4993 0
 126 004c 39F81720 		ldrh	r2, [r9, r7, lsl #1]
 127              		.loc 1 4994 0
 128 0050 29F817C0 		strh	ip, [r9, r7, lsl #1]	@ movhi
 129              		.loc 1 4995 0
 130 0054 8758     		ldr	r7, [r0, r2]
 131 0056 7745     		cmp	r7, lr
 132              		.loc 1 4993 0
 133 0058 0244     		add	r2, r2, r0
 134              	.LVL11:
 135              		.loc 1 4994 0
 136 005a 0B46     		mov	r3, r1
 137              		.loc 1 4995 0
 138 005c 24D0     		beq	.L8
 139 005e E7E7     		b	.L5
 140              	.LVL12:
 141              	.L55:
 142              	.LBE19:
 143              		.loc 1 5153 0 discriminator 1
 144 0060 B3F5006F 		cmp	r3, #2048
 145 0064 43D8     		bhi	.L23
 146              		.loc 1 5155 0
 147 0066 013B     		subs	r3, r3, #1
 148              	.LVL13:
 149              		.loc 1 5157 0
 150 0068 9A00     		lsls	r2, r3, #2
 151              	.LVL14:
 152 006a 2646     		mov	r6, r4
 153 006c 013D     		subs	r5, r5, #1
 154              	.LVL15:
 155 006e 02F01C02 		and	r2, r2, #28
 156 0072 42EA4515 		orr	r5, r2, r5, lsl #5
 157              	.LVL16:
 158 0076 06F8025B 		strb	r5, [r6], #2
 159              	.LVL17:
 160              		.loc 1 5158 0
 161 007a DB08     		lsrs	r3, r3, #3
 162              	.LVL18:
 163              	.LBB20:
 164              		.loc 1 4989 0
 165 007c 8A45     		cmp	r10, r1
 166              	.LBE20:
 167              		.loc 1 5158 0
 168 007e 6370     		strb	r3, [r4, #1]
 169 0080 3446     		mov	r4, r6
 170              	.LBB21:
 171              		.loc 1 4989 0
ARM GAS  /tmp/ccrwCQMC.s 			page 4


 172 0082 4AD9     		bls	.L35
 173              	.LVL19:
 174              	.L56:
 175              		.loc 1 4991 0
 176 0084 0F68     		ldr	r7, [r1]
 177              	.LVL20:
 178              		.loc 1 4992 0
 179 0086 0BFB07F5 		mul	r5, fp, r7
 180 008a AD0C     		lsrs	r5, r5, #18
 181              		.loc 1 4994 0
 182 008c 0E1A     		subs	r6, r1, r0
 183              		.loc 1 4993 0
 184 008e 39F81520 		ldrh	r2, [r9, r5, lsl #1]
 185              		.loc 1 4994 0
 186 0092 29F81560 		strh	r6, [r9, r5, lsl #1]	@ movhi
 187              		.loc 1 4995 0
 188 0096 50F802C0 		ldr	ip, [r0, r2]
 189 009a BC45     		cmp	ip, r7
 190              		.loc 1 4993 0
 191 009c 0244     		add	r2, r2, r0
 192              	.LVL21:
 193              		.loc 1 4994 0
 194 009e 0B46     		mov	r3, r1
 195 00a0 4FF00005 		mov	r5, #0
 196 00a4 0E46     		mov	r6, r1
 197              		.loc 1 4995 0
 198 00a6 C3D1     		bne	.L5
 199              	.LVL22:
 200              	.L8:
 201              	.LBE21:
 202              		.loc 1 5000 0
 203 00a8 751B     		subs	r5, r6, r5
 204              	.LVL23:
 205              	.LBB22:
 206              		.loc 1 5003 0
 207 00aa B1EB050C 		subs	ip, r1, r5
 208              	.LVL24:
 209 00ae 0BD0     		beq	.L10
 210              		.loc 1 5005 0
 211 00b0 BCF1030F 		cmp	ip, #3
 212 00b4 49D8     		bhi	.L11
 213              		.loc 1 5007 0
 214 00b6 14F8026C 		ldrb	r6, [r4, #-2]	@ zero_extendqisi2
 215 00ba 46EA0C06 		orr	r6, r6, ip
 216 00be 04F8026C 		strb	r6, [r4, #-2]
 217              		.loc 1 5009 0
 218 00c2 2D68     		ldr	r5, [r5]
 219              	.LVL25:
 220 00c4 2560     		str	r5, [r4]
 221              	.LVL26:
 222              		.loc 1 5010 0
 223 00c6 6444     		add	r4, r4, ip
 224              	.LVL27:
 225              	.L10:
 226              	.LBE22:
 227              	.LBB27:
 228              		.loc 1 5086 0
ARM GAS  /tmp/ccrwCQMC.s 			page 5


 229 00c8 4F68     		ldr	r7, [r1, #4]
 230 00ca 5568     		ldr	r5, [r2, #4]
 231              		.loc 1 5087 0
 232 00cc AF42     		cmp	r7, r5
 233              		.loc 1 5086 0
 234 00ce 87EA0506 		eor	r6, r7, r5
 235              	.LVL28:
 236              	.LBE27:
 237              		.loc 1 5052 0
 238 00d2 18BF     		it	ne
 239 00d4 0425     		movne	r5, #4
 240              	.LBB28:
 241              		.loc 1 5087 0
 242 00d6 63D0     		beq	.L54
 243              	.LVL29:
 244              	.L19:
 245              		.loc 1 5107 0
 246 00d8 96FAA6F6 		rbit	r6, r6
 247              	.LVL30:
 248 00dc B6FA86F6 		clz	r6, r6
 249 00e0 05EBD605 		add	r5, r5, r6, lsr #3
 250              	.LVL31:
 251 00e4 2944     		add	r1, r1, r5
 252              	.LVL32:
 253              	.L21:
 254              	.LBE28:
 255              		.loc 1 5153 0
 256 00e6 082D     		cmp	r5, #8
 257              		.loc 1 5150 0
 258 00e8 A3EB0203 		sub	r3, r3, r2
 259              	.LVL33:
 260              		.loc 1 5153 0
 261 00ec B8D9     		bls	.L55
 262              	.L23:
 263              		.loc 1 5164 0
 264 00ee B3F5804F 		cmp	r3, #16384
 265 00f2 04F10106 		add	r6, r4, #1
 266 00f6 1BD8     		bhi	.L25
 267              		.loc 1 5167 0
 268 00f8 212D     		cmp	r5, #33
 269              		.loc 1 5166 0
 270 00fa 03F1FF33 		add	r3, r3, #-1
 271              	.LVL34:
 272              		.loc 1 5167 0
 273 00fe 3AD8     		bhi	.L26
 274              	.LVL35:
 275              		.loc 1 5168 0
 276 0100 023D     		subs	r5, r5, #2
 277              	.LVL36:
 278 0102 45F02005 		orr	r5, r5, #32
 279              	.LVL37:
 280 0106 2570     		strb	r5, [r4]
 281              	.LVL38:
 282              	.L31:
 283              		.loc 1 5201 0
 284 0108 3446     		mov	r4, r6
 285 010a 9A00     		lsls	r2, r3, #2
ARM GAS  /tmp/ccrwCQMC.s 			page 6


 286              	.LBB29:
 287              		.loc 1 4989 0
 288 010c 8A45     		cmp	r10, r1
 289              	.LBE29:
 290              		.loc 1 5202 0
 291 010e 4FEA9313 		lsr	r3, r3, #6
 292              	.LVL39:
 293              		.loc 1 5201 0
 294 0112 04F8022B 		strb	r2, [r4], #2
 295              	.LVL40:
 296              		.loc 1 5202 0
 297 0116 7370     		strb	r3, [r6, #1]
 298              	.LBB30:
 299              		.loc 1 4989 0
 300 0118 B4D8     		bhi	.L56
 301              	.L35:
 302              	.LBE30:
 303              	.LBE42:
 304 011a 0020     		movs	r0, #0
 305              	.LVL41:
 306              	.L9:
 307              		.loc 1 5207 0
 308 011c 009B     		ldr	r3, [sp]
 309 011e E41A     		subs	r4, r4, r3
 310              	.LVL42:
 311 0120 029B     		ldr	r3, [sp, #8]
 312 0122 1C60     		str	r4, [r3]
 313              		.loc 1 5209 0
 314 0124 019B     		ldr	r3, [sp, #4]
 315              		.loc 1 5208 0
 316 0126 0844     		add	r0, r0, r1
 317              		.loc 1 5209 0
 318 0128 181A     		subs	r0, r3, r0
 319 012a 05B0     		add	sp, sp, #20
 320              		.cfi_remember_state
 321              		.cfi_def_cfa_offset 36
 322              		@ sp needed
 323 012c BDE8F08F 		pop	{r4, r5, r6, r7, r8, r9, r10, fp, pc}
 324              	.LVL43:
 325              	.L25:
 326              		.cfi_restore_state
 327              	.LBB43:
 328              		.loc 1 5186 0
 329 0130 A3F58043 		sub	r3, r3, #16384
 330              	.LVL44:
 331 0134 DA0A     		lsrs	r2, r3, #11
 332              	.LVL45:
 333 0136 02F00802 		and	r2, r2, #8
 334              		.loc 1 5187 0
 335 013a 092D     		cmp	r5, #9
 336 013c 42F01002 		orr	r2, r2, #16
 337 0140 22D8     		bhi	.L30
 338              	.LVL46:
 339              		.loc 1 5188 0
 340 0142 023D     		subs	r5, r5, #2
 341              	.LVL47:
 342 0144 2A43     		orrs	r2, r2, r5
ARM GAS  /tmp/ccrwCQMC.s 			page 7


 343 0146 2270     		strb	r2, [r4]
 344 0148 DEE7     		b	.L31
 345              	.LVL48:
 346              	.L11:
 347              	.LBB31:
 348              		.loc 1 5016 0
 349 014a BCF1100F 		cmp	ip, #16
 350 014e 45D8     		bhi	.L12
 351              	.LVL49:
 352              		.loc 1 5018 0
 353 0150 ACF10306 		sub	r6, ip, #3
 354 0154 2670     		strb	r6, [r4]
 355              		.loc 1 5019 0
 356 0156 2E68     		ldr	r6, [r5]
 357 0158 C4F80160 		str	r6, [r4, #1]
 358 015c 6E68     		ldr	r6, [r5, #4]
 359 015e C4F80560 		str	r6, [r4, #5]
 360              		.loc 1 5020 0
 361 0162 AE68     		ldr	r6, [r5, #8]
 362 0164 C4F80960 		str	r6, [r4, #9]
 363              		.loc 1 5021 0
 364 0168 0CF1010C 		add	ip, ip, #1
 365              	.LVL50:
 366              		.loc 1 5020 0
 367 016c ED68     		ldr	r5, [r5, #12]
 368              	.LVL51:
 369 016e C4F80D50 		str	r5, [r4, #13]
 370              		.loc 1 5021 0
 371 0172 6444     		add	r4, r4, ip
 372              	.LVL52:
 373 0174 A8E7     		b	.L10
 374              	.LVL53:
 375              	.L26:
 376              	.LBE31:
 377              		.loc 1 5171 0
 378 0176 213D     		subs	r5, r5, #33
 379              	.LVL54:
 380              		.loc 1 5172 0
 381 0178 4FF02002 		mov	r2, #32
 382              	.LVL55:
 383              		.loc 1 5173 0
 384 017c FF2D     		cmp	r5, #255
 385              		.loc 1 5172 0
 386 017e 2270     		strb	r2, [r4]
 387              		.loc 1 5173 0
 388 0180 76D8     		bhi	.L29
 389              	.LVL56:
 390              	.L32:
 391              		.loc 1 5199 0
 392 0182 3570     		strb	r5, [r6]
 393 0184 0136     		adds	r6, r6, #1
 394              	.LVL57:
 395 0186 BFE7     		b	.L31
 396              	.LVL58:
 397              	.L30:
 398              		.loc 1 5191 0
 399 0188 093D     		subs	r5, r5, #9
ARM GAS  /tmp/ccrwCQMC.s 			page 8


 400              	.LVL59:
 401              		.loc 1 5193 0
 402 018a FF2D     		cmp	r5, #255
 403              		.loc 1 5192 0
 404 018c 2270     		strb	r2, [r4]
 405              		.loc 1 5193 0
 406 018e F8D9     		bls	.L32
 407              	.LVL60:
 408              	.L33:
 409              		.loc 1 5195 0
 410 0190 FF3D     		subs	r5, r5, #255
 411              	.LVL61:
 412              	.LBB32:
 413              		.loc 1 5196 0
 414 0192 4FF00002 		mov	r2, #0
 415              	.LBE32:
 416              		.loc 1 5193 0
 417 0196 FF2D     		cmp	r5, #255
 418              	.LBB33:
 419              		.loc 1 5196 0
 420 0198 06F8012B 		strb	r2, [r6], #1
 421              	.LVL62:
 422              	.LBE33:
 423              		.loc 1 5193 0
 424 019c F1D9     		bls	.L32
 425 019e F7E7     		b	.L33
 426              	.LVL63:
 427              	.L54:
 428 01a0 02F10807 		add	r7, r2, #8
 429 01a4 01F10C0C 		add	ip, r1, #12
 430 01a8 C2F1040E 		rsb	lr, r2, #4
 431 01ac 03E0     		b	.L22
 432              	.LVL64:
 433              	.L57:
 434              	.LBB34:
 435              		.loc 1 5097 0
 436 01ae AE42     		cmp	r6, r5
 437 01b0 0CF1080C 		add	ip, ip, #8
 438 01b4 56D1     		bne	.L53
 439              	.LVL65:
 440              	.L22:
 441              		.loc 1 5090 0
 442 01b6 5CF8046C 		ldr	r6, [ip, #-4]
 443 01ba 3D68     		ldr	r5, [r7]
 444              		.loc 1 5091 0
 445 01bc AE42     		cmp	r6, r5
 446 01be A7EB0208 		sub	r8, r7, r2
 447              	.LVL66:
 448 01c2 4FD1     		bne	.L53
 449              		.loc 1 5095 0
 450 01c4 D445     		cmp	ip, r10
 451              		.loc 1 5094 0
 452 01c6 DCF80060 		ldr	r6, [ip]
 453              	.LVL67:
 454 01ca 7D68     		ldr	r5, [r7, #4]
 455 01cc 0EEB0708 		add	r8, lr, r7
 456              	.LVL68:
ARM GAS  /tmp/ccrwCQMC.s 			page 9


 457 01d0 07F10807 		add	r7, r7, #8
 458              		.loc 1 5095 0
 459 01d4 EBD3     		bcc	.L57
 460 01d6 4546     		mov	r5, r8
 461              	.LVL69:
 462              	.LBE34:
 463              		.loc 1 5149 0
 464 01d8 6146     		mov	r1, ip
 465              	.LVL70:
 466 01da 84E7     		b	.L21
 467              	.LVL71:
 468              	.L12:
 469              	.LBB35:
 470              		.loc 1 5026 0
 471 01dc BCF1120F 		cmp	ip, #18
 472 01e0 04F10106 		add	r6, r4, #1
 473 01e4 33D8     		bhi	.L13
 474              	.LVL72:
 475              		.loc 1 5027 0
 476 01e6 ACF10307 		sub	r7, ip, #3
 477 01ea 2770     		strb	r7, [r4]
 478              	.LVL73:
 479              	.L14:
 480 01ec ACF1100E 		sub	lr, ip, #16
 481 01f0 4FEA1E1E 		lsr	lr, lr, #4
 482 01f4 0EF10104 		add	r4, lr, #1
 483 01f8 2401     		lsls	r4, r4, #4
 484 01fa 0394     		str	r4, [sp, #12]
 485 01fc 06EB0408 		add	r8, r6, r4
 486              	.LBE35:
 487              		.loc 1 5000 0 discriminator 1
 488 0200 2F46     		mov	r7, r5
 489 0202 00E0     		b	.L17
 490              	.LVL74:
 491              	.L36:
 492              	.LBB36:
 493 0204 2646     		mov	r6, r4
 494              	.LVL75:
 495              	.L17:
 496              		.loc 1 5043 0 discriminator 1
 497 0206 3C68     		ldr	r4, [r7]
 498 0208 3460     		str	r4, [r6]
 499 020a 7C68     		ldr	r4, [r7, #4]
 500 020c 7460     		str	r4, [r6, #4]
 501              		.loc 1 5044 0 discriminator 1
 502 020e BC68     		ldr	r4, [r7, #8]
 503 0210 B460     		str	r4, [r6, #8]
 504 0212 FC68     		ldr	r4, [r7, #12]
 505 0214 F460     		str	r4, [r6, #12]
 506              		.loc 1 5045 0 discriminator 1
 507 0216 06F11004 		add	r4, r6, #16
 508              	.LVL76:
 509              		.loc 1 5046 0 discriminator 1
 510 021a 4445     		cmp	r4, r8
 511              		.loc 1 5045 0 discriminator 1
 512 021c 07F11007 		add	r7, r7, #16
 513              	.LVL77:
ARM GAS  /tmp/ccrwCQMC.s 			page 10


 514              		.loc 1 5046 0 discriminator 1
 515 0220 F0D1     		bne	.L36
 516 0222 CEEB0E7E 		rsb	lr, lr, lr, lsl #28
 517 0226 0CEB0E1C 		add	ip, ip, lr, lsl #4
 518 022a 039F     		ldr	r7, [sp, #12]
 519              	.LVL78:
 520 022c BCF1100E 		subs	lr, ip, #16
 521 0230 3D44     		add	r5, r5, r7
 522 0232 3FF449AF 		beq	.L10
 523 0236 AE44     		add	lr, lr, r5
 524 0238 06F10F04 		add	r4, r6, #15
 525              	.LVL79:
 526              	.L18:
 527              		.loc 1 5048 0 discriminator 1
 528 023c 15F8017B 		ldrb	r7, [r5], #1	@ zero_extendqisi2
 529              	.LVL80:
 530 0240 04F8017F 		strb	r7, [r4, #1]!
 531 0244 7545     		cmp	r5, lr
 532 0246 F9D1     		bne	.L18
 533              	.LVL81:
 534 0248 06EB0C04 		add	r4, r6, ip
 535              	.LVL82:
 536 024c 3CE7     		b	.L10
 537              	.LVL83:
 538              	.L13:
 539              	.LBB23:
 540              		.loc 1 5030 0
 541 024e ACF11207 		sub	r7, ip, #18
 542              	.LVL84:
 543              		.loc 1 5031 0
 544 0252 4FF0000E 		mov	lr, #0
 545              		.loc 1 5032 0
 546 0256 FF2F     		cmp	r7, #255
 547              		.loc 1 5031 0
 548 0258 84F800E0 		strb	lr, [r4]
 549              		.loc 1 5032 0
 550 025c 13D8     		bhi	.L16
 551              	.LVL85:
 552              	.L15:
 553              		.loc 1 5039 0
 554 025e 3770     		strb	r7, [r6]
 555 0260 0136     		adds	r6, r6, #1
 556              	.LVL86:
 557 0262 C3E7     		b	.L14
 558              	.LVL87:
 559              	.L53:
 560 0264 4746     		mov	r7, r8
 561 0266 A846     		mov	r8, r5
 562              	.LVL88:
 563              	.LBE23:
 564              	.LBE36:
 565              	.LBB37:
 566              		.loc 1 5094 0
 567 0268 86EA0806 		eor	r6, r6, r8
 568 026c 3D46     		mov	r5, r7
 569 026e 33E7     		b	.L19
 570              	.LVL89:
ARM GAS  /tmp/ccrwCQMC.s 			page 11


 571              	.L29:
 572              	.LBE37:
 573              		.loc 1 5175 0
 574 0270 FF3D     		subs	r5, r5, #255
 575              	.LVL90:
 576              	.LBB38:
 577              		.loc 1 5176 0
 578 0272 4FF00002 		mov	r2, #0
 579              	.LBE38:
 580              		.loc 1 5173 0
 581 0276 FF2D     		cmp	r5, #255
 582              	.LBB39:
 583              		.loc 1 5176 0
 584 0278 06F8012B 		strb	r2, [r6], #1
 585              	.LVL91:
 586              	.LBE39:
 587              		.loc 1 5173 0
 588 027c 81D9     		bls	.L32
 589 027e F7E7     		b	.L29
 590              	.LVL92:
 591              	.L6:
 592 0280 6842     		negs	r0, r5
 593              	.LVL93:
 594              	.LBB40:
 595              		.loc 1 4989 0
 596 0282 3146     		mov	r1, r6
 597              	.LVL94:
 598 0284 4AE7     		b	.L9
 599              	.LVL95:
 600              	.L16:
 601              	.LBE40:
 602              	.LBB41:
 603              	.LBB26:
 604              		.loc 1 5034 0
 605 0286 FF3F     		subs	r7, r7, #255
 606              	.LVL96:
 607              	.LBB24:
 608              		.loc 1 5035 0
 609 0288 4FF00004 		mov	r4, #0
 610              	.LBE24:
 611              		.loc 1 5032 0
 612 028c FF2F     		cmp	r7, #255
 613              	.LBB25:
 614              		.loc 1 5035 0
 615 028e 06F8014B 		strb	r4, [r6], #1
 616              	.LVL97:
 617              	.LBE25:
 618              		.loc 1 5032 0
 619 0292 E4D9     		bls	.L15
 620 0294 F7E7     		b	.L16
 621              	.L59:
 622 0296 00BF     		.align	2
 623              	.L58:
 624 0298 9D422418 		.word	405029533
 625              	.LBE26:
 626              	.LBE41:
 627              	.LBE43:
ARM GAS  /tmp/ccrwCQMC.s 			page 12


 628              		.cfi_endproc
 629              	.LFE30:
 630              		.size	lzo1x_1_compress_core, .-lzo1x_1_compress_core
 631              		.section	.text.__lzo_ptr_linear,"ax",%progbits
 632              		.align	1
 633              		.p2align 4,,15
 634              		.global	__lzo_ptr_linear
 635              		.syntax unified
 636              		.thumb
 637              		.thumb_func
 638              		.fpu fpv4-sp-d16
 639              		.type	__lzo_ptr_linear, %function
 640              	__lzo_ptr_linear:
 641              	.LFB14:
 642              		.loc 1 4176 0
 643              		.cfi_startproc
 644              		@ args = 0, pretend = 0, frame = 0
 645              		@ frame_needed = 0, uses_anonymous_args = 0
 646              		@ link register save eliminated.
 647              	.LVL98:
 648              		.loc 1 4188 0
 649 0000 7047     		bx	lr
 650              		.cfi_endproc
 651              	.LFE14:
 652              		.size	__lzo_ptr_linear, .-__lzo_ptr_linear
 653 0002 00BF     		.section	.text.__lzo_align_gap,"ax",%progbits
 654              		.align	1
 655              		.p2align 4,,15
 656              		.global	__lzo_align_gap
 657              		.syntax unified
 658              		.thumb
 659              		.thumb_func
 660              		.fpu fpv4-sp-d16
 661              		.type	__lzo_align_gap, %function
 662              	__lzo_align_gap:
 663              	.LFB15:
 664              		.loc 1 4192 0
 665              		.cfi_startproc
 666              		@ args = 0, pretend = 0, frame = 0
 667              		@ frame_needed = 0, uses_anonymous_args = 0
 668              		@ link register save eliminated.
 669              	.LVL99:
 670              		.loc 1 4197 0
 671 0000 0129     		cmp	r1, #1
 672 0002 08D9     		bls	.L64
 673              		.loc 1 4202 0
 674 0004 4B1E     		subs	r3, r1, #1
 675 0006 0B42     		tst	r3, r1
 676 0008 05D1     		bne	.L64
 677              	.LVL100:
 678              		.loc 1 4204 0
 679 000a 431E     		subs	r3, r0, #1
 680 000c 0B44     		add	r3, r3, r1
 681 000e 4942     		negs	r1, r1
 682              	.LVL101:
 683 0010 1940     		ands	r1, r1, r3
 684              	.LVL102:
ARM GAS  /tmp/ccrwCQMC.s 			page 13


 685 0012 081A     		subs	r0, r1, r0
 686              	.LVL103:
 687              		.loc 1 4209 0
 688 0014 7047     		bx	lr
 689              	.LVL104:
 690              	.L64:
 691              		.loc 1 4197 0
 692 0016 0020     		movs	r0, #0
 693              	.LVL105:
 694              		.loc 1 4210 0
 695 0018 7047     		bx	lr
 696              		.cfi_endproc
 697              	.LFE15:
 698              		.size	__lzo_align_gap, .-__lzo_align_gap
 699 001a 00BF     		.section	.text.lzo_copyright,"ax",%progbits
 700              		.align	1
 701              		.p2align 4,,15
 702              		.global	lzo_copyright
 703              		.syntax unified
 704              		.thumb
 705              		.thumb_func
 706              		.fpu fpv4-sp-d16
 707              		.type	lzo_copyright, %function
 708              	lzo_copyright:
 709              	.LFB16:
 710              		.loc 1 4236 0
 711              		.cfi_startproc
 712              		@ args = 0, pretend = 0, frame = 0
 713              		@ frame_needed = 0, uses_anonymous_args = 0
 714              		@ link register save eliminated.
 715              		.loc 1 4238 0
 716 0000 0048     		ldr	r0, .L66
 717 0002 7047     		bx	lr
 718              	.L67:
 719              		.align	2
 720              	.L66:
 721 0004 00000000 		.word	.LANCHOR0
 722              		.cfi_endproc
 723              	.LFE16:
 724              		.size	lzo_copyright, .-lzo_copyright
 725              		.section	.text.lzo_version,"ax",%progbits
 726              		.align	1
 727              		.p2align 4,,15
 728              		.global	lzo_version
 729              		.syntax unified
 730              		.thumb
 731              		.thumb_func
 732              		.fpu fpv4-sp-d16
 733              		.type	lzo_version, %function
 734              	lzo_version:
 735              	.LFB17:
 736              		.loc 1 4242 0
 737              		.cfi_startproc
 738              		@ args = 0, pretend = 0, frame = 0
 739              		@ frame_needed = 0, uses_anonymous_args = 0
 740              		@ link register save eliminated.
 741              		.loc 1 4244 0
ARM GAS  /tmp/ccrwCQMC.s 			page 14


 742 0000 42F2A000 		movw	r0, #8352
 743 0004 7047     		bx	lr
 744              		.cfi_endproc
 745              	.LFE17:
 746              		.size	lzo_version, .-lzo_version
 747 0006 00BF     		.section	.text.lzo_version_string,"ax",%progbits
 748              		.align	1
 749              		.p2align 4,,15
 750              		.global	lzo_version_string
 751              		.syntax unified
 752              		.thumb
 753              		.thumb_func
 754              		.fpu fpv4-sp-d16
 755              		.type	lzo_version_string, %function
 756              	lzo_version_string:
 757              	.LFB18:
 758              		.loc 1 4248 0
 759              		.cfi_startproc
 760              		@ args = 0, pretend = 0, frame = 0
 761              		@ frame_needed = 0, uses_anonymous_args = 0
 762              		@ link register save eliminated.
 763              		.loc 1 4250 0
 764 0000 0048     		ldr	r0, .L70
 765 0002 7047     		bx	lr
 766              	.L71:
 767              		.align	2
 768              	.L70:
 769 0004 00000000 		.word	.LANCHOR1
 770              		.cfi_endproc
 771              	.LFE18:
 772              		.size	lzo_version_string, .-lzo_version_string
 773              		.section	.text.lzo_version_date,"ax",%progbits
 774              		.align	1
 775              		.p2align 4,,15
 776              		.global	lzo_version_date
 777              		.syntax unified
 778              		.thumb
 779              		.thumb_func
 780              		.fpu fpv4-sp-d16
 781              		.type	lzo_version_date, %function
 782              	lzo_version_date:
 783              	.LFB19:
 784              		.loc 1 4254 0
 785              		.cfi_startproc
 786              		@ args = 0, pretend = 0, frame = 0
 787              		@ frame_needed = 0, uses_anonymous_args = 0
 788              		@ link register save eliminated.
 789              		.loc 1 4256 0
 790 0000 0048     		ldr	r0, .L73
 791 0002 7047     		bx	lr
 792              	.L74:
 793              		.align	2
 794              	.L73:
 795 0004 00000000 		.word	.LANCHOR2
 796              		.cfi_endproc
 797              	.LFE19:
 798              		.size	lzo_version_date, .-lzo_version_date
ARM GAS  /tmp/ccrwCQMC.s 			page 15


 799              		.section	.text._lzo_version_string,"ax",%progbits
 800              		.align	1
 801              		.p2align 4,,15
 802              		.global	_lzo_version_string
 803              		.syntax unified
 804              		.thumb
 805              		.thumb_func
 806              		.fpu fpv4-sp-d16
 807              		.type	_lzo_version_string, %function
 808              	_lzo_version_string:
 809              	.LFB35:
 810              		.cfi_startproc
 811              		@ args = 0, pretend = 0, frame = 0
 812              		@ frame_needed = 0, uses_anonymous_args = 0
 813              		@ link register save eliminated.
 814 0000 0048     		ldr	r0, .L76
 815 0002 7047     		bx	lr
 816              	.L77:
 817              		.align	2
 818              	.L76:
 819 0004 00000000 		.word	.LANCHOR1
 820              		.cfi_endproc
 821              	.LFE35:
 822              		.size	_lzo_version_string, .-_lzo_version_string
 823              		.section	.text._lzo_version_date,"ax",%progbits
 824              		.align	1
 825              		.p2align 4,,15
 826              		.global	_lzo_version_date
 827              		.syntax unified
 828              		.thumb
 829              		.thumb_func
 830              		.fpu fpv4-sp-d16
 831              		.type	_lzo_version_date, %function
 832              	_lzo_version_date:
 833              	.LFB37:
 834              		.cfi_startproc
 835              		@ args = 0, pretend = 0, frame = 0
 836              		@ frame_needed = 0, uses_anonymous_args = 0
 837              		@ link register save eliminated.
 838 0000 0048     		ldr	r0, .L79
 839 0002 7047     		bx	lr
 840              	.L80:
 841              		.align	2
 842              	.L79:
 843 0004 00000000 		.word	.LANCHOR2
 844              		.cfi_endproc
 845              	.LFE37:
 846              		.size	_lzo_version_date, .-_lzo_version_date
 847              		.section	.text.lzo_adler32,"ax",%progbits
 848              		.align	1
 849              		.p2align 4,,15
 850              		.global	lzo_adler32
 851              		.syntax unified
 852              		.thumb
 853              		.thumb_func
 854              		.fpu fpv4-sp-d16
 855              		.type	lzo_adler32, %function
ARM GAS  /tmp/ccrwCQMC.s 			page 16


 856              	lzo_adler32:
 857              	.LFB22:
 858              		.loc 1 4281 0
 859              		.cfi_startproc
 860              		@ args = 0, pretend = 0, frame = 0
 861              		@ frame_needed = 0, uses_anonymous_args = 0
 862              	.LVL106:
 863              		.loc 1 4286 0
 864 0000 0029     		cmp	r1, #0
 865 0002 00F08C80 		beq	.L91
 866              		.loc 1 4281 0
 867 0006 2DE9F04F 		push	{r4, r5, r6, r7, r8, r9, r10, fp, lr}
 868              		.cfi_def_cfa_offset 36
 869              		.cfi_offset 4, -36
 870              		.cfi_offset 5, -32
 871              		.cfi_offset 6, -28
 872              		.cfi_offset 7, -24
 873              		.cfi_offset 8, -20
 874              		.cfi_offset 9, -16
 875              		.cfi_offset 10, -12
 876              		.cfi_offset 11, -8
 877              		.cfi_offset 14, -4
 878              		.loc 1 4282 0
 879 000a 83B2     		uxth	r3, r0
 880              		.loc 1 4283 0
 881 000c 050C     		lsrs	r5, r0, #16
 882              	.LVL107:
 883              		.loc 1 4289 0
 884 000e 12B3     		cbz	r2, .L83
 885              		.loc 1 4304 0
 886 0010 DFF810E1 		ldr	lr, .L108
 887              		.loc 1 4291 0
 888 0014 41F2AF58 		movw	r8, #5551
 889              	.LVL108:
 890              	.L90:
 891 0018 4245     		cmp	r2, r8
 892 001a 20D8     		bhi	.L106
 893              	.LVL109:
 894              		.loc 1 4293 0 discriminator 4
 895 001c 0F2A     		cmp	r2, #15
 896 001e 7BD8     		bhi	.L107
 897              		.loc 1 4292 0
 898 0020 0024     		movs	r4, #0
 899              	.LVL110:
 900              	.L86:
 901 0022 0A44     		add	r2, r2, r1
 902              	.LVL111:
 903              	.L89:
 904              		.loc 1 4301 0 discriminator 1
 905 0024 11F8010B 		ldrb	r0, [r1], #1	@ zero_extendqisi2
 906              	.LVL112:
 907 0028 0344     		add	r3, r3, r0
 908              	.LVL113:
 909              		.loc 1 4303 0 discriminator 1
 910 002a 9142     		cmp	r1, r2
 911              		.loc 1 4302 0 discriminator 1
 912 002c 1D44     		add	r5, r5, r3
ARM GAS  /tmp/ccrwCQMC.s 			page 17


 913              	.LVL114:
 914              		.loc 1 4303 0 discriminator 1
 915 002e F9D1     		bne	.L89
 916              	.LVL115:
 917 0030 2246     		mov	r2, r4
 918              	.LVL116:
 919              	.L88:
 920              		.loc 1 4304 0
 921 0032 AEFB0304 		umull	r0, r4, lr, r3
 922              		.loc 1 4305 0
 923 0036 AEFB0560 		umull	r6, r0, lr, r5
 924              		.loc 1 4304 0
 925 003a E40B     		lsrs	r4, r4, #15
 926              		.loc 1 4305 0
 927 003c C00B     		lsrs	r0, r0, #15
 928              		.loc 1 4304 0
 929 003e C4EB0437 		rsb	r7, r4, r4, lsl #12
 930              		.loc 1 4305 0
 931 0042 C0EB0036 		rsb	r6, r0, r0, lsl #12
 932              		.loc 1 4304 0
 933 0046 04EB0714 		add	r4, r4, r7, lsl #4
 934              		.loc 1 4305 0
 935 004a 00EB0610 		add	r0, r0, r6, lsl #4
 936              		.loc 1 4304 0
 937 004e 1B1B     		subs	r3, r3, r4
 938              	.LVL117:
 939              		.loc 1 4305 0
 940 0050 2D1A     		subs	r5, r5, r0
 941              	.LVL118:
 942              		.loc 1 4289 0
 943 0052 002A     		cmp	r2, #0
 944 0054 E0D1     		bne	.L90
 945              	.LVL119:
 946              	.L83:
 947              		.loc 1 4307 0
 948 0056 43EA0540 		orr	r0, r3, r5, lsl #16
 949              		.loc 1 4308 0
 950 005a BDE8F08F 		pop	{r4, r5, r6, r7, r8, r9, r10, fp, pc}
 951              	.LVL120:
 952              	.L106:
 953              		.loc 1 4292 0
 954 005e A2F5AD52 		sub	r2, r2, #5536
 955 0062 103A     		subs	r2, r2, #16
 956              		.loc 1 4291 0
 957 0064 41F2B05C 		movw	ip, #5552
 958              	.LVL121:
 959              	.L85:
 960 0068 ACF11007 		sub	r7, ip, #16
 961 006c 3F09     		lsrs	r7, r7, #4
 962 006e 01F12006 		add	r6, r1, #32
 963 0072 06EB0716 		add	r6, r6, r7, lsl #4
 964 0076 01F11004 		add	r4, r1, #16
 965              	.LVL122:
 966              	.L87:
 967              		.loc 1 4295 0 discriminator 1
 968 007a 14F810AC 		ldrb	r10, [r4, #-16]	@ zero_extendqisi2
 969 007e 14F80FBC 		ldrb	fp, [r4, #-15]	@ zero_extendqisi2
ARM GAS  /tmp/ccrwCQMC.s 			page 18


 970 0082 14F80E0C 		ldrb	r0, [r4, #-14]	@ zero_extendqisi2
 971 0086 14F80D9C 		ldrb	r9, [r4, #-13]	@ zero_extendqisi2
 972 008a 5344     		add	r3, r3, r10
 973              	.LVL123:
 974 008c 0BEB030A 		add	r10, fp, r3
 975              	.LVL124:
 976 0090 00EB0A0B 		add	fp, r0, r10
 977              	.LVL125:
 978 0094 5344     		add	r3, r3, r10
 979              	.LVL126:
 980 0096 14F80CAC 		ldrb	r10, [r4, #-12]	@ zero_extendqisi2
 981 009a 14F80B0C 		ldrb	r0, [r4, #-11]	@ zero_extendqisi2
 982 009e D944     		add	r9, r9, fp
 983              	.LVL127:
 984 00a0 5B44     		add	r3, r3, fp
 985 00a2 CA44     		add	r10, r10, r9
 986              	.LVL128:
 987 00a4 4B44     		add	r3, r3, r9
 988 00a6 14F80A9C 		ldrb	r9, [r4, #-10]	@ zero_extendqisi2
 989 00aa 14F809BC 		ldrb	fp, [r4, #-9]	@ zero_extendqisi2
 990 00ae 5044     		add	r0, r0, r10
 991              	.LVL129:
 992 00b0 5344     		add	r3, r3, r10
 993 00b2 0344     		add	r3, r3, r0
 994 00b4 4844     		add	r0, r0, r9
 995              	.LVL130:
 996 00b6 14F8089C 		ldrb	r9, [r4, #-8]	@ zero_extendqisi2
 997 00ba 14F807AC 		ldrb	r10, [r4, #-7]	@ zero_extendqisi2
 998 00be 0344     		add	r3, r3, r0
 999 00c0 5844     		add	r0, r0, fp
 1000              	.LVL131:
 1001 00c2 0344     		add	r3, r3, r0
 1002 00c4 14F806BC 		ldrb	fp, [r4, #-6]	@ zero_extendqisi2
 1003 00c8 4844     		add	r0, r0, r9
 1004              	.LVL132:
 1005 00ca 0344     		add	r3, r3, r0
 1006 00cc 14F8059C 		ldrb	r9, [r4, #-5]	@ zero_extendqisi2
 1007 00d0 5044     		add	r0, r0, r10
 1008              	.LVL133:
 1009 00d2 0344     		add	r3, r3, r0
 1010 00d4 5844     		add	r0, r0, fp
 1011              	.LVL134:
 1012 00d6 14F804BC 		ldrb	fp, [r4, #-4]	@ zero_extendqisi2
 1013 00da 14F803AC 		ldrb	r10, [r4, #-3]	@ zero_extendqisi2
 1014 00de 8144     		add	r9, r9, r0
 1015              	.LVL135:
 1016 00e0 0344     		add	r3, r3, r0
 1017 00e2 03EB0900 		add	r0, r3, r9
 1018 00e6 CB44     		add	fp, fp, r9
 1019              	.LVL136:
 1020 00e8 14F8023C 		ldrb	r3, [r4, #-2]	@ zero_extendqisi2
 1021 00ec 14F8019C 		ldrb	r9, [r4, #-1]	@ zero_extendqisi2
 1022 00f0 DA44     		add	r10, r10, fp
 1023              	.LVL137:
 1024 00f2 5844     		add	r0, r0, fp
 1025 00f4 5344     		add	r3, r3, r10
 1026              	.LVL138:
ARM GAS  /tmp/ccrwCQMC.s 			page 19


 1027 00f6 5044     		add	r0, r0, r10
 1028 00f8 1844     		add	r0, r0, r3
 1029 00fa 1034     		adds	r4, r4, #16
 1030              	.LVL139:
 1031 00fc 4B44     		add	r3, r3, r9
 1032              	.LVL140:
 1033 00fe 1844     		add	r0, r0, r3
 1034              		.loc 1 4298 0 discriminator 1
 1035 0100 A642     		cmp	r6, r4
 1036              		.loc 1 4295 0 discriminator 1
 1037 0102 0544     		add	r5, r5, r0
 1038              	.LVL141:
 1039              		.loc 1 4298 0 discriminator 1
 1040 0104 B9D1     		bne	.L87
 1041              	.LVL142:
 1042 0106 0137     		adds	r7, r7, #1
 1043              		.loc 1 4299 0
 1044 0108 1CF00F0C 		ands	ip, ip, #15
 1045              	.LVL143:
 1046 010c 01EB0711 		add	r1, r1, r7, lsl #4
 1047              	.LVL144:
 1048 0110 8FD0     		beq	.L88
 1049 0112 1446     		mov	r4, r2
 1050 0114 6246     		mov	r2, ip
 1051 0116 84E7     		b	.L86
 1052              	.LVL145:
 1053              	.L107:
 1054 0118 9446     		mov	ip, r2
 1055              	.LVL146:
 1056              		.loc 1 4292 0
 1057 011a 0022     		movs	r2, #0
 1058 011c A4E7     		b	.L85
 1059              	.LVL147:
 1060              	.L91:
 1061              		.cfi_def_cfa_offset 0
 1062              		.cfi_restore 4
 1063              		.cfi_restore 5
 1064              		.cfi_restore 6
 1065              		.cfi_restore 7
 1066              		.cfi_restore 8
 1067              		.cfi_restore 9
 1068              		.cfi_restore 10
 1069              		.cfi_restore 11
 1070              		.cfi_restore 14
 1071              		.loc 1 4287 0
 1072 011e 0120     		movs	r0, #1
 1073              	.LVL148:
 1074              		.loc 1 4308 0
 1075 0120 7047     		bx	lr
 1076              	.L109:
 1077 0122 00BF     		.align	2
 1078              	.L108:
 1079 0124 71800780 		.word	-2146992015
 1080              		.cfi_endproc
 1081              	.LFE22:
 1082              		.size	lzo_adler32, .-lzo_adler32
 1083              		.section	.text.lzo_memcmp,"ax",%progbits
ARM GAS  /tmp/ccrwCQMC.s 			page 20


 1084              		.align	1
 1085              		.p2align 4,,15
 1086              		.global	lzo_memcmp
 1087              		.syntax unified
 1088              		.thumb
 1089              		.thumb_func
 1090              		.fpu fpv4-sp-d16
 1091              		.type	lzo_memcmp, %function
 1092              	lzo_memcmp:
 1093              	.LFB23:
 1094              		.loc 1 4338 0
 1095              		.cfi_startproc
 1096              		@ args = 0, pretend = 0, frame = 0
 1097              		@ frame_needed = 0, uses_anonymous_args = 0
 1098              		@ link register save eliminated.
 1099              	.LVL149:
 1100              		.loc 1 4351 0
 1101 0000 FFF7FEBF 		b	memcmp
 1102              	.LVL150:
 1103              		.cfi_endproc
 1104              	.LFE23:
 1105              		.size	lzo_memcmp, .-lzo_memcmp
 1106              		.section	.text.lzo_memcpy,"ax",%progbits
 1107              		.align	1
 1108              		.p2align 4,,15
 1109              		.global	lzo_memcpy
 1110              		.syntax unified
 1111              		.thumb
 1112              		.thumb_func
 1113              		.fpu fpv4-sp-d16
 1114              		.type	lzo_memcpy, %function
 1115              	lzo_memcpy:
 1116              	.LFB24:
 1117              		.loc 1 4355 0
 1118              		.cfi_startproc
 1119              		@ args = 0, pretend = 0, frame = 0
 1120              		@ frame_needed = 0, uses_anonymous_args = 0
 1121              		@ link register save eliminated.
 1122              	.LVL151:
 1123              		.loc 1 4366 0
 1124 0000 FFF7FEBF 		b	memcpy
 1125              	.LVL152:
 1126              		.cfi_endproc
 1127              	.LFE24:
 1128              		.size	lzo_memcpy, .-lzo_memcpy
 1129              		.section	.text.lzo_memmove,"ax",%progbits
 1130              		.align	1
 1131              		.p2align 4,,15
 1132              		.global	lzo_memmove
 1133              		.syntax unified
 1134              		.thumb
 1135              		.thumb_func
 1136              		.fpu fpv4-sp-d16
 1137              		.type	lzo_memmove, %function
 1138              	lzo_memmove:
 1139              	.LFB25:
 1140              		.loc 1 4370 0
ARM GAS  /tmp/ccrwCQMC.s 			page 21


 1141              		.cfi_startproc
 1142              		@ args = 0, pretend = 0, frame = 0
 1143              		@ frame_needed = 0, uses_anonymous_args = 0
 1144              		@ link register save eliminated.
 1145              	.LVL153:
 1146              		.loc 1 4392 0
 1147 0000 FFF7FEBF 		b	memmove
 1148              	.LVL154:
 1149              		.cfi_endproc
 1150              	.LFE25:
 1151              		.size	lzo_memmove, .-lzo_memmove
 1152              		.section	.text.lzo_memset,"ax",%progbits
 1153              		.align	1
 1154              		.p2align 4,,15
 1155              		.global	lzo_memset
 1156              		.syntax unified
 1157              		.thumb
 1158              		.thumb_func
 1159              		.fpu fpv4-sp-d16
 1160              		.type	lzo_memset, %function
 1161              	lzo_memset:
 1162              	.LFB26:
 1163              		.loc 1 4396 0
 1164              		.cfi_startproc
 1165              		@ args = 0, pretend = 0, frame = 0
 1166              		@ frame_needed = 0, uses_anonymous_args = 0
 1167              		@ link register save eliminated.
 1168              	.LVL155:
 1169              		.loc 1 4405 0
 1170 0000 FFF7FEBF 		b	memset
 1171              	.LVL156:
 1172              		.cfi_endproc
 1173              	.LFE26:
 1174              		.size	lzo_memset, .-lzo_memset
 1175              		.section	.text._lzo_config_check,"ax",%progbits
 1176              		.align	1
 1177              		.p2align 4,,15
 1178              		.global	_lzo_config_check
 1179              		.syntax unified
 1180              		.thumb
 1181              		.thumb_func
 1182              		.fpu fpv4-sp-d16
 1183              		.type	_lzo_config_check, %function
 1184              	_lzo_config_check:
 1185              	.LFB28:
 1186              		.loc 1 4448 0
 1187              		.cfi_startproc
 1188              		@ args = 0, pretend = 0, frame = 16
 1189              		@ frame_needed = 0, uses_anonymous_args = 0
 1190              	.LVL157:
 1191 0000 30B5     		push	{r4, r5, lr}
 1192              		.cfi_def_cfa_offset 12
 1193              		.cfi_offset 4, -12
 1194              		.cfi_offset 5, -8
 1195              		.cfi_offset 14, -4
 1196 0002 85B0     		sub	sp, sp, #20
 1197              		.cfi_def_cfa_offset 32
ARM GAS  /tmp/ccrwCQMC.s 			page 22


 1198              		.loc 1 4458 0
 1199 0004 04AC     		add	r4, sp, #16
 1200 0006 0023     		movs	r3, #0
 1201 0008 44F8103D 		str	r3, [r4, #-16]!
 1202              		.loc 1 4459 0
 1203 000c 1946     		mov	r1, r3
 1204 000e 2046     		mov	r0, r4
 1205              		.loc 1 4458 0
 1206 0010 0193     		str	r3, [sp, #4]
 1207              		.loc 1 4459 0
 1208 0012 FFF7FEFF 		bl	u2p
 1209              	.LVL158:
 1210              		.loc 1 4468 0
 1211 0016 8022     		movs	r2, #128
 1212              		.loc 1 4460 0
 1213 0018 0578     		ldrb	r5, [r0]	@ zero_extendqisi2
 1214              	.LVL159:
 1215              		.loc 1 4468 0
 1216 001a 8DF80020 		strb	r2, [sp]
 1217              		.loc 1 4470 0
 1218 001e 0368     		ldr	r3, [r0]
 1219              		.loc 1 4472 0
 1220 0020 3F49     		ldr	r1, .L135
 1221 0022 0091     		str	r1, [sp]
 1222              		.loc 1 4470 0
 1223 0024 9B1A     		subs	r3, r3, r2
 1224 0026 B3FA83F3 		clz	r3, r3
 1225              		.loc 1 4474 0
 1226 002a 2046     		mov	r0, r4
 1227              	.LVL160:
 1228 002c 0121     		movs	r1, #1
 1229              		.loc 1 4470 0
 1230 002e 5B09     		lsrs	r3, r3, #5
 1231 0030 002D     		cmp	r5, #0
 1232 0032 18BF     		it	ne
 1233 0034 0023     		movne	r3, #0
 1234              	.LVL161:
 1235              		.loc 1 4474 0
 1236 0036 FFF7FEFF 		bl	u2p
 1237              	.LVL162:
 1238              		.loc 1 4475 0
 1239 003a 0188     		ldrh	r1, [r0]
 1240              		.loc 1 4476 0
 1241 003c 0488     		ldrh	r4, [r0]
 1242              		.loc 1 4477 0
 1243 003e 8DF80120 		strb	r2, [sp, #1]
 1244              		.loc 1 4475 0
 1245 0042 89B2     		uxth	r1, r1
 1246              	.LVL163:
 1247              		.loc 1 4479 0
 1248 0044 8125     		movs	r5, #129
 1249              	.LBB44:
 1250              		.loc 1 4516 0
 1251 0046 0029     		cmp	r1, #0
 1252 0048 18BF     		it	ne
 1253 004a 0023     		movne	r3, #0
 1254              	.LVL164:
ARM GAS  /tmp/ccrwCQMC.s 			page 23


 1255              	.LBE44:
 1256              		.loc 1 4478 0
 1257 004c 0188     		ldrh	r1, [r0]
 1258              		.loc 1 4479 0
 1259 004e 8DF80250 		strb	r5, [sp, #2]
 1260              		.loc 1 4476 0
 1261 0052 A4B2     		uxth	r4, r4
 1262              	.LBB45:
 1263              		.loc 1 4516 0
 1264 0054 002C     		cmp	r4, #0
 1265 0056 18BF     		it	ne
 1266 0058 0023     		movne	r3, #0
 1267              	.LBE45:
 1268              		.loc 1 4478 0
 1269 005a 89B2     		uxth	r1, r1
 1270              		.loc 1 4480 0
 1271 005c 0488     		ldrh	r4, [r0]
 1272              		.loc 1 4485 0
 1273 005e 0588     		ldrh	r5, [r0]
 1274              	.LBB46:
 1275              		.loc 1 4516 0
 1276 0060 8029     		cmp	r1, #128
 1277 0062 14BF     		ite	ne
 1278 0064 0023     		movne	r3, #0
 1279 0066 03F00103 		andeq	r3, r3, #1
 1280              	.LBE46:
 1281              		.loc 1 4480 0
 1282 006a 48F28011 		movw	r1, #33152
 1283              	.LBB47:
 1284              		.loc 1 4516 0
 1285 006e A142     		cmp	r1, r4
 1286 0070 14BF     		ite	ne
 1287 0072 0023     		movne	r3, #0
 1288 0074 03F00103 		andeq	r3, r3, #1
 1289              	.LBE47:
 1290              		.loc 1 4487 0
 1291 0078 0324     		movs	r4, #3
 1292 007a 0094     		str	r4, [sp]
 1293              		.loc 1 4488 0
 1294 007c 0424     		movs	r4, #4
 1295 007e 8DF80540 		strb	r4, [sp, #5]
 1296              		.loc 1 4490 0
 1297 0082 0468     		ldr	r4, [r0]
 1298              	.LBB48:
 1299              		.loc 1 4516 0
 1300 0084 A942     		cmp	r1, r5
 1301 0086 14BF     		ite	ne
 1302 0088 0023     		movne	r3, #0
 1303 008a 03F00103 		andeq	r3, r3, #1
 1304              	.LBE48:
 1305              		.loc 1 4491 0
 1306 008e 0168     		ldr	r1, [r0]
 1307              		.loc 1 4492 0
 1308 0090 8DF80120 		strb	r2, [sp, #1]
 1309              		.loc 1 4494 0
 1310 0094 48F28125 		movw	r5, #33409
 1311 0098 8322     		movs	r2, #131
ARM GAS  /tmp/ccrwCQMC.s 			page 24


 1312              	.LBB49:
 1313              		.loc 1 4516 0
 1314 009a 002C     		cmp	r4, #0
 1315 009c 18BF     		it	ne
 1316 009e 0023     		movne	r3, #0
 1317              	.LBE49:
 1318              		.loc 1 4493 0
 1319 00a0 0468     		ldr	r4, [r0]
 1320              		.loc 1 4494 0
 1321 00a2 8DF80420 		strb	r2, [sp, #4]
 1322 00a6 ADF80250 		strh	r5, [sp, #2]	@ movhi
 1323              	.LBB50:
 1324              		.loc 1 4516 0
 1325 00aa 0029     		cmp	r1, #0
 1326 00ac 18BF     		it	ne
 1327 00ae 0023     		movne	r3, #0
 1328              	.LBE50:
 1329              		.loc 1 4495 0
 1330 00b0 1C4A     		ldr	r2, .L135+4
 1331 00b2 0168     		ldr	r1, [r0]
 1332              		.loc 1 4500 0
 1333 00b4 0068     		ldr	r0, [r0]
 1334              	.LVL165:
 1335              	.LBB51:
 1336              		.loc 1 4516 0
 1337 00b6 802C     		cmp	r4, #128
 1338 00b8 14BF     		ite	ne
 1339 00ba 0023     		movne	r3, #0
 1340 00bc 03F00103 		andeq	r3, r3, #1
 1341 00c0 9142     		cmp	r1, r2
 1342 00c2 14BF     		ite	ne
 1343 00c4 0023     		movne	r3, #0
 1344 00c6 03F00103 		andeq	r3, r3, #1
 1345 00ca 6BB1     		cbz	r3, .L122
 1346 00cc 9042     		cmp	r0, r2
 1347 00ce 0BD1     		bne	.L122
 1348 00d0 1E23     		movs	r3, #30
 1349 00d2 1946     		mov	r1, r3
 1350 00d4 0222     		movs	r2, #2
 1351 00d6 02E0     		b	.L117
 1352              	.LVL166:
 1353              	.L133:
 1354 00d8 0346     		mov	r3, r0
 1355              	.LVL167:
 1356 00da B2FA82F1 		clz	r1, r2
 1357              	.LVL168:
 1358              	.L117:
 1359 00de 581E     		subs	r0, r3, #1
 1360              		.loc 1 4516 0 is_stmt 0 discriminator 4
 1361 00e0 5200     		lsls	r2, r2, #1
 1362              	.LVL169:
 1363 00e2 2BB1     		cbz	r3, .L116
 1364              		.loc 1 4516 0
 1365 00e4 9942     		cmp	r1, r3
 1366 00e6 F7D0     		beq	.L133
 1367              	.LVL170:
 1368              	.L122:
ARM GAS  /tmp/ccrwCQMC.s 			page 25


 1369              	.LBE51:
 1370              		.loc 1 4545 0 is_stmt 1
 1371 00e8 4FF0FF30 		mov	r0, #-1
 1372              		.loc 1 4546 0
 1373 00ec 05B0     		add	sp, sp, #20
 1374              		.cfi_remember_state
 1375              		.cfi_def_cfa_offset 12
 1376              		@ sp needed
 1377 00ee 30BD     		pop	{r4, r5, pc}
 1378              	.LVL171:
 1379              	.L116:
 1380              		.cfi_restore_state
 1381              	.LBB52:
 1382              		.loc 1 4530 0 discriminator 3
 1383 00f0 0029     		cmp	r1, #0
 1384 00f2 F9D1     		bne	.L122
 1385              		.loc 1 4530 0 is_stmt 0
 1386 00f4 0120     		movs	r0, #1
 1387 00f6 0146     		mov	r1, r0
 1388              	.LVL172:
 1389 00f8 0223     		movs	r3, #2
 1390              	.LVL173:
 1391 00fa 06E0     		b	.L119
 1392              	.LVL174:
 1393              	.L134:
 1394 00fc 8842     		cmp	r0, r1
 1395 00fe F3D1     		bne	.L122
 1396 0100 93FAA3F0 		rbit	r0, r3
 1397 0104 B0FA80F0 		clz	r0, r0
 1398 0108 1146     		mov	r1, r2
 1399              	.LVL175:
 1400              	.L119:
 1401              		.loc 1 4530 0 discriminator 4
 1402 010a 4A1C     		adds	r2, r1, #1
 1403 010c 202A     		cmp	r2, #32
 1404 010e 4FEA4303 		lsl	r3, r3, #1
 1405              	.LVL176:
 1406 0112 F3D1     		bne	.L134
 1407              	.LBE52:
 1408              		.loc 1 4545 0 is_stmt 1
 1409 0114 1F38     		subs	r0, r0, #31
 1410 0116 18BF     		it	ne
 1411 0118 4FF0FF30 		movne	r0, #-1
 1412              		.loc 1 4546 0
 1413 011c 05B0     		add	sp, sp, #20
 1414              		.cfi_def_cfa_offset 12
 1415              		@ sp needed
 1416 011e 30BD     		pop	{r4, r5, pc}
 1417              	.L136:
 1418              		.align	2
 1419              	.L135:
 1420 0120 01000002 		.word	33554433
 1421 0124 80818283 		.word	-2088599168
 1422              		.cfi_endproc
 1423              	.LFE28:
 1424              		.size	_lzo_config_check, .-_lzo_config_check
 1425              		.section	.text.__lzo_init_v2,"ax",%progbits
ARM GAS  /tmp/ccrwCQMC.s 			page 26


 1426              		.align	1
 1427              		.p2align 4,,15
 1428              		.global	__lzo_init_v2
 1429              		.syntax unified
 1430              		.thumb
 1431              		.thumb_func
 1432              		.fpu fpv4-sp-d16
 1433              		.type	__lzo_init_v2, %function
 1434              	__lzo_init_v2:
 1435              	.LFB29:
 1436              		.loc 1 4551 0
 1437              		.cfi_startproc
 1438              		@ args = 24, pretend = 0, frame = 0
 1439              		@ frame_needed = 0, uses_anonymous_args = 0
 1440              	.LVL177:
 1441 0000 F0B5     		push	{r4, r5, r6, r7, lr}
 1442              		.cfi_def_cfa_offset 20
 1443              		.cfi_offset 4, -20
 1444              		.cfi_offset 5, -16
 1445              		.cfi_offset 6, -12
 1446              		.cfi_offset 7, -8
 1447              		.cfi_offset 14, -4
 1448              		.loc 1 4551 0
 1449 0002 DDE90545 		ldrd	r4, r5, [sp, #20]
 1450 0006 DDE9077C 		ldrd	r7, ip, [sp, #28]
 1451 000a DDE909E6 		ldrd	lr, r6, [sp, #36]
 1452              		.loc 1 4563 0
 1453 000e 58B3     		cbz	r0, .L137
 1454              		.loc 1 4573 0
 1455 0010 481C     		adds	r0, r1, #1
 1456              	.LVL178:
 1457 0012 01D0     		beq	.L139
 1458              		.loc 1 4566 0
 1459 0014 0229     		cmp	r1, #2
 1460 0016 27D1     		bne	.L137
 1461              	.L139:
 1462              		.loc 1 4566 0 is_stmt 0 discriminator 1
 1463 0018 511C     		adds	r1, r2, #1
 1464              	.LVL179:
 1465 001a 01D0     		beq	.L140
 1466              		.loc 1 4567 0 is_stmt 1
 1467 001c 042A     		cmp	r2, #4
 1468 001e 23D1     		bne	.L137
 1469              	.L140:
 1470              		.loc 1 4567 0 is_stmt 0 discriminator 1
 1471 0020 5A1C     		adds	r2, r3, #1
 1472              	.LVL180:
 1473 0022 01D0     		beq	.L141
 1474              		.loc 1 4568 0 is_stmt 1
 1475 0024 042B     		cmp	r3, #4
 1476 0026 1FD1     		bne	.L137
 1477              	.L141:
 1478              		.loc 1 4568 0 is_stmt 0 discriminator 1
 1479 0028 601C     		adds	r0, r4, #1
 1480              	.LVL181:
 1481 002a 01D0     		beq	.L142
 1482              		.loc 1 4569 0 is_stmt 1
ARM GAS  /tmp/ccrwCQMC.s 			page 27


 1483 002c 042C     		cmp	r4, #4
 1484 002e 1BD1     		bne	.L137
 1485              	.L142:
 1486              		.loc 1 4569 0 is_stmt 0 discriminator 1
 1487 0030 691C     		adds	r1, r5, #1
 1488              	.LVL182:
 1489 0032 01D0     		beq	.L143
 1490              		.loc 1 4570 0 is_stmt 1
 1491 0034 042D     		cmp	r5, #4
 1492 0036 17D1     		bne	.L137
 1493              	.L143:
 1494              		.loc 1 4570 0 is_stmt 0 discriminator 1
 1495 0038 7A1C     		adds	r2, r7, #1
 1496 003a 01D0     		beq	.L144
 1497              		.loc 1 4571 0 is_stmt 1
 1498 003c 042F     		cmp	r7, #4
 1499 003e 13D1     		bne	.L137
 1500              	.L144:
 1501              		.loc 1 4571 0 is_stmt 0 discriminator 1
 1502 0040 BCF1FF3F 		cmp	ip, #-1
 1503 0044 02D0     		beq	.L145
 1504              		.loc 1 4572 0 is_stmt 1
 1505 0046 BCF1040F 		cmp	ip, #4
 1506 004a 0DD1     		bne	.L137
 1507              	.L145:
 1508              		.loc 1 4572 0 is_stmt 0 discriminator 1
 1509 004c BEF1FF3F 		cmp	lr, #-1
 1510 0050 02D0     		beq	.L146
 1511              		.loc 1 4573 0 is_stmt 1
 1512 0052 BEF1040F 		cmp	lr, #4
 1513 0056 07D1     		bne	.L137
 1514              	.L146:
 1515              		.loc 1 4573 0 is_stmt 0 discriminator 1
 1516 0058 731C     		adds	r3, r6, #1
 1517              	.LVL183:
 1518 005a 01D0     		beq	.L147
 1519              		.loc 1 4574 0 is_stmt 1
 1520 005c 182E     		cmp	r6, #24
 1521 005e 03D1     		bne	.L137
 1522              	.L147:
 1523              		.loc 1 4583 0
 1524 0060 BDE8F040 		pop	{r4, r5, r6, r7, lr}
 1525              		.cfi_remember_state
 1526              		.cfi_restore 14
 1527              		.cfi_restore 7
 1528              		.cfi_restore 6
 1529              		.cfi_restore 5
 1530              		.cfi_restore 4
 1531              		.cfi_def_cfa_offset 0
 1532              	.LVL184:
 1533              		.loc 1 4578 0
 1534 0064 FFF7FEBF 		b	_lzo_config_check
 1535              	.LVL185:
 1536              	.L137:
 1537              		.cfi_restore_state
 1538              		.loc 1 4583 0
 1539 0068 4FF0FF30 		mov	r0, #-1
ARM GAS  /tmp/ccrwCQMC.s 			page 28


 1540 006c F0BD     		pop	{r4, r5, r6, r7, pc}
 1541              		.cfi_endproc
 1542              	.LFE29:
 1543              		.size	__lzo_init_v2, .-__lzo_init_v2
 1544 006e 00BF     		.section	.text.lzo1x_1_compress,"ax",%progbits
 1545              		.align	1
 1546              		.p2align 4,,15
 1547              		.global	lzo1x_1_compress
 1548              		.syntax unified
 1549              		.thumb
 1550              		.thumb_func
 1551              		.fpu fpv4-sp-d16
 1552              		.type	lzo1x_1_compress, %function
 1553              	lzo1x_1_compress:
 1554              	.LFB31:
 1555              		.loc 1 5215 0
 1556              		.cfi_startproc
 1557              		@ args = 4, pretend = 0, frame = 16
 1558              		@ frame_needed = 0, uses_anonymous_args = 0
 1559              	.LVL186:
 1560 0000 2DE9F04F 		push	{r4, r5, r6, r7, r8, r9, r10, fp, lr}
 1561              		.cfi_def_cfa_offset 36
 1562              		.cfi_offset 4, -36
 1563              		.cfi_offset 5, -32
 1564              		.cfi_offset 6, -28
 1565              		.cfi_offset 7, -24
 1566              		.cfi_offset 8, -20
 1567              		.cfi_offset 9, -16
 1568              		.cfi_offset 10, -12
 1569              		.cfi_offset 11, -8
 1570              		.cfi_offset 14, -4
 1571 0004 87B0     		sub	sp, sp, #28
 1572              		.cfi_def_cfa_offset 64
 1573              		.loc 1 5221 0
 1574 0006 1429     		cmp	r1, #20
 1575              		.loc 1 5215 0
 1576 0008 0391     		str	r1, [sp, #12]
 1577              	.LVL187:
 1578 000a 8146     		mov	r9, r0
 1579 000c 0492     		str	r2, [sp, #16]
 1580              	.LVL188:
 1581 000e 9A46     		mov	r10, r3
 1582              		.loc 1 5221 0
 1583 0010 40F2B580 		bls	.L188
 1584              	.LVL189:
 1585              	.LBB53:
 1586              		.loc 1 5226 0
 1587 0014 B1F5404F 		cmp	r1, #49152
 1588 0018 0B46     		mov	r3, r1
 1589              	.LVL190:
 1590 001a 28BF     		it	cs
 1591 001c 4FF44043 		movcs	r3, #49152
 1592              		.loc 1 5228 0
 1593 0020 C418     		adds	r4, r0, r3
 1594              		.loc 1 5226 0
 1595 0022 1E46     		mov	r6, r3
 1596              	.LVL191:
ARM GAS  /tmp/ccrwCQMC.s 			page 29


 1597              		.loc 1 5229 0
 1598 0024 04EB5313 		add	r3, r4, r3, lsr #5
 1599              	.LVL192:
 1600 0028 9C42     		cmp	r4, r3
 1601 002a 80F0AC80 		bcs	.L211
 1602 002e 8846     		mov	r8, r1
 1603 0030 1546     		mov	r5, r2
 1604              	.LBE53:
 1605              		.loc 1 5219 0
 1606 0032 0027     		movs	r7, #0
 1607 0034 0590     		str	r0, [sp, #20]
 1608 0036 DDF840B0 		ldr	fp, [sp, #64]
 1609 003a 0DE0     		b	.L190
 1610              	.LVL193:
 1611              	.L192:
 1612              	.LBB56:
 1613              		.loc 1 5226 0
 1614 003c B8F5404F 		cmp	r8, #49152
 1615 0040 4646     		mov	r6, r8
 1616 0042 28BF     		it	cs
 1617 0044 4FF44046 		movcs	r6, #49152
 1618              	.LVL194:
 1619              		.loc 1 5228 0
 1620 0048 3444     		add	r4, r4, r6
 1621              	.LVL195:
 1622              		.loc 1 5229 0
 1623 004a F219     		adds	r2, r6, r7
 1624 004c 04EB5212 		add	r2, r4, r2, lsr #5
 1625 0050 A242     		cmp	r2, r4
 1626 0052 19D9     		bls	.L191
 1627              		.loc 1 5229 0 is_stmt 0 discriminator 1
 1628 0054 9442     		cmp	r4, r2
 1629 0056 17D2     		bcs	.L191
 1630              	.LVL196:
 1631              	.L190:
 1632              	.LBB54:
 1633              	.LBB55:
 1634              		.loc 1 4405 0 is_stmt 1
 1635 0058 4FF40042 		mov	r2, #32768
 1636 005c 0021     		movs	r1, #0
 1637 005e 5846     		mov	r0, fp
 1638 0060 FFF7FEFF 		bl	memset
 1639              	.LVL197:
 1640              	.LBE55:
 1641              	.LBE54:
 1642              		.loc 1 5234 0
 1643 0064 CDE9007B 		strd	r7, fp, [sp]
 1644 0068 4846     		mov	r0, r9
 1645 006a 5346     		mov	r3, r10
 1646 006c 2A46     		mov	r2, r5
 1647 006e 3146     		mov	r1, r6
 1648 0070 FFF7FEFF 		bl	lzo1x_1_compress_core
 1649              	.LVL198:
 1650              		.loc 1 5237 0
 1651 0074 A8EB0608 		sub	r8, r8, r6
 1652              	.LVL199:
 1653              		.loc 1 5236 0
ARM GAS  /tmp/ccrwCQMC.s 			page 30


 1654 0078 DAF80030 		ldr	r3, [r10]
 1655              	.LBE56:
 1656              		.loc 1 5221 0
 1657 007c B8F1140F 		cmp	r8, #20
 1658              	.LBB57:
 1659              		.loc 1 5234 0
 1660 0080 0746     		mov	r7, r0
 1661              	.LVL200:
 1662              		.loc 1 5236 0
 1663 0082 1D44     		add	r5, r5, r3
 1664              	.LVL201:
 1665 0084 A146     		mov	r9, r4
 1666              	.LBE57:
 1667              		.loc 1 5221 0
 1668 0086 D9D8     		bhi	.L192
 1669              	.LVL202:
 1670              	.L191:
 1671              		.loc 1 5241 0
 1672 0088 17EB0807 		adds	r7, r7, r8
 1673              	.LVL203:
 1674 008c DDF81490 		ldr	r9, [sp, #20]
 1675              	.LVL204:
 1676 0090 19D0     		beq	.L193
 1677              	.LBB58:
 1678              		.loc 1 5243 0
 1679 0092 039B     		ldr	r3, [sp, #12]
 1680 0094 DB1B     		subs	r3, r3, r7
 1681 0096 9944     		add	r9, r9, r3
 1682              	.LVL205:
 1683              		.loc 1 5245 0
 1684 0098 049B     		ldr	r3, [sp, #16]
 1685 009a AB42     		cmp	r3, r5
 1686 009c 4FD0     		beq	.L226
 1687              		.loc 1 5247 0
 1688 009e 032F     		cmp	r7, #3
 1689 00a0 1ED8     		bhi	.L227
 1690              		.loc 1 5248 0
 1691 00a2 15F8023C 		ldrb	r3, [r5, #-2]	@ zero_extendqisi2
 1692 00a6 0397     		str	r7, [sp, #12]
 1693              	.LVL206:
 1694 00a8 3B43     		orrs	r3, r3, r7
 1695 00aa 05F8023C 		strb	r3, [r5, #-2]
 1696              	.LVL207:
 1697 00ae 2946     		mov	r1, r5
 1698              	.LVL208:
 1699              	.L200:
 1700 00b0 013D     		subs	r5, r5, #1
 1701 00b2 4F44     		add	r7, r7, r9
 1702              	.LVL209:
 1703              	.L207:
 1704              	.LBB59:
 1705              		.loc 1 5265 0 discriminator 12
 1706 00b4 19F8013B 		ldrb	r3, [r9], #1	@ zero_extendqisi2
 1707              	.LVL210:
 1708 00b8 05F8013F 		strb	r3, [r5, #1]!
 1709 00bc B945     		cmp	r9, r7
 1710 00be F9D1     		bne	.L207
ARM GAS  /tmp/ccrwCQMC.s 			page 31


 1711              	.LVL211:
 1712              	.LBE59:
 1713              		.loc 1 5266 0
 1714 00c0 039B     		ldr	r3, [sp, #12]
 1715 00c2 0B44     		add	r3, r3, r1
 1716              	.LVL212:
 1717 00c4 1D46     		mov	r5, r3
 1718              	.LVL213:
 1719              	.L193:
 1720              	.LBE58:
 1721              		.loc 1 5273 0
 1722 00c6 049A     		ldr	r2, [sp, #16]
 1723              		.loc 1 5271 0
 1724 00c8 EB1C     		adds	r3, r5, #3
 1725              		.loc 1 5270 0
 1726 00ca 0020     		movs	r0, #0
 1727              		.loc 1 5273 0
 1728 00cc 9B1A     		subs	r3, r3, r2
 1729              		.loc 1 5269 0
 1730 00ce 1122     		movs	r2, #17
 1731 00d0 2A70     		strb	r2, [r5]
 1732              	.LVL214:
 1733              		.loc 1 5270 0
 1734 00d2 6870     		strb	r0, [r5, #1]
 1735              	.LVL215:
 1736              		.loc 1 5271 0
 1737 00d4 A870     		strb	r0, [r5, #2]
 1738              		.loc 1 5273 0
 1739 00d6 CAF80030 		str	r3, [r10]
 1740              		.loc 1 5275 0
 1741 00da 07B0     		add	sp, sp, #28
 1742              		.cfi_remember_state
 1743              		.cfi_def_cfa_offset 36
 1744              		@ sp needed
 1745 00dc BDE8F08F 		pop	{r4, r5, r6, r7, r8, r9, r10, fp, pc}
 1746              	.LVL216:
 1747              	.L227:
 1748              		.cfi_restore_state
 1749              	.LBB68:
 1750              		.loc 1 5249 0
 1751 00e0 122F     		cmp	r7, #18
 1752 00e2 05F10101 		add	r1, r5, #1
 1753 00e6 3BD8     		bhi	.L228
 1754              	.LVL217:
 1755              		.loc 1 5250 0
 1756 00e8 FB1E     		subs	r3, r7, #3
 1757              	.LBB60:
 1758              		.loc 1 5265 0
 1759 00ea 072F     		cmp	r7, #7
 1760              	.LBE60:
 1761              		.loc 1 5250 0
 1762 00ec 2B70     		strb	r3, [r5]
 1763              	.LVL218:
 1764              	.LBB61:
 1765              		.loc 1 5265 0
 1766 00ee 0397     		str	r7, [sp, #12]
 1767              	.LVL219:
ARM GAS  /tmp/ccrwCQMC.s 			page 32


 1768 00f0 4BD9     		bls	.L229
 1769              	.LVL220:
 1770              	.L196:
 1771 00f2 039B     		ldr	r3, [sp, #12]
 1772 00f4 A3F10805 		sub	r5, r3, #8
 1773 00f8 25F00705 		bic	r5, r5, #7
 1774 00fc 0835     		adds	r5, r5, #8
 1775 00fe 09EB0500 		add	r0, r9, r5
 1776 0102 0B46     		mov	r3, r1
 1777              	.LVL221:
 1778              	.L204:
 1779              		.loc 1 5265 0 is_stmt 0 discriminator 5
 1780 0104 D9F80020 		ldr	r2, [r9]
 1781 0108 1A60     		str	r2, [r3]
 1782 010a D9F80420 		ldr	r2, [r9, #4]
 1783 010e 5A60     		str	r2, [r3, #4]
 1784 0110 09F10809 		add	r9, r9, #8
 1785              	.LVL222:
 1786 0114 4845     		cmp	r0, r9
 1787 0116 03F10803 		add	r3, r3, #8
 1788              	.LVL223:
 1789 011a F3D1     		bne	.L204
 1790 011c 039B     		ldr	r3, [sp, #12]
 1791              	.LVL224:
 1792 011e 03F00707 		and	r7, r3, #7
 1793              		.loc 1 5265 0 discriminator 6
 1794 0122 032F     		cmp	r7, #3
 1795 0124 0D44     		add	r5, r5, r1
 1796 0126 04D9     		bls	.L205
 1797              	.L201:
 1798              		.loc 1 5265 0 discriminator 7
 1799 0128 59F8043B 		ldr	r3, [r9], #4
 1800              	.LVL225:
 1801 012c 45F8043B 		str	r3, [r5], #4
 1802              	.LVL226:
 1803 0130 043F     		subs	r7, r7, #4
 1804              	.LVL227:
 1805              	.L205:
 1806              		.loc 1 5265 0 discriminator 9
 1807 0132 002F     		cmp	r7, #0
 1808 0134 BCD1     		bne	.L200
 1809              	.LVL228:
 1810              	.LBE61:
 1811              		.loc 1 5266 0 is_stmt 1
 1812 0136 039B     		ldr	r3, [sp, #12]
 1813 0138 0B44     		add	r3, r3, r1
 1814              	.LVL229:
 1815 013a 1D46     		mov	r5, r3
 1816              	.LVL230:
 1817 013c C3E7     		b	.L193
 1818              	.LVL231:
 1819              	.L226:
 1820 013e 0397     		str	r7, [sp, #12]
 1821              	.LVL232:
 1822              	.L189:
 1823              		.loc 1 5245 0 discriminator 1
 1824 0140 039A     		ldr	r2, [sp, #12]
ARM GAS  /tmp/ccrwCQMC.s 			page 33


 1825 0142 EE2A     		cmp	r2, #238
 1826 0144 05F10101 		add	r1, r5, #1
 1827 0148 0BD8     		bhi	.L195
 1828              	.LVL233:
 1829              		.loc 1 5246 0
 1830 014a 1346     		mov	r3, r2
 1831 014c 1133     		adds	r3, r3, #17
 1832              	.LBB62:
 1833              		.loc 1 5265 0
 1834 014e 072A     		cmp	r2, #7
 1835              	.LBE62:
 1836              		.loc 1 5246 0
 1837 0150 2B70     		strb	r3, [r5]
 1838              	.LVL234:
 1839              	.LBB63:
 1840              		.loc 1 5265 0
 1841 0152 CED8     		bhi	.L196
 1842 0154 039B     		ldr	r3, [sp, #12]
 1843 0156 032B     		cmp	r3, #3
 1844 0158 19D9     		bls	.L230
 1845              	.LBE63:
 1846              		.loc 1 5246 0
 1847 015a 0D46     		mov	r5, r1
 1848              	.LBB64:
 1849              		.loc 1 5265 0
 1850 015c 039F     		ldr	r7, [sp, #12]
 1851 015e E3E7     		b	.L201
 1852              	.LVL235:
 1853              	.L228:
 1854              	.LBE64:
 1855 0160 0397     		str	r7, [sp, #12]
 1856              	.LVL236:
 1857              	.L195:
 1858              	.LBB65:
 1859              		.loc 1 5253 0
 1860 0162 039B     		ldr	r3, [sp, #12]
 1861 0164 123B     		subs	r3, r3, #18
 1862              	.LVL237:
 1863              		.loc 1 5255 0
 1864 0166 0022     		movs	r2, #0
 1865              		.loc 1 5256 0
 1866 0168 FF2B     		cmp	r3, #255
 1867              		.loc 1 5255 0
 1868 016a 2A70     		strb	r2, [r5]
 1869              		.loc 1 5256 0
 1870 016c 04D9     		bls	.L202
 1871              	.LVL238:
 1872              	.L203:
 1873              		.loc 1 5258 0
 1874 016e FF3B     		subs	r3, r3, #255
 1875              	.LVL239:
 1876              		.loc 1 5256 0
 1877 0170 FF2B     		cmp	r3, #255
 1878              	.LBB66:
 1879              		.loc 1 5259 0
 1880 0172 01F8012B 		strb	r2, [r1], #1
 1881              	.LVL240:
ARM GAS  /tmp/ccrwCQMC.s 			page 34


 1882              	.LBE66:
 1883              		.loc 1 5256 0
 1884 0176 FAD8     		bhi	.L203
 1885              	.LVL241:
 1886              	.L202:
 1887              		.loc 1 5263 0
 1888 0178 0B70     		strb	r3, [r1]
 1889              	.LVL242:
 1890 017a 0131     		adds	r1, r1, #1
 1891              	.LVL243:
 1892 017c B9E7     		b	.L196
 1893              	.LVL244:
 1894              	.L188:
 1895              	.LBE65:
 1896              	.LBE68:
 1897              		.loc 1 5241 0
 1898 017e 039B     		ldr	r3, [sp, #12]
 1899              	.LVL245:
 1900 0180 0BB9     		cbnz	r3, .L211
 1901 0182 049D     		ldr	r5, [sp, #16]
 1902 0184 9FE7     		b	.L193
 1903              	.LVL246:
 1904              	.L211:
 1905 0186 049D     		ldr	r5, [sp, #16]
 1906 0188 DAE7     		b	.L189
 1907              	.LVL247:
 1908              	.L229:
 1909              	.LBB69:
 1910              	.LBB67:
 1911              		.loc 1 5265 0
 1912 018a 0D46     		mov	r5, r1
 1913 018c CCE7     		b	.L201
 1914              	.LVL248:
 1915              	.L230:
 1916 018e 1F46     		mov	r7, r3
 1917              	.LBE67:
 1918              		.loc 1 5246 0
 1919 0190 0D46     		mov	r5, r1
 1920 0192 8DE7     		b	.L200
 1921              	.LBE69:
 1922              		.cfi_endproc
 1923              	.LFE31:
 1924              		.size	lzo1x_1_compress, .-lzo1x_1_compress
 1925              		.section	.text.lzo1x_decompress,"ax",%progbits
 1926              		.align	1
 1927              		.p2align 4,,15
 1928              		.global	lzo1x_decompress
 1929              		.syntax unified
 1930              		.thumb
 1931              		.thumb_func
 1932              		.fpu fpv4-sp-d16
 1933              		.type	lzo1x_decompress, %function
 1934              	lzo1x_decompress:
 1935              	.LFB32:
 1936              		.loc 1 5399 0
 1937              		.cfi_startproc
 1938              		@ args = 4, pretend = 0, frame = 0
ARM GAS  /tmp/ccrwCQMC.s 			page 35


 1939              		@ frame_needed = 0, uses_anonymous_args = 0
 1940              	.LVL249:
 1941 0000 2DE9F047 		push	{r4, r5, r6, r7, r8, r9, r10, lr}
 1942              		.cfi_def_cfa_offset 32
 1943              		.cfi_offset 4, -32
 1944              		.cfi_offset 5, -28
 1945              		.cfi_offset 6, -24
 1946              		.cfi_offset 7, -20
 1947              		.cfi_offset 8, -16
 1948              		.cfi_offset 9, -12
 1949              		.cfi_offset 10, -8
 1950              		.cfi_offset 14, -4
 1951              		.loc 1 5437 0
 1952 0004 0024     		movs	r4, #0
 1953              		.loc 1 5443 0
 1954 0006 0746     		mov	r7, r0
 1955              		.loc 1 5437 0
 1956 0008 1C60     		str	r4, [r3]
 1957              		.loc 1 5443 0
 1958 000a 17F8014B 		ldrb	r4, [r7], #1	@ zero_extendqisi2
 1959              	.LVL250:
 1960 000e 112C     		cmp	r4, #17
 1961 0010 7AD9     		bls	.L268
 1962              	.LVL251:
 1963              		.loc 1 5445 0
 1964 0012 A4F11106 		sub	r6, r4, #17
 1965              		.loc 1 5446 0
 1966 0016 032E     		cmp	r6, #3
 1967              		.loc 1 5445 0
 1968 0018 3546     		mov	r5, r6
 1969              	.LVL252:
 1970 001a 90F801C0 		ldrb	ip, [r0, #1]	@ zero_extendqisi2
 1971              		.loc 1 5446 0
 1972 001e 40F3BF80 		ble	.L288
 1973 0022 A0F11106 		sub	r6, r0, #17
 1974 0026 3444     		add	r4, r4, r6
 1975 0028 02F1FF3E 		add	lr, r2, #-1
 1976 002c 3E46     		mov	r6, r7
 1977 002e 01E0     		b	.L237
 1978              	.LVL253:
 1979              	.L235:
 1980 0030 16F801CF 		ldrb	ip, [r6, #1]!	@ zero_extendqisi2
 1981              	.LVL254:
 1982              	.L237:
 1983              		.loc 1 5449 0 discriminator 1
 1984 0034 0EF801CF 		strb	ip, [lr, #1]!
 1985              	.LVL255:
 1986 0038 A642     		cmp	r6, r4
 1987 003a F9D1     		bne	.L235
 1988 003c 7E19     		adds	r6, r7, r5
 1989 003e 771C     		adds	r7, r6, #1
 1990 0040 1544     		add	r5, r5, r2
 1991              	.LVL256:
 1992              	.L236:
 1993              		.loc 1 5522 0
 1994 0042 3478     		ldrb	r4, [r6]	@ zero_extendqisi2
 1995              	.LVL257:
ARM GAS  /tmp/ccrwCQMC.s 			page 36


 1996              		.loc 1 5523 0
 1997 0044 0F2C     		cmp	r4, #15
 1998 0046 1DD8     		bhi	.L238
 1999              	.LVL258:
 2000              		.loc 1 5542 0
 2001 0048 96F801C0 		ldrb	ip, [r6, #1]	@ zero_extendqisi2
 2002 004c 6FF40067 		mvn	r7, #2048
 2003 0050 A7EB9404 		sub	r4, r7, r4, lsr #2
 2004              	.LVL259:
 2005 0054 A4EB8C04 		sub	r4, r4, ip, lsl #2
 2006 0058 2F19     		adds	r7, r5, r4
 2007              		.loc 1 5545 0
 2008 005a 2C5D     		ldrb	r4, [r5, r4]	@ zero_extendqisi2
 2009 005c 2C70     		strb	r4, [r5]
 2010              	.LVL260:
 2011 005e 7C78     		ldrb	r4, [r7, #1]	@ zero_extendqisi2
 2012 0060 6C70     		strb	r4, [r5, #1]
 2013 0062 BC78     		ldrb	r4, [r7, #2]	@ zero_extendqisi2
 2014 0064 AC70     		strb	r4, [r5, #2]
 2015              		.loc 1 5542 0
 2016 0066 06F1020E 		add	lr, r6, #2
 2017              	.LVL261:
 2018              		.loc 1 5545 0
 2019 006a 05F10308 		add	r8, r5, #3
 2020              	.LVL262:
 2021              	.L248:
 2022 006e 1EF8026C 		ldrb	r6, [lr, #-2]	@ zero_extendqisi2
 2023              	.LVL263:
 2024 0072 7746     		mov	r7, lr
 2025              		.loc 1 5783 0
 2026 0074 16F00306 		ands	r6, r6, #3
 2027              	.LVL264:
 2028 0078 17F8014B 		ldrb	r4, [r7], #1	@ zero_extendqisi2
 2029 007c 2CD1     		bne	.L289
 2030              	.LVL265:
 2031              	.L270:
 2032              		.loc 1 5457 0
 2033 007e 0F2C     		cmp	r4, #15
 2034 0080 4546     		mov	r5, r8
 2035              	.LVL266:
 2036 0082 45D9     		bls	.L290
 2037              	.LVL267:
 2038              	.L238:
 2039              		.loc 1 5551 0
 2040 0084 3F2C     		cmp	r4, #63
 2041 0086 40F29880 		bls	.L249
 2042              	.L292:
 2043              		.loc 1 5574 0
 2044 008a C4F3820C 		ubfx	ip, r4, #2, #3
 2045              		.loc 1 5575 0
 2046 008e 3E78     		ldrb	r6, [r7]	@ zero_extendqisi2
 2047 0090 6FEA0C0C 		mvn	ip, ip
 2048              		.loc 1 5576 0
 2049 0094 6409     		lsrs	r4, r4, #5
 2050              		.loc 1 5575 0
 2051 0096 ACEBC60C 		sub	ip, ip, r6, lsl #3
 2052              		.loc 1 5576 0
ARM GAS  /tmp/ccrwCQMC.s 			page 37


 2053 009a 013C     		subs	r4, r4, #1
 2054              		.loc 1 5575 0
 2055 009c AC44     		add	ip, ip, r5
 2056 009e 07F1010E 		add	lr, r7, #1
 2057              	.LVL268:
 2058              	.L250:
 2059              		.loc 1 5771 0
 2060 00a2 6646     		mov	r6, ip
 2061 00a4 A846     		mov	r8, r5
 2062 00a6 16F8027B 		ldrb	r7, [r6], #2	@ zero_extendqisi2
 2063 00aa 08F8027B 		strb	r7, [r8], #2
 2064              	.LVL269:
 2065 00ae 9CF80170 		ldrb	r7, [ip, #1]	@ zero_extendqisi2
 2066 00b2 05F8017F 		strb	r7, [r5, #1]!
 2067 00b6 06EB040C 		add	ip, r6, r4
 2068              	.LVL270:
 2069              	.L263:
 2070              		.loc 1 5772 0 discriminator 1
 2071 00ba 16F8017B 		ldrb	r7, [r6], #1	@ zero_extendqisi2
 2072              	.LVL271:
 2073 00be 05F8017F 		strb	r7, [r5, #1]!
 2074 00c2 6645     		cmp	r6, ip
 2075 00c4 F9D1     		bne	.L263
 2076 00c6 1EF8026C 		ldrb	r6, [lr, #-2]	@ zero_extendqisi2
 2077              	.LVL272:
 2078 00ca 7746     		mov	r7, lr
 2079              		.loc 1 5783 0
 2080 00cc 16F00306 		ands	r6, r6, #3
 2081 00d0 A044     		add	r8, r8, r4
 2082              	.LVL273:
 2083 00d2 17F8014B 		ldrb	r4, [r7], #1	@ zero_extendqisi2
 2084              	.LVL274:
 2085 00d6 D2D0     		beq	.L270
 2086              	.L289:
 2087              		.loc 1 5781 0
 2088 00d8 A446     		mov	ip, r4
 2089              		.loc 1 5792 0
 2090 00da 012E     		cmp	r6, #1
 2091              		.loc 1 5781 0
 2092 00dc B946     		mov	r9, r7
 2093              		.loc 1 5791 0
 2094 00de 88F800C0 		strb	ip, [r8]
 2095              		.loc 1 5781 0
 2096 00e2 7746     		mov	r7, lr
 2097              	.LVL275:
 2098              		.loc 1 5792 0
 2099 00e4 63D0     		beq	.L291
 2100              	.LVL276:
 2101              	.L264:
 2102              		.loc 1 5792 0 is_stmt 0 discriminator 1
 2103 00e6 7C78     		ldrb	r4, [r7, #1]	@ zero_extendqisi2
 2104 00e8 88F80140 		strb	r4, [r8, #1]
 2105 00ec 032E     		cmp	r6, #3
 2106 00ee 00F0B080 		beq	.L266
 2107              		.loc 1 5792 0
 2108 00f2 07F10209 		add	r9, r7, #2
 2109 00f6 08F10205 		add	r5, r8, #2
ARM GAS  /tmp/ccrwCQMC.s 			page 38


 2110              	.LVL277:
 2111              	.L265:
 2112              		.loc 1 5794 0 is_stmt 1
 2113 00fa 99F80040 		ldrb	r4, [r9]	@ zero_extendqisi2
 2114              		.loc 1 5551 0
 2115 00fe 3F2C     		cmp	r4, #63
 2116              		.loc 1 5794 0
 2117 0100 09F10107 		add	r7, r9, #1
 2118              	.LVL278:
 2119              		.loc 1 5551 0
 2120 0104 59D9     		bls	.L249
 2121 0106 C0E7     		b	.L292
 2122              	.LVL279:
 2123              	.L268:
 2124              		.loc 1 5457 0
 2125 0108 0F2C     		cmp	r4, #15
 2126 010a 8646     		mov	lr, r0
 2127              		.loc 1 5439 0
 2128 010c 1546     		mov	r5, r2
 2129              	.LVL280:
 2130              		.loc 1 5457 0
 2131 010e B9D8     		bhi	.L238
 2132              	.LVL281:
 2133              	.L290:
 2134              		.loc 1 5459 0
 2135 0110 54B9     		cbnz	r4, .L239
 2136              	.LVL282:
 2137              		.loc 1 5461 0
 2138 0112 9EF80160 		ldrb	r6, [lr, #1]	@ zero_extendqisi2
 2139 0116 26B9     		cbnz	r6, .L240
 2140              	.LVL283:
 2141              	.L241:
 2142 0118 17F8016F 		ldrb	r6, [r7, #1]!	@ zero_extendqisi2
 2143              		.loc 1 5463 0
 2144 011c FF34     		adds	r4, r4, #255
 2145              	.LVL284:
 2146              		.loc 1 5461 0
 2147 011e 002E     		cmp	r6, #0
 2148 0120 FAD0     		beq	.L241
 2149              	.LVL285:
 2150              	.L240:
 2151              		.loc 1 5468 0
 2152 0122 0F36     		adds	r6, r6, #15
 2153 0124 3444     		add	r4, r4, r6
 2154 0126 0137     		adds	r7, r7, #1
 2155              	.LVL286:
 2156              	.L239:
 2157              		.loc 1 5493 0
 2158 0128 3E46     		mov	r6, r7
 2159 012a AE46     		mov	lr, r5
 2160 012c 56F804CB 		ldr	ip, [r6], #4
 2161 0130 4EF804CB 		str	ip, [lr], #4
 2162              	.LVL287:
 2163              		.loc 1 5495 0
 2164 0134 B4F10108 		subs	r8, r4, #1
 2165              	.LVL288:
 2166 0138 3CD0     		beq	.L293
ARM GAS  /tmp/ccrwCQMC.s 			page 39


 2167              		.loc 1 5497 0
 2168 013a B8F1030F 		cmp	r8, #3
 2169 013e 40F29080 		bls	.L243
 2170 0142 053C     		subs	r4, r4, #5
 2171 0144 A408     		lsrs	r4, r4, #2
 2172 0146 04F10209 		add	r9, r4, #2
 2173 014a 05EB8909 		add	r9, r5, r9, lsl #2
 2174              		.loc 1 5494 0
 2175 014e B446     		mov	ip, r6
 2176 0150 7746     		mov	r7, lr
 2177              	.LVL289:
 2178              	.L244:
 2179              		.loc 1 5500 0 discriminator 1
 2180 0152 5CF8045B 		ldr	r5, [ip], #4
 2181              	.LVL290:
 2182 0156 47F8045B 		str	r5, [r7], #4
 2183              	.LVL291:
 2184              		.loc 1 5502 0 discriminator 1
 2185 015a 4F45     		cmp	r7, r9
 2186 015c F9D1     		bne	.L244
 2187 015e 671C     		adds	r7, r4, #1
 2188              	.LVL292:
 2189 0160 C4EB8474 		rsb	r4, r4, r4, lsl #30
 2190 0164 08EB8408 		add	r8, r8, r4, lsl #2
 2191 0168 BF00     		lsls	r7, r7, #2
 2192              		.loc 1 5503 0
 2193 016a B8F10408 		subs	r8, r8, #4
 2194 016e 0EEB0705 		add	r5, lr, r7
 2195 0172 3E44     		add	r6, r6, r7
 2196 0174 00F0A480 		beq	.L294
 2197 0178 06EB080E 		add	lr, r6, r8
 2198              		.loc 1 5501 0
 2199 017c 3746     		mov	r7, r6
 2200              	.LVL293:
 2201              		.loc 1 5503 0
 2202 017e 16F801CB 		ldrb	ip, [r6], #1	@ zero_extendqisi2
 2203              	.LVL294:
 2204 0182 6C1E     		subs	r4, r5, #1
 2205 0184 7645     		cmp	r6, lr
 2206 0186 04F801CF 		strb	ip, [r4, #1]!
 2207 018a 06D0     		beq	.L295
 2208              	.L269:
 2209 018c 3746     		mov	r7, r6
 2210              	.LVL295:
 2211 018e 16F801CB 		ldrb	ip, [r6], #1	@ zero_extendqisi2
 2212              	.LVL296:
 2213 0192 04F801CF 		strb	ip, [r4, #1]!
 2214 0196 7645     		cmp	r6, lr
 2215 0198 F8D1     		bne	.L269
 2216              	.L295:
 2217              	.LVL297:
 2218 019a 4544     		add	r5, r5, r8
 2219              	.LVL298:
 2220 019c 0237     		adds	r7, r7, #2
 2221 019e 50E7     		b	.L236
 2222              	.LVL299:
 2223              	.L288:
ARM GAS  /tmp/ccrwCQMC.s 			page 40


 2224              	.L234:
 2225              		.loc 1 5439 0
 2226 01a0 9046     		mov	r8, r2
 2227              	.LVL300:
 2228              		.loc 1 5792 0
 2229 01a2 012E     		cmp	r6, #1
 2230 01a4 00F10209 		add	r9, r0, #2
 2231              		.loc 1 5791 0
 2232 01a8 88F800C0 		strb	ip, [r8]
 2233              		.loc 1 5792 0
 2234 01ac 9BD1     		bne	.L264
 2235              	.LVL301:
 2236              	.L291:
 2237              		.loc 1 5791 0
 2238 01ae 08F10105 		add	r5, r8, #1
 2239 01b2 A2E7     		b	.L265
 2240              	.LVL302:
 2241              	.L293:
 2242 01b4 0537     		adds	r7, r7, #5
 2243              	.LVL303:
 2244              		.loc 1 5494 0
 2245 01b6 7546     		mov	r5, lr
 2246 01b8 43E7     		b	.L236
 2247              	.LVL304:
 2248              	.L249:
 2249              		.loc 1 5604 0
 2250 01ba 1F2C     		cmp	r4, #31
 2251 01bc 61D9     		bls	.L251
 2252              	.LVL305:
 2253              		.loc 1 5607 0
 2254 01be 14F01F04 		ands	r4, r4, #31
 2255              	.LVL306:
 2256 01c2 09D1     		bne	.L252
 2257              	.LVL307:
 2258              		.loc 1 5609 0
 2259 01c4 3E78     		ldrb	r6, [r7]	@ zero_extendqisi2
 2260 01c6 26B9     		cbnz	r6, .L253
 2261              	.LVL308:
 2262              	.L254:
 2263 01c8 17F8016F 		ldrb	r6, [r7, #1]!	@ zero_extendqisi2
 2264              		.loc 1 5611 0
 2265 01cc FF34     		adds	r4, r4, #255
 2266              	.LVL309:
 2267              		.loc 1 5609 0
 2268 01ce 002E     		cmp	r6, #0
 2269 01d0 FAD0     		beq	.L254
 2270              	.LVL310:
 2271              	.L253:
 2272              		.loc 1 5616 0
 2273 01d2 1F36     		adds	r6, r6, #31
 2274 01d4 3444     		add	r4, r4, r6
 2275 01d6 0137     		adds	r7, r7, #1
 2276              	.LVL311:
 2277              	.L252:
 2278              		.loc 1 5635 0
 2279 01d8 BE46     		mov	lr, r7
 2280 01da 3EF802CB 		ldrh	ip, [lr], #2
ARM GAS  /tmp/ccrwCQMC.s 			page 41


 2281 01de 6FEA9C0C 		mvn	ip, ip, lsr #2
 2282 01e2 AC44     		add	ip, ip, r5
 2283              	.LVL312:
 2284              	.L255:
 2285              		.loc 1 5756 0
 2286 01e4 052C     		cmp	r4, #5
 2287 01e6 7FF65CAF 		bls	.L250
 2288              		.loc 1 5756 0 is_stmt 0 discriminator 1
 2289 01ea A5EB0C06 		sub	r6, r5, ip
 2290 01ee 032E     		cmp	r6, #3
 2291 01f0 7FF757AF 		ble	.L250
 2292              		.loc 1 5759 0 is_stmt 1
 2293 01f4 A846     		mov	r8, r5
 2294 01f6 5CF8046B 		ldr	r6, [ip], #4
 2295              	.LVL313:
 2296 01fa 48F8046B 		str	r6, [r8], #4
 2297              	.LVL314:
 2298 01fe A4F1060A 		sub	r10, r4, #6
 2299 0202 4FEA9A0A 		lsr	r10, r10, #2
 2300 0206 0AF10209 		add	r9, r10, #2
 2301 020a 05EB8909 		add	r9, r5, r9, lsl #2
 2302              		.loc 1 5760 0
 2303 020e 4646     		mov	r6, r8
 2304 0210 023C     		subs	r4, r4, #2
 2305              	.LVL315:
 2306 0212 6546     		mov	r5, ip
 2307              	.LVL316:
 2308              	.L261:
 2309              		.loc 1 5762 0 discriminator 1
 2310 0214 55F8047B 		ldr	r7, [r5], #4
 2311              	.LVL317:
 2312 0218 46F8047B 		str	r7, [r6], #4
 2313              	.LVL318:
 2314              		.loc 1 5764 0 discriminator 1
 2315 021c B145     		cmp	r9, r6
 2316 021e F9D1     		bne	.L261
 2317 0220 0AF10106 		add	r6, r10, #1
 2318              	.LVL319:
 2319 0224 CAEB8A7A 		rsb	r10, r10, r10, lsl #30
 2320 0228 04EB8A05 		add	r5, r4, r10, lsl #2
 2321              	.LVL320:
 2322 022c B600     		lsls	r6, r6, #2
 2323              		.loc 1 5765 0
 2324 022e 043D     		subs	r5, r5, #4
 2325 0230 B044     		add	r8, r8, r6
 2326 0232 0CEB0604 		add	r4, ip, r6
 2327 0236 3FF41AAF 		beq	.L248
 2328 023a 08F1FF36 		add	r6, r8, #-1
 2329 023e 04EB050C 		add	ip, r4, r5
 2330              	.L262:
 2331              	.LVL321:
 2332              		.loc 1 5765 0 is_stmt 0 discriminator 2
 2333 0242 14F8017B 		ldrb	r7, [r4], #1	@ zero_extendqisi2
 2334              	.LVL322:
 2335 0246 06F8017F 		strb	r7, [r6, #1]!
 2336 024a 6445     		cmp	r4, ip
 2337 024c F9D1     		bne	.L262
ARM GAS  /tmp/ccrwCQMC.s 			page 42


 2338 024e A844     		add	r8, r8, r5
 2339 0250 0DE7     		b	.L248
 2340              	.LVL323:
 2341              	.L266:
 2342              		.loc 1 5792 0 is_stmt 1 discriminator 2
 2343 0252 BC78     		ldrb	r4, [r7, #2]	@ zero_extendqisi2
 2344 0254 88F80240 		strb	r4, [r8, #2]
 2345 0258 07F10309 		add	r9, r7, #3
 2346              	.LVL324:
 2347 025c 08F10305 		add	r5, r8, #3
 2348              	.LVL325:
 2349 0260 4BE7     		b	.L265
 2350              	.LVL326:
 2351              	.L243:
 2352 0262 04F1030C 		add	ip, r4, #3
 2353 0266 6744     		add	r7, r7, ip
 2354              	.LVL327:
 2355 0268 0335     		adds	r5, r5, #3
 2356              		.loc 1 5494 0
 2357 026a B446     		mov	ip, r6
 2358              	.LVL328:
 2359              	.L247:
 2360              		.loc 1 5506 0 discriminator 1
 2361 026c 1CF8019B 		ldrb	r9, [ip], #1	@ zero_extendqisi2
 2362              	.LVL329:
 2363 0270 05F8019F 		strb	r9, [r5, #1]!
 2364 0274 BC45     		cmp	ip, r7
 2365 0276 F9D1     		bne	.L247
 2366              	.LVL330:
 2367 0278 3719     		adds	r7, r6, r4
 2368 027a 0EEB0805 		add	r5, lr, r8
 2369              	.LVL331:
 2370              		.loc 1 5506 0 is_stmt 0
 2371 027e 4644     		add	r6, r6, r8
 2372 0280 DFE6     		b	.L236
 2373              	.LVL332:
 2374              	.L251:
 2375              		.loc 1 5643 0 is_stmt 1
 2376 0282 0F2C     		cmp	r4, #15
 2377 0284 1ED9     		bls	.L256
 2378              	.LVL333:
 2379              		.loc 1 5649 0
 2380 0286 4FEAC42C 		lsl	ip, r4, #11
 2381              		.loc 1 5652 0
 2382 028a 14F00704 		ands	r4, r4, #7
 2383              		.loc 1 5649 0
 2384 028e 0CF4804C 		and	ip, ip, #16384
 2385              	.LVL334:
 2386              		.loc 1 5652 0
 2387 0292 09D1     		bne	.L257
 2388              	.LVL335:
 2389              		.loc 1 5654 0
 2390 0294 3E78     		ldrb	r6, [r7]	@ zero_extendqisi2
 2391 0296 26B9     		cbnz	r6, .L258
 2392              	.LVL336:
 2393              	.L259:
 2394 0298 17F8016F 		ldrb	r6, [r7, #1]!	@ zero_extendqisi2
ARM GAS  /tmp/ccrwCQMC.s 			page 43


 2395              		.loc 1 5656 0
 2396 029c FF34     		adds	r4, r4, #255
 2397              	.LVL337:
 2398              		.loc 1 5654 0
 2399 029e 002E     		cmp	r6, #0
 2400 02a0 FAD0     		beq	.L259
 2401              	.LVL338:
 2402              	.L258:
 2403              		.loc 1 5661 0
 2404 02a2 0736     		adds	r6, r6, #7
 2405 02a4 3444     		add	r4, r4, r6
 2406 02a6 0137     		adds	r7, r7, #1
 2407              	.LVL339:
 2408              	.L257:
 2409              		.loc 1 5681 0
 2410 02a8 BE46     		mov	lr, r7
 2411 02aa 3EF8026B 		ldrh	r6, [lr], #2
 2412 02ae 0CEB960C 		add	ip, ip, r6, lsr #2
 2413              	.LVL340:
 2414 02b2 A5EB0C0C 		sub	ip, r5, ip
 2415              	.LVL341:
 2416              		.loc 1 5686 0
 2417 02b6 6545     		cmp	r5, ip
 2418 02b8 13D0     		beq	.L260
 2419              		.loc 1 5688 0
 2420 02ba ACF5804C 		sub	ip, ip, #16384
 2421              	.LVL342:
 2422 02be 91E7     		b	.L255
 2423              	.LVL343:
 2424              	.L294:
 2425 02c0 771C     		adds	r7, r6, #1
 2426 02c2 BEE6     		b	.L236
 2427              	.LVL344:
 2428              	.L256:
 2429              		.loc 1 5713 0
 2430 02c4 3E78     		ldrb	r6, [r7]	@ zero_extendqisi2
 2431 02c6 6FEA9404 		mvn	r4, r4, lsr #2
 2432 02ca A4EB8604 		sub	r4, r4, r6, lsl #2
 2433              		.loc 1 5716 0
 2434 02ce A846     		mov	r8, r5
 2435 02d0 2E5D     		ldrb	r6, [r5, r4]	@ zero_extendqisi2
 2436 02d2 08F8026B 		strb	r6, [r8], #2
 2437              		.loc 1 5713 0
 2438 02d6 2C44     		add	r4, r4, r5
 2439 02d8 07F1010E 		add	lr, r7, #1
 2440              	.LVL345:
 2441              		.loc 1 5716 0
 2442 02dc 6478     		ldrb	r4, [r4, #1]	@ zero_extendqisi2
 2443              	.LVL346:
 2444 02de 6C70     		strb	r4, [r5, #1]
 2445              		.loc 1 5718 0
 2446 02e0 C5E6     		b	.L248
 2447              	.LVL347:
 2448              	.L260:
 2449              		.loc 1 5410 0
 2450 02e2 0144     		add	r1, r1, r0
 2451              	.LVL348:
ARM GAS  /tmp/ccrwCQMC.s 			page 44


 2452              		.loc 1 5799 0
 2453 02e4 AD1A     		subs	r5, r5, r2
 2454              	.LVL349:
 2455              		.loc 1 5800 0
 2456 02e6 7145     		cmp	r1, lr
 2457              		.loc 1 5799 0
 2458 02e8 1D60     		str	r5, [r3]
 2459              		.loc 1 5800 0
 2460 02ea 07D0     		beq	.L271
 2461              		.loc 1 5801 0
 2462 02ec 03D9     		bls	.L272
 2463 02ee 6FF00700 		mvn	r0, #7
 2464              	.LVL350:
 2465              	.L231:
 2466              		.loc 1 5820 0
 2467 02f2 BDE8F087 		pop	{r4, r5, r6, r7, r8, r9, r10, pc}
 2468              	.LVL351:
 2469              	.L272:
 2470              		.loc 1 5801 0
 2471 02f6 6FF00300 		mvn	r0, #3
 2472              	.LVL352:
 2473              		.loc 1 5800 0
 2474 02fa FAE7     		b	.L231
 2475              	.LVL353:
 2476              	.L271:
 2477 02fc 0020     		movs	r0, #0
 2478              	.LVL354:
 2479 02fe F8E7     		b	.L231
 2480              		.cfi_endproc
 2481              	.LFE32:
 2482              		.size	lzo1x_decompress, .-lzo1x_decompress
 2483              		.section	.text.lzo1x_decompress_safe,"ax",%progbits
 2484              		.align	1
 2485              		.p2align 4,,15
 2486              		.global	lzo1x_decompress_safe
 2487              		.syntax unified
 2488              		.thumb
 2489              		.thumb_func
 2490              		.fpu fpv4-sp-d16
 2491              		.type	lzo1x_decompress_safe, %function
 2492              	lzo1x_decompress_safe:
 2493              	.LFB33:
 2494              		.loc 1 5940 0
 2495              		.cfi_startproc
 2496              		@ args = 4, pretend = 0, frame = 0
 2497              		@ frame_needed = 0, uses_anonymous_args = 0
 2498              	.LVL355:
 2499 0000 2DE9F047 		push	{r4, r5, r6, r7, r8, r9, r10, lr}
 2500              		.cfi_def_cfa_offset 32
 2501              		.cfi_offset 4, -32
 2502              		.cfi_offset 5, -28
 2503              		.cfi_offset 6, -24
 2504              		.cfi_offset 7, -20
 2505              		.cfi_offset 8, -16
 2506              		.cfi_offset 9, -12
 2507              		.cfi_offset 10, -8
 2508              		.cfi_offset 14, -4
ARM GAS  /tmp/ccrwCQMC.s 			page 45


 2509              		.loc 1 5953 0
 2510 0004 D3F80090 		ldr	r9, [r3]
 2511              		.loc 1 5951 0
 2512 0008 4618     		adds	r6, r0, r1
 2513              	.LVL356:
 2514              		.loc 1 5978 0
 2515 000a 0025     		movs	r5, #0
 2516              		.loc 1 5983 0
 2517 000c 8642     		cmp	r6, r0
 2518              		.loc 1 5953 0
 2519 000e 02EB090C 		add	ip, r2, r9
 2520              	.LVL357:
 2521              		.loc 1 5978 0
 2522 0012 1D60     		str	r5, [r3]
 2523              	.LVL358:
 2524              		.loc 1 5983 0
 2525 0014 00F0BD81 		beq	.L351
 2526              		.loc 1 5984 0
 2527 0018 0478     		ldrb	r4, [r0]	@ zero_extendqisi2
 2528 001a 112C     		cmp	r4, #17
 2529 001c 52D9     		bls	.L348
 2530              		.loc 1 5986 0
 2531 001e A4F11108 		sub	r8, r4, #17
 2532              		.loc 1 5987 0
 2533 0022 B8F1030F 		cmp	r8, #3
 2534              		.loc 1 5986 0
 2535 0026 4746     		mov	r7, r8
 2536 0028 00F1010E 		add	lr, r0, #1
 2537              	.LVL359:
 2538              		.loc 1 5987 0
 2539 002c 40F3F880 		ble	.L349
 2540              		.loc 1 5989 0
 2541 0030 C145     		cmp	r9, r8
 2542 0032 C0F0B881 		bcc	.L350
 2543              		.loc 1 5989 0 is_stmt 0 discriminator 1
 2544 0036 0139     		subs	r1, r1, #1
 2545              	.LVL360:
 2546 0038 A4F10E07 		sub	r7, r4, #14
 2547              	.LVL361:
 2548 003c B942     		cmp	r1, r7
 2549 003e C0F0A881 		bcc	.L351
 2550 0042 103C     		subs	r4, r4, #16
 2551 0044 2044     		add	r0, r0, r4
 2552              	.LVL362:
 2553 0046 551E     		subs	r5, r2, #1
 2554              		.loc 1 5986 0 is_stmt 1
 2555 0048 7446     		mov	r4, lr
 2556              	.LVL363:
 2557              	.L301:
 2558              		.loc 1 5990 0 discriminator 1
 2559 004a 14F8017B 		ldrb	r7, [r4], #1	@ zero_extendqisi2
 2560              	.LVL364:
 2561 004e 05F8017F 		strb	r7, [r5, #1]!
 2562 0052 8442     		cmp	r4, r0
 2563 0054 F9D1     		bne	.L301
 2564 0056 0EEB0800 		add	r0, lr, r8
 2565 005a 02EB0801 		add	r1, r2, r8
ARM GAS  /tmp/ccrwCQMC.s 			page 46


 2566              	.LVL365:
 2567              	.L302:
 2568              		.loc 1 6063 0
 2569 005e 0478     		ldrb	r4, [r0]	@ zero_extendqisi2
 2570              	.LVL366:
 2571              		.loc 1 6064 0
 2572 0060 0F2C     		cmp	r4, #15
 2573 0062 40F2FB80 		bls	.L317
 2574              		.loc 1 6092 0
 2575 0066 3F2C     		cmp	r4, #63
 2576              		.loc 1 6063 0
 2577 0068 00F10105 		add	r5, r0, #1
 2578              	.LVL367:
 2579              		.loc 1 6092 0
 2580 006c 36D9     		bls	.L321
 2581              	.LVL368:
 2582              	.L381:
 2583              		.loc 1 6115 0
 2584 006e C4F38207 		ubfx	r7, r4, #2, #3
 2585              		.loc 1 6116 0
 2586 0072 2878     		ldrb	r0, [r5]	@ zero_extendqisi2
 2587 0074 FF43     		mvns	r7, r7
 2588 0076 A7EBC007 		sub	r7, r7, r0, lsl #3
 2589 007a 0F44     		add	r7, r7, r1
 2590              		.loc 1 6117 0
 2591 007c 6409     		lsrs	r4, r4, #5
 2592              		.loc 1 6141 0
 2593 007e BA42     		cmp	r2, r7
 2594              		.loc 1 6116 0
 2595 0080 05F10100 		add	r0, r5, #1
 2596              	.LVL369:
 2597              		.loc 1 6117 0
 2598 0084 04F1FF38 		add	r8, r4, #-1
 2599              	.LVL370:
 2600              		.loc 1 6141 0
 2601 0088 00F27E81 		bhi	.L318
 2602              		.loc 1 6141 0 is_stmt 0 discriminator 1
 2603 008c B942     		cmp	r1, r7
 2604 008e 40F27B81 		bls	.L318
 2605              		.loc 1 6141 0 discriminator 2
 2606 0092 0134     		adds	r4, r4, #1
 2607 0094 ACEB0105 		sub	r5, ip, r1
 2608 0098 A542     		cmp	r5, r4
 2609 009a C0F07081 		bcc	.L379
 2610              	.LVL371:
 2611              	.L322:
 2612              		.loc 1 6312 0 is_stmt 1
 2613 009e 3D46     		mov	r5, r7
 2614 00a0 0C46     		mov	r4, r1
 2615 00a2 15F802EB 		ldrb	lr, [r5], #2	@ zero_extendqisi2
 2616 00a6 04F802EB 		strb	lr, [r4], #2
 2617              	.LVL372:
 2618 00aa 7F78     		ldrb	r7, [r7, #1]	@ zero_extendqisi2
 2619 00ac 01F8017F 		strb	r7, [r1, #1]!
 2620 00b0 05EB080E 		add	lr, r5, r8
 2621              	.LVL373:
 2622              	.L339:
ARM GAS  /tmp/ccrwCQMC.s 			page 47


 2623              		.loc 1 6313 0 discriminator 1
 2624 00b4 15F8017B 		ldrb	r7, [r5], #1	@ zero_extendqisi2
 2625              	.LVL374:
 2626 00b8 01F8017F 		strb	r7, [r1, #1]!
 2627 00bc AE45     		cmp	lr, r5
 2628 00be F9D1     		bne	.L339
 2629 00c0 4444     		add	r4, r4, r8
 2630 00c2 E6E0     		b	.L320
 2631              	.LVL375:
 2632              	.L348:
 2633              		.loc 1 5980 0
 2634 00c4 1146     		mov	r1, r2
 2635              	.LVL376:
 2636              	.L298:
 2637              		.loc 1 5996 0
 2638 00c6 341A     		subs	r4, r6, r0
 2639 00c8 022C     		cmp	r4, #2
 2640 00ca 40F2FA80 		bls	.L378
 2641              		.loc 1 5997 0
 2642 00ce 0478     		ldrb	r4, [r0]	@ zero_extendqisi2
 2643              		.loc 1 5998 0
 2644 00d0 0F2C     		cmp	r4, #15
 2645              		.loc 1 5997 0
 2646 00d2 00F10105 		add	r5, r0, #1
 2647              		.loc 1 5998 0
 2648 00d6 51D9     		bls	.L380
 2649              	.L304:
 2650              		.loc 1 6092 0
 2651 00d8 3F2C     		cmp	r4, #63
 2652 00da C8D8     		bhi	.L381
 2653              	.L321:
 2654              		.loc 1 6145 0
 2655 00dc 1F2C     		cmp	r4, #31
 2656 00de 40F20681 		bls	.L323
 2657              	.LVL377:
 2658              		.loc 1 6148 0
 2659 00e2 14F01F08 		ands	r8, r4, #31
 2660              	.LVL378:
 2661 00e6 00F0E280 		beq	.L324
 2662              	.L325:
 2663              	.LVL379:
 2664              		.loc 1 6176 0
 2665 00ea 2846     		mov	r0, r5
 2666 00ec 30F8027B 		ldrh	r7, [r0], #2
 2667 00f0 6FEA9707 		mvn	r7, r7, lsr #2
 2668 00f4 0F44     		add	r7, r7, r1
 2669              	.LVL380:
 2670              	.L328:
 2671              		.loc 1 6269 0
 2672 00f6 BA42     		cmp	r2, r7
 2673 00f8 00F24681 		bhi	.L318
 2674              		.loc 1 6269 0 is_stmt 0 discriminator 1
 2675 00fc B942     		cmp	r1, r7
 2676 00fe 40F24381 		bls	.L318
 2677              		.loc 1 6269 0 discriminator 2
 2678 0102 ACEB0104 		sub	r4, ip, r1
 2679 0106 08F10205 		add	r5, r8, #2
ARM GAS  /tmp/ccrwCQMC.s 			page 48


 2680 010a AC42     		cmp	r4, r5
 2681 010c C0F03781 		bcc	.L379
 2682              		.loc 1 6297 0 is_stmt 1
 2683 0110 B8F1050F 		cmp	r8, #5
 2684 0114 C3D9     		bls	.L322
 2685              		.loc 1 6297 0 is_stmt 0 discriminator 1
 2686 0116 CC1B     		subs	r4, r1, r7
 2687 0118 032C     		cmp	r4, #3
 2688 011a C0DD     		ble	.L322
 2689              		.loc 1 6300 0 is_stmt 1
 2690 011c 8A46     		mov	r10, r1
 2691 011e 57F8044B 		ldr	r4, [r7], #4
 2692              	.LVL381:
 2693 0122 4AF8044B 		str	r4, [r10], #4
 2694              	.LVL382:
 2695 0126 A8F10609 		sub	r9, r8, #6
 2696 012a 4FEA9909 		lsr	r9, r9, #2
 2697 012e 09F1020E 		add	lr, r9, #2
 2698 0132 01EB8E0E 		add	lr, r1, lr, lsl #2
 2699              		.loc 1 6301 0
 2700 0136 5546     		mov	r5, r10
 2701 0138 A8F10208 		sub	r8, r8, #2
 2702              	.LVL383:
 2703 013c 3946     		mov	r1, r7
 2704              	.LVL384:
 2705              	.L337:
 2706              		.loc 1 6303 0 discriminator 1
 2707 013e 51F8044B 		ldr	r4, [r1], #4
 2708              	.LVL385:
 2709 0142 45F8044B 		str	r4, [r5], #4
 2710              	.LVL386:
 2711              		.loc 1 6305 0 discriminator 1
 2712 0146 7545     		cmp	r5, lr
 2713 0148 F9D1     		bne	.L337
 2714 014a 09F10101 		add	r1, r9, #1
 2715              	.LVL387:
 2716 014e C9EB8979 		rsb	r9, r9, r9, lsl #30
 2717 0152 08EB8908 		add	r8, r8, r9, lsl #2
 2718 0156 8900     		lsls	r1, r1, #2
 2719              		.loc 1 6306 0
 2720 0158 B8F10408 		subs	r8, r8, #4
 2721 015c 0AEB0104 		add	r4, r10, r1
 2722 0160 3944     		add	r1, r1, r7
 2723 0162 00F09680 		beq	.L320
 2724 0166 651E     		subs	r5, r4, #1
 2725              	.LVL388:
 2726 0168 01EB080E 		add	lr, r1, r8
 2727              	.L338:
 2728              	.LVL389:
 2729              		.loc 1 6306 0 is_stmt 0 discriminator 2
 2730 016c 11F8017B 		ldrb	r7, [r1], #1	@ zero_extendqisi2
 2731              	.LVL390:
 2732 0170 05F8017F 		strb	r7, [r5, #1]!
 2733 0174 7145     		cmp	r1, lr
 2734 0176 F9D1     		bne	.L338
 2735 0178 4444     		add	r4, r4, r8
 2736 017a 8AE0     		b	.L320
ARM GAS  /tmp/ccrwCQMC.s 			page 49


 2737              	.LVL391:
 2738              	.L380:
 2739              		.loc 1 6000 0 is_stmt 1
 2740 017c 84B9     		cbnz	r4, .L306
 2741 017e 00F10130 		add	r0, r0, #16843009
 2742 0182 07E0     		b	.L308
 2743              	.LVL392:
 2744              	.L309:
 2745              		.loc 1 6006 0
 2746 0184 A842     		cmp	r0, r5
 2747              		.loc 1 6004 0
 2748 0186 04F1FF04 		add	r4, r4, #255
 2749              	.LVL393:
 2750              		.loc 1 6006 0
 2751 018a 00F09A80 		beq	.L378
 2752              		.loc 1 6007 0
 2753 018e AE42     		cmp	r6, r5
 2754 0190 00F09780 		beq	.L378
 2755              	.LVL394:
 2756              	.L308:
 2757              		.loc 1 6002 0
 2758 0194 15F8017B 		ldrb	r7, [r5], #1	@ zero_extendqisi2
 2759              	.LVL395:
 2760 0198 002F     		cmp	r7, #0
 2761 019a F3D0     		beq	.L309
 2762              	.LVL396:
 2763              		.loc 1 6009 0
 2764 019c 0F37     		adds	r7, r7, #15
 2765              	.LVL397:
 2766 019e 3C44     		add	r4, r4, r7
 2767              	.LVL398:
 2768              	.L306:
 2769              		.loc 1 6011 0
 2770 01a0 04F10308 		add	r8, r4, #3
 2771 01a4 ACEB0100 		sub	r0, ip, r1
 2772 01a8 4045     		cmp	r0, r8
 2773 01aa C0F0E880 		bcc	.L379
 2774              		.loc 1 6011 0 is_stmt 0 discriminator 1
 2775 01ae 701B     		subs	r0, r6, r5
 2776 01b0 A71D     		adds	r7, r4, #6
 2777 01b2 B842     		cmp	r0, r7
 2778 01b4 C0F08580 		bcc	.L378
 2779              		.loc 1 6034 0 is_stmt 1
 2780 01b8 2846     		mov	r0, r5
 2781 01ba 0F46     		mov	r7, r1
 2782 01bc 50F804EB 		ldr	lr, [r0], #4
 2783 01c0 47F804EB 		str	lr, [r7], #4
 2784              	.LVL399:
 2785              		.loc 1 6036 0
 2786 01c4 B4F1010E 		subs	lr, r4, #1
 2787              	.LVL400:
 2788 01c8 00F08180 		beq	.L352
 2789              		.loc 1 6038 0
 2790 01cc BEF1030F 		cmp	lr, #3
 2791 01d0 40F2A680 		bls	.L312
 2792 01d4 053C     		subs	r4, r4, #5
 2793 01d6 A408     		lsrs	r4, r4, #2
ARM GAS  /tmp/ccrwCQMC.s 			page 50


 2794 01d8 04F10209 		add	r9, r4, #2
 2795 01dc 01EB8909 		add	r9, r1, r9, lsl #2
 2796              		.loc 1 6035 0
 2797 01e0 8046     		mov	r8, r0
 2798 01e2 3D46     		mov	r5, r7
 2799              	.LVL401:
 2800              	.L313:
 2801              		.loc 1 6041 0 discriminator 1
 2802 01e4 58F8041B 		ldr	r1, [r8], #4
 2803              	.LVL402:
 2804 01e8 45F8041B 		str	r1, [r5], #4
 2805              	.LVL403:
 2806              		.loc 1 6043 0 discriminator 1
 2807 01ec A945     		cmp	r9, r5
 2808 01ee F9D1     		bne	.L313
 2809 01f0 651C     		adds	r5, r4, #1
 2810              	.LVL404:
 2811 01f2 C4EB8474 		rsb	r4, r4, r4, lsl #30
 2812 01f6 0EEB840E 		add	lr, lr, r4, lsl #2
 2813 01fa AD00     		lsls	r5, r5, #2
 2814              		.loc 1 6044 0
 2815 01fc BEF1040E 		subs	lr, lr, #4
 2816 0200 07EB0501 		add	r1, r7, r5
 2817 0204 2844     		add	r0, r0, r5
 2818 0206 3FF42AAF 		beq	.L302
 2819 020a 4C1E     		subs	r4, r1, #1
 2820 020c 00EB0E07 		add	r7, r0, lr
 2821              	.LVL405:
 2822              	.L314:
 2823              		.loc 1 6044 0 is_stmt 0 discriminator 2
 2824 0210 10F8015B 		ldrb	r5, [r0], #1	@ zero_extendqisi2
 2825              	.LVL406:
 2826 0214 04F8015F 		strb	r5, [r4, #1]!
 2827 0218 8742     		cmp	r7, r0
 2828 021a F9D1     		bne	.L314
 2829              	.LVL407:
 2830 021c 7144     		add	r1, r1, lr
 2831              	.LVL408:
 2832 021e 1EE7     		b	.L302
 2833              	.LVL409:
 2834              	.L349:
 2835              		.loc 1 6327 0 is_stmt 1
 2836 0220 1146     		mov	r1, r2
 2837              	.LVL410:
 2838              		.loc 1 5980 0
 2839 0222 1446     		mov	r4, r2
 2840              	.LVL411:
 2841              	.L299:
 2842              		.loc 1 6328 0
 2843 0224 ACEB0100 		sub	r0, ip, r1
 2844 0228 B842     		cmp	r0, r7
 2845 022a C0F0A880 		bcc	.L379
 2846              		.loc 1 6328 0 is_stmt 0 discriminator 1
 2847 022e A6EB0E00 		sub	r0, r6, lr
 2848 0232 FD1C     		adds	r5, r7, #3
 2849 0234 A842     		cmp	r0, r5
 2850 0236 44D3     		bcc	.L378
ARM GAS  /tmp/ccrwCQMC.s 			page 51


 2851              	.LVL412:
 2852              		.loc 1 6332 0 is_stmt 1
 2853 0238 9EF80010 		ldrb	r1, [lr]	@ zero_extendqisi2
 2854              	.LVL413:
 2855 023c 2170     		strb	r1, [r4]
 2856              		.loc 1 6333 0
 2857 023e 012F     		cmp	r7, #1
 2858 0240 4AD0     		beq	.L382
 2859              	.LVL414:
 2860              		.loc 1 6333 0 is_stmt 0 discriminator 1
 2861 0242 9EF80110 		ldrb	r1, [lr, #1]	@ zero_extendqisi2
 2862 0246 6170     		strb	r1, [r4, #1]
 2863 0248 032F     		cmp	r7, #3
 2864 024a 49D0     		beq	.L345
 2865              		.loc 1 6333 0
 2866 024c 0EF1020E 		add	lr, lr, #2
 2867              	.LVL415:
 2868 0250 A11C     		adds	r1, r4, #2
 2869              	.LVL416:
 2870              	.L344:
 2871              		.loc 1 6335 0 is_stmt 1
 2872 0252 0EF10105 		add	r5, lr, #1
 2873              	.LVL417:
 2874 0256 9EF80040 		ldrb	r4, [lr]	@ zero_extendqisi2
 2875              	.LVL418:
 2876              		.loc 1 6091 0
 2877 025a 3DE7     		b	.L304
 2878              	.LVL419:
 2879              	.L317:
 2880              		.loc 1 6083 0
 2881 025c 4778     		ldrb	r7, [r0, #1]	@ zero_extendqisi2
 2882 025e 6FF40065 		mvn	r5, #2048
 2883 0262 A5EB9404 		sub	r4, r5, r4, lsr #2
 2884              	.LVL420:
 2885 0266 A4EB8704 		sub	r4, r4, r7, lsl #2
 2886 026a 0C44     		add	r4, r4, r1
 2887              		.loc 1 6085 0
 2888 026c A242     		cmp	r2, r4
 2889              		.loc 1 6083 0
 2890 026e 00F10200 		add	r0, r0, #2
 2891              	.LVL421:
 2892              		.loc 1 6085 0
 2893 0272 00F28980 		bhi	.L318
 2894              		.loc 1 6085 0 is_stmt 0 discriminator 1
 2895 0276 A142     		cmp	r1, r4
 2896 0278 40F28680 		bls	.L318
 2897              		.loc 1 6085 0 discriminator 2
 2898 027c ACEB0105 		sub	r5, ip, r1
 2899 0280 022D     		cmp	r5, #2
 2900 0282 7CD9     		bls	.L379
 2901              	.LVL422:
 2902              		.loc 1 6086 0 is_stmt 1
 2903 0284 2578     		ldrb	r5, [r4]	@ zero_extendqisi2
 2904 0286 0D70     		strb	r5, [r1]
 2905              	.LVL423:
 2906 0288 6578     		ldrb	r5, [r4, #1]	@ zero_extendqisi2
 2907 028a 4D70     		strb	r5, [r1, #1]
ARM GAS  /tmp/ccrwCQMC.s 			page 52


 2908 028c A478     		ldrb	r4, [r4, #2]	@ zero_extendqisi2
 2909              	.LVL424:
 2910 028e 8C70     		strb	r4, [r1, #2]
 2911 0290 CC1C     		adds	r4, r1, #3
 2912              	.LVL425:
 2913              	.L320:
 2914 0292 10F8027C 		ldrb	r7, [r0, #-2]	@ zero_extendqisi2
 2915              	.LVL426:
 2916              		.loc 1 6324 0
 2917 0296 17F00307 		ands	r7, r7, #3
 2918              	.LVL427:
 2919 029a 1AD1     		bne	.L340
 2920 029c 2146     		mov	r1, r4
 2921 029e 12E7     		b	.L298
 2922              	.LVL428:
 2923              	.L327:
 2924              		.loc 1 6152 0
 2925 02a0 08F1FF08 		add	r8, r8, #255
 2926              	.LVL429:
 2927              		.loc 1 6154 0
 2928 02a4 18F5807F 		cmn	r8, #256
 2929 02a8 69D0     		beq	.L379
 2930              		.loc 1 6155 0
 2931 02aa AE42     		cmp	r6, r5
 2932 02ac 09D0     		beq	.L378
 2933              	.LVL430:
 2934              	.L324:
 2935              		.loc 1 6150 0
 2936 02ae 15F8010B 		ldrb	r0, [r5], #1	@ zero_extendqisi2
 2937              	.LVL431:
 2938 02b2 0028     		cmp	r0, #0
 2939 02b4 F4D0     		beq	.L327
 2940              	.LVL432:
 2941              		.loc 1 6158 0
 2942 02b6 741B     		subs	r4, r6, r5
 2943              		.loc 1 6157 0
 2944 02b8 1F30     		adds	r0, r0, #31
 2945              	.LVL433:
 2946              		.loc 1 6158 0
 2947 02ba 012C     		cmp	r4, #1
 2948              		.loc 1 6157 0
 2949 02bc 8044     		add	r8, r8, r0
 2950              	.LVL434:
 2951              		.loc 1 6158 0
 2952 02be 3FF614AF 		bhi	.L325
 2953              	.LVL435:
 2954              	.L378:
 2955 02c2 891A     		subs	r1, r1, r2
 2956              	.L297:
 2957              		.loc 1 6346 0
 2958 02c4 1960     		str	r1, [r3]
 2959              		.loc 1 6347 0
 2960 02c6 6FF00300 		mvn	r0, #3
 2961              	.L296:
 2962              		.loc 1 6361 0
 2963 02ca BDE8F087 		pop	{r4, r5, r6, r7, r8, r9, r10, pc}
 2964              	.LVL436:
ARM GAS  /tmp/ccrwCQMC.s 			page 53


 2965              	.L352:
 2966              		.loc 1 6035 0
 2967 02ce 3946     		mov	r1, r7
 2968 02d0 C5E6     		b	.L302
 2969              	.LVL437:
 2970              	.L340:
 2971              		.loc 1 6322 0
 2972 02d2 8646     		mov	lr, r0
 2973 02d4 2146     		mov	r1, r4
 2974 02d6 A5E7     		b	.L299
 2975              	.LVL438:
 2976              	.L382:
 2977              		.loc 1 6332 0
 2978 02d8 0EF1010E 		add	lr, lr, #1
 2979              	.LVL439:
 2980 02dc 611C     		adds	r1, r4, #1
 2981 02de B8E7     		b	.L344
 2982              	.LVL440:
 2983              	.L345:
 2984              		.loc 1 6333 0 discriminator 2
 2985 02e0 9EF80210 		ldrb	r1, [lr, #2]	@ zero_extendqisi2
 2986 02e4 A170     		strb	r1, [r4, #2]
 2987 02e6 0EF1030E 		add	lr, lr, #3
 2988              	.LVL441:
 2989 02ea E11C     		adds	r1, r4, #3
 2990              	.LVL442:
 2991 02ec B1E7     		b	.L344
 2992              	.LVL443:
 2993              	.L323:
 2994              		.loc 1 6184 0
 2995 02ee 0F2C     		cmp	r4, #15
 2996 02f0 23D8     		bhi	.L383
 2997              		.loc 1 6254 0
 2998 02f2 2878     		ldrb	r0, [r5]	@ zero_extendqisi2
 2999 02f4 6FEA9407 		mvn	r7, r4, lsr #2
 3000 02f8 A7EB8007 		sub	r7, r7, r0, lsl #2
 3001 02fc 0F44     		add	r7, r7, r1
 3002              		.loc 1 6256 0
 3003 02fe BA42     		cmp	r2, r7
 3004              		.loc 1 6254 0
 3005 0300 05F10100 		add	r0, r5, #1
 3006              	.LVL444:
 3007              		.loc 1 6256 0
 3008 0304 40D8     		bhi	.L318
 3009              		.loc 1 6256 0 is_stmt 0 discriminator 1
 3010 0306 B942     		cmp	r1, r7
 3011 0308 3ED9     		bls	.L318
 3012              		.loc 1 6256 0 discriminator 2
 3013 030a ACEB0104 		sub	r4, ip, r1
 3014 030e 012C     		cmp	r4, #1
 3015 0310 35D9     		bls	.L379
 3016              	.LVL445:
 3017              		.loc 1 6257 0 is_stmt 1
 3018 0312 0C46     		mov	r4, r1
 3019 0314 3D78     		ldrb	r5, [r7]	@ zero_extendqisi2
 3020 0316 04F8025B 		strb	r5, [r4], #2
 3021              	.LVL446:
ARM GAS  /tmp/ccrwCQMC.s 			page 54


 3022 031a 7D78     		ldrb	r5, [r7, #1]	@ zero_extendqisi2
 3023 031c 4D70     		strb	r5, [r1, #1]
 3024              		.loc 1 6259 0
 3025 031e B8E7     		b	.L320
 3026              	.LVL447:
 3027              	.L312:
 3028 0320 0331     		adds	r1, r1, #3
 3029 0322 4544     		add	r5, r5, r8
 3030              		.loc 1 6035 0
 3031 0324 0446     		mov	r4, r0
 3032              	.LVL448:
 3033              	.L316:
 3034              		.loc 1 6047 0 discriminator 1
 3035 0326 14F8018B 		ldrb	r8, [r4], #1	@ zero_extendqisi2
 3036              	.LVL449:
 3037 032a 01F8018F 		strb	r8, [r1, #1]!
 3038 032e A542     		cmp	r5, r4
 3039 0330 F9D1     		bne	.L316
 3040 0332 07EB0E01 		add	r1, r7, lr
 3041 0336 7044     		add	r0, r0, lr
 3042 0338 91E6     		b	.L302
 3043              	.LVL450:
 3044              	.L383:
 3045              		.loc 1 6193 0
 3046 033a 14F00708 		ands	r8, r4, #7
 3047              	.LVL451:
 3048 033e 14D0     		beq	.L330
 3049              	.L331:
 3050              		.loc 1 6222 0
 3051 0340 2846     		mov	r0, r5
 3052              		.loc 1 6190 0
 3053 0342 E702     		lsls	r7, r4, #11
 3054              		.loc 1 6222 0
 3055 0344 30F8024B 		ldrh	r4, [r0], #2
 3056              		.loc 1 6190 0
 3057 0348 07F48047 		and	r7, r7, #16384
 3058              		.loc 1 6222 0
 3059 034c 07EB9407 		add	r7, r7, r4, lsr #2
 3060 0350 CF1B     		subs	r7, r1, r7
 3061              	.LVL452:
 3062              		.loc 1 6227 0
 3063 0352 B942     		cmp	r1, r7
 3064 0354 1FD0     		beq	.L334
 3065              		.loc 1 6229 0
 3066 0356 A7F58047 		sub	r7, r7, #16384
 3067              	.LVL453:
 3068 035a CCE6     		b	.L328
 3069              	.LVL454:
 3070              	.L333:
 3071              		.loc 1 6197 0
 3072 035c 08F1FF08 		add	r8, r8, #255
 3073              	.LVL455:
 3074              		.loc 1 6199 0
 3075 0360 18F5807F 		cmn	r8, #256
 3076 0364 0BD0     		beq	.L379
 3077              		.loc 1 6200 0
 3078 0366 AE42     		cmp	r6, r5
ARM GAS  /tmp/ccrwCQMC.s 			page 55


 3079 0368 ABD0     		beq	.L378
 3080              	.LVL456:
 3081              	.L330:
 3082              		.loc 1 6195 0
 3083 036a 15F8010B 		ldrb	r0, [r5], #1	@ zero_extendqisi2
 3084              	.LVL457:
 3085 036e 0028     		cmp	r0, #0
 3086 0370 F4D0     		beq	.L333
 3087              	.LVL458:
 3088              		.loc 1 6203 0
 3089 0372 771B     		subs	r7, r6, r5
 3090              		.loc 1 6202 0
 3091 0374 0730     		adds	r0, r0, #7
 3092              	.LVL459:
 3093              		.loc 1 6203 0
 3094 0376 012F     		cmp	r7, #1
 3095              		.loc 1 6202 0
 3096 0378 8044     		add	r8, r8, r0
 3097              	.LVL460:
 3098              		.loc 1 6203 0
 3099 037a E1D8     		bhi	.L331
 3100              		.loc 1 6345 0
 3101 037c A1E7     		b	.L378
 3102              	.LVL461:
 3103              	.L379:
 3104 037e 891A     		subs	r1, r1, r2
 3105              	.L300:
 3106              		.loc 1 6352 0
 3107 0380 1960     		str	r1, [r3]
 3108              		.loc 1 6353 0
 3109 0382 6FF00400 		mvn	r0, #4
 3110 0386 A0E7     		b	.L296
 3111              	.LVL462:
 3112              	.L318:
 3113              		.loc 1 6358 0
 3114 0388 891A     		subs	r1, r1, r2
 3115 038a 1960     		str	r1, [r3]
 3116              		.loc 1 6359 0
 3117 038c 6FF00500 		mvn	r0, #5
 3118 0390 9BE7     		b	.L296
 3119              	.LVL463:
 3120              	.L351:
 3121              		.loc 1 6345 0
 3122 0392 2946     		mov	r1, r5
 3123 0394 96E7     		b	.L297
 3124              	.LVL464:
 3125              	.L334:
 3126              		.loc 1 6340 0
 3127 0396 891A     		subs	r1, r1, r2
 3128              	.LVL465:
 3129              		.loc 1 6341 0
 3130 0398 8642     		cmp	r6, r0
 3131              		.loc 1 6340 0
 3132 039a 1960     		str	r1, [r3]
 3133              		.loc 1 6341 0
 3134 039c 08D0     		beq	.L353
 3135              		.loc 1 6342 0
ARM GAS  /tmp/ccrwCQMC.s 			page 56


 3136 039e 04D9     		bls	.L354
 3137 03a0 6FF00700 		mvn	r0, #7
 3138 03a4 91E7     		b	.L296
 3139              	.LVL466:
 3140              	.L350:
 3141              		.loc 1 6351 0
 3142 03a6 2946     		mov	r1, r5
 3143              	.LVL467:
 3144 03a8 EAE7     		b	.L300
 3145              	.LVL468:
 3146              	.L354:
 3147              		.loc 1 6342 0
 3148 03aa 6FF00300 		mvn	r0, #3
 3149 03ae 8CE7     		b	.L296
 3150              	.L353:
 3151              		.loc 1 6341 0
 3152 03b0 0020     		movs	r0, #0
 3153 03b2 8AE7     		b	.L296
 3154              		.cfi_endproc
 3155              	.LFE33:
 3156              		.size	lzo1x_decompress_safe, .-lzo1x_decompress_safe
 3157              		.section	.rodata.lzo_copyright_,"a",%progbits
 3158              		.align	2
 3159              		.set	.LANCHOR0,. + 0
 3160              		.type	lzo_copyright_, %object
 3161              		.size	lzo_copyright_, 5
 3162              	lzo_copyright_:
 3163 0000 322E3130 		.ascii	"2.10\000"
 3163      00
 3164              		.section	.rodata.lzo_version_date_,"a",%progbits
 3165              		.align	2
 3166              		.set	.LANCHOR2,. + 0
 3167              		.type	lzo_version_date_, %object
 3168              		.size	lzo_version_date_, 12
 3169              	lzo_version_date_:
 3170 0000 4D617220 		.ascii	"Mar 01 2017\000"
 3170      30312032 
 3170      30313700 
 3171              		.section	.rodata.lzo_version_string_,"a",%progbits
 3172              		.align	2
 3173              		.set	.LANCHOR1,. + 0
 3174              		.type	lzo_version_string_, %object
 3175              		.size	lzo_version_string_, 5
 3176              	lzo_version_string_:
 3177 0000 322E3130 		.ascii	"2.10\000"
 3177      00
 3178              		.text
 3179              	.Letext0:
 3180              		.file 2 "lzo/lzodefs.h"
 3181              		.file 3 "lzo/lzoconf.h"
 3182              		.file 4 "/usr/arm-none-eabi/include/sys/lock.h"
 3183              		.file 5 "/usr/arm-none-eabi/include/sys/_types.h"
 3184              		.file 6 "/usr/lib/gcc/arm-none-eabi/7.3.1/include/stddef.h"
 3185              		.file 7 "/usr/arm-none-eabi/include/sys/reent.h"
 3186              		.file 8 "<built-in>"
 3187              		.file 9 "/usr/arm-none-eabi/include/string.h"