ARM GAS  /tmp/ccrwCQMC.s 			page 1


   1              		.cpu cortex-m4
   2              		.eabi_attribute 27, 1
   3              		.eabi_attribute 28, 1
   4              		.eabi_attribute 20, 1
   5              		.eabi_attribute 21, 1
   6              		.eabi_attribute 23, 3
   7              		.eabi_attribute 24, 1
   8              		.eabi_attribute 25, 1
   9              		.eabi_attribute 26, 1
  10              		.eabi_attribute 30, 2
  11              		.eabi_attribute 34, 1
  12              		.eabi_attribute 18, 4
  13              		.file	"minilzo.c"
  14              		.text
  15              	.Ltext0:
  16              		.cfi_sections	.debug_frame
  17              		.section	.text.u2p,"ax",%progbits
  18              		.align	1
  19              		.p2align 4,,15
  20              		.syntax unified
  21              		.thumb
  22              		.thumb_func
  23              		.fpu fpv4-sp-d16
  24              		.type	u2p, %function
  25              	u2p:
  26              	.LFB27:
  27              		.file 1 "lzo/minilzo.c"
  28              		.loc 1 4441 0
  29              		.cfi_startproc
  30              		@ args = 0, pretend = 0, frame = 0
  31              		@ frame_needed = 0, uses_anonymous_args = 0
  32              		@ link register save eliminated.
  33              	.LVL0:
  34              		.loc 1 4443 0
  35 0000 0844     		add	r0, r0, r1
  36              	.LVL1:
  37 0002 7047     		bx	lr
  38              		.cfi_endproc
  39              	.LFE27:
  40              		.size	u2p, .-u2p
  41              		.section	.text.lzo1x_1_compress_core,"ax",%progbits
  42              		.align	1
  43              		.p2align 4,,15
  44              		.syntax unified
  45              		.thumb
  46              		.thumb_func
  47              		.fpu fpv4-sp-d16
  48              		.type	lzo1x_1_compress_core, %function
  49              	lzo1x_1_compress_core:
  50              	.LFB30:
  51              		.loc 1 4928 0
  52              		.cfi_startproc
  53              		@ args = 8, pretend = 0, frame = 16
  54              		@ frame_needed = 0, uses_anonymous_args = 0
  55              	.LVL2:
  56 0000 2DE9F04F 		push	{r4, r5, r6, r7, r8, r9, r10, fp, lr}
  57              		.cfi_def_cfa_offset 36
ARM GAS  /tmp/ccrwCQMC.s 			page 2


  58              		.cfi_offset 4, -36
  59              		.cfi_offset 5, -32
  60              		.cfi_offset 6, -28
  61              		.cfi_offset 7, -24
  62              		.cfi_offset 8, -20
  63              		.cfi_offset 9, -16
  64              		.cfi_offset 10, -12
  65              		.cfi_offset 11, -8
  66              		.cfi_offset 14, -4
  67 0004 85B0     		sub	sp, sp, #20
  68              		.cfi_def_cfa_offset 56
  69              		.loc 1 4928 0
  70 0006 DDE90E59 		ldrd	r5, r9, [sp, #56]
  71              		.loc 1 4932 0
  72 000a A1F1140C 		sub	ip, r1, #20
  73              		.loc 1 4940 0
  74 000e 032D     		cmp	r5, #3
  75              		.loc 1 4928 0
  76 0010 0092     		str	r2, [sp]
  77 0012 0293     		str	r3, [sp, #8]
  78              		.loc 1 4932 0
  79 0014 8444     		add	ip, ip, r0
  80              		.loc 1 4931 0
  81 0016 00EB0103 		add	r3, r0, r1
  82              	.LVL3:
  83              	.LBB17:
  84              	.LBB18:
  85              		.loc 1 4992 0
  86 001a DFF87CB2 		ldr	fp, .L58
  87              	.LBE18:
  88              	.LBE17:
  89              		.loc 1 4936 0
  90 001e 009C     		ldr	r4, [sp]
  91              		.loc 1 4931 0
  92 0020 0193     		str	r3, [sp, #4]
  93              	.LVL4:
  94              		.loc 1 4940 0
  95 0022 9ABF     		itte	ls
  96 0024 C5F10401 		rsbls	r1, r5, #4
  97              	.LVL5:
  98 0028 0918     		addls	r1, r1, r0
  99 002a 0146     		movhi	r1, r0
 100              	.LVL6:
 101              	.LBB42:
 102              		.loc 1 5172 0
 103 002c E246     		mov	r10, ip
 104 002e 0646     		mov	r6, r0
 105              	.LVL7:
 106              	.L5:
 107              	.LBB19:
 108              		.loc 1 4987 0
 109 0030 8B1B     		subs	r3, r1, r6
 110 0032 01EB6311 		add	r1, r1, r3, asr #5
 111              	.LVL8:
 112 0036 0131     		adds	r1, r1, #1
 113              	.LVL9:
 114              		.loc 1 4989 0
ARM GAS  /tmp/ccrwCQMC.s 			page 3


 115 0038 8A45     		cmp	r10, r1
 116 003a 40F22181 		bls	.L6
 117              		.loc 1 4991 0
 118 003e D1F800E0 		ldr	lr, [r1]
 119              	.LVL10:
 120              		.loc 1 4992 0
 121 0042 0BFB0EF7 		mul	r7, fp, lr
 122 0046 BF0C     		lsrs	r7, r7, #18
 123              		.loc 1 4994 0
 124 0048 A1EB000C 		sub	ip, r1, r0
 125              		.loc 1 4993 0
 126 004c 39F81720 		ldrh	r2, [r9, r7, lsl #1]
 127              		.loc 1 4994 0
 128 0050 29F817C0 		strh	ip, [r9, r7, lsl #1]	@ movhi
 129              		.loc 1 4995 0
 130 0054 8758     		ldr	r7, [r0, r2]
 131 0056 7745     		cmp	r7, lr
 132              		.loc 1 4993 0
 133 0058 0244     		add	r2, r2, r0
 134              	.LVL11:
 135              		.loc 1 4994 0
 136 005a 0B46     		mov	r3, r1
 137              		.loc 1 4995 0
 138 005c 24D0     		beq	.L8
 139 005e E7E7     		b	.L5
 140              	.LVL12:
 141              	.L55:
 142              	.LBE19:
 143              		.loc 1 5153 0 discriminator 1
 144 0060 B3F5006F 		cmp	r3, #2048
 145 0064 43D8     		bhi	.L23
 146              		.loc 1 5155 0
 147 0066 013B     		subs	r3, r3, #1
 148              	.LVL13:
 149              		.loc 1 5157 0
 150 0068 9A00     		lsls	r2, r3, #2
 151              	.LVL14:
 152 006a 2646     		mov	r6, r4
 153 006c 013D     		subs	r5, r5, #1
 154              	.LVL15:
 155 006e 02F01C02 		and	r2, r2, #28
 156 0072 42EA4515 		orr	r5, r2, r5, lsl #5
 157              	.LVL16:
 158 0076 06F8025B 		strb	r5, [r6], #2
 159              	.LVL17:
 160              		.loc 1 5158 0
 161 007a DB08     		lsrs	r3, r3, #3
 162              	.LVL18:
 163              	.LBB20:
 164              		.loc 1 4989 0
 165 007c 8A45     		cmp	r10, r1
 166              	.LBE20:
 167              		.loc 1 5158 0
 168 007e 6370     		strb	r3, [r4, #1]
 169 0080 3446     		mov	r4, r6
 170              	.LBB21:
 171              		.loc 1 4989 0
ARM GAS  /tmp/ccrwCQMC.s 			page 4


 172 0082 4AD9     		bls	.L35
 173              	.LVL19:
 174              	.L56:
 175              		.loc 1 4991 0
 176 0084 0F68     		ldr	r7, [r1]
 177              	.LVL20:
 178              		.loc 1 4992 0
 179 0086 0BFB07F5 		mul	r5, fp, r7
 180 008a AD0C     		lsrs	r5, r5, #18
 181              		.loc 1 4994 0
 182 008c 0E1A     		subs	r6, r1, r0
 183              		.loc 1 4993 0
 184 008e 39F81520 		ldrh	r2, [r9, r5, lsl #1]
 185              		.loc 1 4994 0
 186 0092 29F81560 		strh	r6, [r9, r5, lsl #1]	@ movhi
 187              		.loc 1 4995 0
 188 0096 50F802C0 		ldr	ip, [r0, r2]
 189 009a BC45     		cmp	ip, r7
 190              		.loc 1 4993 0
 191 009c 0244     		add	r2, r2, r0
 192              	.LVL21:
 193              		.loc 1 4994 0
 194 009e 0B46     		mov	r3, r1
 195 00a0 4FF00005 		mov	r5, #0
 196 00a4 0E46     		mov	r6, r1
 197              		.loc 1 4995 0
 198 00a6 C3D1     		bne	.L5
 199              	.LVL22:
 200              	.L8:
 201              	.LBE21:
 202              		.loc 1 5000 0
 203 00a8 751B     		subs	r5, r6, r5
 204              	.LVL23:
 205              	.LBB22:
 206              		.loc 1 5003 0
 207 00aa B1EB050C 		subs	ip, r1, r5
 208              	.LVL24:
 209 00ae 0BD0     		beq	.L10
 210              		.loc 1 5005 0
 211 00b0 BCF1030F 		cmp	ip, #3
 212 00b4 49D8     		bhi	.L11
 213              		.loc 1 5007 0
 214 00b6 14F8026C 		ldrb	r6, [r4, #-2]	@ zero_extendqisi2
 215 00ba 46EA0C06 		orr	r6, r6, ip
 216 00be 04F8026C 		strb	r6, [r4, #-2]
 217              		.loc 1 5009 0
 218 00c2 2D68     		ldr	r5, [r5]
 219              	.LVL25:
 220 00c4 2560     		str	r5, [r4]
 221              	.LVL26:
 222              		.loc 1 5010 0
 223 00c6 6444     		add	r4, r4, ip
 224              	.LVL27:
 225              	.L10:
 226              	.LBE22:
 227              	.LBB27:
 228              		.loc 1 5086 0
ARM GAS  /tmp/ccrwCQMC.s 			page 5


 229 00c8 4F68     		ldr	r7, [r1, #4]
 230 00ca 5568     		ldr	r5, [r2, #4]
 231              		.loc 1 5087 0
 232 00cc AF42     		cmp	r7, r5
 233              		.loc 1 5086 0
 234 00ce 87EA0506 		eor	r6, r7, r5
 235              	.LVL28:
 236              	.LBE27:
 237              		.loc 1 5052 0
 238 00d2 18BF     		it	ne
 239 00d4 0425     		movne	r5, #4
 240              	.LBB28:
 241              		.loc 1 5087 0
 242 00d6 63D0     		beq	.L54
 243              	.LVL29:
 244              	.L19:
 245              		.loc 1 5107 0
 246 00d8 96FAA6F6 		rbit	r6, r6
 247              	.LVL30:
 248 00dc B6FA86F6 		clz	r6, r6
 249 00e0 05EBD605 		add	r5, r5, r6, lsr #3
 250              	.LVL31:
 251 00e4 2944     		add	r1, r1, r5
 252              	.LVL32:
 253              	.L21:
 254              	.LBE28:
 255              		.loc 1 5153 0
 256 00e6 082D     		cmp	r5, #8
 257              		.loc 1 5150 0
 258 00e8 A3EB0203 		sub	r3, r3, r2
 259              	.LVL33:
 260              		.loc 1 5153 0
 261 00ec B8D9     		bls	.L55
 262              	.L23:
 263              		.loc 1 5164 0
 264 00ee B3F5804F 		cmp	r3, #16384
 265 00f2 04F10106 		add	r6, r4, #1
 266 00f6 1BD8     		bhi	.L25
 267              		.loc 1 5167 0
 268 00f8 212D     		cmp	r5, #33
 269              		.loc 1 5166 0
 270 00fa 03F1FF33 		add	r3, r3, #-1
 271              	.LVL34:
 272              		.loc 1 5167 0
 273 00fe 3AD8     		bhi	.L26
 274              	.LVL35:
 275              		.loc 1 5168 0
 276 0100 023D     		subs	r5, r5, #2
 277              	.LVL36:
 278 0102 45F02005 		orr	r5, r5, #32
 279              	.LVL37:
 280 0106 2570     		strb	r5, [r4]
 281              	.LVL38:
 282              	.L31:
 283              		.loc 1 5201 0
 284 0108 3446     		mov	r4, r6
 285 010a 9A00     		lsls	r2, r3, #2
ARM GAS  /tmp/ccrwCQMC.s 			page 6


 286              	.LBB29:
 287              		.loc 1 4989 0
 288 010c 8A45     		cmp	r10, r1
 289              	.LBE29:
 290              		.loc 1 5202 0
 291 010e 4FEA9313 		lsr	r3, r3, #6
 292              	.LVL39:
 293              		.loc 1 5201 0
 294 0112 04F8022B 		strb	r2, [r4], #2
 295              	.LVL40:
 296              		.loc 1 5202 0
 297 0116 7370     		strb	r3, [r6, #1]
 298              	.LBB30:
 299              		.loc 1 4989 0
 300 0118 B4D8     		bhi	.L56
 301              	.L35:
 302              	.LBE30:
 303              	.LBE42:
 304 011a 0020     		movs	r0, #0
 305              	.LVL41:
 306              	.L9:
 307              		.loc 1 5207 0
 308 011c 009B     		ldr	r3, [sp]
 309 011e E41A     		subs	r4, r4, r3
 310              	.LVL42:
 311 0120 029B     		ldr	r3, [sp, #8]
 312 0122 1C60     		str	r4, [r3]
 313              		.loc 1 5209 0
 314 0124 019B     		ldr	r3, [sp, #4]
 315              		.loc 1 5208 0
 316 0126 0844     		add	r0, r0, r1
 317              		.loc 1 5209 0
 318 0128 181A     		subs	r0, r3, r0
 319 012a 05B0     		add	sp, sp, #20
 320              		.cfi_remember_state
 321              		.cfi_def_cfa_offset 36
 322              		@ sp needed
 323 012c BDE8F08F 		pop	{r4, r5, r6, r7, r8, r9, r10, fp, pc}
 324              	.LVL43:
 325              	.L25:
 326              		.cfi_restore_state
 327              	.LBB43:
 328              		.loc 1 5186 0
 329 0130 A3F58043 		sub	r3, r3, #16384
 330              	.LVL44:
 331 0134 DA0A     		lsrs	r2, r3, #11
 332              	.LVL45:
 333 0136 02F00802 		and	r2, r2, #8
 334              		.loc 1 5187 0
 335 013a 092D     		cmp	r5, #9
 336 013c 42F01002 		orr	r2, r2, #16
 337 0140 22D8     		bhi	.L30
 338              	.LVL46:
 339              		.loc 1 5188 0
 340 0142 023D     		subs	r5, r5, #2
 341              	.LVL47:
 342 0144 2A43     		orrs	r2, r2, r5
ARM GAS  /tmp/ccrwCQMC.s 			page 7


 343 0146 2270     		strb	r2, [r4]
 344 0148 DEE7     		b	.L31
 345              	.LVL48:
 346              	.L11:
 347              	.LBB31:
 348              		.loc 1 5016 0
 349 014a BCF1100F 		cmp	ip, #16
 350 014e 45D8     		bhi	.L12
 351              	.LVL49:
 352              		.loc 1 5018 0
 353 0150 ACF10306 		sub	r6, ip, #3
 354 0154 2670     		strb	r6, [r4]
 355              		.loc 1 5019 0
 356 0156 2E68     		ldr	r6, [r5]
 357 0158 C4F80160 		str	r6, [r4, #1]
 358 015c 6E68     		ldr	r6, [r5, #4]
 359 015e C4F80560 		str	r6, [r4, #5]
 360              		.loc 1 5020 0
 361 0162 AE68     		ldr	r6, [r5, #8]
 362 0164 C4F80960 		str	r6, [r4, #9]
 363              		.loc 1 5021 0
 364 0168 0CF1010C 		add	ip, ip, #1
 365              	.LVL50:
 366              		.loc 1 5020 0
 367 016c ED68     		ldr	r5, [r5, #12]
 368              	.LVL51:
 369 016e C4F80D50 		str	r5, [r4, #13]
 370              		.loc 1 5021 0
 371 0172 6444     		add	r4, r4, ip
 372              	.LVL52:
 373 0174 A8E7     		b	.L10
 374              	.LVL53:
 375              	.L26:
 376              	.LBE31:
 377              		.loc 1 5171 0
 378 0176 213D     		subs	r5, r5, #33
 379              	.LVL54:
 380              		.loc 1 5172 0
 381 0178 4FF02002 		mov	r2, #32
 382              	.LVL55:
 383              		.loc 1 5173 0
 384 017c FF2D     		cmp	r5, #255
 385              		.loc 1 5172 0
 386 017e 2270     		strb	r2, [r4]
 387              		.loc 1 5173 0
 388 0180 76D8     		bhi	.L29
 389              	.LVL56:
 390              	.L32:
 391              		.loc 1 5199 0
 392 0182 3570     		strb	r5, [r6]
 393 0184 0136     		adds	r6, r6, #1
 394              	.LVL57:
 395 0186 BFE7     		b	.L31
 396              	.LVL58:
 397              	.L30:
 398              		.loc 1 5191 0
 399 0188 093D     		subs	r5, r5, #9
ARM GAS  /tmp/ccrwCQMC.s 			page 8


 400              	.LVL59:
 401              		.loc 1 5193 0
 402 018a FF2D     		cmp	r5, #255
 403              		.loc 1 5192 0
 404 018c 2270     		strb	r2, [r4]
 405              		.loc 1 5193 0
 406 018e F8D9     		bls	.L32
 407              	.LVL60:
 408              	.L33:
 409              		.loc 1 5195 0
 410 0190 FF3D     		subs	r5, r5, #255
 411              	.LVL61:
 412              	.LBB32:
 413              		.loc 1 5196 0
 414 0192 4FF00002 		mov	r2, #0
 415              	.LBE32:
 416              		.loc 1 5193 0
 417 0196 FF2D     		cmp	r5, #255
 418              	.LBB33:
 419              		.loc 1 5196 0
 420 0198 06F8012B 		strb	r2, [r6], #1
 421              	.LVL62:
 422              	.LBE33:
 423              		.loc 1 5193 0
 424 019c F1D9     		bls	.L32
 425 019e F7E7     		b	.L33
 426              	.LVL63:
 427              	.L54:
 428 01a0 02F10807 		add	r7, r2, #8
 429 01a4 01F10C0C 		add	ip, r1, #12
 430 01a8 C2F1040E 		rsb	lr, r2, #4
 431 01ac 03E0     		b	.L22
 432              	.LVL64:
 433              	.L57:
 434              	.LBB34:
 435              		.loc 1 5097 0
 436 01ae AE42     		cmp	r6, r5
 437 01b0 0CF1080C 		add	ip, ip, #8
 438 01b4 56D1     		bne	.L53
 439              	.LVL65:
 440              	.L22:
 441              		.loc 1 5090 0
 442 01b6 5CF8046C 		ldr	r6, [ip, #-4]
 443 01ba 3D68     		ldr	r5, [r7]
 444              		.loc 1 5091 0
 445 01bc AE42     		cmp	r6, r5
 446 01be A7EB0208 		sub	r8, r7, r2
 447              	.LVL66:
 448 01c2 4FD1     		bne	.L53
 449              		.loc 1 5095 0
 450 01c4 D445     		cmp	ip, r10
 451              		.loc 1 5094 0
 452 01c6 DCF80060 		ldr	r6, [ip]
 453              	.LVL67:
 454 01ca 7D68     		ldr	r5, [r7, #4]
 455 01cc 0EEB0708 		add	r8, lr, r7
 456              	.LVL68:
ARM GAS  /tmp/ccrwCQMC.s 			page 9


 457 01d0 07F10807 		add	r7, r7, #8
 458              		.loc 1 5095 0
 459 01d4 EBD3     		bcc	.L57
 460 01d6 4546     		mov	r5, r8
 461              	.LVL69:
 462              	.LBE34:
 463              		.loc 1 5149 0
 464 01d8 6146     		mov	r1, ip
 465              	.LVL70:
 466 01da 84E7     		b	.L21
 467              	.LVL71:
 468              	.L12:
 469              	.LBB35:
 470              		.loc 1 5026 0
 471 01dc BCF1120F 		cmp	ip, #18
 472 01e0 04F10106 		add	r6, r4, #1
 473 01e4 33D8     		bhi	.L13
 474              	.LVL72:
 475              		.loc 1 5027 0
 476 01e6 ACF10307 		sub	r7, ip, #3
 477 01ea 2770     		strb	r7, [r4]
 478              	.LVL73:
 479              	.L14:
 480 01ec ACF1100E 		sub	lr, ip, #16
 481 01f0 4FEA1E1E 		lsr	lr, lr, #4
 482 01f4 0EF10104 		add	r4, lr, #1
 483 01f8 2401     		lsls	r4, r4, #4
 484 01fa 0394     		str	r4, [sp, #12]
 485 01fc 06EB0408 		add	r8, r6, r4
 486              	.LBE35:
 487              		.loc 1 5000 0 discriminator 1
 488 0200 2F46     		mov	r7, r5
 489 0202 00E0     		b	.L17
 490              	.LVL74:
 491              	.L36:
 492              	.LBB36:
 493 0204 2646     		mov	r6, r4
 494              	.LVL75:
 495              	.L17:
 496              		.loc 1 5043 0 discriminator 1
 497 0206 3C68     		ldr	r4, [r7]
 498 0208 3460     		str	r4, [r6]
 499 020a 7C68     		ldr	r4, [r7, #4]
 500 020c 7460     		str	r4, [r6, #4]
 501              		.loc 1 5044 0 discriminator 1
 502 020e BC68     		ldr	r4, [r7, #8]
 503 0210 B460     		str	r4, [r6, #8]
 504 0212 FC68     		ldr	r4, [r7, #12]
 505 0214 F460     		str	r4, [r6, #12]
 506              		.loc 1 5045 0 discriminator 1
 507 0216 06F11004 		add	r4, r6, #16
 508              	.LVL76:
 509              		.loc 1 5046 0 discriminator 1
 510 021a 4445     		cmp	r4, r8
 511              		.loc 1 5045 0 discriminator 1
 512 021c 07F11007 		add	r7, r7, #16
 513              	.LVL77:
ARM GAS  /tmp/ccrwCQMC.s 			page 10


 514              		.loc 1 5046 0 discriminator 1
 515 0220 F0D1     		bne	.L36
 516 0222 CEEB0E7E 		rsb	lr, lr, lr, lsl #28
 517 0226 0CEB0E1C 		add	ip, ip, lr, lsl #4
 518 022a 039F     		ldr	r7, [sp, #12]
 519              	.LVL78:
 520 022c BCF1100E 		subs	lr, ip, #16
 521 0230 3D44     		add	r5, r5, r7
 522 0232 3FF449AF 		beq	.L10
 523 0236 AE44     		add	lr, lr, r5
 524 0238 06F10F04 		add	r4, r6, #15
 525              	.LVL79:
 526              	.L18:
 527              		.loc 1 5048 0 discriminator 1
 528 023c 15F8017B 		ldrb	r7, [r5], #1	@ zero_extendqisi2
 529              	.LVL80:
 530 0240 04F8017F 		strb	r7, [r4, #1]!
 531 0244 7545     		cmp	r5, lr
 532 0246 F9D1     		bne	.L18
 533              	.LVL81:
 534 0248 06EB0C04 		add	r4, r6, ip
 535              	.LVL82:
 536 024c 3CE7     		b	.L10
 537              	.LVL83:
 538              	.L13:
 539              	.LBB23:
 540              		.loc 1 5030 0
 541 024e ACF11207 		sub	r7, ip, #18
 542              	.LVL84:
 543              		.loc 1 5031 0
 544 0252 4FF0000E 		mov	lr, #0
 545              		.loc 1 5032 0
 546 0256 FF2F     		cmp	r7, #255
 547              		.loc 1 5031 0
 548 0258 84F800E0 		strb	lr, [r4]
 549              		.loc 1 5032 0
 550 025c 13D8     		bhi	.L16
 551              	.LVL85:
 552              	.L15:
 553              		.loc 1 5039 0
 554 025e 3770     		strb	r7, [r6]
 555 0260 0136     		adds	r6, r6, #1
 556              	.LVL86:
 557 0262 C3E7     		b	.L14
 558              	.LVL87:
 559              	.L53:
 560 0264 4746     		mov	r7, r8
 561 0266 A846     		mov	r8, r5
 562              	.LVL88:
 563              	.LBE23:
 564              	.LBE36:
 565              	.LBB37:
 566              		.loc 1 5094 0
 567 0268 86EA0806 		eor	r6, r6, r8
 568 026c 3D46     		mov	r5, r7
 569 026e 33E7     		b	.L19
 570              	.LVL89:
ARM GAS  /tmp/ccrwCQMC.s 			page 11


 571              	.L29:
 572              	.LBE37:
 573              		.loc 1 5175 0
 574 0270 FF3D     		subs	r5, r5, #255
 575              	.LVL90:
 576              	.LBB38:
 577              		.loc 1 5176 0
 578 0272 4FF00002 		mov	r2, #0
 579              	.LBE38:
 580              		.loc 1 5173 0
 581 0276 FF2D     		cmp	r5, #255
 582              	.LBB39:
 583              		.loc 1 5176 0
 584 0278 06F8012B 		strb	r2, [r6], #1
 585              	.LVL91:
 586              	.LBE39:
 587              		.loc 1 5173 0
 588 027c 81D9     		bls	.L32
 589 027e F7E7     		b	.L29
 590              	.LVL92:
 591              	.L6:
 592 0280 6842     		negs	r0, r5
 593              	.LVL93:
 594              	.LBB40:
 595              		.loc 1 4989 0
 596 0282 3146     		mov	r1, r6
 597              	.LVL94:
 598 0284 4AE7     		b	.L9
 599              	.LVL95:
 600              	.L16:
 601              	.LBE40:
 602              	.LBB41:
 603              	.LBB26:
 604              		.loc 1 5034 0
 605 0286 FF3F     		subs	r7, r7, #255
 606              	.LVL96:
 607              	.LBB24:
 608              		.loc 1 5035 0
 609 0288 4FF00004 		mov	r4, #0
 610              	.LBE24:
 611              		.loc 1 5032 0
 612 028c FF2F     		cmp	r7, #255
 613              	.LBB25:
 614              		.loc 1 5035 0
 615 028e 06F8014B 		strb	r4, [r6], #1
 616              	.LVL97:
 617              	.LBE25:
 618              		.loc 1 5032 0
 619 0292 E4D9     		bls	.L15
 620 0294 F7E7     		b	.L16
 621              	.L59:
 622 0296 00BF     		.align	2
 623              	.L58:
 624 0298 9D422418 		.word	405029533
 625              	.LBE26:
 626              	.LBE41:
 627              	.LBE43:
ARM GAS  /tmp/ccrwCQMC.s 			page 12


 628              		.cfi_endproc
 629              	.LFE30:
 630              		.size	lzo1x_1_compress_core, .-lzo1x_1_compress_core
 631              		.section	.text.__lzo_ptr_linear,"ax",%progbits
 632              		.align	1
 633              		.p2align 4,,15
 634              		.global	__lzo_ptr_linear
 635              		.syntax unified
 636              		.thumb
 637              		.thumb_func
 638              		.fpu fpv4-sp-d16
 639              		.type	__lzo_ptr_linear, %function
 640              	__lzo_ptr_linear:
 641              	.LFB14:
 642              		.loc 1 4176 0
 643              		.cfi_startproc
 644              		@ args = 0, pretend = 0, frame = 0
 645              		@ frame_needed = 0, uses_anonymous_args = 0
 646              		@ link register save eliminated.
 647              	.LVL98:
 648              		.loc 1 4188 0
 649 0000 7047     		bx	lr
 650              		.cfi_endproc
 651              	.LFE14:
 652              		.size	__lzo_ptr_linear, .-__lzo_ptr_linear
 653 0002 00BF     		.section	.text.__lzo_align_gap,"ax",%progbits
 654              		.align	1
 655              		.p2align 4,,15
 656              		.global	__lzo_align_gap
 657              		.syntax unified
 658              		.thumb
 659              		.thumb_func
 660              		.fpu fpv4-sp-d16
 661              		.type	__lzo_align_gap, %function
 662              	__lzo_align_gap:
 663              	.LFB15:
 664              		.loc 1 4192 0
 665              		.cfi_startproc
 666              		@ args = 0, pretend = 0, frame = 0
 667              		@ frame_needed = 0, uses_anonymous_args = 0
 668              		@ link register save eliminated.
 669              	.LVL99:
 670              		.loc 1 4197 0
 671 0000 0129     		cmp	r1, #1
 672 0002 08D9     		bls	.L64
 673              		.loc 1 4202 0
 674 0004 4B1E     		subs	r3, r1, #1
 675 0006 0B42     		tst	r3, r1
 676 0008 05D1     		bne	.L64
 677              	.LVL100:
 678              		.loc 1 4204 0
 679 000a 431E     		subs	r3, r0, #1
 680 000c 0B44     		add	r3, r3, r1
 681 000e 4942     		negs	r1, r1
 682              	.LVL101:
 683 0010 1940     		ands	r1, r1, r3
 684              	.LVL102:
ARM GAS  /tmp/ccrwCQMC.s 			page 13


 685 0012 081A     		subs	r0, r1, r0
 686              	.LVL103:
 687              		.loc 1 4209 0
 688 0014 7047     		bx	lr
 689              	.LVL104:
 690              	.L64:
 691              		.loc 1 4197 0
 692 0016 0020     		movs	r0, #0
 693              	.LVL105:
 694              		.loc 1 4210 0
 695 0018 7047     		bx	lr
 696              		.cfi_endproc
 697              	.LFE15:
 698              		.size	__lzo_align_gap, .-__lzo_align_gap
 699 001a 00BF     		.section	.text.lzo_copyright,"ax",%progbits
 700              		.align	1
 701              		.p2align 4,,15
 702              		.global	lzo_copyright
 703              		.syntax unified
 704              		.thumb
 705              		.thumb_func
 706              		.fpu fpv4-sp-d16
 707              		.type	lzo_copyright, %function
 708              	lzo_copyright:
 709              	.LFB16:
 710              		.loc 1 4236 0
 711              		.cfi_startproc
 712              		@ args = 0, pretend = 0, frame = 0
 713              		@ frame_needed = 0, uses_anonymous_args = 0
 714              		@ link register save eliminated.
 715              		.loc 1 4238 0
 716 0000 0048     		ldr	r0, .L66
 717 0002 7047     		bx	lr
 718              	.L67:
 719              		.align	2
 720              	.L66:
 721 0004 00000000 		.word	.LANCHOR0
 722              		.cfi_endproc
 723              	.LFE16:
 724              		.size	lzo_copyright, .-lzo_copyright
 725              		.section	.text.lzo_version,"ax",%progbits
 726              		.align	1
 727              		.p2align 4,,15
 728              		.global	lzo_version
 729              		.syntax unified
 730              		.thumb
 731              		.thumb_func
 732              		.fpu fpv4-sp-d16
 733              		.type	lzo_version, %function
 734              	lzo_version:
 735              	.LFB17:
 736              		.loc 1 4242 0
 737              		.cfi_startproc
 738              		@ args = 0, pretend = 0, frame = 0
 739              		@ frame_needed = 0, uses_anonymous_args = 0
 740              		@ link register save eliminated.
 741              		.loc 1 4244 0
ARM GAS  /tmp/ccrwCQMC.s 			page 14


 742 0000 42F2A000 		movw	r0, #8352
 743 0004 7047     		bx	lr
 744              		.cfi_endproc
 745              	.LFE17:
 746              		.size	lzo_version, .-lzo_version
 747 0006 00BF     		.section	.text.lzo_version_string,"ax",%progbits
 748              		.align	1
 749              		.p2align 4,,15
 750              		.global	lzo_version_string
 751              		.syntax unified
 752              		.thumb
 753              		.thumb_func
 754              		.fpu fpv4-sp-d16
 755              		.type	lzo_version_string, %function
 756              	lzo_version_string:
 757              	.LFB18:
 758              		.loc 1 4248 0
 759              		.cfi_startproc
 760              		@ args = 0, pretend = 0, frame = 0
 761              		@ frame_needed = 0, uses_anonymous_args = 0
 762              		@ link register save eliminated.
 763              		.loc 1 4250 0
 764 0000 0048     		ldr	r0, .L70
 765 0002 7047     		bx	lr
 766              	.L71:
 767              		.align	2
 768              	.L70:
 769 0004 00000000 		.word	.LANCHOR1
 770              		.cfi_endproc
 771              	.LFE18:
 772              		.size	lzo_version_string, .-lzo_version_string
 773              		.section	.text.lzo_version_date,"ax",%progbits
 774              		.align	1
 775              		.p2align 4,,15
 776              		.global	lzo_version_date
 777              		.syntax unified
 778              		.thumb
 779              		.thumb_func
 780              		.fpu fpv4-sp-d16
 781              		.type	lzo_version_date, %function
 782              	lzo_version_date:
 783              	.LFB19:
 784              		.loc 1 4254 0
 785              		.cfi_startproc
 786              		@ args = 0, pretend = 0, frame = 0
 787              		@ frame_needed = 0, uses_anonymous_args = 0
 788              		@ link register save eliminated.
 789              		.loc 1 4256 0
 790 0000 0048     		ldr	r0, .L73
 791 0002 7047     		bx	lr
 792              	.L74:
 793              		.align	2
 794              	.L73:
 795 0004 00000000 		.word	.LANCHOR2
 796              		.cfi_endproc
 797              	.LFE19:
 798              		.size	lzo_version_date, .-lzo_version_date
ARM GAS  /tmp/ccrwCQMC.s 			page 15


 799              		.section	.text._lzo_version_string,"ax",%progbits
 800              		.align	1
 801              		.p2align 4,,15
 802              		.global	_lzo_version_string
 803              		.syntax unified
 804              		.thumb
 805              		.thumb_func
 806              		.fpu fpv4-sp-d16
 807              		.type	_lzo_version_string, %function
 808              	_lzo_version_string:
 809              	.LFB35:
 810              		.cfi_startproc
 811              		@ args = 0, pretend = 0, frame = 0
 812              		@ frame_needed = 0, uses_anonymous_args = 0
 813              		@ link register save eliminated.
 814 0000 0048     		ldr	r0, .L76
 815 0002 7047     		bx	lr
 816              	.L77:
 817              		.align	2
 818              	.L76:
 819 0004 00000000 		.word	.LANCHOR1
 820              		.cfi_endproc
 821              	.LFE35:
 822              		.size	_lzo_version_string, .-_lzo_version_string
 823              		.section	.text._lzo_version_date,"ax",%progbits
 824              		.align	1
 825              		.p2align 4,,15
 826              		.global	_lzo_version_date
 827              		.syntax unified
 828              		.thumb
 829              		.thumb_func
 830              		.fpu fpv4-sp-d16
 831              		.type	_lzo_version_date, %function
 832              	_lzo_version_date:
 833              	.LFB37:
 834              		.cfi_startproc
 835              		@ args = 0, pretend = 0, frame = 0
 836              		@ frame_needed = 0, uses_anonymous_args = 0
 837              		@ link register save eliminated.
 838 0000 0048     		ldr	r0, .L79
 839 0002 7047     		bx	lr
 840              	.L80:
 841              		.align	2
 842              	.L79:
 843 0004 00000000 		.word	.LANCHOR2
 844              		.cfi_endproc
 845              	.LFE37:
 846              		.size	_lzo_version_date, .-_lzo_version_date
 847              		.section	.text.lzo_adler32,"ax",%progbits
 848              		.align	1
 849              		.p2align 4,,15
 850              		.global	lzo_adler32
 851              		.syntax unified
 852              		.thumb
 853              		.thumb_func
 854              		.fpu fpv4-sp-d16
 855              		.type	lzo_adler32, %function
ARM GAS  /tmp/ccrwCQMC.s 			page 16


 856              	lzo_adler32:
 857              	.LFB22:
 858              		.loc 1 4281 0
 859              		.cfi_startproc
 860              		@ args = 0, pretend = 0, frame = 0
 861              		@ frame_needed = 0, uses_anonymous_args = 0
 862              	.LVL106:
 863              		.loc 1 4286 0
 864 0000 0029     		cmp	r1, #0
 865 0002 00F08C80 		beq	.L91
 866              		.loc 1 4281 0
 867 0006 2DE9F04F 		push	{r4, r5, r6, r7, r8, r9, r10, fp, lr}
 868              		.cfi_def_cfa_offset 36
 869              		.cfi_offset 4, -36
 870              		.cfi_offset 5, -32
 871              		.cfi_offset 6, -28
 872              		.cfi_offset 7, -24
 873              		.cfi_offset 8, -20
 874              		.cfi_offset 9, -16
 875              		.cfi_offset 10, -12
 876              		.cfi_offset 11, -8
 877              		.cfi_offset 14, -4
 878              		.loc 1 4282 0
 879 000a 83B2     		uxth	r3, r0
 880              		.loc 1 4283 0
 881 000c 050C     		lsrs	r5, r0, #16
 882              	.LVL107:
 883              		.loc 1 4289 0
 884 000e 12B3     		cbz	r2, .L83
 885              		.loc 1 4304 0
 886 0010 DFF810E1 		ldr	lr, .L108
 887              		.loc 1 4291 0
 888 0014 41F2AF58 		movw	r8, #5551
 889              	.LVL108:
 890              	.L90:
 891 0018 4245     		cmp	r2, r8
 892 001a 20D8     		bhi	.L106
 893              	.LVL109:
 894              		.loc 1 4293 0 discriminator 4
 895 001c 0F2A     		cmp	r2, #15
 896 001e 7BD8     		bhi	.L107
 897              		.loc 1 4292 0
 898 0020 0024     		movs	r4, #0
 899              	.LVL110:
 900              	.L86:
 901 0022 0A44     		add	r2, r2, r1
 902              	.LVL111:
 903              	.L89:
 904              		.loc 1 4301 0 discriminator 1
 905 0024 11F8010B 		ldrb	r0, [r1], #1	@ zero_extendqisi2
 906              	.LVL112:
 907 0028 0344     		add	r3, r3, r0
 908              	.LVL113:
 909              		.loc 1 4303 0 discriminator 1
 910 002a 9142     		cmp	r1, r2
 911              		.loc 1 4302 0 discriminator 1
 912 002c 1D44     		add	r5, r5, r3
ARM GAS  /tmp/ccrwCQMC.s 			page 17


 913              	.LVL114:
 914              		.loc 1 4303 0 discriminator 1
 915 002e F9D1     		bne	.L89
 916              	.LVL115:
 917 0030 2246     		mov	r2, r4
 918              	.LVL116:
 919              	.L88:
 920              		.loc 1 4304 0
 921 0032 AEFB0304 		umull	r0, r4, lr, r3
 922              		.loc 1 4305 0
 923 0036 AEFB0560 		umull	r6, r0, lr, r5
 924              		.loc 1 4304 0
 925 003a E40B     		lsrs	r4, r4, #15
 926              		.loc 1 4305 0
 927 003c C00B     		lsrs	r0, r0, #15
 928              		.loc 1 4304 0
 929 003e C4EB0437 		rsb	r7, r4, r4, lsl #12
 930              		.loc 1 4305 0
 931 0042 C0EB0036 		rsb	r6, r0, r0, lsl #12
 932              		.loc 1 4304 0
 933 0046 04EB0714 		add	r4, r4, r7, lsl #4
 934              		.loc 1 4305 0
 935 004a 00EB0610 		add	r0, r0, r6, lsl #4
 936              		.loc 1 4304 0
 937 004e 1B1B     		subs	r3, r3, r4
 938              	.LVL117:
 939              		.loc 1 4305 0
 940 0050 2D1A     		subs	r5, r5, r0
 941              	.LVL118:
 942              		.loc 1 4289 0
 943 0052 002A     		cmp	r2, #0
 944 0054 E0D1     		bne	.L90
 945              	.LVL119:
 946              	.L83:
 947              		.loc 1 4307 0
 948 0056 43EA0540 		orr	r0, r3, r5, lsl #16
 949              		.loc 1 4308 0
 950 005a BDE8F08F 		pop	{r4, r5, r6, r7, r8, r9, r10, fp, pc}
 951              	.LVL120:
 952              	.L106:
 953              		.loc 1 4292 0
 954 005e A2F5AD52 		sub	r2, r2, #5536
 955 0062 103A     		subs	r2, r2, #16
 956              		.loc 1 4291 0
 957 0064 41F2B05C 		movw	ip, #5552
 958              	.LVL121:
 959              	.L85:
 960 0068 ACF11007 		sub	r7, ip, #16
 961 006c 3F09     		lsrs	r7, r7, #4
 962 006e 01F12006 		add	r6, r1, #32
 963 0072 06EB0716 		add	r6, r6, r7, lsl #4
 964 0076 01F11004 		add	r4, r1, #16
 965              	.LVL122:
 966              	.L87:
 967              		.loc 1 4295 0 discriminator 1
 968 007a 14F810AC 		ldrb	r10, [r4, #-16]	@ zero_extendqisi2
 969 007e 14F80FBC 		ldrb	fp, [r4, #-15]	@ zero_extendqisi2
ARM GAS  /tmp/ccrwCQMC.s 			page 18


 970 0082 14F80E0C 		ldrb	r0, [r4, #-14]	@ zero_extendqisi2
 971 0086 14F80D9C 		ldrb	r9, [r4, #-13]	@ zero_extendqisi2
 972 008a 5344     		add	r3, r3, r10
 973              	.LVL123:
 974 008c 0BEB030A 		add	r10, fp, r3
 975              	.LVL124:
 976 0090 00EB0A0B 		add	fp, r0, r10
 977              	.LVL125:
 978 0094 5344     		add	r3, r3, r10
 979              	.LVL126:
 980 0096 14F80CAC 		ldrb	r10, [r4, #-12]	@ zero_extendqisi2
 981 009a 14F80B0C 		ldrb	r0, [r4, #-11]	@ zero_extendqisi2
 982 009e D944     		add	r9, r9, fp
 983              	.LVL127:
 984 00a0 5B44     		add	r3, r3, fp
 985 00a2 CA44     		add	r10, r10, r9
 986              	.LVL128:
 987 00a4 4B44     		add	r3, r3, r9
 988 00a6 14F80A9C 		ldrb	r9, [r4, #-10]	@ zero_extendqisi2
 989 00aa 14F809BC 		ldrb	fp, [r4, #-9]	@ zero_extendqisi2
 990 00ae 5044     		add	r0, r0, r10
 991              	.LVL129:
 992 00b0 5344     		add	r3, r3, r10
 993 00b2 0344     		add	r3, r3, r0
 994 00b4 4844     		add	r0, r0, r9
 995              	.LVL130:
 996 00b6 14F8089C 		ldrb	r9, [r4, #-8]	@ zero_extendqisi2
 997 00ba 14F807AC 		ldrb	r10, [r4, #-7]	@ zero_extendqisi2
 998 00be 0344     		add	r3, r3, r0
 999 00c0 5844     		add	r0, r0, fp
 1000              	.LVL131:
 1001 00c2 0344     		add	r3, r3, r0
 1002 00c4 14F806BC 		ldrb	fp, [r4, #-6]	@ zero_extendqisi2
 1003 00c8 4844     		add	r0, r0, r9
 1004              	.LVL132:
 1005 00ca 0344     		add	r3, r3, r0
 1006 00cc 14F8059C 		ldrb	r9, [r4, #-5]	@ zero_extendqisi2
 1007 00d0 5044     		add	r0, r0, r10
 1008              	.LVL133:
 1009 00d2 0344     		add	r3, r3, r0
 1010 00d4 5844     		add	r0, r0, fp
 1011              	.LVL134:
 1012 00d6 14F804BC 		ldrb	fp, [r4, #-4]	@ zero_extendqisi2
 1013 00da 14F803AC 		ldrb	r10, [r4, #-3]	@ zero_extendqisi2
 1014 00de 8144     		add	r9, r9, r0
 1015              	.LVL135:
 1016 00e0 0344     		add	r3, r3, r0
 1017 00e2 03EB0900 		add	r0, r3, r9
 1018 00e6 CB44     		add	fp, fp, r9
 1019              	.LVL136:
 1020 00e8 14F8023C 		ldrb	r3, [r4, #-2]	@ zero_extendqisi2
 1021 00ec 14F8019C 		ldrb	r9, [r4, #-1]	@ zero_extendqisi2
 1022 00f0 DA44     		add	r10, r10, fp
 1023              	.LVL137:
 1024 00f2 5844     		add	r0, r0, fp
 1025 00f4 5344     		add	r3, r3, r10
 1026              	.LVL138:
ARM GAS  /tmp/ccrwCQMC.s 			page 19


 1027 00f6 5044     		add	r0, r0, r10
 1028 00f8 1844     		add	r0, r0, r3
 1029 00fa 1034     		adds	r4, r4, #16
 1030              	.LVL139:
 1031 00fc 4B44     		add	r3, r3, r9
 1032              	.LVL140:
 1033 00fe 1844     		add	r0, r0, r3
 1034              		.loc 1 4298 0 discriminator 1
 1035 0100 A642     		cmp	r6, r4
 1036              		.loc 1 4295 0 discriminator 1
 1037 0102 0544     		add	r5, r5, r0
 1038              	.LVL141:
 1039              		.loc 1 4298 0 discriminator 1
 1040 0104 B9D1     		bne	.L87
 1041              	.LVL142:
 1042 0106 0137     		adds	r7, r7, #1
 1043              		.loc 1 4299 0
 1044 0108 1CF00F0C 		ands	ip, ip, #15
 1045              	.LVL143:
 1046 010c 01EB0711 		add	r1, r1, r7, lsl #4
 1047              	.LVL144:
 1048 0110 8FD0     		beq	.L88
 1049 0112 1446     		mov	r4, r2
 1050 0114 6246     		mov	r2, ip
 1051 0116 84E7     		b	.L86
 1052              	.LVL145:
 1053              	.L107:
 1054 0118 9446     		mov	ip, r2
 1055              	.LVL146:
 1056              		.loc 1 4292 0
 1057 011a 0022     		movs	r2, #0
 1058 011c A4E7     		b	.L85
 1059              	.LVL147:
 1060              	.L91:
 1061              		.cfi_def_cfa_offset 0
 1062              		.cfi_restore 4
 1063              		.cfi_restore 5
 1064              		.cfi_restore 6
 1065              		.cfi_restore 7
 1066              		.cfi_restore 8
 1067              		.cfi_restore 9
 1068              		.cfi_restore 10
 1069              		.cfi_restore 11
 1070              		.cfi_restore 14
 1071              		.loc 1 4287 0
 1072 011e 0120     		movs	r0, #1
 1073              	.LVL148:
 1074              		.loc 1 4308 0
 1075 0120 7047     		bx	lr
 1076              	.L109:
 1077 0122 00BF     		.align	2
 1078              	.L108:
 1079 0124 71800780 		.word	-2146992015
 1080              		.cfi_endproc
 1081              	.LFE22:
 1082              		.size	lzo_adler32, .-lzo_adler32
 1083              		.section	.text.lzo_memcmp,"ax",%progbits
ARM GAS  /tmp/ccrwCQMC.s 			page 20


 1084              		.align	1
 1085              		.p2align 4,,15
 1086              		.global	lzo_memcmp
 1087              		.syntax unified
 1088              		.thumb
 1089              		.thumb_func
 1090              		.fpu fpv4-sp-d16
 1091              		.type	lzo_memcmp, %function
 1092              	lzo_memcmp:
 1093              	.LFB23:
 1094              		.loc 1 4338 0
 1095              		.cfi_startproc
 1096              		@ args = 0, pretend = 0, frame = 0
 1097              		@ frame_needed = 0, uses_anonymous_args = 0
 1098              		@ link register save eliminated.
 1099              	.LVL149:
 1100              		.loc 1 4351 0
 1101 0000 FFF7FEBF 		b	memcmp
 1102              	.LVL150:
 1103              		.cfi_endproc
 1104              	.LFE23:
 1105              		.size	lzo_memcmp, .-lzo_memcmp
 1106              		.section	.text.lzo_memcpy,"ax",%progbits
 1107              		.align	1
 1108              		.p2align 4,,15
 1109              		.global	lzo_memcpy
 1110              		.syntax unified
 1111              		.thumb
 1112              		.thumb_func
 1113              		.fpu fpv4-sp-d16
 1114              		.type	lzo_memcpy, %function
 1115              	lzo_memcpy:
 1116              	.LFB24:
 1117              		.loc 1 4355 0
 1118              		.cfi_startproc
 1119              		@ args = 0, pretend = 0, frame = 0
 1120              		@ frame_needed = 0, uses_anonymous_args = 0
 1121              		@ link register save eliminated.
 1122              	.LVL151:
 1123              		.loc 1 4366 0
 1124 0000 FFF7FEBF 		b	memcpy
 1125              	.LVL152:
 1126              		.cfi_endproc
 1127              	.LFE24:
 1128              		.size	lzo_memcpy, .-lzo_memcpy
 1129              		.section	.text.lzo_memmove,"ax",%progbits
 1130              		.align	1
 1131              		.p2align 4,,15
 1132              		.global	lzo_memmove
 1133              		.syntax unified
 1134              		.thumb
 1135              		.thumb_func
 1136              		.fpu fpv4-sp-d16
 1137              		.type	lzo_memmove, %function
 1138              	lzo_memmove:
 1139              	.LFB25:
 1140              		.loc 1 4370 0
ARM GAS  /tmp/ccrwCQMC.s 			page 21


 1141              		.cfi_startproc
 1142              		@ args = 0, pretend = 0, frame = 0
 1143              		@ frame_needed = 0, uses_anonymous_args = 0
 1144              		@ link register save eliminated.
 1145              	.LVL153:
 1146              		.loc 1 4392 0
 1147 0000 FFF7FEBF 		b	memmove
 1148              	.LVL154:
 1149              		.cfi_endproc
 1150              	.LFE25:
 1151              		.size	lzo_memmove, .-lzo_memmove
 1152              		.section	.text.lzo_memset,"ax",%progbits
 1153              		.align	1
 1154              		.p2align 4,,15
 1155              		.global	lzo_memset
 1156              		.syntax unified
 1157              		.thumb
 1158              		.thumb_func
 1159              		.fpu fpv4-sp-d16
 1160              		.type	lzo_memset, %function
 1161              	lzo_memset:
 1162              	.LFB26:
 1163              		.loc 1 4396 0
 1164              		.cfi_startproc
 1165              		@ args = 0, pretend = 0, frame = 0
 1166              		@ frame_needed = 0, uses_anonymous_args = 0
 1167              		@ link register save eliminated.
 1168              	.LVL155:
 1169              		.loc 1 4405 0
 1170 0000 FFF7FEBF 		b	memset
 1171              	.LVL156:
 1172              		.cfi_endproc
 1173              	.LFE26:
 1174              		.size	lzo_memset, .-lzo_memset
 1175              		.section	.text._lzo_config_check,"ax",%progbits
 1176              		.align	1
 1177              		.p2align 4,,15
 1178              		.global	_lzo_config_check
 1179              		.syntax unified
 1180              		.thumb
 1181              		.thumb_func
 1182              		.fpu fpv4-sp-d16
 1183              		.type	_lzo_config_check, %function
 1184              	_lzo_config_check:
 1185              	.LFB28:
 1186              		.loc 1 4448 0
 1187              		.cfi_startproc
 1188              		@ args = 0, pretend = 0, frame = 16
 1189              		@ frame_needed = 0, uses_anonymous_args = 0
 1190              	.LVL157:
 1191 0000 30B5     		push	{r4, r5, lr}
 1192              		.cfi_def_cfa_offset 12
 1193              		.cfi_offset 4, -12
 1194              		.cfi_offset 5, -8
 1195              		.cfi_offset 14, -4
 1196 0002 85B0     		sub	sp, sp, #20
 1197              		.cfi_def_cfa_offset 32
ARM GAS  /tmp/ccrwCQMC.s 			page 22


 1198              		.loc 1 4458 0
 1199 0004 04AC     		add	r4, sp, #16
 1200 0006 0023     		movs	r3, #0
 1201 0008 44F8103D 		str	r3, [r4, #-16]!
 1202              		.loc 1 4459 0
 1203 000c 1946     		mov	r1, r3
 1204 000e 2046     		mov	r0, r4
 1205              		.loc 1 4458 0
 1206 0010 0193     		str	r3, [sp, #4]
 1207              		.loc 1 4459 0
 1208 0012 FFF7FEFF 		bl	u2p
 1209              	.LVL158:
 1210              		.loc 1 4468 0
 1211 0016 8022     		movs	r2, #128
 1212              		.loc 1 4460 0
 1213 0018 0578     		ldrb	r5, [r0]	@ zero_extendqisi2
 1214              	.LVL159:
 1215              		.loc 1 4468 0
 1216 001a 8DF80020 		strb	r2, [sp]
 1217              		.loc 1 4470 0
 1218 001e 0368     		ldr	r3, [r0]
 1219              		.loc 1 4472 0
 1220 0020 3F49     		ldr	r1, .L135
 1221 0022 0091     		str	r1, [sp]
 1222              		.loc 1 4470 0
 1223 0024 9B1A     		subs	r3, r3, r2
 1224 0026 B3FA83F3 		clz	r3, r3
 1225              		.loc 1 4474 0
 1226 002a 2046     		mov	r0, r4
 1227              	.LVL160:
 1228 002c 0121     		movs	r1, #1
 1229              		.loc 1 4470 0
 1230 002e 5B09     		lsrs	r3, r3, #5
 1231 0030 002D     		cmp	r5, #0
 1232 0032 18BF     		it	ne
 1233 0034 0023     		movne	r3, #0
 1234              	.LVL161:
 1235              		.loc 1 4474 0
 1236 0036 FFF7FEFF 		bl	u2p
 1237              	.LVL162:
 1238              		.loc 1 4475 0
 1239 003a 0188     		ldrh	r1, [r0]
 1240              		.loc 1 4476 0
 1241 003c 0488     		ldrh	r4, [r0]
 1242              		.loc 1 4477 0
 1243 003e 8DF80120 		strb	r2, [sp, #1]
 1244              		.loc 1 4475 0
 1245 0042 89B2     		uxth	r1, r1
 1246              	.LVL163:
 1247              		.loc 1 4479 0
 1248 0044 8125     		movs	r5, #129
 1249              	.LBB44:
 1250              		.loc 1 4516 0
 1251 0046 0029     		cmp	r1, #0
 1252 0048 18BF     		it	ne
 1253 004a 0023     		movne	r3, #0
 1254              	.LVL164:
ARM GAS  /tmp/ccrwCQMC.s 			page 23


 1255              	.LBE44:
 1256              		.loc 1 4478 0
 1257 004c 0188     		ldrh	r1, [r0]
 1258              		.loc 1 4479 0
 1259 004e 8DF80250 		strb	r5, [sp, #2]
 1260              		.loc 1 4476 0
 1261 0052 A4B2     		uxth	r4, r4
 1262              	.LBB45:
 1263              		.loc 1 4516 0
 1264 0054 002C     		cmp	r4, #0
 1265 0056 18BF     		it	ne
 1266 0058 0023     		movne	r3, #0
 1267              	.LBE45:
 1268              		.loc 1 4478 0
 1269 005a 89B2     		uxth	r1, r1
 1270              		.loc 1 4480 0
 1271 005c 0488     		ldrh	r4, [r0]
 1272              		.loc 1 4485 0
 1273 005e 0588     		ldrh	r5, [r0]
 1274              	.LBB46:
 1275              		.loc 1 4516 0
 1276 0060 8029     		cmp	r1, #128
 1277 0062 14BF     		ite	ne
 1278 0064 0023     		movne	r3, #0
 1279 0066 03F00103 		andeq	r3, r3, #1
 1280              	.LBE46:
 1281              		.loc 1 4480 0
 1282 006a 48F28011 		movw	r1, #33152
 1283              	.LBB47:
 1284              		.loc 1 4516 0
 1285 006e A142     		cmp	r1, r4
 1286 0070 14BF     		ite	ne
 1287 0072 0023     		movne	r3, #0
 1288 0074 03F00103 		andeq	r3, r3, #1
 1289              	.LBE47:
 1290              		.loc 1 4487 0
 1291 0078 0324     		movs	r4, #3
 1292 007a 0094     		str	r4, [sp]
 1293              		.loc 1 4488 0
 1294 007c 0424     		movs	r4, #4
 1295 007e 8DF80540 		strb	r4, [sp, #5]
 1296              		.loc 1 4490 0
 1297 0082 0468     		ldr	r4, [r0]
 1298              	.LBB48:
 1299              		.loc 1 4516 0
 1300 0084 A942     		cmp	r1, r5
 1301 0086 14BF     		ite	ne
 1302 0088 0023     		movne	r3, #0
 1303 008a 03F00103 		andeq	r3, r3, #1
 1304              	.LBE48:
 1305              		.loc 1 4491 0
 1306 008e 0168     		ldr	r1, [r0]
 1307              		.loc 1 4492 0
 1308 0090 8DF80120 		strb	r2, [sp, #1]
 1309              		.loc 1 4494 0
 1310 0094 48F28125 		movw	r5, #33409
 1311 0098 8322     		movs	r2, #131
ARM GAS  /tmp/ccrwCQMC.s 			page 24


 1312              	.LBB49:
 1313              		.loc 1 4516 0
 1314 009a 002C     		cmp	r4, #0
 1315 009c 18BF     		it	ne
 1316 009e 0023     		movne	r3, #0
 1317              	.LBE49:
 1318              		.loc 1 4493 0
 1319 00a0 0468     		ldr	r4, [r0]
 1320              		.loc 1 4494 0
 1321 00a2 8DF80420 		strb	r2, [sp, #4]
 1322 00a6 ADF80250 		strh	r5, [sp, #2]	@ movhi
 1323              	.LBB50:
 1324              		.loc 1 4516 0
 1325 00aa 0029     		cmp	r1, #0
 1326 00ac 18BF     		it	ne
 1327 00ae 0023     		movne	r3, #0
 1328              	.LBE50:
 1329              		.loc 1 4495 0
 1330 00b0 1C4A     		ldr	r2, .L135+4
 1331 00b2 0168     		ldr	r1, [r0]
 1332              		.loc 1 4500 0
 1333 00b4 0068     		ldr	r0, [r0]
 1334              	.LVL165:
 1335              	.LBB51:
 1336              		.loc 1 4516 0
 1337 00b6 802C     		cmp	r4, #128
 1338 00b8 14BF     		ite	ne
 1339 00ba 0023     		movne	r3, #0
 1340 00bc 03F00103 		andeq	r3, r3, #1
 1341 00c0 9142     		cmp	r1, r2
 1342 00c2 14BF     		ite	ne
 1343 00c4 0023     		movne	r3, #0
 1344 00c6 03F00103 		andeq	r3, r3, #1
 1345 00ca 6BB1     		cbz	r3, .L122
 1346 00cc 9042     		cmp	r0, r2
 1347 00ce 0BD1     		bne	.L122
 1348 00d0 1E23     		movs	r3, #30
 1349 00d2 1946     		mov	r1, r3
 1350 00d4 0222     		movs	r2, #2
 1351 00d6 02E0     		b	.L117
 1352              	.LVL166:
 1353              	.L133:
 1354 00d8 0346     		mov	r3, r0
 1355              	.LVL167:
 1356 00da B2FA82F1 		clz	r1, r2
 1357              	.LVL168:
 1358              	.L117:
 1359 00de 581E     		subs	r0, r3, #1
 1360              		.loc 1 4516 0 is_stmt 0 discriminator 4
 1361 00e0 5200     		lsls	r2, r2, #1
 1362              	.LVL169:
 1363 00e2 2BB1     		cbz	r3, .L116
 1364              		.loc 1 4516 0
 1365 00e4 9942     		cmp	r1, r3
 1366 00e6 F7D0     		beq	.L133
 1367              	.LVL170:
 1368              	.L122:
ARM GAS  /tmp/ccrwCQMC.s 			page 25


 1369              	.LBE51:
 1370              		.loc 1 4545 0 is_stmt 1
 1371 00e8 4FF0FF30 		mov	r0, #-1
 1372              		.loc 1 4546 0
 1373 00ec 05B0     		add	sp, sp, #20
 1374              		.cfi_remember_state
 1375              		.cfi_def_cfa_offset 12
 1376              		@ sp needed
 1377 00ee 30BD     		pop	{r4, r5, pc}
 1378              	.LVL171:
 1379              	.L116:
 1380              		.cfi_restore_state
 1381              	.LBB52:
 1382              		.loc 1 4530 0 discriminator 3
 1383 00f0 0029     		cmp	r1, #0
 1384 00f2 F9D1     		bne	.L122
 1385              		.loc 1 4530 0 is_stmt 0
 1386 00f4 0120     		movs	r0, #1
 1387 00f6 0146     		mov	r1, r0
 1388              	.LVL172:
 1389 00f8 0223     		movs	r3, #2
 1390              	.LVL173:
 1391 00fa 06E0     		b	.L119
 1392              	.LVL174:
 1393              	.L134:
 1394 00fc 8842     		cmp	r0, r1
 1395 00fe F3D1     		bne	.L122
 1396 0100 93FAA3F0 		rbit	r0, r3
 1397 0104 B0FA80F0 		clz	r0, r0
 1398 0108 1146     		mov	r1, r2
 1399              	.LVL175:
 1400              	.L119:
 1401              		.loc 1 4530 0 discriminator 4
 1402 010a 4A1C     		adds	r2, r1, #1
 1403 010c 202A     		cmp	r2, #32
 1404 010e 4FEA4303 		lsl	r3, r3, #1
 1405              	.LVL176:
 1406 0112 F3D1     		bne	.L134
 1407              	.LBE52:
 1408              		.loc 1 4545 0 is_stmt 1
 1409 0114 1F38     		subs	r0, r0, #31
 1410 0116 18BF     		it	ne
 1411 0118 4FF0FF30 		movne	r0, #-1
 1412              		.loc 1 4546 0
 1413 011c 05B0     		add	sp, sp, #20
 1414              		.cfi_def_cfa_offset 12
 1415              		@ sp needed
 1416 011e 30BD     		pop	{r4, r5, pc}
 1417              	.L136:
 1418              		.align	2
 1419              	.L135:
 1420 0120 01000002 		.word	33554433
 1421 0124 80818283 		.word	-2088599168
 1422              		.cfi_endproc
 1423              	.LFE28:
 1424              		.size	_lzo_config_check, .-_lzo_config_check
 1425              		.section	.text.__lzo_init_v2,"ax",%progbits
ARM GAS  /tmp/ccrwCQMC.s 			page 26


 1426              		.align	1
 1427              		.p2align 4,,15
 1428              		.global	__lzo_init_v2
 1429              		.syntax unified
 1430              		.thumb
 1431              		.thumb_func
 1432              		.fpu fpv4-sp-d16
 1433              		.type	__lzo_init_v2, %function
 1434              	__lzo_init_v2:
 1435              	.LFB29:
 1436              		.loc 1 4551 0
 1437              		.cfi_startproc
 1438              		@ args = 24, pretend = 0, frame = 0
 1439              		@ frame_needed = 0, uses_anonymous_args = 0
 1440              	.LVL177:
 1441 0000 F0B5     		push	{r4, r5, r6, r7, lr}
 1442              		.cfi_def_cfa_offset 20
 1443              		.cfi_offset 4, -20
 1444              		.cfi_offset 5, -16
 1445              		.cfi_offset 6, -12
 1446              		.cfi_offset 7, -8
 1447              		.cfi_offset 14, -4
 1448              		.loc 1 4551 0
 1449 0002 DDE90545 		ldrd	r4, r5, [sp, #20]
 1450 0006 DDE9077C 		ldrd	r7, ip, [sp, #28]
 1451 000a DDE909E6 		ldrd	lr, r6, [sp, #36]
 1452              		.loc 1 4563 0
 1453 000e 58B3     		cbz	r0, .L137
 1454              		.loc 1 4573 0
 1455 0010 481C     		adds	r0, r1, #1
 1456              	.LVL178:
 1457 0012 01D0     		beq	.L139
 1458              		.loc 1 4566 0
 1459 0014 0229     		cmp	r1, #2
 1460 0016 27D1     		bne	.L137
 1461              	.L139:
 1462              		.loc 1 4566 0 is_stmt 0 discriminator 1
 1463 0018 511C     		adds	r1, r2, #1
 1464              	.LVL179:
 1465 001a 01D0     		beq	.L140
 1466              		.loc 1 4567 0 is_stmt 1
 1467 001c 042A     		cmp	r2, #4
 1468 001e 23D1     		bne	.L137
 1469              	.L140:
 1470              		.loc 1 4567 0 is_stmt 0 discriminator 1
 1471 0020 5A1C     		adds	r2, r3, #1
 1472              	.LVL180:
 1473 0022 01D0     		beq	.L141
 1474              		.loc 1 4568 0 is_stmt 1
 1475 0024 042B     		cmp	r3, #4
 1476 0026 1FD1     		bne	.L137
 1477              	.L141:
 1478              		.loc 1 4568 0 is_stmt 0 discriminator 1
 1479 0028 601C     		adds	r0, r4, #1
 1480              	.LVL181:
 1481 002a 01D0     		beq	.L142
 1482              		.loc 1 4569 0 is_stmt 1
ARM GAS  /tmp/ccrwCQMC.s 			page 27


 1483 002c 042C     		cmp	r4, #4
 1484 002e 1BD1     		bne	.L137
 1485              	.L142:
 1486              		.loc 1 4569 0 is_stmt 0 discriminator 1
 1487 0030 691C     		adds	r1, r5, #1
 1488              	.LVL182:
 1489 0032 01D0     		beq	.L143
 1490              		.loc 1 4570 0 is_stmt 1
 1491 0034 042D     		cmp	r5, #4
 1492 0036 17D1     		bne	.L137
 1493              	.L143:
 1494              		.loc 1 4570 0 is_stmt 0 discriminator 1
 1495 0038 7A1C     		adds	r2, r7, #1
 1496 003a 01D0     		beq	.L144
 1497              		.loc 1 4571 0 is_stmt 1
 1498 003c 042F     		cmp	r7, #4
 1499 003e 13D1     		bne	.L137
 1500              	.L144:
 1501              		.loc 1 4571 0 is_stmt 0 discriminator 1
 1502 0040 BCF1FF3F 		cmp	ip, #-1
 1503 0044 02D0     		beq	.L145
 1504              		.loc 1 4572 0 is_stmt 1
 1505 0046 BCF1040F 		cmp	ip, #4
 1506 004a 0DD1     		bne	.L137
 1507              	.L145:
 1508              		.loc 1 4572 0 is_stmt 0 discriminator 1
 1509 004c BEF1FF3F 		cmp	lr, #-1
 1510 0050 02D0     		beq	.L146
 1511              		.loc 1 4573 0 is_stmt 1
 1512 0052 BEF1040F 		cmp	lr, #4
 1513 0056 07D1     		bne	.L137
 1514              	.L146:
 1515              		.loc 1 4573 0 is_stmt 0 discriminator 1
 1516 0058 731C     		adds	r3, r6, #1
 1517              	.LVL183:
 1518 005a 01D0     		beq	.L147
 1519              		.loc 1 4574 0 is_stmt 1
 1520 005c 182E     		cmp	r6, #24
 1521 005e 03D1     		bne	.L137
 1522              	.L147:
 1523              		.loc 1 4583 0
 1524 0060 BDE8F040 		pop	{r4, r5, r6, r7, lr}
 1525              		.cfi_remember_state
 1526              		.cfi_restore 14
 1527              		.cfi_restore 7
 1528              		.cfi_restore 6
 1529              		.cfi_restore 5
 1530              		.cfi_restore 4
 1531              		.cfi_def_cfa_offset 0
 1532              	.LVL184:
 1533              		.loc 1 4578 0
 1534 0064 FFF7FEBF 		b	_lzo_config_check
 1535              	.LVL185:
 1536              	.L137:
 1537              		.cfi_restore_state
 1538              		.loc 1 4583 0
 1539 0068 4FF0FF30 		mov	r0, #-1
ARM GAS  /tmp/ccrwCQMC.s 			page 28


 1540 006c F0BD     		pop	{r4, r5, r6, r7, pc}
 1541              		.cfi_endproc
 1542              	.LFE29:
 1543              		.size	__lzo_init_v2, .-__lzo_init_v2
 1544 006e 00BF     		.section	.text.lzo1x_1_compress,"ax",%progbits
 1545              		.align	1
 1546              		.p2align 4,,15
 1547              		.global	lzo1x_1_compress
 1548              		.syntax unified
 1549              		.thumb
 1550              		.thumb_func
 1551              		.fpu fpv4-sp-d16
 1552              		.type	lzo1x_1_compress, %function
 1553              	lzo1x_1_compress:
 1554              	.LFB31:
 1555              		.loc 1 5215 0
 1556              		.cfi_startproc
 1557              		@ args = 4, pretend = 0, frame = 16
 1558              		@ frame_needed = 0, uses_anonymous_args = 0
 1559              	.LVL186:
 1560 0000 2DE9F04F 		push	{r4, r5, r6, r7, r8, r9, r10, fp, lr}
 1561              		.cfi_def_cfa_offset 36
 1562              		.cfi_offset 4, -36
 1563              		.cfi_offset 5, -32
 1564              		.cfi_offset 6, -28
 1565              		.cfi_offset 7, -24
 1566              		.cfi_offset 8, -20
 1567              		.cfi_offset 9, -16
 1568              		.cfi_offset 10, -12
 1569              		.cfi_offset 11, -8
 1570              		.cfi_offset 14, -4
 1571 0004 87B0     		sub	sp, sp, #28
 1572              		.cfi_def_cfa_offset 64
 1573              		.loc 1 5221 0
 1574 0006 1429     		cmp	r1, #20
 1575              		.loc 1 5215 0
 1576 0008 0391     		str	r1, [sp, #12]
 1577              	.LVL187:
 1578 000a 8146     		mov	r9, r0
 1579 000c 0492     		str	r2, [sp, #16]
 1580              	.LVL188:
 1581 000e 9A46     		mov	r10, r3
 1582              		.loc 1 5221 0
 1583 0010 40F2B580 		bls	.L188
 1584              	.LVL189:
 1585              	.LBB53:
 1586              		.loc 1 5226 0
 1587 0014 B1F5404F 		cmp	r1, #49152
 1588 0018 0B46     		mov	r3, r1
 1589              	.LVL190:
 1590 001a 28BF     		it	cs
 1591 001c 4FF44043 		movcs	r3, #49152
 1592              		.loc 1 5228 0
 1593 0020 C418     		adds	r4, r0, r3
 1594              		.loc 1 5226 0
 1595 0022 1E46     		mov	r6, r3
 1596              	.LVL191:
ARM GAS  /tmp/ccrwCQMC.s 			page 29


 1597              		.loc 1 5229 0
 1598 0024 04EB5313 		add	r3, r4, r3, lsr #5
 1599              	.LVL192:
 1600 0028 9C42     		cmp	r4, r3
 1601 002a 80F0AC80 		bcs	.L211
 1602 002e 8846     		mov	r8, r1
 1603 0030 1546     		mov	r5, r2
 1604              	.LBE53:
 1605              		.loc 1 5219 0
 1606 0032 0027     		movs	r7, #0
 1607 0034 0590     		str	r0, [sp, #20]
 1608 0036 DDF840B0 		ldr	fp, [sp, #64]
 1609 003a 0DE0     		b	.L190
 1610              	.LVL193:
 1611              	.L192:
 1612              	.LBB56:
 1613              		.loc 1 5226 0
 1614 003c B8F5404F 		cmp	r8, #49152
 1615 0040 4646     		mov	r6, r8
 1616 0042 28BF     		it	cs
 1617 0044 4FF44046 		movcs	r6, #49152
 1618              	.LVL194:
 1619              		.loc 1 5228 0
 1620 0048 3444     		add	r4, r4, r6
 1621              	.LVL195:
 1622              		.loc 1 5229 0
 1623 004a F219     		adds	r2, r6, r7
 1624 004c 04EB5212 		add	r2, r4, r2, lsr #5
 1625 0050 A242     		cmp	r2, r4
 1626 0052 19D9     		bls	.L191
 1627              		.loc 1 5229 0 is_stmt 0 discriminator 1
 1628 0054 9442     		cmp	r4, r2
 1629 0056 17D2     		bcs	.L191
 1630              	.LVL196:
 1631              	.L190:
 1632              	.LBB54:
 1633              	.LBB55:
 1634              		.loc 1 4405 0 is_stmt 1
 1635 0058 4FF40042 		mov	r2, #32768
 1636 005c 0021     		movs	r1, #0
 1637 005e 5846     		mov	r0, fp
 1638 0060 FFF7FEFF 		bl	memset
 1639              	.LVL197:
 1640              	.LBE55:
 1641              	.LBE54:
 1642              		.loc 1 5234 0
 1643 0064 CDE9007B 		strd	r7, fp, [sp]
 1644 0068 4846     		mov	r0, r9
 1645 006a 5346     		mov	r3, r10
 1646 006c 2A46     		mov	r2, r5
 1647 006e 3146     		mov	r1, r6
 1648 0070 FFF7FEFF 		bl	lzo1x_1_compress_core
 1649              	.LVL198:
 1650              		.loc 1 5237 0
 1651 0074 A8EB0608 		sub	r8, r8, r6
 1652              	.LVL199:
 1653              		.loc 1 5236 0
ARM GAS  /tmp/ccrwCQMC.s 			page 30


 1654 0078 DAF80030 		ldr	r3, [r10]
 1655              	.LBE56:
 1656              		.loc 1 5221 0
 1657 007c B8F1140F 		cmp	r8, #20
 1658              	.LBB57:
 1659              		.loc 1 5234 0
 1660 0080 0746     		mov	r7, r0
 1661              	.LVL200:
 1662              		.loc 1 5236 0
 1663 0082 1D44     		add	r5, r5, r3
 1664              	.LVL201:
 1665 0084 A146     		mov	r9, r4
 1666              	.LBE57:
 1667              		.loc 1 5221 0
 1668 0086 D9D8     		bhi	.L192
 1669              	.LVL202:
 1670              	.L191:
 1671              		.loc 1 5241 0
 1672 0088 17EB0807 		adds	r7, r7, r8
 1673              	.LVL203:
 1674 008c DDF81490 		ldr	r9, [sp, #20]
 1675              	.LVL204:
 1676 0090 19D0     		beq	.L193
 1677              	.LBB58:
 1678              		.loc 1 5243 0
 1679 0092 039B     		ldr	r3, [sp, #12]
 1680 0094 DB1B     		subs	r3, r3, r7
 1681 0096 9944     		add	r9, r9, r3
 1682              	.LVL205:
 1683              		.loc 1 5245 0
 1684 0098 049B     		ldr	r3, [sp, #16]
 1685 009a AB42     		cmp	r3, r5
 1686 009c 4FD0     		beq	.L226
 1687              		.loc 1 5247 0
 1688 009e 032F     		cmp	r7, #3
 1689 00a0 1ED8     		bhi	.L227
 1690              		.loc 1 5248 0
 1691 00a2 15F8023C 		ldrb	r3, [r5, #-2]	@ zero_extendqisi2
 1692 00a6 0397     		str	r7, [sp, #12]
 1693              	.LVL206:
 1694 00a8 3B43     		orrs	r3, r3, r7
 1695 00aa 05F8023C 		strb	r3, [r5, #-2]
 1696              	.LVL207:
 1697 00ae 2946     		mov	r1, r5
 1698              	.LVL208:
 1699              	.L200:
 1700 00b0 013D     		subs	r5, r5, #1
 1701 00b2 4F44     		add	r7, r7, r9
 1702              	.LVL209:
 1703              	.L207:
 1704              	.LBB59:
 1705              		.loc 1 5265 0 discriminator 12
 1706 00b4 19F8013B 		ldrb	r3, [r9], #1	@ zero_extendqisi2
 1707              	.LVL210:
 1708 00b8 05F8013F 		strb	r3, [r5, #1]!
 1709 00bc B945     		cmp	r9, r7
 1710 00be F9D1     		bne	.L207
ARM GAS  /tmp/ccrwCQMC.s 			page 31


 1711              	.LVL211:
 1712              	.LBE59:
 1713              		.loc 1 5266 0
 1714 00c0 039B     		ldr	r3, [sp, #12]
 1715 00c2 0B44     		add	r3, r3, r1
 1716              	.LVL212:
 1717 00c4 1D46     		mov	r5, r3
 1718              	.LVL213:
 1719              	.L193:
 1720              	.LBE58:
 1721              		.loc 1 5273 0
 1722 00c6 049A     		ldr	r2, [sp, #16]
 1723              		.loc 1 5271 0
 1724 00c8 EB1C     		adds	r3, r5, #3
 1725              		.loc 1 5270 0
 1726 00ca 0020     		movs	r0, #0
 1727              		.loc 1 5273 0
 1728 00cc 9B1A     		subs	r3, r3, r2
 1729              		.loc 1 5269 0
 1730 00ce 1122     		movs	r2, #17
 1731 00d0 2A70     		strb	r2, [r5]
 1732              	.LVL214:
 1733              		.loc 1 5270 0
 1734 00d2 6870     		strb	r0, [r5, #1]
 1735              	.LVL215:
 1736              		.loc 1 5271 0
 1737 00d4 A870     		strb	r0, [r5, #2]
 1738              		.loc 1 5273 0
 1739 00d6 CAF80030 		str	r3, [r10]
 1740              		.loc 1 5275 0
 1741 00da 07B0     		add	sp, sp, #28
 1742              		.cfi_remember_state
 1743              		.cfi_def_cfa_offset 36
 1744              		@ sp needed
 1745 00dc BDE8F08F 		pop	{r4, r5, r6, r7, r8, r9, r10, fp, pc}
 1746              	.LVL216:
 1747              	.L227:
 1748              		.cfi_restore_state
 1749              	.LBB68:
 1750              		.loc 1 5249 0
 1751 00e0 122F     		cmp	r7, #18
 1752 00e2 05F10101 		add	r1, r5, #1
 1753 00e6 3BD8     		bhi	.L228
 1754              	.LVL217:
 1755              		.loc 1 5250 0
 1756 00e8 FB1E     		subs	r3, r7, #3
 1757              	.LBB60:
 1758              		.loc 1 5265 0
 1759 00ea 072F     		cmp	r7, #7
 1760              	.LBE60:
 1761              		.loc 1 5250 0
 1762 00ec 2B70     		strb	r3, [r5]
 1763              	.LVL218:
 1764              	.LBB61:
 1765              		.loc 1 5265 0
 1766 00ee 0397     		str	r7, [sp, #12]
 1767              	.LVL219:
ARM GAS  /tmp/ccrwCQMC.s 			page 32


 1768 00f0 4BD9     		bls	.L229
 1769              	.LVL220:
 1770              	.L196:
 1771 00f2 039B     		ldr	r3, [sp, #12]
 1772 00f4 A3F10805 		sub	r5, r3, #8
 1773 00f8 25F00705 		bic	r5, r5, #7
 1774 00fc 0835     		adds	r5, r5, #8
 1775 00fe 09EB0500 		add	r0, r9, r5
 1776 0102 0B46     		mov	r3, r1
 1777              	.LVL221:
 1778              	.L204:
 1779              		.loc 1 5265 0 is_stmt 0 discriminator 5
 1780 0104 D9F80020 		ldr	r2, [r9]
 1781 0108 1A60     		str	r2, [r3]
 1782 010a D9F80420 		ldr	r2, [r9, #4]
 1783 010e 5A60     		str	r2, [r3, #4]
 1784 0110 09F10809 		add	r9, r9, #8
 1785              	.LVL222:
 1786 0114 4845     		cmp	r0, r9
 1787 0116 03F10803 		add	r3, r3, #8
 1788              	.LVL223:
 1789 011a F3D1     		bne	.L204
 1790 011c 039B     		ldr	r3, [sp, #12]
 1791              	.LVL224:
 1792 011e 03F00707 		and	r7, r3, #7
 1793              		.loc 1 5265 0 discriminator 6
 1794 0122 032F     		cmp	r7, #3
 1795 0124 0D44     		add	r5, r5, r1
 1796 0126 04D9     		bls	.L205
 1797              	.L201:
 1798              		.loc 1 5265 0 discriminator 7
 1799 0128 59F8043B 		ldr	r3, [r9], #4
 1800              	.LVL225:
 1801 012c 45F8043B 		str	r3, [r5], #4
 1802              	.LVL226:
 1803 0130 043F     		subs	r7, r7, #4
 1804              	.LVL227:
 1805              	.L205:
 1806              		.loc 1 5265 0 discriminator 9
 1807 0132 002F     		cmp	r7, #0
 1808 0134 BCD1     		bne	.L200
 1809              	.LVL228:
 1810              	.LBE61:
 1811              		.loc 1 5266 0 is_stmt 1
 1812 0136 039B     		ldr	r3, [sp, #12]
 1813 0138 0B44     		add	r3, r3, r1
 1814              	.LVL229:
 1815 013a 1D46     		mov	r5, r3
 1816              	.LVL230:
 1817 013c C3E7     		b	.L193
 1818              	.LVL231:
 1819              	.L226:
 1820 013e 0397     		str	r7, [sp, #12]
 1821              	.LVL232:
 1822              	.L189:
 1823              		.loc 1 5245 0 discriminator 1
 1824 0140 039A     		ldr	r2, [sp, #12]
ARM GAS  /tmp/ccrwCQMC.s 			page 33


 1825 0142 EE2A     		cmp	r2, #238
 1826 0144 05F10101 		add	r1, r5, #1
 1827 0148 0BD8     		bhi	.L195
 1828              	.LVL233:
 1829              		.loc 1 5246 0
 1830 014a 1346     		mov	r3, r2
 1831 014c 1133     		adds	r3, r3, #17
 1832              	.LBB62:
 1833              		.loc 1 5265 0
 1834 014e 072A     		cmp	r2, #7
 1835              	.LBE62:
 1836              		.loc 1 5246 0
 1837 0150 2B70     		strb	r3, [r5]
 1838              	.LVL234:
 1839              	.LBB63:
 1840              		.loc 1 5265 0
 1841 0152 CED8     		bhi	.L196
 1842 0154 039B     		ldr	r3, [sp, #12]
 1843 0156 032B     		cmp	r3, #3
 1844 0158 19D9     		bls	.L230
 1845              	.LBE63:
 1846              		.loc 1 5246 0
 1847 015a 0D46     		mov	r5, r1
 1848              	.LBB64:
 1849              		.loc 1 5265 0
 1850 015c 039F     		ldr	r7, [sp, #12]
 1851 015e E3E7     		b	.L201
 1852              	.LVL235:
 1853              	.L228:
 1854              	.LBE64:
 1855 0160 0397     		str	r7, [sp, #12]
 1856              	.LVL236:
 1857              	.L195:
 1858              	.LBB65:
 1859              		.loc 1 5253 0
 1860 0162 039B     		ldr	r3, [sp, #12]
 1861 0164 123B     		subs	r3, r3, #18
 1862              	.LVL237:
 1863              		.loc 1 5255 0
 1864 0166 0022     		movs	r2, #0
 1865              		.loc 1 5256 0
 1866 0168 FF2B     		cmp	r3, #255
 1867              		.loc 1 5255 0
 1868 016a 2A70     		strb	r2, [r5]
 1869              		.loc 1 5256 0
 1870 016c 04D9     		bls	.L202
 1871              	.LVL238:
 1872              	.L203:
 1873              		.loc 1 5258 0
 1874 016e FF3B     		subs	r3, r3, #255
 1875              	.LVL239:
 1876              		.loc 1 5256 0
 1877 0170 FF2B     		cmp	r3, #255
 1878              	.LBB66:
 1879              		.loc 1 5259 0
 1880 0172 01F8012B 		strb	r2, [r1], #1
 1881              	.LVL240:
ARM GAS  /tmp/ccrwCQMC.s 			page 34


 1882              	.LBE66:
 1883              		.loc 1 5256 0
 1884 0176 FAD8     		bhi	.L203
 1885              	.LVL241:
 1886              	.L202:
 1887              		.loc 1 5263 0
 1888 0178 0B70     		strb	r3, [r1]
 1889              	.LVL242:
 1890 017a 0131     		adds	r1, r1, #1
 1891              	.LVL243:
 1892 017c B9E7     		b	.L196
 1893              	.LVL244:
 1894              	.L188:
 1895              	.LBE65:
 1896              	.LBE68:
 1897              		.loc 1 5241 0
 1898 017e 039B     		ldr	r3, [sp, #12]
 1899              	.LVL245:
 1900 0180 0BB9     		cbnz	r3, .L211
 1901 0182 049D     		ldr	r5, [sp, #16]
 1902 0184 9FE7     		b	.L193
 1903              	.LVL246:
 1904              	.L211:
 1905 0186 049D     		ldr	r5, [sp, #16]
 1906 0188 DAE7     		b	.L189
 1907              	.LVL247:
 1908              	.L229:
 1909              	.LBB69:
 1910              	.LBB67:
 1911              		.loc 1 5265 0
 1912 018a 0D46     		mov	r5, r1
 1913 018c CCE7     		b	.L201
 1914              	.LVL248:
 1915              	.L230:
 1916 018e 1F46     		mov	r7, r3
 1917              	.LBE67:
 1918              		.loc 1 5246 0
 1919 0190 0D46     		mov	r5, r1
 1920 0192 8DE7     		b	.L200
 1921              	.LBE69:
 1922              		.cfi_endproc
 1923              	.LFE31:
 1924              		.size	lzo1x_1_compress, .-lzo1x_1_compress
 1925              		.section	.text.lzo1x_decompress,"ax",%progbits
 1926              		.align	1
 1927              		.p2align 4,,15
 1928              		.global	lzo1x_decompress
 1929              		.syntax unified
 1930              		.thumb
 1931              		.thumb_func
 1932              		.fpu fpv4-sp-d16
 1933              		.type	lzo1x_decompress, %function
 1934              	lzo1x_decompress:
 1935              	.LFB32:
 1936              		.loc 1 5399 0
 1937              		.cfi_startproc
 1938              		@ args = 4, pretend = 0, frame = 0
ARM GAS  /tmp/ccrwCQMC.s 			page 35


 1939              		@ frame_needed = 0, uses_anonymous_args = 0
 1940              	.LVL249:
 1941 0000 2DE9F047 		push	{r4, r5, r6, r7, r8, r9, r10, lr}
 1942              		.cfi_def_cfa_offset 32
 1943              		.cfi_offset 4, -32
 1944              		.cfi_offset 5, -28
 1945              		.cfi_offset 6, -24
 1946              		.cfi_offset 7, -20
 1947              		.cfi_offset 8, -16
 1948              		.cfi_offset 9, -12
 1949              		.cfi_offset 10, -8
 1950              		.cfi_offset 14, -4
 1951              		.loc 1 5437 0
 1952 0004 0024     		movs	r4, #0
 1953              		.loc 1 5443 0
 1954 0006 0746     		mov	r7, r0
 1955              		.loc 1 5437 0
 1956 0008 1C60     		str	r4, [r3]
 1957              		.loc 1 5443 0
 1958 000a 17F8014B 		ldrb	r4, [r7], #1	@ zero_extendqisi2
 1959              	.LVL250:
 1960 000e 112C     		cmp	r4, #17
 1961 0010 7AD9     		bls	.L268
 1962              	.LVL251:
 1963              		.loc 1 5445 0
 1964 0012 A4F11106 		sub	r6, r4, #17
 1965              		.loc 1 5446 0
 1966 0016 032E     		cmp	r6, #3
 1967              		.loc 1 5445 0
 1968 0018 3546     		mov	r5, r6
 1969              	.LVL252:
 1970 001a 90F801C0 		ldrb	ip, [r0, #1]	@ zero_extendqisi2
 1971              		.loc 1 5446 0
 1972 001e 40F3BF80 		ble	.L288
 1973 0022 A0F11106 		sub	r6, r0, #17
 1974 0026 3444     		add	r4, r4, r6
 1975 0028 02F1FF3E 		add	lr, r2, #-1
 1976 002c 3E46     		mov	r6, r7
 1977 002e 01E0     		b	.L237
 1978              	.LVL253:
 1979              	.L235:
 1980 0030 16F801CF 		ldrb	ip, [r6, #1]!	@ zero_extendqisi2
 1981              	.LVL254:
 1982              	.L237:
 1983              		.loc 1 5449 0 discriminator 1
 1984 0034 0EF801CF 		strb	ip, [lr, #1]!
 1985              	.LVL255:
 1986 0038 A642     		cmp	r6, r4
 1987 003a F9D1     		bne	.L235
 1988 003c 7E19     		adds	r6, r7, r5
 1989 003e 771C     		adds	r7, r6, #1
 1990 0040 1544     		add	r5, r5, r2
 1991              	.LVL256:
 1992              	.L236:
 1993              		.loc 1 5522 0
 1994 0042 3478     		ldrb	r4, [r6]	@ zero_extendqisi2
 1995              	.LVL257:
ARM GAS  /tmp/ccrwCQMC.s 			page 36


 1996              		.loc 1 5523 0
 1997 0044 0F2C     		cmp	r4, #15
 1998 0046 1DD8     		bhi	.L238
 1999              	.LVL258:
 2000              		.loc 1 5542 0
 2001 0048 96F801C0 		ldrb	ip, [r6, #1]	@ zero_extendqisi2
 2002 004c 6FF40067 		mvn	r7, #2048
 2003 0050 A7EB9404 		sub	r4, r7, r4, lsr #2
 2004              	.LVL259:
 2005 0054 A4EB8C04 		sub	r4, r4, ip, lsl #2
 2006 0058 2F19     		adds	r7, r5, r4
 2007              		.loc 1 5545 0
 2008 005a 2C5D     		ldrb	r4, [r5, r4]	@ zero_extendqisi2
 2009 005c 2C70     		strb	r4, [r5]
 2010              	.LVL260:
 2011 005e 7C78     		ldrb	r4, [r7, #1]	@ zero_extendqisi2
 2012 0060 6C70     		strb	r4, [r5, #1]
 2013 0062 BC78     		ldrb	r4, [r7, #2]	@ zero_extendqisi2
 2014 0064 AC70     		strb	r4, [r5, #2]
 2015              		.loc 1 5542 0
 2016 0066 06F1020E 		add	lr, r6, #2
 2017              	.LVL261:
 2018              		.loc 1 5545 0
 2019 006a 05F10308 		add	r8, r5, #3
 2020              	.LVL262:
 2021              	.L248:
 2022 006e 1EF8026C 		ldrb	r6, [lr, #-2]	@ zero_extendqisi2
 2023              	.LVL263:
 2024 0072 7746     		mov	r7, lr
 2025              		.loc 1 5783 0
 2026 0074 16F00306 		ands	r6, r6, #3
 2027              	.LVL264:
 2028 0078 17F8014B 		ldrb	r4, [r7], #1	@ zero_extendqisi2
 2029 007c 2CD1     		bne	.L289
 2030              	.LVL265:
 2031              	.L270:
 2032              		.loc 1 5457 0
 2033 007e 0F2C     		cmp	r4, #15
 2034 0080 4546     		mov	r5, r8
 2035              	.LVL266:
 2036 0082 45D9     		bls	.L290
 2037              	.LVL267:
 2038              	.L238:
 2039              		.loc 1 5551 0
 2040 0084 3F2C     		cmp	r4, #63
 2041 0086 40F29880 		bls	.L249
 2042              	.L292:
 2043              		.loc 1 5574 0
 2044 008a C4F3820C 		ubfx	ip, r4, #2, #3
 2045              		.loc 1 5575 0
 2046 008e 3E78     		ldrb	r6, [r7]	@ zero_extendqisi2
 2047 0090 6FEA0C0C 		mvn	ip, ip
 2048              		.loc 1 5576 0
 2049 0094 6409     		lsrs	r4, r4, #5
 2050              		.loc 1 5575 0
 2051 0096 ACEBC60C 		sub	ip, ip, r6, lsl #3
 2052              		.loc 1 5576 0
ARM GAS  /tmp/ccrwCQMC.s 			page 37


 2053 009a 013C     		subs	r4, r4, #1
 2054              		.loc 1 5575 0
 2055 009c AC44     		add	ip, ip, r5
 2056 009e 07F1010E 		add	lr, r7, #1
 2057              	.LVL268:
 2058              	.L250:
 2059              		.loc 1 5771 0
 2060 00a2 6646     		mov	r6, ip
 2061 00a4 A846     		mov	r8, r5
 2062 00a6 16F8027B 		ldrb	r7, [r6], #2	@ zero_extendqisi2
 2063 00aa 08F8027B 		strb	r7, [r8], #2
 2064              	.LVL269:
 2065 00ae 9CF80170 		ldrb	r7, [ip, #1]	@ zero_extendqisi2
 2066 00b2 05F8017F 		strb	r7, [r5, #1]!
 2067 00b6 06EB040C 		add	ip, r6, r4
 2068              	.LVL270:
 2069              	.L263:
 2070              		.loc 1 5772 0 discriminator 1
 2071 00ba 16F8017B 		ldrb	r7, [r6], #1	@ zero_extendqisi2
 2072              	.LVL271:
 2073 00be 05F8017F 		strb	r7, [r5, #1]!
 2074 00c2 6645     		cmp	r6, ip
 2075 00c4 F9D1     		bne	.L263
 2076 00c6 1EF8026C 		ldrb	r6, [lr, #-2]	@ zero_extendqisi2
 2077              	.LVL272:
 2078 00ca 7746     		mov	r7, lr
 2079              		.loc 1 5783 0
 2080 00cc 16F00306 		ands	r6, r6, #3
 2081 00d0 A044     		add	r8, r8, r4
 2082              	.LVL273:
 2083 00d2 17F8014B 		ldrb	r4, [r7], #1	@ zero_extendqisi2
 2084              	.LVL274:
 2085 00d6 D2D0     		beq	.L270
 2086              	.L289:
 2087              		.loc 1 5781 0
 2088 00d8 A446     		mov	ip, r4
 2089              		.loc 1 5792 0
 2090 00da 012E     		cmp	r6, #1
 2091              		.loc 1 5781 0
 2092 00dc B946     		mov	r9, r7
 2093              		.loc 1 5791 0
 2094 00de 88F800C0 		strb	ip, [r8]
 2095              		.loc 1 5781 0
 2096 00e2 7746     		mov	r7, lr
 2097              	.LVL275:
 2098              		.loc 1 5792 0
 2099 00e4 63D0     		beq	.L291
 2100              	.LVL276:
 2101              	.L264:
 2102              		.loc 1 5792 0 is_stmt 0 discriminator 1
 2103 00e6 7C78     		ldrb	r4, [r7, #1]	@ zero_extendqisi2
 2104 00e8 88F80140 		strb	r4, [r8, #1]
 2105 00ec 032E     		cmp	r6, #3
 2106 00ee 00F0B080 		beq	.L266
 2107              		.loc 1 5792 0
 2108 00f2 07F10209 		add	r9, r7, #2
 2109 00f6 08F10205 		add	r5, r8, #2
ARM GAS  /tmp/ccrwCQMC.s 			page 38


 2110              	.LVL277:
 2111              	.L265:
 2112              		.loc 1 5794 0 is_stmt 1
 2113 00fa 99F80040 		ldrb	r4, [r9]	@ zero_extendqisi2
 2114              		.loc 1 5551 0
 2115 00fe 3F2C     		cmp	r4, #63
 2116              		.loc 1 5794 0
 2117 0100 09F10107 		add	r7, r9, #1
 2118              	.LVL278:
 2119              		.loc 1 5551 0
 2120 0104 59D9     		bls	.L249
 2121 0106 C0E7     		b	.L292
 2122              	.LVL279:
 2123              	.L268:
 2124              		.loc 1 5457 0
 2125 0108 0F2C     		cmp	r4, #15
 2126 010a 8646     		mov	lr, r0
 2127              		.loc 1 5439 0
 2128 010c 1546     		mov	r5, r2
 2129              	.LVL280:
 2130              		.loc 1 5457 0
 2131 010e B9D8     		bhi	.L238
 2132              	.LVL281:
 2133              	.L290:
 2134              		.loc 1 5459 0
 2135 0110 54B9     		cbnz	r4, .L239
 2136              	.LVL282:
 2137              		.loc 1 5461 0
 2138 0112 9EF80160 		ldrb	r6, [lr, #1]	@ zero_extendqisi2
 2139 0116 26B9     		cbnz	r6, .L240
 2140              	.LVL283:
 2141              	.L241:
 2142 0118 17F8016F 		ldrb	r6, [r7, #1]!	@ zero_extendqisi2
 2143              		.loc 1 5463 0
 2144 011c FF34     		adds	r4, r4, #255
 2145              	.LVL284:
 2146              		.loc 1 5461 0
 2147 011e 002E     		cmp	r6, #0
 2148 0120 FAD0     		beq	.L241
 2149              	.LVL285:
 2150              	.L240:
 2151              		.loc 1 5468 0
 2152 0122 0F36     		adds	r6, r6, #15
 2153 0124 3444     		add	r4, r4, r6
 2154 0126 0137     		adds	r7, r7, #1
 2155              	.LVL286:
 2156              	.L239:
 2157              		.loc 1 5493 0
 2158 0128 3E46     		mov	r6, r7
 2159 012a AE46     		mov	lr, r5
 2160 012c 56F804CB 		ldr	ip, [r6], #4
 2161 0130 4EF804CB 		str	ip, [lr], #4
 2162              	.LVL287:
 2163              		.loc 1 5495 0
 2164 0134 B4F10108 		subs	r8, r4, #1
 2165              	.LVL288:
 2166 0138 3CD0     		beq	.L293
ARM GAS  /tmp/ccrwCQMC.s 			page 39


 2167              		.loc 1 5497 0
 2168 013a B8F1030F 		cmp	r8, #3
 2169 013e 40F29080 		bls	.L243
 2170 0142 053C     		subs	r4, r4, #5
 2171 0144 A408     		lsrs	r4, r4, #2
 2172 0146 04F10209 		add	r9, r4, #2
 2173 014a 05EB8909 		add	r9, r5, r9, lsl #2
 2174              		.loc 1 5494 0
 2175 014e B446     		mov	ip, r6
 2176 0150 7746     		mov	r7, lr
 2177              	.LVL289:
 2178              	.L244:
 2179              		.loc 1 5500 0 discriminator 1
 2180 0152 5CF8045B 		ldr	r5, [ip], #4
 2181              	.LVL290:
 2182 0156 47F8045B 		str	r5, [r7], #4
 2183              	.LVL291:
 2184              		.loc 1 5502 0 discriminator 1
 2185 015a 4F45     		cmp	r7, r9
 2186 015c F9D1     		bne	.L244
 2187 015e 671C     		adds	r7, r4, #1
 2188              	.LVL292:
 2189 0160 C4EB8474 		rsb	r4, r4, r4, lsl #30
 2190 0164 08EB8408 		add	r8, r8, r4, lsl #2
 2191 0168 BF00     		lsls	r7, r7, #2
 2192              		.loc 1 5503 0
 2193 016a B8F10408 		subs	r8, r8, #4
 2194 016e 0EEB0705 		add	r5, lr, r7
 2195 0172 3E44     		add	r6, r6, r7
 2196 0174 00F0A480 		beq	.L294
 2197 0178 06EB080E 		add	lr, r6, r8
 2198              		.loc 1 5501 0
 2199 017c 3746     		mov	r7, r6
 2200              	.LVL293:
 2201              		.loc 1 5503 0
 2202 017e 16F801CB 		ldrb	ip, [r6], #1	@ zero_extendqisi2
 2203              	.LVL294:
 2204 0182 6C1E     		subs	r4, r5, #1
 2205 0184 7645     		cmp	r6, lr
 2206 0186 04F801CF 		strb	ip, [r4, #1]!
 2207 018a 06D0     		beq	.L295
 2208              	.L269:
 2209 018c 3746     		mov	r7, r6
 2210              	.LVL295:
 2211 018e 16F801CB 		ldrb	ip, [r6], #1	@ zero_extendqisi2
 2212              	.LVL296:
 2213 0192 04F801CF 		strb	ip, [r4, #1]!
 2214 0196 7645     		cmp	r6, lr
 2215 0198 F8D1     		bne	.L269
 2216              	.L295:
 2217              	.LVL297:
 2218 019a 4544     		add	r5, r5, r8
 2219              	.LVL298:
 2220 019c 0237     		adds	r7, r7, #2
 2221 019e 50E7     		b	.L236
 2222              	.LVL299:
 2223              	.L288:
ARM GAS  /tmp/ccrwCQMC.s 			page 40


 2224              	.L234:
 2225              		.loc 1 5439 0
 2226 01a0 9046     		mov	r8, r2
 2227              	.LVL300:
 2228              		.loc 1 5792 0
 2229 01a2 012E     		cmp	r6, #1
 2230 01a4 00F10209 		add	r9, r0, #2
 2231              		.loc 1 5791 0
 2232 01a8 88F800C0 		strb	ip, [r8]
 2233              		.loc 1 5792 0
 2234 01ac 9BD1     		bne	.L264
 2235              	.LVL301:
 2236              	.L291:
 2237              		.loc 1 5791 0
 2238 01ae 08F10105 		add	r5, r8, #1
 2239 01b2 A2E7     		b	.L265
 2240              	.LVL302:
 2241              	.L293:
 2242 01b4 0537     		adds	r7, r7, #5
 2243              	.LVL303:
 2244              		.loc 1 5494 0
 2245 01b6 7546     		mov	r5, lr
 2246 01b8 43E7     		b	.L236
 2247              	.LVL304:
 2248              	.L249:
 2249              		.loc 1 5604 0
 2250 01ba 1F2C     		cmp	r4, #31
 2251 01bc 61D9     		bls	.L251
 2252              	.LVL305:
 2253              		.loc 1 5607 0
 2254 01be 14F01F04 		ands	r4, r4, #31
 2255              	.LVL306:
 2256 01c2 09D1     		bne	.L252
 2257              	.LVL307:
 2258              		.loc 1 5609 0
 2259 01c4 3E78     		ldrb	r6, [r7]	@ zero_extendqisi2
 2260 01c6 26B9     		cbnz	r6, .L253
 2261              	.LVL308:
 2262              	.L254:
 2263 01c8 17F8016F 		ldrb	r6, [r7, #1]!	@ zero_extendqisi2
 2264              		.loc 1 5611 0
 2265 01cc FF34     		adds	r4, r4, #255
 2266              	.LVL309:
 2267              		.loc 1 5609 0
 2268 01ce 002E     		cmp	r6, #0
 2269 01d0 FAD0     		beq	.L254
 2270              	.LVL310:
 2271              	.L253:
 2272              		.loc 1 5616 0
 2273 01d2 1F36     		adds	r6, r6, #31
 2274 01d4 3444     		add	r4, r4, r6
 2275 01d6 0137     		adds	r7, r7, #1
 2276              	.LVL311:
 2277              	.L252:
 2278              		.loc 1 5635 0
 2279 01d8 BE46     		mov	lr, r7
 2280 01da 3EF802CB 		ldrh	ip, [lr], #2
ARM GAS  /tmp/ccrwCQMC.s 			page 41


 2281 01de 6FEA9C0C 		mvn	ip, ip, lsr #2
 2282 01e2 AC44     		add	ip, ip, r5
 2283              	.LVL312:
 2284              	.L255:
 2285              		.loc 1 5756 0
 2286 01e4 052C     		cmp	r4, #5
 2287 01e6 7FF65CAF 		bls	.L250
 2288              		.loc 1 5756 0 is_stmt 0 discriminator 1
 2289 01ea A5EB0C06 		sub	r6, r5, ip
 2290 01ee 032E     		cmp	r6, #3
 2291 01f0 7FF757AF 		ble	.L250
 2292              		.loc 1 5759 0 is_stmt 1
 2293 01f4 A846     		mov	r8, r5
 2294 01f6 5CF8046B 		ldr	r6, [ip], #4
 2295              	.LVL313:
 2296 01fa 48F8046B 		str	r6, [r8], #4
 2297              	.LVL314:
 2298 01fe A4F1060A 		sub	r10, r4, #6
 2299 0202 4FEA9A0A 		lsr	r10, r10, #2
 2300 0206 0AF10209 		add	r9, r10, #2
 2301 020a 05EB8909 		add	r9, r5, r9, lsl #2
 2302              		.loc 1 5760 0
 2303 020e 4646     		mov	r6, r8
 2304 0210 023C     		subs	r4, r4, #2
 2305              	.LVL315:
 2306 0212 6546     		mov	r5, ip
 2307              	.LVL316:
 2308              	.L261:
 2309              		.loc 1 5762 0 discriminator 1
 2310 0214 55F8047B 		ldr	r7, [r5], #4
 2311              	.LVL317:
 2312 0218 46F8047B 		str	r7, [r6], #4
 2313              	.LVL318:
 2314              		.loc 1 5764 0 discriminator 1
 2315 021c B145     		cmp	r9, r6
 2316 021e F9D1     		bne	.L261
 2317 0220 0AF10106 		add	r6, r10, #1
 2318              	.LVL319:
 2319 0224 CAEB8A7A 		rsb	r10, r10, r10, lsl #30
 2320 0228 04EB8A05 		add	r5, r4, r10, lsl #2
 2321              	.LVL320:
 2322 022c B600     		lsls	r6, r6, #2
 2323              		.loc 1 5765 0
 2324 022e 043D     		subs	r5, r5, #4
 2325 0230 B044     		add	r8, r8, r6
 2326 0232 0CEB0604 		add	r4, ip, r6
 2327 0236 3FF41AAF 		beq	.L248
 2328 023a 08F1FF36 		add	r6, r8, #-1
 2329 023e 04EB050C 		add	ip, r4, r5
 2330              	.L262:
 2331              	.LVL321:
 2332              		.loc 1 5765 0 is_stmt 0 discriminator 2
 2333 0242 14F8017B 		ldrb	r7, [r4], #1	@ zero_extendqisi2
 2334              	.LVL322:
 2335 0246 06F8017F 		strb	r7, [r6, #1]!
 2336 024a 6445     		cmp	r4, ip
 2337 024c F9D1     		bne	.L262
ARM GAS  /tmp/ccrwCQMC.s 			page 42


 2338 024e A844     		add	r8, r8, r5
 2339 0250 0DE7     		b	.L248
 2340              	.LVL323:
 2341              	.L266:
 2342              		.loc 1 5792 0 is_stmt 1 discriminator 2
 2343 0252 BC78     		ldrb	r4, [r7, #2]	@ zero_extendqisi2
 2344 0254 88F80240 		strb	r4, [r8, #2]
 2345 0258 07F10309 		add	r9, r7, #3
 2346              	.LVL324:
 2347 025c 08F10305 		add	r5, r8, #3
 2348              	.LVL325:
 2349 0260 4BE7     		b	.L265
 2350              	.LVL326:
 2351              	.L243:
 2352 0262 04F1030C 		add	ip, r4, #3
 2353 0266 6744     		add	r7, r7, ip
 2354              	.LVL327:
 2355 0268 0335     		adds	r5, r5, #3
 2356              		.loc 1 5494 0
 2357 026a B446     		mov	ip, r6
 2358              	.LVL328:
 2359              	.L247:
 2360              		.loc 1 5506 0 discriminator 1
 2361 026c 1CF8019B 		ldrb	r9, [ip], #1	@ zero_extendqisi2
 2362              	.LVL329:
 2363 0270 05F8019F 		strb	r9, [r5, #1]!
 2364 0274 BC45     		cmp	ip, r7
 2365 0276 F9D1     		bne	.L247
 2366              	.LVL330:
 2367 0278 3719     		adds	r7, r6, r4
 2368 027a 0EEB0805 		add	r5, lr, r8
 2369              	.LVL331:
 2370              		.loc 1 5506 0 is_stmt 0
 2371 027e 4644     		add	r6, r6, r8
 2372 0280 DFE6     		b	.L236
 2373              	.LVL332:
 2374              	.L251:
 2375              		.loc 1 5643 0 is_stmt 1
 2376 0282 0F2C     		cmp	r4, #15
 2377 0284 1ED9     		bls	.L256
 2378              	.LVL333:
 2379              		.loc 1 5649 0
 2380 0286 4FEAC42C 		lsl	ip, r4, #11
 2381              		.loc 1 5652 0
 2382 028a 14F00704 		ands	r4, r4, #7
 2383              		.loc 1 5649 0
 2384 028e 0CF4804C 		and	ip, ip, #16384
 2385              	.LVL334:
 2386              		.loc 1 5652 0
 2387 0292 09D1     		bne	.L257
 2388              	.LVL335:
 2389              		.loc 1 5654 0
 2390 0294 3E78     		ldrb	r6, [r7]	@ zero_extendqisi2
 2391 0296 26B9     		cbnz	r6, .L258
 2392              	.LVL336:
 2393              	.L259:
 2394 0298 17F8016F 		ldrb	r6, [r7, #1]!	@ zero_extendqisi2
ARM GAS  /tmp/ccrwCQMC.s 			page 43


 2395              		.loc 1 5656 0
 2396 029c FF34     		adds	r4, r4, #255
 2397              	.LVL337:
 2398              		.loc 1 5654 0
 2399 029e 002E     		cmp	r6, #0
 2400 02a0 FAD0     		beq	.L259
 2401              	.LVL338:
 2402              	.L258:
 2403              		.loc 1 5661 0
 2404 02a2 0736     		adds	r6, r6, #7
 2405 02a4 3444     		add	r4, r4, r6
 2406 02a6 0137     		adds	r7, r7, #1
 2407              	.LVL339:
 2408              	.L257:
 2409              		.loc 1 5681 0
 2410 02a8 BE46     		mov	lr, r7
 2411 02aa 3EF8026B 		ldrh	r6, [lr], #2
 2412 02ae 0CEB960C 		add	ip, ip, r6, lsr #2
 2413              	.LVL340:
 2414 02b2 A5EB0C0C 		sub	ip, r5, ip
 2415              	.LVL341:
 2416              		.loc 1 5686 0
 2417 02b6 6545     		cmp	r5, ip
 2418 02b8 13D0     		beq	.L260
 2419              		.loc 1 5688 0
 2420 02ba ACF5804C 		sub	ip, ip, #16384
 2421              	.LVL342:
 2422 02be 91E7     		b	.L255
 2423              	.LVL343:
 2424              	.L294:
 2425 02c0 771C     		adds	r7, r6, #1
 2426 02c2 BEE6     		b	.L236
 2427              	.LVL344:
 2428              	.L256:
 2429              		.loc 1 5713 0
 2430 02c4 3E78     		ldrb	r6, [r7]	@ zero_extendqisi2
 2431 02c6 6FEA9404 		mvn	r4, r4, lsr #2
 2432 02ca A4EB8604 		sub	r4, r4, r6, lsl #2
 2433              		.loc 1 5716 0
 2434 02ce A846     		mov	r8, r5
 2435 02d0 2E5D     		ldrb	r6, [r5, r4]	@ zero_extendqisi2
 2436 02d2 08F8026B 		strb	r6, [r8], #2
 2437              		.loc 1 5713 0
 2438 02d6 2C44     		add	r4, r4, r5
 2439 02d8 07F1010E 		add	lr, r7, #1
 2440              	.LVL345:
 2441              		.loc 1 5716 0
 2442 02dc 6478     		ldrb	r4, [r4, #1]	@ zero_extendqisi2
 2443              	.LVL346:
 2444 02de 6C70     		strb	r4, [r5, #1]
 2445              		.loc 1 5718 0
 2446 02e0 C5E6     		b	.L248
 2447              	.LVL347:
 2448              	.L260:
 2449              		.loc 1 5410 0
 2450 02e2 0144     		add	r1, r1, r0
 2451              	.LVL348:
ARM GAS  /tmp/ccrwCQMC.s 			page 44


 2452              		.loc 1 5799 0
 2453 02e4 AD1A     		subs	r5, r5, r2
 2454              	.LVL349:
 2455              		.loc 1 5800 0
 2456 02e6 7145     		cmp	r1, lr
 2457              		.loc 1 5799 0
 2458 02e8 1D60     		str	r5, [r3]
 2459              		.loc 1 5800 0
 2460 02ea 07D0     		beq	.L271
 2461              		.loc 1 5801 0
 2462 02ec 03D9     		bls	.L272
 2463 02ee 6FF00700 		mvn	r0, #7
 2464              	.LVL350:
 2465              	.L231:
 2466              		.loc 1 5820 0
 2467 02f2 BDE8F087 		pop	{r4, r5, r6, r7, r8, r9, r10, pc}
 2468              	.LVL351:
 2469              	.L272:
 2470              		.loc 1 5801 0
 2471 02f6 6FF00300 		mvn	r0, #3
 2472              	.LVL352:
 2473              		.loc 1 5800 0
 2474 02fa FAE7     		b	.L231
 2475              	.LVL353:
 2476              	.L271:
 2477 02fc 0020     		movs	r0, #0
 2478              	.LVL354:
 2479 02fe F8E7     		b	.L231
 2480              		.cfi_endproc
 2481              	.LFE32:
 2482              		.size	lzo1x_decompress, .-lzo1x_decompress
 2483              		.section	.text.lzo1x_decompress_safe,"ax",%progbits
 2484              		.align	1
 2485              		.p2align 4,,15
 2486              		.global	lzo1x_decompress_safe
 2487              		.syntax unified
 2488              		.thumb
 2489              		.thumb_func
 2490              		.fpu fpv4-sp-d16
 2491              		.type	lzo1x_decompress_safe, %function
 2492              	lzo1x_decompress_safe:
 2493              	.LFB33:
 2494              		.loc 1 5940 0
 2495              		.cfi_startproc
 2496              		@ args = 4, pretend = 0, frame = 0
 2497              		@ frame_needed = 0, uses_anonymous_args = 0
 2498              	.LVL355:
 2499 0000 2DE9F047 		push	{r4, r5, r6, r7, r8, r9, r10, lr}
 2500              		.cfi_def_cfa_offset 32
 2501              		.cfi_offset 4, -32
 2502              		.cfi_offset 5, -28
 2503              		.cfi_offset 6, -24
 2504              		.cfi_offset 7, -20
 2505              		.cfi_offset 8, -16
 2506              		.cfi_offset 9, -12
 2507              		.cfi_offset 10, -8
 2508              		.cfi_offset 14, -4
ARM GAS  /tmp/ccrwCQMC.s 			page 45


 2509              		.loc 1 5953 0
 2510 0004 D3F80090 		ldr	r9, [r3]
 2511              		.loc 1 5951 0
 2512 0008 4618     		adds	r6, r0, r1
 2513              	.LVL356:
 2514              		.loc 1 5978 0
 2515 000a 0025     		movs	r5, #0
 2516              		.loc 1 5983 0
 2517 000c 8642     		cmp	r6, r0
 2518              		.loc 1 5953 0
 2519 000e 02EB090C 		add	ip, r2, r9
 2520              	.LVL357:
 2521              		.loc 1 5978 0
 2522 0012 1D60     		str	r5, [r3]
 2523              	.LVL358:
 2524              		.loc 1 5983 0
 2525 0014 00F0BD81 		beq	.L351
 2526              		.loc 1 5984 0
 2527 0018 0478     		ldrb	r4, [r0]	@ zero_extendqisi2
 2528 001a 112C     		cmp	r4, #17
 2529 001c 52D9     		bls	.L348
 2530              		.loc 1 5986 0
 2531 001e A4F11108 		sub	r8, r4, #17
 2532              		.loc 1 5987 0
 2533 0022 B8F1030F 		cmp	r8, #3
 2534              		.loc 1 5986 0
 2535 0026 4746     		mov	r7, r8
 2536 0028 00F1010E 		add	lr, r0, #1
 2537              	.LVL359:
 2538              		.loc 1 5987 0
 2539 002c 40F3F880 		ble	.L349
 2540              		.loc 1 5989 0
 2541 0030 C145     		cmp	r9, r8
 2542 0032 C0F0B881 		bcc	.L350
 2543              		.loc 1 5989 0 is_stmt 0 discriminator 1
 2544 0036 0139     		subs	r1, r1, #1
 2545              	.LVL360:
 2546 0038 A4F10E07 		sub	r7, r4, #14
 2547              	.LVL361:
 2548 003c B942     		cmp	r1, r7
 2549 003e C0F0A881 		bcc	.L351
 2550 0042 103C     		subs	r4, r4, #16
 2551 0044 2044     		add	r0, r0, r4
 2552              	.LVL362:
 2553 0046 551E     		subs	r5, r2, #1
 2554              		.loc 1 5986 0 is_stmt 1
 2555 0048 7446     		mov	r4, lr
 2556              	.LVL363:
 2557              	.L301:
 2558              		.loc 1 5990 0 discriminator 1
 2559 004a 14F8017B 		ldrb	r7, [r4], #1	@ zero_extendqisi2
 2560              	.LVL364:
 2561 004e 05F8017F 		strb	r7, [r5, #1]!
 2562 0052 8442     		cmp	r4, r0
 2563 0054 F9D1     		bne	.L301
 2564 0056 0EEB0800 		add	r0, lr, r8
 2565 005a 02EB0801 		add	r1, r2, r8
ARM GAS  /tmp/ccrwCQMC.s 			page 46


 2566              	.LVL365:
 2567              	.L302:
 2568              		.loc 1 6063 0
 2569 005e 0478     		ldrb	r4, [r0]	@ zero_extendqisi2
 2570              	.LVL366:
 2571              		.loc 1 6064 0
 2572 0060 0F2C     		cmp	r4, #15
 2573 0062 40F2FB80 		bls	.L317
 2574              		.loc 1 6092 0
 2575 0066 3F2C     		cmp	r4, #63
 2576              		.loc 1 6063 0
 2577 0068 00F10105 		add	r5, r0, #1
 2578              	.LVL367:
 2579              		.loc 1 6092 0
 2580 006c 36D9     		bls	.L321
 2581              	.LVL368:
 2582              	.L381:
 2583              		.loc 1 6115 0
 2584 006e C4F38207 		ubfx	r7, r4, #2, #3
 2585              		.loc 1 6116 0
 2586 0072 2878     		ldrb	r0, [r5]	@ zero_extendqisi2
 2587 0074 FF43     		mvns	r7, r7
 2588 0076 A7EBC007 		sub	r7, r7, r0, lsl #3
 2589 007a 0F44     		add	r7, r7, r1
 2590              		.loc 1 6117 0
 2591 007c 6409     		lsrs	r4, r4, #5
 2592              		.loc 1 6141 0
 2593 007e BA42     		cmp	r2, r7
 2594              		.loc 1 6116 0
 2595 0080 05F10100 		add	r0, r5, #1
 2596              	.LVL369:
 2597              		.loc 1 6117 0
 2598 0084 04F1FF38 		add	r8, r4, #-1
 2599              	.LVL370:
 2600              		.loc 1 6141 0
 2601 0088 00F27E81 		bhi	.L318
 2602              		.loc 1 6141 0 is_stmt 0 discriminator 1
 2603 008c B942     		cmp	r1, r7
 2604 008e 40F27B81 		bls	.L318
 2605              		.loc 1 6141 0 discriminator 2
 2606 0092 0134     		adds	r4, r4, #1
 2607 0094 ACEB0105 		sub	r5, ip, r1
 2608 0098 A542     		cmp	r5, r4
 2609 009a C0F07081 		bcc	.L379
 2610              	.LVL371:
 2611              	.L322:
 2612              		.loc 1 6312 0 is_stmt 1
 2613 009e 3D46     		mov	r5, r7
 2614 00a0 0C46     		mov	r4, r1
 2615 00a2 15F802EB 		ldrb	lr, [r5], #2	@ zero_extendqisi2
 2616 00a6 04F802EB 		strb	lr, [r4], #2
 2617              	.LVL372:
 2618 00aa 7F78     		ldrb	r7, [r7, #1]	@ zero_extendqisi2
 2619 00ac 01F8017F 		strb	r7, [r1, #1]!
 2620 00b0 05EB080E 		add	lr, r5, r8
 2621              	.LVL373:
 2622              	.L339:
ARM GAS  /tmp/ccrwCQMC.s 			page 47


 2623              		.loc 1 6313 0 discriminator 1
 2624 00b4 15F8017B 		ldrb	r7, [r5], #1	@ zero_extendqisi2
 2625              	.LVL374:
 2626 00b8 01F8017F 		strb	r7, [r1, #1]!
 2627 00bc AE45     		cmp	lr, r5
 2628 00be F9D1     		bne	.L339
 2629 00c0 4444     		add	r4, r4, r8
 2630 00c2 E6E0     		b	.L320
 2631              	.LVL375:
 2632              	.L348:
 2633              		.loc 1 5980 0
 2634 00c4 1146     		mov	r1, r2
 2635              	.LVL376:
 2636              	.L298:
 2637              		.loc 1 5996 0
 2638 00c6 341A     		subs	r4, r6, r0
 2639 00c8 022C     		cmp	r4, #2
 2640 00ca 40F2FA80 		bls	.L378
 2641              		.loc 1 5997 0
 2642 00ce 0478     		ldrb	r4, [r0]	@ zero_extendqisi2
 2643              		.loc 1 5998 0
 2644 00d0 0F2C     		cmp	r4, #15
 2645              		.loc 1 5997 0
 2646 00d2 00F10105 		add	r5, r0, #1
 2647              		.loc 1 5998 0
 2648 00d6 51D9     		bls	.L380
 2649              	.L304:
 2650              		.loc 1 6092 0
 2651 00d8 3F2C     		cmp	r4, #63
 2652 00da C8D8     		bhi	.L381
 2653              	.L321:
 2654              		.loc 1 6145 0
 2655 00dc 1F2C     		cmp	r4, #31
 2656 00de 40F20681 		bls	.L323
 2657              	.LVL377:
 2658              		.loc 1 6148 0
 2659 00e2 14F01F08 		ands	r8, r4, #31
 2660              	.LVL378:
 2661 00e6 00F0E280 		beq	.L324
 2662              	.L325:
 2663              	.LVL379:
 2664              		.loc 1 6176 0
 2665 00ea 2846     		mov	r0, r5
 2666 00ec 30F8027B 		ldrh	r7, [r0], #2
 2667 00f0 6FEA9707 		mvn	r7, r7, lsr #2
 2668 00f4 0F44     		add	r7, r7, r1
 2669              	.LVL380:
 2670              	.L328:
 2671              		.loc 1 6269 0
 2672 00f6 BA42     		cmp	r2, r7
 2673 00f8 00F24681 		bhi	.L318
 2674              		.loc 1 6269 0 is_stmt 0 discriminator 1
 2675 00fc B942     		cmp	r1, r7
 2676 00fe 40F24381 		bls	.L318
 2677              		.loc 1 6269 0 discriminator 2
 2678 0102 ACEB0104 		sub	r4, ip, r1
 2679 0106 08F10205 		add	r5, r8, #2
ARM GAS  /tmp/ccrwCQMC.s 			page 48


 2680 010a AC42     		cmp	r4, r5
 2681 010c C0F03781 		bcc	.L379
 2682              		.loc 1 6297 0 is_stmt 1
 2683 0110 B8F1050F 		cmp	r8, #5
 2684 0114 C3D9     		bls	.L322
 2685              		.loc 1 6297 0 is_stmt 0 discriminator 1
 2686 0116 CC1B     		subs	r4, r1, r7
 2687 0118 032C     		cmp	r4, #3
 2688 011a C0DD     		ble	.L322
 2689              		.loc 1 6300 0 is_stmt 1
 2690 011c 8A46     		mov	r10, r1
 2691 011e 57F8044B 		ldr	r4, [r7], #4
 2692              	.LVL381:
 2693 0122 4AF8044B 		str	r4, [r10], #4
 2694              	.LVL382:
 2695 0126 A8F10609 		sub	r9, r8, #6
 2696 012a 4FEA9909 		lsr	r9, r9, #2
 2697 012e 09F1020E 		add	lr, r9, #2
 2698 0132 01EB8E0E 		add	lr, r1, lr, lsl #2
 2699              		.loc 1 6301 0
 2700 0136 5546     		mov	r5, r10
 2701 0138 A8F10208 		sub	r8, r8, #2
 2702              	.LVL383:
 2703 013c 3946     		mov	r1, r7
 2704              	.LVL384:
 2705              	.L337:
 2706              		.loc 1 6303 0 discriminator 1
 2707 013e 51F8044B 		ldr	r4, [r1], #4
 2708              	.LVL385:
 2709 0142 45F8044B 		str	r4, [r5], #4
 2710              	.LVL386:
 2711              		.loc 1 6305 0 discriminator 1
 2712 0146 7545     		cmp	r5, lr
 2713 0148 F9D1     		bne	.L337
 2714 014a 09F10101 		add	r1, r9, #1
 2715              	.LVL387:
 2716 014e C9EB8979 		rsb	r9, r9, r9, lsl #30
 2717 0152 08EB8908 		add	r8, r8, r9, lsl #2
 2718 0156 8900     		lsls	r1, r1, #2
 2719              		.loc 1 6306 0
 2720 0158 B8F10408 		subs	r8, r8, #4
 2721 015c 0AEB0104 		add	r4, r10, r1
 2722 0160 3944     		add	r1, r1, r7
 2723 0162 00F09680 		beq	.L320
 2724 0166 651E     		subs	r5, r4, #1
 2725              	.LVL388:
 2726 0168 01EB080E 		add	lr, r1, r8
 2727              	.L338:
 2728              	.LVL389:
 2729              		.loc 1 6306 0 is_stmt 0 discriminator 2
 2730 016c 11F8017B 		ldrb	r7, [r1], #1	@ zero_extendqisi2
 2731              	.LVL390:
 2732 0170 05F8017F 		strb	r7, [r5, #1]!
 2733 0174 7145     		cmp	r1, lr
 2734 0176 F9D1     		bne	.L338
 2735 0178 4444     		add	r4, r4, r8
 2736 017a 8AE0     		b	.L320
ARM GAS  /tmp/ccrwCQMC.s 			page 49


 2737              	.LVL391:
 2738              	.L380:
 2739              		.loc 1 6000 0 is_stmt 1
 2740 017c 84B9     		cbnz	r4, .L306
 2741 017e 00F10130 		add	r0, r0, #16843009
 2742 0182 07E0     		b	.L308
 2743              	.LVL392:
 2744              	.L309:
 2745              		.loc 1 6006 0
 2746 0184 A842     		cmp	r0, r5
 2747              		.loc 1 6004 0
 2748 0186 04F1FF04 		add	r4, r4, #255
 2749              	.LVL393:
 2750              		.loc 1 6006 0
 2751 018a 00F09A80 		beq	.L378
 2752              		.loc 1 6007 0
 2753 018e AE42     		cmp	r6, r5
 2754 0190 00F09780 		beq	.L378
 2755              	.LVL394:
 2756              	.L308:
 2757              		.loc 1 6002 0
 2758 0194 15F8017B 		ldrb	r7, [r5], #1	@ zero_extendqisi2
 2759              	.LVL395:
 2760 0198 002F     		cmp	r7, #0
 2761 019a F3D0     		beq	.L309
 2762              	.LVL396:
 2763              		.loc 1 6009 0
 2764 019c 0F37     		adds	r7, r7, #15
 2765              	.LVL397:
 2766 019e 3C44     		add	r4, r4, r7
 2767              	.LVL398:
 2768              	.L306:
 2769              		.loc 1 6011 0
 2770 01a0 04F10308 		add	r8, r4, #3
 2771 01a4 ACEB0100 		sub	r0, ip, r1
 2772 01a8 4045     		cmp	r0, r8
 2773 01aa C0F0E880 		bcc	.L379
 2774              		.loc 1 6011 0 is_stmt 0 discriminator 1
 2775 01ae 701B     		subs	r0, r6, r5
 2776 01b0 A71D     		adds	r7, r4, #6
 2777 01b2 B842     		cmp	r0, r7
 2778 01b4 C0F08580 		bcc	.L378
 2779              		.loc 1 6034 0 is_stmt 1
 2780 01b8 2846     		mov	r0, r5
 2781 01ba 0F46     		mov	r7, r1
 2782 01bc 50F804EB 		ldr	lr, [r0], #4
 2783 01c0 47F804EB 		str	lr, [r7], #4
 2784              	.LVL399:
 2785              		.loc 1 6036 0
 2786 01c4 B4F1010E 		subs	lr, r4, #1
 2787              	.LVL400:
 2788 01c8 00F08180 		beq	.L352
 2789              		.loc 1 6038 0
 2790 01cc BEF1030F 		cmp	lr, #3
 2791 01d0 40F2A680 		bls	.L312
 2792 01d4 053C     		subs	r4, r4, #5
 2793 01d6 A408     		lsrs	r4, r4, #2
ARM GAS  /tmp/ccrwCQMC.s 			page 50


 2794 01d8 04F10209 		add	r9, r4, #2
 2795 01dc 01EB8909 		add	r9, r1, r9, lsl #2
 2796              		.loc 1 6035 0
 2797 01e0 8046     		mov	r8, r0
 2798 01e2 3D46     		mov	r5, r7
 2799              	.LVL401:
 2800              	.L313:
 2801              		.loc 1 6041 0 discriminator 1
 2802 01e4 58F8041B 		ldr	r1, [r8], #4
 2803              	.LVL402:
 2804 01e8 45F8041B 		str	r1, [r5], #4
 2805              	.LVL403:
 2806              		.loc 1 6043 0 discriminator 1
 2807 01ec A945     		cmp	r9, r5
 2808 01ee F9D1     		bne	.L313
 2809 01f0 651C     		adds	r5, r4, #1
 2810              	.LVL404:
 2811 01f2 C4EB8474 		rsb	r4, r4, r4, lsl #30
 2812 01f6 0EEB840E 		add	lr, lr, r4, lsl #2
 2813 01fa AD00     		lsls	r5, r5, #2
 2814              		.loc 1 6044 0
 2815 01fc BEF1040E 		subs	lr, lr, #4
 2816 0200 07EB0501 		add	r1, r7, r5
 2817 0204 2844     		add	r0, r0, r5
 2818 0206 3FF42AAF 		beq	.L302
 2819 020a 4C1E     		subs	r4, r1, #1
 2820 020c 00EB0E07 		add	r7, r0, lr
 2821              	.LVL405:
 2822              	.L314:
 2823              		.loc 1 6044 0 is_stmt 0 discriminator 2
 2824 0210 10F8015B 		ldrb	r5, [r0], #1	@ zero_extendqisi2
 2825              	.LVL406:
 2826 0214 04F8015F 		strb	r5, [r4, #1]!
 2827 0218 8742     		cmp	r7, r0
 2828 021a F9D1     		bne	.L314
 2829              	.LVL407:
 2830 021c 7144     		add	r1, r1, lr
 2831              	.LVL408:
 2832 021e 1EE7     		b	.L302
 2833              	.LVL409:
 2834              	.L349:
 2835              		.loc 1 6327 0 is_stmt 1
 2836 0220 1146     		mov	r1, r2
 2837              	.LVL410:
 2838              		.loc 1 5980 0
 2839 0222 1446     		mov	r4, r2
 2840              	.LVL411:
 2841              	.L299:
 2842              		.loc 1 6328 0
 2843 0224 ACEB0100 		sub	r0, ip, r1
 2844 0228 B842     		cmp	r0, r7
 2845 022a C0F0A880 		bcc	.L379
 2846              		.loc 1 6328 0 is_stmt 0 discriminator 1
 2847 022e A6EB0E00 		sub	r0, r6, lr
 2848 0232 FD1C     		adds	r5, r7, #3
 2849 0234 A842     		cmp	r0, r5
 2850 0236 44D3     		bcc	.L378
ARM GAS  /tmp/ccrwCQMC.s 			page 51


 2851              	.LVL412:
 2852              		.loc 1 6332 0 is_stmt 1
 2853 0238 9EF80010 		ldrb	r1, [lr]	@ zero_extendqisi2
 2854              	.LVL413:
 2855 023c 2170     		strb	r1, [r4]
 2856              		.loc 1 6333 0
 2857 023e 012F     		cmp	r7, #1
 2858 0240 4AD0     		beq	.L382
 2859              	.LVL414:
 2860              		.loc 1 6333 0 is_stmt 0 discriminator 1
 2861 0242 9EF80110 		ldrb	r1, [lr, #1]	@ zero_extendqisi2
 2862 0246 6170     		strb	r1, [r4, #1]
 2863 0248 032F     		cmp	r7, #3
 2864 024a 49D0     		beq	.L345
 2865              		.loc 1 6333 0
 2866 024c 0EF1020E 		add	lr, lr, #2
 2867              	.LVL415:
 2868 0250 A11C     		adds	r1, r4, #2
 2869              	.LVL416:
 2870              	.L344:
 2871              		.loc 1 6335 0 is_stmt 1
 2872 0252 0EF10105 		add	r5, lr, #1
 2873              	.LVL417:
 2874 0256 9EF80040 		ldrb	r4, [lr]	@ zero_extendqisi2
 2875              	.LVL418:
 2876              		.loc 1 6091 0
 2877 025a 3DE7     		b	.L304
 2878              	.LVL419:
 2879              	.L317:
 2880              		.loc 1 6083 0
 2881 025c 4778     		ldrb	r7, [r0, #1]	@ zero_extendqisi2
 2882 025e 6FF40065 		mvn	r5, #2048
 2883 0262 A5EB9404 		sub	r4, r5, r4, lsr #2
 2884              	.LVL420:
 2885 0266 A4EB8704 		sub	r4, r4, r7, lsl #2
 2886 026a 0C44     		add	r4, r4, r1
 2887              		.loc 1 6085 0
 2888 026c A242     		cmp	r2, r4
 2889              		.loc 1 6083 0
 2890 026e 00F10200 		add	r0, r0, #2
 2891              	.LVL421:
 2892              		.loc 1 6085 0
 2893 0272 00F28980 		bhi	.L318
 2894              		.loc 1 6085 0 is_stmt 0 discriminator 1
 2895 0276 A142     		cmp	r1, r4
 2896 0278 40F28680 		bls	.L318
 2897              		.loc 1 6085 0 discriminator 2
 2898 027c ACEB0105 		sub	r5, ip, r1
 2899 0280 022D     		cmp	r5, #2
 2900 0282 7CD9     		bls	.L379
 2901              	.LVL422:
 2902              		.loc 1 6086 0 is_stmt 1
 2903 0284 2578     		ldrb	r5, [r4]	@ zero_extendqisi2
 2904 0286 0D70     		strb	r5, [r1]
 2905              	.LVL423:
 2906 0288 6578     		ldrb	r5, [r4, #1]	@ zero_extendqisi2
 2907 028a 4D70     		strb	r5, [r1, #1]
ARM GAS  /tmp/ccrwCQMC.s 			page 52


 2908 028c A478     		ldrb	r4, [r4, #2]	@ zero_extendqisi2
 2909              	.LVL424:
 2910 028e 8C70     		strb	r4, [r1, #2]
 2911 0290 CC1C     		adds	r4, r1, #3
 2912              	.LVL425:
 2913              	.L320:
 2914 0292 10F8027C 		ldrb	r7, [r0, #-2]	@ zero_extendqisi2
 2915              	.LVL426:
 2916              		.loc 1 6324 0
 2917 0296 17F00307 		ands	r7, r7, #3
 2918              	.LVL427:
 2919 029a 1AD1     		bne	.L340
 2920 029c 2146     		mov	r1, r4
 2921 029e 12E7     		b	.L298
 2922              	.LVL428:
 2923              	.L327:
 2924              		.loc 1 6152 0
 2925 02a0 08F1FF08 		add	r8, r8, #255
 2926              	.LVL429:
 2927              		.loc 1 6154 0
 2928 02a4 18F5807F 		cmn	r8, #256
 2929 02a8 69D0     		beq	.L379
 2930              		.loc 1 6155 0
 2931 02aa AE42     		cmp	r6, r5
 2932 02ac 09D0     		beq	.L378
 2933              	.LVL430:
 2934              	.L324:
 2935              		.loc 1 6150 0
 2936 02ae 15F8010B 		ldrb	r0, [r5], #1	@ zero_extendqisi2
 2937              	.LVL431:
 2938 02b2 0028     		cmp	r0, #0
 2939 02b4 F4D0     		beq	.L327
 2940              	.LVL432:
 2941              		.loc 1 6158 0
 2942 02b6 741B     		subs	r4, r6, r5
 2943              		.loc 1 6157 0
 2944 02b8 1F30     		adds	r0, r0, #31
 2945              	.LVL433:
 2946              		.loc 1 6158 0
 2947 02ba 012C     		cmp	r4, #1
 2948              		.loc 1 6157 0
 2949 02bc 8044     		add	r8, r8, r0
 2950              	.LVL434:
 2951              		.loc 1 6158 0
 2952 02be 3FF614AF 		bhi	.L325
 2953              	.LVL435:
 2954              	.L378:
 2955 02c2 891A     		subs	r1, r1, r2
 2956              	.L297:
 2957              		.loc 1 6346 0
 2958 02c4 1960     		str	r1, [r3]
 2959              		.loc 1 6347 0
 2960 02c6 6FF00300 		mvn	r0, #3
 2961              	.L296:
 2962              		.loc 1 6361 0
 2963 02ca BDE8F087 		pop	{r4, r5, r6, r7, r8, r9, r10, pc}
 2964              	.LVL436:
ARM GAS  /tmp/ccrwCQMC.s 			page 53


 2965              	.L352:
 2966              		.loc 1 6035 0
 2967 02ce 3946     		mov	r1, r7
 2968 02d0 C5E6     		b	.L302
 2969              	.LVL437:
 2970              	.L340:
 2971              		.loc 1 6322 0
 2972 02d2 8646     		mov	lr, r0
 2973 02d4 2146     		mov	r1, r4
 2974 02d6 A5E7     		b	.L299
 2975              	.LVL438:
 2976              	.L382:
 2977              		.loc 1 6332 0
 2978 02d8 0EF1010E 		add	lr, lr, #1
 2979              	.LVL439:
 2980 02dc 611C     		adds	r1, r4, #1
 2981 02de B8E7     		b	.L344
 2982              	.LVL440:
 2983              	.L345:
 2984              		.loc 1 6333 0 discriminator 2
 2985 02e0 9EF80210 		ldrb	r1, [lr, #2]	@ zero_extendqisi2
 2986 02e4 A170     		strb	r1, [r4, #2]
 2987 02e6 0EF1030E 		add	lr, lr, #3
 2988              	.LVL441:
 2989 02ea E11C     		adds	r1, r4, #3
 2990              	.LVL442:
 2991 02ec B1E7     		b	.L344
 2992              	.LVL443:
 2993              	.L323:
 2994              		.loc 1 6184 0
 2995 02ee 0F2C     		cmp	r4, #15
 2996 02f0 23D8     		bhi	.L383
 2997              		.loc 1 6254 0
 2998 02f2 2878     		ldrb	r0, [r5]	@ zero_extendqisi2
 2999 02f4 6FEA9407 		mvn	r7, r4, lsr #2
 3000 02f8 A7EB8007 		sub	r7, r7, r0, lsl #2
 3001 02fc 0F44     		add	r7, r7, r1
 3002              		.loc 1 6256 0
 3003 02fe BA42     		cmp	r2, r7
 3004              		.loc 1 6254 0
 3005 0300 05F10100 		add	r0, r5, #1
 3006              	.LVL444:
 3007              		.loc 1 6256 0
 3008 0304 40D8     		bhi	.L318
 3009              		.loc 1 6256 0 is_stmt 0 discriminator 1
 3010 0306 B942     		cmp	r1, r7
 3011 0308 3ED9     		bls	.L318
 3012              		.loc 1 6256 0 discriminator 2
 3013 030a ACEB0104 		sub	r4, ip, r1
 3014 030e 012C     		cmp	r4, #1
 3015 0310 35D9     		bls	.L379
 3016              	.LVL445:
 3017              		.loc 1 6257 0 is_stmt 1
 3018 0312 0C46     		mov	r4, r1
 3019 0314 3D78     		ldrb	r5, [r7]	@ zero_extendqisi2
 3020 0316 04F8025B 		strb	r5, [r4], #2
 3021              	.LVL446:
ARM GAS  /tmp/ccrwCQMC.s 			page 54


 3022 031a 7D78     		ldrb	r5, [r7, #1]	@ zero_extendqisi2
 3023 031c 4D70     		strb	r5, [r1, #1]
 3024              		.loc 1 6259 0
 3025 031e B8E7     		b	.L320
 3026              	.LVL447:
 3027              	.L312:
 3028 0320 0331     		adds	r1, r1, #3
 3029 0322 4544     		add	r5, r5, r8
 3030              		.loc 1 6035 0
 3031 0324 0446     		mov	r4, r0
 3032              	.LVL448:
 3033              	.L316:
 3034              		.loc 1 6047 0 discriminator 1
 3035 0326 14F8018B 		ldrb	r8, [r4], #1	@ zero_extendqisi2
 3036              	.LVL449:
 3037 032a 01F8018F 		strb	r8, [r1, #1]!
 3038 032e A542     		cmp	r5, r4
 3039 0330 F9D1     		bne	.L316
 3040 0332 07EB0E01 		add	r1, r7, lr
 3041 0336 7044     		add	r0, r0, lr
 3042 0338 91E6     		b	.L302
 3043              	.LVL450:
 3044              	.L383:
 3045              		.loc 1 6193 0
 3046 033a 14F00708 		ands	r8, r4, #7
 3047              	.LVL451:
 3048 033e 14D0     		beq	.L330
 3049              	.L331:
 3050              		.loc 1 6222 0
 3051 0340 2846     		mov	r0, r5
 3052              		.loc 1 6190 0
 3053 0342 E702     		lsls	r7, r4, #11
 3054              		.loc 1 6222 0
 3055 0344 30F8024B 		ldrh	r4, [r0], #2
 3056              		.loc 1 6190 0
 3057 0348 07F48047 		and	r7, r7, #16384
 3058              		.loc 1 6222 0
 3059 034c 07EB9407 		add	r7, r7, r4, lsr #2
 3060 0350 CF1B     		subs	r7, r1, r7
 3061              	.LVL452:
 3062              		.loc 1 6227 0
 3063 0352 B942     		cmp	r1, r7
 3064 0354 1FD0     		beq	.L334
 3065              		.loc 1 6229 0
 3066 0356 A7F58047 		sub	r7, r7, #16384
 3067              	.LVL453:
 3068 035a CCE6     		b	.L328
 3069              	.LVL454:
 3070              	.L333:
 3071              		.loc 1 6197 0
 3072 035c 08F1FF08 		add	r8, r8, #255
 3073              	.LVL455:
 3074              		.loc 1 6199 0
 3075 0360 18F5807F 		cmn	r8, #256
 3076 0364 0BD0     		beq	.L379
 3077              		.loc 1 6200 0
 3078 0366 AE42     		cmp	r6, r5
ARM GAS  /tmp/ccrwCQMC.s 			page 55


 3079 0368 ABD0     		beq	.L378
 3080              	.LVL456:
 3081              	.L330:
 3082              		.loc 1 6195 0
 3083 036a 15F8010B 		ldrb	r0, [r5], #1	@ zero_extendqisi2
 3084              	.LVL457:
 3085 036e 0028     		cmp	r0, #0
 3086 0370 F4D0     		beq	.L333
 3087              	.LVL458:
 3088              		.loc 1 6203 0
 3089 0372 771B     		subs	r7, r6, r5
 3090              		.loc 1 6202 0
 3091 0374 0730     		adds	r0, r0, #7
 3092              	.LVL459:
 3093              		.loc 1 6203 0
 3094 0376 012F     		cmp	r7, #1
 3095              		.loc 1 6202 0
 3096 0378 8044     		add	r8, r8, r0
 3097              	.LVL460:
 3098              		.loc 1 6203 0
 3099 037a E1D8     		bhi	.L331
 3100              		.loc 1 6345 0
 3101 037c A1E7     		b	.L378
 3102              	.LVL461:
 3103              	.L379:
 3104 037e 891A     		subs	r1, r1, r2
 3105              	.L300:
 3106              		.loc 1 6352 0
 3107 0380 1960     		str	r1, [r3]
 3108              		.loc 1 6353 0
 3109 0382 6FF00400 		mvn	r0, #4
 3110 0386 A0E7     		b	.L296
 3111              	.LVL462:
 3112              	.L318:
 3113              		.loc 1 6358 0
 3114 0388 891A     		subs	r1, r1, r2
 3115 038a 1960     		str	r1, [r3]
 3116              		.loc 1 6359 0
 3117 038c 6FF00500 		mvn	r0, #5
 3118 0390 9BE7     		b	.L296
 3119              	.LVL463:
 3120              	.L351:
 3121              		.loc 1 6345 0
 3122 0392 2946     		mov	r1, r5
 3123 0394 96E7     		b	.L297
 3124              	.LVL464:
 3125              	.L334:
 3126              		.loc 1 6340 0
 3127 0396 891A     		subs	r1, r1, r2
 3128              	.LVL465:
 3129              		.loc 1 6341 0
 3130 0398 8642     		cmp	r6, r0
 3131              		.loc 1 6340 0
 3132 039a 1960     		str	r1, [r3]
 3133              		.loc 1 6341 0
 3134 039c 08D0     		beq	.L353
 3135              		.loc 1 6342 0
ARM GAS  /tmp/ccrwCQMC.s 			page 56


 3136 039e 04D9     		bls	.L354
 3137 03a0 6FF00700 		mvn	r0, #7
 3138 03a4 91E7     		b	.L296
 3139              	.LVL466:
 3140              	.L350:
 3141              		.loc 1 6351 0
 3142 03a6 2946     		mov	r1, r5
 3143              	.LVL467:
 3144 03a8 EAE7     		b	.L300
 3145              	.LVL468:
 3146              	.L354:
 3147              		.loc 1 6342 0
 3148 03aa 6FF00300 		mvn	r0, #3
 3149 03ae 8CE7     		b	.L296
 3150              	.L353:
 3151              		.loc 1 6341 0
 3152 03b0 0020     		movs	r0, #0
 3153 03b2 8AE7     		b	.L296
 3154              		.cfi_endproc
 3155              	.LFE33:
 3156              		.size	lzo1x_decompress_safe, .-lzo1x_decompress_safe
 3157              		.section	.rodata.lzo_copyright_,"a",%progbits
 3158              		.align	2
 3159              		.set	.LANCHOR0,. + 0
 3160              		.type	lzo_copyright_, %object
 3161              		.size	lzo_copyright_, 5
 3162              	lzo_copyright_:
 3163 0000 322E3130 		.ascii	"2.10\000"
 3163      00
 3164              		.section	.rodata.lzo_version_date_,"a",%progbits
 3165              		.align	2
 3166              		.set	.LANCHOR2,. + 0
 3167              		.type	lzo_version_date_, %object
 3168              		.size	lzo_version_date_, 12
 3169              	lzo_version_date_:
 3170 0000 4D617220 		.ascii	"Mar 01 2017\000"
 3170      30312032 
 3170      30313700 
 3171              		.section	.rodata.lzo_version_string_,"a",%progbits
 3172              		.align	2
 3173              		.set	.LANCHOR1,. + 0
 3174              		.type	lzo_version_string_, %object
 3175              		.size	lzo_version_string_, 5
 3176              	lzo_version_string_:
 3177 0000 322E3130 		.ascii	"2.10\000"
 3177      00
 3178              		.text
 3179              	.Letext0:
 3180              		.file 2 "lzo/lzodefs.h"
 3181              		.file 3 "lzo/lzoconf.h"
 3182              		.file 4 "/usr/arm-none-eabi/include/sys/lock.h"
 3183              		.file 5 "/usr/arm-none-eabi/include/sys/_types.h"
 3184              		.file 6 "/usr/lib/gcc/arm-none-eabi/7.3.1/include/stddef.h"
 3185              		.file 7 "/usr/arm-none-eabi/include/sys/reent.h"
 3186              		.file 8 "<built-in>"
 3187              		.file 9 "/usr/arm-none-eabi/include/string.h"
 3188              		.section	.debug_info,"",%progbits
ARM GAS  /tmp/ccrwCQMC.s 			page 57


 3189              	.Ldebug_info0:
 3190 0000 5E180000 		.4byte	0x185e
 3191 0004 0400     		.2byte	0x4
 3192 0006 00000000 		.4byte	.Ldebug_abbrev0
 3193 000a 04       		.byte	0x4
 3194 000b 01       		.uleb128 0x1
 3195 000c A6020000 		.4byte	.LASF253
 3196 0010 0C       		.byte	0xc
 3197 0011 4D070000 		.4byte	.LASF254
 3198 0015 B0060000 		.4byte	.LASF255
 3199 0019 E0010000 		.4byte	.Ldebug_ranges0+0x1e0
 3200 001d 00000000 		.4byte	0
 3201 0021 00000000 		.4byte	.Ldebug_line0
 3202 0025 02       		.uleb128 0x2
 3203 0026 01       		.byte	0x1
 3204 0027 06       		.byte	0x6
 3205 0028 710A0000 		.4byte	.LASF0
 3206 002c 02       		.uleb128 0x2
 3207 002d 01       		.byte	0x1
 3208 002e 08       		.byte	0x8
 3209 002f F2080000 		.4byte	.LASF1
 3210 0033 03       		.uleb128 0x3
 3211 0034 2C000000 		.4byte	0x2c
 3212 0038 04       		.uleb128 0x4
 3213 0039 2C000000 		.4byte	0x2c
 3214 003d 02       		.uleb128 0x2
 3215 003e 02       		.byte	0x2
 3216 003f 05       		.byte	0x5
 3217 0040 3A070000 		.4byte	.LASF2
 3218 0044 02       		.uleb128 0x2
 3219 0045 02       		.byte	0x2
 3220 0046 07       		.byte	0x7
 3221 0047 840A0000 		.4byte	.LASF3
 3222 004b 02       		.uleb128 0x2
 3223 004c 04       		.byte	0x4
 3224 004d 05       		.byte	0x5
 3225 004e 44070000 		.4byte	.LASF4
 3226 0052 02       		.uleb128 0x2
 3227 0053 04       		.byte	0x4
 3228 0054 07       		.byte	0x7
 3229 0055 94080000 		.4byte	.LASF5
 3230 0059 02       		.uleb128 0x2
 3231 005a 08       		.byte	0x8
 3232 005b 05       		.byte	0x5
 3233 005c 97050000 		.4byte	.LASF6
 3234 0060 02       		.uleb128 0x2
 3235 0061 08       		.byte	0x8
 3236 0062 07       		.byte	0x7
 3237 0063 E8030000 		.4byte	.LASF7
 3238 0067 05       		.uleb128 0x5
 3239 0068 04       		.byte	0x4
 3240 0069 05       		.byte	0x5
 3241 006a 696E7400 		.ascii	"int\000"
 3242 006e 02       		.uleb128 0x2
 3243 006f 04       		.byte	0x4
 3244 0070 07       		.byte	0x7
 3245 0071 FC000000 		.4byte	.LASF8
ARM GAS  /tmp/ccrwCQMC.s 			page 58


 3246 0075 06       		.uleb128 0x6
 3247 0076 67000000 		.4byte	0x67
 3248 007a 85000000 		.4byte	0x85
 3249 007e 07       		.uleb128 0x7
 3250 007f 6E000000 		.4byte	0x6e
 3251 0083 00       		.byte	0
 3252 0084 00       		.byte	0
 3253 0085 08       		.uleb128 0x8
 3254 0086 33060000 		.4byte	.LASF9
 3255 008a 02       		.byte	0x2
 3256 008b DA07     		.2byte	0x7da
 3257 008d 75000000 		.4byte	0x75
 3258 0091 08       		.uleb128 0x8
 3259 0092 3E060000 		.4byte	.LASF10
 3260 0096 02       		.byte	0x2
 3261 0097 DE07     		.2byte	0x7de
 3262 0099 75000000 		.4byte	0x75
 3263 009d 08       		.uleb128 0x8
 3264 009e 49060000 		.4byte	.LASF11
 3265 00a2 02       		.byte	0x2
 3266 00a3 7F08     		.2byte	0x87f
 3267 00a5 75000000 		.4byte	0x75
 3268 00a9 08       		.uleb128 0x8
 3269 00aa 54060000 		.4byte	.LASF12
 3270 00ae 02       		.byte	0x2
 3271 00af 9508     		.2byte	0x895
 3272 00b1 75000000 		.4byte	0x75
 3273 00b5 08       		.uleb128 0x8
 3274 00b6 5F060000 		.4byte	.LASF13
 3275 00ba 02       		.byte	0x2
 3276 00bb A908     		.2byte	0x8a9
 3277 00bd 75000000 		.4byte	0x75
 3278 00c1 08       		.uleb128 0x8
 3279 00c2 6A060000 		.4byte	.LASF14
 3280 00c6 02       		.byte	0x2
 3281 00c7 5709     		.2byte	0x957
 3282 00c9 75000000 		.4byte	0x75
 3283 00cd 08       		.uleb128 0x8
 3284 00ce 75060000 		.4byte	.LASF15
 3285 00d2 02       		.byte	0x2
 3286 00d3 6109     		.2byte	0x961
 3287 00d5 75000000 		.4byte	0x75
 3288 00d9 08       		.uleb128 0x8
 3289 00da 80060000 		.4byte	.LASF16
 3290 00de 02       		.byte	0x2
 3291 00df 7609     		.2byte	0x976
 3292 00e1 75000000 		.4byte	0x75
 3293 00e5 09       		.uleb128 0x9
 3294 00e6 5A0A0000 		.4byte	.LASF51
 3295 00ea 02       		.byte	0x2
 3296 00eb 120B     		.2byte	0xb12
 3297 00ed 60000000 		.4byte	0x60
 3298 00f1 08       		.uleb128 0x8
 3299 00f2 8B060000 		.4byte	.LASF17
 3300 00f6 02       		.byte	0x2
 3301 00f7 390B     		.2byte	0xb39
 3302 00f9 75000000 		.4byte	0x75
ARM GAS  /tmp/ccrwCQMC.s 			page 59


 3303 00fd 08       		.uleb128 0x8
 3304 00fe 96060000 		.4byte	.LASF18
 3305 0102 02       		.byte	0x2
 3306 0103 3A0B     		.2byte	0xb3a
 3307 0105 75000000 		.4byte	0x75
 3308 0109 08       		.uleb128 0x8
 3309 010a 08080000 		.4byte	.LASF19
 3310 010e 02       		.byte	0x2
 3311 010f 6B0B     		.2byte	0xb6b
 3312 0111 75000000 		.4byte	0x75
 3313 0115 08       		.uleb128 0x8
 3314 0116 14080000 		.4byte	.LASF20
 3315 011a 02       		.byte	0x2
 3316 011b 6C0B     		.2byte	0xb6c
 3317 011d 75000000 		.4byte	0x75
 3318 0121 08       		.uleb128 0x8
 3319 0122 20080000 		.4byte	.LASF21
 3320 0126 02       		.byte	0x2
 3321 0127 A00B     		.2byte	0xba0
 3322 0129 75000000 		.4byte	0x75
 3323 012d 08       		.uleb128 0x8
 3324 012e 2C080000 		.4byte	.LASF22
 3325 0132 02       		.byte	0x2
 3326 0133 A10B     		.2byte	0xba1
 3327 0135 75000000 		.4byte	0x75
 3328 0139 08       		.uleb128 0x8
 3329 013a 38080000 		.4byte	.LASF23
 3330 013e 02       		.byte	0x2
 3331 013f B80B     		.2byte	0xbb8
 3332 0141 75000000 		.4byte	0x75
 3333 0145 08       		.uleb128 0x8
 3334 0146 44080000 		.4byte	.LASF24
 3335 014a 02       		.byte	0x2
 3336 014b B90B     		.2byte	0xbb9
 3337 014d 75000000 		.4byte	0x75
 3338 0151 08       		.uleb128 0x8
 3339 0152 50080000 		.4byte	.LASF25
 3340 0156 02       		.byte	0x2
 3341 0157 C50B     		.2byte	0xbc5
 3342 0159 75000000 		.4byte	0x75
 3343 015d 08       		.uleb128 0x8
 3344 015e 5C080000 		.4byte	.LASF26
 3345 0162 02       		.byte	0x2
 3346 0163 C60B     		.2byte	0xbc6
 3347 0165 75000000 		.4byte	0x75
 3348 0169 08       		.uleb128 0x8
 3349 016a 68080000 		.4byte	.LASF27
 3350 016e 02       		.byte	0x2
 3351 016f D60B     		.2byte	0xbd6
 3352 0171 75000000 		.4byte	0x75
 3353 0175 08       		.uleb128 0x8
 3354 0176 74080000 		.4byte	.LASF28
 3355 017a 02       		.byte	0x2
 3356 017b D70B     		.2byte	0xbd7
 3357 017d 75000000 		.4byte	0x75
 3358 0181 08       		.uleb128 0x8
 3359 0182 CE080000 		.4byte	.LASF29
ARM GAS  /tmp/ccrwCQMC.s 			page 60


 3360 0186 02       		.byte	0x2
 3361 0187 E30B     		.2byte	0xbe3
 3362 0189 75000000 		.4byte	0x75
 3363 018d 08       		.uleb128 0x8
 3364 018e DA080000 		.4byte	.LASF30
 3365 0192 02       		.byte	0x2
 3366 0193 E40B     		.2byte	0xbe4
 3367 0195 75000000 		.4byte	0x75
 3368 0199 08       		.uleb128 0x8
 3369 019a E6080000 		.4byte	.LASF31
 3370 019e 02       		.byte	0x2
 3371 019f 130C     		.2byte	0xc13
 3372 01a1 75000000 		.4byte	0x75
 3373 01a5 08       		.uleb128 0x8
 3374 01a6 66050000 		.4byte	.LASF32
 3375 01aa 02       		.byte	0x2
 3376 01ab 140C     		.2byte	0xc14
 3377 01ad 75000000 		.4byte	0x75
 3378 01b1 08       		.uleb128 0x8
 3379 01b2 00090000 		.4byte	.LASF33
 3380 01b6 02       		.byte	0x2
 3381 01b7 470C     		.2byte	0xc47
 3382 01b9 75000000 		.4byte	0x75
 3383 01bd 08       		.uleb128 0x8
 3384 01be 0C090000 		.4byte	.LASF34
 3385 01c2 02       		.byte	0x2
 3386 01c3 480C     		.2byte	0xc48
 3387 01c5 75000000 		.4byte	0x75
 3388 01c9 08       		.uleb128 0x8
 3389 01ca 18090000 		.4byte	.LASF35
 3390 01ce 02       		.byte	0x2
 3391 01cf 4F0C     		.2byte	0xc4f
 3392 01d1 75000000 		.4byte	0x75
 3393 01d5 08       		.uleb128 0x8
 3394 01d6 24090000 		.4byte	.LASF36
 3395 01da 02       		.byte	0x2
 3396 01db 500C     		.2byte	0xc50
 3397 01dd 75000000 		.4byte	0x75
 3398 01e1 08       		.uleb128 0x8
 3399 01e2 30090000 		.4byte	.LASF37
 3400 01e6 02       		.byte	0x2
 3401 01e7 570C     		.2byte	0xc57
 3402 01e9 75000000 		.4byte	0x75
 3403 01ed 08       		.uleb128 0x8
 3404 01ee 3C090000 		.4byte	.LASF38
 3405 01f2 02       		.byte	0x2
 3406 01f3 580C     		.2byte	0xc58
 3407 01f5 75000000 		.4byte	0x75
 3408 01f9 08       		.uleb128 0x8
 3409 01fa D0090000 		.4byte	.LASF39
 3410 01fe 02       		.byte	0x2
 3411 01ff 5F0C     		.2byte	0xc5f
 3412 0201 75000000 		.4byte	0x75
 3413 0205 08       		.uleb128 0x8
 3414 0206 DC090000 		.4byte	.LASF40
 3415 020a 02       		.byte	0x2
 3416 020b 600C     		.2byte	0xc60
ARM GAS  /tmp/ccrwCQMC.s 			page 61


 3417 020d 75000000 		.4byte	0x75
 3418 0211 08       		.uleb128 0x8
 3419 0212 E8090000 		.4byte	.LASF41
 3420 0216 02       		.byte	0x2
 3421 0217 670C     		.2byte	0xc67
 3422 0219 75000000 		.4byte	0x75
 3423 021d 08       		.uleb128 0x8
 3424 021e F4090000 		.4byte	.LASF42
 3425 0222 02       		.byte	0x2
 3426 0223 680C     		.2byte	0xc68
 3427 0225 75000000 		.4byte	0x75
 3428 0229 08       		.uleb128 0x8
 3429 022a 000A0000 		.4byte	.LASF43
 3430 022e 02       		.byte	0x2
 3431 022f 6F0C     		.2byte	0xc6f
 3432 0231 75000000 		.4byte	0x75
 3433 0235 08       		.uleb128 0x8
 3434 0236 0C0A0000 		.4byte	.LASF44
 3435 023a 02       		.byte	0x2
 3436 023b 700C     		.2byte	0xc70
 3437 023d 75000000 		.4byte	0x75
 3438 0241 08       		.uleb128 0x8
 3439 0242 180A0000 		.4byte	.LASF45
 3440 0246 02       		.byte	0x2
 3441 0247 770C     		.2byte	0xc77
 3442 0249 75000000 		.4byte	0x75
 3443 024d 08       		.uleb128 0x8
 3444 024e 240A0000 		.4byte	.LASF46
 3445 0252 02       		.byte	0x2
 3446 0253 780C     		.2byte	0xc78
 3447 0255 75000000 		.4byte	0x75
 3448 0259 08       		.uleb128 0x8
 3449 025a 300A0000 		.4byte	.LASF47
 3450 025e 02       		.byte	0x2
 3451 025f 7F0C     		.2byte	0xc7f
 3452 0261 75000000 		.4byte	0x75
 3453 0265 08       		.uleb128 0x8
 3454 0266 3C0A0000 		.4byte	.LASF48
 3455 026a 02       		.byte	0x2
 3456 026b 800C     		.2byte	0xc80
 3457 026d 75000000 		.4byte	0x75
 3458 0271 08       		.uleb128 0x8
 3459 0272 050B0000 		.4byte	.LASF49
 3460 0276 02       		.byte	0x2
 3461 0277 870C     		.2byte	0xc87
 3462 0279 75000000 		.4byte	0x75
 3463 027d 08       		.uleb128 0x8
 3464 027e 110B0000 		.4byte	.LASF50
 3465 0282 02       		.byte	0x2
 3466 0283 880C     		.2byte	0xc88
 3467 0285 75000000 		.4byte	0x75
 3468 0289 0A       		.uleb128 0xa
 3469 028a FF030000 		.4byte	.LASF52
 3470 028e 03       		.byte	0x3
 3471 028f 74       		.byte	0x74
 3472 0290 52000000 		.4byte	0x52
 3473 0294 0B       		.uleb128 0xb
ARM GAS  /tmp/ccrwCQMC.s 			page 62


 3474 0295 1D0B0000 		.4byte	.LASF53
 3475 0299 03       		.byte	0x3
 3476 029a 8A       		.byte	0x8a
 3477 029b 75000000 		.4byte	0x75
 3478 029f 0B       		.uleb128 0xb
 3479 02a0 290B0000 		.4byte	.LASF54
 3480 02a4 03       		.byte	0x3
 3481 02a5 8B       		.byte	0x8b
 3482 02a6 75000000 		.4byte	0x75
 3483 02aa 0B       		.uleb128 0xb
 3484 02ab 350B0000 		.4byte	.LASF55
 3485 02af 03       		.byte	0x3
 3486 02b0 8C       		.byte	0x8c
 3487 02b1 75000000 		.4byte	0x75
 3488 02b5 0B       		.uleb128 0xb
 3489 02b6 410B0000 		.4byte	.LASF56
 3490 02ba 03       		.byte	0x3
 3491 02bb 8D       		.byte	0x8d
 3492 02bc 75000000 		.4byte	0x75
 3493 02c0 0B       		.uleb128 0xb
 3494 02c1 4D0B0000 		.4byte	.LASF57
 3495 02c5 03       		.byte	0x3
 3496 02c6 BA       		.byte	0xba
 3497 02c7 75000000 		.4byte	0x75
 3498 02cb 0B       		.uleb128 0xb
 3499 02cc 590B0000 		.4byte	.LASF58
 3500 02d0 03       		.byte	0x3
 3501 02d1 BB       		.byte	0xbb
 3502 02d2 75000000 		.4byte	0x75
 3503 02d6 0B       		.uleb128 0xb
 3504 02d7 650B0000 		.4byte	.LASF59
 3505 02db 03       		.byte	0x3
 3506 02dc BF       		.byte	0xbf
 3507 02dd 75000000 		.4byte	0x75
 3508 02e1 0B       		.uleb128 0xb
 3509 02e2 710B0000 		.4byte	.LASF60
 3510 02e6 03       		.byte	0x3
 3511 02e7 C0       		.byte	0xc0
 3512 02e8 75000000 		.4byte	0x75
 3513 02ec 0B       		.uleb128 0xb
 3514 02ed 2F000000 		.4byte	.LASF61
 3515 02f1 03       		.byte	0x3
 3516 02f2 C1       		.byte	0xc1
 3517 02f3 75000000 		.4byte	0x75
 3518 02f7 0B       		.uleb128 0xb
 3519 02f8 3B000000 		.4byte	.LASF62
 3520 02fc 03       		.byte	0x3
 3521 02fd C2       		.byte	0xc2
 3522 02fe 75000000 		.4byte	0x75
 3523 0302 0B       		.uleb128 0xb
 3524 0303 47000000 		.4byte	.LASF63
 3525 0307 03       		.byte	0x3
 3526 0308 C3       		.byte	0xc3
 3527 0309 75000000 		.4byte	0x75
 3528 030d 0B       		.uleb128 0xb
 3529 030e 53000000 		.4byte	.LASF64
 3530 0312 03       		.byte	0x3
ARM GAS  /tmp/ccrwCQMC.s 			page 63


 3531 0313 C4       		.byte	0xc4
 3532 0314 75000000 		.4byte	0x75
 3533 0318 0B       		.uleb128 0xb
 3534 0319 5F000000 		.4byte	.LASF65
 3535 031d 03       		.byte	0x3
 3536 031e C5       		.byte	0xc5
 3537 031f 75000000 		.4byte	0x75
 3538 0323 0B       		.uleb128 0xb
 3539 0324 6B000000 		.4byte	.LASF66
 3540 0328 03       		.byte	0x3
 3541 0329 C6       		.byte	0xc6
 3542 032a 75000000 		.4byte	0x75
 3543 032e 0C       		.uleb128 0xc
 3544 032f 04       		.byte	0x4
 3545 0330 33000000 		.4byte	0x33
 3546 0334 03       		.uleb128 0x3
 3547 0335 2E030000 		.4byte	0x32e
 3548 0339 0C       		.uleb128 0xc
 3549 033a 04       		.byte	0x4
 3550 033b 2C000000 		.4byte	0x2c
 3551 033f 03       		.uleb128 0x3
 3552 0340 39030000 		.4byte	0x339
 3553 0344 0C       		.uleb128 0xc
 3554 0345 04       		.byte	0x4
 3555 0346 89020000 		.4byte	0x289
 3556 034a 0D       		.uleb128 0xd
 3557 034b 04       		.byte	0x4
 3558 034c 0A       		.uleb128 0xa
 3559 034d D2060000 		.4byte	.LASF67
 3560 0351 04       		.byte	0x4
 3561 0352 22       		.byte	0x22
 3562 0353 57030000 		.4byte	0x357
 3563 0357 0C       		.uleb128 0xc
 3564 0358 04       		.byte	0x4
 3565 0359 5D030000 		.4byte	0x35d
 3566 035d 0E       		.uleb128 0xe
 3567 035e C0080000 		.4byte	.LASF174
 3568 0362 0A       		.uleb128 0xa
 3569 0363 EB0A0000 		.4byte	.LASF68
 3570 0367 05       		.byte	0x5
 3571 0368 2C       		.byte	0x2c
 3572 0369 4B000000 		.4byte	0x4b
 3573 036d 0A       		.uleb128 0xa
 3574 036e 17020000 		.4byte	.LASF69
 3575 0372 05       		.byte	0x5
 3576 0373 72       		.byte	0x72
 3577 0374 4B000000 		.4byte	0x4b
 3578 0378 09       		.uleb128 0x9
 3579 0379 AD080000 		.4byte	.LASF70
 3580 037d 06       		.byte	0x6
 3581 037e 6501     		.2byte	0x165
 3582 0380 6E000000 		.4byte	0x6e
 3583 0384 0F       		.uleb128 0xf
 3584 0385 04       		.byte	0x4
 3585 0386 05       		.byte	0x5
 3586 0387 A6       		.byte	0xa6
 3587 0388 A3030000 		.4byte	0x3a3
ARM GAS  /tmp/ccrwCQMC.s 			page 64


 3588 038c 10       		.uleb128 0x10
 3589 038d 3D050000 		.4byte	.LASF71
 3590 0391 05       		.byte	0x5
 3591 0392 A8       		.byte	0xa8
 3592 0393 78030000 		.4byte	0x378
 3593 0397 10       		.uleb128 0x10
 3594 0398 83070000 		.4byte	.LASF72
 3595 039c 05       		.byte	0x5
 3596 039d A9       		.byte	0xa9
 3597 039e A3030000 		.4byte	0x3a3
 3598 03a2 00       		.byte	0
 3599 03a3 06       		.uleb128 0x6
 3600 03a4 2C000000 		.4byte	0x2c
 3601 03a8 B3030000 		.4byte	0x3b3
 3602 03ac 07       		.uleb128 0x7
 3603 03ad 6E000000 		.4byte	0x6e
 3604 03b1 03       		.byte	0x3
 3605 03b2 00       		.byte	0
 3606 03b3 11       		.uleb128 0x11
 3607 03b4 08       		.byte	0x8
 3608 03b5 05       		.byte	0x5
 3609 03b6 A3       		.byte	0xa3
 3610 03b7 D4030000 		.4byte	0x3d4
 3611 03bb 12       		.uleb128 0x12
 3612 03bc 7A020000 		.4byte	.LASF73
 3613 03c0 05       		.byte	0x5
 3614 03c1 A5       		.byte	0xa5
 3615 03c2 67000000 		.4byte	0x67
 3616 03c6 00       		.byte	0
 3617 03c7 12       		.uleb128 0x12
 3618 03c8 D1040000 		.4byte	.LASF74
 3619 03cc 05       		.byte	0x5
 3620 03cd AA       		.byte	0xaa
 3621 03ce 84030000 		.4byte	0x384
 3622 03d2 04       		.byte	0x4
 3623 03d3 00       		.byte	0
 3624 03d4 0A       		.uleb128 0xa
 3625 03d5 0D060000 		.4byte	.LASF75
 3626 03d9 05       		.byte	0x5
 3627 03da AB       		.byte	0xab
 3628 03db B3030000 		.4byte	0x3b3
 3629 03df 0A       		.uleb128 0xa
 3630 03e0 34050000 		.4byte	.LASF76
 3631 03e4 05       		.byte	0x5
 3632 03e5 AF       		.byte	0xaf
 3633 03e6 4C030000 		.4byte	0x34c
 3634 03ea 0A       		.uleb128 0xa
 3635 03eb D9050000 		.4byte	.LASF77
 3636 03ef 07       		.byte	0x7
 3637 03f0 16       		.byte	0x16
 3638 03f1 52000000 		.4byte	0x52
 3639 03f5 13       		.uleb128 0x13
 3640 03f6 2C020000 		.4byte	.LASF82
 3641 03fa 18       		.byte	0x18
 3642 03fb 07       		.byte	0x7
 3643 03fc 2F       		.byte	0x2f
 3644 03fd 48040000 		.4byte	0x448
ARM GAS  /tmp/ccrwCQMC.s 			page 65


 3645 0401 12       		.uleb128 0x12
 3646 0402 AF040000 		.4byte	.LASF78
 3647 0406 07       		.byte	0x7
 3648 0407 31       		.byte	0x31
 3649 0408 48040000 		.4byte	0x448
 3650 040c 00       		.byte	0
 3651 040d 14       		.uleb128 0x14
 3652 040e 5F6B00   		.ascii	"_k\000"
 3653 0411 07       		.byte	0x7
 3654 0412 32       		.byte	0x32
 3655 0413 67000000 		.4byte	0x67
 3656 0417 04       		.byte	0x4
 3657 0418 12       		.uleb128 0x12
 3658 0419 EE070000 		.4byte	.LASF79
 3659 041d 07       		.byte	0x7
 3660 041e 32       		.byte	0x32
 3661 041f 67000000 		.4byte	0x67
 3662 0423 08       		.byte	0x8
 3663 0424 12       		.uleb128 0x12
 3664 0425 60070000 		.4byte	.LASF80
 3665 0429 07       		.byte	0x7
 3666 042a 32       		.byte	0x32
 3667 042b 67000000 		.4byte	0x67
 3668 042f 0C       		.byte	0xc
 3669 0430 12       		.uleb128 0x12
 3670 0431 10040000 		.4byte	.LASF81
 3671 0435 07       		.byte	0x7
 3672 0436 32       		.byte	0x32
 3673 0437 67000000 		.4byte	0x67
 3674 043b 10       		.byte	0x10
 3675 043c 14       		.uleb128 0x14
 3676 043d 5F7800   		.ascii	"_x\000"
 3677 0440 07       		.byte	0x7
 3678 0441 33       		.byte	0x33
 3679 0442 4E040000 		.4byte	0x44e
 3680 0446 14       		.byte	0x14
 3681 0447 00       		.byte	0
 3682 0448 0C       		.uleb128 0xc
 3683 0449 04       		.byte	0x4
 3684 044a F5030000 		.4byte	0x3f5
 3685 044e 06       		.uleb128 0x6
 3686 044f EA030000 		.4byte	0x3ea
 3687 0453 5E040000 		.4byte	0x45e
 3688 0457 07       		.uleb128 0x7
 3689 0458 6E000000 		.4byte	0x6e
 3690 045c 00       		.byte	0
 3691 045d 00       		.byte	0
 3692 045e 13       		.uleb128 0x13
 3693 045f 89080000 		.4byte	.LASF83
 3694 0463 24       		.byte	0x24
 3695 0464 07       		.byte	0x7
 3696 0465 37       		.byte	0x37
 3697 0466 D7040000 		.4byte	0x4d7
 3698 046a 12       		.uleb128 0x12
 3699 046b 70040000 		.4byte	.LASF84
 3700 046f 07       		.byte	0x7
 3701 0470 39       		.byte	0x39
ARM GAS  /tmp/ccrwCQMC.s 			page 66


 3702 0471 67000000 		.4byte	0x67
 3703 0475 00       		.byte	0
 3704 0476 12       		.uleb128 0x12
 3705 0477 8A020000 		.4byte	.LASF85
 3706 047b 07       		.byte	0x7
 3707 047c 3A       		.byte	0x3a
 3708 047d 67000000 		.4byte	0x67
 3709 0481 04       		.byte	0x4
 3710 0482 12       		.uleb128 0x12
 3711 0483 57020000 		.4byte	.LASF86
 3712 0487 07       		.byte	0x7
 3713 0488 3B       		.byte	0x3b
 3714 0489 67000000 		.4byte	0x67
 3715 048d 08       		.byte	0x8
 3716 048e 12       		.uleb128 0x12
 3717 048f 08050000 		.4byte	.LASF87
 3718 0493 07       		.byte	0x7
 3719 0494 3C       		.byte	0x3c
 3720 0495 67000000 		.4byte	0x67
 3721 0499 0C       		.byte	0xc
 3722 049a 12       		.uleb128 0x12
 3723 049b B6060000 		.4byte	.LASF88
 3724 049f 07       		.byte	0x7
 3725 04a0 3D       		.byte	0x3d
 3726 04a1 67000000 		.4byte	0x67
 3727 04a5 10       		.byte	0x10
 3728 04a6 12       		.uleb128 0x12
 3729 04a7 9D070000 		.4byte	.LASF89
 3730 04ab 07       		.byte	0x7
 3731 04ac 3E       		.byte	0x3e
 3732 04ad 67000000 		.4byte	0x67
 3733 04b1 14       		.byte	0x14
 3734 04b2 12       		.uleb128 0x12
 3735 04b3 34020000 		.4byte	.LASF90
 3736 04b7 07       		.byte	0x7
 3737 04b8 3F       		.byte	0x3f
 3738 04b9 67000000 		.4byte	0x67
 3739 04bd 18       		.byte	0x18
 3740 04be 12       		.uleb128 0x12
 3741 04bf 8E040000 		.4byte	.LASF91
 3742 04c3 07       		.byte	0x7
 3743 04c4 40       		.byte	0x40
 3744 04c5 67000000 		.4byte	0x67
 3745 04c9 1C       		.byte	0x1c
 3746 04ca 12       		.uleb128 0x12
 3747 04cb 1D060000 		.4byte	.LASF92
 3748 04cf 07       		.byte	0x7
 3749 04d0 41       		.byte	0x41
 3750 04d1 67000000 		.4byte	0x67
 3751 04d5 20       		.byte	0x20
 3752 04d6 00       		.byte	0
 3753 04d7 15       		.uleb128 0x15
 3754 04d8 B7000000 		.4byte	.LASF93
 3755 04dc 0801     		.2byte	0x108
 3756 04de 07       		.byte	0x7
 3757 04df 4A       		.byte	0x4a
 3758 04e0 17050000 		.4byte	0x517
ARM GAS  /tmp/ccrwCQMC.s 			page 67


 3759 04e4 12       		.uleb128 0x12
 3760 04e5 690A0000 		.4byte	.LASF94
 3761 04e9 07       		.byte	0x7
 3762 04ea 4B       		.byte	0x4b
 3763 04eb 17050000 		.4byte	0x517
 3764 04ef 00       		.byte	0
 3765 04f0 12       		.uleb128 0x12
 3766 04f1 B4080000 		.4byte	.LASF95
 3767 04f5 07       		.byte	0x7
 3768 04f6 4C       		.byte	0x4c
 3769 04f7 17050000 		.4byte	0x517
 3770 04fb 80       		.byte	0x80
 3771 04fc 16       		.uleb128 0x16
 3772 04fd AD0A0000 		.4byte	.LASF96
 3773 0501 07       		.byte	0x7
 3774 0502 4E       		.byte	0x4e
 3775 0503 EA030000 		.4byte	0x3ea
 3776 0507 0001     		.2byte	0x100
 3777 0509 16       		.uleb128 0x16
 3778 050a 7D0B0000 		.4byte	.LASF97
 3779 050e 07       		.byte	0x7
 3780 050f 51       		.byte	0x51
 3781 0510 EA030000 		.4byte	0x3ea
 3782 0514 0401     		.2byte	0x104
 3783 0516 00       		.byte	0
 3784 0517 06       		.uleb128 0x6
 3785 0518 4A030000 		.4byte	0x34a
 3786 051c 27050000 		.4byte	0x527
 3787 0520 07       		.uleb128 0x7
 3788 0521 6E000000 		.4byte	0x6e
 3789 0525 1F       		.byte	0x1f
 3790 0526 00       		.byte	0
 3791 0527 15       		.uleb128 0x15
 3792 0528 14070000 		.4byte	.LASF98
 3793 052c 9001     		.2byte	0x190
 3794 052e 07       		.byte	0x7
 3795 052f 5D       		.byte	0x5d
 3796 0530 65050000 		.4byte	0x565
 3797 0534 12       		.uleb128 0x12
 3798 0535 AF040000 		.4byte	.LASF78
 3799 0539 07       		.byte	0x7
 3800 053a 5E       		.byte	0x5e
 3801 053b 65050000 		.4byte	0x565
 3802 053f 00       		.byte	0
 3803 0540 12       		.uleb128 0x12
 3804 0541 9D040000 		.4byte	.LASF99
 3805 0545 07       		.byte	0x7
 3806 0546 5F       		.byte	0x5f
 3807 0547 67000000 		.4byte	0x67
 3808 054b 04       		.byte	0x4
 3809 054c 12       		.uleb128 0x12
 3810 054d 1F020000 		.4byte	.LASF100
 3811 0551 07       		.byte	0x7
 3812 0552 61       		.byte	0x61
 3813 0553 6B050000 		.4byte	0x56b
 3814 0557 08       		.byte	0x8
 3815 0558 12       		.uleb128 0x12
ARM GAS  /tmp/ccrwCQMC.s 			page 68


 3816 0559 B7000000 		.4byte	.LASF93
 3817 055d 07       		.byte	0x7
 3818 055e 62       		.byte	0x62
 3819 055f D7040000 		.4byte	0x4d7
 3820 0563 88       		.byte	0x88
 3821 0564 00       		.byte	0
 3822 0565 0C       		.uleb128 0xc
 3823 0566 04       		.byte	0x4
 3824 0567 27050000 		.4byte	0x527
 3825 056b 06       		.uleb128 0x6
 3826 056c 7B050000 		.4byte	0x57b
 3827 0570 7B050000 		.4byte	0x57b
 3828 0574 07       		.uleb128 0x7
 3829 0575 6E000000 		.4byte	0x6e
 3830 0579 1F       		.byte	0x1f
 3831 057a 00       		.byte	0
 3832 057b 0C       		.uleb128 0xc
 3833 057c 04       		.byte	0x4
 3834 057d 81050000 		.4byte	0x581
 3835 0581 17       		.uleb128 0x17
 3836 0582 13       		.uleb128 0x13
 3837 0583 BB090000 		.4byte	.LASF101
 3838 0587 08       		.byte	0x8
 3839 0588 07       		.byte	0x7
 3840 0589 75       		.byte	0x75
 3841 058a A7050000 		.4byte	0x5a7
 3842 058e 12       		.uleb128 0x12
 3843 058f C3050000 		.4byte	.LASF102
 3844 0593 07       		.byte	0x7
 3845 0594 76       		.byte	0x76
 3846 0595 39030000 		.4byte	0x339
 3847 0599 00       		.byte	0
 3848 059a 12       		.uleb128 0x12
 3849 059b B60A0000 		.4byte	.LASF103
 3850 059f 07       		.byte	0x7
 3851 05a0 77       		.byte	0x77
 3852 05a1 67000000 		.4byte	0x67
 3853 05a5 04       		.byte	0x4
 3854 05a6 00       		.byte	0
 3855 05a7 13       		.uleb128 0x13
 3856 05a8 08040000 		.4byte	.LASF104
 3857 05ac 68       		.byte	0x68
 3858 05ad 07       		.byte	0x7
 3859 05ae B5       		.byte	0xb5
 3860 05af D1060000 		.4byte	0x6d1
 3861 05b3 14       		.uleb128 0x14
 3862 05b4 5F7000   		.ascii	"_p\000"
 3863 05b7 07       		.byte	0x7
 3864 05b8 B6       		.byte	0xb6
 3865 05b9 39030000 		.4byte	0x339
 3866 05bd 00       		.byte	0
 3867 05be 14       		.uleb128 0x14
 3868 05bf 5F7200   		.ascii	"_r\000"
 3869 05c2 07       		.byte	0x7
 3870 05c3 B7       		.byte	0xb7
 3871 05c4 67000000 		.4byte	0x67
 3872 05c8 04       		.byte	0x4
ARM GAS  /tmp/ccrwCQMC.s 			page 69


 3873 05c9 14       		.uleb128 0x14
 3874 05ca 5F7700   		.ascii	"_w\000"
 3875 05cd 07       		.byte	0x7
 3876 05ce B8       		.byte	0xb8
 3877 05cf 67000000 		.4byte	0x67
 3878 05d3 08       		.byte	0x8
 3879 05d4 12       		.uleb128 0x12
 3880 05d5 1C010000 		.4byte	.LASF105
 3881 05d9 07       		.byte	0x7
 3882 05da B9       		.byte	0xb9
 3883 05db 3D000000 		.4byte	0x3d
 3884 05df 0C       		.byte	0xc
 3885 05e0 12       		.uleb128 0x12
 3886 05e1 F0050000 		.4byte	.LASF106
 3887 05e5 07       		.byte	0x7
 3888 05e6 BA       		.byte	0xba
 3889 05e7 3D000000 		.4byte	0x3d
 3890 05eb 0E       		.byte	0xe
 3891 05ec 14       		.uleb128 0x14
 3892 05ed 5F626600 		.ascii	"_bf\000"
 3893 05f1 07       		.byte	0x7
 3894 05f2 BB       		.byte	0xbb
 3895 05f3 82050000 		.4byte	0x582
 3896 05f7 10       		.byte	0x10
 3897 05f8 12       		.uleb128 0x12
 3898 05f9 13010000 		.4byte	.LASF107
 3899 05fd 07       		.byte	0x7
 3900 05fe BC       		.byte	0xbc
 3901 05ff 67000000 		.4byte	0x67
 3902 0603 18       		.byte	0x18
 3903 0604 12       		.uleb128 0x12
 3904 0605 24020000 		.4byte	.LASF108
 3905 0609 07       		.byte	0x7
 3906 060a C3       		.byte	0xc3
 3907 060b 4A030000 		.4byte	0x34a
 3908 060f 1C       		.byte	0x1c
 3909 0610 12       		.uleb128 0x12
 3910 0611 D1010000 		.4byte	.LASF109
 3911 0615 07       		.byte	0x7
 3912 0616 C5       		.byte	0xc5
 3913 0617 3E080000 		.4byte	0x83e
 3914 061b 20       		.byte	0x20
 3915 061c 12       		.uleb128 0x12
 3916 061d F0060000 		.4byte	.LASF110
 3917 0621 07       		.byte	0x7
 3918 0622 C7       		.byte	0xc7
 3919 0623 68080000 		.4byte	0x868
 3920 0627 24       		.byte	0x24
 3921 0628 12       		.uleb128 0x12
 3922 0629 A60B0000 		.4byte	.LASF111
 3923 062d 07       		.byte	0x7
 3924 062e CA       		.byte	0xca
 3925 062f 8C080000 		.4byte	0x88c
 3926 0633 28       		.byte	0x28
 3927 0634 12       		.uleb128 0x12
 3928 0635 54050000 		.4byte	.LASF112
 3929 0639 07       		.byte	0x7
ARM GAS  /tmp/ccrwCQMC.s 			page 70


 3930 063a CB       		.byte	0xcb
 3931 063b A6080000 		.4byte	0x8a6
 3932 063f 2C       		.byte	0x2c
 3933 0640 14       		.uleb128 0x14
 3934 0641 5F756200 		.ascii	"_ub\000"
 3935 0645 07       		.byte	0x7
 3936 0646 CE       		.byte	0xce
 3937 0647 82050000 		.4byte	0x582
 3938 064b 30       		.byte	0x30
 3939 064c 14       		.uleb128 0x14
 3940 064d 5F757000 		.ascii	"_up\000"
 3941 0651 07       		.byte	0x7
 3942 0652 CF       		.byte	0xcf
 3943 0653 39030000 		.4byte	0x339
 3944 0657 38       		.byte	0x38
 3945 0658 14       		.uleb128 0x14
 3946 0659 5F757200 		.ascii	"_ur\000"
 3947 065d 07       		.byte	0x7
 3948 065e D0       		.byte	0xd0
 3949 065f 67000000 		.4byte	0x67
 3950 0663 3C       		.byte	0x3c
 3951 0664 12       		.uleb128 0x12
 3952 0665 CF0B0000 		.4byte	.LASF113
 3953 0669 07       		.byte	0x7
 3954 066a D3       		.byte	0xd3
 3955 066b AC080000 		.4byte	0x8ac
 3956 066f 40       		.byte	0x40
 3957 0670 12       		.uleb128 0x12
 3958 0671 F20A0000 		.4byte	.LASF114
 3959 0675 07       		.byte	0x7
 3960 0676 D4       		.byte	0xd4
 3961 0677 BC080000 		.4byte	0x8bc
 3962 067b 43       		.byte	0x43
 3963 067c 14       		.uleb128 0x14
 3964 067d 5F6C6200 		.ascii	"_lb\000"
 3965 0681 07       		.byte	0x7
 3966 0682 D7       		.byte	0xd7
 3967 0683 82050000 		.4byte	0x582
 3968 0687 44       		.byte	0x44
 3969 0688 12       		.uleb128 0x12
 3970 0689 80080000 		.4byte	.LASF115
 3971 068d 07       		.byte	0x7
 3972 068e DA       		.byte	0xda
 3973 068f 67000000 		.4byte	0x67
 3974 0693 4C       		.byte	0x4c
 3975 0694 12       		.uleb128 0x12
 3976 0695 2D040000 		.4byte	.LASF116
 3977 0699 07       		.byte	0x7
 3978 069a DB       		.byte	0xdb
 3979 069b 62030000 		.4byte	0x362
 3980 069f 50       		.byte	0x50
 3981 06a0 12       		.uleb128 0x12
 3982 06a1 7D070000 		.4byte	.LASF117
 3983 06a5 07       		.byte	0x7
 3984 06a6 DE       		.byte	0xde
 3985 06a7 EF060000 		.4byte	0x6ef
 3986 06ab 54       		.byte	0x54
ARM GAS  /tmp/ccrwCQMC.s 			page 71


 3987 06ac 12       		.uleb128 0x12
 3988 06ad 8E080000 		.4byte	.LASF118
 3989 06b1 07       		.byte	0x7
 3990 06b2 E2       		.byte	0xe2
 3991 06b3 DF030000 		.4byte	0x3df
 3992 06b7 58       		.byte	0x58
 3993 06b8 12       		.uleb128 0x12
 3994 06b9 A1010000 		.4byte	.LASF119
 3995 06bd 07       		.byte	0x7
 3996 06be E4       		.byte	0xe4
 3997 06bf D4030000 		.4byte	0x3d4
 3998 06c3 5C       		.byte	0x5c
 3999 06c4 12       		.uleb128 0x12
 4000 06c5 8A010000 		.4byte	.LASF120
 4001 06c9 07       		.byte	0x7
 4002 06ca E5       		.byte	0xe5
 4003 06cb 67000000 		.4byte	0x67
 4004 06cf 64       		.byte	0x64
 4005 06d0 00       		.byte	0
 4006 06d1 18       		.uleb128 0x18
 4007 06d2 67000000 		.4byte	0x67
 4008 06d6 EF060000 		.4byte	0x6ef
 4009 06da 19       		.uleb128 0x19
 4010 06db EF060000 		.4byte	0x6ef
 4011 06df 19       		.uleb128 0x19
 4012 06e0 4A030000 		.4byte	0x34a
 4013 06e4 19       		.uleb128 0x19
 4014 06e5 2C080000 		.4byte	0x82c
 4015 06e9 19       		.uleb128 0x19
 4016 06ea 67000000 		.4byte	0x67
 4017 06ee 00       		.byte	0
 4018 06ef 0C       		.uleb128 0xc
 4019 06f0 04       		.byte	0x4
 4020 06f1 FA060000 		.4byte	0x6fa
 4021 06f5 03       		.uleb128 0x3
 4022 06f6 EF060000 		.4byte	0x6ef
 4023 06fa 1A       		.uleb128 0x1a
 4024 06fb 7D0A0000 		.4byte	.LASF121
 4025 06ff 2804     		.2byte	0x428
 4026 0701 07       		.byte	0x7
 4027 0702 6002     		.2byte	0x260
 4028 0704 2C080000 		.4byte	0x82c
 4029 0708 1B       		.uleb128 0x1b
 4030 0709 83010000 		.4byte	.LASF122
 4031 070d 07       		.byte	0x7
 4032 070e 6202     		.2byte	0x262
 4033 0710 67000000 		.4byte	0x67
 4034 0714 00       		.byte	0
 4035 0715 1B       		.uleb128 0x1b
 4036 0716 81050000 		.4byte	.LASF123
 4037 071a 07       		.byte	0x7
 4038 071b 6702     		.2byte	0x267
 4039 071d 13090000 		.4byte	0x913
 4040 0721 04       		.byte	0x4
 4041 0722 1B       		.uleb128 0x1b
 4042 0723 0F020000 		.4byte	.LASF124
 4043 0727 07       		.byte	0x7
ARM GAS  /tmp/ccrwCQMC.s 			page 72


 4044 0728 6702     		.2byte	0x267
 4045 072a 13090000 		.4byte	0x913
 4046 072e 08       		.byte	0x8
 4047 072f 1B       		.uleb128 0x1b
 4048 0730 BE0B0000 		.4byte	.LASF125
 4049 0734 07       		.byte	0x7
 4050 0735 6702     		.2byte	0x267
 4051 0737 13090000 		.4byte	0x913
 4052 073b 0C       		.byte	0xc
 4053 073c 1B       		.uleb128 0x1b
 4054 073d 98040000 		.4byte	.LASF126
 4055 0741 07       		.byte	0x7
 4056 0742 6902     		.2byte	0x269
 4057 0744 67000000 		.4byte	0x67
 4058 0748 10       		.byte	0x10
 4059 0749 1B       		.uleb128 0x1b
 4060 074a 3A040000 		.4byte	.LASF127
 4061 074e 07       		.byte	0x7
 4062 074f 6A02     		.2byte	0x26a
 4063 0751 F50A0000 		.4byte	0xaf5
 4064 0755 14       		.byte	0x14
 4065 0756 1B       		.uleb128 0x1b
 4066 0757 B8010000 		.4byte	.LASF128
 4067 075b 07       		.byte	0x7
 4068 075c 6D02     		.2byte	0x26d
 4069 075e 67000000 		.4byte	0x67
 4070 0762 30       		.byte	0x30
 4071 0763 1B       		.uleb128 0x1b
 4072 0764 480A0000 		.4byte	.LASF129
 4073 0768 07       		.byte	0x7
 4074 0769 6E02     		.2byte	0x26e
 4075 076b 0A0B0000 		.4byte	0xb0a
 4076 076f 34       		.byte	0x34
 4077 0770 1B       		.uleb128 0x1b
 4078 0771 5B050000 		.4byte	.LASF130
 4079 0775 07       		.byte	0x7
 4080 0776 7002     		.2byte	0x270
 4081 0778 67000000 		.4byte	0x67
 4082 077c 38       		.byte	0x38
 4083 077d 1B       		.uleb128 0x1b
 4084 077e 03060000 		.4byte	.LASF131
 4085 0782 07       		.byte	0x7
 4086 0783 7202     		.2byte	0x272
 4087 0785 1B0B0000 		.4byte	0xb1b
 4088 0789 3C       		.byte	0x3c
 4089 078a 1B       		.uleb128 0x1b
 4090 078b 3E020000 		.4byte	.LASF132
 4091 078f 07       		.byte	0x7
 4092 0790 7502     		.2byte	0x275
 4093 0792 48040000 		.4byte	0x448
 4094 0796 40       		.byte	0x40
 4095 0797 1B       		.uleb128 0x1b
 4096 0798 DE030000 		.4byte	.LASF133
 4097 079c 07       		.byte	0x7
 4098 079d 7602     		.2byte	0x276
 4099 079f 67000000 		.4byte	0x67
 4100 07a3 44       		.byte	0x44
ARM GAS  /tmp/ccrwCQMC.s 			page 73


 4101 07a4 1B       		.uleb128 0x1b
 4102 07a5 D9040000 		.4byte	.LASF134
 4103 07a9 07       		.byte	0x7
 4104 07aa 7702     		.2byte	0x277
 4105 07ac 48040000 		.4byte	0x448
 4106 07b0 48       		.byte	0x48
 4107 07b1 1B       		.uleb128 0x1b
 4108 07b2 C9050000 		.4byte	.LASF135
 4109 07b6 07       		.byte	0x7
 4110 07b7 7802     		.2byte	0x278
 4111 07b9 210B0000 		.4byte	0xb21
 4112 07bd 4C       		.byte	0x4c
 4113 07be 1B       		.uleb128 0x1b
 4114 07bf E6070000 		.4byte	.LASF136
 4115 07c3 07       		.byte	0x7
 4116 07c4 7B02     		.2byte	0x27b
 4117 07c6 67000000 		.4byte	0x67
 4118 07ca 50       		.byte	0x50
 4119 07cb 1B       		.uleb128 0x1b
 4120 07cc 86040000 		.4byte	.LASF137
 4121 07d0 07       		.byte	0x7
 4122 07d1 7C02     		.2byte	0x27c
 4123 07d3 2C080000 		.4byte	0x82c
 4124 07d7 54       		.byte	0x54
 4125 07d8 1B       		.uleb128 0x1b
 4126 07d9 E1070000 		.4byte	.LASF138
 4127 07dd 07       		.byte	0x7
 4128 07de 9F02     		.2byte	0x29f
 4129 07e0 D30A0000 		.4byte	0xad3
 4130 07e4 58       		.byte	0x58
 4131 07e5 1C       		.uleb128 0x1c
 4132 07e6 14070000 		.4byte	.LASF98
 4133 07ea 07       		.byte	0x7
 4134 07eb A302     		.2byte	0x2a3
 4135 07ed 65050000 		.4byte	0x565
 4136 07f1 4801     		.2byte	0x148
 4137 07f3 1C       		.uleb128 0x1c
 4138 07f4 2B050000 		.4byte	.LASF139
 4139 07f8 07       		.byte	0x7
 4140 07f9 A402     		.2byte	0x2a4
 4141 07fb 27050000 		.4byte	0x527
 4142 07ff 4C01     		.2byte	0x14c
 4143 0801 1C       		.uleb128 0x1c
 4144 0802 12050000 		.4byte	.LASF140
 4145 0806 07       		.byte	0x7
 4146 0807 A802     		.2byte	0x2a8
 4147 0809 320B0000 		.4byte	0xb32
 4148 080d DC02     		.2byte	0x2dc
 4149 080f 1C       		.uleb128 0x1c
 4150 0810 C8090000 		.4byte	.LASF141
 4151 0814 07       		.byte	0x7
 4152 0815 AD02     		.2byte	0x2ad
 4153 0817 D8080000 		.4byte	0x8d8
 4154 081b E002     		.2byte	0x2e0
 4155 081d 1C       		.uleb128 0x1c
 4156 081e 5B070000 		.4byte	.LASF142
 4157 0822 07       		.byte	0x7
ARM GAS  /tmp/ccrwCQMC.s 			page 74


 4158 0823 AF02     		.2byte	0x2af
 4159 0825 3E0B0000 		.4byte	0xb3e
 4160 0829 EC02     		.2byte	0x2ec
 4161 082b 00       		.byte	0
 4162 082c 0C       		.uleb128 0xc
 4163 082d 04       		.byte	0x4
 4164 082e 32080000 		.4byte	0x832
 4165 0832 02       		.uleb128 0x2
 4166 0833 01       		.byte	0x1
 4167 0834 08       		.byte	0x8
 4168 0835 03050000 		.4byte	.LASF143
 4169 0839 03       		.uleb128 0x3
 4170 083a 32080000 		.4byte	0x832
 4171 083e 0C       		.uleb128 0xc
 4172 083f 04       		.byte	0x4
 4173 0840 D1060000 		.4byte	0x6d1
 4174 0844 18       		.uleb128 0x18
 4175 0845 67000000 		.4byte	0x67
 4176 0849 62080000 		.4byte	0x862
 4177 084d 19       		.uleb128 0x19
 4178 084e EF060000 		.4byte	0x6ef
 4179 0852 19       		.uleb128 0x19
 4180 0853 4A030000 		.4byte	0x34a
 4181 0857 19       		.uleb128 0x19
 4182 0858 62080000 		.4byte	0x862
 4183 085c 19       		.uleb128 0x19
 4184 085d 67000000 		.4byte	0x67
 4185 0861 00       		.byte	0
 4186 0862 0C       		.uleb128 0xc
 4187 0863 04       		.byte	0x4
 4188 0864 39080000 		.4byte	0x839
 4189 0868 0C       		.uleb128 0xc
 4190 0869 04       		.byte	0x4
 4191 086a 44080000 		.4byte	0x844
 4192 086e 18       		.uleb128 0x18
 4193 086f 6D030000 		.4byte	0x36d
 4194 0873 8C080000 		.4byte	0x88c
 4195 0877 19       		.uleb128 0x19
 4196 0878 EF060000 		.4byte	0x6ef
 4197 087c 19       		.uleb128 0x19
 4198 087d 4A030000 		.4byte	0x34a
 4199 0881 19       		.uleb128 0x19
 4200 0882 6D030000 		.4byte	0x36d
 4201 0886 19       		.uleb128 0x19
 4202 0887 67000000 		.4byte	0x67
 4203 088b 00       		.byte	0
 4204 088c 0C       		.uleb128 0xc
 4205 088d 04       		.byte	0x4
 4206 088e 6E080000 		.4byte	0x86e
 4207 0892 18       		.uleb128 0x18
 4208 0893 67000000 		.4byte	0x67
 4209 0897 A6080000 		.4byte	0x8a6
 4210 089b 19       		.uleb128 0x19
 4211 089c EF060000 		.4byte	0x6ef
 4212 08a0 19       		.uleb128 0x19
 4213 08a1 4A030000 		.4byte	0x34a
 4214 08a5 00       		.byte	0
ARM GAS  /tmp/ccrwCQMC.s 			page 75


 4215 08a6 0C       		.uleb128 0xc
 4216 08a7 04       		.byte	0x4
 4217 08a8 92080000 		.4byte	0x892
 4218 08ac 06       		.uleb128 0x6
 4219 08ad 2C000000 		.4byte	0x2c
 4220 08b1 BC080000 		.4byte	0x8bc
 4221 08b5 07       		.uleb128 0x7
 4222 08b6 6E000000 		.4byte	0x6e
 4223 08ba 02       		.byte	0x2
 4224 08bb 00       		.byte	0
 4225 08bc 06       		.uleb128 0x6
 4226 08bd 2C000000 		.4byte	0x2c
 4227 08c1 CC080000 		.4byte	0x8cc
 4228 08c5 07       		.uleb128 0x7
 4229 08c6 6E000000 		.4byte	0x6e
 4230 08ca 00       		.byte	0
 4231 08cb 00       		.byte	0
 4232 08cc 09       		.uleb128 0x9
 4233 08cd 15040000 		.4byte	.LASF144
 4234 08d1 07       		.byte	0x7
 4235 08d2 1F01     		.2byte	0x11f
 4236 08d4 A7050000 		.4byte	0x5a7
 4237 08d8 1D       		.uleb128 0x1d
 4238 08d9 C2090000 		.4byte	.LASF145
 4239 08dd 0C       		.byte	0xc
 4240 08de 07       		.byte	0x7
 4241 08df 2301     		.2byte	0x123
 4242 08e1 0D090000 		.4byte	0x90d
 4243 08e5 1B       		.uleb128 0x1b
 4244 08e6 AF040000 		.4byte	.LASF78
 4245 08ea 07       		.byte	0x7
 4246 08eb 2501     		.2byte	0x125
 4247 08ed 0D090000 		.4byte	0x90d
 4248 08f1 00       		.byte	0
 4249 08f2 1B       		.uleb128 0x1b
 4250 08f3 A6080000 		.4byte	.LASF146
 4251 08f7 07       		.byte	0x7
 4252 08f8 2601     		.2byte	0x126
 4253 08fa 67000000 		.4byte	0x67
 4254 08fe 04       		.byte	0x4
 4255 08ff 1B       		.uleb128 0x1b
 4256 0900 43050000 		.4byte	.LASF147
 4257 0904 07       		.byte	0x7
 4258 0905 2701     		.2byte	0x127
 4259 0907 13090000 		.4byte	0x913
 4260 090b 08       		.byte	0x8
 4261 090c 00       		.byte	0
 4262 090d 0C       		.uleb128 0xc
 4263 090e 04       		.byte	0x4
 4264 090f D8080000 		.4byte	0x8d8
 4265 0913 0C       		.uleb128 0xc
 4266 0914 04       		.byte	0x4
 4267 0915 CC080000 		.4byte	0x8cc
 4268 0919 1D       		.uleb128 0x1d
 4269 091a CA030000 		.4byte	.LASF148
 4270 091e 0E       		.byte	0xe
 4271 091f 07       		.byte	0x7
ARM GAS  /tmp/ccrwCQMC.s 			page 76


 4272 0920 3F01     		.2byte	0x13f
 4273 0922 4E090000 		.4byte	0x94e
 4274 0926 1B       		.uleb128 0x1b
 4275 0927 850B0000 		.4byte	.LASF149
 4276 092b 07       		.byte	0x7
 4277 092c 4001     		.2byte	0x140
 4278 092e 4E090000 		.4byte	0x94e
 4279 0932 00       		.byte	0
 4280 0933 1B       		.uleb128 0x1b
 4281 0934 D3050000 		.4byte	.LASF150
 4282 0938 07       		.byte	0x7
 4283 0939 4101     		.2byte	0x141
 4284 093b 4E090000 		.4byte	0x94e
 4285 093f 06       		.byte	0x6
 4286 0940 1B       		.uleb128 0x1b
 4287 0941 90090000 		.4byte	.LASF151
 4288 0945 07       		.byte	0x7
 4289 0946 4201     		.2byte	0x142
 4290 0948 44000000 		.4byte	0x44
 4291 094c 0C       		.byte	0xc
 4292 094d 00       		.byte	0
 4293 094e 06       		.uleb128 0x6
 4294 094f 44000000 		.4byte	0x44
 4295 0953 5E090000 		.4byte	0x95e
 4296 0957 07       		.uleb128 0x7
 4297 0958 6E000000 		.4byte	0x6e
 4298 095c 02       		.byte	0x2
 4299 095d 00       		.byte	0
 4300 095e 1E       		.uleb128 0x1e
 4301 095f D0       		.byte	0xd0
 4302 0960 07       		.byte	0x7
 4303 0961 8002     		.2byte	0x280
 4304 0963 5F0A0000 		.4byte	0xa5f
 4305 0967 1B       		.uleb128 0x1b
 4306 0968 F80A0000 		.4byte	.LASF152
 4307 096c 07       		.byte	0x7
 4308 096d 8202     		.2byte	0x282
 4309 096f 6E000000 		.4byte	0x6e
 4310 0973 00       		.byte	0
 4311 0974 1B       		.uleb128 0x1b
 4312 0975 BD070000 		.4byte	.LASF153
 4313 0979 07       		.byte	0x7
 4314 097a 8302     		.2byte	0x283
 4315 097c 2C080000 		.4byte	0x82c
 4316 0980 04       		.byte	0x4
 4317 0981 1B       		.uleb128 0x1b
 4318 0982 79040000 		.4byte	.LASF154
 4319 0986 07       		.byte	0x7
 4320 0987 8402     		.2byte	0x284
 4321 0989 5F0A0000 		.4byte	0xa5f
 4322 098d 08       		.byte	0x8
 4323 098e 1B       		.uleb128 0x1b
 4324 098f CA070000 		.4byte	.LASF155
 4325 0993 07       		.byte	0x7
 4326 0994 8502     		.2byte	0x285
 4327 0996 5E040000 		.4byte	0x45e
 4328 099a 24       		.byte	0x24
ARM GAS  /tmp/ccrwCQMC.s 			page 77


 4329 099b 1B       		.uleb128 0x1b
 4330 099c 88050000 		.4byte	.LASF156
 4331 09a0 07       		.byte	0x7
 4332 09a1 8602     		.2byte	0x286
 4333 09a3 67000000 		.4byte	0x67
 4334 09a7 48       		.byte	0x48
 4335 09a8 1B       		.uleb128 0x1b
 4336 09a9 8B0B0000 		.4byte	.LASF157
 4337 09ad 07       		.byte	0x7
 4338 09ae 8702     		.2byte	0x287
 4339 09b0 60000000 		.4byte	0x60
 4340 09b4 50       		.byte	0x50
 4341 09b5 1B       		.uleb128 0x1b
 4342 09b6 DF000000 		.4byte	.LASF158
 4343 09ba 07       		.byte	0x7
 4344 09bb 8802     		.2byte	0x288
 4345 09bd 19090000 		.4byte	0x919
 4346 09c1 58       		.byte	0x58
 4347 09c2 1B       		.uleb128 0x1b
 4348 09c3 EF040000 		.4byte	.LASF159
 4349 09c7 07       		.byte	0x7
 4350 09c8 8902     		.2byte	0x289
 4351 09ca D4030000 		.4byte	0x3d4
 4352 09ce 68       		.byte	0x68
 4353 09cf 1B       		.uleb128 0x1b
 4354 09d0 21070000 		.4byte	.LASF160
 4355 09d4 07       		.byte	0x7
 4356 09d5 8A02     		.2byte	0x28a
 4357 09d7 D4030000 		.4byte	0x3d4
 4358 09db 70       		.byte	0x70
 4359 09dc 1B       		.uleb128 0x1b
 4360 09dd CC000000 		.4byte	.LASF161
 4361 09e1 07       		.byte	0x7
 4362 09e2 8B02     		.2byte	0x28b
 4363 09e4 D4030000 		.4byte	0x3d4
 4364 09e8 78       		.byte	0x78
 4365 09e9 1B       		.uleb128 0x1b
 4366 09ea F6070000 		.4byte	.LASF162
 4367 09ee 07       		.byte	0x7
 4368 09ef 8C02     		.2byte	0x28c
 4369 09f1 6F0A0000 		.4byte	0xa6f
 4370 09f5 80       		.byte	0x80
 4371 09f6 1B       		.uleb128 0x1b
 4372 09f7 F0000000 		.4byte	.LASF163
 4373 09fb 07       		.byte	0x7
 4374 09fc 8D02     		.2byte	0x28d
 4375 09fe 7F0A0000 		.4byte	0xa7f
 4376 0a02 88       		.byte	0x88
 4377 0a03 1B       		.uleb128 0x1b
 4378 0a04 72090000 		.4byte	.LASF164
 4379 0a08 07       		.byte	0x7
 4380 0a09 8E02     		.2byte	0x28e
 4381 0a0b 67000000 		.4byte	0x67
 4382 0a0f A0       		.byte	0xa0
 4383 0a10 1B       		.uleb128 0x1b
 4384 0a11 D7010000 		.4byte	.LASF165
 4385 0a15 07       		.byte	0x7
ARM GAS  /tmp/ccrwCQMC.s 			page 78


 4386 0a16 8F02     		.2byte	0x28f
 4387 0a18 D4030000 		.4byte	0x3d4
 4388 0a1c A4       		.byte	0xa4
 4389 0a1d 1B       		.uleb128 0x1b
 4390 0a1e 1C050000 		.4byte	.LASF166
 4391 0a22 07       		.byte	0x7
 4392 0a23 9002     		.2byte	0x290
 4393 0a25 D4030000 		.4byte	0x3d4
 4394 0a29 AC       		.byte	0xac
 4395 0a2a 1B       		.uleb128 0x1b
 4396 0a2b B5040000 		.4byte	.LASF167
 4397 0a2f 07       		.byte	0x7
 4398 0a30 9102     		.2byte	0x291
 4399 0a32 D4030000 		.4byte	0x3d4
 4400 0a36 B4       		.byte	0xb4
 4401 0a37 1B       		.uleb128 0x1b
 4402 0a38 E1050000 		.4byte	.LASF168
 4403 0a3c 07       		.byte	0x7
 4404 0a3d 9202     		.2byte	0x292
 4405 0a3f D4030000 		.4byte	0x3d4
 4406 0a43 BC       		.byte	0xbc
 4407 0a44 1B       		.uleb128 0x1b
 4408 0a45 DE040000 		.4byte	.LASF169
 4409 0a49 07       		.byte	0x7
 4410 0a4a 9302     		.2byte	0x293
 4411 0a4c D4030000 		.4byte	0x3d4
 4412 0a50 C4       		.byte	0xc4
 4413 0a51 1B       		.uleb128 0x1b
 4414 0a52 A1060000 		.4byte	.LASF170
 4415 0a56 07       		.byte	0x7
 4416 0a57 9402     		.2byte	0x294
 4417 0a59 67000000 		.4byte	0x67
 4418 0a5d CC       		.byte	0xcc
 4419 0a5e 00       		.byte	0
 4420 0a5f 06       		.uleb128 0x6
 4421 0a60 32080000 		.4byte	0x832
 4422 0a64 6F0A0000 		.4byte	0xa6f
 4423 0a68 07       		.uleb128 0x7
 4424 0a69 6E000000 		.4byte	0x6e
 4425 0a6d 19       		.byte	0x19
 4426 0a6e 00       		.byte	0
 4427 0a6f 06       		.uleb128 0x6
 4428 0a70 32080000 		.4byte	0x832
 4429 0a74 7F0A0000 		.4byte	0xa7f
 4430 0a78 07       		.uleb128 0x7
 4431 0a79 6E000000 		.4byte	0x6e
 4432 0a7d 07       		.byte	0x7
 4433 0a7e 00       		.byte	0
 4434 0a7f 06       		.uleb128 0x6
 4435 0a80 32080000 		.4byte	0x832
 4436 0a84 8F0A0000 		.4byte	0xa8f
 4437 0a88 07       		.uleb128 0x7
 4438 0a89 6E000000 		.4byte	0x6e
 4439 0a8d 17       		.byte	0x17
 4440 0a8e 00       		.byte	0
 4441 0a8f 1E       		.uleb128 0x1e
 4442 0a90 F0       		.byte	0xf0
ARM GAS  /tmp/ccrwCQMC.s 			page 79


 4443 0a91 07       		.byte	0x7
 4444 0a92 9902     		.2byte	0x299
 4445 0a94 B30A0000 		.4byte	0xab3
 4446 0a98 1B       		.uleb128 0x1b
 4447 0a99 9F020000 		.4byte	.LASF171
 4448 0a9d 07       		.byte	0x7
 4449 0a9e 9C02     		.2byte	0x29c
 4450 0aa0 B30A0000 		.4byte	0xab3
 4451 0aa4 00       		.byte	0
 4452 0aa5 1B       		.uleb128 0x1b
 4453 0aa6 C60B0000 		.4byte	.LASF172
 4454 0aaa 07       		.byte	0x7
 4455 0aab 9D02     		.2byte	0x29d
 4456 0aad C30A0000 		.4byte	0xac3
 4457 0ab1 78       		.byte	0x78
 4458 0ab2 00       		.byte	0
 4459 0ab3 06       		.uleb128 0x6
 4460 0ab4 39030000 		.4byte	0x339
 4461 0ab8 C30A0000 		.4byte	0xac3
 4462 0abc 07       		.uleb128 0x7
 4463 0abd 6E000000 		.4byte	0x6e
 4464 0ac1 1D       		.byte	0x1d
 4465 0ac2 00       		.byte	0
 4466 0ac3 06       		.uleb128 0x6
 4467 0ac4 6E000000 		.4byte	0x6e
 4468 0ac8 D30A0000 		.4byte	0xad3
 4469 0acc 07       		.uleb128 0x7
 4470 0acd 6E000000 		.4byte	0x6e
 4471 0ad1 1D       		.byte	0x1d
 4472 0ad2 00       		.byte	0
 4473 0ad3 1F       		.uleb128 0x1f
 4474 0ad4 F0       		.byte	0xf0
 4475 0ad5 07       		.byte	0x7
 4476 0ad6 7E02     		.2byte	0x27e
 4477 0ad8 F50A0000 		.4byte	0xaf5
 4478 0adc 20       		.uleb128 0x20
 4479 0add 7D0A0000 		.4byte	.LASF121
 4480 0ae1 07       		.byte	0x7
 4481 0ae2 9502     		.2byte	0x295
 4482 0ae4 5E090000 		.4byte	0x95e
 4483 0ae8 20       		.uleb128 0x20
 4484 0ae9 D9070000 		.4byte	.LASF173
 4485 0aed 07       		.byte	0x7
 4486 0aee 9E02     		.2byte	0x29e
 4487 0af0 8F0A0000 		.4byte	0xa8f
 4488 0af4 00       		.byte	0
 4489 0af5 06       		.uleb128 0x6
 4490 0af6 32080000 		.4byte	0x832
 4491 0afa 050B0000 		.4byte	0xb05
 4492 0afe 07       		.uleb128 0x7
 4493 0aff 6E000000 		.4byte	0x6e
 4494 0b03 18       		.byte	0x18
 4495 0b04 00       		.byte	0
 4496 0b05 0E       		.uleb128 0xe
 4497 0b06 960B0000 		.4byte	.LASF175
 4498 0b0a 0C       		.uleb128 0xc
 4499 0b0b 04       		.byte	0x4
ARM GAS  /tmp/ccrwCQMC.s 			page 80


 4500 0b0c 050B0000 		.4byte	0xb05
 4501 0b10 21       		.uleb128 0x21
 4502 0b11 1B0B0000 		.4byte	0xb1b
 4503 0b15 19       		.uleb128 0x19
 4504 0b16 EF060000 		.4byte	0x6ef
 4505 0b1a 00       		.byte	0
 4506 0b1b 0C       		.uleb128 0xc
 4507 0b1c 04       		.byte	0x4
 4508 0b1d 100B0000 		.4byte	0xb10
 4509 0b21 0C       		.uleb128 0xc
 4510 0b22 04       		.byte	0x4
 4511 0b23 48040000 		.4byte	0x448
 4512 0b27 21       		.uleb128 0x21
 4513 0b28 320B0000 		.4byte	0xb32
 4514 0b2c 19       		.uleb128 0x19
 4515 0b2d 67000000 		.4byte	0x67
 4516 0b31 00       		.byte	0
 4517 0b32 0C       		.uleb128 0xc
 4518 0b33 04       		.byte	0x4
 4519 0b34 380B0000 		.4byte	0xb38
 4520 0b38 0C       		.uleb128 0xc
 4521 0b39 04       		.byte	0x4
 4522 0b3a 270B0000 		.4byte	0xb27
 4523 0b3e 06       		.uleb128 0x6
 4524 0b3f CC080000 		.4byte	0x8cc
 4525 0b43 4E0B0000 		.4byte	0xb4e
 4526 0b47 07       		.uleb128 0x7
 4527 0b48 6E000000 		.4byte	0x6e
 4528 0b4c 02       		.byte	0x2
 4529 0b4d 00       		.byte	0
 4530 0b4e 08       		.uleb128 0x8
 4531 0b4f 93020000 		.4byte	.LASF176
 4532 0b53 07       		.byte	0x7
 4533 0b54 2E03     		.2byte	0x32e
 4534 0b56 EF060000 		.4byte	0x6ef
 4535 0b5a 08       		.uleb128 0x8
 4536 0b5b 8A070000 		.4byte	.LASF177
 4537 0b5f 07       		.byte	0x7
 4538 0b60 2F03     		.2byte	0x32f
 4539 0b62 F5060000 		.4byte	0x6f5
 4540 0b66 08       		.uleb128 0x8
 4541 0b67 77000000 		.4byte	.LASF178
 4542 0b6b 01       		.byte	0x1
 4543 0b6c 5B0D     		.2byte	0xd5b
 4544 0b6e 75000000 		.4byte	0x75
 4545 0b72 08       		.uleb128 0x8
 4546 0b73 83000000 		.4byte	.LASF179
 4547 0b77 01       		.byte	0x1
 4548 0b78 5C0D     		.2byte	0xd5c
 4549 0b7a 75000000 		.4byte	0x75
 4550 0b7e 08       		.uleb128 0x8
 4551 0b7f 8F000000 		.4byte	.LASF180
 4552 0b83 01       		.byte	0x1
 4553 0b84 5F0D     		.2byte	0xd5f
 4554 0b86 75000000 		.4byte	0x75
 4555 0b8a 08       		.uleb128 0x8
 4556 0b8b 9B000000 		.4byte	.LASF181
ARM GAS  /tmp/ccrwCQMC.s 			page 81


 4557 0b8f 01       		.byte	0x1
 4558 0b90 600D     		.2byte	0xd60
 4559 0b92 75000000 		.4byte	0x75
 4560 0b96 08       		.uleb128 0x8
 4561 0b97 00000000 		.4byte	.LASF182
 4562 0b9b 01       		.byte	0x1
 4563 0b9c 630D     		.2byte	0xd63
 4564 0b9e 75000000 		.4byte	0x75
 4565 0ba2 08       		.uleb128 0x8
 4566 0ba3 23010000 		.4byte	.LASF183
 4567 0ba7 01       		.byte	0x1
 4568 0ba8 640D     		.2byte	0xd64
 4569 0baa 75000000 		.4byte	0x75
 4570 0bae 08       		.uleb128 0x8
 4571 0baf 2F010000 		.4byte	.LASF184
 4572 0bb3 01       		.byte	0x1
 4573 0bb4 670D     		.2byte	0xd67
 4574 0bb6 75000000 		.4byte	0x75
 4575 0bba 08       		.uleb128 0x8
 4576 0bbb 3B010000 		.4byte	.LASF185
 4577 0bbf 01       		.byte	0x1
 4578 0bc0 680D     		.2byte	0xd68
 4579 0bc2 75000000 		.4byte	0x75
 4580 0bc6 09       		.uleb128 0x9
 4581 0bc7 BC0A0000 		.4byte	.LASF186
 4582 0bcb 01       		.byte	0x1
 4583 0bcc 5D0E     		.2byte	0xe5d
 4584 0bce D20B0000 		.4byte	0xbd2
 4585 0bd2 02       		.uleb128 0x2
 4586 0bd3 02       		.byte	0x2
 4587 0bd4 07       		.byte	0x7
 4588 0bd5 840A0000 		.4byte	.LASF3
 4589 0bd9 09       		.uleb128 0x9
 4590 0bda CB0A0000 		.4byte	.LASF187
 4591 0bde 01       		.byte	0x1
 4592 0bdf 6C0E     		.2byte	0xe6c
 4593 0be1 E50B0000 		.4byte	0xbe5
 4594 0be5 02       		.uleb128 0x2
 4595 0be6 04       		.byte	0x4
 4596 0be7 07       		.byte	0x7
 4597 0be8 94080000 		.4byte	.LASF5
 4598 0bec 08       		.uleb128 0x8
 4599 0bed 47010000 		.4byte	.LASF188
 4600 0bf1 01       		.byte	0x1
 4601 0bf2 C10E     		.2byte	0xec1
 4602 0bf4 75000000 		.4byte	0x75
 4603 0bf8 08       		.uleb128 0x8
 4604 0bf9 53010000 		.4byte	.LASF189
 4605 0bfd 01       		.byte	0x1
 4606 0bfe C40E     		.2byte	0xec4
 4607 0c00 75000000 		.4byte	0x75
 4608 0c04 08       		.uleb128 0x8
 4609 0c05 5F010000 		.4byte	.LASF190
 4610 0c09 01       		.byte	0x1
 4611 0c0a D00E     		.2byte	0xed0
 4612 0c0c 75000000 		.4byte	0x75
 4613 0c10 08       		.uleb128 0x8
ARM GAS  /tmp/ccrwCQMC.s 			page 82


 4614 0c11 6B010000 		.4byte	.LASF191
 4615 0c15 01       		.byte	0x1
 4616 0c16 300F     		.2byte	0xf30
 4617 0c18 75000000 		.4byte	0x75
 4618 0c1c 08       		.uleb128 0x8
 4619 0c1d 77010000 		.4byte	.LASF192
 4620 0c21 01       		.byte	0x1
 4621 0c22 3D0F     		.2byte	0xf3d
 4622 0c24 75000000 		.4byte	0x75
 4623 0c28 0C       		.uleb128 0xc
 4624 0c29 04       		.byte	0x4
 4625 0c2a 2E0C0000 		.4byte	0xc2e
 4626 0c2e 22       		.uleb128 0x22
 4627 0c2f 06       		.uleb128 0x6
 4628 0c30 39080000 		.4byte	0x839
 4629 0c34 3F0C0000 		.4byte	0xc3f
 4630 0c38 07       		.uleb128 0x7
 4631 0c39 6E000000 		.4byte	0x6e
 4632 0c3d 04       		.byte	0x4
 4633 0c3e 00       		.byte	0
 4634 0c3f 03       		.uleb128 0x3
 4635 0c40 2F0C0000 		.4byte	0xc2f
 4636 0c44 23       		.uleb128 0x23
 4637 0c45 72050000 		.4byte	.LASF193
 4638 0c49 01       		.byte	0x1
 4639 0c4a 7B10     		.2byte	0x107b
 4640 0c4c 3F0C0000 		.4byte	0xc3f
 4641 0c50 05       		.uleb128 0x5
 4642 0c51 03       		.byte	0x3
 4643 0c52 00000000 		.4byte	lzo_copyright_
 4644 0c56 23       		.uleb128 0x23
 4645 0c57 D50B0000 		.4byte	.LASF194
 4646 0c5b 01       		.byte	0x1
 4647 0c5c 8710     		.2byte	0x1087
 4648 0c5e 3F0C0000 		.4byte	0xc3f
 4649 0c62 05       		.uleb128 0x5
 4650 0c63 03       		.byte	0x3
 4651 0c64 00000000 		.4byte	lzo_version_string_
 4652 0c68 06       		.uleb128 0x6
 4653 0c69 39080000 		.4byte	0x839
 4654 0c6d 780C0000 		.4byte	0xc78
 4655 0c71 07       		.uleb128 0x7
 4656 0c72 6E000000 		.4byte	0x6e
 4657 0c76 0B       		.byte	0xb
 4658 0c77 00       		.byte	0
 4659 0c78 03       		.uleb128 0x3
 4660 0c79 680C0000 		.4byte	0xc68
 4661 0c7d 23       		.uleb128 0x23
 4662 0c7e AC0B0000 		.4byte	.LASF195
 4663 0c82 01       		.byte	0x1
 4664 0c83 8810     		.2byte	0x1088
 4665 0c85 780C0000 		.4byte	0xc78
 4666 0c89 05       		.uleb128 0x5
 4667 0c8a 03       		.byte	0x3
 4668 0c8b 00000000 		.4byte	lzo_version_date_
 4669 0c8f 24       		.uleb128 0x24
 4670 0c90 AC050000 		.4byte	.LASF256
ARM GAS  /tmp/ccrwCQMC.s 			page 83


 4671 0c94 10       		.byte	0x10
 4672 0c95 01       		.byte	0x1
 4673 0c96 4D11     		.2byte	0x114d
 4674 0c98 BB0C0000 		.4byte	0xcbb
 4675 0c9c 25       		.uleb128 0x25
 4676 0c9d 6100     		.ascii	"a\000"
 4677 0c9f 01       		.byte	0x1
 4678 0ca0 4E11     		.2byte	0x114e
 4679 0ca2 BB0C0000 		.4byte	0xcbb
 4680 0ca6 25       		.uleb128 0x25
 4681 0ca7 6200     		.ascii	"b\000"
 4682 0ca9 01       		.byte	0x1
 4683 0caa 4F11     		.2byte	0x114f
 4684 0cac CB0C0000 		.4byte	0xccb
 4685 0cb0 25       		.uleb128 0x25
 4686 0cb1 6300     		.ascii	"c\000"
 4687 0cb3 01       		.byte	0x1
 4688 0cb4 5111     		.2byte	0x1151
 4689 0cb6 DB0C0000 		.4byte	0xcdb
 4690 0cba 00       		.byte	0
 4691 0cbb 06       		.uleb128 0x6
 4692 0cbc 89020000 		.4byte	0x289
 4693 0cc0 CB0C0000 		.4byte	0xccb
 4694 0cc4 07       		.uleb128 0x7
 4695 0cc5 6E000000 		.4byte	0x6e
 4696 0cc9 01       		.byte	0x1
 4697 0cca 00       		.byte	0
 4698 0ccb 06       		.uleb128 0x6
 4699 0ccc 2C000000 		.4byte	0x2c
 4700 0cd0 DB0C0000 		.4byte	0xcdb
 4701 0cd4 07       		.uleb128 0x7
 4702 0cd5 6E000000 		.4byte	0x6e
 4703 0cd9 0F       		.byte	0xf
 4704 0cda 00       		.byte	0
 4705 0cdb 06       		.uleb128 0x6
 4706 0cdc E5000000 		.4byte	0xe5
 4707 0ce0 EB0C0000 		.4byte	0xceb
 4708 0ce4 07       		.uleb128 0x7
 4709 0ce5 6E000000 		.4byte	0x6e
 4710 0ce9 01       		.byte	0x1
 4711 0cea 00       		.byte	0
 4712 0ceb 26       		.uleb128 0x26
 4713 0cec DA060000 		.4byte	.LASF211
 4714 0cf0 01       		.byte	0x1
 4715 0cf1 3017     		.2byte	0x1730
 4716 0cf3 67000000 		.4byte	0x67
 4717 0cf7 00000000 		.4byte	.LFB33
 4718 0cfb B4030000 		.4byte	.LFE33-.LFB33
 4719 0cff 01       		.uleb128 0x1
 4720 0d00 9C       		.byte	0x9c
 4721 0d01 150E0000 		.4byte	0xe15
 4722 0d05 27       		.uleb128 0x27
 4723 0d06 696E00   		.ascii	"in\000"
 4724 0d09 01       		.byte	0x1
 4725 0d0a 3017     		.2byte	0x1730
 4726 0d0c 2E030000 		.4byte	0x32e
 4727 0d10 00000000 		.4byte	.LLST88
ARM GAS  /tmp/ccrwCQMC.s 			page 84


 4728 0d14 28       		.uleb128 0x28
 4729 0d15 A5050000 		.4byte	.LASF196
 4730 0d19 01       		.byte	0x1
 4731 0d1a 3017     		.2byte	0x1730
 4732 0d1c 89020000 		.4byte	0x289
 4733 0d20 92000000 		.4byte	.LLST89
 4734 0d24 29       		.uleb128 0x29
 4735 0d25 6F757400 		.ascii	"out\000"
 4736 0d29 01       		.byte	0x1
 4737 0d2a 3117     		.2byte	0x1731
 4738 0d2c 39030000 		.4byte	0x339
 4739 0d30 01       		.uleb128 0x1
 4740 0d31 52       		.byte	0x52
 4741 0d32 2A       		.uleb128 0x2a
 4742 0d33 99010000 		.4byte	.LASF197
 4743 0d37 01       		.byte	0x1
 4744 0d38 3117     		.2byte	0x1731
 4745 0d3a 44030000 		.4byte	0x344
 4746 0d3e 01       		.uleb128 0x1
 4747 0d3f 53       		.byte	0x53
 4748 0d40 28       		.uleb128 0x28
 4749 0d41 FC050000 		.4byte	.LASF198
 4750 0d45 01       		.byte	0x1
 4751 0d46 3217     		.2byte	0x1732
 4752 0d48 4A030000 		.4byte	0x34a
 4753 0d4c 0B010000 		.4byte	.LLST90
 4754 0d50 2B       		.uleb128 0x2b
 4755 0d51 6F7000   		.ascii	"op\000"
 4756 0d54 01       		.byte	0x1
 4757 0d55 3517     		.2byte	0x1735
 4758 0d57 39030000 		.4byte	0x339
 4759 0d5b 2B010000 		.4byte	.LLST91
 4760 0d5f 2B       		.uleb128 0x2b
 4761 0d60 697000   		.ascii	"ip\000"
 4762 0d63 01       		.byte	0x1
 4763 0d64 3617     		.2byte	0x1736
 4764 0d66 2E030000 		.4byte	0x32e
 4765 0d6a D6020000 		.4byte	.LLST92
 4766 0d6e 2B       		.uleb128 0x2b
 4767 0d6f 7400     		.ascii	"t\000"
 4768 0d71 01       		.byte	0x1
 4769 0d72 3717     		.2byte	0x1737
 4770 0d74 89020000 		.4byte	0x289
 4771 0d78 FF040000 		.4byte	.LLST93
 4772 0d7c 2C       		.uleb128 0x2c
 4773 0d7d AA060000 		.4byte	.LASF199
 4774 0d81 01       		.byte	0x1
 4775 0d82 3C17     		.2byte	0x173c
 4776 0d84 2E030000 		.4byte	0x32e
 4777 0d88 16070000 		.4byte	.LLST94
 4778 0d8c 23       		.uleb128 0x23
 4779 0d8d 73020000 		.4byte	.LASF200
 4780 0d91 01       		.byte	0x1
 4781 0d92 3F17     		.2byte	0x173f
 4782 0d94 34030000 		.4byte	0x334
 4783 0d98 01       		.uleb128 0x1
 4784 0d99 56       		.byte	0x56
ARM GAS  /tmp/ccrwCQMC.s 			page 85


 4785 0d9a 23       		.uleb128 0x23
 4786 0d9b C7080000 		.4byte	.LASF201
 4787 0d9f 01       		.byte	0x1
 4788 0da0 4117     		.2byte	0x1741
 4789 0da2 3F030000 		.4byte	0x33f
 4790 0da6 01       		.uleb128 0x1
 4791 0da7 5C       		.byte	0x5c
 4792 0da8 2D       		.uleb128 0x2d
 4793 0da9 48090000 		.4byte	.LASF202
 4794 0dad 01       		.byte	0x1
 4795 0dae C918     		.2byte	0x18c9
 4796 0db0 C4020000 		.4byte	.L297
 4797 0db4 2D       		.uleb128 0x2d
 4798 0db5 09070000 		.4byte	.LASF203
 4799 0db9 01       		.byte	0x1
 4800 0dba B718     		.2byte	0x18b7
 4801 0dbc 24020000 		.4byte	.L299
 4802 0dc0 2D       		.uleb128 0x2d
 4803 0dc1 9E0A0000 		.4byte	.LASF204
 4804 0dc5 01       		.byte	0x1
 4805 0dc6 CF18     		.2byte	0x18cf
 4806 0dc8 80030000 		.4byte	.L300
 4807 0dcc 2D       		.uleb128 0x2d
 4808 0dcd 9B090000 		.4byte	.LASF205
 4809 0dd1 01       		.byte	0x1
 4810 0dd2 AD17     		.2byte	0x17ad
 4811 0dd4 5E000000 		.4byte	.L302
 4812 0dd8 2D       		.uleb128 0x2d
 4813 0dd9 F6050000 		.4byte	.LASF206
 4814 0ddd 01       		.byte	0x1
 4815 0dde CB17     		.2byte	0x17cb
 4816 0de0 D8000000 		.4byte	.L304
 4817 0de4 2D       		.uleb128 0x2d
 4818 0de5 56040000 		.4byte	.LASF207
 4819 0de9 01       		.byte	0x1
 4820 0dea D518     		.2byte	0x18d5
 4821 0dec 88030000 		.4byte	.L318
 4822 0df0 2D       		.uleb128 0x2d
 4823 0df1 2F070000 		.4byte	.LASF208
 4824 0df5 01       		.byte	0x1
 4825 0df6 AE18     		.2byte	0x18ae
 4826 0df8 92020000 		.4byte	.L320
 4827 0dfc 2D       		.uleb128 0x2d
 4828 0dfd 67090000 		.4byte	.LASF209
 4829 0e01 01       		.byte	0x1
 4830 0e02 A718     		.2byte	0x18a7
 4831 0e04 9E000000 		.4byte	.L322
 4832 0e08 2D       		.uleb128 0x2d
 4833 0e09 500A0000 		.4byte	.LASF210
 4834 0e0d 01       		.byte	0x1
 4835 0e0e C318     		.2byte	0x18c3
 4836 0e10 96030000 		.4byte	.L334
 4837 0e14 00       		.byte	0
 4838 0e15 26       		.uleb128 0x26
 4839 0e16 1C040000 		.4byte	.LASF212
 4840 0e1a 01       		.byte	0x1
 4841 0e1b 1315     		.2byte	0x1513
ARM GAS  /tmp/ccrwCQMC.s 			page 86


 4842 0e1d 67000000 		.4byte	0x67
 4843 0e21 00000000 		.4byte	.LFB32
 4844 0e25 00030000 		.4byte	.LFE32-.LFB32
 4845 0e29 01       		.uleb128 0x1
 4846 0e2a 9C       		.byte	0x9c
 4847 0e2b 0F0F0000 		.4byte	0xf0f
 4848 0e2f 27       		.uleb128 0x27
 4849 0e30 696E00   		.ascii	"in\000"
 4850 0e33 01       		.byte	0x1
 4851 0e34 1315     		.2byte	0x1513
 4852 0e36 2E030000 		.4byte	0x32e
 4853 0e3a 30080000 		.4byte	.LLST80
 4854 0e3e 28       		.uleb128 0x28
 4855 0e3f A5050000 		.4byte	.LASF196
 4856 0e43 01       		.byte	0x1
 4857 0e44 1315     		.2byte	0x1513
 4858 0e46 89020000 		.4byte	0x289
 4859 0e4a 83080000 		.4byte	.LLST81
 4860 0e4e 29       		.uleb128 0x29
 4861 0e4f 6F757400 		.ascii	"out\000"
 4862 0e53 01       		.byte	0x1
 4863 0e54 1415     		.2byte	0x1514
 4864 0e56 39030000 		.4byte	0x339
 4865 0e5a 01       		.uleb128 0x1
 4866 0e5b 52       		.byte	0x52
 4867 0e5c 2A       		.uleb128 0x2a
 4868 0e5d 99010000 		.4byte	.LASF197
 4869 0e61 01       		.byte	0x1
 4870 0e62 1415     		.2byte	0x1514
 4871 0e64 44030000 		.4byte	0x344
 4872 0e68 01       		.uleb128 0x1
 4873 0e69 53       		.byte	0x53
 4874 0e6a 28       		.uleb128 0x28
 4875 0e6b FC050000 		.4byte	.LASF198
 4876 0e6f 01       		.byte	0x1
 4877 0e70 1515     		.2byte	0x1515
 4878 0e72 4A030000 		.4byte	0x34a
 4879 0e76 A4080000 		.4byte	.LLST82
 4880 0e7a 2B       		.uleb128 0x2b
 4881 0e7b 6F7000   		.ascii	"op\000"
 4882 0e7e 01       		.byte	0x1
 4883 0e7f 1815     		.2byte	0x1518
 4884 0e81 39030000 		.4byte	0x339
 4885 0e85 C4080000 		.4byte	.LLST83
 4886 0e89 2B       		.uleb128 0x2b
 4887 0e8a 697000   		.ascii	"ip\000"
 4888 0e8d 01       		.byte	0x1
 4889 0e8e 1915     		.2byte	0x1519
 4890 0e90 2E030000 		.4byte	0x32e
 4891 0e94 980A0000 		.4byte	.LLST84
 4892 0e98 2B       		.uleb128 0x2b
 4893 0e99 7400     		.ascii	"t\000"
 4894 0e9b 01       		.byte	0x1
 4895 0e9c 1A15     		.2byte	0x151a
 4896 0e9e 89020000 		.4byte	0x289
 4897 0ea2 570C0000 		.4byte	.LLST85
 4898 0ea6 2C       		.uleb128 0x2c
ARM GAS  /tmp/ccrwCQMC.s 			page 87


 4899 0ea7 AA060000 		.4byte	.LASF199
 4900 0eab 01       		.byte	0x1
 4901 0eac 1F15     		.2byte	0x151f
 4902 0eae 2E030000 		.4byte	0x32e
 4903 0eb2 BB0D0000 		.4byte	.LLST86
 4904 0eb6 2C       		.uleb128 0x2c
 4905 0eb7 73020000 		.4byte	.LASF200
 4906 0ebb 01       		.byte	0x1
 4907 0ebc 2215     		.2byte	0x1522
 4908 0ebe 34030000 		.4byte	0x334
 4909 0ec2 C20E0000 		.4byte	.LLST87
 4910 0ec6 2D       		.uleb128 0x2d
 4911 0ec7 09070000 		.4byte	.LASF203
 4912 0ecb 01       		.byte	0x1
 4913 0ecc 9A16     		.2byte	0x169a
 4914 0ece A0010000 		.4byte	.L234
 4915 0ed2 2D       		.uleb128 0x2d
 4916 0ed3 9B090000 		.4byte	.LASF205
 4917 0ed7 01       		.byte	0x1
 4918 0ed8 9015     		.2byte	0x1590
 4919 0eda 42000000 		.4byte	.L236
 4920 0ede 2D       		.uleb128 0x2d
 4921 0edf F6050000 		.4byte	.LASF206
 4922 0ee3 01       		.byte	0x1
 4923 0ee4 AE15     		.2byte	0x15ae
 4924 0ee6 84000000 		.4byte	.L238
 4925 0eea 2D       		.uleb128 0x2d
 4926 0eeb 2F070000 		.4byte	.LASF208
 4927 0eef 01       		.byte	0x1
 4928 0ef0 9116     		.2byte	0x1691
 4929 0ef2 6E000000 		.4byte	.L248
 4930 0ef6 2D       		.uleb128 0x2d
 4931 0ef7 67090000 		.4byte	.LASF209
 4932 0efb 01       		.byte	0x1
 4933 0efc 8A16     		.2byte	0x168a
 4934 0efe A2000000 		.4byte	.L250
 4935 0f02 2D       		.uleb128 0x2d
 4936 0f03 500A0000 		.4byte	.LASF210
 4937 0f07 01       		.byte	0x1
 4938 0f08 A616     		.2byte	0x16a6
 4939 0f0a E2020000 		.4byte	.L260
 4940 0f0e 00       		.byte	0
 4941 0f0f 26       		.uleb128 0x26
 4942 0f10 56090000 		.4byte	.LASF213
 4943 0f14 01       		.byte	0x1
 4944 0f15 5C14     		.2byte	0x145c
 4945 0f17 67000000 		.4byte	0x67
 4946 0f1b 00000000 		.4byte	.LFB31
 4947 0f1f 94010000 		.4byte	.LFE31-.LFB31
 4948 0f23 01       		.uleb128 0x1
 4949 0f24 9C       		.byte	0x9c
 4950 0f25 DA100000 		.4byte	0x10da
 4951 0f29 27       		.uleb128 0x27
 4952 0f2a 696E00   		.ascii	"in\000"
 4953 0f2d 01       		.byte	0x1
 4954 0f2e 5C14     		.2byte	0x145c
 4955 0f30 2E030000 		.4byte	0x32e
ARM GAS  /tmp/ccrwCQMC.s 			page 88


 4956 0f34 430F0000 		.4byte	.LLST60
 4957 0f38 28       		.uleb128 0x28
 4958 0f39 A5050000 		.4byte	.LASF196
 4959 0f3d 01       		.byte	0x1
 4960 0f3e 5C14     		.2byte	0x145c
 4961 0f40 89020000 		.4byte	0x289
 4962 0f44 E30F0000 		.4byte	.LLST61
 4963 0f48 27       		.uleb128 0x27
 4964 0f49 6F757400 		.ascii	"out\000"
 4965 0f4d 01       		.byte	0x1
 4966 0f4e 5D14     		.2byte	0x145d
 4967 0f50 39030000 		.4byte	0x339
 4968 0f54 77100000 		.4byte	.LLST62
 4969 0f58 28       		.uleb128 0x28
 4970 0f59 99010000 		.4byte	.LASF197
 4971 0f5d 01       		.byte	0x1
 4972 0f5e 5D14     		.2byte	0x145d
 4973 0f60 44030000 		.4byte	0x344
 4974 0f64 AD100000 		.4byte	.LLST63
 4975 0f68 28       		.uleb128 0x28
 4976 0f69 FC050000 		.4byte	.LASF198
 4977 0f6d 01       		.byte	0x1
 4978 0f6e 5E14     		.2byte	0x145e
 4979 0f70 4A030000 		.4byte	0x34a
 4980 0f74 E1100000 		.4byte	.LLST64
 4981 0f78 2B       		.uleb128 0x2b
 4982 0f79 697000   		.ascii	"ip\000"
 4983 0f7c 01       		.byte	0x1
 4984 0f7d 6014     		.2byte	0x1460
 4985 0f7f 2E030000 		.4byte	0x32e
 4986 0f83 01110000 		.4byte	.LLST65
 4987 0f87 2B       		.uleb128 0x2b
 4988 0f88 6F7000   		.ascii	"op\000"
 4989 0f8b 01       		.byte	0x1
 4990 0f8c 6114     		.2byte	0x1461
 4991 0f8e 39030000 		.4byte	0x339
 4992 0f92 4B110000 		.4byte	.LLST66
 4993 0f96 2B       		.uleb128 0x2b
 4994 0f97 6C00     		.ascii	"l\000"
 4995 0f99 01       		.byte	0x1
 4996 0f9a 6214     		.2byte	0x1462
 4997 0f9c 89020000 		.4byte	0x289
 4998 0fa0 4D120000 		.4byte	.LLST67
 4999 0fa4 2B       		.uleb128 0x2b
 5000 0fa5 7400     		.ascii	"t\000"
 5001 0fa7 01       		.byte	0x1
 5002 0fa8 6314     		.2byte	0x1463
 5003 0faa 89020000 		.4byte	0x289
 5004 0fae AD120000 		.4byte	.LLST68
 5005 0fb2 2E       		.uleb128 0x2e
 5006 0fb3 60010000 		.4byte	.Ldebug_ranges0+0x160
 5007 0fb7 57100000 		.4byte	0x1057
 5008 0fbb 2B       		.uleb128 0x2b
 5009 0fbc 6C6C00   		.ascii	"ll\000"
 5010 0fbf 01       		.byte	0x1
 5011 0fc0 6714     		.2byte	0x1467
 5012 0fc2 89020000 		.4byte	0x289
ARM GAS  /tmp/ccrwCQMC.s 			page 89


 5013 0fc6 35130000 		.4byte	.LLST69
 5014 0fca 2C       		.uleb128 0x2c
 5015 0fcb FC040000 		.4byte	.LASF214
 5016 0fcf 01       		.byte	0x1
 5017 0fd0 6814     		.2byte	0x1468
 5018 0fd2 52000000 		.4byte	0x52
 5019 0fd6 7F130000 		.4byte	.LLST70
 5020 0fda 2F       		.uleb128 0x2f
 5021 0fdb 89140000 		.4byte	0x1489
 5022 0fdf 58000000 		.4byte	.LBB54
 5023 0fe3 0C000000 		.4byte	.LBE54-.LBB54
 5024 0fe7 01       		.byte	0x1
 5025 0fe8 7014     		.2byte	0x1470
 5026 0fea 26100000 		.4byte	0x1026
 5027 0fee 30       		.uleb128 0x30
 5028 0fef AF140000 		.4byte	0x14af
 5029 0ff3 EB130000 		.4byte	.LLST71
 5030 0ff7 30       		.uleb128 0x30
 5031 0ff8 A4140000 		.4byte	0x14a4
 5032 0ffc 01140000 		.4byte	.LLST72
 5033 1000 30       		.uleb128 0x30
 5034 1001 9A140000 		.4byte	0x149a
 5035 1005 15140000 		.4byte	.LLST73
 5036 1009 31       		.uleb128 0x31
 5037 100a 64000000 		.4byte	.LVL197
 5038 100e 22180000 		.4byte	0x1822
 5039 1012 32       		.uleb128 0x32
 5040 1013 01       		.uleb128 0x1
 5041 1014 50       		.byte	0x50
 5042 1015 02       		.uleb128 0x2
 5043 1016 7B       		.byte	0x7b
 5044 1017 00       		.sleb128 0
 5045 1018 32       		.uleb128 0x32
 5046 1019 01       		.uleb128 0x1
 5047 101a 51       		.byte	0x51
 5048 101b 01       		.uleb128 0x1
 5049 101c 30       		.byte	0x30
 5050 101d 32       		.uleb128 0x32
 5051 101e 01       		.uleb128 0x1
 5052 101f 52       		.byte	0x52
 5053 1020 03       		.uleb128 0x3
 5054 1021 0A       		.byte	0xa
 5055 1022 0080     		.2byte	0x8000
 5056 1024 00       		.byte	0
 5057 1025 00       		.byte	0
 5058 1026 31       		.uleb128 0x31
 5059 1027 74000000 		.4byte	.LVL198
 5060 102b E0100000 		.4byte	0x10e0
 5061 102f 32       		.uleb128 0x32
 5062 1030 01       		.uleb128 0x1
 5063 1031 50       		.byte	0x50
 5064 1032 02       		.uleb128 0x2
 5065 1033 79       		.byte	0x79
 5066 1034 00       		.sleb128 0
 5067 1035 32       		.uleb128 0x32
 5068 1036 01       		.uleb128 0x1
 5069 1037 51       		.byte	0x51
ARM GAS  /tmp/ccrwCQMC.s 			page 90


 5070 1038 02       		.uleb128 0x2
 5071 1039 76       		.byte	0x76
 5072 103a 00       		.sleb128 0
 5073 103b 32       		.uleb128 0x32
 5074 103c 01       		.uleb128 0x1
 5075 103d 52       		.byte	0x52
 5076 103e 02       		.uleb128 0x2
 5077 103f 75       		.byte	0x75
 5078 1040 00       		.sleb128 0
 5079 1041 32       		.uleb128 0x32
 5080 1042 01       		.uleb128 0x1
 5081 1043 53       		.byte	0x53
 5082 1044 02       		.uleb128 0x2
 5083 1045 7A       		.byte	0x7a
 5084 1046 00       		.sleb128 0
 5085 1047 32       		.uleb128 0x32
 5086 1048 02       		.uleb128 0x2
 5087 1049 7D       		.byte	0x7d
 5088 104a 00       		.sleb128 0
 5089 104b 02       		.uleb128 0x2
 5090 104c 77       		.byte	0x77
 5091 104d 00       		.sleb128 0
 5092 104e 32       		.uleb128 0x32
 5093 104f 02       		.uleb128 0x2
 5094 1050 7D       		.byte	0x7d
 5095 1051 04       		.sleb128 4
 5096 1052 02       		.uleb128 0x2
 5097 1053 7B       		.byte	0x7b
 5098 1054 00       		.sleb128 0
 5099 1055 00       		.byte	0
 5100 1056 00       		.byte	0
 5101 1057 33       		.uleb128 0x33
 5102 1058 80010000 		.4byte	.Ldebug_ranges0+0x180
 5103 105c 2B       		.uleb128 0x2b
 5104 105d 696900   		.ascii	"ii\000"
 5105 1060 01       		.byte	0x1
 5106 1061 7B14     		.2byte	0x147b
 5107 1063 2E030000 		.4byte	0x32e
 5108 1067 28140000 		.4byte	.LLST74
 5109 106b 34       		.uleb128 0x34
 5110 106c 62010000 		.4byte	.LBB65
 5111 1070 1C000000 		.4byte	.LBE65-.LBB65
 5112 1074 A2100000 		.4byte	0x10a2
 5113 1078 2B       		.uleb128 0x2b
 5114 1079 747400   		.ascii	"tt\000"
 5115 107c 01       		.byte	0x1
 5116 107d 8514     		.2byte	0x1485
 5117 107f 89020000 		.4byte	0x289
 5118 1083 5C140000 		.4byte	.LLST78
 5119 1087 35       		.uleb128 0x35
 5120 1088 72010000 		.4byte	.LBB66
 5121 108c 04000000 		.4byte	.LBE66-.LBB66
 5122 1090 2C       		.uleb128 0x2c
 5123 1091 0E010000 		.4byte	.LASF215
 5124 1095 01       		.byte	0x1
 5125 1096 8B14     		.2byte	0x148b
 5126 1098 DA100000 		.4byte	0x10da
ARM GAS  /tmp/ccrwCQMC.s 			page 91


 5127 109c 6F140000 		.4byte	.LLST79
 5128 10a0 00       		.byte	0
 5129 10a1 00       		.byte	0
 5130 10a2 33       		.uleb128 0x33
 5131 10a3 A0010000 		.4byte	.Ldebug_ranges0+0x1a0
 5132 10a7 2C       		.uleb128 0x2c
 5133 10a8 35040000 		.4byte	.LASF216
 5134 10ac 01       		.byte	0x1
 5135 10ad 9114     		.2byte	0x1491
 5136 10af 39030000 		.4byte	0x339
 5137 10b3 8F140000 		.4byte	.LLST75
 5138 10b7 2C       		.uleb128 0x2c
 5139 10b8 1C070000 		.4byte	.LASF217
 5140 10bc 01       		.byte	0x1
 5141 10bd 9114     		.2byte	0x1491
 5142 10bf 2E030000 		.4byte	0x32e
 5143 10c3 2B150000 		.4byte	.LLST76
 5144 10c7 2C       		.uleb128 0x2c
 5145 10c8 DA000000 		.4byte	.LASF218
 5146 10cc 01       		.byte	0x1
 5147 10cd 9114     		.2byte	0x1491
 5148 10cf 89020000 		.4byte	0x289
 5149 10d3 B2150000 		.4byte	.LLST77
 5150 10d7 00       		.byte	0
 5151 10d8 00       		.byte	0
 5152 10d9 00       		.byte	0
 5153 10da 0C       		.uleb128 0xc
 5154 10db 04       		.byte	0x4
 5155 10dc 38000000 		.4byte	0x38
 5156 10e0 36       		.uleb128 0x36
 5157 10e1 A7070000 		.4byte	.LASF228
 5158 10e5 01       		.byte	0x1
 5159 10e6 3D13     		.2byte	0x133d
 5160 10e8 89020000 		.4byte	0x289
 5161 10ec 00000000 		.4byte	.LFB30
 5162 10f0 9C020000 		.4byte	.LFE30-.LFB30
 5163 10f4 01       		.uleb128 0x1
 5164 10f5 9C       		.byte	0x9c
 5165 10f6 BE120000 		.4byte	0x12be
 5166 10fa 27       		.uleb128 0x27
 5167 10fb 696E00   		.ascii	"in\000"
 5168 10fe 01       		.byte	0x1
 5169 10ff 3D13     		.2byte	0x133d
 5170 1101 2E030000 		.4byte	0x32e
 5171 1105 08160000 		.4byte	.LLST1
 5172 1109 28       		.uleb128 0x28
 5173 110a A5050000 		.4byte	.LASF196
 5174 110e 01       		.byte	0x1
 5175 110f 3D13     		.2byte	0x133d
 5176 1111 89020000 		.4byte	0x289
 5177 1115 4D160000 		.4byte	.LLST2
 5178 1119 27       		.uleb128 0x27
 5179 111a 6F757400 		.ascii	"out\000"
 5180 111e 01       		.byte	0x1
 5181 111f 3E13     		.2byte	0x133e
 5182 1121 39030000 		.4byte	0x339
 5183 1125 6E160000 		.4byte	.LLST3
ARM GAS  /tmp/ccrwCQMC.s 			page 92


 5184 1129 28       		.uleb128 0x28
 5185 112a 99010000 		.4byte	.LASF197
 5186 112e 01       		.byte	0x1
 5187 112f 3E13     		.2byte	0x133e
 5188 1131 44030000 		.4byte	0x344
 5189 1135 8F160000 		.4byte	.LLST4
 5190 1139 27       		.uleb128 0x27
 5191 113a 746900   		.ascii	"ti\000"
 5192 113d 01       		.byte	0x1
 5193 113e 3F13     		.2byte	0x133f
 5194 1140 89020000 		.4byte	0x289
 5195 1144 BC160000 		.4byte	.LLST5
 5196 1148 28       		.uleb128 0x28
 5197 1149 FC050000 		.4byte	.LASF198
 5198 114d 01       		.byte	0x1
 5199 114e 3F13     		.2byte	0x133f
 5200 1150 4A030000 		.4byte	0x34a
 5201 1154 21170000 		.4byte	.LLST6
 5202 1158 2B       		.uleb128 0x2b
 5203 1159 697000   		.ascii	"ip\000"
 5204 115c 01       		.byte	0x1
 5205 115d 4113     		.2byte	0x1341
 5206 115f 2E030000 		.4byte	0x32e
 5207 1163 35170000 		.4byte	.LLST7
 5208 1167 2B       		.uleb128 0x2b
 5209 1168 6F7000   		.ascii	"op\000"
 5210 116b 01       		.byte	0x1
 5211 116c 4213     		.2byte	0x1342
 5212 116e 39030000 		.4byte	0x339
 5213 1172 4A180000 		.4byte	.LLST8
 5214 1176 2C       		.uleb128 0x2c
 5215 1177 C5000000 		.4byte	.LASF219
 5216 117b 01       		.byte	0x1
 5217 117c 4313     		.2byte	0x1343
 5218 117e 34030000 		.4byte	0x334
 5219 1182 121A0000 		.4byte	.LLST9
 5220 1186 2C       		.uleb128 0x2c
 5221 1187 73020000 		.4byte	.LASF200
 5222 118b 01       		.byte	0x1
 5223 118c 4413     		.2byte	0x1344
 5224 118e 34030000 		.4byte	0x334
 5225 1192 7C1A0000 		.4byte	.LLST10
 5226 1196 2B       		.uleb128 0x2b
 5227 1197 696900   		.ascii	"ii\000"
 5228 119a 01       		.byte	0x1
 5229 119b 4513     		.2byte	0x1345
 5230 119d 2E030000 		.4byte	0x32e
 5231 11a1 9A1A0000 		.4byte	.LLST11
 5232 11a5 23       		.uleb128 0x23
 5233 11a6 0A020000 		.4byte	.LASF220
 5234 11aa 01       		.byte	0x1
 5235 11ab 4613     		.2byte	0x1346
 5236 11ad C4120000 		.4byte	0x12c4
 5237 11b1 01       		.uleb128 0x1
 5238 11b2 59       		.byte	0x59
 5239 11b3 2D       		.uleb128 0x2d
 5240 11b4 00080000 		.4byte	.LASF221
ARM GAS  /tmp/ccrwCQMC.s 			page 93


 5241 11b8 01       		.byte	0x1
 5242 11b9 7A13     		.2byte	0x137a
 5243 11bb 30000000 		.4byte	.L5
 5244 11bf 37       		.uleb128 0x37
 5245 11c0 09010000 		.4byte	.LASF257
 5246 11c4 01       		.byte	0x1
 5247 11c5 7C13     		.2byte	0x137c
 5248 11c7 2D       		.uleb128 0x2d
 5249 11c8 49050000 		.4byte	.LASF222
 5250 11cc 01       		.byte	0x1
 5251 11cd 1D14     		.2byte	0x141d
 5252 11cf E6000000 		.4byte	.L21
 5253 11d3 33       		.uleb128 0x33
 5254 11d4 00000000 		.4byte	.Ldebug_ranges0+0
 5255 11d8 2C       		.uleb128 0x2c
 5256 11d9 AA060000 		.4byte	.LASF199
 5257 11dd 01       		.byte	0x1
 5258 11de 4F13     		.2byte	0x134f
 5259 11e0 2E030000 		.4byte	0x32e
 5260 11e4 D21B0000 		.4byte	.LLST12
 5261 11e8 2C       		.uleb128 0x2c
 5262 11e9 51020000 		.4byte	.LASF223
 5263 11ed 01       		.byte	0x1
 5264 11ee 7513     		.2byte	0x1375
 5265 11f0 89020000 		.4byte	0x289
 5266 11f4 1C1C0000 		.4byte	.LLST13
 5267 11f8 2C       		.uleb128 0x2c
 5268 11f9 A2040000 		.4byte	.LASF224
 5269 11fd 01       		.byte	0x1
 5270 11fe 7613     		.2byte	0x1376
 5271 1200 89020000 		.4byte	0x289
 5272 1204 5B1C0000 		.4byte	.LLST14
 5273 1208 2E       		.uleb128 0x2e
 5274 1209 20000000 		.4byte	.Ldebug_ranges0+0x20
 5275 120d 31120000 		.4byte	0x1231
 5276 1211 2B       		.uleb128 0x2b
 5277 1212 647600   		.ascii	"dv\000"
 5278 1215 01       		.byte	0x1
 5279 1216 7813     		.2byte	0x1378
 5280 1218 52000000 		.4byte	0x52
 5281 121c 171D0000 		.4byte	.LLST15
 5282 1220 2C       		.uleb128 0x2c
 5283 1221 A8040000 		.4byte	.LASF225
 5284 1225 01       		.byte	0x1
 5285 1226 7913     		.2byte	0x1379
 5286 1228 89020000 		.4byte	0x289
 5287 122c 2A1D0000 		.4byte	.LLST16
 5288 1230 00       		.byte	0
 5289 1231 2E       		.uleb128 0x2e
 5290 1232 60000000 		.4byte	.Ldebug_ranges0+0x60
 5291 1236 74120000 		.4byte	0x1274
 5292 123a 2B       		.uleb128 0x2b
 5293 123b 7400     		.ascii	"t\000"
 5294 123d 01       		.byte	0x1
 5295 123e 8A13     		.2byte	0x138a
 5296 1240 89020000 		.4byte	0x289
 5297 1244 471D0000 		.4byte	.LLST17
ARM GAS  /tmp/ccrwCQMC.s 			page 94


 5298 1248 33       		.uleb128 0x33
 5299 1249 90000000 		.4byte	.Ldebug_ranges0+0x90
 5300 124d 2B       		.uleb128 0x2b
 5301 124e 747400   		.ascii	"tt\000"
 5302 1251 01       		.byte	0x1
 5303 1252 A613     		.2byte	0x13a6
 5304 1254 89020000 		.4byte	0x289
 5305 1258 A31D0000 		.4byte	.LLST18
 5306 125c 33       		.uleb128 0x33
 5307 125d A8000000 		.4byte	.Ldebug_ranges0+0xa8
 5308 1261 2C       		.uleb128 0x2c
 5309 1262 0E010000 		.4byte	.LASF215
 5310 1266 01       		.byte	0x1
 5311 1267 AB13     		.2byte	0x13ab
 5312 1269 DA100000 		.4byte	0x10da
 5313 126d C11D0000 		.4byte	.LLST19
 5314 1271 00       		.byte	0
 5315 1272 00       		.byte	0
 5316 1273 00       		.byte	0
 5317 1274 2E       		.uleb128 0x2e
 5318 1275 C0000000 		.4byte	.Ldebug_ranges0+0xc0
 5319 1279 8C120000 		.4byte	0x128c
 5320 127d 2B       		.uleb128 0x2b
 5321 127e 7600     		.ascii	"v\000"
 5322 1280 01       		.byte	0x1
 5323 1281 DD13     		.2byte	0x13dd
 5324 1283 52000000 		.4byte	0x52
 5325 1287 E11D0000 		.4byte	.LLST20
 5326 128b 00       		.byte	0
 5327 128c 2E       		.uleb128 0x2e
 5328 128d 00010000 		.4byte	.Ldebug_ranges0+0x100
 5329 1291 A6120000 		.4byte	0x12a6
 5330 1295 2C       		.uleb128 0x2c
 5331 1296 0E010000 		.4byte	.LASF215
 5332 129a 01       		.byte	0x1
 5333 129b 3814     		.2byte	0x1438
 5334 129d DA100000 		.4byte	0x10da
 5335 12a1 2F1E0000 		.4byte	.LLST22
 5336 12a5 00       		.byte	0
 5337 12a6 33       		.uleb128 0x33
 5338 12a7 E8000000 		.4byte	.Ldebug_ranges0+0xe8
 5339 12ab 2C       		.uleb128 0x2c
 5340 12ac 0E010000 		.4byte	.LASF215
 5341 12b0 01       		.byte	0x1
 5342 12b1 4C14     		.2byte	0x144c
 5343 12b3 DA100000 		.4byte	0x10da
 5344 12b7 4F1E0000 		.4byte	.LLST21
 5345 12bb 00       		.byte	0
 5346 12bc 00       		.byte	0
 5347 12bd 00       		.byte	0
 5348 12be 0C       		.uleb128 0xc
 5349 12bf 04       		.byte	0x4
 5350 12c0 44000000 		.4byte	0x44
 5351 12c4 03       		.uleb128 0x3
 5352 12c5 BE120000 		.4byte	0x12be
 5353 12c9 26       		.uleb128 0x26
 5354 12ca AA010000 		.4byte	.LASF226
ARM GAS  /tmp/ccrwCQMC.s 			page 95


 5355 12ce 01       		.byte	0x1
 5356 12cf C511     		.2byte	0x11c5
 5357 12d1 67000000 		.4byte	0x67
 5358 12d5 00000000 		.4byte	.LFB29
 5359 12d9 6E000000 		.4byte	.LFE29-.LFB29
 5360 12dd 01       		.uleb128 0x1
 5361 12de 9C       		.byte	0x9c
 5362 12df 8C130000 		.4byte	0x138c
 5363 12e3 27       		.uleb128 0x27
 5364 12e4 7600     		.ascii	"v\000"
 5365 12e6 01       		.byte	0x1
 5366 12e7 C511     		.2byte	0x11c5
 5367 12e9 6E000000 		.4byte	0x6e
 5368 12ed 6F1E0000 		.4byte	.LLST50
 5369 12f1 27       		.uleb128 0x27
 5370 12f2 733100   		.ascii	"s1\000"
 5371 12f5 01       		.byte	0x1
 5372 12f6 C511     		.2byte	0x11c5
 5373 12f8 67000000 		.4byte	0x67
 5374 12fc 901E0000 		.4byte	.LLST51
 5375 1300 27       		.uleb128 0x27
 5376 1301 733200   		.ascii	"s2\000"
 5377 1304 01       		.byte	0x1
 5378 1305 C511     		.2byte	0x11c5
 5379 1307 67000000 		.4byte	0x67
 5380 130b BE1E0000 		.4byte	.LLST52
 5381 130f 27       		.uleb128 0x27
 5382 1310 733300   		.ascii	"s3\000"
 5383 1313 01       		.byte	0x1
 5384 1314 C511     		.2byte	0x11c5
 5385 1316 67000000 		.4byte	0x67
 5386 131a EC1E0000 		.4byte	.LLST53
 5387 131e 27       		.uleb128 0x27
 5388 131f 733400   		.ascii	"s4\000"
 5389 1322 01       		.byte	0x1
 5390 1323 C511     		.2byte	0x11c5
 5391 1325 67000000 		.4byte	0x67
 5392 1329 0D1F0000 		.4byte	.LLST54
 5393 132d 27       		.uleb128 0x27
 5394 132e 733500   		.ascii	"s5\000"
 5395 1331 01       		.byte	0x1
 5396 1332 C511     		.2byte	0x11c5
 5397 1334 67000000 		.4byte	0x67
 5398 1338 391F0000 		.4byte	.LLST55
 5399 133c 27       		.uleb128 0x27
 5400 133d 733600   		.ascii	"s6\000"
 5401 1340 01       		.byte	0x1
 5402 1341 C611     		.2byte	0x11c6
 5403 1343 67000000 		.4byte	0x67
 5404 1347 651F0000 		.4byte	.LLST56
 5405 134b 27       		.uleb128 0x27
 5406 134c 733700   		.ascii	"s7\000"
 5407 134f 01       		.byte	0x1
 5408 1350 C611     		.2byte	0x11c6
 5409 1352 67000000 		.4byte	0x67
 5410 1356 911F0000 		.4byte	.LLST57
 5411 135a 27       		.uleb128 0x27
ARM GAS  /tmp/ccrwCQMC.s 			page 96


 5412 135b 733800   		.ascii	"s8\000"
 5413 135e 01       		.byte	0x1
 5414 135f C611     		.2byte	0x11c6
 5415 1361 67000000 		.4byte	0x67
 5416 1365 BD1F0000 		.4byte	.LLST58
 5417 1369 27       		.uleb128 0x27
 5418 136a 733900   		.ascii	"s9\000"
 5419 136d 01       		.byte	0x1
 5420 136e C611     		.2byte	0x11c6
 5421 1370 67000000 		.4byte	0x67
 5422 1374 E91F0000 		.4byte	.LLST59
 5423 1378 38       		.uleb128 0x38
 5424 1379 7200     		.ascii	"r\000"
 5425 137b 01       		.byte	0x1
 5426 137c C811     		.2byte	0x11c8
 5427 137e 67000000 		.4byte	0x67
 5428 1382 39       		.uleb128 0x39
 5429 1383 68000000 		.4byte	.LVL185
 5430 1387 8C130000 		.4byte	0x138c
 5431 138b 00       		.byte	0
 5432 138c 26       		.uleb128 0x26
 5433 138d 61020000 		.4byte	.LASF227
 5434 1391 01       		.byte	0x1
 5435 1392 5F11     		.2byte	0x115f
 5436 1394 67000000 		.4byte	0x67
 5437 1398 00000000 		.4byte	.LFB28
 5438 139c 28010000 		.4byte	.LFE28-.LFB28
 5439 13a0 01       		.uleb128 0x1
 5440 13a1 9C       		.byte	0x9c
 5441 13a2 50140000 		.4byte	0x1450
 5442 13a6 3A       		.uleb128 0x3a
 5443 13a7 7500     		.ascii	"u\000"
 5444 13a9 01       		.byte	0x1
 5445 13aa 6611     		.2byte	0x1166
 5446 13ac 8F0C0000 		.4byte	0xc8f
 5447 13b0 02       		.uleb128 0x2
 5448 13b1 91       		.byte	0x91
 5449 13b2 60       		.sleb128 -32
 5450 13b3 2B       		.uleb128 0x2b
 5451 13b4 7000     		.ascii	"p\000"
 5452 13b6 01       		.byte	0x1
 5453 13b7 6711     		.2byte	0x1167
 5454 13b9 4A030000 		.4byte	0x34a
 5455 13bd 15200000 		.4byte	.LLST44
 5456 13c1 2B       		.uleb128 0x2b
 5457 13c2 7200     		.ascii	"r\000"
 5458 13c4 01       		.byte	0x1
 5459 13c5 6811     		.2byte	0x1168
 5460 13c7 6E000000 		.4byte	0x6e
 5461 13cb 33200000 		.4byte	.LLST45
 5462 13cf 2E       		.uleb128 0x2e
 5463 13d0 18010000 		.4byte	.Ldebug_ranges0+0x118
 5464 13d4 F5130000 		.4byte	0x13f5
 5465 13d8 2B       		.uleb128 0x2b
 5466 13d9 6900     		.ascii	"i\000"
 5467 13db 01       		.byte	0x1
 5468 13dc A311     		.2byte	0x11a3
ARM GAS  /tmp/ccrwCQMC.s 			page 97


 5469 13de 6E000000 		.4byte	0x6e
 5470 13e2 C9200000 		.4byte	.LLST46
 5471 13e6 2B       		.uleb128 0x2b
 5472 13e7 7600     		.ascii	"v\000"
 5473 13e9 01       		.byte	0x1
 5474 13ea A311     		.2byte	0x11a3
 5475 13ec 52000000 		.4byte	0x52
 5476 13f0 2B210000 		.4byte	.LLST47
 5477 13f4 00       		.byte	0
 5478 13f5 34       		.uleb128 0x34
 5479 13f6 F0000000 		.4byte	.LBB52
 5480 13fa 24000000 		.4byte	.LBE52-.LBB52
 5481 13fe 1F140000 		.4byte	0x141f
 5482 1402 2B       		.uleb128 0x2b
 5483 1403 6900     		.ascii	"i\000"
 5484 1405 01       		.byte	0x1
 5485 1406 B111     		.2byte	0x11b1
 5486 1408 6E000000 		.4byte	0x6e
 5487 140c 55210000 		.4byte	.LLST48
 5488 1410 2B       		.uleb128 0x2b
 5489 1411 7600     		.ascii	"v\000"
 5490 1413 01       		.byte	0x1
 5491 1414 B111     		.2byte	0x11b1
 5492 1416 52000000 		.4byte	0x52
 5493 141a 7F210000 		.4byte	.LLST49
 5494 141e 00       		.byte	0
 5495 141f 3B       		.uleb128 0x3b
 5496 1420 16000000 		.4byte	.LVL158
 5497 1424 50140000 		.4byte	0x1450
 5498 1428 39140000 		.4byte	0x1439
 5499 142c 32       		.uleb128 0x32
 5500 142d 01       		.uleb128 0x1
 5501 142e 50       		.byte	0x50
 5502 142f 02       		.uleb128 0x2
 5503 1430 74       		.byte	0x74
 5504 1431 00       		.sleb128 0
 5505 1432 32       		.uleb128 0x32
 5506 1433 01       		.uleb128 0x1
 5507 1434 51       		.byte	0x51
 5508 1435 02       		.uleb128 0x2
 5509 1436 71       		.byte	0x71
 5510 1437 00       		.sleb128 0
 5511 1438 00       		.byte	0
 5512 1439 31       		.uleb128 0x31
 5513 143a 3A000000 		.4byte	.LVL162
 5514 143e 50140000 		.4byte	0x1450
 5515 1442 32       		.uleb128 0x32
 5516 1443 01       		.uleb128 0x1
 5517 1444 50       		.byte	0x50
 5518 1445 02       		.uleb128 0x2
 5519 1446 74       		.byte	0x74
 5520 1447 00       		.sleb128 0
 5521 1448 32       		.uleb128 0x32
 5522 1449 01       		.uleb128 0x1
 5523 144a 51       		.byte	0x51
 5524 144b 02       		.uleb128 0x2
 5525 144c 71       		.byte	0x71
ARM GAS  /tmp/ccrwCQMC.s 			page 98


 5526 144d 00       		.sleb128 0
 5527 144e 00       		.byte	0
 5528 144f 00       		.byte	0
 5529 1450 3C       		.uleb128 0x3c
 5530 1451 75327000 		.ascii	"u2p\000"
 5531 1455 01       		.byte	0x1
 5532 1456 5811     		.2byte	0x1158
 5533 1458 4A030000 		.4byte	0x34a
 5534 145c 00000000 		.4byte	.LFB27
 5535 1460 04000000 		.4byte	.LFE27-.LFB27
 5536 1464 01       		.uleb128 0x1
 5537 1465 9C       		.byte	0x9c
 5538 1466 89140000 		.4byte	0x1489
 5539 146a 27       		.uleb128 0x27
 5540 146b 70747200 		.ascii	"ptr\000"
 5541 146f 01       		.byte	0x1
 5542 1470 5811     		.2byte	0x1158
 5543 1472 4A030000 		.4byte	0x34a
 5544 1476 9E210000 		.4byte	.LLST0
 5545 147a 29       		.uleb128 0x29
 5546 147b 6F666600 		.ascii	"off\000"
 5547 147f 01       		.byte	0x1
 5548 1480 5811     		.2byte	0x1158
 5549 1482 89020000 		.4byte	0x289
 5550 1486 01       		.uleb128 0x1
 5551 1487 51       		.byte	0x51
 5552 1488 00       		.byte	0
 5553 1489 3D       		.uleb128 0x3d
 5554 148a 46020000 		.4byte	.LASF243
 5555 148e 01       		.byte	0x1
 5556 148f 2B11     		.2byte	0x112b
 5557 1491 4A030000 		.4byte	0x34a
 5558 1495 01       		.byte	0x1
 5559 1496 BC140000 		.4byte	0x14bc
 5560 149a 3E       		.uleb128 0x3e
 5561 149b 7300     		.ascii	"s\000"
 5562 149d 01       		.byte	0x1
 5563 149e 2B11     		.2byte	0x112b
 5564 14a0 4A030000 		.4byte	0x34a
 5565 14a4 3E       		.uleb128 0x3e
 5566 14a5 636300   		.ascii	"cc\000"
 5567 14a8 01       		.byte	0x1
 5568 14a9 2B11     		.2byte	0x112b
 5569 14ab 67000000 		.4byte	0x67
 5570 14af 3E       		.uleb128 0x3e
 5571 14b0 6C656E00 		.ascii	"len\000"
 5572 14b4 01       		.byte	0x1
 5573 14b5 2B11     		.2byte	0x112b
 5574 14b7 89020000 		.4byte	0x289
 5575 14bb 00       		.byte	0
 5576 14bc 26       		.uleb128 0x26
 5577 14bd E4000000 		.4byte	.LASF229
 5578 14c1 01       		.byte	0x1
 5579 14c2 1111     		.2byte	0x1111
 5580 14c4 4A030000 		.4byte	0x34a
 5581 14c8 00000000 		.4byte	.LFB25
 5582 14cc 04000000 		.4byte	.LFE25-.LFB25
ARM GAS  /tmp/ccrwCQMC.s 			page 99


 5583 14d0 01       		.uleb128 0x1
 5584 14d1 9C       		.byte	0x9c
 5585 14d2 26150000 		.4byte	0x1526
 5586 14d6 28       		.uleb128 0x28
 5587 14d7 A10B0000 		.4byte	.LASF230
 5588 14db 01       		.byte	0x1
 5589 14dc 1111     		.2byte	0x1111
 5590 14de 4A030000 		.4byte	0x34a
 5591 14e2 BF210000 		.4byte	.LLST38
 5592 14e6 27       		.uleb128 0x27
 5593 14e7 73726300 		.ascii	"src\000"
 5594 14eb 01       		.byte	0x1
 5595 14ec 1111     		.2byte	0x1111
 5596 14ee 280C0000 		.4byte	0xc28
 5597 14f2 E0210000 		.4byte	.LLST39
 5598 14f6 27       		.uleb128 0x27
 5599 14f7 6C656E00 		.ascii	"len\000"
 5600 14fb 01       		.byte	0x1
 5601 14fc 1111     		.2byte	0x1111
 5602 14fe 89020000 		.4byte	0x289
 5603 1502 01220000 		.4byte	.LLST40
 5604 1506 3F       		.uleb128 0x3f
 5605 1507 04000000 		.4byte	.LVL154
 5606 150b 31180000 		.4byte	0x1831
 5607 150f 32       		.uleb128 0x32
 5608 1510 01       		.uleb128 0x1
 5609 1511 50       		.byte	0x50
 5610 1512 03       		.uleb128 0x3
 5611 1513 F3       		.byte	0xf3
 5612 1514 01       		.uleb128 0x1
 5613 1515 50       		.byte	0x50
 5614 1516 32       		.uleb128 0x32
 5615 1517 01       		.uleb128 0x1
 5616 1518 51       		.byte	0x51
 5617 1519 03       		.uleb128 0x3
 5618 151a F3       		.byte	0xf3
 5619 151b 01       		.uleb128 0x1
 5620 151c 51       		.byte	0x51
 5621 151d 32       		.uleb128 0x32
 5622 151e 01       		.uleb128 0x1
 5623 151f 52       		.byte	0x52
 5624 1520 03       		.uleb128 0x3
 5625 1521 F3       		.byte	0xf3
 5626 1522 01       		.uleb128 0x1
 5627 1523 52       		.byte	0x52
 5628 1524 00       		.byte	0
 5629 1525 00       		.byte	0
 5630 1526 26       		.uleb128 0x26
 5631 1527 28060000 		.4byte	.LASF231
 5632 152b 01       		.byte	0x1
 5633 152c 0211     		.2byte	0x1102
 5634 152e 4A030000 		.4byte	0x34a
 5635 1532 00000000 		.4byte	.LFB24
 5636 1536 04000000 		.4byte	.LFE24-.LFB24
 5637 153a 01       		.uleb128 0x1
 5638 153b 9C       		.byte	0x9c
 5639 153c 90150000 		.4byte	0x1590
ARM GAS  /tmp/ccrwCQMC.s 			page 100


 5640 1540 28       		.uleb128 0x28
 5641 1541 A10B0000 		.4byte	.LASF230
 5642 1545 01       		.byte	0x1
 5643 1546 0211     		.2byte	0x1102
 5644 1548 4A030000 		.4byte	0x34a
 5645 154c 22220000 		.4byte	.LLST35
 5646 1550 27       		.uleb128 0x27
 5647 1551 73726300 		.ascii	"src\000"
 5648 1555 01       		.byte	0x1
 5649 1556 0211     		.2byte	0x1102
 5650 1558 280C0000 		.4byte	0xc28
 5651 155c 43220000 		.4byte	.LLST36
 5652 1560 27       		.uleb128 0x27
 5653 1561 6C656E00 		.ascii	"len\000"
 5654 1565 01       		.byte	0x1
 5655 1566 0211     		.2byte	0x1102
 5656 1568 89020000 		.4byte	0x289
 5657 156c 64220000 		.4byte	.LLST37
 5658 1570 3F       		.uleb128 0x3f
 5659 1571 04000000 		.4byte	.LVL152
 5660 1575 3C180000 		.4byte	0x183c
 5661 1579 32       		.uleb128 0x32
 5662 157a 01       		.uleb128 0x1
 5663 157b 50       		.byte	0x50
 5664 157c 03       		.uleb128 0x3
 5665 157d F3       		.byte	0xf3
 5666 157e 01       		.uleb128 0x1
 5667 157f 50       		.byte	0x50
 5668 1580 32       		.uleb128 0x32
 5669 1581 01       		.uleb128 0x1
 5670 1582 51       		.byte	0x51
 5671 1583 03       		.uleb128 0x3
 5672 1584 F3       		.byte	0xf3
 5673 1585 01       		.uleb128 0x1
 5674 1586 51       		.byte	0x51
 5675 1587 32       		.uleb128 0x32
 5676 1588 01       		.uleb128 0x1
 5677 1589 52       		.byte	0x52
 5678 158a 03       		.uleb128 0x3
 5679 158b F3       		.byte	0xf3
 5680 158c 01       		.uleb128 0x1
 5681 158d 52       		.byte	0x52
 5682 158e 00       		.byte	0
 5683 158f 00       		.byte	0
 5684 1590 26       		.uleb128 0x26
 5685 1591 C6040000 		.4byte	.LASF232
 5686 1595 01       		.byte	0x1
 5687 1596 F110     		.2byte	0x10f1
 5688 1598 67000000 		.4byte	0x67
 5689 159c 00000000 		.4byte	.LFB23
 5690 15a0 04000000 		.4byte	.LFE23-.LFB23
 5691 15a4 01       		.uleb128 0x1
 5692 15a5 9C       		.byte	0x9c
 5693 15a6 F8150000 		.4byte	0x15f8
 5694 15aa 27       		.uleb128 0x27
 5695 15ab 733100   		.ascii	"s1\000"
 5696 15ae 01       		.byte	0x1
ARM GAS  /tmp/ccrwCQMC.s 			page 101


 5697 15af F110     		.2byte	0x10f1
 5698 15b1 280C0000 		.4byte	0xc28
 5699 15b5 85220000 		.4byte	.LLST32
 5700 15b9 27       		.uleb128 0x27
 5701 15ba 733200   		.ascii	"s2\000"
 5702 15bd 01       		.byte	0x1
 5703 15be F110     		.2byte	0x10f1
 5704 15c0 280C0000 		.4byte	0xc28
 5705 15c4 A6220000 		.4byte	.LLST33
 5706 15c8 27       		.uleb128 0x27
 5707 15c9 6C656E00 		.ascii	"len\000"
 5708 15cd 01       		.byte	0x1
 5709 15ce F110     		.2byte	0x10f1
 5710 15d0 89020000 		.4byte	0x289
 5711 15d4 C7220000 		.4byte	.LLST34
 5712 15d8 3F       		.uleb128 0x3f
 5713 15d9 04000000 		.4byte	.LVL150
 5714 15dd 4B180000 		.4byte	0x184b
 5715 15e1 32       		.uleb128 0x32
 5716 15e2 01       		.uleb128 0x1
 5717 15e3 50       		.byte	0x50
 5718 15e4 03       		.uleb128 0x3
 5719 15e5 F3       		.byte	0xf3
 5720 15e6 01       		.uleb128 0x1
 5721 15e7 50       		.byte	0x50
 5722 15e8 32       		.uleb128 0x32
 5723 15e9 01       		.uleb128 0x1
 5724 15ea 51       		.byte	0x51
 5725 15eb 03       		.uleb128 0x3
 5726 15ec F3       		.byte	0xf3
 5727 15ed 01       		.uleb128 0x1
 5728 15ee 51       		.byte	0x51
 5729 15ef 32       		.uleb128 0x32
 5730 15f0 01       		.uleb128 0x1
 5731 15f1 52       		.byte	0x52
 5732 15f2 03       		.uleb128 0x3
 5733 15f3 F3       		.byte	0xf3
 5734 15f4 01       		.uleb128 0x1
 5735 15f5 52       		.byte	0x52
 5736 15f6 00       		.byte	0
 5737 15f7 00       		.byte	0
 5738 15f8 26       		.uleb128 0x26
 5739 15f9 D2030000 		.4byte	.LASF233
 5740 15fd 01       		.byte	0x1
 5741 15fe B810     		.2byte	0x10b8
 5742 1600 52000000 		.4byte	0x52
 5743 1604 00000000 		.4byte	.LFB22
 5744 1608 28010000 		.4byte	.LFE22-.LFB22
 5745 160c 01       		.uleb128 0x1
 5746 160d 9C       		.byte	0x9c
 5747 160e 6F160000 		.4byte	0x166f
 5748 1612 28       		.uleb128 0x28
 5749 1613 95090000 		.4byte	.LASF234
 5750 1617 01       		.byte	0x1
 5751 1618 B810     		.2byte	0x10b8
 5752 161a 52000000 		.4byte	0x52
 5753 161e E8220000 		.4byte	.LLST26
ARM GAS  /tmp/ccrwCQMC.s 			page 102


 5754 1622 27       		.uleb128 0x27
 5755 1623 62756600 		.ascii	"buf\000"
 5756 1627 01       		.byte	0x1
 5757 1628 B810     		.2byte	0x10b8
 5758 162a 2E030000 		.4byte	0x32e
 5759 162e 22230000 		.4byte	.LLST27
 5760 1632 27       		.uleb128 0x27
 5761 1633 6C656E00 		.ascii	"len\000"
 5762 1637 01       		.byte	0x1
 5763 1638 B810     		.2byte	0x10b8
 5764 163a 89020000 		.4byte	0x289
 5765 163e 7D230000 		.4byte	.LLST28
 5766 1642 2B       		.uleb128 0x2b
 5767 1643 733100   		.ascii	"s1\000"
 5768 1646 01       		.byte	0x1
 5769 1647 BA10     		.2byte	0x10ba
 5770 1649 52000000 		.4byte	0x52
 5771 164d B3230000 		.4byte	.LLST29
 5772 1651 2B       		.uleb128 0x2b
 5773 1652 733200   		.ascii	"s2\000"
 5774 1655 01       		.byte	0x1
 5775 1656 BB10     		.2byte	0x10bb
 5776 1658 52000000 		.4byte	0x52
 5777 165c 68240000 		.4byte	.LLST30
 5778 1660 2B       		.uleb128 0x2b
 5779 1661 6B00     		.ascii	"k\000"
 5780 1663 01       		.byte	0x1
 5781 1664 BC10     		.2byte	0x10bc
 5782 1666 6E000000 		.4byte	0x6e
 5783 166a F8240000 		.4byte	.LLST31
 5784 166e 00       		.byte	0
 5785 166f 40       		.uleb128 0x40
 5786 1670 F7060000 		.4byte	.LASF235
 5787 1674 01       		.byte	0x1
 5788 1675 A910     		.2byte	0x10a9
 5789 1677 62080000 		.4byte	0x862
 5790 167b 40       		.uleb128 0x40
 5791 167c E5010000 		.4byte	.LASF236
 5792 1680 01       		.byte	0x1
 5793 1681 A310     		.2byte	0x10a3
 5794 1683 62080000 		.4byte	0x862
 5795 1687 41       		.uleb128 0x41
 5796 1688 DA0A0000 		.4byte	.LASF237
 5797 168c 01       		.byte	0x1
 5798 168d 9D10     		.2byte	0x109d
 5799 168f 62080000 		.4byte	0x862
 5800 1693 01       		.byte	0x1
 5801 1694 41       		.uleb128 0x41
 5802 1695 BF060000 		.4byte	.LASF238
 5803 1699 01       		.byte	0x1
 5804 169a 9710     		.2byte	0x1097
 5805 169c 62080000 		.4byte	0x862
 5806 16a0 01       		.byte	0x1
 5807 16a1 42       		.uleb128 0x42
 5808 16a2 23000000 		.4byte	.LASF239
 5809 16a6 01       		.byte	0x1
 5810 16a7 9110     		.2byte	0x1091
ARM GAS  /tmp/ccrwCQMC.s 			page 103


 5811 16a9 6E000000 		.4byte	0x6e
 5812 16ad 00000000 		.4byte	.LFB17
 5813 16b1 06000000 		.4byte	.LFE17-.LFB17
 5814 16b5 01       		.uleb128 0x1
 5815 16b6 9C       		.byte	0x9c
 5816 16b7 42       		.uleb128 0x42
 5817 16b8 AD090000 		.4byte	.LASF240
 5818 16bc 01       		.byte	0x1
 5819 16bd 8B10     		.2byte	0x108b
 5820 16bf 2E030000 		.4byte	0x32e
 5821 16c3 00000000 		.4byte	.LFB16
 5822 16c7 08000000 		.4byte	.LFE16-.LFB16
 5823 16cb 01       		.uleb128 0x1
 5824 16cc 9C       		.byte	0x9c
 5825 16cd 26       		.uleb128 0x26
 5826 16ce A7000000 		.4byte	.LASF241
 5827 16d2 01       		.byte	0x1
 5828 16d3 5F10     		.2byte	0x105f
 5829 16d5 6E000000 		.4byte	0x6e
 5830 16d9 00000000 		.4byte	.LFB15
 5831 16dd 1A000000 		.4byte	.LFE15-.LFB15
 5832 16e1 01       		.uleb128 0x1
 5833 16e2 9C       		.byte	0x9c
 5834 16e3 20170000 		.4byte	0x1720
 5835 16e7 27       		.uleb128 0x27
 5836 16e8 70747200 		.ascii	"ptr\000"
 5837 16ec 01       		.byte	0x1
 5838 16ed 5F10     		.2byte	0x105f
 5839 16ef 280C0000 		.4byte	0xc28
 5840 16f3 3F250000 		.4byte	.LLST23
 5841 16f7 28       		.uleb128 0x28
 5842 16f8 18060000 		.4byte	.LASF242
 5843 16fc 01       		.byte	0x1
 5844 16fd 5F10     		.2byte	0x105f
 5845 16ff 89020000 		.4byte	0x289
 5846 1703 79250000 		.4byte	.LLST24
 5847 1707 38       		.uleb128 0x38
 5848 1708 7000     		.ascii	"p\000"
 5849 170a 01       		.byte	0x1
 5850 170b 6410     		.2byte	0x1064
 5851 170d 52000000 		.4byte	0x52
 5852 1711 2B       		.uleb128 0x2b
 5853 1712 6E00     		.ascii	"n\000"
 5854 1714 01       		.byte	0x1
 5855 1715 6410     		.2byte	0x1064
 5856 1717 52000000 		.4byte	0x52
 5857 171b B3250000 		.4byte	.LLST25
 5858 171f 00       		.byte	0
 5859 1720 3D       		.uleb128 0x3d
 5860 1721 7F090000 		.4byte	.LASF244
 5861 1725 01       		.byte	0x1
 5862 1726 4F10     		.2byte	0x104f
 5863 1728 52000000 		.4byte	0x52
 5864 172c 01       		.byte	0x1
 5865 172d 48170000 		.4byte	0x1748
 5866 1731 3E       		.uleb128 0x3e
 5867 1732 70747200 		.ascii	"ptr\000"
ARM GAS  /tmp/ccrwCQMC.s 			page 104


 5868 1736 01       		.byte	0x1
 5869 1737 4F10     		.2byte	0x104f
 5870 1739 280C0000 		.4byte	0xc28
 5871 173d 38       		.uleb128 0x38
 5872 173e 7000     		.ascii	"p\000"
 5873 1740 01       		.byte	0x1
 5874 1741 5110     		.2byte	0x1051
 5875 1743 52000000 		.4byte	0x52
 5876 1747 00       		.byte	0
 5877 1748 43       		.uleb128 0x43
 5878 1749 66070000 		.4byte	.LASF245
 5879 174d 01       		.byte	0x1
 5880 174e 1C0E     		.2byte	0xe1c
 5881 1750 6E000000 		.4byte	0x6e
 5882 1754 03       		.byte	0x3
 5883 1755 6E170000 		.4byte	0x176e
 5884 1759 3E       		.uleb128 0x3e
 5885 175a 7600     		.ascii	"v\000"
 5886 175c 01       		.byte	0x1
 5887 175d 1C0E     		.2byte	0xe1c
 5888 175f 52000000 		.4byte	0x52
 5889 1763 38       		.uleb128 0x38
 5890 1764 7200     		.ascii	"r\000"
 5891 1766 01       		.byte	0x1
 5892 1767 270E     		.2byte	0xe27
 5893 1769 6E000000 		.4byte	0x6e
 5894 176d 00       		.byte	0
 5895 176e 43       		.uleb128 0x43
 5896 176f 0C000000 		.4byte	.LASF246
 5897 1773 01       		.byte	0x1
 5898 1774 F00D     		.2byte	0xdf0
 5899 1776 6E000000 		.4byte	0x6e
 5900 177a 03       		.byte	0x3
 5901 177b 94170000 		.4byte	0x1794
 5902 177f 3E       		.uleb128 0x3e
 5903 1780 7600     		.ascii	"v\000"
 5904 1782 01       		.byte	0x1
 5905 1783 F00D     		.2byte	0xdf0
 5906 1785 52000000 		.4byte	0x52
 5907 1789 38       		.uleb128 0x38
 5908 178a 7200     		.ascii	"r\000"
 5909 178c 01       		.byte	0x1
 5910 178d FB0D     		.2byte	0xdfb
 5911 178f 6E000000 		.4byte	0x6e
 5912 1793 00       		.byte	0
 5913 1794 44       		.uleb128 0x44
 5914 1795 20170000 		.4byte	0x1720
 5915 1799 00000000 		.4byte	.LFB14
 5916 179d 02000000 		.4byte	.LFE14-.LFB14
 5917 17a1 01       		.uleb128 0x1
 5918 17a2 9C       		.byte	0x9c
 5919 17a3 B6170000 		.4byte	0x17b6
 5920 17a7 45       		.uleb128 0x45
 5921 17a8 31170000 		.4byte	0x1731
 5922 17ac 01       		.uleb128 0x1
 5923 17ad 50       		.byte	0x50
 5924 17ae 46       		.uleb128 0x46
ARM GAS  /tmp/ccrwCQMC.s 			page 105


 5925 17af 3D170000 		.4byte	0x173d
 5926 17b3 01       		.uleb128 0x1
 5927 17b4 50       		.byte	0x50
 5928 17b5 00       		.byte	0
 5929 17b6 47       		.uleb128 0x47
 5930 17b7 94160000 		.4byte	0x1694
 5931 17bb 00000000 		.4byte	.LFB18
 5932 17bf 08000000 		.4byte	.LFE18-.LFB18
 5933 17c3 01       		.uleb128 0x1
 5934 17c4 9C       		.byte	0x9c
 5935 17c5 47       		.uleb128 0x47
 5936 17c6 87160000 		.4byte	0x1687
 5937 17ca 00000000 		.4byte	.LFB19
 5938 17ce 08000000 		.4byte	.LFE19-.LFB19
 5939 17d2 01       		.uleb128 0x1
 5940 17d3 9C       		.byte	0x9c
 5941 17d4 44       		.uleb128 0x44
 5942 17d5 89140000 		.4byte	0x1489
 5943 17d9 00000000 		.4byte	.LFB26
 5944 17dd 04000000 		.4byte	.LFE26-.LFB26
 5945 17e1 01       		.uleb128 0x1
 5946 17e2 9C       		.byte	0x9c
 5947 17e3 22180000 		.4byte	0x1822
 5948 17e7 30       		.uleb128 0x30
 5949 17e8 9A140000 		.4byte	0x149a
 5950 17ec ED250000 		.4byte	.LLST41
 5951 17f0 30       		.uleb128 0x30
 5952 17f1 A4140000 		.4byte	0x14a4
 5953 17f5 0E260000 		.4byte	.LLST42
 5954 17f9 30       		.uleb128 0x30
 5955 17fa AF140000 		.4byte	0x14af
 5956 17fe 2F260000 		.4byte	.LLST43
 5957 1802 3F       		.uleb128 0x3f
 5958 1803 04000000 		.4byte	.LVL156
 5959 1807 56180000 		.4byte	0x1856
 5960 180b 32       		.uleb128 0x32
 5961 180c 01       		.uleb128 0x1
 5962 180d 50       		.byte	0x50
 5963 180e 03       		.uleb128 0x3
 5964 180f F3       		.byte	0xf3
 5965 1810 01       		.uleb128 0x1
 5966 1811 50       		.byte	0x50
 5967 1812 32       		.uleb128 0x32
 5968 1813 01       		.uleb128 0x1
 5969 1814 51       		.byte	0x51
 5970 1815 03       		.uleb128 0x3
 5971 1816 F3       		.byte	0xf3
 5972 1817 01       		.uleb128 0x1
 5973 1818 51       		.byte	0x51
 5974 1819 32       		.uleb128 0x32
 5975 181a 01       		.uleb128 0x1
 5976 181b 52       		.byte	0x52
 5977 181c 03       		.uleb128 0x3
 5978 181d F3       		.byte	0xf3
 5979 181e 01       		.uleb128 0x1
 5980 181f 52       		.byte	0x52
 5981 1820 00       		.byte	0
ARM GAS  /tmp/ccrwCQMC.s 			page 106


 5982 1821 00       		.byte	0
 5983 1822 48       		.uleb128 0x48
 5984 1823 92010000 		.4byte	.LASF247
 5985 1827 45040000 		.4byte	.LASF249
 5986 182b 08       		.byte	0x8
 5987 182c 00       		.byte	0
 5988 182d 92010000 		.4byte	.LASF247
 5989 1831 49       		.uleb128 0x49
 5990 1832 82020000 		.4byte	.LASF251
 5991 1836 82020000 		.4byte	.LASF251
 5992 183a 09       		.byte	0x9
 5993 183b 20       		.byte	0x20
 5994 183c 48       		.uleb128 0x48
 5995 183d 970A0000 		.4byte	.LASF248
 5996 1841 F9010000 		.4byte	.LASF250
 5997 1845 08       		.byte	0x8
 5998 1846 00       		.byte	0
 5999 1847 970A0000 		.4byte	.LASF248
 6000 184b 49       		.uleb128 0x49
 6001 184c 69040000 		.4byte	.LASF252
 6002 1850 69040000 		.4byte	.LASF252
 6003 1854 09       		.byte	0x9
 6004 1855 1E       		.byte	0x1e
 6005 1856 49       		.uleb128 0x49
 6006 1857 92010000 		.4byte	.LASF247
 6007 185b 92010000 		.4byte	.LASF247
 6008 185f 09       		.byte	0x9
 6009 1860 21       		.byte	0x21
 6010 1861 00       		.byte	0
 6011              		.section	.debug_abbrev,"",%progbits
 6012              	.Ldebug_abbrev0:
 6013 0000 01       		.uleb128 0x1
 6014 0001 11       		.uleb128 0x11
 6015 0002 01       		.byte	0x1
 6016 0003 25       		.uleb128 0x25
 6017 0004 0E       		.uleb128 0xe
 6018 0005 13       		.uleb128 0x13
 6019 0006 0B       		.uleb128 0xb
 6020 0007 03       		.uleb128 0x3
 6021 0008 0E       		.uleb128 0xe
 6022 0009 1B       		.uleb128 0x1b
 6023 000a 0E       		.uleb128 0xe
 6024 000b 55       		.uleb128 0x55
 6025 000c 17       		.uleb128 0x17
 6026 000d 11       		.uleb128 0x11
 6027 000e 01       		.uleb128 0x1
 6028 000f 10       		.uleb128 0x10
 6029 0010 17       		.uleb128 0x17
 6030 0011 00       		.byte	0
 6031 0012 00       		.byte	0
 6032 0013 02       		.uleb128 0x2
 6033 0014 24       		.uleb128 0x24
 6034 0015 00       		.byte	0
 6035 0016 0B       		.uleb128 0xb
 6036 0017 0B       		.uleb128 0xb
 6037 0018 3E       		.uleb128 0x3e
 6038 0019 0B       		.uleb128 0xb
ARM GAS  /tmp/ccrwCQMC.s 			page 107


 6039 001a 03       		.uleb128 0x3
 6040 001b 0E       		.uleb128 0xe
 6041 001c 00       		.byte	0
 6042 001d 00       		.byte	0
 6043 001e 03       		.uleb128 0x3
 6044 001f 26       		.uleb128 0x26
 6045 0020 00       		.byte	0
 6046 0021 49       		.uleb128 0x49
 6047 0022 13       		.uleb128 0x13
 6048 0023 00       		.byte	0
 6049 0024 00       		.byte	0
 6050 0025 04       		.uleb128 0x4
 6051 0026 35       		.uleb128 0x35
 6052 0027 00       		.byte	0
 6053 0028 49       		.uleb128 0x49
 6054 0029 13       		.uleb128 0x13
 6055 002a 00       		.byte	0
 6056 002b 00       		.byte	0
 6057 002c 05       		.uleb128 0x5
 6058 002d 24       		.uleb128 0x24
 6059 002e 00       		.byte	0
 6060 002f 0B       		.uleb128 0xb
 6061 0030 0B       		.uleb128 0xb
 6062 0031 3E       		.uleb128 0x3e
 6063 0032 0B       		.uleb128 0xb
 6064 0033 03       		.uleb128 0x3
 6065 0034 08       		.uleb128 0x8
 6066 0035 00       		.byte	0
 6067 0036 00       		.byte	0
 6068 0037 06       		.uleb128 0x6
 6069 0038 01       		.uleb128 0x1
 6070 0039 01       		.byte	0x1
 6071 003a 49       		.uleb128 0x49
 6072 003b 13       		.uleb128 0x13
 6073 003c 01       		.uleb128 0x1
 6074 003d 13       		.uleb128 0x13
 6075 003e 00       		.byte	0
 6076 003f 00       		.byte	0
 6077 0040 07       		.uleb128 0x7
 6078 0041 21       		.uleb128 0x21
 6079 0042 00       		.byte	0
 6080 0043 49       		.uleb128 0x49
 6081 0044 13       		.uleb128 0x13
 6082 0045 2F       		.uleb128 0x2f
 6083 0046 0B       		.uleb128 0xb
 6084 0047 00       		.byte	0
 6085 0048 00       		.byte	0
 6086 0049 08       		.uleb128 0x8
 6087 004a 34       		.uleb128 0x34
 6088 004b 00       		.byte	0
 6089 004c 03       		.uleb128 0x3
 6090 004d 0E       		.uleb128 0xe
 6091 004e 3A       		.uleb128 0x3a
 6092 004f 0B       		.uleb128 0xb
 6093 0050 3B       		.uleb128 0x3b
 6094 0051 05       		.uleb128 0x5
 6095 0052 49       		.uleb128 0x49
ARM GAS  /tmp/ccrwCQMC.s 			page 108


 6096 0053 13       		.uleb128 0x13
 6097 0054 3F       		.uleb128 0x3f
 6098 0055 19       		.uleb128 0x19
 6099 0056 3C       		.uleb128 0x3c
 6100 0057 19       		.uleb128 0x19
 6101 0058 00       		.byte	0
 6102 0059 00       		.byte	0
 6103 005a 09       		.uleb128 0x9
 6104 005b 16       		.uleb128 0x16
 6105 005c 00       		.byte	0
 6106 005d 03       		.uleb128 0x3
 6107 005e 0E       		.uleb128 0xe
 6108 005f 3A       		.uleb128 0x3a
 6109 0060 0B       		.uleb128 0xb
 6110 0061 3B       		.uleb128 0x3b
 6111 0062 05       		.uleb128 0x5
 6112 0063 49       		.uleb128 0x49
 6113 0064 13       		.uleb128 0x13
 6114 0065 00       		.byte	0
 6115 0066 00       		.byte	0
 6116 0067 0A       		.uleb128 0xa
 6117 0068 16       		.uleb128 0x16
 6118 0069 00       		.byte	0
 6119 006a 03       		.uleb128 0x3
 6120 006b 0E       		.uleb128 0xe
 6121 006c 3A       		.uleb128 0x3a
 6122 006d 0B       		.uleb128 0xb
 6123 006e 3B       		.uleb128 0x3b
 6124 006f 0B       		.uleb128 0xb
 6125 0070 49       		.uleb128 0x49
 6126 0071 13       		.uleb128 0x13
 6127 0072 00       		.byte	0
 6128 0073 00       		.byte	0
 6129 0074 0B       		.uleb128 0xb
 6130 0075 34       		.uleb128 0x34
 6131 0076 00       		.byte	0
 6132 0077 03       		.uleb128 0x3
 6133 0078 0E       		.uleb128 0xe
 6134 0079 3A       		.uleb128 0x3a
 6135 007a 0B       		.uleb128 0xb
 6136 007b 3B       		.uleb128 0x3b
 6137 007c 0B       		.uleb128 0xb
 6138 007d 49       		.uleb128 0x49
 6139 007e 13       		.uleb128 0x13
 6140 007f 3F       		.uleb128 0x3f
 6141 0080 19       		.uleb128 0x19
 6142 0081 3C       		.uleb128 0x3c
 6143 0082 19       		.uleb128 0x19
 6144 0083 00       		.byte	0
 6145 0084 00       		.byte	0
 6146 0085 0C       		.uleb128 0xc
 6147 0086 0F       		.uleb128 0xf
 6148 0087 00       		.byte	0
 6149 0088 0B       		.uleb128 0xb
 6150 0089 0B       		.uleb128 0xb
 6151 008a 49       		.uleb128 0x49
 6152 008b 13       		.uleb128 0x13
ARM GAS  /tmp/ccrwCQMC.s 			page 109


 6153 008c 00       		.byte	0
 6154 008d 00       		.byte	0
 6155 008e 0D       		.uleb128 0xd
 6156 008f 0F       		.uleb128 0xf
 6157 0090 00       		.byte	0
 6158 0091 0B       		.uleb128 0xb
 6159 0092 0B       		.uleb128 0xb
 6160 0093 00       		.byte	0
 6161 0094 00       		.byte	0
 6162 0095 0E       		.uleb128 0xe
 6163 0096 13       		.uleb128 0x13
 6164 0097 00       		.byte	0
 6165 0098 03       		.uleb128 0x3
 6166 0099 0E       		.uleb128 0xe
 6167 009a 3C       		.uleb128 0x3c
 6168 009b 19       		.uleb128 0x19
 6169 009c 00       		.byte	0
 6170 009d 00       		.byte	0
 6171 009e 0F       		.uleb128 0xf
 6172 009f 17       		.uleb128 0x17
 6173 00a0 01       		.byte	0x1
 6174 00a1 0B       		.uleb128 0xb
 6175 00a2 0B       		.uleb128 0xb
 6176 00a3 3A       		.uleb128 0x3a
 6177 00a4 0B       		.uleb128 0xb
 6178 00a5 3B       		.uleb128 0x3b
 6179 00a6 0B       		.uleb128 0xb
 6180 00a7 01       		.uleb128 0x1
 6181 00a8 13       		.uleb128 0x13
 6182 00a9 00       		.byte	0
 6183 00aa 00       		.byte	0
 6184 00ab 10       		.uleb128 0x10
 6185 00ac 0D       		.uleb128 0xd
 6186 00ad 00       		.byte	0
 6187 00ae 03       		.uleb128 0x3
 6188 00af 0E       		.uleb128 0xe
 6189 00b0 3A       		.uleb128 0x3a
 6190 00b1 0B       		.uleb128 0xb
 6191 00b2 3B       		.uleb128 0x3b
 6192 00b3 0B       		.uleb128 0xb
 6193 00b4 49       		.uleb128 0x49
 6194 00b5 13       		.uleb128 0x13
 6195 00b6 00       		.byte	0
 6196 00b7 00       		.byte	0
 6197 00b8 11       		.uleb128 0x11
 6198 00b9 13       		.uleb128 0x13
 6199 00ba 01       		.byte	0x1
 6200 00bb 0B       		.uleb128 0xb
 6201 00bc 0B       		.uleb128 0xb
 6202 00bd 3A       		.uleb128 0x3a
 6203 00be 0B       		.uleb128 0xb
 6204 00bf 3B       		.uleb128 0x3b
 6205 00c0 0B       		.uleb128 0xb
 6206 00c1 01       		.uleb128 0x1
 6207 00c2 13       		.uleb128 0x13
 6208 00c3 00       		.byte	0
 6209 00c4 00       		.byte	0
ARM GAS  /tmp/ccrwCQMC.s 			page 110


 6210 00c5 12       		.uleb128 0x12
 6211 00c6 0D       		.uleb128 0xd
 6212 00c7 00       		.byte	0
 6213 00c8 03       		.uleb128 0x3
 6214 00c9 0E       		.uleb128 0xe
 6215 00ca 3A       		.uleb128 0x3a
 6216 00cb 0B       		.uleb128 0xb
 6217 00cc 3B       		.uleb128 0x3b
 6218 00cd 0B       		.uleb128 0xb
 6219 00ce 49       		.uleb128 0x49
 6220 00cf 13       		.uleb128 0x13
 6221 00d0 38       		.uleb128 0x38
 6222 00d1 0B       		.uleb128 0xb
 6223 00d2 00       		.byte	0
 6224 00d3 00       		.byte	0
 6225 00d4 13       		.uleb128 0x13
 6226 00d5 13       		.uleb128 0x13
 6227 00d6 01       		.byte	0x1
 6228 00d7 03       		.uleb128 0x3
 6229 00d8 0E       		.uleb128 0xe
 6230 00d9 0B       		.uleb128 0xb
 6231 00da 0B       		.uleb128 0xb
 6232 00db 3A       		.uleb128 0x3a
 6233 00dc 0B       		.uleb128 0xb
 6234 00dd 3B       		.uleb128 0x3b
 6235 00de 0B       		.uleb128 0xb
 6236 00df 01       		.uleb128 0x1
 6237 00e0 13       		.uleb128 0x13
 6238 00e1 00       		.byte	0
 6239 00e2 00       		.byte	0
 6240 00e3 14       		.uleb128 0x14
 6241 00e4 0D       		.uleb128 0xd
 6242 00e5 00       		.byte	0
 6243 00e6 03       		.uleb128 0x3
 6244 00e7 08       		.uleb128 0x8
 6245 00e8 3A       		.uleb128 0x3a
 6246 00e9 0B       		.uleb128 0xb
 6247 00ea 3B       		.uleb128 0x3b
 6248 00eb 0B       		.uleb128 0xb
 6249 00ec 49       		.uleb128 0x49
 6250 00ed 13       		.uleb128 0x13
 6251 00ee 38       		.uleb128 0x38
 6252 00ef 0B       		.uleb128 0xb
 6253 00f0 00       		.byte	0
 6254 00f1 00       		.byte	0
 6255 00f2 15       		.uleb128 0x15
 6256 00f3 13       		.uleb128 0x13
 6257 00f4 01       		.byte	0x1
 6258 00f5 03       		.uleb128 0x3
 6259 00f6 0E       		.uleb128 0xe
 6260 00f7 0B       		.uleb128 0xb
 6261 00f8 05       		.uleb128 0x5
 6262 00f9 3A       		.uleb128 0x3a
 6263 00fa 0B       		.uleb128 0xb
 6264 00fb 3B       		.uleb128 0x3b
 6265 00fc 0B       		.uleb128 0xb
 6266 00fd 01       		.uleb128 0x1
ARM GAS  /tmp/ccrwCQMC.s 			page 111


 6267 00fe 13       		.uleb128 0x13
 6268 00ff 00       		.byte	0
 6269 0100 00       		.byte	0
 6270 0101 16       		.uleb128 0x16
 6271 0102 0D       		.uleb128 0xd
 6272 0103 00       		.byte	0
 6273 0104 03       		.uleb128 0x3
 6274 0105 0E       		.uleb128 0xe
 6275 0106 3A       		.uleb128 0x3a
 6276 0107 0B       		.uleb128 0xb
 6277 0108 3B       		.uleb128 0x3b
 6278 0109 0B       		.uleb128 0xb
 6279 010a 49       		.uleb128 0x49
 6280 010b 13       		.uleb128 0x13
 6281 010c 38       		.uleb128 0x38
 6282 010d 05       		.uleb128 0x5
 6283 010e 00       		.byte	0
 6284 010f 00       		.byte	0
 6285 0110 17       		.uleb128 0x17
 6286 0111 15       		.uleb128 0x15
 6287 0112 00       		.byte	0
 6288 0113 27       		.uleb128 0x27
 6289 0114 19       		.uleb128 0x19
 6290 0115 00       		.byte	0
 6291 0116 00       		.byte	0
 6292 0117 18       		.uleb128 0x18
 6293 0118 15       		.uleb128 0x15
 6294 0119 01       		.byte	0x1
 6295 011a 27       		.uleb128 0x27
 6296 011b 19       		.uleb128 0x19
 6297 011c 49       		.uleb128 0x49
 6298 011d 13       		.uleb128 0x13
 6299 011e 01       		.uleb128 0x1
 6300 011f 13       		.uleb128 0x13
 6301 0120 00       		.byte	0
 6302 0121 00       		.byte	0
 6303 0122 19       		.uleb128 0x19
 6304 0123 05       		.uleb128 0x5
 6305 0124 00       		.byte	0
 6306 0125 49       		.uleb128 0x49
 6307 0126 13       		.uleb128 0x13
 6308 0127 00       		.byte	0
 6309 0128 00       		.byte	0
 6310 0129 1A       		.uleb128 0x1a
 6311 012a 13       		.uleb128 0x13
 6312 012b 01       		.byte	0x1
 6313 012c 03       		.uleb128 0x3
 6314 012d 0E       		.uleb128 0xe
 6315 012e 0B       		.uleb128 0xb
 6316 012f 05       		.uleb128 0x5
 6317 0130 3A       		.uleb128 0x3a
 6318 0131 0B       		.uleb128 0xb
 6319 0132 3B       		.uleb128 0x3b
 6320 0133 05       		.uleb128 0x5
 6321 0134 01       		.uleb128 0x1
 6322 0135 13       		.uleb128 0x13
 6323 0136 00       		.byte	0
ARM GAS  /tmp/ccrwCQMC.s 			page 112


 6324 0137 00       		.byte	0
 6325 0138 1B       		.uleb128 0x1b
 6326 0139 0D       		.uleb128 0xd
 6327 013a 00       		.byte	0
 6328 013b 03       		.uleb128 0x3
 6329 013c 0E       		.uleb128 0xe
 6330 013d 3A       		.uleb128 0x3a
 6331 013e 0B       		.uleb128 0xb
 6332 013f 3B       		.uleb128 0x3b
 6333 0140 05       		.uleb128 0x5
 6334 0141 49       		.uleb128 0x49
 6335 0142 13       		.uleb128 0x13
 6336 0143 38       		.uleb128 0x38
 6337 0144 0B       		.uleb128 0xb
 6338 0145 00       		.byte	0
 6339 0146 00       		.byte	0
 6340 0147 1C       		.uleb128 0x1c
 6341 0148 0D       		.uleb128 0xd
 6342 0149 00       		.byte	0
 6343 014a 03       		.uleb128 0x3
 6344 014b 0E       		.uleb128 0xe
 6345 014c 3A       		.uleb128 0x3a
 6346 014d 0B       		.uleb128 0xb
 6347 014e 3B       		.uleb128 0x3b
 6348 014f 05       		.uleb128 0x5
 6349 0150 49       		.uleb128 0x49
 6350 0151 13       		.uleb128 0x13
 6351 0152 38       		.uleb128 0x38
 6352 0153 05       		.uleb128 0x5
 6353 0154 00       		.byte	0
 6354 0155 00       		.byte	0
 6355 0156 1D       		.uleb128 0x1d
 6356 0157 13       		.uleb128 0x13
 6357 0158 01       		.byte	0x1
 6358 0159 03       		.uleb128 0x3
 6359 015a 0E       		.uleb128 0xe
 6360 015b 0B       		.uleb128 0xb
 6361 015c 0B       		.uleb128 0xb
 6362 015d 3A       		.uleb128 0x3a
 6363 015e 0B       		.uleb128 0xb
 6364 015f 3B       		.uleb128 0x3b
 6365 0160 05       		.uleb128 0x5
 6366 0161 01       		.uleb128 0x1
 6367 0162 13       		.uleb128 0x13
 6368 0163 00       		.byte	0
 6369 0164 00       		.byte	0
 6370 0165 1E       		.uleb128 0x1e
 6371 0166 13       		.uleb128 0x13
 6372 0167 01       		.byte	0x1
 6373 0168 0B       		.uleb128 0xb
 6374 0169 0B       		.uleb128 0xb
 6375 016a 3A       		.uleb128 0x3a
 6376 016b 0B       		.uleb128 0xb
 6377 016c 3B       		.uleb128 0x3b
 6378 016d 05       		.uleb128 0x5
 6379 016e 01       		.uleb128 0x1
 6380 016f 13       		.uleb128 0x13
ARM GAS  /tmp/ccrwCQMC.s 			page 113


 6381 0170 00       		.byte	0
 6382 0171 00       		.byte	0
 6383 0172 1F       		.uleb128 0x1f
 6384 0173 17       		.uleb128 0x17
 6385 0174 01       		.byte	0x1
 6386 0175 0B       		.uleb128 0xb
 6387 0176 0B       		.uleb128 0xb
 6388 0177 3A       		.uleb128 0x3a
 6389 0178 0B       		.uleb128 0xb
 6390 0179 3B       		.uleb128 0x3b
 6391 017a 05       		.uleb128 0x5
 6392 017b 01       		.uleb128 0x1
 6393 017c 13       		.uleb128 0x13
 6394 017d 00       		.byte	0
 6395 017e 00       		.byte	0
 6396 017f 20       		.uleb128 0x20
 6397 0180 0D       		.uleb128 0xd
 6398 0181 00       		.byte	0
 6399 0182 03       		.uleb128 0x3
 6400 0183 0E       		.uleb128 0xe
 6401 0184 3A       		.uleb128 0x3a
 6402 0185 0B       		.uleb128 0xb
 6403 0186 3B       		.uleb128 0x3b
 6404 0187 05       		.uleb128 0x5
 6405 0188 49       		.uleb128 0x49
 6406 0189 13       		.uleb128 0x13
 6407 018a 00       		.byte	0
 6408 018b 00       		.byte	0
 6409 018c 21       		.uleb128 0x21
 6410 018d 15       		.uleb128 0x15
 6411 018e 01       		.byte	0x1
 6412 018f 27       		.uleb128 0x27
 6413 0190 19       		.uleb128 0x19
 6414 0191 01       		.uleb128 0x1
 6415 0192 13       		.uleb128 0x13
 6416 0193 00       		.byte	0
 6417 0194 00       		.byte	0
 6418 0195 22       		.uleb128 0x22
 6419 0196 26       		.uleb128 0x26
 6420 0197 00       		.byte	0
 6421 0198 00       		.byte	0
 6422 0199 00       		.byte	0
 6423 019a 23       		.uleb128 0x23
 6424 019b 34       		.uleb128 0x34
 6425 019c 00       		.byte	0
 6426 019d 03       		.uleb128 0x3
 6427 019e 0E       		.uleb128 0xe
 6428 019f 3A       		.uleb128 0x3a
 6429 01a0 0B       		.uleb128 0xb
 6430 01a1 3B       		.uleb128 0x3b
 6431 01a2 05       		.uleb128 0x5
 6432 01a3 49       		.uleb128 0x49
 6433 01a4 13       		.uleb128 0x13
 6434 01a5 02       		.uleb128 0x2
 6435 01a6 18       		.uleb128 0x18
 6436 01a7 00       		.byte	0
 6437 01a8 00       		.byte	0
ARM GAS  /tmp/ccrwCQMC.s 			page 114


 6438 01a9 24       		.uleb128 0x24
 6439 01aa 17       		.uleb128 0x17
 6440 01ab 01       		.byte	0x1
 6441 01ac 03       		.uleb128 0x3
 6442 01ad 0E       		.uleb128 0xe
 6443 01ae 0B       		.uleb128 0xb
 6444 01af 0B       		.uleb128 0xb
 6445 01b0 3A       		.uleb128 0x3a
 6446 01b1 0B       		.uleb128 0xb
 6447 01b2 3B       		.uleb128 0x3b
 6448 01b3 05       		.uleb128 0x5
 6449 01b4 01       		.uleb128 0x1
 6450 01b5 13       		.uleb128 0x13
 6451 01b6 00       		.byte	0
 6452 01b7 00       		.byte	0
 6453 01b8 25       		.uleb128 0x25
 6454 01b9 0D       		.uleb128 0xd
 6455 01ba 00       		.byte	0
 6456 01bb 03       		.uleb128 0x3
 6457 01bc 08       		.uleb128 0x8
 6458 01bd 3A       		.uleb128 0x3a
 6459 01be 0B       		.uleb128 0xb
 6460 01bf 3B       		.uleb128 0x3b
 6461 01c0 05       		.uleb128 0x5
 6462 01c1 49       		.uleb128 0x49
 6463 01c2 13       		.uleb128 0x13
 6464 01c3 00       		.byte	0
 6465 01c4 00       		.byte	0
 6466 01c5 26       		.uleb128 0x26
 6467 01c6 2E       		.uleb128 0x2e
 6468 01c7 01       		.byte	0x1
 6469 01c8 3F       		.uleb128 0x3f
 6470 01c9 19       		.uleb128 0x19
 6471 01ca 03       		.uleb128 0x3
 6472 01cb 0E       		.uleb128 0xe
 6473 01cc 3A       		.uleb128 0x3a
 6474 01cd 0B       		.uleb128 0xb
 6475 01ce 3B       		.uleb128 0x3b
 6476 01cf 05       		.uleb128 0x5
 6477 01d0 27       		.uleb128 0x27
 6478 01d1 19       		.uleb128 0x19
 6479 01d2 49       		.uleb128 0x49
 6480 01d3 13       		.uleb128 0x13
 6481 01d4 11       		.uleb128 0x11
 6482 01d5 01       		.uleb128 0x1
 6483 01d6 12       		.uleb128 0x12
 6484 01d7 06       		.uleb128 0x6
 6485 01d8 40       		.uleb128 0x40
 6486 01d9 18       		.uleb128 0x18
 6487 01da 9742     		.uleb128 0x2117
 6488 01dc 19       		.uleb128 0x19
 6489 01dd 01       		.uleb128 0x1
 6490 01de 13       		.uleb128 0x13
 6491 01df 00       		.byte	0
 6492 01e0 00       		.byte	0
 6493 01e1 27       		.uleb128 0x27
 6494 01e2 05       		.uleb128 0x5
ARM GAS  /tmp/ccrwCQMC.s 			page 115


 6495 01e3 00       		.byte	0
 6496 01e4 03       		.uleb128 0x3
 6497 01e5 08       		.uleb128 0x8
 6498 01e6 3A       		.uleb128 0x3a
 6499 01e7 0B       		.uleb128 0xb
 6500 01e8 3B       		.uleb128 0x3b
 6501 01e9 05       		.uleb128 0x5
 6502 01ea 49       		.uleb128 0x49
 6503 01eb 13       		.uleb128 0x13
 6504 01ec 02       		.uleb128 0x2
 6505 01ed 17       		.uleb128 0x17
 6506 01ee 00       		.byte	0
 6507 01ef 00       		.byte	0
 6508 01f0 28       		.uleb128 0x28
 6509 01f1 05       		.uleb128 0x5
 6510 01f2 00       		.byte	0
 6511 01f3 03       		.uleb128 0x3
 6512 01f4 0E       		.uleb128 0xe
 6513 01f5 3A       		.uleb128 0x3a
 6514 01f6 0B       		.uleb128 0xb
 6515 01f7 3B       		.uleb128 0x3b
 6516 01f8 05       		.uleb128 0x5
 6517 01f9 49       		.uleb128 0x49
 6518 01fa 13       		.uleb128 0x13
 6519 01fb 02       		.uleb128 0x2
 6520 01fc 17       		.uleb128 0x17
 6521 01fd 00       		.byte	0
 6522 01fe 00       		.byte	0
 6523 01ff 29       		.uleb128 0x29
 6524 0200 05       		.uleb128 0x5
 6525 0201 00       		.byte	0
 6526 0202 03       		.uleb128 0x3
 6527 0203 08       		.uleb128 0x8
 6528 0204 3A       		.uleb128 0x3a
 6529 0205 0B       		.uleb128 0xb
 6530 0206 3B       		.uleb128 0x3b
 6531 0207 05       		.uleb128 0x5
 6532 0208 49       		.uleb128 0x49
 6533 0209 13       		.uleb128 0x13
 6534 020a 02       		.uleb128 0x2
 6535 020b 18       		.uleb128 0x18
 6536 020c 00       		.byte	0
 6537 020d 00       		.byte	0
 6538 020e 2A       		.uleb128 0x2a
 6539 020f 05       		.uleb128 0x5
 6540 0210 00       		.byte	0
 6541 0211 03       		.uleb128 0x3
 6542 0212 0E       		.uleb128 0xe
 6543 0213 3A       		.uleb128 0x3a
 6544 0214 0B       		.uleb128 0xb
 6545 0215 3B       		.uleb128 0x3b
 6546 0216 05       		.uleb128 0x5
 6547 0217 49       		.uleb128 0x49
 6548 0218 13       		.uleb128 0x13
 6549 0219 02       		.uleb128 0x2
 6550 021a 18       		.uleb128 0x18
 6551 021b 00       		.byte	0
ARM GAS  /tmp/ccrwCQMC.s 			page 116


 6552 021c 00       		.byte	0
 6553 021d 2B       		.uleb128 0x2b
 6554 021e 34       		.uleb128 0x34
 6555 021f 00       		.byte	0
 6556 0220 03       		.uleb128 0x3
 6557 0221 08       		.uleb128 0x8
 6558 0222 3A       		.uleb128 0x3a
 6559 0223 0B       		.uleb128 0xb
 6560 0224 3B       		.uleb128 0x3b
 6561 0225 05       		.uleb128 0x5
 6562 0226 49       		.uleb128 0x49
 6563 0227 13       		.uleb128 0x13
 6564 0228 02       		.uleb128 0x2
 6565 0229 17       		.uleb128 0x17
 6566 022a 00       		.byte	0
 6567 022b 00       		.byte	0
 6568 022c 2C       		.uleb128 0x2c
 6569 022d 34       		.uleb128 0x34
 6570 022e 00       		.byte	0
 6571 022f 03       		.uleb128 0x3
 6572 0230 0E       		.uleb128 0xe
 6573 0231 3A       		.uleb128 0x3a
 6574 0232 0B       		.uleb128 0xb
 6575 0233 3B       		.uleb128 0x3b
 6576 0234 05       		.uleb128 0x5
 6577 0235 49       		.uleb128 0x49
 6578 0236 13       		.uleb128 0x13
 6579 0237 02       		.uleb128 0x2
 6580 0238 17       		.uleb128 0x17
 6581 0239 00       		.byte	0
 6582 023a 00       		.byte	0
 6583 023b 2D       		.uleb128 0x2d
 6584 023c 0A       		.uleb128 0xa
 6585 023d 00       		.byte	0
 6586 023e 03       		.uleb128 0x3
 6587 023f 0E       		.uleb128 0xe
 6588 0240 3A       		.uleb128 0x3a
 6589 0241 0B       		.uleb128 0xb
 6590 0242 3B       		.uleb128 0x3b
 6591 0243 05       		.uleb128 0x5
 6592 0244 11       		.uleb128 0x11
 6593 0245 01       		.uleb128 0x1
 6594 0246 00       		.byte	0
 6595 0247 00       		.byte	0
 6596 0248 2E       		.uleb128 0x2e
 6597 0249 0B       		.uleb128 0xb
 6598 024a 01       		.byte	0x1
 6599 024b 55       		.uleb128 0x55
 6600 024c 17       		.uleb128 0x17
 6601 024d 01       		.uleb128 0x1
 6602 024e 13       		.uleb128 0x13
 6603 024f 00       		.byte	0
 6604 0250 00       		.byte	0
 6605 0251 2F       		.uleb128 0x2f
 6606 0252 1D       		.uleb128 0x1d
 6607 0253 01       		.byte	0x1
 6608 0254 31       		.uleb128 0x31
ARM GAS  /tmp/ccrwCQMC.s 			page 117


 6609 0255 13       		.uleb128 0x13
 6610 0256 11       		.uleb128 0x11
 6611 0257 01       		.uleb128 0x1
 6612 0258 12       		.uleb128 0x12
 6613 0259 06       		.uleb128 0x6
 6614 025a 58       		.uleb128 0x58
 6615 025b 0B       		.uleb128 0xb
 6616 025c 59       		.uleb128 0x59
 6617 025d 05       		.uleb128 0x5
 6618 025e 01       		.uleb128 0x1
 6619 025f 13       		.uleb128 0x13
 6620 0260 00       		.byte	0
 6621 0261 00       		.byte	0
 6622 0262 30       		.uleb128 0x30
 6623 0263 05       		.uleb128 0x5
 6624 0264 00       		.byte	0
 6625 0265 31       		.uleb128 0x31
 6626 0266 13       		.uleb128 0x13
 6627 0267 02       		.uleb128 0x2
 6628 0268 17       		.uleb128 0x17
 6629 0269 00       		.byte	0
 6630 026a 00       		.byte	0
 6631 026b 31       		.uleb128 0x31
 6632 026c 898201   		.uleb128 0x4109
 6633 026f 01       		.byte	0x1
 6634 0270 11       		.uleb128 0x11
 6635 0271 01       		.uleb128 0x1
 6636 0272 31       		.uleb128 0x31
 6637 0273 13       		.uleb128 0x13
 6638 0274 00       		.byte	0
 6639 0275 00       		.byte	0
 6640 0276 32       		.uleb128 0x32
 6641 0277 8A8201   		.uleb128 0x410a
 6642 027a 00       		.byte	0
 6643 027b 02       		.uleb128 0x2
 6644 027c 18       		.uleb128 0x18
 6645 027d 9142     		.uleb128 0x2111
 6646 027f 18       		.uleb128 0x18
 6647 0280 00       		.byte	0
 6648 0281 00       		.byte	0
 6649 0282 33       		.uleb128 0x33
 6650 0283 0B       		.uleb128 0xb
 6651 0284 01       		.byte	0x1
 6652 0285 55       		.uleb128 0x55
 6653 0286 17       		.uleb128 0x17
 6654 0287 00       		.byte	0
 6655 0288 00       		.byte	0
 6656 0289 34       		.uleb128 0x34
 6657 028a 0B       		.uleb128 0xb
 6658 028b 01       		.byte	0x1
 6659 028c 11       		.uleb128 0x11
 6660 028d 01       		.uleb128 0x1
 6661 028e 12       		.uleb128 0x12
 6662 028f 06       		.uleb128 0x6
 6663 0290 01       		.uleb128 0x1
 6664 0291 13       		.uleb128 0x13
 6665 0292 00       		.byte	0
ARM GAS  /tmp/ccrwCQMC.s 			page 118


 6666 0293 00       		.byte	0
 6667 0294 35       		.uleb128 0x35
 6668 0295 0B       		.uleb128 0xb
 6669 0296 01       		.byte	0x1
 6670 0297 11       		.uleb128 0x11
 6671 0298 01       		.uleb128 0x1
 6672 0299 12       		.uleb128 0x12
 6673 029a 06       		.uleb128 0x6
 6674 029b 00       		.byte	0
 6675 029c 00       		.byte	0
 6676 029d 36       		.uleb128 0x36
 6677 029e 2E       		.uleb128 0x2e
 6678 029f 01       		.byte	0x1
 6679 02a0 03       		.uleb128 0x3
 6680 02a1 0E       		.uleb128 0xe
 6681 02a2 3A       		.uleb128 0x3a
 6682 02a3 0B       		.uleb128 0xb
 6683 02a4 3B       		.uleb128 0x3b
 6684 02a5 05       		.uleb128 0x5
 6685 02a6 27       		.uleb128 0x27
 6686 02a7 19       		.uleb128 0x19
 6687 02a8 49       		.uleb128 0x49
 6688 02a9 13       		.uleb128 0x13
 6689 02aa 11       		.uleb128 0x11
 6690 02ab 01       		.uleb128 0x1
 6691 02ac 12       		.uleb128 0x12
 6692 02ad 06       		.uleb128 0x6
 6693 02ae 40       		.uleb128 0x40
 6694 02af 18       		.uleb128 0x18
 6695 02b0 9742     		.uleb128 0x2117
 6696 02b2 19       		.uleb128 0x19
 6697 02b3 01       		.uleb128 0x1
 6698 02b4 13       		.uleb128 0x13
 6699 02b5 00       		.byte	0
 6700 02b6 00       		.byte	0
 6701 02b7 37       		.uleb128 0x37
 6702 02b8 0A       		.uleb128 0xa
 6703 02b9 00       		.byte	0
 6704 02ba 03       		.uleb128 0x3
 6705 02bb 0E       		.uleb128 0xe
 6706 02bc 3A       		.uleb128 0x3a
 6707 02bd 0B       		.uleb128 0xb
 6708 02be 3B       		.uleb128 0x3b
 6709 02bf 05       		.uleb128 0x5
 6710 02c0 00       		.byte	0
 6711 02c1 00       		.byte	0
 6712 02c2 38       		.uleb128 0x38
 6713 02c3 34       		.uleb128 0x34
 6714 02c4 00       		.byte	0
 6715 02c5 03       		.uleb128 0x3
 6716 02c6 08       		.uleb128 0x8
 6717 02c7 3A       		.uleb128 0x3a
 6718 02c8 0B       		.uleb128 0xb
 6719 02c9 3B       		.uleb128 0x3b
 6720 02ca 05       		.uleb128 0x5
 6721 02cb 49       		.uleb128 0x49
 6722 02cc 13       		.uleb128 0x13
ARM GAS  /tmp/ccrwCQMC.s 			page 119


 6723 02cd 00       		.byte	0
 6724 02ce 00       		.byte	0
 6725 02cf 39       		.uleb128 0x39
 6726 02d0 898201   		.uleb128 0x4109
 6727 02d3 00       		.byte	0
 6728 02d4 11       		.uleb128 0x11
 6729 02d5 01       		.uleb128 0x1
 6730 02d6 9542     		.uleb128 0x2115
 6731 02d8 19       		.uleb128 0x19
 6732 02d9 31       		.uleb128 0x31
 6733 02da 13       		.uleb128 0x13
 6734 02db 00       		.byte	0
 6735 02dc 00       		.byte	0
 6736 02dd 3A       		.uleb128 0x3a
 6737 02de 34       		.uleb128 0x34
 6738 02df 00       		.byte	0
 6739 02e0 03       		.uleb128 0x3
 6740 02e1 08       		.uleb128 0x8
 6741 02e2 3A       		.uleb128 0x3a
 6742 02e3 0B       		.uleb128 0xb
 6743 02e4 3B       		.uleb128 0x3b
 6744 02e5 05       		.uleb128 0x5
 6745 02e6 49       		.uleb128 0x49
 6746 02e7 13       		.uleb128 0x13
 6747 02e8 02       		.uleb128 0x2
 6748 02e9 18       		.uleb128 0x18
 6749 02ea 00       		.byte	0
 6750 02eb 00       		.byte	0
 6751 02ec 3B       		.uleb128 0x3b
 6752 02ed 898201   		.uleb128 0x4109
 6753 02f0 01       		.byte	0x1
 6754 02f1 11       		.uleb128 0x11
 6755 02f2 01       		.uleb128 0x1
 6756 02f3 31       		.uleb128 0x31
 6757 02f4 13       		.uleb128 0x13
 6758 02f5 01       		.uleb128 0x1
 6759 02f6 13       		.uleb128 0x13
 6760 02f7 00       		.byte	0
 6761 02f8 00       		.byte	0
 6762 02f9 3C       		.uleb128 0x3c
 6763 02fa 2E       		.uleb128 0x2e
 6764 02fb 01       		.byte	0x1
 6765 02fc 03       		.uleb128 0x3
 6766 02fd 08       		.uleb128 0x8
 6767 02fe 3A       		.uleb128 0x3a
 6768 02ff 0B       		.uleb128 0xb
 6769 0300 3B       		.uleb128 0x3b
 6770 0301 05       		.uleb128 0x5
 6771 0302 27       		.uleb128 0x27
 6772 0303 19       		.uleb128 0x19
 6773 0304 49       		.uleb128 0x49
 6774 0305 13       		.uleb128 0x13
 6775 0306 11       		.uleb128 0x11
 6776 0307 01       		.uleb128 0x1
 6777 0308 12       		.uleb128 0x12
 6778 0309 06       		.uleb128 0x6
 6779 030a 40       		.uleb128 0x40
ARM GAS  /tmp/ccrwCQMC.s 			page 120


 6780 030b 18       		.uleb128 0x18
 6781 030c 9742     		.uleb128 0x2117
 6782 030e 19       		.uleb128 0x19
 6783 030f 01       		.uleb128 0x1
 6784 0310 13       		.uleb128 0x13
 6785 0311 00       		.byte	0
 6786 0312 00       		.byte	0
 6787 0313 3D       		.uleb128 0x3d
 6788 0314 2E       		.uleb128 0x2e
 6789 0315 01       		.byte	0x1
 6790 0316 3F       		.uleb128 0x3f
 6791 0317 19       		.uleb128 0x19
 6792 0318 03       		.uleb128 0x3
 6793 0319 0E       		.uleb128 0xe
 6794 031a 3A       		.uleb128 0x3a
 6795 031b 0B       		.uleb128 0xb
 6796 031c 3B       		.uleb128 0x3b
 6797 031d 05       		.uleb128 0x5
 6798 031e 27       		.uleb128 0x27
 6799 031f 19       		.uleb128 0x19
 6800 0320 49       		.uleb128 0x49
 6801 0321 13       		.uleb128 0x13
 6802 0322 20       		.uleb128 0x20
 6803 0323 0B       		.uleb128 0xb
 6804 0324 01       		.uleb128 0x1
 6805 0325 13       		.uleb128 0x13
 6806 0326 00       		.byte	0
 6807 0327 00       		.byte	0
 6808 0328 3E       		.uleb128 0x3e
 6809 0329 05       		.uleb128 0x5
 6810 032a 00       		.byte	0
 6811 032b 03       		.uleb128 0x3
 6812 032c 08       		.uleb128 0x8
 6813 032d 3A       		.uleb128 0x3a
 6814 032e 0B       		.uleb128 0xb
 6815 032f 3B       		.uleb128 0x3b
 6816 0330 05       		.uleb128 0x5
 6817 0331 49       		.uleb128 0x49
 6818 0332 13       		.uleb128 0x13
 6819 0333 00       		.byte	0
 6820 0334 00       		.byte	0
 6821 0335 3F       		.uleb128 0x3f
 6822 0336 898201   		.uleb128 0x4109
 6823 0339 01       		.byte	0x1
 6824 033a 11       		.uleb128 0x11
 6825 033b 01       		.uleb128 0x1
 6826 033c 9542     		.uleb128 0x2115
 6827 033e 19       		.uleb128 0x19
 6828 033f 31       		.uleb128 0x31
 6829 0340 13       		.uleb128 0x13
 6830 0341 00       		.byte	0
 6831 0342 00       		.byte	0
 6832 0343 40       		.uleb128 0x40
 6833 0344 2E       		.uleb128 0x2e
 6834 0345 00       		.byte	0
 6835 0346 3F       		.uleb128 0x3f
 6836 0347 19       		.uleb128 0x19
ARM GAS  /tmp/ccrwCQMC.s 			page 121


 6837 0348 03       		.uleb128 0x3
 6838 0349 0E       		.uleb128 0xe
 6839 034a 3A       		.uleb128 0x3a
 6840 034b 0B       		.uleb128 0xb
 6841 034c 3B       		.uleb128 0x3b
 6842 034d 05       		.uleb128 0x5
 6843 034e 27       		.uleb128 0x27
 6844 034f 19       		.uleb128 0x19
 6845 0350 49       		.uleb128 0x49
 6846 0351 13       		.uleb128 0x13
 6847 0352 00       		.byte	0
 6848 0353 00       		.byte	0
 6849 0354 41       		.uleb128 0x41
 6850 0355 2E       		.uleb128 0x2e
 6851 0356 00       		.byte	0
 6852 0357 3F       		.uleb128 0x3f
 6853 0358 19       		.uleb128 0x19
 6854 0359 03       		.uleb128 0x3
 6855 035a 0E       		.uleb128 0xe
 6856 035b 3A       		.uleb128 0x3a
 6857 035c 0B       		.uleb128 0xb
 6858 035d 3B       		.uleb128 0x3b
 6859 035e 05       		.uleb128 0x5
 6860 035f 27       		.uleb128 0x27
 6861 0360 19       		.uleb128 0x19
 6862 0361 49       		.uleb128 0x49
 6863 0362 13       		.uleb128 0x13
 6864 0363 20       		.uleb128 0x20
 6865 0364 0B       		.uleb128 0xb
 6866 0365 00       		.byte	0
 6867 0366 00       		.byte	0
 6868 0367 42       		.uleb128 0x42
 6869 0368 2E       		.uleb128 0x2e
 6870 0369 00       		.byte	0
 6871 036a 3F       		.uleb128 0x3f
 6872 036b 19       		.uleb128 0x19
 6873 036c 03       		.uleb128 0x3
 6874 036d 0E       		.uleb128 0xe
 6875 036e 3A       		.uleb128 0x3a
 6876 036f 0B       		.uleb128 0xb
 6877 0370 3B       		.uleb128 0x3b
 6878 0371 05       		.uleb128 0x5
 6879 0372 27       		.uleb128 0x27
 6880 0373 19       		.uleb128 0x19
 6881 0374 49       		.uleb128 0x49
 6882 0375 13       		.uleb128 0x13
 6883 0376 11       		.uleb128 0x11
 6884 0377 01       		.uleb128 0x1
 6885 0378 12       		.uleb128 0x12
 6886 0379 06       		.uleb128 0x6
 6887 037a 40       		.uleb128 0x40
 6888 037b 18       		.uleb128 0x18
 6889 037c 9742     		.uleb128 0x2117
 6890 037e 19       		.uleb128 0x19
 6891 037f 00       		.byte	0
 6892 0380 00       		.byte	0
 6893 0381 43       		.uleb128 0x43
ARM GAS  /tmp/ccrwCQMC.s 			page 122


 6894 0382 2E       		.uleb128 0x2e
 6895 0383 01       		.byte	0x1
 6896 0384 03       		.uleb128 0x3
 6897 0385 0E       		.uleb128 0xe
 6898 0386 3A       		.uleb128 0x3a
 6899 0387 0B       		.uleb128 0xb
 6900 0388 3B       		.uleb128 0x3b
 6901 0389 05       		.uleb128 0x5
 6902 038a 27       		.uleb128 0x27
 6903 038b 19       		.uleb128 0x19
 6904 038c 49       		.uleb128 0x49
 6905 038d 13       		.uleb128 0x13
 6906 038e 20       		.uleb128 0x20
 6907 038f 0B       		.uleb128 0xb
 6908 0390 01       		.uleb128 0x1
 6909 0391 13       		.uleb128 0x13
 6910 0392 00       		.byte	0
 6911 0393 00       		.byte	0
 6912 0394 44       		.uleb128 0x44
 6913 0395 2E       		.uleb128 0x2e
 6914 0396 01       		.byte	0x1
 6915 0397 31       		.uleb128 0x31
 6916 0398 13       		.uleb128 0x13
 6917 0399 11       		.uleb128 0x11
 6918 039a 01       		.uleb128 0x1
 6919 039b 12       		.uleb128 0x12
 6920 039c 06       		.uleb128 0x6
 6921 039d 40       		.uleb128 0x40
 6922 039e 18       		.uleb128 0x18
 6923 039f 9742     		.uleb128 0x2117
 6924 03a1 19       		.uleb128 0x19
 6925 03a2 01       		.uleb128 0x1
 6926 03a3 13       		.uleb128 0x13
 6927 03a4 00       		.byte	0
 6928 03a5 00       		.byte	0
 6929 03a6 45       		.uleb128 0x45
 6930 03a7 05       		.uleb128 0x5
 6931 03a8 00       		.byte	0
 6932 03a9 31       		.uleb128 0x31
 6933 03aa 13       		.uleb128 0x13
 6934 03ab 02       		.uleb128 0x2
 6935 03ac 18       		.uleb128 0x18
 6936 03ad 00       		.byte	0
 6937 03ae 00       		.byte	0
 6938 03af 46       		.uleb128 0x46
 6939 03b0 34       		.uleb128 0x34
 6940 03b1 00       		.byte	0
 6941 03b2 31       		.uleb128 0x31
 6942 03b3 13       		.uleb128 0x13
 6943 03b4 02       		.uleb128 0x2
 6944 03b5 18       		.uleb128 0x18
 6945 03b6 00       		.byte	0
 6946 03b7 00       		.byte	0
 6947 03b8 47       		.uleb128 0x47
 6948 03b9 2E       		.uleb128 0x2e
 6949 03ba 00       		.byte	0
 6950 03bb 31       		.uleb128 0x31
ARM GAS  /tmp/ccrwCQMC.s 			page 123


 6951 03bc 13       		.uleb128 0x13
 6952 03bd 11       		.uleb128 0x11
 6953 03be 01       		.uleb128 0x1
 6954 03bf 12       		.uleb128 0x12
 6955 03c0 06       		.uleb128 0x6
 6956 03c1 40       		.uleb128 0x40
 6957 03c2 18       		.uleb128 0x18
 6958 03c3 9742     		.uleb128 0x2117
 6959 03c5 19       		.uleb128 0x19
 6960 03c6 00       		.byte	0
 6961 03c7 00       		.byte	0
 6962 03c8 48       		.uleb128 0x48
 6963 03c9 2E       		.uleb128 0x2e
 6964 03ca 00       		.byte	0
 6965 03cb 3F       		.uleb128 0x3f
 6966 03cc 19       		.uleb128 0x19
 6967 03cd 3C       		.uleb128 0x3c
 6968 03ce 19       		.uleb128 0x19
 6969 03cf 6E       		.uleb128 0x6e
 6970 03d0 0E       		.uleb128 0xe
 6971 03d1 03       		.uleb128 0x3
 6972 03d2 0E       		.uleb128 0xe
 6973 03d3 3A       		.uleb128 0x3a
 6974 03d4 0B       		.uleb128 0xb
 6975 03d5 3B       		.uleb128 0x3b
 6976 03d6 0B       		.uleb128 0xb
 6977 03d7 6E       		.uleb128 0x6e
 6978 03d8 0E       		.uleb128 0xe
 6979 03d9 00       		.byte	0
 6980 03da 00       		.byte	0
 6981 03db 49       		.uleb128 0x49
 6982 03dc 2E       		.uleb128 0x2e
 6983 03dd 00       		.byte	0
 6984 03de 3F       		.uleb128 0x3f
 6985 03df 19       		.uleb128 0x19
 6986 03e0 3C       		.uleb128 0x3c
 6987 03e1 19       		.uleb128 0x19
 6988 03e2 6E       		.uleb128 0x6e
 6989 03e3 0E       		.uleb128 0xe
 6990 03e4 03       		.uleb128 0x3
 6991 03e5 0E       		.uleb128 0xe
 6992 03e6 3A       		.uleb128 0x3a
 6993 03e7 0B       		.uleb128 0xb
 6994 03e8 3B       		.uleb128 0x3b
 6995 03e9 0B       		.uleb128 0xb
 6996 03ea 00       		.byte	0
 6997 03eb 00       		.byte	0
 6998 03ec 00       		.byte	0
 6999              		.section	.debug_loc,"",%progbits
 7000              	.Ldebug_loc0:
 7001              	.LLST88:
 7002 0000 00000000 		.4byte	.LVL355
 7003 0004 46000000 		.4byte	.LVL362
 7004 0008 0100     		.2byte	0x1
 7005 000a 50       		.byte	0x50
 7006 000b 46000000 		.4byte	.LVL362
 7007 000f 5E000000 		.4byte	.LVL365
ARM GAS  /tmp/ccrwCQMC.s 			page 124


 7008 0013 0300     		.2byte	0x3
 7009 0015 7E       		.byte	0x7e
 7010 0016 7F       		.sleb128 -1
 7011 0017 9F       		.byte	0x9f
 7012 0018 5E000000 		.4byte	.LVL365
 7013 001c C4000000 		.4byte	.LVL375
 7014 0020 0400     		.2byte	0x4
 7015 0022 F3       		.byte	0xf3
 7016 0023 01       		.uleb128 0x1
 7017 0024 50       		.byte	0x50
 7018 0025 9F       		.byte	0x9f
 7019 0026 C4000000 		.4byte	.LVL375
 7020 002a C6000000 		.4byte	.LVL376
 7021 002e 0100     		.2byte	0x1
 7022 0030 50       		.byte	0x50
 7023 0031 C6000000 		.4byte	.LVL376
 7024 0035 20020000 		.4byte	.LVL409
 7025 0039 0400     		.2byte	0x4
 7026 003b F3       		.byte	0xf3
 7027 003c 01       		.uleb128 0x1
 7028 003d 50       		.byte	0x50
 7029 003e 9F       		.byte	0x9f
 7030 003f 20020000 		.4byte	.LVL409
 7031 0043 24020000 		.4byte	.LVL411
 7032 0047 0100     		.2byte	0x1
 7033 0049 50       		.byte	0x50
 7034 004a 24020000 		.4byte	.LVL411
 7035 004e 92030000 		.4byte	.LVL463
 7036 0052 0400     		.2byte	0x4
 7037 0054 F3       		.byte	0xf3
 7038 0055 01       		.uleb128 0x1
 7039 0056 50       		.byte	0x50
 7040 0057 9F       		.byte	0x9f
 7041 0058 92030000 		.4byte	.LVL463
 7042 005c 96030000 		.4byte	.LVL464
 7043 0060 0100     		.2byte	0x1
 7044 0062 50       		.byte	0x50
 7045 0063 96030000 		.4byte	.LVL464
 7046 0067 A6030000 		.4byte	.LVL466
 7047 006b 0400     		.2byte	0x4
 7048 006d F3       		.byte	0xf3
 7049 006e 01       		.uleb128 0x1
 7050 006f 50       		.byte	0x50
 7051 0070 9F       		.byte	0x9f
 7052 0071 A6030000 		.4byte	.LVL466
 7053 0075 AA030000 		.4byte	.LVL468
 7054 0079 0100     		.2byte	0x1
 7055 007b 50       		.byte	0x50
 7056 007c AA030000 		.4byte	.LVL468
 7057 0080 B4030000 		.4byte	.LFE33
 7058 0084 0400     		.2byte	0x4
 7059 0086 F3       		.byte	0xf3
 7060 0087 01       		.uleb128 0x1
 7061 0088 50       		.byte	0x50
 7062 0089 9F       		.byte	0x9f
 7063 008a 00000000 		.4byte	0
 7064 008e 00000000 		.4byte	0
ARM GAS  /tmp/ccrwCQMC.s 			page 125


 7065              	.LLST89:
 7066 0092 00000000 		.4byte	.LVL355
 7067 0096 38000000 		.4byte	.LVL360
 7068 009a 0100     		.2byte	0x1
 7069 009c 51       		.byte	0x51
 7070 009d 38000000 		.4byte	.LVL360
 7071 00a1 5E000000 		.4byte	.LVL365
 7072 00a5 0300     		.2byte	0x3
 7073 00a7 71       		.byte	0x71
 7074 00a8 01       		.sleb128 1
 7075 00a9 9F       		.byte	0x9f
 7076 00aa 5E000000 		.4byte	.LVL365
 7077 00ae C4000000 		.4byte	.LVL375
 7078 00b2 0400     		.2byte	0x4
 7079 00b4 F3       		.byte	0xf3
 7080 00b5 01       		.uleb128 0x1
 7081 00b6 51       		.byte	0x51
 7082 00b7 9F       		.byte	0x9f
 7083 00b8 C4000000 		.4byte	.LVL375
 7084 00bc C6000000 		.4byte	.LVL376
 7085 00c0 0100     		.2byte	0x1
 7086 00c2 51       		.byte	0x51
 7087 00c3 C6000000 		.4byte	.LVL376
 7088 00c7 20020000 		.4byte	.LVL409
 7089 00cb 0400     		.2byte	0x4
 7090 00cd F3       		.byte	0xf3
 7091 00ce 01       		.uleb128 0x1
 7092 00cf 51       		.byte	0x51
 7093 00d0 9F       		.byte	0x9f
 7094 00d1 20020000 		.4byte	.LVL409
 7095 00d5 22020000 		.4byte	.LVL410
 7096 00d9 0100     		.2byte	0x1
 7097 00db 51       		.byte	0x51
 7098 00dc 22020000 		.4byte	.LVL410
 7099 00e0 A6030000 		.4byte	.LVL466
 7100 00e4 0400     		.2byte	0x4
 7101 00e6 F3       		.byte	0xf3
 7102 00e7 01       		.uleb128 0x1
 7103 00e8 51       		.byte	0x51
 7104 00e9 9F       		.byte	0x9f
 7105 00ea A6030000 		.4byte	.LVL466
 7106 00ee A8030000 		.4byte	.LVL467
 7107 00f2 0100     		.2byte	0x1
 7108 00f4 51       		.byte	0x51
 7109 00f5 A8030000 		.4byte	.LVL467
 7110 00f9 B4030000 		.4byte	.LFE33
 7111 00fd 0400     		.2byte	0x4
 7112 00ff F3       		.byte	0xf3
 7113 0100 01       		.uleb128 0x1
 7114 0101 51       		.byte	0x51
 7115 0102 9F       		.byte	0x9f
 7116 0103 00000000 		.4byte	0
 7117 0107 00000000 		.4byte	0
 7118              	.LLST90:
 7119 010b 00000000 		.4byte	.LVL355
 7120 010f CE020000 		.4byte	.LVL436
 7121 0113 0200     		.2byte	0x2
ARM GAS  /tmp/ccrwCQMC.s 			page 126


 7122 0115 91       		.byte	0x91
 7123 0116 00       		.sleb128 0
 7124 0117 CE020000 		.4byte	.LVL436
 7125 011b B4030000 		.4byte	.LFE33
 7126 011f 0200     		.2byte	0x2
 7127 0121 91       		.byte	0x91
 7128 0122 00       		.sleb128 0
 7129 0123 00000000 		.4byte	0
 7130 0127 00000000 		.4byte	0
 7131              	.LLST91:
 7132 012b 14000000 		.4byte	.LVL358
 7133 012f 4A000000 		.4byte	.LVL363
 7134 0133 0100     		.2byte	0x1
 7135 0135 52       		.byte	0x52
 7136 0136 5E000000 		.4byte	.LVL365
 7137 013a 9E000000 		.4byte	.LVL371
 7138 013e 0100     		.2byte	0x1
 7139 0140 51       		.byte	0x51
 7140 0141 9E000000 		.4byte	.LVL371
 7141 0145 AA000000 		.4byte	.LVL372
 7142 0149 0300     		.2byte	0x3
 7143 014b 71       		.byte	0x71
 7144 014c 01       		.sleb128 1
 7145 014d 9F       		.byte	0x9f
 7146 014e AA000000 		.4byte	.LVL372
 7147 0152 B4000000 		.4byte	.LVL373
 7148 0156 0100     		.2byte	0x1
 7149 0158 54       		.byte	0x54
 7150 0159 C4000000 		.4byte	.LVL375
 7151 015d C6000000 		.4byte	.LVL376
 7152 0161 0100     		.2byte	0x1
 7153 0163 52       		.byte	0x52
 7154 0164 C6000000 		.4byte	.LVL376
 7155 0168 26010000 		.4byte	.LVL382
 7156 016c 0100     		.2byte	0x1
 7157 016e 51       		.byte	0x51
 7158 016f 26010000 		.4byte	.LVL382
 7159 0173 3E010000 		.4byte	.LVL384
 7160 0177 0100     		.2byte	0x1
 7161 0179 5A       		.byte	0x5a
 7162 017a 3E010000 		.4byte	.LVL384
 7163 017e 68010000 		.4byte	.LVL388
 7164 0182 0100     		.2byte	0x1
 7165 0184 55       		.byte	0x55
 7166 0185 7C010000 		.4byte	.LVL391
 7167 0189 C4010000 		.4byte	.LVL399
 7168 018d 0100     		.2byte	0x1
 7169 018f 51       		.byte	0x51
 7170 0190 C4010000 		.4byte	.LVL399
 7171 0194 E4010000 		.4byte	.LVL401
 7172 0198 0100     		.2byte	0x1
 7173 019a 57       		.byte	0x57
 7174 019b E4010000 		.4byte	.LVL401
 7175 019f F2010000 		.4byte	.LVL404
 7176 01a3 0100     		.2byte	0x1
 7177 01a5 55       		.byte	0x55
 7178 01a6 10020000 		.4byte	.LVL405
ARM GAS  /tmp/ccrwCQMC.s 			page 127


 7179 01aa 1C020000 		.4byte	.LVL407
 7180 01ae 0100     		.2byte	0x1
 7181 01b0 51       		.byte	0x51
 7182 01b1 1C020000 		.4byte	.LVL407
 7183 01b5 1E020000 		.4byte	.LVL408
 7184 01b9 0600     		.2byte	0x6
 7185 01bb 71       		.byte	0x71
 7186 01bc 00       		.sleb128 0
 7187 01bd 7E       		.byte	0x7e
 7188 01be 00       		.sleb128 0
 7189 01bf 22       		.byte	0x22
 7190 01c0 9F       		.byte	0x9f
 7191 01c1 1E020000 		.4byte	.LVL408
 7192 01c5 20020000 		.4byte	.LVL409
 7193 01c9 0100     		.2byte	0x1
 7194 01cb 51       		.byte	0x51
 7195 01cc 20020000 		.4byte	.LVL409
 7196 01d0 24020000 		.4byte	.LVL411
 7197 01d4 0100     		.2byte	0x1
 7198 01d6 52       		.byte	0x52
 7199 01d7 24020000 		.4byte	.LVL411
 7200 01db 38020000 		.4byte	.LVL412
 7201 01df 0100     		.2byte	0x1
 7202 01e1 51       		.byte	0x51
 7203 01e2 38020000 		.4byte	.LVL412
 7204 01e6 3C020000 		.4byte	.LVL413
 7205 01ea 0300     		.2byte	0x3
 7206 01ec 71       		.byte	0x71
 7207 01ed 01       		.sleb128 1
 7208 01ee 9F       		.byte	0x9f
 7209 01ef 3C020000 		.4byte	.LVL413
 7210 01f3 42020000 		.4byte	.LVL414
 7211 01f7 0300     		.2byte	0x3
 7212 01f9 74       		.byte	0x74
 7213 01fa 01       		.sleb128 1
 7214 01fb 9F       		.byte	0x9f
 7215 01fc 42020000 		.4byte	.LVL414
 7216 0200 52020000 		.4byte	.LVL416
 7217 0204 0300     		.2byte	0x3
 7218 0206 74       		.byte	0x74
 7219 0207 02       		.sleb128 2
 7220 0208 9F       		.byte	0x9f
 7221 0209 52020000 		.4byte	.LVL416
 7222 020d 84020000 		.4byte	.LVL422
 7223 0211 0100     		.2byte	0x1
 7224 0213 51       		.byte	0x51
 7225 0214 84020000 		.4byte	.LVL422
 7226 0218 88020000 		.4byte	.LVL423
 7227 021c 0300     		.2byte	0x3
 7228 021e 71       		.byte	0x71
 7229 021f 01       		.sleb128 1
 7230 0220 9F       		.byte	0x9f
 7231 0221 88020000 		.4byte	.LVL423
 7232 0225 92020000 		.4byte	.LVL425
 7233 0229 0300     		.2byte	0x3
 7234 022b 71       		.byte	0x71
 7235 022c 02       		.sleb128 2
ARM GAS  /tmp/ccrwCQMC.s 			page 128


 7236 022d 9F       		.byte	0x9f
 7237 022e 92020000 		.4byte	.LVL425
 7238 0232 A0020000 		.4byte	.LVL428
 7239 0236 0100     		.2byte	0x1
 7240 0238 54       		.byte	0x54
 7241 0239 A0020000 		.4byte	.LVL428
 7242 023d C2020000 		.4byte	.LVL435
 7243 0241 0100     		.2byte	0x1
 7244 0243 51       		.byte	0x51
 7245 0244 CE020000 		.4byte	.LVL436
 7246 0248 D2020000 		.4byte	.LVL437
 7247 024c 0100     		.2byte	0x1
 7248 024e 57       		.byte	0x57
 7249 024f D2020000 		.4byte	.LVL437
 7250 0253 D8020000 		.4byte	.LVL438
 7251 0257 0100     		.2byte	0x1
 7252 0259 54       		.byte	0x54
 7253 025a D8020000 		.4byte	.LVL438
 7254 025e E0020000 		.4byte	.LVL440
 7255 0262 0300     		.2byte	0x3
 7256 0264 74       		.byte	0x74
 7257 0265 01       		.sleb128 1
 7258 0266 9F       		.byte	0x9f
 7259 0267 E0020000 		.4byte	.LVL440
 7260 026b EC020000 		.4byte	.LVL442
 7261 026f 0300     		.2byte	0x3
 7262 0271 74       		.byte	0x74
 7263 0272 02       		.sleb128 2
 7264 0273 9F       		.byte	0x9f
 7265 0274 EC020000 		.4byte	.LVL442
 7266 0278 12030000 		.4byte	.LVL445
 7267 027c 0100     		.2byte	0x1
 7268 027e 51       		.byte	0x51
 7269 027f 12030000 		.4byte	.LVL445
 7270 0283 1A030000 		.4byte	.LVL446
 7271 0287 0300     		.2byte	0x3
 7272 0289 71       		.byte	0x71
 7273 028a 01       		.sleb128 1
 7274 028b 9F       		.byte	0x9f
 7275 028c 1A030000 		.4byte	.LVL446
 7276 0290 20030000 		.4byte	.LVL447
 7277 0294 0100     		.2byte	0x1
 7278 0296 54       		.byte	0x54
 7279 0297 20030000 		.4byte	.LVL447
 7280 029b 26030000 		.4byte	.LVL448
 7281 029f 0100     		.2byte	0x1
 7282 02a1 57       		.byte	0x57
 7283 02a2 3A030000 		.4byte	.LVL450
 7284 02a6 7E030000 		.4byte	.LVL461
 7285 02aa 0100     		.2byte	0x1
 7286 02ac 51       		.byte	0x51
 7287 02ad 92030000 		.4byte	.LVL463
 7288 02b1 96030000 		.4byte	.LVL464
 7289 02b5 0100     		.2byte	0x1
 7290 02b7 52       		.byte	0x52
 7291 02b8 96030000 		.4byte	.LVL464
 7292 02bc 98030000 		.4byte	.LVL465
ARM GAS  /tmp/ccrwCQMC.s 			page 129


 7293 02c0 0100     		.2byte	0x1
 7294 02c2 51       		.byte	0x51
 7295 02c3 A6030000 		.4byte	.LVL466
 7296 02c7 AA030000 		.4byte	.LVL468
 7297 02cb 0100     		.2byte	0x1
 7298 02cd 52       		.byte	0x52
 7299 02ce 00000000 		.4byte	0
 7300 02d2 00000000 		.4byte	0
 7301              	.LLST92:
 7302 02d6 14000000 		.4byte	.LVL358
 7303 02da 2C000000 		.4byte	.LVL359
 7304 02de 0100     		.2byte	0x1
 7305 02e0 50       		.byte	0x50
 7306 02e1 2C000000 		.4byte	.LVL359
 7307 02e5 4A000000 		.4byte	.LVL363
 7308 02e9 0100     		.2byte	0x1
 7309 02eb 5E       		.byte	0x5e
 7310 02ec 4A000000 		.4byte	.LVL363
 7311 02f0 4E000000 		.4byte	.LVL364
 7312 02f4 0100     		.2byte	0x1
 7313 02f6 54       		.byte	0x54
 7314 02f7 4E000000 		.4byte	.LVL364
 7315 02fb 5E000000 		.4byte	.LVL365
 7316 02ff 0300     		.2byte	0x3
 7317 0301 74       		.byte	0x74
 7318 0302 7F       		.sleb128 -1
 7319 0303 9F       		.byte	0x9f
 7320 0304 5E000000 		.4byte	.LVL365
 7321 0308 6C000000 		.4byte	.LVL367
 7322 030c 0300     		.2byte	0x3
 7323 030e 70       		.byte	0x70
 7324 030f 01       		.sleb128 1
 7325 0310 9F       		.byte	0x9f
 7326 0311 6C000000 		.4byte	.LVL367
 7327 0315 6E000000 		.4byte	.LVL368
 7328 0319 0100     		.2byte	0x1
 7329 031b 55       		.byte	0x55
 7330 031c 84000000 		.4byte	.LVL369
 7331 0320 9E000000 		.4byte	.LVL371
 7332 0324 0100     		.2byte	0x1
 7333 0326 50       		.byte	0x50
 7334 0327 C4000000 		.4byte	.LVL375
 7335 032b C6000000 		.4byte	.LVL376
 7336 032f 0100     		.2byte	0x1
 7337 0331 50       		.byte	0x50
 7338 0332 84010000 		.4byte	.LVL392
 7339 0336 8A010000 		.4byte	.LVL393
 7340 033a 0300     		.2byte	0x3
 7341 033c 75       		.byte	0x75
 7342 033d 01       		.sleb128 1
 7343 033e 9F       		.byte	0x9f
 7344 033f 8A010000 		.4byte	.LVL393
 7345 0343 94010000 		.4byte	.LVL394
 7346 0347 0300     		.2byte	0x3
 7347 0349 75       		.byte	0x75
 7348 034a 02       		.sleb128 2
 7349 034b 9F       		.byte	0x9f
ARM GAS  /tmp/ccrwCQMC.s 			page 130


 7350 034c 98010000 		.4byte	.LVL395
 7351 0350 9C010000 		.4byte	.LVL396
 7352 0354 0300     		.2byte	0x3
 7353 0356 75       		.byte	0x75
 7354 0357 01       		.sleb128 1
 7355 0358 9F       		.byte	0x9f
 7356 0359 9C010000 		.4byte	.LVL396
 7357 035d A0010000 		.4byte	.LVL398
 7358 0361 0300     		.2byte	0x3
 7359 0363 75       		.byte	0x75
 7360 0364 02       		.sleb128 2
 7361 0365 9F       		.byte	0x9f
 7362 0366 C4010000 		.4byte	.LVL399
 7363 036a E4010000 		.4byte	.LVL401
 7364 036e 0100     		.2byte	0x1
 7365 0370 50       		.byte	0x50
 7366 0371 E4010000 		.4byte	.LVL401
 7367 0375 E8010000 		.4byte	.LVL402
 7368 0379 0100     		.2byte	0x1
 7369 037b 58       		.byte	0x58
 7370 037c E8010000 		.4byte	.LVL402
 7371 0380 EC010000 		.4byte	.LVL403
 7372 0384 0300     		.2byte	0x3
 7373 0386 78       		.byte	0x78
 7374 0387 7C       		.sleb128 -4
 7375 0388 9F       		.byte	0x9f
 7376 0389 EC010000 		.4byte	.LVL403
 7377 038d 10020000 		.4byte	.LVL405
 7378 0391 0100     		.2byte	0x1
 7379 0393 58       		.byte	0x58
 7380 0394 10020000 		.4byte	.LVL405
 7381 0398 14020000 		.4byte	.LVL406
 7382 039c 0100     		.2byte	0x1
 7383 039e 50       		.byte	0x50
 7384 039f 14020000 		.4byte	.LVL406
 7385 03a3 20020000 		.4byte	.LVL409
 7386 03a7 0300     		.2byte	0x3
 7387 03a9 70       		.byte	0x70
 7388 03aa 7F       		.sleb128 -1
 7389 03ab 9F       		.byte	0x9f
 7390 03ac 20020000 		.4byte	.LVL409
 7391 03b0 38020000 		.4byte	.LVL412
 7392 03b4 0100     		.2byte	0x1
 7393 03b6 5E       		.byte	0x5e
 7394 03b7 38020000 		.4byte	.LVL412
 7395 03bb 42020000 		.4byte	.LVL414
 7396 03bf 0300     		.2byte	0x3
 7397 03c1 7E       		.byte	0x7e
 7398 03c2 01       		.sleb128 1
 7399 03c3 9F       		.byte	0x9f
 7400 03c4 42020000 		.4byte	.LVL414
 7401 03c8 50020000 		.4byte	.LVL415
 7402 03cc 0300     		.2byte	0x3
 7403 03ce 7E       		.byte	0x7e
 7404 03cf 02       		.sleb128 2
 7405 03d0 9F       		.byte	0x9f
 7406 03d1 50020000 		.4byte	.LVL415
ARM GAS  /tmp/ccrwCQMC.s 			page 131


 7407 03d5 56020000 		.4byte	.LVL417
 7408 03d9 0100     		.2byte	0x1
 7409 03db 5E       		.byte	0x5e
 7410 03dc 56020000 		.4byte	.LVL417
 7411 03e0 5C020000 		.4byte	.LVL419
 7412 03e4 0100     		.2byte	0x1
 7413 03e6 55       		.byte	0x55
 7414 03e7 5C020000 		.4byte	.LVL419
 7415 03eb 72020000 		.4byte	.LVL421
 7416 03ef 0300     		.2byte	0x3
 7417 03f1 70       		.byte	0x70
 7418 03f2 01       		.sleb128 1
 7419 03f3 9F       		.byte	0x9f
 7420 03f4 72020000 		.4byte	.LVL421
 7421 03f8 92020000 		.4byte	.LVL425
 7422 03fc 0100     		.2byte	0x1
 7423 03fe 50       		.byte	0x50
 7424 03ff A0020000 		.4byte	.LVL428
 7425 0403 A4020000 		.4byte	.LVL429
 7426 0407 0300     		.2byte	0x3
 7427 0409 75       		.byte	0x75
 7428 040a 01       		.sleb128 1
 7429 040b 9F       		.byte	0x9f
 7430 040c A4020000 		.4byte	.LVL429
 7431 0410 AE020000 		.4byte	.LVL430
 7432 0414 0300     		.2byte	0x3
 7433 0416 75       		.byte	0x75
 7434 0417 02       		.sleb128 2
 7435 0418 9F       		.byte	0x9f
 7436 0419 B2020000 		.4byte	.LVL431
 7437 041d B6020000 		.4byte	.LVL432
 7438 0421 0300     		.2byte	0x3
 7439 0423 75       		.byte	0x75
 7440 0424 01       		.sleb128 1
 7441 0425 9F       		.byte	0x9f
 7442 0426 B6020000 		.4byte	.LVL432
 7443 042a C2020000 		.4byte	.LVL435
 7444 042e 0300     		.2byte	0x3
 7445 0430 75       		.byte	0x75
 7446 0431 02       		.sleb128 2
 7447 0432 9F       		.byte	0x9f
 7448 0433 CE020000 		.4byte	.LVL436
 7449 0437 D2020000 		.4byte	.LVL437
 7450 043b 0100     		.2byte	0x1
 7451 043d 50       		.byte	0x50
 7452 043e D8020000 		.4byte	.LVL438
 7453 0442 DC020000 		.4byte	.LVL439
 7454 0446 0300     		.2byte	0x3
 7455 0448 7E       		.byte	0x7e
 7456 0449 01       		.sleb128 1
 7457 044a 9F       		.byte	0x9f
 7458 044b DC020000 		.4byte	.LVL439
 7459 044f E0020000 		.4byte	.LVL440
 7460 0453 0100     		.2byte	0x1
 7461 0455 5E       		.byte	0x5e
 7462 0456 E0020000 		.4byte	.LVL440
 7463 045a EA020000 		.4byte	.LVL441
ARM GAS  /tmp/ccrwCQMC.s 			page 132


 7464 045e 0300     		.2byte	0x3
 7465 0460 7E       		.byte	0x7e
 7466 0461 02       		.sleb128 2
 7467 0462 9F       		.byte	0x9f
 7468 0463 EA020000 		.4byte	.LVL441
 7469 0467 EE020000 		.4byte	.LVL443
 7470 046b 0100     		.2byte	0x1
 7471 046d 5E       		.byte	0x5e
 7472 046e 04030000 		.4byte	.LVL444
 7473 0472 26030000 		.4byte	.LVL448
 7474 0476 0100     		.2byte	0x1
 7475 0478 50       		.byte	0x50
 7476 0479 26030000 		.4byte	.LVL448
 7477 047d 2A030000 		.4byte	.LVL449
 7478 0481 0100     		.2byte	0x1
 7479 0483 54       		.byte	0x54
 7480 0484 2A030000 		.4byte	.LVL449
 7481 0488 3A030000 		.4byte	.LVL450
 7482 048c 0300     		.2byte	0x3
 7483 048e 74       		.byte	0x74
 7484 048f 7F       		.sleb128 -1
 7485 0490 9F       		.byte	0x9f
 7486 0491 52030000 		.4byte	.LVL452
 7487 0495 5C030000 		.4byte	.LVL454
 7488 0499 0300     		.2byte	0x3
 7489 049b 75       		.byte	0x75
 7490 049c 02       		.sleb128 2
 7491 049d 9F       		.byte	0x9f
 7492 049e 5C030000 		.4byte	.LVL454
 7493 04a2 60030000 		.4byte	.LVL455
 7494 04a6 0300     		.2byte	0x3
 7495 04a8 75       		.byte	0x75
 7496 04a9 01       		.sleb128 1
 7497 04aa 9F       		.byte	0x9f
 7498 04ab 60030000 		.4byte	.LVL455
 7499 04af 6A030000 		.4byte	.LVL456
 7500 04b3 0300     		.2byte	0x3
 7501 04b5 75       		.byte	0x75
 7502 04b6 02       		.sleb128 2
 7503 04b7 9F       		.byte	0x9f
 7504 04b8 6E030000 		.4byte	.LVL457
 7505 04bc 72030000 		.4byte	.LVL458
 7506 04c0 0300     		.2byte	0x3
 7507 04c2 75       		.byte	0x75
 7508 04c3 01       		.sleb128 1
 7509 04c4 9F       		.byte	0x9f
 7510 04c5 72030000 		.4byte	.LVL458
 7511 04c9 7E030000 		.4byte	.LVL461
 7512 04cd 0300     		.2byte	0x3
 7513 04cf 75       		.byte	0x75
 7514 04d0 02       		.sleb128 2
 7515 04d1 9F       		.byte	0x9f
 7516 04d2 96030000 		.4byte	.LVL464
 7517 04d6 A6030000 		.4byte	.LVL466
 7518 04da 0300     		.2byte	0x3
 7519 04dc 75       		.byte	0x75
 7520 04dd 02       		.sleb128 2
ARM GAS  /tmp/ccrwCQMC.s 			page 133


 7521 04de 9F       		.byte	0x9f
 7522 04df A6030000 		.4byte	.LVL466
 7523 04e3 AA030000 		.4byte	.LVL468
 7524 04e7 0100     		.2byte	0x1
 7525 04e9 5E       		.byte	0x5e
 7526 04ea AA030000 		.4byte	.LVL468
 7527 04ee B4030000 		.4byte	.LFE33
 7528 04f2 0300     		.2byte	0x3
 7529 04f4 75       		.byte	0x75
 7530 04f5 02       		.sleb128 2
 7531 04f6 9F       		.byte	0x9f
 7532 04f7 00000000 		.4byte	0
 7533 04fb 00000000 		.4byte	0
 7534              	.LLST93:
 7535 04ff 2C000000 		.4byte	.LVL359
 7536 0503 3C000000 		.4byte	.LVL361
 7537 0507 0100     		.2byte	0x1
 7538 0509 57       		.byte	0x57
 7539 050a 3C000000 		.4byte	.LVL361
 7540 050e 4A000000 		.4byte	.LVL363
 7541 0512 0100     		.2byte	0x1
 7542 0514 58       		.byte	0x58
 7543 0515 60000000 		.4byte	.LVL366
 7544 0519 6E000000 		.4byte	.LVL368
 7545 051d 0100     		.2byte	0x1
 7546 051f 54       		.byte	0x54
 7547 0520 88000000 		.4byte	.LVL370
 7548 0524 C4000000 		.4byte	.LVL375
 7549 0528 0100     		.2byte	0x1
 7550 052a 58       		.byte	0x58
 7551 052b E2000000 		.4byte	.LVL377
 7552 052f E6000000 		.4byte	.LVL378
 7553 0533 0500     		.2byte	0x5
 7554 0535 74       		.byte	0x74
 7555 0536 00       		.sleb128 0
 7556 0537 4F       		.byte	0x4f
 7557 0538 1A       		.byte	0x1a
 7558 0539 9F       		.byte	0x9f
 7559 053a E6000000 		.4byte	.LVL378
 7560 053e 3E010000 		.4byte	.LVL384
 7561 0542 0100     		.2byte	0x1
 7562 0544 58       		.byte	0x58
 7563 0545 3E010000 		.4byte	.LVL384
 7564 0549 42010000 		.4byte	.LVL385
 7565 054d 0900     		.2byte	0x9
 7566 054f 77       		.byte	0x77
 7567 0550 00       		.sleb128 0
 7568 0551 71       		.byte	0x71
 7569 0552 00       		.sleb128 0
 7570 0553 1C       		.byte	0x1c
 7571 0554 78       		.byte	0x78
 7572 0555 00       		.sleb128 0
 7573 0556 22       		.byte	0x22
 7574 0557 9F       		.byte	0x9f
 7575 0558 42010000 		.4byte	.LVL385
 7576 055c 46010000 		.4byte	.LVL386
 7577 0560 0B00     		.2byte	0xb
ARM GAS  /tmp/ccrwCQMC.s 			page 134


 7578 0562 77       		.byte	0x77
 7579 0563 00       		.sleb128 0
 7580 0564 71       		.byte	0x71
 7581 0565 00       		.sleb128 0
 7582 0566 1C       		.byte	0x1c
 7583 0567 78       		.byte	0x78
 7584 0568 00       		.sleb128 0
 7585 0569 22       		.byte	0x22
 7586 056a 23       		.byte	0x23
 7587 056b 04       		.uleb128 0x4
 7588 056c 9F       		.byte	0x9f
 7589 056d 46010000 		.4byte	.LVL386
 7590 0571 4E010000 		.4byte	.LVL387
 7591 0575 0900     		.2byte	0x9
 7592 0577 77       		.byte	0x77
 7593 0578 00       		.sleb128 0
 7594 0579 71       		.byte	0x71
 7595 057a 00       		.sleb128 0
 7596 057b 1C       		.byte	0x1c
 7597 057c 78       		.byte	0x78
 7598 057d 00       		.sleb128 0
 7599 057e 22       		.byte	0x22
 7600 057f 9F       		.byte	0x9f
 7601 0580 6C010000 		.4byte	.LVL389
 7602 0584 7C010000 		.4byte	.LVL391
 7603 0588 0100     		.2byte	0x1
 7604 058a 58       		.byte	0x58
 7605 058b 84010000 		.4byte	.LVL392
 7606 058f 8A010000 		.4byte	.LVL393
 7607 0593 0400     		.2byte	0x4
 7608 0595 74       		.byte	0x74
 7609 0596 FF01     		.sleb128 255
 7610 0598 9F       		.byte	0x9f
 7611 0599 8A010000 		.4byte	.LVL393
 7612 059d 94010000 		.4byte	.LVL394
 7613 05a1 0100     		.2byte	0x1
 7614 05a3 54       		.byte	0x54
 7615 05a4 94010000 		.4byte	.LVL394
 7616 05a8 9E010000 		.4byte	.LVL397
 7617 05ac 0400     		.2byte	0x4
 7618 05ae 74       		.byte	0x74
 7619 05af FF01     		.sleb128 255
 7620 05b1 9F       		.byte	0x9f
 7621 05b2 9E010000 		.4byte	.LVL397
 7622 05b6 A0010000 		.4byte	.LVL398
 7623 05ba 0600     		.2byte	0x6
 7624 05bc 74       		.byte	0x74
 7625 05bd 00       		.sleb128 0
 7626 05be 77       		.byte	0x77
 7627 05bf 00       		.sleb128 0
 7628 05c0 22       		.byte	0x22
 7629 05c1 9F       		.byte	0x9f
 7630 05c2 C4010000 		.4byte	.LVL399
 7631 05c6 C8010000 		.4byte	.LVL400
 7632 05ca 0300     		.2byte	0x3
 7633 05cc 74       		.byte	0x74
 7634 05cd 7F       		.sleb128 -1
ARM GAS  /tmp/ccrwCQMC.s 			page 135


 7635 05ce 9F       		.byte	0x9f
 7636 05cf C8010000 		.4byte	.LVL400
 7637 05d3 E4010000 		.4byte	.LVL401
 7638 05d7 0100     		.2byte	0x1
 7639 05d9 5E       		.byte	0x5e
 7640 05da 20020000 		.4byte	.LVL409
 7641 05de 5A020000 		.4byte	.LVL418
 7642 05e2 0100     		.2byte	0x1
 7643 05e4 57       		.byte	0x57
 7644 05e5 5A020000 		.4byte	.LVL418
 7645 05e9 66020000 		.4byte	.LVL420
 7646 05ed 0100     		.2byte	0x1
 7647 05ef 54       		.byte	0x54
 7648 05f0 66020000 		.4byte	.LVL420
 7649 05f4 72020000 		.4byte	.LVL421
 7650 05f8 0800     		.2byte	0x8
 7651 05fa 70       		.byte	0x70
 7652 05fb 00       		.sleb128 0
 7653 05fc 94       		.byte	0x94
 7654 05fd 01       		.byte	0x1
 7655 05fe 08       		.byte	0x8
 7656 05ff FF       		.byte	0xff
 7657 0600 1A       		.byte	0x1a
 7658 0601 9F       		.byte	0x9f
 7659 0602 72020000 		.4byte	.LVL421
 7660 0606 88020000 		.4byte	.LVL423
 7661 060a 0800     		.2byte	0x8
 7662 060c 70       		.byte	0x70
 7663 060d 7E       		.sleb128 -2
 7664 060e 94       		.byte	0x94
 7665 060f 01       		.byte	0x1
 7666 0610 08       		.byte	0x8
 7667 0611 FF       		.byte	0xff
 7668 0612 1A       		.byte	0x1a
 7669 0613 9F       		.byte	0x9f
 7670 0614 96020000 		.4byte	.LVL426
 7671 0618 9A020000 		.4byte	.LVL427
 7672 061c 0500     		.2byte	0x5
 7673 061e 77       		.byte	0x77
 7674 061f 00       		.sleb128 0
 7675 0620 33       		.byte	0x33
 7676 0621 1A       		.byte	0x1a
 7677 0622 9F       		.byte	0x9f
 7678 0623 9A020000 		.4byte	.LVL427
 7679 0627 A0020000 		.4byte	.LVL428
 7680 062b 0100     		.2byte	0x1
 7681 062d 57       		.byte	0x57
 7682 062e A0020000 		.4byte	.LVL428
 7683 0632 A4020000 		.4byte	.LVL429
 7684 0636 0400     		.2byte	0x4
 7685 0638 78       		.byte	0x78
 7686 0639 FF01     		.sleb128 255
 7687 063b 9F       		.byte	0x9f
 7688 063c A4020000 		.4byte	.LVL429
 7689 0640 AE020000 		.4byte	.LVL430
 7690 0644 0100     		.2byte	0x1
 7691 0646 58       		.byte	0x58
ARM GAS  /tmp/ccrwCQMC.s 			page 136


 7692 0647 AE020000 		.4byte	.LVL430
 7693 064b BA020000 		.4byte	.LVL433
 7694 064f 0400     		.2byte	0x4
 7695 0651 78       		.byte	0x78
 7696 0652 FF01     		.sleb128 255
 7697 0654 9F       		.byte	0x9f
 7698 0655 BA020000 		.4byte	.LVL433
 7699 0659 BE020000 		.4byte	.LVL434
 7700 065d 0600     		.2byte	0x6
 7701 065f 78       		.byte	0x78
 7702 0660 00       		.sleb128 0
 7703 0661 70       		.byte	0x70
 7704 0662 00       		.sleb128 0
 7705 0663 22       		.byte	0x22
 7706 0664 9F       		.byte	0x9f
 7707 0665 BE020000 		.4byte	.LVL434
 7708 0669 C2020000 		.4byte	.LVL435
 7709 066d 0100     		.2byte	0x1
 7710 066f 58       		.byte	0x58
 7711 0670 CE020000 		.4byte	.LVL436
 7712 0674 D2020000 		.4byte	.LVL437
 7713 0678 0100     		.2byte	0x1
 7714 067a 5E       		.byte	0x5e
 7715 067b D2020000 		.4byte	.LVL437
 7716 067f EE020000 		.4byte	.LVL443
 7717 0683 0100     		.2byte	0x1
 7718 0685 57       		.byte	0x57
 7719 0686 20030000 		.4byte	.LVL447
 7720 068a 26030000 		.4byte	.LVL448
 7721 068e 0100     		.2byte	0x1
 7722 0690 5E       		.byte	0x5e
 7723 0691 3A030000 		.4byte	.LVL450
 7724 0695 3E030000 		.4byte	.LVL451
 7725 0699 0500     		.2byte	0x5
 7726 069b 74       		.byte	0x74
 7727 069c 00       		.sleb128 0
 7728 069d 37       		.byte	0x37
 7729 069e 1A       		.byte	0x1a
 7730 069f 9F       		.byte	0x9f
 7731 06a0 3E030000 		.4byte	.LVL451
 7732 06a4 5C030000 		.4byte	.LVL454
 7733 06a8 0100     		.2byte	0x1
 7734 06aa 58       		.byte	0x58
 7735 06ab 5C030000 		.4byte	.LVL454
 7736 06af 60030000 		.4byte	.LVL455
 7737 06b3 0400     		.2byte	0x4
 7738 06b5 78       		.byte	0x78
 7739 06b6 FF01     		.sleb128 255
 7740 06b8 9F       		.byte	0x9f
 7741 06b9 60030000 		.4byte	.LVL455
 7742 06bd 6A030000 		.4byte	.LVL456
 7743 06c1 0100     		.2byte	0x1
 7744 06c3 58       		.byte	0x58
 7745 06c4 6A030000 		.4byte	.LVL456
 7746 06c8 76030000 		.4byte	.LVL459
 7747 06cc 0400     		.2byte	0x4
 7748 06ce 78       		.byte	0x78
ARM GAS  /tmp/ccrwCQMC.s 			page 137


 7749 06cf FF01     		.sleb128 255
 7750 06d1 9F       		.byte	0x9f
 7751 06d2 76030000 		.4byte	.LVL459
 7752 06d6 7A030000 		.4byte	.LVL460
 7753 06da 0600     		.2byte	0x6
 7754 06dc 78       		.byte	0x78
 7755 06dd 00       		.sleb128 0
 7756 06de 70       		.byte	0x70
 7757 06df 00       		.sleb128 0
 7758 06e0 22       		.byte	0x22
 7759 06e1 9F       		.byte	0x9f
 7760 06e2 7A030000 		.4byte	.LVL460
 7761 06e6 7E030000 		.4byte	.LVL461
 7762 06ea 0100     		.2byte	0x1
 7763 06ec 58       		.byte	0x58
 7764 06ed 96030000 		.4byte	.LVL464
 7765 06f1 A6030000 		.4byte	.LVL466
 7766 06f5 0100     		.2byte	0x1
 7767 06f7 58       		.byte	0x58
 7768 06f8 A6030000 		.4byte	.LVL466
 7769 06fc AA030000 		.4byte	.LVL468
 7770 0700 0100     		.2byte	0x1
 7771 0702 57       		.byte	0x57
 7772 0703 AA030000 		.4byte	.LVL468
 7773 0707 B4030000 		.4byte	.LFE33
 7774 070b 0100     		.2byte	0x1
 7775 070d 58       		.byte	0x58
 7776 070e 00000000 		.4byte	0
 7777 0712 00000000 		.4byte	0
 7778              	.LLST94:
 7779 0716 AA000000 		.4byte	.LVL372
 7780 071a B8000000 		.4byte	.LVL374
 7781 071e 0100     		.2byte	0x1
 7782 0720 55       		.byte	0x55
 7783 0721 B8000000 		.4byte	.LVL374
 7784 0725 C4000000 		.4byte	.LVL375
 7785 0729 0300     		.2byte	0x3
 7786 072b 75       		.byte	0x75
 7787 072c 7F       		.sleb128 -1
 7788 072d 9F       		.byte	0x9f
 7789 072e EA000000 		.4byte	.LVL379
 7790 0732 F6000000 		.4byte	.LVL380
 7791 0736 0300     		.2byte	0x3
 7792 0738 71       		.byte	0x71
 7793 0739 7F       		.sleb128 -1
 7794 073a 9F       		.byte	0x9f
 7795 073b F6000000 		.4byte	.LVL380
 7796 073f 22010000 		.4byte	.LVL381
 7797 0743 0100     		.2byte	0x1
 7798 0745 57       		.byte	0x57
 7799 0746 22010000 		.4byte	.LVL381
 7800 074a 26010000 		.4byte	.LVL382
 7801 074e 0300     		.2byte	0x3
 7802 0750 77       		.byte	0x77
 7803 0751 7C       		.sleb128 -4
 7804 0752 9F       		.byte	0x9f
 7805 0753 26010000 		.4byte	.LVL382
ARM GAS  /tmp/ccrwCQMC.s 			page 138


 7806 0757 3E010000 		.4byte	.LVL384
 7807 075b 0100     		.2byte	0x1
 7808 075d 57       		.byte	0x57
 7809 075e 3E010000 		.4byte	.LVL384
 7810 0762 42010000 		.4byte	.LVL385
 7811 0766 0100     		.2byte	0x1
 7812 0768 51       		.byte	0x51
 7813 0769 42010000 		.4byte	.LVL385
 7814 076d 46010000 		.4byte	.LVL386
 7815 0771 0300     		.2byte	0x3
 7816 0773 71       		.byte	0x71
 7817 0774 7C       		.sleb128 -4
 7818 0775 9F       		.byte	0x9f
 7819 0776 46010000 		.4byte	.LVL386
 7820 077a 4E010000 		.4byte	.LVL387
 7821 077e 0100     		.2byte	0x1
 7822 0780 51       		.byte	0x51
 7823 0781 6C010000 		.4byte	.LVL389
 7824 0785 70010000 		.4byte	.LVL390
 7825 0789 0100     		.2byte	0x1
 7826 078b 51       		.byte	0x51
 7827 078c 70010000 		.4byte	.LVL390
 7828 0790 7C010000 		.4byte	.LVL391
 7829 0794 0300     		.2byte	0x3
 7830 0796 71       		.byte	0x71
 7831 0797 7F       		.sleb128 -1
 7832 0798 9F       		.byte	0x9f
 7833 0799 5C020000 		.4byte	.LVL419
 7834 079d 66020000 		.4byte	.LVL420
 7835 07a1 0C00     		.2byte	0xc
 7836 07a3 71       		.byte	0x71
 7837 07a4 00       		.sleb128 0
 7838 07a5 74       		.byte	0x74
 7839 07a6 00       		.sleb128 0
 7840 07a7 32       		.byte	0x32
 7841 07a8 25       		.byte	0x25
 7842 07a9 1C       		.byte	0x1c
 7843 07aa 0A       		.byte	0xa
 7844 07ab 0108     		.2byte	0x801
 7845 07ad 1C       		.byte	0x1c
 7846 07ae 9F       		.byte	0x9f
 7847 07af 66020000 		.4byte	.LVL420
 7848 07b3 72020000 		.4byte	.LVL421
 7849 07b7 1100     		.2byte	0x11
 7850 07b9 71       		.byte	0x71
 7851 07ba 00       		.sleb128 0
 7852 07bb 70       		.byte	0x70
 7853 07bc 00       		.sleb128 0
 7854 07bd 94       		.byte	0x94
 7855 07be 01       		.byte	0x1
 7856 07bf 08       		.byte	0x8
 7857 07c0 FF       		.byte	0xff
 7858 07c1 1A       		.byte	0x1a
 7859 07c2 32       		.byte	0x32
 7860 07c3 25       		.byte	0x25
 7861 07c4 1C       		.byte	0x1c
 7862 07c5 0A       		.byte	0xa
ARM GAS  /tmp/ccrwCQMC.s 			page 139


 7863 07c6 0108     		.2byte	0x801
 7864 07c8 1C       		.byte	0x1c
 7865 07c9 9F       		.byte	0x9f
 7866 07ca 72020000 		.4byte	.LVL421
 7867 07ce 84020000 		.4byte	.LVL422
 7868 07d2 0100     		.2byte	0x1
 7869 07d4 54       		.byte	0x54
 7870 07d5 84020000 		.4byte	.LVL422
 7871 07d9 88020000 		.4byte	.LVL423
 7872 07dd 0300     		.2byte	0x3
 7873 07df 74       		.byte	0x74
 7874 07e0 01       		.sleb128 1
 7875 07e1 9F       		.byte	0x9f
 7876 07e2 88020000 		.4byte	.LVL423
 7877 07e6 8E020000 		.4byte	.LVL424
 7878 07ea 0300     		.2byte	0x3
 7879 07ec 74       		.byte	0x74
 7880 07ed 02       		.sleb128 2
 7881 07ee 9F       		.byte	0x9f
 7882 07ef 04030000 		.4byte	.LVL444
 7883 07f3 12030000 		.4byte	.LVL445
 7884 07f7 0100     		.2byte	0x1
 7885 07f9 57       		.byte	0x57
 7886 07fa 12030000 		.4byte	.LVL445
 7887 07fe 20030000 		.4byte	.LVL447
 7888 0802 0300     		.2byte	0x3
 7889 0804 77       		.byte	0x77
 7890 0805 01       		.sleb128 1
 7891 0806 9F       		.byte	0x9f
 7892 0807 52030000 		.4byte	.LVL452
 7893 080b 5C030000 		.4byte	.LVL454
 7894 080f 0100     		.2byte	0x1
 7895 0811 57       		.byte	0x57
 7896 0812 96030000 		.4byte	.LVL464
 7897 0816 A6030000 		.4byte	.LVL466
 7898 081a 0100     		.2byte	0x1
 7899 081c 57       		.byte	0x57
 7900 081d AA030000 		.4byte	.LVL468
 7901 0821 B4030000 		.4byte	.LFE33
 7902 0825 0100     		.2byte	0x1
 7903 0827 57       		.byte	0x57
 7904 0828 00000000 		.4byte	0
 7905 082c 00000000 		.4byte	0
 7906              	.LLST80:
 7907 0830 00000000 		.4byte	.LVL249
 7908 0834 F2020000 		.4byte	.LVL350
 7909 0838 0100     		.2byte	0x1
 7910 083a 50       		.byte	0x50
 7911 083b F2020000 		.4byte	.LVL350
 7912 083f F6020000 		.4byte	.LVL351
 7913 0843 0400     		.2byte	0x4
 7914 0845 F3       		.byte	0xf3
 7915 0846 01       		.uleb128 0x1
 7916 0847 50       		.byte	0x50
 7917 0848 9F       		.byte	0x9f
 7918 0849 F6020000 		.4byte	.LVL351
 7919 084d FA020000 		.4byte	.LVL352
ARM GAS  /tmp/ccrwCQMC.s 			page 140


 7920 0851 0100     		.2byte	0x1
 7921 0853 50       		.byte	0x50
 7922 0854 FA020000 		.4byte	.LVL352
 7923 0858 FC020000 		.4byte	.LVL353
 7924 085c 0400     		.2byte	0x4
 7925 085e F3       		.byte	0xf3
 7926 085f 01       		.uleb128 0x1
 7927 0860 50       		.byte	0x50
 7928 0861 9F       		.byte	0x9f
 7929 0862 FC020000 		.4byte	.LVL353
 7930 0866 FE020000 		.4byte	.LVL354
 7931 086a 0100     		.2byte	0x1
 7932 086c 50       		.byte	0x50
 7933 086d FE020000 		.4byte	.LVL354
 7934 0871 00030000 		.4byte	.LFE32
 7935 0875 0400     		.2byte	0x4
 7936 0877 F3       		.byte	0xf3
 7937 0878 01       		.uleb128 0x1
 7938 0879 50       		.byte	0x50
 7939 087a 9F       		.byte	0x9f
 7940 087b 00000000 		.4byte	0
 7941 087f 00000000 		.4byte	0
 7942              	.LLST81:
 7943 0883 00000000 		.4byte	.LVL249
 7944 0887 E4020000 		.4byte	.LVL348
 7945 088b 0100     		.2byte	0x1
 7946 088d 51       		.byte	0x51
 7947 088e E4020000 		.4byte	.LVL348
 7948 0892 00030000 		.4byte	.LFE32
 7949 0896 0400     		.2byte	0x4
 7950 0898 F3       		.byte	0xf3
 7951 0899 01       		.uleb128 0x1
 7952 089a 51       		.byte	0x51
 7953 089b 9F       		.byte	0x9f
 7954 089c 00000000 		.4byte	0
 7955 08a0 00000000 		.4byte	0
 7956              	.LLST82:
 7957 08a4 00000000 		.4byte	.LVL249
 7958 08a8 F6020000 		.4byte	.LVL351
 7959 08ac 0200     		.2byte	0x2
 7960 08ae 91       		.byte	0x91
 7961 08af 00       		.sleb128 0
 7962 08b0 F6020000 		.4byte	.LVL351
 7963 08b4 00030000 		.4byte	.LFE32
 7964 08b8 0200     		.2byte	0x2
 7965 08ba 91       		.byte	0x91
 7966 08bb 00       		.sleb128 0
 7967 08bc 00000000 		.4byte	0
 7968 08c0 00000000 		.4byte	0
 7969              	.LLST83:
 7970 08c4 0E000000 		.4byte	.LVL250
 7971 08c8 30000000 		.4byte	.LVL253
 7972 08cc 0100     		.2byte	0x1
 7973 08ce 52       		.byte	0x52
 7974 08cf 30000000 		.4byte	.LVL253
 7975 08d3 34000000 		.4byte	.LVL254
 7976 08d7 0300     		.2byte	0x3
ARM GAS  /tmp/ccrwCQMC.s 			page 141


 7977 08d9 7E       		.byte	0x7e
 7978 08da 01       		.sleb128 1
 7979 08db 9F       		.byte	0x9f
 7980 08dc 34000000 		.4byte	.LVL254
 7981 08e0 38000000 		.4byte	.LVL255
 7982 08e4 0300     		.2byte	0x3
 7983 08e6 7E       		.byte	0x7e
 7984 08e7 02       		.sleb128 2
 7985 08e8 9F       		.byte	0x9f
 7986 08e9 38000000 		.4byte	.LVL255
 7987 08ed 42000000 		.4byte	.LVL256
 7988 08f1 0300     		.2byte	0x3
 7989 08f3 7E       		.byte	0x7e
 7990 08f4 01       		.sleb128 1
 7991 08f5 9F       		.byte	0x9f
 7992 08f6 42000000 		.4byte	.LVL256
 7993 08fa 6A000000 		.4byte	.LVL261
 7994 08fe 0100     		.2byte	0x1
 7995 0900 55       		.byte	0x55
 7996 0901 6A000000 		.4byte	.LVL261
 7997 0905 6E000000 		.4byte	.LVL262
 7998 0909 0300     		.2byte	0x3
 7999 090b 75       		.byte	0x75
 8000 090c 02       		.sleb128 2
 8001 090d 9F       		.byte	0x9f
 8002 090e 6E000000 		.4byte	.LVL262
 8003 0912 82000000 		.4byte	.LVL266
 8004 0916 0100     		.2byte	0x1
 8005 0918 58       		.byte	0x58
 8006 0919 82000000 		.4byte	.LVL266
 8007 091d A2000000 		.4byte	.LVL268
 8008 0921 0100     		.2byte	0x1
 8009 0923 55       		.byte	0x55
 8010 0924 A2000000 		.4byte	.LVL268
 8011 0928 AE000000 		.4byte	.LVL269
 8012 092c 0300     		.2byte	0x3
 8013 092e 75       		.byte	0x75
 8014 092f 01       		.sleb128 1
 8015 0930 9F       		.byte	0x9f
 8016 0931 AE000000 		.4byte	.LVL269
 8017 0935 BA000000 		.4byte	.LVL270
 8018 0939 0100     		.2byte	0x1
 8019 093b 58       		.byte	0x58
 8020 093c D2000000 		.4byte	.LVL273
 8021 0940 E4000000 		.4byte	.LVL275
 8022 0944 0100     		.2byte	0x1
 8023 0946 58       		.byte	0x58
 8024 0947 E4000000 		.4byte	.LVL275
 8025 094b E6000000 		.4byte	.LVL276
 8026 094f 0300     		.2byte	0x3
 8027 0951 78       		.byte	0x78
 8028 0952 01       		.sleb128 1
 8029 0953 9F       		.byte	0x9f
 8030 0954 E6000000 		.4byte	.LVL276
 8031 0958 FA000000 		.4byte	.LVL277
 8032 095c 0300     		.2byte	0x3
 8033 095e 78       		.byte	0x78
ARM GAS  /tmp/ccrwCQMC.s 			page 142


 8034 095f 02       		.sleb128 2
 8035 0960 9F       		.byte	0x9f
 8036 0961 FA000000 		.4byte	.LVL277
 8037 0965 08010000 		.4byte	.LVL279
 8038 0969 0100     		.2byte	0x1
 8039 096b 55       		.byte	0x55
 8040 096c 08010000 		.4byte	.LVL279
 8041 0970 0E010000 		.4byte	.LVL280
 8042 0974 0100     		.2byte	0x1
 8043 0976 52       		.byte	0x52
 8044 0977 0E010000 		.4byte	.LVL280
 8045 097b 34010000 		.4byte	.LVL287
 8046 097f 0100     		.2byte	0x1
 8047 0981 55       		.byte	0x55
 8048 0982 34010000 		.4byte	.LVL287
 8049 0986 52010000 		.4byte	.LVL289
 8050 098a 0100     		.2byte	0x1
 8051 098c 5E       		.byte	0x5e
 8052 098d 52010000 		.4byte	.LVL289
 8053 0991 60010000 		.4byte	.LVL292
 8054 0995 0100     		.2byte	0x1
 8055 0997 57       		.byte	0x57
 8056 0998 7E010000 		.4byte	.LVL293
 8057 099c 9A010000 		.4byte	.LVL297
 8058 09a0 0100     		.2byte	0x1
 8059 09a2 55       		.byte	0x55
 8060 09a3 9A010000 		.4byte	.LVL297
 8061 09a7 9C010000 		.4byte	.LVL298
 8062 09ab 0600     		.2byte	0x6
 8063 09ad 75       		.byte	0x75
 8064 09ae 00       		.sleb128 0
 8065 09af 78       		.byte	0x78
 8066 09b0 00       		.sleb128 0
 8067 09b1 22       		.byte	0x22
 8068 09b2 9F       		.byte	0x9f
 8069 09b3 9C010000 		.4byte	.LVL298
 8070 09b7 A0010000 		.4byte	.LVL299
 8071 09bb 0100     		.2byte	0x1
 8072 09bd 55       		.byte	0x55
 8073 09be A0010000 		.4byte	.LVL299
 8074 09c2 A2010000 		.4byte	.LVL300
 8075 09c6 0100     		.2byte	0x1
 8076 09c8 52       		.byte	0x52
 8077 09c9 A2010000 		.4byte	.LVL300
 8078 09cd AE010000 		.4byte	.LVL301
 8079 09d1 0300     		.2byte	0x3
 8080 09d3 78       		.byte	0x78
 8081 09d4 01       		.sleb128 1
 8082 09d5 9F       		.byte	0x9f
 8083 09d6 B4010000 		.4byte	.LVL302
 8084 09da BA010000 		.4byte	.LVL304
 8085 09de 0100     		.2byte	0x1
 8086 09e0 5E       		.byte	0x5e
 8087 09e1 BA010000 		.4byte	.LVL304
 8088 09e5 FE010000 		.4byte	.LVL314
 8089 09e9 0100     		.2byte	0x1
 8090 09eb 55       		.byte	0x55
ARM GAS  /tmp/ccrwCQMC.s 			page 143


 8091 09ec FE010000 		.4byte	.LVL314
 8092 09f0 14020000 		.4byte	.LVL316
 8093 09f4 0100     		.2byte	0x1
 8094 09f6 58       		.byte	0x58
 8095 09f7 14020000 		.4byte	.LVL316
 8096 09fb 24020000 		.4byte	.LVL319
 8097 09ff 0100     		.2byte	0x1
 8098 0a01 56       		.byte	0x56
 8099 0a02 52020000 		.4byte	.LVL323
 8100 0a06 60020000 		.4byte	.LVL325
 8101 0a0a 0300     		.2byte	0x3
 8102 0a0c 78       		.byte	0x78
 8103 0a0d 02       		.sleb128 2
 8104 0a0e 9F       		.byte	0x9f
 8105 0a0f 60020000 		.4byte	.LVL325
 8106 0a13 62020000 		.4byte	.LVL326
 8107 0a17 0100     		.2byte	0x1
 8108 0a19 55       		.byte	0x55
 8109 0a1a 62020000 		.4byte	.LVL326
 8110 0a1e 6C020000 		.4byte	.LVL328
 8111 0a22 0100     		.2byte	0x1
 8112 0a24 5E       		.byte	0x5e
 8113 0a25 6C020000 		.4byte	.LVL328
 8114 0a29 70020000 		.4byte	.LVL329
 8115 0a2d 0900     		.2byte	0x9
 8116 0a2f 7E       		.byte	0x7e
 8117 0a30 00       		.sleb128 0
 8118 0a31 76       		.byte	0x76
 8119 0a32 00       		.sleb128 0
 8120 0a33 1C       		.byte	0x1c
 8121 0a34 7C       		.byte	0x7c
 8122 0a35 00       		.sleb128 0
 8123 0a36 22       		.byte	0x22
 8124 0a37 9F       		.byte	0x9f
 8125 0a38 70020000 		.4byte	.LVL329
 8126 0a3c 78020000 		.4byte	.LVL330
 8127 0a40 0A00     		.2byte	0xa
 8128 0a42 76       		.byte	0x76
 8129 0a43 00       		.sleb128 0
 8130 0a44 20       		.byte	0x20
 8131 0a45 7C       		.byte	0x7c
 8132 0a46 00       		.sleb128 0
 8133 0a47 22       		.byte	0x22
 8134 0a48 7E       		.byte	0x7e
 8135 0a49 00       		.sleb128 0
 8136 0a4a 22       		.byte	0x22
 8137 0a4b 9F       		.byte	0x9f
 8138 0a4c 78020000 		.4byte	.LVL330
 8139 0a50 7E020000 		.4byte	.LVL331
 8140 0a54 0E00     		.2byte	0xe
 8141 0a56 7C       		.byte	0x7c
 8142 0a57 00       		.sleb128 0
 8143 0a58 76       		.byte	0x76
 8144 0a59 00       		.sleb128 0
 8145 0a5a 1C       		.byte	0x1c
 8146 0a5b 7E       		.byte	0x7e
 8147 0a5c 00       		.sleb128 0
ARM GAS  /tmp/ccrwCQMC.s 			page 144


 8148 0a5d 22       		.byte	0x22
 8149 0a5e 78       		.byte	0x78
 8150 0a5f 00       		.sleb128 0
 8151 0a60 22       		.byte	0x22
 8152 0a61 23       		.byte	0x23
 8153 0a62 03       		.uleb128 0x3
 8154 0a63 9F       		.byte	0x9f
 8155 0a64 82020000 		.4byte	.LVL332
 8156 0a68 C0020000 		.4byte	.LVL343
 8157 0a6c 0100     		.2byte	0x1
 8158 0a6e 55       		.byte	0x55
 8159 0a6f C4020000 		.4byte	.LVL344
 8160 0a73 DC020000 		.4byte	.LVL345
 8161 0a77 0100     		.2byte	0x1
 8162 0a79 55       		.byte	0x55
 8163 0a7a DC020000 		.4byte	.LVL345
 8164 0a7e E2020000 		.4byte	.LVL347
 8165 0a82 0100     		.2byte	0x1
 8166 0a84 58       		.byte	0x58
 8167 0a85 E2020000 		.4byte	.LVL347
 8168 0a89 E6020000 		.4byte	.LVL349
 8169 0a8d 0100     		.2byte	0x1
 8170 0a8f 55       		.byte	0x55
 8171 0a90 00000000 		.4byte	0
 8172 0a94 00000000 		.4byte	0
 8173              	.LLST84:
 8174 0a98 0E000000 		.4byte	.LVL250
 8175 0a9c 12000000 		.4byte	.LVL251
 8176 0aa0 0100     		.2byte	0x1
 8177 0aa2 50       		.byte	0x50
 8178 0aa3 12000000 		.4byte	.LVL251
 8179 0aa7 30000000 		.4byte	.LVL253
 8180 0aab 0100     		.2byte	0x1
 8181 0aad 57       		.byte	0x57
 8182 0aae 6A000000 		.4byte	.LVL261
 8183 0ab2 82000000 		.4byte	.LVL266
 8184 0ab6 0100     		.2byte	0x1
 8185 0ab8 5E       		.byte	0x5e
 8186 0ab9 82000000 		.4byte	.LVL266
 8187 0abd 84000000 		.4byte	.LVL267
 8188 0ac1 0300     		.2byte	0x3
 8189 0ac3 7E       		.byte	0x7e
 8190 0ac4 01       		.sleb128 1
 8191 0ac5 9F       		.byte	0x9f
 8192 0ac6 A2000000 		.4byte	.LVL268
 8193 0aca D2000000 		.4byte	.LVL273
 8194 0ace 0100     		.2byte	0x1
 8195 0ad0 5E       		.byte	0x5e
 8196 0ad1 D2000000 		.4byte	.LVL273
 8197 0ad5 D6000000 		.4byte	.LVL274
 8198 0ad9 0100     		.2byte	0x1
 8199 0adb 57       		.byte	0x57
 8200 0adc D6000000 		.4byte	.LVL274
 8201 0ae0 E4000000 		.4byte	.LVL275
 8202 0ae4 0100     		.2byte	0x1
 8203 0ae6 5E       		.byte	0x5e
 8204 0ae7 E4000000 		.4byte	.LVL275
ARM GAS  /tmp/ccrwCQMC.s 			page 145


 8205 0aeb E6000000 		.4byte	.LVL276
 8206 0aef 0300     		.2byte	0x3
 8207 0af1 77       		.byte	0x77
 8208 0af2 01       		.sleb128 1
 8209 0af3 9F       		.byte	0x9f
 8210 0af4 E6000000 		.4byte	.LVL276
 8211 0af8 FA000000 		.4byte	.LVL277
 8212 0afc 0300     		.2byte	0x3
 8213 0afe 77       		.byte	0x77
 8214 0aff 02       		.sleb128 2
 8215 0b00 9F       		.byte	0x9f
 8216 0b01 FA000000 		.4byte	.LVL277
 8217 0b05 04010000 		.4byte	.LVL278
 8218 0b09 0100     		.2byte	0x1
 8219 0b0b 59       		.byte	0x59
 8220 0b0c 04010000 		.4byte	.LVL278
 8221 0b10 08010000 		.4byte	.LVL279
 8222 0b14 0100     		.2byte	0x1
 8223 0b16 57       		.byte	0x57
 8224 0b17 08010000 		.4byte	.LVL279
 8225 0b1b 0E010000 		.4byte	.LVL280
 8226 0b1f 0100     		.2byte	0x1
 8227 0b21 50       		.byte	0x50
 8228 0b22 0E010000 		.4byte	.LVL280
 8229 0b26 10010000 		.4byte	.LVL281
 8230 0b2a 0300     		.2byte	0x3
 8231 0b2c 7E       		.byte	0x7e
 8232 0b2d 01       		.sleb128 1
 8233 0b2e 9F       		.byte	0x9f
 8234 0b2f 28010000 		.4byte	.LVL286
 8235 0b33 34010000 		.4byte	.LVL287
 8236 0b37 0100     		.2byte	0x1
 8237 0b39 57       		.byte	0x57
 8238 0b3a 34010000 		.4byte	.LVL287
 8239 0b3e 52010000 		.4byte	.LVL289
 8240 0b42 0300     		.2byte	0x3
 8241 0b44 77       		.byte	0x77
 8242 0b45 04       		.sleb128 4
 8243 0b46 9F       		.byte	0x9f
 8244 0b47 52010000 		.4byte	.LVL289
 8245 0b4b 56010000 		.4byte	.LVL290
 8246 0b4f 0100     		.2byte	0x1
 8247 0b51 5C       		.byte	0x5c
 8248 0b52 56010000 		.4byte	.LVL290
 8249 0b56 5A010000 		.4byte	.LVL291
 8250 0b5a 0300     		.2byte	0x3
 8251 0b5c 7C       		.byte	0x7c
 8252 0b5d 7C       		.sleb128 -4
 8253 0b5e 9F       		.byte	0x9f
 8254 0b5f 5A010000 		.4byte	.LVL291
 8255 0b63 7E010000 		.4byte	.LVL293
 8256 0b67 0100     		.2byte	0x1
 8257 0b69 5C       		.byte	0x5c
 8258 0b6a 7E010000 		.4byte	.LVL293
 8259 0b6e 82010000 		.4byte	.LVL294
 8260 0b72 0300     		.2byte	0x3
 8261 0b74 76       		.byte	0x76
ARM GAS  /tmp/ccrwCQMC.s 			page 146


 8262 0b75 01       		.sleb128 1
 8263 0b76 9F       		.byte	0x9f
 8264 0b77 82010000 		.4byte	.LVL294
 8265 0b7b 8E010000 		.4byte	.LVL295
 8266 0b7f 0100     		.2byte	0x1
 8267 0b81 56       		.byte	0x56
 8268 0b82 8E010000 		.4byte	.LVL295
 8269 0b86 92010000 		.4byte	.LVL296
 8270 0b8a 0300     		.2byte	0x3
 8271 0b8c 77       		.byte	0x77
 8272 0b8d 01       		.sleb128 1
 8273 0b8e 9F       		.byte	0x9f
 8274 0b8f 92010000 		.4byte	.LVL296
 8275 0b93 A0010000 		.4byte	.LVL299
 8276 0b97 0100     		.2byte	0x1
 8277 0b99 56       		.byte	0x56
 8278 0b9a A0010000 		.4byte	.LVL299
 8279 0b9e AE010000 		.4byte	.LVL301
 8280 0ba2 0300     		.2byte	0x3
 8281 0ba4 77       		.byte	0x77
 8282 0ba5 01       		.sleb128 1
 8283 0ba6 9F       		.byte	0x9f
 8284 0ba7 B4010000 		.4byte	.LVL302
 8285 0bab B6010000 		.4byte	.LVL303
 8286 0baf 0300     		.2byte	0x3
 8287 0bb1 77       		.byte	0x77
 8288 0bb2 09       		.sleb128 9
 8289 0bb3 9F       		.byte	0x9f
 8290 0bb4 B6010000 		.4byte	.LVL303
 8291 0bb8 BA010000 		.4byte	.LVL304
 8292 0bbc 0300     		.2byte	0x3
 8293 0bbe 77       		.byte	0x77
 8294 0bbf 04       		.sleb128 4
 8295 0bc0 9F       		.byte	0x9f
 8296 0bc1 D2010000 		.4byte	.LVL310
 8297 0bc5 D8010000 		.4byte	.LVL311
 8298 0bc9 0300     		.2byte	0x3
 8299 0bcb 77       		.byte	0x77
 8300 0bcc 01       		.sleb128 1
 8301 0bcd 9F       		.byte	0x9f
 8302 0bce E4010000 		.4byte	.LVL312
 8303 0bd2 52020000 		.4byte	.LVL323
 8304 0bd6 0100     		.2byte	0x1
 8305 0bd8 5E       		.byte	0x5e
 8306 0bd9 52020000 		.4byte	.LVL323
 8307 0bdd 5C020000 		.4byte	.LVL324
 8308 0be1 0300     		.2byte	0x3
 8309 0be3 77       		.byte	0x77
 8310 0be4 02       		.sleb128 2
 8311 0be5 9F       		.byte	0x9f
 8312 0be6 5C020000 		.4byte	.LVL324
 8313 0bea 62020000 		.4byte	.LVL326
 8314 0bee 0100     		.2byte	0x1
 8315 0bf0 59       		.byte	0x59
 8316 0bf1 62020000 		.4byte	.LVL326
 8317 0bf5 68020000 		.4byte	.LVL327
 8318 0bf9 0300     		.2byte	0x3
ARM GAS  /tmp/ccrwCQMC.s 			page 147


 8319 0bfb 77       		.byte	0x77
 8320 0bfc 04       		.sleb128 4
 8321 0bfd 9F       		.byte	0x9f
 8322 0bfe 68020000 		.4byte	.LVL327
 8323 0c02 6C020000 		.4byte	.LVL328
 8324 0c06 0100     		.2byte	0x1
 8325 0c08 56       		.byte	0x56
 8326 0c09 6C020000 		.4byte	.LVL328
 8327 0c0d 70020000 		.4byte	.LVL329
 8328 0c11 0100     		.2byte	0x1
 8329 0c13 5C       		.byte	0x5c
 8330 0c14 70020000 		.4byte	.LVL329
 8331 0c18 82020000 		.4byte	.LVL332
 8332 0c1c 0300     		.2byte	0x3
 8333 0c1e 7C       		.byte	0x7c
 8334 0c1f 7F       		.sleb128 -1
 8335 0c20 9F       		.byte	0x9f
 8336 0c21 A2020000 		.4byte	.LVL338
 8337 0c25 A8020000 		.4byte	.LVL339
 8338 0c29 0300     		.2byte	0x3
 8339 0c2b 77       		.byte	0x77
 8340 0c2c 01       		.sleb128 1
 8341 0c2d 9F       		.byte	0x9f
 8342 0c2e B6020000 		.4byte	.LVL341
 8343 0c32 C0020000 		.4byte	.LVL343
 8344 0c36 0100     		.2byte	0x1
 8345 0c38 5E       		.byte	0x5e
 8346 0c39 C0020000 		.4byte	.LVL343
 8347 0c3d C4020000 		.4byte	.LVL344
 8348 0c41 0100     		.2byte	0x1
 8349 0c43 5C       		.byte	0x5c
 8350 0c44 DC020000 		.4byte	.LVL345
 8351 0c48 00030000 		.4byte	.LFE32
 8352 0c4c 0100     		.2byte	0x1
 8353 0c4e 5E       		.byte	0x5e
 8354 0c4f 00000000 		.4byte	0
 8355 0c53 00000000 		.4byte	0
 8356              	.LLST85:
 8357 0c57 1A000000 		.4byte	.LVL252
 8358 0c5b 30000000 		.4byte	.LVL253
 8359 0c5f 0100     		.2byte	0x1
 8360 0c61 55       		.byte	0x55
 8361 0c62 44000000 		.4byte	.LVL257
 8362 0c66 54000000 		.4byte	.LVL259
 8363 0c6a 0100     		.2byte	0x1
 8364 0c6c 54       		.byte	0x54
 8365 0c6d 54000000 		.4byte	.LVL259
 8366 0c71 5E000000 		.4byte	.LVL260
 8367 0c75 0800     		.2byte	0x8
 8368 0c77 76       		.byte	0x76
 8369 0c78 00       		.sleb128 0
 8370 0c79 94       		.byte	0x94
 8371 0c7a 01       		.byte	0x1
 8372 0c7b 08       		.byte	0x8
 8373 0c7c FF       		.byte	0xff
 8374 0c7d 1A       		.byte	0x1a
 8375 0c7e 9F       		.byte	0x9f
ARM GAS  /tmp/ccrwCQMC.s 			page 148


 8376 0c7f 72000000 		.4byte	.LVL263
 8377 0c83 78000000 		.4byte	.LVL264
 8378 0c87 0500     		.2byte	0x5
 8379 0c89 76       		.byte	0x76
 8380 0c8a 00       		.sleb128 0
 8381 0c8b 33       		.byte	0x33
 8382 0c8c 1A       		.byte	0x1a
 8383 0c8d 9F       		.byte	0x9f
 8384 0c8e 78000000 		.4byte	.LVL264
 8385 0c92 7E000000 		.4byte	.LVL265
 8386 0c96 0100     		.2byte	0x1
 8387 0c98 56       		.byte	0x56
 8388 0c99 82000000 		.4byte	.LVL266
 8389 0c9d 84000000 		.4byte	.LVL267
 8390 0ca1 0100     		.2byte	0x1
 8391 0ca3 54       		.byte	0x54
 8392 0ca4 E4000000 		.4byte	.LVL275
 8393 0ca8 04010000 		.4byte	.LVL278
 8394 0cac 0100     		.2byte	0x1
 8395 0cae 56       		.byte	0x56
 8396 0caf 04010000 		.4byte	.LVL278
 8397 0cb3 08010000 		.4byte	.LVL279
 8398 0cb7 0100     		.2byte	0x1
 8399 0cb9 54       		.byte	0x54
 8400 0cba 0E010000 		.4byte	.LVL280
 8401 0cbe 12010000 		.4byte	.LVL282
 8402 0cc2 0100     		.2byte	0x1
 8403 0cc4 54       		.byte	0x54
 8404 0cc5 12010000 		.4byte	.LVL282
 8405 0cc9 18010000 		.4byte	.LVL283
 8406 0ccd 0200     		.2byte	0x2
 8407 0ccf 30       		.byte	0x30
 8408 0cd0 9F       		.byte	0x9f
 8409 0cd1 18010000 		.4byte	.LVL283
 8410 0cd5 1E010000 		.4byte	.LVL284
 8411 0cd9 0400     		.2byte	0x4
 8412 0cdb 74       		.byte	0x74
 8413 0cdc FF01     		.sleb128 255
 8414 0cde 9F       		.byte	0x9f
 8415 0cdf 1E010000 		.4byte	.LVL284
 8416 0ce3 22010000 		.4byte	.LVL285
 8417 0ce7 0100     		.2byte	0x1
 8418 0ce9 54       		.byte	0x54
 8419 0cea 34010000 		.4byte	.LVL287
 8420 0cee 38010000 		.4byte	.LVL288
 8421 0cf2 0300     		.2byte	0x3
 8422 0cf4 74       		.byte	0x74
 8423 0cf5 7F       		.sleb128 -1
 8424 0cf6 9F       		.byte	0x9f
 8425 0cf7 38010000 		.4byte	.LVL288
 8426 0cfb 52010000 		.4byte	.LVL289
 8427 0cff 0100     		.2byte	0x1
 8428 0d01 58       		.byte	0x58
 8429 0d02 A0010000 		.4byte	.LVL299
 8430 0d06 AE010000 		.4byte	.LVL301
 8431 0d0a 0100     		.2byte	0x1
 8432 0d0c 55       		.byte	0x55
ARM GAS  /tmp/ccrwCQMC.s 			page 149


 8433 0d0d AE010000 		.4byte	.LVL301
 8434 0d11 B4010000 		.4byte	.LVL302
 8435 0d15 0100     		.2byte	0x1
 8436 0d17 56       		.byte	0x56
 8437 0d18 B4010000 		.4byte	.LVL302
 8438 0d1c BA010000 		.4byte	.LVL304
 8439 0d20 0100     		.2byte	0x1
 8440 0d22 58       		.byte	0x58
 8441 0d23 BE010000 		.4byte	.LVL305
 8442 0d27 C2010000 		.4byte	.LVL306
 8443 0d2b 0500     		.2byte	0x5
 8444 0d2d 74       		.byte	0x74
 8445 0d2e 00       		.sleb128 0
 8446 0d2f 4F       		.byte	0x4f
 8447 0d30 1A       		.byte	0x1a
 8448 0d31 9F       		.byte	0x9f
 8449 0d32 C2010000 		.4byte	.LVL306
 8450 0d36 C4010000 		.4byte	.LVL307
 8451 0d3a 0100     		.2byte	0x1
 8452 0d3c 54       		.byte	0x54
 8453 0d3d C4010000 		.4byte	.LVL307
 8454 0d41 C8010000 		.4byte	.LVL308
 8455 0d45 0200     		.2byte	0x2
 8456 0d47 30       		.byte	0x30
 8457 0d48 9F       		.byte	0x9f
 8458 0d49 C8010000 		.4byte	.LVL308
 8459 0d4d CE010000 		.4byte	.LVL309
 8460 0d51 0400     		.2byte	0x4
 8461 0d53 74       		.byte	0x74
 8462 0d54 FF01     		.sleb128 255
 8463 0d56 9F       		.byte	0x9f
 8464 0d57 CE010000 		.4byte	.LVL309
 8465 0d5b D2010000 		.4byte	.LVL310
 8466 0d5f 0100     		.2byte	0x1
 8467 0d61 54       		.byte	0x54
 8468 0d62 12020000 		.4byte	.LVL315
 8469 0d66 14020000 		.4byte	.LVL316
 8470 0d6a 0100     		.2byte	0x1
 8471 0d6c 54       		.byte	0x54
 8472 0d6d 42020000 		.4byte	.LVL321
 8473 0d71 52020000 		.4byte	.LVL323
 8474 0d75 0100     		.2byte	0x1
 8475 0d77 55       		.byte	0x55
 8476 0d78 52020000 		.4byte	.LVL323
 8477 0d7c 62020000 		.4byte	.LVL326
 8478 0d80 0100     		.2byte	0x1
 8479 0d82 56       		.byte	0x56
 8480 0d83 62020000 		.4byte	.LVL326
 8481 0d87 6C020000 		.4byte	.LVL328
 8482 0d8b 0100     		.2byte	0x1
 8483 0d8d 58       		.byte	0x58
 8484 0d8e 94020000 		.4byte	.LVL335
 8485 0d92 98020000 		.4byte	.LVL336
 8486 0d96 0200     		.2byte	0x2
 8487 0d98 30       		.byte	0x30
 8488 0d99 9F       		.byte	0x9f
 8489 0d9a 98020000 		.4byte	.LVL336
ARM GAS  /tmp/ccrwCQMC.s 			page 150


 8490 0d9e 9E020000 		.4byte	.LVL337
 8491 0da2 0400     		.2byte	0x4
 8492 0da4 74       		.byte	0x74
 8493 0da5 FF01     		.sleb128 255
 8494 0da7 9F       		.byte	0x9f
 8495 0da8 9E020000 		.4byte	.LVL337
 8496 0dac A2020000 		.4byte	.LVL338
 8497 0db0 0100     		.2byte	0x1
 8498 0db2 54       		.byte	0x54
 8499 0db3 00000000 		.4byte	0
 8500 0db7 00000000 		.4byte	0
 8501              	.LLST86:
 8502 0dbb 48000000 		.4byte	.LVL258
 8503 0dbf 54000000 		.4byte	.LVL259
 8504 0dc3 0C00     		.2byte	0xc
 8505 0dc5 75       		.byte	0x75
 8506 0dc6 00       		.sleb128 0
 8507 0dc7 74       		.byte	0x74
 8508 0dc8 00       		.sleb128 0
 8509 0dc9 32       		.byte	0x32
 8510 0dca 25       		.byte	0x25
 8511 0dcb 1C       		.byte	0x1c
 8512 0dcc 0A       		.byte	0xa
 8513 0dcd 0108     		.2byte	0x801
 8514 0dcf 1C       		.byte	0x1c
 8515 0dd0 9F       		.byte	0x9f
 8516 0dd1 54000000 		.4byte	.LVL259
 8517 0dd5 5E000000 		.4byte	.LVL260
 8518 0dd9 1100     		.2byte	0x11
 8519 0ddb 75       		.byte	0x75
 8520 0ddc 00       		.sleb128 0
 8521 0ddd 76       		.byte	0x76
 8522 0dde 00       		.sleb128 0
 8523 0ddf 94       		.byte	0x94
 8524 0de0 01       		.byte	0x1
 8525 0de1 08       		.byte	0x8
 8526 0de2 FF       		.byte	0xff
 8527 0de3 1A       		.byte	0x1a
 8528 0de4 32       		.byte	0x32
 8529 0de5 25       		.byte	0x25
 8530 0de6 1C       		.byte	0x1c
 8531 0de7 0A       		.byte	0xa
 8532 0de8 0108     		.2byte	0x801
 8533 0dea 1C       		.byte	0x1c
 8534 0deb 9F       		.byte	0x9f
 8535 0dec 6A000000 		.4byte	.LVL261
 8536 0df0 6E000000 		.4byte	.LVL262
 8537 0df4 0300     		.2byte	0x3
 8538 0df6 77       		.byte	0x77
 8539 0df7 02       		.sleb128 2
 8540 0df8 9F       		.byte	0x9f
 8541 0df9 AE000000 		.4byte	.LVL269
 8542 0dfd BE000000 		.4byte	.LVL271
 8543 0e01 0100     		.2byte	0x1
 8544 0e03 56       		.byte	0x56
 8545 0e04 BE000000 		.4byte	.LVL271
 8546 0e08 CA000000 		.4byte	.LVL272
ARM GAS  /tmp/ccrwCQMC.s 			page 151


 8547 0e0c 0300     		.2byte	0x3
 8548 0e0e 76       		.byte	0x76
 8549 0e0f 7F       		.sleb128 -1
 8550 0e10 9F       		.byte	0x9f
 8551 0e11 D8010000 		.4byte	.LVL311
 8552 0e15 E4010000 		.4byte	.LVL312
 8553 0e19 0300     		.2byte	0x3
 8554 0e1b 75       		.byte	0x75
 8555 0e1c 7F       		.sleb128 -1
 8556 0e1d 9F       		.byte	0x9f
 8557 0e1e E4010000 		.4byte	.LVL312
 8558 0e22 FA010000 		.4byte	.LVL313
 8559 0e26 0100     		.2byte	0x1
 8560 0e28 5C       		.byte	0x5c
 8561 0e29 FA010000 		.4byte	.LVL313
 8562 0e2d FE010000 		.4byte	.LVL314
 8563 0e31 0300     		.2byte	0x3
 8564 0e33 7C       		.byte	0x7c
 8565 0e34 7C       		.sleb128 -4
 8566 0e35 9F       		.byte	0x9f
 8567 0e36 FE010000 		.4byte	.LVL314
 8568 0e3a 14020000 		.4byte	.LVL316
 8569 0e3e 0100     		.2byte	0x1
 8570 0e40 5C       		.byte	0x5c
 8571 0e41 14020000 		.4byte	.LVL316
 8572 0e45 18020000 		.4byte	.LVL317
 8573 0e49 0100     		.2byte	0x1
 8574 0e4b 55       		.byte	0x55
 8575 0e4c 18020000 		.4byte	.LVL317
 8576 0e50 1C020000 		.4byte	.LVL318
 8577 0e54 0300     		.2byte	0x3
 8578 0e56 75       		.byte	0x75
 8579 0e57 7C       		.sleb128 -4
 8580 0e58 9F       		.byte	0x9f
 8581 0e59 1C020000 		.4byte	.LVL318
 8582 0e5d 2C020000 		.4byte	.LVL320
 8583 0e61 0100     		.2byte	0x1
 8584 0e63 55       		.byte	0x55
 8585 0e64 42020000 		.4byte	.LVL321
 8586 0e68 46020000 		.4byte	.LVL322
 8587 0e6c 0100     		.2byte	0x1
 8588 0e6e 54       		.byte	0x54
 8589 0e6f 46020000 		.4byte	.LVL322
 8590 0e73 52020000 		.4byte	.LVL323
 8591 0e77 0300     		.2byte	0x3
 8592 0e79 74       		.byte	0x74
 8593 0e7a 7F       		.sleb128 -1
 8594 0e7b 9F       		.byte	0x9f
 8595 0e7c 86020000 		.4byte	.LVL333
 8596 0e80 92020000 		.4byte	.LVL334
 8597 0e84 0100     		.2byte	0x1
 8598 0e86 55       		.byte	0x55
 8599 0e87 92020000 		.4byte	.LVL334
 8600 0e8b B2020000 		.4byte	.LVL340
 8601 0e8f 0600     		.2byte	0x6
 8602 0e91 75       		.byte	0x75
 8603 0e92 00       		.sleb128 0
ARM GAS  /tmp/ccrwCQMC.s 			page 152


 8604 0e93 7C       		.byte	0x7c
 8605 0e94 00       		.sleb128 0
 8606 0e95 1C       		.byte	0x1c
 8607 0e96 9F       		.byte	0x9f
 8608 0e97 B6020000 		.4byte	.LVL341
 8609 0e9b C0020000 		.4byte	.LVL343
 8610 0e9f 0100     		.2byte	0x1
 8611 0ea1 5C       		.byte	0x5c
 8612 0ea2 DC020000 		.4byte	.LVL345
 8613 0ea6 DE020000 		.4byte	.LVL346
 8614 0eaa 0300     		.2byte	0x3
 8615 0eac 74       		.byte	0x74
 8616 0ead 01       		.sleb128 1
 8617 0eae 9F       		.byte	0x9f
 8618 0eaf E2020000 		.4byte	.LVL347
 8619 0eb3 00030000 		.4byte	.LFE32
 8620 0eb7 0100     		.2byte	0x1
 8621 0eb9 5C       		.byte	0x5c
 8622 0eba 00000000 		.4byte	0
 8623 0ebe 00000000 		.4byte	0
 8624              	.LLST87:
 8625 0ec2 0E000000 		.4byte	.LVL250
 8626 0ec6 E4020000 		.4byte	.LVL348
 8627 0eca 0600     		.2byte	0x6
 8628 0ecc 70       		.byte	0x70
 8629 0ecd 00       		.sleb128 0
 8630 0ece 71       		.byte	0x71
 8631 0ecf 00       		.sleb128 0
 8632 0ed0 22       		.byte	0x22
 8633 0ed1 9F       		.byte	0x9f
 8634 0ed2 E4020000 		.4byte	.LVL348
 8635 0ed6 F2020000 		.4byte	.LVL350
 8636 0eda 0700     		.2byte	0x7
 8637 0edc 70       		.byte	0x70
 8638 0edd 00       		.sleb128 0
 8639 0ede F3       		.byte	0xf3
 8640 0edf 01       		.uleb128 0x1
 8641 0ee0 51       		.byte	0x51
 8642 0ee1 22       		.byte	0x22
 8643 0ee2 9F       		.byte	0x9f
 8644 0ee3 F2020000 		.4byte	.LVL350
 8645 0ee7 F6020000 		.4byte	.LVL351
 8646 0eeb 0800     		.2byte	0x8
 8647 0eed F3       		.byte	0xf3
 8648 0eee 01       		.uleb128 0x1
 8649 0eef 50       		.byte	0x50
 8650 0ef0 F3       		.byte	0xf3
 8651 0ef1 01       		.uleb128 0x1
 8652 0ef2 51       		.byte	0x51
 8653 0ef3 22       		.byte	0x22
 8654 0ef4 9F       		.byte	0x9f
 8655 0ef5 F6020000 		.4byte	.LVL351
 8656 0ef9 FA020000 		.4byte	.LVL352
 8657 0efd 0700     		.2byte	0x7
 8658 0eff 70       		.byte	0x70
 8659 0f00 00       		.sleb128 0
 8660 0f01 F3       		.byte	0xf3
ARM GAS  /tmp/ccrwCQMC.s 			page 153


 8661 0f02 01       		.uleb128 0x1
 8662 0f03 51       		.byte	0x51
 8663 0f04 22       		.byte	0x22
 8664 0f05 9F       		.byte	0x9f
 8665 0f06 FA020000 		.4byte	.LVL352
 8666 0f0a FC020000 		.4byte	.LVL353
 8667 0f0e 0800     		.2byte	0x8
 8668 0f10 F3       		.byte	0xf3
 8669 0f11 01       		.uleb128 0x1
 8670 0f12 50       		.byte	0x50
 8671 0f13 F3       		.byte	0xf3
 8672 0f14 01       		.uleb128 0x1
 8673 0f15 51       		.byte	0x51
 8674 0f16 22       		.byte	0x22
 8675 0f17 9F       		.byte	0x9f
 8676 0f18 FC020000 		.4byte	.LVL353
 8677 0f1c FE020000 		.4byte	.LVL354
 8678 0f20 0700     		.2byte	0x7
 8679 0f22 70       		.byte	0x70
 8680 0f23 00       		.sleb128 0
 8681 0f24 F3       		.byte	0xf3
 8682 0f25 01       		.uleb128 0x1
 8683 0f26 51       		.byte	0x51
 8684 0f27 22       		.byte	0x22
 8685 0f28 9F       		.byte	0x9f
 8686 0f29 FE020000 		.4byte	.LVL354
 8687 0f2d 00030000 		.4byte	.LFE32
 8688 0f31 0800     		.2byte	0x8
 8689 0f33 F3       		.byte	0xf3
 8690 0f34 01       		.uleb128 0x1
 8691 0f35 50       		.byte	0x50
 8692 0f36 F3       		.byte	0xf3
 8693 0f37 01       		.uleb128 0x1
 8694 0f38 51       		.byte	0x51
 8695 0f39 22       		.byte	0x22
 8696 0f3a 9F       		.byte	0x9f
 8697 0f3b 00000000 		.4byte	0
 8698 0f3f 00000000 		.4byte	0
 8699              	.LLST60:
 8700 0f43 00000000 		.4byte	.LVL186
 8701 0f47 3C000000 		.4byte	.LVL193
 8702 0f4b 0100     		.2byte	0x1
 8703 0f4d 50       		.byte	0x50
 8704 0f4e 3C000000 		.4byte	.LVL193
 8705 0f52 B0000000 		.4byte	.LVL208
 8706 0f56 0200     		.2byte	0x2
 8707 0f58 91       		.byte	0x91
 8708 0f59 54       		.sleb128 -44
 8709 0f5a B0000000 		.4byte	.LVL208
 8710 0f5e E0000000 		.4byte	.LVL216
 8711 0f62 0400     		.2byte	0x4
 8712 0f64 F3       		.byte	0xf3
 8713 0f65 01       		.uleb128 0x1
 8714 0f66 50       		.byte	0x50
 8715 0f67 9F       		.byte	0x9f
 8716 0f68 E0000000 		.4byte	.LVL216
 8717 0f6c F2000000 		.4byte	.LVL220
ARM GAS  /tmp/ccrwCQMC.s 			page 154


 8718 0f70 0200     		.2byte	0x2
 8719 0f72 91       		.byte	0x91
 8720 0f73 54       		.sleb128 -44
 8721 0f74 F2000000 		.4byte	.LVL220
 8722 0f78 3E010000 		.4byte	.LVL231
 8723 0f7c 0400     		.2byte	0x4
 8724 0f7e F3       		.byte	0xf3
 8725 0f7f 01       		.uleb128 0x1
 8726 0f80 50       		.byte	0x50
 8727 0f81 9F       		.byte	0x9f
 8728 0f82 3E010000 		.4byte	.LVL231
 8729 0f86 40010000 		.4byte	.LVL232
 8730 0f8a 0200     		.2byte	0x2
 8731 0f8c 91       		.byte	0x91
 8732 0f8d 54       		.sleb128 -44
 8733 0f8e 40010000 		.4byte	.LVL232
 8734 0f92 60010000 		.4byte	.LVL235
 8735 0f96 0400     		.2byte	0x4
 8736 0f98 F3       		.byte	0xf3
 8737 0f99 01       		.uleb128 0x1
 8738 0f9a 50       		.byte	0x50
 8739 0f9b 9F       		.byte	0x9f
 8740 0f9c 60010000 		.4byte	.LVL235
 8741 0fa0 62010000 		.4byte	.LVL236
 8742 0fa4 0200     		.2byte	0x2
 8743 0fa6 91       		.byte	0x91
 8744 0fa7 54       		.sleb128 -44
 8745 0fa8 62010000 		.4byte	.LVL236
 8746 0fac 7E010000 		.4byte	.LVL244
 8747 0fb0 0400     		.2byte	0x4
 8748 0fb2 F3       		.byte	0xf3
 8749 0fb3 01       		.uleb128 0x1
 8750 0fb4 50       		.byte	0x50
 8751 0fb5 9F       		.byte	0x9f
 8752 0fb6 7E010000 		.4byte	.LVL244
 8753 0fba 8A010000 		.4byte	.LVL247
 8754 0fbe 0100     		.2byte	0x1
 8755 0fc0 50       		.byte	0x50
 8756 0fc1 8A010000 		.4byte	.LVL247
 8757 0fc5 8E010000 		.4byte	.LVL248
 8758 0fc9 0200     		.2byte	0x2
 8759 0fcb 91       		.byte	0x91
 8760 0fcc 54       		.sleb128 -44
 8761 0fcd 8E010000 		.4byte	.LVL248
 8762 0fd1 94010000 		.4byte	.LFE31
 8763 0fd5 0400     		.2byte	0x4
 8764 0fd7 F3       		.byte	0xf3
 8765 0fd8 01       		.uleb128 0x1
 8766 0fd9 50       		.byte	0x50
 8767 0fda 9F       		.byte	0x9f
 8768 0fdb 00000000 		.4byte	0
 8769 0fdf 00000000 		.4byte	0
 8770              	.LLST61:
 8771 0fe3 00000000 		.4byte	.LVL186
 8772 0fe7 3C000000 		.4byte	.LVL193
 8773 0feb 0100     		.2byte	0x1
 8774 0fed 51       		.byte	0x51
ARM GAS  /tmp/ccrwCQMC.s 			page 155


 8775 0fee 3C000000 		.4byte	.LVL193
 8776 0ff2 A8000000 		.4byte	.LVL206
 8777 0ff6 0200     		.2byte	0x2
 8778 0ff8 91       		.byte	0x91
 8779 0ff9 4C       		.sleb128 -52
 8780 0ffa A8000000 		.4byte	.LVL206
 8781 0ffe E0000000 		.4byte	.LVL216
 8782 1002 0400     		.2byte	0x4
 8783 1004 F3       		.byte	0xf3
 8784 1005 01       		.uleb128 0x1
 8785 1006 51       		.byte	0x51
 8786 1007 9F       		.byte	0x9f
 8787 1008 E0000000 		.4byte	.LVL216
 8788 100c F0000000 		.4byte	.LVL219
 8789 1010 0200     		.2byte	0x2
 8790 1012 91       		.byte	0x91
 8791 1013 4C       		.sleb128 -52
 8792 1014 F0000000 		.4byte	.LVL219
 8793 1018 3E010000 		.4byte	.LVL231
 8794 101c 0400     		.2byte	0x4
 8795 101e F3       		.byte	0xf3
 8796 101f 01       		.uleb128 0x1
 8797 1020 51       		.byte	0x51
 8798 1021 9F       		.byte	0x9f
 8799 1022 3E010000 		.4byte	.LVL231
 8800 1026 40010000 		.4byte	.LVL232
 8801 102a 0200     		.2byte	0x2
 8802 102c 91       		.byte	0x91
 8803 102d 4C       		.sleb128 -52
 8804 102e 40010000 		.4byte	.LVL232
 8805 1032 60010000 		.4byte	.LVL235
 8806 1036 0400     		.2byte	0x4
 8807 1038 F3       		.byte	0xf3
 8808 1039 01       		.uleb128 0x1
 8809 103a 51       		.byte	0x51
 8810 103b 9F       		.byte	0x9f
 8811 103c 60010000 		.4byte	.LVL235
 8812 1040 62010000 		.4byte	.LVL236
 8813 1044 0200     		.2byte	0x2
 8814 1046 91       		.byte	0x91
 8815 1047 4C       		.sleb128 -52
 8816 1048 62010000 		.4byte	.LVL236
 8817 104c 7E010000 		.4byte	.LVL244
 8818 1050 0400     		.2byte	0x4
 8819 1052 F3       		.byte	0xf3
 8820 1053 01       		.uleb128 0x1
 8821 1054 51       		.byte	0x51
 8822 1055 9F       		.byte	0x9f
 8823 1056 7E010000 		.4byte	.LVL244
 8824 105a 8A010000 		.4byte	.LVL247
 8825 105e 0100     		.2byte	0x1
 8826 1060 51       		.byte	0x51
 8827 1061 8A010000 		.4byte	.LVL247
 8828 1065 94010000 		.4byte	.LFE31
 8829 1069 0400     		.2byte	0x4
 8830 106b F3       		.byte	0xf3
 8831 106c 01       		.uleb128 0x1
ARM GAS  /tmp/ccrwCQMC.s 			page 156


 8832 106d 51       		.byte	0x51
 8833 106e 9F       		.byte	0x9f
 8834 106f 00000000 		.4byte	0
 8835 1073 00000000 		.4byte	0
 8836              	.LLST62:
 8837 1077 00000000 		.4byte	.LVL186
 8838 107b 3C000000 		.4byte	.LVL193
 8839 107f 0100     		.2byte	0x1
 8840 1081 52       		.byte	0x52
 8841 1082 3C000000 		.4byte	.LVL193
 8842 1086 7E010000 		.4byte	.LVL244
 8843 108a 0200     		.2byte	0x2
 8844 108c 91       		.byte	0x91
 8845 108d 50       		.sleb128 -48
 8846 108e 7E010000 		.4byte	.LVL244
 8847 1092 8A010000 		.4byte	.LVL247
 8848 1096 0100     		.2byte	0x1
 8849 1098 52       		.byte	0x52
 8850 1099 8A010000 		.4byte	.LVL247
 8851 109d 94010000 		.4byte	.LFE31
 8852 10a1 0200     		.2byte	0x2
 8853 10a3 91       		.byte	0x91
 8854 10a4 50       		.sleb128 -48
 8855 10a5 00000000 		.4byte	0
 8856 10a9 00000000 		.4byte	0
 8857              	.LLST63:
 8858 10ad 00000000 		.4byte	.LVL186
 8859 10b1 1A000000 		.4byte	.LVL190
 8860 10b5 0100     		.2byte	0x1
 8861 10b7 53       		.byte	0x53
 8862 10b8 1A000000 		.4byte	.LVL190
 8863 10bc 7E010000 		.4byte	.LVL244
 8864 10c0 0100     		.2byte	0x1
 8865 10c2 5A       		.byte	0x5a
 8866 10c3 7E010000 		.4byte	.LVL244
 8867 10c7 80010000 		.4byte	.LVL245
 8868 10cb 0100     		.2byte	0x1
 8869 10cd 53       		.byte	0x53
 8870 10ce 80010000 		.4byte	.LVL245
 8871 10d2 94010000 		.4byte	.LFE31
 8872 10d6 0100     		.2byte	0x1
 8873 10d8 5A       		.byte	0x5a
 8874 10d9 00000000 		.4byte	0
 8875 10dd 00000000 		.4byte	0
 8876              	.LLST64:
 8877 10e1 00000000 		.4byte	.LVL186
 8878 10e5 E0000000 		.4byte	.LVL216
 8879 10e9 0200     		.2byte	0x2
 8880 10eb 91       		.byte	0x91
 8881 10ec 00       		.sleb128 0
 8882 10ed E0000000 		.4byte	.LVL216
 8883 10f1 94010000 		.4byte	.LFE31
 8884 10f5 0200     		.2byte	0x2
 8885 10f7 91       		.byte	0x91
 8886 10f8 00       		.sleb128 0
 8887 10f9 00000000 		.4byte	0
 8888 10fd 00000000 		.4byte	0
ARM GAS  /tmp/ccrwCQMC.s 			page 157


 8889              	.LLST65:
 8890 1101 0E000000 		.4byte	.LVL188
 8891 1105 3C000000 		.4byte	.LVL193
 8892 1109 0100     		.2byte	0x1
 8893 110b 50       		.byte	0x50
 8894 110c 3C000000 		.4byte	.LVL193
 8895 1110 4A000000 		.4byte	.LVL195
 8896 1114 0100     		.2byte	0x1
 8897 1116 54       		.byte	0x54
 8898 1117 4A000000 		.4byte	.LVL195
 8899 111b 82000000 		.4byte	.LVL200
 8900 111f 0100     		.2byte	0x1
 8901 1121 59       		.byte	0x59
 8902 1122 82000000 		.4byte	.LVL200
 8903 1126 88000000 		.4byte	.LVL202
 8904 112a 0100     		.2byte	0x1
 8905 112c 54       		.byte	0x54
 8906 112d 88000000 		.4byte	.LVL202
 8907 1131 90000000 		.4byte	.LVL204
 8908 1135 0100     		.2byte	0x1
 8909 1137 59       		.byte	0x59
 8910 1138 7E010000 		.4byte	.LVL244
 8911 113c 8A010000 		.4byte	.LVL247
 8912 1140 0100     		.2byte	0x1
 8913 1142 50       		.byte	0x50
 8914 1143 00000000 		.4byte	0
 8915 1147 00000000 		.4byte	0
 8916              	.LLST66:
 8917 114b 0E000000 		.4byte	.LVL188
 8918 114f 3C000000 		.4byte	.LVL193
 8919 1153 0100     		.2byte	0x1
 8920 1155 52       		.byte	0x52
 8921 1156 3C000000 		.4byte	.LVL193
 8922 115a 82000000 		.4byte	.LVL200
 8923 115e 0100     		.2byte	0x1
 8924 1160 55       		.byte	0x55
 8925 1161 82000000 		.4byte	.LVL200
 8926 1165 84000000 		.4byte	.LVL201
 8927 1169 0600     		.2byte	0x6
 8928 116b 75       		.byte	0x75
 8929 116c 00       		.sleb128 0
 8930 116d 73       		.byte	0x73
 8931 116e 00       		.sleb128 0
 8932 116f 22       		.byte	0x22
 8933 1170 9F       		.byte	0x9f
 8934 1171 84000000 		.4byte	.LVL201
 8935 1175 B0000000 		.4byte	.LVL208
 8936 1179 0100     		.2byte	0x1
 8937 117b 55       		.byte	0x55
 8938 117c C6000000 		.4byte	.LVL213
 8939 1180 D2000000 		.4byte	.LVL214
 8940 1184 0300     		.2byte	0x3
 8941 1186 75       		.byte	0x75
 8942 1187 01       		.sleb128 1
 8943 1188 9F       		.byte	0x9f
 8944 1189 D2000000 		.4byte	.LVL214
 8945 118d D4000000 		.4byte	.LVL215
ARM GAS  /tmp/ccrwCQMC.s 			page 158


 8946 1191 0300     		.2byte	0x3
 8947 1193 75       		.byte	0x75
 8948 1194 02       		.sleb128 2
 8949 1195 9F       		.byte	0x9f
 8950 1196 D4000000 		.4byte	.LVL215
 8951 119a E0000000 		.4byte	.LVL216
 8952 119e 0300     		.2byte	0x3
 8953 11a0 75       		.byte	0x75
 8954 11a1 03       		.sleb128 3
 8955 11a2 9F       		.byte	0x9f
 8956 11a3 E0000000 		.4byte	.LVL216
 8957 11a7 E8000000 		.4byte	.LVL217
 8958 11ab 0100     		.2byte	0x1
 8959 11ad 55       		.byte	0x55
 8960 11ae E8000000 		.4byte	.LVL217
 8961 11b2 EE000000 		.4byte	.LVL218
 8962 11b6 0300     		.2byte	0x3
 8963 11b8 75       		.byte	0x75
 8964 11b9 01       		.sleb128 1
 8965 11ba 9F       		.byte	0x9f
 8966 11bb EE000000 		.4byte	.LVL218
 8967 11bf F2000000 		.4byte	.LVL220
 8968 11c3 0100     		.2byte	0x1
 8969 11c5 51       		.byte	0x51
 8970 11c6 3C010000 		.4byte	.LVL230
 8971 11ca 3E010000 		.4byte	.LVL231
 8972 11ce 0100     		.2byte	0x1
 8973 11d0 53       		.byte	0x53
 8974 11d1 3E010000 		.4byte	.LVL231
 8975 11d5 40010000 		.4byte	.LVL232
 8976 11d9 0100     		.2byte	0x1
 8977 11db 55       		.byte	0x55
 8978 11dc 4A010000 		.4byte	.LVL233
 8979 11e0 52010000 		.4byte	.LVL234
 8980 11e4 0300     		.2byte	0x3
 8981 11e6 75       		.byte	0x75
 8982 11e7 01       		.sleb128 1
 8983 11e8 9F       		.byte	0x9f
 8984 11e9 52010000 		.4byte	.LVL234
 8985 11ed 60010000 		.4byte	.LVL235
 8986 11f1 0100     		.2byte	0x1
 8987 11f3 51       		.byte	0x51
 8988 11f4 60010000 		.4byte	.LVL235
 8989 11f8 62010000 		.4byte	.LVL236
 8990 11fc 0100     		.2byte	0x1
 8991 11fe 55       		.byte	0x55
 8992 11ff 66010000 		.4byte	.LVL237
 8993 1203 6E010000 		.4byte	.LVL238
 8994 1207 0300     		.2byte	0x3
 8995 1209 75       		.byte	0x75
 8996 120a 01       		.sleb128 1
 8997 120b 9F       		.byte	0x9f
 8998 120c 6E010000 		.4byte	.LVL238
 8999 1210 78010000 		.4byte	.LVL241
 9000 1214 0100     		.2byte	0x1
 9001 1216 51       		.byte	0x51
 9002 1217 78010000 		.4byte	.LVL241
ARM GAS  /tmp/ccrwCQMC.s 			page 159


 9003 121b 7C010000 		.4byte	.LVL243
 9004 121f 0300     		.2byte	0x3
 9005 1221 71       		.byte	0x71
 9006 1222 01       		.sleb128 1
 9007 1223 9F       		.byte	0x9f
 9008 1224 7C010000 		.4byte	.LVL243
 9009 1228 7E010000 		.4byte	.LVL244
 9010 122c 0100     		.2byte	0x1
 9011 122e 51       		.byte	0x51
 9012 122f 7E010000 		.4byte	.LVL244
 9013 1233 8A010000 		.4byte	.LVL247
 9014 1237 0100     		.2byte	0x1
 9015 1239 52       		.byte	0x52
 9016 123a 8A010000 		.4byte	.LVL247
 9017 123e 94010000 		.4byte	.LFE31
 9018 1242 0100     		.2byte	0x1
 9019 1244 51       		.byte	0x51
 9020 1245 00000000 		.4byte	0
 9021 1249 00000000 		.4byte	0
 9022              	.LLST67:
 9023 124d 0A000000 		.4byte	.LVL187
 9024 1251 3C000000 		.4byte	.LVL193
 9025 1255 0100     		.2byte	0x1
 9026 1257 51       		.byte	0x51
 9027 1258 3C000000 		.4byte	.LVL193
 9028 125c 78000000 		.4byte	.LVL199
 9029 1260 0100     		.2byte	0x1
 9030 1262 58       		.byte	0x58
 9031 1263 84000000 		.4byte	.LVL201
 9032 1267 B0000000 		.4byte	.LVL208
 9033 126b 0100     		.2byte	0x1
 9034 126d 58       		.byte	0x58
 9035 126e E0000000 		.4byte	.LVL216
 9036 1272 F2000000 		.4byte	.LVL220
 9037 1276 0100     		.2byte	0x1
 9038 1278 58       		.byte	0x58
 9039 1279 3E010000 		.4byte	.LVL231
 9040 127d 40010000 		.4byte	.LVL232
 9041 1281 0100     		.2byte	0x1
 9042 1283 58       		.byte	0x58
 9043 1284 60010000 		.4byte	.LVL235
 9044 1288 62010000 		.4byte	.LVL236
 9045 128c 0100     		.2byte	0x1
 9046 128e 58       		.byte	0x58
 9047 128f 7E010000 		.4byte	.LVL244
 9048 1293 8A010000 		.4byte	.LVL247
 9049 1297 0100     		.2byte	0x1
 9050 1299 51       		.byte	0x51
 9051 129a 8A010000 		.4byte	.LVL247
 9052 129e 8E010000 		.4byte	.LVL248
 9053 12a2 0100     		.2byte	0x1
 9054 12a4 58       		.byte	0x58
 9055 12a5 00000000 		.4byte	0
 9056 12a9 00000000 		.4byte	0
 9057              	.LLST68:
 9058 12ad 00000000 		.4byte	.LVL186
 9059 12b1 3C000000 		.4byte	.LVL193
ARM GAS  /tmp/ccrwCQMC.s 			page 160


 9060 12b5 0200     		.2byte	0x2
 9061 12b7 30       		.byte	0x30
 9062 12b8 9F       		.byte	0x9f
 9063 12b9 3C000000 		.4byte	.LVL193
 9064 12bd 58000000 		.4byte	.LVL196
 9065 12c1 0100     		.2byte	0x1
 9066 12c3 50       		.byte	0x50
 9067 12c4 58000000 		.4byte	.LVL196
 9068 12c8 82000000 		.4byte	.LVL200
 9069 12cc 0100     		.2byte	0x1
 9070 12ce 57       		.byte	0x57
 9071 12cf 82000000 		.4byte	.LVL200
 9072 12d3 88000000 		.4byte	.LVL202
 9073 12d7 0100     		.2byte	0x1
 9074 12d9 50       		.byte	0x50
 9075 12da 88000000 		.4byte	.LVL202
 9076 12de 8C000000 		.4byte	.LVL203
 9077 12e2 0600     		.2byte	0x6
 9078 12e4 70       		.byte	0x70
 9079 12e5 00       		.sleb128 0
 9080 12e6 78       		.byte	0x78
 9081 12e7 00       		.sleb128 0
 9082 12e8 22       		.byte	0x22
 9083 12e9 9F       		.byte	0x9f
 9084 12ea 8C000000 		.4byte	.LVL203
 9085 12ee B0000000 		.4byte	.LVL208
 9086 12f2 0100     		.2byte	0x1
 9087 12f4 57       		.byte	0x57
 9088 12f5 E0000000 		.4byte	.LVL216
 9089 12f9 F2000000 		.4byte	.LVL220
 9090 12fd 0100     		.2byte	0x1
 9091 12ff 57       		.byte	0x57
 9092 1300 3E010000 		.4byte	.LVL231
 9093 1304 40010000 		.4byte	.LVL232
 9094 1308 0100     		.2byte	0x1
 9095 130a 57       		.byte	0x57
 9096 130b 60010000 		.4byte	.LVL235
 9097 130f 62010000 		.4byte	.LVL236
 9098 1313 0100     		.2byte	0x1
 9099 1315 57       		.byte	0x57
 9100 1316 7E010000 		.4byte	.LVL244
 9101 131a 86010000 		.4byte	.LVL246
 9102 131e 0200     		.2byte	0x2
 9103 1320 91       		.byte	0x91
 9104 1321 4C       		.sleb128 -52
 9105 1322 8A010000 		.4byte	.LVL247
 9106 1326 8E010000 		.4byte	.LVL248
 9107 132a 0100     		.2byte	0x1
 9108 132c 57       		.byte	0x57
 9109 132d 00000000 		.4byte	0
 9110 1331 00000000 		.4byte	0
 9111              	.LLST69:
 9112 1335 14000000 		.4byte	.LVL189
 9113 1339 24000000 		.4byte	.LVL191
 9114 133d 0100     		.2byte	0x1
 9115 133f 51       		.byte	0x51
 9116 1340 24000000 		.4byte	.LVL191
ARM GAS  /tmp/ccrwCQMC.s 			page 161


 9117 1344 28000000 		.4byte	.LVL192
 9118 1348 0100     		.2byte	0x1
 9119 134a 53       		.byte	0x53
 9120 134b 28000000 		.4byte	.LVL192
 9121 134f 3C000000 		.4byte	.LVL193
 9122 1353 0100     		.2byte	0x1
 9123 1355 56       		.byte	0x56
 9124 1356 3C000000 		.4byte	.LVL193
 9125 135a 48000000 		.4byte	.LVL194
 9126 135e 0100     		.2byte	0x1
 9127 1360 58       		.byte	0x58
 9128 1361 48000000 		.4byte	.LVL194
 9129 1365 82000000 		.4byte	.LVL200
 9130 1369 0100     		.2byte	0x1
 9131 136b 56       		.byte	0x56
 9132 136c 82000000 		.4byte	.LVL200
 9133 1370 88000000 		.4byte	.LVL202
 9134 1374 0100     		.2byte	0x1
 9135 1376 58       		.byte	0x58
 9136 1377 00000000 		.4byte	0
 9137 137b 00000000 		.4byte	0
 9138              	.LLST70:
 9139 137f 24000000 		.4byte	.LVL191
 9140 1383 3C000000 		.4byte	.LVL193
 9141 1387 0100     		.2byte	0x1
 9142 1389 54       		.byte	0x54
 9143 138a 3C000000 		.4byte	.LVL193
 9144 138e 4A000000 		.4byte	.LVL195
 9145 1392 1D00     		.2byte	0x1d
 9146 1394 0A       		.byte	0xa
 9147 1395 00C0     		.2byte	0xc000
 9148 1397 91       		.byte	0x91
 9149 1398 4C       		.sleb128 -52
 9150 1399 06       		.byte	0x6
 9151 139a 91       		.byte	0x91
 9152 139b 4C       		.sleb128 -52
 9153 139c 06       		.byte	0x6
 9154 139d 40       		.byte	0x40
 9155 139e 4B       		.byte	0x4b
 9156 139f 24       		.byte	0x24
 9157 13a0 22       		.byte	0x22
 9158 13a1 0C       		.byte	0xc
 9159 13a2 00C00080 		.4byte	0x8000c000
 9160 13a6 2A       		.byte	0x2a
 9161 13a7 28       		.byte	0x28
 9162 13a8 0100     		.2byte	0x1
 9163 13aa 16       		.byte	0x16
 9164 13ab 13       		.byte	0x13
 9165 13ac 91       		.byte	0x91
 9166 13ad 54       		.sleb128 -44
 9167 13ae 06       		.byte	0x6
 9168 13af 22       		.byte	0x22
 9169 13b0 9F       		.byte	0x9f
 9170 13b1 4A000000 		.4byte	.LVL195
 9171 13b5 58000000 		.4byte	.LVL196
 9172 13b9 0100     		.2byte	0x1
 9173 13bb 54       		.byte	0x54
ARM GAS  /tmp/ccrwCQMC.s 			page 162


 9174 13bc 58000000 		.4byte	.LVL196
 9175 13c0 88000000 		.4byte	.LVL202
 9176 13c4 1D00     		.2byte	0x1d
 9177 13c6 0A       		.byte	0xa
 9178 13c7 00C0     		.2byte	0xc000
 9179 13c9 91       		.byte	0x91
 9180 13ca 4C       		.sleb128 -52
 9181 13cb 06       		.byte	0x6
 9182 13cc 91       		.byte	0x91
 9183 13cd 4C       		.sleb128 -52
 9184 13ce 06       		.byte	0x6
 9185 13cf 40       		.byte	0x40
 9186 13d0 4B       		.byte	0x4b
 9187 13d1 24       		.byte	0x24
 9188 13d2 22       		.byte	0x22
 9189 13d3 0C       		.byte	0xc
 9190 13d4 00C00080 		.4byte	0x8000c000
 9191 13d8 2A       		.byte	0x2a
 9192 13d9 28       		.byte	0x28
 9193 13da 0100     		.2byte	0x1
 9194 13dc 16       		.byte	0x16
 9195 13dd 13       		.byte	0x13
 9196 13de 91       		.byte	0x91
 9197 13df 54       		.sleb128 -44
 9198 13e0 06       		.byte	0x6
 9199 13e1 22       		.byte	0x22
 9200 13e2 9F       		.byte	0x9f
 9201 13e3 00000000 		.4byte	0
 9202 13e7 00000000 		.4byte	0
 9203              	.LLST71:
 9204 13eb 58000000 		.4byte	.LVL196
 9205 13ef 64000000 		.4byte	.LVL197
 9206 13f3 0400     		.2byte	0x4
 9207 13f5 0A       		.byte	0xa
 9208 13f6 0080     		.2byte	0x8000
 9209 13f8 9F       		.byte	0x9f
 9210 13f9 00000000 		.4byte	0
 9211 13fd 00000000 		.4byte	0
 9212              	.LLST72:
 9213 1401 58000000 		.4byte	.LVL196
 9214 1405 64000000 		.4byte	.LVL197
 9215 1409 0200     		.2byte	0x2
 9216 140b 30       		.byte	0x30
 9217 140c 9F       		.byte	0x9f
 9218 140d 00000000 		.4byte	0
 9219 1411 00000000 		.4byte	0
 9220              	.LLST73:
 9221 1415 58000000 		.4byte	.LVL196
 9222 1419 64000000 		.4byte	.LVL197
 9223 141d 0100     		.2byte	0x1
 9224 141f 5B       		.byte	0x5b
 9225 1420 00000000 		.4byte	0
 9226 1424 00000000 		.4byte	0
 9227              	.LLST74:
 9228 1428 98000000 		.4byte	.LVL205
 9229 142c B0000000 		.4byte	.LVL208
 9230 1430 0100     		.2byte	0x1
ARM GAS  /tmp/ccrwCQMC.s 			page 163


 9231 1432 59       		.byte	0x59
 9232 1433 E0000000 		.4byte	.LVL216
 9233 1437 04010000 		.4byte	.LVL221
 9234 143b 0100     		.2byte	0x1
 9235 143d 59       		.byte	0x59
 9236 143e 3E010000 		.4byte	.LVL231
 9237 1442 7E010000 		.4byte	.LVL244
 9238 1446 0100     		.2byte	0x1
 9239 1448 59       		.byte	0x59
 9240 1449 8A010000 		.4byte	.LVL247
 9241 144d 94010000 		.4byte	.LFE31
 9242 1451 0100     		.2byte	0x1
 9243 1453 59       		.byte	0x59
 9244 1454 00000000 		.4byte	0
 9245 1458 00000000 		.4byte	0
 9246              	.LLST78:
 9247 145c 66010000 		.4byte	.LVL237
 9248 1460 7E010000 		.4byte	.LVL244
 9249 1464 0100     		.2byte	0x1
 9250 1466 53       		.byte	0x53
 9251 1467 00000000 		.4byte	0
 9252 146b 00000000 		.4byte	0
 9253              	.LLST79:
 9254 146f 70010000 		.4byte	.LVL239
 9255 1473 76010000 		.4byte	.LVL240
 9256 1477 0100     		.2byte	0x1
 9257 1479 51       		.byte	0x51
 9258 147a 76010000 		.4byte	.LVL240
 9259 147e 78010000 		.4byte	.LVL241
 9260 1482 0300     		.2byte	0x3
 9261 1484 71       		.byte	0x71
 9262 1485 7F       		.sleb128 -1
 9263 1486 9F       		.byte	0x9f
 9264 1487 00000000 		.4byte	0
 9265 148b 00000000 		.4byte	0
 9266              	.LLST75:
 9267 148f AE000000 		.4byte	.LVL207
 9268 1493 B0000000 		.4byte	.LVL208
 9269 1497 0100     		.2byte	0x1
 9270 1499 55       		.byte	0x55
 9271 149a C0000000 		.4byte	.LVL211
 9272 149e C4000000 		.4byte	.LVL212
 9273 14a2 0700     		.2byte	0x7
 9274 14a4 71       		.byte	0x71
 9275 14a5 00       		.sleb128 0
 9276 14a6 91       		.byte	0x91
 9277 14a7 4C       		.sleb128 -52
 9278 14a8 06       		.byte	0x6
 9279 14a9 22       		.byte	0x22
 9280 14aa 9F       		.byte	0x9f
 9281 14ab C4000000 		.4byte	.LVL212
 9282 14af C6000000 		.4byte	.LVL213
 9283 14b3 0100     		.2byte	0x1
 9284 14b5 53       		.byte	0x53
 9285 14b6 EE000000 		.4byte	.LVL218
 9286 14ba F2000000 		.4byte	.LVL220
 9287 14be 0100     		.2byte	0x1
ARM GAS  /tmp/ccrwCQMC.s 			page 164


 9288 14c0 51       		.byte	0x51
 9289 14c1 04010000 		.4byte	.LVL221
 9290 14c5 1E010000 		.4byte	.LVL224
 9291 14c9 0100     		.2byte	0x1
 9292 14cb 53       		.byte	0x53
 9293 14cc 30010000 		.4byte	.LVL226
 9294 14d0 32010000 		.4byte	.LVL227
 9295 14d4 0300     		.2byte	0x3
 9296 14d6 75       		.byte	0x75
 9297 14d7 04       		.sleb128 4
 9298 14d8 9F       		.byte	0x9f
 9299 14d9 36010000 		.4byte	.LVL228
 9300 14dd 3A010000 		.4byte	.LVL229
 9301 14e1 0700     		.2byte	0x7
 9302 14e3 71       		.byte	0x71
 9303 14e4 00       		.sleb128 0
 9304 14e5 91       		.byte	0x91
 9305 14e6 4C       		.sleb128 -52
 9306 14e7 06       		.byte	0x6
 9307 14e8 22       		.byte	0x22
 9308 14e9 9F       		.byte	0x9f
 9309 14ea 3A010000 		.4byte	.LVL229
 9310 14ee 3E010000 		.4byte	.LVL231
 9311 14f2 0100     		.2byte	0x1
 9312 14f4 53       		.byte	0x53
 9313 14f5 52010000 		.4byte	.LVL234
 9314 14f9 60010000 		.4byte	.LVL235
 9315 14fd 0100     		.2byte	0x1
 9316 14ff 51       		.byte	0x51
 9317 1500 7A010000 		.4byte	.LVL242
 9318 1504 7C010000 		.4byte	.LVL243
 9319 1508 0300     		.2byte	0x3
 9320 150a 71       		.byte	0x71
 9321 150b 01       		.sleb128 1
 9322 150c 9F       		.byte	0x9f
 9323 150d 7C010000 		.4byte	.LVL243
 9324 1511 7E010000 		.4byte	.LVL244
 9325 1515 0100     		.2byte	0x1
 9326 1517 51       		.byte	0x51
 9327 1518 8A010000 		.4byte	.LVL247
 9328 151c 94010000 		.4byte	.LFE31
 9329 1520 0100     		.2byte	0x1
 9330 1522 51       		.byte	0x51
 9331 1523 00000000 		.4byte	0
 9332 1527 00000000 		.4byte	0
 9333              	.LLST76:
 9334 152b AE000000 		.4byte	.LVL207
 9335 152f B8000000 		.4byte	.LVL210
 9336 1533 0100     		.2byte	0x1
 9337 1535 59       		.byte	0x59
 9338 1536 B8000000 		.4byte	.LVL210
 9339 153a C6000000 		.4byte	.LVL213
 9340 153e 0300     		.2byte	0x3
 9341 1540 79       		.byte	0x79
 9342 1541 7F       		.sleb128 -1
 9343 1542 9F       		.byte	0x9f
 9344 1543 EE000000 		.4byte	.LVL218
ARM GAS  /tmp/ccrwCQMC.s 			page 165


 9345 1547 F2000000 		.4byte	.LVL220
 9346 154b 0100     		.2byte	0x1
 9347 154d 59       		.byte	0x59
 9348 154e 04010000 		.4byte	.LVL221
 9349 1552 14010000 		.4byte	.LVL222
 9350 1556 0100     		.2byte	0x1
 9351 1558 59       		.byte	0x59
 9352 1559 14010000 		.4byte	.LVL222
 9353 155d 1A010000 		.4byte	.LVL223
 9354 1561 0300     		.2byte	0x3
 9355 1563 79       		.byte	0x79
 9356 1564 78       		.sleb128 -8
 9357 1565 9F       		.byte	0x9f
 9358 1566 1A010000 		.4byte	.LVL223
 9359 156a 2C010000 		.4byte	.LVL225
 9360 156e 0100     		.2byte	0x1
 9361 1570 59       		.byte	0x59
 9362 1571 2C010000 		.4byte	.LVL225
 9363 1575 30010000 		.4byte	.LVL226
 9364 1579 0300     		.2byte	0x3
 9365 157b 79       		.byte	0x79
 9366 157c 7C       		.sleb128 -4
 9367 157d 9F       		.byte	0x9f
 9368 157e 30010000 		.4byte	.LVL226
 9369 1582 3E010000 		.4byte	.LVL231
 9370 1586 0100     		.2byte	0x1
 9371 1588 59       		.byte	0x59
 9372 1589 52010000 		.4byte	.LVL234
 9373 158d 60010000 		.4byte	.LVL235
 9374 1591 0100     		.2byte	0x1
 9375 1593 59       		.byte	0x59
 9376 1594 7A010000 		.4byte	.LVL242
 9377 1598 7E010000 		.4byte	.LVL244
 9378 159c 0100     		.2byte	0x1
 9379 159e 59       		.byte	0x59
 9380 159f 8A010000 		.4byte	.LVL247
 9381 15a3 94010000 		.4byte	.LFE31
 9382 15a7 0100     		.2byte	0x1
 9383 15a9 59       		.byte	0x59
 9384 15aa 00000000 		.4byte	0
 9385 15ae 00000000 		.4byte	0
 9386              	.LLST77:
 9387 15b2 AE000000 		.4byte	.LVL207
 9388 15b6 B0000000 		.4byte	.LVL208
 9389 15ba 0100     		.2byte	0x1
 9390 15bc 57       		.byte	0x57
 9391 15bd EE000000 		.4byte	.LVL218
 9392 15c1 F2000000 		.4byte	.LVL220
 9393 15c5 0100     		.2byte	0x1
 9394 15c7 57       		.byte	0x57
 9395 15c8 32010000 		.4byte	.LVL227
 9396 15cc 3E010000 		.4byte	.LVL231
 9397 15d0 0100     		.2byte	0x1
 9398 15d2 57       		.byte	0x57
 9399 15d3 52010000 		.4byte	.LVL234
 9400 15d7 60010000 		.4byte	.LVL235
 9401 15db 0100     		.2byte	0x1
ARM GAS  /tmp/ccrwCQMC.s 			page 166


 9402 15dd 52       		.byte	0x52
 9403 15de 7A010000 		.4byte	.LVL242
 9404 15e2 7E010000 		.4byte	.LVL244
 9405 15e6 0200     		.2byte	0x2
 9406 15e8 91       		.byte	0x91
 9407 15e9 4C       		.sleb128 -52
 9408 15ea 8A010000 		.4byte	.LVL247
 9409 15ee 8E010000 		.4byte	.LVL248
 9410 15f2 0100     		.2byte	0x1
 9411 15f4 57       		.byte	0x57
 9412 15f5 8E010000 		.4byte	.LVL248
 9413 15f9 94010000 		.4byte	.LFE31
 9414 15fd 0100     		.2byte	0x1
 9415 15ff 52       		.byte	0x52
 9416 1600 00000000 		.4byte	0
 9417 1604 00000000 		.4byte	0
 9418              	.LLST1:
 9419 1608 00000000 		.4byte	.LVL2
 9420 160c 1C010000 		.4byte	.LVL41
 9421 1610 0100     		.2byte	0x1
 9422 1612 50       		.byte	0x50
 9423 1613 1C010000 		.4byte	.LVL41
 9424 1617 30010000 		.4byte	.LVL43
 9425 161b 0400     		.2byte	0x4
 9426 161d F3       		.byte	0xf3
 9427 161e 01       		.uleb128 0x1
 9428 161f 50       		.byte	0x50
 9429 1620 9F       		.byte	0x9f
 9430 1621 30010000 		.4byte	.LVL43
 9431 1625 82020000 		.4byte	.LVL93
 9432 1629 0100     		.2byte	0x1
 9433 162b 50       		.byte	0x50
 9434 162c 82020000 		.4byte	.LVL93
 9435 1630 86020000 		.4byte	.LVL95
 9436 1634 0400     		.2byte	0x4
 9437 1636 F3       		.byte	0xf3
 9438 1637 01       		.uleb128 0x1
 9439 1638 50       		.byte	0x50
 9440 1639 9F       		.byte	0x9f
 9441 163a 86020000 		.4byte	.LVL95
 9442 163e 9C020000 		.4byte	.LFE30
 9443 1642 0100     		.2byte	0x1
 9444 1644 50       		.byte	0x50
 9445 1645 00000000 		.4byte	0
 9446 1649 00000000 		.4byte	0
 9447              	.LLST2:
 9448 164d 00000000 		.4byte	.LVL2
 9449 1651 28000000 		.4byte	.LVL5
 9450 1655 0100     		.2byte	0x1
 9451 1657 51       		.byte	0x51
 9452 1658 28000000 		.4byte	.LVL5
 9453 165c 9C020000 		.4byte	.LFE30
 9454 1660 0400     		.2byte	0x4
 9455 1662 F3       		.byte	0xf3
 9456 1663 01       		.uleb128 0x1
 9457 1664 51       		.byte	0x51
 9458 1665 9F       		.byte	0x9f
ARM GAS  /tmp/ccrwCQMC.s 			page 167


 9459 1666 00000000 		.4byte	0
 9460 166a 00000000 		.4byte	0
 9461              	.LLST3:
 9462 166e 00000000 		.4byte	.LVL2
 9463 1672 30000000 		.4byte	.LVL7
 9464 1676 0100     		.2byte	0x1
 9465 1678 52       		.byte	0x52
 9466 1679 30000000 		.4byte	.LVL7
 9467 167d 9C020000 		.4byte	.LFE30
 9468 1681 0400     		.2byte	0x4
 9469 1683 F3       		.byte	0xf3
 9470 1684 01       		.uleb128 0x1
 9471 1685 52       		.byte	0x52
 9472 1686 9F       		.byte	0x9f
 9473 1687 00000000 		.4byte	0
 9474 168b 00000000 		.4byte	0
 9475              	.LLST4:
 9476 168f 00000000 		.4byte	.LVL2
 9477 1693 1A000000 		.4byte	.LVL3
 9478 1697 0100     		.2byte	0x1
 9479 1699 53       		.byte	0x53
 9480 169a 1A000000 		.4byte	.LVL3
 9481 169e 30000000 		.4byte	.LVL7
 9482 16a2 0200     		.2byte	0x2
 9483 16a4 91       		.byte	0x91
 9484 16a5 50       		.sleb128 -48
 9485 16a6 30000000 		.4byte	.LVL7
 9486 16aa 9C020000 		.4byte	.LFE30
 9487 16ae 0400     		.2byte	0x4
 9488 16b0 F3       		.byte	0xf3
 9489 16b1 01       		.uleb128 0x1
 9490 16b2 53       		.byte	0x53
 9491 16b3 9F       		.byte	0x9f
 9492 16b4 00000000 		.4byte	0
 9493 16b8 00000000 		.4byte	0
 9494              	.LLST5:
 9495 16bc 00000000 		.4byte	.LVL2
 9496 16c0 30000000 		.4byte	.LVL7
 9497 16c4 0200     		.2byte	0x2
 9498 16c6 91       		.byte	0x91
 9499 16c7 00       		.sleb128 0
 9500 16c8 30000000 		.4byte	.LVL7
 9501 16cc 60000000 		.4byte	.LVL12
 9502 16d0 0100     		.2byte	0x1
 9503 16d2 55       		.byte	0x55
 9504 16d3 60000000 		.4byte	.LVL12
 9505 16d7 A8000000 		.4byte	.LVL22
 9506 16db 0200     		.2byte	0x2
 9507 16dd 30       		.byte	0x30
 9508 16de 9F       		.byte	0x9f
 9509 16df A8000000 		.4byte	.LVL22
 9510 16e3 AA000000 		.4byte	.LVL23
 9511 16e7 0100     		.2byte	0x1
 9512 16e9 55       		.byte	0x55
 9513 16ea AA000000 		.4byte	.LVL23
 9514 16ee 1C010000 		.4byte	.LVL41
 9515 16f2 0200     		.2byte	0x2
ARM GAS  /tmp/ccrwCQMC.s 			page 168


 9516 16f4 30       		.byte	0x30
 9517 16f5 9F       		.byte	0x9f
 9518 16f6 30010000 		.4byte	.LVL43
 9519 16fa 80020000 		.4byte	.LVL92
 9520 16fe 0200     		.2byte	0x2
 9521 1700 30       		.byte	0x30
 9522 1701 9F       		.byte	0x9f
 9523 1702 80020000 		.4byte	.LVL92
 9524 1706 86020000 		.4byte	.LVL95
 9525 170a 0100     		.2byte	0x1
 9526 170c 55       		.byte	0x55
 9527 170d 86020000 		.4byte	.LVL95
 9528 1711 9C020000 		.4byte	.LFE30
 9529 1715 0200     		.2byte	0x2
 9530 1717 30       		.byte	0x30
 9531 1718 9F       		.byte	0x9f
 9532 1719 00000000 		.4byte	0
 9533 171d 00000000 		.4byte	0
 9534              	.LLST6:
 9535 1721 00000000 		.4byte	.LVL2
 9536 1725 30000000 		.4byte	.LVL7
 9537 1729 0200     		.2byte	0x2
 9538 172b 91       		.byte	0x91
 9539 172c 04       		.sleb128 4
 9540 172d 00000000 		.4byte	0
 9541 1731 00000000 		.4byte	0
 9542              	.LLST7:
 9543 1735 22000000 		.4byte	.LVL4
 9544 1739 2C000000 		.4byte	.LVL6
 9545 173d 0100     		.2byte	0x1
 9546 173f 50       		.byte	0x50
 9547 1740 30000000 		.4byte	.LVL7
 9548 1744 36000000 		.4byte	.LVL8
 9549 1748 0100     		.2byte	0x1
 9550 174a 51       		.byte	0x51
 9551 174b 38000000 		.4byte	.LVL9
 9552 174f 60000000 		.4byte	.LVL12
 9553 1753 0100     		.2byte	0x1
 9554 1755 51       		.byte	0x51
 9555 1756 60000000 		.4byte	.LVL12
 9556 175a 6E000000 		.4byte	.LVL15
 9557 175e 0600     		.2byte	0x6
 9558 1760 71       		.byte	0x71
 9559 1761 00       		.sleb128 0
 9560 1762 75       		.byte	0x75
 9561 1763 00       		.sleb128 0
 9562 1764 22       		.byte	0x22
 9563 1765 9F       		.byte	0x9f
 9564 1766 6E000000 		.4byte	.LVL15
 9565 176a 76000000 		.4byte	.LVL16
 9566 176e 0800     		.2byte	0x8
 9567 1770 71       		.byte	0x71
 9568 1771 00       		.sleb128 0
 9569 1772 75       		.byte	0x75
 9570 1773 00       		.sleb128 0
 9571 1774 22       		.byte	0x22
 9572 1775 23       		.byte	0x23
ARM GAS  /tmp/ccrwCQMC.s 			page 169


 9573 1776 01       		.uleb128 0x1
 9574 1777 9F       		.byte	0x9f
 9575 1778 A8000000 		.4byte	.LVL22
 9576 177c E6000000 		.4byte	.LVL32
 9577 1780 0100     		.2byte	0x1
 9578 1782 51       		.byte	0x51
 9579 1783 EC000000 		.4byte	.LVL33
 9580 1787 02010000 		.4byte	.LVL36
 9581 178b 0600     		.2byte	0x6
 9582 178d 71       		.byte	0x71
 9583 178e 00       		.sleb128 0
 9584 178f 75       		.byte	0x75
 9585 1790 00       		.sleb128 0
 9586 1791 22       		.byte	0x22
 9587 1792 9F       		.byte	0x9f
 9588 1793 02010000 		.4byte	.LVL36
 9589 1797 06010000 		.4byte	.LVL37
 9590 179b 0800     		.2byte	0x8
 9591 179d 71       		.byte	0x71
 9592 179e 00       		.sleb128 0
 9593 179f 75       		.byte	0x75
 9594 17a0 00       		.sleb128 0
 9595 17a1 22       		.byte	0x22
 9596 17a2 23       		.byte	0x23
 9597 17a3 02       		.uleb128 0x2
 9598 17a4 9F       		.byte	0x9f
 9599 17a5 30010000 		.4byte	.LVL43
 9600 17a9 44010000 		.4byte	.LVL47
 9601 17ad 0600     		.2byte	0x6
 9602 17af 71       		.byte	0x71
 9603 17b0 00       		.sleb128 0
 9604 17b1 75       		.byte	0x75
 9605 17b2 00       		.sleb128 0
 9606 17b3 22       		.byte	0x22
 9607 17b4 9F       		.byte	0x9f
 9608 17b5 44010000 		.4byte	.LVL47
 9609 17b9 4A010000 		.4byte	.LVL48
 9610 17bd 0800     		.2byte	0x8
 9611 17bf 71       		.byte	0x71
 9612 17c0 00       		.sleb128 0
 9613 17c1 75       		.byte	0x75
 9614 17c2 00       		.sleb128 0
 9615 17c3 22       		.byte	0x22
 9616 17c4 23       		.byte	0x23
 9617 17c5 02       		.uleb128 0x2
 9618 17c6 9F       		.byte	0x9f
 9619 17c7 4A010000 		.4byte	.LVL48
 9620 17cb 76010000 		.4byte	.LVL53
 9621 17cf 0100     		.2byte	0x1
 9622 17d1 51       		.byte	0x51
 9623 17d2 76010000 		.4byte	.LVL53
 9624 17d6 78010000 		.4byte	.LVL54
 9625 17da 0600     		.2byte	0x6
 9626 17dc 71       		.byte	0x71
 9627 17dd 00       		.sleb128 0
 9628 17de 75       		.byte	0x75
 9629 17df 00       		.sleb128 0
ARM GAS  /tmp/ccrwCQMC.s 			page 170


 9630 17e0 22       		.byte	0x22
 9631 17e1 9F       		.byte	0x9f
 9632 17e2 78010000 		.4byte	.LVL54
 9633 17e6 82010000 		.4byte	.LVL56
 9634 17ea 0800     		.2byte	0x8
 9635 17ec 71       		.byte	0x71
 9636 17ed 00       		.sleb128 0
 9637 17ee 75       		.byte	0x75
 9638 17ef 00       		.sleb128 0
 9639 17f0 22       		.byte	0x22
 9640 17f1 23       		.byte	0x23
 9641 17f2 21       		.uleb128 0x21
 9642 17f3 9F       		.byte	0x9f
 9643 17f4 88010000 		.4byte	.LVL58
 9644 17f8 8A010000 		.4byte	.LVL59
 9645 17fc 0600     		.2byte	0x6
 9646 17fe 71       		.byte	0x71
 9647 17ff 00       		.sleb128 0
 9648 1800 75       		.byte	0x75
 9649 1801 00       		.sleb128 0
 9650 1802 22       		.byte	0x22
 9651 1803 9F       		.byte	0x9f
 9652 1804 8A010000 		.4byte	.LVL59
 9653 1808 90010000 		.4byte	.LVL60
 9654 180c 0800     		.2byte	0x8
 9655 180e 71       		.byte	0x71
 9656 180f 00       		.sleb128 0
 9657 1810 75       		.byte	0x75
 9658 1811 00       		.sleb128 0
 9659 1812 22       		.byte	0x22
 9660 1813 23       		.byte	0x23
 9661 1814 09       		.uleb128 0x9
 9662 1815 9F       		.byte	0x9f
 9663 1816 A0010000 		.4byte	.LVL63
 9664 181a DA010000 		.4byte	.LVL70
 9665 181e 0100     		.2byte	0x1
 9666 1820 51       		.byte	0x51
 9667 1821 DC010000 		.4byte	.LVL71
 9668 1825 70020000 		.4byte	.LVL89
 9669 1829 0100     		.2byte	0x1
 9670 182b 51       		.byte	0x51
 9671 182c 80020000 		.4byte	.LVL92
 9672 1830 84020000 		.4byte	.LVL94
 9673 1834 0100     		.2byte	0x1
 9674 1836 51       		.byte	0x51
 9675 1837 86020000 		.4byte	.LVL95
 9676 183b 9C020000 		.4byte	.LFE30
 9677 183f 0100     		.2byte	0x1
 9678 1841 51       		.byte	0x51
 9679 1842 00000000 		.4byte	0
 9680 1846 00000000 		.4byte	0
 9681              	.LLST8:
 9682 184a 22000000 		.4byte	.LVL4
 9683 184e 30000000 		.4byte	.LVL7
 9684 1852 0100     		.2byte	0x1
 9685 1854 52       		.byte	0x52
 9686 1855 30000000 		.4byte	.LVL7
ARM GAS  /tmp/ccrwCQMC.s 			page 171


 9687 1859 68000000 		.4byte	.LVL13
 9688 185d 0100     		.2byte	0x1
 9689 185f 54       		.byte	0x54
 9690 1860 68000000 		.4byte	.LVL13
 9691 1864 7A000000 		.4byte	.LVL17
 9692 1868 0300     		.2byte	0x3
 9693 186a 74       		.byte	0x74
 9694 186b 01       		.sleb128 1
 9695 186c 9F       		.byte	0x9f
 9696 186d 7A000000 		.4byte	.LVL17
 9697 1871 84000000 		.4byte	.LVL19
 9698 1875 0100     		.2byte	0x1
 9699 1877 56       		.byte	0x56
 9700 1878 84000000 		.4byte	.LVL19
 9701 187c C6000000 		.4byte	.LVL26
 9702 1880 0100     		.2byte	0x1
 9703 1882 54       		.byte	0x54
 9704 1883 C6000000 		.4byte	.LVL26
 9705 1887 C8000000 		.4byte	.LVL27
 9706 188b 0600     		.2byte	0x6
 9707 188d 74       		.byte	0x74
 9708 188e 00       		.sleb128 0
 9709 188f 7C       		.byte	0x7c
 9710 1890 00       		.sleb128 0
 9711 1891 22       		.byte	0x22
 9712 1892 9F       		.byte	0x9f
 9713 1893 C8000000 		.4byte	.LVL27
 9714 1897 00010000 		.4byte	.LVL35
 9715 189b 0100     		.2byte	0x1
 9716 189d 54       		.byte	0x54
 9717 189e 00010000 		.4byte	.LVL35
 9718 18a2 08010000 		.4byte	.LVL38
 9719 18a6 0300     		.2byte	0x3
 9720 18a8 74       		.byte	0x74
 9721 18a9 01       		.sleb128 1
 9722 18aa 9F       		.byte	0x9f
 9723 18ab 08010000 		.4byte	.LVL38
 9724 18af 16010000 		.4byte	.LVL40
 9725 18b3 0300     		.2byte	0x3
 9726 18b5 76       		.byte	0x76
 9727 18b6 01       		.sleb128 1
 9728 18b7 9F       		.byte	0x9f
 9729 18b8 16010000 		.4byte	.LVL40
 9730 18bc 20010000 		.4byte	.LVL42
 9731 18c0 0100     		.2byte	0x1
 9732 18c2 54       		.byte	0x54
 9733 18c3 30010000 		.4byte	.LVL43
 9734 18c7 42010000 		.4byte	.LVL46
 9735 18cb 0100     		.2byte	0x1
 9736 18cd 54       		.byte	0x54
 9737 18ce 42010000 		.4byte	.LVL46
 9738 18d2 4A010000 		.4byte	.LVL48
 9739 18d6 0300     		.2byte	0x3
 9740 18d8 74       		.byte	0x74
 9741 18d9 01       		.sleb128 1
 9742 18da 9F       		.byte	0x9f
 9743 18db 4A010000 		.4byte	.LVL48
ARM GAS  /tmp/ccrwCQMC.s 			page 172


 9744 18df 50010000 		.4byte	.LVL49
 9745 18e3 0100     		.2byte	0x1
 9746 18e5 54       		.byte	0x54
 9747 18e6 50010000 		.4byte	.LVL49
 9748 18ea 6C010000 		.4byte	.LVL50
 9749 18ee 0300     		.2byte	0x3
 9750 18f0 74       		.byte	0x74
 9751 18f1 01       		.sleb128 1
 9752 18f2 9F       		.byte	0x9f
 9753 18f3 6C010000 		.4byte	.LVL50
 9754 18f7 74010000 		.4byte	.LVL52
 9755 18fb 0800     		.2byte	0x8
 9756 18fd 74       		.byte	0x74
 9757 18fe 00       		.sleb128 0
 9758 18ff 7C       		.byte	0x7c
 9759 1900 00       		.sleb128 0
 9760 1901 22       		.byte	0x22
 9761 1902 23       		.byte	0x23
 9762 1903 01       		.uleb128 0x1
 9763 1904 9F       		.byte	0x9f
 9764 1905 74010000 		.4byte	.LVL52
 9765 1909 78010000 		.4byte	.LVL54
 9766 190d 0100     		.2byte	0x1
 9767 190f 54       		.byte	0x54
 9768 1910 78010000 		.4byte	.LVL54
 9769 1914 82010000 		.4byte	.LVL56
 9770 1918 0300     		.2byte	0x3
 9771 191a 74       		.byte	0x74
 9772 191b 01       		.sleb128 1
 9773 191c 9F       		.byte	0x9f
 9774 191d 82010000 		.4byte	.LVL56
 9775 1921 86010000 		.4byte	.LVL57
 9776 1925 0300     		.2byte	0x3
 9777 1927 76       		.byte	0x76
 9778 1928 01       		.sleb128 1
 9779 1929 9F       		.byte	0x9f
 9780 192a 86010000 		.4byte	.LVL57
 9781 192e 88010000 		.4byte	.LVL58
 9782 1932 0100     		.2byte	0x1
 9783 1934 56       		.byte	0x56
 9784 1935 88010000 		.4byte	.LVL58
 9785 1939 8A010000 		.4byte	.LVL59
 9786 193d 0100     		.2byte	0x1
 9787 193f 54       		.byte	0x54
 9788 1940 8A010000 		.4byte	.LVL59
 9789 1944 90010000 		.4byte	.LVL60
 9790 1948 0300     		.2byte	0x3
 9791 194a 74       		.byte	0x74
 9792 194b 01       		.sleb128 1
 9793 194c 9F       		.byte	0x9f
 9794 194d 90010000 		.4byte	.LVL60
 9795 1951 A0010000 		.4byte	.LVL63
 9796 1955 0100     		.2byte	0x1
 9797 1957 56       		.byte	0x56
 9798 1958 A0010000 		.4byte	.LVL63
 9799 195c E6010000 		.4byte	.LVL72
 9800 1960 0100     		.2byte	0x1
ARM GAS  /tmp/ccrwCQMC.s 			page 173


 9801 1962 54       		.byte	0x54
 9802 1963 E6010000 		.4byte	.LVL72
 9803 1967 EC010000 		.4byte	.LVL73
 9804 196b 0300     		.2byte	0x3
 9805 196d 74       		.byte	0x74
 9806 196e 01       		.sleb128 1
 9807 196f 9F       		.byte	0x9f
 9808 1970 04020000 		.4byte	.LVL74
 9809 1974 06020000 		.4byte	.LVL75
 9810 1978 0100     		.2byte	0x1
 9811 197a 54       		.byte	0x54
 9812 197b 06020000 		.4byte	.LVL75
 9813 197f 1A020000 		.4byte	.LVL76
 9814 1983 0100     		.2byte	0x1
 9815 1985 56       		.byte	0x56
 9816 1986 1A020000 		.4byte	.LVL76
 9817 198a 3C020000 		.4byte	.LVL79
 9818 198e 0100     		.2byte	0x1
 9819 1990 54       		.byte	0x54
 9820 1991 3C020000 		.4byte	.LVL79
 9821 1995 48020000 		.4byte	.LVL81
 9822 1999 0300     		.2byte	0x3
 9823 199b 76       		.byte	0x76
 9824 199c 10       		.sleb128 16
 9825 199d 9F       		.byte	0x9f
 9826 199e 48020000 		.4byte	.LVL81
 9827 19a2 4C020000 		.4byte	.LVL82
 9828 19a6 0600     		.2byte	0x6
 9829 19a8 76       		.byte	0x76
 9830 19a9 00       		.sleb128 0
 9831 19aa 7C       		.byte	0x7c
 9832 19ab 00       		.sleb128 0
 9833 19ac 22       		.byte	0x22
 9834 19ad 9F       		.byte	0x9f
 9835 19ae 4C020000 		.4byte	.LVL82
 9836 19b2 52020000 		.4byte	.LVL84
 9837 19b6 0100     		.2byte	0x1
 9838 19b8 54       		.byte	0x54
 9839 19b9 52020000 		.4byte	.LVL84
 9840 19bd 5E020000 		.4byte	.LVL85
 9841 19c1 0300     		.2byte	0x3
 9842 19c3 74       		.byte	0x74
 9843 19c4 01       		.sleb128 1
 9844 19c5 9F       		.byte	0x9f
 9845 19c6 5E020000 		.4byte	.LVL85
 9846 19ca 62020000 		.4byte	.LVL86
 9847 19ce 0300     		.2byte	0x3
 9848 19d0 76       		.byte	0x76
 9849 19d1 01       		.sleb128 1
 9850 19d2 9F       		.byte	0x9f
 9851 19d3 62020000 		.4byte	.LVL86
 9852 19d7 64020000 		.4byte	.LVL87
 9853 19db 0100     		.2byte	0x1
 9854 19dd 56       		.byte	0x56
 9855 19de 64020000 		.4byte	.LVL87
 9856 19e2 70020000 		.4byte	.LVL89
 9857 19e6 0100     		.2byte	0x1
ARM GAS  /tmp/ccrwCQMC.s 			page 174


 9858 19e8 54       		.byte	0x54
 9859 19e9 70020000 		.4byte	.LVL89
 9860 19ed 80020000 		.4byte	.LVL92
 9861 19f1 0100     		.2byte	0x1
 9862 19f3 56       		.byte	0x56
 9863 19f4 80020000 		.4byte	.LVL92
 9864 19f8 86020000 		.4byte	.LVL95
 9865 19fc 0100     		.2byte	0x1
 9866 19fe 54       		.byte	0x54
 9867 19ff 86020000 		.4byte	.LVL95
 9868 1a03 9C020000 		.4byte	.LFE30
 9869 1a07 0100     		.2byte	0x1
 9870 1a09 56       		.byte	0x56
 9871 1a0a 00000000 		.4byte	0
 9872 1a0e 00000000 		.4byte	0
 9873              	.LLST9:
 9874 1a12 22000000 		.4byte	.LVL4
 9875 1a16 30000000 		.4byte	.LVL7
 9876 1a1a 0100     		.2byte	0x1
 9877 1a1c 53       		.byte	0x53
 9878 1a1d 30000000 		.4byte	.LVL7
 9879 1a21 1C010000 		.4byte	.LVL41
 9880 1a25 0700     		.2byte	0x7
 9881 1a27 70       		.byte	0x70
 9882 1a28 00       		.sleb128 0
 9883 1a29 F3       		.byte	0xf3
 9884 1a2a 01       		.uleb128 0x1
 9885 1a2b 51       		.byte	0x51
 9886 1a2c 22       		.byte	0x22
 9887 1a2d 9F       		.byte	0x9f
 9888 1a2e 1C010000 		.4byte	.LVL41
 9889 1a32 30010000 		.4byte	.LVL43
 9890 1a36 0800     		.2byte	0x8
 9891 1a38 F3       		.byte	0xf3
 9892 1a39 01       		.uleb128 0x1
 9893 1a3a 50       		.byte	0x50
 9894 1a3b F3       		.byte	0xf3
 9895 1a3c 01       		.uleb128 0x1
 9896 1a3d 51       		.byte	0x51
 9897 1a3e 22       		.byte	0x22
 9898 1a3f 9F       		.byte	0x9f
 9899 1a40 30010000 		.4byte	.LVL43
 9900 1a44 82020000 		.4byte	.LVL93
 9901 1a48 0700     		.2byte	0x7
 9902 1a4a 70       		.byte	0x70
 9903 1a4b 00       		.sleb128 0
 9904 1a4c F3       		.byte	0xf3
 9905 1a4d 01       		.uleb128 0x1
 9906 1a4e 51       		.byte	0x51
 9907 1a4f 22       		.byte	0x22
 9908 1a50 9F       		.byte	0x9f
 9909 1a51 82020000 		.4byte	.LVL93
 9910 1a55 86020000 		.4byte	.LVL95
 9911 1a59 0800     		.2byte	0x8
 9912 1a5b F3       		.byte	0xf3
 9913 1a5c 01       		.uleb128 0x1
 9914 1a5d 50       		.byte	0x50
ARM GAS  /tmp/ccrwCQMC.s 			page 175


 9915 1a5e F3       		.byte	0xf3
 9916 1a5f 01       		.uleb128 0x1
 9917 1a60 51       		.byte	0x51
 9918 1a61 22       		.byte	0x22
 9919 1a62 9F       		.byte	0x9f
 9920 1a63 86020000 		.4byte	.LVL95
 9921 1a67 9C020000 		.4byte	.LFE30
 9922 1a6b 0700     		.2byte	0x7
 9923 1a6d 70       		.byte	0x70
 9924 1a6e 00       		.sleb128 0
 9925 1a6f F3       		.byte	0xf3
 9926 1a70 01       		.uleb128 0x1
 9927 1a71 51       		.byte	0x51
 9928 1a72 22       		.byte	0x22
 9929 1a73 9F       		.byte	0x9f
 9930 1a74 00000000 		.4byte	0
 9931 1a78 00000000 		.4byte	0
 9932              	.LLST10:
 9933 1a7c 22000000 		.4byte	.LVL4
 9934 1a80 30000000 		.4byte	.LVL7
 9935 1a84 0100     		.2byte	0x1
 9936 1a86 5C       		.byte	0x5c
 9937 1a87 30000000 		.4byte	.LVL7
 9938 1a8b 9C020000 		.4byte	.LFE30
 9939 1a8f 0100     		.2byte	0x1
 9940 1a91 5A       		.byte	0x5a
 9941 1a92 00000000 		.4byte	0
 9942 1a96 00000000 		.4byte	0
 9943              	.LLST11:
 9944 1a9a 22000000 		.4byte	.LVL4
 9945 1a9e 30000000 		.4byte	.LVL7
 9946 1aa2 0100     		.2byte	0x1
 9947 1aa4 50       		.byte	0x50
 9948 1aa5 30000000 		.4byte	.LVL7
 9949 1aa9 60000000 		.4byte	.LVL12
 9950 1aad 0100     		.2byte	0x1
 9951 1aaf 56       		.byte	0x56
 9952 1ab0 60000000 		.4byte	.LVL12
 9953 1ab4 6E000000 		.4byte	.LVL15
 9954 1ab8 0600     		.2byte	0x6
 9955 1aba 71       		.byte	0x71
 9956 1abb 00       		.sleb128 0
 9957 1abc 75       		.byte	0x75
 9958 1abd 00       		.sleb128 0
 9959 1abe 22       		.byte	0x22
 9960 1abf 9F       		.byte	0x9f
 9961 1ac0 6E000000 		.4byte	.LVL15
 9962 1ac4 76000000 		.4byte	.LVL16
 9963 1ac8 0800     		.2byte	0x8
 9964 1aca 71       		.byte	0x71
 9965 1acb 00       		.sleb128 0
 9966 1acc 75       		.byte	0x75
 9967 1acd 00       		.sleb128 0
 9968 1ace 22       		.byte	0x22
 9969 1acf 23       		.byte	0x23
 9970 1ad0 01       		.uleb128 0x1
 9971 1ad1 9F       		.byte	0x9f
ARM GAS  /tmp/ccrwCQMC.s 			page 176


 9972 1ad2 A8000000 		.4byte	.LVL22
 9973 1ad6 AA000000 		.4byte	.LVL23
 9974 1ada 0100     		.2byte	0x1
 9975 1adc 56       		.byte	0x56
 9976 1add AA000000 		.4byte	.LVL23
 9977 1ae1 C4000000 		.4byte	.LVL25
 9978 1ae5 0100     		.2byte	0x1
 9979 1ae7 55       		.byte	0x55
 9980 1ae8 EC000000 		.4byte	.LVL33
 9981 1aec 02010000 		.4byte	.LVL36
 9982 1af0 0600     		.2byte	0x6
 9983 1af2 71       		.byte	0x71
 9984 1af3 00       		.sleb128 0
 9985 1af4 75       		.byte	0x75
 9986 1af5 00       		.sleb128 0
 9987 1af6 22       		.byte	0x22
 9988 1af7 9F       		.byte	0x9f
 9989 1af8 02010000 		.4byte	.LVL36
 9990 1afc 06010000 		.4byte	.LVL37
 9991 1b00 0800     		.2byte	0x8
 9992 1b02 71       		.byte	0x71
 9993 1b03 00       		.sleb128 0
 9994 1b04 75       		.byte	0x75
 9995 1b05 00       		.sleb128 0
 9996 1b06 22       		.byte	0x22
 9997 1b07 23       		.byte	0x23
 9998 1b08 02       		.uleb128 0x2
 9999 1b09 9F       		.byte	0x9f
 10000 1b0a 30010000 		.4byte	.LVL43
 10001 1b0e 44010000 		.4byte	.LVL47
 10002 1b12 0600     		.2byte	0x6
 10003 1b14 71       		.byte	0x71
 10004 1b15 00       		.sleb128 0
 10005 1b16 75       		.byte	0x75
 10006 1b17 00       		.sleb128 0
 10007 1b18 22       		.byte	0x22
 10008 1b19 9F       		.byte	0x9f
 10009 1b1a 44010000 		.4byte	.LVL47
 10010 1b1e 4A010000 		.4byte	.LVL48
 10011 1b22 0800     		.2byte	0x8
 10012 1b24 71       		.byte	0x71
 10013 1b25 00       		.sleb128 0
 10014 1b26 75       		.byte	0x75
 10015 1b27 00       		.sleb128 0
 10016 1b28 22       		.byte	0x22
 10017 1b29 23       		.byte	0x23
 10018 1b2a 02       		.uleb128 0x2
 10019 1b2b 9F       		.byte	0x9f
 10020 1b2c 4A010000 		.4byte	.LVL48
 10021 1b30 6E010000 		.4byte	.LVL51
 10022 1b34 0100     		.2byte	0x1
 10023 1b36 55       		.byte	0x55
 10024 1b37 76010000 		.4byte	.LVL53
 10025 1b3b 78010000 		.4byte	.LVL54
 10026 1b3f 0600     		.2byte	0x6
 10027 1b41 71       		.byte	0x71
 10028 1b42 00       		.sleb128 0
ARM GAS  /tmp/ccrwCQMC.s 			page 177


 10029 1b43 75       		.byte	0x75
 10030 1b44 00       		.sleb128 0
 10031 1b45 22       		.byte	0x22
 10032 1b46 9F       		.byte	0x9f
 10033 1b47 78010000 		.4byte	.LVL54
 10034 1b4b 82010000 		.4byte	.LVL56
 10035 1b4f 0800     		.2byte	0x8
 10036 1b51 71       		.byte	0x71
 10037 1b52 00       		.sleb128 0
 10038 1b53 75       		.byte	0x75
 10039 1b54 00       		.sleb128 0
 10040 1b55 22       		.byte	0x22
 10041 1b56 23       		.byte	0x23
 10042 1b57 21       		.uleb128 0x21
 10043 1b58 9F       		.byte	0x9f
 10044 1b59 88010000 		.4byte	.LVL58
 10045 1b5d 8A010000 		.4byte	.LVL59
 10046 1b61 0600     		.2byte	0x6
 10047 1b63 71       		.byte	0x71
 10048 1b64 00       		.sleb128 0
 10049 1b65 75       		.byte	0x75
 10050 1b66 00       		.sleb128 0
 10051 1b67 22       		.byte	0x22
 10052 1b68 9F       		.byte	0x9f
 10053 1b69 8A010000 		.4byte	.LVL59
 10054 1b6d 90010000 		.4byte	.LVL60
 10055 1b71 0800     		.2byte	0x8
 10056 1b73 71       		.byte	0x71
 10057 1b74 00       		.sleb128 0
 10058 1b75 75       		.byte	0x75
 10059 1b76 00       		.sleb128 0
 10060 1b77 22       		.byte	0x22
 10061 1b78 23       		.byte	0x23
 10062 1b79 09       		.uleb128 0x9
 10063 1b7a 9F       		.byte	0x9f
 10064 1b7b DC010000 		.4byte	.LVL71
 10065 1b7f 04020000 		.4byte	.LVL74
 10066 1b83 0100     		.2byte	0x1
 10067 1b85 55       		.byte	0x55
 10068 1b86 04020000 		.4byte	.LVL74
 10069 1b8a 2C020000 		.4byte	.LVL78
 10070 1b8e 0100     		.2byte	0x1
 10071 1b90 57       		.byte	0x57
 10072 1b91 3C020000 		.4byte	.LVL79
 10073 1b95 40020000 		.4byte	.LVL80
 10074 1b99 0100     		.2byte	0x1
 10075 1b9b 55       		.byte	0x55
 10076 1b9c 40020000 		.4byte	.LVL80
 10077 1ba0 4E020000 		.4byte	.LVL83
 10078 1ba4 0300     		.2byte	0x3
 10079 1ba6 75       		.byte	0x75
 10080 1ba7 7F       		.sleb128 -1
 10081 1ba8 9F       		.byte	0x9f
 10082 1ba9 4E020000 		.4byte	.LVL83
 10083 1bad 64020000 		.4byte	.LVL87
 10084 1bb1 0100     		.2byte	0x1
 10085 1bb3 55       		.byte	0x55
ARM GAS  /tmp/ccrwCQMC.s 			page 178


 10086 1bb4 80020000 		.4byte	.LVL92
 10087 1bb8 86020000 		.4byte	.LVL95
 10088 1bbc 0100     		.2byte	0x1
 10089 1bbe 56       		.byte	0x56
 10090 1bbf 86020000 		.4byte	.LVL95
 10091 1bc3 9C020000 		.4byte	.LFE30
 10092 1bc7 0100     		.2byte	0x1
 10093 1bc9 55       		.byte	0x55
 10094 1bca 00000000 		.4byte	0
 10095 1bce 00000000 		.4byte	0
 10096              	.LLST12:
 10097 1bd2 5A000000 		.4byte	.LVL11
 10098 1bd6 6A000000 		.4byte	.LVL14
 10099 1bda 0100     		.2byte	0x1
 10100 1bdc 52       		.byte	0x52
 10101 1bdd 9E000000 		.4byte	.LVL21
 10102 1be1 08010000 		.4byte	.LVL38
 10103 1be5 0100     		.2byte	0x1
 10104 1be7 52       		.byte	0x52
 10105 1be8 30010000 		.4byte	.LVL43
 10106 1bec 36010000 		.4byte	.LVL45
 10107 1bf0 0100     		.2byte	0x1
 10108 1bf2 52       		.byte	0x52
 10109 1bf3 4A010000 		.4byte	.LVL48
 10110 1bf7 7C010000 		.4byte	.LVL55
 10111 1bfb 0100     		.2byte	0x1
 10112 1bfd 52       		.byte	0x52
 10113 1bfe A0010000 		.4byte	.LVL63
 10114 1c02 70020000 		.4byte	.LVL89
 10115 1c06 0100     		.2byte	0x1
 10116 1c08 52       		.byte	0x52
 10117 1c09 86020000 		.4byte	.LVL95
 10118 1c0d 9C020000 		.4byte	.LFE30
 10119 1c11 0100     		.2byte	0x1
 10120 1c13 52       		.byte	0x52
 10121 1c14 00000000 		.4byte	0
 10122 1c18 00000000 		.4byte	0
 10123              	.LLST13:
 10124 1c1c 60000000 		.4byte	.LVL12
 10125 1c20 7C000000 		.4byte	.LVL18
 10126 1c24 0100     		.2byte	0x1
 10127 1c26 53       		.byte	0x53
 10128 1c27 EC000000 		.4byte	.LVL33
 10129 1c2b 12010000 		.4byte	.LVL39
 10130 1c2f 0100     		.2byte	0x1
 10131 1c31 53       		.byte	0x53
 10132 1c32 30010000 		.4byte	.LVL43
 10133 1c36 4A010000 		.4byte	.LVL48
 10134 1c3a 0100     		.2byte	0x1
 10135 1c3c 53       		.byte	0x53
 10136 1c3d 76010000 		.4byte	.LVL53
 10137 1c41 A0010000 		.4byte	.LVL63
 10138 1c45 0100     		.2byte	0x1
 10139 1c47 53       		.byte	0x53
 10140 1c48 70020000 		.4byte	.LVL89
 10141 1c4c 80020000 		.4byte	.LVL92
 10142 1c50 0100     		.2byte	0x1
ARM GAS  /tmp/ccrwCQMC.s 			page 179


 10143 1c52 53       		.byte	0x53
 10144 1c53 00000000 		.4byte	0
 10145 1c57 00000000 		.4byte	0
 10146              	.LLST14:
 10147 1c5b 60000000 		.4byte	.LVL12
 10148 1c5f 6E000000 		.4byte	.LVL15
 10149 1c63 0100     		.2byte	0x1
 10150 1c65 55       		.byte	0x55
 10151 1c66 6E000000 		.4byte	.LVL15
 10152 1c6a 76000000 		.4byte	.LVL16
 10153 1c6e 0300     		.2byte	0x3
 10154 1c70 75       		.byte	0x75
 10155 1c71 01       		.sleb128 1
 10156 1c72 9F       		.byte	0x9f
 10157 1c73 C8000000 		.4byte	.LVL27
 10158 1c77 D8000000 		.4byte	.LVL29
 10159 1c7b 0200     		.2byte	0x2
 10160 1c7d 34       		.byte	0x34
 10161 1c7e 9F       		.byte	0x9f
 10162 1c7f D8000000 		.4byte	.LVL29
 10163 1c83 02010000 		.4byte	.LVL36
 10164 1c87 0100     		.2byte	0x1
 10165 1c89 55       		.byte	0x55
 10166 1c8a 02010000 		.4byte	.LVL36
 10167 1c8e 06010000 		.4byte	.LVL37
 10168 1c92 0300     		.2byte	0x3
 10169 1c94 75       		.byte	0x75
 10170 1c95 02       		.sleb128 2
 10171 1c96 9F       		.byte	0x9f
 10172 1c97 30010000 		.4byte	.LVL43
 10173 1c9b 44010000 		.4byte	.LVL47
 10174 1c9f 0100     		.2byte	0x1
 10175 1ca1 55       		.byte	0x55
 10176 1ca2 44010000 		.4byte	.LVL47
 10177 1ca6 4A010000 		.4byte	.LVL48
 10178 1caa 0300     		.2byte	0x3
 10179 1cac 75       		.byte	0x75
 10180 1cad 02       		.sleb128 2
 10181 1cae 9F       		.byte	0x9f
 10182 1caf 76010000 		.4byte	.LVL53
 10183 1cb3 A0010000 		.4byte	.LVL63
 10184 1cb7 0100     		.2byte	0x1
 10185 1cb9 55       		.byte	0x55
 10186 1cba A0010000 		.4byte	.LVL63
 10187 1cbe AE010000 		.4byte	.LVL64
 10188 1cc2 0200     		.2byte	0x2
 10189 1cc4 34       		.byte	0x34
 10190 1cc5 9F       		.byte	0x9f
 10191 1cc6 AE010000 		.4byte	.LVL64
 10192 1cca B6010000 		.4byte	.LVL65
 10193 1cce 0100     		.2byte	0x1
 10194 1cd0 58       		.byte	0x58
 10195 1cd1 B6010000 		.4byte	.LVL65
 10196 1cd5 C2010000 		.4byte	.LVL66
 10197 1cd9 0800     		.2byte	0x8
 10198 1cdb 77       		.byte	0x77
 10199 1cdc 00       		.sleb128 0
ARM GAS  /tmp/ccrwCQMC.s 			page 180


 10200 1cdd 72       		.byte	0x72
 10201 1cde 00       		.sleb128 0
 10202 1cdf 1C       		.byte	0x1c
 10203 1ce0 34       		.byte	0x34
 10204 1ce1 1C       		.byte	0x1c
 10205 1ce2 9F       		.byte	0x9f
 10206 1ce3 C2010000 		.4byte	.LVL66
 10207 1ce7 DC010000 		.4byte	.LVL71
 10208 1ceb 0100     		.2byte	0x1
 10209 1ced 58       		.byte	0x58
 10210 1cee 64020000 		.4byte	.LVL87
 10211 1cf2 68020000 		.4byte	.LVL88
 10212 1cf6 0100     		.2byte	0x1
 10213 1cf8 58       		.byte	0x58
 10214 1cf9 68020000 		.4byte	.LVL88
 10215 1cfd 70020000 		.4byte	.LVL89
 10216 1d01 0100     		.2byte	0x1
 10217 1d03 57       		.byte	0x57
 10218 1d04 70020000 		.4byte	.LVL89
 10219 1d08 80020000 		.4byte	.LVL92
 10220 1d0c 0100     		.2byte	0x1
 10221 1d0e 55       		.byte	0x55
 10222 1d0f 00000000 		.4byte	0
 10223 1d13 00000000 		.4byte	0
 10224              	.LLST15:
 10225 1d17 86000000 		.4byte	.LVL20
 10226 1d1b A8000000 		.4byte	.LVL22
 10227 1d1f 0100     		.2byte	0x1
 10228 1d21 57       		.byte	0x57
 10229 1d22 00000000 		.4byte	0
 10230 1d26 00000000 		.4byte	0
 10231              	.LLST16:
 10232 1d2a 86000000 		.4byte	.LVL20
 10233 1d2e A8000000 		.4byte	.LVL22
 10234 1d32 0B00     		.2byte	0xb
 10235 1d34 77       		.byte	0x77
 10236 1d35 00       		.sleb128 0
 10237 1d36 0C       		.byte	0xc
 10238 1d37 9D422418 		.4byte	0x1824429d
 10239 1d3b 1E       		.byte	0x1e
 10240 1d3c 42       		.byte	0x42
 10241 1d3d 25       		.byte	0x25
 10242 1d3e 9F       		.byte	0x9f
 10243 1d3f 00000000 		.4byte	0
 10244 1d43 00000000 		.4byte	0
 10245              	.LLST17:
 10246 1d47 AA000000 		.4byte	.LVL23
 10247 1d4b AE000000 		.4byte	.LVL24
 10248 1d4f 0600     		.2byte	0x6
 10249 1d51 71       		.byte	0x71
 10250 1d52 00       		.sleb128 0
 10251 1d53 75       		.byte	0x75
 10252 1d54 00       		.sleb128 0
 10253 1d55 1C       		.byte	0x1c
 10254 1d56 9F       		.byte	0x9f
 10255 1d57 AE000000 		.4byte	.LVL24
 10256 1d5b C8000000 		.4byte	.LVL27
ARM GAS  /tmp/ccrwCQMC.s 			page 181


 10257 1d5f 0100     		.2byte	0x1
 10258 1d61 5C       		.byte	0x5c
 10259 1d62 4A010000 		.4byte	.LVL48
 10260 1d66 6C010000 		.4byte	.LVL50
 10261 1d6a 0100     		.2byte	0x1
 10262 1d6c 5C       		.byte	0x5c
 10263 1d6d 6C010000 		.4byte	.LVL50
 10264 1d71 76010000 		.4byte	.LVL53
 10265 1d75 0300     		.2byte	0x3
 10266 1d77 7C       		.byte	0x7c
 10267 1d78 7F       		.sleb128 -1
 10268 1d79 9F       		.byte	0x9f
 10269 1d7a DC010000 		.4byte	.LVL71
 10270 1d7e 04020000 		.4byte	.LVL74
 10271 1d82 0100     		.2byte	0x1
 10272 1d84 5C       		.byte	0x5c
 10273 1d85 4E020000 		.4byte	.LVL83
 10274 1d89 64020000 		.4byte	.LVL87
 10275 1d8d 0100     		.2byte	0x1
 10276 1d8f 5C       		.byte	0x5c
 10277 1d90 86020000 		.4byte	.LVL95
 10278 1d94 9C020000 		.4byte	.LFE30
 10279 1d98 0100     		.2byte	0x1
 10280 1d9a 5C       		.byte	0x5c
 10281 1d9b 00000000 		.4byte	0
 10282 1d9f 00000000 		.4byte	0
 10283              	.LLST18:
 10284 1da3 52020000 		.4byte	.LVL84
 10285 1da7 64020000 		.4byte	.LVL87
 10286 1dab 0100     		.2byte	0x1
 10287 1dad 57       		.byte	0x57
 10288 1dae 86020000 		.4byte	.LVL95
 10289 1db2 9C020000 		.4byte	.LFE30
 10290 1db6 0100     		.2byte	0x1
 10291 1db8 57       		.byte	0x57
 10292 1db9 00000000 		.4byte	0
 10293 1dbd 00000000 		.4byte	0
 10294              	.LLST19:
 10295 1dc1 88020000 		.4byte	.LVL96
 10296 1dc5 92020000 		.4byte	.LVL97
 10297 1dc9 0100     		.2byte	0x1
 10298 1dcb 56       		.byte	0x56
 10299 1dcc 92020000 		.4byte	.LVL97
 10300 1dd0 9C020000 		.4byte	.LFE30
 10301 1dd4 0300     		.2byte	0x3
 10302 1dd6 76       		.byte	0x76
 10303 1dd7 7F       		.sleb128 -1
 10304 1dd8 9F       		.byte	0x9f
 10305 1dd9 00000000 		.4byte	0
 10306 1ddd 00000000 		.4byte	0
 10307              	.LLST20:
 10308 1de1 D2000000 		.4byte	.LVL28
 10309 1de5 DC000000 		.4byte	.LVL30
 10310 1de9 0100     		.2byte	0x1
 10311 1deb 56       		.byte	0x56
 10312 1dec A0010000 		.4byte	.LVL63
 10313 1df0 AE010000 		.4byte	.LVL64
ARM GAS  /tmp/ccrwCQMC.s 			page 182


 10314 1df4 0100     		.2byte	0x1
 10315 1df6 56       		.byte	0x56
 10316 1df7 AE010000 		.4byte	.LVL64
 10317 1dfb B6010000 		.4byte	.LVL65
 10318 1dff 0600     		.2byte	0x6
 10319 1e01 76       		.byte	0x76
 10320 1e02 00       		.sleb128 0
 10321 1e03 75       		.byte	0x75
 10322 1e04 00       		.sleb128 0
 10323 1e05 27       		.byte	0x27
 10324 1e06 9F       		.byte	0x9f
 10325 1e07 C2010000 		.4byte	.LVL66
 10326 1e0b CA010000 		.4byte	.LVL67
 10327 1e0f 0600     		.2byte	0x6
 10328 1e11 76       		.byte	0x76
 10329 1e12 00       		.sleb128 0
 10330 1e13 75       		.byte	0x75
 10331 1e14 00       		.sleb128 0
 10332 1e15 27       		.byte	0x27
 10333 1e16 9F       		.byte	0x9f
 10334 1e17 D0010000 		.4byte	.LVL68
 10335 1e1b D8010000 		.4byte	.LVL69
 10336 1e1f 0600     		.2byte	0x6
 10337 1e21 76       		.byte	0x76
 10338 1e22 00       		.sleb128 0
 10339 1e23 75       		.byte	0x75
 10340 1e24 00       		.sleb128 0
 10341 1e25 27       		.byte	0x27
 10342 1e26 9F       		.byte	0x9f
 10343 1e27 00000000 		.4byte	0
 10344 1e2b 00000000 		.4byte	0
 10345              	.LLST22:
 10346 1e2f 72020000 		.4byte	.LVL90
 10347 1e33 7C020000 		.4byte	.LVL91
 10348 1e37 0100     		.2byte	0x1
 10349 1e39 56       		.byte	0x56
 10350 1e3a 7C020000 		.4byte	.LVL91
 10351 1e3e 80020000 		.4byte	.LVL92
 10352 1e42 0300     		.2byte	0x3
 10353 1e44 76       		.byte	0x76
 10354 1e45 7F       		.sleb128 -1
 10355 1e46 9F       		.byte	0x9f
 10356 1e47 00000000 		.4byte	0
 10357 1e4b 00000000 		.4byte	0
 10358              	.LLST21:
 10359 1e4f 92010000 		.4byte	.LVL61
 10360 1e53 9C010000 		.4byte	.LVL62
 10361 1e57 0100     		.2byte	0x1
 10362 1e59 56       		.byte	0x56
 10363 1e5a 9C010000 		.4byte	.LVL62
 10364 1e5e A0010000 		.4byte	.LVL63
 10365 1e62 0300     		.2byte	0x3
 10366 1e64 76       		.byte	0x76
 10367 1e65 7F       		.sleb128 -1
 10368 1e66 9F       		.byte	0x9f
 10369 1e67 00000000 		.4byte	0
 10370 1e6b 00000000 		.4byte	0
ARM GAS  /tmp/ccrwCQMC.s 			page 183


 10371              	.LLST50:
 10372 1e6f 00000000 		.4byte	.LVL177
 10373 1e73 12000000 		.4byte	.LVL178
 10374 1e77 0100     		.2byte	0x1
 10375 1e79 50       		.byte	0x50
 10376 1e7a 12000000 		.4byte	.LVL178
 10377 1e7e 6E000000 		.4byte	.LFE29
 10378 1e82 0400     		.2byte	0x4
 10379 1e84 F3       		.byte	0xf3
 10380 1e85 01       		.uleb128 0x1
 10381 1e86 50       		.byte	0x50
 10382 1e87 9F       		.byte	0x9f
 10383 1e88 00000000 		.4byte	0
 10384 1e8c 00000000 		.4byte	0
 10385              	.LLST51:
 10386 1e90 00000000 		.4byte	.LVL177
 10387 1e94 1A000000 		.4byte	.LVL179
 10388 1e98 0100     		.2byte	0x1
 10389 1e9a 51       		.byte	0x51
 10390 1e9b 1A000000 		.4byte	.LVL179
 10391 1e9f 2A000000 		.4byte	.LVL181
 10392 1ea3 0300     		.2byte	0x3
 10393 1ea5 70       		.byte	0x70
 10394 1ea6 7F       		.sleb128 -1
 10395 1ea7 9F       		.byte	0x9f
 10396 1ea8 2A000000 		.4byte	.LVL181
 10397 1eac 6E000000 		.4byte	.LFE29
 10398 1eb0 0400     		.2byte	0x4
 10399 1eb2 F3       		.byte	0xf3
 10400 1eb3 01       		.uleb128 0x1
 10401 1eb4 51       		.byte	0x51
 10402 1eb5 9F       		.byte	0x9f
 10403 1eb6 00000000 		.4byte	0
 10404 1eba 00000000 		.4byte	0
 10405              	.LLST52:
 10406 1ebe 00000000 		.4byte	.LVL177
 10407 1ec2 22000000 		.4byte	.LVL180
 10408 1ec6 0100     		.2byte	0x1
 10409 1ec8 52       		.byte	0x52
 10410 1ec9 22000000 		.4byte	.LVL180
 10411 1ecd 32000000 		.4byte	.LVL182
 10412 1ed1 0300     		.2byte	0x3
 10413 1ed3 71       		.byte	0x71
 10414 1ed4 7F       		.sleb128 -1
 10415 1ed5 9F       		.byte	0x9f
 10416 1ed6 32000000 		.4byte	.LVL182
 10417 1eda 6E000000 		.4byte	.LFE29
 10418 1ede 0400     		.2byte	0x4
 10419 1ee0 F3       		.byte	0xf3
 10420 1ee1 01       		.uleb128 0x1
 10421 1ee2 52       		.byte	0x52
 10422 1ee3 9F       		.byte	0x9f
 10423 1ee4 00000000 		.4byte	0
 10424 1ee8 00000000 		.4byte	0
 10425              	.LLST53:
 10426 1eec 00000000 		.4byte	.LVL177
 10427 1ef0 5A000000 		.4byte	.LVL183
ARM GAS  /tmp/ccrwCQMC.s 			page 184


 10428 1ef4 0100     		.2byte	0x1
 10429 1ef6 53       		.byte	0x53
 10430 1ef7 5A000000 		.4byte	.LVL183
 10431 1efb 6E000000 		.4byte	.LFE29
 10432 1eff 0400     		.2byte	0x4
 10433 1f01 F3       		.byte	0xf3
 10434 1f02 01       		.uleb128 0x1
 10435 1f03 53       		.byte	0x53
 10436 1f04 9F       		.byte	0x9f
 10437 1f05 00000000 		.4byte	0
 10438 1f09 00000000 		.4byte	0
 10439              	.LLST54:
 10440 1f0d 00000000 		.4byte	.LVL177
 10441 1f11 64000000 		.4byte	.LVL184
 10442 1f15 0200     		.2byte	0x2
 10443 1f17 91       		.byte	0x91
 10444 1f18 00       		.sleb128 0
 10445 1f19 64000000 		.4byte	.LVL184
 10446 1f1d 68000000 		.4byte	.LVL185
 10447 1f21 0200     		.2byte	0x2
 10448 1f23 7D       		.byte	0x7d
 10449 1f24 00       		.sleb128 0
 10450 1f25 68000000 		.4byte	.LVL185
 10451 1f29 6E000000 		.4byte	.LFE29
 10452 1f2d 0200     		.2byte	0x2
 10453 1f2f 91       		.byte	0x91
 10454 1f30 00       		.sleb128 0
 10455 1f31 00000000 		.4byte	0
 10456 1f35 00000000 		.4byte	0
 10457              	.LLST55:
 10458 1f39 00000000 		.4byte	.LVL177
 10459 1f3d 64000000 		.4byte	.LVL184
 10460 1f41 0200     		.2byte	0x2
 10461 1f43 91       		.byte	0x91
 10462 1f44 04       		.sleb128 4
 10463 1f45 64000000 		.4byte	.LVL184
 10464 1f49 68000000 		.4byte	.LVL185
 10465 1f4d 0200     		.2byte	0x2
 10466 1f4f 7D       		.byte	0x7d
 10467 1f50 04       		.sleb128 4
 10468 1f51 68000000 		.4byte	.LVL185
 10469 1f55 6E000000 		.4byte	.LFE29
 10470 1f59 0200     		.2byte	0x2
 10471 1f5b 91       		.byte	0x91
 10472 1f5c 04       		.sleb128 4
 10473 1f5d 00000000 		.4byte	0
 10474 1f61 00000000 		.4byte	0
 10475              	.LLST56:
 10476 1f65 00000000 		.4byte	.LVL177
 10477 1f69 64000000 		.4byte	.LVL184
 10478 1f6d 0200     		.2byte	0x2
 10479 1f6f 91       		.byte	0x91
 10480 1f70 08       		.sleb128 8
 10481 1f71 64000000 		.4byte	.LVL184
 10482 1f75 68000000 		.4byte	.LVL185
 10483 1f79 0200     		.2byte	0x2
 10484 1f7b 7D       		.byte	0x7d
ARM GAS  /tmp/ccrwCQMC.s 			page 185


 10485 1f7c 08       		.sleb128 8
 10486 1f7d 68000000 		.4byte	.LVL185
 10487 1f81 6E000000 		.4byte	.LFE29
 10488 1f85 0200     		.2byte	0x2
 10489 1f87 91       		.byte	0x91
 10490 1f88 08       		.sleb128 8
 10491 1f89 00000000 		.4byte	0
 10492 1f8d 00000000 		.4byte	0
 10493              	.LLST57:
 10494 1f91 00000000 		.4byte	.LVL177
 10495 1f95 64000000 		.4byte	.LVL184
 10496 1f99 0200     		.2byte	0x2
 10497 1f9b 91       		.byte	0x91
 10498 1f9c 0C       		.sleb128 12
 10499 1f9d 64000000 		.4byte	.LVL184
 10500 1fa1 68000000 		.4byte	.LVL185
 10501 1fa5 0200     		.2byte	0x2
 10502 1fa7 7D       		.byte	0x7d
 10503 1fa8 0C       		.sleb128 12
 10504 1fa9 68000000 		.4byte	.LVL185
 10505 1fad 6E000000 		.4byte	.LFE29
 10506 1fb1 0200     		.2byte	0x2
 10507 1fb3 91       		.byte	0x91
 10508 1fb4 0C       		.sleb128 12
 10509 1fb5 00000000 		.4byte	0
 10510 1fb9 00000000 		.4byte	0
 10511              	.LLST58:
 10512 1fbd 00000000 		.4byte	.LVL177
 10513 1fc1 64000000 		.4byte	.LVL184
 10514 1fc5 0200     		.2byte	0x2
 10515 1fc7 91       		.byte	0x91
 10516 1fc8 10       		.sleb128 16
 10517 1fc9 64000000 		.4byte	.LVL184
 10518 1fcd 68000000 		.4byte	.LVL185
 10519 1fd1 0200     		.2byte	0x2
 10520 1fd3 7D       		.byte	0x7d
 10521 1fd4 10       		.sleb128 16
 10522 1fd5 68000000 		.4byte	.LVL185
 10523 1fd9 6E000000 		.4byte	.LFE29
 10524 1fdd 0200     		.2byte	0x2
 10525 1fdf 91       		.byte	0x91
 10526 1fe0 10       		.sleb128 16
 10527 1fe1 00000000 		.4byte	0
 10528 1fe5 00000000 		.4byte	0
 10529              	.LLST59:
 10530 1fe9 00000000 		.4byte	.LVL177
 10531 1fed 64000000 		.4byte	.LVL184
 10532 1ff1 0200     		.2byte	0x2
 10533 1ff3 91       		.byte	0x91
 10534 1ff4 14       		.sleb128 20
 10535 1ff5 64000000 		.4byte	.LVL184
 10536 1ff9 68000000 		.4byte	.LVL185
 10537 1ffd 0200     		.2byte	0x2
 10538 1fff 7D       		.byte	0x7d
 10539 2000 14       		.sleb128 20
 10540 2001 68000000 		.4byte	.LVL185
 10541 2005 6E000000 		.4byte	.LFE29
ARM GAS  /tmp/ccrwCQMC.s 			page 186


 10542 2009 0200     		.2byte	0x2
 10543 200b 91       		.byte	0x91
 10544 200c 14       		.sleb128 20
 10545 200d 00000000 		.4byte	0
 10546 2011 00000000 		.4byte	0
 10547              	.LLST44:
 10548 2015 16000000 		.4byte	.LVL158
 10549 2019 2C000000 		.4byte	.LVL160
 10550 201d 0100     		.2byte	0x1
 10551 201f 50       		.byte	0x50
 10552 2020 3A000000 		.4byte	.LVL162
 10553 2024 B6000000 		.4byte	.LVL165
 10554 2028 0100     		.2byte	0x1
 10555 202a 50       		.byte	0x50
 10556 202b 00000000 		.4byte	0
 10557 202f 00000000 		.4byte	0
 10558              	.LLST45:
 10559 2033 00000000 		.4byte	.LVL157
 10560 2037 1A000000 		.4byte	.LVL159
 10561 203b 0200     		.2byte	0x2
 10562 203d 31       		.byte	0x31
 10563 203e 9F       		.byte	0x9f
 10564 203f 1A000000 		.4byte	.LVL159
 10565 2043 36000000 		.4byte	.LVL161
 10566 2047 0500     		.2byte	0x5
 10567 2049 75       		.byte	0x75
 10568 204a 00       		.sleb128 0
 10569 204b 30       		.byte	0x30
 10570 204c 29       		.byte	0x29
 10571 204d 9F       		.byte	0x9f
 10572 204e 36000000 		.4byte	.LVL161
 10573 2052 44000000 		.4byte	.LVL163
 10574 2056 0600     		.2byte	0x6
 10575 2058 73       		.byte	0x73
 10576 2059 00       		.sleb128 0
 10577 205a 08       		.byte	0x8
 10578 205b FF       		.byte	0xff
 10579 205c 1A       		.byte	0x1a
 10580 205d 9F       		.byte	0x9f
 10581 205e 44000000 		.4byte	.LVL163
 10582 2062 4C000000 		.4byte	.LVL164
 10583 2066 0D00     		.2byte	0xd
 10584 2068 71       		.byte	0x71
 10585 2069 00       		.sleb128 0
 10586 206a 40       		.byte	0x40
 10587 206b 24       		.byte	0x24
 10588 206c 30       		.byte	0x30
 10589 206d 29       		.byte	0x29
 10590 206e 73       		.byte	0x73
 10591 206f 00       		.sleb128 0
 10592 2070 1A       		.byte	0x1a
 10593 2071 08       		.byte	0x8
 10594 2072 FF       		.byte	0xff
 10595 2073 1A       		.byte	0x1a
 10596 2074 9F       		.byte	0x9f
 10597 2075 D8000000 		.4byte	.LVL166
 10598 2079 DA000000 		.4byte	.LVL167
ARM GAS  /tmp/ccrwCQMC.s 			page 187


 10599 207d 0900     		.2byte	0x9
 10600 207f 71       		.byte	0x71
 10601 2080 00       		.sleb128 0
 10602 2081 73       		.byte	0x73
 10603 2082 00       		.sleb128 0
 10604 2083 29       		.byte	0x29
 10605 2084 08       		.byte	0x8
 10606 2085 FF       		.byte	0xff
 10607 2086 1A       		.byte	0x1a
 10608 2087 9F       		.byte	0x9f
 10609 2088 DA000000 		.4byte	.LVL167
 10610 208c DE000000 		.4byte	.LVL168
 10611 2090 0900     		.2byte	0x9
 10612 2092 71       		.byte	0x71
 10613 2093 00       		.sleb128 0
 10614 2094 70       		.byte	0x70
 10615 2095 01       		.sleb128 1
 10616 2096 29       		.byte	0x29
 10617 2097 08       		.byte	0x8
 10618 2098 FF       		.byte	0xff
 10619 2099 1A       		.byte	0x1a
 10620 209a 9F       		.byte	0x9f
 10621 209b DE000000 		.4byte	.LVL168
 10622 209f E8000000 		.4byte	.LVL170
 10623 20a3 0900     		.2byte	0x9
 10624 20a5 71       		.byte	0x71
 10625 20a6 00       		.sleb128 0
 10626 20a7 73       		.byte	0x73
 10627 20a8 00       		.sleb128 0
 10628 20a9 29       		.byte	0x29
 10629 20aa 08       		.byte	0x8
 10630 20ab FF       		.byte	0xff
 10631 20ac 1A       		.byte	0x1a
 10632 20ad 9F       		.byte	0x9f
 10633 20ae F0000000 		.4byte	.LVL171
 10634 20b2 F8000000 		.4byte	.LVL172
 10635 20b6 0900     		.2byte	0x9
 10636 20b8 71       		.byte	0x71
 10637 20b9 00       		.sleb128 0
 10638 20ba 73       		.byte	0x73
 10639 20bb 00       		.sleb128 0
 10640 20bc 29       		.byte	0x29
 10641 20bd 08       		.byte	0x8
 10642 20be FF       		.byte	0xff
 10643 20bf 1A       		.byte	0x1a
 10644 20c0 9F       		.byte	0x9f
 10645 20c1 00000000 		.4byte	0
 10646 20c5 00000000 		.4byte	0
 10647              	.LLST46:
 10648 20c9 B6000000 		.4byte	.LVL165
 10649 20cd D8000000 		.4byte	.LVL166
 10650 20d1 0200     		.2byte	0x2
 10651 20d3 30       		.byte	0x30
 10652 20d4 9F       		.byte	0x9f
 10653 20d5 D8000000 		.4byte	.LVL166
 10654 20d9 DA000000 		.4byte	.LVL167
 10655 20dd 0600     		.2byte	0x6
ARM GAS  /tmp/ccrwCQMC.s 			page 188


 10656 20df 08       		.byte	0x8
 10657 20e0 20       		.byte	0x20
 10658 20e1 73       		.byte	0x73
 10659 20e2 00       		.sleb128 0
 10660 20e3 1C       		.byte	0x1c
 10661 20e4 9F       		.byte	0x9f
 10662 20e5 DA000000 		.4byte	.LVL167
 10663 20e9 DE000000 		.4byte	.LVL168
 10664 20ed 0500     		.2byte	0x5
 10665 20ef 4F       		.byte	0x4f
 10666 20f0 70       		.byte	0x70
 10667 20f1 00       		.sleb128 0
 10668 20f2 1C       		.byte	0x1c
 10669 20f3 9F       		.byte	0x9f
 10670 20f4 DE000000 		.4byte	.LVL168
 10671 20f8 E2000000 		.4byte	.LVL169
 10672 20fc 0500     		.2byte	0x5
 10673 20fe 4F       		.byte	0x4f
 10674 20ff 73       		.byte	0x73
 10675 2100 00       		.sleb128 0
 10676 2101 1C       		.byte	0x1c
 10677 2102 9F       		.byte	0x9f
 10678 2103 E2000000 		.4byte	.LVL169
 10679 2107 E8000000 		.4byte	.LVL170
 10680 210b 0600     		.2byte	0x6
 10681 210d 08       		.byte	0x8
 10682 210e 20       		.byte	0x20
 10683 210f 73       		.byte	0x73
 10684 2110 00       		.sleb128 0
 10685 2111 1C       		.byte	0x1c
 10686 2112 9F       		.byte	0x9f
 10687 2113 F0000000 		.4byte	.LVL171
 10688 2117 FA000000 		.4byte	.LVL173
 10689 211b 0600     		.2byte	0x6
 10690 211d 08       		.byte	0x8
 10691 211e 20       		.byte	0x20
 10692 211f 73       		.byte	0x73
 10693 2120 00       		.sleb128 0
 10694 2121 1C       		.byte	0x1c
 10695 2122 9F       		.byte	0x9f
 10696 2123 00000000 		.4byte	0
 10697 2127 00000000 		.4byte	0
 10698              	.LLST47:
 10699 212b B6000000 		.4byte	.LVL165
 10700 212f D8000000 		.4byte	.LVL166
 10701 2133 0200     		.2byte	0x2
 10702 2135 31       		.byte	0x31
 10703 2136 9F       		.byte	0x9f
 10704 2137 D8000000 		.4byte	.LVL166
 10705 213b E8000000 		.4byte	.LVL170
 10706 213f 0100     		.2byte	0x1
 10707 2141 52       		.byte	0x52
 10708 2142 F0000000 		.4byte	.LVL171
 10709 2146 FC000000 		.4byte	.LVL174
 10710 214a 0100     		.2byte	0x1
 10711 214c 52       		.byte	0x52
 10712 214d 00000000 		.4byte	0
ARM GAS  /tmp/ccrwCQMC.s 			page 189


 10713 2151 00000000 		.4byte	0
 10714              	.LLST48:
 10715 2155 F0000000 		.4byte	.LVL171
 10716 2159 FC000000 		.4byte	.LVL174
 10717 215d 0200     		.2byte	0x2
 10718 215f 30       		.byte	0x30
 10719 2160 9F       		.byte	0x9f
 10720 2161 FC000000 		.4byte	.LVL174
 10721 2165 0A010000 		.4byte	.LVL175
 10722 2169 0100     		.2byte	0x1
 10723 216b 52       		.byte	0x52
 10724 216c 12010000 		.4byte	.LVL176
 10725 2170 28010000 		.4byte	.LFE28
 10726 2174 0100     		.2byte	0x1
 10727 2176 52       		.byte	0x52
 10728 2177 00000000 		.4byte	0
 10729 217b 00000000 		.4byte	0
 10730              	.LLST49:
 10731 217f F0000000 		.4byte	.LVL171
 10732 2183 FC000000 		.4byte	.LVL174
 10733 2187 0200     		.2byte	0x2
 10734 2189 31       		.byte	0x31
 10735 218a 9F       		.byte	0x9f
 10736 218b FC000000 		.4byte	.LVL174
 10737 218f 28010000 		.4byte	.LFE28
 10738 2193 0100     		.2byte	0x1
 10739 2195 53       		.byte	0x53
 10740 2196 00000000 		.4byte	0
 10741 219a 00000000 		.4byte	0
 10742              	.LLST0:
 10743 219e 00000000 		.4byte	.LVL0
 10744 21a2 02000000 		.4byte	.LVL1
 10745 21a6 0100     		.2byte	0x1
 10746 21a8 50       		.byte	0x50
 10747 21a9 02000000 		.4byte	.LVL1
 10748 21ad 04000000 		.4byte	.LFE27
 10749 21b1 0400     		.2byte	0x4
 10750 21b3 F3       		.byte	0xf3
 10751 21b4 01       		.uleb128 0x1
 10752 21b5 50       		.byte	0x50
 10753 21b6 9F       		.byte	0x9f
 10754 21b7 00000000 		.4byte	0
 10755 21bb 00000000 		.4byte	0
 10756              	.LLST38:
 10757 21bf 00000000 		.4byte	.LVL153
 10758 21c3 03000000 		.4byte	.LVL154-1
 10759 21c7 0100     		.2byte	0x1
 10760 21c9 50       		.byte	0x50
 10761 21ca 03000000 		.4byte	.LVL154-1
 10762 21ce 04000000 		.4byte	.LFE25
 10763 21d2 0400     		.2byte	0x4
 10764 21d4 F3       		.byte	0xf3
 10765 21d5 01       		.uleb128 0x1
 10766 21d6 50       		.byte	0x50
 10767 21d7 9F       		.byte	0x9f
 10768 21d8 00000000 		.4byte	0
 10769 21dc 00000000 		.4byte	0
ARM GAS  /tmp/ccrwCQMC.s 			page 190


 10770              	.LLST39:
 10771 21e0 00000000 		.4byte	.LVL153
 10772 21e4 03000000 		.4byte	.LVL154-1
 10773 21e8 0100     		.2byte	0x1
 10774 21ea 51       		.byte	0x51
 10775 21eb 03000000 		.4byte	.LVL154-1
 10776 21ef 04000000 		.4byte	.LFE25
 10777 21f3 0400     		.2byte	0x4
 10778 21f5 F3       		.byte	0xf3
 10779 21f6 01       		.uleb128 0x1
 10780 21f7 51       		.byte	0x51
 10781 21f8 9F       		.byte	0x9f
 10782 21f9 00000000 		.4byte	0
 10783 21fd 00000000 		.4byte	0
 10784              	.LLST40:
 10785 2201 00000000 		.4byte	.LVL153
 10786 2205 03000000 		.4byte	.LVL154-1
 10787 2209 0100     		.2byte	0x1
 10788 220b 52       		.byte	0x52
 10789 220c 03000000 		.4byte	.LVL154-1
 10790 2210 04000000 		.4byte	.LFE25
 10791 2214 0400     		.2byte	0x4
 10792 2216 F3       		.byte	0xf3
 10793 2217 01       		.uleb128 0x1
 10794 2218 52       		.byte	0x52
 10795 2219 9F       		.byte	0x9f
 10796 221a 00000000 		.4byte	0
 10797 221e 00000000 		.4byte	0
 10798              	.LLST35:
 10799 2222 00000000 		.4byte	.LVL151
 10800 2226 03000000 		.4byte	.LVL152-1
 10801 222a 0100     		.2byte	0x1
 10802 222c 50       		.byte	0x50
 10803 222d 03000000 		.4byte	.LVL152-1
 10804 2231 04000000 		.4byte	.LFE24
 10805 2235 0400     		.2byte	0x4
 10806 2237 F3       		.byte	0xf3
 10807 2238 01       		.uleb128 0x1
 10808 2239 50       		.byte	0x50
 10809 223a 9F       		.byte	0x9f
 10810 223b 00000000 		.4byte	0
 10811 223f 00000000 		.4byte	0
 10812              	.LLST36:
 10813 2243 00000000 		.4byte	.LVL151
 10814 2247 03000000 		.4byte	.LVL152-1
 10815 224b 0100     		.2byte	0x1
 10816 224d 51       		.byte	0x51
 10817 224e 03000000 		.4byte	.LVL152-1
 10818 2252 04000000 		.4byte	.LFE24
 10819 2256 0400     		.2byte	0x4
 10820 2258 F3       		.byte	0xf3
 10821 2259 01       		.uleb128 0x1
 10822 225a 51       		.byte	0x51
 10823 225b 9F       		.byte	0x9f
 10824 225c 00000000 		.4byte	0
 10825 2260 00000000 		.4byte	0
 10826              	.LLST37:
ARM GAS  /tmp/ccrwCQMC.s 			page 191


 10827 2264 00000000 		.4byte	.LVL151
 10828 2268 03000000 		.4byte	.LVL152-1
 10829 226c 0100     		.2byte	0x1
 10830 226e 52       		.byte	0x52
 10831 226f 03000000 		.4byte	.LVL152-1
 10832 2273 04000000 		.4byte	.LFE24
 10833 2277 0400     		.2byte	0x4
 10834 2279 F3       		.byte	0xf3
 10835 227a 01       		.uleb128 0x1
 10836 227b 52       		.byte	0x52
 10837 227c 9F       		.byte	0x9f
 10838 227d 00000000 		.4byte	0
 10839 2281 00000000 		.4byte	0
 10840              	.LLST32:
 10841 2285 00000000 		.4byte	.LVL149
 10842 2289 03000000 		.4byte	.LVL150-1
 10843 228d 0100     		.2byte	0x1
 10844 228f 50       		.byte	0x50
 10845 2290 03000000 		.4byte	.LVL150-1
 10846 2294 04000000 		.4byte	.LFE23
 10847 2298 0400     		.2byte	0x4
 10848 229a F3       		.byte	0xf3
 10849 229b 01       		.uleb128 0x1
 10850 229c 50       		.byte	0x50
 10851 229d 9F       		.byte	0x9f
 10852 229e 00000000 		.4byte	0
 10853 22a2 00000000 		.4byte	0
 10854              	.LLST33:
 10855 22a6 00000000 		.4byte	.LVL149
 10856 22aa 03000000 		.4byte	.LVL150-1
 10857 22ae 0100     		.2byte	0x1
 10858 22b0 51       		.byte	0x51
 10859 22b1 03000000 		.4byte	.LVL150-1
 10860 22b5 04000000 		.4byte	.LFE23
 10861 22b9 0400     		.2byte	0x4
 10862 22bb F3       		.byte	0xf3
 10863 22bc 01       		.uleb128 0x1
 10864 22bd 51       		.byte	0x51
 10865 22be 9F       		.byte	0x9f
 10866 22bf 00000000 		.4byte	0
 10867 22c3 00000000 		.4byte	0
 10868              	.LLST34:
 10869 22c7 00000000 		.4byte	.LVL149
 10870 22cb 03000000 		.4byte	.LVL150-1
 10871 22cf 0100     		.2byte	0x1
 10872 22d1 52       		.byte	0x52
 10873 22d2 03000000 		.4byte	.LVL150-1
 10874 22d6 04000000 		.4byte	.LFE23
 10875 22da 0400     		.2byte	0x4
 10876 22dc F3       		.byte	0xf3
 10877 22dd 01       		.uleb128 0x1
 10878 22de 52       		.byte	0x52
 10879 22df 9F       		.byte	0x9f
 10880 22e0 00000000 		.4byte	0
 10881 22e4 00000000 		.4byte	0
 10882              	.LLST26:
 10883 22e8 00000000 		.4byte	.LVL106
ARM GAS  /tmp/ccrwCQMC.s 			page 192


 10884 22ec 18000000 		.4byte	.LVL108
 10885 22f0 0100     		.2byte	0x1
 10886 22f2 50       		.byte	0x50
 10887 22f3 18000000 		.4byte	.LVL108
 10888 22f7 1E010000 		.4byte	.LVL147
 10889 22fb 0400     		.2byte	0x4
 10890 22fd F3       		.byte	0xf3
 10891 22fe 01       		.uleb128 0x1
 10892 22ff 50       		.byte	0x50
 10893 2300 9F       		.byte	0x9f
 10894 2301 1E010000 		.4byte	.LVL147
 10895 2305 20010000 		.4byte	.LVL148
 10896 2309 0100     		.2byte	0x1
 10897 230b 50       		.byte	0x50
 10898 230c 20010000 		.4byte	.LVL148
 10899 2310 28010000 		.4byte	.LFE22
 10900 2314 0400     		.2byte	0x4
 10901 2316 F3       		.byte	0xf3
 10902 2317 01       		.uleb128 0x1
 10903 2318 50       		.byte	0x50
 10904 2319 9F       		.byte	0x9f
 10905 231a 00000000 		.4byte	0
 10906 231e 00000000 		.4byte	0
 10907              	.LLST27:
 10908 2322 00000000 		.4byte	.LVL106
 10909 2326 24000000 		.4byte	.LVL111
 10910 232a 0100     		.2byte	0x1
 10911 232c 51       		.byte	0x51
 10912 232d 24000000 		.4byte	.LVL111
 10913 2331 28000000 		.4byte	.LVL112
 10914 2335 0100     		.2byte	0x1
 10915 2337 51       		.byte	0x51
 10916 2338 28000000 		.4byte	.LVL112
 10917 233c 32000000 		.4byte	.LVL116
 10918 2340 0300     		.2byte	0x3
 10919 2342 71       		.byte	0x71
 10920 2343 7F       		.sleb128 -1
 10921 2344 9F       		.byte	0x9f
 10922 2345 32000000 		.4byte	.LVL116
 10923 2349 7A000000 		.4byte	.LVL122
 10924 234d 0100     		.2byte	0x1
 10925 234f 51       		.byte	0x51
 10926 2350 7A000000 		.4byte	.LVL122
 10927 2354 FC000000 		.4byte	.LVL139
 10928 2358 0300     		.2byte	0x3
 10929 235a 74       		.byte	0x74
 10930 235b 70       		.sleb128 -16
 10931 235c 9F       		.byte	0x9f
 10932 235d FC000000 		.4byte	.LVL139
 10933 2361 04010000 		.4byte	.LVL141
 10934 2365 0300     		.2byte	0x3
 10935 2367 74       		.byte	0x74
 10936 2368 60       		.sleb128 -32
 10937 2369 9F       		.byte	0x9f
 10938 236a 10010000 		.4byte	.LVL144
 10939 236e 28010000 		.4byte	.LFE22
 10940 2372 0100     		.2byte	0x1
ARM GAS  /tmp/ccrwCQMC.s 			page 193


 10941 2374 51       		.byte	0x51
 10942 2375 00000000 		.4byte	0
 10943 2379 00000000 		.4byte	0
 10944              	.LLST28:
 10945 237d 00000000 		.4byte	.LVL106
 10946 2381 18000000 		.4byte	.LVL108
 10947 2385 0100     		.2byte	0x1
 10948 2387 52       		.byte	0x52
 10949 2388 1C000000 		.4byte	.LVL109
 10950 238c 22000000 		.4byte	.LVL110
 10951 2390 0200     		.2byte	0x2
 10952 2392 30       		.byte	0x30
 10953 2393 9F       		.byte	0x9f
 10954 2394 18010000 		.4byte	.LVL145
 10955 2398 1E010000 		.4byte	.LVL147
 10956 239c 0200     		.2byte	0x2
 10957 239e 30       		.byte	0x30
 10958 239f 9F       		.byte	0x9f
 10959 23a0 1E010000 		.4byte	.LVL147
 10960 23a4 28010000 		.4byte	.LFE22
 10961 23a8 0100     		.2byte	0x1
 10962 23aa 52       		.byte	0x52
 10963 23ab 00000000 		.4byte	0
 10964 23af 00000000 		.4byte	0
 10965              	.LLST29:
 10966 23b3 00000000 		.4byte	.LVL106
 10967 23b7 18000000 		.4byte	.LVL108
 10968 23bb 0700     		.2byte	0x7
 10969 23bd 70       		.byte	0x70
 10970 23be 00       		.sleb128 0
 10971 23bf 0A       		.byte	0xa
 10972 23c0 FFFF     		.2byte	0xffff
 10973 23c2 1A       		.byte	0x1a
 10974 23c3 9F       		.byte	0x9f
 10975 23c4 18000000 		.4byte	.LVL108
 10976 23c8 56000000 		.4byte	.LVL119
 10977 23cc 0100     		.2byte	0x1
 10978 23ce 53       		.byte	0x53
 10979 23cf 5E000000 		.4byte	.LVL120
 10980 23d3 90000000 		.4byte	.LVL124
 10981 23d7 0100     		.2byte	0x1
 10982 23d9 53       		.byte	0x53
 10983 23da 90000000 		.4byte	.LVL124
 10984 23de 94000000 		.4byte	.LVL125
 10985 23e2 0100     		.2byte	0x1
 10986 23e4 5A       		.byte	0x5a
 10987 23e5 94000000 		.4byte	.LVL125
 10988 23e9 A0000000 		.4byte	.LVL127
 10989 23ed 0100     		.2byte	0x1
 10990 23ef 5B       		.byte	0x5b
 10991 23f0 A0000000 		.4byte	.LVL127
 10992 23f4 A4000000 		.4byte	.LVL128
 10993 23f8 0100     		.2byte	0x1
 10994 23fa 59       		.byte	0x59
 10995 23fb A4000000 		.4byte	.LVL128
 10996 23ff B0000000 		.4byte	.LVL129
 10997 2403 0100     		.2byte	0x1
ARM GAS  /tmp/ccrwCQMC.s 			page 194


 10998 2405 5A       		.byte	0x5a
 10999 2406 B0000000 		.4byte	.LVL129
 11000 240a E0000000 		.4byte	.LVL135
 11001 240e 0100     		.2byte	0x1
 11002 2410 50       		.byte	0x50
 11003 2411 E0000000 		.4byte	.LVL135
 11004 2415 E8000000 		.4byte	.LVL136
 11005 2419 0100     		.2byte	0x1
 11006 241b 59       		.byte	0x59
 11007 241c E8000000 		.4byte	.LVL136
 11008 2420 F2000000 		.4byte	.LVL137
 11009 2424 0100     		.2byte	0x1
 11010 2426 5B       		.byte	0x5b
 11011 2427 F2000000 		.4byte	.LVL137
 11012 242b F6000000 		.4byte	.LVL138
 11013 242f 0100     		.2byte	0x1
 11014 2431 5A       		.byte	0x5a
 11015 2432 F6000000 		.4byte	.LVL138
 11016 2436 1E010000 		.4byte	.LVL147
 11017 243a 0100     		.2byte	0x1
 11018 243c 53       		.byte	0x53
 11019 243d 1E010000 		.4byte	.LVL147
 11020 2441 20010000 		.4byte	.LVL148
 11021 2445 0700     		.2byte	0x7
 11022 2447 70       		.byte	0x70
 11023 2448 00       		.sleb128 0
 11024 2449 0A       		.byte	0xa
 11025 244a FFFF     		.2byte	0xffff
 11026 244c 1A       		.byte	0x1a
 11027 244d 9F       		.byte	0x9f
 11028 244e 20010000 		.4byte	.LVL148
 11029 2452 28010000 		.4byte	.LFE22
 11030 2456 0800     		.2byte	0x8
 11031 2458 F3       		.byte	0xf3
 11032 2459 01       		.uleb128 0x1
 11033 245a 50       		.byte	0x50
 11034 245b 0A       		.byte	0xa
 11035 245c FFFF     		.2byte	0xffff
 11036 245e 1A       		.byte	0x1a
 11037 245f 9F       		.byte	0x9f
 11038 2460 00000000 		.4byte	0
 11039 2464 00000000 		.4byte	0
 11040              	.LLST30:
 11041 2468 00000000 		.4byte	.LVL106
 11042 246c 0E000000 		.4byte	.LVL107
 11043 2470 0500     		.2byte	0x5
 11044 2472 70       		.byte	0x70
 11045 2473 00       		.sleb128 0
 11046 2474 40       		.byte	0x40
 11047 2475 25       		.byte	0x25
 11048 2476 9F       		.byte	0x9f
 11049 2477 0E000000 		.4byte	.LVL107
 11050 247b 56000000 		.4byte	.LVL119
 11051 247f 0100     		.2byte	0x1
 11052 2481 55       		.byte	0x55
 11053 2482 5E000000 		.4byte	.LVL120
 11054 2486 8C000000 		.4byte	.LVL123
ARM GAS  /tmp/ccrwCQMC.s 			page 195


 11055 248a 0100     		.2byte	0x1
 11056 248c 55       		.byte	0x55
 11057 248d 8C000000 		.4byte	.LVL123
 11058 2491 90000000 		.4byte	.LVL124
 11059 2495 0600     		.2byte	0x6
 11060 2497 75       		.byte	0x75
 11061 2498 00       		.sleb128 0
 11062 2499 73       		.byte	0x73
 11063 249a 00       		.sleb128 0
 11064 249b 22       		.byte	0x22
 11065 249c 9F       		.byte	0x9f
 11066 249d 90000000 		.4byte	.LVL124
 11067 24a1 94000000 		.4byte	.LVL125
 11068 24a5 0900     		.2byte	0x9
 11069 24a7 73       		.byte	0x73
 11070 24a8 00       		.sleb128 0
 11071 24a9 75       		.byte	0x75
 11072 24aa 00       		.sleb128 0
 11073 24ab 22       		.byte	0x22
 11074 24ac 7A       		.byte	0x7a
 11075 24ad 00       		.sleb128 0
 11076 24ae 22       		.byte	0x22
 11077 24af 9F       		.byte	0x9f
 11078 24b0 94000000 		.4byte	.LVL125
 11079 24b4 96000000 		.4byte	.LVL126
 11080 24b8 0C00     		.2byte	0xc
 11081 24ba 73       		.byte	0x73
 11082 24bb 00       		.sleb128 0
 11083 24bc 75       		.byte	0x75
 11084 24bd 00       		.sleb128 0
 11085 24be 22       		.byte	0x22
 11086 24bf 7A       		.byte	0x7a
 11087 24c0 00       		.sleb128 0
 11088 24c1 22       		.byte	0x22
 11089 24c2 7B       		.byte	0x7b
 11090 24c3 00       		.sleb128 0
 11091 24c4 22       		.byte	0x22
 11092 24c5 9F       		.byte	0x9f
 11093 24c6 04010000 		.4byte	.LVL141
 11094 24ca 1E010000 		.4byte	.LVL147
 11095 24ce 0100     		.2byte	0x1
 11096 24d0 55       		.byte	0x55
 11097 24d1 1E010000 		.4byte	.LVL147
 11098 24d5 20010000 		.4byte	.LVL148
 11099 24d9 0500     		.2byte	0x5
 11100 24db 70       		.byte	0x70
 11101 24dc 00       		.sleb128 0
 11102 24dd 40       		.byte	0x40
 11103 24de 25       		.byte	0x25
 11104 24df 9F       		.byte	0x9f
 11105 24e0 20010000 		.4byte	.LVL148
 11106 24e4 28010000 		.4byte	.LFE22
 11107 24e8 0600     		.2byte	0x6
 11108 24ea F3       		.byte	0xf3
 11109 24eb 01       		.uleb128 0x1
 11110 24ec 50       		.byte	0x50
 11111 24ed 40       		.byte	0x40
ARM GAS  /tmp/ccrwCQMC.s 			page 196


 11112 24ee 25       		.byte	0x25
 11113 24ef 9F       		.byte	0x9f
 11114 24f0 00000000 		.4byte	0
 11115 24f4 00000000 		.4byte	0
 11116              	.LLST31:
 11117 24f8 30000000 		.4byte	.LVL115
 11118 24fc 32000000 		.4byte	.LVL116
 11119 2500 0100     		.2byte	0x1
 11120 2502 54       		.byte	0x54
 11121 2503 5E000000 		.4byte	.LVL120
 11122 2507 68000000 		.4byte	.LVL121
 11123 250b 0400     		.2byte	0x4
 11124 250d 0A       		.byte	0xa
 11125 250e B015     		.2byte	0x15b0
 11126 2510 9F       		.byte	0x9f
 11127 2511 06010000 		.4byte	.LVL142
 11128 2515 0C010000 		.4byte	.LVL143
 11129 2519 0500     		.2byte	0x5
 11130 251b 7C       		.byte	0x7c
 11131 251c 00       		.sleb128 0
 11132 251d 3F       		.byte	0x3f
 11133 251e 1A       		.byte	0x1a
 11134 251f 9F       		.byte	0x9f
 11135 2520 0C010000 		.4byte	.LVL143
 11136 2524 18010000 		.4byte	.LVL145
 11137 2528 0100     		.2byte	0x1
 11138 252a 5C       		.byte	0x5c
 11139 252b 1A010000 		.4byte	.LVL146
 11140 252f 1E010000 		.4byte	.LVL147
 11141 2533 0200     		.2byte	0x2
 11142 2535 30       		.byte	0x30
 11143 2536 9F       		.byte	0x9f
 11144 2537 00000000 		.4byte	0
 11145 253b 00000000 		.4byte	0
 11146              	.LLST23:
 11147 253f 00000000 		.4byte	.LVL99
 11148 2543 14000000 		.4byte	.LVL103
 11149 2547 0100     		.2byte	0x1
 11150 2549 50       		.byte	0x50
 11151 254a 14000000 		.4byte	.LVL103
 11152 254e 16000000 		.4byte	.LVL104
 11153 2552 0400     		.2byte	0x4
 11154 2554 F3       		.byte	0xf3
 11155 2555 01       		.uleb128 0x1
 11156 2556 50       		.byte	0x50
 11157 2557 9F       		.byte	0x9f
 11158 2558 16000000 		.4byte	.LVL104
 11159 255c 18000000 		.4byte	.LVL105
 11160 2560 0100     		.2byte	0x1
 11161 2562 50       		.byte	0x50
 11162 2563 18000000 		.4byte	.LVL105
 11163 2567 1A000000 		.4byte	.LFE15
 11164 256b 0400     		.2byte	0x4
 11165 256d F3       		.byte	0xf3
 11166 256e 01       		.uleb128 0x1
 11167 256f 50       		.byte	0x50
 11168 2570 9F       		.byte	0x9f
ARM GAS  /tmp/ccrwCQMC.s 			page 197


 11169 2571 00000000 		.4byte	0
 11170 2575 00000000 		.4byte	0
 11171              	.LLST24:
 11172 2579 00000000 		.4byte	.LVL99
 11173 257d 10000000 		.4byte	.LVL101
 11174 2581 0100     		.2byte	0x1
 11175 2583 51       		.byte	0x51
 11176 2584 10000000 		.4byte	.LVL101
 11177 2588 12000000 		.4byte	.LVL102
 11178 258c 0400     		.2byte	0x4
 11179 258e 71       		.byte	0x71
 11180 258f 00       		.sleb128 0
 11181 2590 1F       		.byte	0x1f
 11182 2591 9F       		.byte	0x9f
 11183 2592 12000000 		.4byte	.LVL102
 11184 2596 16000000 		.4byte	.LVL104
 11185 259a 0400     		.2byte	0x4
 11186 259c F3       		.byte	0xf3
 11187 259d 01       		.uleb128 0x1
 11188 259e 51       		.byte	0x51
 11189 259f 9F       		.byte	0x9f
 11190 25a0 16000000 		.4byte	.LVL104
 11191 25a4 1A000000 		.4byte	.LFE15
 11192 25a8 0100     		.2byte	0x1
 11193 25aa 51       		.byte	0x51
 11194 25ab 00000000 		.4byte	0
 11195 25af 00000000 		.4byte	0
 11196              	.LLST25:
 11197 25b3 0A000000 		.4byte	.LVL100
 11198 25b7 10000000 		.4byte	.LVL101
 11199 25bb 0100     		.2byte	0x1
 11200 25bd 51       		.byte	0x51
 11201 25be 10000000 		.4byte	.LVL101
 11202 25c2 12000000 		.4byte	.LVL102
 11203 25c6 0400     		.2byte	0x4
 11204 25c8 71       		.byte	0x71
 11205 25c9 00       		.sleb128 0
 11206 25ca 1F       		.byte	0x1f
 11207 25cb 9F       		.byte	0x9f
 11208 25cc 12000000 		.4byte	.LVL102
 11209 25d0 14000000 		.4byte	.LVL103
 11210 25d4 0400     		.2byte	0x4
 11211 25d6 F3       		.byte	0xf3
 11212 25d7 01       		.uleb128 0x1
 11213 25d8 51       		.byte	0x51
 11214 25d9 9F       		.byte	0x9f
 11215 25da 14000000 		.4byte	.LVL103
 11216 25de 16000000 		.4byte	.LVL104
 11217 25e2 0100     		.2byte	0x1
 11218 25e4 50       		.byte	0x50
 11219 25e5 00000000 		.4byte	0
 11220 25e9 00000000 		.4byte	0
 11221              	.LLST41:
 11222 25ed 00000000 		.4byte	.LVL155
 11223 25f1 03000000 		.4byte	.LVL156-1
 11224 25f5 0100     		.2byte	0x1
 11225 25f7 50       		.byte	0x50
ARM GAS  /tmp/ccrwCQMC.s 			page 198


 11226 25f8 03000000 		.4byte	.LVL156-1
 11227 25fc 04000000 		.4byte	.LFE26
 11228 2600 0400     		.2byte	0x4
 11229 2602 F3       		.byte	0xf3
 11230 2603 01       		.uleb128 0x1
 11231 2604 50       		.byte	0x50
 11232 2605 9F       		.byte	0x9f
 11233 2606 00000000 		.4byte	0
 11234 260a 00000000 		.4byte	0
 11235              	.LLST42:
 11236 260e 00000000 		.4byte	.LVL155
 11237 2612 03000000 		.4byte	.LVL156-1
 11238 2616 0100     		.2byte	0x1
 11239 2618 51       		.byte	0x51
 11240 2619 03000000 		.4byte	.LVL156-1
 11241 261d 04000000 		.4byte	.LFE26
 11242 2621 0400     		.2byte	0x4
 11243 2623 F3       		.byte	0xf3
 11244 2624 01       		.uleb128 0x1
 11245 2625 51       		.byte	0x51
 11246 2626 9F       		.byte	0x9f
 11247 2627 00000000 		.4byte	0
 11248 262b 00000000 		.4byte	0
 11249              	.LLST43:
 11250 262f 00000000 		.4byte	.LVL155
 11251 2633 03000000 		.4byte	.LVL156-1
 11252 2637 0100     		.2byte	0x1
 11253 2639 52       		.byte	0x52
 11254 263a 03000000 		.4byte	.LVL156-1
 11255 263e 04000000 		.4byte	.LFE26
 11256 2642 0400     		.2byte	0x4
 11257 2644 F3       		.byte	0xf3
 11258 2645 01       		.uleb128 0x1
 11259 2646 52       		.byte	0x52
 11260 2647 9F       		.byte	0x9f
 11261 2648 00000000 		.4byte	0
 11262 264c 00000000 		.4byte	0
 11263              		.section	.debug_aranges,"",%progbits
 11264 0000 A4000000 		.4byte	0xa4
 11265 0004 0200     		.2byte	0x2
 11266 0006 00000000 		.4byte	.Ldebug_info0
 11267 000a 04       		.byte	0x4
 11268 000b 00       		.byte	0
 11269 000c 0000     		.2byte	0
 11270 000e 0000     		.2byte	0
 11271 0010 00000000 		.4byte	.LFB27
 11272 0014 04000000 		.4byte	.LFE27-.LFB27
 11273 0018 00000000 		.4byte	.LFB30
 11274 001c 9C020000 		.4byte	.LFE30-.LFB30
 11275 0020 00000000 		.4byte	.LFB14
 11276 0024 02000000 		.4byte	.LFE14-.LFB14
 11277 0028 00000000 		.4byte	.LFB15
 11278 002c 1A000000 		.4byte	.LFE15-.LFB15
 11279 0030 00000000 		.4byte	.LFB16
 11280 0034 08000000 		.4byte	.LFE16-.LFB16
 11281 0038 00000000 		.4byte	.LFB17
 11282 003c 06000000 		.4byte	.LFE17-.LFB17
ARM GAS  /tmp/ccrwCQMC.s 			page 199


 11283 0040 00000000 		.4byte	.LFB18
 11284 0044 08000000 		.4byte	.LFE18-.LFB18
 11285 0048 00000000 		.4byte	.LFB19
 11286 004c 08000000 		.4byte	.LFE19-.LFB19
 11287 0050 00000000 		.4byte	.LFB22
 11288 0054 28010000 		.4byte	.LFE22-.LFB22
 11289 0058 00000000 		.4byte	.LFB23
 11290 005c 04000000 		.4byte	.LFE23-.LFB23
 11291 0060 00000000 		.4byte	.LFB24
 11292 0064 04000000 		.4byte	.LFE24-.LFB24
 11293 0068 00000000 		.4byte	.LFB25
 11294 006c 04000000 		.4byte	.LFE25-.LFB25
 11295 0070 00000000 		.4byte	.LFB26
 11296 0074 04000000 		.4byte	.LFE26-.LFB26
 11297 0078 00000000 		.4byte	.LFB28
 11298 007c 28010000 		.4byte	.LFE28-.LFB28
 11299 0080 00000000 		.4byte	.LFB29
 11300 0084 6E000000 		.4byte	.LFE29-.LFB29
 11301 0088 00000000 		.4byte	.LFB31
 11302 008c 94010000 		.4byte	.LFE31-.LFB31
 11303 0090 00000000 		.4byte	.LFB32
 11304 0094 00030000 		.4byte	.LFE32-.LFB32
 11305 0098 00000000 		.4byte	.LFB33
 11306 009c B4030000 		.4byte	.LFE33-.LFB33
 11307 00a0 00000000 		.4byte	0
 11308 00a4 00000000 		.4byte	0
 11309              		.section	.debug_ranges,"",%progbits
 11310              	.Ldebug_ranges0:
 11311 0000 1A000000 		.4byte	.LBB17
 11312 0004 1E000000 		.4byte	.LBE17
 11313 0008 2C000000 		.4byte	.LBB42
 11314 000c 1A010000 		.4byte	.LBE42
 11315 0010 30010000 		.4byte	.LBB43
 11316 0014 9C020000 		.4byte	.LBE43
 11317 0018 00000000 		.4byte	0
 11318 001c 00000000 		.4byte	0
 11319 0020 1A000000 		.4byte	.LBB18
 11320 0024 1E000000 		.4byte	.LBE18
 11321 0028 30000000 		.4byte	.LBB19
 11322 002c 60000000 		.4byte	.LBE19
 11323 0030 7C000000 		.4byte	.LBB20
 11324 0034 7E000000 		.4byte	.LBE20
 11325 0038 82000000 		.4byte	.LBB21
 11326 003c A8000000 		.4byte	.LBE21
 11327 0040 0C010000 		.4byte	.LBB29
 11328 0044 0E010000 		.4byte	.LBE29
 11329 0048 18010000 		.4byte	.LBB30
 11330 004c 1A010000 		.4byte	.LBE30
 11331 0050 82020000 		.4byte	.LBB40
 11332 0054 86020000 		.4byte	.LBE40
 11333 0058 00000000 		.4byte	0
 11334 005c 00000000 		.4byte	0
 11335 0060 AA000000 		.4byte	.LBB22
 11336 0064 C8000000 		.4byte	.LBE22
 11337 0068 4A010000 		.4byte	.LBB31
 11338 006c 76010000 		.4byte	.LBE31
 11339 0070 DC010000 		.4byte	.LBB35
ARM GAS  /tmp/ccrwCQMC.s 			page 200


 11340 0074 00020000 		.4byte	.LBE35
 11341 0078 04020000 		.4byte	.LBB36
 11342 007c 68020000 		.4byte	.LBE36
 11343 0080 86020000 		.4byte	.LBB41
 11344 0084 9C020000 		.4byte	.LBE41
 11345 0088 00000000 		.4byte	0
 11346 008c 00000000 		.4byte	0
 11347 0090 4E020000 		.4byte	.LBB23
 11348 0094 68020000 		.4byte	.LBE23
 11349 0098 86020000 		.4byte	.LBB26
 11350 009c 9C020000 		.4byte	.LBE26
 11351 00a0 00000000 		.4byte	0
 11352 00a4 00000000 		.4byte	0
 11353 00a8 88020000 		.4byte	.LBB24
 11354 00ac 8C020000 		.4byte	.LBE24
 11355 00b0 8E020000 		.4byte	.LBB25
 11356 00b4 92020000 		.4byte	.LBE25
 11357 00b8 00000000 		.4byte	0
 11358 00bc 00000000 		.4byte	0
 11359 00c0 C8000000 		.4byte	.LBB27
 11360 00c4 D2000000 		.4byte	.LBE27
 11361 00c8 D6000000 		.4byte	.LBB28
 11362 00cc E6000000 		.4byte	.LBE28
 11363 00d0 AE010000 		.4byte	.LBB34
 11364 00d4 D8010000 		.4byte	.LBE34
 11365 00d8 68020000 		.4byte	.LBB37
 11366 00dc 70020000 		.4byte	.LBE37
 11367 00e0 00000000 		.4byte	0
 11368 00e4 00000000 		.4byte	0
 11369 00e8 92010000 		.4byte	.LBB32
 11370 00ec 96010000 		.4byte	.LBE32
 11371 00f0 98010000 		.4byte	.LBB33
 11372 00f4 9C010000 		.4byte	.LBE33
 11373 00f8 00000000 		.4byte	0
 11374 00fc 00000000 		.4byte	0
 11375 0100 72020000 		.4byte	.LBB38
 11376 0104 76020000 		.4byte	.LBE38
 11377 0108 78020000 		.4byte	.LBB39
 11378 010c 7C020000 		.4byte	.LBE39
 11379 0110 00000000 		.4byte	0
 11380 0114 00000000 		.4byte	0
 11381 0118 46000000 		.4byte	.LBB44
 11382 011c 4C000000 		.4byte	.LBE44
 11383 0120 54000000 		.4byte	.LBB45
 11384 0124 5A000000 		.4byte	.LBE45
 11385 0128 60000000 		.4byte	.LBB46
 11386 012c 6A000000 		.4byte	.LBE46
 11387 0130 6E000000 		.4byte	.LBB47
 11388 0134 78000000 		.4byte	.LBE47
 11389 0138 84000000 		.4byte	.LBB48
 11390 013c 8E000000 		.4byte	.LBE48
 11391 0140 9A000000 		.4byte	.LBB49
 11392 0144 A0000000 		.4byte	.LBE49
 11393 0148 AA000000 		.4byte	.LBB50
 11394 014c B0000000 		.4byte	.LBE50
 11395 0150 B6000000 		.4byte	.LBB51
 11396 0154 E8000000 		.4byte	.LBE51
ARM GAS  /tmp/ccrwCQMC.s 			page 201


 11397 0158 00000000 		.4byte	0
 11398 015c 00000000 		.4byte	0
 11399 0160 14000000 		.4byte	.LBB53
 11400 0164 32000000 		.4byte	.LBE53
 11401 0168 3C000000 		.4byte	.LBB56
 11402 016c 7C000000 		.4byte	.LBE56
 11403 0170 80000000 		.4byte	.LBB57
 11404 0174 86000000 		.4byte	.LBE57
 11405 0178 00000000 		.4byte	0
 11406 017c 00000000 		.4byte	0
 11407 0180 92000000 		.4byte	.LBB58
 11408 0184 C6000000 		.4byte	.LBE58
 11409 0188 E0000000 		.4byte	.LBB68
 11410 018c 7E010000 		.4byte	.LBE68
 11411 0190 8A010000 		.4byte	.LBB69
 11412 0194 94010000 		.4byte	.LBE69
 11413 0198 00000000 		.4byte	0
 11414 019c 00000000 		.4byte	0
 11415 01a0 B4000000 		.4byte	.LBB59
 11416 01a4 C0000000 		.4byte	.LBE59
 11417 01a8 EA000000 		.4byte	.LBB60
 11418 01ac EC000000 		.4byte	.LBE60
 11419 01b0 EE000000 		.4byte	.LBB61
 11420 01b4 36010000 		.4byte	.LBE61
 11421 01b8 4E010000 		.4byte	.LBB62
 11422 01bc 50010000 		.4byte	.LBE62
 11423 01c0 52010000 		.4byte	.LBB63
 11424 01c4 5A010000 		.4byte	.LBE63
 11425 01c8 5C010000 		.4byte	.LBB64
 11426 01cc 60010000 		.4byte	.LBE64
 11427 01d0 8A010000 		.4byte	.LBB67
 11428 01d4 90010000 		.4byte	.LBE67
 11429 01d8 00000000 		.4byte	0
 11430 01dc 00000000 		.4byte	0
 11431 01e0 00000000 		.4byte	.LFB27
 11432 01e4 04000000 		.4byte	.LFE27
 11433 01e8 00000000 		.4byte	.LFB30
 11434 01ec 9C020000 		.4byte	.LFE30
 11435 01f0 00000000 		.4byte	.LFB14
 11436 01f4 02000000 		.4byte	.LFE14
 11437 01f8 00000000 		.4byte	.LFB15
 11438 01fc 1A000000 		.4byte	.LFE15
 11439 0200 00000000 		.4byte	.LFB16
 11440 0204 08000000 		.4byte	.LFE16
 11441 0208 00000000 		.4byte	.LFB17
 11442 020c 06000000 		.4byte	.LFE17
 11443 0210 00000000 		.4byte	.LFB18
 11444 0214 08000000 		.4byte	.LFE18
 11445 0218 00000000 		.4byte	.LFB19
 11446 021c 08000000 		.4byte	.LFE19
 11447 0220 00000000 		.4byte	.LFB22
 11448 0224 28010000 		.4byte	.LFE22
 11449 0228 00000000 		.4byte	.LFB23
 11450 022c 04000000 		.4byte	.LFE23
 11451 0230 00000000 		.4byte	.LFB24
 11452 0234 04000000 		.4byte	.LFE24
 11453 0238 00000000 		.4byte	.LFB25
ARM GAS  /tmp/ccrwCQMC.s 			page 202


 11454 023c 04000000 		.4byte	.LFE25
 11455 0240 00000000 		.4byte	.LFB26
 11456 0244 04000000 		.4byte	.LFE26
 11457 0248 00000000 		.4byte	.LFB28
 11458 024c 28010000 		.4byte	.LFE28
 11459 0250 00000000 		.4byte	.LFB29
 11460 0254 6E000000 		.4byte	.LFE29
 11461 0258 00000000 		.4byte	.LFB31
 11462 025c 94010000 		.4byte	.LFE31
 11463 0260 00000000 		.4byte	.LFB32
 11464 0264 00030000 		.4byte	.LFE32
 11465 0268 00000000 		.4byte	.LFB33
 11466 026c B4030000 		.4byte	.LFE33
 11467 0270 00000000 		.4byte	0
 11468 0274 00000000 		.4byte	0
 11469              		.section	.debug_line,"",%progbits
 11470              	.Ldebug_line0:
 11471 0000 4C070000 		.section	.debug_str,"MS",%progbits,1
 11471      0200E800 
 11471      00000201 
 11471      FB0E0D00 
 11471      01010101 
 11472              	.LASF182:
 11473 0000 6C7A6F5F 		.ascii	"lzo_cta__60\000"
 11473      6374615F 
 11473      5F363000 
 11474              	.LASF246:
 11475 000c 6C7A6F5F 		.ascii	"lzo_bitops_ctlz32_func\000"
 11475      6269746F 
 11475      70735F63 
 11475      746C7A33 
 11475      325F6675 
 11476              	.LASF239:
 11477 0023 6C7A6F5F 		.ascii	"lzo_version\000"
 11477      76657273 
 11477      696F6E00 
 11478              	.LASF61:
 11479 002f 6C7A6F5F 		.ascii	"lzo_cta__50\000"
 11479      6374615F 
 11479      5F353000 
 11480              	.LASF62:
 11481 003b 6C7A6F5F 		.ascii	"lzo_cta__51\000"
 11481      6374615F 
 11481      5F353100 
 11482              	.LASF63:
 11483 0047 6C7A6F5F 		.ascii	"lzo_cta__52\000"
 11483      6374615F 
 11483      5F353200 
 11484              	.LASF64:
 11485 0053 6C7A6F5F 		.ascii	"lzo_cta__53\000"
 11485      6374615F 
 11485      5F353300 
 11486              	.LASF65:
 11487 005f 6C7A6F5F 		.ascii	"lzo_cta__54\000"
 11487      6374615F 
 11487      5F353400 
 11488              	.LASF66:
ARM GAS  /tmp/ccrwCQMC.s 			page 203


 11489 006b 6C7A6F5F 		.ascii	"lzo_cta__55\000"
 11489      6374615F 
 11489      5F353500 
 11490              	.LASF178:
 11491 0077 6C7A6F5F 		.ascii	"lzo_cta__56\000"
 11491      6374615F 
 11491      5F353600 
 11492              	.LASF179:
 11493 0083 6C7A6F5F 		.ascii	"lzo_cta__57\000"
 11493      6374615F 
 11493      5F353700 
 11494              	.LASF180:
 11495 008f 6C7A6F5F 		.ascii	"lzo_cta__58\000"
 11495      6374615F 
 11495      5F353800 
 11496              	.LASF181:
 11497 009b 6C7A6F5F 		.ascii	"lzo_cta__59\000"
 11497      6374615F 
 11497      5F353900 
 11498              	.LASF241:
 11499 00a7 5F5F6C7A 		.ascii	"__lzo_align_gap\000"
 11499      6F5F616C 
 11499      69676E5F 
 11499      67617000 
 11500              	.LASF93:
 11501 00b7 5F6F6E5F 		.ascii	"_on_exit_args\000"
 11501      65786974 
 11501      5F617267 
 11501      7300
 11502              	.LASF219:
 11503 00c5 696E5F65 		.ascii	"in_end\000"
 11503      6E6400
 11504              	.LASF161:
 11505 00cc 5F776374 		.ascii	"_wctomb_state\000"
 11505      6F6D625F 
 11505      73746174 
 11505      6500
 11506              	.LASF218:
 11507 00da 6E5F5F6E 		.ascii	"n__n\000"
 11507      00
 11508              	.LASF158:
 11509 00df 5F723438 		.ascii	"_r48\000"
 11509      00
 11510              	.LASF229:
 11511 00e4 6C7A6F5F 		.ascii	"lzo_memmove\000"
 11511      6D656D6D 
 11511      6F766500 
 11512              	.LASF163:
 11513 00f0 5F736967 		.ascii	"_signal_buf\000"
 11513      6E616C5F 
 11513      62756600 
 11514              	.LASF8:
 11515 00fc 756E7369 		.ascii	"unsigned int\000"
 11515      676E6564 
 11515      20696E74 
 11515      00
 11516              	.LASF257:
ARM GAS  /tmp/ccrwCQMC.s 			page 204


 11517 0109 6E657874 		.ascii	"next\000"
 11517      00
 11518              	.LASF215:
 11519 010e 645F5F31 		.ascii	"d__1\000"
 11519      00
 11520              	.LASF107:
 11521 0113 5F6C6266 		.ascii	"_lbfsize\000"
 11521      73697A65 
 11521      00
 11522              	.LASF105:
 11523 011c 5F666C61 		.ascii	"_flags\000"
 11523      677300
 11524              	.LASF183:
 11525 0123 6C7A6F5F 		.ascii	"lzo_cta__61\000"
 11525      6374615F 
 11525      5F363100 
 11526              	.LASF184:
 11527 012f 6C7A6F5F 		.ascii	"lzo_cta__62\000"
 11527      6374615F 
 11527      5F363200 
 11528              	.LASF185:
 11529 013b 6C7A6F5F 		.ascii	"lzo_cta__63\000"
 11529      6374615F 
 11529      5F363300 
 11530              	.LASF188:
 11531 0147 6C7A6F5F 		.ascii	"lzo_cta__64\000"
 11531      6374615F 
 11531      5F363400 
 11532              	.LASF189:
 11533 0153 6C7A6F5F 		.ascii	"lzo_cta__65\000"
 11533      6374615F 
 11533      5F363500 
 11534              	.LASF190:
 11535 015f 6C7A6F5F 		.ascii	"lzo_cta__66\000"
 11535      6374615F 
 11535      5F363600 
 11536              	.LASF191:
 11537 016b 6C7A6F5F 		.ascii	"lzo_cta__67\000"
 11537      6374615F 
 11537      5F363700 
 11538              	.LASF192:
 11539 0177 6C7A6F5F 		.ascii	"lzo_cta__68\000"
 11539      6374615F 
 11539      5F363800 
 11540              	.LASF122:
 11541 0183 5F657272 		.ascii	"_errno\000"
 11541      6E6F00
 11542              	.LASF120:
 11543 018a 5F666C61 		.ascii	"_flags2\000"
 11543      67733200 
 11544              	.LASF247:
 11545 0192 6D656D73 		.ascii	"memset\000"
 11545      657400
 11546              	.LASF197:
 11547 0199 6F75745F 		.ascii	"out_len\000"
 11547      6C656E00 
 11548              	.LASF119:
ARM GAS  /tmp/ccrwCQMC.s 			page 205


 11549 01a1 5F6D6273 		.ascii	"_mbstate\000"
 11549      74617465 
 11549      00
 11550              	.LASF226:
 11551 01aa 5F5F6C7A 		.ascii	"__lzo_init_v2\000"
 11551      6F5F696E 
 11551      69745F76 
 11551      3200
 11552              	.LASF128:
 11553 01b8 5F756E73 		.ascii	"_unspecified_locale_info\000"
 11553      70656369 
 11553      66696564 
 11553      5F6C6F63 
 11553      616C655F 
 11554              	.LASF109:
 11555 01d1 5F726561 		.ascii	"_read\000"
 11555      6400
 11556              	.LASF165:
 11557 01d7 5F6D6272 		.ascii	"_mbrlen_state\000"
 11557      6C656E5F 
 11557      73746174 
 11557      6500
 11558              	.LASF236:
 11559 01e5 5F6C7A6F 		.ascii	"_lzo_version_string\000"
 11559      5F766572 
 11559      73696F6E 
 11559      5F737472 
 11559      696E6700 
 11560              	.LASF250:
 11561 01f9 5F5F6275 		.ascii	"__builtin_memcpy\000"
 11561      696C7469 
 11561      6E5F6D65 
 11561      6D637079 
 11561      00
 11562              	.LASF220:
 11563 020a 64696374 		.ascii	"dict\000"
 11563      00
 11564              	.LASF124:
 11565 020f 5F737464 		.ascii	"_stdout\000"
 11565      6F757400 
 11566              	.LASF69:
 11567 0217 5F66706F 		.ascii	"_fpos_t\000"
 11567      735F7400 
 11568              	.LASF100:
 11569 021f 5F666E73 		.ascii	"_fns\000"
 11569      00
 11570              	.LASF108:
 11571 0224 5F636F6F 		.ascii	"_cookie\000"
 11571      6B696500 
 11572              	.LASF82:
 11573 022c 5F426967 		.ascii	"_Bigint\000"
 11573      696E7400 
 11574              	.LASF90:
 11575 0234 5F5F746D 		.ascii	"__tm_wday\000"
 11575      5F776461 
 11575      7900
 11576              	.LASF132:
ARM GAS  /tmp/ccrwCQMC.s 			page 206


 11577 023e 5F726573 		.ascii	"_result\000"
 11577      756C7400 
 11578              	.LASF243:
 11579 0246 6C7A6F5F 		.ascii	"lzo_memset\000"
 11579      6D656D73 
 11579      657400
 11580              	.LASF223:
 11581 0251 6D5F6F66 		.ascii	"m_off\000"
 11581      6600
 11582              	.LASF86:
 11583 0257 5F5F746D 		.ascii	"__tm_hour\000"
 11583      5F686F75 
 11583      7200
 11584              	.LASF227:
 11585 0261 5F6C7A6F 		.ascii	"_lzo_config_check\000"
 11585      5F636F6E 
 11585      6669675F 
 11585      63686563 
 11585      6B00
 11586              	.LASF200:
 11587 0273 69705F65 		.ascii	"ip_end\000"
 11587      6E6400
 11588              	.LASF73:
 11589 027a 5F5F636F 		.ascii	"__count\000"
 11589      756E7400 
 11590              	.LASF251:
 11591 0282 6D656D6D 		.ascii	"memmove\000"
 11591      6F766500 
 11592              	.LASF85:
 11593 028a 5F5F746D 		.ascii	"__tm_min\000"
 11593      5F6D696E 
 11593      00
 11594              	.LASF176:
 11595 0293 5F696D70 		.ascii	"_impure_ptr\000"
 11595      7572655F 
 11595      70747200 
 11596              	.LASF171:
 11597 029f 5F6E6578 		.ascii	"_nextf\000"
 11597      746600
 11598              	.LASF253:
 11599 02a6 474E5520 		.ascii	"GNU C99 7.3.1 20180622 (release) [ARM/embedded-7-br"
 11599      43393920 
 11599      372E332E 
 11599      31203230 
 11599      31383036 
 11600 02d9 616E6368 		.ascii	"anch revision 261907] -mcpu=cortex-m4 -mfloat-abi=h"
 11600      20726576 
 11600      6973696F 
 11600      6E203236 
 11600      31393037 
 11601 030c 61726420 		.ascii	"ard -mfpu=fpv4-sp-d16 -mno-thumb-interwork -mthumb "
 11601      2D6D6670 
 11601      753D6670 
 11601      76342D73 
 11601      702D6431 
 11602 033f 2D676764 		.ascii	"-ggdb -O2 -std=gnu99 -fomit-frame-pointer -falign-f"
 11602      62202D4F 
ARM GAS  /tmp/ccrwCQMC.s 			page 207


 11602      32202D73 
 11602      74643D67 
 11602      6E753939 
 11603 0372 756E6374 		.ascii	"unctions=16 -ffunction-sections -fdata-sections -fn"
 11603      696F6E73 
 11603      3D313620 
 11603      2D666675 
 11603      6E637469 
 11604 03a5 6F2D636F 		.ascii	"o-common -fsingle-precision-constant\000"
 11604      6D6D6F6E 
 11604      202D6673 
 11604      696E676C 
 11604      652D7072 
 11605              	.LASF148:
 11606 03ca 5F72616E 		.ascii	"_rand48\000"
 11606      64343800 
 11607              	.LASF233:
 11608 03d2 6C7A6F5F 		.ascii	"lzo_adler32\000"
 11608      61646C65 
 11608      72333200 
 11609              	.LASF133:
 11610 03de 5F726573 		.ascii	"_result_k\000"
 11610      756C745F 
 11610      6B00
 11611              	.LASF7:
 11612 03e8 6C6F6E67 		.ascii	"long long unsigned int\000"
 11612      206C6F6E 
 11612      6720756E 
 11612      7369676E 
 11612      65642069 
 11613              	.LASF52:
 11614 03ff 6C7A6F5F 		.ascii	"lzo_uint\000"
 11614      75696E74 
 11614      00
 11615              	.LASF104:
 11616 0408 5F5F7346 		.ascii	"__sFILE\000"
 11616      494C4500 
 11617              	.LASF81:
 11618 0410 5F776473 		.ascii	"_wds\000"
 11618      00
 11619              	.LASF144:
 11620 0415 5F5F4649 		.ascii	"__FILE\000"
 11620      4C4500
 11621              	.LASF212:
 11622 041c 6C7A6F31 		.ascii	"lzo1x_decompress\000"
 11622      785F6465 
 11622      636F6D70 
 11622      72657373 
 11622      00
 11623              	.LASF116:
 11624 042d 5F6F6666 		.ascii	"_offset\000"
 11624      73657400 
 11625              	.LASF216:
 11626 0435 645F5F6E 		.ascii	"d__n\000"
 11626      00
 11627              	.LASF127:
 11628 043a 5F656D65 		.ascii	"_emergency\000"
ARM GAS  /tmp/ccrwCQMC.s 			page 208


 11628      7267656E 
 11628      637900
 11629              	.LASF249:
 11630 0445 5F5F6275 		.ascii	"__builtin_memset\000"
 11630      696C7469 
 11630      6E5F6D65 
 11630      6D736574 
 11630      00
 11631              	.LASF207:
 11632 0456 6C6F6F6B 		.ascii	"lookbehind_overrun\000"
 11632      62656869 
 11632      6E645F6F 
 11632      76657272 
 11632      756E00
 11633              	.LASF252:
 11634 0469 6D656D63 		.ascii	"memcmp\000"
 11634      6D7000
 11635              	.LASF84:
 11636 0470 5F5F746D 		.ascii	"__tm_sec\000"
 11636      5F736563 
 11636      00
 11637              	.LASF154:
 11638 0479 5F617363 		.ascii	"_asctime_buf\000"
 11638      74696D65 
 11638      5F627566 
 11638      00
 11639              	.LASF137:
 11640 0486 5F637674 		.ascii	"_cvtbuf\000"
 11640      62756600 
 11641              	.LASF91:
 11642 048e 5F5F746D 		.ascii	"__tm_yday\000"
 11642      5F796461 
 11642      7900
 11643              	.LASF126:
 11644 0498 5F696E63 		.ascii	"_inc\000"
 11644      00
 11645              	.LASF99:
 11646 049d 5F696E64 		.ascii	"_ind\000"
 11646      00
 11647              	.LASF224:
 11648 04a2 6D5F6C65 		.ascii	"m_len\000"
 11648      6E00
 11649              	.LASF225:
 11650 04a8 64696E64 		.ascii	"dindex\000"
 11650      657800
 11651              	.LASF78:
 11652 04af 5F6E6578 		.ascii	"_next\000"
 11652      7400
 11653              	.LASF167:
 11654 04b5 5F6D6273 		.ascii	"_mbsrtowcs_state\000"
 11654      72746F77 
 11654      63735F73 
 11654      74617465 
 11654      00
 11655              	.LASF232:
 11656 04c6 6C7A6F5F 		.ascii	"lzo_memcmp\000"
 11656      6D656D63 
ARM GAS  /tmp/ccrwCQMC.s 			page 209


 11656      6D7000
 11657              	.LASF74:
 11658 04d1 5F5F7661 		.ascii	"__value\000"
 11658      6C756500 
 11659              	.LASF134:
 11660 04d9 5F703573 		.ascii	"_p5s\000"
 11660      00
 11661              	.LASF169:
 11662 04de 5F776373 		.ascii	"_wcsrtombs_state\000"
 11662      72746F6D 
 11662      62735F73 
 11662      74617465 
 11662      00
 11663              	.LASF159:
 11664 04ef 5F6D626C 		.ascii	"_mblen_state\000"
 11664      656E5F73 
 11664      74617465 
 11664      00
 11665              	.LASF214:
 11666 04fc 6C6C5F65 		.ascii	"ll_end\000"
 11666      6E6400
 11667              	.LASF143:
 11668 0503 63686172 		.ascii	"char\000"
 11668      00
 11669              	.LASF87:
 11670 0508 5F5F746D 		.ascii	"__tm_mday\000"
 11670      5F6D6461 
 11670      7900
 11671              	.LASF140:
 11672 0512 5F736967 		.ascii	"_sig_func\000"
 11672      5F66756E 
 11672      6300
 11673              	.LASF166:
 11674 051c 5F6D6272 		.ascii	"_mbrtowc_state\000"
 11674      746F7763 
 11674      5F737461 
 11674      746500
 11675              	.LASF139:
 11676 052b 5F617465 		.ascii	"_atexit0\000"
 11676      78697430 
 11676      00
 11677              	.LASF76:
 11678 0534 5F666C6F 		.ascii	"_flock_t\000"
 11678      636B5F74 
 11678      00
 11679              	.LASF71:
 11680 053d 5F5F7763 		.ascii	"__wch\000"
 11680      6800
 11681              	.LASF147:
 11682 0543 5F696F62 		.ascii	"_iobs\000"
 11682      7300
 11683              	.LASF222:
 11684 0549 6D5F6C65 		.ascii	"m_len_done\000"
 11684      6E5F646F 
 11684      6E6500
 11685              	.LASF112:
 11686 0554 5F636C6F 		.ascii	"_close\000"
ARM GAS  /tmp/ccrwCQMC.s 			page 210


 11686      736500
 11687              	.LASF130:
 11688 055b 5F5F7364 		.ascii	"__sdidinit\000"
 11688      6964696E 
 11688      697400
 11689              	.LASF32:
 11690 0566 6C7A6F5F 		.ascii	"lzo_cta__23\000"
 11690      6374615F 
 11690      5F323300 
 11691              	.LASF193:
 11692 0572 6C7A6F5F 		.ascii	"lzo_copyright_\000"
 11692      636F7079 
 11692      72696768 
 11692      745F00
 11693              	.LASF123:
 11694 0581 5F737464 		.ascii	"_stdin\000"
 11694      696E00
 11695              	.LASF156:
 11696 0588 5F67616D 		.ascii	"_gamma_signgam\000"
 11696      6D615F73 
 11696      69676E67 
 11696      616D00
 11697              	.LASF6:
 11698 0597 6C6F6E67 		.ascii	"long long int\000"
 11698      206C6F6E 
 11698      6720696E 
 11698      7400
 11699              	.LASF196:
 11700 05a5 696E5F6C 		.ascii	"in_len\000"
 11700      656E00
 11701              	.LASF256:
 11702 05ac 6C7A6F5F 		.ascii	"lzo_config_check_union\000"
 11702      636F6E66 
 11702      69675F63 
 11702      6865636B 
 11702      5F756E69 
 11703              	.LASF102:
 11704 05c3 5F626173 		.ascii	"_base\000"
 11704      6500
 11705              	.LASF135:
 11706 05c9 5F667265 		.ascii	"_freelist\000"
 11706      656C6973 
 11706      7400
 11707              	.LASF150:
 11708 05d3 5F6D756C 		.ascii	"_mult\000"
 11708      7400
 11709              	.LASF77:
 11710 05d9 5F5F554C 		.ascii	"__ULong\000"
 11710      6F6E6700 
 11711              	.LASF168:
 11712 05e1 5F776372 		.ascii	"_wcrtomb_state\000"
 11712      746F6D62 
 11712      5F737461 
 11712      746500
 11713              	.LASF106:
 11714 05f0 5F66696C 		.ascii	"_file\000"
 11714      6500
ARM GAS  /tmp/ccrwCQMC.s 			page 211


 11715              	.LASF206:
 11716 05f6 6D617463 		.ascii	"match\000"
 11716      6800
 11717              	.LASF198:
 11718 05fc 77726B6D 		.ascii	"wrkmem\000"
 11718      656D00
 11719              	.LASF131:
 11720 0603 5F5F636C 		.ascii	"__cleanup\000"
 11720      65616E75 
 11720      7000
 11721              	.LASF75:
 11722 060d 5F6D6273 		.ascii	"_mbstate_t\000"
 11722      74617465 
 11722      5F7400
 11723              	.LASF242:
 11724 0618 73697A65 		.ascii	"size\000"
 11724      00
 11725              	.LASF92:
 11726 061d 5F5F746D 		.ascii	"__tm_isdst\000"
 11726      5F697364 
 11726      737400
 11727              	.LASF231:
 11728 0628 6C7A6F5F 		.ascii	"lzo_memcpy\000"
 11728      6D656D63 
 11728      707900
 11729              	.LASF9:
 11730 0633 6C7A6F5F 		.ascii	"lzo_cta__0\000"
 11730      6374615F 
 11730      5F3000
 11731              	.LASF10:
 11732 063e 6C7A6F5F 		.ascii	"lzo_cta__1\000"
 11732      6374615F 
 11732      5F3100
 11733              	.LASF11:
 11734 0649 6C7A6F5F 		.ascii	"lzo_cta__2\000"
 11734      6374615F 
 11734      5F3200
 11735              	.LASF12:
 11736 0654 6C7A6F5F 		.ascii	"lzo_cta__3\000"
 11736      6374615F 
 11736      5F3300
 11737              	.LASF13:
 11738 065f 6C7A6F5F 		.ascii	"lzo_cta__4\000"
 11738      6374615F 
 11738      5F3400
 11739              	.LASF14:
 11740 066a 6C7A6F5F 		.ascii	"lzo_cta__5\000"
 11740      6374615F 
 11740      5F3500
 11741              	.LASF15:
 11742 0675 6C7A6F5F 		.ascii	"lzo_cta__6\000"
 11742      6374615F 
 11742      5F3600
 11743              	.LASF16:
 11744 0680 6C7A6F5F 		.ascii	"lzo_cta__7\000"
 11744      6374615F 
 11744      5F3700
ARM GAS  /tmp/ccrwCQMC.s 			page 212


 11745              	.LASF17:
 11746 068b 6C7A6F5F 		.ascii	"lzo_cta__8\000"
 11746      6374615F 
 11746      5F3800
 11747              	.LASF18:
 11748 0696 6C7A6F5F 		.ascii	"lzo_cta__9\000"
 11748      6374615F 
 11748      5F3900
 11749              	.LASF170:
 11750 06a1 5F685F65 		.ascii	"_h_errno\000"
 11750      72726E6F 
 11750      00
 11751              	.LASF199:
 11752 06aa 6D5F706F 		.ascii	"m_pos\000"
 11752      7300
 11753              	.LASF255:
 11754 06b0 2F626C64 		.ascii	"/bldc\000"
 11754      6300
 11755              	.LASF88:
 11756 06b6 5F5F746D 		.ascii	"__tm_mon\000"
 11756      5F6D6F6E 
 11756      00
 11757              	.LASF238:
 11758 06bf 6C7A6F5F 		.ascii	"lzo_version_string\000"
 11758      76657273 
 11758      696F6E5F 
 11758      73747269 
 11758      6E6700
 11759              	.LASF67:
 11760 06d2 5F4C4F43 		.ascii	"_LOCK_T\000"
 11760      4B5F5400 
 11761              	.LASF211:
 11762 06da 6C7A6F31 		.ascii	"lzo1x_decompress_safe\000"
 11762      785F6465 
 11762      636F6D70 
 11762      72657373 
 11762      5F736166 
 11763              	.LASF110:
 11764 06f0 5F777269 		.ascii	"_write\000"
 11764      746500
 11765              	.LASF235:
 11766 06f7 5F6C7A6F 		.ascii	"_lzo_version_date\000"
 11766      5F766572 
 11766      73696F6E 
 11766      5F646174 
 11766      6500
 11767              	.LASF203:
 11768 0709 6D617463 		.ascii	"match_next\000"
 11768      685F6E65 
 11768      787400
 11769              	.LASF98:
 11770 0714 5F617465 		.ascii	"_atexit\000"
 11770      78697400 
 11771              	.LASF217:
 11772 071c 735F5F6E 		.ascii	"s__n\000"
 11772      00
 11773              	.LASF160:
ARM GAS  /tmp/ccrwCQMC.s 			page 213


 11774 0721 5F6D6274 		.ascii	"_mbtowc_state\000"
 11774      6F77635F 
 11774      73746174 
 11774      6500
 11775              	.LASF208:
 11776 072f 6D617463 		.ascii	"match_done\000"
 11776      685F646F 
 11776      6E6500
 11777              	.LASF2:
 11778 073a 73686F72 		.ascii	"short int\000"
 11778      7420696E 
 11778      7400
 11779              	.LASF4:
 11780 0744 6C6F6E67 		.ascii	"long int\000"
 11780      20696E74 
 11780      00
 11781              	.LASF254:
 11782 074d 6C7A6F2F 		.ascii	"lzo/minilzo.c\000"
 11782      6D696E69 
 11782      6C7A6F2E 
 11782      6300
 11783              	.LASF142:
 11784 075b 5F5F7366 		.ascii	"__sf\000"
 11784      00
 11785              	.LASF80:
 11786 0760 5F736967 		.ascii	"_sign\000"
 11786      6E00
 11787              	.LASF245:
 11788 0766 6C7A6F5F 		.ascii	"lzo_bitops_cttz32_func\000"
 11788      6269746F 
 11788      70735F63 
 11788      74747A33 
 11788      325F6675 
 11789              	.LASF117:
 11790 077d 5F646174 		.ascii	"_data\000"
 11790      6100
 11791              	.LASF72:
 11792 0783 5F5F7763 		.ascii	"__wchb\000"
 11792      686200
 11793              	.LASF177:
 11794 078a 5F676C6F 		.ascii	"_global_impure_ptr\000"
 11794      62616C5F 
 11794      696D7075 
 11794      72655F70 
 11794      747200
 11795              	.LASF89:
 11796 079d 5F5F746D 		.ascii	"__tm_year\000"
 11796      5F796561 
 11796      7200
 11797              	.LASF228:
 11798 07a7 6C7A6F31 		.ascii	"lzo1x_1_compress_core\000"
 11798      785F315F 
 11798      636F6D70 
 11798      72657373 
 11798      5F636F72 
 11799              	.LASF153:
 11800 07bd 5F737472 		.ascii	"_strtok_last\000"
ARM GAS  /tmp/ccrwCQMC.s 			page 214


 11800      746F6B5F 
 11800      6C617374 
 11800      00
 11801              	.LASF155:
 11802 07ca 5F6C6F63 		.ascii	"_localtime_buf\000"
 11802      616C7469 
 11802      6D655F62 
 11802      756600
 11803              	.LASF173:
 11804 07d9 5F756E75 		.ascii	"_unused\000"
 11804      73656400 
 11805              	.LASF138:
 11806 07e1 5F6E6577 		.ascii	"_new\000"
 11806      00
 11807              	.LASF136:
 11808 07e6 5F637674 		.ascii	"_cvtlen\000"
 11808      6C656E00 
 11809              	.LASF79:
 11810 07ee 5F6D6178 		.ascii	"_maxwds\000"
 11810      77647300 
 11811              	.LASF162:
 11812 07f6 5F6C3634 		.ascii	"_l64a_buf\000"
 11812      615F6275 
 11812      6600
 11813              	.LASF221:
 11814 0800 6C697465 		.ascii	"literal\000"
 11814      72616C00 
 11815              	.LASF19:
 11816 0808 6C7A6F5F 		.ascii	"lzo_cta__10\000"
 11816      6374615F 
 11816      5F313000 
 11817              	.LASF20:
 11818 0814 6C7A6F5F 		.ascii	"lzo_cta__11\000"
 11818      6374615F 
 11818      5F313100 
 11819              	.LASF21:
 11820 0820 6C7A6F5F 		.ascii	"lzo_cta__12\000"
 11820      6374615F 
 11820      5F313200 
 11821              	.LASF22:
 11822 082c 6C7A6F5F 		.ascii	"lzo_cta__13\000"
 11822      6374615F 
 11822      5F313300 
 11823              	.LASF23:
 11824 0838 6C7A6F5F 		.ascii	"lzo_cta__14\000"
 11824      6374615F 
 11824      5F313400 
 11825              	.LASF24:
 11826 0844 6C7A6F5F 		.ascii	"lzo_cta__15\000"
 11826      6374615F 
 11826      5F313500 
 11827              	.LASF25:
 11828 0850 6C7A6F5F 		.ascii	"lzo_cta__16\000"
 11828      6374615F 
 11828      5F313600 
 11829              	.LASF26:
 11830 085c 6C7A6F5F 		.ascii	"lzo_cta__17\000"
ARM GAS  /tmp/ccrwCQMC.s 			page 215


 11830      6374615F 
 11830      5F313700 
 11831              	.LASF27:
 11832 0868 6C7A6F5F 		.ascii	"lzo_cta__18\000"
 11832      6374615F 
 11832      5F313800 
 11833              	.LASF28:
 11834 0874 6C7A6F5F 		.ascii	"lzo_cta__19\000"
 11834      6374615F 
 11834      5F313900 
 11835              	.LASF115:
 11836 0880 5F626C6B 		.ascii	"_blksize\000"
 11836      73697A65 
 11836      00
 11837              	.LASF83:
 11838 0889 5F5F746D 		.ascii	"__tm\000"
 11838      00
 11839              	.LASF118:
 11840 088e 5F6C6F63 		.ascii	"_lock\000"
 11840      6B00
 11841              	.LASF5:
 11842 0894 6C6F6E67 		.ascii	"long unsigned int\000"
 11842      20756E73 
 11842      69676E65 
 11842      6420696E 
 11842      7400
 11843              	.LASF146:
 11844 08a6 5F6E696F 		.ascii	"_niobs\000"
 11844      627300
 11845              	.LASF70:
 11846 08ad 77696E74 		.ascii	"wint_t\000"
 11846      5F7400
 11847              	.LASF95:
 11848 08b4 5F64736F 		.ascii	"_dso_handle\000"
 11848      5F68616E 
 11848      646C6500 
 11849              	.LASF174:
 11850 08c0 5F5F6C6F 		.ascii	"__lock\000"
 11850      636B00
 11851              	.LASF201:
 11852 08c7 6F705F65 		.ascii	"op_end\000"
 11852      6E6400
 11853              	.LASF29:
 11854 08ce 6C7A6F5F 		.ascii	"lzo_cta__20\000"
 11854      6374615F 
 11854      5F323000 
 11855              	.LASF30:
 11856 08da 6C7A6F5F 		.ascii	"lzo_cta__21\000"
 11856      6374615F 
 11856      5F323100 
 11857              	.LASF31:
 11858 08e6 6C7A6F5F 		.ascii	"lzo_cta__22\000"
 11858      6374615F 
 11858      5F323200 
 11859              	.LASF1:
 11860 08f2 756E7369 		.ascii	"unsigned char\000"
 11860      676E6564 
ARM GAS  /tmp/ccrwCQMC.s 			page 216


 11860      20636861 
 11860      7200
 11861              	.LASF33:
 11862 0900 6C7A6F5F 		.ascii	"lzo_cta__24\000"
 11862      6374615F 
 11862      5F323400 
 11863              	.LASF34:
 11864 090c 6C7A6F5F 		.ascii	"lzo_cta__25\000"
 11864      6374615F 
 11864      5F323500 
 11865              	.LASF35:
 11866 0918 6C7A6F5F 		.ascii	"lzo_cta__26\000"
 11866      6374615F 
 11866      5F323600 
 11867              	.LASF36:
 11868 0924 6C7A6F5F 		.ascii	"lzo_cta__27\000"
 11868      6374615F 
 11868      5F323700 
 11869              	.LASF37:
 11870 0930 6C7A6F5F 		.ascii	"lzo_cta__28\000"
 11870      6374615F 
 11870      5F323800 
 11871              	.LASF38:
 11872 093c 6C7A6F5F 		.ascii	"lzo_cta__29\000"
 11872      6374615F 
 11872      5F323900 
 11873              	.LASF202:
 11874 0948 696E7075 		.ascii	"input_overrun\000"
 11874      745F6F76 
 11874      65727275 
 11874      6E00
 11875              	.LASF213:
 11876 0956 6C7A6F31 		.ascii	"lzo1x_1_compress\000"
 11876      785F315F 
 11876      636F6D70 
 11876      72657373 
 11876      00
 11877              	.LASF209:
 11878 0967 636F7079 		.ascii	"copy_match\000"
 11878      5F6D6174 
 11878      636800
 11879              	.LASF164:
 11880 0972 5F676574 		.ascii	"_getdate_err\000"
 11880      64617465 
 11880      5F657272 
 11880      00
 11881              	.LASF244:
 11882 097f 5F5F6C7A 		.ascii	"__lzo_ptr_linear\000"
 11882      6F5F7074 
 11882      725F6C69 
 11882      6E656172 
 11882      00
 11883              	.LASF151:
 11884 0990 5F616464 		.ascii	"_add\000"
 11884      00
 11885              	.LASF234:
 11886 0995 61646C65 		.ascii	"adler\000"
ARM GAS  /tmp/ccrwCQMC.s 			page 217


 11886      7200
 11887              	.LASF205:
 11888 099b 66697273 		.ascii	"first_literal_run\000"
 11888      745F6C69 
 11888      74657261 
 11888      6C5F7275 
 11888      6E00
 11889              	.LASF240:
 11890 09ad 6C7A6F5F 		.ascii	"lzo_copyright\000"
 11890      636F7079 
 11890      72696768 
 11890      7400
 11891              	.LASF101:
 11892 09bb 5F5F7362 		.ascii	"__sbuf\000"
 11892      756600
 11893              	.LASF145:
 11894 09c2 5F676C75 		.ascii	"_glue\000"
 11894      6500
 11895              	.LASF141:
 11896 09c8 5F5F7367 		.ascii	"__sglue\000"
 11896      6C756500 
 11897              	.LASF39:
 11898 09d0 6C7A6F5F 		.ascii	"lzo_cta__30\000"
 11898      6374615F 
 11898      5F333000 
 11899              	.LASF40:
 11900 09dc 6C7A6F5F 		.ascii	"lzo_cta__31\000"
 11900      6374615F 
 11900      5F333100 
 11901              	.LASF41:
 11902 09e8 6C7A6F5F 		.ascii	"lzo_cta__32\000"
 11902      6374615F 
 11902      5F333200 
 11903              	.LASF42:
 11904 09f4 6C7A6F5F 		.ascii	"lzo_cta__33\000"
 11904      6374615F 
 11904      5F333300 
 11905              	.LASF43:
 11906 0a00 6C7A6F5F 		.ascii	"lzo_cta__34\000"
 11906      6374615F 
 11906      5F333400 
 11907              	.LASF44:
 11908 0a0c 6C7A6F5F 		.ascii	"lzo_cta__35\000"
 11908      6374615F 
 11908      5F333500 
 11909              	.LASF45:
 11910 0a18 6C7A6F5F 		.ascii	"lzo_cta__36\000"
 11910      6374615F 
 11910      5F333600 
 11911              	.LASF46:
 11912 0a24 6C7A6F5F 		.ascii	"lzo_cta__37\000"
 11912      6374615F 
 11912      5F333700 
 11913              	.LASF47:
 11914 0a30 6C7A6F5F 		.ascii	"lzo_cta__38\000"
 11914      6374615F 
 11914      5F333800 
ARM GAS  /tmp/ccrwCQMC.s 			page 218


 11915              	.LASF48:
 11916 0a3c 6C7A6F5F 		.ascii	"lzo_cta__39\000"
 11916      6374615F 
 11916      5F333900 
 11917              	.LASF129:
 11918 0a48 5F6C6F63 		.ascii	"_locale\000"
 11918      616C6500 
 11919              	.LASF210:
 11920 0a50 656F665F 		.ascii	"eof_found\000"
 11920      666F756E 
 11920      6400
 11921              	.LASF51:
 11922 0a5a 6C7A6F5F 		.ascii	"lzo_ullong_t__\000"
 11922      756C6C6F 
 11922      6E675F74 
 11922      5F5F00
 11923              	.LASF94:
 11924 0a69 5F666E61 		.ascii	"_fnargs\000"
 11924      72677300 
 11925              	.LASF0:
 11926 0a71 7369676E 		.ascii	"signed char\000"
 11926      65642063 
 11926      68617200 
 11927              	.LASF121:
 11928 0a7d 5F726565 		.ascii	"_reent\000"
 11928      6E7400
 11929              	.LASF3:
 11930 0a84 73686F72 		.ascii	"short unsigned int\000"
 11930      7420756E 
 11930      7369676E 
 11930      65642069 
 11930      6E7400
 11931              	.LASF248:
 11932 0a97 6D656D63 		.ascii	"memcpy\000"
 11932      707900
 11933              	.LASF204:
 11934 0a9e 6F757470 		.ascii	"output_overrun\000"
 11934      75745F6F 
 11934      76657272 
 11934      756E00
 11935              	.LASF96:
 11936 0aad 5F666E74 		.ascii	"_fntypes\000"
 11936      79706573 
 11936      00
 11937              	.LASF103:
 11938 0ab6 5F73697A 		.ascii	"_size\000"
 11938      6500
 11939              	.LASF186:
 11940 0abc 6C7A6F5F 		.ascii	"lzo_memops_TU2\000"
 11940      6D656D6F 
 11940      70735F54 
 11940      553200
 11941              	.LASF187:
 11942 0acb 6C7A6F5F 		.ascii	"lzo_memops_TU4\000"
 11942      6D656D6F 
 11942      70735F54 
 11942      553400
ARM GAS  /tmp/ccrwCQMC.s 			page 219


 11943              	.LASF237:
 11944 0ada 6C7A6F5F 		.ascii	"lzo_version_date\000"
 11944      76657273 
 11944      696F6E5F 
 11944      64617465 
 11944      00
 11945              	.LASF68:
 11946 0aeb 5F6F6666 		.ascii	"_off_t\000"
 11946      5F7400
 11947              	.LASF114:
 11948 0af2 5F6E6275 		.ascii	"_nbuf\000"
 11948      6600
 11949              	.LASF152:
 11950 0af8 5F756E75 		.ascii	"_unused_rand\000"
 11950      7365645F 
 11950      72616E64 
 11950      00
 11951              	.LASF49:
 11952 0b05 6C7A6F5F 		.ascii	"lzo_cta__40\000"
 11952      6374615F 
 11952      5F343000 
 11953              	.LASF50:
 11954 0b11 6C7A6F5F 		.ascii	"lzo_cta__41\000"
 11954      6374615F 
 11954      5F343100 
 11955              	.LASF53:
 11956 0b1d 6C7A6F5F 		.ascii	"lzo_cta__42\000"
 11956      6374615F 
 11956      5F343200 
 11957              	.LASF54:
 11958 0b29 6C7A6F5F 		.ascii	"lzo_cta__43\000"
 11958      6374615F 
 11958      5F343300 
 11959              	.LASF55:
 11960 0b35 6C7A6F5F 		.ascii	"lzo_cta__44\000"
 11960      6374615F 
 11960      5F343400 
 11961              	.LASF56:
 11962 0b41 6C7A6F5F 		.ascii	"lzo_cta__45\000"
 11962      6374615F 
 11962      5F343500 
 11963              	.LASF57:
 11964 0b4d 6C7A6F5F 		.ascii	"lzo_cta__46\000"
 11964      6374615F 
 11964      5F343600 
 11965              	.LASF58:
 11966 0b59 6C7A6F5F 		.ascii	"lzo_cta__47\000"
 11966      6374615F 
 11966      5F343700 
 11967              	.LASF59:
 11968 0b65 6C7A6F5F 		.ascii	"lzo_cta__48\000"
 11968      6374615F 
 11968      5F343800 
 11969              	.LASF60:
 11970 0b71 6C7A6F5F 		.ascii	"lzo_cta__49\000"
 11970      6374615F 
 11970      5F343900 
ARM GAS  /tmp/ccrwCQMC.s 			page 220


 11971              	.LASF97:
 11972 0b7d 5F69735F 		.ascii	"_is_cxa\000"
 11972      63786100 
 11973              	.LASF149:
 11974 0b85 5F736565 		.ascii	"_seed\000"
 11974      6400
 11975              	.LASF157:
 11976 0b8b 5F72616E 		.ascii	"_rand_next\000"
 11976      645F6E65 
 11976      787400
 11977              	.LASF175:
 11978 0b96 5F5F6C6F 		.ascii	"__locale_t\000"
 11978      63616C65 
 11978      5F7400
 11979              	.LASF230:
 11980 0ba1 64657374 		.ascii	"dest\000"
 11980      00
 11981              	.LASF111:
 11982 0ba6 5F736565 		.ascii	"_seek\000"
 11982      6B00
 11983              	.LASF195:
 11984 0bac 6C7A6F5F 		.ascii	"lzo_version_date_\000"
 11984      76657273 
 11984      696F6E5F 
 11984      64617465 
 11984      5F00
 11985              	.LASF125:
 11986 0bbe 5F737464 		.ascii	"_stderr\000"
 11986      65727200 
 11987              	.LASF172:
 11988 0bc6 5F6E6D61 		.ascii	"_nmalloc\000"
 11988      6C6C6F63 
 11988      00
 11989              	.LASF113:
 11990 0bcf 5F756275 		.ascii	"_ubuf\000"
 11990      6600
 11991              	.LASF194:
 11992 0bd5 6C7A6F5F 		.ascii	"lzo_version_string_\000"
 11992      76657273 
 11992      696F6E5F 
 11992      73747269 
 11992      6E675F00 
 11993              		.ident	"GCC: (GNU Tools for Arm Embedded Processors 7-2018-q3-update) 7.3.1 20180622 (release) [AR
ARM GAS  /tmp/ccrwCQMC.s 			page 221


DEFINED SYMBOLS
                            *ABS*:0000000000000000 minilzo.c
     /tmp/ccrwCQMC.s:18     .text.u2p:0000000000000000 $t
     /tmp/ccrwCQMC.s:25     .text.u2p:0000000000000000 u2p
     /tmp/ccrwCQMC.s:42     .text.lzo1x_1_compress_core:0000000000000000 $t
     /tmp/ccrwCQMC.s:49     .text.lzo1x_1_compress_core:0000000000000000 lzo1x_1_compress_core
     /tmp/ccrwCQMC.s:624    .text.lzo1x_1_compress_core:0000000000000298 $d
     /tmp/ccrwCQMC.s:632    .text.__lzo_ptr_linear:0000000000000000 $t
     /tmp/ccrwCQMC.s:640    .text.__lzo_ptr_linear:0000000000000000 __lzo_ptr_linear
     /tmp/ccrwCQMC.s:654    .text.__lzo_align_gap:0000000000000000 $t
     /tmp/ccrwCQMC.s:662    .text.__lzo_align_gap:0000000000000000 __lzo_align_gap
     /tmp/ccrwCQMC.s:700    .text.lzo_copyright:0000000000000000 $t
     /tmp/ccrwCQMC.s:708    .text.lzo_copyright:0000000000000000 lzo_copyright
     /tmp/ccrwCQMC.s:721    .text.lzo_copyright:0000000000000004 $d
     /tmp/ccrwCQMC.s:726    .text.lzo_version:0000000000000000 $t
     /tmp/ccrwCQMC.s:734    .text.lzo_version:0000000000000000 lzo_version
     /tmp/ccrwCQMC.s:748    .text.lzo_version_string:0000000000000000 $t
     /tmp/ccrwCQMC.s:756    .text.lzo_version_string:0000000000000000 lzo_version_string
     /tmp/ccrwCQMC.s:769    .text.lzo_version_string:0000000000000004 $d
     /tmp/ccrwCQMC.s:774    .text.lzo_version_date:0000000000000000 $t
     /tmp/ccrwCQMC.s:782    .text.lzo_version_date:0000000000000000 lzo_version_date
     /tmp/ccrwCQMC.s:795    .text.lzo_version_date:0000000000000004 $d
     /tmp/ccrwCQMC.s:800    .text._lzo_version_string:0000000000000000 $t
     /tmp/ccrwCQMC.s:808    .text._lzo_version_string:0000000000000000 _lzo_version_string
     /tmp/ccrwCQMC.s:819    .text._lzo_version_string:0000000000000004 $d
     /tmp/ccrwCQMC.s:824    .text._lzo_version_date:0000000000000000 $t
     /tmp/ccrwCQMC.s:832    .text._lzo_version_date:0000000000000000 _lzo_version_date
     /tmp/ccrwCQMC.s:843    .text._lzo_version_date:0000000000000004 $d
     /tmp/ccrwCQMC.s:848    .text.lzo_adler32:0000000000000000 $t
     /tmp/ccrwCQMC.s:856    .text.lzo_adler32:0000000000000000 lzo_adler32
     /tmp/ccrwCQMC.s:1079   .text.lzo_adler32:0000000000000124 $d
     /tmp/ccrwCQMC.s:1084   .text.lzo_memcmp:0000000000000000 $t
     /tmp/ccrwCQMC.s:1092   .text.lzo_memcmp:0000000000000000 lzo_memcmp
     /tmp/ccrwCQMC.s:1107   .text.lzo_memcpy:0000000000000000 $t
     /tmp/ccrwCQMC.s:1115   .text.lzo_memcpy:0000000000000000 lzo_memcpy
     /tmp/ccrwCQMC.s:1130   .text.lzo_memmove:0000000000000000 $t
     /tmp/ccrwCQMC.s:1138   .text.lzo_memmove:0000000000000000 lzo_memmove
     /tmp/ccrwCQMC.s:1153   .text.lzo_memset:0000000000000000 $t
     /tmp/ccrwCQMC.s:1161   .text.lzo_memset:0000000000000000 lzo_memset
     /tmp/ccrwCQMC.s:1176   .text._lzo_config_check:0000000000000000 $t
     /tmp/ccrwCQMC.s:1184   .text._lzo_config_check:0000000000000000 _lzo_config_check
     /tmp/ccrwCQMC.s:1420   .text._lzo_config_check:0000000000000120 $d
     /tmp/ccrwCQMC.s:1426   .text.__lzo_init_v2:0000000000000000 $t
     /tmp/ccrwCQMC.s:1434   .text.__lzo_init_v2:0000000000000000 __lzo_init_v2
     /tmp/ccrwCQMC.s:1545   .text.lzo1x_1_compress:0000000000000000 $t
     /tmp/ccrwCQMC.s:1553   .text.lzo1x_1_compress:0000000000000000 lzo1x_1_compress
     /tmp/ccrwCQMC.s:1926   .text.lzo1x_decompress:0000000000000000 $t
     /tmp/ccrwCQMC.s:1934   .text.lzo1x_decompress:0000000000000000 lzo1x_decompress
     /tmp/ccrwCQMC.s:2484   .text.lzo1x_decompress_safe:0000000000000000 $t
     /tmp/ccrwCQMC.s:2492   .text.lzo1x_decompress_safe:0000000000000000 lzo1x_decompress_safe
     /tmp/ccrwCQMC.s:3158   .rodata.lzo_copyright_:0000000000000000 $d
     /tmp/ccrwCQMC.s:3162   .rodata.lzo_copyright_:0000000000000000 lzo_copyright_
     /tmp/ccrwCQMC.s:3165   .rodata.lzo_version_date_:0000000000000000 $d
     /tmp/ccrwCQMC.s:3169   .rodata.lzo_version_date_:0000000000000000 lzo_version_date_
     /tmp/ccrwCQMC.s:3172   .rodata.lzo_version_string_:0000000000000000 $d
     /tmp/ccrwCQMC.s:3176   .rodata.lzo_version_string_:0000000000000000 lzo_version_string_

ARM GAS  /tmp/ccrwCQMC.s 			page 222


UNDEFINED SYMBOLS
memcmp
memcpy
memmove
memset
