ARM GAS  /tmp/ccvxu7Y1.s 			page 1


   1              		.cpu cortex-m4
   2              		.eabi_attribute 27, 1
   3              		.eabi_attribute 28, 1
   4              		.eabi_attribute 20, 1
   5              		.eabi_attribute 21, 1
   6              		.eabi_attribute 23, 3
   7              		.eabi_attribute 24, 1
   8              		.eabi_attribute 25, 1
   9              		.eabi_attribute 26, 1
  10              		.eabi_attribute 30, 2
  11              		.eabi_attribute 34, 1
  12              		.eabi_attribute 18, 4
  13              		.file	"misc.c"
  14              		.text
  15              	.Ltext0:
  16              		.cfi_sections	.debug_frame
  17              		.section	.text.NVIC_PriorityGroupConfig,"ax",%progbits
  18              		.align	1
  19              		.p2align 4,,15
  20              		.global	NVIC_PriorityGroupConfig
  21              		.syntax unified
  22              		.thumb
  23              		.thumb_func
  24              		.fpu fpv4-sp-d16
  25              		.type	NVIC_PriorityGroupConfig, %function
  26              	NVIC_PriorityGroupConfig:
  27              	.LFB112:
  28              		.file 1 "ChibiOS_3.0.5/ext/stdperiph_stm32f4/src/misc.c"
  29              		.loc 1 119 0
  30              		.cfi_startproc
  31              		@ args = 0, pretend = 0, frame = 0
  32              		@ frame_needed = 0, uses_anonymous_args = 0
  33              		@ link register save eliminated.
  34              	.LVL0:
  35              		.loc 1 124 0
  36 0000 40F0BF60 		orr	r0, r0, #100139008
  37              	.LVL1:
  38 0004 024B     		ldr	r3, .L3
  39 0006 40F40030 		orr	r0, r0, #131072
  40 000a D860     		str	r0, [r3, #12]
  41              		.loc 1 125 0
  42 000c 7047     		bx	lr
  43              	.L4:
  44 000e 00BF     		.align	2
  45              	.L3:
  46 0010 00ED00E0 		.word	-536810240
  47              		.cfi_endproc
  48              	.LFE112:
  49              		.size	NVIC_PriorityGroupConfig, .-NVIC_PriorityGroupConfig
  50              		.section	.text.NVIC_Init,"ax",%progbits
  51              		.align	1
  52              		.p2align 4,,15
  53              		.global	NVIC_Init
  54              		.syntax unified
  55              		.thumb
  56              		.thumb_func
  57              		.fpu fpv4-sp-d16
ARM GAS  /tmp/ccvxu7Y1.s 			page 2


  58              		.type	NVIC_Init, %function
  59              	NVIC_Init:
  60              	.LFB113:
  61              		.loc 1 137 0
  62              		.cfi_startproc
  63              		@ args = 0, pretend = 0, frame = 0
  64              		@ frame_needed = 0, uses_anonymous_args = 0
  65              		@ link register save eliminated.
  66              	.LVL2:
  67 0000 F0B4     		push	{r4, r5, r6, r7}
  68              		.cfi_def_cfa_offset 16
  69              		.cfi_offset 4, -16
  70              		.cfi_offset 5, -12
  71              		.cfi_offset 6, -8
  72              		.cfi_offset 7, -4
  73 0002 0178     		ldrb	r1, [r0]	@ zero_extendqisi2
  74              		.loc 1 145 0
  75 0004 C378     		ldrb	r3, [r0, #3]	@ zero_extendqisi2
  76 0006 0124     		movs	r4, #1
  77 0008 01F01F02 		and	r2, r1, #31
  78 000c 9440     		lsls	r4, r4, r2
  79 000e 4D09     		lsrs	r5, r1, #5
  80 0010 2BB9     		cbnz	r3, .L9
  81              		.loc 1 166 0
  82 0012 2035     		adds	r5, r5, #32
  83 0014 0F4B     		ldr	r3, .L10
  84 0016 43F82540 		str	r4, [r3, r5, lsl #2]
  85              		.loc 1 169 0
  86 001a F0BC     		pop	{r4, r5, r6, r7}
  87              		.cfi_remember_state
  88              		.cfi_restore 7
  89              		.cfi_restore 6
  90              		.cfi_restore 5
  91              		.cfi_restore 4
  92              		.cfi_def_cfa_offset 0
  93 001c 7047     		bx	lr
  94              	.L9:
  95              		.cfi_restore_state
  96              		.loc 1 148 0
  97 001e 0E4B     		ldr	r3, .L10+4
  98              		.loc 1 152 0
  99 0020 4678     		ldrb	r6, [r0, #1]	@ zero_extendqisi2
 100              		.loc 1 148 0
 101 0022 DB68     		ldr	r3, [r3, #12]
 102              		.loc 1 153 0
 103 0024 8278     		ldrb	r2, [r0, #2]	@ zero_extendqisi2
 104              		.loc 1 157 0
 105 0026 0B4F     		ldr	r7, .L10
 106              		.loc 1 148 0
 107 0028 D843     		mvns	r0, r3
 108              	.LVL3:
 109 002a C0F30220 		ubfx	r0, r0, #8, #3
 110              	.LVL4:
 111              		.loc 1 149 0
 112 002e C0F10403 		rsb	r3, r0, #4
 113              		.loc 1 152 0
 114 0032 DBB2     		uxtb	r3, r3
ARM GAS  /tmp/ccvxu7Y1.s 			page 3


 115 0034 9E40     		lsls	r6, r6, r3
 116              		.loc 1 150 0
 117 0036 0F23     		movs	r3, #15
 118 0038 0341     		asrs	r3, r3, r0
 119              		.loc 1 152 0
 120 003a F6B2     		uxtb	r6, r6
 121              	.LVL5:
 122              		.loc 1 153 0
 123 003c 1340     		ands	r3, r3, r2
 124 003e 3343     		orrs	r3, r3, r6
 125              	.LVL6:
 126              		.loc 1 157 0
 127 0040 3944     		add	r1, r1, r7
 128              		.loc 1 155 0
 129 0042 1B01     		lsls	r3, r3, #4
 130              	.LVL7:
 131 0044 DBB2     		uxtb	r3, r3
 132              	.LVL8:
 133              		.loc 1 157 0
 134 0046 81F80033 		strb	r3, [r1, #768]
 135              		.loc 1 160 0
 136 004a 47F82540 		str	r4, [r7, r5, lsl #2]
 137              		.loc 1 169 0
 138 004e F0BC     		pop	{r4, r5, r6, r7}
 139              		.cfi_restore 7
 140              		.cfi_restore 6
 141              		.cfi_restore 5
 142              		.cfi_restore 4
 143              		.cfi_def_cfa_offset 0
 144 0050 7047     		bx	lr
 145              	.L11:
 146 0052 00BF     		.align	2
 147              	.L10:
 148 0054 00E100E0 		.word	-536813312
 149 0058 00ED00E0 		.word	-536810240
 150              		.cfi_endproc
 151              	.LFE113:
 152              		.size	NVIC_Init, .-NVIC_Init
 153              		.section	.text.NVIC_SetVectorTable,"ax",%progbits
 154              		.align	1
 155              		.p2align 4,,15
 156              		.global	NVIC_SetVectorTable
 157              		.syntax unified
 158              		.thumb
 159              		.thumb_func
 160              		.fpu fpv4-sp-d16
 161              		.type	NVIC_SetVectorTable, %function
 162              	NVIC_SetVectorTable:
 163              	.LFB114:
 164              		.loc 1 181 0
 165              		.cfi_startproc
 166              		@ args = 0, pretend = 0, frame = 0
 167              		@ frame_needed = 0, uses_anonymous_args = 0
 168              		@ link register save eliminated.
 169              	.LVL9:
 170              		.loc 1 186 0
 171 0000 21F06041 		bic	r1, r1, #-536870912
ARM GAS  /tmp/ccvxu7Y1.s 			page 4


 172              	.LVL10:
 173 0004 21F07F01 		bic	r1, r1, #127
 174 0008 014B     		ldr	r3, .L13
 175 000a 0143     		orrs	r1, r1, r0
 176 000c 9960     		str	r1, [r3, #8]
 177              		.loc 1 187 0
 178 000e 7047     		bx	lr
 179              	.L14:
 180              		.align	2
 181              	.L13:
 182 0010 00ED00E0 		.word	-536810240
 183              		.cfi_endproc
 184              	.LFE114:
 185              		.size	NVIC_SetVectorTable, .-NVIC_SetVectorTable
 186              		.section	.text.NVIC_SystemLPConfig,"ax",%progbits
 187              		.align	1
 188              		.p2align 4,,15
 189              		.global	NVIC_SystemLPConfig
 190              		.syntax unified
 191              		.thumb
 192              		.thumb_func
 193              		.fpu fpv4-sp-d16
 194              		.type	NVIC_SystemLPConfig, %function
 195              	NVIC_SystemLPConfig:
 196              	.LFB115:
 197              		.loc 1 200 0
 198              		.cfi_startproc
 199              		@ args = 0, pretend = 0, frame = 0
 200              		@ frame_needed = 0, uses_anonymous_args = 0
 201              		@ link register save eliminated.
 202              	.LVL11:
 203              		.loc 1 207 0
 204 0000 044A     		ldr	r2, .L19
 205 0002 1369     		ldr	r3, [r2, #16]
 206              		.loc 1 205 0
 207 0004 19B9     		cbnz	r1, .L18
 208              		.loc 1 211 0
 209 0006 23EA0000 		bic	r0, r3, r0
 210              	.LVL12:
 211 000a 1061     		str	r0, [r2, #16]
 212              		.loc 1 213 0
 213 000c 7047     		bx	lr
 214              	.LVL13:
 215              	.L18:
 216              		.loc 1 207 0
 217 000e 1843     		orrs	r0, r0, r3
 218              	.LVL14:
 219 0010 1061     		str	r0, [r2, #16]
 220 0012 7047     		bx	lr
 221              	.L20:
 222              		.align	2
 223              	.L19:
 224 0014 00ED00E0 		.word	-536810240
 225              		.cfi_endproc
 226              	.LFE115:
 227              		.size	NVIC_SystemLPConfig, .-NVIC_SystemLPConfig
 228              		.section	.text.SysTick_CLKSourceConfig,"ax",%progbits
ARM GAS  /tmp/ccvxu7Y1.s 			page 5


 229              		.align	1
 230              		.p2align 4,,15
 231              		.global	SysTick_CLKSourceConfig
 232              		.syntax unified
 233              		.thumb
 234              		.thumb_func
 235              		.fpu fpv4-sp-d16
 236              		.type	SysTick_CLKSourceConfig, %function
 237              	SysTick_CLKSourceConfig:
 238              	.LFB116:
 239              		.loc 1 224 0
 240              		.cfi_startproc
 241              		@ args = 0, pretend = 0, frame = 0
 242              		@ frame_needed = 0, uses_anonymous_args = 0
 243              		@ link register save eliminated.
 244              	.LVL15:
 245              		.loc 1 229 0
 246 0000 044A     		ldr	r2, .L24
 247 0002 1368     		ldr	r3, [r2]
 248              		.loc 1 227 0
 249 0004 0428     		cmp	r0, #4
 250              		.loc 1 229 0
 251 0006 0CBF     		ite	eq
 252 0008 43F00403 		orreq	r3, r3, #4
 253              		.loc 1 233 0
 254 000c 23F00403 		bicne	r3, r3, #4
 255 0010 1360     		str	r3, [r2]
 256              		.loc 1 235 0
 257 0012 7047     		bx	lr
 258              	.L25:
 259              		.align	2
 260              	.L24:
 261 0014 10E000E0 		.word	-536813552
 262              		.cfi_endproc
 263              	.LFE116:
 264              		.size	SysTick_CLKSourceConfig, .-SysTick_CLKSourceConfig
 265              		.text
 266              	.Letext0:
 267              		.file 2 "/usr/arm-none-eabi/include/machine/_default_types.h"
 268              		.file 3 "/usr/arm-none-eabi/include/sys/_stdint.h"
 269              		.file 4 "ChibiOS_3.0.5/os/ext/CMSIS/include/core_cm4.h"
 270              		.file 5 "ChibiOS_3.0.5/os/ext/CMSIS/ST/system_stm32f4xx.h"
 271              		.file 6 "ChibiOS_3.0.5/os/ext/CMSIS/ST/stm32f4xx.h"
 272              		.file 7 "ChibiOS_3.0.5/ext/stdperiph_stm32f4/inc/misc.h"