ARM GAS  /tmp/ccE7Bk1F.s 			page 1


   1              		.cpu cortex-m4
   2              		.eabi_attribute 27, 1
   3              		.eabi_attribute 28, 1
   4              		.eabi_attribute 20, 1
   5              		.eabi_attribute 21, 1
   6              		.eabi_attribute 23, 3
   7              		.eabi_attribute 24, 1
   8              		.eabi_attribute 25, 1
   9              		.eabi_attribute 26, 1
  10              		.eabi_attribute 30, 2
  11              		.eabi_attribute 34, 1
  12              		.eabi_attribute 18, 4
  13              		.file	"nrf51.c"
  14              		.text
  15              	.Ltext0:
  16              		.cfi_sections	.debug_frame
  17              		.section	.text.nop_function,"ax",%progbits
  18              		.align	1
  19              		.p2align 4,,15
  20              		.syntax unified
  21              		.thumb
  22              		.thumb_func
  23              		.fpu fpv4-sp-d16
  24              		.type	nop_function, %function
  25              	nop_function:
  26              	.LFB275:
  27              		.file 1 "blackmagic/target/nrf51.c"
  28              		.loc 1 382 0
  29              		.cfi_startproc
  30              		@ args = 0, pretend = 0, frame = 0
  31              		@ frame_needed = 0, uses_anonymous_args = 0
  32              		@ link register save eliminated.
  33              		.loc 1 384 0
  34 0000 0120     		movs	r0, #1
  35 0002 7047     		bx	lr
  36              		.cfi_endproc
  37              	.LFE275:
  38              		.size	nop_function, .-nop_function
  39              		.section	.text.nrf51_cmd_read_help,"ax",%progbits
  40              		.align	1
  41              		.p2align 4,,15
  42              		.syntax unified
  43              		.thumb
  44              		.thumb_func
  45              		.fpu fpv4-sp-d16
  46              		.type	nrf51_cmd_read_help, %function
  47              	nrf51_cmd_read_help:
  48              	.LFB273:
  49              		.loc 1 347 0
  50              		.cfi_startproc
  51              		@ args = 0, pretend = 0, frame = 0
  52              		@ frame_needed = 0, uses_anonymous_args = 0
  53              	.LVL0:
  54 0000 70B5     		push	{r4, r5, r6, lr}
  55              		.cfi_def_cfa_offset 16
  56              		.cfi_offset 4, -16
  57              		.cfi_offset 5, -12
ARM GAS  /tmp/ccE7Bk1F.s 			page 2


  58              		.cfi_offset 6, -8
  59              		.cfi_offset 14, -4
  60              		.loc 1 350 0
  61 0002 0A49     		ldr	r1, .L8
  62 0004 0A4C     		ldr	r4, .L8+4
  63              		.loc 1 352 0
  64 0006 0B4E     		ldr	r6, .L8+8
  65              		.loc 1 347 0
  66 0008 0546     		mov	r5, r0
  67              		.loc 1 350 0
  68 000a FFF7FEFF 		bl	tc_printf
  69              	.LVL1:
  70 000e 0A4B     		ldr	r3, .L8+12
  71              		.loc 1 351 0
  72 0010 0A4A     		ldr	r2, .L8+16
  73 0012 00E0     		b	.L5
  74              	.LVL2:
  75              	.L7:
  76 0014 A368     		ldr	r3, [r4, #8]
  77              	.LVL3:
  78              	.L5:
  79              		.loc 1 352 0 discriminator 3
  80 0016 3146     		mov	r1, r6
  81 0018 2846     		mov	r0, r5
  82 001a FFF7FEFF 		bl	tc_printf
  83              	.LVL4:
  84              		.loc 1 351 0 discriminator 3
  85 001e 54F80C2F 		ldr	r2, [r4, #12]!
  86              	.LVL5:
  87 0022 002A     		cmp	r2, #0
  88 0024 F6D1     		bne	.L7
  89              		.loc 1 355 0
  90 0026 0120     		movs	r0, #1
  91 0028 70BD     		pop	{r4, r5, r6, pc}
  92              	.LVL6:
  93              	.L9:
  94 002a 00BF     		.align	2
  95              	.L8:
  96 002c 28000000 		.word	.LC2
  97 0030 00000000 		.word	.LANCHOR0
  98 0034 38000000 		.word	.LC3
  99 0038 00000000 		.word	.LC0
 100 003c 20000000 		.word	.LC1
 101              		.cfi_endproc
 102              	.LFE273:
 103              		.size	nrf51_cmd_read_help, .-nrf51_cmd_read_help
 104              		.section	.text.nrf51_cmd_read,"ax",%progbits
 105              		.align	1
 106              		.p2align 4,,15
 107              		.syntax unified
 108              		.thumb
 109              		.thumb_func
 110              		.fpu fpv4-sp-d16
 111              		.type	nrf51_cmd_read, %function
 112              	nrf51_cmd_read:
 113              	.LFB274:
 114              		.loc 1 357 0
ARM GAS  /tmp/ccE7Bk1F.s 			page 3


 115              		.cfi_startproc
 116              		@ args = 0, pretend = 0, frame = 0
 117              		@ frame_needed = 0, uses_anonymous_args = 0
 118              	.LVL7:
 119 0000 2DE9F047 		push	{r4, r5, r6, r7, r8, r9, r10, lr}
 120              		.cfi_def_cfa_offset 32
 121              		.cfi_offset 4, -32
 122              		.cfi_offset 5, -28
 123              		.cfi_offset 6, -24
 124              		.cfi_offset 7, -20
 125              		.cfi_offset 8, -16
 126              		.cfi_offset 9, -12
 127              		.cfi_offset 10, -8
 128              		.cfi_offset 14, -4
 129              		.loc 1 364 0
 130 0004 5568     		ldr	r5, [r2, #4]
 131 0006 104C     		ldr	r4, .L16
 132              		.loc 1 357 0
 133 0008 8046     		mov	r8, r0
 134              		.loc 1 364 0
 135 000a 2846     		mov	r0, r5
 136              	.LVL8:
 137              		.loc 1 357 0
 138 000c 8946     		mov	r9, r1
 139 000e 1746     		mov	r7, r2
 140              		.loc 1 364 0
 141 0010 FFF7FEFF 		bl	strlen
 142              	.LVL9:
 143              		.loc 1 360 0
 144 0014 0D49     		ldr	r1, .L16+4
 145              		.loc 1 364 0
 146 0016 0646     		mov	r6, r0
 147 0018 02E0     		b	.L12
 148              	.LVL10:
 149              	.L11:
 150              		.loc 1 360 0 discriminator 2
 151 001a 54F80C1F 		ldr	r1, [r4, #12]!
 152              	.LVL11:
 153 001e 69B1     		cbz	r1, .L15
 154              	.LVL12:
 155              	.L12:
 156              		.loc 1 364 0
 157 0020 3246     		mov	r2, r6
 158 0022 2846     		mov	r0, r5
 159 0024 FFF7FEFF 		bl	strncmp
 160              	.LVL13:
 161 0028 0028     		cmp	r0, #0
 162 002a F6D1     		bne	.L11
 163              		.loc 1 365 0
 164 002c 6368     		ldr	r3, [r4, #4]
 165 002e 3A1D     		adds	r2, r7, #4
 166 0030 09F1FF31 		add	r1, r9, #-1
 167 0034 4046     		mov	r0, r8
 168              		.loc 1 369 0
 169 0036 BDE8F047 		pop	{r4, r5, r6, r7, r8, r9, r10, lr}
 170              		.cfi_remember_state
 171              		.cfi_restore 14
ARM GAS  /tmp/ccE7Bk1F.s 			page 4


 172              		.cfi_restore 10
 173              		.cfi_restore 9
 174              		.cfi_restore 8
 175              		.cfi_restore 7
 176              		.cfi_restore 6
 177              		.cfi_restore 5
 178              		.cfi_restore 4
 179              		.cfi_def_cfa_offset 0
 180              	.LVL14:
 181              		.loc 1 365 0
 182 003a 1847     		bx	r3
 183              	.LVL15:
 184              	.L15:
 185              		.cfi_restore_state
 186              		.loc 1 368 0
 187 003c 4046     		mov	r0, r8
 188              		.loc 1 369 0
 189 003e BDE8F047 		pop	{r4, r5, r6, r7, r8, r9, r10, lr}
 190              		.cfi_restore 14
 191              		.cfi_restore 10
 192              		.cfi_restore 9
 193              		.cfi_restore 8
 194              		.cfi_restore 7
 195              		.cfi_restore 6
 196              		.cfi_restore 5
 197              		.cfi_restore 4
 198              		.cfi_def_cfa_offset 0
 199              	.LVL16:
 200              		.loc 1 368 0
 201 0042 FFF7FEBF 		b	nrf51_cmd_read_help
 202              	.LVL17:
 203              	.L17:
 204 0046 00BF     		.align	2
 205              	.L16:
 206 0048 00000000 		.word	.LANCHOR0
 207 004c 20000000 		.word	.LC1
 208              		.cfi_endproc
 209              	.LFE274:
 210              		.size	nrf51_cmd_read, .-nrf51_cmd_read
 211              		.section	.text.nrf51_cmd_read_deviceaddr,"ax",%progbits
 212              		.align	1
 213              		.p2align 4,,15
 214              		.syntax unified
 215              		.thumb
 216              		.thumb_func
 217              		.fpu fpv4-sp-d16
 218              		.type	nrf51_cmd_read_deviceaddr, %function
 219              	nrf51_cmd_read_deviceaddr:
 220              	.LFB272:
 221              		.loc 1 333 0
 222              		.cfi_startproc
 223              		@ args = 0, pretend = 0, frame = 0
 224              		@ frame_needed = 0, uses_anonymous_args = 0
 225              	.LVL18:
 226 0000 70B5     		push	{r4, r5, r6, lr}
 227              		.cfi_def_cfa_offset 16
 228              		.cfi_offset 4, -16
ARM GAS  /tmp/ccE7Bk1F.s 			page 5


 229              		.cfi_offset 5, -12
 230              		.cfi_offset 6, -8
 231              		.cfi_offset 14, -4
 232              		.loc 1 334 0
 233 0002 0C49     		ldr	r1, .L22
 234              		.loc 1 333 0
 235 0004 0446     		mov	r4, r0
 236              		.loc 1 334 0
 237 0006 FFF7FEFF 		bl	target_mem_read32
 238              	.LVL19:
 239              		.loc 1 335 0
 240 000a 0B49     		ldr	r1, .L22+4
 241              		.loc 1 334 0
 242 000c 0646     		mov	r6, r0
 243              	.LVL20:
 244              		.loc 1 335 0
 245 000e 2046     		mov	r0, r4
 246              	.LVL21:
 247 0010 FFF7FEFF 		bl	target_mem_read32
 248              	.LVL22:
 249              		.loc 1 336 0
 250 0014 0949     		ldr	r1, .L22+8
 251              		.loc 1 335 0
 252 0016 0546     		mov	r5, r0
 253              	.LVL23:
 254              		.loc 1 336 0
 255 0018 2046     		mov	r0, r4
 256              	.LVL24:
 257 001a FFF7FEFF 		bl	target_mem_read32
 258              	.LVL25:
 259              		.loc 1 338 0
 260 001e F107     		lsls	r1, r6, #31
 261              		.loc 1 336 0
 262 0020 82B2     		uxth	r2, r0
 263              	.LVL26:
 264              		.loc 1 339 0
 265 0022 2B46     		mov	r3, r5
 266 0024 2046     		mov	r0, r4
 267 0026 54BF     		ite	pl
 268 0028 0549     		ldrpl	r1, .L22+12
 269              		.loc 1 341 0
 270 002a 0649     		ldrmi	r1, .L22+16
 271 002c FFF7FEFF 		bl	tc_printf
 272              	.LVL27:
 273              		.loc 1 345 0
 274 0030 0120     		movs	r0, #1
 275 0032 70BD     		pop	{r4, r5, r6, pc}
 276              	.LVL28:
 277              	.L23:
 278              		.align	2
 279              	.L22:
 280 0034 A0000010 		.word	268435616
 281 0038 A4000010 		.word	268435620
 282 003c A8000010 		.word	268435624
 283 0040 00000000 		.word	.LC4
 284 0044 28000000 		.word	.LC5
 285              		.cfi_endproc
ARM GAS  /tmp/ccE7Bk1F.s 			page 6


 286              	.LFE272:
 287              		.size	nrf51_cmd_read_deviceaddr, .-nrf51_cmd_read_deviceaddr
 288              		.section	.text.nrf51_cmd_read_deviceid,"ax",%progbits
 289              		.align	1
 290              		.p2align 4,,15
 291              		.syntax unified
 292              		.thumb
 293              		.thumb_func
 294              		.fpu fpv4-sp-d16
 295              		.type	nrf51_cmd_read_deviceid, %function
 296              	nrf51_cmd_read_deviceid:
 297              	.LFB271:
 298              		.loc 1 324 0
 299              		.cfi_startproc
 300              		@ args = 0, pretend = 0, frame = 0
 301              		@ frame_needed = 0, uses_anonymous_args = 0
 302              	.LVL29:
 303 0000 38B5     		push	{r3, r4, r5, lr}
 304              		.cfi_def_cfa_offset 16
 305              		.cfi_offset 3, -16
 306              		.cfi_offset 4, -12
 307              		.cfi_offset 5, -8
 308              		.cfi_offset 14, -4
 309              		.loc 1 325 0
 310 0002 0849     		ldr	r1, .L26
 311              		.loc 1 324 0
 312 0004 0446     		mov	r4, r0
 313              		.loc 1 325 0
 314 0006 FFF7FEFF 		bl	target_mem_read32
 315              	.LVL30:
 316              		.loc 1 326 0
 317 000a 0749     		ldr	r1, .L26+4
 318              		.loc 1 325 0
 319 000c 0546     		mov	r5, r0
 320              	.LVL31:
 321              		.loc 1 326 0
 322 000e 2046     		mov	r0, r4
 323              	.LVL32:
 324 0010 FFF7FEFF 		bl	target_mem_read32
 325              	.LVL33:
 326              		.loc 1 328 0
 327 0014 2B46     		mov	r3, r5
 328 0016 0246     		mov	r2, r0
 329 0018 0449     		ldr	r1, .L26+8
 330 001a 2046     		mov	r0, r4
 331              	.LVL34:
 332 001c FFF7FEFF 		bl	tc_printf
 333              	.LVL35:
 334              		.loc 1 331 0
 335 0020 0120     		movs	r0, #1
 336 0022 38BD     		pop	{r3, r4, r5, pc}
 337              	.LVL36:
 338              	.L27:
 339              		.align	2
 340              	.L26:
 341 0024 60000010 		.word	268435552
 342 0028 64000010 		.word	268435556
ARM GAS  /tmp/ccE7Bk1F.s 			page 7


 343 002c 00000000 		.word	.LC6
 344              		.cfi_endproc
 345              	.LFE271:
 346              		.size	nrf51_cmd_read_deviceid, .-nrf51_cmd_read_deviceid
 347              		.section	.text.nrf51_cmd_read_fwid,"ax",%progbits
 348              		.align	1
 349              		.p2align 4,,15
 350              		.syntax unified
 351              		.thumb
 352              		.thumb_func
 353              		.fpu fpv4-sp-d16
 354              		.type	nrf51_cmd_read_fwid, %function
 355              	nrf51_cmd_read_fwid:
 356              	.LFB270:
 357              		.loc 1 317 0
 358              		.cfi_startproc
 359              		@ args = 0, pretend = 0, frame = 0
 360              		@ frame_needed = 0, uses_anonymous_args = 0
 361              	.LVL37:
 362 0000 10B5     		push	{r4, lr}
 363              		.cfi_def_cfa_offset 8
 364              		.cfi_offset 4, -8
 365              		.cfi_offset 14, -4
 366              		.loc 1 318 0
 367 0002 0549     		ldr	r1, .L30
 368              		.loc 1 317 0
 369 0004 0446     		mov	r4, r0
 370              		.loc 1 318 0
 371 0006 FFF7FEFF 		bl	target_mem_read32
 372              	.LVL38:
 373              		.loc 1 319 0
 374 000a 0449     		ldr	r1, .L30+4
 375 000c 020C     		lsrs	r2, r0, #16
 376              	.LVL39:
 377 000e 2046     		mov	r0, r4
 378 0010 FFF7FEFF 		bl	tc_printf
 379              	.LVL40:
 380              		.loc 1 322 0
 381 0014 0120     		movs	r0, #1
 382 0016 10BD     		pop	{r4, pc}
 383              	.LVL41:
 384              	.L31:
 385              		.align	2
 386              	.L30:
 387 0018 5C000010 		.word	268435548
 388 001c 00000000 		.word	.LC7
 389              		.cfi_endproc
 390              	.LFE270:
 391              		.size	nrf51_cmd_read_fwid, .-nrf51_cmd_read_fwid
 392              		.section	.text.nrf51_cmd_read_hwid,"ax",%progbits
 393              		.align	1
 394              		.p2align 4,,15
 395              		.syntax unified
 396              		.thumb
 397              		.thumb_func
 398              		.fpu fpv4-sp-d16
 399              		.type	nrf51_cmd_read_hwid, %function
ARM GAS  /tmp/ccE7Bk1F.s 			page 8


 400              	nrf51_cmd_read_hwid:
 401              	.LFB269:
 402              		.loc 1 310 0
 403              		.cfi_startproc
 404              		@ args = 0, pretend = 0, frame = 0
 405              		@ frame_needed = 0, uses_anonymous_args = 0
 406              	.LVL42:
 407 0000 10B5     		push	{r4, lr}
 408              		.cfi_def_cfa_offset 8
 409              		.cfi_offset 4, -8
 410              		.cfi_offset 14, -4
 411              		.loc 1 311 0
 412 0002 0549     		ldr	r1, .L34
 413              		.loc 1 310 0
 414 0004 0446     		mov	r4, r0
 415              		.loc 1 311 0
 416 0006 FFF7FEFF 		bl	target_mem_read32
 417              	.LVL43:
 418              		.loc 1 312 0
 419 000a 0449     		ldr	r1, .L34+4
 420 000c 82B2     		uxth	r2, r0
 421 000e 2046     		mov	r0, r4
 422              	.LVL44:
 423 0010 FFF7FEFF 		bl	tc_printf
 424              	.LVL45:
 425              		.loc 1 315 0
 426 0014 0120     		movs	r0, #1
 427 0016 10BD     		pop	{r4, pc}
 428              	.LVL46:
 429              	.L35:
 430              		.align	2
 431              	.L34:
 432 0018 5C000010 		.word	268435548
 433 001c 00000000 		.word	.LC8
 434              		.cfi_endproc
 435              	.LFE269:
 436              		.size	nrf51_cmd_read_hwid, .-nrf51_cmd_read_hwid
 437              		.section	.text.nrf51_flash_erase,"ax",%progbits
 438              		.align	1
 439              		.p2align 4,,15
 440              		.syntax unified
 441              		.thumb
 442              		.thumb_func
 443              		.fpu fpv4-sp-d16
 444              		.type	nrf51_flash_erase, %function
 445              	nrf51_flash_erase:
 446              	.LFB265:
 447              		.loc 1 198 0
 448              		.cfi_startproc
 449              		@ args = 0, pretend = 0, frame = 0
 450              		@ frame_needed = 0, uses_anonymous_args = 0
 451              	.LVL47:
 452 0000 2DE9F047 		push	{r4, r5, r6, r7, r8, r9, r10, lr}
 453              		.cfi_def_cfa_offset 32
 454              		.cfi_offset 4, -32
 455              		.cfi_offset 5, -28
 456              		.cfi_offset 6, -24
ARM GAS  /tmp/ccE7Bk1F.s 			page 9


 457              		.cfi_offset 7, -20
 458              		.cfi_offset 8, -16
 459              		.cfi_offset 9, -12
 460              		.cfi_offset 10, -8
 461              		.cfi_offset 14, -4
 462              		.loc 1 199 0
 463 0004 8469     		ldr	r4, [r0, #24]
 464              	.LVL48:
 465              		.loc 1 204 0
 466 0006 274D     		ldr	r5, .L53
 467              		.loc 1 198 0
 468 0008 0746     		mov	r7, r0
 469 000a 0E46     		mov	r6, r1
 470 000c 9046     		mov	r8, r2
 471              		.loc 1 201 0
 472 000e 2649     		ldr	r1, .L53+4
 473              	.LVL49:
 474 0010 2046     		mov	r0, r4
 475              	.LVL50:
 476 0012 0222     		movs	r2, #2
 477              	.LVL51:
 478 0014 FFF7FEFF 		bl	target_mem_write32
 479              	.LVL52:
 480              		.loc 1 204 0
 481 0018 04E0     		b	.L37
 482              	.L39:
 483              		.loc 1 205 0
 484 001a 2046     		mov	r0, r4
 485 001c FFF7FEFF 		bl	target_check_error
 486              	.LVL53:
 487 0020 0028     		cmp	r0, #0
 488 0022 3BD1     		bne	.L44
 489              	.L37:
 490              		.loc 1 204 0
 491 0024 2946     		mov	r1, r5
 492 0026 2046     		mov	r0, r4
 493 0028 FFF7FEFF 		bl	target_mem_read32
 494              	.LVL54:
 495 002c 0028     		cmp	r0, #0
 496 002e F4D0     		beq	.L39
 497              		.loc 1 208 0
 498 0030 BB68     		ldr	r3, [r7, #8]
 499 0032 9845     		cmp	r8, r3
 500 0034 1FD3     		bcc	.L40
 501              		.loc 1 215 0
 502 0036 DFF87490 		ldr	r9, .L53+8
 503              		.loc 1 211 0
 504 003a DFF874A0 		ldr	r10, .L53+12
 505              		.loc 1 219 0
 506 003e 194D     		ldr	r5, .L53
 507              	.L46:
 508              		.loc 1 209 0
 509 0040 B6F1102F 		cmp	r6, #268439552
 510              		.loc 1 211 0
 511 0044 07BF     		ittee	eq
 512 0046 0122     		moveq	r2, #1
 513 0048 5146     		moveq	r1, r10
ARM GAS  /tmp/ccE7Bk1F.s 			page 10


 514              		.loc 1 215 0
 515 004a 3246     		movne	r2, r6
 516 004c 4946     		movne	r1, r9
 517 004e 2046     		mov	r0, r4
 518 0050 FFF7FEFF 		bl	target_mem_write32
 519              	.LVL55:
 520 0054 03E0     		b	.L43
 521              	.L45:
 522              		.loc 1 220 0
 523 0056 2046     		mov	r0, r4
 524 0058 FFF7FEFF 		bl	target_check_error
 525              	.LVL56:
 526 005c F0B9     		cbnz	r0, .L44
 527              	.L43:
 528              		.loc 1 219 0
 529 005e 2946     		mov	r1, r5
 530 0060 2046     		mov	r0, r4
 531 0062 FFF7FEFF 		bl	target_mem_read32
 532              	.LVL57:
 533 0066 0028     		cmp	r0, #0
 534 0068 F5D0     		beq	.L45
 535              		.loc 1 223 0
 536 006a BB68     		ldr	r3, [r7, #8]
 537              		.loc 1 224 0
 538 006c A8EB0308 		sub	r8, r8, r3
 539              	.LVL58:
 540              		.loc 1 208 0
 541 0070 4345     		cmp	r3, r8
 542              		.loc 1 223 0
 543 0072 1E44     		add	r6, r6, r3
 544              	.LVL59:
 545              		.loc 1 208 0
 546 0074 E4D9     		bls	.L46
 547              	.L40:
 548              		.loc 1 228 0
 549 0076 0022     		movs	r2, #0
 550 0078 0B49     		ldr	r1, .L53+4
 551              		.loc 1 231 0
 552 007a 0A4D     		ldr	r5, .L53
 553              		.loc 1 228 0
 554 007c 2046     		mov	r0, r4
 555 007e FFF7FEFF 		bl	target_mem_write32
 556              	.LVL60:
 557              		.loc 1 231 0
 558 0082 03E0     		b	.L47
 559              	.L48:
 560              		.loc 1 232 0
 561 0084 2046     		mov	r0, r4
 562 0086 FFF7FEFF 		bl	target_check_error
 563              	.LVL61:
 564 008a 38B9     		cbnz	r0, .L44
 565              	.L47:
 566              		.loc 1 231 0
 567 008c 2946     		mov	r1, r5
 568 008e 2046     		mov	r0, r4
 569 0090 FFF7FEFF 		bl	target_mem_read32
 570              	.LVL62:
ARM GAS  /tmp/ccE7Bk1F.s 			page 11


 571 0094 0028     		cmp	r0, #0
 572 0096 F5D0     		beq	.L48
 573              		.loc 1 235 0
 574 0098 0020     		movs	r0, #0
 575 009a 01E0     		b	.L36
 576              	.L44:
 577              		.loc 1 206 0
 578 009c 4FF0FF30 		mov	r0, #-1
 579              	.L36:
 580              		.loc 1 236 0
 581 00a0 BDE8F087 		pop	{r4, r5, r6, r7, r8, r9, r10, pc}
 582              	.LVL63:
 583              	.L54:
 584              		.align	2
 585              	.L53:
 586 00a4 00E40140 		.word	1073865728
 587 00a8 04E50140 		.word	1073865988
 588 00ac 08E50140 		.word	1073865992
 589 00b0 14E50140 		.word	1073866004
 590              		.cfi_endproc
 591              	.LFE265:
 592              		.size	nrf51_flash_erase, .-nrf51_flash_erase
 593              		.section	.text.nrf51_add_flash,"ax",%progbits
 594              		.align	1
 595              		.p2align 4,,15
 596              		.syntax unified
 597              		.thumb
 598              		.thumb_func
 599              		.fpu fpv4-sp-d16
 600              		.type	nrf51_add_flash, %function
 601              	nrf51_add_flash:
 602              	.LFB263:
 603              		.loc 1 95 0
 604              		.cfi_startproc
 605              		@ args = 0, pretend = 0, frame = 0
 606              		@ frame_needed = 0, uses_anonymous_args = 0
 607              	.LVL64:
 608 0000 2DE9F047 		push	{r4, r5, r6, r7, r8, r9, r10, lr}
 609              		.cfi_def_cfa_offset 32
 610              		.cfi_offset 4, -32
 611              		.cfi_offset 5, -28
 612              		.cfi_offset 6, -24
 613              		.cfi_offset 7, -20
 614              		.cfi_offset 8, -16
 615              		.cfi_offset 9, -12
 616              		.cfi_offset 10, -8
 617              		.cfi_offset 14, -4
 618              		.loc 1 95 0
 619 0004 0546     		mov	r5, r0
 620 0006 8A46     		mov	r10, r1
 621              		.loc 1 96 0
 622 0008 0120     		movs	r0, #1
 623              	.LVL65:
 624 000a 3021     		movs	r1, #48
 625              	.LVL66:
 626              		.loc 1 95 0
 627 000c 9146     		mov	r9, r2
ARM GAS  /tmp/ccE7Bk1F.s 			page 12


 628 000e 9846     		mov	r8, r3
 629              		.loc 1 96 0
 630 0010 FFF7FEFF 		bl	calloc
 631              	.LVL67:
 632              		.loc 1 100 0
 633 0014 084F     		ldr	r7, .L57
 634              		.loc 1 97 0
 635 0016 C0F800A0 		str	r10, [r0]
 636              		.loc 1 96 0
 637 001a 0446     		mov	r4, r0
 638              	.LVL68:
 639              		.loc 1 101 0
 640 001c 074E     		ldr	r6, .L57+4
 641              		.loc 1 98 0
 642 001e C4F80490 		str	r9, [r4, #4]
 643              		.loc 1 103 0
 644 0022 2846     		mov	r0, r5
 645              	.LVL69:
 646              		.loc 1 102 0
 647 0024 FF25     		movs	r5, #255
 648              	.LVL70:
 649              		.loc 1 103 0
 650 0026 2146     		mov	r1, r4
 651              		.loc 1 100 0
 652 0028 C4E90287 		strd	r8, r7, [r4, #8]
 653              		.loc 1 101 0
 654 002c 2661     		str	r6, [r4, #16]
 655              		.loc 1 102 0
 656 002e 2577     		strb	r5, [r4, #28]
 657              		.loc 1 104 0
 658 0030 BDE8F047 		pop	{r4, r5, r6, r7, r8, r9, r10, lr}
 659              		.cfi_restore 14
 660              		.cfi_restore 10
 661              		.cfi_restore 9
 662              		.cfi_restore 8
 663              		.cfi_restore 7
 664              		.cfi_restore 6
 665              		.cfi_restore 5
 666              		.cfi_restore 4
 667              		.cfi_def_cfa_offset 0
 668              	.LVL71:
 669              		.loc 1 103 0
 670 0034 FFF7FEBF 		b	target_add_flash
 671              	.LVL72:
 672              	.L58:
 673              		.align	2
 674              	.L57:
 675 0038 00000000 		.word	nrf51_flash_erase
 676 003c 00000000 		.word	nrf51_flash_write
 677              		.cfi_endproc
 678              	.LFE263:
 679              		.size	nrf51_add_flash, .-nrf51_add_flash
 680              		.section	.text.nrf51_flash_write,"ax",%progbits
 681              		.align	1
 682              		.p2align 4,,15
 683              		.syntax unified
 684              		.thumb
ARM GAS  /tmp/ccE7Bk1F.s 			page 13


 685              		.thumb_func
 686              		.fpu fpv4-sp-d16
 687              		.type	nrf51_flash_write, %function
 688              	nrf51_flash_write:
 689              	.LFB266:
 690              		.loc 1 240 0
 691              		.cfi_startproc
 692              		@ args = 0, pretend = 0, frame = 0
 693              		@ frame_needed = 0, uses_anonymous_args = 0
 694              	.LVL73:
 695 0000 2DE9F041 		push	{r4, r5, r6, r7, r8, lr}
 696              		.cfi_def_cfa_offset 24
 697              		.cfi_offset 4, -24
 698              		.cfi_offset 5, -20
 699              		.cfi_offset 6, -16
 700              		.cfi_offset 7, -12
 701              		.cfi_offset 8, -8
 702              		.cfi_offset 14, -4
 703              		.loc 1 241 0
 704 0004 8469     		ldr	r4, [r0, #24]
 705              	.LVL74:
 706              		.loc 1 247 0
 707 0006 1E4D     		ldr	r5, .L65
 708              		.loc 1 240 0
 709 0008 8846     		mov	r8, r1
 710 000a 1746     		mov	r7, r2
 711 000c 82B0     		sub	sp, sp, #8
 712              		.cfi_def_cfa_offset 32
 713              		.loc 1 244 0
 714 000e 2046     		mov	r0, r4
 715              	.LVL75:
 716 0010 0122     		movs	r2, #1
 717              	.LVL76:
 718 0012 1C49     		ldr	r1, .L65+4
 719              	.LVL77:
 720              		.loc 1 240 0
 721 0014 1E46     		mov	r6, r3
 722              		.loc 1 244 0
 723 0016 FFF7FEFF 		bl	target_mem_write32
 724              	.LVL78:
 725              		.loc 1 247 0
 726 001a 03E0     		b	.L60
 727              	.L62:
 728              		.loc 1 248 0
 729 001c 2046     		mov	r0, r4
 730 001e FFF7FEFF 		bl	target_check_error
 731              	.LVL79:
 732 0022 30BB     		cbnz	r0, .L63
 733              	.L60:
 734              		.loc 1 247 0
 735 0024 2946     		mov	r1, r5
 736 0026 2046     		mov	r0, r4
 737 0028 FFF7FEFF 		bl	target_mem_read32
 738              	.LVL80:
 739 002c 0028     		cmp	r0, #0
 740 002e F5D0     		beq	.L62
 741              		.loc 1 252 0
ARM GAS  /tmp/ccE7Bk1F.s 			page 14


 742 0030 2423     		movs	r3, #36
 743 0032 154A     		ldr	r2, .L65+8
 744 0034 4FF00051 		mov	r1, #536870912
 745 0038 2046     		mov	r0, r4
 746 003a FFF7FEFF 		bl	target_mem_write
 747              	.LVL81:
 748              		.loc 1 254 0
 749 003e 3346     		mov	r3, r6
 750 0040 3A46     		mov	r2, r7
 751 0042 1249     		ldr	r1, .L65+12
 752              		.loc 1 255 0
 753 0044 0027     		movs	r7, #0
 754              	.LVL82:
 755              		.loc 1 254 0
 756 0046 2046     		mov	r0, r4
 757 0048 FFF7FEFF 		bl	target_mem_write
 758              	.LVL83:
 759              		.loc 1 255 0
 760 004c 4246     		mov	r2, r8
 761 004e 0F4B     		ldr	r3, .L65+12
 762 0050 0096     		str	r6, [sp]
 763 0052 0197     		str	r7, [sp, #4]
 764 0054 4FF00051 		mov	r1, #536870912
 765 0058 2046     		mov	r0, r4
 766 005a FFF7FEFF 		bl	cortexm_run_stub
 767              	.LVL84:
 768              		.loc 1 258 0
 769 005e 3A46     		mov	r2, r7
 770              		.loc 1 255 0
 771 0060 0546     		mov	r5, r0
 772              	.LVL85:
 773              		.loc 1 258 0
 774 0062 0849     		ldr	r1, .L65+4
 775 0064 2046     		mov	r0, r4
 776              	.LVL86:
 777 0066 FFF7FEFF 		bl	target_mem_write32
 778              	.LVL87:
 779              		.loc 1 261 0
 780 006a 2846     		mov	r0, r5
 781 006c 02B0     		add	sp, sp, #8
 782              		.cfi_remember_state
 783              		.cfi_def_cfa_offset 24
 784              		@ sp needed
 785 006e BDE8F081 		pop	{r4, r5, r6, r7, r8, pc}
 786              	.LVL88:
 787              	.L63:
 788              		.cfi_restore_state
 789              		.loc 1 249 0
 790 0072 4FF0FF35 		mov	r5, #-1
 791              		.loc 1 261 0
 792 0076 2846     		mov	r0, r5
 793 0078 02B0     		add	sp, sp, #8
 794              		.cfi_def_cfa_offset 24
 795              		@ sp needed
 796 007a BDE8F081 		pop	{r4, r5, r6, r7, r8, pc}
 797              	.LVL89:
 798              	.L66:
ARM GAS  /tmp/ccE7Bk1F.s 			page 15


 799 007e 00BF     		.align	2
 800              	.L65:
 801 0080 00E40140 		.word	1073865728
 802 0084 04E50140 		.word	1073865988
 803 0088 00000000 		.word	.LANCHOR1
 804 008c 24000020 		.word	536870948
 805              		.cfi_endproc
 806              	.LFE266:
 807              		.size	nrf51_flash_write, .-nrf51_flash_write
 808              		.section	.text.nrf51_mdm_cmd_erase_mass,"ax",%progbits
 809              		.align	1
 810              		.p2align 4,,15
 811              		.syntax unified
 812              		.thumb
 813              		.thumb_func
 814              		.fpu fpv4-sp-d16
 815              		.type	nrf51_mdm_cmd_erase_mass, %function
 816              	nrf51_mdm_cmd_erase_mass:
 817              	.LFB277:
 818              		.loc 1 425 0
 819              		.cfi_startproc
 820              		@ args = 0, pretend = 0, frame = 0
 821              		@ frame_needed = 0, uses_anonymous_args = 0
 822              	.LVL90:
 823 0000 10B5     		push	{r4, lr}
 824              		.cfi_def_cfa_offset 8
 825              		.cfi_offset 4, -8
 826              		.cfi_offset 14, -4
 827              		.loc 1 426 0
 828 0002 C46E     		ldr	r4, [r0, #108]
 829              	.LVL91:
 830              		.loc 1 428 0
 831 0004 4FF48471 		mov	r1, #264
 832 0008 2046     		mov	r0, r4
 833              	.LVL92:
 834 000a FFF7FEFF 		bl	adiv5_ap_read
 835              	.LVL93:
 836              		.loc 1 430 0
 837 000e 6068     		ldr	r0, [r4, #4]
 838 0010 4FF0A042 		mov	r2, #1342177280
 839 0014 0121     		movs	r1, #1
 840 0016 FFF7FEFF 		bl	adiv5_dp_write
 841              	.LVL94:
 842              		.loc 1 432 0
 843 001a 6068     		ldr	r0, [r4, #4]
 844 001c 4FF08072 		mov	r2, #16777216
 845 0020 0221     		movs	r1, #2
 846 0022 FFF7FEFF 		bl	adiv5_dp_write
 847              	.LVL95:
 848              		.loc 1 434 0
 849 0026 2046     		mov	r0, r4
 850 0028 0122     		movs	r2, #1
 851 002a 4FF48271 		mov	r1, #260
 852 002e FFF7FEFF 		bl	adiv5_ap_write
 853              	.LVL96:
 854              	.L68:
 855              		.loc 1 438 0 discriminator 1
ARM GAS  /tmp/ccE7Bk1F.s 			page 16


 856 0032 4FF48471 		mov	r1, #264
 857 0036 2046     		mov	r0, r4
 858 0038 FFF7FEFF 		bl	adiv5_ap_read
 859              	.LVL97:
 860              		.loc 1 439 0 discriminator 1
 861 003c 0028     		cmp	r0, #0
 862 003e F8D1     		bne	.L68
 863              		.loc 1 442 0
 864 0040 4FF48671 		mov	r1, #268
 865 0044 2046     		mov	r0, r4
 866              	.LVL98:
 867 0046 FFF7FEFF 		bl	adiv5_ap_read
 868              	.LVL99:
 869              		.loc 1 443 0
 870 004a 2046     		mov	r0, r4
 871 004c 4FF48671 		mov	r1, #268
 872 0050 FFF7FEFF 		bl	adiv5_ap_read
 873              	.LVL100:
 874              		.loc 1 447 0
 875 0054 0120     		movs	r0, #1
 876 0056 10BD     		pop	{r4, pc}
 877              		.cfi_endproc
 878              	.LFE277:
 879              		.size	nrf51_mdm_cmd_erase_mass, .-nrf51_mdm_cmd_erase_mass
 880              		.section	.text.nrf51_cmd_erase_uicr,"ax",%progbits
 881              		.align	1
 882              		.p2align 4,,15
 883              		.syntax unified
 884              		.thumb
 885              		.thumb_func
 886              		.fpu fpv4-sp-d16
 887              		.type	nrf51_cmd_erase_uicr, %function
 888              	nrf51_cmd_erase_uicr:
 889              	.LFB268:
 890              		.loc 1 287 0
 891              		.cfi_startproc
 892              		@ args = 0, pretend = 0, frame = 0
 893              		@ frame_needed = 0, uses_anonymous_args = 0
 894              	.LVL101:
 895 0000 38B5     		push	{r3, r4, r5, lr}
 896              		.cfi_def_cfa_offset 16
 897              		.cfi_offset 3, -16
 898              		.cfi_offset 4, -12
 899              		.cfi_offset 5, -8
 900              		.cfi_offset 14, -4
 901              		.loc 1 288 0
 902 0002 1549     		ldr	r1, .L81
 903              		.loc 1 294 0
 904 0004 154D     		ldr	r5, .L81+4
 905              		.loc 1 287 0
 906 0006 0446     		mov	r4, r0
 907              		.loc 1 288 0
 908 0008 FFF7FEFF 		bl	tc_printf
 909              	.LVL102:
 910              		.loc 1 291 0
 911 000c 2046     		mov	r0, r4
 912 000e 0222     		movs	r2, #2
ARM GAS  /tmp/ccE7Bk1F.s 			page 17


 913 0010 1349     		ldr	r1, .L81+8
 914 0012 FFF7FEFF 		bl	target_mem_write32
 915              	.LVL103:
 916              		.loc 1 294 0
 917 0016 03E0     		b	.L72
 918              	.L74:
 919              		.loc 1 295 0
 920 0018 2046     		mov	r0, r4
 921 001a FFF7FEFF 		bl	target_check_error
 922              	.LVL104:
 923 001e C0B9     		cbnz	r0, .L76
 924              	.L72:
 925              		.loc 1 294 0
 926 0020 2946     		mov	r1, r5
 927 0022 2046     		mov	r0, r4
 928 0024 FFF7FEFF 		bl	target_mem_read32
 929              	.LVL105:
 930 0028 0028     		cmp	r0, #0
 931 002a F5D0     		beq	.L74
 932              	.LVL106:
 933              	.LBB4:
 934              	.LBB5:
 935              		.loc 1 299 0
 936 002c 0122     		movs	r2, #1
 937 002e 0D49     		ldr	r1, .L81+12
 938              		.loc 1 302 0
 939 0030 0A4D     		ldr	r5, .L81+4
 940              		.loc 1 299 0
 941 0032 2046     		mov	r0, r4
 942 0034 FFF7FEFF 		bl	target_mem_write32
 943              	.LVL107:
 944 0038 03E0     		b	.L75
 945              	.L77:
 946              		.loc 1 303 0
 947 003a 2046     		mov	r0, r4
 948 003c FFF7FEFF 		bl	target_check_error
 949              	.LVL108:
 950 0040 38B9     		cbnz	r0, .L76
 951              	.L75:
 952              		.loc 1 302 0
 953 0042 2946     		mov	r1, r5
 954 0044 2046     		mov	r0, r4
 955 0046 FFF7FEFF 		bl	target_mem_read32
 956              	.LVL109:
 957 004a 0028     		cmp	r0, #0
 958 004c F5D0     		beq	.L77
 959              		.loc 1 306 0
 960 004e 0120     		movs	r0, #1
 961              	.LBE5:
 962              	.LBE4:
 963              		.loc 1 307 0
 964 0050 38BD     		pop	{r3, r4, r5, pc}
 965              	.LVL110:
 966              	.L76:
 967              		.loc 1 296 0
 968 0052 0020     		movs	r0, #0
 969              		.loc 1 307 0
ARM GAS  /tmp/ccE7Bk1F.s 			page 18


 970 0054 38BD     		pop	{r3, r4, r5, pc}
 971              	.LVL111:
 972              	.L82:
 973 0056 00BF     		.align	2
 974              	.L81:
 975 0058 00000000 		.word	.LC9
 976 005c 00E40140 		.word	1073865728
 977 0060 04E50140 		.word	1073865988
 978 0064 14E50140 		.word	1073866004
 979              		.cfi_endproc
 980              	.LFE268:
 981              		.size	nrf51_cmd_erase_uicr, .-nrf51_cmd_erase_uicr
 982              		.section	.text.nrf51_cmd_erase_all,"ax",%progbits
 983              		.align	1
 984              		.p2align 4,,15
 985              		.syntax unified
 986              		.thumb
 987              		.thumb_func
 988              		.fpu fpv4-sp-d16
 989              		.type	nrf51_cmd_erase_all, %function
 990              	nrf51_cmd_erase_all:
 991              	.LFB267:
 992              		.loc 1 264 0
 993              		.cfi_startproc
 994              		@ args = 0, pretend = 0, frame = 0
 995              		@ frame_needed = 0, uses_anonymous_args = 0
 996              	.LVL112:
 997 0000 38B5     		push	{r3, r4, r5, lr}
 998              		.cfi_def_cfa_offset 16
 999              		.cfi_offset 3, -16
 1000              		.cfi_offset 4, -12
 1001              		.cfi_offset 5, -8
 1002              		.cfi_offset 14, -4
 1003              		.loc 1 265 0
 1004 0002 1549     		ldr	r1, .L93
 1005              		.loc 1 271 0
 1006 0004 154D     		ldr	r5, .L93+4
 1007              		.loc 1 264 0
 1008 0006 0446     		mov	r4, r0
 1009              		.loc 1 265 0
 1010 0008 FFF7FEFF 		bl	tc_printf
 1011              	.LVL113:
 1012              		.loc 1 268 0
 1013 000c 2046     		mov	r0, r4
 1014 000e 0222     		movs	r2, #2
 1015 0010 1349     		ldr	r1, .L93+8
 1016 0012 FFF7FEFF 		bl	target_mem_write32
 1017              	.LVL114:
 1018              		.loc 1 271 0
 1019 0016 03E0     		b	.L84
 1020              	.L86:
 1021              		.loc 1 272 0
 1022 0018 2046     		mov	r0, r4
 1023 001a FFF7FEFF 		bl	target_check_error
 1024              	.LVL115:
 1025 001e C0B9     		cbnz	r0, .L88
 1026              	.L84:
ARM GAS  /tmp/ccE7Bk1F.s 			page 19


 1027              		.loc 1 271 0
 1028 0020 2946     		mov	r1, r5
 1029 0022 2046     		mov	r0, r4
 1030 0024 FFF7FEFF 		bl	target_mem_read32
 1031              	.LVL116:
 1032 0028 0028     		cmp	r0, #0
 1033 002a F5D0     		beq	.L86
 1034              	.LVL117:
 1035              	.LBB8:
 1036              	.LBB9:
 1037              		.loc 1 276 0
 1038 002c 0122     		movs	r2, #1
 1039 002e 0D49     		ldr	r1, .L93+12
 1040              		.loc 1 279 0
 1041 0030 0A4D     		ldr	r5, .L93+4
 1042              		.loc 1 276 0
 1043 0032 2046     		mov	r0, r4
 1044 0034 FFF7FEFF 		bl	target_mem_write32
 1045              	.LVL118:
 1046 0038 03E0     		b	.L87
 1047              	.L89:
 1048              		.loc 1 280 0
 1049 003a 2046     		mov	r0, r4
 1050 003c FFF7FEFF 		bl	target_check_error
 1051              	.LVL119:
 1052 0040 38B9     		cbnz	r0, .L88
 1053              	.L87:
 1054              		.loc 1 279 0
 1055 0042 2946     		mov	r1, r5
 1056 0044 2046     		mov	r0, r4
 1057 0046 FFF7FEFF 		bl	target_mem_read32
 1058              	.LVL120:
 1059 004a 0028     		cmp	r0, #0
 1060 004c F5D0     		beq	.L89
 1061              		.loc 1 283 0
 1062 004e 0120     		movs	r0, #1
 1063              	.LBE9:
 1064              	.LBE8:
 1065              		.loc 1 284 0
 1066 0050 38BD     		pop	{r3, r4, r5, pc}
 1067              	.LVL121:
 1068              	.L88:
 1069              		.loc 1 273 0
 1070 0052 0020     		movs	r0, #0
 1071              		.loc 1 284 0
 1072 0054 38BD     		pop	{r3, r4, r5, pc}
 1073              	.LVL122:
 1074              	.L94:
 1075 0056 00BF     		.align	2
 1076              	.L93:
 1077 0058 00000000 		.word	.LC9
 1078 005c 00E40140 		.word	1073865728
 1079 0060 04E50140 		.word	1073865988
 1080 0064 0CE50140 		.word	1073865996
 1081              		.cfi_endproc
 1082              	.LFE267:
 1083              		.size	nrf51_cmd_erase_all, .-nrf51_cmd_erase_all
ARM GAS  /tmp/ccE7Bk1F.s 			page 20


 1084              		.section	.text.nrf51_probe,"ax",%progbits
 1085              		.align	1
 1086              		.p2align 4,,15
 1087              		.global	nrf51_probe
 1088              		.syntax unified
 1089              		.thumb
 1090              		.thumb_func
 1091              		.fpu fpv4-sp-d16
 1092              		.type	nrf51_probe, %function
 1093              	nrf51_probe:
 1094              	.LFB264:
 1095              		.loc 1 107 0
 1096              		.cfi_startproc
 1097              		@ args = 0, pretend = 0, frame = 0
 1098              		@ frame_needed = 0, uses_anonymous_args = 0
 1099              	.LVL123:
 1100 0000 10B5     		push	{r4, lr}
 1101              		.cfi_def_cfa_offset 8
 1102              		.cfi_offset 4, -8
 1103              		.cfi_offset 14, -4
 1104              		.loc 1 108 0
 1105 0002 7249     		ldr	r1, .L202
 1106              		.loc 1 107 0
 1107 0004 0446     		mov	r4, r0
 1108              		.loc 1 108 0
 1109 0006 FFF7FEFF 		bl	target_mem_read32
 1110              	.LVL124:
 1111 000a 80B2     		uxth	r0, r0
 1112              		.loc 1 110 0
 1113 000c 7328     		cmp	r0, #115
 1114              		.loc 1 108 0
 1115 000e 2065     		str	r0, [r4, #80]
 1116              		.loc 1 110 0
 1117 0010 50D9     		bls	.L193
 1118 0012 E328     		cmp	r0, #227
 1119 0014 00F0A080 		beq	.L108
 1120 0018 34D9     		bls	.L194
 1121 001a 40F24113 		movw	r3, #321
 1122 001e 9842     		cmp	r0, r3
 1123 0020 00F09A80 		beq	.L108
 1124 0024 B0F5A17F 		cmp	r0, #322
 1125 0028 73D3     		bcc	.L195
 1126 002a B0F5A87F 		cmp	r0, #336
 1127 002e 09D0     		beq	.L114
 1128 0030 40F2AB80 		bls	.L196
 1129 0034 40F25B13 		movw	r3, #347
 1130 0038 9842     		cmp	r0, r3
 1131 003a 03D0     		beq	.L114
 1132 003c 40F2EB13 		movw	r3, #491
 1133 0040 9842     		cmp	r0, r3
 1134 0042 6CD1     		bne	.L116
 1135              	.L114:
 1136              		.loc 1 186 0
 1137 0044 624B     		ldr	r3, .L202+4
 1138 0046 2366     		str	r3, [r4, #96]
 1139              		.loc 1 187 0
 1140 0048 4FF48022 		mov	r2, #262144
ARM GAS  /tmp/ccE7Bk1F.s 			page 21


 1141 004c 4FF00051 		mov	r1, #536870912
 1142 0050 2046     		mov	r0, r4
 1143 0052 FFF7FEFF 		bl	target_add_ram
 1144              	.LVL125:
 1145              		.loc 1 188 0
 1146 0056 4FF48053 		mov	r3, #4096
 1147 005a 4FF48012 		mov	r2, #1048576
 1148              	.L190:
 1149 005e 2046     		mov	r0, r4
 1150 0060 0021     		movs	r1, #0
 1151 0062 FFF7FEFF 		bl	nrf51_add_flash
 1152              	.LVL126:
 1153              		.loc 1 189 0
 1154 0066 4FF48063 		mov	r3, #1024
 1155 006a 1A46     		mov	r2, r3
 1156 006c 2046     		mov	r0, r4
 1157 006e 4FF01021 		mov	r1, #268439552
 1158 0072 FFF7FEFF 		bl	nrf51_add_flash
 1159              	.LVL127:
 1160              		.loc 1 190 0
 1161 0076 2046     		mov	r0, r4
 1162 0078 564A     		ldr	r2, .L202+8
 1163 007a 5749     		ldr	r1, .L202+12
 1164 007c FFF7FEFF 		bl	target_add_commands
 1165              	.LVL128:
 1166              		.loc 1 191 0
 1167 0080 0120     		movs	r0, #1
 1168              		.loc 1 195 0
 1169 0082 10BD     		pop	{r4, pc}
 1170              	.LVL129:
 1171              	.L194:
 1172              		.loc 1 110 0
 1173 0084 8828     		cmp	r0, #136
 1174 0086 4CD8     		bhi	.L110
 1175 0088 8328     		cmp	r0, #131
 1176 008a 22D2     		bcs	.L107
 1177 008c 7928     		cmp	r0, #121
 1178 008e 46D3     		bcc	.L116
 1179 0090 7A28     		cmp	r0, #122
 1180 0092 4DD9     		bls	.L98
 1181 0094 7E28     		cmp	r0, #126
 1182 0096 42D8     		bhi	.L116
 1183              	.L101:
 1184              		.loc 1 150 0
 1185 0098 504B     		ldr	r3, .L202+16
 1186 009a 2366     		str	r3, [r4, #96]
 1187              		.loc 1 151 0
 1188 009c 4FF48042 		mov	r2, #16384
 1189 00a0 4FF00051 		mov	r1, #536870912
 1190 00a4 2046     		mov	r0, r4
 1191 00a6 FFF7FEFF 		bl	target_add_ram
 1192              	.LVL130:
 1193              		.loc 1 152 0
 1194 00aa 4FF48063 		mov	r3, #1024
 1195 00ae 4FF40032 		mov	r2, #131072
 1196 00b2 1BE0     		b	.L191
 1197              	.L193:
ARM GAS  /tmp/ccE7Bk1F.s 			page 22


 1198              		.loc 1 110 0
 1199 00b4 7228     		cmp	r0, #114
 1200 00b6 3BD2     		bcs	.L98
 1201 00b8 3C28     		cmp	r0, #60
 1202 00ba 39D0     		beq	.L98
 1203 00bc 5AD9     		bls	.L197
 1204 00be 4C28     		cmp	r0, #76
 1205 00c0 EAD0     		beq	.L101
 1206 00c2 3AD9     		bls	.L198
 1207 00c4 5728     		cmp	r0, #87
 1208 00c6 33D0     		beq	.L98
 1209 00c8 72D9     		bls	.L199
 1210 00ca 6128     		cmp	r0, #97
 1211 00cc E4D0     		beq	.L101
 1212 00ce 7128     		cmp	r0, #113
 1213 00d0 25D1     		bne	.L116
 1214              	.L107:
 1215              		.loc 1 163 0
 1216 00d2 424B     		ldr	r3, .L202+16
 1217 00d4 2366     		str	r3, [r4, #96]
 1218              		.loc 1 164 0
 1219 00d6 4FF40042 		mov	r2, #32768
 1220              	.L192:
 1221 00da 4FF00051 		mov	r1, #536870912
 1222 00de 2046     		mov	r0, r4
 1223 00e0 FFF7FEFF 		bl	target_add_ram
 1224              	.LVL131:
 1225              		.loc 1 165 0
 1226 00e4 4FF48063 		mov	r3, #1024
 1227 00e8 4FF48022 		mov	r2, #262144
 1228              	.L191:
 1229              		.loc 1 152 0
 1230 00ec 2046     		mov	r0, r4
 1231 00ee 0021     		movs	r1, #0
 1232 00f0 FFF7FEFF 		bl	nrf51_add_flash
 1233              	.LVL132:
 1234              		.loc 1 153 0
 1235 00f4 4FF48073 		mov	r3, #256
 1236 00f8 1A46     		mov	r2, r3
 1237 00fa 2046     		mov	r0, r4
 1238 00fc 4FF01021 		mov	r1, #268439552
 1239 0100 FFF7FEFF 		bl	nrf51_add_flash
 1240              	.LVL133:
 1241              		.loc 1 154 0
 1242 0104 2046     		mov	r0, r4
 1243 0106 364A     		ldr	r2, .L202+20
 1244 0108 3349     		ldr	r1, .L202+12
 1245 010a FFF7FEFF 		bl	target_add_commands
 1246              	.LVL134:
 1247              		.loc 1 155 0
 1248 010e 0120     		movs	r0, #1
 1249              		.loc 1 195 0
 1250 0110 10BD     		pop	{r4, pc}
 1251              	.LVL135:
 1252              	.L195:
 1253              		.loc 1 110 0
 1254 0112 B0F58A7F 		cmp	r0, #276
ARM GAS  /tmp/ccE7Bk1F.s 			page 23


 1255 0116 0BD0     		beq	.L98
 1256 0118 17D8     		bhi	.L113
 1257 011a EB28     		cmp	r0, #235
 1258 011c 92D0     		beq	.L114
 1259              	.L116:
 1260              		.loc 1 194 0
 1261 011e 0020     		movs	r0, #0
 1262              		.loc 1 195 0
 1263 0120 10BD     		pop	{r4, pc}
 1264              	.LVL136:
 1265              	.L110:
 1266              		.loc 1 110 0
 1267 0122 AC28     		cmp	r0, #172
 1268 0124 18D0     		beq	.L108
 1269 0126 39D9     		bls	.L200
 1270 0128 C728     		cmp	r0, #199
 1271 012a 15D0     		beq	.L108
 1272 012c D128     		cmp	r0, #209
 1273 012e F6D1     		bne	.L116
 1274              	.L98:
 1275              		.loc 1 136 0
 1276 0130 2A4B     		ldr	r3, .L202+16
 1277 0132 2366     		str	r3, [r4, #96]
 1278              		.loc 1 137 0
 1279 0134 4FF48042 		mov	r2, #16384
 1280 0138 CFE7     		b	.L192
 1281              	.L198:
 1282              		.loc 1 110 0
 1283 013a 4428     		cmp	r0, #68
 1284 013c F8D0     		beq	.L98
 1285 013e 3FD9     		bls	.L201
 1286 0140 4728     		cmp	r0, #71
 1287 0142 F5D0     		beq	.L98
 1288 0144 4A28     		cmp	r0, #74
 1289 0146 EAD1     		bne	.L116
 1290 0148 F2E7     		b	.L98
 1291              	.L113:
 1292 014a B0F59C7F 		cmp	r0, #312
 1293 014e EFD0     		beq	.L98
 1294 0150 40F23913 		movw	r3, #313
 1295 0154 9842     		cmp	r0, r3
 1296 0156 E2D1     		bne	.L116
 1297              	.L108:
 1298              		.loc 1 176 0
 1299 0158 1D4B     		ldr	r3, .L202+4
 1300 015a 2366     		str	r3, [r4, #96]
 1301              		.loc 1 177 0
 1302 015c 4FF48032 		mov	r2, #65536
 1303 0160 4FF00051 		mov	r1, #536870912
 1304 0164 2046     		mov	r0, r4
 1305 0166 FFF7FEFF 		bl	target_add_ram
 1306              	.LVL137:
 1307              		.loc 1 178 0
 1308 016a 4FF48053 		mov	r3, #4096
 1309 016e 4FF40022 		mov	r2, #524288
 1310 0172 74E7     		b	.L190
 1311              	.L197:
ARM GAS  /tmp/ccE7Bk1F.s 			page 24


 1312              		.loc 1 110 0
 1313 0174 2728     		cmp	r0, #39
 1314 0176 14D8     		bhi	.L100
 1315 0178 2628     		cmp	r0, #38
 1316 017a 8DD2     		bcs	.L101
 1317 017c 2028     		cmp	r0, #32
 1318 017e D7D0     		beq	.L98
 1319 0180 1BD8     		bhi	.L102
 1320 0182 1D38     		subs	r0, r0, #29
 1321 0184 0128     		cmp	r0, #1
 1322 0186 CAD8     		bhi	.L116
 1323 0188 D2E7     		b	.L98
 1324              	.L196:
 1325 018a 40F24713 		movw	r3, #327
 1326 018e 9842     		cmp	r0, r3
 1327 0190 E2D0     		beq	.L108
 1328 0192 40F24F13 		movw	r3, #335
 1329 0196 9842     		cmp	r0, r3
 1330 0198 DED0     		beq	.L108
 1331 019a C0E7     		b	.L116
 1332              	.L200:
 1333 019c 8F28     		cmp	r0, #143
 1334 019e BED1     		bne	.L116
 1335 01a0 C6E7     		b	.L98
 1336              	.L100:
 1337 01a2 2F28     		cmp	r0, #47
 1338 01a4 0FD8     		bhi	.L103
 1339 01a6 2D28     		cmp	r0, #45
 1340 01a8 C2D2     		bcs	.L98
 1341 01aa 2A28     		cmp	r0, #42
 1342 01ac B7D1     		bne	.L116
 1343 01ae BFE7     		b	.L98
 1344              	.L199:
 1345 01b0 4D28     		cmp	r0, #77
 1346 01b2 BDD0     		beq	.L98
 1347 01b4 5028     		cmp	r0, #80
 1348 01b6 B2D1     		bne	.L116
 1349 01b8 BAE7     		b	.L98
 1350              	.L102:
 1351 01ba 2428     		cmp	r0, #36
 1352 01bc AFD1     		bne	.L116
 1353 01be B7E7     		b	.L98
 1354              	.L201:
 1355 01c0 4028     		cmp	r0, #64
 1356 01c2 ACD1     		bne	.L116
 1357 01c4 B4E7     		b	.L98
 1358              	.L103:
 1359 01c6 3128     		cmp	r0, #49
 1360 01c8 A9D1     		bne	.L116
 1361 01ca B1E7     		b	.L98
 1362              	.L203:
 1363              		.align	2
 1364              	.L202:
 1365 01cc 5C000010 		.word	268435548
 1366 01d0 18000000 		.word	.LC12
 1367 01d4 28000000 		.word	.LC13
 1368 01d8 00000000 		.word	.LANCHOR2
ARM GAS  /tmp/ccE7Bk1F.s 			page 25


 1369 01dc 00000000 		.word	.LC10
 1370 01e0 10000000 		.word	.LC11
 1371              		.cfi_endproc
 1372              	.LFE264:
 1373              		.size	nrf51_probe, .-nrf51_probe
 1374              		.section	.text.nrf51_mdm_probe,"ax",%progbits
 1375              		.align	1
 1376              		.p2align 4,,15
 1377              		.global	nrf51_mdm_probe
 1378              		.syntax unified
 1379              		.thumb
 1380              		.thumb_func
 1381              		.fpu fpv4-sp-d16
 1382              		.type	nrf51_mdm_probe, %function
 1383              	nrf51_mdm_probe:
 1384              	.LFB276:
 1385              		.loc 1 387 0
 1386              		.cfi_startproc
 1387              		@ args = 0, pretend = 0, frame = 0
 1388              		@ frame_needed = 0, uses_anonymous_args = 0
 1389              	.LVL138:
 1390              		.loc 1 388 0
 1391 0000 C368     		ldr	r3, [r0, #12]
 1392 0002 B3F1227F 		cmp	r3, #42467328
 1393 0006 00D0     		beq	.L211
 1394 0008 7047     		bx	lr
 1395              	.L211:
 1396              		.loc 1 387 0
 1397 000a 70B5     		push	{r4, r5, r6, lr}
 1398              		.cfi_def_cfa_offset 16
 1399              		.cfi_offset 4, -16
 1400              		.cfi_offset 5, -12
 1401              		.cfi_offset 6, -8
 1402              		.cfi_offset 14, -4
 1403 000c 0546     		mov	r5, r0
 1404              		.loc 1 395 0
 1405 000e FFF7FEFF 		bl	target_new
 1406              	.LVL139:
 1407 0012 0446     		mov	r4, r0
 1408              	.LVL140:
 1409              		.loc 1 396 0
 1410 0014 2846     		mov	r0, r5
 1411              	.LVL141:
 1412 0016 FFF7FEFF 		bl	adiv5_ap_ref
 1413              	.LVL142:
 1414              		.loc 1 406 0
 1415 001a 0423     		movs	r3, #4
 1416              		.loc 1 398 0
 1417 001c 0C49     		ldr	r1, .L212
 1418              		.loc 1 406 0
 1419 001e E361     		str	r3, [r4, #28]
 1420              		.loc 1 401 0
 1421 0020 0C4B     		ldr	r3, .L212+4
 1422              		.loc 1 409 0
 1423 0022 0D4E     		ldr	r6, .L212+8
 1424              		.loc 1 410 0
 1425 0024 0D48     		ldr	r0, .L212+12
ARM GAS  /tmp/ccE7Bk1F.s 			page 26


 1426              		.loc 1 398 0
 1427 0026 2167     		str	r1, [r4, #112]
 1428              		.loc 1 400 0
 1429 0028 0D4A     		ldr	r2, .L212+16
 1430              		.loc 1 412 0
 1431 002a 0E49     		ldr	r1, .L212+20
 1432              		.loc 1 410 0
 1433 002c 6063     		str	r0, [r4, #52]
 1434              		.loc 1 412 0
 1435 002e E163     		str	r1, [r4, #60]
 1436              		.loc 1 397 0
 1437 0030 E566     		str	r5, [r4, #108]
 1438              		.loc 1 409 0
 1439 0032 E662     		str	r6, [r4, #44]
 1440              		.loc 1 400 0
 1441 0034 2266     		str	r2, [r4, #96]
 1442              		.loc 1 402 0
 1443 0036 C4E90233 		strd	r3, r3, [r4, #8]
 1444              		.loc 1 404 0
 1445 003a C4E90433 		strd	r3, r3, [r4, #16]
 1446              		.loc 1 405 0
 1447 003e A361     		str	r3, [r4, #24]
 1448              		.loc 1 408 0
 1449 0040 C4E90933 		strd	r3, r3, [r4, #36]
 1450              		.loc 1 414 0
 1451 0044 2046     		mov	r0, r4
 1452 0046 0849     		ldr	r1, .L212+24
 1453              		.loc 1 415 0
 1454 0048 BDE87040 		pop	{r4, r5, r6, lr}
 1455              		.cfi_restore 14
 1456              		.cfi_restore 6
 1457              		.cfi_restore 5
 1458              		.cfi_restore 4
 1459              		.cfi_def_cfa_offset 0
 1460              	.LVL143:
 1461              		.loc 1 414 0
 1462 004c FFF7FEBF 		b	target_add_commands
 1463              	.LVL144:
 1464              	.L213:
 1465              		.align	2
 1466              	.L212:
 1467 0050 00000000 		.word	adiv5_ap_unref
 1468 0054 00000000 		.word	nop_function
 1469 0058 00000000 		.word	cortexm_reset
 1470 005c 00000000 		.word	cortexm_halt_request
 1471 0060 00000000 		.word	.LC14
 1472 0064 00000000 		.word	cortexm_halt_resume
 1473 0068 00000000 		.word	.LANCHOR3
 1474              		.cfi_endproc
 1475              	.LFE276:
 1476              		.size	nrf51_mdm_probe, .-nrf51_mdm_probe
 1477              		.global	nrf51_mdm_cmd_list
 1478              		.global	nrf51_read_cmd_list
 1479              		.global	nrf51_cmd_list
 1480              		.section	.rodata.nrf51_cmd_erase_uicr.str1.4,"aMS",%progbits,1
 1481              		.align	2
 1482              	.LC9:
ARM GAS  /tmp/ccE7Bk1F.s 			page 27


 1483 0000 65726173 		.ascii	"erase..\012\000"
 1483      652E2E0A 
 1483      00
 1484              		.section	.rodata.nrf51_cmd_list,"a",%progbits
 1485              		.align	2
 1486              		.set	.LANCHOR2,. + 0
 1487              		.type	nrf51_cmd_list, %object
 1488              		.size	nrf51_cmd_list, 48
 1489              	nrf51_cmd_list:
 1490 0000 00000000 		.word	.LC15
 1491 0004 00000000 		.word	nrf51_cmd_erase_all
 1492 0008 0C000000 		.word	.LC16
 1493 000c BC000000 		.word	.LC25
 1494 0010 00000000 		.word	nrf51_cmd_erase_uicr
 1495 0014 C8000000 		.word	.LC26
 1496 0018 E0000000 		.word	.LC27
 1497 001c 00000000 		.word	nrf51_cmd_read
 1498 0020 E8000000 		.word	.LC28
 1499 0024 00000000 		.word	0
 1500 0028 00000000 		.word	0
 1501 002c 00000000 		.word	0
 1502              		.section	.rodata.nrf51_cmd_read_deviceaddr.str1.4,"aMS",%progbits,1
 1503              		.align	2
 1504              	.LC4:
 1505 0000 5075626C 		.ascii	"Publicly Listed Address: 0x%04X%08X\012\000"
 1505      69636C79 
 1505      204C6973 
 1505      74656420 
 1505      41646472 
 1506 0025 000000   		.space	3
 1507              	.LC5:
 1508 0028 52616E64 		.ascii	"Randomly Assigned Address: 0x%04X%08X\012\000"
 1508      6F6D6C79 
 1508      20417373 
 1508      69676E65 
 1508      64204164 
 1509              		.section	.rodata.nrf51_cmd_read_deviceid.str1.4,"aMS",%progbits,1
 1510              		.align	2
 1511              	.LC6:
 1512 0000 44657669 		.ascii	"Device ID: 0x%08X%08X\012\000"
 1512      63652049 
 1512      443A2030 
 1512      78253038 
 1512      58253038 
 1513              		.section	.rodata.nrf51_cmd_read_fwid.str1.4,"aMS",%progbits,1
 1514              		.align	2
 1515              	.LC7:
 1516 0000 4669726D 		.ascii	"Firmware ID: 0x%04X\012\000"
 1516      77617265 
 1516      2049443A 
 1516      20307825 
 1516      3034580A 
 1517              		.section	.rodata.nrf51_cmd_read_help.str1.4,"aMS",%progbits,1
 1518              		.align	2
 1519              	.LC0:
 1520 0000 44697370 		.ascii	"Display help for read commands\000"
 1520      6C617920 
ARM GAS  /tmp/ccE7Bk1F.s 			page 28


 1520      68656C70 
 1520      20666F72 
 1520      20726561 
 1521 001f 00       		.space	1
 1522              	.LC1:
 1523 0020 68656C70 		.ascii	"help\000"
 1523      00
 1524 0025 000000   		.space	3
 1525              	.LC2:
 1526 0028 52656164 		.ascii	"Read commands:\012\000"
 1526      20636F6D 
 1526      6D616E64 
 1526      733A0A00 
 1527              	.LC3:
 1528 0038 09257320 		.ascii	"\011%s -- %s\012\000"
 1528      2D2D2025 
 1528      730A00
 1529              		.section	.rodata.nrf51_cmd_read_hwid.str1.4,"aMS",%progbits,1
 1530              		.align	2
 1531              	.LC8:
 1532 0000 48617264 		.ascii	"Hardware ID: 0x%04X\012\000"
 1532      77617265 
 1532      2049443A 
 1532      20307825 
 1532      3034580A 
 1533              		.section	.rodata.nrf51_flash_write_stub,"a",%progbits
 1534              		.align	2
 1535              		.set	.LANCHOR1,. + 0
 1536              		.type	nrf51_flash_write_stub, %object
 1537              		.size	nrf51_flash_write_stub, 36
 1538              	nrf51_flash_write_stub:
 1539 0000 0023     		.short	8960
 1540 0002 0126     		.short	9729
 1541 0004 064D     		.short	19718
 1542 0006 C91A     		.short	6857
 1543 0008 C418     		.short	6340
 1544 000a 9A42     		.short	17050
 1545 000c 00D8     		.short	-10240
 1546 000e 00BE     		.short	-16896
 1547 0010 CF58     		.short	22735
 1548 0012 2760     		.short	24615
 1549 0014 2C68     		.short	26668
 1550 0016 3442     		.short	16948
 1551 0018 FCD0     		.short	-12036
 1552 001a 0433     		.short	13060
 1553 001c F4E7     		.short	-6156
 1554 001e C046     		.short	18112
 1555 0020 00E4     		.short	-7168
 1556 0022 0140     		.short	16385
 1557              		.section	.rodata.nrf51_mdm_cmd_list,"a",%progbits
 1558              		.align	2
 1559              		.set	.LANCHOR3,. + 0
 1560              		.type	nrf51_mdm_cmd_list, %object
 1561              		.size	nrf51_mdm_cmd_list, 24
 1562              	nrf51_mdm_cmd_list:
 1563 0000 00000000 		.word	.LC15
 1564 0004 00000000 		.word	nrf51_mdm_cmd_erase_mass
ARM GAS  /tmp/ccE7Bk1F.s 			page 29


 1565 0008 0C000000 		.word	.LC16
 1566 000c 00000000 		.word	0
 1567 0010 00000000 		.word	0
 1568 0014 00000000 		.word	0
 1569              		.section	.rodata.nrf51_mdm_probe.str1.4,"aMS",%progbits,1
 1570              		.align	2
 1571              	.LC14:
 1572 0000 4E6F7264 		.ascii	"Nordic nRF52 Access Port\000"
 1572      6963206E 
 1572      52463532 
 1572      20416363 
 1572      65737320 
 1573              		.section	.rodata.nrf51_probe.str1.4,"aMS",%progbits,1
 1574              		.align	2
 1575              	.LC10:
 1576 0000 4E6F7264 		.ascii	"Nordic nRF51\000"
 1576      6963206E 
 1576      52463531 
 1576      00
 1577 000d 000000   		.space	3
 1578              	.LC11:
 1579 0010 6E524635 		.ascii	"nRF51\000"
 1579      3100
 1580 0016 0000     		.space	2
 1581              	.LC12:
 1582 0018 4E6F7264 		.ascii	"Nordic nRF52\000"
 1582      6963206E 
 1582      52463532 
 1582      00
 1583 0025 000000   		.space	3
 1584              	.LC13:
 1585 0028 6E524635 		.ascii	"nRF52\000"
 1585      3200
 1586              		.section	.rodata.nrf51_read_cmd_list,"a",%progbits
 1587              		.align	2
 1588              		.set	.LANCHOR0,. + 0
 1589              		.type	nrf51_read_cmd_list, %object
 1590              		.size	nrf51_read_cmd_list, 72
 1591              	nrf51_read_cmd_list:
 1592 0000 20000000 		.word	.LC1
 1593 0004 00000000 		.word	nrf51_cmd_read_help
 1594 0008 00000000 		.word	.LC0
 1595 000c 28000000 		.word	.LC17
 1596 0010 00000000 		.word	nrf51_cmd_read_hwid
 1597 0014 30000000 		.word	.LC18
 1598 0018 54000000 		.word	.LC19
 1599 001c 00000000 		.word	nrf51_cmd_read_fwid
 1600 0020 5C000000 		.word	.LC20
 1601 0024 78000000 		.word	.LC21
 1602 0028 00000000 		.word	nrf51_cmd_read_deviceid
 1603 002c 84000000 		.word	.LC22
 1604 0030 9C000000 		.word	.LC23
 1605 0034 00000000 		.word	nrf51_cmd_read_deviceaddr
 1606 0038 A8000000 		.word	.LC24
 1607 003c 00000000 		.word	0
 1608 0040 00000000 		.word	0
 1609 0044 00000000 		.word	0
ARM GAS  /tmp/ccE7Bk1F.s 			page 30


 1610              		.section	.rodata.str1.4,"aMS",%progbits,1
 1611              		.align	2
 1612              	.LC15:
 1613 0000 65726173 		.ascii	"erase_mass\000"
 1613      655F6D61 
 1613      737300
 1614 000b 00       		.space	1
 1615              	.LC16:
 1616 000c 45726173 		.ascii	"Erase entire flash memory\000"
 1616      6520656E 
 1616      74697265 
 1616      20666C61 
 1616      7368206D 
 1617 0026 0000     		.space	2
 1618              	.LC17:
 1619 0028 68776964 		.ascii	"hwid\000"
 1619      00
 1620 002d 000000   		.space	3
 1621              	.LC18:
 1622 0030 52656164 		.ascii	"Read hardware identification number\000"
 1622      20686172 
 1622      64776172 
 1622      65206964 
 1622      656E7469 
 1623              	.LC19:
 1624 0054 66776964 		.ascii	"fwid\000"
 1624      00
 1625 0059 000000   		.space	3
 1626              	.LC20:
 1627 005c 52656164 		.ascii	"Read pre-loaded firmware ID\000"
 1627      20707265 
 1627      2D6C6F61 
 1627      64656420 
 1627      6669726D 
 1628              	.LC21:
 1629 0078 64657669 		.ascii	"deviceid\000"
 1629      63656964 
 1629      00
 1630 0081 000000   		.space	3
 1631              	.LC22:
 1632 0084 52656164 		.ascii	"Read unique device ID\000"
 1632      20756E69 
 1632      71756520 
 1632      64657669 
 1632      63652049 
 1633 009a 0000     		.space	2
 1634              	.LC23:
 1635 009c 64657669 		.ascii	"deviceaddr\000"
 1635      63656164 
 1635      647200
 1636 00a7 00       		.space	1
 1637              	.LC24:
 1638 00a8 52656164 		.ascii	"Read device address\000"
 1638      20646576 
 1638      69636520 
 1638      61646472 
 1638      65737300 
ARM GAS  /tmp/ccE7Bk1F.s 			page 31


 1639              	.LC25:
 1640 00bc 65726173 		.ascii	"erase_uicr\000"
 1640      655F7569 
 1640      637200
 1641 00c7 00       		.space	1
 1642              	.LC26:
 1643 00c8 45726173 		.ascii	"Erase UICR registers\000"
 1643      65205549 
 1643      43522072 
 1643      65676973 
 1643      74657273 
 1644 00dd 000000   		.space	3
 1645              	.LC27:
 1646 00e0 72656164 		.ascii	"read\000"
 1646      00
 1647 00e5 000000   		.space	3
 1648              	.LC28:
 1649 00e8 52656164 		.ascii	"Read device parameters\000"
 1649      20646576 
 1649      69636520 
 1649      70617261 
 1649      6D657465 
 1650              		.text
 1651              	.Letext0:
 1652              		.file 2 "/usr/arm-none-eabi/include/machine/_default_types.h"
 1653              		.file 3 "/usr/arm-none-eabi/include/sys/_stdint.h"
 1654              		.file 4 "/usr/lib/gcc/arm-none-eabi/7.3.1/include/stddef.h"
 1655              		.file 5 "/usr/arm-none-eabi/include/sys/lock.h"
 1656              		.file 6 "/usr/arm-none-eabi/include/sys/_types.h"
 1657              		.file 7 "/usr/arm-none-eabi/include/sys/reent.h"
 1658              		.file 8 "/usr/arm-none-eabi/include/stdlib.h"
 1659              		.file 9 "/usr/lib/gcc/arm-none-eabi/7.3.1/include/stdarg.h"
 1660              		.file 10 "<built-in>"
 1661              		.file 11 "/usr/arm-none-eabi/include/stdio.h"
 1662              		.file 12 "/usr/arm-none-eabi/include/sys/types.h"
 1663              		.file 13 "ChibiOS_3.0.5/os/rt/ports/ARMCMx/compilers/GCC/chtypes.h"
 1664              		.file 14 "ChibiOS_3.0.5/os/rt/include/chsystypes.h"
 1665              		.file 15 "ChibiOS_3.0.5/os/rt/include/chschd.h"
 1666              		.file 16 "ChibiOS_3.0.5/os/ext/CMSIS/include/core_cm4.h"
 1667              		.file 17 "ChibiOS_3.0.5/os/ext/CMSIS/ST/system_stm32f4xx.h"
 1668              		.file 18 "ChibiOS_3.0.5/os/ext/CMSIS/ST/stm32f407xx.h"
 1669              		.file 19 "ChibiOS_3.0.5/os/rt/ports/ARMCMx/chcore.h"
 1670              		.file 20 "ChibiOS_3.0.5/os/rt/ports/ARMCMx/chcore_v7m.h"
 1671              		.file 21 "ChibiOS_3.0.5/os/rt/include/chtm.h"
 1672              		.file 22 "ChibiOS_3.0.5/os/rt/include/chsem.h"
 1673              		.file 23 "ChibiOS_3.0.5/os/rt/include/chmtx.h"
 1674              		.file 24 "ChibiOS_3.0.5/os/rt/include/chregistry.h"
 1675              		.file 25 "ChibiOS_3.0.5/os/rt/include/chevents.h"
 1676              		.file 26 "ChibiOS_3.0.5/os/rt/include/chqueues.h"
 1677              		.file 27 "./datatypes.h"
 1678              		.file 28 "./conf_general.h"
 1679              		.file 29 "ChibiOS_3.0.5/os/hal/ports/STM32/STM32F4xx/stm32_dma.h"
 1680              		.file 30 "ChibiOS_3.0.5/os/hal/ports/STM32/LLD/GPIOv2/pal_lld.h"
 1681              		.file 31 "ChibiOS_3.0.5/os/hal/include/can.h"
 1682              		.file 32 "ChibiOS_3.0.5/os/hal/ports/STM32/LLD/can_lld.h"
 1683              		.file 33 "ChibiOS_3.0.5/os/hal/include/i2c.h"
 1684              		.file 34 "ChibiOS_3.0.5/os/hal/ports/STM32/LLD/I2Cv1/i2c_lld.h"
ARM GAS  /tmp/ccE7Bk1F.s 			page 32


 1685              		.file 35 "ChibiOS_3.0.5/os/hal/include/icu.h"
 1686              		.file 36 "ChibiOS_3.0.5/os/hal/ports/STM32/LLD/TIMv1/icu_lld.h"
 1687              		.file 37 "ChibiOS_3.0.5/os/hal/ports/STM32/LLD/TIMv1/stm32_tim.h"
 1688              		.file 38 "ChibiOS_3.0.5/os/hal/include/serial.h"
 1689              		.file 39 "ChibiOS_3.0.5/os/hal/ports/STM32/LLD/USARTv1/serial_lld.h"
 1690              		.file 40 "ChibiOS_3.0.5/os/hal/include/spi.h"
 1691              		.file 41 "ChibiOS_3.0.5/os/hal/ports/STM32/LLD/SPIv1/spi_lld.h"
 1692              		.file 42 "ChibiOS_3.0.5/os/hal/include/usb.h"
 1693              		.file 43 "ChibiOS_3.0.5/os/hal/ports/STM32/LLD/OTGv1/usb_lld.h"
 1694              		.file 44 "ChibiOS_3.0.5/os/hal/ports/STM32/LLD/OTGv1/stm32_otg.h"
 1695              		.file 45 "./commands.h"
 1696              		.file 46 "blackmagic/platform.h"
 1697              		.file 47 "blackmagic/target.h"
 1698              		.file 48 "blackmagic/target/target_internal.h"
 1699              		.file 49 "blackmagic/target/jtag_scan.h"
 1700              		.file 50 "blackmagic/target/adiv5.h"
 1701              		.file 51 "blackmagic/target/cortexm.h"
 1702              		.file 52 "/usr/arm-none-eabi/include/string.h"