ARM GAS  /tmp/ccKGD8hP.s 			page 1


   1              		.cpu cortex-m4
   2              		.eabi_attribute 27, 1
   3              		.eabi_attribute 28, 1
   4              		.eabi_attribute 20, 1
   5              		.eabi_attribute 21, 1
   6              		.eabi_attribute 23, 3
   7              		.eabi_attribute 24, 1
   8              		.eabi_attribute 25, 1
   9              		.eabi_attribute 26, 1
  10              		.eabi_attribute 30, 2
  11              		.eabi_attribute 34, 1
  12              		.eabi_attribute 18, 4
  13              		.file	"nrf_driver.c"
  14              		.text
  15              	.Ltext0:
  16              		.cfi_sections	.debug_frame
  17              		.section	.text.rf_tx_wrapper,"ax",%progbits
  18              		.align	1
  19              		.p2align 4,,15
  20              		.syntax unified
  21              		.thumb
  22              		.thumb_func
  23              		.fpu fpv4-sp-d16
  24              		.type	rf_tx_wrapper, %function
  25              	rf_tx_wrapper:
  26              	.LFB223:
  27              		.file 1 "nrf/nrf_driver.c"
  28              		.loc 1 165 0
  29              		.cfi_startproc
  30              		@ args = 0, pretend = 0, frame = 0
  31              		@ frame_needed = 1, uses_anonymous_args = 0
  32              	.LVL0:
  33 0000 B0B5     		push	{r4, r5, r7, lr}
  34              		.cfi_def_cfa_offset 16
  35              		.cfi_offset 4, -16
  36              		.cfi_offset 5, -12
  37              		.cfi_offset 7, -8
  38              		.cfi_offset 14, -4
  39              		.loc 1 168 0
  40 0002 134B     		ldr	r3, .L7
  41 0004 1B78     		ldrb	r3, [r3]	@ zero_extendqisi2
  42              		.loc 1 165 0
  43 0006 00AF     		add	r7, sp, #0
  44              		.cfi_def_cfa_register 7
  45              		.loc 1 168 0
  46 0008 43B9     		cbnz	r3, .L6
  47              		.loc 1 174 0
  48 000a FFF7FEFF 		bl	rfhelp_send_data_crc
  49              	.LVL1:
  50              		.loc 1 176 0
  51 000e 18B9     		cbnz	r0, .L1
  52              		.loc 1 177 0
  53 0010 104B     		ldr	r3, .L7+4
  54 0012 4FF4FA72 		mov	r2, #500
  55 0016 1A60     		str	r2, [r3]
  56              	.L1:
  57              		.loc 1 182 0
ARM GAS  /tmp/ccKGD8hP.s 			page 2


  58 0018 BD46     		mov	sp, r7
  59              		.cfi_remember_state
  60              		.cfi_def_cfa_register 13
  61              		@ sp needed
  62 001a B0BD     		pop	{r4, r5, r7, pc}
  63              	.LVL2:
  64              	.L6:
  65              		.cfi_restore_state
  66              	.LBB27:
  67              	.LBB28:
  68              	.LBB29:
  69              		.loc 1 169 0
  70 001c 01F10803 		add	r3, r1, #8
  71 0020 23F00703 		bic	r3, r3, #7
  72              		.loc 1 168 0
  73 0024 6D46     		mov	r5, sp
  74              		.loc 1 169 0
  75 0026 ADEB030D 		sub	sp, sp, r3
  76 002a 0446     		mov	r4, r0
  77              	.LVL3:
  78              		.loc 1 170 0
  79 002c 6846     		mov	r0, sp
  80              	.LVL4:
  81 002e 0A46     		mov	r2, r1
  82              	.LVL5:
  83 0030 3623     		movs	r3, #54
  84 0032 00F8013B 		strb	r3, [r0], #1
  85              	.LVL6:
  86              		.loc 1 171 0
  87 0036 2146     		mov	r1, r4
  88              	.LVL7:
  89              		.loc 1 169 0
  90 0038 541C     		adds	r4, r2, #1
  91              	.LVL8:
  92              		.loc 1 171 0
  93 003a FFF7FEFF 		bl	memcpy
  94              	.LVL9:
  95              		.loc 1 172 0
  96 003e 6846     		mov	r0, sp
  97 0040 2146     		mov	r1, r4
  98 0042 FFF7FEFF 		bl	commands_send_packet_nrf
  99              	.LVL10:
 100 0046 0020     		movs	r0, #0
 101 0048 AD46     		mov	sp, r5
 102              	.LVL11:
 103              	.LBE29:
 104              	.LBE28:
 105              	.LBE27:
 106              		.loc 1 182 0
 107 004a BD46     		mov	sp, r7
 108              		.cfi_def_cfa_register 13
 109              		@ sp needed
 110 004c B0BD     		pop	{r4, r5, r7, pc}
 111              	.L8:
 112 004e 00BF     		.align	2
 113              	.L7:
 114 0050 00000000 		.word	.LANCHOR0
ARM GAS  /tmp/ccKGD8hP.s 			page 3


 115 0054 00000000 		.word	.LANCHOR1
 116              		.cfi_endproc
 117              	.LFE223:
 118              		.size	rf_tx_wrapper, .-rf_tx_wrapper
 119              		.section	.text.tx_thread,"ax",%progbits
 120              		.align	1
 121              		.p2align 4,,15
 122              		.syntax unified
 123              		.thumb
 124              		.thumb_func
 125              		.fpu fpv4-sp-d16
 126              		.type	tx_thread, %function
 127              	tx_thread:
 128              	.LFB224:
 129              		.loc 1 184 0
 130              		.cfi_startproc
 131              		@ args = 0, pretend = 0, frame = 56
 132              		@ frame_needed = 0, uses_anonymous_args = 0
 133              	.LVL12:
 134 0000 2DE9F04F 		push	{r4, r5, r6, r7, r8, r9, r10, fp, lr}
 135              		.cfi_def_cfa_offset 36
 136              		.cfi_offset 4, -36
 137              		.cfi_offset 5, -32
 138              		.cfi_offset 6, -28
 139              		.cfi_offset 7, -24
 140              		.cfi_offset 8, -20
 141              		.cfi_offset 9, -16
 142              		.cfi_offset 10, -12
 143              		.cfi_offset 11, -8
 144              		.cfi_offset 14, -4
 145              		.loc 1 188 0
 146 0004 8248     		ldr	r0, .L25
 147              	.LVL13:
 148              		.loc 1 191 0
 149 0006 834F     		ldr	r7, .L25+4
 150              	.LBB30:
 151              	.LBB31:
 152              		.file 2 "ChibiOS_3.0.5/os/rt/include/chregistry.h"
 153              		.loc 2 135 0
 154 0008 DFF83082 		ldr	r8, .L25+44
 155 000c 8249     		ldr	r1, .L25+8
 156 000e D8F81820 		ldr	r2, [r8, #24]
 157              	.LBE31:
 158              	.LBE30:
 159              		.loc 1 188 0
 160 0012 0123     		movs	r3, #1
 161              		.loc 1 184 0
 162 0014 2DED068B 		vpush.64	{d8, d9, d10}
 163              		.cfi_def_cfa_offset 60
 164              		.cfi_offset 80, -60
 165              		.cfi_offset 81, -56
 166              		.cfi_offset 82, -52
 167              		.cfi_offset 83, -48
 168              		.cfi_offset 84, -44
 169              		.cfi_offset 85, -40
 170              		.loc 1 188 0
 171 0018 0370     		strb	r3, [r0]
ARM GAS  /tmp/ccKGD8hP.s 			page 4


 172              		.loc 1 191 0
 173 001a 3B78     		ldrb	r3, [r7]	@ zero_extendqisi2
 174              	.LBB33:
 175              	.LBB32:
 176              		.loc 2 135 0
 177 001c 9161     		str	r1, [r2, #24]
 178              	.LVL14:
 179              	.LBE32:
 180              	.LBE33:
 181              		.loc 1 184 0
 182 001e 8FB0     		sub	sp, sp, #60
 183              		.cfi_def_cfa_offset 120
 184              		.loc 1 191 0
 185 0020 002B     		cmp	r3, #0
 186 0022 40F0D880 		bne	.L17
 187 0026 7D4D     		ldr	r5, .L25+12
 188 0028 7D4C     		ldr	r4, .L25+16
 189 002a DFF81492 		ldr	r9, .L25+48
 190              		.loc 1 198 0
 191 002e 7D4E     		ldr	r6, .L25+20
 192              	.LBB34:
 193              		.loc 1 202 0
 194 0030 DFF810A2 		ldr	r10, .L25+52
 195              		.loc 1 205 0
 196 0034 DFED7CAA 		vldr.32	s21, .L25+24
 197              		.loc 1 208 0
 198 0038 9FED7C8A 		vldr.32	s16, .L25+28
 199              		.loc 1 215 0
 200 003c 9FED7C9A 		vldr.32	s18, .L25+32
 201              		.loc 1 219 0
 202 0040 9FED7CAA 		vldr.32	s20, .L25+36
 203 0044 3EE0     		b	.L10
 204              	.L11:
 205              	.LBE34:
 206              		.loc 1 228 0
 207 0046 2368     		ldr	r3, [r4]
 208 0048 002B     		cmp	r3, #0
 209 004a 02DD     		ble	.L13
 210              		.loc 1 229 0
 211 004c 2368     		ldr	r3, [r4]
 212 004e 013B     		subs	r3, r3, #1
 213 0050 2360     		str	r3, [r4]
 214              	.L13:
 215              	.LBB35:
 216              	.LBB36:
 217              		.file 3 "ChibiOS_3.0.5/os/rt/include/chvt.h"
 218              		.loc 3 231 0
 219 0052 D8F82830 		ldr	r3, [r8, #40]
 220              	.LBE36:
 221              	.LBE35:
 222              		.loc 1 232 0
 223 0056 D9F80020 		ldr	r2, [r9]
 224 005a 9A42     		cmp	r2, r3
 225 005c 2BD2     		bcs	.L14
 226              		.loc 1 232 0 is_stmt 0 discriminator 1
 227 005e 3378     		ldrb	r3, [r6]	@ zero_extendqisi2
 228 0060 4BB3     		cbz	r3, .L14
ARM GAS  /tmp/ccKGD8hP.s 			page 5


 229              	.LBB37:
 230              		.loc 1 233 0 is_stmt 1
 231 0062 0022     		movs	r2, #0
 232              		.loc 1 235 0
 233 0064 744B     		ldr	r3, .L25+40
 234              		.loc 1 233 0
 235 0066 3270     		strb	r2, [r6]
 236              		.loc 1 235 0
 237 0068 1B78     		ldrb	r3, [r3]	@ zero_extendqisi2
 238 006a 002B     		cmp	r3, #0
 239 006c 00F0BB80 		beq	.L15
 240              	.LBB38:
 241              		.loc 1 236 0
 242 0070 FFF7FEFF 		bl	app_get_configuration
 243              	.LVL15:
 244              		.loc 1 238 0
 245 0074 3523     		movs	r3, #53
 246 0076 8DF81C30 		strb	r3, [sp, #28]
 247              		.loc 1 239 0
 248 007a 90F8E930 		ldrb	r3, [r0, #233]	@ zero_extendqisi2
 249 007e 8DF81D30 		strb	r3, [sp, #29]
 250              		.loc 1 240 0
 251 0082 90F8EA30 		ldrb	r3, [r0, #234]	@ zero_extendqisi2
 252 0086 8DF81E30 		strb	r3, [sp, #30]
 253              		.loc 1 241 0
 254 008a 90F8EB30 		ldrb	r3, [r0, #235]	@ zero_extendqisi2
 255 008e 8DF81F30 		strb	r3, [sp, #31]
 256              		.loc 1 243 0
 257 0092 0DF11C0B 		add	fp, sp, #28
 258              		.loc 1 242 0
 259 0096 90F8EC20 		ldrb	r2, [r0, #236]	@ zero_extendqisi2
 260 009a 8DF82020 		strb	r2, [sp, #32]
 261              		.loc 1 243 0
 262 009e 5846     		mov	r0, fp
 263              	.LVL16:
 264 00a0 0521     		movs	r1, #5
 265 00a2 FFF7FEFF 		bl	commands_send_packet_nrf
 266              	.LVL17:
 267              	.L16:
 268              	.LBE38:
 269              		.loc 1 250 0 discriminator 1
 270 00a6 40F22523 		movw	r3, #549
 271              		.loc 1 252 0 discriminator 1
 272 00aa 5846     		mov	r0, fp
 273 00ac 0221     		movs	r1, #2
 274              		.loc 1 250 0 discriminator 1
 275 00ae ADF81C30 		strh	r3, [sp, #28]	@ movhi
 276              		.loc 1 252 0 discriminator 1
 277 00b2 FFF7FEFF 		bl	commands_send_packet
 278              	.LVL18:
 279              	.L14:
 280              	.LBE37:
 281              		.loc 1 255 0
 282 00b6 0A20     		movs	r0, #10
 283 00b8 FFF7FEFF 		bl	chThdSleep
 284              	.LVL19:
 285              		.loc 1 191 0
ARM GAS  /tmp/ccKGD8hP.s 			page 6


 286 00bc 3B78     		ldrb	r3, [r7]	@ zero_extendqisi2
 287 00be 002B     		cmp	r3, #0
 288 00c0 40F08980 		bne	.L17
 289              	.L10:
 290              		.loc 1 196 0
 291 00c4 2B68     		ldr	r3, [r5]
 292 00c6 0133     		adds	r3, r3, #1
 293              		.loc 1 198 0
 294 00c8 632B     		cmp	r3, #99
 295              		.loc 1 196 0
 296 00ca 2B60     		str	r3, [r5]
 297              		.loc 1 198 0
 298 00cc BBDD     		ble	.L11
 299              		.loc 1 198 0 is_stmt 0 discriminator 1
 300 00ce 3378     		ldrb	r3, [r6]	@ zero_extendqisi2
 301 00d0 03F0FF02 		and	r2, r3, #255
 302 00d4 002B     		cmp	r3, #0
 303 00d6 B6D1     		bne	.L11
 304              	.LBB40:
 305              		.loc 1 202 0 is_stmt 1
 306 00d8 9AF80030 		ldrb	r3, [r10]	@ zero_extendqisi2
 307              		.loc 1 200 0
 308 00dc 0092     		str	r2, [sp]
 309              		.loc 1 202 0
 310 00de 0133     		adds	r3, r3, #1
 311              		.loc 1 204 0
 312 00e0 07A8     		add	r0, sp, #28
 313              		.loc 1 202 0
 314 00e2 8AF80030 		strb	r3, [r10]
 315              		.loc 1 204 0
 316 00e6 FFF7FEFF 		bl	mc_interface_get_setup_values
 317              	.LVL20:
 318              		.loc 1 207 0
 319 00ea 009B     		ldr	r3, [sp]
 320              		.loc 1 205 0
 321 00ec CDED01AA 		vstr.32	s21, [sp, #4]
 322              		.loc 1 207 0
 323 00f0 0EAA     		add	r2, sp, #56
 324 00f2 1A44     		add	r2, r2, r3
 325 00f4 0221     		movs	r1, #2
 326 00f6 0133     		adds	r3, r3, #1
 327              		.loc 1 208 0
 328 00f8 01A8     		add	r0, sp, #4
 329              		.loc 1 207 0
 330 00fa 02F8301C 		strb	r1, [r2, #-48]
 331 00fe 0093     		str	r3, [sp]
 332              		.loc 1 208 0
 333 0100 FFF7FEFF 		bl	mc_interface_get_battery_level
 334              	.LVL21:
 335 0104 6946     		mov	r1, sp
 336 0106 02A8     		add	r0, sp, #8
 337 0108 F0EE480A 		vmov.f32	s1, s16
 338 010c FFF7FEFF 		bl	buffer_append_float16
 339              	.LVL22:
 340              		.loc 1 209 0
 341 0110 FFF7FEFF 		bl	mc_interface_get_speed
 342              	.LVL23:
ARM GAS  /tmp/ccKGD8hP.s 			page 7


 343 0114 6946     		mov	r1, sp
 344 0116 F0EE480A 		vmov.f32	s1, s16
 345 011a 02A8     		add	r0, sp, #8
 346 011c FFF7FEFF 		bl	buffer_append_float32
 347              	.LVL24:
 348              		.loc 1 210 0
 349 0120 FFF7FEFF 		bl	mc_interface_get_distance_abs
 350              	.LVL25:
 351 0124 6946     		mov	r1, sp
 352 0126 F0EE480A 		vmov.f32	s1, s16
 353 012a 02A8     		add	r0, sp, #8
 354 012c FFF7FEFF 		bl	buffer_append_float32
 355              	.LVL26:
 356              		.loc 1 211 0
 357 0130 FFF7FEFF 		bl	mc_interface_temp_fet_filtered
 358              	.LVL27:
 359 0134 6946     		mov	r1, sp
 360 0136 02A8     		add	r0, sp, #8
 361 0138 F2EE040A 		vmov.f32	s1, #1.0e+1
 362 013c FFF7FEFF 		bl	buffer_append_float16
 363              	.LVL28:
 364              		.loc 1 212 0
 365 0140 FFF7FEFF 		bl	mc_interface_temp_motor_filtered
 366              	.LVL29:
 367 0144 6946     		mov	r1, sp
 368 0146 02A8     		add	r0, sp, #8
 369 0148 F2EE040A 		vmov.f32	s1, #1.0e+1
 370 014c FFF7FEFF 		bl	buffer_append_float16
 371              	.LVL30:
 372              		.loc 1 213 0
 373 0150 009B     		ldr	r3, [sp]
 374 0152 9AF80000 		ldrb	r0, [r10]	@ zero_extendqisi2
 375              		.loc 1 214 0
 376 0156 9DED010A 		vldr.32	s0, [sp, #4]
 377              		.loc 1 213 0
 378 015a 0EAA     		add	r2, sp, #56
 379 015c 1A44     		add	r2, r2, r3
 380              		.loc 1 214 0
 381 015e F0EE480A 		vmov.f32	s1, s16
 382              		.loc 1 213 0
 383 0162 0133     		adds	r3, r3, #1
 384 0164 02F8300C 		strb	r0, [r2, #-48]
 385              		.loc 1 214 0
 386 0168 6946     		mov	r1, sp
 387 016a 02A8     		add	r0, sp, #8
 388              		.loc 1 213 0
 389 016c 0093     		str	r3, [sp]
 390              		.loc 1 214 0
 391 016e FFF7FEFF 		bl	buffer_append_float32
 392              	.LVL31:
 393              		.loc 1 215 0
 394 0172 6946     		mov	r1, sp
 395 0174 F0EE490A 		vmov.f32	s1, s18
 396 0178 02A8     		add	r0, sp, #8
 397 017a 9DED090A 		vldr.32	s0, [sp, #36]
 398 017e FFF7FEFF 		bl	buffer_append_float32
 399              	.LVL32:
ARM GAS  /tmp/ccKGD8hP.s 			page 8


 400              		.loc 1 216 0
 401 0182 6946     		mov	r1, sp
 402 0184 F0EE490A 		vmov.f32	s1, s18
 403 0188 02A8     		add	r0, sp, #8
 404 018a 9DED0A0A 		vldr.32	s0, [sp, #40]
 405 018e FFF7FEFF 		bl	buffer_append_float32
 406              	.LVL33:
 407              		.loc 1 217 0
 408 0192 FFF7FEFF 		bl	mc_interface_get_tot_current_directional_filtered
 409              	.LVL34:
 410 0196 F0EE409A 		vmov.f32	s19, s0
 411              		.loc 1 218 0
 412 019a FFF7FEFF 		bl	mc_interface_get_configuration
 413              	.LVL35:
 414 019e D0ED008A 		vldr.32	s17, [r0]
 415              		.loc 1 219 0
 416 01a2 FFF7FEFF 		bl	mc_interface_get_configuration
 417              	.LVL36:
 418 01a6 90ED187A 		vldr.32	s14, [r0, #96]
 419              		.loc 1 217 0
 420 01aa 0099     		ldr	r1, [sp]
 421              		.loc 1 221 0
 422 01ac 2268     		ldr	r2, [r4]
 423              		.loc 1 218 0
 424 01ae 28EE877A 		vmul.f32	s14, s17, s14
 425              		.loc 1 217 0
 426 01b2 0EAB     		add	r3, sp, #56
 427 01b4 C9EE877A 		vdiv.f32	s15, s19, s14
 428 01b8 5818     		adds	r0, r3, r1
 429 01ba 0131     		adds	r1, r1, #1
 430 01bc 0091     		str	r1, [sp]
 431              		.loc 1 219 0
 432 01be 67EE8A7A 		vmul.f32	s15, s15, s20
 433              		.loc 1 217 0
 434 01c2 FDEEE77A 		vcvt.s32.f32	s15, s15
 435 01c6 17EE903A 		vmov	r3, s15	@ int
 436 01ca 00F8303C 		strb	r3, [r0, #-48]
 437              		.loc 1 221 0
 438 01ce D2B1     		cbz	r2, .L24
 439              	.L12:
 440              		.loc 1 225 0
 441 01d0 0023     		movs	r3, #0
 442 01d2 2B60     		str	r3, [r5]
 443 01d4 37E7     		b	.L11
 444              	.L17:
 445              	.LBE40:
 446              		.loc 1 192 0
 447 01d6 0E4A     		ldr	r2, .L25
 448 01d8 0023     		movs	r3, #0
 449 01da 1370     		strb	r3, [r2]
 450              		.loc 1 258 0
 451 01dc 0FB0     		add	sp, sp, #60
 452              		.cfi_remember_state
 453              		.cfi_def_cfa_offset 60
 454              		@ sp needed
 455 01de BDEC068B 		vldm	sp!, {d8-d10}
 456              		.cfi_restore 84
ARM GAS  /tmp/ccKGD8hP.s 			page 9


 457              		.cfi_restore 85
 458              		.cfi_restore 82
 459              		.cfi_restore 83
 460              		.cfi_restore 80
 461              		.cfi_restore 81
 462              		.cfi_def_cfa_offset 36
 463 01e2 BDE8F08F 		pop	{r4, r5, r6, r7, r8, r9, r10, fp, pc}
 464              	.L15:
 465              		.cfi_restore_state
 466              	.LBB41:
 467              	.LBB39:
 468              		.loc 1 245 0 discriminator 2
 469 01e6 FFF7FEFF 		bl	app_get_configuration
 470              	.LVL37:
 471 01ea E430     		adds	r0, r0, #228
 472 01ec 07C8     		ldm	r0, {r0, r1, r2}
 473 01ee 0DF11C0C 		add	ip, sp, #28
 474 01f2 ACE80300 		stmia	ip!, {r0, r1}
 475              		.loc 1 246 0 discriminator 2
 476 01f6 0DF11C0B 		add	fp, sp, #28
 477 01fa 5846     		mov	r0, fp
 478              		.loc 1 245 0 discriminator 2
 479 01fc ACF80020 		strh	r2, [ip]	@ movhi
 480              		.loc 1 246 0 discriminator 2
 481 0200 FFF7FEFF 		bl	rfhelp_update_conf
 482              	.LVL38:
 483 0204 4FE7     		b	.L16
 484              	.L24:
 485              	.LBE39:
 486              	.LBE41:
 487              	.LBB42:
 488              		.loc 1 222 0
 489 0206 02A8     		add	r0, sp, #8
 490 0208 FFF7FEFF 		bl	rf_tx_wrapper
 491              	.LVL39:
 492 020c E0E7     		b	.L12
 493              	.L26:
 494 020e 00BF     		.align	2
 495              	.L25:
 496 0210 00000000 		.word	.LANCHOR2
 497 0214 00000000 		.word	.LANCHOR3
 498 0218 00000000 		.word	.LC0
 499 021c 00000000 		.word	.LANCHOR4
 500 0220 00000000 		.word	.LANCHOR7
 501 0224 00000000 		.word	.LANCHOR5
 502 0228 00000000 		.word	0
 503 022c 00007A44 		.word	1148846080
 504 0230 00401C46 		.word	1176256512
 505 0234 0000C842 		.word	1120403456
 506 0238 00000000 		.word	.LANCHOR0
 507 023c 00000000 		.word	ch
 508 0240 00000000 		.word	.LANCHOR8
 509 0244 00000000 		.word	.LANCHOR6
 510              	.LBE42:
 511              		.cfi_endproc
 512              	.LFE224:
 513              		.size	tx_thread, .-tx_thread
ARM GAS  /tmp/ccKGD8hP.s 			page 10


 514              		.section	.text.nrf_driver_send_buffer,"ax",%progbits
 515              		.align	1
 516              		.p2align 4,,15
 517              		.global	nrf_driver_send_buffer
 518              		.syntax unified
 519              		.thumb
 520              		.thumb_func
 521              		.fpu fpv4-sp-d16
 522              		.type	nrf_driver_send_buffer, %function
 523              	nrf_driver_send_buffer:
 524              	.LFB226:
 525              		.loc 1 313 0
 526              		.cfi_startproc
 527              		@ args = 0, pretend = 0, frame = 40
 528              		@ frame_needed = 0, uses_anonymous_args = 0
 529              	.LVL40:
 530 0000 2DE9F04F 		push	{r4, r5, r6, r7, r8, r9, r10, fp, lr}
 531              		.cfi_def_cfa_offset 36
 532              		.cfi_offset 4, -36
 533              		.cfi_offset 5, -32
 534              		.cfi_offset 6, -28
 535              		.cfi_offset 7, -24
 536              		.cfi_offset 8, -20
 537              		.cfi_offset 9, -16
 538              		.cfi_offset 10, -12
 539              		.cfi_offset 11, -8
 540              		.cfi_offset 14, -4
 541              		.loc 1 316 0
 542 0004 1829     		cmp	r1, #24
 543              		.loc 1 313 0
 544 0006 8BB0     		sub	sp, sp, #44
 545              		.cfi_def_cfa_offset 80
 546              		.loc 1 313 0
 547 0008 8846     		mov	r8, r1
 548 000a 0646     		mov	r6, r0
 549              		.loc 1 316 0
 550 000c 62D9     		bls	.L41
 551              	.LVL41:
 552              	.LBB43:
 553              		.loc 1 324 0
 554 000e 0021     		movs	r1, #0
 555              	.LVL42:
 556              	.LBB44:
 557              	.LBB45:
 558              		.loc 1 346 0
 559 0010 8A46     		mov	r10, r1
 560              	.LBE45:
 561              	.LBE44:
 562              		.loc 1 325 0
 563 0012 A8F11405 		sub	r5, r8, #20
 564              	.LVL43:
 565 0016 5D4F     		ldr	r7, .L44
 566              	.LBB49:
 567              	.LBB46:
 568              		.loc 1 335 0
 569 0018 4FF00309 		mov	r9, #3
 570 001c 02E0     		b	.L30
ARM GAS  /tmp/ccKGD8hP.s 			page 11


 571              	.LVL44:
 572              	.L34:
 573              		.loc 1 328 0
 574 001e B4F58A7F 		cmp	r4, #276
 575 0022 6CD0     		beq	.L42
 576              	.LVL45:
 577              	.L30:
 578              		.loc 1 332 0
 579 0024 01F11704 		add	r4, r1, #23
 580              	.LVL46:
 581 0028 E3B2     		uxtb	r3, r4
 582              		.loc 1 336 0
 583 002a A3F11702 		sub	r2, r3, #23
 584              		.loc 1 338 0
 585 002e A542     		cmp	r5, r4
 586              		.loc 1 335 0
 587 0030 8DF80C90 		strb	r9, [sp, #12]
 588 0034 3144     		add	r1, r1, r6
 589              	.LVL47:
 590              		.loc 1 336 0
 591 0036 8DF80D20 		strb	r2, [sp, #13]
 592              		.loc 1 338 0
 593 003a C0F09980 		bcc	.L32
 594              		.loc 1 339 0
 595 003e 0B68     		ldr	r3, [r1]	@ unaligned
 596 0040 8A68     		ldr	r2, [r1, #8]	@ unaligned
 597 0042 CDF80E30 		str	r3, [sp, #14]	@ unaligned
 598 0046 4B68     		ldr	r3, [r1, #4]	@ unaligned
 599 0048 D1F80CC0 		ldr	ip, [r1, #12]	@ unaligned
 600 004c 888A     		ldrh	r0, [r1, #20]	@ unaligned
 601 004e CDF81230 		str	r3, [sp, #18]	@ unaligned
 602 0052 CDF81620 		str	r2, [sp, #22]	@ unaligned
 603 0056 0B69     		ldr	r3, [r1, #16]	@ unaligned
 604 0058 8A7D     		ldrb	r2, [r1, #22]	@ zero_extendqisi2
 605 005a CDF81AC0 		str	ip, [sp, #26]	@ unaligned
 606 005e CDF81E30 		str	r3, [sp, #30]	@ unaligned
 607 0062 ADF82200 		strh	r0, [sp, #34]	@ unaligned
 608 0066 8DF82420 		strb	r2, [sp, #36]
 609 006a 1921     		movs	r1, #25
 610              	.LVL48:
 611              	.L33:
 612              		.loc 1 345 0 discriminator 2
 613 006c 03A8     		add	r0, sp, #12
 614 006e FFF7FEFF 		bl	rf_tx_wrapper
 615              	.LVL49:
 616              	.LBE46:
 617              		.loc 1 327 0 discriminator 2
 618 0072 A542     		cmp	r5, r4
 619              	.LBB47:
 620              		.loc 1 346 0 discriminator 2
 621 0074 C7F800A0 		str	r10, [r7]
 622 0078 2146     		mov	r1, r4
 623              	.LBE47:
 624              		.loc 1 327 0 discriminator 2
 625 007a D0D8     		bhi	.L34
 626              	.LVL50:
 627              	.L35:
ARM GAS  /tmp/ccKGD8hP.s 			page 12


 628              	.LBE49:
 629              		.loc 1 368 0
 630 007c 4FEA1823 		lsr	r3, r8, #8
 631              		.loc 1 367 0
 632 0080 0522     		movs	r2, #5
 633              		.loc 1 370 0
 634 0082 4146     		mov	r1, r8
 635 0084 3046     		mov	r0, r6
 636              		.loc 1 373 0
 637 0086 3544     		add	r5, r5, r6
 638              	.LVL51:
 639              		.loc 1 367 0
 640 0088 8DF80C20 		strb	r2, [sp, #12]
 641              	.LVL52:
 642              		.loc 1 368 0
 643 008c 8DF80D30 		strb	r3, [sp, #13]
 644              	.LVL53:
 645              		.loc 1 369 0
 646 0090 8DF80E80 		strb	r8, [sp, #14]
 647              		.loc 1 370 0
 648 0094 FFF7FEFF 		bl	crc16
 649              	.LVL54:
 650              		.loc 1 373 0
 651 0098 2B68     		ldr	r3, [r5]	@ unaligned
 652 009a 6968     		ldr	r1, [r5, #4]	@ unaligned
 653 009c CDF81130 		str	r3, [sp, #17]	@ unaligned
 654              		.loc 1 370 0
 655 00a0 0246     		mov	r2, r0
 656              	.LVL55:
 657              		.loc 1 371 0
 658 00a2 030A     		lsrs	r3, r0, #8
 659              		.loc 1 372 0
 660 00a4 8DF81020 		strb	r2, [sp, #16]
 661              		.loc 1 373 0
 662 00a8 AC68     		ldr	r4, [r5, #8]	@ unaligned
 663              		.loc 1 371 0
 664 00aa 8DF80F30 		strb	r3, [sp, #15]
 665              	.LVL56:
 666              		.loc 1 373 0
 667 00ae EA68     		ldr	r2, [r5, #12]	@ unaligned
 668 00b0 2B69     		ldr	r3, [r5, #16]	@ unaligned
 669 00b2 CDF81510 		str	r1, [sp, #21]	@ unaligned
 670              		.loc 1 376 0
 671 00b6 03A8     		add	r0, sp, #12
 672              	.LVL57:
 673 00b8 1921     		movs	r1, #25
 674              		.loc 1 373 0
 675 00ba CDF82130 		str	r3, [sp, #33]	@ unaligned
 676              	.LVL58:
 677 00be CDF81940 		str	r4, [sp, #25]	@ unaligned
 678 00c2 CDF81D20 		str	r2, [sp, #29]	@ unaligned
 679              		.loc 1 376 0
 680 00c6 FFF7FEFF 		bl	rf_tx_wrapper
 681              	.LVL59:
 682              		.loc 1 377 0
 683 00ca 0023     		movs	r3, #0
 684 00cc 3B60     		str	r3, [r7]
ARM GAS  /tmp/ccKGD8hP.s 			page 13


 685              	.LBE43:
 686              		.loc 1 379 0
 687 00ce 0BB0     		add	sp, sp, #44
 688              		.cfi_remember_state
 689              		.cfi_def_cfa_offset 36
 690              		@ sp needed
 691 00d0 BDE8F08F 		pop	{r4, r5, r6, r7, r8, r9, r10, fp, pc}
 692              	.LVL60:
 693              	.L41:
 694              		.cfi_restore_state
 695              	.LBB55:
 696              		.loc 1 318 0
 697 00d4 0AAC     		add	r4, sp, #40
 698 00d6 0623     		movs	r3, #6
 699 00d8 04F81C3D 		strb	r3, [r4, #-28]!
 700              		.loc 1 319 0
 701 00dc 4246     		mov	r2, r8
 702 00de 0146     		mov	r1, r0
 703              	.LVL61:
 704 00e0 0DF10D00 		add	r0, sp, #13
 705              	.LVL62:
 706 00e4 FFF7FEFF 		bl	memcpy
 707              	.LVL63:
 708              		.loc 1 321 0
 709 00e8 2046     		mov	r0, r4
 710 00ea 08F10101 		add	r1, r8, #1
 711              	.LVL64:
 712 00ee FFF7FEFF 		bl	rf_tx_wrapper
 713              	.LVL65:
 714              		.loc 1 322 0
 715 00f2 264B     		ldr	r3, .L44
 716 00f4 0022     		movs	r2, #0
 717 00f6 1A60     		str	r2, [r3]
 718              	.LBE55:
 719              		.loc 1 379 0
 720 00f8 0BB0     		add	sp, sp, #44
 721              		.cfi_remember_state
 722              		.cfi_def_cfa_offset 36
 723              		@ sp needed
 724 00fa BDE8F08F 		pop	{r4, r5, r6, r7, r8, r9, r10, fp, pc}
 725              	.LVL66:
 726              	.L42:
 727              		.cfi_restore_state
 728 00fe A6F1160B 		sub	fp, r6, #22
 729              	.LBB56:
 730              	.LBB50:
 731              	.LBB51:
 732              		.loc 1 351 0
 733 0102 4FF0040A 		mov	r10, #4
 734 0106 05F11609 		add	r9, r5, #22
 735 010a 19E0     		b	.L31
 736              	.LVL67:
 737              	.L43:
 738              		.loc 1 356 0
 739 010c 0B68     		ldr	r3, [r1]	@ unaligned
 740 010e 4A68     		ldr	r2, [r1, #4]	@ unaligned
 741 0110 CDF80F30 		str	r3, [sp, #15]	@ unaligned
ARM GAS  /tmp/ccKGD8hP.s 			page 14


 742 0114 8B68     		ldr	r3, [r1, #8]	@ unaligned
 743 0116 C868     		ldr	r0, [r1, #12]	@ unaligned
 744 0118 CDF81320 		str	r2, [sp, #19]	@ unaligned
 745 011c CDF81730 		str	r3, [sp, #23]	@ unaligned
 746 0120 8A8A     		ldrh	r2, [r1, #20]	@ unaligned
 747 0122 0B69     		ldr	r3, [r1, #16]	@ unaligned
 748 0124 CDF81B00 		str	r0, [sp, #27]	@ unaligned
 749 0128 CDF81F30 		str	r3, [sp, #31]	@ unaligned
 750 012c ADF82320 		strh	r2, [sp, #35]	@ unaligned
 751 0130 1921     		movs	r1, #25
 752              	.LVL68:
 753              	.L37:
 754              		.loc 1 362 0 discriminator 2
 755 0132 03A8     		add	r0, sp, #12
 756 0134 FFF7FEFF 		bl	rf_tx_wrapper
 757              	.LVL69:
 758              		.loc 1 363 0 discriminator 2
 759 0138 0023     		movs	r3, #0
 760              	.LBE51:
 761              		.loc 1 349 0 discriminator 2
 762 013a AC42     		cmp	r4, r5
 763              	.LBB52:
 764              		.loc 1 363 0 discriminator 2
 765 013c 3B60     		str	r3, [r7]
 766              	.LVL70:
 767              	.LBE52:
 768              		.loc 1 349 0 discriminator 2
 769 013e 9DD2     		bcs	.L35
 770              	.LVL71:
 771              	.L31:
 772              	.LBB53:
 773              		.loc 1 352 0
 774 0140 230A     		lsrs	r3, r4, #8
 775              		.loc 1 353 0
 776 0142 8DF80E40 		strb	r4, [sp, #14]
 777              		.loc 1 355 0
 778 0146 1634     		adds	r4, r4, #22
 779              	.LVL72:
 780 0148 AC42     		cmp	r4, r5
 781              		.loc 1 352 0
 782 014a 8DF80D30 		strb	r3, [sp, #13]
 783              		.loc 1 351 0
 784 014e 8DF80CA0 		strb	r10, [sp, #12]
 785 0152 0BEB0401 		add	r1, fp, r4
 786 0156 A9EB0403 		sub	r3, r9, r4
 787              		.loc 1 355 0
 788 015a D7D9     		bls	.L43
 789 015c DBB2     		uxtb	r3, r3
 790              	.LVL73:
 791              		.loc 1 359 0
 792 015e 1A46     		mov	r2, r3
 793 0160 0DF10F00 		add	r0, sp, #15
 794 0164 0193     		str	r3, [sp, #4]
 795 0166 FFF7FEFF 		bl	memcpy
 796              	.LVL74:
 797 016a 019B     		ldr	r3, [sp, #4]
 798 016c D91C     		adds	r1, r3, #3
ARM GAS  /tmp/ccKGD8hP.s 			page 15


 799 016e E0E7     		b	.L37
 800              	.LVL75:
 801              	.L32:
 802 0170 C3F1170B 		rsb	fp, r3, #23
 803 0174 AB44     		add	fp, fp, r5
 804 0176 5FFA8BFB 		uxtb	fp, fp
 805              	.LVL76:
 806              	.LBE53:
 807              	.LBE50:
 808              	.LBB54:
 809              	.LBB48:
 810              		.loc 1 342 0
 811 017a 5A46     		mov	r2, fp
 812 017c 0DF10E00 		add	r0, sp, #14
 813 0180 FFF7FEFF 		bl	memcpy
 814              	.LVL77:
 815 0184 0BF10201 		add	r1, fp, #2
 816 0188 70E7     		b	.L33
 817              	.L45:
 818 018a 00BF     		.align	2
 819              	.L44:
 820 018c 00000000 		.word	.LANCHOR4
 821              	.LBE48:
 822              	.LBE54:
 823              	.LBE56:
 824              		.cfi_endproc
 825              	.LFE226:
 826              		.size	nrf_driver_send_buffer, .-nrf_driver_send_buffer
 827              		.section	.text.nrf_driver_stop.part.1,"ax",%progbits
 828              		.align	1
 829              		.p2align 4,,15
 830              		.syntax unified
 831              		.thumb
 832              		.thumb_func
 833              		.fpu fpv4-sp-d16
 834              		.type	nrf_driver_stop.part.1, %function
 835              	nrf_driver_stop.part.1:
 836              	.LFB232:
 837              		.loc 1 107 0
 838              		.cfi_startproc
 839              		@ args = 0, pretend = 0, frame = 0
 840              		@ frame_needed = 0, uses_anonymous_args = 0
 841 0000 38B5     		push	{r3, r4, r5, lr}
 842              		.cfi_def_cfa_offset 16
 843              		.cfi_offset 3, -16
 844              		.cfi_offset 4, -12
 845              		.cfi_offset 5, -8
 846              		.cfi_offset 14, -4
 847              		.loc 1 112 0
 848 0002 0B4C     		ldr	r4, .L55
 849 0004 2378     		ldrb	r3, [r4]	@ zero_extendqisi2
 850 0006 83B9     		cbnz	r3, .L54
 851              	.L47:
 852              		.loc 1 116 0
 853 0008 0A49     		ldr	r1, .L55+4
 854              		.loc 1 117 0
 855 000a 0B4A     		ldr	r2, .L55+8
ARM GAS  /tmp/ccKGD8hP.s 			page 16


 856 000c 0B4D     		ldr	r5, .L55+12
 857              		.loc 1 116 0
 858 000e 0123     		movs	r3, #1
 859 0010 0B70     		strb	r3, [r1]
 860              		.loc 1 117 0
 861 0012 1370     		strb	r3, [r2]
 862 0014 01E0     		b	.L48
 863              	.L49:
 864              		.loc 1 120 0
 865 0016 FFF7FEFF 		bl	chThdSleep
 866              	.LVL78:
 867              	.L48:
 868              		.loc 1 119 0
 869 001a 2378     		ldrb	r3, [r4]	@ zero_extendqisi2
 870              		.loc 1 120 0
 871 001c 0A20     		movs	r0, #10
 872              		.loc 1 119 0
 873 001e 002B     		cmp	r3, #0
 874 0020 F9D1     		bne	.L49
 875 0022 2B78     		ldrb	r3, [r5]	@ zero_extendqisi2
 876 0024 002B     		cmp	r3, #0
 877 0026 F6D1     		bne	.L49
 878              		.loc 1 122 0
 879 0028 38BD     		pop	{r3, r4, r5, pc}
 880              	.L54:
 881              		.loc 1 113 0
 882 002a FFF7FEFF 		bl	rfhelp_stop
 883              	.LVL79:
 884 002e EBE7     		b	.L47
 885              	.L56:
 886              		.align	2
 887              	.L55:
 888 0030 00000000 		.word	.LANCHOR9
 889 0034 00000000 		.word	.LANCHOR3
 890 0038 00000000 		.word	.LANCHOR10
 891 003c 00000000 		.word	.LANCHOR2
 892              		.cfi_endproc
 893              	.LFE232:
 894              		.size	nrf_driver_stop.part.1, .-nrf_driver_stop.part.1
 895              		.section	.text.nrf_driver_init,"ax",%progbits
 896              		.align	1
 897              		.p2align 4,,15
 898              		.global	nrf_driver_init
 899              		.syntax unified
 900              		.thumb
 901              		.thumb_func
 902              		.fpu fpv4-sp-d16
 903              		.type	nrf_driver_init, %function
 904              	nrf_driver_init:
 905              	.LFB219:
 906              		.loc 1 68 0
 907              		.cfi_startproc
 908              		@ args = 0, pretend = 0, frame = 0
 909              		@ frame_needed = 0, uses_anonymous_args = 0
 910 0000 70B5     		push	{r4, r5, r6, lr}
 911              		.cfi_def_cfa_offset 16
 912              		.cfi_offset 4, -16
ARM GAS  /tmp/ccKGD8hP.s 			page 17


 913              		.cfi_offset 5, -12
 914              		.cfi_offset 6, -8
 915              		.cfi_offset 14, -4
 916              		.loc 1 69 0
 917 0002 1F4A     		ldr	r2, .L66
 918 0004 1378     		ldrb	r3, [r2]	@ zero_extendqisi2
 919              		.loc 1 68 0
 920 0006 82B0     		sub	sp, sp, #8
 921              		.cfi_def_cfa_offset 24
 922              		.loc 1 69 0
 923 0008 03F0FF04 		and	r4, r3, #255
 924 000c 3BB9     		cbnz	r3, .L58
 925              		.loc 1 73 0
 926 000e 1D4B     		ldr	r3, .L66+4
 927 0010 1C70     		strb	r4, [r3]
 928              	.LBB57:
 929              	.LBB58:
 930              		.loc 1 108 0
 931 0012 1278     		ldrb	r2, [r2]	@ zero_extendqisi2
 932 0014 32B1     		cbz	r2, .L64
 933              	.L59:
 934              	.LBE58:
 935              	.LBE57:
 936              		.loc 1 77 0
 937 0016 FFF7FEFF 		bl	rfhelp_init
 938              	.LVL80:
 939 001a 0446     		mov	r4, r0
 940 001c 40B9     		cbnz	r0, .L65
 941              	.L58:
 942              		.loc 1 96 0
 943 001e 2046     		mov	r0, r4
 944 0020 02B0     		add	sp, sp, #8
 945              		.cfi_remember_state
 946              		.cfi_def_cfa_offset 16
 947              		@ sp needed
 948 0022 70BD     		pop	{r4, r5, r6, pc}
 949              	.L64:
 950              		.cfi_restore_state
 951              	.LBB60:
 952              	.LBB59:
 953              		.loc 1 108 0
 954 0024 1B78     		ldrb	r3, [r3]	@ zero_extendqisi2
 955 0026 002B     		cmp	r3, #0
 956 0028 F5D1     		bne	.L59
 957 002a FFF7FEFF 		bl	nrf_driver_stop.part.1
 958              	.LVL81:
 959 002e F2E7     		b	.L59
 960              	.L65:
 961              	.LBE59:
 962              	.LBE60:
 963              		.loc 1 86 0
 964 0030 1548     		ldr	r0, .L66+8
 965              		.loc 1 88 0
 966 0032 164E     		ldr	r6, .L66+12
 967              		.loc 1 81 0
 968 0034 164B     		ldr	r3, .L66+16
 969              		.loc 1 82 0
ARM GAS  /tmp/ccKGD8hP.s 			page 18


 970 0036 174A     		ldr	r2, .L66+20
 971              		.loc 1 83 0
 972 0038 1749     		ldr	r1, .L66+24
 973              		.loc 1 81 0
 974 003a 0025     		movs	r5, #0
 975              		.loc 1 90 0
 976 003c 0095     		str	r5, [sp]
 977              		.loc 1 86 0
 978 003e 0570     		strb	r5, [r0]
 979              		.loc 1 88 0
 980 0040 3570     		strb	r5, [r6]
 981              		.loc 1 85 0
 982 0042 1648     		ldr	r0, .L66+28
 983              		.loc 1 89 0
 984 0044 164E     		ldr	r6, .L66+32
 985              		.loc 1 81 0
 986 0046 1D60     		str	r5, [r3]
 987              		.loc 1 82 0
 988 0048 1560     		str	r5, [r2]
 989              		.loc 1 83 0
 990 004a 0D60     		str	r5, [r1]
 991              		.loc 1 85 0
 992 004c 0560     		str	r5, [r0]
 993              		.loc 1 90 0
 994 004e 154B     		ldr	r3, .L66+36
 995              		.loc 1 89 0
 996 0050 3570     		strb	r5, [r6]
 997              		.loc 1 90 0
 998 0052 3F22     		movs	r2, #63
 999 0054 4FF41A61 		mov	r1, #2464
 1000 0058 1348     		ldr	r0, .L66+40
 1001 005a FFF7FEFF 		bl	chThdCreateStatic
 1002              	.LVL82:
 1003              		.loc 1 91 0
 1004 005e 0095     		str	r5, [sp]
 1005 0060 124B     		ldr	r3, .L66+44
 1006 0062 1348     		ldr	r0, .L66+48
 1007 0064 3F22     		movs	r2, #63
 1008 0066 4FF42871 		mov	r1, #672
 1009 006a FFF7FEFF 		bl	chThdCreateStatic
 1010              	.LVL83:
 1011              		.loc 1 92 0
 1012 006e 1149     		ldr	r1, .L66+52
 1013              		.loc 1 93 0
 1014 0070 114A     		ldr	r2, .L66+56
 1015              		.loc 1 92 0
 1016 0072 0123     		movs	r3, #1
 1017              		.loc 1 96 0
 1018 0074 2046     		mov	r0, r4
 1019              		.loc 1 92 0
 1020 0076 0B70     		strb	r3, [r1]
 1021              		.loc 1 93 0
 1022 0078 1370     		strb	r3, [r2]
 1023              		.loc 1 96 0
 1024 007a 02B0     		add	sp, sp, #8
 1025              		.cfi_def_cfa_offset 16
 1026              		@ sp needed
ARM GAS  /tmp/ccKGD8hP.s 			page 19


 1027 007c 70BD     		pop	{r4, r5, r6, pc}
 1028              	.L67:
 1029 007e 00BF     		.align	2
 1030              	.L66:
 1031 0080 00000000 		.word	.LANCHOR11
 1032 0084 00000000 		.word	.LANCHOR0
 1033 0088 00000000 		.word	.LANCHOR5
 1034 008c 00000000 		.word	.LANCHOR10
 1035 0090 00000000 		.word	.LANCHOR4
 1036 0094 00000000 		.word	.LANCHOR12
 1037 0098 00000000 		.word	.LANCHOR1
 1038 009c 00000000 		.word	.LANCHOR8
 1039 00a0 00000000 		.word	.LANCHOR3
 1040 00a4 00000000 		.word	rx_thread
 1041 00a8 00000000 		.word	.LANCHOR13
 1042 00ac 00000000 		.word	tx_thread
 1043 00b0 00000000 		.word	.LANCHOR14
 1044 00b4 00000000 		.word	.LANCHOR9
 1045 00b8 00000000 		.word	.LANCHOR2
 1046              		.cfi_endproc
 1047              	.LFE219:
 1048              		.size	nrf_driver_init, .-nrf_driver_init
 1049              		.section	.text.nrf_driver_init_ext_nrf,"ax",%progbits
 1050              		.align	1
 1051              		.p2align 4,,15
 1052              		.global	nrf_driver_init_ext_nrf
 1053              		.syntax unified
 1054              		.thumb
 1055              		.thumb_func
 1056              		.fpu fpv4-sp-d16
 1057              		.type	nrf_driver_init_ext_nrf, %function
 1058              	nrf_driver_init_ext_nrf:
 1059              	.LFB220:
 1060              		.loc 1 98 0
 1061              		.cfi_startproc
 1062              		@ args = 0, pretend = 0, frame = 0
 1063              		@ frame_needed = 0, uses_anonymous_args = 0
 1064              		.loc 1 99 0
 1065 0000 0B4A     		ldr	r2, .L75
 1066              		.loc 1 101 0
 1067 0002 0C4B     		ldr	r3, .L75+4
 1068              		.loc 1 99 0
 1069 0004 0121     		movs	r1, #1
 1070 0006 1170     		strb	r1, [r2]
 1071              		.loc 1 101 0
 1072 0008 1B78     		ldrb	r3, [r3]	@ zero_extendqisi2
 1073 000a 03B1     		cbz	r3, .L74
 1074 000c 7047     		bx	lr
 1075              	.L74:
 1076              		.loc 1 98 0
 1077 000e 00B5     		push	{lr}
 1078              		.cfi_def_cfa_offset 4
 1079              		.cfi_offset 14, -4
 1080              		.loc 1 102 0
 1081 0010 0949     		ldr	r1, .L75+8
 1082              		.loc 1 103 0
 1083 0012 0A48     		ldr	r0, .L75+12
ARM GAS  /tmp/ccKGD8hP.s 			page 20


 1084              		.loc 1 98 0
 1085 0014 83B0     		sub	sp, sp, #12
 1086              		.cfi_def_cfa_offset 16
 1087 0016 03F0FF02 		and	r2, r3, #255
 1088              		.loc 1 103 0
 1089 001a 0092     		str	r2, [sp]
 1090 001c 084B     		ldr	r3, .L75+16
 1091              		.loc 1 102 0
 1092 001e 0A70     		strb	r2, [r1]
 1093              		.loc 1 103 0
 1094 0020 3F22     		movs	r2, #63
 1095 0022 4FF42871 		mov	r1, #672
 1096 0026 FFF7FEFF 		bl	chThdCreateStatic
 1097              	.LVL84:
 1098              		.loc 1 105 0
 1099 002a 03B0     		add	sp, sp, #12
 1100              		.cfi_def_cfa_offset 4
 1101              		@ sp needed
 1102 002c 5DF804FB 		ldr	pc, [sp], #4
 1103              	.L76:
 1104              		.align	2
 1105              	.L75:
 1106 0030 00000000 		.word	.LANCHOR0
 1107 0034 00000000 		.word	.LANCHOR2
 1108 0038 00000000 		.word	.LANCHOR3
 1109 003c 00000000 		.word	.LANCHOR14
 1110 0040 00000000 		.word	tx_thread
 1111              		.cfi_endproc
 1112              	.LFE220:
 1113              		.size	nrf_driver_init_ext_nrf, .-nrf_driver_init_ext_nrf
 1114              		.section	.text.nrf_driver_stop,"ax",%progbits
 1115              		.align	1
 1116              		.p2align 4,,15
 1117              		.global	nrf_driver_stop
 1118              		.syntax unified
 1119              		.thumb
 1120              		.thumb_func
 1121              		.fpu fpv4-sp-d16
 1122              		.type	nrf_driver_stop, %function
 1123              	nrf_driver_stop:
 1124              	.LFB221:
 1125              		.loc 1 107 0
 1126              		.cfi_startproc
 1127              		@ args = 0, pretend = 0, frame = 0
 1128              		@ frame_needed = 0, uses_anonymous_args = 0
 1129              		@ link register save eliminated.
 1130              		.loc 1 108 0
 1131 0000 044B     		ldr	r3, .L79
 1132 0002 1B78     		ldrb	r3, [r3]	@ zero_extendqisi2
 1133 0004 23B9     		cbnz	r3, .L77
 1134              		.loc 1 108 0 is_stmt 0 discriminator 1
 1135 0006 044B     		ldr	r3, .L79+4
 1136 0008 1B78     		ldrb	r3, [r3]	@ zero_extendqisi2
 1137 000a 0BB9     		cbnz	r3, .L77
 1138 000c FFF7FEBF 		b	nrf_driver_stop.part.1
 1139              	.LVL85:
 1140              	.L77:
ARM GAS  /tmp/ccKGD8hP.s 			page 21


 1141              		.loc 1 122 0 is_stmt 1
 1142 0010 7047     		bx	lr
 1143              	.L80:
 1144 0012 00BF     		.align	2
 1145              	.L79:
 1146 0014 00000000 		.word	.LANCHOR11
 1147 0018 00000000 		.word	.LANCHOR0
 1148              		.cfi_endproc
 1149              	.LFE221:
 1150              		.size	nrf_driver_stop, .-nrf_driver_stop
 1151              		.section	.text.nrf_driver_start_pairing,"ax",%progbits
 1152              		.align	1
 1153              		.p2align 4,,15
 1154              		.global	nrf_driver_start_pairing
 1155              		.syntax unified
 1156              		.thumb
 1157              		.thumb_func
 1158              		.fpu fpv4-sp-d16
 1159              		.type	nrf_driver_start_pairing, %function
 1160              	nrf_driver_start_pairing:
 1161              	.LFB222:
 1162              		.loc 1 124 0
 1163              		.cfi_startproc
 1164              		@ args = 0, pretend = 0, frame = 16
 1165              		@ frame_needed = 0, uses_anonymous_args = 0
 1166              	.LVL86:
 1167 0000 30B5     		push	{r4, r5, lr}
 1168              		.cfi_def_cfa_offset 12
 1169              		.cfi_offset 4, -12
 1170              		.cfi_offset 5, -8
 1171              		.cfi_offset 14, -4
 1172              		.loc 1 125 0
 1173 0002 2D4B     		ldr	r3, .L91
 1174 0004 1B78     		ldrb	r3, [r3]	@ zero_extendqisi2
 1175              		.loc 1 124 0
 1176 0006 85B0     		sub	sp, sp, #20
 1177              		.cfi_def_cfa_offset 32
 1178              		.loc 1 125 0
 1179 0008 B3B1     		cbz	r3, .L82
 1180              		.loc 1 126 0
 1181 000a 42F21073 		movw	r3, #10000
 1182              	.LBB61:
 1183              	.LBB62:
 1184              		.loc 3 231 0
 1185 000e 2B4A     		ldr	r2, .L91+4
 1186              	.LBE62:
 1187              	.LBE61:
 1188              		.loc 1 126 0
 1189 0010 2B4D     		ldr	r5, .L91+8
 1190              		.loc 1 128 0
 1191 0012 2C4C     		ldr	r4, .L91+12
 1192              	.LBB64:
 1193              	.LBB63:
 1194              		.loc 3 231 0
 1195 0014 926A     		ldr	r2, [r2, #40]
 1196              	.LBE63:
 1197              	.LBE64:
ARM GAS  /tmp/ccKGD8hP.s 			page 22


 1198              		.loc 1 126 0
 1199 0016 2C49     		ldr	r1, .L91+16
 1200 0018 03FB00F0 		mul	r0, r3, r0
 1201              	.LVL87:
 1202 001c 00F2E730 		addw	r0, r0, #999
 1203 0020 A5FB0030 		umull	r3, r0, r5, r0
 1204              		.loc 1 128 0
 1205 0024 2378     		ldrb	r3, [r4]	@ zero_extendqisi2
 1206              		.loc 1 126 0
 1207 0026 02EB9010 		add	r0, r2, r0, lsr #6
 1208 002a 0860     		str	r0, [r1]
 1209              		.loc 1 128 0
 1210 002c 03F0FF02 		and	r2, r3, #255
 1211 0030 002B     		cmp	r3, #0
 1212 0032 34D0     		beq	.L90
 1213              	.L81:
 1214              		.loc 1 163 0
 1215 0034 05B0     		add	sp, sp, #20
 1216              		.cfi_remember_state
 1217              		.cfi_def_cfa_offset 12
 1218              		@ sp needed
 1219 0036 30BD     		pop	{r4, r5, pc}
 1220              	.LVL88:
 1221              	.L82:
 1222              		.cfi_restore_state
 1223              		.loc 1 140 0
 1224 0038 244B     		ldr	r3, .L91+20
 1225 003a 1B78     		ldrb	r3, [r3]	@ zero_extendqisi2
 1226 003c 002B     		cmp	r3, #0
 1227 003e F9D0     		beq	.L81
 1228              		.loc 1 144 0
 1229 0040 42F21073 		movw	r3, #10000
 1230              	.LBB65:
 1231              	.LBB66:
 1232              		.loc 3 231 0
 1233 0044 1D4A     		ldr	r2, .L91+4
 1234              	.LBE66:
 1235              	.LBE65:
 1236              		.loc 1 144 0
 1237 0046 1E4D     		ldr	r5, .L91+8
 1238              		.loc 1 146 0
 1239 0048 1E49     		ldr	r1, .L91+12
 1240              	.LBB68:
 1241              	.LBB67:
 1242              		.loc 3 231 0
 1243 004a 926A     		ldr	r2, [r2, #40]
 1244              	.LBE67:
 1245              	.LBE68:
 1246              		.loc 1 144 0
 1247 004c 1E4C     		ldr	r4, .L91+16
 1248 004e 03FB00F0 		mul	r0, r3, r0
 1249              	.LVL89:
 1250 0052 00F2E730 		addw	r0, r0, #999
 1251 0056 A5FB0030 		umull	r3, r0, r5, r0
 1252              		.loc 1 146 0
 1253 005a 0B78     		ldrb	r3, [r1]	@ zero_extendqisi2
 1254              		.loc 1 144 0
ARM GAS  /tmp/ccKGD8hP.s 			page 23


 1255 005c 02EB9010 		add	r0, r2, r0, lsr #6
 1256 0060 2060     		str	r0, [r4]
 1257              		.loc 1 146 0
 1258 0062 03F0FF05 		and	r5, r3, #255
 1259 0066 002B     		cmp	r3, #0
 1260 0068 E4D1     		bne	.L81
 1261              	.LBB69:
 1262              		.loc 1 147 0 discriminator 4
 1263 006a 0124     		movs	r4, #1
 1264 006c 0C70     		strb	r4, [r1]
 1265              		.loc 1 149 0 discriminator 4
 1266 006e FFF7FEFF 		bl	app_get_configuration
 1267              	.LVL90:
 1268 0072 E430     		adds	r0, r0, #228
 1269 0074 07C8     		ldm	r0, {r0, r1, r2}
 1270 0076 01AB     		add	r3, sp, #4
 1271              		.loc 1 158 0 discriminator 4
 1272 0078 04AA     		add	r2, sp, #16
 1273              		.loc 1 149 0 discriminator 4
 1274 007a 03C3     		stmia	r3!, {r0, r1}
 1275              		.loc 1 155 0 discriminator 4
 1276 007c 144B     		ldr	r3, .L91+24
 1277 007e 0293     		str	r3, [sp, #8]
 1278              		.loc 1 151 0 discriminator 4
 1279 0080 8DF80C50 		strb	r5, [sp, #12]
 1280              		.loc 1 158 0 discriminator 4
 1281 0084 02F80C4D 		strb	r4, [r2, #-12]!
 1282              		.loc 1 156 0 discriminator 4
 1283 0088 0323     		movs	r3, #3
 1284              		.loc 1 160 0 discriminator 4
 1285 008a 1046     		mov	r0, r2
 1286              		.loc 1 157 0 discriminator 4
 1287 008c 8DF80D40 		strb	r4, [sp, #13]
 1288              		.loc 1 154 0 discriminator 4
 1289 0090 8DF80640 		strb	r4, [sp, #6]
 1290              		.loc 1 156 0 discriminator 4
 1291 0094 8DF80730 		strb	r3, [sp, #7]
 1292              		.loc 1 160 0 discriminator 4
 1293 0098 FFF7FEFF 		bl	rfhelp_update_conf
 1294              	.LVL91:
 1295 009c CAE7     		b	.L81
 1296              	.L90:
 1297              	.LBE69:
 1298              	.LBB70:
 1299              		.loc 1 132 0
 1300 009e 0D4B     		ldr	r3, .L91+28
 1301              		.loc 1 135 0
 1302 00a0 8DF80820 		strb	r2, [sp, #8]
 1303              		.loc 1 129 0
 1304 00a4 0125     		movs	r5, #1
 1305              		.loc 1 137 0
 1306 00a6 0521     		movs	r1, #5
 1307 00a8 01A8     		add	r0, sp, #4
 1308              		.loc 1 129 0
 1309 00aa 2570     		strb	r5, [r4]
 1310              		.loc 1 132 0
 1311 00ac 0193     		str	r3, [sp, #4]
ARM GAS  /tmp/ccKGD8hP.s 			page 24


 1312              		.loc 1 137 0
 1313 00ae FFF7FEFF 		bl	commands_send_packet_nrf
 1314              	.LVL92:
 1315              	.LBE70:
 1316              		.loc 1 163 0
 1317 00b2 05B0     		add	sp, sp, #20
 1318              		.cfi_def_cfa_offset 12
 1319              		@ sp needed
 1320 00b4 30BD     		pop	{r4, r5, pc}
 1321              	.L92:
 1322 00b6 00BF     		.align	2
 1323              	.L91:
 1324 00b8 00000000 		.word	.LANCHOR0
 1325 00bc 00000000 		.word	ch
 1326 00c0 D34D6210 		.word	274877907
 1327 00c4 00000000 		.word	.LANCHOR5
 1328 00c8 00000000 		.word	.LANCHOR8
 1329 00cc 00000000 		.word	.LANCHOR9
 1330 00d0 0343C6C5 		.word	-976862461
 1331 00d4 3543C6C5 		.word	-976862411
 1332              		.cfi_endproc
 1333              	.LFE222:
 1334              		.size	nrf_driver_start_pairing, .-nrf_driver_start_pairing
 1335              		.section	.text.nrf_driver_process_packet,"ax",%progbits
 1336              		.align	1
 1337              		.p2align 4,,15
 1338              		.global	nrf_driver_process_packet
 1339              		.syntax unified
 1340              		.thumb
 1341              		.thumb_func
 1342              		.fpu fpv4-sp-d16
 1343              		.type	nrf_driver_process_packet, %function
 1344              	nrf_driver_process_packet:
 1345              	.LFB227:
 1346              		.loc 1 381 0
 1347              		.cfi_startproc
 1348              		@ args = 0, pretend = 0, frame = 592
 1349              		@ frame_needed = 0, uses_anonymous_args = 0
 1350              	.LVL93:
 1351 0000 F0B5     		push	{r4, r5, r6, r7, lr}
 1352              		.cfi_def_cfa_offset 20
 1353              		.cfi_offset 4, -20
 1354              		.cfi_offset 5, -16
 1355              		.cfi_offset 6, -12
 1356              		.cfi_offset 7, -8
 1357              		.cfi_offset 14, -4
 1358              		.loc 1 382 0
 1359 0002 0378     		ldrb	r3, [r0]	@ zero_extendqisi2
 1360              	.LVL94:
 1361              		.loc 1 381 0
 1362 0004 ADF5157D 		sub	sp, sp, #596
 1363              		.cfi_def_cfa_offset 616
 1364              		.loc 1 381 0
 1365 0008 0446     		mov	r4, r0
 1366              		.loc 1 387 0
 1367 000a 7B48     		ldr	r0, .L114
 1368              	.LVL95:
ARM GAS  /tmp/ccKGD8hP.s 			page 25


 1369              		.loc 1 384 0
 1370 000c 0026     		movs	r6, #0
 1371              		.loc 1 387 0
 1372 000e 4FF4FA75 		mov	r5, #500
 1373              		.loc 1 389 0
 1374 0012 013B     		subs	r3, r3, #1
 1375              	.LVL96:
 1376              		.loc 1 384 0
 1377 0014 0396     		str	r6, [sp, #12]
 1378              		.loc 1 387 0
 1379 0016 0560     		str	r5, [r0]
 1380              		.loc 1 389 0
 1381 0018 062B     		cmp	r3, #6
 1382 001a 5BD8     		bhi	.L93
 1383 001c DFE803F0 		tbb	[pc, r3]
 1384              	.L96:
 1385 0020 6F       		.byte	(.L95-.L96)/2
 1386 0021 5A       		.byte	(.L93-.L96)/2
 1387 0022 AC       		.byte	(.L97-.L96)/2
 1388 0023 B7       		.byte	(.L98-.L96)/2
 1389 0024 C3       		.byte	(.L99-.L96)/2
 1390 0025 5D       		.byte	(.L100-.L96)/2
 1391 0026 04       		.byte	(.L101-.L96)/2
 1392 0027 00       		.p2align 1
 1393              	.L101:
 1394              	.LBB71:
 1395              		.loc 1 469 0
 1396 0028 744B     		ldr	r3, .L114+4
 1397              	.LVL97:
 1398 002a 1A78     		ldrb	r2, [r3]	@ zero_extendqisi2
 1399              		.loc 1 467 0
 1400 002c 0125     		movs	r5, #1
 1401 002e 0395     		str	r5, [sp, #12]
 1402              		.loc 1 469 0
 1403 0030 002A     		cmp	r2, #0
 1404 0032 4FD0     		beq	.L93
 1405              		.loc 1 473 0
 1406 0034 0022     		movs	r2, #0
 1407 0036 1A70     		strb	r2, [r3]
 1408              		.loc 1 475 0
 1409 0038 FFF7FEFF 		bl	app_get_configuration
 1410              	.LVL98:
 1411 003c 4FF40E72 		mov	r2, #568
 1412 0040 0146     		mov	r1, r0
 1413 0042 06A8     		add	r0, sp, #24
 1414 0044 FFF7FEFF 		bl	memcpy
 1415              	.LVL99:
 1416              		.loc 1 476 0
 1417 0048 039B     		ldr	r3, [sp, #12]
 1418              		.loc 1 486 0
 1419 004a 6D4A     		ldr	r2, .L114+8
 1420              		.loc 1 476 0
 1421 004c E15C     		ldrb	r1, [r4, r3]	@ zero_extendqisi2
 1422              		.loc 1 486 0
 1423 004e 1778     		ldrb	r7, [r2]	@ zero_extendqisi2
 1424              		.loc 1 480 0
 1425 0050 8DF8FE50 		strb	r5, [sp, #254]
ARM GAS  /tmp/ccKGD8hP.s 			page 26


 1426              		.loc 1 477 0
 1427 0054 1C44     		add	r4, r4, r3
 1428              	.LVL100:
 1429              		.loc 1 479 0
 1430 0056 0433     		adds	r3, r3, #4
 1431              		.loc 1 477 0
 1432 0058 6678     		ldrb	r6, [r4, #1]	@ zero_extendqisi2
 1433              		.loc 1 478 0
 1434 005a A278     		ldrb	r2, [r4, #2]	@ zero_extendqisi2
 1435              		.loc 1 479 0
 1436 005c E078     		ldrb	r0, [r4, #3]	@ zero_extendqisi2
 1437 005e 0393     		str	r3, [sp, #12]
 1438              		.loc 1 481 0
 1439 0060 0323     		movs	r3, #3
 1440              		.loc 1 483 0
 1441 0062 8DF80551 		strb	r5, [sp, #261]
 1442              		.loc 1 484 0
 1443 0066 8DF8FC50 		strb	r5, [sp, #252]
 1444              		.loc 1 476 0
 1445 006a 8DF80211 		strb	r1, [sp, #258]
 1446              		.loc 1 477 0
 1447 006e 8DF80361 		strb	r6, [sp, #259]
 1448              		.loc 1 478 0
 1449 0072 8DF80421 		strb	r2, [sp, #260]
 1450              		.loc 1 479 0
 1451 0076 8DF80101 		strb	r0, [sp, #257]
 1452              		.loc 1 481 0
 1453 007a 8DF80031 		strb	r3, [sp, #256]
 1454              		.loc 1 482 0
 1455 007e 8DF8FF30 		strb	r3, [sp, #255]
 1456              	.LBB72:
 1457              		.loc 1 488 0
 1458 0082 04AC     		add	r4, sp, #16
 1459              	.LBE72:
 1460              		.loc 1 486 0
 1461 0084 77B1     		cbz	r7, .L105
 1462              	.LBB73:
 1463              		.loc 1 488 0
 1464 0086 3523     		movs	r3, #53
 1465              		.loc 1 489 0
 1466 0088 8DF81100 		strb	r0, [sp, #17]
 1467              		.loc 1 490 0
 1468 008c 8DF81210 		strb	r1, [sp, #18]
 1469              		.loc 1 493 0
 1470 0090 2046     		mov	r0, r4
 1471 0092 0521     		movs	r1, #5
 1472              		.loc 1 491 0
 1473 0094 8DF81360 		strb	r6, [sp, #19]
 1474              		.loc 1 492 0
 1475 0098 8DF81420 		strb	r2, [sp, #20]
 1476              		.loc 1 488 0
 1477 009c 8DF81030 		strb	r3, [sp, #16]
 1478              		.loc 1 493 0
 1479 00a0 FFF7FEFF 		bl	commands_send_packet_nrf
 1480              	.LVL101:
 1481              	.L105:
 1482              	.LBE73:
ARM GAS  /tmp/ccKGD8hP.s 			page 27


 1483              		.loc 1 498 0
 1484 00a4 574D     		ldr	r5, .L114+12
 1485              		.loc 1 496 0
 1486 00a6 0123     		movs	r3, #1
 1487              		.loc 1 499 0
 1488 00a8 06A8     		add	r0, sp, #24
 1489              		.loc 1 498 0
 1490 00aa 2B70     		strb	r3, [r5]
 1491              		.loc 1 496 0
 1492 00ac 8DF8CC30 		strb	r3, [sp, #204]
 1493              		.loc 1 499 0
 1494 00b0 FFF7FEFF 		bl	conf_general_store_app_configuration
 1495              	.LVL102:
 1496              		.loc 1 500 0
 1497 00b4 06A8     		add	r0, sp, #24
 1498 00b6 FFF7FEFF 		bl	app_set_configuration
 1499              	.LVL103:
 1500              		.loc 1 502 0
 1501 00ba 06A9     		add	r1, sp, #24
 1502 00bc 1120     		movs	r0, #17
 1503 00be FFF7FEFF 		bl	commands_send_appconf
 1504              	.LVL104:
 1505              		.loc 1 505 0
 1506 00c2 40F22513 		movw	r3, #293
 1507 00c6 2380     		strh	r3, [r4]	@ movhi
 1508              		.loc 1 507 0
 1509 00c8 2046     		mov	r0, r4
 1510 00ca 0221     		movs	r1, #2
 1511 00cc FFF7FEFF 		bl	commands_send_packet
 1512              	.LVL105:
 1513              		.loc 1 509 0
 1514 00d0 0023     		movs	r3, #0
 1515 00d2 2B70     		strb	r3, [r5]
 1516              	.L93:
 1517              	.LBE71:
 1518              		.loc 1 515 0
 1519 00d4 0DF5157D 		add	sp, sp, #596
 1520              		.cfi_remember_state
 1521              		.cfi_def_cfa_offset 20
 1522              		@ sp needed
 1523 00d8 F0BD     		pop	{r4, r5, r6, r7, pc}
 1524              	.LVL106:
 1525              	.L100:
 1526              		.cfi_restore_state
 1527              		.loc 1 459 0
 1528 00da 1420     		movs	r0, #20
 1529 00dc 0191     		str	r1, [sp, #4]
 1530 00de FFF7FEFF 		bl	chThdSleep
 1531              	.LVL107:
 1532              		.loc 1 462 0
 1533 00e2 0199     		ldr	r1, [sp, #4]
 1534              		.loc 1 461 0
 1535 00e4 474D     		ldr	r5, .L114+12
 1536              		.loc 1 462 0
 1537 00e6 484A     		ldr	r2, .L114+16
 1538              		.loc 1 461 0
 1539 00e8 0123     		movs	r3, #1
ARM GAS  /tmp/ccKGD8hP.s 			page 28


 1540              		.loc 1 462 0
 1541 00ea 0139     		subs	r1, r1, #1
 1542 00ec 601C     		adds	r0, r4, #1
 1543              		.loc 1 461 0
 1544 00ee 2B70     		strb	r3, [r5]
 1545              		.loc 1 462 0
 1546 00f0 FFF7FEFF 		bl	commands_process_packet
 1547              	.LVL108:
 1548              		.loc 1 463 0
 1549 00f4 0023     		movs	r3, #0
 1550 00f6 2B70     		strb	r3, [r5]
 1551              		.loc 1 515 0
 1552 00f8 0DF5157D 		add	sp, sp, #596
 1553              		.cfi_remember_state
 1554              		.cfi_def_cfa_offset 20
 1555              		@ sp needed
 1556 00fc F0BD     		pop	{r4, r5, r6, r7, pc}
 1557              	.LVL109:
 1558              	.L95:
 1559              		.cfi_restore_state
 1560              		.loc 1 398 0
 1561 00fe E378     		ldrb	r3, [r4, #3]	@ zero_extendqisi2
 1562              	.LVL110:
 1563              		.loc 1 396 0
 1564 0100 424D     		ldr	r5, .L114+20
 1565 0102 6278     		ldrb	r2, [r4, #1]	@ zero_extendqisi2
 1566 0104 2A70     		strb	r2, [r5]
 1567              		.loc 1 399 0
 1568 0106 03F00101 		and	r1, r3, #1
 1569              	.LVL111:
 1570              		.loc 1 397 0
 1571 010a A278     		ldrb	r2, [r4, #2]	@ zero_extendqisi2
 1572              		.loc 1 399 0
 1573 010c A970     		strb	r1, [r5, #2]
 1574              		.loc 1 400 0
 1575 010e C3F34001 		ubfx	r1, r3, #1, #1
 1576              		.loc 1 397 0
 1577 0112 6A70     		strb	r2, [r5, #1]
 1578              		.loc 1 400 0
 1579 0114 E970     		strb	r1, [r5, #3]
 1580              		.loc 1 401 0
 1581 0116 C3F38002 		ubfx	r2, r3, #2, #1
 1582              		.loc 1 402 0
 1583 011a C3F3C001 		ubfx	r1, r3, #3, #1
 1584              		.loc 1 401 0
 1585 011e 2A71     		strb	r2, [r5, #4]
 1586              		.loc 1 403 0
 1587 0120 C3F30013 		ubfx	r3, r3, #4, #1
 1588              	.LVL112:
 1589              		.loc 1 398 0
 1590 0124 0422     		movs	r2, #4
 1591              		.loc 1 402 0
 1592 0126 6971     		strb	r1, [r5, #5]
 1593              		.loc 1 404 0
 1594 0128 2046     		mov	r0, r4
 1595 012a 03A9     		add	r1, sp, #12
 1596              		.loc 1 403 0
ARM GAS  /tmp/ccKGD8hP.s 			page 29


 1597 012c AB71     		strb	r3, [r5, #6]
 1598              		.loc 1 398 0
 1599 012e 0392     		str	r2, [sp, #12]
 1600              		.loc 1 404 0
 1601 0130 FFF7FEFF 		bl	buffer_get_int16
 1602              	.LVL113:
 1603 0134 07EE900A 		vmov	s15, r0	@ int
 1604 0138 9FED357A 		vldr.32	s14, .L114+24
 1605              		.loc 1 406 0
 1606 013c 2B78     		ldrb	r3, [r5]	@ zero_extendqisi2
 1607              		.loc 1 407 0
 1608 013e 6E78     		ldrb	r6, [r5, #1]	@ zero_extendqisi2
 1609              		.loc 1 408 0
 1610 0140 AC78     		ldrb	r4, [r5, #2]	@ zero_extendqisi2
 1611              	.LVL114:
 1612              		.loc 1 409 0
 1613 0142 E978     		ldrb	r1, [r5, #3]	@ zero_extendqisi2
 1614              		.loc 1 410 0
 1615 0144 6A79     		ldrb	r2, [r5, #5]	@ zero_extendqisi2
 1616              		.loc 1 407 0
 1617 0146 0796     		str	r6, [sp, #28]
 1618              		.loc 1 404 0
 1619 0148 F8EEE76A 		vcvt.f32.s32	s13, s15
 1620              		.loc 1 406 0
 1621 014c C3F1FF03 		rsb	r3, r3, #255
 1622              		.loc 1 404 0
 1623 0150 C6EE877A 		vdiv.f32	s15, s13, s14
 1624              		.loc 1 406 0
 1625 0154 0693     		str	r3, [sp, #24]
 1626              		.loc 1 413 0
 1627 0156 06A8     		add	r0, sp, #24
 1628              		.loc 1 411 0
 1629 0158 AB79     		ldrb	r3, [r5, #6]	@ zero_extendqisi2
 1630              		.loc 1 408 0
 1631 015a 8DF82C40 		strb	r4, [sp, #44]
 1632              		.loc 1 409 0
 1633 015e 8DF82D10 		strb	r1, [sp, #45]
 1634              		.loc 1 410 0
 1635 0162 8DF82E20 		strb	r2, [sp, #46]
 1636              		.loc 1 411 0
 1637 0166 8DF82F30 		strb	r3, [sp, #47]
 1638              		.loc 1 404 0
 1639 016a C5ED027A 		vstr.32	s15, [r5, #8]
 1640              		.loc 1 413 0
 1641 016e FFF7FEFF 		bl	app_nunchuk_update_output
 1642              	.LVL115:
 1643              		.loc 1 515 0
 1644 0172 0DF5157D 		add	sp, sp, #596
 1645              		.cfi_remember_state
 1646              		.cfi_def_cfa_offset 20
 1647              		@ sp needed
 1648 0176 F0BD     		pop	{r4, r5, r6, r7, pc}
 1649              	.LVL116:
 1650              	.L97:
 1651              		.cfi_restore_state
 1652              		.loc 1 417 0
 1653 0178 2648     		ldr	r0, .L114+28
ARM GAS  /tmp/ccKGD8hP.s 			page 30


 1654 017a 6378     		ldrb	r3, [r4, #1]	@ zero_extendqisi2
 1655              	.LVL117:
 1656 017c 8A1E     		subs	r2, r1, #2
 1657 017e 1844     		add	r0, r0, r3
 1658 0180 A11C     		adds	r1, r4, #2
 1659              	.LVL118:
 1660              	.L113:
 1661              		.loc 1 515 0
 1662 0182 0DF5157D 		add	sp, sp, #596
 1663              		.cfi_remember_state
 1664              		.cfi_def_cfa_offset 20
 1665              		@ sp needed
 1666 0186 BDE8F040 		pop	{r4, r5, r6, r7, lr}
 1667              		.cfi_restore 14
 1668              		.cfi_restore 7
 1669              		.cfi_restore 6
 1670              		.cfi_restore 5
 1671              		.cfi_restore 4
 1672              		.cfi_def_cfa_offset 0
 1673              	.LVL119:
 1674              	.LBB74:
 1675              		.loc 1 424 0
 1676 018a FFF7FEBF 		b	memcpy
 1677              	.LVL120:
 1678              	.L98:
 1679              		.cfi_restore_state
 1680 018e B4F80130 		ldrh	r3, [r4, #1]	@ unaligned
 1681              	.LVL121:
 1682 0192 5BBA     		rev16	r3, r3
 1683 0194 9BB2     		uxth	r3, r3
 1684              	.LVL122:
 1685              		.loc 1 423 0
 1686 0196 B3F5007F 		cmp	r3, #512
 1687 019a 9BD2     		bcs	.L93
 1688              		.loc 1 424 0
 1689 019c 1D48     		ldr	r0, .L114+28
 1690 019e CA1E     		subs	r2, r1, #3
 1691 01a0 1844     		add	r0, r0, r3
 1692 01a2 E11C     		adds	r1, r4, #3
 1693              	.LVL123:
 1694 01a4 EDE7     		b	.L113
 1695              	.LVL124:
 1696              	.L99:
 1697              	.LBE74:
 1698              	.LBB75:
 1699              		.loc 1 431 0
 1700 01a6 6378     		ldrb	r3, [r4, #1]	@ zero_extendqisi2
 1701              	.LVL125:
 1702              		.loc 1 432 0
 1703 01a8 A578     		ldrb	r5, [r4, #2]	@ zero_extendqisi2
 1704 01aa 45EA0325 		orr	r5, r5, r3, lsl #8
 1705              	.LVL126:
 1706              		.loc 1 434 0
 1707 01ae B5F5007F 		cmp	r5, #512
 1708 01b2 8FD8     		bhi	.L93
 1709              		.loc 1 441 0
 1710 01b4 4A1F     		subs	r2, r1, #5
ARM GAS  /tmp/ccKGD8hP.s 			page 31


 1711 01b6 174E     		ldr	r6, .L114+28
 1712              		.loc 1 438 0
 1713 01b8 E778     		ldrb	r7, [r4, #3]	@ zero_extendqisi2
 1714              	.LVL127:
 1715              		.loc 1 439 0
 1716 01ba 0523     		movs	r3, #5
 1717              		.loc 1 441 0
 1718 01bc A81A     		subs	r0, r5, r2
 1719 01be E118     		adds	r1, r4, r3
 1720              	.LVL128:
 1721 01c0 3044     		add	r0, r0, r6
 1722              		.loc 1 439 0
 1723 01c2 0393     		str	r3, [sp, #12]
 1724 01c4 2479     		ldrb	r4, [r4, #4]	@ zero_extendqisi2
 1725              	.LVL129:
 1726              		.loc 1 441 0
 1727 01c6 FFF7FEFF 		bl	memcpy
 1728              	.LVL130:
 1729              		.loc 1 443 0
 1730 01ca 2946     		mov	r1, r5
 1731 01cc 3046     		mov	r0, r6
 1732 01ce FFF7FEFF 		bl	crc16
 1733              	.LVL131:
 1734              		.loc 1 445 0
 1735 01d2 44EA0724 		orr	r4, r4, r7, lsl #8
 1736              	.LVL132:
 1737              		.loc 1 443 0
 1738 01d6 A042     		cmp	r0, r4
 1739 01d8 7FF47CAF 		bne	.L93
 1740              		.loc 1 448 0
 1741 01dc 1420     		movs	r0, #20
 1742              		.loc 1 450 0
 1743 01de 094C     		ldr	r4, .L114+12
 1744              		.loc 1 448 0
 1745 01e0 FFF7FEFF 		bl	chThdSleep
 1746              	.LVL133:
 1747              		.loc 1 450 0
 1748 01e4 0123     		movs	r3, #1
 1749              		.loc 1 451 0
 1750 01e6 2946     		mov	r1, r5
 1751 01e8 3046     		mov	r0, r6
 1752 01ea 074A     		ldr	r2, .L114+16
 1753              		.loc 1 450 0
 1754 01ec 2370     		strb	r3, [r4]
 1755              		.loc 1 451 0
 1756 01ee FFF7FEFF 		bl	commands_process_packet
 1757              	.LVL134:
 1758              		.loc 1 452 0
 1759 01f2 0023     		movs	r3, #0
 1760 01f4 2370     		strb	r3, [r4]
 1761 01f6 6DE7     		b	.L93
 1762              	.L115:
 1763              		.align	2
 1764              	.L114:
 1765 01f8 00000000 		.word	.LANCHOR12
 1766 01fc 00000000 		.word	.LANCHOR5
 1767 0200 00000000 		.word	.LANCHOR0
ARM GAS  /tmp/ccKGD8hP.s 			page 32


 1768 0204 00000000 		.word	.LANCHOR11
 1769 0208 00000000 		.word	nrf_driver_send_buffer
 1770 020c 00000000 		.word	.LANCHOR15
 1771 0210 00007A44 		.word	1148846080
 1772 0214 00000000 		.word	.LANCHOR16
 1773              	.LBE75:
 1774              		.cfi_endproc
 1775              	.LFE227:
 1776              		.size	nrf_driver_process_packet, .-nrf_driver_process_packet
 1777              		.section	.text.rx_thread,"ax",%progbits
 1778              		.align	1
 1779              		.p2align 4,,15
 1780              		.syntax unified
 1781              		.thumb
 1782              		.thumb_func
 1783              		.fpu fpv4-sp-d16
 1784              		.type	rx_thread, %function
 1785              	rx_thread:
 1786              	.LFB225:
 1787              		.loc 1 260 0
 1788              		.cfi_startproc
 1789              		@ args = 0, pretend = 0, frame = 40
 1790              		@ frame_needed = 0, uses_anonymous_args = 0
 1791              	.LVL135:
 1792 0000 2DE9F043 		push	{r4, r5, r6, r7, r8, r9, lr}
 1793              		.cfi_def_cfa_offset 28
 1794              		.cfi_offset 4, -28
 1795              		.cfi_offset 5, -24
 1796              		.cfi_offset 6, -20
 1797              		.cfi_offset 7, -16
 1798              		.cfi_offset 8, -12
 1799              		.cfi_offset 9, -8
 1800              		.cfi_offset 14, -4
 1801              	.LBB76:
 1802              	.LBB77:
 1803              		.loc 2 135 0
 1804 0004 234B     		ldr	r3, .L135
 1805              	.LBE77:
 1806              	.LBE76:
 1807              		.loc 1 264 0
 1808 0006 DFF8A090 		ldr	r9, .L135+20
 1809              	.LBB79:
 1810              	.LBB78:
 1811              		.loc 2 135 0
 1812 000a 9B69     		ldr	r3, [r3, #24]
 1813 000c 224A     		ldr	r2, .L135+4
 1814 000e 9A61     		str	r2, [r3, #24]
 1815              	.LVL136:
 1816 0010 224F     		ldr	r7, .L135+8
 1817 0012 DFF89880 		ldr	r8, .L135+24
 1818              	.LBE78:
 1819              	.LBE79:
 1820              	.LBB80:
 1821              		.loc 1 301 0
 1822 0016 224D     		ldr	r5, .L135+12
 1823 0018 224E     		ldr	r6, .L135+16
 1824              	.LBE80:
ARM GAS  /tmp/ccKGD8hP.s 			page 33


 1825              		.loc 1 264 0
 1826 001a 0123     		movs	r3, #1
 1827              		.loc 1 260 0
 1828 001c 8BB0     		sub	sp, sp, #44
 1829              		.cfi_def_cfa_offset 72
 1830              		.loc 1 264 0
 1831 001e 89F80030 		strb	r3, [r9]
 1832              	.LVL137:
 1833              	.L117:
 1834              	.LBB83:
 1835              		.loc 1 267 0
 1836 0022 3B68     		ldr	r3, [r7]
 1837 0024 D3B9     		cbnz	r3, .L132
 1838              	.L118:
 1839              		.loc 1 272 0
 1840 0026 98F80020 		ldrb	r2, [r8]	@ zero_extendqisi2
 1841 002a 72BB     		cbnz	r2, .L133
 1842              	.L120:
 1843              	.LBB81:
 1844              		.loc 1 282 0
 1845 002c 01AA     		add	r2, sp, #4
 1846 002e 6946     		mov	r1, sp
 1847 0030 02A8     		add	r0, sp, #8
 1848 0032 FFF7FEFF 		bl	rfhelp_read_rx_data_crc
 1849              	.LVL138:
 1850              		.loc 1 285 0
 1851 0036 041E     		subs	r4, r0, #0
 1852              		.loc 1 286 0
 1853 0038 02A8     		add	r0, sp, #8
 1854              	.LVL139:
 1855              		.loc 1 285 0
 1856 003a 13DA     		bge	.L134
 1857              	.L121:
 1858              	.LBE81:
 1859              		.loc 1 298 0
 1860 003c 3220     		movs	r0, #50
 1861 003e FFF7FEFF 		bl	chThdSleep
 1862              	.LVL140:
 1863              		.loc 1 301 0
 1864 0042 2B68     		ldr	r3, [r5]
 1865 0044 002B     		cmp	r3, #0
 1866 0046 17DD     		ble	.L122
 1867              		.loc 1 301 0 is_stmt 0 discriminator 1
 1868 0048 3268     		ldr	r2, [r6]
 1869 004a 002A     		cmp	r2, #0
 1870 004c 14DD     		ble	.L122
 1871              		.loc 1 302 0 is_stmt 1
 1872 004e 053B     		subs	r3, r3, #5
 1873 0050 2B60     		str	r3, [r5]
 1874              		.loc 1 267 0
 1875 0052 3B68     		ldr	r3, [r7]
 1876              		.loc 1 303 0
 1877 0054 053A     		subs	r2, r2, #5
 1878 0056 3260     		str	r2, [r6]
 1879              		.loc 1 267 0
 1880 0058 002B     		cmp	r3, #0
 1881 005a E4D0     		beq	.L118
ARM GAS  /tmp/ccKGD8hP.s 			page 34


 1882              	.LVL141:
 1883              	.L132:
 1884              		.loc 1 268 0
 1885 005c 3220     		movs	r0, #50
 1886 005e FFF7FEFF 		bl	chThdSleep
 1887              	.LVL142:
 1888 0062 DEE7     		b	.L117
 1889              	.LVL143:
 1890              	.L134:
 1891              	.LBB82:
 1892              		.loc 1 286 0
 1893 0064 9DF80010 		ldrb	r1, [sp]	@ zero_extendqisi2
 1894 0068 FFF7FEFF 		bl	nrf_driver_process_packet
 1895              	.LVL144:
 1896              		.loc 1 294 0
 1897 006c 0A20     		movs	r0, #10
 1898              		.loc 1 290 0
 1899 006e 002C     		cmp	r4, #0
 1900 0070 E4D0     		beq	.L121
 1901              		.loc 1 294 0
 1902 0072 FFF7FEFF 		bl	chThdSleep
 1903              	.LVL145:
 1904              	.LBE82:
 1905              		.loc 1 281 0
 1906 0076 D9E7     		b	.L120
 1907              	.L122:
 1908              		.loc 1 305 0
 1909 0078 FFF7FEFF 		bl	rfhelp_power_up
 1910              	.LVL146:
 1911              		.loc 1 306 0
 1912 007c FFF7FEFF 		bl	rfhelp_restart
 1913              	.LVL147:
 1914              		.loc 1 307 0
 1915 0080 4FF4FA73 		mov	r3, #500
 1916 0084 2B60     		str	r3, [r5]
 1917              		.loc 1 308 0
 1918 0086 3360     		str	r3, [r6]
 1919 0088 CBE7     		b	.L117
 1920              	.LVL148:
 1921              	.L133:
 1922              		.loc 1 273 0
 1923 008a 89F80030 		strb	r3, [r9]
 1924              	.LBE83:
 1925              		.loc 1 311 0
 1926 008e 0BB0     		add	sp, sp, #44
 1927              		.cfi_def_cfa_offset 28
 1928              		@ sp needed
 1929 0090 BDE8F083 		pop	{r4, r5, r6, r7, r8, r9, pc}
 1930              	.L136:
 1931              		.align	2
 1932              	.L135:
 1933 0094 00000000 		.word	ch
 1934 0098 00000000 		.word	.LC1
 1935 009c 00000000 		.word	.LANCHOR7
 1936 00a0 00000000 		.word	.LANCHOR12
 1937 00a4 00000000 		.word	.LANCHOR1
 1938 00a8 00000000 		.word	.LANCHOR9
ARM GAS  /tmp/ccKGD8hP.s 			page 35


 1939 00ac 00000000 		.word	.LANCHOR10
 1940              		.cfi_endproc
 1941              	.LFE225:
 1942              		.size	rx_thread, .-rx_thread
 1943              		.section	.text.nrf_driver_is_pairing,"ax",%progbits
 1944              		.align	1
 1945              		.p2align 4,,15
 1946              		.global	nrf_driver_is_pairing
 1947              		.syntax unified
 1948              		.thumb
 1949              		.thumb_func
 1950              		.fpu fpv4-sp-d16
 1951              		.type	nrf_driver_is_pairing, %function
 1952              	nrf_driver_is_pairing:
 1953              	.LFB228:
 1954              		.loc 1 517 0
 1955              		.cfi_startproc
 1956              		@ args = 0, pretend = 0, frame = 0
 1957              		@ frame_needed = 0, uses_anonymous_args = 0
 1958              		@ link register save eliminated.
 1959              		.loc 1 518 0
 1960 0000 014B     		ldr	r3, .L138
 1961 0002 1878     		ldrb	r0, [r3]	@ zero_extendqisi2
 1962              		.loc 1 519 0
 1963 0004 7047     		bx	lr
 1964              	.L139:
 1965 0006 00BF     		.align	2
 1966              	.L138:
 1967 0008 00000000 		.word	.LANCHOR5
 1968              		.cfi_endproc
 1969              	.LFE228:
 1970              		.size	nrf_driver_is_pairing, .-nrf_driver_is_pairing
 1971              		.section	.text.nrf_driver_ext_nrf_running,"ax",%progbits
 1972              		.align	1
 1973              		.p2align 4,,15
 1974              		.global	nrf_driver_ext_nrf_running
 1975              		.syntax unified
 1976              		.thumb
 1977              		.thumb_func
 1978              		.fpu fpv4-sp-d16
 1979              		.type	nrf_driver_ext_nrf_running, %function
 1980              	nrf_driver_ext_nrf_running:
 1981              	.LFB229:
 1982              		.loc 1 521 0
 1983              		.cfi_startproc
 1984              		@ args = 0, pretend = 0, frame = 0
 1985              		@ frame_needed = 0, uses_anonymous_args = 0
 1986              		@ link register save eliminated.
 1987              		.loc 1 522 0
 1988 0000 014B     		ldr	r3, .L141
 1989 0002 1878     		ldrb	r0, [r3]	@ zero_extendqisi2
 1990              		.loc 1 523 0
 1991 0004 7047     		bx	lr
 1992              	.L142:
 1993 0006 00BF     		.align	2
 1994              	.L141:
 1995 0008 00000000 		.word	.LANCHOR0
ARM GAS  /tmp/ccKGD8hP.s 			page 36


 1996              		.cfi_endproc
 1997              	.LFE229:
 1998              		.size	nrf_driver_ext_nrf_running, .-nrf_driver_ext_nrf_running
 1999              		.section	.text.nrf_driver_pause,"ax",%progbits
 2000              		.align	1
 2001              		.p2align 4,,15
 2002              		.global	nrf_driver_pause
 2003              		.syntax unified
 2004              		.thumb
 2005              		.thumb_func
 2006              		.fpu fpv4-sp-d16
 2007              		.type	nrf_driver_pause, %function
 2008              	nrf_driver_pause:
 2009              	.LFB230:
 2010              		.loc 1 525 0
 2011              		.cfi_startproc
 2012              		@ args = 0, pretend = 0, frame = 0
 2013              		@ frame_needed = 0, uses_anonymous_args = 0
 2014              		@ link register save eliminated.
 2015              	.LVL149:
 2016              		.loc 1 526 0
 2017 0000 014B     		ldr	r3, .L144
 2018 0002 1860     		str	r0, [r3]
 2019              		.loc 1 527 0
 2020 0004 7047     		bx	lr
 2021              	.L145:
 2022 0006 00BF     		.align	2
 2023              	.L144:
 2024 0008 00000000 		.word	.LANCHOR7
 2025              		.cfi_endproc
 2026              	.LFE230:
 2027              		.size	nrf_driver_pause, .-nrf_driver_pause
 2028              		.section	.bss.driver_paused,"aw",%nobits
 2029              		.align	2
 2030              		.set	.LANCHOR7,. + 0
 2031              		.type	driver_paused, %object
 2032              		.size	driver_paused, 4
 2033              	driver_paused:
 2034 0000 00000000 		.space	4
 2035              		.section	.bss.ext_nrf,"aw",%nobits
 2036              		.set	.LANCHOR0,. + 0
 2037              		.type	ext_nrf, %object
 2038              		.size	ext_nrf, 1
 2039              	ext_nrf:
 2040 0000 00       		.space	1
 2041              		.section	.bss.from_nrf,"aw",%nobits
 2042              		.set	.LANCHOR11,. + 0
 2043              		.type	from_nrf, %object
 2044              		.size	from_nrf, 1
 2045              	from_nrf:
 2046 0000 00       		.space	1
 2047              		.section	.bss.mstate,"aw",%nobits
 2048              		.align	2
 2049              		.set	.LANCHOR15,. + 0
 2050              		.type	mstate, %object
 2051              		.size	mstate, 12
 2052              	mstate:
ARM GAS  /tmp/ccKGD8hP.s 			page 37


 2053 0000 00000000 		.space	12
 2053      00000000 
 2053      00000000 
 2054              		.section	.bss.nosend_cnt,"aw",%nobits
 2055              		.align	2
 2056              		.set	.LANCHOR4,. + 0
 2057              		.type	nosend_cnt, %object
 2058              		.size	nosend_cnt, 4
 2059              	nosend_cnt:
 2060 0000 00000000 		.space	4
 2061              		.section	.bss.nrf_restart_rx_time,"aw",%nobits
 2062              		.align	2
 2063              		.set	.LANCHOR12,. + 0
 2064              		.type	nrf_restart_rx_time, %object
 2065              		.size	nrf_restart_rx_time, 4
 2066              	nrf_restart_rx_time:
 2067 0000 00000000 		.space	4
 2068              		.section	.bss.nrf_restart_tx_time,"aw",%nobits
 2069              		.align	2
 2070              		.set	.LANCHOR1,. + 0
 2071              		.type	nrf_restart_tx_time, %object
 2072              		.size	nrf_restart_tx_time, 4
 2073              	nrf_restart_tx_time:
 2074 0000 00000000 		.space	4
 2075              		.section	.bss.pairing_active,"aw",%nobits
 2076              		.set	.LANCHOR5,. + 0
 2077              		.type	pairing_active, %object
 2078              		.size	pairing_active, 1
 2079              	pairing_active:
 2080 0000 00       		.space	1
 2081              		.section	.bss.pairing_time_end,"aw",%nobits
 2082              		.align	2
 2083              		.set	.LANCHOR8,. + 0
 2084              		.type	pairing_time_end, %object
 2085              		.size	pairing_time_end, 4
 2086              	pairing_time_end:
 2087 0000 00000000 		.space	4
 2088              		.section	.bss.rx_buffer,"aw",%nobits
 2089              		.align	2
 2090              		.set	.LANCHOR16,. + 0
 2091              		.type	rx_buffer, %object
 2092              		.size	rx_buffer, 512
 2093              	rx_buffer:
 2094 0000 00000000 		.space	512
 2094      00000000 
 2094      00000000 
 2094      00000000 
 2094      00000000 
 2095              		.section	.bss.rx_running,"aw",%nobits
 2096              		.set	.LANCHOR9,. + 0
 2097              		.type	rx_running, %object
 2098              		.size	rx_running, 1
 2099              	rx_running:
 2100 0000 00       		.space	1
 2101              		.section	.bss.rx_thread_wa,"aw",%nobits
 2102              		.align	3
 2103              		.set	.LANCHOR13,. + 0
ARM GAS  /tmp/ccKGD8hP.s 			page 38


 2104              		.type	rx_thread_wa, %object
 2105              		.size	rx_thread_wa, 2464
 2106              	rx_thread_wa:
 2107 0000 00000000 		.space	2464
 2107      00000000 
 2107      00000000 
 2107      00000000 
 2107      00000000 
 2108              		.section	.bss.seq_cnt.10933,"aw",%nobits
 2109              		.set	.LANCHOR6,. + 0
 2110              		.type	seq_cnt.10933, %object
 2111              		.size	seq_cnt.10933, 1
 2112              	seq_cnt.10933:
 2113 0000 00       		.space	1
 2114              		.section	.bss.tx_running,"aw",%nobits
 2115              		.set	.LANCHOR2,. + 0
 2116              		.type	tx_running, %object
 2117              		.size	tx_running, 1
 2118              	tx_running:
 2119 0000 00       		.space	1
 2120              		.section	.bss.tx_thread_wa,"aw",%nobits
 2121              		.align	3
 2122              		.set	.LANCHOR14,. + 0
 2123              		.type	tx_thread_wa, %object
 2124              		.size	tx_thread_wa, 672
 2125              	tx_thread_wa:
 2126 0000 00000000 		.space	672
 2126      00000000 
 2126      00000000 
 2126      00000000 
 2126      00000000 
 2127              		.section	.data.rx_stop,"aw",%progbits
 2128              		.set	.LANCHOR10,. + 0
 2129              		.type	rx_stop, %object
 2130              		.size	rx_stop, 1
 2131              	rx_stop:
 2132 0000 01       		.byte	1
 2133              		.section	.data.tx_stop,"aw",%progbits
 2134              		.set	.LANCHOR3,. + 0
 2135              		.type	tx_stop, %object
 2136              		.size	tx_stop, 1
 2137              	tx_stop:
 2138 0000 01       		.byte	1
 2139              		.section	.rodata.rx_thread.str1.4,"aMS",%progbits,1
 2140              		.align	2
 2141              	.LC1:
 2142 0000 4E726620 		.ascii	"Nrf RX\000"
 2142      525800
 2143              		.section	.rodata.tx_thread.str1.4,"aMS",%progbits,1
 2144              		.align	2
 2145              	.LC0:
 2146 0000 4E726620 		.ascii	"Nrf TX\000"
 2146      545800
 2147              		.text
 2148              	.Letext0:
 2149              		.file 4 "/usr/lib/gcc/arm-none-eabi/7.3.1/include/stddef.h"
 2150              		.file 5 "/usr/arm-none-eabi/include/machine/_default_types.h"
ARM GAS  /tmp/ccKGD8hP.s 			page 39


 2151              		.file 6 "/usr/arm-none-eabi/include/sys/lock.h"
 2152              		.file 7 "/usr/arm-none-eabi/include/sys/_types.h"
 2153              		.file 8 "/usr/arm-none-eabi/include/sys/reent.h"
 2154              		.file 9 "/usr/arm-none-eabi/include/sys/_stdint.h"
 2155              		.file 10 "ChibiOS_3.0.5/os/rt/ports/ARMCMx/compilers/GCC/chtypes.h"
 2156              		.file 11 "ChibiOS_3.0.5/os/rt/include/chsystypes.h"
 2157              		.file 12 "ChibiOS_3.0.5/os/rt/include/chschd.h"
 2158              		.file 13 "ChibiOS_3.0.5/os/ext/CMSIS/include/core_cm4.h"
 2159              		.file 14 "ChibiOS_3.0.5/os/ext/CMSIS/ST/system_stm32f4xx.h"
 2160              		.file 15 "ChibiOS_3.0.5/os/rt/ports/ARMCMx/chcore.h"
 2161              		.file 16 "ChibiOS_3.0.5/os/rt/ports/ARMCMx/chcore_v7m.h"
 2162              		.file 17 "ChibiOS_3.0.5/os/rt/include/chtm.h"
 2163              		.file 18 "ChibiOS_3.0.5/os/rt/include/chsem.h"
 2164              		.file 19 "ChibiOS_3.0.5/os/rt/include/chmtx.h"
 2165              		.file 20 "./datatypes.h"
 2166              		.file 21 "./conf_general.h"
 2167              		.file 22 "./commands.h"
 2168              		.file 23 "./mc_interface.h"
 2169              		.file 24 "./crc.h"
 2170              		.file 25 "ChibiOS_3.0.5/os/rt/include/chthreads.h"
 2171              		.file 26 "applications/app.h"
 2172              		.file 27 "./buffer.h"
 2173              		.file 28 "nrf/rfhelp.h"
 2174              		.file 29 "<built-in>"