ARM GAS  /tmp/ccNYAk6R.s 			page 1


   1              		.cpu cortex-m4
   2              		.eabi_attribute 27, 1
   3              		.eabi_attribute 28, 1
   4              		.eabi_attribute 20, 1
   5              		.eabi_attribute 21, 1
   6              		.eabi_attribute 23, 3
   7              		.eabi_attribute 24, 1
   8              		.eabi_attribute 25, 1
   9              		.eabi_attribute 26, 1
  10              		.eabi_attribute 30, 2
  11              		.eabi_attribute 34, 1
  12              		.eabi_attribute 18, 4
  13              		.file	"param_Empty.c"
  14              		.text
  15              	.Ltext0:
  16              		.cfi_sections	.debug_frame
  17              		.section	.text.uavcan_protocol_param_Empty_encode_internal,"ax",%progbits
  18              		.align	1
  19              		.p2align 4,,15
  20              		.global	uavcan_protocol_param_Empty_encode_internal
  21              		.syntax unified
  22              		.thumb
  23              		.thumb_func
  24              		.fpu fpv4-sp-d16
  25              		.type	uavcan_protocol_param_Empty_encode_internal, %function
  26              	uavcan_protocol_param_Empty_encode_internal:
  27              	.LFB0:
  28              		.file 1 "libcanard/dsdl/uavcan/protocol/param/param_Empty.c"
  29              		.loc 1 29 0
  30              		.cfi_startproc
  31              		@ args = 0, pretend = 0, frame = 0
  32              		@ frame_needed = 0, uses_anonymous_args = 0
  33              		@ link register save eliminated.
  34              	.LVL0:
  35              		.loc 1 31 0
  36 0000 1046     		mov	r0, r2
  37              	.LVL1:
  38 0002 7047     		bx	lr
  39              		.cfi_endproc
  40              	.LFE0:
  41              		.size	uavcan_protocol_param_Empty_encode_internal, .-uavcan_protocol_param_Empty_encode_internal
  42              		.section	.text.uavcan_protocol_param_Empty_encode,"ax",%progbits
  43              		.align	1
  44              		.p2align 4,,15
  45              		.global	uavcan_protocol_param_Empty_encode
  46              		.syntax unified
  47              		.thumb
  48              		.thumb_func
  49              		.fpu fpv4-sp-d16
  50              		.type	uavcan_protocol_param_Empty_encode, %function
  51              	uavcan_protocol_param_Empty_encode:
  52              	.LFB1:
  53              		.loc 1 34 0
  54              		.cfi_startproc
  55              		@ args = 0, pretend = 0, frame = 0
  56              		@ frame_needed = 0, uses_anonymous_args = 0
  57              		@ link register save eliminated.
ARM GAS  /tmp/ccNYAk6R.s 			page 2


  58              	.LVL2:
  59              		.loc 1 36 0
  60 0000 0020     		movs	r0, #0
  61              	.LVL3:
  62 0002 7047     		bx	lr
  63              		.cfi_endproc
  64              	.LFE1:
  65              		.size	uavcan_protocol_param_Empty_encode, .-uavcan_protocol_param_Empty_encode
  66              		.section	.text.uavcan_protocol_param_Empty_decode_internal,"ax",%progbits
  67              		.align	1
  68              		.p2align 4,,15
  69              		.global	uavcan_protocol_param_Empty_decode_internal
  70              		.syntax unified
  71              		.thumb
  72              		.thumb_func
  73              		.fpu fpv4-sp-d16
  74              		.type	uavcan_protocol_param_Empty_decode_internal, %function
  75              	uavcan_protocol_param_Empty_decode_internal:
  76              	.LFB2:
  77              		.loc 1 43 0
  78              		.cfi_startproc
  79              		@ args = 4, pretend = 0, frame = 0
  80              		@ frame_needed = 0, uses_anonymous_args = 0
  81              		@ link register save eliminated.
  82              	.LVL4:
  83              		.loc 1 45 0
  84 0000 0098     		ldr	r0, [sp]
  85              	.LVL5:
  86 0002 7047     		bx	lr
  87              		.cfi_endproc
  88              	.LFE2:
  89              		.size	uavcan_protocol_param_Empty_decode_internal, .-uavcan_protocol_param_Empty_decode_internal
  90              		.section	.text.uavcan_protocol_param_Empty_decode,"ax",%progbits
  91              		.align	1
  92              		.p2align 4,,15
  93              		.global	uavcan_protocol_param_Empty_decode
  94              		.syntax unified
  95              		.thumb
  96              		.thumb_func
  97              		.fpu fpv4-sp-d16
  98              		.type	uavcan_protocol_param_Empty_decode, %function
  99              	uavcan_protocol_param_Empty_decode:
 100              	.LFB3:
 101              		.loc 1 51 0
 102              		.cfi_startproc
 103              		@ args = 0, pretend = 0, frame = 0
 104              		@ frame_needed = 0, uses_anonymous_args = 0
 105              		@ link register save eliminated.
 106              	.LVL6:
 107              		.loc 1 53 0
 108 0000 0020     		movs	r0, #0
 109              	.LVL7:
 110 0002 7047     		bx	lr
 111              		.cfi_endproc
 112              	.LFE3:
 113              		.size	uavcan_protocol_param_Empty_decode, .-uavcan_protocol_param_Empty_decode
 114              		.text
ARM GAS  /tmp/ccNYAk6R.s 			page 3


 115              	.Letext0:
 116              		.file 2 "/usr/arm-none-eabi/include/machine/_default_types.h"
 117              		.file 3 "/usr/arm-none-eabi/include/sys/_stdint.h"
 118              		.file 4 "libcanard/canard.h"
 119              		.file 5 "libcanard/dsdl/uavcan/protocol/param/Empty.h"