ARM GAS  /tmp/ccBTgKAn.s 			page 1


   1              		.cpu cortex-m4
   2              		.eabi_attribute 27, 1
   3              		.eabi_attribute 28, 1
   4              		.eabi_attribute 20, 1
   5              		.eabi_attribute 21, 1
   6              		.eabi_attribute 23, 3
   7              		.eabi_attribute 24, 1
   8              		.eabi_attribute 25, 1
   9              		.eabi_attribute 26, 1
  10              		.eabi_attribute 30, 2
  11              		.eabi_attribute 34, 1
  12              		.eabi_attribute 18, 4
  13              		.file	"param_NumericValue.c"
  14              		.text
  15              	.Ltext0:
  16              		.cfi_sections	.debug_frame
  17              		.section	.text.uavcan_protocol_param_NumericValue_encode_internal,"ax",%progbits
  18              		.align	1
  19              		.p2align 4,,15
  20              		.global	uavcan_protocol_param_NumericValue_encode_internal
  21              		.syntax unified
  22              		.thumb
  23              		.thumb_func
  24              		.fpu fpv4-sp-d16
  25              		.type	uavcan_protocol_param_NumericValue_encode_internal, %function
  26              	uavcan_protocol_param_NumericValue_encode_internal:
  27              	.LFB0:
  28              		.file 1 "libcanard/dsdl/uavcan/protocol/param/param_NumericValue.c"
  29              		.loc 1 37 0
  30              		.cfi_startproc
  31              		@ args = 0, pretend = 0, frame = 0
  32              		@ frame_needed = 0, uses_anonymous_args = 0
  33              	.LVL0:
  34 0000 70B5     		push	{r4, r5, r6, lr}
  35              		.cfi_def_cfa_offset 16
  36              		.cfi_offset 4, -16
  37              		.cfi_offset 5, -12
  38              		.cfi_offset 6, -8
  39              		.cfi_offset 14, -4
  40              		.loc 1 37 0
  41 0002 0446     		mov	r4, r0
  42 0004 0E46     		mov	r6, r1
  43              		.loc 1 42 0
  44 0006 0346     		mov	r3, r0
  45              	.LVL1:
  46              		.loc 1 37 0
  47 0008 1546     		mov	r5, r2
  48              		.loc 1 42 0
  49 000a 1146     		mov	r1, r2
  50              	.LVL2:
  51 000c 3046     		mov	r0, r6
  52              	.LVL3:
  53 000e 0222     		movs	r2, #2
  54              	.LVL4:
  55 0010 FFF7FEFF 		bl	canardEncodeScalar
  56              	.LVL5:
  57              		.loc 1 45 0
ARM GAS  /tmp/ccBTgKAn.s 			page 2


  58 0014 2378     		ldrb	r3, [r4]	@ zero_extendqisi2
  59              		.loc 1 43 0
  60 0016 A81C     		adds	r0, r5, #2
  61              	.LVL6:
  62              		.loc 1 45 0
  63 0018 23B1     		cbz	r3, .L7
  64              		.loc 1 49 0
  65 001a 012B     		cmp	r3, #1
  66 001c 14D0     		beq	.L8
  67              		.loc 1 54 0
  68 001e 022B     		cmp	r3, #2
  69 0020 08D0     		beq	.L9
  70              		.loc 1 61 0
  71 0022 70BD     		pop	{r4, r5, r6, pc}
  72              	.LVL7:
  73              	.L7:
  74              		.loc 1 47 0
  75 0024 0246     		mov	r2, r0
  76 0026 3146     		mov	r1, r6
  77 0028 04F10800 		add	r0, r4, #8
  78              	.LVL8:
  79              		.loc 1 61 0
  80 002c BDE87040 		pop	{r4, r5, r6, lr}
  81              		.cfi_remember_state
  82              		.cfi_restore 14
  83              		.cfi_restore 6
  84              		.cfi_restore 5
  85              		.cfi_restore 4
  86              		.cfi_def_cfa_offset 0
  87              	.LVL9:
  88              		.loc 1 47 0
  89 0030 FFF7FEBF 		b	uavcan_protocol_param_Empty_encode_internal
  90              	.LVL10:
  91              	.L9:
  92              		.cfi_restore_state
  93              		.loc 1 55 0
  94 0034 0146     		mov	r1, r0
  95 0036 04F10803 		add	r3, r4, #8
  96 003a 3046     		mov	r0, r6
  97              	.LVL11:
  98 003c 2022     		movs	r2, #32
  99 003e FFF7FEFF 		bl	canardEncodeScalar
 100              	.LVL12:
 101              		.loc 1 56 0
 102 0042 05F12200 		add	r0, r5, #34
 103              	.LVL13:
 104              		.loc 1 61 0
 105 0046 70BD     		pop	{r4, r5, r6, pc}
 106              	.LVL14:
 107              	.L8:
 108              		.loc 1 50 0
 109 0048 0146     		mov	r1, r0
 110 004a 04F10803 		add	r3, r4, #8
 111 004e 3046     		mov	r0, r6
 112              	.LVL15:
 113 0050 4022     		movs	r2, #64
 114 0052 FFF7FEFF 		bl	canardEncodeScalar
ARM GAS  /tmp/ccBTgKAn.s 			page 3


 115              	.LVL16:
 116              		.loc 1 51 0
 117 0056 05F14200 		add	r0, r5, #66
 118              	.LVL17:
 119              		.loc 1 61 0
 120 005a 70BD     		pop	{r4, r5, r6, pc}
 121              		.cfi_endproc
 122              	.LFE0:
 123              		.size	uavcan_protocol_param_NumericValue_encode_internal, .-uavcan_protocol_param_NumericValue_enc
 124              		.section	.text.uavcan_protocol_param_NumericValue_encode,"ax",%progbits
 125              		.align	1
 126              		.p2align 4,,15
 127              		.global	uavcan_protocol_param_NumericValue_encode
 128              		.syntax unified
 129              		.thumb
 130              		.thumb_func
 131              		.fpu fpv4-sp-d16
 132              		.type	uavcan_protocol_param_NumericValue_encode, %function
 133              	uavcan_protocol_param_NumericValue_encode:
 134              	.LFB1:
 135              		.loc 1 70 0
 136              		.cfi_startproc
 137              		@ args = 0, pretend = 0, frame = 0
 138              		@ frame_needed = 0, uses_anonymous_args = 0
 139              	.LVL18:
 140 0000 08B5     		push	{r3, lr}
 141              		.cfi_def_cfa_offset 8
 142              		.cfi_offset 3, -8
 143              		.cfi_offset 14, -4
 144              		.loc 1 73 0
 145 0002 0022     		movs	r2, #0
 146 0004 0123     		movs	r3, #1
 147 0006 FFF7FEFF 		bl	uavcan_protocol_param_NumericValue_encode_internal
 148              	.LVL19:
 149              		.loc 1 75 0
 150 000a 0730     		adds	r0, r0, #7
 151              	.LVL20:
 152              		.loc 1 76 0
 153 000c C008     		lsrs	r0, r0, #3
 154              	.LVL21:
 155 000e 08BD     		pop	{r3, pc}
 156              		.cfi_endproc
 157              	.LFE1:
 158              		.size	uavcan_protocol_param_NumericValue_encode, .-uavcan_protocol_param_NumericValue_encode
 159              		.section	.text.uavcan_protocol_param_NumericValue_decode_internal,"ax",%progbits
 160              		.align	1
 161              		.p2align 4,,15
 162              		.global	uavcan_protocol_param_NumericValue_decode_internal
 163              		.syntax unified
 164              		.thumb
 165              		.thumb_func
 166              		.fpu fpv4-sp-d16
 167              		.type	uavcan_protocol_param_NumericValue_decode_internal, %function
 168              	uavcan_protocol_param_NumericValue_decode_internal:
 169              	.LFB2:
 170              		.loc 1 95 0
 171              		.cfi_startproc
ARM GAS  /tmp/ccBTgKAn.s 			page 4


 172              		@ args = 4, pretend = 0, frame = 0
 173              		@ frame_needed = 0, uses_anonymous_args = 0
 174              	.LVL22:
 175 0000 2DE9F041 		push	{r4, r5, r6, r7, r8, lr}
 176              		.cfi_def_cfa_offset 24
 177              		.cfi_offset 4, -24
 178              		.cfi_offset 5, -20
 179              		.cfi_offset 6, -16
 180              		.cfi_offset 7, -12
 181              		.cfi_offset 8, -8
 182              		.cfi_offset 14, -4
 183 0004 82B0     		sub	sp, sp, #8
 184              		.cfi_def_cfa_offset 32
 185              		.loc 1 95 0
 186 0006 1446     		mov	r4, r2
 187 0008 089D     		ldr	r5, [sp, #32]
 188              		.loc 1 99 0
 189 000a 0092     		str	r2, [sp]
 190              		.loc 1 95 0
 191 000c 0F46     		mov	r7, r1
 192 000e 9846     		mov	r8, r3
 193              		.loc 1 99 0
 194 0010 2946     		mov	r1, r5
 195              	.LVL23:
 196 0012 0023     		movs	r3, #0
 197              	.LVL24:
 198 0014 0222     		movs	r2, #2
 199              	.LVL25:
 200              		.loc 1 95 0
 201 0016 0646     		mov	r6, r0
 202              		.loc 1 99 0
 203 0018 FFF7FEFF 		bl	canardDecodeScalar
 204              	.LVL26:
 205              		.loc 1 100 0
 206 001c 0228     		cmp	r0, #2
 207 001e 06D0     		beq	.L18
 208              	.LVL27:
 209              	.L13:
 210              		.loc 1 137 0
 211 0020 0028     		cmp	r0, #0
 212              		.loc 1 143 0
 213 0022 A8BF     		it	ge
 214 0024 6FF00800 		mvnge	r0, #8
 215              	.LVL28:
 216              	.L12:
 217              		.loc 1 145 0
 218 0028 02B0     		add	sp, sp, #8
 219              		.cfi_remember_state
 220              		.cfi_def_cfa_offset 24
 221              		@ sp needed
 222 002a BDE8F081 		pop	{r4, r5, r6, r7, r8, pc}
 223              	.LVL29:
 224              	.L18:
 225              		.cfi_restore_state
 226              		.loc 1 106 0
 227 002e 2378     		ldrb	r3, [r4]	@ zero_extendqisi2
 228              		.loc 1 104 0
ARM GAS  /tmp/ccBTgKAn.s 			page 5


 229 0030 A81C     		adds	r0, r5, #2
 230              	.LVL30:
 231              		.loc 1 106 0
 232 0032 83B1     		cbz	r3, .L19
 233              		.loc 1 116 0
 234 0034 012B     		cmp	r3, #1
 235 0036 19D0     		beq	.L20
 236              		.loc 1 125 0
 237 0038 022B     		cmp	r3, #2
 238 003a F5D1     		bne	.L12
 239              		.loc 1 127 0
 240 003c 0834     		adds	r4, r4, #8
 241              	.LVL31:
 242 003e 0146     		mov	r1, r0
 243 0040 0094     		str	r4, [sp]
 244 0042 3046     		mov	r0, r6
 245              	.LVL32:
 246 0044 0023     		movs	r3, #0
 247 0046 2022     		movs	r2, #32
 248 0048 FFF7FEFF 		bl	canardDecodeScalar
 249              	.LVL33:
 250              		.loc 1 128 0
 251 004c 2028     		cmp	r0, #32
 252 004e E7D1     		bne	.L13
 253              		.loc 1 132 0
 254 0050 05F12200 		add	r0, r5, #34
 255              	.LVL34:
 256 0054 E8E7     		b	.L12
 257              	.LVL35:
 258              	.L19:
 259              		.loc 1 109 0
 260 0056 0890     		str	r0, [sp, #32]
 261 0058 4346     		mov	r3, r8
 262 005a 04F10802 		add	r2, r4, #8
 263 005e 3946     		mov	r1, r7
 264 0060 3046     		mov	r0, r6
 265              	.LVL36:
 266              		.loc 1 145 0
 267 0062 02B0     		add	sp, sp, #8
 268              		.cfi_remember_state
 269              		.cfi_def_cfa_offset 24
 270              		@ sp needed
 271 0064 BDE8F041 		pop	{r4, r5, r6, r7, r8, lr}
 272              		.cfi_restore 14
 273              		.cfi_restore 8
 274              		.cfi_restore 7
 275              		.cfi_restore 6
 276              		.cfi_restore 5
 277              		.cfi_restore 4
 278              		.cfi_def_cfa_offset 0
 279              	.LVL37:
 280              		.loc 1 109 0
 281 0068 FFF7FEBF 		b	uavcan_protocol_param_Empty_decode_internal
 282              	.LVL38:
 283              	.L20:
 284              		.cfi_restore_state
 285              		.loc 1 118 0
ARM GAS  /tmp/ccBTgKAn.s 			page 6


 286 006c 0834     		adds	r4, r4, #8
 287              	.LVL39:
 288 006e 0146     		mov	r1, r0
 289 0070 0094     		str	r4, [sp]
 290 0072 3046     		mov	r0, r6
 291              	.LVL40:
 292 0074 4022     		movs	r2, #64
 293 0076 FFF7FEFF 		bl	canardDecodeScalar
 294              	.LVL41:
 295              		.loc 1 119 0
 296 007a 4028     		cmp	r0, #64
 297 007c D0D1     		bne	.L13
 298              		.loc 1 123 0
 299 007e 05F14200 		add	r0, r5, #66
 300              	.LVL42:
 301 0082 D1E7     		b	.L12
 302              		.cfi_endproc
 303              	.LFE2:
 304              		.size	uavcan_protocol_param_NumericValue_decode_internal, .-uavcan_protocol_param_NumericValue_dec
 305              		.section	.text.uavcan_protocol_param_NumericValue_decode,"ax",%progbits
 306              		.align	1
 307              		.p2align 4,,15
 308              		.global	uavcan_protocol_param_NumericValue_decode
 309              		.syntax unified
 310              		.thumb
 311              		.thumb_func
 312              		.fpu fpv4-sp-d16
 313              		.type	uavcan_protocol_param_NumericValue_decode, %function
 314              	uavcan_protocol_param_NumericValue_decode:
 315              	.LFB3:
 316              		.loc 1 161 0
 317              		.cfi_startproc
 318              		@ args = 0, pretend = 0, frame = 0
 319              		@ frame_needed = 0, uses_anonymous_args = 0
 320              	.LVL43:
 321 0000 70B5     		push	{r4, r5, r6, lr}
 322              		.cfi_def_cfa_offset 16
 323              		.cfi_offset 4, -16
 324              		.cfi_offset 5, -12
 325              		.cfi_offset 6, -8
 326              		.cfi_offset 14, -4
 327 0002 541E     		subs	r4, r2, #1
 328 0004 82B0     		sub	sp, sp, #8
 329              		.cfi_def_cfa_offset 24
 330 0006 02F10F06 		add	r6, r2, #15
 331              	.LBB2:
 332              		.loc 1 168 0
 333 000a 0025     		movs	r5, #0
 334              	.LVL44:
 335              	.L22:
 336              		.loc 1 168 0 is_stmt 0 discriminator 3
 337 000c 04F8015F 		strb	r5, [r4, #1]!
 338              		.loc 1 166 0 is_stmt 1 discriminator 3
 339 0010 B442     		cmp	r4, r6
 340 0012 FBD1     		bne	.L22
 341              	.LBE2:
 342              		.loc 1 171 0
ARM GAS  /tmp/ccBTgKAn.s 			page 7


 343 0014 0095     		str	r5, [sp]
 344 0016 FFF7FEFF 		bl	uavcan_protocol_param_NumericValue_decode_internal
 345              	.LVL45:
 346              		.loc 1 174 0
 347 001a 02B0     		add	sp, sp, #8
 348              		.cfi_def_cfa_offset 16
 349              		@ sp needed
 350 001c 70BD     		pop	{r4, r5, r6, pc}
 351              		.cfi_endproc
 352              	.LFE3:
 353              		.size	uavcan_protocol_param_NumericValue_decode, .-uavcan_protocol_param_NumericValue_decode
 354 001e 00BF     		.text
 355              	.Letext0:
 356              		.file 2 "/usr/arm-none-eabi/include/machine/_default_types.h"
 357              		.file 3 "/usr/arm-none-eabi/include/sys/_stdint.h"
 358              		.file 4 "libcanard/canard.h"
 359              		.file 5 "libcanard/dsdl/uavcan/protocol/param/Empty.h"
 360              		.file 6 "libcanard/dsdl/uavcan/protocol/param/NumericValue.h"
 361              		.section	.debug_info,"",%progbits
 362              	.Ldebug_info0:
 363 0000 ED050000 		.4byte	0x5ed
 364 0004 0400     		.2byte	0x4
 365 0006 00000000 		.4byte	.Ldebug_abbrev0
 366 000a 04       		.byte	0x4
 367 000b 01       		.uleb128 0x1
 368 000c AF040000 		.4byte	.LASF63
 369 0010 0C       		.byte	0xc
 370 0011 A7020000 		.4byte	.LASF64
 371 0015 E1020000 		.4byte	.LASF65
 372 0019 00000000 		.4byte	.Ldebug_ranges0+0
 373 001d 00000000 		.4byte	0
 374 0021 00000000 		.4byte	.Ldebug_line0
 375 0025 02       		.uleb128 0x2
 376 0026 01       		.byte	0x1
 377 0027 06       		.byte	0x6
 378 0028 E7020000 		.4byte	.LASF0
 379 002c 03       		.uleb128 0x3
 380 002d E1010000 		.4byte	.LASF3
 381 0031 02       		.byte	0x2
 382 0032 2B       		.byte	0x2b
 383 0033 37000000 		.4byte	0x37
 384 0037 02       		.uleb128 0x2
 385 0038 01       		.byte	0x1
 386 0039 08       		.byte	0x8
 387 003a 57020000 		.4byte	.LASF1
 388 003e 02       		.uleb128 0x2
 389 003f 02       		.byte	0x2
 390 0040 05       		.byte	0x5
 391 0041 ED000000 		.4byte	.LASF2
 392 0045 03       		.uleb128 0x3
 393 0046 02010000 		.4byte	.LASF4
 394 004a 02       		.byte	0x2
 395 004b 39       		.byte	0x39
 396 004c 50000000 		.4byte	0x50
 397 0050 02       		.uleb128 0x2
 398 0051 02       		.byte	0x2
 399 0052 07       		.byte	0x7
ARM GAS  /tmp/ccBTgKAn.s 			page 8


 400 0053 4A030000 		.4byte	.LASF5
 401 0057 03       		.uleb128 0x3
 402 0058 12040000 		.4byte	.LASF6
 403 005c 02       		.byte	0x2
 404 005d 4D       		.byte	0x4d
 405 005e 62000000 		.4byte	0x62
 406 0062 02       		.uleb128 0x2
 407 0063 04       		.byte	0x4
 408 0064 05       		.byte	0x5
 409 0065 C7010000 		.4byte	.LASF7
 410 0069 03       		.uleb128 0x3
 411 006a F7000000 		.4byte	.LASF8
 412 006e 02       		.byte	0x2
 413 006f 4F       		.byte	0x4f
 414 0070 74000000 		.4byte	0x74
 415 0074 02       		.uleb128 0x2
 416 0075 04       		.byte	0x4
 417 0076 07       		.byte	0x7
 418 0077 F6030000 		.4byte	.LASF9
 419 007b 03       		.uleb128 0x3
 420 007c D0010000 		.4byte	.LASF10
 421 0080 02       		.byte	0x2
 422 0081 67       		.byte	0x67
 423 0082 86000000 		.4byte	0x86
 424 0086 02       		.uleb128 0x2
 425 0087 08       		.byte	0x8
 426 0088 05       		.byte	0x5
 427 0089 AD010000 		.4byte	.LASF11
 428 008d 03       		.uleb128 0x3
 429 008e 9E030000 		.4byte	.LASF12
 430 0092 02       		.byte	0x2
 431 0093 69       		.byte	0x69
 432 0094 98000000 		.4byte	0x98
 433 0098 02       		.uleb128 0x2
 434 0099 08       		.byte	0x8
 435 009a 07       		.byte	0x7
 436 009b F3020000 		.4byte	.LASF13
 437 009f 04       		.uleb128 0x4
 438 00a0 04       		.byte	0x4
 439 00a1 05       		.byte	0x5
 440 00a2 696E7400 		.ascii	"int\000"
 441 00a6 02       		.uleb128 0x2
 442 00a7 04       		.byte	0x4
 443 00a8 07       		.byte	0x7
 444 00a9 13030000 		.4byte	.LASF14
 445 00ad 03       		.uleb128 0x3
 446 00ae 71010000 		.4byte	.LASF15
 447 00b2 03       		.byte	0x3
 448 00b3 18       		.byte	0x18
 449 00b4 2C000000 		.4byte	0x2c
 450 00b8 05       		.uleb128 0x5
 451 00b9 AD000000 		.4byte	0xad
 452 00bd 03       		.uleb128 0x3
 453 00be 20030000 		.4byte	.LASF16
 454 00c2 03       		.byte	0x3
 455 00c3 24       		.byte	0x24
 456 00c4 45000000 		.4byte	0x45
ARM GAS  /tmp/ccBTgKAn.s 			page 9


 457 00c8 03       		.uleb128 0x3
 458 00c9 7B030000 		.4byte	.LASF17
 459 00cd 03       		.byte	0x3
 460 00ce 2C       		.byte	0x2c
 461 00cf 57000000 		.4byte	0x57
 462 00d3 05       		.uleb128 0x5
 463 00d4 C8000000 		.4byte	0xc8
 464 00d8 03       		.uleb128 0x3
 465 00d9 0A030000 		.4byte	.LASF18
 466 00dd 03       		.byte	0x3
 467 00de 30       		.byte	0x30
 468 00df 69000000 		.4byte	0x69
 469 00e3 03       		.uleb128 0x3
 470 00e4 3F010000 		.4byte	.LASF19
 471 00e8 03       		.byte	0x3
 472 00e9 38       		.byte	0x38
 473 00ea 7B000000 		.4byte	0x7b
 474 00ee 03       		.uleb128 0x3
 475 00ef D9000000 		.4byte	.LASF20
 476 00f3 03       		.byte	0x3
 477 00f4 3C       		.byte	0x3c
 478 00f5 8D000000 		.4byte	0x8d
 479 00f9 03       		.uleb128 0x3
 480 00fa E5030000 		.4byte	.LASF21
 481 00fe 04       		.byte	0x4
 482 00ff 99       		.byte	0x99
 483 0100 09010000 		.4byte	0x109
 484 0104 05       		.uleb128 0x5
 485 0105 F9000000 		.4byte	0xf9
 486 0109 06       		.uleb128 0x6
 487 010a E5030000 		.4byte	.LASF21
 488 010e 20       		.byte	0x20
 489 010f 04       		.byte	0x4
 490 0110 0F01     		.2byte	0x10f
 491 0112 99010000 		.4byte	0x199
 492 0116 07       		.uleb128 0x7
 493 0117 09020000 		.4byte	.LASF22
 494 011b 04       		.byte	0x4
 495 011c 1401     		.2byte	0x114
 496 011e EE000000 		.4byte	0xee
 497 0122 00       		.byte	0
 498 0123 07       		.uleb128 0x7
 499 0124 91030000 		.4byte	.LASF23
 500 0128 04       		.byte	0x4
 501 0129 2801     		.2byte	0x128
 502 012b F4010000 		.4byte	0x1f4
 503 012f 08       		.byte	0x8
 504 0130 07       		.uleb128 0x7
 505 0131 98020000 		.4byte	.LASF24
 506 0135 04       		.byte	0x4
 507 0136 2D01     		.2byte	0x12d
 508 0138 EC010000 		.4byte	0x1ec
 509 013c 0C       		.byte	0xc
 510 013d 07       		.uleb128 0x7
 511 013e FC010000 		.4byte	.LASF25
 512 0142 04       		.byte	0x4
 513 0143 2F01     		.2byte	0x12f
ARM GAS  /tmp/ccBTgKAn.s 			page 10


 514 0145 F4010000 		.4byte	0x1f4
 515 0149 10       		.byte	0x10
 516 014a 07       		.uleb128 0x7
 517 014b 77040000 		.4byte	.LASF26
 518 014f 04       		.byte	0x4
 519 0150 3101     		.2byte	0x131
 520 0152 BD000000 		.4byte	0xbd
 521 0156 14       		.byte	0x14
 522 0157 07       		.uleb128 0x7
 523 0158 62000000 		.4byte	.LASF27
 524 015c 04       		.byte	0x4
 525 015d 3601     		.2byte	0x136
 526 015f BD000000 		.4byte	0xbd
 527 0163 16       		.byte	0x16
 528 0164 07       		.uleb128 0x7
 529 0165 83030000 		.4byte	.LASF28
 530 0169 04       		.byte	0x4
 531 016a 3701     		.2byte	0x137
 532 016c AD000000 		.4byte	0xad
 533 0170 18       		.byte	0x18
 534 0171 07       		.uleb128 0x7
 535 0172 83040000 		.4byte	.LASF29
 536 0176 04       		.byte	0x4
 537 0177 3801     		.2byte	0x138
 538 0179 AD000000 		.4byte	0xad
 539 017d 19       		.byte	0x19
 540 017e 07       		.uleb128 0x7
 541 017f 74000000 		.4byte	.LASF30
 542 0183 04       		.byte	0x4
 543 0184 3901     		.2byte	0x139
 544 0186 AD000000 		.4byte	0xad
 545 018a 1A       		.byte	0x1a
 546 018b 07       		.uleb128 0x7
 547 018c 3B030000 		.4byte	.LASF31
 548 0190 04       		.byte	0x4
 549 0191 3A01     		.2byte	0x13a
 550 0193 AD000000 		.4byte	0xad
 551 0197 1B       		.byte	0x1b
 552 0198 00       		.byte	0
 553 0199 02       		.uleb128 0x2
 554 019a 01       		.byte	0x1
 555 019b 02       		.byte	0x2
 556 019c 75030000 		.4byte	.LASF32
 557 01a0 02       		.uleb128 0x2
 558 01a1 01       		.byte	0x1
 559 01a2 08       		.byte	0x8
 560 01a3 70030000 		.4byte	.LASF33
 561 01a7 08       		.uleb128 0x8
 562 01a8 29030000 		.4byte	.LASF34
 563 01ac 04       		.byte	0x4
 564 01ad 04       		.byte	0x4
 565 01ae D7       		.byte	0xd7
 566 01af CC010000 		.4byte	0x1cc
 567 01b3 09       		.uleb128 0x9
 568 01b4 AA040000 		.4byte	.LASF35
 569 01b8 04       		.byte	0x4
 570 01b9 D9       		.byte	0xd9
ARM GAS  /tmp/ccBTgKAn.s 			page 11


 571 01ba CC010000 		.4byte	0x1cc
 572 01be 00       		.byte	0
 573 01bf 09       		.uleb128 0x9
 574 01c0 A9030000 		.4byte	.LASF36
 575 01c4 04       		.byte	0x4
 576 01c5 DA       		.byte	0xda
 577 01c6 D2010000 		.4byte	0x1d2
 578 01ca 04       		.byte	0x4
 579 01cb 00       		.byte	0
 580 01cc 0A       		.uleb128 0xa
 581 01cd 04       		.byte	0x4
 582 01ce A7010000 		.4byte	0x1a7
 583 01d2 0B       		.uleb128 0xb
 584 01d3 AD000000 		.4byte	0xad
 585 01d7 E1010000 		.4byte	0x1e1
 586 01db 0C       		.uleb128 0xc
 587 01dc A6000000 		.4byte	0xa6
 588 01e0 00       		.byte	0
 589 01e1 03       		.uleb128 0x3
 590 01e2 29030000 		.4byte	.LASF34
 591 01e6 04       		.byte	0x4
 592 01e7 DB       		.byte	0xdb
 593 01e8 A7010000 		.4byte	0x1a7
 594 01ec 0A       		.uleb128 0xa
 595 01ed 04       		.byte	0x4
 596 01ee E1010000 		.4byte	0x1e1
 597 01f2 0D       		.uleb128 0xd
 598 01f3 04       		.byte	0x4
 599 01f4 0A       		.uleb128 0xa
 600 01f5 04       		.byte	0x4
 601 01f6 B8000000 		.4byte	0xb8
 602 01fa 0E       		.uleb128 0xe
 603 01fb 01       		.byte	0x1
 604 01fc 05       		.byte	0x5
 605 01fd 23       		.byte	0x23
 606 01fe 0F020000 		.4byte	0x20f
 607 0202 09       		.uleb128 0x9
 608 0203 39010000 		.4byte	.LASF37
 609 0207 05       		.byte	0x5
 610 0208 25       		.byte	0x25
 611 0209 AD000000 		.4byte	0xad
 612 020d 00       		.byte	0
 613 020e 00       		.byte	0
 614 020f 03       		.uleb128 0x3
 615 0210 18020000 		.4byte	.LASF38
 616 0214 05       		.byte	0x5
 617 0215 26       		.byte	0x26
 618 0216 FA010000 		.4byte	0x1fa
 619 021a 0F       		.uleb128 0xf
 620 021b 07       		.byte	0x7
 621 021c 01       		.byte	0x1
 622 021d 37000000 		.4byte	0x37
 623 0221 06       		.byte	0x6
 624 0222 36       		.byte	0x36
 625 0223 3A020000 		.4byte	0x23a
 626 0227 10       		.uleb128 0x10
 627 0228 7D000000 		.4byte	.LASF39
ARM GAS  /tmp/ccBTgKAn.s 			page 12


 628 022c 00       		.byte	0
 629 022d 10       		.uleb128 0x10
 630 022e 1C040000 		.4byte	.LASF40
 631 0232 01       		.byte	0x1
 632 0233 10       		.uleb128 0x10
 633 0234 B7030000 		.4byte	.LASF41
 634 0238 02       		.byte	0x2
 635 0239 00       		.byte	0
 636 023a 03       		.uleb128 0x3
 637 023b 2C000000 		.4byte	.LASF42
 638 023f 06       		.byte	0x6
 639 0240 3A       		.byte	0x3a
 640 0241 1A020000 		.4byte	0x21a
 641 0245 11       		.uleb128 0x11
 642 0246 08       		.byte	0x8
 643 0247 06       		.byte	0x6
 644 0248 40       		.byte	0x40
 645 0249 6F020000 		.4byte	0x26f
 646 024d 12       		.uleb128 0x12
 647 024e 39010000 		.4byte	.LASF37
 648 0252 06       		.byte	0x6
 649 0253 43       		.byte	0x43
 650 0254 0F020000 		.4byte	0x20f
 651 0258 12       		.uleb128 0x12
 652 0259 54000000 		.4byte	.LASF43
 653 025d 06       		.byte	0x6
 654 025e 44       		.byte	0x44
 655 025f E3000000 		.4byte	0xe3
 656 0263 12       		.uleb128 0x12
 657 0264 E2000000 		.4byte	.LASF44
 658 0268 06       		.byte	0x6
 659 0269 45       		.byte	0x45
 660 026a 6F020000 		.4byte	0x26f
 661 026e 00       		.byte	0
 662 026f 02       		.uleb128 0x2
 663 0270 04       		.byte	0x4
 664 0271 04       		.byte	0x4
 665 0272 A7010000 		.4byte	.LASF45
 666 0276 0E       		.uleb128 0xe
 667 0277 10       		.byte	0x10
 668 0278 06       		.byte	0x6
 669 0279 3C       		.byte	0x3c
 670 027a 91020000 		.4byte	0x291
 671 027e 09       		.uleb128 0x9
 672 027f EB010000 		.4byte	.LASF46
 673 0283 06       		.byte	0x6
 674 0284 3E       		.byte	0x3e
 675 0285 3A020000 		.4byte	0x23a
 676 0289 00       		.byte	0
 677 028a 13       		.uleb128 0x13
 678 028b 45020000 		.4byte	0x245
 679 028f 08       		.byte	0x8
 680 0290 00       		.byte	0
 681 0291 03       		.uleb128 0x3
 682 0292 34020000 		.4byte	.LASF47
 683 0296 06       		.byte	0x6
 684 0297 48       		.byte	0x48
ARM GAS  /tmp/ccBTgKAn.s 			page 13


 685 0298 76020000 		.4byte	0x276
 686 029c 14       		.uleb128 0x14
 687 029d 47010000 		.4byte	.LASF52
 688 02a1 01       		.byte	0x1
 689 02a2 9D       		.byte	0x9d
 690 02a3 C8000000 		.4byte	0xc8
 691 02a7 00000000 		.4byte	.LFB3
 692 02ab 1E000000 		.4byte	.LFE3-.LFB3
 693 02af 01       		.uleb128 0x1
 694 02b0 9C       		.byte	0x9c
 695 02b1 39030000 		.4byte	0x339
 696 02b5 15       		.uleb128 0x15
 697 02b6 AE030000 		.4byte	.LASF48
 698 02ba 01       		.byte	0x1
 699 02bb 9D       		.byte	0x9d
 700 02bc 39030000 		.4byte	0x339
 701 02c0 00000000 		.4byte	.LLST13
 702 02c4 15       		.uleb128 0x15
 703 02c5 77040000 		.4byte	.LASF26
 704 02c9 01       		.byte	0x1
 705 02ca 9E       		.byte	0x9e
 706 02cb BD000000 		.4byte	0xbd
 707 02cf 21000000 		.4byte	.LLST14
 708 02d3 15       		.uleb128 0x15
 709 02d4 6F000000 		.4byte	.LASF49
 710 02d8 01       		.byte	0x1
 711 02d9 9F       		.byte	0x9f
 712 02da 3F030000 		.4byte	0x33f
 713 02de 42000000 		.4byte	.LLST15
 714 02e2 15       		.uleb128 0x15
 715 02e3 BB010000 		.4byte	.LASF50
 716 02e7 01       		.byte	0x1
 717 02e8 A0       		.byte	0xa0
 718 02e9 45030000 		.4byte	0x345
 719 02ed 62000000 		.4byte	.LLST16
 720 02f1 16       		.uleb128 0x16
 721 02f2 DA010000 		.4byte	.LASF51
 722 02f6 01       		.byte	0x1
 723 02f7 A2       		.byte	0xa2
 724 02f8 D3000000 		.4byte	0xd3
 725 02fc 00       		.byte	0
 726 02fd 17       		.uleb128 0x17
 727 02fe 72657400 		.ascii	"ret\000"
 728 0302 01       		.byte	0x1
 729 0303 A3       		.byte	0xa3
 730 0304 C8000000 		.4byte	0xc8
 731 0308 83000000 		.4byte	.LLST17
 732 030c 18       		.uleb128 0x18
 733 030d 0A000000 		.4byte	.LBB2
 734 0311 0A000000 		.4byte	.LBE2-.LBB2
 735 0315 27030000 		.4byte	0x327
 736 0319 17       		.uleb128 0x17
 737 031a 6300     		.ascii	"c\000"
 738 031c 01       		.byte	0x1
 739 031d A6       		.byte	0xa6
 740 031e D8000000 		.4byte	0xd8
 741 0322 A2000000 		.4byte	.LLST18
ARM GAS  /tmp/ccBTgKAn.s 			page 14


 742 0326 00       		.byte	0
 743 0327 19       		.uleb128 0x19
 744 0328 1A000000 		.4byte	.LVL45
 745 032c 51030000 		.4byte	0x351
 746 0330 1A       		.uleb128 0x1a
 747 0331 02       		.uleb128 0x2
 748 0332 7D       		.byte	0x7d
 749 0333 00       		.sleb128 0
 750 0334 02       		.uleb128 0x2
 751 0335 75       		.byte	0x75
 752 0336 00       		.sleb128 0
 753 0337 00       		.byte	0
 754 0338 00       		.byte	0
 755 0339 0A       		.uleb128 0xa
 756 033a 04       		.byte	0x4
 757 033b 04010000 		.4byte	0x104
 758 033f 0A       		.uleb128 0xa
 759 0340 04       		.byte	0x4
 760 0341 91020000 		.4byte	0x291
 761 0345 0A       		.uleb128 0xa
 762 0346 04       		.byte	0x4
 763 0347 4B030000 		.4byte	0x34b
 764 034b 0A       		.uleb128 0xa
 765 034c 04       		.byte	0x4
 766 034d AD000000 		.4byte	0xad
 767 0351 14       		.uleb128 0x14
 768 0352 A6000000 		.4byte	.LASF53
 769 0356 01       		.byte	0x1
 770 0357 59       		.byte	0x59
 771 0358 C8000000 		.4byte	0xc8
 772 035c 00000000 		.4byte	.LFB2
 773 0360 84000000 		.4byte	.LFE2-.LFB2
 774 0364 01       		.uleb128 0x1
 775 0365 9C       		.byte	0x9c
 776 0366 6F040000 		.4byte	0x46f
 777 036a 15       		.uleb128 0x15
 778 036b AE030000 		.4byte	.LASF48
 779 036f 01       		.byte	0x1
 780 0370 5A       		.byte	0x5a
 781 0371 39030000 		.4byte	0x339
 782 0375 B6000000 		.4byte	.LLST7
 783 0379 15       		.uleb128 0x15
 784 037a 77040000 		.4byte	.LASF26
 785 037e 01       		.byte	0x1
 786 037f 5B       		.byte	0x5b
 787 0380 BD000000 		.4byte	0xbd
 788 0384 F8000000 		.4byte	.LLST8
 789 0388 15       		.uleb128 0x15
 790 0389 6F000000 		.4byte	.LASF49
 791 038d 01       		.byte	0x1
 792 038e 5C       		.byte	0x5c
 793 038f 3F030000 		.4byte	0x33f
 794 0393 19010000 		.4byte	.LLST9
 795 0397 15       		.uleb128 0x15
 796 0398 BB010000 		.4byte	.LASF50
 797 039c 01       		.byte	0x1
 798 039d 5D       		.byte	0x5d
ARM GAS  /tmp/ccBTgKAn.s 			page 15


 799 039e 45030000 		.4byte	0x345
 800 03a2 9B010000 		.4byte	.LLST10
 801 03a6 15       		.uleb128 0x15
 802 03a7 DA010000 		.4byte	.LASF51
 803 03ab 01       		.byte	0x1
 804 03ac 5E       		.byte	0x5e
 805 03ad C8000000 		.4byte	0xc8
 806 03b1 DD010000 		.4byte	.LLST11
 807 03b5 17       		.uleb128 0x17
 808 03b6 72657400 		.ascii	"ret\000"
 809 03ba 01       		.byte	0x1
 810 03bb 60       		.byte	0x60
 811 03bc C8000000 		.4byte	0xc8
 812 03c0 71020000 		.4byte	.LLST12
 813 03c4 1B       		.uleb128 0x1b
 814 03c5 79010000 		.4byte	.LASF66
 815 03c9 01       		.byte	0x1
 816 03ca 88       		.byte	0x88
 817 03cb 20000000 		.4byte	.L13
 818 03cf 1C       		.uleb128 0x1c
 819 03d0 1C000000 		.4byte	.LVL26
 820 03d4 C2050000 		.4byte	0x5c2
 821 03d8 FA030000 		.4byte	0x3fa
 822 03dc 1A       		.uleb128 0x1a
 823 03dd 01       		.uleb128 0x1
 824 03de 50       		.byte	0x50
 825 03df 02       		.uleb128 0x2
 826 03e0 76       		.byte	0x76
 827 03e1 00       		.sleb128 0
 828 03e2 1A       		.uleb128 0x1a
 829 03e3 01       		.uleb128 0x1
 830 03e4 51       		.byte	0x51
 831 03e5 02       		.uleb128 0x2
 832 03e6 75       		.byte	0x75
 833 03e7 00       		.sleb128 0
 834 03e8 1A       		.uleb128 0x1a
 835 03e9 01       		.uleb128 0x1
 836 03ea 52       		.byte	0x52
 837 03eb 01       		.uleb128 0x1
 838 03ec 32       		.byte	0x32
 839 03ed 1A       		.uleb128 0x1a
 840 03ee 01       		.uleb128 0x1
 841 03ef 53       		.byte	0x53
 842 03f0 01       		.uleb128 0x1
 843 03f1 30       		.byte	0x30
 844 03f2 1A       		.uleb128 0x1a
 845 03f3 02       		.uleb128 0x2
 846 03f4 7D       		.byte	0x7d
 847 03f5 00       		.sleb128 0
 848 03f6 02       		.uleb128 0x2
 849 03f7 74       		.byte	0x74
 850 03f8 00       		.sleb128 0
 851 03f9 00       		.byte	0
 852 03fa 1C       		.uleb128 0x1c
 853 03fb 4C000000 		.4byte	.LVL33
 854 03ff C2050000 		.4byte	0x5c2
 855 0403 26040000 		.4byte	0x426
ARM GAS  /tmp/ccBTgKAn.s 			page 16


 856 0407 1A       		.uleb128 0x1a
 857 0408 01       		.uleb128 0x1
 858 0409 50       		.byte	0x50
 859 040a 02       		.uleb128 0x2
 860 040b 76       		.byte	0x76
 861 040c 00       		.sleb128 0
 862 040d 1A       		.uleb128 0x1a
 863 040e 01       		.uleb128 0x1
 864 040f 51       		.byte	0x51
 865 0410 02       		.uleb128 0x2
 866 0411 75       		.byte	0x75
 867 0412 02       		.sleb128 2
 868 0413 1A       		.uleb128 0x1a
 869 0414 01       		.uleb128 0x1
 870 0415 52       		.byte	0x52
 871 0416 02       		.uleb128 0x2
 872 0417 08       		.byte	0x8
 873 0418 20       		.byte	0x20
 874 0419 1A       		.uleb128 0x1a
 875 041a 01       		.uleb128 0x1
 876 041b 53       		.byte	0x53
 877 041c 01       		.uleb128 0x1
 878 041d 30       		.byte	0x30
 879 041e 1A       		.uleb128 0x1a
 880 041f 02       		.uleb128 0x2
 881 0420 7D       		.byte	0x7d
 882 0421 00       		.sleb128 0
 883 0422 02       		.uleb128 0x2
 884 0423 74       		.byte	0x74
 885 0424 00       		.sleb128 0
 886 0425 00       		.byte	0
 887 0426 1D       		.uleb128 0x1d
 888 0427 6C000000 		.4byte	.LVL38
 889 042b CE050000 		.4byte	0x5ce
 890 042f 4B040000 		.4byte	0x44b
 891 0433 1A       		.uleb128 0x1a
 892 0434 01       		.uleb128 0x1
 893 0435 50       		.byte	0x50
 894 0436 03       		.uleb128 0x3
 895 0437 F3       		.byte	0xf3
 896 0438 01       		.uleb128 0x1
 897 0439 50       		.byte	0x50
 898 043a 1A       		.uleb128 0x1a
 899 043b 01       		.uleb128 0x1
 900 043c 52       		.byte	0x52
 901 043d 05       		.uleb128 0x5
 902 043e F3       		.byte	0xf3
 903 043f 01       		.uleb128 0x1
 904 0440 52       		.byte	0x52
 905 0441 23       		.byte	0x23
 906 0442 08       		.uleb128 0x8
 907 0443 1A       		.uleb128 0x1a
 908 0444 01       		.uleb128 0x1
 909 0445 53       		.byte	0x53
 910 0446 03       		.uleb128 0x3
 911 0447 F3       		.byte	0xf3
 912 0448 01       		.uleb128 0x1
ARM GAS  /tmp/ccBTgKAn.s 			page 17


 913 0449 53       		.byte	0x53
 914 044a 00       		.byte	0
 915 044b 19       		.uleb128 0x19
 916 044c 7A000000 		.4byte	.LVL41
 917 0450 C2050000 		.4byte	0x5c2
 918 0454 1A       		.uleb128 0x1a
 919 0455 01       		.uleb128 0x1
 920 0456 50       		.byte	0x50
 921 0457 02       		.uleb128 0x2
 922 0458 76       		.byte	0x76
 923 0459 00       		.sleb128 0
 924 045a 1A       		.uleb128 0x1a
 925 045b 01       		.uleb128 0x1
 926 045c 51       		.byte	0x51
 927 045d 02       		.uleb128 0x2
 928 045e 75       		.byte	0x75
 929 045f 02       		.sleb128 2
 930 0460 1A       		.uleb128 0x1a
 931 0461 01       		.uleb128 0x1
 932 0462 52       		.byte	0x52
 933 0463 02       		.uleb128 0x2
 934 0464 08       		.byte	0x8
 935 0465 40       		.byte	0x40
 936 0466 1A       		.uleb128 0x1a
 937 0467 02       		.uleb128 0x2
 938 0468 7D       		.byte	0x7d
 939 0469 00       		.sleb128 0
 940 046a 02       		.uleb128 0x2
 941 046b 74       		.byte	0x74
 942 046c 00       		.sleb128 0
 943 046d 00       		.byte	0
 944 046e 00       		.byte	0
 945 046f 14       		.uleb128 0x14
 946 0470 4D040000 		.4byte	.LASF54
 947 0474 01       		.byte	0x1
 948 0475 45       		.byte	0x45
 949 0476 D8000000 		.4byte	0xd8
 950 047a 00000000 		.4byte	.LFB1
 951 047e 10000000 		.4byte	.LFE1-.LFB1
 952 0482 01       		.uleb128 0x1
 953 0483 9C       		.byte	0x9c
 954 0484 D8040000 		.4byte	0x4d8
 955 0488 15       		.uleb128 0x15
 956 0489 F5010000 		.4byte	.LASF55
 957 048d 01       		.byte	0x1
 958 048e 45       		.byte	0x45
 959 048f 3F030000 		.4byte	0x33f
 960 0493 B1020000 		.4byte	.LLST4
 961 0497 15       		.uleb128 0x15
 962 0498 A2040000 		.4byte	.LASF56
 963 049c 01       		.byte	0x1
 964 049d 45       		.byte	0x45
 965 049e F2010000 		.4byte	0x1f2
 966 04a2 D2020000 		.4byte	.LLST5
 967 04a6 1E       		.uleb128 0x1e
 968 04a7 DA010000 		.4byte	.LASF51
 969 04ab 01       		.byte	0x1
ARM GAS  /tmp/ccBTgKAn.s 			page 18


 970 04ac 47       		.byte	0x47
 971 04ad D8000000 		.4byte	0xd8
 972 04b1 F3020000 		.4byte	.LLST6
 973 04b5 19       		.uleb128 0x19
 974 04b6 0A000000 		.4byte	.LVL19
 975 04ba D8040000 		.4byte	0x4d8
 976 04be 1A       		.uleb128 0x1a
 977 04bf 01       		.uleb128 0x1
 978 04c0 50       		.byte	0x50
 979 04c1 03       		.uleb128 0x3
 980 04c2 F3       		.byte	0xf3
 981 04c3 01       		.uleb128 0x1
 982 04c4 50       		.byte	0x50
 983 04c5 1A       		.uleb128 0x1a
 984 04c6 01       		.uleb128 0x1
 985 04c7 51       		.byte	0x51
 986 04c8 03       		.uleb128 0x3
 987 04c9 F3       		.byte	0xf3
 988 04ca 01       		.uleb128 0x1
 989 04cb 51       		.byte	0x51
 990 04cc 1A       		.uleb128 0x1a
 991 04cd 01       		.uleb128 0x1
 992 04ce 52       		.byte	0x52
 993 04cf 01       		.uleb128 0x1
 994 04d0 30       		.byte	0x30
 995 04d1 1A       		.uleb128 0x1a
 996 04d2 01       		.uleb128 0x1
 997 04d3 53       		.byte	0x53
 998 04d4 01       		.uleb128 0x1
 999 04d5 31       		.byte	0x31
 1000 04d6 00       		.byte	0
 1001 04d7 00       		.byte	0
 1002 04d8 14       		.uleb128 0x14
 1003 04d9 65020000 		.4byte	.LASF57
 1004 04dd 01       		.byte	0x1
 1005 04de 21       		.byte	0x21
 1006 04df D8000000 		.4byte	0xd8
 1007 04e3 00000000 		.4byte	.LFB0
 1008 04e7 5C000000 		.4byte	.LFE0-.LFB0
 1009 04eb 01       		.uleb128 0x1
 1010 04ec 9C       		.byte	0x9c
 1011 04ed C2050000 		.4byte	0x5c2
 1012 04f1 15       		.uleb128 0x15
 1013 04f2 F5010000 		.4byte	.LASF55
 1014 04f6 01       		.byte	0x1
 1015 04f7 21       		.byte	0x21
 1016 04f8 3F030000 		.4byte	0x33f
 1017 04fc 1F030000 		.4byte	.LLST0
 1018 0500 15       		.uleb128 0x15
 1019 0501 A2040000 		.4byte	.LASF56
 1020 0505 01       		.byte	0x1
 1021 0506 22       		.byte	0x22
 1022 0507 F2010000 		.4byte	0x1f2
 1023 050b 6E030000 		.4byte	.LLST1
 1024 050f 15       		.uleb128 0x15
 1025 0510 DA010000 		.4byte	.LASF51
 1026 0514 01       		.byte	0x1
ARM GAS  /tmp/ccBTgKAn.s 			page 19


 1027 0515 23       		.byte	0x23
 1028 0516 D8000000 		.4byte	0xd8
 1029 051a B0030000 		.4byte	.LLST2
 1030 051e 15       		.uleb128 0x15
 1031 051f 08040000 		.4byte	.LASF58
 1032 0523 01       		.byte	0x1
 1033 0524 24       		.byte	0x24
 1034 0525 AD000000 		.4byte	0xad
 1035 0529 50040000 		.4byte	.LLST3
 1036 052d 1C       		.uleb128 0x1c
 1037 052e 14000000 		.4byte	.LVL5
 1038 0532 D9050000 		.4byte	0x5d9
 1039 0536 52050000 		.4byte	0x552
 1040 053a 1A       		.uleb128 0x1a
 1041 053b 01       		.uleb128 0x1
 1042 053c 50       		.byte	0x50
 1043 053d 02       		.uleb128 0x2
 1044 053e 76       		.byte	0x76
 1045 053f 00       		.sleb128 0
 1046 0540 1A       		.uleb128 0x1a
 1047 0541 01       		.uleb128 0x1
 1048 0542 51       		.byte	0x51
 1049 0543 02       		.uleb128 0x2
 1050 0544 75       		.byte	0x75
 1051 0545 00       		.sleb128 0
 1052 0546 1A       		.uleb128 0x1a
 1053 0547 01       		.uleb128 0x1
 1054 0548 52       		.byte	0x52
 1055 0549 01       		.uleb128 0x1
 1056 054a 32       		.byte	0x32
 1057 054b 1A       		.uleb128 0x1a
 1058 054c 01       		.uleb128 0x1
 1059 054d 53       		.byte	0x53
 1060 054e 02       		.uleb128 0x2
 1061 054f 74       		.byte	0x74
 1062 0550 00       		.sleb128 0
 1063 0551 00       		.byte	0
 1064 0552 1D       		.uleb128 0x1d
 1065 0553 34000000 		.4byte	.LVL10
 1066 0557 E5050000 		.4byte	0x5e5
 1067 055b 79050000 		.4byte	0x579
 1068 055f 1A       		.uleb128 0x1a
 1069 0560 01       		.uleb128 0x1
 1070 0561 50       		.byte	0x50
 1071 0562 05       		.uleb128 0x5
 1072 0563 F3       		.byte	0xf3
 1073 0564 01       		.uleb128 0x1
 1074 0565 50       		.byte	0x50
 1075 0566 23       		.byte	0x23
 1076 0567 08       		.uleb128 0x8
 1077 0568 1A       		.uleb128 0x1a
 1078 0569 01       		.uleb128 0x1
 1079 056a 51       		.byte	0x51
 1080 056b 03       		.uleb128 0x3
 1081 056c F3       		.byte	0xf3
 1082 056d 01       		.uleb128 0x1
 1083 056e 51       		.byte	0x51
ARM GAS  /tmp/ccBTgKAn.s 			page 20


 1084 056f 1A       		.uleb128 0x1a
 1085 0570 01       		.uleb128 0x1
 1086 0571 52       		.byte	0x52
 1087 0572 05       		.uleb128 0x5
 1088 0573 F3       		.byte	0xf3
 1089 0574 01       		.uleb128 0x1
 1090 0575 52       		.byte	0x52
 1091 0576 23       		.byte	0x23
 1092 0577 02       		.uleb128 0x2
 1093 0578 00       		.byte	0
 1094 0579 1C       		.uleb128 0x1c
 1095 057a 42000000 		.4byte	.LVL12
 1096 057e D9050000 		.4byte	0x5d9
 1097 0582 9F050000 		.4byte	0x59f
 1098 0586 1A       		.uleb128 0x1a
 1099 0587 01       		.uleb128 0x1
 1100 0588 50       		.byte	0x50
 1101 0589 02       		.uleb128 0x2
 1102 058a 76       		.byte	0x76
 1103 058b 00       		.sleb128 0
 1104 058c 1A       		.uleb128 0x1a
 1105 058d 01       		.uleb128 0x1
 1106 058e 51       		.byte	0x51
 1107 058f 02       		.uleb128 0x2
 1108 0590 75       		.byte	0x75
 1109 0591 02       		.sleb128 2
 1110 0592 1A       		.uleb128 0x1a
 1111 0593 01       		.uleb128 0x1
 1112 0594 52       		.byte	0x52
 1113 0595 02       		.uleb128 0x2
 1114 0596 08       		.byte	0x8
 1115 0597 20       		.byte	0x20
 1116 0598 1A       		.uleb128 0x1a
 1117 0599 01       		.uleb128 0x1
 1118 059a 53       		.byte	0x53
 1119 059b 02       		.uleb128 0x2
 1120 059c 74       		.byte	0x74
 1121 059d 08       		.sleb128 8
 1122 059e 00       		.byte	0
 1123 059f 19       		.uleb128 0x19
 1124 05a0 56000000 		.4byte	.LVL16
 1125 05a4 D9050000 		.4byte	0x5d9
 1126 05a8 1A       		.uleb128 0x1a
 1127 05a9 01       		.uleb128 0x1
 1128 05aa 50       		.byte	0x50
 1129 05ab 02       		.uleb128 0x2
 1130 05ac 76       		.byte	0x76
 1131 05ad 00       		.sleb128 0
 1132 05ae 1A       		.uleb128 0x1a
 1133 05af 01       		.uleb128 0x1
 1134 05b0 51       		.byte	0x51
 1135 05b1 02       		.uleb128 0x2
 1136 05b2 75       		.byte	0x75
 1137 05b3 02       		.sleb128 2
 1138 05b4 1A       		.uleb128 0x1a
 1139 05b5 01       		.uleb128 0x1
 1140 05b6 52       		.byte	0x52
ARM GAS  /tmp/ccBTgKAn.s 			page 21


 1141 05b7 02       		.uleb128 0x2
 1142 05b8 08       		.byte	0x8
 1143 05b9 40       		.byte	0x40
 1144 05ba 1A       		.uleb128 0x1a
 1145 05bb 01       		.uleb128 0x1
 1146 05bc 53       		.byte	0x53
 1147 05bd 02       		.uleb128 0x2
 1148 05be 74       		.byte	0x74
 1149 05bf 08       		.sleb128 8
 1150 05c0 00       		.byte	0
 1151 05c1 00       		.byte	0
 1152 05c2 1F       		.uleb128 0x1f
 1153 05c3 8F040000 		.4byte	.LASF59
 1154 05c7 8F040000 		.4byte	.LASF59
 1155 05cb 04       		.byte	0x4
 1156 05cc CD01     		.2byte	0x1cd
 1157 05ce 20       		.uleb128 0x20
 1158 05cf 0D010000 		.4byte	.LASF60
 1159 05d3 0D010000 		.4byte	.LASF60
 1160 05d7 05       		.byte	0x5
 1161 05d8 32       		.byte	0x32
 1162 05d9 1F       		.uleb128 0x1f
 1163 05da 5D030000 		.4byte	.LASF61
 1164 05de 5D030000 		.4byte	.LASF61
 1165 05e2 04       		.byte	0x4
 1166 05e3 E701     		.2byte	0x1e7
 1167 05e5 20       		.uleb128 0x20
 1168 05e6 00000000 		.4byte	.LASF62
 1169 05ea 00000000 		.4byte	.LASF62
 1170 05ee 05       		.byte	0x5
 1171 05ef 2F       		.byte	0x2f
 1172 05f0 00       		.byte	0
 1173              		.section	.debug_abbrev,"",%progbits
 1174              	.Ldebug_abbrev0:
 1175 0000 01       		.uleb128 0x1
 1176 0001 11       		.uleb128 0x11
 1177 0002 01       		.byte	0x1
 1178 0003 25       		.uleb128 0x25
 1179 0004 0E       		.uleb128 0xe
 1180 0005 13       		.uleb128 0x13
 1181 0006 0B       		.uleb128 0xb
 1182 0007 03       		.uleb128 0x3
 1183 0008 0E       		.uleb128 0xe
 1184 0009 1B       		.uleb128 0x1b
 1185 000a 0E       		.uleb128 0xe
 1186 000b 55       		.uleb128 0x55
 1187 000c 17       		.uleb128 0x17
 1188 000d 11       		.uleb128 0x11
 1189 000e 01       		.uleb128 0x1
 1190 000f 10       		.uleb128 0x10
 1191 0010 17       		.uleb128 0x17
 1192 0011 00       		.byte	0
 1193 0012 00       		.byte	0
 1194 0013 02       		.uleb128 0x2
 1195 0014 24       		.uleb128 0x24
 1196 0015 00       		.byte	0
 1197 0016 0B       		.uleb128 0xb
ARM GAS  /tmp/ccBTgKAn.s 			page 22


 1198 0017 0B       		.uleb128 0xb
 1199 0018 3E       		.uleb128 0x3e
 1200 0019 0B       		.uleb128 0xb
 1201 001a 03       		.uleb128 0x3
 1202 001b 0E       		.uleb128 0xe
 1203 001c 00       		.byte	0
 1204 001d 00       		.byte	0
 1205 001e 03       		.uleb128 0x3
 1206 001f 16       		.uleb128 0x16
 1207 0020 00       		.byte	0
 1208 0021 03       		.uleb128 0x3
 1209 0022 0E       		.uleb128 0xe
 1210 0023 3A       		.uleb128 0x3a
 1211 0024 0B       		.uleb128 0xb
 1212 0025 3B       		.uleb128 0x3b
 1213 0026 0B       		.uleb128 0xb
 1214 0027 49       		.uleb128 0x49
 1215 0028 13       		.uleb128 0x13
 1216 0029 00       		.byte	0
 1217 002a 00       		.byte	0
 1218 002b 04       		.uleb128 0x4
 1219 002c 24       		.uleb128 0x24
 1220 002d 00       		.byte	0
 1221 002e 0B       		.uleb128 0xb
 1222 002f 0B       		.uleb128 0xb
 1223 0030 3E       		.uleb128 0x3e
 1224 0031 0B       		.uleb128 0xb
 1225 0032 03       		.uleb128 0x3
 1226 0033 08       		.uleb128 0x8
 1227 0034 00       		.byte	0
 1228 0035 00       		.byte	0
 1229 0036 05       		.uleb128 0x5
 1230 0037 26       		.uleb128 0x26
 1231 0038 00       		.byte	0
 1232 0039 49       		.uleb128 0x49
 1233 003a 13       		.uleb128 0x13
 1234 003b 00       		.byte	0
 1235 003c 00       		.byte	0
 1236 003d 06       		.uleb128 0x6
 1237 003e 13       		.uleb128 0x13
 1238 003f 01       		.byte	0x1
 1239 0040 03       		.uleb128 0x3
 1240 0041 0E       		.uleb128 0xe
 1241 0042 0B       		.uleb128 0xb
 1242 0043 0B       		.uleb128 0xb
 1243 0044 3A       		.uleb128 0x3a
 1244 0045 0B       		.uleb128 0xb
 1245 0046 3B       		.uleb128 0x3b
 1246 0047 05       		.uleb128 0x5
 1247 0048 01       		.uleb128 0x1
 1248 0049 13       		.uleb128 0x13
 1249 004a 00       		.byte	0
 1250 004b 00       		.byte	0
 1251 004c 07       		.uleb128 0x7
 1252 004d 0D       		.uleb128 0xd
 1253 004e 00       		.byte	0
 1254 004f 03       		.uleb128 0x3
ARM GAS  /tmp/ccBTgKAn.s 			page 23


 1255 0050 0E       		.uleb128 0xe
 1256 0051 3A       		.uleb128 0x3a
 1257 0052 0B       		.uleb128 0xb
 1258 0053 3B       		.uleb128 0x3b
 1259 0054 05       		.uleb128 0x5
 1260 0055 49       		.uleb128 0x49
 1261 0056 13       		.uleb128 0x13
 1262 0057 38       		.uleb128 0x38
 1263 0058 0B       		.uleb128 0xb
 1264 0059 00       		.byte	0
 1265 005a 00       		.byte	0
 1266 005b 08       		.uleb128 0x8
 1267 005c 13       		.uleb128 0x13
 1268 005d 01       		.byte	0x1
 1269 005e 03       		.uleb128 0x3
 1270 005f 0E       		.uleb128 0xe
 1271 0060 0B       		.uleb128 0xb
 1272 0061 0B       		.uleb128 0xb
 1273 0062 3A       		.uleb128 0x3a
 1274 0063 0B       		.uleb128 0xb
 1275 0064 3B       		.uleb128 0x3b
 1276 0065 0B       		.uleb128 0xb
 1277 0066 01       		.uleb128 0x1
 1278 0067 13       		.uleb128 0x13
 1279 0068 00       		.byte	0
 1280 0069 00       		.byte	0
 1281 006a 09       		.uleb128 0x9
 1282 006b 0D       		.uleb128 0xd
 1283 006c 00       		.byte	0
 1284 006d 03       		.uleb128 0x3
 1285 006e 0E       		.uleb128 0xe
 1286 006f 3A       		.uleb128 0x3a
 1287 0070 0B       		.uleb128 0xb
 1288 0071 3B       		.uleb128 0x3b
 1289 0072 0B       		.uleb128 0xb
 1290 0073 49       		.uleb128 0x49
 1291 0074 13       		.uleb128 0x13
 1292 0075 38       		.uleb128 0x38
 1293 0076 0B       		.uleb128 0xb
 1294 0077 00       		.byte	0
 1295 0078 00       		.byte	0
 1296 0079 0A       		.uleb128 0xa
 1297 007a 0F       		.uleb128 0xf
 1298 007b 00       		.byte	0
 1299 007c 0B       		.uleb128 0xb
 1300 007d 0B       		.uleb128 0xb
 1301 007e 49       		.uleb128 0x49
 1302 007f 13       		.uleb128 0x13
 1303 0080 00       		.byte	0
 1304 0081 00       		.byte	0
 1305 0082 0B       		.uleb128 0xb
 1306 0083 01       		.uleb128 0x1
 1307 0084 01       		.byte	0x1
 1308 0085 49       		.uleb128 0x49
 1309 0086 13       		.uleb128 0x13
 1310 0087 01       		.uleb128 0x1
 1311 0088 13       		.uleb128 0x13
ARM GAS  /tmp/ccBTgKAn.s 			page 24


 1312 0089 00       		.byte	0
 1313 008a 00       		.byte	0
 1314 008b 0C       		.uleb128 0xc
 1315 008c 21       		.uleb128 0x21
 1316 008d 00       		.byte	0
 1317 008e 49       		.uleb128 0x49
 1318 008f 13       		.uleb128 0x13
 1319 0090 00       		.byte	0
 1320 0091 00       		.byte	0
 1321 0092 0D       		.uleb128 0xd
 1322 0093 0F       		.uleb128 0xf
 1323 0094 00       		.byte	0
 1324 0095 0B       		.uleb128 0xb
 1325 0096 0B       		.uleb128 0xb
 1326 0097 00       		.byte	0
 1327 0098 00       		.byte	0
 1328 0099 0E       		.uleb128 0xe
 1329 009a 13       		.uleb128 0x13
 1330 009b 01       		.byte	0x1
 1331 009c 0B       		.uleb128 0xb
 1332 009d 0B       		.uleb128 0xb
 1333 009e 3A       		.uleb128 0x3a
 1334 009f 0B       		.uleb128 0xb
 1335 00a0 3B       		.uleb128 0x3b
 1336 00a1 0B       		.uleb128 0xb
 1337 00a2 01       		.uleb128 0x1
 1338 00a3 13       		.uleb128 0x13
 1339 00a4 00       		.byte	0
 1340 00a5 00       		.byte	0
 1341 00a6 0F       		.uleb128 0xf
 1342 00a7 04       		.uleb128 0x4
 1343 00a8 01       		.byte	0x1
 1344 00a9 3E       		.uleb128 0x3e
 1345 00aa 0B       		.uleb128 0xb
 1346 00ab 0B       		.uleb128 0xb
 1347 00ac 0B       		.uleb128 0xb
 1348 00ad 49       		.uleb128 0x49
 1349 00ae 13       		.uleb128 0x13
 1350 00af 3A       		.uleb128 0x3a
 1351 00b0 0B       		.uleb128 0xb
 1352 00b1 3B       		.uleb128 0x3b
 1353 00b2 0B       		.uleb128 0xb
 1354 00b3 01       		.uleb128 0x1
 1355 00b4 13       		.uleb128 0x13
 1356 00b5 00       		.byte	0
 1357 00b6 00       		.byte	0
 1358 00b7 10       		.uleb128 0x10
 1359 00b8 28       		.uleb128 0x28
 1360 00b9 00       		.byte	0
 1361 00ba 03       		.uleb128 0x3
 1362 00bb 0E       		.uleb128 0xe
 1363 00bc 1C       		.uleb128 0x1c
 1364 00bd 0B       		.uleb128 0xb
 1365 00be 00       		.byte	0
 1366 00bf 00       		.byte	0
 1367 00c0 11       		.uleb128 0x11
 1368 00c1 17       		.uleb128 0x17
ARM GAS  /tmp/ccBTgKAn.s 			page 25


 1369 00c2 01       		.byte	0x1
 1370 00c3 0B       		.uleb128 0xb
 1371 00c4 0B       		.uleb128 0xb
 1372 00c5 3A       		.uleb128 0x3a
 1373 00c6 0B       		.uleb128 0xb
 1374 00c7 3B       		.uleb128 0x3b
 1375 00c8 0B       		.uleb128 0xb
 1376 00c9 01       		.uleb128 0x1
 1377 00ca 13       		.uleb128 0x13
 1378 00cb 00       		.byte	0
 1379 00cc 00       		.byte	0
 1380 00cd 12       		.uleb128 0x12
 1381 00ce 0D       		.uleb128 0xd
 1382 00cf 00       		.byte	0
 1383 00d0 03       		.uleb128 0x3
 1384 00d1 0E       		.uleb128 0xe
 1385 00d2 3A       		.uleb128 0x3a
 1386 00d3 0B       		.uleb128 0xb
 1387 00d4 3B       		.uleb128 0x3b
 1388 00d5 0B       		.uleb128 0xb
 1389 00d6 49       		.uleb128 0x49
 1390 00d7 13       		.uleb128 0x13
 1391 00d8 00       		.byte	0
 1392 00d9 00       		.byte	0
 1393 00da 13       		.uleb128 0x13
 1394 00db 0D       		.uleb128 0xd
 1395 00dc 00       		.byte	0
 1396 00dd 49       		.uleb128 0x49
 1397 00de 13       		.uleb128 0x13
 1398 00df 38       		.uleb128 0x38
 1399 00e0 0B       		.uleb128 0xb
 1400 00e1 00       		.byte	0
 1401 00e2 00       		.byte	0
 1402 00e3 14       		.uleb128 0x14
 1403 00e4 2E       		.uleb128 0x2e
 1404 00e5 01       		.byte	0x1
 1405 00e6 3F       		.uleb128 0x3f
 1406 00e7 19       		.uleb128 0x19
 1407 00e8 03       		.uleb128 0x3
 1408 00e9 0E       		.uleb128 0xe
 1409 00ea 3A       		.uleb128 0x3a
 1410 00eb 0B       		.uleb128 0xb
 1411 00ec 3B       		.uleb128 0x3b
 1412 00ed 0B       		.uleb128 0xb
 1413 00ee 27       		.uleb128 0x27
 1414 00ef 19       		.uleb128 0x19
 1415 00f0 49       		.uleb128 0x49
 1416 00f1 13       		.uleb128 0x13
 1417 00f2 11       		.uleb128 0x11
 1418 00f3 01       		.uleb128 0x1
 1419 00f4 12       		.uleb128 0x12
 1420 00f5 06       		.uleb128 0x6
 1421 00f6 40       		.uleb128 0x40
 1422 00f7 18       		.uleb128 0x18
 1423 00f8 9742     		.uleb128 0x2117
 1424 00fa 19       		.uleb128 0x19
 1425 00fb 01       		.uleb128 0x1
ARM GAS  /tmp/ccBTgKAn.s 			page 26


 1426 00fc 13       		.uleb128 0x13
 1427 00fd 00       		.byte	0
 1428 00fe 00       		.byte	0
 1429 00ff 15       		.uleb128 0x15
 1430 0100 05       		.uleb128 0x5
 1431 0101 00       		.byte	0
 1432 0102 03       		.uleb128 0x3
 1433 0103 0E       		.uleb128 0xe
 1434 0104 3A       		.uleb128 0x3a
 1435 0105 0B       		.uleb128 0xb
 1436 0106 3B       		.uleb128 0x3b
 1437 0107 0B       		.uleb128 0xb
 1438 0108 49       		.uleb128 0x49
 1439 0109 13       		.uleb128 0x13
 1440 010a 02       		.uleb128 0x2
 1441 010b 17       		.uleb128 0x17
 1442 010c 00       		.byte	0
 1443 010d 00       		.byte	0
 1444 010e 16       		.uleb128 0x16
 1445 010f 34       		.uleb128 0x34
 1446 0110 00       		.byte	0
 1447 0111 03       		.uleb128 0x3
 1448 0112 0E       		.uleb128 0xe
 1449 0113 3A       		.uleb128 0x3a
 1450 0114 0B       		.uleb128 0xb
 1451 0115 3B       		.uleb128 0x3b
 1452 0116 0B       		.uleb128 0xb
 1453 0117 49       		.uleb128 0x49
 1454 0118 13       		.uleb128 0x13
 1455 0119 1C       		.uleb128 0x1c
 1456 011a 0B       		.uleb128 0xb
 1457 011b 00       		.byte	0
 1458 011c 00       		.byte	0
 1459 011d 17       		.uleb128 0x17
 1460 011e 34       		.uleb128 0x34
 1461 011f 00       		.byte	0
 1462 0120 03       		.uleb128 0x3
 1463 0121 08       		.uleb128 0x8
 1464 0122 3A       		.uleb128 0x3a
 1465 0123 0B       		.uleb128 0xb
 1466 0124 3B       		.uleb128 0x3b
 1467 0125 0B       		.uleb128 0xb
 1468 0126 49       		.uleb128 0x49
 1469 0127 13       		.uleb128 0x13
 1470 0128 02       		.uleb128 0x2
 1471 0129 17       		.uleb128 0x17
 1472 012a 00       		.byte	0
 1473 012b 00       		.byte	0
 1474 012c 18       		.uleb128 0x18
 1475 012d 0B       		.uleb128 0xb
 1476 012e 01       		.byte	0x1
 1477 012f 11       		.uleb128 0x11
 1478 0130 01       		.uleb128 0x1
 1479 0131 12       		.uleb128 0x12
 1480 0132 06       		.uleb128 0x6
 1481 0133 01       		.uleb128 0x1
 1482 0134 13       		.uleb128 0x13
ARM GAS  /tmp/ccBTgKAn.s 			page 27


 1483 0135 00       		.byte	0
 1484 0136 00       		.byte	0
 1485 0137 19       		.uleb128 0x19
 1486 0138 898201   		.uleb128 0x4109
 1487 013b 01       		.byte	0x1
 1488 013c 11       		.uleb128 0x11
 1489 013d 01       		.uleb128 0x1
 1490 013e 31       		.uleb128 0x31
 1491 013f 13       		.uleb128 0x13
 1492 0140 00       		.byte	0
 1493 0141 00       		.byte	0
 1494 0142 1A       		.uleb128 0x1a
 1495 0143 8A8201   		.uleb128 0x410a
 1496 0146 00       		.byte	0
 1497 0147 02       		.uleb128 0x2
 1498 0148 18       		.uleb128 0x18
 1499 0149 9142     		.uleb128 0x2111
 1500 014b 18       		.uleb128 0x18
 1501 014c 00       		.byte	0
 1502 014d 00       		.byte	0
 1503 014e 1B       		.uleb128 0x1b
 1504 014f 0A       		.uleb128 0xa
 1505 0150 00       		.byte	0
 1506 0151 03       		.uleb128 0x3
 1507 0152 0E       		.uleb128 0xe
 1508 0153 3A       		.uleb128 0x3a
 1509 0154 0B       		.uleb128 0xb
 1510 0155 3B       		.uleb128 0x3b
 1511 0156 0B       		.uleb128 0xb
 1512 0157 11       		.uleb128 0x11
 1513 0158 01       		.uleb128 0x1
 1514 0159 00       		.byte	0
 1515 015a 00       		.byte	0
 1516 015b 1C       		.uleb128 0x1c
 1517 015c 898201   		.uleb128 0x4109
 1518 015f 01       		.byte	0x1
 1519 0160 11       		.uleb128 0x11
 1520 0161 01       		.uleb128 0x1
 1521 0162 31       		.uleb128 0x31
 1522 0163 13       		.uleb128 0x13
 1523 0164 01       		.uleb128 0x1
 1524 0165 13       		.uleb128 0x13
 1525 0166 00       		.byte	0
 1526 0167 00       		.byte	0
 1527 0168 1D       		.uleb128 0x1d
 1528 0169 898201   		.uleb128 0x4109
 1529 016c 01       		.byte	0x1
 1530 016d 11       		.uleb128 0x11
 1531 016e 01       		.uleb128 0x1
 1532 016f 9542     		.uleb128 0x2115
 1533 0171 19       		.uleb128 0x19
 1534 0172 31       		.uleb128 0x31
 1535 0173 13       		.uleb128 0x13
 1536 0174 01       		.uleb128 0x1
 1537 0175 13       		.uleb128 0x13
 1538 0176 00       		.byte	0
 1539 0177 00       		.byte	0
ARM GAS  /tmp/ccBTgKAn.s 			page 28


 1540 0178 1E       		.uleb128 0x1e
 1541 0179 34       		.uleb128 0x34
 1542 017a 00       		.byte	0
 1543 017b 03       		.uleb128 0x3
 1544 017c 0E       		.uleb128 0xe
 1545 017d 3A       		.uleb128 0x3a
 1546 017e 0B       		.uleb128 0xb
 1547 017f 3B       		.uleb128 0x3b
 1548 0180 0B       		.uleb128 0xb
 1549 0181 49       		.uleb128 0x49
 1550 0182 13       		.uleb128 0x13
 1551 0183 02       		.uleb128 0x2
 1552 0184 17       		.uleb128 0x17
 1553 0185 00       		.byte	0
 1554 0186 00       		.byte	0
 1555 0187 1F       		.uleb128 0x1f
 1556 0188 2E       		.uleb128 0x2e
 1557 0189 00       		.byte	0
 1558 018a 3F       		.uleb128 0x3f
 1559 018b 19       		.uleb128 0x19
 1560 018c 3C       		.uleb128 0x3c
 1561 018d 19       		.uleb128 0x19
 1562 018e 6E       		.uleb128 0x6e
 1563 018f 0E       		.uleb128 0xe
 1564 0190 03       		.uleb128 0x3
 1565 0191 0E       		.uleb128 0xe
 1566 0192 3A       		.uleb128 0x3a
 1567 0193 0B       		.uleb128 0xb
 1568 0194 3B       		.uleb128 0x3b
 1569 0195 05       		.uleb128 0x5
 1570 0196 00       		.byte	0
 1571 0197 00       		.byte	0
 1572 0198 20       		.uleb128 0x20
 1573 0199 2E       		.uleb128 0x2e
 1574 019a 00       		.byte	0
 1575 019b 3F       		.uleb128 0x3f
 1576 019c 19       		.uleb128 0x19
 1577 019d 3C       		.uleb128 0x3c
 1578 019e 19       		.uleb128 0x19
 1579 019f 6E       		.uleb128 0x6e
 1580 01a0 0E       		.uleb128 0xe
 1581 01a1 03       		.uleb128 0x3
 1582 01a2 0E       		.uleb128 0xe
 1583 01a3 3A       		.uleb128 0x3a
 1584 01a4 0B       		.uleb128 0xb
 1585 01a5 3B       		.uleb128 0x3b
 1586 01a6 0B       		.uleb128 0xb
 1587 01a7 00       		.byte	0
 1588 01a8 00       		.byte	0
 1589 01a9 00       		.byte	0
 1590              		.section	.debug_loc,"",%progbits
 1591              	.Ldebug_loc0:
 1592              	.LLST13:
 1593 0000 00000000 		.4byte	.LVL43
 1594 0004 19000000 		.4byte	.LVL45-1
 1595 0008 0100     		.2byte	0x1
 1596 000a 50       		.byte	0x50
ARM GAS  /tmp/ccBTgKAn.s 			page 29


 1597 000b 19000000 		.4byte	.LVL45-1
 1598 000f 1E000000 		.4byte	.LFE3
 1599 0013 0400     		.2byte	0x4
 1600 0015 F3       		.byte	0xf3
 1601 0016 01       		.uleb128 0x1
 1602 0017 50       		.byte	0x50
 1603 0018 9F       		.byte	0x9f
 1604 0019 00000000 		.4byte	0
 1605 001d 00000000 		.4byte	0
 1606              	.LLST14:
 1607 0021 00000000 		.4byte	.LVL43
 1608 0025 19000000 		.4byte	.LVL45-1
 1609 0029 0100     		.2byte	0x1
 1610 002b 51       		.byte	0x51
 1611 002c 19000000 		.4byte	.LVL45-1
 1612 0030 1E000000 		.4byte	.LFE3
 1613 0034 0400     		.2byte	0x4
 1614 0036 F3       		.byte	0xf3
 1615 0037 01       		.uleb128 0x1
 1616 0038 51       		.byte	0x51
 1617 0039 9F       		.byte	0x9f
 1618 003a 00000000 		.4byte	0
 1619 003e 00000000 		.4byte	0
 1620              	.LLST15:
 1621 0042 00000000 		.4byte	.LVL43
 1622 0046 19000000 		.4byte	.LVL45-1
 1623 004a 0100     		.2byte	0x1
 1624 004c 52       		.byte	0x52
 1625 004d 19000000 		.4byte	.LVL45-1
 1626 0051 1E000000 		.4byte	.LFE3
 1627 0055 0300     		.2byte	0x3
 1628 0057 76       		.byte	0x76
 1629 0058 71       		.sleb128 -15
 1630 0059 9F       		.byte	0x9f
 1631 005a 00000000 		.4byte	0
 1632 005e 00000000 		.4byte	0
 1633              	.LLST16:
 1634 0062 00000000 		.4byte	.LVL43
 1635 0066 19000000 		.4byte	.LVL45-1
 1636 006a 0100     		.2byte	0x1
 1637 006c 53       		.byte	0x53
 1638 006d 19000000 		.4byte	.LVL45-1
 1639 0071 1E000000 		.4byte	.LFE3
 1640 0075 0400     		.2byte	0x4
 1641 0077 F3       		.byte	0xf3
 1642 0078 01       		.uleb128 0x1
 1643 0079 53       		.byte	0x53
 1644 007a 9F       		.byte	0x9f
 1645 007b 00000000 		.4byte	0
 1646 007f 00000000 		.4byte	0
 1647              	.LLST17:
 1648 0083 00000000 		.4byte	.LVL43
 1649 0087 1A000000 		.4byte	.LVL45
 1650 008b 0200     		.2byte	0x2
 1651 008d 30       		.byte	0x30
 1652 008e 9F       		.byte	0x9f
 1653 008f 1A000000 		.4byte	.LVL45
ARM GAS  /tmp/ccBTgKAn.s 			page 30


 1654 0093 1E000000 		.4byte	.LFE3
 1655 0097 0100     		.2byte	0x1
 1656 0099 50       		.byte	0x50
 1657 009a 00000000 		.4byte	0
 1658 009e 00000000 		.4byte	0
 1659              	.LLST18:
 1660 00a2 00000000 		.4byte	.LVL43
 1661 00a6 0C000000 		.4byte	.LVL44
 1662 00aa 0200     		.2byte	0x2
 1663 00ac 30       		.byte	0x30
 1664 00ad 9F       		.byte	0x9f
 1665 00ae 00000000 		.4byte	0
 1666 00b2 00000000 		.4byte	0
 1667              	.LLST7:
 1668 00b6 00000000 		.4byte	.LVL22
 1669 00ba 1B000000 		.4byte	.LVL26-1
 1670 00be 0100     		.2byte	0x1
 1671 00c0 50       		.byte	0x50
 1672 00c1 1B000000 		.4byte	.LVL26-1
 1673 00c5 68000000 		.4byte	.LVL37
 1674 00c9 0100     		.2byte	0x1
 1675 00cb 56       		.byte	0x56
 1676 00cc 68000000 		.4byte	.LVL37
 1677 00d0 6B000000 		.4byte	.LVL38-1
 1678 00d4 0100     		.2byte	0x1
 1679 00d6 50       		.byte	0x50
 1680 00d7 6B000000 		.4byte	.LVL38-1
 1681 00db 6C000000 		.4byte	.LVL38
 1682 00df 0400     		.2byte	0x4
 1683 00e1 F3       		.byte	0xf3
 1684 00e2 01       		.uleb128 0x1
 1685 00e3 50       		.byte	0x50
 1686 00e4 9F       		.byte	0x9f
 1687 00e5 6C000000 		.4byte	.LVL38
 1688 00e9 84000000 		.4byte	.LFE2
 1689 00ed 0100     		.2byte	0x1
 1690 00ef 56       		.byte	0x56
 1691 00f0 00000000 		.4byte	0
 1692 00f4 00000000 		.4byte	0
 1693              	.LLST8:
 1694 00f8 00000000 		.4byte	.LVL22
 1695 00fc 12000000 		.4byte	.LVL23
 1696 0100 0100     		.2byte	0x1
 1697 0102 51       		.byte	0x51
 1698 0103 12000000 		.4byte	.LVL23
 1699 0107 84000000 		.4byte	.LFE2
 1700 010b 0400     		.2byte	0x4
 1701 010d F3       		.byte	0xf3
 1702 010e 01       		.uleb128 0x1
 1703 010f 51       		.byte	0x51
 1704 0110 9F       		.byte	0x9f
 1705 0111 00000000 		.4byte	0
 1706 0115 00000000 		.4byte	0
 1707              	.LLST9:
 1708 0119 00000000 		.4byte	.LVL22
 1709 011d 16000000 		.4byte	.LVL25
 1710 0121 0100     		.2byte	0x1
ARM GAS  /tmp/ccBTgKAn.s 			page 31


 1711 0123 52       		.byte	0x52
 1712 0124 16000000 		.4byte	.LVL25
 1713 0128 20000000 		.4byte	.LVL27
 1714 012c 0100     		.2byte	0x1
 1715 012e 54       		.byte	0x54
 1716 012f 20000000 		.4byte	.LVL27
 1717 0133 2E000000 		.4byte	.LVL29
 1718 0137 0400     		.2byte	0x4
 1719 0139 F3       		.byte	0xf3
 1720 013a 01       		.uleb128 0x1
 1721 013b 52       		.byte	0x52
 1722 013c 9F       		.byte	0x9f
 1723 013d 2E000000 		.4byte	.LVL29
 1724 0141 3E000000 		.4byte	.LVL31
 1725 0145 0100     		.2byte	0x1
 1726 0147 54       		.byte	0x54
 1727 0148 3E000000 		.4byte	.LVL31
 1728 014c 56000000 		.4byte	.LVL35
 1729 0150 0300     		.2byte	0x3
 1730 0152 74       		.byte	0x74
 1731 0153 78       		.sleb128 -8
 1732 0154 9F       		.byte	0x9f
 1733 0155 56000000 		.4byte	.LVL35
 1734 0159 68000000 		.4byte	.LVL37
 1735 015d 0100     		.2byte	0x1
 1736 015f 54       		.byte	0x54
 1737 0160 68000000 		.4byte	.LVL37
 1738 0164 6B000000 		.4byte	.LVL38-1
 1739 0168 0300     		.2byte	0x3
 1740 016a 72       		.byte	0x72
 1741 016b 78       		.sleb128 -8
 1742 016c 9F       		.byte	0x9f
 1743 016d 6B000000 		.4byte	.LVL38-1
 1744 0171 6C000000 		.4byte	.LVL38
 1745 0175 0400     		.2byte	0x4
 1746 0177 F3       		.byte	0xf3
 1747 0178 01       		.uleb128 0x1
 1748 0179 52       		.byte	0x52
 1749 017a 9F       		.byte	0x9f
 1750 017b 6C000000 		.4byte	.LVL38
 1751 017f 6E000000 		.4byte	.LVL39
 1752 0183 0100     		.2byte	0x1
 1753 0185 54       		.byte	0x54
 1754 0186 6E000000 		.4byte	.LVL39
 1755 018a 84000000 		.4byte	.LFE2
 1756 018e 0300     		.2byte	0x3
 1757 0190 74       		.byte	0x74
 1758 0191 78       		.sleb128 -8
 1759 0192 9F       		.byte	0x9f
 1760 0193 00000000 		.4byte	0
 1761 0197 00000000 		.4byte	0
 1762              	.LLST10:
 1763 019b 00000000 		.4byte	.LVL22
 1764 019f 14000000 		.4byte	.LVL24
 1765 01a3 0100     		.2byte	0x1
 1766 01a5 53       		.byte	0x53
 1767 01a6 14000000 		.4byte	.LVL24
ARM GAS  /tmp/ccBTgKAn.s 			page 32


 1768 01aa 68000000 		.4byte	.LVL37
 1769 01ae 0100     		.2byte	0x1
 1770 01b0 58       		.byte	0x58
 1771 01b1 68000000 		.4byte	.LVL37
 1772 01b5 6B000000 		.4byte	.LVL38-1
 1773 01b9 0100     		.2byte	0x1
 1774 01bb 53       		.byte	0x53
 1775 01bc 6B000000 		.4byte	.LVL38-1
 1776 01c0 6C000000 		.4byte	.LVL38
 1777 01c4 0400     		.2byte	0x4
 1778 01c6 F3       		.byte	0xf3
 1779 01c7 01       		.uleb128 0x1
 1780 01c8 53       		.byte	0x53
 1781 01c9 9F       		.byte	0x9f
 1782 01ca 6C000000 		.4byte	.LVL38
 1783 01ce 84000000 		.4byte	.LFE2
 1784 01d2 0100     		.2byte	0x1
 1785 01d4 58       		.byte	0x58
 1786 01d5 00000000 		.4byte	0
 1787 01d9 00000000 		.4byte	0
 1788              	.LLST11:
 1789 01dd 00000000 		.4byte	.LVL22
 1790 01e1 20000000 		.4byte	.LVL27
 1791 01e5 0200     		.2byte	0x2
 1792 01e7 91       		.byte	0x91
 1793 01e8 00       		.sleb128 0
 1794 01e9 2E000000 		.4byte	.LVL29
 1795 01ed 32000000 		.4byte	.LVL30
 1796 01f1 0200     		.2byte	0x2
 1797 01f3 91       		.byte	0x91
 1798 01f4 00       		.sleb128 0
 1799 01f5 32000000 		.4byte	.LVL30
 1800 01f9 44000000 		.4byte	.LVL32
 1801 01fd 0100     		.2byte	0x1
 1802 01ff 50       		.byte	0x50
 1803 0200 44000000 		.4byte	.LVL32
 1804 0204 4B000000 		.4byte	.LVL33-1
 1805 0208 0100     		.2byte	0x1
 1806 020a 51       		.byte	0x51
 1807 020b 4B000000 		.4byte	.LVL33-1
 1808 020f 54000000 		.4byte	.LVL34
 1809 0213 0300     		.2byte	0x3
 1810 0215 75       		.byte	0x75
 1811 0216 02       		.sleb128 2
 1812 0217 9F       		.byte	0x9f
 1813 0218 54000000 		.4byte	.LVL34
 1814 021c 62000000 		.4byte	.LVL36
 1815 0220 0100     		.2byte	0x1
 1816 0222 50       		.byte	0x50
 1817 0223 62000000 		.4byte	.LVL36
 1818 0227 68000000 		.4byte	.LVL37
 1819 022b 0200     		.2byte	0x2
 1820 022d 91       		.byte	0x91
 1821 022e 00       		.sleb128 0
 1822 022f 68000000 		.4byte	.LVL37
 1823 0233 6B000000 		.4byte	.LVL38-1
 1824 0237 0200     		.2byte	0x2
ARM GAS  /tmp/ccBTgKAn.s 			page 33


 1825 0239 7D       		.byte	0x7d
 1826 023a 00       		.sleb128 0
 1827 023b 6C000000 		.4byte	.LVL38
 1828 023f 74000000 		.4byte	.LVL40
 1829 0243 0100     		.2byte	0x1
 1830 0245 50       		.byte	0x50
 1831 0246 74000000 		.4byte	.LVL40
 1832 024a 79000000 		.4byte	.LVL41-1
 1833 024e 0100     		.2byte	0x1
 1834 0250 51       		.byte	0x51
 1835 0251 79000000 		.4byte	.LVL41-1
 1836 0255 82000000 		.4byte	.LVL42
 1837 0259 0300     		.2byte	0x3
 1838 025b 75       		.byte	0x75
 1839 025c 02       		.sleb128 2
 1840 025d 9F       		.byte	0x9f
 1841 025e 82000000 		.4byte	.LVL42
 1842 0262 84000000 		.4byte	.LFE2
 1843 0266 0100     		.2byte	0x1
 1844 0268 50       		.byte	0x50
 1845 0269 00000000 		.4byte	0
 1846 026d 00000000 		.4byte	0
 1847              	.LLST12:
 1848 0271 00000000 		.4byte	.LVL22
 1849 0275 1C000000 		.4byte	.LVL26
 1850 0279 0200     		.2byte	0x2
 1851 027b 30       		.byte	0x30
 1852 027c 9F       		.byte	0x9f
 1853 027d 1C000000 		.4byte	.LVL26
 1854 0281 28000000 		.4byte	.LVL28
 1855 0285 0100     		.2byte	0x1
 1856 0287 50       		.byte	0x50
 1857 0288 2E000000 		.4byte	.LVL29
 1858 028c 32000000 		.4byte	.LVL30
 1859 0290 0100     		.2byte	0x1
 1860 0292 50       		.byte	0x50
 1861 0293 4C000000 		.4byte	.LVL33
 1862 0297 54000000 		.4byte	.LVL34
 1863 029b 0100     		.2byte	0x1
 1864 029d 50       		.byte	0x50
 1865 029e 7A000000 		.4byte	.LVL41
 1866 02a2 82000000 		.4byte	.LVL42
 1867 02a6 0100     		.2byte	0x1
 1868 02a8 50       		.byte	0x50
 1869 02a9 00000000 		.4byte	0
 1870 02ad 00000000 		.4byte	0
 1871              	.LLST4:
 1872 02b1 00000000 		.4byte	.LVL18
 1873 02b5 09000000 		.4byte	.LVL19-1
 1874 02b9 0100     		.2byte	0x1
 1875 02bb 50       		.byte	0x50
 1876 02bc 09000000 		.4byte	.LVL19-1
 1877 02c0 10000000 		.4byte	.LFE1
 1878 02c4 0400     		.2byte	0x4
 1879 02c6 F3       		.byte	0xf3
 1880 02c7 01       		.uleb128 0x1
 1881 02c8 50       		.byte	0x50
ARM GAS  /tmp/ccBTgKAn.s 			page 34


 1882 02c9 9F       		.byte	0x9f
 1883 02ca 00000000 		.4byte	0
 1884 02ce 00000000 		.4byte	0
 1885              	.LLST5:
 1886 02d2 00000000 		.4byte	.LVL18
 1887 02d6 09000000 		.4byte	.LVL19-1
 1888 02da 0100     		.2byte	0x1
 1889 02dc 51       		.byte	0x51
 1890 02dd 09000000 		.4byte	.LVL19-1
 1891 02e1 10000000 		.4byte	.LFE1
 1892 02e5 0400     		.2byte	0x4
 1893 02e7 F3       		.byte	0xf3
 1894 02e8 01       		.uleb128 0x1
 1895 02e9 51       		.byte	0x51
 1896 02ea 9F       		.byte	0x9f
 1897 02eb 00000000 		.4byte	0
 1898 02ef 00000000 		.4byte	0
 1899              	.LLST6:
 1900 02f3 00000000 		.4byte	.LVL18
 1901 02f7 0A000000 		.4byte	.LVL19
 1902 02fb 0200     		.2byte	0x2
 1903 02fd 30       		.byte	0x30
 1904 02fe 9F       		.byte	0x9f
 1905 02ff 0A000000 		.4byte	.LVL19
 1906 0303 0C000000 		.4byte	.LVL20
 1907 0307 0100     		.2byte	0x1
 1908 0309 50       		.byte	0x50
 1909 030a 0C000000 		.4byte	.LVL20
 1910 030e 0E000000 		.4byte	.LVL21
 1911 0312 0300     		.2byte	0x3
 1912 0314 70       		.byte	0x70
 1913 0315 79       		.sleb128 -7
 1914 0316 9F       		.byte	0x9f
 1915 0317 00000000 		.4byte	0
 1916 031b 00000000 		.4byte	0
 1917              	.LLST0:
 1918 031f 00000000 		.4byte	.LVL0
 1919 0323 0E000000 		.4byte	.LVL3
 1920 0327 0100     		.2byte	0x1
 1921 0329 50       		.byte	0x50
 1922 032a 0E000000 		.4byte	.LVL3
 1923 032e 13000000 		.4byte	.LVL5-1
 1924 0332 0100     		.2byte	0x1
 1925 0334 53       		.byte	0x53
 1926 0335 13000000 		.4byte	.LVL5-1
 1927 0339 30000000 		.4byte	.LVL9
 1928 033d 0100     		.2byte	0x1
 1929 033f 54       		.byte	0x54
 1930 0340 30000000 		.4byte	.LVL9
 1931 0344 33000000 		.4byte	.LVL10-1
 1932 0348 0300     		.2byte	0x3
 1933 034a 70       		.byte	0x70
 1934 034b 78       		.sleb128 -8
 1935 034c 9F       		.byte	0x9f
 1936 034d 33000000 		.4byte	.LVL10-1
 1937 0351 34000000 		.4byte	.LVL10
 1938 0355 0400     		.2byte	0x4
ARM GAS  /tmp/ccBTgKAn.s 			page 35


 1939 0357 F3       		.byte	0xf3
 1940 0358 01       		.uleb128 0x1
 1941 0359 50       		.byte	0x50
 1942 035a 9F       		.byte	0x9f
 1943 035b 34000000 		.4byte	.LVL10
 1944 035f 5C000000 		.4byte	.LFE0
 1945 0363 0100     		.2byte	0x1
 1946 0365 54       		.byte	0x54
 1947 0366 00000000 		.4byte	0
 1948 036a 00000000 		.4byte	0
 1949              	.LLST1:
 1950 036e 00000000 		.4byte	.LVL0
 1951 0372 0C000000 		.4byte	.LVL2
 1952 0376 0100     		.2byte	0x1
 1953 0378 51       		.byte	0x51
 1954 0379 0C000000 		.4byte	.LVL2
 1955 037d 30000000 		.4byte	.LVL9
 1956 0381 0100     		.2byte	0x1
 1957 0383 56       		.byte	0x56
 1958 0384 30000000 		.4byte	.LVL9
 1959 0388 33000000 		.4byte	.LVL10-1
 1960 038c 0100     		.2byte	0x1
 1961 038e 51       		.byte	0x51
 1962 038f 33000000 		.4byte	.LVL10-1
 1963 0393 34000000 		.4byte	.LVL10
 1964 0397 0400     		.2byte	0x4
 1965 0399 F3       		.byte	0xf3
 1966 039a 01       		.uleb128 0x1
 1967 039b 51       		.byte	0x51
 1968 039c 9F       		.byte	0x9f
 1969 039d 34000000 		.4byte	.LVL10
 1970 03a1 5C000000 		.4byte	.LFE0
 1971 03a5 0100     		.2byte	0x1
 1972 03a7 56       		.byte	0x56
 1973 03a8 00000000 		.4byte	0
 1974 03ac 00000000 		.4byte	0
 1975              	.LLST2:
 1976 03b0 00000000 		.4byte	.LVL0
 1977 03b4 10000000 		.4byte	.LVL4
 1978 03b8 0100     		.2byte	0x1
 1979 03ba 52       		.byte	0x52
 1980 03bb 10000000 		.4byte	.LVL4
 1981 03bf 13000000 		.4byte	.LVL5-1
 1982 03c3 0100     		.2byte	0x1
 1983 03c5 51       		.byte	0x51
 1984 03c6 13000000 		.4byte	.LVL5-1
 1985 03ca 18000000 		.4byte	.LVL6
 1986 03ce 0100     		.2byte	0x1
 1987 03d0 55       		.byte	0x55
 1988 03d1 18000000 		.4byte	.LVL6
 1989 03d5 2C000000 		.4byte	.LVL8
 1990 03d9 0100     		.2byte	0x1
 1991 03db 50       		.byte	0x50
 1992 03dc 2C000000 		.4byte	.LVL8
 1993 03e0 33000000 		.4byte	.LVL10-1
 1994 03e4 0100     		.2byte	0x1
 1995 03e6 52       		.byte	0x52
ARM GAS  /tmp/ccBTgKAn.s 			page 36


 1996 03e7 33000000 		.4byte	.LVL10-1
 1997 03eb 34000000 		.4byte	.LVL10
 1998 03ef 0600     		.2byte	0x6
 1999 03f1 F3       		.byte	0xf3
 2000 03f2 01       		.uleb128 0x1
 2001 03f3 52       		.byte	0x52
 2002 03f4 23       		.byte	0x23
 2003 03f5 02       		.uleb128 0x2
 2004 03f6 9F       		.byte	0x9f
 2005 03f7 34000000 		.4byte	.LVL10
 2006 03fb 3C000000 		.4byte	.LVL11
 2007 03ff 0100     		.2byte	0x1
 2008 0401 50       		.byte	0x50
 2009 0402 3C000000 		.4byte	.LVL11
 2010 0406 41000000 		.4byte	.LVL12-1
 2011 040a 0100     		.2byte	0x1
 2012 040c 51       		.byte	0x51
 2013 040d 41000000 		.4byte	.LVL12-1
 2014 0411 46000000 		.4byte	.LVL13
 2015 0415 0300     		.2byte	0x3
 2016 0417 75       		.byte	0x75
 2017 0418 02       		.sleb128 2
 2018 0419 9F       		.byte	0x9f
 2019 041a 46000000 		.4byte	.LVL13
 2020 041e 50000000 		.4byte	.LVL15
 2021 0422 0100     		.2byte	0x1
 2022 0424 50       		.byte	0x50
 2023 0425 50000000 		.4byte	.LVL15
 2024 0429 55000000 		.4byte	.LVL16-1
 2025 042d 0100     		.2byte	0x1
 2026 042f 51       		.byte	0x51
 2027 0430 55000000 		.4byte	.LVL16-1
 2028 0434 5A000000 		.4byte	.LVL17
 2029 0438 0300     		.2byte	0x3
 2030 043a 75       		.byte	0x75
 2031 043b 02       		.sleb128 2
 2032 043c 9F       		.byte	0x9f
 2033 043d 5A000000 		.4byte	.LVL17
 2034 0441 5C000000 		.4byte	.LFE0
 2035 0445 0100     		.2byte	0x1
 2036 0447 50       		.byte	0x50
 2037 0448 00000000 		.4byte	0
 2038 044c 00000000 		.4byte	0
 2039              	.LLST3:
 2040 0450 00000000 		.4byte	.LVL0
 2041 0454 08000000 		.4byte	.LVL1
 2042 0458 0100     		.2byte	0x1
 2043 045a 53       		.byte	0x53
 2044 045b 08000000 		.4byte	.LVL1
 2045 045f 5C000000 		.4byte	.LFE0
 2046 0463 0400     		.2byte	0x4
 2047 0465 F3       		.byte	0xf3
 2048 0466 01       		.uleb128 0x1
 2049 0467 53       		.byte	0x53
 2050 0468 9F       		.byte	0x9f
 2051 0469 00000000 		.4byte	0
 2052 046d 00000000 		.4byte	0
ARM GAS  /tmp/ccBTgKAn.s 			page 37


 2053              		.section	.debug_aranges,"",%progbits
 2054 0000 34000000 		.4byte	0x34
 2055 0004 0200     		.2byte	0x2
 2056 0006 00000000 		.4byte	.Ldebug_info0
 2057 000a 04       		.byte	0x4
 2058 000b 00       		.byte	0
 2059 000c 0000     		.2byte	0
 2060 000e 0000     		.2byte	0
 2061 0010 00000000 		.4byte	.LFB0
 2062 0014 5C000000 		.4byte	.LFE0-.LFB0
 2063 0018 00000000 		.4byte	.LFB1
 2064 001c 10000000 		.4byte	.LFE1-.LFB1
 2065 0020 00000000 		.4byte	.LFB2
 2066 0024 84000000 		.4byte	.LFE2-.LFB2
 2067 0028 00000000 		.4byte	.LFB3
 2068 002c 1E000000 		.4byte	.LFE3-.LFB3
 2069 0030 00000000 		.4byte	0
 2070 0034 00000000 		.4byte	0
 2071              		.section	.debug_ranges,"",%progbits
 2072              	.Ldebug_ranges0:
 2073 0000 00000000 		.4byte	.LFB0
 2074 0004 5C000000 		.4byte	.LFE0
 2075 0008 00000000 		.4byte	.LFB1
 2076 000c 10000000 		.4byte	.LFE1
 2077 0010 00000000 		.4byte	.LFB2
 2078 0014 84000000 		.4byte	.LFE2
 2079 0018 00000000 		.4byte	.LFB3
 2080 001c 1E000000 		.4byte	.LFE3
 2081 0020 00000000 		.4byte	0
 2082 0024 00000000 		.4byte	0
 2083              		.section	.debug_line,"",%progbits
 2084              	.Ldebug_line0:
 2085 0000 82010000 		.section	.debug_str,"MS",%progbits,1
 2085      0200E600 
 2085      00000201 
 2085      FB0E0D00 
 2085      01010101 
 2086              	.LASF62:
 2087 0000 75617663 		.ascii	"uavcan_protocol_param_Empty_encode_internal\000"
 2087      616E5F70 
 2087      726F746F 
 2087      636F6C5F 
 2087      70617261 
 2088              	.LASF42:
 2089 002c 75617663 		.ascii	"uavcan_protocol_param_NumericValue_ENUM\000"
 2089      616E5F70 
 2089      726F746F 
 2089      636F6C5F 
 2089      70617261 
 2090              	.LASF43:
 2091 0054 696E7465 		.ascii	"integer_value\000"
 2091      6765725F 
 2091      76616C75 
 2091      6500
 2092              	.LASF27:
 2093 0062 64617461 		.ascii	"data_type_id\000"
 2093      5F747970 
ARM GAS  /tmp/ccBTgKAn.s 			page 38


 2093      655F6964 
 2093      00
 2094              	.LASF49:
 2095 006f 64657374 		.ascii	"dest\000"
 2095      00
 2096              	.LASF30:
 2097 0074 7072696F 		.ascii	"priority\000"
 2097      72697479 
 2097      00
 2098              	.LASF39:
 2099 007d 55415643 		.ascii	"UAVCAN_PROTOCOL_PARAM_NUMERICVALUE_EMPTY\000"
 2099      414E5F50 
 2099      524F544F 
 2099      434F4C5F 
 2099      50415241 
 2100              	.LASF53:
 2101 00a6 75617663 		.ascii	"uavcan_protocol_param_NumericValue_decode_internal\000"
 2101      616E5F70 
 2101      726F746F 
 2101      636F6C5F 
 2101      70617261 
 2102              	.LASF20:
 2103 00d9 75696E74 		.ascii	"uint64_t\000"
 2103      36345F74 
 2103      00
 2104              	.LASF44:
 2105 00e2 7265616C 		.ascii	"real_value\000"
 2105      5F76616C 
 2105      756500
 2106              	.LASF2:
 2107 00ed 73686F72 		.ascii	"short int\000"
 2107      7420696E 
 2107      7400
 2108              	.LASF8:
 2109 00f7 5F5F7569 		.ascii	"__uint32_t\000"
 2109      6E743332 
 2109      5F7400
 2110              	.LASF4:
 2111 0102 5F5F7569 		.ascii	"__uint16_t\000"
 2111      6E743136 
 2111      5F7400
 2112              	.LASF60:
 2113 010d 75617663 		.ascii	"uavcan_protocol_param_Empty_decode_internal\000"
 2113      616E5F70 
 2113      726F746F 
 2113      636F6C5F 
 2113      70617261 
 2114              	.LASF37:
 2115 0139 656D7074 		.ascii	"empty\000"
 2115      7900
 2116              	.LASF19:
 2117 013f 696E7436 		.ascii	"int64_t\000"
 2117      345F7400 
 2118              	.LASF52:
 2119 0147 75617663 		.ascii	"uavcan_protocol_param_NumericValue_decode\000"
 2119      616E5F70 
 2119      726F746F 
ARM GAS  /tmp/ccBTgKAn.s 			page 39


 2119      636F6C5F 
 2119      70617261 
 2120              	.LASF15:
 2121 0171 75696E74 		.ascii	"uint8_t\000"
 2121      385F7400 
 2122              	.LASF66:
 2123 0179 75617663 		.ascii	"uavcan_protocol_param_NumericValue_error_exit\000"
 2123      616E5F70 
 2123      726F746F 
 2123      636F6C5F 
 2123      70617261 
 2124              	.LASF45:
 2125 01a7 666C6F61 		.ascii	"float\000"
 2125      7400
 2126              	.LASF11:
 2127 01ad 6C6F6E67 		.ascii	"long long int\000"
 2127      206C6F6E 
 2127      6720696E 
 2127      7400
 2128              	.LASF50:
 2129 01bb 64796E5F 		.ascii	"dyn_arr_buf\000"
 2129      6172725F 
 2129      62756600 
 2130              	.LASF7:
 2131 01c7 6C6F6E67 		.ascii	"long int\000"
 2131      20696E74 
 2131      00
 2132              	.LASF10:
 2133 01d0 5F5F696E 		.ascii	"__int64_t\000"
 2133      7436345F 
 2133      7400
 2134              	.LASF51:
 2135 01da 6F666673 		.ascii	"offset\000"
 2135      657400
 2136              	.LASF3:
 2137 01e1 5F5F7569 		.ascii	"__uint8_t\000"
 2137      6E74385F 
 2137      7400
 2138              	.LASF46:
 2139 01eb 756E696F 		.ascii	"union_tag\000"
 2139      6E5F7461 
 2139      6700
 2140              	.LASF55:
 2141 01f5 736F7572 		.ascii	"source\000"
 2141      636500
 2142              	.LASF25:
 2143 01fc 7061796C 		.ascii	"payload_tail\000"
 2143      6F61645F 
 2143      7461696C 
 2143      00
 2144              	.LASF22:
 2145 0209 74696D65 		.ascii	"timestamp_usec\000"
 2145      7374616D 
 2145      705F7573 
 2145      656300
 2146              	.LASF38:
 2147 0218 75617663 		.ascii	"uavcan_protocol_param_Empty\000"
ARM GAS  /tmp/ccBTgKAn.s 			page 40


 2147      616E5F70 
 2147      726F746F 
 2147      636F6C5F 
 2147      70617261 
 2148              	.LASF47:
 2149 0234 75617663 		.ascii	"uavcan_protocol_param_NumericValue\000"
 2149      616E5F70 
 2149      726F746F 
 2149      636F6C5F 
 2149      70617261 
 2150              	.LASF1:
 2151 0257 756E7369 		.ascii	"unsigned char\000"
 2151      676E6564 
 2151      20636861 
 2151      7200
 2152              	.LASF57:
 2153 0265 75617663 		.ascii	"uavcan_protocol_param_NumericValue_encode_internal\000"
 2153      616E5F70 
 2153      726F746F 
 2153      636F6C5F 
 2153      70617261 
 2154              	.LASF24:
 2155 0298 7061796C 		.ascii	"payload_middle\000"
 2155      6F61645F 
 2155      6D696464 
 2155      6C6500
 2156              	.LASF64:
 2157 02a7 6C696263 		.ascii	"libcanard/dsdl/uavcan/protocol/param/param_NumericV"
 2157      616E6172 
 2157      642F6473 
 2157      646C2F75 
 2157      61766361 
 2158 02da 616C7565 		.ascii	"alue.c\000"
 2158      2E6300
 2159              	.LASF65:
 2160 02e1 2F626C64 		.ascii	"/bldc\000"
 2160      6300
 2161              	.LASF0:
 2162 02e7 7369676E 		.ascii	"signed char\000"
 2162      65642063 
 2162      68617200 
 2163              	.LASF13:
 2164 02f3 6C6F6E67 		.ascii	"long long unsigned int\000"
 2164      206C6F6E 
 2164      6720756E 
 2164      7369676E 
 2164      65642069 
 2165              	.LASF18:
 2166 030a 75696E74 		.ascii	"uint32_t\000"
 2166      33325F74 
 2166      00
 2167              	.LASF14:
 2168 0313 756E7369 		.ascii	"unsigned int\000"
 2168      676E6564 
 2168      20696E74 
 2168      00
 2169              	.LASF16:
ARM GAS  /tmp/ccBTgKAn.s 			page 41


 2170 0320 75696E74 		.ascii	"uint16_t\000"
 2170      31365F74 
 2170      00
 2171              	.LASF34:
 2172 0329 43616E61 		.ascii	"CanardBufferBlock\000"
 2172      72644275 
 2172      66666572 
 2172      426C6F63 
 2172      6B00
 2173              	.LASF31:
 2174 033b 736F7572 		.ascii	"source_node_id\000"
 2174      63655F6E 
 2174      6F64655F 
 2174      696400
 2175              	.LASF5:
 2176 034a 73686F72 		.ascii	"short unsigned int\000"
 2176      7420756E 
 2176      7369676E 
 2176      65642069 
 2176      6E7400
 2177              	.LASF61:
 2178 035d 63616E61 		.ascii	"canardEncodeScalar\000"
 2178      7264456E 
 2178      636F6465 
 2178      5363616C 
 2178      617200
 2179              	.LASF33:
 2180 0370 63686172 		.ascii	"char\000"
 2180      00
 2181              	.LASF32:
 2182 0375 5F426F6F 		.ascii	"_Bool\000"
 2182      6C00
 2183              	.LASF17:
 2184 037b 696E7433 		.ascii	"int32_t\000"
 2184      325F7400 
 2185              	.LASF28:
 2186 0383 7472616E 		.ascii	"transfer_type\000"
 2186      73666572 
 2186      5F747970 
 2186      6500
 2187              	.LASF23:
 2188 0391 7061796C 		.ascii	"payload_head\000"
 2188      6F61645F 
 2188      68656164 
 2188      00
 2189              	.LASF12:
 2190 039e 5F5F7569 		.ascii	"__uint64_t\000"
 2190      6E743634 
 2190      5F7400
 2191              	.LASF36:
 2192 03a9 64617461 		.ascii	"data\000"
 2192      00
 2193              	.LASF48:
 2194 03ae 7472616E 		.ascii	"transfer\000"
 2194      73666572 
 2194      00
 2195              	.LASF41:
ARM GAS  /tmp/ccBTgKAn.s 			page 42


 2196 03b7 55415643 		.ascii	"UAVCAN_PROTOCOL_PARAM_NUMERICVALUE_REAL_VALUE\000"
 2196      414E5F50 
 2196      524F544F 
 2196      434F4C5F 
 2196      50415241 
 2197              	.LASF21:
 2198 03e5 43616E61 		.ascii	"CanardRxTransfer\000"
 2198      72645278 
 2198      5472616E 
 2198      73666572 
 2198      00
 2199              	.LASF9:
 2200 03f6 6C6F6E67 		.ascii	"long unsigned int\000"
 2200      20756E73 
 2200      69676E65 
 2200      6420696E 
 2200      7400
 2201              	.LASF58:
 2202 0408 726F6F74 		.ascii	"root_item\000"
 2202      5F697465 
 2202      6D00
 2203              	.LASF6:
 2204 0412 5F5F696E 		.ascii	"__int32_t\000"
 2204      7433325F 
 2204      7400
 2205              	.LASF40:
 2206 041c 55415643 		.ascii	"UAVCAN_PROTOCOL_PARAM_NUMERICVALUE_INTEGER_VALUE\000"
 2206      414E5F50 
 2206      524F544F 
 2206      434F4C5F 
 2206      50415241 
 2207              	.LASF54:
 2208 044d 75617663 		.ascii	"uavcan_protocol_param_NumericValue_encode\000"
 2208      616E5F70 
 2208      726F746F 
 2208      636F6C5F 
 2208      70617261 
 2209              	.LASF26:
 2210 0477 7061796C 		.ascii	"payload_len\000"
 2210      6F61645F 
 2210      6C656E00 
 2211              	.LASF29:
 2212 0483 7472616E 		.ascii	"transfer_id\000"
 2212      73666572 
 2212      5F696400 
 2213              	.LASF59:
 2214 048f 63616E61 		.ascii	"canardDecodeScalar\000"
 2214      72644465 
 2214      636F6465 
 2214      5363616C 
 2214      617200
 2215              	.LASF56:
 2216 04a2 6D73675F 		.ascii	"msg_buf\000"
 2216      62756600 
 2217              	.LASF35:
 2218 04aa 6E657874 		.ascii	"next\000"
 2218      00
ARM GAS  /tmp/ccBTgKAn.s 			page 43


 2219              	.LASF63:
 2220 04af 474E5520 		.ascii	"GNU C99 7.3.1 20180622 (release) [ARM/embedded-7-br"
 2220      43393920 
 2220      372E332E 
 2220      31203230 
 2220      31383036 
 2221 04e2 616E6368 		.ascii	"anch revision 261907] -mcpu=cortex-m4 -mfloat-abi=h"
 2221      20726576 
 2221      6973696F 
 2221      6E203236 
 2221      31393037 
 2222 0515 61726420 		.ascii	"ard -mfpu=fpv4-sp-d16 -mno-thumb-interwork -mthumb "
 2222      2D6D6670 
 2222      753D6670 
 2222      76342D73 
 2222      702D6431 
 2223 0548 2D676764 		.ascii	"-ggdb -O2 -std=gnu99 -fomit-frame-pointer -falign-f"
 2223      62202D4F 
 2223      32202D73 
 2223      74643D67 
 2223      6E753939 
 2224 057b 756E6374 		.ascii	"unctions=16 -ffunction-sections -fdata-sections -fn"
 2224      696F6E73 
 2224      3D313620 
 2224      2D666675 
 2224      6E637469 
 2225 05ae 6F2D636F 		.ascii	"o-common -fsingle-precision-constant\000"
 2225      6D6D6F6E 
 2225      202D6673 
 2225      696E676C 
 2225      652D7072 
 2226              		.ident	"GCC: (GNU Tools for Arm Embedded Processors 7-2018-q3-update) 7.3.1 20180622 (release) [AR
ARM GAS  /tmp/ccBTgKAn.s 			page 44


DEFINED SYMBOLS
                            *ABS*:0000000000000000 param_NumericValue.c
     /tmp/ccBTgKAn.s:18     .text.uavcan_protocol_param_NumericValue_encode_internal:0000000000000000 $t
     /tmp/ccBTgKAn.s:26     .text.uavcan_protocol_param_NumericValue_encode_internal:0000000000000000 uavcan_protocol_param_NumericValue_encode_internal
     /tmp/ccBTgKAn.s:125    .text.uavcan_protocol_param_NumericValue_encode:0000000000000000 $t
     /tmp/ccBTgKAn.s:133    .text.uavcan_protocol_param_NumericValue_encode:0000000000000000 uavcan_protocol_param_NumericValue_encode
     /tmp/ccBTgKAn.s:160    .text.uavcan_protocol_param_NumericValue_decode_internal:0000000000000000 $t
     /tmp/ccBTgKAn.s:168    .text.uavcan_protocol_param_NumericValue_decode_internal:0000000000000000 uavcan_protocol_param_NumericValue_decode_internal
     /tmp/ccBTgKAn.s:306    .text.uavcan_protocol_param_NumericValue_decode:0000000000000000 $t
     /tmp/ccBTgKAn.s:314    .text.uavcan_protocol_param_NumericValue_decode:0000000000000000 uavcan_protocol_param_NumericValue_decode

UNDEFINED SYMBOLS
canardEncodeScalar
uavcan_protocol_param_Empty_encode_internal
canardDecodeScalar
uavcan_protocol_param_Empty_decode_internal
