ARM GAS  /tmp/cczPv8m9.s 			page 1


   1              		.cpu cortex-m4
   2              		.eabi_attribute 27, 1
   3              		.eabi_attribute 28, 1
   4              		.eabi_attribute 20, 1
   5              		.eabi_attribute 21, 1
   6              		.eabi_attribute 23, 3
   7              		.eabi_attribute 24, 1
   8              		.eabi_attribute 25, 1
   9              		.eabi_attribute 26, 1
  10              		.eabi_attribute 30, 2
  11              		.eabi_attribute 34, 1
  12              		.eabi_attribute 18, 4
  13              		.file	"param_GetSet.c"
  14              		.text
  15              	.Ltext0:
  16              		.cfi_sections	.debug_frame
  17              		.section	.text.uavcan_protocol_param_GetSetRequest_encode_internal,"ax",%progbits
  18              		.align	1
  19              		.p2align 4,,15
  20              		.global	uavcan_protocol_param_GetSetRequest_encode_internal
  21              		.syntax unified
  22              		.thumb
  23              		.thumb_func
  24              		.fpu fpv4-sp-d16
  25              		.type	uavcan_protocol_param_GetSetRequest_encode_internal, %function
  26              	uavcan_protocol_param_GetSetRequest_encode_internal:
  27              	.LFB0:
  28              		.file 1 "libcanard/dsdl/uavcan/protocol/param/param_GetSet.c"
  29              		.loc 1 37 0
  30              		.cfi_startproc
  31              		@ args = 0, pretend = 0, frame = 0
  32              		@ frame_needed = 0, uses_anonymous_args = 0
  33              	.LVL0:
  34 0000 2DE9F041 		push	{r4, r5, r6, r7, r8, lr}
  35              		.cfi_def_cfa_offset 24
  36              		.cfi_offset 4, -24
  37              		.cfi_offset 5, -20
  38              		.cfi_offset 6, -16
  39              		.cfi_offset 7, -12
  40              		.cfi_offset 8, -8
  41              		.cfi_offset 14, -4
  42              		.loc 1 37 0
  43 0004 0646     		mov	r6, r0
  44              		.loc 1 40 0
  45 0006 0088     		ldrh	r0, [r0]
  46              	.LVL1:
  47 0008 41F6FF75 		movw	r5, #8191
  48 000c A842     		cmp	r0, r5
  49 000e 28BF     		it	cs
  50 0010 2846     		movcs	r0, r5
  51              		.loc 1 37 0
  52 0012 0F46     		mov	r7, r1
  53 0014 1446     		mov	r4, r2
  54              		.loc 1 41 0
  55 0016 1146     		mov	r1, r2
  56              	.LVL2:
  57              		.loc 1 40 0
ARM GAS  /tmp/cczPv8m9.s 			page 2


  58 0018 3080     		strh	r0, [r6]	@ movhi
  59              		.loc 1 41 0
  60 001a 0D22     		movs	r2, #13
  61              	.LVL3:
  62 001c 3846     		mov	r0, r7
  63              		.loc 1 37 0
  64 001e 9846     		mov	r8, r3
  65              		.loc 1 41 0
  66 0020 3346     		mov	r3, r6
  67              	.LVL4:
  68 0022 FFF7FEFF 		bl	canardEncodeScalar
  69              	.LVL5:
  70              		.loc 1 45 0
  71 0026 04F10D02 		add	r2, r4, #13
  72              	.LVL6:
  73 002a 3946     		mov	r1, r7
  74 002c 06F10800 		add	r0, r6, #8
  75 0030 0023     		movs	r3, #0
  76 0032 FFF7FEFF 		bl	uavcan_protocol_param_Value_encode_internal
  77              	.LVL7:
  78 0036 0546     		mov	r5, r0
  79              	.LVL8:
  80              		.loc 1 48 0
  81 0038 B8F1000F 		cmp	r8, #0
  82 003c 12D0     		beq	.L11
  83              	.LVL9:
  84              	.L2:
  85              		.loc 1 56 0 discriminator 1
  86 003e 337E     		ldrb	r3, [r6, #24]	@ zero_extendqisi2
  87 0040 6BB1     		cbz	r3, .L1
  88              		.loc 1 56 0 is_stmt 0
  89 0042 0024     		movs	r4, #0
  90              	.LVL10:
  91              	.L4:
  92              		.loc 1 61 0 is_stmt 1 discriminator 3
  93 0044 F369     		ldr	r3, [r6, #28]
  94              		.loc 1 58 0 discriminator 3
  95 0046 2946     		mov	r1, r5
  96 0048 2344     		add	r3, r3, r4
  97 004a 0822     		movs	r2, #8
  98 004c 3846     		mov	r0, r7
  99 004e FFF7FEFF 		bl	canardEncodeScalar
 100              	.LVL11:
 101              		.loc 1 56 0 discriminator 3
 102 0052 337E     		ldrb	r3, [r6, #24]	@ zero_extendqisi2
 103 0054 0134     		adds	r4, r4, #1
 104              	.LVL12:
 105 0056 A342     		cmp	r3, r4
 106              		.loc 1 62 0 discriminator 3
 107 0058 05F10805 		add	r5, r5, #8
 108              	.LVL13:
 109              		.loc 1 56 0 discriminator 3
 110 005c F2D8     		bhi	.L4
 111              	.LVL14:
 112              	.L1:
 113              		.loc 1 66 0
 114 005e 2846     		mov	r0, r5
ARM GAS  /tmp/cczPv8m9.s 			page 3


 115 0060 BDE8F081 		pop	{r4, r5, r6, r7, r8, pc}
 116              	.LVL15:
 117              	.L11:
 118              		.loc 1 51 0
 119 0064 0146     		mov	r1, r0
 120 0066 06F11803 		add	r3, r6, #24
 121 006a 0722     		movs	r2, #7
 122 006c 3846     		mov	r0, r7
 123              	.LVL16:
 124 006e FFF7FEFF 		bl	canardEncodeScalar
 125              	.LVL17:
 126              		.loc 1 52 0
 127 0072 0735     		adds	r5, r5, #7
 128              	.LVL18:
 129 0074 E3E7     		b	.L2
 130              		.cfi_endproc
 131              	.LFE0:
 132              		.size	uavcan_protocol_param_GetSetRequest_encode_internal, .-uavcan_protocol_param_GetSetRequest_e
 133 0076 00BF     		.section	.text.uavcan_protocol_param_GetSetRequest_encode,"ax",%progbits
 134              		.align	1
 135              		.p2align 4,,15
 136              		.global	uavcan_protocol_param_GetSetRequest_encode
 137              		.syntax unified
 138              		.thumb
 139              		.thumb_func
 140              		.fpu fpv4-sp-d16
 141              		.type	uavcan_protocol_param_GetSetRequest_encode, %function
 142              	uavcan_protocol_param_GetSetRequest_encode:
 143              	.LFB1:
 144              		.loc 1 75 0
 145              		.cfi_startproc
 146              		@ args = 0, pretend = 0, frame = 0
 147              		@ frame_needed = 0, uses_anonymous_args = 0
 148              	.LVL19:
 149 0000 08B5     		push	{r3, lr}
 150              		.cfi_def_cfa_offset 8
 151              		.cfi_offset 3, -8
 152              		.cfi_offset 14, -4
 153              		.loc 1 78 0
 154 0002 0022     		movs	r2, #0
 155 0004 0123     		movs	r3, #1
 156 0006 FFF7FEFF 		bl	uavcan_protocol_param_GetSetRequest_encode_internal
 157              	.LVL20:
 158              		.loc 1 80 0
 159 000a 0730     		adds	r0, r0, #7
 160              	.LVL21:
 161              		.loc 1 81 0
 162 000c C008     		lsrs	r0, r0, #3
 163              	.LVL22:
 164 000e 08BD     		pop	{r3, pc}
 165              		.cfi_endproc
 166              	.LFE1:
 167              		.size	uavcan_protocol_param_GetSetRequest_encode, .-uavcan_protocol_param_GetSetRequest_encode
 168              		.section	.text.uavcan_protocol_param_GetSetRequest_decode_internal,"ax",%progbits
 169              		.align	1
 170              		.p2align 4,,15
 171              		.global	uavcan_protocol_param_GetSetRequest_decode_internal
ARM GAS  /tmp/cczPv8m9.s 			page 4


 172              		.syntax unified
 173              		.thumb
 174              		.thumb_func
 175              		.fpu fpv4-sp-d16
 176              		.type	uavcan_protocol_param_GetSetRequest_decode_internal, %function
 177              	uavcan_protocol_param_GetSetRequest_decode_internal:
 178              	.LFB2:
 179              		.loc 1 100 0
 180              		.cfi_startproc
 181              		@ args = 4, pretend = 0, frame = 0
 182              		@ frame_needed = 0, uses_anonymous_args = 0
 183              	.LVL23:
 184 0000 2DE9F043 		push	{r4, r5, r6, r7, r8, r9, lr}
 185              		.cfi_def_cfa_offset 28
 186              		.cfi_offset 4, -28
 187              		.cfi_offset 5, -24
 188              		.cfi_offset 6, -20
 189              		.cfi_offset 7, -16
 190              		.cfi_offset 8, -12
 191              		.cfi_offset 9, -8
 192              		.cfi_offset 14, -4
 193 0004 83B0     		sub	sp, sp, #12
 194              		.cfi_def_cfa_offset 40
 195              		.loc 1 100 0
 196 0006 1646     		mov	r6, r2
 197              		.loc 1 104 0
 198 0008 0092     		str	r2, [sp]
 199              		.loc 1 100 0
 200 000a 0F46     		mov	r7, r1
 201 000c 1D46     		mov	r5, r3
 202              		.loc 1 104 0
 203 000e 0A99     		ldr	r1, [sp, #40]
 204              	.LVL24:
 205 0010 0023     		movs	r3, #0
 206              	.LVL25:
 207 0012 0D22     		movs	r2, #13
 208              	.LVL26:
 209              		.loc 1 100 0
 210 0014 8146     		mov	r9, r0
 211              		.loc 1 104 0
 212 0016 FFF7FEFF 		bl	canardDecodeScalar
 213              	.LVL27:
 214              		.loc 1 105 0
 215 001a 0D28     		cmp	r0, #13
 216              		.loc 1 104 0
 217 001c 0446     		mov	r4, r0
 218              	.LVL28:
 219              		.loc 1 105 0
 220 001e 07D0     		beq	.L37
 221              	.LVL29:
 222              	.L15:
 223              		.loc 1 173 0
 224 0020 002C     		cmp	r4, #0
 225 0022 A8BF     		it	ge
 226 0024 6FF00804 		mvnge	r4, #8
 227              	.LVL30:
 228              	.L14:
ARM GAS  /tmp/cczPv8m9.s 			page 5


 229              		.loc 1 175 0
 230 0028 2046     		mov	r0, r4
 231 002a 03B0     		add	sp, sp, #12
 232              		.cfi_remember_state
 233              		.cfi_def_cfa_offset 28
 234              		@ sp needed
 235 002c BDE8F083 		pop	{r4, r5, r6, r7, r8, r9, pc}
 236              	.LVL31:
 237              	.L37:
 238              		.cfi_restore_state
 239              		.loc 1 109 0
 240 0030 0A9B     		ldr	r3, [sp, #40]
 241 0032 0D33     		adds	r3, r3, #13
 242              	.LVL32:
 243              		.loc 1 112 0
 244 0034 0093     		str	r3, [sp]
 245 0036 06F10802 		add	r2, r6, #8
 246 003a 2B46     		mov	r3, r5
 247              	.LVL33:
 248 003c 3946     		mov	r1, r7
 249 003e 4846     		mov	r0, r9
 250              	.LVL34:
 251 0040 FFF7FEFF 		bl	uavcan_protocol_param_Value_decode_internal
 252              	.LVL35:
 253              		.loc 1 113 0
 254 0044 041E     		subs	r4, r0, #0
 255              	.LVL36:
 256 0046 EFDB     		blt	.L14
 257              		.loc 1 121 0
 258 0048 2FB3     		cbz	r7, .L17
 259              		.loc 1 124 0
 260 004a D4EBC707 		rsbs	r7, r4, r7, lsl #3
 261 004e 48BF     		it	mi
 262 0050 0737     		addmi	r7, r7, #7
 263 0052 C7F3C707 		ubfx	r7, r7, #3, #8
 264 0056 3776     		strb	r7, [r6, #24]
 265              	.LVL37:
 266              	.L19:
 267              		.loc 1 142 0
 268 0058 0DB1     		cbz	r5, .L20
 269              		.loc 1 144 0
 270 005a 2B68     		ldr	r3, [r5]
 271 005c F361     		str	r3, [r6, #28]
 272              	.L20:
 273              		.loc 1 147 0 discriminator 1
 274 005e 002F     		cmp	r7, #0
 275 0060 E2D0     		beq	.L14
 276              		.loc 1 147 0 is_stmt 0
 277 0062 4FF00008 		mov	r8, #0
 278 0066 05E0     		b	.L22
 279              	.LVL38:
 280              	.L38:
 281              		.loc 1 160 0 is_stmt 1
 282 0068 2B68     		ldr	r3, [r5]
 283 006a 0133     		adds	r3, r3, #1
 284 006c 2B60     		str	r3, [r5]
 285              	.LVL39:
ARM GAS  /tmp/cczPv8m9.s 			page 6


 286              	.L21:
 287              		.loc 1 147 0 discriminator 2
 288 006e 337E     		ldrb	r3, [r6, #24]	@ zero_extendqisi2
 289 0070 4345     		cmp	r3, r8
 290 0072 D9D9     		bls	.L14
 291              	.LVL40:
 292              	.L22:
 293              		.loc 1 151 0
 294 0074 0822     		movs	r2, #8
 295 0076 2146     		mov	r1, r4
 296 0078 0023     		movs	r3, #0
 297 007a 4846     		mov	r0, r9
 298              		.loc 1 147 0
 299 007c 08F10108 		add	r8, r8, #1
 300              	.LVL41:
 301              		.loc 1 162 0
 302 0080 1444     		add	r4, r4, r2
 303              	.LVL42:
 304              		.loc 1 149 0
 305 0082 002D     		cmp	r5, #0
 306 0084 F3D0     		beq	.L21
 307              	.LVL43:
 308              		.loc 1 151 0
 309 0086 2F68     		ldr	r7, [r5]
 310 0088 0097     		str	r7, [sp]
 311 008a FFF7FEFF 		bl	canardDecodeScalar
 312              	.LVL44:
 313              		.loc 1 156 0
 314 008e 0828     		cmp	r0, #8
 315 0090 EAD0     		beq	.L38
 316              	.LVL45:
 317              	.L24:
 318              		.loc 1 166 0
 319 0092 0446     		mov	r4, r0
 320 0094 C4E7     		b	.L15
 321              	.LVL46:
 322              	.L17:
 323              		.loc 1 133 0
 324 0096 06F11802 		add	r2, r6, #24
 325              		.loc 1 129 0
 326 009a 0092     		str	r2, [sp]
 327 009c 3B46     		mov	r3, r7
 328 009e 0722     		movs	r2, #7
 329 00a0 2146     		mov	r1, r4
 330 00a2 4846     		mov	r0, r9
 331              	.LVL47:
 332 00a4 FFF7FEFF 		bl	canardDecodeScalar
 333              	.LVL48:
 334              		.loc 1 134 0
 335 00a8 0728     		cmp	r0, #7
 336 00aa F2D1     		bne	.L24
 337 00ac 377E     		ldrb	r7, [r6, #24]	@ zero_extendqisi2
 338              		.loc 1 138 0
 339 00ae 0734     		adds	r4, r4, #7
 340              	.LVL49:
 341 00b0 D2E7     		b	.L19
 342              		.cfi_endproc
ARM GAS  /tmp/cczPv8m9.s 			page 7


 343              	.LFE2:
 344              		.size	uavcan_protocol_param_GetSetRequest_decode_internal, .-uavcan_protocol_param_GetSetRequest_d
 345 00b2 00BF     		.section	.text.uavcan_protocol_param_GetSetRequest_decode,"ax",%progbits
 346              		.align	1
 347              		.p2align 4,,15
 348              		.global	uavcan_protocol_param_GetSetRequest_decode
 349              		.syntax unified
 350              		.thumb
 351              		.thumb_func
 352              		.fpu fpv4-sp-d16
 353              		.type	uavcan_protocol_param_GetSetRequest_decode, %function
 354              	uavcan_protocol_param_GetSetRequest_decode:
 355              	.LFB3:
 356              		.loc 1 191 0
 357              		.cfi_startproc
 358              		@ args = 0, pretend = 0, frame = 0
 359              		@ frame_needed = 0, uses_anonymous_args = 0
 360              	.LVL50:
 361 0000 70B5     		push	{r4, r5, r6, lr}
 362              		.cfi_def_cfa_offset 16
 363              		.cfi_offset 4, -16
 364              		.cfi_offset 5, -12
 365              		.cfi_offset 6, -8
 366              		.cfi_offset 14, -4
 367 0002 541E     		subs	r4, r2, #1
 368 0004 82B0     		sub	sp, sp, #8
 369              		.cfi_def_cfa_offset 24
 370 0006 02F11F06 		add	r6, r2, #31
 371              	.LBB2:
 372              		.loc 1 198 0
 373 000a 0025     		movs	r5, #0
 374              	.LVL51:
 375              	.L40:
 376              		.loc 1 198 0 is_stmt 0 discriminator 3
 377 000c 04F8015F 		strb	r5, [r4, #1]!
 378              		.loc 1 196 0 is_stmt 1 discriminator 3
 379 0010 B442     		cmp	r4, r6
 380 0012 FBD1     		bne	.L40
 381              	.LBE2:
 382              		.loc 1 201 0
 383 0014 0095     		str	r5, [sp]
 384 0016 FFF7FEFF 		bl	uavcan_protocol_param_GetSetRequest_decode_internal
 385              	.LVL52:
 386              		.loc 1 204 0
 387 001a 02B0     		add	sp, sp, #8
 388              		.cfi_def_cfa_offset 16
 389              		@ sp needed
 390 001c 70BD     		pop	{r4, r5, r6, pc}
 391              		.cfi_endproc
 392              	.LFE3:
 393              		.size	uavcan_protocol_param_GetSetRequest_decode, .-uavcan_protocol_param_GetSetRequest_decode
 394 001e 00BF     		.section	.text.uavcan_protocol_param_GetSetResponse_encode_internal,"ax",%progbits
 395              		.align	1
 396              		.p2align 4,,15
 397              		.global	uavcan_protocol_param_GetSetResponse_encode_internal
 398              		.syntax unified
 399              		.thumb
ARM GAS  /tmp/cczPv8m9.s 			page 8


 400              		.thumb_func
 401              		.fpu fpv4-sp-d16
 402              		.type	uavcan_protocol_param_GetSetResponse_encode_internal, %function
 403              	uavcan_protocol_param_GetSetResponse_encode_internal:
 404              	.LFB4:
 405              		.loc 1 218 0
 406              		.cfi_startproc
 407              		@ args = 0, pretend = 0, frame = 0
 408              		@ frame_needed = 0, uses_anonymous_args = 0
 409              	.LVL53:
 410 0000 F8B5     		push	{r3, r4, r5, r6, r7, lr}
 411              		.cfi_def_cfa_offset 24
 412              		.cfi_offset 3, -24
 413              		.cfi_offset 4, -20
 414              		.cfi_offset 5, -16
 415              		.cfi_offset 6, -12
 416              		.cfi_offset 7, -8
 417              		.cfi_offset 14, -4
 418              		.loc 1 225 0
 419 0002 0532     		adds	r2, r2, #5
 420              	.LVL54:
 421              		.loc 1 218 0
 422 0004 1C46     		mov	r4, r3
 423              		.loc 1 225 0
 424 0006 0023     		movs	r3, #0
 425              	.LVL55:
 426              		.loc 1 218 0
 427 0008 0646     		mov	r6, r0
 428 000a 0F46     		mov	r7, r1
 429              		.loc 1 225 0
 430 000c FFF7FEFF 		bl	uavcan_protocol_param_Value_encode_internal
 431              	.LVL56:
 432              		.loc 1 231 0
 433 0010 3946     		mov	r1, r7
 434 0012 421D     		adds	r2, r0, #5
 435              	.LVL57:
 436 0014 0023     		movs	r3, #0
 437 0016 06F11000 		add	r0, r6, #16
 438 001a FFF7FEFF 		bl	uavcan_protocol_param_Value_encode_internal
 439              	.LVL58:
 440              		.loc 1 237 0
 441 001e 3946     		mov	r1, r7
 442 0020 821D     		adds	r2, r0, #6
 443              	.LVL59:
 444 0022 0023     		movs	r3, #0
 445 0024 06F12000 		add	r0, r6, #32
 446 0028 FFF7FEFF 		bl	uavcan_protocol_param_NumericValue_encode_internal
 447              	.LVL60:
 448              		.loc 1 243 0
 449 002c 3946     		mov	r1, r7
 450 002e 821D     		adds	r2, r0, #6
 451              	.LVL61:
 452 0030 0023     		movs	r3, #0
 453 0032 06F13000 		add	r0, r6, #48
 454 0036 FFF7FEFF 		bl	uavcan_protocol_param_NumericValue_encode_internal
 455              	.LVL62:
 456 003a 0546     		mov	r5, r0
ARM GAS  /tmp/cczPv8m9.s 			page 9


 457              	.LVL63:
 458              		.loc 1 246 0
 459 003c 9CB1     		cbz	r4, .L52
 460              	.LVL64:
 461              	.L44:
 462              		.loc 1 254 0 discriminator 1
 463 003e 96F84030 		ldrb	r3, [r6, #64]	@ zero_extendqisi2
 464 0042 73B1     		cbz	r3, .L43
 465              		.loc 1 254 0 is_stmt 0
 466 0044 0024     		movs	r4, #0
 467              	.LVL65:
 468              	.L46:
 469              		.loc 1 259 0 is_stmt 1 discriminator 3
 470 0046 736C     		ldr	r3, [r6, #68]
 471              		.loc 1 256 0 discriminator 3
 472 0048 2946     		mov	r1, r5
 473 004a 2344     		add	r3, r3, r4
 474 004c 0822     		movs	r2, #8
 475 004e 3846     		mov	r0, r7
 476 0050 FFF7FEFF 		bl	canardEncodeScalar
 477              	.LVL66:
 478              		.loc 1 254 0 discriminator 3
 479 0054 96F84030 		ldrb	r3, [r6, #64]	@ zero_extendqisi2
 480 0058 0134     		adds	r4, r4, #1
 481              	.LVL67:
 482 005a A342     		cmp	r3, r4
 483              		.loc 1 260 0 discriminator 3
 484 005c 05F10805 		add	r5, r5, #8
 485              	.LVL68:
 486              		.loc 1 254 0 discriminator 3
 487 0060 F1D8     		bhi	.L46
 488              	.LVL69:
 489              	.L43:
 490              		.loc 1 264 0
 491 0062 2846     		mov	r0, r5
 492 0064 F8BD     		pop	{r3, r4, r5, r6, r7, pc}
 493              	.LVL70:
 494              	.L52:
 495              		.loc 1 249 0
 496 0066 0146     		mov	r1, r0
 497 0068 06F14003 		add	r3, r6, #64
 498 006c 0722     		movs	r2, #7
 499 006e 3846     		mov	r0, r7
 500              	.LVL71:
 501 0070 FFF7FEFF 		bl	canardEncodeScalar
 502              	.LVL72:
 503              		.loc 1 250 0
 504 0074 0735     		adds	r5, r5, #7
 505              	.LVL73:
 506 0076 E2E7     		b	.L44
 507              		.cfi_endproc
 508              	.LFE4:
 509              		.size	uavcan_protocol_param_GetSetResponse_encode_internal, .-uavcan_protocol_param_GetSetResponse
 510              		.section	.text.uavcan_protocol_param_GetSetResponse_encode,"ax",%progbits
 511              		.align	1
 512              		.p2align 4,,15
 513              		.global	uavcan_protocol_param_GetSetResponse_encode
ARM GAS  /tmp/cczPv8m9.s 			page 10


 514              		.syntax unified
 515              		.thumb
 516              		.thumb_func
 517              		.fpu fpv4-sp-d16
 518              		.type	uavcan_protocol_param_GetSetResponse_encode, %function
 519              	uavcan_protocol_param_GetSetResponse_encode:
 520              	.LFB5:
 521              		.loc 1 273 0
 522              		.cfi_startproc
 523              		@ args = 0, pretend = 0, frame = 0
 524              		@ frame_needed = 0, uses_anonymous_args = 0
 525              	.LVL74:
 526 0000 08B5     		push	{r3, lr}
 527              		.cfi_def_cfa_offset 8
 528              		.cfi_offset 3, -8
 529              		.cfi_offset 14, -4
 530              		.loc 1 276 0
 531 0002 0022     		movs	r2, #0
 532 0004 0123     		movs	r3, #1
 533 0006 FFF7FEFF 		bl	uavcan_protocol_param_GetSetResponse_encode_internal
 534              	.LVL75:
 535              		.loc 1 278 0
 536 000a 0730     		adds	r0, r0, #7
 537              	.LVL76:
 538              		.loc 1 279 0
 539 000c C008     		lsrs	r0, r0, #3
 540              	.LVL77:
 541 000e 08BD     		pop	{r3, pc}
 542              		.cfi_endproc
 543              	.LFE5:
 544              		.size	uavcan_protocol_param_GetSetResponse_encode, .-uavcan_protocol_param_GetSetResponse_encode
 545              		.section	.text.uavcan_protocol_param_GetSetResponse_decode_internal,"ax",%progbits
 546              		.align	1
 547              		.p2align 4,,15
 548              		.global	uavcan_protocol_param_GetSetResponse_decode_internal
 549              		.syntax unified
 550              		.thumb
 551              		.thumb_func
 552              		.fpu fpv4-sp-d16
 553              		.type	uavcan_protocol_param_GetSetResponse_decode_internal, %function
 554              	uavcan_protocol_param_GetSetResponse_decode_internal:
 555              	.LFB6:
 556              		.loc 1 298 0
 557              		.cfi_startproc
 558              		@ args = 4, pretend = 0, frame = 0
 559              		@ frame_needed = 0, uses_anonymous_args = 0
 560              	.LVL78:
 561 0000 2DE9F043 		push	{r4, r5, r6, r7, r8, r9, lr}
 562              		.cfi_def_cfa_offset 28
 563              		.cfi_offset 4, -28
 564              		.cfi_offset 5, -24
 565              		.cfi_offset 6, -20
 566              		.cfi_offset 7, -16
 567              		.cfi_offset 8, -12
 568              		.cfi_offset 9, -8
 569              		.cfi_offset 14, -4
 570 0004 83B0     		sub	sp, sp, #12
ARM GAS  /tmp/cczPv8m9.s 			page 11


 571              		.cfi_def_cfa_offset 40
 572              		.loc 1 298 0
 573 0006 8146     		mov	r9, r0
 574 0008 0A9C     		ldr	r4, [sp, #40]
 575              		.loc 1 303 0
 576 000a 0534     		adds	r4, r4, #5
 577              	.LVL79:
 578              		.loc 1 306 0
 579 000c 0094     		str	r4, [sp]
 580              		.loc 1 298 0
 581 000e 0D46     		mov	r5, r1
 582 0010 9046     		mov	r8, r2
 583 0012 1E46     		mov	r6, r3
 584              		.loc 1 306 0
 585 0014 FFF7FEFF 		bl	uavcan_protocol_param_Value_decode_internal
 586              	.LVL80:
 587              		.loc 1 307 0
 588 0018 041E     		subs	r4, r0, #0
 589 001a 03DA     		bge	.L76
 590              	.LVL81:
 591              	.L55:
 592              		.loc 1 402 0
 593 001c 2046     		mov	r0, r4
 594 001e 03B0     		add	sp, sp, #12
 595              		.cfi_remember_state
 596              		.cfi_def_cfa_offset 28
 597              		@ sp needed
 598 0020 BDE8F083 		pop	{r4, r5, r6, r7, r8, r9, pc}
 599              	.LVL82:
 600              	.L76:
 601              		.cfi_restore_state
 602              		.loc 1 314 0
 603 0024 0534     		adds	r4, r4, #5
 604              	.LVL83:
 605              		.loc 1 317 0
 606 0026 0094     		str	r4, [sp]
 607 0028 3346     		mov	r3, r6
 608 002a 08F11002 		add	r2, r8, #16
 609 002e 2946     		mov	r1, r5
 610 0030 4846     		mov	r0, r9
 611 0032 FFF7FEFF 		bl	uavcan_protocol_param_Value_decode_internal
 612              	.LVL84:
 613              		.loc 1 318 0
 614 0036 041E     		subs	r4, r0, #0
 615 0038 F0DB     		blt	.L55
 616              		.loc 1 325 0
 617 003a 0634     		adds	r4, r4, #6
 618              	.LVL85:
 619              		.loc 1 328 0
 620 003c 0094     		str	r4, [sp]
 621 003e 3346     		mov	r3, r6
 622 0040 08F12002 		add	r2, r8, #32
 623 0044 2946     		mov	r1, r5
 624 0046 4846     		mov	r0, r9
 625 0048 FFF7FEFF 		bl	uavcan_protocol_param_NumericValue_decode_internal
 626              	.LVL86:
 627              		.loc 1 329 0
ARM GAS  /tmp/cczPv8m9.s 			page 12


 628 004c 041E     		subs	r4, r0, #0
 629 004e E5DB     		blt	.L55
 630              		.loc 1 336 0
 631 0050 0634     		adds	r4, r4, #6
 632              	.LVL87:
 633              		.loc 1 339 0
 634 0052 0094     		str	r4, [sp]
 635 0054 3346     		mov	r3, r6
 636 0056 08F13002 		add	r2, r8, #48
 637 005a 2946     		mov	r1, r5
 638 005c 4846     		mov	r0, r9
 639 005e FFF7FEFF 		bl	uavcan_protocol_param_NumericValue_decode_internal
 640              	.LVL88:
 641              		.loc 1 340 0
 642 0062 041E     		subs	r4, r0, #0
 643 0064 DADB     		blt	.L55
 644              		.loc 1 348 0
 645 0066 2DB3     		cbz	r5, .L57
 646              		.loc 1 351 0
 647 0068 D4EBC505 		rsbs	r5, r4, r5, lsl #3
 648 006c 48BF     		it	mi
 649 006e 0735     		addmi	r5, r5, #7
 650 0070 C5F3C705 		ubfx	r5, r5, #3, #8
 651 0074 88F84050 		strb	r5, [r8, #64]
 652              	.LVL89:
 653              	.L59:
 654              		.loc 1 369 0
 655 0078 16B1     		cbz	r6, .L61
 656              		.loc 1 371 0
 657 007a 3368     		ldr	r3, [r6]
 658 007c C8F84430 		str	r3, [r8, #68]
 659              	.L61:
 660              		.loc 1 374 0 discriminator 1
 661 0080 002D     		cmp	r5, #0
 662 0082 CBD0     		beq	.L55
 663              		.loc 1 374 0 is_stmt 0
 664 0084 0025     		movs	r5, #0
 665 0086 06E0     		b	.L63
 666              	.LVL90:
 667              	.L77:
 668              		.loc 1 387 0 is_stmt 1
 669 0088 3368     		ldr	r3, [r6]
 670 008a 0133     		adds	r3, r3, #1
 671 008c 3360     		str	r3, [r6]
 672              	.LVL91:
 673              	.L62:
 674              		.loc 1 374 0 discriminator 2
 675 008e 98F84030 		ldrb	r3, [r8, #64]	@ zero_extendqisi2
 676 0092 AB42     		cmp	r3, r5
 677 0094 C2D9     		bls	.L55
 678              	.LVL92:
 679              	.L63:
 680              		.loc 1 378 0
 681 0096 0822     		movs	r2, #8
 682 0098 2146     		mov	r1, r4
 683 009a 0023     		movs	r3, #0
 684 009c 4846     		mov	r0, r9
ARM GAS  /tmp/cczPv8m9.s 			page 13


 685              		.loc 1 374 0
 686 009e 0135     		adds	r5, r5, #1
 687              	.LVL93:
 688              		.loc 1 389 0
 689 00a0 1444     		add	r4, r4, r2
 690              	.LVL94:
 691              		.loc 1 376 0
 692 00a2 002E     		cmp	r6, #0
 693 00a4 F3D0     		beq	.L62
 694              	.LVL95:
 695              		.loc 1 378 0
 696 00a6 3768     		ldr	r7, [r6]
 697 00a8 0097     		str	r7, [sp]
 698 00aa FFF7FEFF 		bl	canardDecodeScalar
 699              	.LVL96:
 700              		.loc 1 383 0
 701 00ae 0828     		cmp	r0, #8
 702 00b0 EAD0     		beq	.L77
 703              		.loc 1 393 0
 704 00b2 0AE0     		b	.L60
 705              	.LVL97:
 706              	.L57:
 707              		.loc 1 360 0
 708 00b4 08F14002 		add	r2, r8, #64
 709              		.loc 1 356 0
 710 00b8 0092     		str	r2, [sp]
 711 00ba 2B46     		mov	r3, r5
 712 00bc 0722     		movs	r2, #7
 713 00be 2146     		mov	r1, r4
 714 00c0 4846     		mov	r0, r9
 715              	.LVL98:
 716 00c2 FFF7FEFF 		bl	canardDecodeScalar
 717              	.LVL99:
 718              		.loc 1 361 0
 719 00c6 0728     		cmp	r0, #7
 720 00c8 05D0     		beq	.L78
 721              	.LVL100:
 722              	.L60:
 723              		.loc 1 394 0
 724 00ca 0028     		cmp	r0, #0
 725 00cc B4BF     		ite	lt
 726 00ce 0446     		movlt	r4, r0
 727 00d0 6FF00804 		mvnge	r4, #8
 728 00d4 A2E7     		b	.L55
 729              	.LVL101:
 730              	.L78:
 731 00d6 98F84050 		ldrb	r5, [r8, #64]	@ zero_extendqisi2
 732              		.loc 1 365 0
 733 00da 0734     		adds	r4, r4, #7
 734              	.LVL102:
 735 00dc CCE7     		b	.L59
 736              		.cfi_endproc
 737              	.LFE6:
 738              		.size	uavcan_protocol_param_GetSetResponse_decode_internal, .-uavcan_protocol_param_GetSetResponse
 739 00de 00BF     		.section	.text.uavcan_protocol_param_GetSetResponse_decode,"ax",%progbits
 740              		.align	1
 741              		.p2align 4,,15
ARM GAS  /tmp/cczPv8m9.s 			page 14


 742              		.global	uavcan_protocol_param_GetSetResponse_decode
 743              		.syntax unified
 744              		.thumb
 745              		.thumb_func
 746              		.fpu fpv4-sp-d16
 747              		.type	uavcan_protocol_param_GetSetResponse_decode, %function
 748              	uavcan_protocol_param_GetSetResponse_decode:
 749              	.LFB7:
 750              		.loc 1 418 0
 751              		.cfi_startproc
 752              		@ args = 0, pretend = 0, frame = 0
 753              		@ frame_needed = 0, uses_anonymous_args = 0
 754              	.LVL103:
 755 0000 70B5     		push	{r4, r5, r6, lr}
 756              		.cfi_def_cfa_offset 16
 757              		.cfi_offset 4, -16
 758              		.cfi_offset 5, -12
 759              		.cfi_offset 6, -8
 760              		.cfi_offset 14, -4
 761 0002 541E     		subs	r4, r2, #1
 762 0004 82B0     		sub	sp, sp, #8
 763              		.cfi_def_cfa_offset 24
 764 0006 02F14706 		add	r6, r2, #71
 765              	.LBB3:
 766              		.loc 1 425 0
 767 000a 0025     		movs	r5, #0
 768              	.LVL104:
 769              	.L80:
 770              		.loc 1 425 0 is_stmt 0 discriminator 3
 771 000c 04F8015F 		strb	r5, [r4, #1]!
 772              		.loc 1 423 0 is_stmt 1 discriminator 3
 773 0010 B442     		cmp	r4, r6
 774 0012 FBD1     		bne	.L80
 775              	.LBE3:
 776              		.loc 1 428 0
 777 0014 0095     		str	r5, [sp]
 778 0016 FFF7FEFF 		bl	uavcan_protocol_param_GetSetResponse_decode_internal
 779              	.LVL105:
 780              		.loc 1 431 0
 781 001a 02B0     		add	sp, sp, #8
 782              		.cfi_def_cfa_offset 16
 783              		@ sp needed
 784 001c 70BD     		pop	{r4, r5, r6, pc}
 785              		.cfi_endproc
 786              	.LFE7:
 787              		.size	uavcan_protocol_param_GetSetResponse_decode, .-uavcan_protocol_param_GetSetResponse_decode
 788 001e 00BF     		.text
 789              	.Letext0:
 790              		.file 2 "/usr/arm-none-eabi/include/machine/_default_types.h"
 791              		.file 3 "/usr/arm-none-eabi/include/sys/_stdint.h"
 792              		.file 4 "libcanard/canard.h"
 793              		.file 5 "libcanard/dsdl/uavcan/protocol/param/Empty.h"
 794              		.file 6 "libcanard/dsdl/uavcan/protocol/param/NumericValue.h"
 795              		.file 7 "libcanard/dsdl/uavcan/protocol/param/Value.h"
 796              		.file 8 "libcanard/dsdl/uavcan/protocol/param/GetSet.h"