ARM GAS  /tmp/ccGu2stm.s 			page 1


   1              		.cpu cortex-m4
   2              		.eabi_attribute 27, 1
   3              		.eabi_attribute 28, 1
   4              		.eabi_attribute 20, 1
   5              		.eabi_attribute 21, 1
   6              		.eabi_attribute 23, 3
   7              		.eabi_attribute 24, 1
   8              		.eabi_attribute 25, 1
   9              		.eabi_attribute 26, 1
  10              		.eabi_attribute 30, 2
  11              		.eabi_attribute 34, 1
  12              		.eabi_attribute 18, 4
  13              		.file	"param_Value.c"
  14              		.text
  15              	.Ltext0:
  16              		.cfi_sections	.debug_frame
  17              		.section	.text.uavcan_protocol_param_Value_encode_internal,"ax",%progbits
  18              		.align	1
  19              		.p2align 4,,15
  20              		.global	uavcan_protocol_param_Value_encode_internal
  21              		.syntax unified
  22              		.thumb
  23              		.thumb_func
  24              		.fpu fpv4-sp-d16
  25              		.type	uavcan_protocol_param_Value_encode_internal, %function
  26              	uavcan_protocol_param_Value_encode_internal:
  27              	.LFB0:
  28              		.file 1 "libcanard/dsdl/uavcan/protocol/param/param_Value.c"
  29              		.loc 1 37 0
  30              		.cfi_startproc
  31              		@ args = 0, pretend = 0, frame = 0
  32              		@ frame_needed = 0, uses_anonymous_args = 0
  33              	.LVL0:
  34 0000 2DE9F041 		push	{r4, r5, r6, r7, r8, lr}
  35              		.cfi_def_cfa_offset 24
  36              		.cfi_offset 4, -24
  37              		.cfi_offset 5, -20
  38              		.cfi_offset 6, -16
  39              		.cfi_offset 7, -12
  40              		.cfi_offset 8, -8
  41              		.cfi_offset 14, -4
  42              		.loc 1 37 0
  43 0004 0446     		mov	r4, r0
  44 0006 0E46     		mov	r6, r1
  45 0008 1746     		mov	r7, r2
  46              		.loc 1 43 0
  47 000a 1146     		mov	r1, r2
  48              	.LVL1:
  49              		.loc 1 37 0
  50 000c 9846     		mov	r8, r3
  51              		.loc 1 43 0
  52 000e 0322     		movs	r2, #3
  53              	.LVL2:
  54 0010 0346     		mov	r3, r0
  55              	.LVL3:
  56 0012 3046     		mov	r0, r6
  57              	.LVL4:
ARM GAS  /tmp/ccGu2stm.s 			page 2


  58 0014 FFF7FEFF 		bl	canardEncodeScalar
  59              	.LVL5:
  60              		.loc 1 46 0
  61 0018 2378     		ldrb	r3, [r4]	@ zero_extendqisi2
  62              		.loc 1 44 0
  63 001a FD1C     		adds	r5, r7, #3
  64              	.LVL6:
  65              		.loc 1 46 0
  66 001c 53B1     		cbz	r3, .L15
  67              		.loc 1 50 0
  68 001e 012B     		cmp	r3, #1
  69 0020 33D0     		beq	.L16
  70              		.loc 1 55 0
  71 0022 022B     		cmp	r3, #2
  72 0024 0ED0     		beq	.L17
  73              		.loc 1 60 0
  74 0026 032B     		cmp	r3, #3
  75 0028 3BD0     		beq	.L18
  76              		.loc 1 65 0
  77 002a 042B     		cmp	r3, #4
  78 002c 16D0     		beq	.L19
  79              	.L1:
  80              		.loc 1 87 0
  81 002e 2846     		mov	r0, r5
  82 0030 BDE8F081 		pop	{r4, r5, r6, r7, r8, pc}
  83              	.LVL7:
  84              	.L15:
  85              		.loc 1 48 0
  86 0034 2A46     		mov	r2, r5
  87 0036 3146     		mov	r1, r6
  88 0038 04F10800 		add	r0, r4, #8
  89              		.loc 1 87 0
  90 003c BDE8F041 		pop	{r4, r5, r6, r7, r8, lr}
  91              		.cfi_remember_state
  92              		.cfi_restore 14
  93              		.cfi_restore 8
  94              		.cfi_restore 7
  95              		.cfi_restore 6
  96              		.cfi_restore 5
  97              		.cfi_restore 4
  98              		.cfi_def_cfa_offset 0
  99              	.LVL8:
 100              		.loc 1 48 0
 101 0040 FFF7FEBF 		b	uavcan_protocol_param_Empty_encode_internal
 102              	.LVL9:
 103              	.L17:
 104              		.cfi_restore_state
 105              		.loc 1 56 0
 106 0044 2946     		mov	r1, r5
 107 0046 3046     		mov	r0, r6
 108 0048 04F10803 		add	r3, r4, #8
 109 004c 2022     		movs	r2, #32
 110              		.loc 1 57 0
 111 004e 07F12305 		add	r5, r7, #35
 112              	.LVL10:
 113              		.loc 1 56 0
 114 0052 FFF7FEFF 		bl	canardEncodeScalar
ARM GAS  /tmp/ccGu2stm.s 			page 3


 115              	.LVL11:
 116              		.loc 1 87 0
 117 0056 2846     		mov	r0, r5
 118 0058 BDE8F081 		pop	{r4, r5, r6, r7, r8, pc}
 119              	.LVL12:
 120              	.L19:
 121              		.loc 1 67 0
 122 005c B8F1000F 		cmp	r8, #0
 123 0060 29D0     		beq	.L20
 124              	.L7:
 125              		.loc 1 75 0 discriminator 1
 126 0062 237A     		ldrb	r3, [r4, #8]	@ zero_extendqisi2
 127 0064 002B     		cmp	r3, #0
 128 0066 E2D0     		beq	.L1
 129              		.loc 1 75 0 is_stmt 0
 130 0068 0027     		movs	r7, #0
 131              	.LVL13:
 132              	.L8:
 133              		.loc 1 80 0 is_stmt 1 discriminator 3
 134 006a E368     		ldr	r3, [r4, #12]
 135              		.loc 1 77 0 discriminator 3
 136 006c 2946     		mov	r1, r5
 137 006e 3B44     		add	r3, r3, r7
 138 0070 0822     		movs	r2, #8
 139 0072 3046     		mov	r0, r6
 140 0074 FFF7FEFF 		bl	canardEncodeScalar
 141              	.LVL14:
 142              		.loc 1 75 0 discriminator 3
 143 0078 237A     		ldrb	r3, [r4, #8]	@ zero_extendqisi2
 144 007a 0137     		adds	r7, r7, #1
 145              	.LVL15:
 146 007c BB42     		cmp	r3, r7
 147              		.loc 1 81 0 discriminator 3
 148 007e 05F10805 		add	r5, r5, #8
 149              	.LVL16:
 150              		.loc 1 75 0 discriminator 3
 151 0082 F2D8     		bhi	.L8
 152              		.loc 1 87 0
 153 0084 2846     		mov	r0, r5
 154 0086 BDE8F081 		pop	{r4, r5, r6, r7, r8, pc}
 155              	.LVL17:
 156              	.L16:
 157              		.loc 1 51 0
 158 008a 2946     		mov	r1, r5
 159 008c 3046     		mov	r0, r6
 160 008e 04F10803 		add	r3, r4, #8
 161 0092 4022     		movs	r2, #64
 162              		.loc 1 52 0
 163 0094 07F14305 		add	r5, r7, #67
 164              	.LVL18:
 165              		.loc 1 51 0
 166 0098 FFF7FEFF 		bl	canardEncodeScalar
 167              	.LVL19:
 168              		.loc 1 87 0
 169 009c 2846     		mov	r0, r5
 170 009e BDE8F081 		pop	{r4, r5, r6, r7, r8, pc}
 171              	.LVL20:
ARM GAS  /tmp/ccGu2stm.s 			page 4


 172              	.L18:
 173              		.loc 1 61 0
 174 00a2 2946     		mov	r1, r5
 175 00a4 04F10803 		add	r3, r4, #8
 176 00a8 3046     		mov	r0, r6
 177 00aa 0822     		movs	r2, #8
 178              		.loc 1 62 0
 179 00ac 07F10B05 		add	r5, r7, #11
 180              	.LVL21:
 181              		.loc 1 61 0
 182 00b0 FFF7FEFF 		bl	canardEncodeScalar
 183              	.LVL22:
 184 00b4 BBE7     		b	.L1
 185              	.L20:
 186              		.loc 1 70 0
 187 00b6 2946     		mov	r1, r5
 188 00b8 04F10803 		add	r3, r4, #8
 189 00bc 0822     		movs	r2, #8
 190 00be 3046     		mov	r0, r6
 191 00c0 FFF7FEFF 		bl	canardEncodeScalar
 192              	.LVL23:
 193              		.loc 1 71 0
 194 00c4 07F10B05 		add	r5, r7, #11
 195              	.LVL24:
 196 00c8 CBE7     		b	.L7
 197              		.cfi_endproc
 198              	.LFE0:
 199              		.size	uavcan_protocol_param_Value_encode_internal, .-uavcan_protocol_param_Value_encode_internal
 200 00ca 00BF     		.section	.text.uavcan_protocol_param_Value_encode,"ax",%progbits
 201              		.align	1
 202              		.p2align 4,,15
 203              		.global	uavcan_protocol_param_Value_encode
 204              		.syntax unified
 205              		.thumb
 206              		.thumb_func
 207              		.fpu fpv4-sp-d16
 208              		.type	uavcan_protocol_param_Value_encode, %function
 209              	uavcan_protocol_param_Value_encode:
 210              	.LFB1:
 211              		.loc 1 96 0
 212              		.cfi_startproc
 213              		@ args = 0, pretend = 0, frame = 0
 214              		@ frame_needed = 0, uses_anonymous_args = 0
 215              	.LVL25:
 216 0000 08B5     		push	{r3, lr}
 217              		.cfi_def_cfa_offset 8
 218              		.cfi_offset 3, -8
 219              		.cfi_offset 14, -4
 220              		.loc 1 99 0
 221 0002 0022     		movs	r2, #0
 222 0004 0123     		movs	r3, #1
 223 0006 FFF7FEFF 		bl	uavcan_protocol_param_Value_encode_internal
 224              	.LVL26:
 225              		.loc 1 101 0
 226 000a 0730     		adds	r0, r0, #7
 227              	.LVL27:
 228              		.loc 1 102 0
ARM GAS  /tmp/ccGu2stm.s 			page 5


 229 000c C008     		lsrs	r0, r0, #3
 230              	.LVL28:
 231 000e 08BD     		pop	{r3, pc}
 232              		.cfi_endproc
 233              	.LFE1:
 234              		.size	uavcan_protocol_param_Value_encode, .-uavcan_protocol_param_Value_encode
 235              		.section	.text.uavcan_protocol_param_Value_decode_internal,"ax",%progbits
 236              		.align	1
 237              		.p2align 4,,15
 238              		.global	uavcan_protocol_param_Value_decode_internal
 239              		.syntax unified
 240              		.thumb
 241              		.thumb_func
 242              		.fpu fpv4-sp-d16
 243              		.type	uavcan_protocol_param_Value_decode_internal, %function
 244              	uavcan_protocol_param_Value_decode_internal:
 245              	.LFB2:
 246              		.loc 1 121 0
 247              		.cfi_startproc
 248              		@ args = 4, pretend = 0, frame = 0
 249              		@ frame_needed = 0, uses_anonymous_args = 0
 250              	.LVL29:
 251 0000 2DE9F043 		push	{r4, r5, r6, r7, r8, r9, lr}
 252              		.cfi_def_cfa_offset 28
 253              		.cfi_offset 4, -28
 254              		.cfi_offset 5, -24
 255              		.cfi_offset 6, -20
 256              		.cfi_offset 7, -16
 257              		.cfi_offset 8, -12
 258              		.cfi_offset 9, -8
 259              		.cfi_offset 14, -4
 260 0004 83B0     		sub	sp, sp, #12
 261              		.cfi_def_cfa_offset 40
 262              		.loc 1 121 0
 263 0006 1546     		mov	r5, r2
 264 0008 0A9E     		ldr	r6, [sp, #40]
 265              		.loc 1 126 0
 266 000a 0092     		str	r2, [sp]
 267              		.loc 1 121 0
 268 000c 8946     		mov	r9, r1
 269 000e 1F46     		mov	r7, r3
 270              		.loc 1 126 0
 271 0010 3146     		mov	r1, r6
 272              	.LVL30:
 273 0012 0023     		movs	r3, #0
 274              	.LVL31:
 275 0014 0322     		movs	r2, #3
 276              	.LVL32:
 277              		.loc 1 121 0
 278 0016 8046     		mov	r8, r0
 279              		.loc 1 126 0
 280 0018 FFF7FEFF 		bl	canardDecodeScalar
 281              	.LVL33:
 282              		.loc 1 127 0
 283 001c 0328     		cmp	r0, #3
 284              		.loc 1 126 0
 285 001e 0446     		mov	r4, r0
ARM GAS  /tmp/ccGu2stm.s 			page 6


 286              	.LVL34:
 287              		.loc 1 127 0
 288 0020 07D0     		beq	.L49
 289              	.LVL35:
 290              	.L24:
 291              		.loc 1 227 0
 292 0022 002C     		cmp	r4, #0
 293 0024 A8BF     		it	ge
 294 0026 6FF00804 		mvnge	r4, #8
 295              	.LVL36:
 296              	.L23:
 297              		.loc 1 229 0
 298 002a 2046     		mov	r0, r4
 299 002c 03B0     		add	sp, sp, #12
 300              		.cfi_remember_state
 301              		.cfi_def_cfa_offset 28
 302              		@ sp needed
 303 002e BDE8F083 		pop	{r4, r5, r6, r7, r8, r9, pc}
 304              	.LVL37:
 305              	.L49:
 306              		.cfi_restore_state
 307              		.loc 1 133 0
 308 0032 2B78     		ldrb	r3, [r5]	@ zero_extendqisi2
 309              		.loc 1 131 0
 310 0034 F41C     		adds	r4, r6, #3
 311              	.LVL38:
 312              		.loc 1 133 0
 313 0036 8BB3     		cbz	r3, .L50
 314              		.loc 1 143 0
 315 0038 012B     		cmp	r3, #1
 316 003a 3AD0     		beq	.L51
 317              		.loc 1 152 0
 318 003c 022B     		cmp	r3, #2
 319 003e 45D0     		beq	.L52
 320              		.loc 1 161 0
 321 0040 032B     		cmp	r3, #3
 322 0042 51D0     		beq	.L53
 323              		.loc 1 170 0
 324 0044 042B     		cmp	r3, #4
 325 0046 F0D1     		bne	.L23
 326              		.loc 1 174 0
 327 0048 B9F1000F 		cmp	r9, #0
 328 004c 5AD0     		beq	.L30
 329              		.loc 1 177 0
 330 004e D4EBC909 		rsbs	r9, r4, r9, lsl #3
 331 0052 48BF     		it	mi
 332 0054 09F10709 		addmi	r9, r9, #7
 333 0058 C9F3C703 		ubfx	r3, r9, #3, #8
 334 005c 2B72     		strb	r3, [r5, #8]
 335              	.L32:
 336              		.loc 1 195 0
 337 005e 0FB1     		cbz	r7, .L33
 338              		.loc 1 197 0
 339 0060 3A68     		ldr	r2, [r7]
 340 0062 EA60     		str	r2, [r5, #12]
 341              	.L33:
 342              		.loc 1 200 0 discriminator 1
ARM GAS  /tmp/ccGu2stm.s 			page 7


 343 0064 002B     		cmp	r3, #0
 344 0066 E0D0     		beq	.L23
 345              		.loc 1 200 0 is_stmt 0
 346 0068 4FF00009 		mov	r9, #0
 347 006c 05E0     		b	.L35
 348              	.LVL39:
 349              	.L54:
 350              		.loc 1 213 0 is_stmt 1
 351 006e 3B68     		ldr	r3, [r7]
 352 0070 0133     		adds	r3, r3, #1
 353 0072 3B60     		str	r3, [r7]
 354              	.LVL40:
 355              	.L34:
 356              		.loc 1 200 0 discriminator 2
 357 0074 2B7A     		ldrb	r3, [r5, #8]	@ zero_extendqisi2
 358 0076 4B45     		cmp	r3, r9
 359 0078 D7D9     		bls	.L23
 360              	.LVL41:
 361              	.L35:
 362              		.loc 1 204 0
 363 007a 0822     		movs	r2, #8
 364 007c 2146     		mov	r1, r4
 365 007e 0023     		movs	r3, #0
 366 0080 4046     		mov	r0, r8
 367              		.loc 1 200 0
 368 0082 09F10109 		add	r9, r9, #1
 369              	.LVL42:
 370              		.loc 1 215 0
 371 0086 1444     		add	r4, r4, r2
 372              	.LVL43:
 373              		.loc 1 202 0
 374 0088 002F     		cmp	r7, #0
 375 008a F3D0     		beq	.L34
 376              	.LVL44:
 377              		.loc 1 204 0
 378 008c 3E68     		ldr	r6, [r7]
 379 008e 0096     		str	r6, [sp]
 380 0090 FFF7FEFF 		bl	canardDecodeScalar
 381              	.LVL45:
 382              		.loc 1 209 0
 383 0094 0828     		cmp	r0, #8
 384 0096 EAD0     		beq	.L54
 385              		.loc 1 220 0
 386 0098 0446     		mov	r4, r0
 387              	.LVL46:
 388 009a C2E7     		b	.L24
 389              	.LVL47:
 390              	.L50:
 391              		.loc 1 136 0
 392 009c 3B46     		mov	r3, r7
 393 009e 05F10802 		add	r2, r5, #8
 394 00a2 4946     		mov	r1, r9
 395 00a4 4046     		mov	r0, r8
 396              	.LVL48:
 397 00a6 0A94     		str	r4, [sp, #40]
 398              		.loc 1 229 0
 399 00a8 03B0     		add	sp, sp, #12
ARM GAS  /tmp/ccGu2stm.s 			page 8


 400              		.cfi_remember_state
 401              		.cfi_def_cfa_offset 28
 402              		@ sp needed
 403 00aa BDE8F043 		pop	{r4, r5, r6, r7, r8, r9, lr}
 404              		.cfi_restore 14
 405              		.cfi_restore 9
 406              		.cfi_restore 8
 407              		.cfi_restore 7
 408              		.cfi_restore 6
 409              		.cfi_restore 5
 410              		.cfi_restore 4
 411              		.cfi_def_cfa_offset 0
 412              	.LVL49:
 413              		.loc 1 136 0
 414 00ae FFF7FEBF 		b	uavcan_protocol_param_Empty_decode_internal
 415              	.LVL50:
 416              	.L51:
 417              		.cfi_restore_state
 418              		.loc 1 145 0
 419 00b2 0835     		adds	r5, r5, #8
 420              	.LVL51:
 421 00b4 2146     		mov	r1, r4
 422 00b6 0095     		str	r5, [sp]
 423 00b8 4046     		mov	r0, r8
 424              	.LVL52:
 425 00ba 4022     		movs	r2, #64
 426 00bc FFF7FEFF 		bl	canardDecodeScalar
 427              	.LVL53:
 428              		.loc 1 146 0
 429 00c0 4028     		cmp	r0, #64
 430              		.loc 1 145 0
 431 00c2 0446     		mov	r4, r0
 432              	.LVL54:
 433              		.loc 1 146 0
 434 00c4 ADD1     		bne	.L24
 435              		.loc 1 150 0
 436 00c6 06F14304 		add	r4, r6, #67
 437              	.LVL55:
 438 00ca AEE7     		b	.L23
 439              	.LVL56:
 440              	.L52:
 441              		.loc 1 154 0
 442 00cc 0835     		adds	r5, r5, #8
 443              	.LVL57:
 444 00ce 2146     		mov	r1, r4
 445 00d0 0095     		str	r5, [sp]
 446 00d2 4046     		mov	r0, r8
 447              	.LVL58:
 448 00d4 0023     		movs	r3, #0
 449 00d6 2022     		movs	r2, #32
 450 00d8 FFF7FEFF 		bl	canardDecodeScalar
 451              	.LVL59:
 452              		.loc 1 155 0
 453 00dc 2028     		cmp	r0, #32
 454              		.loc 1 154 0
 455 00de 0446     		mov	r4, r0
 456              	.LVL60:
ARM GAS  /tmp/ccGu2stm.s 			page 9


 457              		.loc 1 155 0
 458 00e0 9FD1     		bne	.L24
 459              		.loc 1 159 0
 460 00e2 06F12304 		add	r4, r6, #35
 461              	.LVL61:
 462 00e6 A0E7     		b	.L23
 463              	.LVL62:
 464              	.L53:
 465              		.loc 1 163 0
 466 00e8 0835     		adds	r5, r5, #8
 467              	.LVL63:
 468 00ea 2146     		mov	r1, r4
 469 00ec 0095     		str	r5, [sp]
 470 00ee 4046     		mov	r0, r8
 471              	.LVL64:
 472 00f0 0023     		movs	r3, #0
 473 00f2 0822     		movs	r2, #8
 474 00f4 FFF7FEFF 		bl	canardDecodeScalar
 475              	.LVL65:
 476              		.loc 1 164 0
 477 00f8 0828     		cmp	r0, #8
 478              		.loc 1 163 0
 479 00fa 0446     		mov	r4, r0
 480              	.LVL66:
 481              		.loc 1 164 0
 482 00fc 91D1     		bne	.L24
 483              		.loc 1 168 0
 484 00fe 06F10B04 		add	r4, r6, #11
 485              	.LVL67:
 486 0102 92E7     		b	.L23
 487              	.LVL68:
 488              	.L30:
 489              		.loc 1 186 0
 490 0104 05F10802 		add	r2, r5, #8
 491              		.loc 1 182 0
 492 0108 2146     		mov	r1, r4
 493 010a 0092     		str	r2, [sp]
 494 010c 4B46     		mov	r3, r9
 495 010e 0822     		movs	r2, #8
 496 0110 4046     		mov	r0, r8
 497              	.LVL69:
 498 0112 FFF7FEFF 		bl	canardDecodeScalar
 499              	.LVL70:
 500              		.loc 1 187 0
 501 0116 0828     		cmp	r0, #8
 502              		.loc 1 182 0
 503 0118 0446     		mov	r4, r0
 504              	.LVL71:
 505              		.loc 1 187 0
 506 011a 82D1     		bne	.L24
 507 011c 2B7A     		ldrb	r3, [r5, #8]	@ zero_extendqisi2
 508              		.loc 1 191 0
 509 011e 06F10B04 		add	r4, r6, #11
 510              	.LVL72:
 511 0122 9CE7     		b	.L32
 512              		.cfi_endproc
 513              	.LFE2:
ARM GAS  /tmp/ccGu2stm.s 			page 10


 514              		.size	uavcan_protocol_param_Value_decode_internal, .-uavcan_protocol_param_Value_decode_internal
 515              		.section	.text.uavcan_protocol_param_Value_decode,"ax",%progbits
 516              		.align	1
 517              		.p2align 4,,15
 518              		.global	uavcan_protocol_param_Value_decode
 519              		.syntax unified
 520              		.thumb
 521              		.thumb_func
 522              		.fpu fpv4-sp-d16
 523              		.type	uavcan_protocol_param_Value_decode, %function
 524              	uavcan_protocol_param_Value_decode:
 525              	.LFB3:
 526              		.loc 1 245 0
 527              		.cfi_startproc
 528              		@ args = 0, pretend = 0, frame = 0
 529              		@ frame_needed = 0, uses_anonymous_args = 0
 530              	.LVL73:
 531 0000 70B5     		push	{r4, r5, r6, lr}
 532              		.cfi_def_cfa_offset 16
 533              		.cfi_offset 4, -16
 534              		.cfi_offset 5, -12
 535              		.cfi_offset 6, -8
 536              		.cfi_offset 14, -4
 537 0002 541E     		subs	r4, r2, #1
 538 0004 82B0     		sub	sp, sp, #8
 539              		.cfi_def_cfa_offset 24
 540 0006 02F10F06 		add	r6, r2, #15
 541              	.LBB2:
 542              		.loc 1 252 0
 543 000a 0025     		movs	r5, #0
 544              	.LVL74:
 545              	.L56:
 546              		.loc 1 252 0 is_stmt 0 discriminator 3
 547 000c 04F8015F 		strb	r5, [r4, #1]!
 548              		.loc 1 250 0 is_stmt 1 discriminator 3
 549 0010 B442     		cmp	r4, r6
 550 0012 FBD1     		bne	.L56
 551              	.LBE2:
 552              		.loc 1 255 0
 553 0014 0095     		str	r5, [sp]
 554 0016 FFF7FEFF 		bl	uavcan_protocol_param_Value_decode_internal
 555              	.LVL75:
 556              		.loc 1 258 0
 557 001a 02B0     		add	sp, sp, #8
 558              		.cfi_def_cfa_offset 16
 559              		@ sp needed
 560 001c 70BD     		pop	{r4, r5, r6, pc}
 561              		.cfi_endproc
 562              	.LFE3:
 563              		.size	uavcan_protocol_param_Value_decode, .-uavcan_protocol_param_Value_decode
 564 001e 00BF     		.text
 565              	.Letext0:
 566              		.file 2 "/usr/arm-none-eabi/include/machine/_default_types.h"
 567              		.file 3 "/usr/arm-none-eabi/include/sys/_stdint.h"
 568              		.file 4 "libcanard/canard.h"
 569              		.file 5 "libcanard/dsdl/uavcan/protocol/param/Empty.h"
 570              		.file 6 "libcanard/dsdl/uavcan/protocol/param/Value.h"
ARM GAS  /tmp/ccGu2stm.s 			page 11

