ARM GAS  /tmp/cc7v9S6V.s 			page 1


   1              		.cpu cortex-m4
   2              		.eabi_attribute 27, 1
   3              		.eabi_attribute 28, 1
   4              		.eabi_attribute 20, 1
   5              		.eabi_attribute 21, 1
   6              		.eabi_attribute 23, 3
   7              		.eabi_attribute 24, 1
   8              		.eabi_attribute 25, 1
   9              		.eabi_attribute 26, 1
  10              		.eabi_attribute 30, 2
  11              		.eabi_attribute 34, 1
  12              		.eabi_attribute 18, 4
  13              		.file	"param_ExecuteOpcode.c"
  14              		.text
  15              	.Ltext0:
  16              		.cfi_sections	.debug_frame
  17              		.section	.text.uavcan_protocol_param_ExecuteOpcodeRequest_encode_internal,"ax",%progbits
  18              		.align	1
  19              		.p2align 4,,15
  20              		.global	uavcan_protocol_param_ExecuteOpcodeRequest_encode_internal
  21              		.syntax unified
  22              		.thumb
  23              		.thumb_func
  24              		.fpu fpv4-sp-d16
  25              		.type	uavcan_protocol_param_ExecuteOpcodeRequest_encode_internal, %function
  26              	uavcan_protocol_param_ExecuteOpcodeRequest_encode_internal:
  27              	.LFB0:
  28              		.file 1 "libcanard/dsdl/uavcan/protocol/param/param_ExecuteOpcode.c"
  29              		.loc 1 37 0
  30              		.cfi_startproc
  31              		@ args = 0, pretend = 0, frame = 0
  32              		@ frame_needed = 0, uses_anonymous_args = 0
  33              	.LVL0:
  34 0000 70B5     		push	{r4, r5, r6, lr}
  35              		.cfi_def_cfa_offset 16
  36              		.cfi_offset 4, -16
  37              		.cfi_offset 5, -12
  38              		.cfi_offset 6, -8
  39              		.cfi_offset 14, -4
  40              		.loc 1 37 0
  41 0002 0E46     		mov	r6, r1
  42 0004 0446     		mov	r4, r0
  43 0006 1546     		mov	r5, r2
  44              		.loc 1 38 0
  45 0008 0346     		mov	r3, r0
  46              	.LVL1:
  47 000a 1146     		mov	r1, r2
  48              	.LVL2:
  49 000c 3046     		mov	r0, r6
  50              	.LVL3:
  51 000e 0822     		movs	r2, #8
  52              	.LVL4:
  53 0010 FFF7FEFF 		bl	canardEncodeScalar
  54              	.LVL5:
  55              		.loc 1 41 0
  56 0014 D4E90201 		ldrd	r0, [r4, #8]
  57 0018 0122     		movs	r2, #1
ARM GAS  /tmp/cc7v9S6V.s 			page 2


  58 001a 0F4B     		ldr	r3, .L6
  59 001c 9042     		cmp	r0, r2
  60 001e 71EB030C 		sbcs	ip, r1, r3
  61 0022 B8BF     		it	lt
  62 0024 1046     		movlt	r0, r2
  63 0026 4FF0FF32 		mov	r2, #-1
  64 002a B8BF     		it	lt
  65 002c 1946     		movlt	r1, r3
  66 002e 8242     		cmp	r2, r0
  67 0030 47F6FF73 		movw	r3, #32767
  68 0034 73EB010C 		sbcs	ip, r3, r1
  69 0038 BCBF     		itt	lt
  70 003a 1046     		movlt	r0, r2
  71 003c 1946     		movlt	r1, r3
  72 003e 2346     		mov	r3, r4
  73 0040 E3E90201 		strd	r0, [r3, #8]!
  74              		.loc 1 42 0
  75 0044 3022     		movs	r2, #48
  76 0046 3046     		mov	r0, r6
  77 0048 05F10801 		add	r1, r5, #8
  78              	.LVL6:
  79 004c FFF7FEFF 		bl	canardEncodeScalar
  80              	.LVL7:
  81              		.loc 1 46 0
  82 0050 05F13800 		add	r0, r5, #56
  83              	.LVL8:
  84 0054 70BD     		pop	{r4, r5, r6, pc}
  85              	.LVL9:
  86              	.L7:
  87 0056 00BF     		.align	2
  88              	.L6:
  89 0058 0080FFFF 		.word	-32768
  90              		.cfi_endproc
  91              	.LFE0:
  92              		.size	uavcan_protocol_param_ExecuteOpcodeRequest_encode_internal, .-uavcan_protocol_param_ExecuteO
  93              		.section	.text.uavcan_protocol_param_ExecuteOpcodeRequest_encode,"ax",%progbits
  94              		.align	1
  95              		.p2align 4,,15
  96              		.global	uavcan_protocol_param_ExecuteOpcodeRequest_encode
  97              		.syntax unified
  98              		.thumb
  99              		.thumb_func
 100              		.fpu fpv4-sp-d16
 101              		.type	uavcan_protocol_param_ExecuteOpcodeRequest_encode, %function
 102              	uavcan_protocol_param_ExecuteOpcodeRequest_encode:
 103              	.LFB1:
 104              		.loc 1 55 0
 105              		.cfi_startproc
 106              		@ args = 0, pretend = 0, frame = 0
 107              		@ frame_needed = 0, uses_anonymous_args = 0
 108              	.LVL10:
 109 0000 08B5     		push	{r3, lr}
 110              		.cfi_def_cfa_offset 8
 111              		.cfi_offset 3, -8
 112              		.cfi_offset 14, -4
 113              		.loc 1 58 0
 114 0002 0022     		movs	r2, #0
ARM GAS  /tmp/cc7v9S6V.s 			page 3


 115 0004 0123     		movs	r3, #1
 116 0006 FFF7FEFF 		bl	uavcan_protocol_param_ExecuteOpcodeRequest_encode_internal
 117              	.LVL11:
 118              		.loc 1 60 0
 119 000a 0730     		adds	r0, r0, #7
 120              	.LVL12:
 121              		.loc 1 61 0
 122 000c C008     		lsrs	r0, r0, #3
 123              	.LVL13:
 124 000e 08BD     		pop	{r3, pc}
 125              		.cfi_endproc
 126              	.LFE1:
 127              		.size	uavcan_protocol_param_ExecuteOpcodeRequest_encode, .-uavcan_protocol_param_ExecuteOpcodeRequ
 128              		.section	.text.uavcan_protocol_param_ExecuteOpcodeRequest_decode_internal,"ax",%progbits
 129              		.align	1
 130              		.p2align 4,,15
 131              		.global	uavcan_protocol_param_ExecuteOpcodeRequest_decode_internal
 132              		.syntax unified
 133              		.thumb
 134              		.thumb_func
 135              		.fpu fpv4-sp-d16
 136              		.type	uavcan_protocol_param_ExecuteOpcodeRequest_decode_internal, %function
 137              	uavcan_protocol_param_ExecuteOpcodeRequest_decode_internal:
 138              	.LFB2:
 139              		.loc 1 80 0
 140              		.cfi_startproc
 141              		@ args = 4, pretend = 0, frame = 0
 142              		@ frame_needed = 0, uses_anonymous_args = 0
 143              	.LVL14:
 144 0000 30B5     		push	{r4, r5, lr}
 145              		.cfi_def_cfa_offset 12
 146              		.cfi_offset 4, -12
 147              		.cfi_offset 5, -8
 148              		.cfi_offset 14, -4
 149 0002 83B0     		sub	sp, sp, #12
 150              		.cfi_def_cfa_offset 24
 151              		.loc 1 80 0
 152 0004 1446     		mov	r4, r2
 153              		.loc 1 83 0
 154 0006 0092     		str	r2, [sp]
 155 0008 0699     		ldr	r1, [sp, #24]
 156              	.LVL15:
 157 000a 0023     		movs	r3, #0
 158              	.LVL16:
 159 000c 0822     		movs	r2, #8
 160              	.LVL17:
 161              		.loc 1 80 0
 162 000e 0546     		mov	r5, r0
 163              		.loc 1 83 0
 164 0010 FFF7FEFF 		bl	canardDecodeScalar
 165              	.LVL18:
 166              		.loc 1 84 0
 167 0014 0828     		cmp	r0, #8
 168 0016 05D0     		beq	.L14
 169              	.LVL19:
 170              	.L11:
 171              		.loc 1 99 0
ARM GAS  /tmp/cc7v9S6V.s 			page 4


 172 0018 0028     		cmp	r0, #0
 173              		.loc 1 105 0
 174 001a A8BF     		it	ge
 175 001c 6FF00800 		mvnge	r0, #8
 176              	.LVL20:
 177              	.L10:
 178              		.loc 1 107 0
 179 0020 03B0     		add	sp, sp, #12
 180              		.cfi_remember_state
 181              		.cfi_def_cfa_offset 12
 182              		@ sp needed
 183 0022 30BD     		pop	{r4, r5, pc}
 184              	.LVL21:
 185              	.L14:
 186              		.cfi_restore_state
 187              		.loc 1 90 0
 188 0024 0699     		ldr	r1, [sp, #24]
 189 0026 0834     		adds	r4, r4, #8
 190              	.LVL22:
 191 0028 0094     		str	r4, [sp]
 192 002a 2846     		mov	r0, r5
 193              	.LVL23:
 194 002c 0123     		movs	r3, #1
 195 002e 3022     		movs	r2, #48
 196 0030 0831     		adds	r1, r1, #8
 197              	.LVL24:
 198 0032 FFF7FEFF 		bl	canardDecodeScalar
 199              	.LVL25:
 200              		.loc 1 91 0
 201 0036 3028     		cmp	r0, #48
 202 0038 EED1     		bne	.L11
 203              		.loc 1 95 0
 204 003a 069B     		ldr	r3, [sp, #24]
 205 003c 03F13800 		add	r0, r3, #56
 206              	.LVL26:
 207              		.loc 1 96 0
 208 0040 EEE7     		b	.L10
 209              		.cfi_endproc
 210              	.LFE2:
 211              		.size	uavcan_protocol_param_ExecuteOpcodeRequest_decode_internal, .-uavcan_protocol_param_ExecuteO
 212              		.section	.text.uavcan_protocol_param_ExecuteOpcodeRequest_decode,"ax",%progbits
 213              		.align	1
 214              		.p2align 4,,15
 215              		.global	uavcan_protocol_param_ExecuteOpcodeRequest_decode
 216              		.syntax unified
 217              		.thumb
 218              		.thumb_func
 219              		.fpu fpv4-sp-d16
 220              		.type	uavcan_protocol_param_ExecuteOpcodeRequest_decode, %function
 221              	uavcan_protocol_param_ExecuteOpcodeRequest_decode:
 222              	.LFB3:
 223              		.loc 1 123 0
 224              		.cfi_startproc
 225              		@ args = 0, pretend = 0, frame = 0
 226              		@ frame_needed = 0, uses_anonymous_args = 0
 227              	.LVL27:
 228 0000 70B5     		push	{r4, r5, r6, lr}
ARM GAS  /tmp/cc7v9S6V.s 			page 5


 229              		.cfi_def_cfa_offset 16
 230              		.cfi_offset 4, -16
 231              		.cfi_offset 5, -12
 232              		.cfi_offset 6, -8
 233              		.cfi_offset 14, -4
 234 0002 541E     		subs	r4, r2, #1
 235 0004 82B0     		sub	sp, sp, #8
 236              		.cfi_def_cfa_offset 24
 237 0006 02F10F06 		add	r6, r2, #15
 238              	.LBB2:
 239              		.loc 1 130 0
 240 000a 0025     		movs	r5, #0
 241              	.LVL28:
 242              	.L16:
 243              		.loc 1 130 0 is_stmt 0 discriminator 3
 244 000c 04F8015F 		strb	r5, [r4, #1]!
 245              		.loc 1 128 0 is_stmt 1 discriminator 3
 246 0010 B442     		cmp	r4, r6
 247 0012 FBD1     		bne	.L16
 248              	.LBE2:
 249              		.loc 1 133 0
 250 0014 0095     		str	r5, [sp]
 251 0016 FFF7FEFF 		bl	uavcan_protocol_param_ExecuteOpcodeRequest_decode_internal
 252              	.LVL29:
 253              		.loc 1 136 0
 254 001a 02B0     		add	sp, sp, #8
 255              		.cfi_def_cfa_offset 16
 256              		@ sp needed
 257 001c 70BD     		pop	{r4, r5, r6, pc}
 258              		.cfi_endproc
 259              	.LFE3:
 260              		.size	uavcan_protocol_param_ExecuteOpcodeRequest_decode, .-uavcan_protocol_param_ExecuteOpcodeRequ
 261 001e 00BF     		.section	.text.uavcan_protocol_param_ExecuteOpcodeResponse_encode_internal,"ax",%progbits
 262              		.align	1
 263              		.p2align 4,,15
 264              		.global	uavcan_protocol_param_ExecuteOpcodeResponse_encode_internal
 265              		.syntax unified
 266              		.thumb
 267              		.thumb_func
 268              		.fpu fpv4-sp-d16
 269              		.type	uavcan_protocol_param_ExecuteOpcodeResponse_encode_internal, %function
 270              	uavcan_protocol_param_ExecuteOpcodeResponse_encode_internal:
 271              	.LFB4:
 272              		.loc 1 150 0
 273              		.cfi_startproc
 274              		@ args = 0, pretend = 0, frame = 0
 275              		@ frame_needed = 0, uses_anonymous_args = 0
 276              	.LVL30:
 277 0000 2DE9F04D 		push	{r4, r5, r6, r7, r8, r10, fp, lr}
 278              		.cfi_def_cfa_offset 32
 279              		.cfi_offset 4, -32
 280              		.cfi_offset 5, -28
 281              		.cfi_offset 6, -24
 282              		.cfi_offset 7, -20
 283              		.cfi_offset 8, -16
 284              		.cfi_offset 10, -12
 285              		.cfi_offset 11, -8
ARM GAS  /tmp/cc7v9S6V.s 			page 6


 286              		.cfi_offset 14, -4
 287              		.loc 1 151 0
 288 0004 D0E90045 		ldrd	r4, [r0]
 289 0008 4FF0010A 		mov	r10, #1
 290 000c DFF850B0 		ldr	fp, .L23
 291 0010 5445     		cmp	r4, r10
 292 0012 75EB0B03 		sbcs	r3, r5, fp
 293              	.LVL31:
 294              		.loc 1 150 0
 295 0016 1746     		mov	r7, r2
 296              		.loc 1 151 0
 297 0018 B8BF     		it	lt
 298 001a 5446     		movlt	r4, r10
 299 001c 4FF0FF32 		mov	r2, #-1
 300              	.LVL32:
 301 0020 B8BF     		it	lt
 302 0022 5D46     		movlt	r5, fp
 303 0024 47F6FF73 		movw	r3, #32767
 304 0028 A242     		cmp	r2, r4
 305              		.loc 1 150 0
 306 002a 8846     		mov	r8, r1
 307              		.loc 1 151 0
 308 002c 73EB0501 		sbcs	r1, r3, r5
 309              	.LVL33:
 310 0030 BCBF     		itt	lt
 311 0032 1446     		movlt	r4, r2
 312 0034 1D46     		movlt	r5, r3
 313              		.loc 1 150 0
 314 0036 0646     		mov	r6, r0
 315              		.loc 1 151 0
 316 0038 C0E90045 		strd	r4, [r0]
 317              		.loc 1 152 0
 318 003c 0346     		mov	r3, r0
 319 003e 3946     		mov	r1, r7
 320 0040 4046     		mov	r0, r8
 321              	.LVL34:
 322 0042 3022     		movs	r2, #48
 323 0044 FFF7FEFF 		bl	canardEncodeScalar
 324              	.LVL35:
 325              		.loc 1 156 0
 326 0048 4046     		mov	r0, r8
 327 004a 06F10803 		add	r3, r6, #8
 328 004e 0122     		movs	r2, #1
 329 0050 07F13001 		add	r1, r7, #48
 330              	.LVL36:
 331 0054 FFF7FEFF 		bl	canardEncodeScalar
 332              	.LVL37:
 333              		.loc 1 160 0
 334 0058 07F13100 		add	r0, r7, #49
 335              	.LVL38:
 336 005c BDE8F08D 		pop	{r4, r5, r6, r7, r8, r10, fp, pc}
 337              	.LVL39:
 338              	.L24:
 339              		.align	2
 340              	.L23:
 341 0060 0080FFFF 		.word	-32768
 342              		.cfi_endproc
ARM GAS  /tmp/cc7v9S6V.s 			page 7


 343              	.LFE4:
 344              		.size	uavcan_protocol_param_ExecuteOpcodeResponse_encode_internal, .-uavcan_protocol_param_Execute
 345              		.section	.text.uavcan_protocol_param_ExecuteOpcodeResponse_encode,"ax",%progbits
 346              		.align	1
 347              		.p2align 4,,15
 348              		.global	uavcan_protocol_param_ExecuteOpcodeResponse_encode
 349              		.syntax unified
 350              		.thumb
 351              		.thumb_func
 352              		.fpu fpv4-sp-d16
 353              		.type	uavcan_protocol_param_ExecuteOpcodeResponse_encode, %function
 354              	uavcan_protocol_param_ExecuteOpcodeResponse_encode:
 355              	.LFB5:
 356              		.loc 1 169 0
 357              		.cfi_startproc
 358              		@ args = 0, pretend = 0, frame = 0
 359              		@ frame_needed = 0, uses_anonymous_args = 0
 360              	.LVL40:
 361 0000 08B5     		push	{r3, lr}
 362              		.cfi_def_cfa_offset 8
 363              		.cfi_offset 3, -8
 364              		.cfi_offset 14, -4
 365              		.loc 1 172 0
 366 0002 0022     		movs	r2, #0
 367 0004 0123     		movs	r3, #1
 368 0006 FFF7FEFF 		bl	uavcan_protocol_param_ExecuteOpcodeResponse_encode_internal
 369              	.LVL41:
 370              		.loc 1 174 0
 371 000a 0730     		adds	r0, r0, #7
 372              	.LVL42:
 373              		.loc 1 175 0
 374 000c C008     		lsrs	r0, r0, #3
 375              	.LVL43:
 376 000e 08BD     		pop	{r3, pc}
 377              		.cfi_endproc
 378              	.LFE5:
 379              		.size	uavcan_protocol_param_ExecuteOpcodeResponse_encode, .-uavcan_protocol_param_ExecuteOpcodeRes
 380              		.section	.text.uavcan_protocol_param_ExecuteOpcodeResponse_decode_internal,"ax",%progbits
 381              		.align	1
 382              		.p2align 4,,15
 383              		.global	uavcan_protocol_param_ExecuteOpcodeResponse_decode_internal
 384              		.syntax unified
 385              		.thumb
 386              		.thumb_func
 387              		.fpu fpv4-sp-d16
 388              		.type	uavcan_protocol_param_ExecuteOpcodeResponse_decode_internal, %function
 389              	uavcan_protocol_param_ExecuteOpcodeResponse_decode_internal:
 390              	.LFB6:
 391              		.loc 1 194 0
 392              		.cfi_startproc
 393              		@ args = 4, pretend = 0, frame = 0
 394              		@ frame_needed = 0, uses_anonymous_args = 0
 395              	.LVL44:
 396 0000 30B5     		push	{r4, r5, lr}
 397              		.cfi_def_cfa_offset 12
 398              		.cfi_offset 4, -12
 399              		.cfi_offset 5, -8
ARM GAS  /tmp/cc7v9S6V.s 			page 8


 400              		.cfi_offset 14, -4
 401 0002 83B0     		sub	sp, sp, #12
 402              		.cfi_def_cfa_offset 24
 403              		.loc 1 194 0
 404 0004 1446     		mov	r4, r2
 405              		.loc 1 197 0
 406 0006 0092     		str	r2, [sp]
 407 0008 0699     		ldr	r1, [sp, #24]
 408              	.LVL45:
 409 000a 0123     		movs	r3, #1
 410              	.LVL46:
 411 000c 3022     		movs	r2, #48
 412              	.LVL47:
 413              		.loc 1 194 0
 414 000e 0546     		mov	r5, r0
 415              		.loc 1 197 0
 416 0010 FFF7FEFF 		bl	canardDecodeScalar
 417              	.LVL48:
 418              		.loc 1 198 0
 419 0014 3028     		cmp	r0, #48
 420 0016 05D0     		beq	.L31
 421              	.LVL49:
 422              	.L28:
 423              		.loc 1 213 0
 424 0018 0028     		cmp	r0, #0
 425              		.loc 1 219 0
 426 001a A8BF     		it	ge
 427 001c 6FF00800 		mvnge	r0, #8
 428              	.LVL50:
 429              	.L27:
 430              		.loc 1 221 0
 431 0020 03B0     		add	sp, sp, #12
 432              		.cfi_remember_state
 433              		.cfi_def_cfa_offset 12
 434              		@ sp needed
 435 0022 30BD     		pop	{r4, r5, pc}
 436              	.LVL51:
 437              	.L31:
 438              		.cfi_restore_state
 439              		.loc 1 204 0
 440 0024 0699     		ldr	r1, [sp, #24]
 441 0026 0834     		adds	r4, r4, #8
 442              	.LVL52:
 443 0028 0094     		str	r4, [sp]
 444 002a 2846     		mov	r0, r5
 445              	.LVL53:
 446 002c 0023     		movs	r3, #0
 447 002e 0122     		movs	r2, #1
 448 0030 3031     		adds	r1, r1, #48
 449              	.LVL54:
 450 0032 FFF7FEFF 		bl	canardDecodeScalar
 451              	.LVL55:
 452              		.loc 1 205 0
 453 0036 0128     		cmp	r0, #1
 454 0038 EED1     		bne	.L28
 455              		.loc 1 209 0
 456 003a 069B     		ldr	r3, [sp, #24]
ARM GAS  /tmp/cc7v9S6V.s 			page 9


 457 003c 03F13100 		add	r0, r3, #49
 458              	.LVL56:
 459              		.loc 1 210 0
 460 0040 EEE7     		b	.L27
 461              		.cfi_endproc
 462              	.LFE6:
 463              		.size	uavcan_protocol_param_ExecuteOpcodeResponse_decode_internal, .-uavcan_protocol_param_Execute
 464              		.section	.text.uavcan_protocol_param_ExecuteOpcodeResponse_decode,"ax",%progbits
 465              		.align	1
 466              		.p2align 4,,15
 467              		.global	uavcan_protocol_param_ExecuteOpcodeResponse_decode
 468              		.syntax unified
 469              		.thumb
 470              		.thumb_func
 471              		.fpu fpv4-sp-d16
 472              		.type	uavcan_protocol_param_ExecuteOpcodeResponse_decode, %function
 473              	uavcan_protocol_param_ExecuteOpcodeResponse_decode:
 474              	.LFB7:
 475              		.loc 1 237 0
 476              		.cfi_startproc
 477              		@ args = 0, pretend = 0, frame = 0
 478              		@ frame_needed = 0, uses_anonymous_args = 0
 479              	.LVL57:
 480 0000 70B5     		push	{r4, r5, r6, lr}
 481              		.cfi_def_cfa_offset 16
 482              		.cfi_offset 4, -16
 483              		.cfi_offset 5, -12
 484              		.cfi_offset 6, -8
 485              		.cfi_offset 14, -4
 486 0002 541E     		subs	r4, r2, #1
 487 0004 82B0     		sub	sp, sp, #8
 488              		.cfi_def_cfa_offset 24
 489 0006 02F10F06 		add	r6, r2, #15
 490              	.LBB3:
 491              		.loc 1 244 0
 492 000a 0025     		movs	r5, #0
 493              	.LVL58:
 494              	.L33:
 495              		.loc 1 244 0 is_stmt 0 discriminator 3
 496 000c 04F8015F 		strb	r5, [r4, #1]!
 497              		.loc 1 242 0 is_stmt 1 discriminator 3
 498 0010 B442     		cmp	r4, r6
 499 0012 FBD1     		bne	.L33
 500              	.LBE3:
 501              		.loc 1 247 0
 502 0014 0095     		str	r5, [sp]
 503 0016 FFF7FEFF 		bl	uavcan_protocol_param_ExecuteOpcodeResponse_decode_internal
 504              	.LVL59:
 505              		.loc 1 250 0
 506 001a 02B0     		add	sp, sp, #8
 507              		.cfi_def_cfa_offset 16
 508              		@ sp needed
 509 001c 70BD     		pop	{r4, r5, r6, pc}
 510              		.cfi_endproc
 511              	.LFE7:
 512              		.size	uavcan_protocol_param_ExecuteOpcodeResponse_decode, .-uavcan_protocol_param_ExecuteOpcodeRes
 513 001e 00BF     		.text
ARM GAS  /tmp/cc7v9S6V.s 			page 10


 514              	.Letext0:
 515              		.file 2 "/usr/arm-none-eabi/include/machine/_default_types.h"
 516              		.file 3 "/usr/arm-none-eabi/include/sys/_stdint.h"
 517              		.file 4 "libcanard/canard.h"
 518              		.file 5 "libcanard/dsdl/uavcan/protocol/param/ExecuteOpcode.h"