ARM GAS  /tmp/ccBTgKAn.s 			page 1


   1              		.cpu cortex-m4
   2              		.eabi_attribute 27, 1
   3              		.eabi_attribute 28, 1
   4              		.eabi_attribute 20, 1
   5              		.eabi_attribute 21, 1
   6              		.eabi_attribute 23, 3
   7              		.eabi_attribute 24, 1
   8              		.eabi_attribute 25, 1
   9              		.eabi_attribute 26, 1
  10              		.eabi_attribute 30, 2
  11              		.eabi_attribute 34, 1
  12              		.eabi_attribute 18, 4
  13              		.file	"param_NumericValue.c"
  14              		.text
  15              	.Ltext0:
  16              		.cfi_sections	.debug_frame
  17              		.section	.text.uavcan_protocol_param_NumericValue_encode_internal,"ax",%progbits
  18              		.align	1
  19              		.p2align 4,,15
  20              		.global	uavcan_protocol_param_NumericValue_encode_internal
  21              		.syntax unified
  22              		.thumb
  23              		.thumb_func
  24              		.fpu fpv4-sp-d16
  25              		.type	uavcan_protocol_param_NumericValue_encode_internal, %function
  26              	uavcan_protocol_param_NumericValue_encode_internal:
  27              	.LFB0:
  28              		.file 1 "libcanard/dsdl/uavcan/protocol/param/param_NumericValue.c"
  29              		.loc 1 37 0
  30              		.cfi_startproc
  31              		@ args = 0, pretend = 0, frame = 0
  32              		@ frame_needed = 0, uses_anonymous_args = 0
  33              	.LVL0:
  34 0000 70B5     		push	{r4, r5, r6, lr}
  35              		.cfi_def_cfa_offset 16
  36              		.cfi_offset 4, -16
  37              		.cfi_offset 5, -12
  38              		.cfi_offset 6, -8
  39              		.cfi_offset 14, -4
  40              		.loc 1 37 0
  41 0002 0446     		mov	r4, r0
  42 0004 0E46     		mov	r6, r1
  43              		.loc 1 42 0
  44 0006 0346     		mov	r3, r0
  45              	.LVL1:
  46              		.loc 1 37 0
  47 0008 1546     		mov	r5, r2
  48              		.loc 1 42 0
  49 000a 1146     		mov	r1, r2
  50              	.LVL2:
  51 000c 3046     		mov	r0, r6
  52              	.LVL3:
  53 000e 0222     		movs	r2, #2
  54              	.LVL4:
  55 0010 FFF7FEFF 		bl	canardEncodeScalar
  56              	.LVL5:
  57              		.loc 1 45 0
ARM GAS  /tmp/ccBTgKAn.s 			page 2


  58 0014 2378     		ldrb	r3, [r4]	@ zero_extendqisi2
  59              		.loc 1 43 0
  60 0016 A81C     		adds	r0, r5, #2
  61              	.LVL6:
  62              		.loc 1 45 0
  63 0018 23B1     		cbz	r3, .L7
  64              		.loc 1 49 0
  65 001a 012B     		cmp	r3, #1
  66 001c 14D0     		beq	.L8
  67              		.loc 1 54 0
  68 001e 022B     		cmp	r3, #2
  69 0020 08D0     		beq	.L9
  70              		.loc 1 61 0
  71 0022 70BD     		pop	{r4, r5, r6, pc}
  72              	.LVL7:
  73              	.L7:
  74              		.loc 1 47 0
  75 0024 0246     		mov	r2, r0
  76 0026 3146     		mov	r1, r6
  77 0028 04F10800 		add	r0, r4, #8
  78              	.LVL8:
  79              		.loc 1 61 0
  80 002c BDE87040 		pop	{r4, r5, r6, lr}
  81              		.cfi_remember_state
  82              		.cfi_restore 14
  83              		.cfi_restore 6
  84              		.cfi_restore 5
  85              		.cfi_restore 4
  86              		.cfi_def_cfa_offset 0
  87              	.LVL9:
  88              		.loc 1 47 0
  89 0030 FFF7FEBF 		b	uavcan_protocol_param_Empty_encode_internal
  90              	.LVL10:
  91              	.L9:
  92              		.cfi_restore_state
  93              		.loc 1 55 0
  94 0034 0146     		mov	r1, r0
  95 0036 04F10803 		add	r3, r4, #8
  96 003a 3046     		mov	r0, r6
  97              	.LVL11:
  98 003c 2022     		movs	r2, #32
  99 003e FFF7FEFF 		bl	canardEncodeScalar
 100              	.LVL12:
 101              		.loc 1 56 0
 102 0042 05F12200 		add	r0, r5, #34
 103              	.LVL13:
 104              		.loc 1 61 0
 105 0046 70BD     		pop	{r4, r5, r6, pc}
 106              	.LVL14:
 107              	.L8:
 108              		.loc 1 50 0
 109 0048 0146     		mov	r1, r0
 110 004a 04F10803 		add	r3, r4, #8
 111 004e 3046     		mov	r0, r6
 112              	.LVL15:
 113 0050 4022     		movs	r2, #64
 114 0052 FFF7FEFF 		bl	canardEncodeScalar
ARM GAS  /tmp/ccBTgKAn.s 			page 3


 115              	.LVL16:
 116              		.loc 1 51 0
 117 0056 05F14200 		add	r0, r5, #66
 118              	.LVL17:
 119              		.loc 1 61 0
 120 005a 70BD     		pop	{r4, r5, r6, pc}
 121              		.cfi_endproc
 122              	.LFE0:
 123              		.size	uavcan_protocol_param_NumericValue_encode_internal, .-uavcan_protocol_param_NumericValue_enc
 124              		.section	.text.uavcan_protocol_param_NumericValue_encode,"ax",%progbits
 125              		.align	1
 126              		.p2align 4,,15
 127              		.global	uavcan_protocol_param_NumericValue_encode
 128              		.syntax unified
 129              		.thumb
 130              		.thumb_func
 131              		.fpu fpv4-sp-d16
 132              		.type	uavcan_protocol_param_NumericValue_encode, %function
 133              	uavcan_protocol_param_NumericValue_encode:
 134              	.LFB1:
 135              		.loc 1 70 0
 136              		.cfi_startproc
 137              		@ args = 0, pretend = 0, frame = 0
 138              		@ frame_needed = 0, uses_anonymous_args = 0
 139              	.LVL18:
 140 0000 08B5     		push	{r3, lr}
 141              		.cfi_def_cfa_offset 8
 142              		.cfi_offset 3, -8
 143              		.cfi_offset 14, -4
 144              		.loc 1 73 0
 145 0002 0022     		movs	r2, #0
 146 0004 0123     		movs	r3, #1
 147 0006 FFF7FEFF 		bl	uavcan_protocol_param_NumericValue_encode_internal
 148              	.LVL19:
 149              		.loc 1 75 0
 150 000a 0730     		adds	r0, r0, #7
 151              	.LVL20:
 152              		.loc 1 76 0
 153 000c C008     		lsrs	r0, r0, #3
 154              	.LVL21:
 155 000e 08BD     		pop	{r3, pc}
 156              		.cfi_endproc
 157              	.LFE1:
 158              		.size	uavcan_protocol_param_NumericValue_encode, .-uavcan_protocol_param_NumericValue_encode
 159              		.section	.text.uavcan_protocol_param_NumericValue_decode_internal,"ax",%progbits
 160              		.align	1
 161              		.p2align 4,,15
 162              		.global	uavcan_protocol_param_NumericValue_decode_internal
 163              		.syntax unified
 164              		.thumb
 165              		.thumb_func
 166              		.fpu fpv4-sp-d16
 167              		.type	uavcan_protocol_param_NumericValue_decode_internal, %function
 168              	uavcan_protocol_param_NumericValue_decode_internal:
 169              	.LFB2:
 170              		.loc 1 95 0
 171              		.cfi_startproc
ARM GAS  /tmp/ccBTgKAn.s 			page 4


 172              		@ args = 4, pretend = 0, frame = 0
 173              		@ frame_needed = 0, uses_anonymous_args = 0
 174              	.LVL22:
 175 0000 2DE9F041 		push	{r4, r5, r6, r7, r8, lr}
 176              		.cfi_def_cfa_offset 24
 177              		.cfi_offset 4, -24
 178              		.cfi_offset 5, -20
 179              		.cfi_offset 6, -16
 180              		.cfi_offset 7, -12
 181              		.cfi_offset 8, -8
 182              		.cfi_offset 14, -4
 183 0004 82B0     		sub	sp, sp, #8
 184              		.cfi_def_cfa_offset 32
 185              		.loc 1 95 0
 186 0006 1446     		mov	r4, r2
 187 0008 089D     		ldr	r5, [sp, #32]
 188              		.loc 1 99 0
 189 000a 0092     		str	r2, [sp]
 190              		.loc 1 95 0
 191 000c 0F46     		mov	r7, r1
 192 000e 9846     		mov	r8, r3
 193              		.loc 1 99 0
 194 0010 2946     		mov	r1, r5
 195              	.LVL23:
 196 0012 0023     		movs	r3, #0
 197              	.LVL24:
 198 0014 0222     		movs	r2, #2
 199              	.LVL25:
 200              		.loc 1 95 0
 201 0016 0646     		mov	r6, r0
 202              		.loc 1 99 0
 203 0018 FFF7FEFF 		bl	canardDecodeScalar
 204              	.LVL26:
 205              		.loc 1 100 0
 206 001c 0228     		cmp	r0, #2
 207 001e 06D0     		beq	.L18
 208              	.LVL27:
 209              	.L13:
 210              		.loc 1 137 0
 211 0020 0028     		cmp	r0, #0
 212              		.loc 1 143 0
 213 0022 A8BF     		it	ge
 214 0024 6FF00800 		mvnge	r0, #8
 215              	.LVL28:
 216              	.L12:
 217              		.loc 1 145 0
 218 0028 02B0     		add	sp, sp, #8
 219              		.cfi_remember_state
 220              		.cfi_def_cfa_offset 24
 221              		@ sp needed
 222 002a BDE8F081 		pop	{r4, r5, r6, r7, r8, pc}
 223              	.LVL29:
 224              	.L18:
 225              		.cfi_restore_state
 226              		.loc 1 106 0
 227 002e 2378     		ldrb	r3, [r4]	@ zero_extendqisi2
 228              		.loc 1 104 0
ARM GAS  /tmp/ccBTgKAn.s 			page 5


 229 0030 A81C     		adds	r0, r5, #2
 230              	.LVL30:
 231              		.loc 1 106 0
 232 0032 83B1     		cbz	r3, .L19
 233              		.loc 1 116 0
 234 0034 012B     		cmp	r3, #1
 235 0036 19D0     		beq	.L20
 236              		.loc 1 125 0
 237 0038 022B     		cmp	r3, #2
 238 003a F5D1     		bne	.L12
 239              		.loc 1 127 0
 240 003c 0834     		adds	r4, r4, #8
 241              	.LVL31:
 242 003e 0146     		mov	r1, r0
 243 0040 0094     		str	r4, [sp]
 244 0042 3046     		mov	r0, r6
 245              	.LVL32:
 246 0044 0023     		movs	r3, #0
 247 0046 2022     		movs	r2, #32
 248 0048 FFF7FEFF 		bl	canardDecodeScalar
 249              	.LVL33:
 250              		.loc 1 128 0
 251 004c 2028     		cmp	r0, #32
 252 004e E7D1     		bne	.L13
 253              		.loc 1 132 0
 254 0050 05F12200 		add	r0, r5, #34
 255              	.LVL34:
 256 0054 E8E7     		b	.L12
 257              	.LVL35:
 258              	.L19:
 259              		.loc 1 109 0
 260 0056 0890     		str	r0, [sp, #32]
 261 0058 4346     		mov	r3, r8
 262 005a 04F10802 		add	r2, r4, #8
 263 005e 3946     		mov	r1, r7
 264 0060 3046     		mov	r0, r6
 265              	.LVL36:
 266              		.loc 1 145 0
 267 0062 02B0     		add	sp, sp, #8
 268              		.cfi_remember_state
 269              		.cfi_def_cfa_offset 24
 270              		@ sp needed
 271 0064 BDE8F041 		pop	{r4, r5, r6, r7, r8, lr}
 272              		.cfi_restore 14
 273              		.cfi_restore 8
 274              		.cfi_restore 7
 275              		.cfi_restore 6
 276              		.cfi_restore 5
 277              		.cfi_restore 4
 278              		.cfi_def_cfa_offset 0
 279              	.LVL37:
 280              		.loc 1 109 0
 281 0068 FFF7FEBF 		b	uavcan_protocol_param_Empty_decode_internal
 282              	.LVL38:
 283              	.L20:
 284              		.cfi_restore_state
 285              		.loc 1 118 0
ARM GAS  /tmp/ccBTgKAn.s 			page 6


 286 006c 0834     		adds	r4, r4, #8
 287              	.LVL39:
 288 006e 0146     		mov	r1, r0
 289 0070 0094     		str	r4, [sp]
 290 0072 3046     		mov	r0, r6
 291              	.LVL40:
 292 0074 4022     		movs	r2, #64
 293 0076 FFF7FEFF 		bl	canardDecodeScalar
 294              	.LVL41:
 295              		.loc 1 119 0
 296 007a 4028     		cmp	r0, #64
 297 007c D0D1     		bne	.L13
 298              		.loc 1 123 0
 299 007e 05F14200 		add	r0, r5, #66
 300              	.LVL42:
 301 0082 D1E7     		b	.L12
 302              		.cfi_endproc
 303              	.LFE2:
 304              		.size	uavcan_protocol_param_NumericValue_decode_internal, .-uavcan_protocol_param_NumericValue_dec
 305              		.section	.text.uavcan_protocol_param_NumericValue_decode,"ax",%progbits
 306              		.align	1
 307              		.p2align 4,,15
 308              		.global	uavcan_protocol_param_NumericValue_decode
 309              		.syntax unified
 310              		.thumb
 311              		.thumb_func
 312              		.fpu fpv4-sp-d16
 313              		.type	uavcan_protocol_param_NumericValue_decode, %function
 314              	uavcan_protocol_param_NumericValue_decode:
 315              	.LFB3:
 316              		.loc 1 161 0
 317              		.cfi_startproc
 318              		@ args = 0, pretend = 0, frame = 0
 319              		@ frame_needed = 0, uses_anonymous_args = 0
 320              	.LVL43:
 321 0000 70B5     		push	{r4, r5, r6, lr}
 322              		.cfi_def_cfa_offset 16
 323              		.cfi_offset 4, -16
 324              		.cfi_offset 5, -12
 325              		.cfi_offset 6, -8
 326              		.cfi_offset 14, -4
 327 0002 541E     		subs	r4, r2, #1
 328 0004 82B0     		sub	sp, sp, #8
 329              		.cfi_def_cfa_offset 24
 330 0006 02F10F06 		add	r6, r2, #15
 331              	.LBB2:
 332              		.loc 1 168 0
 333 000a 0025     		movs	r5, #0
 334              	.LVL44:
 335              	.L22:
 336              		.loc 1 168 0 is_stmt 0 discriminator 3
 337 000c 04F8015F 		strb	r5, [r4, #1]!
 338              		.loc 1 166 0 is_stmt 1 discriminator 3
 339 0010 B442     		cmp	r4, r6
 340 0012 FBD1     		bne	.L22
 341              	.LBE2:
 342              		.loc 1 171 0
ARM GAS  /tmp/ccBTgKAn.s 			page 7


 343 0014 0095     		str	r5, [sp]
 344 0016 FFF7FEFF 		bl	uavcan_protocol_param_NumericValue_decode_internal
 345              	.LVL45:
 346              		.loc 1 174 0
 347 001a 02B0     		add	sp, sp, #8
 348              		.cfi_def_cfa_offset 16
 349              		@ sp needed
 350 001c 70BD     		pop	{r4, r5, r6, pc}
 351              		.cfi_endproc
 352              	.LFE3:
 353              		.size	uavcan_protocol_param_NumericValue_decode, .-uavcan_protocol_param_NumericValue_decode
 354 001e 00BF     		.text
 355              	.Letext0:
 356              		.file 2 "/usr/arm-none-eabi/include/machine/_default_types.h"
 357              		.file 3 "/usr/arm-none-eabi/include/sys/_stdint.h"
 358              		.file 4 "libcanard/canard.h"
 359              		.file 5 "libcanard/dsdl/uavcan/protocol/param/Empty.h"
 360              		.file 6 "libcanard/dsdl/uavcan/protocol/param/NumericValue.h"