ARM GAS  /tmp/cczPv8m9.s 			page 1


   1              		.cpu cortex-m4
   2              		.eabi_attribute 27, 1
   3              		.eabi_attribute 28, 1
   4              		.eabi_attribute 20, 1
   5              		.eabi_attribute 21, 1
   6              		.eabi_attribute 23, 3
   7              		.eabi_attribute 24, 1
   8              		.eabi_attribute 25, 1
   9              		.eabi_attribute 26, 1
  10              		.eabi_attribute 30, 2
  11              		.eabi_attribute 34, 1
  12              		.eabi_attribute 18, 4
  13              		.file	"param_GetSet.c"
  14              		.text
  15              	.Ltext0:
  16              		.cfi_sections	.debug_frame
  17              		.section	.text.uavcan_protocol_param_GetSetRequest_encode_internal,"ax",%progbits
  18              		.align	1
  19              		.p2align 4,,15
  20              		.global	uavcan_protocol_param_GetSetRequest_encode_internal
  21              		.syntax unified
  22              		.thumb
  23              		.thumb_func
  24              		.fpu fpv4-sp-d16
  25              		.type	uavcan_protocol_param_GetSetRequest_encode_internal, %function
  26              	uavcan_protocol_param_GetSetRequest_encode_internal:
  27              	.LFB0:
  28              		.file 1 "libcanard/dsdl/uavcan/protocol/param/param_GetSet.c"
  29              		.loc 1 37 0
  30              		.cfi_startproc
  31              		@ args = 0, pretend = 0, frame = 0
  32              		@ frame_needed = 0, uses_anonymous_args = 0
  33              	.LVL0:
  34 0000 2DE9F041 		push	{r4, r5, r6, r7, r8, lr}
  35              		.cfi_def_cfa_offset 24
  36              		.cfi_offset 4, -24
  37              		.cfi_offset 5, -20
  38              		.cfi_offset 6, -16
  39              		.cfi_offset 7, -12
  40              		.cfi_offset 8, -8
  41              		.cfi_offset 14, -4
  42              		.loc 1 37 0
  43 0004 0646     		mov	r6, r0
  44              		.loc 1 40 0
  45 0006 0088     		ldrh	r0, [r0]
  46              	.LVL1:
  47 0008 41F6FF75 		movw	r5, #8191
  48 000c A842     		cmp	r0, r5
  49 000e 28BF     		it	cs
  50 0010 2846     		movcs	r0, r5
  51              		.loc 1 37 0
  52 0012 0F46     		mov	r7, r1
  53 0014 1446     		mov	r4, r2
  54              		.loc 1 41 0
  55 0016 1146     		mov	r1, r2
  56              	.LVL2:
  57              		.loc 1 40 0
ARM GAS  /tmp/cczPv8m9.s 			page 2


  58 0018 3080     		strh	r0, [r6]	@ movhi
  59              		.loc 1 41 0
  60 001a 0D22     		movs	r2, #13
  61              	.LVL3:
  62 001c 3846     		mov	r0, r7
  63              		.loc 1 37 0
  64 001e 9846     		mov	r8, r3
  65              		.loc 1 41 0
  66 0020 3346     		mov	r3, r6
  67              	.LVL4:
  68 0022 FFF7FEFF 		bl	canardEncodeScalar
  69              	.LVL5:
  70              		.loc 1 45 0
  71 0026 04F10D02 		add	r2, r4, #13
  72              	.LVL6:
  73 002a 3946     		mov	r1, r7
  74 002c 06F10800 		add	r0, r6, #8
  75 0030 0023     		movs	r3, #0
  76 0032 FFF7FEFF 		bl	uavcan_protocol_param_Value_encode_internal
  77              	.LVL7:
  78 0036 0546     		mov	r5, r0
  79              	.LVL8:
  80              		.loc 1 48 0
  81 0038 B8F1000F 		cmp	r8, #0
  82 003c 12D0     		beq	.L11
  83              	.LVL9:
  84              	.L2:
  85              		.loc 1 56 0 discriminator 1
  86 003e 337E     		ldrb	r3, [r6, #24]	@ zero_extendqisi2
  87 0040 6BB1     		cbz	r3, .L1
  88              		.loc 1 56 0 is_stmt 0
  89 0042 0024     		movs	r4, #0
  90              	.LVL10:
  91              	.L4:
  92              		.loc 1 61 0 is_stmt 1 discriminator 3
  93 0044 F369     		ldr	r3, [r6, #28]
  94              		.loc 1 58 0 discriminator 3
  95 0046 2946     		mov	r1, r5
  96 0048 2344     		add	r3, r3, r4
  97 004a 0822     		movs	r2, #8
  98 004c 3846     		mov	r0, r7
  99 004e FFF7FEFF 		bl	canardEncodeScalar
 100              	.LVL11:
 101              		.loc 1 56 0 discriminator 3
 102 0052 337E     		ldrb	r3, [r6, #24]	@ zero_extendqisi2
 103 0054 0134     		adds	r4, r4, #1
 104              	.LVL12:
 105 0056 A342     		cmp	r3, r4
 106              		.loc 1 62 0 discriminator 3
 107 0058 05F10805 		add	r5, r5, #8
 108              	.LVL13:
 109              		.loc 1 56 0 discriminator 3
 110 005c F2D8     		bhi	.L4
 111              	.LVL14:
 112              	.L1:
 113              		.loc 1 66 0
 114 005e 2846     		mov	r0, r5
ARM GAS  /tmp/cczPv8m9.s 			page 3


 115 0060 BDE8F081 		pop	{r4, r5, r6, r7, r8, pc}
 116              	.LVL15:
 117              	.L11:
 118              		.loc 1 51 0
 119 0064 0146     		mov	r1, r0
 120 0066 06F11803 		add	r3, r6, #24
 121 006a 0722     		movs	r2, #7
 122 006c 3846     		mov	r0, r7
 123              	.LVL16:
 124 006e FFF7FEFF 		bl	canardEncodeScalar
 125              	.LVL17:
 126              		.loc 1 52 0
 127 0072 0735     		adds	r5, r5, #7
 128              	.LVL18:
 129 0074 E3E7     		b	.L2
 130              		.cfi_endproc
 131              	.LFE0:
 132              		.size	uavcan_protocol_param_GetSetRequest_encode_internal, .-uavcan_protocol_param_GetSetRequest_e
 133 0076 00BF     		.section	.text.uavcan_protocol_param_GetSetRequest_encode,"ax",%progbits
 134              		.align	1
 135              		.p2align 4,,15
 136              		.global	uavcan_protocol_param_GetSetRequest_encode
 137              		.syntax unified
 138              		.thumb
 139              		.thumb_func
 140              		.fpu fpv4-sp-d16
 141              		.type	uavcan_protocol_param_GetSetRequest_encode, %function
 142              	uavcan_protocol_param_GetSetRequest_encode:
 143              	.LFB1:
 144              		.loc 1 75 0
 145              		.cfi_startproc
 146              		@ args = 0, pretend = 0, frame = 0
 147              		@ frame_needed = 0, uses_anonymous_args = 0
 148              	.LVL19:
 149 0000 08B5     		push	{r3, lr}
 150              		.cfi_def_cfa_offset 8
 151              		.cfi_offset 3, -8
 152              		.cfi_offset 14, -4
 153              		.loc 1 78 0
 154 0002 0022     		movs	r2, #0
 155 0004 0123     		movs	r3, #1
 156 0006 FFF7FEFF 		bl	uavcan_protocol_param_GetSetRequest_encode_internal
 157              	.LVL20:
 158              		.loc 1 80 0
 159 000a 0730     		adds	r0, r0, #7
 160              	.LVL21:
 161              		.loc 1 81 0
 162 000c C008     		lsrs	r0, r0, #3
 163              	.LVL22:
 164 000e 08BD     		pop	{r3, pc}
 165              		.cfi_endproc
 166              	.LFE1:
 167              		.size	uavcan_protocol_param_GetSetRequest_encode, .-uavcan_protocol_param_GetSetRequest_encode
 168              		.section	.text.uavcan_protocol_param_GetSetRequest_decode_internal,"ax",%progbits
 169              		.align	1
 170              		.p2align 4,,15
 171              		.global	uavcan_protocol_param_GetSetRequest_decode_internal
ARM GAS  /tmp/cczPv8m9.s 			page 4


 172              		.syntax unified
 173              		.thumb
 174              		.thumb_func
 175              		.fpu fpv4-sp-d16
 176              		.type	uavcan_protocol_param_GetSetRequest_decode_internal, %function
 177              	uavcan_protocol_param_GetSetRequest_decode_internal:
 178              	.LFB2:
 179              		.loc 1 100 0
 180              		.cfi_startproc
 181              		@ args = 4, pretend = 0, frame = 0
 182              		@ frame_needed = 0, uses_anonymous_args = 0
 183              	.LVL23:
 184 0000 2DE9F043 		push	{r4, r5, r6, r7, r8, r9, lr}
 185              		.cfi_def_cfa_offset 28
 186              		.cfi_offset 4, -28
 187              		.cfi_offset 5, -24
 188              		.cfi_offset 6, -20
 189              		.cfi_offset 7, -16
 190              		.cfi_offset 8, -12
 191              		.cfi_offset 9, -8
 192              		.cfi_offset 14, -4
 193 0004 83B0     		sub	sp, sp, #12
 194              		.cfi_def_cfa_offset 40
 195              		.loc 1 100 0
 196 0006 1646     		mov	r6, r2
 197              		.loc 1 104 0
 198 0008 0092     		str	r2, [sp]
 199              		.loc 1 100 0
 200 000a 0F46     		mov	r7, r1
 201 000c 1D46     		mov	r5, r3
 202              		.loc 1 104 0
 203 000e 0A99     		ldr	r1, [sp, #40]
 204              	.LVL24:
 205 0010 0023     		movs	r3, #0
 206              	.LVL25:
 207 0012 0D22     		movs	r2, #13
 208              	.LVL26:
 209              		.loc 1 100 0
 210 0014 8146     		mov	r9, r0
 211              		.loc 1 104 0
 212 0016 FFF7FEFF 		bl	canardDecodeScalar
 213              	.LVL27:
 214              		.loc 1 105 0
 215 001a 0D28     		cmp	r0, #13
 216              		.loc 1 104 0
 217 001c 0446     		mov	r4, r0
 218              	.LVL28:
 219              		.loc 1 105 0
 220 001e 07D0     		beq	.L37
 221              	.LVL29:
 222              	.L15:
 223              		.loc 1 173 0
 224 0020 002C     		cmp	r4, #0
 225 0022 A8BF     		it	ge
 226 0024 6FF00804 		mvnge	r4, #8
 227              	.LVL30:
 228              	.L14:
ARM GAS  /tmp/cczPv8m9.s 			page 5


 229              		.loc 1 175 0
 230 0028 2046     		mov	r0, r4
 231 002a 03B0     		add	sp, sp, #12
 232              		.cfi_remember_state
 233              		.cfi_def_cfa_offset 28
 234              		@ sp needed
 235 002c BDE8F083 		pop	{r4, r5, r6, r7, r8, r9, pc}
 236              	.LVL31:
 237              	.L37:
 238              		.cfi_restore_state
 239              		.loc 1 109 0
 240 0030 0A9B     		ldr	r3, [sp, #40]
 241 0032 0D33     		adds	r3, r3, #13
 242              	.LVL32:
 243              		.loc 1 112 0
 244 0034 0093     		str	r3, [sp]
 245 0036 06F10802 		add	r2, r6, #8
 246 003a 2B46     		mov	r3, r5
 247              	.LVL33:
 248 003c 3946     		mov	r1, r7
 249 003e 4846     		mov	r0, r9
 250              	.LVL34:
 251 0040 FFF7FEFF 		bl	uavcan_protocol_param_Value_decode_internal
 252              	.LVL35:
 253              		.loc 1 113 0
 254 0044 041E     		subs	r4, r0, #0
 255              	.LVL36:
 256 0046 EFDB     		blt	.L14
 257              		.loc 1 121 0
 258 0048 2FB3     		cbz	r7, .L17
 259              		.loc 1 124 0
 260 004a D4EBC707 		rsbs	r7, r4, r7, lsl #3
 261 004e 48BF     		it	mi
 262 0050 0737     		addmi	r7, r7, #7
 263 0052 C7F3C707 		ubfx	r7, r7, #3, #8
 264 0056 3776     		strb	r7, [r6, #24]
 265              	.LVL37:
 266              	.L19:
 267              		.loc 1 142 0
 268 0058 0DB1     		cbz	r5, .L20
 269              		.loc 1 144 0
 270 005a 2B68     		ldr	r3, [r5]
 271 005c F361     		str	r3, [r6, #28]
 272              	.L20:
 273              		.loc 1 147 0 discriminator 1
 274 005e 002F     		cmp	r7, #0
 275 0060 E2D0     		beq	.L14
 276              		.loc 1 147 0 is_stmt 0
 277 0062 4FF00008 		mov	r8, #0
 278 0066 05E0     		b	.L22
 279              	.LVL38:
 280              	.L38:
 281              		.loc 1 160 0 is_stmt 1
 282 0068 2B68     		ldr	r3, [r5]
 283 006a 0133     		adds	r3, r3, #1
 284 006c 2B60     		str	r3, [r5]
 285              	.LVL39:
ARM GAS  /tmp/cczPv8m9.s 			page 6


 286              	.L21:
 287              		.loc 1 147 0 discriminator 2
 288 006e 337E     		ldrb	r3, [r6, #24]	@ zero_extendqisi2
 289 0070 4345     		cmp	r3, r8
 290 0072 D9D9     		bls	.L14
 291              	.LVL40:
 292              	.L22:
 293              		.loc 1 151 0
 294 0074 0822     		movs	r2, #8
 295 0076 2146     		mov	r1, r4
 296 0078 0023     		movs	r3, #0
 297 007a 4846     		mov	r0, r9
 298              		.loc 1 147 0
 299 007c 08F10108 		add	r8, r8, #1
 300              	.LVL41:
 301              		.loc 1 162 0
 302 0080 1444     		add	r4, r4, r2
 303              	.LVL42:
 304              		.loc 1 149 0
 305 0082 002D     		cmp	r5, #0
 306 0084 F3D0     		beq	.L21
 307              	.LVL43:
 308              		.loc 1 151 0
 309 0086 2F68     		ldr	r7, [r5]
 310 0088 0097     		str	r7, [sp]
 311 008a FFF7FEFF 		bl	canardDecodeScalar
 312              	.LVL44:
 313              		.loc 1 156 0
 314 008e 0828     		cmp	r0, #8
 315 0090 EAD0     		beq	.L38
 316              	.LVL45:
 317              	.L24:
 318              		.loc 1 166 0
 319 0092 0446     		mov	r4, r0
 320 0094 C4E7     		b	.L15
 321              	.LVL46:
 322              	.L17:
 323              		.loc 1 133 0
 324 0096 06F11802 		add	r2, r6, #24
 325              		.loc 1 129 0
 326 009a 0092     		str	r2, [sp]
 327 009c 3B46     		mov	r3, r7
 328 009e 0722     		movs	r2, #7
 329 00a0 2146     		mov	r1, r4
 330 00a2 4846     		mov	r0, r9
 331              	.LVL47:
 332 00a4 FFF7FEFF 		bl	canardDecodeScalar
 333              	.LVL48:
 334              		.loc 1 134 0
 335 00a8 0728     		cmp	r0, #7
 336 00aa F2D1     		bne	.L24
 337 00ac 377E     		ldrb	r7, [r6, #24]	@ zero_extendqisi2
 338              		.loc 1 138 0
 339 00ae 0734     		adds	r4, r4, #7
 340              	.LVL49:
 341 00b0 D2E7     		b	.L19
 342              		.cfi_endproc
ARM GAS  /tmp/cczPv8m9.s 			page 7


 343              	.LFE2:
 344              		.size	uavcan_protocol_param_GetSetRequest_decode_internal, .-uavcan_protocol_param_GetSetRequest_d
 345 00b2 00BF     		.section	.text.uavcan_protocol_param_GetSetRequest_decode,"ax",%progbits
 346              		.align	1
 347              		.p2align 4,,15
 348              		.global	uavcan_protocol_param_GetSetRequest_decode
 349              		.syntax unified
 350              		.thumb
 351              		.thumb_func
 352              		.fpu fpv4-sp-d16
 353              		.type	uavcan_protocol_param_GetSetRequest_decode, %function
 354              	uavcan_protocol_param_GetSetRequest_decode:
 355              	.LFB3:
 356              		.loc 1 191 0
 357              		.cfi_startproc
 358              		@ args = 0, pretend = 0, frame = 0
 359              		@ frame_needed = 0, uses_anonymous_args = 0
 360              	.LVL50:
 361 0000 70B5     		push	{r4, r5, r6, lr}
 362              		.cfi_def_cfa_offset 16
 363              		.cfi_offset 4, -16
 364              		.cfi_offset 5, -12
 365              		.cfi_offset 6, -8
 366              		.cfi_offset 14, -4
 367 0002 541E     		subs	r4, r2, #1
 368 0004 82B0     		sub	sp, sp, #8
 369              		.cfi_def_cfa_offset 24
 370 0006 02F11F06 		add	r6, r2, #31
 371              	.LBB2:
 372              		.loc 1 198 0
 373 000a 0025     		movs	r5, #0
 374              	.LVL51:
 375              	.L40:
 376              		.loc 1 198 0 is_stmt 0 discriminator 3
 377 000c 04F8015F 		strb	r5, [r4, #1]!
 378              		.loc 1 196 0 is_stmt 1 discriminator 3
 379 0010 B442     		cmp	r4, r6
 380 0012 FBD1     		bne	.L40
 381              	.LBE2:
 382              		.loc 1 201 0
 383 0014 0095     		str	r5, [sp]
 384 0016 FFF7FEFF 		bl	uavcan_protocol_param_GetSetRequest_decode_internal
 385              	.LVL52:
 386              		.loc 1 204 0
 387 001a 02B0     		add	sp, sp, #8
 388              		.cfi_def_cfa_offset 16
 389              		@ sp needed
 390 001c 70BD     		pop	{r4, r5, r6, pc}
 391              		.cfi_endproc
 392              	.LFE3:
 393              		.size	uavcan_protocol_param_GetSetRequest_decode, .-uavcan_protocol_param_GetSetRequest_decode
 394 001e 00BF     		.section	.text.uavcan_protocol_param_GetSetResponse_encode_internal,"ax",%progbits
 395              		.align	1
 396              		.p2align 4,,15
 397              		.global	uavcan_protocol_param_GetSetResponse_encode_internal
 398              		.syntax unified
 399              		.thumb
ARM GAS  /tmp/cczPv8m9.s 			page 8


 400              		.thumb_func
 401              		.fpu fpv4-sp-d16
 402              		.type	uavcan_protocol_param_GetSetResponse_encode_internal, %function
 403              	uavcan_protocol_param_GetSetResponse_encode_internal:
 404              	.LFB4:
 405              		.loc 1 218 0
 406              		.cfi_startproc
 407              		@ args = 0, pretend = 0, frame = 0
 408              		@ frame_needed = 0, uses_anonymous_args = 0
 409              	.LVL53:
 410 0000 F8B5     		push	{r3, r4, r5, r6, r7, lr}
 411              		.cfi_def_cfa_offset 24
 412              		.cfi_offset 3, -24
 413              		.cfi_offset 4, -20
 414              		.cfi_offset 5, -16
 415              		.cfi_offset 6, -12
 416              		.cfi_offset 7, -8
 417              		.cfi_offset 14, -4
 418              		.loc 1 225 0
 419 0002 0532     		adds	r2, r2, #5
 420              	.LVL54:
 421              		.loc 1 218 0
 422 0004 1C46     		mov	r4, r3
 423              		.loc 1 225 0
 424 0006 0023     		movs	r3, #0
 425              	.LVL55:
 426              		.loc 1 218 0
 427 0008 0646     		mov	r6, r0
 428 000a 0F46     		mov	r7, r1
 429              		.loc 1 225 0
 430 000c FFF7FEFF 		bl	uavcan_protocol_param_Value_encode_internal
 431              	.LVL56:
 432              		.loc 1 231 0
 433 0010 3946     		mov	r1, r7
 434 0012 421D     		adds	r2, r0, #5
 435              	.LVL57:
 436 0014 0023     		movs	r3, #0
 437 0016 06F11000 		add	r0, r6, #16
 438 001a FFF7FEFF 		bl	uavcan_protocol_param_Value_encode_internal
 439              	.LVL58:
 440              		.loc 1 237 0
 441 001e 3946     		mov	r1, r7
 442 0020 821D     		adds	r2, r0, #6
 443              	.LVL59:
 444 0022 0023     		movs	r3, #0
 445 0024 06F12000 		add	r0, r6, #32
 446 0028 FFF7FEFF 		bl	uavcan_protocol_param_NumericValue_encode_internal
 447              	.LVL60:
 448              		.loc 1 243 0
 449 002c 3946     		mov	r1, r7
 450 002e 821D     		adds	r2, r0, #6
 451              	.LVL61:
 452 0030 0023     		movs	r3, #0
 453 0032 06F13000 		add	r0, r6, #48
 454 0036 FFF7FEFF 		bl	uavcan_protocol_param_NumericValue_encode_internal
 455              	.LVL62:
 456 003a 0546     		mov	r5, r0
ARM GAS  /tmp/cczPv8m9.s 			page 9


 457              	.LVL63:
 458              		.loc 1 246 0
 459 003c 9CB1     		cbz	r4, .L52
 460              	.LVL64:
 461              	.L44:
 462              		.loc 1 254 0 discriminator 1
 463 003e 96F84030 		ldrb	r3, [r6, #64]	@ zero_extendqisi2
 464 0042 73B1     		cbz	r3, .L43
 465              		.loc 1 254 0 is_stmt 0
 466 0044 0024     		movs	r4, #0
 467              	.LVL65:
 468              	.L46:
 469              		.loc 1 259 0 is_stmt 1 discriminator 3
 470 0046 736C     		ldr	r3, [r6, #68]
 471              		.loc 1 256 0 discriminator 3
 472 0048 2946     		mov	r1, r5
 473 004a 2344     		add	r3, r3, r4
 474 004c 0822     		movs	r2, #8
 475 004e 3846     		mov	r0, r7
 476 0050 FFF7FEFF 		bl	canardEncodeScalar
 477              	.LVL66:
 478              		.loc 1 254 0 discriminator 3
 479 0054 96F84030 		ldrb	r3, [r6, #64]	@ zero_extendqisi2
 480 0058 0134     		adds	r4, r4, #1
 481              	.LVL67:
 482 005a A342     		cmp	r3, r4
 483              		.loc 1 260 0 discriminator 3
 484 005c 05F10805 		add	r5, r5, #8
 485              	.LVL68:
 486              		.loc 1 254 0 discriminator 3
 487 0060 F1D8     		bhi	.L46
 488              	.LVL69:
 489              	.L43:
 490              		.loc 1 264 0
 491 0062 2846     		mov	r0, r5
 492 0064 F8BD     		pop	{r3, r4, r5, r6, r7, pc}
 493              	.LVL70:
 494              	.L52:
 495              		.loc 1 249 0
 496 0066 0146     		mov	r1, r0
 497 0068 06F14003 		add	r3, r6, #64
 498 006c 0722     		movs	r2, #7
 499 006e 3846     		mov	r0, r7
 500              	.LVL71:
 501 0070 FFF7FEFF 		bl	canardEncodeScalar
 502              	.LVL72:
 503              		.loc 1 250 0
 504 0074 0735     		adds	r5, r5, #7
 505              	.LVL73:
 506 0076 E2E7     		b	.L44
 507              		.cfi_endproc
 508              	.LFE4:
 509              		.size	uavcan_protocol_param_GetSetResponse_encode_internal, .-uavcan_protocol_param_GetSetResponse
 510              		.section	.text.uavcan_protocol_param_GetSetResponse_encode,"ax",%progbits
 511              		.align	1
 512              		.p2align 4,,15
 513              		.global	uavcan_protocol_param_GetSetResponse_encode
ARM GAS  /tmp/cczPv8m9.s 			page 10


 514              		.syntax unified
 515              		.thumb
 516              		.thumb_func
 517              		.fpu fpv4-sp-d16
 518              		.type	uavcan_protocol_param_GetSetResponse_encode, %function
 519              	uavcan_protocol_param_GetSetResponse_encode:
 520              	.LFB5:
 521              		.loc 1 273 0
 522              		.cfi_startproc
 523              		@ args = 0, pretend = 0, frame = 0
 524              		@ frame_needed = 0, uses_anonymous_args = 0
 525              	.LVL74:
 526 0000 08B5     		push	{r3, lr}
 527              		.cfi_def_cfa_offset 8
 528              		.cfi_offset 3, -8
 529              		.cfi_offset 14, -4
 530              		.loc 1 276 0
 531 0002 0022     		movs	r2, #0
 532 0004 0123     		movs	r3, #1
 533 0006 FFF7FEFF 		bl	uavcan_protocol_param_GetSetResponse_encode_internal
 534              	.LVL75:
 535              		.loc 1 278 0
 536 000a 0730     		adds	r0, r0, #7
 537              	.LVL76:
 538              		.loc 1 279 0
 539 000c C008     		lsrs	r0, r0, #3
 540              	.LVL77:
 541 000e 08BD     		pop	{r3, pc}
 542              		.cfi_endproc
 543              	.LFE5:
 544              		.size	uavcan_protocol_param_GetSetResponse_encode, .-uavcan_protocol_param_GetSetResponse_encode
 545              		.section	.text.uavcan_protocol_param_GetSetResponse_decode_internal,"ax",%progbits
 546              		.align	1
 547              		.p2align 4,,15
 548              		.global	uavcan_protocol_param_GetSetResponse_decode_internal
 549              		.syntax unified
 550              		.thumb
 551              		.thumb_func
 552              		.fpu fpv4-sp-d16
 553              		.type	uavcan_protocol_param_GetSetResponse_decode_internal, %function
 554              	uavcan_protocol_param_GetSetResponse_decode_internal:
 555              	.LFB6:
 556              		.loc 1 298 0
 557              		.cfi_startproc
 558              		@ args = 4, pretend = 0, frame = 0
 559              		@ frame_needed = 0, uses_anonymous_args = 0
 560              	.LVL78:
 561 0000 2DE9F043 		push	{r4, r5, r6, r7, r8, r9, lr}
 562              		.cfi_def_cfa_offset 28
 563              		.cfi_offset 4, -28
 564              		.cfi_offset 5, -24
 565              		.cfi_offset 6, -20
 566              		.cfi_offset 7, -16
 567              		.cfi_offset 8, -12
 568              		.cfi_offset 9, -8
 569              		.cfi_offset 14, -4
 570 0004 83B0     		sub	sp, sp, #12
ARM GAS  /tmp/cczPv8m9.s 			page 11


 571              		.cfi_def_cfa_offset 40
 572              		.loc 1 298 0
 573 0006 8146     		mov	r9, r0
 574 0008 0A9C     		ldr	r4, [sp, #40]
 575              		.loc 1 303 0
 576 000a 0534     		adds	r4, r4, #5
 577              	.LVL79:
 578              		.loc 1 306 0
 579 000c 0094     		str	r4, [sp]
 580              		.loc 1 298 0
 581 000e 0D46     		mov	r5, r1
 582 0010 9046     		mov	r8, r2
 583 0012 1E46     		mov	r6, r3
 584              		.loc 1 306 0
 585 0014 FFF7FEFF 		bl	uavcan_protocol_param_Value_decode_internal
 586              	.LVL80:
 587              		.loc 1 307 0
 588 0018 041E     		subs	r4, r0, #0
 589 001a 03DA     		bge	.L76
 590              	.LVL81:
 591              	.L55:
 592              		.loc 1 402 0
 593 001c 2046     		mov	r0, r4
 594 001e 03B0     		add	sp, sp, #12
 595              		.cfi_remember_state
 596              		.cfi_def_cfa_offset 28
 597              		@ sp needed
 598 0020 BDE8F083 		pop	{r4, r5, r6, r7, r8, r9, pc}
 599              	.LVL82:
 600              	.L76:
 601              		.cfi_restore_state
 602              		.loc 1 314 0
 603 0024 0534     		adds	r4, r4, #5
 604              	.LVL83:
 605              		.loc 1 317 0
 606 0026 0094     		str	r4, [sp]
 607 0028 3346     		mov	r3, r6
 608 002a 08F11002 		add	r2, r8, #16
 609 002e 2946     		mov	r1, r5
 610 0030 4846     		mov	r0, r9
 611 0032 FFF7FEFF 		bl	uavcan_protocol_param_Value_decode_internal
 612              	.LVL84:
 613              		.loc 1 318 0
 614 0036 041E     		subs	r4, r0, #0
 615 0038 F0DB     		blt	.L55
 616              		.loc 1 325 0
 617 003a 0634     		adds	r4, r4, #6
 618              	.LVL85:
 619              		.loc 1 328 0
 620 003c 0094     		str	r4, [sp]
 621 003e 3346     		mov	r3, r6
 622 0040 08F12002 		add	r2, r8, #32
 623 0044 2946     		mov	r1, r5
 624 0046 4846     		mov	r0, r9
 625 0048 FFF7FEFF 		bl	uavcan_protocol_param_NumericValue_decode_internal
 626              	.LVL86:
 627              		.loc 1 329 0
ARM GAS  /tmp/cczPv8m9.s 			page 12


 628 004c 041E     		subs	r4, r0, #0
 629 004e E5DB     		blt	.L55
 630              		.loc 1 336 0
 631 0050 0634     		adds	r4, r4, #6
 632              	.LVL87:
 633              		.loc 1 339 0
 634 0052 0094     		str	r4, [sp]
 635 0054 3346     		mov	r3, r6
 636 0056 08F13002 		add	r2, r8, #48
 637 005a 2946     		mov	r1, r5
 638 005c 4846     		mov	r0, r9
 639 005e FFF7FEFF 		bl	uavcan_protocol_param_NumericValue_decode_internal
 640              	.LVL88:
 641              		.loc 1 340 0
 642 0062 041E     		subs	r4, r0, #0
 643 0064 DADB     		blt	.L55
 644              		.loc 1 348 0
 645 0066 2DB3     		cbz	r5, .L57
 646              		.loc 1 351 0
 647 0068 D4EBC505 		rsbs	r5, r4, r5, lsl #3
 648 006c 48BF     		it	mi
 649 006e 0735     		addmi	r5, r5, #7
 650 0070 C5F3C705 		ubfx	r5, r5, #3, #8
 651 0074 88F84050 		strb	r5, [r8, #64]
 652              	.LVL89:
 653              	.L59:
 654              		.loc 1 369 0
 655 0078 16B1     		cbz	r6, .L61
 656              		.loc 1 371 0
 657 007a 3368     		ldr	r3, [r6]
 658 007c C8F84430 		str	r3, [r8, #68]
 659              	.L61:
 660              		.loc 1 374 0 discriminator 1
 661 0080 002D     		cmp	r5, #0
 662 0082 CBD0     		beq	.L55
 663              		.loc 1 374 0 is_stmt 0
 664 0084 0025     		movs	r5, #0
 665 0086 06E0     		b	.L63
 666              	.LVL90:
 667              	.L77:
 668              		.loc 1 387 0 is_stmt 1
 669 0088 3368     		ldr	r3, [r6]
 670 008a 0133     		adds	r3, r3, #1
 671 008c 3360     		str	r3, [r6]
 672              	.LVL91:
 673              	.L62:
 674              		.loc 1 374 0 discriminator 2
 675 008e 98F84030 		ldrb	r3, [r8, #64]	@ zero_extendqisi2
 676 0092 AB42     		cmp	r3, r5
 677 0094 C2D9     		bls	.L55
 678              	.LVL92:
 679              	.L63:
 680              		.loc 1 378 0
 681 0096 0822     		movs	r2, #8
 682 0098 2146     		mov	r1, r4
 683 009a 0023     		movs	r3, #0
 684 009c 4846     		mov	r0, r9
ARM GAS  /tmp/cczPv8m9.s 			page 13


 685              		.loc 1 374 0
 686 009e 0135     		adds	r5, r5, #1
 687              	.LVL93:
 688              		.loc 1 389 0
 689 00a0 1444     		add	r4, r4, r2
 690              	.LVL94:
 691              		.loc 1 376 0
 692 00a2 002E     		cmp	r6, #0
 693 00a4 F3D0     		beq	.L62
 694              	.LVL95:
 695              		.loc 1 378 0
 696 00a6 3768     		ldr	r7, [r6]
 697 00a8 0097     		str	r7, [sp]
 698 00aa FFF7FEFF 		bl	canardDecodeScalar
 699              	.LVL96:
 700              		.loc 1 383 0
 701 00ae 0828     		cmp	r0, #8
 702 00b0 EAD0     		beq	.L77
 703              		.loc 1 393 0
 704 00b2 0AE0     		b	.L60
 705              	.LVL97:
 706              	.L57:
 707              		.loc 1 360 0
 708 00b4 08F14002 		add	r2, r8, #64
 709              		.loc 1 356 0
 710 00b8 0092     		str	r2, [sp]
 711 00ba 2B46     		mov	r3, r5
 712 00bc 0722     		movs	r2, #7
 713 00be 2146     		mov	r1, r4
 714 00c0 4846     		mov	r0, r9
 715              	.LVL98:
 716 00c2 FFF7FEFF 		bl	canardDecodeScalar
 717              	.LVL99:
 718              		.loc 1 361 0
 719 00c6 0728     		cmp	r0, #7
 720 00c8 05D0     		beq	.L78
 721              	.LVL100:
 722              	.L60:
 723              		.loc 1 394 0
 724 00ca 0028     		cmp	r0, #0
 725 00cc B4BF     		ite	lt
 726 00ce 0446     		movlt	r4, r0
 727 00d0 6FF00804 		mvnge	r4, #8
 728 00d4 A2E7     		b	.L55
 729              	.LVL101:
 730              	.L78:
 731 00d6 98F84050 		ldrb	r5, [r8, #64]	@ zero_extendqisi2
 732              		.loc 1 365 0
 733 00da 0734     		adds	r4, r4, #7
 734              	.LVL102:
 735 00dc CCE7     		b	.L59
 736              		.cfi_endproc
 737              	.LFE6:
 738              		.size	uavcan_protocol_param_GetSetResponse_decode_internal, .-uavcan_protocol_param_GetSetResponse
 739 00de 00BF     		.section	.text.uavcan_protocol_param_GetSetResponse_decode,"ax",%progbits
 740              		.align	1
 741              		.p2align 4,,15
ARM GAS  /tmp/cczPv8m9.s 			page 14


 742              		.global	uavcan_protocol_param_GetSetResponse_decode
 743              		.syntax unified
 744              		.thumb
 745              		.thumb_func
 746              		.fpu fpv4-sp-d16
 747              		.type	uavcan_protocol_param_GetSetResponse_decode, %function
 748              	uavcan_protocol_param_GetSetResponse_decode:
 749              	.LFB7:
 750              		.loc 1 418 0
 751              		.cfi_startproc
 752              		@ args = 0, pretend = 0, frame = 0
 753              		@ frame_needed = 0, uses_anonymous_args = 0
 754              	.LVL103:
 755 0000 70B5     		push	{r4, r5, r6, lr}
 756              		.cfi_def_cfa_offset 16
 757              		.cfi_offset 4, -16
 758              		.cfi_offset 5, -12
 759              		.cfi_offset 6, -8
 760              		.cfi_offset 14, -4
 761 0002 541E     		subs	r4, r2, #1
 762 0004 82B0     		sub	sp, sp, #8
 763              		.cfi_def_cfa_offset 24
 764 0006 02F14706 		add	r6, r2, #71
 765              	.LBB3:
 766              		.loc 1 425 0
 767 000a 0025     		movs	r5, #0
 768              	.LVL104:
 769              	.L80:
 770              		.loc 1 425 0 is_stmt 0 discriminator 3
 771 000c 04F8015F 		strb	r5, [r4, #1]!
 772              		.loc 1 423 0 is_stmt 1 discriminator 3
 773 0010 B442     		cmp	r4, r6
 774 0012 FBD1     		bne	.L80
 775              	.LBE3:
 776              		.loc 1 428 0
 777 0014 0095     		str	r5, [sp]
 778 0016 FFF7FEFF 		bl	uavcan_protocol_param_GetSetResponse_decode_internal
 779              	.LVL105:
 780              		.loc 1 431 0
 781 001a 02B0     		add	sp, sp, #8
 782              		.cfi_def_cfa_offset 16
 783              		@ sp needed
 784 001c 70BD     		pop	{r4, r5, r6, pc}
 785              		.cfi_endproc
 786              	.LFE7:
 787              		.size	uavcan_protocol_param_GetSetResponse_decode, .-uavcan_protocol_param_GetSetResponse_decode
 788 001e 00BF     		.text
 789              	.Letext0:
 790              		.file 2 "/usr/arm-none-eabi/include/machine/_default_types.h"
 791              		.file 3 "/usr/arm-none-eabi/include/sys/_stdint.h"
 792              		.file 4 "libcanard/canard.h"
 793              		.file 5 "libcanard/dsdl/uavcan/protocol/param/Empty.h"
 794              		.file 6 "libcanard/dsdl/uavcan/protocol/param/NumericValue.h"
 795              		.file 7 "libcanard/dsdl/uavcan/protocol/param/Value.h"
 796              		.file 8 "libcanard/dsdl/uavcan/protocol/param/GetSet.h"
 797              		.section	.debug_info,"",%progbits
 798              	.Ldebug_info0:
ARM GAS  /tmp/cczPv8m9.s 			page 15


 799 0000 890B0000 		.4byte	0xb89
 800 0004 0400     		.2byte	0x4
 801 0006 00000000 		.4byte	.Ldebug_abbrev0
 802 000a 04       		.byte	0x4
 803 000b 01       		.uleb128 0x1
 804 000c 74070000 		.4byte	.LASF88
 805 0010 0C       		.byte	0xc
 806 0011 D2030000 		.4byte	.LASF89
 807 0015 83040000 		.4byte	.LASF90
 808 0019 00000000 		.4byte	.Ldebug_ranges0+0
 809 001d 00000000 		.4byte	0
 810 0021 00000000 		.4byte	.Ldebug_line0
 811 0025 02       		.uleb128 0x2
 812 0026 01       		.byte	0x1
 813 0027 06       		.byte	0x6
 814 0028 89040000 		.4byte	.LASF0
 815 002c 03       		.uleb128 0x3
 816 002d 7A030000 		.4byte	.LASF3
 817 0031 02       		.byte	0x2
 818 0032 2B       		.byte	0x2b
 819 0033 37000000 		.4byte	0x37
 820 0037 02       		.uleb128 0x2
 821 0038 01       		.byte	0x1
 822 0039 08       		.byte	0x8
 823 003a 33040000 		.4byte	.LASF1
 824 003e 02       		.uleb128 0x2
 825 003f 02       		.byte	0x2
 826 0040 05       		.byte	0x5
 827 0041 09010000 		.4byte	.LASF2
 828 0045 03       		.uleb128 0x3
 829 0046 75010000 		.4byte	.LASF4
 830 004a 02       		.byte	0x2
 831 004b 39       		.byte	0x39
 832 004c 50000000 		.4byte	0x50
 833 0050 02       		.uleb128 0x2
 834 0051 02       		.byte	0x2
 835 0052 07       		.byte	0x7
 836 0053 3D050000 		.4byte	.LASF5
 837 0057 03       		.uleb128 0x3
 838 0058 D6060000 		.4byte	.LASF6
 839 005c 02       		.byte	0x2
 840 005d 4D       		.byte	0x4d
 841 005e 62000000 		.4byte	0x62
 842 0062 02       		.uleb128 0x2
 843 0063 04       		.byte	0x4
 844 0064 05       		.byte	0x5
 845 0065 1E030000 		.4byte	.LASF7
 846 0069 03       		.uleb128 0x3
 847 006a 48010000 		.4byte	.LASF8
 848 006e 02       		.byte	0x2
 849 006f 4F       		.byte	0x4f
 850 0070 74000000 		.4byte	0x74
 851 0074 02       		.uleb128 0x2
 852 0075 04       		.byte	0x4
 853 0076 07       		.byte	0x7
 854 0077 96060000 		.4byte	.LASF9
 855 007b 03       		.uleb128 0x3
ARM GAS  /tmp/cczPv8m9.s 			page 16


 856 007c 27030000 		.4byte	.LASF10
 857 0080 02       		.byte	0x2
 858 0081 67       		.byte	0x67
 859 0082 86000000 		.4byte	0x86
 860 0086 02       		.uleb128 0x2
 861 0087 08       		.byte	0x8
 862 0088 05       		.byte	0x5
 863 0089 DB020000 		.4byte	.LASF11
 864 008d 03       		.uleb128 0x3
 865 008e 0A060000 		.4byte	.LASF12
 866 0092 02       		.byte	0x2
 867 0093 69       		.byte	0x69
 868 0094 98000000 		.4byte	0x98
 869 0098 02       		.uleb128 0x2
 870 0099 08       		.byte	0x8
 871 009a 07       		.byte	0x7
 872 009b 95040000 		.4byte	.LASF13
 873 009f 04       		.uleb128 0x4
 874 00a0 04       		.byte	0x4
 875 00a1 05       		.byte	0x5
 876 00a2 696E7400 		.ascii	"int\000"
 877 00a6 02       		.uleb128 0x2
 878 00a7 04       		.byte	0x4
 879 00a8 07       		.byte	0x7
 880 00a9 B5040000 		.4byte	.LASF14
 881 00ad 03       		.uleb128 0x3
 882 00ae F7010000 		.4byte	.LASF15
 883 00b2 03       		.byte	0x3
 884 00b3 18       		.byte	0x18
 885 00b4 2C000000 		.4byte	0x2c
 886 00b8 05       		.uleb128 0x5
 887 00b9 AD000000 		.4byte	0xad
 888 00bd 03       		.uleb128 0x3
 889 00be C2040000 		.4byte	.LASF16
 890 00c2 03       		.byte	0x3
 891 00c3 24       		.byte	0x24
 892 00c4 45000000 		.4byte	0x45
 893 00c8 03       		.uleb128 0x3
 894 00c9 86050000 		.4byte	.LASF17
 895 00cd 03       		.byte	0x3
 896 00ce 2C       		.byte	0x2c
 897 00cf 57000000 		.4byte	0x57
 898 00d3 05       		.uleb128 0x5
 899 00d4 C8000000 		.4byte	0xc8
 900 00d8 03       		.uleb128 0x3
 901 00d9 AC040000 		.4byte	.LASF18
 902 00dd 03       		.byte	0x3
 903 00de 30       		.byte	0x30
 904 00df 69000000 		.4byte	0x69
 905 00e3 03       		.uleb128 0x3
 906 00e4 BA010000 		.4byte	.LASF19
 907 00e8 03       		.byte	0x3
 908 00e9 38       		.byte	0x38
 909 00ea 7B000000 		.4byte	0x7b
 910 00ee 03       		.uleb128 0x3
 911 00ef F5000000 		.4byte	.LASF20
 912 00f3 03       		.byte	0x3
ARM GAS  /tmp/cczPv8m9.s 			page 17


 913 00f4 3C       		.byte	0x3c
 914 00f5 8D000000 		.4byte	0x8d
 915 00f9 03       		.uleb128 0x3
 916 00fa 85060000 		.4byte	.LASF21
 917 00fe 04       		.byte	0x4
 918 00ff 99       		.byte	0x99
 919 0100 09010000 		.4byte	0x109
 920 0104 05       		.uleb128 0x5
 921 0105 F9000000 		.4byte	0xf9
 922 0109 06       		.uleb128 0x6
 923 010a 85060000 		.4byte	.LASF21
 924 010e 20       		.byte	0x20
 925 010f 04       		.byte	0x4
 926 0110 0F01     		.2byte	0x10f
 927 0112 99010000 		.4byte	0x199
 928 0116 07       		.uleb128 0x7
 929 0117 A2030000 		.4byte	.LASF22
 930 011b 04       		.byte	0x4
 931 011c 1401     		.2byte	0x114
 932 011e EE000000 		.4byte	0xee
 933 0122 00       		.byte	0
 934 0123 07       		.uleb128 0x7
 935 0124 C8050000 		.4byte	.LASF23
 936 0128 04       		.byte	0x4
 937 0129 2801     		.2byte	0x128
 938 012b F4010000 		.4byte	0x1f4
 939 012f 08       		.byte	0x8
 940 0130 07       		.uleb128 0x7
 941 0131 41040000 		.4byte	.LASF24
 942 0135 04       		.byte	0x4
 943 0136 2D01     		.2byte	0x12d
 944 0138 EC010000 		.4byte	0x1ec
 945 013c 0C       		.byte	0xc
 946 013d 07       		.uleb128 0x7
 947 013e 95030000 		.4byte	.LASF25
 948 0142 04       		.byte	0x4
 949 0143 2F01     		.2byte	0x12f
 950 0145 F4010000 		.4byte	0x1f4
 951 0149 10       		.byte	0x10
 952 014a 07       		.uleb128 0x7
 953 014b 11070000 		.4byte	.LASF26
 954 014f 04       		.byte	0x4
 955 0150 3101     		.2byte	0x131
 956 0152 BD000000 		.4byte	0xbd
 957 0156 14       		.byte	0x14
 958 0157 07       		.uleb128 0x7
 959 0158 36000000 		.4byte	.LASF27
 960 015c 04       		.byte	0x4
 961 015d 3601     		.2byte	0x136
 962 015f BD000000 		.4byte	0xbd
 963 0163 16       		.byte	0x16
 964 0164 07       		.uleb128 0x7
 965 0165 8E050000 		.4byte	.LASF28
 966 0169 04       		.byte	0x4
 967 016a 3701     		.2byte	0x137
 968 016c AD000000 		.4byte	0xad
 969 0170 18       		.byte	0x18
ARM GAS  /tmp/cczPv8m9.s 			page 18


 970 0171 07       		.uleb128 0x7
 971 0172 1D070000 		.4byte	.LASF29
 972 0176 04       		.byte	0x4
 973 0177 3801     		.2byte	0x138
 974 0179 AD000000 		.4byte	0xad
 975 017d 19       		.byte	0x19
 976 017e 07       		.uleb128 0x7
 977 017f 90000000 		.4byte	.LASF30
 978 0183 04       		.byte	0x4
 979 0184 3901     		.2byte	0x139
 980 0186 AD000000 		.4byte	0xad
 981 018a 1A       		.byte	0x1a
 982 018b 07       		.uleb128 0x7
 983 018c 04050000 		.4byte	.LASF31
 984 0190 04       		.byte	0x4
 985 0191 3A01     		.2byte	0x13a
 986 0193 AD000000 		.4byte	0xad
 987 0197 1B       		.byte	0x1b
 988 0198 00       		.byte	0
 989 0199 02       		.uleb128 0x2
 990 019a 01       		.byte	0x1
 991 019b 02       		.byte	0x2
 992 019c 80050000 		.4byte	.LASF32
 993 01a0 02       		.uleb128 0x2
 994 01a1 01       		.byte	0x1
 995 01a2 08       		.byte	0x8
 996 01a3 7B050000 		.4byte	.LASF33
 997 01a7 08       		.uleb128 0x8
 998 01a8 CB040000 		.4byte	.LASF34
 999 01ac 04       		.byte	0x4
 1000 01ad 04       		.byte	0x4
 1001 01ae D7       		.byte	0xd7
 1002 01af CC010000 		.4byte	0x1cc
 1003 01b3 09       		.uleb128 0x9
 1004 01b4 6F070000 		.4byte	.LASF35
 1005 01b8 04       		.byte	0x4
 1006 01b9 D9       		.byte	0xd9
 1007 01ba CC010000 		.4byte	0x1cc
 1008 01be 00       		.byte	0
 1009 01bf 09       		.uleb128 0x9
 1010 01c0 15060000 		.4byte	.LASF36
 1011 01c4 04       		.byte	0x4
 1012 01c5 DA       		.byte	0xda
 1013 01c6 D2010000 		.4byte	0x1d2
 1014 01ca 04       		.byte	0x4
 1015 01cb 00       		.byte	0
 1016 01cc 0A       		.uleb128 0xa
 1017 01cd 04       		.byte	0x4
 1018 01ce A7010000 		.4byte	0x1a7
 1019 01d2 0B       		.uleb128 0xb
 1020 01d3 AD000000 		.4byte	0xad
 1021 01d7 E1010000 		.4byte	0x1e1
 1022 01db 0C       		.uleb128 0xc
 1023 01dc A6000000 		.4byte	0xa6
 1024 01e0 00       		.byte	0
 1025 01e1 03       		.uleb128 0x3
 1026 01e2 CB040000 		.4byte	.LASF34
ARM GAS  /tmp/cczPv8m9.s 			page 19


 1027 01e6 04       		.byte	0x4
 1028 01e7 DB       		.byte	0xdb
 1029 01e8 A7010000 		.4byte	0x1a7
 1030 01ec 0A       		.uleb128 0xa
 1031 01ed 04       		.byte	0x4
 1032 01ee E1010000 		.4byte	0x1e1
 1033 01f2 0D       		.uleb128 0xd
 1034 01f3 04       		.byte	0x4
 1035 01f4 0A       		.uleb128 0xa
 1036 01f5 04       		.byte	0x4
 1037 01f6 B8000000 		.4byte	0xb8
 1038 01fa 0E       		.uleb128 0xe
 1039 01fb 01       		.byte	0x1
 1040 01fc 05       		.byte	0x5
 1041 01fd 23       		.byte	0x23
 1042 01fe 0F020000 		.4byte	0x20f
 1043 0202 09       		.uleb128 0x9
 1044 0203 B4010000 		.4byte	.LASF37
 1045 0207 05       		.byte	0x5
 1046 0208 25       		.byte	0x25
 1047 0209 AD000000 		.4byte	0xad
 1048 020d 00       		.byte	0
 1049 020e 00       		.byte	0
 1050 020f 03       		.uleb128 0x3
 1051 0210 B1030000 		.4byte	.LASF38
 1052 0214 05       		.byte	0x5
 1053 0215 26       		.byte	0x26
 1054 0216 FA010000 		.4byte	0x1fa
 1055 021a 0F       		.uleb128 0xf
 1056 021b 07       		.byte	0x7
 1057 021c 01       		.byte	0x1
 1058 021d 37000000 		.4byte	0x37
 1059 0221 06       		.byte	0x6
 1060 0222 36       		.byte	0x36
 1061 0223 3A020000 		.4byte	0x23a
 1062 0227 10       		.uleb128 0x10
 1063 0228 99000000 		.4byte	.LASF39
 1064 022c 00       		.byte	0
 1065 022d 10       		.uleb128 0x10
 1066 022e E0060000 		.4byte	.LASF40
 1067 0232 01       		.byte	0x1
 1068 0233 10       		.uleb128 0x10
 1069 0234 23060000 		.4byte	.LASF41
 1070 0238 02       		.byte	0x2
 1071 0239 00       		.byte	0
 1072 023a 03       		.uleb128 0x3
 1073 023b 00000000 		.4byte	.LASF42
 1074 023f 06       		.byte	0x6
 1075 0240 3A       		.byte	0x3a
 1076 0241 1A020000 		.4byte	0x21a
 1077 0245 11       		.uleb128 0x11
 1078 0246 08       		.byte	0x8
 1079 0247 06       		.byte	0x6
 1080 0248 40       		.byte	0x40
 1081 0249 6F020000 		.4byte	0x26f
 1082 024d 12       		.uleb128 0x12
 1083 024e B4010000 		.4byte	.LASF37
ARM GAS  /tmp/cczPv8m9.s 			page 20


 1084 0252 06       		.byte	0x6
 1085 0253 43       		.byte	0x43
 1086 0254 0F020000 		.4byte	0x20f
 1087 0258 12       		.uleb128 0x12
 1088 0259 28000000 		.4byte	.LASF43
 1089 025d 06       		.byte	0x6
 1090 025e 44       		.byte	0x44
 1091 025f E3000000 		.4byte	0xe3
 1092 0263 12       		.uleb128 0x12
 1093 0264 FE000000 		.4byte	.LASF44
 1094 0268 06       		.byte	0x6
 1095 0269 45       		.byte	0x45
 1096 026a 6F020000 		.4byte	0x26f
 1097 026e 00       		.byte	0
 1098 026f 02       		.uleb128 0x2
 1099 0270 04       		.byte	0x4
 1100 0271 04       		.byte	0x4
 1101 0272 9B020000 		.4byte	.LASF45
 1102 0276 0E       		.uleb128 0xe
 1103 0277 10       		.byte	0x10
 1104 0278 06       		.byte	0x6
 1105 0279 3C       		.byte	0x3c
 1106 027a 91020000 		.4byte	0x291
 1107 027e 09       		.uleb128 0x9
 1108 027f 84030000 		.4byte	.LASF46
 1109 0283 06       		.byte	0x6
 1110 0284 3E       		.byte	0x3e
 1111 0285 3A020000 		.4byte	0x23a
 1112 0289 00       		.byte	0
 1113 028a 13       		.uleb128 0x13
 1114 028b 45020000 		.4byte	0x245
 1115 028f 08       		.byte	0x8
 1116 0290 00       		.byte	0
 1117 0291 03       		.uleb128 0x3
 1118 0292 06040000 		.4byte	.LASF47
 1119 0296 06       		.byte	0x6
 1120 0297 48       		.byte	0x48
 1121 0298 76020000 		.4byte	0x276
 1122 029c 0F       		.uleb128 0xf
 1123 029d 07       		.byte	0x7
 1124 029e 01       		.byte	0x1
 1125 029f 37000000 		.4byte	0x37
 1126 02a3 07       		.byte	0x7
 1127 02a4 3C       		.byte	0x3c
 1128 02a5 C8020000 		.4byte	0x2c8
 1129 02a9 10       		.uleb128 0x10
 1130 02aa 53010000 		.4byte	.LASF48
 1131 02ae 00       		.byte	0
 1132 02af 10       		.uleb128 0x10
 1133 02b0 FF010000 		.4byte	.LASF49
 1134 02b4 01       		.byte	0x1
 1135 02b5 10       		.uleb128 0x10
 1136 02b6 DD040000 		.4byte	.LASF50
 1137 02ba 02       		.byte	0x2
 1138 02bb 10       		.uleb128 0x10
 1139 02bc 13050000 		.4byte	.LASF51
 1140 02c0 03       		.byte	0x3
ARM GAS  /tmp/cczPv8m9.s 			page 21


 1141 02c1 10       		.uleb128 0x10
 1142 02c2 F5020000 		.4byte	.LASF52
 1143 02c6 04       		.byte	0x4
 1144 02c7 00       		.byte	0
 1145 02c8 03       		.uleb128 0x3
 1146 02c9 31030000 		.4byte	.LASF53
 1147 02cd 07       		.byte	0x7
 1148 02ce 42       		.byte	0x42
 1149 02cf 9C020000 		.4byte	0x29c
 1150 02d3 0E       		.uleb128 0xe
 1151 02d4 08       		.byte	0x8
 1152 02d5 07       		.byte	0x7
 1153 02d6 4F       		.byte	0x4f
 1154 02d7 F4020000 		.4byte	0x2f4
 1155 02db 14       		.uleb128 0x14
 1156 02dc 6C656E00 		.ascii	"len\000"
 1157 02e0 07       		.byte	0x7
 1158 02e1 51       		.byte	0x51
 1159 02e2 AD000000 		.4byte	0xad
 1160 02e6 00       		.byte	0
 1161 02e7 09       		.uleb128 0x9
 1162 02e8 15060000 		.4byte	.LASF36
 1163 02ec 07       		.byte	0x7
 1164 02ed 52       		.byte	0x52
 1165 02ee F4020000 		.4byte	0x2f4
 1166 02f2 04       		.byte	0x4
 1167 02f3 00       		.byte	0
 1168 02f4 0A       		.uleb128 0xa
 1169 02f5 04       		.byte	0x4
 1170 02f6 AD000000 		.4byte	0xad
 1171 02fa 11       		.uleb128 0x11
 1172 02fb 08       		.byte	0x8
 1173 02fc 07       		.byte	0x7
 1174 02fd 48       		.byte	0x48
 1175 02fe 3A030000 		.4byte	0x33a
 1176 0302 12       		.uleb128 0x12
 1177 0303 B4010000 		.4byte	.LASF37
 1178 0307 07       		.byte	0x7
 1179 0308 4B       		.byte	0x4b
 1180 0309 0F020000 		.4byte	0x20f
 1181 030d 12       		.uleb128 0x12
 1182 030e 28000000 		.4byte	.LASF43
 1183 0312 07       		.byte	0x7
 1184 0313 4C       		.byte	0x4c
 1185 0314 E3000000 		.4byte	0xe3
 1186 0318 12       		.uleb128 0x12
 1187 0319 FE000000 		.4byte	.LASF44
 1188 031d 07       		.byte	0x7
 1189 031e 4D       		.byte	0x4d
 1190 031f 6F020000 		.4byte	0x26f
 1191 0323 12       		.uleb128 0x12
 1192 0324 6C030000 		.4byte	.LASF54
 1193 0328 07       		.byte	0x7
 1194 0329 4E       		.byte	0x4e
 1195 032a AD000000 		.4byte	0xad
 1196 032e 12       		.uleb128 0x12
 1197 032f 29020000 		.4byte	.LASF55
ARM GAS  /tmp/cczPv8m9.s 			page 22


 1198 0333 07       		.byte	0x7
 1199 0334 53       		.byte	0x53
 1200 0335 D3020000 		.4byte	0x2d3
 1201 0339 00       		.byte	0
 1202 033a 0E       		.uleb128 0xe
 1203 033b 10       		.byte	0x10
 1204 033c 07       		.byte	0x7
 1205 033d 44       		.byte	0x44
 1206 033e 55030000 		.4byte	0x355
 1207 0342 09       		.uleb128 0x9
 1208 0343 84030000 		.4byte	.LASF46
 1209 0347 07       		.byte	0x7
 1210 0348 46       		.byte	0x46
 1211 0349 C8020000 		.4byte	0x2c8
 1212 034d 00       		.byte	0
 1213 034e 13       		.uleb128 0x13
 1214 034f FA020000 		.4byte	0x2fa
 1215 0353 08       		.byte	0x8
 1216 0354 00       		.byte	0
 1217 0355 03       		.uleb128 0x3
 1218 0356 43000000 		.4byte	.LASF56
 1219 035a 07       		.byte	0x7
 1220 035b 56       		.byte	0x56
 1221 035c 3A030000 		.4byte	0x33a
 1222 0360 0E       		.uleb128 0xe
 1223 0361 08       		.byte	0x8
 1224 0362 08       		.byte	0x8
 1225 0363 70       		.byte	0x70
 1226 0364 81030000 		.4byte	0x381
 1227 0368 14       		.uleb128 0x14
 1228 0369 6C656E00 		.ascii	"len\000"
 1229 036d 08       		.byte	0x8
 1230 036e 72       		.byte	0x72
 1231 036f AD000000 		.4byte	0xad
 1232 0373 00       		.byte	0
 1233 0374 09       		.uleb128 0x9
 1234 0375 15060000 		.4byte	.LASF36
 1235 0379 08       		.byte	0x8
 1236 037a 73       		.byte	0x73
 1237 037b F4020000 		.4byte	0x2f4
 1238 037f 04       		.byte	0x4
 1239 0380 00       		.byte	0
 1240 0381 0E       		.uleb128 0xe
 1241 0382 20       		.byte	0x20
 1242 0383 08       		.byte	0x8
 1243 0384 6B       		.byte	0x6b
 1244 0385 AE030000 		.4byte	0x3ae
 1245 0389 09       		.uleb128 0x9
 1246 038a 29070000 		.4byte	.LASF57
 1247 038e 08       		.byte	0x8
 1248 038f 6E       		.byte	0x6e
 1249 0390 BD000000 		.4byte	0xbd
 1250 0394 00       		.byte	0
 1251 0395 09       		.uleb128 0x9
 1252 0396 C2010000 		.4byte	.LASF58
 1253 039a 08       		.byte	0x8
 1254 039b 6F       		.byte	0x6f
ARM GAS  /tmp/cczPv8m9.s 			page 23


 1255 039c 55030000 		.4byte	0x355
 1256 03a0 08       		.byte	0x8
 1257 03a1 09       		.uleb128 0x9
 1258 03a2 CD030000 		.4byte	.LASF59
 1259 03a6 08       		.byte	0x8
 1260 03a7 74       		.byte	0x74
 1261 03a8 60030000 		.4byte	0x360
 1262 03ac 18       		.byte	0x18
 1263 03ad 00       		.byte	0
 1264 03ae 03       		.uleb128 0x3
 1265 03af A8060000 		.4byte	.LASF60
 1266 03b3 08       		.byte	0x8
 1267 03b4 76       		.byte	0x76
 1268 03b5 81030000 		.4byte	0x381
 1269 03b9 0E       		.uleb128 0xe
 1270 03ba 08       		.byte	0x8
 1271 03bb 08       		.byte	0x8
 1272 03bc 95       		.byte	0x95
 1273 03bd DA030000 		.4byte	0x3da
 1274 03c1 14       		.uleb128 0x14
 1275 03c2 6C656E00 		.ascii	"len\000"
 1276 03c6 08       		.byte	0x8
 1277 03c7 97       		.byte	0x97
 1278 03c8 AD000000 		.4byte	0xad
 1279 03cc 00       		.byte	0
 1280 03cd 09       		.uleb128 0x9
 1281 03ce 15060000 		.4byte	.LASF36
 1282 03d2 08       		.byte	0x8
 1283 03d3 98       		.byte	0x98
 1284 03d4 F4020000 		.4byte	0x2f4
 1285 03d8 04       		.byte	0x4
 1286 03d9 00       		.byte	0
 1287 03da 0E       		.uleb128 0xe
 1288 03db 48       		.byte	0x48
 1289 03dc 08       		.byte	0x8
 1290 03dd 8A       		.byte	0x8a
 1291 03de 1F040000 		.4byte	0x41f
 1292 03e2 09       		.uleb128 0x9
 1293 03e3 C2010000 		.4byte	.LASF58
 1294 03e7 08       		.byte	0x8
 1295 03e8 8E       		.byte	0x8e
 1296 03e9 55030000 		.4byte	0x355
 1297 03ed 00       		.byte	0
 1298 03ee 09       		.uleb128 0x9
 1299 03ef A1020000 		.4byte	.LASF61
 1300 03f3 08       		.byte	0x8
 1301 03f4 90       		.byte	0x90
 1302 03f5 55030000 		.4byte	0x355
 1303 03f9 10       		.byte	0x10
 1304 03fa 09       		.uleb128 0x9
 1305 03fb 29040000 		.4byte	.LASF62
 1306 03ff 08       		.byte	0x8
 1307 0400 92       		.byte	0x92
 1308 0401 91020000 		.4byte	0x291
 1309 0405 20       		.byte	0x20
 1310 0406 09       		.uleb128 0x9
 1311 0407 91020000 		.4byte	.LASF63
ARM GAS  /tmp/cczPv8m9.s 			page 24


 1312 040b 08       		.byte	0x8
 1313 040c 94       		.byte	0x94
 1314 040d 91020000 		.4byte	0x291
 1315 0411 30       		.byte	0x30
 1316 0412 09       		.uleb128 0x9
 1317 0413 CD030000 		.4byte	.LASF59
 1318 0417 08       		.byte	0x8
 1319 0418 99       		.byte	0x99
 1320 0419 B9030000 		.4byte	0x3b9
 1321 041d 40       		.byte	0x40
 1322 041e 00       		.byte	0
 1323 041f 03       		.uleb128 0x3
 1324 0420 42070000 		.4byte	.LASF64
 1325 0424 08       		.byte	0x8
 1326 0425 9B       		.byte	0x9b
 1327 0426 DA030000 		.4byte	0x3da
 1328 042a 15       		.uleb128 0x15
 1329 042b 9C050000 		.4byte	.LASF69
 1330 042f 01       		.byte	0x1
 1331 0430 9E01     		.2byte	0x19e
 1332 0432 C8000000 		.4byte	0xc8
 1333 0436 00000000 		.4byte	.LFB7
 1334 043a 1E000000 		.4byte	.LFE7-.LFB7
 1335 043e 01       		.uleb128 0x1
 1336 043f 9C       		.byte	0x9c
 1337 0440 CF040000 		.4byte	0x4cf
 1338 0444 16       		.uleb128 0x16
 1339 0445 1A060000 		.4byte	.LASF65
 1340 0449 01       		.byte	0x1
 1341 044a 9E01     		.2byte	0x19e
 1342 044c CF040000 		.4byte	0x4cf
 1343 0450 00000000 		.4byte	.LLST36
 1344 0454 16       		.uleb128 0x16
 1345 0455 11070000 		.4byte	.LASF26
 1346 0459 01       		.byte	0x1
 1347 045a 9F01     		.2byte	0x19f
 1348 045c BD000000 		.4byte	0xbd
 1349 0460 21000000 		.4byte	.LLST37
 1350 0464 16       		.uleb128 0x16
 1351 0465 5F000000 		.4byte	.LASF66
 1352 0469 01       		.byte	0x1
 1353 046a A001     		.2byte	0x1a0
 1354 046c D5040000 		.4byte	0x4d5
 1355 0470 42000000 		.4byte	.LLST38
 1356 0474 16       		.uleb128 0x16
 1357 0475 E9020000 		.4byte	.LASF67
 1358 0479 01       		.byte	0x1
 1359 047a A101     		.2byte	0x1a1
 1360 047c DB040000 		.4byte	0x4db
 1361 0480 63000000 		.4byte	.LLST39
 1362 0484 17       		.uleb128 0x17
 1363 0485 52030000 		.4byte	.LASF68
 1364 0489 01       		.byte	0x1
 1365 048a A301     		.2byte	0x1a3
 1366 048c D3000000 		.4byte	0xd3
 1367 0490 00       		.byte	0
 1368 0491 18       		.uleb128 0x18
ARM GAS  /tmp/cczPv8m9.s 			page 25


 1369 0492 72657400 		.ascii	"ret\000"
 1370 0496 01       		.byte	0x1
 1371 0497 A401     		.2byte	0x1a4
 1372 0499 C8000000 		.4byte	0xc8
 1373 049d 84000000 		.4byte	.LLST40
 1374 04a1 19       		.uleb128 0x19
 1375 04a2 0A000000 		.4byte	.LBB3
 1376 04a6 0A000000 		.4byte	.LBE3-.LBB3
 1377 04aa BD040000 		.4byte	0x4bd
 1378 04ae 18       		.uleb128 0x18
 1379 04af 6300     		.ascii	"c\000"
 1380 04b1 01       		.byte	0x1
 1381 04b2 A701     		.2byte	0x1a7
 1382 04b4 D8000000 		.4byte	0xd8
 1383 04b8 A3000000 		.4byte	.LLST41
 1384 04bc 00       		.byte	0
 1385 04bd 1A       		.uleb128 0x1a
 1386 04be 1A000000 		.4byte	.LVL105
 1387 04c2 E1040000 		.4byte	0x4e1
 1388 04c6 1B       		.uleb128 0x1b
 1389 04c7 02       		.uleb128 0x2
 1390 04c8 7D       		.byte	0x7d
 1391 04c9 00       		.sleb128 0
 1392 04ca 02       		.uleb128 0x2
 1393 04cb 75       		.byte	0x75
 1394 04cc 00       		.sleb128 0
 1395 04cd 00       		.byte	0
 1396 04ce 00       		.byte	0
 1397 04cf 0A       		.uleb128 0xa
 1398 04d0 04       		.byte	0x4
 1399 04d1 04010000 		.4byte	0x104
 1400 04d5 0A       		.uleb128 0xa
 1401 04d6 04       		.byte	0x4
 1402 04d7 1F040000 		.4byte	0x41f
 1403 04db 0A       		.uleb128 0xa
 1404 04dc 04       		.byte	0x4
 1405 04dd F4020000 		.4byte	0x2f4
 1406 04e1 15       		.uleb128 0x15
 1407 04e2 D5050000 		.4byte	.LASF70
 1408 04e6 01       		.byte	0x1
 1409 04e7 2401     		.2byte	0x124
 1410 04e9 C8000000 		.4byte	0xc8
 1411 04ed 00000000 		.4byte	.LFB6
 1412 04f1 DE000000 		.4byte	.LFE6-.LFB6
 1413 04f5 01       		.uleb128 0x1
 1414 04f6 9C       		.byte	0x9c
 1415 04f7 7E060000 		.4byte	0x67e
 1416 04fb 16       		.uleb128 0x16
 1417 04fc 1A060000 		.4byte	.LASF65
 1418 0500 01       		.byte	0x1
 1419 0501 2501     		.2byte	0x125
 1420 0503 CF040000 		.4byte	0x4cf
 1421 0507 B7000000 		.4byte	.LLST29
 1422 050b 16       		.uleb128 0x16
 1423 050c 11070000 		.4byte	.LASF26
 1424 0510 01       		.byte	0x1
 1425 0511 2601     		.2byte	0x126
ARM GAS  /tmp/cczPv8m9.s 			page 26


 1426 0513 BD000000 		.4byte	0xbd
 1427 0517 EB000000 		.4byte	.LLST30
 1428 051b 16       		.uleb128 0x16
 1429 051c 5F000000 		.4byte	.LASF66
 1430 0520 01       		.byte	0x1
 1431 0521 2701     		.2byte	0x127
 1432 0523 D5040000 		.4byte	0x4d5
 1433 0527 0C010000 		.4byte	.LLST31
 1434 052b 16       		.uleb128 0x16
 1435 052c E9020000 		.4byte	.LASF67
 1436 0530 01       		.byte	0x1
 1437 0531 2801     		.2byte	0x128
 1438 0533 DB040000 		.4byte	0x4db
 1439 0537 2A010000 		.4byte	.LLST32
 1440 053b 16       		.uleb128 0x16
 1441 053c 52030000 		.4byte	.LASF68
 1442 0540 01       		.byte	0x1
 1443 0541 2901     		.2byte	0x129
 1444 0543 C8000000 		.4byte	0xc8
 1445 0547 48010000 		.4byte	.LLST33
 1446 054b 18       		.uleb128 0x18
 1447 054c 72657400 		.ascii	"ret\000"
 1448 0550 01       		.byte	0x1
 1449 0551 2B01     		.2byte	0x12b
 1450 0553 C8000000 		.4byte	0xc8
 1451 0557 1B020000 		.4byte	.LLST34
 1452 055b 18       		.uleb128 0x18
 1453 055c 6300     		.ascii	"c\000"
 1454 055e 01       		.byte	0x1
 1455 055f 2C01     		.2byte	0x12c
 1456 0561 D8000000 		.4byte	0xd8
 1457 0565 68020000 		.4byte	.LLST35
 1458 0569 1C       		.uleb128 0x1c
 1459 056a 61020000 		.4byte	.LASF78
 1460 056e 01       		.byte	0x1
 1461 056f 8901     		.2byte	0x189
 1462 0571 CA000000 		.4byte	.L60
 1463 0575 1D       		.uleb128 0x1d
 1464 0576 18000000 		.4byte	.LVL80
 1465 057a 480B0000 		.4byte	0xb48
 1466 057e A2050000 		.4byte	0x5a2
 1467 0582 1B       		.uleb128 0x1b
 1468 0583 01       		.uleb128 0x1
 1469 0584 50       		.byte	0x50
 1470 0585 02       		.uleb128 0x2
 1471 0586 79       		.byte	0x79
 1472 0587 00       		.sleb128 0
 1473 0588 1B       		.uleb128 0x1b
 1474 0589 01       		.uleb128 0x1
 1475 058a 51       		.byte	0x51
 1476 058b 02       		.uleb128 0x2
 1477 058c 75       		.byte	0x75
 1478 058d 00       		.sleb128 0
 1479 058e 1B       		.uleb128 0x1b
 1480 058f 01       		.uleb128 0x1
 1481 0590 52       		.byte	0x52
 1482 0591 02       		.uleb128 0x2
ARM GAS  /tmp/cczPv8m9.s 			page 27


 1483 0592 78       		.byte	0x78
 1484 0593 00       		.sleb128 0
 1485 0594 1B       		.uleb128 0x1b
 1486 0595 01       		.uleb128 0x1
 1487 0596 53       		.byte	0x53
 1488 0597 02       		.uleb128 0x2
 1489 0598 76       		.byte	0x76
 1490 0599 00       		.sleb128 0
 1491 059a 1B       		.uleb128 0x1b
 1492 059b 02       		.uleb128 0x2
 1493 059c 7D       		.byte	0x7d
 1494 059d 00       		.sleb128 0
 1495 059e 02       		.uleb128 0x2
 1496 059f 74       		.byte	0x74
 1497 05a0 00       		.sleb128 0
 1498 05a1 00       		.byte	0
 1499 05a2 1D       		.uleb128 0x1d
 1500 05a3 36000000 		.4byte	.LVL84
 1501 05a7 480B0000 		.4byte	0xb48
 1502 05ab CF050000 		.4byte	0x5cf
 1503 05af 1B       		.uleb128 0x1b
 1504 05b0 01       		.uleb128 0x1
 1505 05b1 50       		.byte	0x50
 1506 05b2 02       		.uleb128 0x2
 1507 05b3 79       		.byte	0x79
 1508 05b4 00       		.sleb128 0
 1509 05b5 1B       		.uleb128 0x1b
 1510 05b6 01       		.uleb128 0x1
 1511 05b7 51       		.byte	0x51
 1512 05b8 02       		.uleb128 0x2
 1513 05b9 75       		.byte	0x75
 1514 05ba 00       		.sleb128 0
 1515 05bb 1B       		.uleb128 0x1b
 1516 05bc 01       		.uleb128 0x1
 1517 05bd 52       		.byte	0x52
 1518 05be 02       		.uleb128 0x2
 1519 05bf 78       		.byte	0x78
 1520 05c0 10       		.sleb128 16
 1521 05c1 1B       		.uleb128 0x1b
 1522 05c2 01       		.uleb128 0x1
 1523 05c3 53       		.byte	0x53
 1524 05c4 02       		.uleb128 0x2
 1525 05c5 76       		.byte	0x76
 1526 05c6 00       		.sleb128 0
 1527 05c7 1B       		.uleb128 0x1b
 1528 05c8 02       		.uleb128 0x2
 1529 05c9 7D       		.byte	0x7d
 1530 05ca 00       		.sleb128 0
 1531 05cb 02       		.uleb128 0x2
 1532 05cc 74       		.byte	0x74
 1533 05cd 00       		.sleb128 0
 1534 05ce 00       		.byte	0
 1535 05cf 1D       		.uleb128 0x1d
 1536 05d0 4C000000 		.4byte	.LVL86
 1537 05d4 530B0000 		.4byte	0xb53
 1538 05d8 FC050000 		.4byte	0x5fc
 1539 05dc 1B       		.uleb128 0x1b
ARM GAS  /tmp/cczPv8m9.s 			page 28


 1540 05dd 01       		.uleb128 0x1
 1541 05de 50       		.byte	0x50
 1542 05df 02       		.uleb128 0x2
 1543 05e0 79       		.byte	0x79
 1544 05e1 00       		.sleb128 0
 1545 05e2 1B       		.uleb128 0x1b
 1546 05e3 01       		.uleb128 0x1
 1547 05e4 51       		.byte	0x51
 1548 05e5 02       		.uleb128 0x2
 1549 05e6 75       		.byte	0x75
 1550 05e7 00       		.sleb128 0
 1551 05e8 1B       		.uleb128 0x1b
 1552 05e9 01       		.uleb128 0x1
 1553 05ea 52       		.byte	0x52
 1554 05eb 02       		.uleb128 0x2
 1555 05ec 78       		.byte	0x78
 1556 05ed 20       		.sleb128 32
 1557 05ee 1B       		.uleb128 0x1b
 1558 05ef 01       		.uleb128 0x1
 1559 05f0 53       		.byte	0x53
 1560 05f1 02       		.uleb128 0x2
 1561 05f2 76       		.byte	0x76
 1562 05f3 00       		.sleb128 0
 1563 05f4 1B       		.uleb128 0x1b
 1564 05f5 02       		.uleb128 0x2
 1565 05f6 7D       		.byte	0x7d
 1566 05f7 00       		.sleb128 0
 1567 05f8 02       		.uleb128 0x2
 1568 05f9 74       		.byte	0x74
 1569 05fa 00       		.sleb128 0
 1570 05fb 00       		.byte	0
 1571 05fc 1D       		.uleb128 0x1d
 1572 05fd 62000000 		.4byte	.LVL88
 1573 0601 530B0000 		.4byte	0xb53
 1574 0605 29060000 		.4byte	0x629
 1575 0609 1B       		.uleb128 0x1b
 1576 060a 01       		.uleb128 0x1
 1577 060b 50       		.byte	0x50
 1578 060c 02       		.uleb128 0x2
 1579 060d 79       		.byte	0x79
 1580 060e 00       		.sleb128 0
 1581 060f 1B       		.uleb128 0x1b
 1582 0610 01       		.uleb128 0x1
 1583 0611 51       		.byte	0x51
 1584 0612 02       		.uleb128 0x2
 1585 0613 75       		.byte	0x75
 1586 0614 00       		.sleb128 0
 1587 0615 1B       		.uleb128 0x1b
 1588 0616 01       		.uleb128 0x1
 1589 0617 52       		.byte	0x52
 1590 0618 02       		.uleb128 0x2
 1591 0619 78       		.byte	0x78
 1592 061a 30       		.sleb128 48
 1593 061b 1B       		.uleb128 0x1b
 1594 061c 01       		.uleb128 0x1
 1595 061d 53       		.byte	0x53
 1596 061e 02       		.uleb128 0x2
ARM GAS  /tmp/cczPv8m9.s 			page 29


 1597 061f 76       		.byte	0x76
 1598 0620 00       		.sleb128 0
 1599 0621 1B       		.uleb128 0x1b
 1600 0622 02       		.uleb128 0x2
 1601 0623 7D       		.byte	0x7d
 1602 0624 00       		.sleb128 0
 1603 0625 02       		.uleb128 0x2
 1604 0626 74       		.byte	0x74
 1605 0627 00       		.sleb128 0
 1606 0628 00       		.byte	0
 1607 0629 1D       		.uleb128 0x1d
 1608 062a AE000000 		.4byte	.LVL96
 1609 062e 5E0B0000 		.4byte	0xb5e
 1610 0632 54060000 		.4byte	0x654
 1611 0636 1B       		.uleb128 0x1b
 1612 0637 01       		.uleb128 0x1
 1613 0638 50       		.byte	0x50
 1614 0639 02       		.uleb128 0x2
 1615 063a 79       		.byte	0x79
 1616 063b 00       		.sleb128 0
 1617 063c 1B       		.uleb128 0x1b
 1618 063d 01       		.uleb128 0x1
 1619 063e 51       		.byte	0x51
 1620 063f 02       		.uleb128 0x2
 1621 0640 74       		.byte	0x74
 1622 0641 78       		.sleb128 -8
 1623 0642 1B       		.uleb128 0x1b
 1624 0643 01       		.uleb128 0x1
 1625 0644 52       		.byte	0x52
 1626 0645 01       		.uleb128 0x1
 1627 0646 38       		.byte	0x38
 1628 0647 1B       		.uleb128 0x1b
 1629 0648 01       		.uleb128 0x1
 1630 0649 53       		.byte	0x53
 1631 064a 01       		.uleb128 0x1
 1632 064b 30       		.byte	0x30
 1633 064c 1B       		.uleb128 0x1b
 1634 064d 02       		.uleb128 0x2
 1635 064e 7D       		.byte	0x7d
 1636 064f 00       		.sleb128 0
 1637 0650 02       		.uleb128 0x2
 1638 0651 77       		.byte	0x77
 1639 0652 00       		.sleb128 0
 1640 0653 00       		.byte	0
 1641 0654 1A       		.uleb128 0x1a
 1642 0655 C6000000 		.4byte	.LVL99
 1643 0659 5E0B0000 		.4byte	0xb5e
 1644 065d 1B       		.uleb128 0x1b
 1645 065e 01       		.uleb128 0x1
 1646 065f 50       		.byte	0x50
 1647 0660 02       		.uleb128 0x2
 1648 0661 79       		.byte	0x79
 1649 0662 00       		.sleb128 0
 1650 0663 1B       		.uleb128 0x1b
 1651 0664 01       		.uleb128 0x1
 1652 0665 51       		.byte	0x51
 1653 0666 02       		.uleb128 0x2
ARM GAS  /tmp/cczPv8m9.s 			page 30


 1654 0667 74       		.byte	0x74
 1655 0668 00       		.sleb128 0
 1656 0669 1B       		.uleb128 0x1b
 1657 066a 01       		.uleb128 0x1
 1658 066b 52       		.byte	0x52
 1659 066c 01       		.uleb128 0x1
 1660 066d 37       		.byte	0x37
 1661 066e 1B       		.uleb128 0x1b
 1662 066f 01       		.uleb128 0x1
 1663 0670 53       		.byte	0x53
 1664 0671 02       		.uleb128 0x2
 1665 0672 75       		.byte	0x75
 1666 0673 00       		.sleb128 0
 1667 0674 1B       		.uleb128 0x1b
 1668 0675 02       		.uleb128 0x2
 1669 0676 7D       		.byte	0x7d
 1670 0677 00       		.sleb128 0
 1671 0678 03       		.uleb128 0x3
 1672 0679 78       		.byte	0x78
 1673 067a C000     		.sleb128 64
 1674 067c 00       		.byte	0
 1675 067d 00       		.byte	0
 1676 067e 15       		.uleb128 0x15
 1677 067f AF020000 		.4byte	.LASF71
 1678 0683 01       		.byte	0x1
 1679 0684 1001     		.2byte	0x110
 1680 0686 D8000000 		.4byte	0xd8
 1681 068a 00000000 		.4byte	.LFB5
 1682 068e 10000000 		.4byte	.LFE5-.LFB5
 1683 0692 01       		.uleb128 0x1
 1684 0693 9C       		.byte	0x9c
 1685 0694 EB060000 		.4byte	0x6eb
 1686 0698 16       		.uleb128 0x16
 1687 0699 8E030000 		.4byte	.LASF72
 1688 069d 01       		.byte	0x1
 1689 069e 1001     		.2byte	0x110
 1690 06a0 D5040000 		.4byte	0x4d5
 1691 06a4 C5020000 		.4byte	.LLST26
 1692 06a8 16       		.uleb128 0x16
 1693 06a9 67070000 		.4byte	.LASF73
 1694 06ad 01       		.byte	0x1
 1695 06ae 1001     		.2byte	0x110
 1696 06b0 F2010000 		.4byte	0x1f2
 1697 06b4 E6020000 		.4byte	.LLST27
 1698 06b8 1E       		.uleb128 0x1e
 1699 06b9 52030000 		.4byte	.LASF68
 1700 06bd 01       		.byte	0x1
 1701 06be 1201     		.2byte	0x112
 1702 06c0 D8000000 		.4byte	0xd8
 1703 06c4 07030000 		.4byte	.LLST28
 1704 06c8 1A       		.uleb128 0x1a
 1705 06c9 0A000000 		.4byte	.LVL75
 1706 06cd EB060000 		.4byte	0x6eb
 1707 06d1 1B       		.uleb128 0x1b
 1708 06d2 01       		.uleb128 0x1
 1709 06d3 50       		.byte	0x50
 1710 06d4 03       		.uleb128 0x3
ARM GAS  /tmp/cczPv8m9.s 			page 31


 1711 06d5 F3       		.byte	0xf3
 1712 06d6 01       		.uleb128 0x1
 1713 06d7 50       		.byte	0x50
 1714 06d8 1B       		.uleb128 0x1b
 1715 06d9 01       		.uleb128 0x1
 1716 06da 51       		.byte	0x51
 1717 06db 03       		.uleb128 0x3
 1718 06dc F3       		.byte	0xf3
 1719 06dd 01       		.uleb128 0x1
 1720 06de 51       		.byte	0x51
 1721 06df 1B       		.uleb128 0x1b
 1722 06e0 01       		.uleb128 0x1
 1723 06e1 52       		.byte	0x52
 1724 06e2 01       		.uleb128 0x1
 1725 06e3 30       		.byte	0x30
 1726 06e4 1B       		.uleb128 0x1b
 1727 06e5 01       		.uleb128 0x1
 1728 06e6 53       		.byte	0x53
 1729 06e7 01       		.uleb128 0x1
 1730 06e8 31       		.byte	0x31
 1731 06e9 00       		.byte	0
 1732 06ea 00       		.byte	0
 1733 06eb 1F       		.uleb128 0x1f
 1734 06ec 13010000 		.4byte	.LASF74
 1735 06f0 01       		.byte	0x1
 1736 06f1 D6       		.byte	0xd6
 1737 06f2 D8000000 		.4byte	0xd8
 1738 06f6 00000000 		.4byte	.LFB4
 1739 06fa 78000000 		.4byte	.LFE4-.LFB4
 1740 06fe 01       		.uleb128 0x1
 1741 06ff 9C       		.byte	0x9c
 1742 0700 14080000 		.4byte	0x814
 1743 0704 20       		.uleb128 0x20
 1744 0705 8E030000 		.4byte	.LASF72
 1745 0709 01       		.byte	0x1
 1746 070a D6       		.byte	0xd6
 1747 070b D5040000 		.4byte	0x4d5
 1748 070f 33030000 		.4byte	.LLST21
 1749 0713 20       		.uleb128 0x20
 1750 0714 67070000 		.4byte	.LASF73
 1751 0718 01       		.byte	0x1
 1752 0719 D7       		.byte	0xd7
 1753 071a F2010000 		.4byte	0x1f2
 1754 071e 51030000 		.4byte	.LLST22
 1755 0722 20       		.uleb128 0x20
 1756 0723 52030000 		.4byte	.LASF68
 1757 0727 01       		.byte	0x1
 1758 0728 D8       		.byte	0xd8
 1759 0729 D8000000 		.4byte	0xd8
 1760 072d 6F030000 		.4byte	.LLST23
 1761 0731 20       		.uleb128 0x20
 1762 0732 CC060000 		.4byte	.LASF75
 1763 0736 01       		.byte	0x1
 1764 0737 D9       		.byte	0xd9
 1765 0738 AD000000 		.4byte	0xad
 1766 073c 1E040000 		.4byte	.LLST24
 1767 0740 21       		.uleb128 0x21
ARM GAS  /tmp/cczPv8m9.s 			page 32


 1768 0741 6300     		.ascii	"c\000"
 1769 0743 01       		.byte	0x1
 1770 0744 DB       		.byte	0xdb
 1771 0745 D8000000 		.4byte	0xd8
 1772 0749 3F040000 		.4byte	.LLST25
 1773 074d 1D       		.uleb128 0x1d
 1774 074e 10000000 		.4byte	.LVL56
 1775 0752 6A0B0000 		.4byte	0xb6a
 1776 0756 75070000 		.4byte	0x775
 1777 075a 1B       		.uleb128 0x1b
 1778 075b 01       		.uleb128 0x1
 1779 075c 50       		.byte	0x50
 1780 075d 02       		.uleb128 0x2
 1781 075e 76       		.byte	0x76
 1782 075f 00       		.sleb128 0
 1783 0760 1B       		.uleb128 0x1b
 1784 0761 01       		.uleb128 0x1
 1785 0762 51       		.byte	0x51
 1786 0763 02       		.uleb128 0x2
 1787 0764 77       		.byte	0x77
 1788 0765 00       		.sleb128 0
 1789 0766 1B       		.uleb128 0x1b
 1790 0767 01       		.uleb128 0x1
 1791 0768 52       		.byte	0x52
 1792 0769 05       		.uleb128 0x5
 1793 076a F3       		.byte	0xf3
 1794 076b 01       		.uleb128 0x1
 1795 076c 52       		.byte	0x52
 1796 076d 23       		.byte	0x23
 1797 076e 05       		.uleb128 0x5
 1798 076f 1B       		.uleb128 0x1b
 1799 0770 01       		.uleb128 0x1
 1800 0771 53       		.byte	0x53
 1801 0772 01       		.uleb128 0x1
 1802 0773 30       		.byte	0x30
 1803 0774 00       		.byte	0
 1804 0775 1D       		.uleb128 0x1d
 1805 0776 1E000000 		.4byte	.LVL58
 1806 077a 6A0B0000 		.4byte	0xb6a
 1807 077e 94070000 		.4byte	0x794
 1808 0782 1B       		.uleb128 0x1b
 1809 0783 01       		.uleb128 0x1
 1810 0784 50       		.byte	0x50
 1811 0785 02       		.uleb128 0x2
 1812 0786 76       		.byte	0x76
 1813 0787 10       		.sleb128 16
 1814 0788 1B       		.uleb128 0x1b
 1815 0789 01       		.uleb128 0x1
 1816 078a 51       		.byte	0x51
 1817 078b 02       		.uleb128 0x2
 1818 078c 77       		.byte	0x77
 1819 078d 00       		.sleb128 0
 1820 078e 1B       		.uleb128 0x1b
 1821 078f 01       		.uleb128 0x1
 1822 0790 53       		.byte	0x53
 1823 0791 01       		.uleb128 0x1
 1824 0792 30       		.byte	0x30
ARM GAS  /tmp/cczPv8m9.s 			page 33


 1825 0793 00       		.byte	0
 1826 0794 1D       		.uleb128 0x1d
 1827 0795 2C000000 		.4byte	.LVL60
 1828 0799 750B0000 		.4byte	0xb75
 1829 079d B3070000 		.4byte	0x7b3
 1830 07a1 1B       		.uleb128 0x1b
 1831 07a2 01       		.uleb128 0x1
 1832 07a3 50       		.byte	0x50
 1833 07a4 02       		.uleb128 0x2
 1834 07a5 76       		.byte	0x76
 1835 07a6 20       		.sleb128 32
 1836 07a7 1B       		.uleb128 0x1b
 1837 07a8 01       		.uleb128 0x1
 1838 07a9 51       		.byte	0x51
 1839 07aa 02       		.uleb128 0x2
 1840 07ab 77       		.byte	0x77
 1841 07ac 00       		.sleb128 0
 1842 07ad 1B       		.uleb128 0x1b
 1843 07ae 01       		.uleb128 0x1
 1844 07af 53       		.byte	0x53
 1845 07b0 01       		.uleb128 0x1
 1846 07b1 30       		.byte	0x30
 1847 07b2 00       		.byte	0
 1848 07b3 1D       		.uleb128 0x1d
 1849 07b4 3A000000 		.4byte	.LVL62
 1850 07b8 750B0000 		.4byte	0xb75
 1851 07bc D2070000 		.4byte	0x7d2
 1852 07c0 1B       		.uleb128 0x1b
 1853 07c1 01       		.uleb128 0x1
 1854 07c2 50       		.byte	0x50
 1855 07c3 02       		.uleb128 0x2
 1856 07c4 76       		.byte	0x76
 1857 07c5 30       		.sleb128 48
 1858 07c6 1B       		.uleb128 0x1b
 1859 07c7 01       		.uleb128 0x1
 1860 07c8 51       		.byte	0x51
 1861 07c9 02       		.uleb128 0x2
 1862 07ca 77       		.byte	0x77
 1863 07cb 00       		.sleb128 0
 1864 07cc 1B       		.uleb128 0x1b
 1865 07cd 01       		.uleb128 0x1
 1866 07ce 53       		.byte	0x53
 1867 07cf 01       		.uleb128 0x1
 1868 07d0 30       		.byte	0x30
 1869 07d1 00       		.byte	0
 1870 07d2 1D       		.uleb128 0x1d
 1871 07d3 54000000 		.4byte	.LVL66
 1872 07d7 800B0000 		.4byte	0xb80
 1873 07db F1070000 		.4byte	0x7f1
 1874 07df 1B       		.uleb128 0x1b
 1875 07e0 01       		.uleb128 0x1
 1876 07e1 50       		.byte	0x50
 1877 07e2 02       		.uleb128 0x2
 1878 07e3 77       		.byte	0x77
 1879 07e4 00       		.sleb128 0
 1880 07e5 1B       		.uleb128 0x1b
 1881 07e6 01       		.uleb128 0x1
ARM GAS  /tmp/cczPv8m9.s 			page 34


 1882 07e7 51       		.byte	0x51
 1883 07e8 02       		.uleb128 0x2
 1884 07e9 75       		.byte	0x75
 1885 07ea 00       		.sleb128 0
 1886 07eb 1B       		.uleb128 0x1b
 1887 07ec 01       		.uleb128 0x1
 1888 07ed 52       		.byte	0x52
 1889 07ee 01       		.uleb128 0x1
 1890 07ef 38       		.byte	0x38
 1891 07f0 00       		.byte	0
 1892 07f1 1A       		.uleb128 0x1a
 1893 07f2 74000000 		.4byte	.LVL72
 1894 07f6 800B0000 		.4byte	0xb80
 1895 07fa 1B       		.uleb128 0x1b
 1896 07fb 01       		.uleb128 0x1
 1897 07fc 50       		.byte	0x50
 1898 07fd 02       		.uleb128 0x2
 1899 07fe 77       		.byte	0x77
 1900 07ff 00       		.sleb128 0
 1901 0800 1B       		.uleb128 0x1b
 1902 0801 01       		.uleb128 0x1
 1903 0802 51       		.byte	0x51
 1904 0803 02       		.uleb128 0x2
 1905 0804 75       		.byte	0x75
 1906 0805 00       		.sleb128 0
 1907 0806 1B       		.uleb128 0x1b
 1908 0807 01       		.uleb128 0x1
 1909 0808 52       		.byte	0x52
 1910 0809 01       		.uleb128 0x1
 1911 080a 37       		.byte	0x37
 1912 080b 1B       		.uleb128 0x1b
 1913 080c 01       		.uleb128 0x1
 1914 080d 53       		.byte	0x53
 1915 080e 03       		.uleb128 0x3
 1916 080f 76       		.byte	0x76
 1917 0810 C000     		.sleb128 64
 1918 0812 00       		.byte	0
 1919 0813 00       		.byte	0
 1920 0814 1F       		.uleb128 0x1f
 1921 0815 50050000 		.4byte	.LASF76
 1922 0819 01       		.byte	0x1
 1923 081a BB       		.byte	0xbb
 1924 081b C8000000 		.4byte	0xc8
 1925 081f 00000000 		.4byte	.LFB3
 1926 0823 1E000000 		.4byte	.LFE3-.LFB3
 1927 0827 01       		.uleb128 0x1
 1928 0828 9C       		.byte	0x9c
 1929 0829 B1080000 		.4byte	0x8b1
 1930 082d 20       		.uleb128 0x20
 1931 082e 1A060000 		.4byte	.LASF65
 1932 0832 01       		.byte	0x1
 1933 0833 BB       		.byte	0xbb
 1934 0834 CF040000 		.4byte	0x4cf
 1935 0838 82040000 		.4byte	.LLST15
 1936 083c 20       		.uleb128 0x20
 1937 083d 11070000 		.4byte	.LASF26
 1938 0841 01       		.byte	0x1
ARM GAS  /tmp/cczPv8m9.s 			page 35


 1939 0842 BC       		.byte	0xbc
 1940 0843 BD000000 		.4byte	0xbd
 1941 0847 A3040000 		.4byte	.LLST16
 1942 084b 20       		.uleb128 0x20
 1943 084c 5F000000 		.4byte	.LASF66
 1944 0850 01       		.byte	0x1
 1945 0851 BD       		.byte	0xbd
 1946 0852 B1080000 		.4byte	0x8b1
 1947 0856 C4040000 		.4byte	.LLST17
 1948 085a 20       		.uleb128 0x20
 1949 085b E9020000 		.4byte	.LASF67
 1950 085f 01       		.byte	0x1
 1951 0860 BE       		.byte	0xbe
 1952 0861 DB040000 		.4byte	0x4db
 1953 0865 E4040000 		.4byte	.LLST18
 1954 0869 22       		.uleb128 0x22
 1955 086a 52030000 		.4byte	.LASF68
 1956 086e 01       		.byte	0x1
 1957 086f C0       		.byte	0xc0
 1958 0870 D3000000 		.4byte	0xd3
 1959 0874 00       		.byte	0
 1960 0875 21       		.uleb128 0x21
 1961 0876 72657400 		.ascii	"ret\000"
 1962 087a 01       		.byte	0x1
 1963 087b C1       		.byte	0xc1
 1964 087c C8000000 		.4byte	0xc8
 1965 0880 05050000 		.4byte	.LLST19
 1966 0884 19       		.uleb128 0x19
 1967 0885 0A000000 		.4byte	.LBB2
 1968 0889 0A000000 		.4byte	.LBE2-.LBB2
 1969 088d 9F080000 		.4byte	0x89f
 1970 0891 21       		.uleb128 0x21
 1971 0892 6300     		.ascii	"c\000"
 1972 0894 01       		.byte	0x1
 1973 0895 C4       		.byte	0xc4
 1974 0896 D8000000 		.4byte	0xd8
 1975 089a 24050000 		.4byte	.LLST20
 1976 089e 00       		.byte	0
 1977 089f 1A       		.uleb128 0x1a
 1978 08a0 1A000000 		.4byte	.LVL52
 1979 08a4 B7080000 		.4byte	0x8b7
 1980 08a8 1B       		.uleb128 0x1b
 1981 08a9 02       		.uleb128 0x2
 1982 08aa 7D       		.byte	0x7d
 1983 08ab 00       		.sleb128 0
 1984 08ac 02       		.uleb128 0x2
 1985 08ad 75       		.byte	0x75
 1986 08ae 00       		.sleb128 0
 1987 08af 00       		.byte	0
 1988 08b0 00       		.byte	0
 1989 08b1 0A       		.uleb128 0xa
 1990 08b2 04       		.byte	0x4
 1991 08b3 AE030000 		.4byte	0x3ae
 1992 08b7 1F       		.uleb128 0x1f
 1993 08b8 51060000 		.4byte	.LASF77
 1994 08bc 01       		.byte	0x1
 1995 08bd 5E       		.byte	0x5e
ARM GAS  /tmp/cczPv8m9.s 			page 36


 1996 08be C8000000 		.4byte	0xc8
 1997 08c2 00000000 		.4byte	.LFB2
 1998 08c6 B2000000 		.4byte	.LFE2-.LFB2
 1999 08ca 01       		.uleb128 0x1
 2000 08cb 9C       		.byte	0x9c
 2001 08cc F2090000 		.4byte	0x9f2
 2002 08d0 20       		.uleb128 0x20
 2003 08d1 1A060000 		.4byte	.LASF65
 2004 08d5 01       		.byte	0x1
 2005 08d6 5F       		.byte	0x5f
 2006 08d7 CF040000 		.4byte	0x4cf
 2007 08db 38050000 		.4byte	.LLST8
 2008 08df 20       		.uleb128 0x20
 2009 08e0 11070000 		.4byte	.LASF26
 2010 08e4 01       		.byte	0x1
 2011 08e5 60       		.byte	0x60
 2012 08e6 BD000000 		.4byte	0xbd
 2013 08ea 6C050000 		.4byte	.LLST9
 2014 08ee 20       		.uleb128 0x20
 2015 08ef 5F000000 		.4byte	.LASF66
 2016 08f3 01       		.byte	0x1
 2017 08f4 61       		.byte	0x61
 2018 08f5 B1080000 		.4byte	0x8b1
 2019 08f9 8D050000 		.4byte	.LLST10
 2020 08fd 20       		.uleb128 0x20
 2021 08fe E9020000 		.4byte	.LASF67
 2022 0902 01       		.byte	0x1
 2023 0903 62       		.byte	0x62
 2024 0904 DB040000 		.4byte	0x4db
 2025 0908 AB050000 		.4byte	.LLST11
 2026 090c 20       		.uleb128 0x20
 2027 090d 52030000 		.4byte	.LASF68
 2028 0911 01       		.byte	0x1
 2029 0912 63       		.byte	0x63
 2030 0913 C8000000 		.4byte	0xc8
 2031 0917 C9050000 		.4byte	.LLST12
 2032 091b 21       		.uleb128 0x21
 2033 091c 72657400 		.ascii	"ret\000"
 2034 0920 01       		.byte	0x1
 2035 0921 65       		.byte	0x65
 2036 0922 C8000000 		.4byte	0xc8
 2037 0926 6C060000 		.4byte	.LLST13
 2038 092a 21       		.uleb128 0x21
 2039 092b 6300     		.ascii	"c\000"
 2040 092d 01       		.byte	0x1
 2041 092e 66       		.byte	0x66
 2042 092f D8000000 		.4byte	0xd8
 2043 0933 C2060000 		.4byte	.LLST14
 2044 0937 23       		.uleb128 0x23
 2045 0938 C8010000 		.4byte	.LASF79
 2046 093c 01       		.byte	0x1
 2047 093d A6       		.byte	0xa6
 2048 093e 20000000 		.4byte	.L15
 2049 0942 1D       		.uleb128 0x1d
 2050 0943 1A000000 		.4byte	.LVL27
 2051 0947 5E0B0000 		.4byte	0xb5e
 2052 094b 6E090000 		.4byte	0x96e
ARM GAS  /tmp/cczPv8m9.s 			page 37


 2053 094f 1B       		.uleb128 0x1b
 2054 0950 01       		.uleb128 0x1
 2055 0951 50       		.byte	0x50
 2056 0952 02       		.uleb128 0x2
 2057 0953 79       		.byte	0x79
 2058 0954 00       		.sleb128 0
 2059 0955 1B       		.uleb128 0x1b
 2060 0956 01       		.uleb128 0x1
 2061 0957 51       		.byte	0x51
 2062 0958 03       		.uleb128 0x3
 2063 0959 91       		.byte	0x91
 2064 095a 00       		.sleb128 0
 2065 095b 06       		.byte	0x6
 2066 095c 1B       		.uleb128 0x1b
 2067 095d 01       		.uleb128 0x1
 2068 095e 52       		.byte	0x52
 2069 095f 01       		.uleb128 0x1
 2070 0960 3D       		.byte	0x3d
 2071 0961 1B       		.uleb128 0x1b
 2072 0962 01       		.uleb128 0x1
 2073 0963 53       		.byte	0x53
 2074 0964 01       		.uleb128 0x1
 2075 0965 30       		.byte	0x30
 2076 0966 1B       		.uleb128 0x1b
 2077 0967 02       		.uleb128 0x2
 2078 0968 7D       		.byte	0x7d
 2079 0969 00       		.sleb128 0
 2080 096a 02       		.uleb128 0x2
 2081 096b 76       		.byte	0x76
 2082 096c 00       		.sleb128 0
 2083 096d 00       		.byte	0
 2084 096e 1D       		.uleb128 0x1d
 2085 096f 44000000 		.4byte	.LVL35
 2086 0973 480B0000 		.4byte	0xb48
 2087 0977 9E090000 		.4byte	0x99e
 2088 097b 1B       		.uleb128 0x1b
 2089 097c 01       		.uleb128 0x1
 2090 097d 50       		.byte	0x50
 2091 097e 02       		.uleb128 0x2
 2092 097f 79       		.byte	0x79
 2093 0980 00       		.sleb128 0
 2094 0981 1B       		.uleb128 0x1b
 2095 0982 01       		.uleb128 0x1
 2096 0983 51       		.byte	0x51
 2097 0984 02       		.uleb128 0x2
 2098 0985 77       		.byte	0x77
 2099 0986 00       		.sleb128 0
 2100 0987 1B       		.uleb128 0x1b
 2101 0988 01       		.uleb128 0x1
 2102 0989 52       		.byte	0x52
 2103 098a 02       		.uleb128 0x2
 2104 098b 76       		.byte	0x76
 2105 098c 08       		.sleb128 8
 2106 098d 1B       		.uleb128 0x1b
 2107 098e 01       		.uleb128 0x1
 2108 098f 53       		.byte	0x53
 2109 0990 02       		.uleb128 0x2
ARM GAS  /tmp/cczPv8m9.s 			page 38


 2110 0991 75       		.byte	0x75
 2111 0992 00       		.sleb128 0
 2112 0993 1B       		.uleb128 0x1b
 2113 0994 02       		.uleb128 0x2
 2114 0995 7D       		.byte	0x7d
 2115 0996 00       		.sleb128 0
 2116 0997 05       		.uleb128 0x5
 2117 0998 91       		.byte	0x91
 2118 0999 00       		.sleb128 0
 2119 099a 06       		.byte	0x6
 2120 099b 23       		.byte	0x23
 2121 099c 0D       		.uleb128 0xd
 2122 099d 00       		.byte	0
 2123 099e 1D       		.uleb128 0x1d
 2124 099f 8E000000 		.4byte	.LVL44
 2125 09a3 5E0B0000 		.4byte	0xb5e
 2126 09a7 C9090000 		.4byte	0x9c9
 2127 09ab 1B       		.uleb128 0x1b
 2128 09ac 01       		.uleb128 0x1
 2129 09ad 50       		.byte	0x50
 2130 09ae 02       		.uleb128 0x2
 2131 09af 79       		.byte	0x79
 2132 09b0 00       		.sleb128 0
 2133 09b1 1B       		.uleb128 0x1b
 2134 09b2 01       		.uleb128 0x1
 2135 09b3 51       		.byte	0x51
 2136 09b4 02       		.uleb128 0x2
 2137 09b5 74       		.byte	0x74
 2138 09b6 78       		.sleb128 -8
 2139 09b7 1B       		.uleb128 0x1b
 2140 09b8 01       		.uleb128 0x1
 2141 09b9 52       		.byte	0x52
 2142 09ba 01       		.uleb128 0x1
 2143 09bb 38       		.byte	0x38
 2144 09bc 1B       		.uleb128 0x1b
 2145 09bd 01       		.uleb128 0x1
 2146 09be 53       		.byte	0x53
 2147 09bf 01       		.uleb128 0x1
 2148 09c0 30       		.byte	0x30
 2149 09c1 1B       		.uleb128 0x1b
 2150 09c2 02       		.uleb128 0x2
 2151 09c3 7D       		.byte	0x7d
 2152 09c4 00       		.sleb128 0
 2153 09c5 02       		.uleb128 0x2
 2154 09c6 77       		.byte	0x77
 2155 09c7 00       		.sleb128 0
 2156 09c8 00       		.byte	0
 2157 09c9 1A       		.uleb128 0x1a
 2158 09ca A8000000 		.4byte	.LVL48
 2159 09ce 5E0B0000 		.4byte	0xb5e
 2160 09d2 1B       		.uleb128 0x1b
 2161 09d3 01       		.uleb128 0x1
 2162 09d4 50       		.byte	0x50
 2163 09d5 02       		.uleb128 0x2
 2164 09d6 79       		.byte	0x79
 2165 09d7 00       		.sleb128 0
 2166 09d8 1B       		.uleb128 0x1b
ARM GAS  /tmp/cczPv8m9.s 			page 39


 2167 09d9 01       		.uleb128 0x1
 2168 09da 51       		.byte	0x51
 2169 09db 02       		.uleb128 0x2
 2170 09dc 74       		.byte	0x74
 2171 09dd 00       		.sleb128 0
 2172 09de 1B       		.uleb128 0x1b
 2173 09df 01       		.uleb128 0x1
 2174 09e0 52       		.byte	0x52
 2175 09e1 01       		.uleb128 0x1
 2176 09e2 37       		.byte	0x37
 2177 09e3 1B       		.uleb128 0x1b
 2178 09e4 01       		.uleb128 0x1
 2179 09e5 53       		.byte	0x53
 2180 09e6 02       		.uleb128 0x2
 2181 09e7 77       		.byte	0x77
 2182 09e8 00       		.sleb128 0
 2183 09e9 1B       		.uleb128 0x1b
 2184 09ea 02       		.uleb128 0x2
 2185 09eb 7D       		.byte	0x7d
 2186 09ec 00       		.sleb128 0
 2187 09ed 02       		.uleb128 0x2
 2188 09ee 76       		.byte	0x76
 2189 09ef 18       		.sleb128 24
 2190 09f0 00       		.byte	0
 2191 09f1 00       		.byte	0
 2192 09f2 1F       		.uleb128 0x1f
 2193 09f3 36020000 		.4byte	.LASF80
 2194 09f7 01       		.byte	0x1
 2195 09f8 4A       		.byte	0x4a
 2196 09f9 D8000000 		.4byte	0xd8
 2197 09fd 00000000 		.4byte	.LFB1
 2198 0a01 10000000 		.4byte	.LFE1-.LFB1
 2199 0a05 01       		.uleb128 0x1
 2200 0a06 9C       		.byte	0x9c
 2201 0a07 5B0A0000 		.4byte	0xa5b
 2202 0a0b 20       		.uleb128 0x20
 2203 0a0c 8E030000 		.4byte	.LASF72
 2204 0a10 01       		.byte	0x1
 2205 0a11 4A       		.byte	0x4a
 2206 0a12 B1080000 		.4byte	0x8b1
 2207 0a16 13070000 		.4byte	.LLST5
 2208 0a1a 20       		.uleb128 0x20
 2209 0a1b 67070000 		.4byte	.LASF73
 2210 0a1f 01       		.byte	0x1
 2211 0a20 4A       		.byte	0x4a
 2212 0a21 F2010000 		.4byte	0x1f2
 2213 0a25 34070000 		.4byte	.LLST6
 2214 0a29 24       		.uleb128 0x24
 2215 0a2a 52030000 		.4byte	.LASF68
 2216 0a2e 01       		.byte	0x1
 2217 0a2f 4C       		.byte	0x4c
 2218 0a30 D8000000 		.4byte	0xd8
 2219 0a34 55070000 		.4byte	.LLST7
 2220 0a38 1A       		.uleb128 0x1a
 2221 0a39 0A000000 		.4byte	.LVL20
 2222 0a3d 5B0A0000 		.4byte	0xa5b
 2223 0a41 1B       		.uleb128 0x1b
ARM GAS  /tmp/cczPv8m9.s 			page 40


 2224 0a42 01       		.uleb128 0x1
 2225 0a43 50       		.byte	0x50
 2226 0a44 03       		.uleb128 0x3
 2227 0a45 F3       		.byte	0xf3
 2228 0a46 01       		.uleb128 0x1
 2229 0a47 50       		.byte	0x50
 2230 0a48 1B       		.uleb128 0x1b
 2231 0a49 01       		.uleb128 0x1
 2232 0a4a 51       		.byte	0x51
 2233 0a4b 03       		.uleb128 0x3
 2234 0a4c F3       		.byte	0xf3
 2235 0a4d 01       		.uleb128 0x1
 2236 0a4e 51       		.byte	0x51
 2237 0a4f 1B       		.uleb128 0x1b
 2238 0a50 01       		.uleb128 0x1
 2239 0a51 52       		.byte	0x52
 2240 0a52 01       		.uleb128 0x1
 2241 0a53 30       		.byte	0x30
 2242 0a54 1B       		.uleb128 0x1b
 2243 0a55 01       		.uleb128 0x1
 2244 0a56 53       		.byte	0x53
 2245 0a57 01       		.uleb128 0x1
 2246 0a58 31       		.byte	0x31
 2247 0a59 00       		.byte	0
 2248 0a5a 00       		.byte	0
 2249 0a5b 1F       		.uleb128 0x1f
 2250 0a5c 80010000 		.4byte	.LASF81
 2251 0a60 01       		.byte	0x1
 2252 0a61 21       		.byte	0x21
 2253 0a62 D8000000 		.4byte	0xd8
 2254 0a66 00000000 		.4byte	.LFB0
 2255 0a6a 76000000 		.4byte	.LFE0-.LFB0
 2256 0a6e 01       		.uleb128 0x1
 2257 0a6f 9C       		.byte	0x9c
 2258 0a70 480B0000 		.4byte	0xb48
 2259 0a74 20       		.uleb128 0x20
 2260 0a75 8E030000 		.4byte	.LASF72
 2261 0a79 01       		.byte	0x1
 2262 0a7a 21       		.byte	0x21
 2263 0a7b B1080000 		.4byte	0x8b1
 2264 0a7f 81070000 		.4byte	.LLST0
 2265 0a83 20       		.uleb128 0x20
 2266 0a84 67070000 		.4byte	.LASF73
 2267 0a88 01       		.byte	0x1
 2268 0a89 22       		.byte	0x22
 2269 0a8a F2010000 		.4byte	0x1f2
 2270 0a8e 9F070000 		.4byte	.LLST1
 2271 0a92 20       		.uleb128 0x20
 2272 0a93 52030000 		.4byte	.LASF68
 2273 0a97 01       		.byte	0x1
 2274 0a98 23       		.byte	0x23
 2275 0a99 D8000000 		.4byte	0xd8
 2276 0a9d BD070000 		.4byte	.LLST2
 2277 0aa1 20       		.uleb128 0x20
 2278 0aa2 CC060000 		.4byte	.LASF75
 2279 0aa6 01       		.byte	0x1
 2280 0aa7 24       		.byte	0x24
ARM GAS  /tmp/cczPv8m9.s 			page 41


 2281 0aa8 AD000000 		.4byte	0xad
 2282 0aac 37080000 		.4byte	.LLST3
 2283 0ab0 21       		.uleb128 0x21
 2284 0ab1 6300     		.ascii	"c\000"
 2285 0ab3 01       		.byte	0x1
 2286 0ab4 26       		.byte	0x26
 2287 0ab5 D8000000 		.4byte	0xd8
 2288 0ab9 58080000 		.4byte	.LLST4
 2289 0abd 1D       		.uleb128 0x1d
 2290 0abe 26000000 		.4byte	.LVL5
 2291 0ac2 800B0000 		.4byte	0xb80
 2292 0ac6 E20A0000 		.4byte	0xae2
 2293 0aca 1B       		.uleb128 0x1b
 2294 0acb 01       		.uleb128 0x1
 2295 0acc 50       		.byte	0x50
 2296 0acd 02       		.uleb128 0x2
 2297 0ace 77       		.byte	0x77
 2298 0acf 00       		.sleb128 0
 2299 0ad0 1B       		.uleb128 0x1b
 2300 0ad1 01       		.uleb128 0x1
 2301 0ad2 51       		.byte	0x51
 2302 0ad3 02       		.uleb128 0x2
 2303 0ad4 74       		.byte	0x74
 2304 0ad5 00       		.sleb128 0
 2305 0ad6 1B       		.uleb128 0x1b
 2306 0ad7 01       		.uleb128 0x1
 2307 0ad8 52       		.byte	0x52
 2308 0ad9 01       		.uleb128 0x1
 2309 0ada 3D       		.byte	0x3d
 2310 0adb 1B       		.uleb128 0x1b
 2311 0adc 01       		.uleb128 0x1
 2312 0add 53       		.byte	0x53
 2313 0ade 02       		.uleb128 0x2
 2314 0adf 76       		.byte	0x76
 2315 0ae0 00       		.sleb128 0
 2316 0ae1 00       		.byte	0
 2317 0ae2 1D       		.uleb128 0x1d
 2318 0ae3 36000000 		.4byte	.LVL7
 2319 0ae7 6A0B0000 		.4byte	0xb6a
 2320 0aeb 070B0000 		.4byte	0xb07
 2321 0aef 1B       		.uleb128 0x1b
 2322 0af0 01       		.uleb128 0x1
 2323 0af1 50       		.byte	0x50
 2324 0af2 02       		.uleb128 0x2
 2325 0af3 76       		.byte	0x76
 2326 0af4 08       		.sleb128 8
 2327 0af5 1B       		.uleb128 0x1b
 2328 0af6 01       		.uleb128 0x1
 2329 0af7 51       		.byte	0x51
 2330 0af8 02       		.uleb128 0x2
 2331 0af9 77       		.byte	0x77
 2332 0afa 00       		.sleb128 0
 2333 0afb 1B       		.uleb128 0x1b
 2334 0afc 01       		.uleb128 0x1
 2335 0afd 52       		.byte	0x52
 2336 0afe 02       		.uleb128 0x2
 2337 0aff 74       		.byte	0x74
ARM GAS  /tmp/cczPv8m9.s 			page 42


 2338 0b00 0D       		.sleb128 13
 2339 0b01 1B       		.uleb128 0x1b
 2340 0b02 01       		.uleb128 0x1
 2341 0b03 53       		.byte	0x53
 2342 0b04 01       		.uleb128 0x1
 2343 0b05 30       		.byte	0x30
 2344 0b06 00       		.byte	0
 2345 0b07 1D       		.uleb128 0x1d
 2346 0b08 52000000 		.4byte	.LVL11
 2347 0b0c 800B0000 		.4byte	0xb80
 2348 0b10 260B0000 		.4byte	0xb26
 2349 0b14 1B       		.uleb128 0x1b
 2350 0b15 01       		.uleb128 0x1
 2351 0b16 50       		.byte	0x50
 2352 0b17 02       		.uleb128 0x2
 2353 0b18 77       		.byte	0x77
 2354 0b19 00       		.sleb128 0
 2355 0b1a 1B       		.uleb128 0x1b
 2356 0b1b 01       		.uleb128 0x1
 2357 0b1c 51       		.byte	0x51
 2358 0b1d 02       		.uleb128 0x2
 2359 0b1e 75       		.byte	0x75
 2360 0b1f 00       		.sleb128 0
 2361 0b20 1B       		.uleb128 0x1b
 2362 0b21 01       		.uleb128 0x1
 2363 0b22 52       		.byte	0x52
 2364 0b23 01       		.uleb128 0x1
 2365 0b24 38       		.byte	0x38
 2366 0b25 00       		.byte	0
 2367 0b26 1A       		.uleb128 0x1a
 2368 0b27 72000000 		.4byte	.LVL17
 2369 0b2b 800B0000 		.4byte	0xb80
 2370 0b2f 1B       		.uleb128 0x1b
 2371 0b30 01       		.uleb128 0x1
 2372 0b31 50       		.byte	0x50
 2373 0b32 02       		.uleb128 0x2
 2374 0b33 77       		.byte	0x77
 2375 0b34 00       		.sleb128 0
 2376 0b35 1B       		.uleb128 0x1b
 2377 0b36 01       		.uleb128 0x1
 2378 0b37 51       		.byte	0x51
 2379 0b38 02       		.uleb128 0x2
 2380 0b39 75       		.byte	0x75
 2381 0b3a 00       		.sleb128 0
 2382 0b3b 1B       		.uleb128 0x1b
 2383 0b3c 01       		.uleb128 0x1
 2384 0b3d 52       		.byte	0x52
 2385 0b3e 01       		.uleb128 0x1
 2386 0b3f 37       		.byte	0x37
 2387 0b40 1B       		.uleb128 0x1b
 2388 0b41 01       		.uleb128 0x1
 2389 0b42 53       		.byte	0x53
 2390 0b43 02       		.uleb128 0x2
 2391 0b44 76       		.byte	0x76
 2392 0b45 18       		.sleb128 24
 2393 0b46 00       		.byte	0
 2394 0b47 00       		.byte	0
ARM GAS  /tmp/cczPv8m9.s 			page 43


 2395 0b48 25       		.uleb128 0x25
 2396 0b49 64000000 		.4byte	.LASF82
 2397 0b4d 64000000 		.4byte	.LASF82
 2398 0b51 07       		.byte	0x7
 2399 0b52 62       		.byte	0x62
 2400 0b53 25       		.uleb128 0x25
 2401 0b54 C2000000 		.4byte	.LASF83
 2402 0b58 C2000000 		.4byte	.LASF83
 2403 0b5c 06       		.byte	0x6
 2404 0b5d 54       		.byte	0x54
 2405 0b5e 26       		.uleb128 0x26
 2406 0b5f 2F070000 		.4byte	.LASF84
 2407 0b63 2F070000 		.4byte	.LASF84
 2408 0b67 04       		.byte	0x4
 2409 0b68 CD01     		.2byte	0x1cd
 2410 0b6a 25       		.uleb128 0x25
 2411 0b6b 98080000 		.4byte	.LASF85
 2412 0b6f 98080000 		.4byte	.LASF85
 2413 0b73 07       		.byte	0x7
 2414 0b74 5F       		.byte	0x5f
 2415 0b75 25       		.uleb128 0x25
 2416 0b76 50040000 		.4byte	.LASF86
 2417 0b7a 50040000 		.4byte	.LASF86
 2418 0b7e 06       		.byte	0x6
 2419 0b7f 51       		.byte	0x51
 2420 0b80 26       		.uleb128 0x26
 2421 0b81 59030000 		.4byte	.LASF87
 2422 0b85 59030000 		.4byte	.LASF87
 2423 0b89 04       		.byte	0x4
 2424 0b8a E701     		.2byte	0x1e7
 2425 0b8c 00       		.byte	0
 2426              		.section	.debug_abbrev,"",%progbits
 2427              	.Ldebug_abbrev0:
 2428 0000 01       		.uleb128 0x1
 2429 0001 11       		.uleb128 0x11
 2430 0002 01       		.byte	0x1
 2431 0003 25       		.uleb128 0x25
 2432 0004 0E       		.uleb128 0xe
 2433 0005 13       		.uleb128 0x13
 2434 0006 0B       		.uleb128 0xb
 2435 0007 03       		.uleb128 0x3
 2436 0008 0E       		.uleb128 0xe
 2437 0009 1B       		.uleb128 0x1b
 2438 000a 0E       		.uleb128 0xe
 2439 000b 55       		.uleb128 0x55
 2440 000c 17       		.uleb128 0x17
 2441 000d 11       		.uleb128 0x11
 2442 000e 01       		.uleb128 0x1
 2443 000f 10       		.uleb128 0x10
 2444 0010 17       		.uleb128 0x17
 2445 0011 00       		.byte	0
 2446 0012 00       		.byte	0
 2447 0013 02       		.uleb128 0x2
 2448 0014 24       		.uleb128 0x24
 2449 0015 00       		.byte	0
 2450 0016 0B       		.uleb128 0xb
 2451 0017 0B       		.uleb128 0xb
ARM GAS  /tmp/cczPv8m9.s 			page 44


 2452 0018 3E       		.uleb128 0x3e
 2453 0019 0B       		.uleb128 0xb
 2454 001a 03       		.uleb128 0x3
 2455 001b 0E       		.uleb128 0xe
 2456 001c 00       		.byte	0
 2457 001d 00       		.byte	0
 2458 001e 03       		.uleb128 0x3
 2459 001f 16       		.uleb128 0x16
 2460 0020 00       		.byte	0
 2461 0021 03       		.uleb128 0x3
 2462 0022 0E       		.uleb128 0xe
 2463 0023 3A       		.uleb128 0x3a
 2464 0024 0B       		.uleb128 0xb
 2465 0025 3B       		.uleb128 0x3b
 2466 0026 0B       		.uleb128 0xb
 2467 0027 49       		.uleb128 0x49
 2468 0028 13       		.uleb128 0x13
 2469 0029 00       		.byte	0
 2470 002a 00       		.byte	0
 2471 002b 04       		.uleb128 0x4
 2472 002c 24       		.uleb128 0x24
 2473 002d 00       		.byte	0
 2474 002e 0B       		.uleb128 0xb
 2475 002f 0B       		.uleb128 0xb
 2476 0030 3E       		.uleb128 0x3e
 2477 0031 0B       		.uleb128 0xb
 2478 0032 03       		.uleb128 0x3
 2479 0033 08       		.uleb128 0x8
 2480 0034 00       		.byte	0
 2481 0035 00       		.byte	0
 2482 0036 05       		.uleb128 0x5
 2483 0037 26       		.uleb128 0x26
 2484 0038 00       		.byte	0
 2485 0039 49       		.uleb128 0x49
 2486 003a 13       		.uleb128 0x13
 2487 003b 00       		.byte	0
 2488 003c 00       		.byte	0
 2489 003d 06       		.uleb128 0x6
 2490 003e 13       		.uleb128 0x13
 2491 003f 01       		.byte	0x1
 2492 0040 03       		.uleb128 0x3
 2493 0041 0E       		.uleb128 0xe
 2494 0042 0B       		.uleb128 0xb
 2495 0043 0B       		.uleb128 0xb
 2496 0044 3A       		.uleb128 0x3a
 2497 0045 0B       		.uleb128 0xb
 2498 0046 3B       		.uleb128 0x3b
 2499 0047 05       		.uleb128 0x5
 2500 0048 01       		.uleb128 0x1
 2501 0049 13       		.uleb128 0x13
 2502 004a 00       		.byte	0
 2503 004b 00       		.byte	0
 2504 004c 07       		.uleb128 0x7
 2505 004d 0D       		.uleb128 0xd
 2506 004e 00       		.byte	0
 2507 004f 03       		.uleb128 0x3
 2508 0050 0E       		.uleb128 0xe
ARM GAS  /tmp/cczPv8m9.s 			page 45


 2509 0051 3A       		.uleb128 0x3a
 2510 0052 0B       		.uleb128 0xb
 2511 0053 3B       		.uleb128 0x3b
 2512 0054 05       		.uleb128 0x5
 2513 0055 49       		.uleb128 0x49
 2514 0056 13       		.uleb128 0x13
 2515 0057 38       		.uleb128 0x38
 2516 0058 0B       		.uleb128 0xb
 2517 0059 00       		.byte	0
 2518 005a 00       		.byte	0
 2519 005b 08       		.uleb128 0x8
 2520 005c 13       		.uleb128 0x13
 2521 005d 01       		.byte	0x1
 2522 005e 03       		.uleb128 0x3
 2523 005f 0E       		.uleb128 0xe
 2524 0060 0B       		.uleb128 0xb
 2525 0061 0B       		.uleb128 0xb
 2526 0062 3A       		.uleb128 0x3a
 2527 0063 0B       		.uleb128 0xb
 2528 0064 3B       		.uleb128 0x3b
 2529 0065 0B       		.uleb128 0xb
 2530 0066 01       		.uleb128 0x1
 2531 0067 13       		.uleb128 0x13
 2532 0068 00       		.byte	0
 2533 0069 00       		.byte	0
 2534 006a 09       		.uleb128 0x9
 2535 006b 0D       		.uleb128 0xd
 2536 006c 00       		.byte	0
 2537 006d 03       		.uleb128 0x3
 2538 006e 0E       		.uleb128 0xe
 2539 006f 3A       		.uleb128 0x3a
 2540 0070 0B       		.uleb128 0xb
 2541 0071 3B       		.uleb128 0x3b
 2542 0072 0B       		.uleb128 0xb
 2543 0073 49       		.uleb128 0x49
 2544 0074 13       		.uleb128 0x13
 2545 0075 38       		.uleb128 0x38
 2546 0076 0B       		.uleb128 0xb
 2547 0077 00       		.byte	0
 2548 0078 00       		.byte	0
 2549 0079 0A       		.uleb128 0xa
 2550 007a 0F       		.uleb128 0xf
 2551 007b 00       		.byte	0
 2552 007c 0B       		.uleb128 0xb
 2553 007d 0B       		.uleb128 0xb
 2554 007e 49       		.uleb128 0x49
 2555 007f 13       		.uleb128 0x13
 2556 0080 00       		.byte	0
 2557 0081 00       		.byte	0
 2558 0082 0B       		.uleb128 0xb
 2559 0083 01       		.uleb128 0x1
 2560 0084 01       		.byte	0x1
 2561 0085 49       		.uleb128 0x49
 2562 0086 13       		.uleb128 0x13
 2563 0087 01       		.uleb128 0x1
 2564 0088 13       		.uleb128 0x13
 2565 0089 00       		.byte	0
ARM GAS  /tmp/cczPv8m9.s 			page 46


 2566 008a 00       		.byte	0
 2567 008b 0C       		.uleb128 0xc
 2568 008c 21       		.uleb128 0x21
 2569 008d 00       		.byte	0
 2570 008e 49       		.uleb128 0x49
 2571 008f 13       		.uleb128 0x13
 2572 0090 00       		.byte	0
 2573 0091 00       		.byte	0
 2574 0092 0D       		.uleb128 0xd
 2575 0093 0F       		.uleb128 0xf
 2576 0094 00       		.byte	0
 2577 0095 0B       		.uleb128 0xb
 2578 0096 0B       		.uleb128 0xb
 2579 0097 00       		.byte	0
 2580 0098 00       		.byte	0
 2581 0099 0E       		.uleb128 0xe
 2582 009a 13       		.uleb128 0x13
 2583 009b 01       		.byte	0x1
 2584 009c 0B       		.uleb128 0xb
 2585 009d 0B       		.uleb128 0xb
 2586 009e 3A       		.uleb128 0x3a
 2587 009f 0B       		.uleb128 0xb
 2588 00a0 3B       		.uleb128 0x3b
 2589 00a1 0B       		.uleb128 0xb
 2590 00a2 01       		.uleb128 0x1
 2591 00a3 13       		.uleb128 0x13
 2592 00a4 00       		.byte	0
 2593 00a5 00       		.byte	0
 2594 00a6 0F       		.uleb128 0xf
 2595 00a7 04       		.uleb128 0x4
 2596 00a8 01       		.byte	0x1
 2597 00a9 3E       		.uleb128 0x3e
 2598 00aa 0B       		.uleb128 0xb
 2599 00ab 0B       		.uleb128 0xb
 2600 00ac 0B       		.uleb128 0xb
 2601 00ad 49       		.uleb128 0x49
 2602 00ae 13       		.uleb128 0x13
 2603 00af 3A       		.uleb128 0x3a
 2604 00b0 0B       		.uleb128 0xb
 2605 00b1 3B       		.uleb128 0x3b
 2606 00b2 0B       		.uleb128 0xb
 2607 00b3 01       		.uleb128 0x1
 2608 00b4 13       		.uleb128 0x13
 2609 00b5 00       		.byte	0
 2610 00b6 00       		.byte	0
 2611 00b7 10       		.uleb128 0x10
 2612 00b8 28       		.uleb128 0x28
 2613 00b9 00       		.byte	0
 2614 00ba 03       		.uleb128 0x3
 2615 00bb 0E       		.uleb128 0xe
 2616 00bc 1C       		.uleb128 0x1c
 2617 00bd 0B       		.uleb128 0xb
 2618 00be 00       		.byte	0
 2619 00bf 00       		.byte	0
 2620 00c0 11       		.uleb128 0x11
 2621 00c1 17       		.uleb128 0x17
 2622 00c2 01       		.byte	0x1
ARM GAS  /tmp/cczPv8m9.s 			page 47


 2623 00c3 0B       		.uleb128 0xb
 2624 00c4 0B       		.uleb128 0xb
 2625 00c5 3A       		.uleb128 0x3a
 2626 00c6 0B       		.uleb128 0xb
 2627 00c7 3B       		.uleb128 0x3b
 2628 00c8 0B       		.uleb128 0xb
 2629 00c9 01       		.uleb128 0x1
 2630 00ca 13       		.uleb128 0x13
 2631 00cb 00       		.byte	0
 2632 00cc 00       		.byte	0
 2633 00cd 12       		.uleb128 0x12
 2634 00ce 0D       		.uleb128 0xd
 2635 00cf 00       		.byte	0
 2636 00d0 03       		.uleb128 0x3
 2637 00d1 0E       		.uleb128 0xe
 2638 00d2 3A       		.uleb128 0x3a
 2639 00d3 0B       		.uleb128 0xb
 2640 00d4 3B       		.uleb128 0x3b
 2641 00d5 0B       		.uleb128 0xb
 2642 00d6 49       		.uleb128 0x49
 2643 00d7 13       		.uleb128 0x13
 2644 00d8 00       		.byte	0
 2645 00d9 00       		.byte	0
 2646 00da 13       		.uleb128 0x13
 2647 00db 0D       		.uleb128 0xd
 2648 00dc 00       		.byte	0
 2649 00dd 49       		.uleb128 0x49
 2650 00de 13       		.uleb128 0x13
 2651 00df 38       		.uleb128 0x38
 2652 00e0 0B       		.uleb128 0xb
 2653 00e1 00       		.byte	0
 2654 00e2 00       		.byte	0
 2655 00e3 14       		.uleb128 0x14
 2656 00e4 0D       		.uleb128 0xd
 2657 00e5 00       		.byte	0
 2658 00e6 03       		.uleb128 0x3
 2659 00e7 08       		.uleb128 0x8
 2660 00e8 3A       		.uleb128 0x3a
 2661 00e9 0B       		.uleb128 0xb
 2662 00ea 3B       		.uleb128 0x3b
 2663 00eb 0B       		.uleb128 0xb
 2664 00ec 49       		.uleb128 0x49
 2665 00ed 13       		.uleb128 0x13
 2666 00ee 38       		.uleb128 0x38
 2667 00ef 0B       		.uleb128 0xb
 2668 00f0 00       		.byte	0
 2669 00f1 00       		.byte	0
 2670 00f2 15       		.uleb128 0x15
 2671 00f3 2E       		.uleb128 0x2e
 2672 00f4 01       		.byte	0x1
 2673 00f5 3F       		.uleb128 0x3f
 2674 00f6 19       		.uleb128 0x19
 2675 00f7 03       		.uleb128 0x3
 2676 00f8 0E       		.uleb128 0xe
 2677 00f9 3A       		.uleb128 0x3a
 2678 00fa 0B       		.uleb128 0xb
 2679 00fb 3B       		.uleb128 0x3b
ARM GAS  /tmp/cczPv8m9.s 			page 48


 2680 00fc 05       		.uleb128 0x5
 2681 00fd 27       		.uleb128 0x27
 2682 00fe 19       		.uleb128 0x19
 2683 00ff 49       		.uleb128 0x49
 2684 0100 13       		.uleb128 0x13
 2685 0101 11       		.uleb128 0x11
 2686 0102 01       		.uleb128 0x1
 2687 0103 12       		.uleb128 0x12
 2688 0104 06       		.uleb128 0x6
 2689 0105 40       		.uleb128 0x40
 2690 0106 18       		.uleb128 0x18
 2691 0107 9742     		.uleb128 0x2117
 2692 0109 19       		.uleb128 0x19
 2693 010a 01       		.uleb128 0x1
 2694 010b 13       		.uleb128 0x13
 2695 010c 00       		.byte	0
 2696 010d 00       		.byte	0
 2697 010e 16       		.uleb128 0x16
 2698 010f 05       		.uleb128 0x5
 2699 0110 00       		.byte	0
 2700 0111 03       		.uleb128 0x3
 2701 0112 0E       		.uleb128 0xe
 2702 0113 3A       		.uleb128 0x3a
 2703 0114 0B       		.uleb128 0xb
 2704 0115 3B       		.uleb128 0x3b
 2705 0116 05       		.uleb128 0x5
 2706 0117 49       		.uleb128 0x49
 2707 0118 13       		.uleb128 0x13
 2708 0119 02       		.uleb128 0x2
 2709 011a 17       		.uleb128 0x17
 2710 011b 00       		.byte	0
 2711 011c 00       		.byte	0
 2712 011d 17       		.uleb128 0x17
 2713 011e 34       		.uleb128 0x34
 2714 011f 00       		.byte	0
 2715 0120 03       		.uleb128 0x3
 2716 0121 0E       		.uleb128 0xe
 2717 0122 3A       		.uleb128 0x3a
 2718 0123 0B       		.uleb128 0xb
 2719 0124 3B       		.uleb128 0x3b
 2720 0125 05       		.uleb128 0x5
 2721 0126 49       		.uleb128 0x49
 2722 0127 13       		.uleb128 0x13
 2723 0128 1C       		.uleb128 0x1c
 2724 0129 0B       		.uleb128 0xb
 2725 012a 00       		.byte	0
 2726 012b 00       		.byte	0
 2727 012c 18       		.uleb128 0x18
 2728 012d 34       		.uleb128 0x34
 2729 012e 00       		.byte	0
 2730 012f 03       		.uleb128 0x3
 2731 0130 08       		.uleb128 0x8
 2732 0131 3A       		.uleb128 0x3a
 2733 0132 0B       		.uleb128 0xb
 2734 0133 3B       		.uleb128 0x3b
 2735 0134 05       		.uleb128 0x5
 2736 0135 49       		.uleb128 0x49
ARM GAS  /tmp/cczPv8m9.s 			page 49


 2737 0136 13       		.uleb128 0x13
 2738 0137 02       		.uleb128 0x2
 2739 0138 17       		.uleb128 0x17
 2740 0139 00       		.byte	0
 2741 013a 00       		.byte	0
 2742 013b 19       		.uleb128 0x19
 2743 013c 0B       		.uleb128 0xb
 2744 013d 01       		.byte	0x1
 2745 013e 11       		.uleb128 0x11
 2746 013f 01       		.uleb128 0x1
 2747 0140 12       		.uleb128 0x12
 2748 0141 06       		.uleb128 0x6
 2749 0142 01       		.uleb128 0x1
 2750 0143 13       		.uleb128 0x13
 2751 0144 00       		.byte	0
 2752 0145 00       		.byte	0
 2753 0146 1A       		.uleb128 0x1a
 2754 0147 898201   		.uleb128 0x4109
 2755 014a 01       		.byte	0x1
 2756 014b 11       		.uleb128 0x11
 2757 014c 01       		.uleb128 0x1
 2758 014d 31       		.uleb128 0x31
 2759 014e 13       		.uleb128 0x13
 2760 014f 00       		.byte	0
 2761 0150 00       		.byte	0
 2762 0151 1B       		.uleb128 0x1b
 2763 0152 8A8201   		.uleb128 0x410a
 2764 0155 00       		.byte	0
 2765 0156 02       		.uleb128 0x2
 2766 0157 18       		.uleb128 0x18
 2767 0158 9142     		.uleb128 0x2111
 2768 015a 18       		.uleb128 0x18
 2769 015b 00       		.byte	0
 2770 015c 00       		.byte	0
 2771 015d 1C       		.uleb128 0x1c
 2772 015e 0A       		.uleb128 0xa
 2773 015f 00       		.byte	0
 2774 0160 03       		.uleb128 0x3
 2775 0161 0E       		.uleb128 0xe
 2776 0162 3A       		.uleb128 0x3a
 2777 0163 0B       		.uleb128 0xb
 2778 0164 3B       		.uleb128 0x3b
 2779 0165 05       		.uleb128 0x5
 2780 0166 11       		.uleb128 0x11
 2781 0167 01       		.uleb128 0x1
 2782 0168 00       		.byte	0
 2783 0169 00       		.byte	0
 2784 016a 1D       		.uleb128 0x1d
 2785 016b 898201   		.uleb128 0x4109
 2786 016e 01       		.byte	0x1
 2787 016f 11       		.uleb128 0x11
 2788 0170 01       		.uleb128 0x1
 2789 0171 31       		.uleb128 0x31
 2790 0172 13       		.uleb128 0x13
 2791 0173 01       		.uleb128 0x1
 2792 0174 13       		.uleb128 0x13
 2793 0175 00       		.byte	0
ARM GAS  /tmp/cczPv8m9.s 			page 50


 2794 0176 00       		.byte	0
 2795 0177 1E       		.uleb128 0x1e
 2796 0178 34       		.uleb128 0x34
 2797 0179 00       		.byte	0
 2798 017a 03       		.uleb128 0x3
 2799 017b 0E       		.uleb128 0xe
 2800 017c 3A       		.uleb128 0x3a
 2801 017d 0B       		.uleb128 0xb
 2802 017e 3B       		.uleb128 0x3b
 2803 017f 05       		.uleb128 0x5
 2804 0180 49       		.uleb128 0x49
 2805 0181 13       		.uleb128 0x13
 2806 0182 02       		.uleb128 0x2
 2807 0183 17       		.uleb128 0x17
 2808 0184 00       		.byte	0
 2809 0185 00       		.byte	0
 2810 0186 1F       		.uleb128 0x1f
 2811 0187 2E       		.uleb128 0x2e
 2812 0188 01       		.byte	0x1
 2813 0189 3F       		.uleb128 0x3f
 2814 018a 19       		.uleb128 0x19
 2815 018b 03       		.uleb128 0x3
 2816 018c 0E       		.uleb128 0xe
 2817 018d 3A       		.uleb128 0x3a
 2818 018e 0B       		.uleb128 0xb
 2819 018f 3B       		.uleb128 0x3b
 2820 0190 0B       		.uleb128 0xb
 2821 0191 27       		.uleb128 0x27
 2822 0192 19       		.uleb128 0x19
 2823 0193 49       		.uleb128 0x49
 2824 0194 13       		.uleb128 0x13
 2825 0195 11       		.uleb128 0x11
 2826 0196 01       		.uleb128 0x1
 2827 0197 12       		.uleb128 0x12
 2828 0198 06       		.uleb128 0x6
 2829 0199 40       		.uleb128 0x40
 2830 019a 18       		.uleb128 0x18
 2831 019b 9742     		.uleb128 0x2117
 2832 019d 19       		.uleb128 0x19
 2833 019e 01       		.uleb128 0x1
 2834 019f 13       		.uleb128 0x13
 2835 01a0 00       		.byte	0
 2836 01a1 00       		.byte	0
 2837 01a2 20       		.uleb128 0x20
 2838 01a3 05       		.uleb128 0x5
 2839 01a4 00       		.byte	0
 2840 01a5 03       		.uleb128 0x3
 2841 01a6 0E       		.uleb128 0xe
 2842 01a7 3A       		.uleb128 0x3a
 2843 01a8 0B       		.uleb128 0xb
 2844 01a9 3B       		.uleb128 0x3b
 2845 01aa 0B       		.uleb128 0xb
 2846 01ab 49       		.uleb128 0x49
 2847 01ac 13       		.uleb128 0x13
 2848 01ad 02       		.uleb128 0x2
 2849 01ae 17       		.uleb128 0x17
 2850 01af 00       		.byte	0
ARM GAS  /tmp/cczPv8m9.s 			page 51


 2851 01b0 00       		.byte	0
 2852 01b1 21       		.uleb128 0x21
 2853 01b2 34       		.uleb128 0x34
 2854 01b3 00       		.byte	0
 2855 01b4 03       		.uleb128 0x3
 2856 01b5 08       		.uleb128 0x8
 2857 01b6 3A       		.uleb128 0x3a
 2858 01b7 0B       		.uleb128 0xb
 2859 01b8 3B       		.uleb128 0x3b
 2860 01b9 0B       		.uleb128 0xb
 2861 01ba 49       		.uleb128 0x49
 2862 01bb 13       		.uleb128 0x13
 2863 01bc 02       		.uleb128 0x2
 2864 01bd 17       		.uleb128 0x17
 2865 01be 00       		.byte	0
 2866 01bf 00       		.byte	0
 2867 01c0 22       		.uleb128 0x22
 2868 01c1 34       		.uleb128 0x34
 2869 01c2 00       		.byte	0
 2870 01c3 03       		.uleb128 0x3
 2871 01c4 0E       		.uleb128 0xe
 2872 01c5 3A       		.uleb128 0x3a
 2873 01c6 0B       		.uleb128 0xb
 2874 01c7 3B       		.uleb128 0x3b
 2875 01c8 0B       		.uleb128 0xb
 2876 01c9 49       		.uleb128 0x49
 2877 01ca 13       		.uleb128 0x13
 2878 01cb 1C       		.uleb128 0x1c
 2879 01cc 0B       		.uleb128 0xb
 2880 01cd 00       		.byte	0
 2881 01ce 00       		.byte	0
 2882 01cf 23       		.uleb128 0x23
 2883 01d0 0A       		.uleb128 0xa
 2884 01d1 00       		.byte	0
 2885 01d2 03       		.uleb128 0x3
 2886 01d3 0E       		.uleb128 0xe
 2887 01d4 3A       		.uleb128 0x3a
 2888 01d5 0B       		.uleb128 0xb
 2889 01d6 3B       		.uleb128 0x3b
 2890 01d7 0B       		.uleb128 0xb
 2891 01d8 11       		.uleb128 0x11
 2892 01d9 01       		.uleb128 0x1
 2893 01da 00       		.byte	0
 2894 01db 00       		.byte	0
 2895 01dc 24       		.uleb128 0x24
 2896 01dd 34       		.uleb128 0x34
 2897 01de 00       		.byte	0
 2898 01df 03       		.uleb128 0x3
 2899 01e0 0E       		.uleb128 0xe
 2900 01e1 3A       		.uleb128 0x3a
 2901 01e2 0B       		.uleb128 0xb
 2902 01e3 3B       		.uleb128 0x3b
 2903 01e4 0B       		.uleb128 0xb
 2904 01e5 49       		.uleb128 0x49
 2905 01e6 13       		.uleb128 0x13
 2906 01e7 02       		.uleb128 0x2
 2907 01e8 17       		.uleb128 0x17
ARM GAS  /tmp/cczPv8m9.s 			page 52


 2908 01e9 00       		.byte	0
 2909 01ea 00       		.byte	0
 2910 01eb 25       		.uleb128 0x25
 2911 01ec 2E       		.uleb128 0x2e
 2912 01ed 00       		.byte	0
 2913 01ee 3F       		.uleb128 0x3f
 2914 01ef 19       		.uleb128 0x19
 2915 01f0 3C       		.uleb128 0x3c
 2916 01f1 19       		.uleb128 0x19
 2917 01f2 6E       		.uleb128 0x6e
 2918 01f3 0E       		.uleb128 0xe
 2919 01f4 03       		.uleb128 0x3
 2920 01f5 0E       		.uleb128 0xe
 2921 01f6 3A       		.uleb128 0x3a
 2922 01f7 0B       		.uleb128 0xb
 2923 01f8 3B       		.uleb128 0x3b
 2924 01f9 0B       		.uleb128 0xb
 2925 01fa 00       		.byte	0
 2926 01fb 00       		.byte	0
 2927 01fc 26       		.uleb128 0x26
 2928 01fd 2E       		.uleb128 0x2e
 2929 01fe 00       		.byte	0
 2930 01ff 3F       		.uleb128 0x3f
 2931 0200 19       		.uleb128 0x19
 2932 0201 3C       		.uleb128 0x3c
 2933 0202 19       		.uleb128 0x19
 2934 0203 6E       		.uleb128 0x6e
 2935 0204 0E       		.uleb128 0xe
 2936 0205 03       		.uleb128 0x3
 2937 0206 0E       		.uleb128 0xe
 2938 0207 3A       		.uleb128 0x3a
 2939 0208 0B       		.uleb128 0xb
 2940 0209 3B       		.uleb128 0x3b
 2941 020a 05       		.uleb128 0x5
 2942 020b 00       		.byte	0
 2943 020c 00       		.byte	0
 2944 020d 00       		.byte	0
 2945              		.section	.debug_loc,"",%progbits
 2946              	.Ldebug_loc0:
 2947              	.LLST36:
 2948 0000 00000000 		.4byte	.LVL103
 2949 0004 19000000 		.4byte	.LVL105-1
 2950 0008 0100     		.2byte	0x1
 2951 000a 50       		.byte	0x50
 2952 000b 19000000 		.4byte	.LVL105-1
 2953 000f 1E000000 		.4byte	.LFE7
 2954 0013 0400     		.2byte	0x4
 2955 0015 F3       		.byte	0xf3
 2956 0016 01       		.uleb128 0x1
 2957 0017 50       		.byte	0x50
 2958 0018 9F       		.byte	0x9f
 2959 0019 00000000 		.4byte	0
 2960 001d 00000000 		.4byte	0
 2961              	.LLST37:
 2962 0021 00000000 		.4byte	.LVL103
 2963 0025 19000000 		.4byte	.LVL105-1
 2964 0029 0100     		.2byte	0x1
ARM GAS  /tmp/cczPv8m9.s 			page 53


 2965 002b 51       		.byte	0x51
 2966 002c 19000000 		.4byte	.LVL105-1
 2967 0030 1E000000 		.4byte	.LFE7
 2968 0034 0400     		.2byte	0x4
 2969 0036 F3       		.byte	0xf3
 2970 0037 01       		.uleb128 0x1
 2971 0038 51       		.byte	0x51
 2972 0039 9F       		.byte	0x9f
 2973 003a 00000000 		.4byte	0
 2974 003e 00000000 		.4byte	0
 2975              	.LLST38:
 2976 0042 00000000 		.4byte	.LVL103
 2977 0046 19000000 		.4byte	.LVL105-1
 2978 004a 0100     		.2byte	0x1
 2979 004c 52       		.byte	0x52
 2980 004d 19000000 		.4byte	.LVL105-1
 2981 0051 1E000000 		.4byte	.LFE7
 2982 0055 0400     		.2byte	0x4
 2983 0057 76       		.byte	0x76
 2984 0058 B97F     		.sleb128 -71
 2985 005a 9F       		.byte	0x9f
 2986 005b 00000000 		.4byte	0
 2987 005f 00000000 		.4byte	0
 2988              	.LLST39:
 2989 0063 00000000 		.4byte	.LVL103
 2990 0067 19000000 		.4byte	.LVL105-1
 2991 006b 0100     		.2byte	0x1
 2992 006d 53       		.byte	0x53
 2993 006e 19000000 		.4byte	.LVL105-1
 2994 0072 1E000000 		.4byte	.LFE7
 2995 0076 0400     		.2byte	0x4
 2996 0078 F3       		.byte	0xf3
 2997 0079 01       		.uleb128 0x1
 2998 007a 53       		.byte	0x53
 2999 007b 9F       		.byte	0x9f
 3000 007c 00000000 		.4byte	0
 3001 0080 00000000 		.4byte	0
 3002              	.LLST40:
 3003 0084 00000000 		.4byte	.LVL103
 3004 0088 1A000000 		.4byte	.LVL105
 3005 008c 0200     		.2byte	0x2
 3006 008e 30       		.byte	0x30
 3007 008f 9F       		.byte	0x9f
 3008 0090 1A000000 		.4byte	.LVL105
 3009 0094 1E000000 		.4byte	.LFE7
 3010 0098 0100     		.2byte	0x1
 3011 009a 50       		.byte	0x50
 3012 009b 00000000 		.4byte	0
 3013 009f 00000000 		.4byte	0
 3014              	.LLST41:
 3015 00a3 00000000 		.4byte	.LVL103
 3016 00a7 0C000000 		.4byte	.LVL104
 3017 00ab 0200     		.2byte	0x2
 3018 00ad 30       		.byte	0x30
 3019 00ae 9F       		.byte	0x9f
 3020 00af 00000000 		.4byte	0
 3021 00b3 00000000 		.4byte	0
ARM GAS  /tmp/cczPv8m9.s 			page 54


 3022              	.LLST29:
 3023 00b7 00000000 		.4byte	.LVL78
 3024 00bb 17000000 		.4byte	.LVL80-1
 3025 00bf 0100     		.2byte	0x1
 3026 00c1 50       		.byte	0x50
 3027 00c2 17000000 		.4byte	.LVL80-1
 3028 00c6 A6000000 		.4byte	.LVL95
 3029 00ca 0100     		.2byte	0x1
 3030 00cc 59       		.byte	0x59
 3031 00cd A6000000 		.4byte	.LVL95
 3032 00d1 AD000000 		.4byte	.LVL96-1
 3033 00d5 0100     		.2byte	0x1
 3034 00d7 50       		.byte	0x50
 3035 00d8 AD000000 		.4byte	.LVL96-1
 3036 00dc DE000000 		.4byte	.LFE6
 3037 00e0 0100     		.2byte	0x1
 3038 00e2 59       		.byte	0x59
 3039 00e3 00000000 		.4byte	0
 3040 00e7 00000000 		.4byte	0
 3041              	.LLST30:
 3042 00eb 00000000 		.4byte	.LVL78
 3043 00ef 17000000 		.4byte	.LVL80-1
 3044 00f3 0100     		.2byte	0x1
 3045 00f5 51       		.byte	0x51
 3046 00f6 17000000 		.4byte	.LVL80-1
 3047 00fa DE000000 		.4byte	.LFE6
 3048 00fe 0400     		.2byte	0x4
 3049 0100 F3       		.byte	0xf3
 3050 0101 01       		.uleb128 0x1
 3051 0102 51       		.byte	0x51
 3052 0103 9F       		.byte	0x9f
 3053 0104 00000000 		.4byte	0
 3054 0108 00000000 		.4byte	0
 3055              	.LLST31:
 3056 010c 00000000 		.4byte	.LVL78
 3057 0110 17000000 		.4byte	.LVL80-1
 3058 0114 0100     		.2byte	0x1
 3059 0116 52       		.byte	0x52
 3060 0117 17000000 		.4byte	.LVL80-1
 3061 011b DE000000 		.4byte	.LFE6
 3062 011f 0100     		.2byte	0x1
 3063 0121 58       		.byte	0x58
 3064 0122 00000000 		.4byte	0
 3065 0126 00000000 		.4byte	0
 3066              	.LLST32:
 3067 012a 00000000 		.4byte	.LVL78
 3068 012e 17000000 		.4byte	.LVL80-1
 3069 0132 0100     		.2byte	0x1
 3070 0134 53       		.byte	0x53
 3071 0135 17000000 		.4byte	.LVL80-1
 3072 0139 DE000000 		.4byte	.LFE6
 3073 013d 0100     		.2byte	0x1
 3074 013f 56       		.byte	0x56
 3075 0140 00000000 		.4byte	0
 3076 0144 00000000 		.4byte	0
 3077              	.LLST33:
 3078 0148 00000000 		.4byte	.LVL78
ARM GAS  /tmp/cczPv8m9.s 			page 55


 3079 014c 0C000000 		.4byte	.LVL79
 3080 0150 0200     		.2byte	0x2
 3081 0152 91       		.byte	0x91
 3082 0153 00       		.sleb128 0
 3083 0154 0C000000 		.4byte	.LVL79
 3084 0158 18000000 		.4byte	.LVL80
 3085 015c 0100     		.2byte	0x1
 3086 015e 54       		.byte	0x54
 3087 015f 18000000 		.4byte	.LVL80
 3088 0163 1C000000 		.4byte	.LVL81
 3089 0167 0100     		.2byte	0x1
 3090 0169 50       		.byte	0x50
 3091 016a 24000000 		.4byte	.LVL82
 3092 016e 26000000 		.4byte	.LVL83
 3093 0172 0100     		.2byte	0x1
 3094 0174 50       		.byte	0x50
 3095 0175 26000000 		.4byte	.LVL83
 3096 0179 36000000 		.4byte	.LVL84
 3097 017d 0100     		.2byte	0x1
 3098 017f 54       		.byte	0x54
 3099 0180 36000000 		.4byte	.LVL84
 3100 0184 3C000000 		.4byte	.LVL85
 3101 0188 0100     		.2byte	0x1
 3102 018a 50       		.byte	0x50
 3103 018b 3C000000 		.4byte	.LVL85
 3104 018f 4C000000 		.4byte	.LVL86
 3105 0193 0100     		.2byte	0x1
 3106 0195 54       		.byte	0x54
 3107 0196 4C000000 		.4byte	.LVL86
 3108 019a 52000000 		.4byte	.LVL87
 3109 019e 0100     		.2byte	0x1
 3110 01a0 50       		.byte	0x50
 3111 01a1 52000000 		.4byte	.LVL87
 3112 01a5 62000000 		.4byte	.LVL88
 3113 01a9 0100     		.2byte	0x1
 3114 01ab 54       		.byte	0x54
 3115 01ac 62000000 		.4byte	.LVL88
 3116 01b0 78000000 		.4byte	.LVL89
 3117 01b4 0100     		.2byte	0x1
 3118 01b6 50       		.byte	0x50
 3119 01b7 78000000 		.4byte	.LVL89
 3120 01bb 88000000 		.4byte	.LVL90
 3121 01bf 0100     		.2byte	0x1
 3122 01c1 54       		.byte	0x54
 3123 01c2 88000000 		.4byte	.LVL90
 3124 01c6 8E000000 		.4byte	.LVL91
 3125 01ca 0300     		.2byte	0x3
 3126 01cc 74       		.byte	0x74
 3127 01cd 78       		.sleb128 -8
 3128 01ce 9F       		.byte	0x9f
 3129 01cf 8E000000 		.4byte	.LVL91
 3130 01d3 A2000000 		.4byte	.LVL94
 3131 01d7 0100     		.2byte	0x1
 3132 01d9 54       		.byte	0x54
 3133 01da A2000000 		.4byte	.LVL94
 3134 01de AD000000 		.4byte	.LVL96-1
 3135 01e2 0100     		.2byte	0x1
ARM GAS  /tmp/cczPv8m9.s 			page 56


 3136 01e4 51       		.byte	0x51
 3137 01e5 AD000000 		.4byte	.LVL96-1
 3138 01e9 B4000000 		.4byte	.LVL97
 3139 01ed 0300     		.2byte	0x3
 3140 01ef 74       		.byte	0x74
 3141 01f0 78       		.sleb128 -8
 3142 01f1 9F       		.byte	0x9f
 3143 01f2 B4000000 		.4byte	.LVL97
 3144 01f6 C2000000 		.4byte	.LVL98
 3145 01fa 0100     		.2byte	0x1
 3146 01fc 50       		.byte	0x50
 3147 01fd C2000000 		.4byte	.LVL98
 3148 0201 CA000000 		.4byte	.LVL100
 3149 0205 0100     		.2byte	0x1
 3150 0207 54       		.byte	0x54
 3151 0208 D6000000 		.4byte	.LVL101
 3152 020c DE000000 		.4byte	.LFE6
 3153 0210 0100     		.2byte	0x1
 3154 0212 54       		.byte	0x54
 3155 0213 00000000 		.4byte	0
 3156 0217 00000000 		.4byte	0
 3157              	.LLST34:
 3158 021b 00000000 		.4byte	.LVL78
 3159 021f 1C000000 		.4byte	.LVL81
 3160 0223 0200     		.2byte	0x2
 3161 0225 30       		.byte	0x30
 3162 0226 9F       		.byte	0x9f
 3163 0227 24000000 		.4byte	.LVL82
 3164 022b 78000000 		.4byte	.LVL89
 3165 022f 0200     		.2byte	0x2
 3166 0231 30       		.byte	0x30
 3167 0232 9F       		.byte	0x9f
 3168 0233 88000000 		.4byte	.LVL90
 3169 0237 8E000000 		.4byte	.LVL91
 3170 023b 0100     		.2byte	0x1
 3171 023d 50       		.byte	0x50
 3172 023e AE000000 		.4byte	.LVL96
 3173 0242 B4000000 		.4byte	.LVL97
 3174 0246 0100     		.2byte	0x1
 3175 0248 50       		.byte	0x50
 3176 0249 B4000000 		.4byte	.LVL97
 3177 024d C6000000 		.4byte	.LVL99
 3178 0251 0200     		.2byte	0x2
 3179 0253 30       		.byte	0x30
 3180 0254 9F       		.byte	0x9f
 3181 0255 C6000000 		.4byte	.LVL99
 3182 0259 DE000000 		.4byte	.LFE6
 3183 025d 0100     		.2byte	0x1
 3184 025f 50       		.byte	0x50
 3185 0260 00000000 		.4byte	0
 3186 0264 00000000 		.4byte	0
 3187              	.LLST35:
 3188 0268 00000000 		.4byte	.LVL78
 3189 026c 1C000000 		.4byte	.LVL81
 3190 0270 0200     		.2byte	0x2
 3191 0272 30       		.byte	0x30
 3192 0273 9F       		.byte	0x9f
ARM GAS  /tmp/cczPv8m9.s 			page 57


 3193 0274 24000000 		.4byte	.LVL82
 3194 0278 88000000 		.4byte	.LVL90
 3195 027c 0200     		.2byte	0x2
 3196 027e 30       		.byte	0x30
 3197 027f 9F       		.byte	0x9f
 3198 0280 88000000 		.4byte	.LVL90
 3199 0284 8E000000 		.4byte	.LVL91
 3200 0288 0300     		.2byte	0x3
 3201 028a 75       		.byte	0x75
 3202 028b 7F       		.sleb128 -1
 3203 028c 9F       		.byte	0x9f
 3204 028d 8E000000 		.4byte	.LVL91
 3205 0291 A0000000 		.4byte	.LVL93
 3206 0295 0100     		.2byte	0x1
 3207 0297 55       		.byte	0x55
 3208 0298 A0000000 		.4byte	.LVL93
 3209 029c B4000000 		.4byte	.LVL97
 3210 02a0 0300     		.2byte	0x3
 3211 02a2 75       		.byte	0x75
 3212 02a3 7F       		.sleb128 -1
 3213 02a4 9F       		.byte	0x9f
 3214 02a5 B4000000 		.4byte	.LVL97
 3215 02a9 CA000000 		.4byte	.LVL100
 3216 02ad 0200     		.2byte	0x2
 3217 02af 30       		.byte	0x30
 3218 02b0 9F       		.byte	0x9f
 3219 02b1 D6000000 		.4byte	.LVL101
 3220 02b5 DE000000 		.4byte	.LFE6
 3221 02b9 0200     		.2byte	0x2
 3222 02bb 30       		.byte	0x30
 3223 02bc 9F       		.byte	0x9f
 3224 02bd 00000000 		.4byte	0
 3225 02c1 00000000 		.4byte	0
 3226              	.LLST26:
 3227 02c5 00000000 		.4byte	.LVL74
 3228 02c9 09000000 		.4byte	.LVL75-1
 3229 02cd 0100     		.2byte	0x1
 3230 02cf 50       		.byte	0x50
 3231 02d0 09000000 		.4byte	.LVL75-1
 3232 02d4 10000000 		.4byte	.LFE5
 3233 02d8 0400     		.2byte	0x4
 3234 02da F3       		.byte	0xf3
 3235 02db 01       		.uleb128 0x1
 3236 02dc 50       		.byte	0x50
 3237 02dd 9F       		.byte	0x9f
 3238 02de 00000000 		.4byte	0
 3239 02e2 00000000 		.4byte	0
 3240              	.LLST27:
 3241 02e6 00000000 		.4byte	.LVL74
 3242 02ea 09000000 		.4byte	.LVL75-1
 3243 02ee 0100     		.2byte	0x1
 3244 02f0 51       		.byte	0x51
 3245 02f1 09000000 		.4byte	.LVL75-1
 3246 02f5 10000000 		.4byte	.LFE5
 3247 02f9 0400     		.2byte	0x4
 3248 02fb F3       		.byte	0xf3
 3249 02fc 01       		.uleb128 0x1
ARM GAS  /tmp/cczPv8m9.s 			page 58


 3250 02fd 51       		.byte	0x51
 3251 02fe 9F       		.byte	0x9f
 3252 02ff 00000000 		.4byte	0
 3253 0303 00000000 		.4byte	0
 3254              	.LLST28:
 3255 0307 00000000 		.4byte	.LVL74
 3256 030b 0A000000 		.4byte	.LVL75
 3257 030f 0200     		.2byte	0x2
 3258 0311 30       		.byte	0x30
 3259 0312 9F       		.byte	0x9f
 3260 0313 0A000000 		.4byte	.LVL75
 3261 0317 0C000000 		.4byte	.LVL76
 3262 031b 0100     		.2byte	0x1
 3263 031d 50       		.byte	0x50
 3264 031e 0C000000 		.4byte	.LVL76
 3265 0322 0E000000 		.4byte	.LVL77
 3266 0326 0300     		.2byte	0x3
 3267 0328 70       		.byte	0x70
 3268 0329 79       		.sleb128 -7
 3269 032a 9F       		.byte	0x9f
 3270 032b 00000000 		.4byte	0
 3271 032f 00000000 		.4byte	0
 3272              	.LLST21:
 3273 0333 00000000 		.4byte	.LVL53
 3274 0337 0F000000 		.4byte	.LVL56-1
 3275 033b 0100     		.2byte	0x1
 3276 033d 50       		.byte	0x50
 3277 033e 0F000000 		.4byte	.LVL56-1
 3278 0342 78000000 		.4byte	.LFE4
 3279 0346 0100     		.2byte	0x1
 3280 0348 56       		.byte	0x56
 3281 0349 00000000 		.4byte	0
 3282 034d 00000000 		.4byte	0
 3283              	.LLST22:
 3284 0351 00000000 		.4byte	.LVL53
 3285 0355 0F000000 		.4byte	.LVL56-1
 3286 0359 0100     		.2byte	0x1
 3287 035b 51       		.byte	0x51
 3288 035c 0F000000 		.4byte	.LVL56-1
 3289 0360 78000000 		.4byte	.LFE4
 3290 0364 0100     		.2byte	0x1
 3291 0366 57       		.byte	0x57
 3292 0367 00000000 		.4byte	0
 3293 036b 00000000 		.4byte	0
 3294              	.LLST23:
 3295 036f 00000000 		.4byte	.LVL53
 3296 0373 00000000 		.4byte	.LVL53
 3297 0377 0100     		.2byte	0x1
 3298 0379 52       		.byte	0x52
 3299 037a 00000000 		.4byte	.LVL53
 3300 037e 04000000 		.4byte	.LVL54
 3301 0382 0300     		.2byte	0x3
 3302 0384 72       		.byte	0x72
 3303 0385 05       		.sleb128 5
 3304 0386 9F       		.byte	0x9f
 3305 0387 04000000 		.4byte	.LVL54
 3306 038b 0F000000 		.4byte	.LVL56-1
ARM GAS  /tmp/cczPv8m9.s 			page 59


 3307 038f 0100     		.2byte	0x1
 3308 0391 52       		.byte	0x52
 3309 0392 0F000000 		.4byte	.LVL56-1
 3310 0396 10000000 		.4byte	.LVL56
 3311 039a 0600     		.2byte	0x6
 3312 039c F3       		.byte	0xf3
 3313 039d 01       		.uleb128 0x1
 3314 039e 52       		.byte	0x52
 3315 039f 23       		.byte	0x23
 3316 03a0 05       		.uleb128 0x5
 3317 03a1 9F       		.byte	0x9f
 3318 03a2 10000000 		.4byte	.LVL56
 3319 03a6 14000000 		.4byte	.LVL57
 3320 03aa 0300     		.2byte	0x3
 3321 03ac 70       		.byte	0x70
 3322 03ad 05       		.sleb128 5
 3323 03ae 9F       		.byte	0x9f
 3324 03af 14000000 		.4byte	.LVL57
 3325 03b3 1D000000 		.4byte	.LVL58-1
 3326 03b7 0100     		.2byte	0x1
 3327 03b9 52       		.byte	0x52
 3328 03ba 1E000000 		.4byte	.LVL58
 3329 03be 22000000 		.4byte	.LVL59
 3330 03c2 0300     		.2byte	0x3
 3331 03c4 70       		.byte	0x70
 3332 03c5 06       		.sleb128 6
 3333 03c6 9F       		.byte	0x9f
 3334 03c7 22000000 		.4byte	.LVL59
 3335 03cb 2B000000 		.4byte	.LVL60-1
 3336 03cf 0100     		.2byte	0x1
 3337 03d1 52       		.byte	0x52
 3338 03d2 2C000000 		.4byte	.LVL60
 3339 03d6 30000000 		.4byte	.LVL61
 3340 03da 0300     		.2byte	0x3
 3341 03dc 70       		.byte	0x70
 3342 03dd 06       		.sleb128 6
 3343 03de 9F       		.byte	0x9f
 3344 03df 30000000 		.4byte	.LVL61
 3345 03e3 39000000 		.4byte	.LVL62-1
 3346 03e7 0100     		.2byte	0x1
 3347 03e9 52       		.byte	0x52
 3348 03ea 3C000000 		.4byte	.LVL63
 3349 03ee 3E000000 		.4byte	.LVL64
 3350 03f2 0100     		.2byte	0x1
 3351 03f4 50       		.byte	0x50
 3352 03f5 3E000000 		.4byte	.LVL64
 3353 03f9 66000000 		.4byte	.LVL70
 3354 03fd 0100     		.2byte	0x1
 3355 03ff 55       		.byte	0x55
 3356 0400 66000000 		.4byte	.LVL70
 3357 0404 70000000 		.4byte	.LVL71
 3358 0408 0100     		.2byte	0x1
 3359 040a 50       		.byte	0x50
 3360 040b 70000000 		.4byte	.LVL71
 3361 040f 78000000 		.4byte	.LFE4
 3362 0413 0100     		.2byte	0x1
 3363 0415 55       		.byte	0x55
ARM GAS  /tmp/cczPv8m9.s 			page 60


 3364 0416 00000000 		.4byte	0
 3365 041a 00000000 		.4byte	0
 3366              	.LLST24:
 3367 041e 00000000 		.4byte	.LVL53
 3368 0422 08000000 		.4byte	.LVL55
 3369 0426 0100     		.2byte	0x1
 3370 0428 53       		.byte	0x53
 3371 0429 08000000 		.4byte	.LVL55
 3372 042d 78000000 		.4byte	.LFE4
 3373 0431 0400     		.2byte	0x4
 3374 0433 F3       		.byte	0xf3
 3375 0434 01       		.uleb128 0x1
 3376 0435 53       		.byte	0x53
 3377 0436 9F       		.byte	0x9f
 3378 0437 00000000 		.4byte	0
 3379 043b 00000000 		.4byte	0
 3380              	.LLST25:
 3381 043f 00000000 		.4byte	.LVL53
 3382 0443 46000000 		.4byte	.LVL65
 3383 0447 0200     		.2byte	0x2
 3384 0449 30       		.byte	0x30
 3385 044a 9F       		.byte	0x9f
 3386 044b 46000000 		.4byte	.LVL65
 3387 044f 5A000000 		.4byte	.LVL67
 3388 0453 0100     		.2byte	0x1
 3389 0455 54       		.byte	0x54
 3390 0456 5A000000 		.4byte	.LVL67
 3391 045a 60000000 		.4byte	.LVL68
 3392 045e 0300     		.2byte	0x3
 3393 0460 74       		.byte	0x74
 3394 0461 7F       		.sleb128 -1
 3395 0462 9F       		.byte	0x9f
 3396 0463 60000000 		.4byte	.LVL68
 3397 0467 62000000 		.4byte	.LVL69
 3398 046b 0100     		.2byte	0x1
 3399 046d 54       		.byte	0x54
 3400 046e 66000000 		.4byte	.LVL70
 3401 0472 78000000 		.4byte	.LFE4
 3402 0476 0200     		.2byte	0x2
 3403 0478 30       		.byte	0x30
 3404 0479 9F       		.byte	0x9f
 3405 047a 00000000 		.4byte	0
 3406 047e 00000000 		.4byte	0
 3407              	.LLST15:
 3408 0482 00000000 		.4byte	.LVL50
 3409 0486 19000000 		.4byte	.LVL52-1
 3410 048a 0100     		.2byte	0x1
 3411 048c 50       		.byte	0x50
 3412 048d 19000000 		.4byte	.LVL52-1
 3413 0491 1E000000 		.4byte	.LFE3
 3414 0495 0400     		.2byte	0x4
 3415 0497 F3       		.byte	0xf3
 3416 0498 01       		.uleb128 0x1
 3417 0499 50       		.byte	0x50
 3418 049a 9F       		.byte	0x9f
 3419 049b 00000000 		.4byte	0
 3420 049f 00000000 		.4byte	0
ARM GAS  /tmp/cczPv8m9.s 			page 61


 3421              	.LLST16:
 3422 04a3 00000000 		.4byte	.LVL50
 3423 04a7 19000000 		.4byte	.LVL52-1
 3424 04ab 0100     		.2byte	0x1
 3425 04ad 51       		.byte	0x51
 3426 04ae 19000000 		.4byte	.LVL52-1
 3427 04b2 1E000000 		.4byte	.LFE3
 3428 04b6 0400     		.2byte	0x4
 3429 04b8 F3       		.byte	0xf3
 3430 04b9 01       		.uleb128 0x1
 3431 04ba 51       		.byte	0x51
 3432 04bb 9F       		.byte	0x9f
 3433 04bc 00000000 		.4byte	0
 3434 04c0 00000000 		.4byte	0
 3435              	.LLST17:
 3436 04c4 00000000 		.4byte	.LVL50
 3437 04c8 19000000 		.4byte	.LVL52-1
 3438 04cc 0100     		.2byte	0x1
 3439 04ce 52       		.byte	0x52
 3440 04cf 19000000 		.4byte	.LVL52-1
 3441 04d3 1E000000 		.4byte	.LFE3
 3442 04d7 0300     		.2byte	0x3
 3443 04d9 76       		.byte	0x76
 3444 04da 61       		.sleb128 -31
 3445 04db 9F       		.byte	0x9f
 3446 04dc 00000000 		.4byte	0
 3447 04e0 00000000 		.4byte	0
 3448              	.LLST18:
 3449 04e4 00000000 		.4byte	.LVL50
 3450 04e8 19000000 		.4byte	.LVL52-1
 3451 04ec 0100     		.2byte	0x1
 3452 04ee 53       		.byte	0x53
 3453 04ef 19000000 		.4byte	.LVL52-1
 3454 04f3 1E000000 		.4byte	.LFE3
 3455 04f7 0400     		.2byte	0x4
 3456 04f9 F3       		.byte	0xf3
 3457 04fa 01       		.uleb128 0x1
 3458 04fb 53       		.byte	0x53
 3459 04fc 9F       		.byte	0x9f
 3460 04fd 00000000 		.4byte	0
 3461 0501 00000000 		.4byte	0
 3462              	.LLST19:
 3463 0505 00000000 		.4byte	.LVL50
 3464 0509 1A000000 		.4byte	.LVL52
 3465 050d 0200     		.2byte	0x2
 3466 050f 30       		.byte	0x30
 3467 0510 9F       		.byte	0x9f
 3468 0511 1A000000 		.4byte	.LVL52
 3469 0515 1E000000 		.4byte	.LFE3
 3470 0519 0100     		.2byte	0x1
 3471 051b 50       		.byte	0x50
 3472 051c 00000000 		.4byte	0
 3473 0520 00000000 		.4byte	0
 3474              	.LLST20:
 3475 0524 00000000 		.4byte	.LVL50
 3476 0528 0C000000 		.4byte	.LVL51
 3477 052c 0200     		.2byte	0x2
ARM GAS  /tmp/cczPv8m9.s 			page 62


 3478 052e 30       		.byte	0x30
 3479 052f 9F       		.byte	0x9f
 3480 0530 00000000 		.4byte	0
 3481 0534 00000000 		.4byte	0
 3482              	.LLST8:
 3483 0538 00000000 		.4byte	.LVL23
 3484 053c 19000000 		.4byte	.LVL27-1
 3485 0540 0100     		.2byte	0x1
 3486 0542 50       		.byte	0x50
 3487 0543 19000000 		.4byte	.LVL27-1
 3488 0547 86000000 		.4byte	.LVL43
 3489 054b 0100     		.2byte	0x1
 3490 054d 59       		.byte	0x59
 3491 054e 86000000 		.4byte	.LVL43
 3492 0552 8D000000 		.4byte	.LVL44-1
 3493 0556 0100     		.2byte	0x1
 3494 0558 50       		.byte	0x50
 3495 0559 8D000000 		.4byte	.LVL44-1
 3496 055d B2000000 		.4byte	.LFE2
 3497 0561 0100     		.2byte	0x1
 3498 0563 59       		.byte	0x59
 3499 0564 00000000 		.4byte	0
 3500 0568 00000000 		.4byte	0
 3501              	.LLST9:
 3502 056c 00000000 		.4byte	.LVL23
 3503 0570 10000000 		.4byte	.LVL24
 3504 0574 0100     		.2byte	0x1
 3505 0576 51       		.byte	0x51
 3506 0577 10000000 		.4byte	.LVL24
 3507 057b B2000000 		.4byte	.LFE2
 3508 057f 0400     		.2byte	0x4
 3509 0581 F3       		.byte	0xf3
 3510 0582 01       		.uleb128 0x1
 3511 0583 51       		.byte	0x51
 3512 0584 9F       		.byte	0x9f
 3513 0585 00000000 		.4byte	0
 3514 0589 00000000 		.4byte	0
 3515              	.LLST10:
 3516 058d 00000000 		.4byte	.LVL23
 3517 0591 14000000 		.4byte	.LVL26
 3518 0595 0100     		.2byte	0x1
 3519 0597 52       		.byte	0x52
 3520 0598 14000000 		.4byte	.LVL26
 3521 059c B2000000 		.4byte	.LFE2
 3522 05a0 0100     		.2byte	0x1
 3523 05a2 56       		.byte	0x56
 3524 05a3 00000000 		.4byte	0
 3525 05a7 00000000 		.4byte	0
 3526              	.LLST11:
 3527 05ab 00000000 		.4byte	.LVL23
 3528 05af 12000000 		.4byte	.LVL25
 3529 05b3 0100     		.2byte	0x1
 3530 05b5 53       		.byte	0x53
 3531 05b6 12000000 		.4byte	.LVL25
 3532 05ba B2000000 		.4byte	.LFE2
 3533 05be 0100     		.2byte	0x1
 3534 05c0 55       		.byte	0x55
ARM GAS  /tmp/cczPv8m9.s 			page 63


 3535 05c1 00000000 		.4byte	0
 3536 05c5 00000000 		.4byte	0
 3537              	.LLST12:
 3538 05c9 00000000 		.4byte	.LVL23
 3539 05cd 20000000 		.4byte	.LVL29
 3540 05d1 0200     		.2byte	0x2
 3541 05d3 91       		.byte	0x91
 3542 05d4 00       		.sleb128 0
 3543 05d5 30000000 		.4byte	.LVL31
 3544 05d9 34000000 		.4byte	.LVL32
 3545 05dd 0200     		.2byte	0x2
 3546 05df 91       		.byte	0x91
 3547 05e0 00       		.sleb128 0
 3548 05e1 34000000 		.4byte	.LVL32
 3549 05e5 3C000000 		.4byte	.LVL33
 3550 05e9 0100     		.2byte	0x1
 3551 05eb 53       		.byte	0x53
 3552 05ec 3C000000 		.4byte	.LVL33
 3553 05f0 43000000 		.4byte	.LVL35-1
 3554 05f4 0200     		.2byte	0x2
 3555 05f6 7D       		.byte	0x7d
 3556 05f7 00       		.sleb128 0
 3557 05f8 43000000 		.4byte	.LVL35-1
 3558 05fc 44000000 		.4byte	.LVL35
 3559 0600 0600     		.2byte	0x6
 3560 0602 91       		.byte	0x91
 3561 0603 00       		.sleb128 0
 3562 0604 06       		.byte	0x6
 3563 0605 23       		.byte	0x23
 3564 0606 0D       		.uleb128 0xd
 3565 0607 9F       		.byte	0x9f
 3566 0608 44000000 		.4byte	.LVL35
 3567 060c 58000000 		.4byte	.LVL37
 3568 0610 0100     		.2byte	0x1
 3569 0612 50       		.byte	0x50
 3570 0613 58000000 		.4byte	.LVL37
 3571 0617 68000000 		.4byte	.LVL38
 3572 061b 0100     		.2byte	0x1
 3573 061d 54       		.byte	0x54
 3574 061e 68000000 		.4byte	.LVL38
 3575 0622 6E000000 		.4byte	.LVL39
 3576 0626 0300     		.2byte	0x3
 3577 0628 74       		.byte	0x74
 3578 0629 78       		.sleb128 -8
 3579 062a 9F       		.byte	0x9f
 3580 062b 6E000000 		.4byte	.LVL39
 3581 062f 82000000 		.4byte	.LVL42
 3582 0633 0100     		.2byte	0x1
 3583 0635 54       		.byte	0x54
 3584 0636 82000000 		.4byte	.LVL42
 3585 063a 8D000000 		.4byte	.LVL44-1
 3586 063e 0100     		.2byte	0x1
 3587 0640 51       		.byte	0x51
 3588 0641 8D000000 		.4byte	.LVL44-1
 3589 0645 92000000 		.4byte	.LVL45
 3590 0649 0300     		.2byte	0x3
 3591 064b 74       		.byte	0x74
ARM GAS  /tmp/cczPv8m9.s 			page 64


 3592 064c 78       		.sleb128 -8
 3593 064d 9F       		.byte	0x9f
 3594 064e 96000000 		.4byte	.LVL46
 3595 0652 A4000000 		.4byte	.LVL47
 3596 0656 0100     		.2byte	0x1
 3597 0658 50       		.byte	0x50
 3598 0659 A4000000 		.4byte	.LVL47
 3599 065d B2000000 		.4byte	.LFE2
 3600 0661 0100     		.2byte	0x1
 3601 0663 54       		.byte	0x54
 3602 0664 00000000 		.4byte	0
 3603 0668 00000000 		.4byte	0
 3604              	.LLST13:
 3605 066c 00000000 		.4byte	.LVL23
 3606 0670 1E000000 		.4byte	.LVL28
 3607 0674 0200     		.2byte	0x2
 3608 0676 30       		.byte	0x30
 3609 0677 9F       		.byte	0x9f
 3610 0678 1E000000 		.4byte	.LVL28
 3611 067c 28000000 		.4byte	.LVL30
 3612 0680 0100     		.2byte	0x1
 3613 0682 50       		.byte	0x50
 3614 0683 30000000 		.4byte	.LVL31
 3615 0687 40000000 		.4byte	.LVL34
 3616 068b 0100     		.2byte	0x1
 3617 068d 50       		.byte	0x50
 3618 068e 40000000 		.4byte	.LVL34
 3619 0692 46000000 		.4byte	.LVL36
 3620 0696 0100     		.2byte	0x1
 3621 0698 54       		.byte	0x54
 3622 0699 68000000 		.4byte	.LVL38
 3623 069d 6E000000 		.4byte	.LVL39
 3624 06a1 0100     		.2byte	0x1
 3625 06a3 50       		.byte	0x50
 3626 06a4 8E000000 		.4byte	.LVL44
 3627 06a8 96000000 		.4byte	.LVL46
 3628 06ac 0100     		.2byte	0x1
 3629 06ae 50       		.byte	0x50
 3630 06af A8000000 		.4byte	.LVL48
 3631 06b3 B2000000 		.4byte	.LFE2
 3632 06b7 0100     		.2byte	0x1
 3633 06b9 50       		.byte	0x50
 3634 06ba 00000000 		.4byte	0
 3635 06be 00000000 		.4byte	0
 3636              	.LLST14:
 3637 06c2 00000000 		.4byte	.LVL23
 3638 06c6 20000000 		.4byte	.LVL29
 3639 06ca 0200     		.2byte	0x2
 3640 06cc 30       		.byte	0x30
 3641 06cd 9F       		.byte	0x9f
 3642 06ce 30000000 		.4byte	.LVL31
 3643 06d2 68000000 		.4byte	.LVL38
 3644 06d6 0200     		.2byte	0x2
 3645 06d8 30       		.byte	0x30
 3646 06d9 9F       		.byte	0x9f
 3647 06da 68000000 		.4byte	.LVL38
 3648 06de 6E000000 		.4byte	.LVL39
ARM GAS  /tmp/cczPv8m9.s 			page 65


 3649 06e2 0300     		.2byte	0x3
 3650 06e4 78       		.byte	0x78
 3651 06e5 7F       		.sleb128 -1
 3652 06e6 9F       		.byte	0x9f
 3653 06e7 6E000000 		.4byte	.LVL39
 3654 06eb 80000000 		.4byte	.LVL41
 3655 06ef 0100     		.2byte	0x1
 3656 06f1 58       		.byte	0x58
 3657 06f2 80000000 		.4byte	.LVL41
 3658 06f6 92000000 		.4byte	.LVL45
 3659 06fa 0300     		.2byte	0x3
 3660 06fc 78       		.byte	0x78
 3661 06fd 7F       		.sleb128 -1
 3662 06fe 9F       		.byte	0x9f
 3663 06ff 96000000 		.4byte	.LVL46
 3664 0703 B2000000 		.4byte	.LFE2
 3665 0707 0200     		.2byte	0x2
 3666 0709 30       		.byte	0x30
 3667 070a 9F       		.byte	0x9f
 3668 070b 00000000 		.4byte	0
 3669 070f 00000000 		.4byte	0
 3670              	.LLST5:
 3671 0713 00000000 		.4byte	.LVL19
 3672 0717 09000000 		.4byte	.LVL20-1
 3673 071b 0100     		.2byte	0x1
 3674 071d 50       		.byte	0x50
 3675 071e 09000000 		.4byte	.LVL20-1
 3676 0722 10000000 		.4byte	.LFE1
 3677 0726 0400     		.2byte	0x4
 3678 0728 F3       		.byte	0xf3
 3679 0729 01       		.uleb128 0x1
 3680 072a 50       		.byte	0x50
 3681 072b 9F       		.byte	0x9f
 3682 072c 00000000 		.4byte	0
 3683 0730 00000000 		.4byte	0
 3684              	.LLST6:
 3685 0734 00000000 		.4byte	.LVL19
 3686 0738 09000000 		.4byte	.LVL20-1
 3687 073c 0100     		.2byte	0x1
 3688 073e 51       		.byte	0x51
 3689 073f 09000000 		.4byte	.LVL20-1
 3690 0743 10000000 		.4byte	.LFE1
 3691 0747 0400     		.2byte	0x4
 3692 0749 F3       		.byte	0xf3
 3693 074a 01       		.uleb128 0x1
 3694 074b 51       		.byte	0x51
 3695 074c 9F       		.byte	0x9f
 3696 074d 00000000 		.4byte	0
 3697 0751 00000000 		.4byte	0
 3698              	.LLST7:
 3699 0755 00000000 		.4byte	.LVL19
 3700 0759 0A000000 		.4byte	.LVL20
 3701 075d 0200     		.2byte	0x2
 3702 075f 30       		.byte	0x30
 3703 0760 9F       		.byte	0x9f
 3704 0761 0A000000 		.4byte	.LVL20
 3705 0765 0C000000 		.4byte	.LVL21
ARM GAS  /tmp/cczPv8m9.s 			page 66


 3706 0769 0100     		.2byte	0x1
 3707 076b 50       		.byte	0x50
 3708 076c 0C000000 		.4byte	.LVL21
 3709 0770 0E000000 		.4byte	.LVL22
 3710 0774 0300     		.2byte	0x3
 3711 0776 70       		.byte	0x70
 3712 0777 79       		.sleb128 -7
 3713 0778 9F       		.byte	0x9f
 3714 0779 00000000 		.4byte	0
 3715 077d 00000000 		.4byte	0
 3716              	.LLST0:
 3717 0781 00000000 		.4byte	.LVL0
 3718 0785 08000000 		.4byte	.LVL1
 3719 0789 0100     		.2byte	0x1
 3720 078b 50       		.byte	0x50
 3721 078c 08000000 		.4byte	.LVL1
 3722 0790 76000000 		.4byte	.LFE0
 3723 0794 0100     		.2byte	0x1
 3724 0796 56       		.byte	0x56
 3725 0797 00000000 		.4byte	0
 3726 079b 00000000 		.4byte	0
 3727              	.LLST1:
 3728 079f 00000000 		.4byte	.LVL0
 3729 07a3 18000000 		.4byte	.LVL2
 3730 07a7 0100     		.2byte	0x1
 3731 07a9 51       		.byte	0x51
 3732 07aa 18000000 		.4byte	.LVL2
 3733 07ae 76000000 		.4byte	.LFE0
 3734 07b2 0100     		.2byte	0x1
 3735 07b4 57       		.byte	0x57
 3736 07b5 00000000 		.4byte	0
 3737 07b9 00000000 		.4byte	0
 3738              	.LLST2:
 3739 07bd 00000000 		.4byte	.LVL0
 3740 07c1 1C000000 		.4byte	.LVL3
 3741 07c5 0100     		.2byte	0x1
 3742 07c7 52       		.byte	0x52
 3743 07c8 1C000000 		.4byte	.LVL3
 3744 07cc 25000000 		.4byte	.LVL5-1
 3745 07d0 0100     		.2byte	0x1
 3746 07d2 51       		.byte	0x51
 3747 07d3 25000000 		.4byte	.LVL5-1
 3748 07d7 26000000 		.4byte	.LVL5
 3749 07db 0100     		.2byte	0x1
 3750 07dd 54       		.byte	0x54
 3751 07de 26000000 		.4byte	.LVL5
 3752 07e2 2A000000 		.4byte	.LVL6
 3753 07e6 0300     		.2byte	0x3
 3754 07e8 74       		.byte	0x74
 3755 07e9 0D       		.sleb128 13
 3756 07ea 9F       		.byte	0x9f
 3757 07eb 2A000000 		.4byte	.LVL6
 3758 07ef 35000000 		.4byte	.LVL7-1
 3759 07f3 0100     		.2byte	0x1
 3760 07f5 52       		.byte	0x52
 3761 07f6 35000000 		.4byte	.LVL7-1
 3762 07fa 38000000 		.4byte	.LVL8
ARM GAS  /tmp/cczPv8m9.s 			page 67


 3763 07fe 0300     		.2byte	0x3
 3764 0800 74       		.byte	0x74
 3765 0801 0D       		.sleb128 13
 3766 0802 9F       		.byte	0x9f
 3767 0803 38000000 		.4byte	.LVL8
 3768 0807 3E000000 		.4byte	.LVL9
 3769 080b 0100     		.2byte	0x1
 3770 080d 50       		.byte	0x50
 3771 080e 3E000000 		.4byte	.LVL9
 3772 0812 64000000 		.4byte	.LVL15
 3773 0816 0100     		.2byte	0x1
 3774 0818 55       		.byte	0x55
 3775 0819 64000000 		.4byte	.LVL15
 3776 081d 6E000000 		.4byte	.LVL16
 3777 0821 0100     		.2byte	0x1
 3778 0823 50       		.byte	0x50
 3779 0824 6E000000 		.4byte	.LVL16
 3780 0828 76000000 		.4byte	.LFE0
 3781 082c 0100     		.2byte	0x1
 3782 082e 55       		.byte	0x55
 3783 082f 00000000 		.4byte	0
 3784 0833 00000000 		.4byte	0
 3785              	.LLST3:
 3786 0837 00000000 		.4byte	.LVL0
 3787 083b 22000000 		.4byte	.LVL4
 3788 083f 0100     		.2byte	0x1
 3789 0841 53       		.byte	0x53
 3790 0842 22000000 		.4byte	.LVL4
 3791 0846 76000000 		.4byte	.LFE0
 3792 084a 0400     		.2byte	0x4
 3793 084c F3       		.byte	0xf3
 3794 084d 01       		.uleb128 0x1
 3795 084e 53       		.byte	0x53
 3796 084f 9F       		.byte	0x9f
 3797 0850 00000000 		.4byte	0
 3798 0854 00000000 		.4byte	0
 3799              	.LLST4:
 3800 0858 00000000 		.4byte	.LVL0
 3801 085c 44000000 		.4byte	.LVL10
 3802 0860 0200     		.2byte	0x2
 3803 0862 30       		.byte	0x30
 3804 0863 9F       		.byte	0x9f
 3805 0864 44000000 		.4byte	.LVL10
 3806 0868 56000000 		.4byte	.LVL12
 3807 086c 0100     		.2byte	0x1
 3808 086e 54       		.byte	0x54
 3809 086f 56000000 		.4byte	.LVL12
 3810 0873 5C000000 		.4byte	.LVL13
 3811 0877 0300     		.2byte	0x3
 3812 0879 74       		.byte	0x74
 3813 087a 7F       		.sleb128 -1
 3814 087b 9F       		.byte	0x9f
 3815 087c 5C000000 		.4byte	.LVL13
 3816 0880 5E000000 		.4byte	.LVL14
 3817 0884 0100     		.2byte	0x1
 3818 0886 54       		.byte	0x54
 3819 0887 64000000 		.4byte	.LVL15
ARM GAS  /tmp/cczPv8m9.s 			page 68


 3820 088b 76000000 		.4byte	.LFE0
 3821 088f 0200     		.2byte	0x2
 3822 0891 30       		.byte	0x30
 3823 0892 9F       		.byte	0x9f
 3824 0893 00000000 		.4byte	0
 3825 0897 00000000 		.4byte	0
 3826              		.section	.debug_aranges,"",%progbits
 3827 0000 54000000 		.4byte	0x54
 3828 0004 0200     		.2byte	0x2
 3829 0006 00000000 		.4byte	.Ldebug_info0
 3830 000a 04       		.byte	0x4
 3831 000b 00       		.byte	0
 3832 000c 0000     		.2byte	0
 3833 000e 0000     		.2byte	0
 3834 0010 00000000 		.4byte	.LFB0
 3835 0014 76000000 		.4byte	.LFE0-.LFB0
 3836 0018 00000000 		.4byte	.LFB1
 3837 001c 10000000 		.4byte	.LFE1-.LFB1
 3838 0020 00000000 		.4byte	.LFB2
 3839 0024 B2000000 		.4byte	.LFE2-.LFB2
 3840 0028 00000000 		.4byte	.LFB3
 3841 002c 1E000000 		.4byte	.LFE3-.LFB3
 3842 0030 00000000 		.4byte	.LFB4
 3843 0034 78000000 		.4byte	.LFE4-.LFB4
 3844 0038 00000000 		.4byte	.LFB5
 3845 003c 10000000 		.4byte	.LFE5-.LFB5
 3846 0040 00000000 		.4byte	.LFB6
 3847 0044 DE000000 		.4byte	.LFE6-.LFB6
 3848 0048 00000000 		.4byte	.LFB7
 3849 004c 1E000000 		.4byte	.LFE7-.LFB7
 3850 0050 00000000 		.4byte	0
 3851 0054 00000000 		.4byte	0
 3852              		.section	.debug_ranges,"",%progbits
 3853              	.Ldebug_ranges0:
 3854 0000 00000000 		.4byte	.LFB0
 3855 0004 76000000 		.4byte	.LFE0
 3856 0008 00000000 		.4byte	.LFB1
 3857 000c 10000000 		.4byte	.LFE1
 3858 0010 00000000 		.4byte	.LFB2
 3859 0014 B2000000 		.4byte	.LFE2
 3860 0018 00000000 		.4byte	.LFB3
 3861 001c 1E000000 		.4byte	.LFE3
 3862 0020 00000000 		.4byte	.LFB4
 3863 0024 78000000 		.4byte	.LFE4
 3864 0028 00000000 		.4byte	.LFB5
 3865 002c 10000000 		.4byte	.LFE5
 3866 0030 00000000 		.4byte	.LFB6
 3867 0034 DE000000 		.4byte	.LFE6
 3868 0038 00000000 		.4byte	.LFB7
 3869 003c 1E000000 		.4byte	.LFE7
 3870 0040 00000000 		.4byte	0
 3871 0044 00000000 		.4byte	0
 3872              		.section	.debug_line,"",%progbits
 3873              	.Ldebug_line0:
 3874 0000 92020000 		.section	.debug_str,"MS",%progbits,1
 3874      0200F700 
 3874      00000201 
ARM GAS  /tmp/cczPv8m9.s 			page 69


 3874      FB0E0D00 
 3874      01010101 
 3875              	.LASF42:
 3876 0000 75617663 		.ascii	"uavcan_protocol_param_NumericValue_ENUM\000"
 3876      616E5F70 
 3876      726F746F 
 3876      636F6C5F 
 3876      70617261 
 3877              	.LASF43:
 3878 0028 696E7465 		.ascii	"integer_value\000"
 3878      6765725F 
 3878      76616C75 
 3878      6500
 3879              	.LASF27:
 3880 0036 64617461 		.ascii	"data_type_id\000"
 3880      5F747970 
 3880      655F6964 
 3880      00
 3881              	.LASF56:
 3882 0043 75617663 		.ascii	"uavcan_protocol_param_Value\000"
 3882      616E5F70 
 3882      726F746F 
 3882      636F6C5F 
 3882      70617261 
 3883              	.LASF66:
 3884 005f 64657374 		.ascii	"dest\000"
 3884      00
 3885              	.LASF82:
 3886 0064 75617663 		.ascii	"uavcan_protocol_param_Value_decode_internal\000"
 3886      616E5F70 
 3886      726F746F 
 3886      636F6C5F 
 3886      70617261 
 3887              	.LASF30:
 3888 0090 7072696F 		.ascii	"priority\000"
 3888      72697479 
 3888      00
 3889              	.LASF39:
 3890 0099 55415643 		.ascii	"UAVCAN_PROTOCOL_PARAM_NUMERICVALUE_EMPTY\000"
 3890      414E5F50 
 3890      524F544F 
 3890      434F4C5F 
 3890      50415241 
 3891              	.LASF83:
 3892 00c2 75617663 		.ascii	"uavcan_protocol_param_NumericValue_decode_internal\000"
 3892      616E5F70 
 3892      726F746F 
 3892      636F6C5F 
 3892      70617261 
 3893              	.LASF20:
 3894 00f5 75696E74 		.ascii	"uint64_t\000"
 3894      36345F74 
 3894      00
 3895              	.LASF44:
 3896 00fe 7265616C 		.ascii	"real_value\000"
 3896      5F76616C 
 3896      756500
ARM GAS  /tmp/cczPv8m9.s 			page 70


 3897              	.LASF2:
 3898 0109 73686F72 		.ascii	"short int\000"
 3898      7420696E 
 3898      7400
 3899              	.LASF74:
 3900 0113 75617663 		.ascii	"uavcan_protocol_param_GetSetResponse_encode_interna"
 3900      616E5F70 
 3900      726F746F 
 3900      636F6C5F 
 3900      70617261 
 3901 0146 6C00     		.ascii	"l\000"
 3902              	.LASF8:
 3903 0148 5F5F7569 		.ascii	"__uint32_t\000"
 3903      6E743332 
 3903      5F7400
 3904              	.LASF48:
 3905 0153 55415643 		.ascii	"UAVCAN_PROTOCOL_PARAM_VALUE_EMPTY\000"
 3905      414E5F50 
 3905      524F544F 
 3905      434F4C5F 
 3905      50415241 
 3906              	.LASF4:
 3907 0175 5F5F7569 		.ascii	"__uint16_t\000"
 3907      6E743136 
 3907      5F7400
 3908              	.LASF81:
 3909 0180 75617663 		.ascii	"uavcan_protocol_param_GetSetRequest_encode_internal"
 3909      616E5F70 
 3909      726F746F 
 3909      636F6C5F 
 3909      70617261 
 3910 01b3 00       		.ascii	"\000"
 3911              	.LASF37:
 3912 01b4 656D7074 		.ascii	"empty\000"
 3912      7900
 3913              	.LASF19:
 3914 01ba 696E7436 		.ascii	"int64_t\000"
 3914      345F7400 
 3915              	.LASF58:
 3916 01c2 76616C75 		.ascii	"value\000"
 3916      6500
 3917              	.LASF79:
 3918 01c8 75617663 		.ascii	"uavcan_protocol_param_GetSetRequest_error_exit\000"
 3918      616E5F70 
 3918      726F746F 
 3918      636F6C5F 
 3918      70617261 
 3919              	.LASF15:
 3920 01f7 75696E74 		.ascii	"uint8_t\000"
 3920      385F7400 
 3921              	.LASF49:
 3922 01ff 55415643 		.ascii	"UAVCAN_PROTOCOL_PARAM_VALUE_INTEGER_VALUE\000"
 3922      414E5F50 
 3922      524F544F 
 3922      434F4C5F 
 3922      50415241 
 3923              	.LASF55:
ARM GAS  /tmp/cczPv8m9.s 			page 71


 3924 0229 73747269 		.ascii	"string_value\000"
 3924      6E675F76 
 3924      616C7565 
 3924      00
 3925              	.LASF80:
 3926 0236 75617663 		.ascii	"uavcan_protocol_param_GetSetRequest_encode\000"
 3926      616E5F70 
 3926      726F746F 
 3926      636F6C5F 
 3926      70617261 
 3927              	.LASF78:
 3928 0261 75617663 		.ascii	"uavcan_protocol_param_GetSetResponse_error_exit\000"
 3928      616E5F70 
 3928      726F746F 
 3928      636F6C5F 
 3928      70617261 
 3929              	.LASF63:
 3930 0291 6D696E5F 		.ascii	"min_value\000"
 3930      76616C75 
 3930      6500
 3931              	.LASF45:
 3932 029b 666C6F61 		.ascii	"float\000"
 3932      7400
 3933              	.LASF61:
 3934 02a1 64656661 		.ascii	"default_value\000"
 3934      756C745F 
 3934      76616C75 
 3934      6500
 3935              	.LASF71:
 3936 02af 75617663 		.ascii	"uavcan_protocol_param_GetSetResponse_encode\000"
 3936      616E5F70 
 3936      726F746F 
 3936      636F6C5F 
 3936      70617261 
 3937              	.LASF11:
 3938 02db 6C6F6E67 		.ascii	"long long int\000"
 3938      206C6F6E 
 3938      6720696E 
 3938      7400
 3939              	.LASF67:
 3940 02e9 64796E5F 		.ascii	"dyn_arr_buf\000"
 3940      6172725F 
 3940      62756600 
 3941              	.LASF52:
 3942 02f5 55415643 		.ascii	"UAVCAN_PROTOCOL_PARAM_VALUE_STRING_VALUE\000"
 3942      414E5F50 
 3942      524F544F 
 3942      434F4C5F 
 3942      50415241 
 3943              	.LASF7:
 3944 031e 6C6F6E67 		.ascii	"long int\000"
 3944      20696E74 
 3944      00
 3945              	.LASF10:
 3946 0327 5F5F696E 		.ascii	"__int64_t\000"
 3946      7436345F 
 3946      7400
ARM GAS  /tmp/cczPv8m9.s 			page 72


 3947              	.LASF53:
 3948 0331 75617663 		.ascii	"uavcan_protocol_param_Value_ENUM\000"
 3948      616E5F70 
 3948      726F746F 
 3948      636F6C5F 
 3948      70617261 
 3949              	.LASF68:
 3950 0352 6F666673 		.ascii	"offset\000"
 3950      657400
 3951              	.LASF87:
 3952 0359 63616E61 		.ascii	"canardEncodeScalar\000"
 3952      7264456E 
 3952      636F6465 
 3952      5363616C 
 3952      617200
 3953              	.LASF54:
 3954 036c 626F6F6C 		.ascii	"boolean_value\000"
 3954      65616E5F 
 3954      76616C75 
 3954      6500
 3955              	.LASF3:
 3956 037a 5F5F7569 		.ascii	"__uint8_t\000"
 3956      6E74385F 
 3956      7400
 3957              	.LASF46:
 3958 0384 756E696F 		.ascii	"union_tag\000"
 3958      6E5F7461 
 3958      6700
 3959              	.LASF72:
 3960 038e 736F7572 		.ascii	"source\000"
 3960      636500
 3961              	.LASF25:
 3962 0395 7061796C 		.ascii	"payload_tail\000"
 3962      6F61645F 
 3962      7461696C 
 3962      00
 3963              	.LASF22:
 3964 03a2 74696D65 		.ascii	"timestamp_usec\000"
 3964      7374616D 
 3964      705F7573 
 3964      656300
 3965              	.LASF38:
 3966 03b1 75617663 		.ascii	"uavcan_protocol_param_Empty\000"
 3966      616E5F70 
 3966      726F746F 
 3966      636F6C5F 
 3966      70617261 
 3967              	.LASF59:
 3968 03cd 6E616D65 		.ascii	"name\000"
 3968      00
 3969              	.LASF89:
 3970 03d2 6C696263 		.ascii	"libcanard/dsdl/uavcan/protocol/param/param_GetSet.c"
 3970      616E6172 
 3970      642F6473 
 3970      646C2F75 
 3970      61766361 
 3971 0405 00       		.ascii	"\000"
ARM GAS  /tmp/cczPv8m9.s 			page 73


 3972              	.LASF47:
 3973 0406 75617663 		.ascii	"uavcan_protocol_param_NumericValue\000"
 3973      616E5F70 
 3973      726F746F 
 3973      636F6C5F 
 3973      70617261 
 3974              	.LASF62:
 3975 0429 6D61785F 		.ascii	"max_value\000"
 3975      76616C75 
 3975      6500
 3976              	.LASF1:
 3977 0433 756E7369 		.ascii	"unsigned char\000"
 3977      676E6564 
 3977      20636861 
 3977      7200
 3978              	.LASF24:
 3979 0441 7061796C 		.ascii	"payload_middle\000"
 3979      6F61645F 
 3979      6D696464 
 3979      6C6500
 3980              	.LASF86:
 3981 0450 75617663 		.ascii	"uavcan_protocol_param_NumericValue_encode_internal\000"
 3981      616E5F70 
 3981      726F746F 
 3981      636F6C5F 
 3981      70617261 
 3982              	.LASF90:
 3983 0483 2F626C64 		.ascii	"/bldc\000"
 3983      6300
 3984              	.LASF0:
 3985 0489 7369676E 		.ascii	"signed char\000"
 3985      65642063 
 3985      68617200 
 3986              	.LASF13:
 3987 0495 6C6F6E67 		.ascii	"long long unsigned int\000"
 3987      206C6F6E 
 3987      6720756E 
 3987      7369676E 
 3987      65642069 
 3988              	.LASF18:
 3989 04ac 75696E74 		.ascii	"uint32_t\000"
 3989      33325F74 
 3989      00
 3990              	.LASF14:
 3991 04b5 756E7369 		.ascii	"unsigned int\000"
 3991      676E6564 
 3991      20696E74 
 3991      00
 3992              	.LASF16:
 3993 04c2 75696E74 		.ascii	"uint16_t\000"
 3993      31365F74 
 3993      00
 3994              	.LASF34:
 3995 04cb 43616E61 		.ascii	"CanardBufferBlock\000"
 3995      72644275 
 3995      66666572 
 3995      426C6F63 
ARM GAS  /tmp/cczPv8m9.s 			page 74


 3995      6B00
 3996              	.LASF50:
 3997 04dd 55415643 		.ascii	"UAVCAN_PROTOCOL_PARAM_VALUE_REAL_VALUE\000"
 3997      414E5F50 
 3997      524F544F 
 3997      434F4C5F 
 3997      50415241 
 3998              	.LASF31:
 3999 0504 736F7572 		.ascii	"source_node_id\000"
 3999      63655F6E 
 3999      6F64655F 
 3999      696400
 4000              	.LASF51:
 4001 0513 55415643 		.ascii	"UAVCAN_PROTOCOL_PARAM_VALUE_BOOLEAN_VALUE\000"
 4001      414E5F50 
 4001      524F544F 
 4001      434F4C5F 
 4001      50415241 
 4002              	.LASF5:
 4003 053d 73686F72 		.ascii	"short unsigned int\000"
 4003      7420756E 
 4003      7369676E 
 4003      65642069 
 4003      6E7400
 4004              	.LASF76:
 4005 0550 75617663 		.ascii	"uavcan_protocol_param_GetSetRequest_decode\000"
 4005      616E5F70 
 4005      726F746F 
 4005      636F6C5F 
 4005      70617261 
 4006              	.LASF33:
 4007 057b 63686172 		.ascii	"char\000"
 4007      00
 4008              	.LASF32:
 4009 0580 5F426F6F 		.ascii	"_Bool\000"
 4009      6C00
 4010              	.LASF17:
 4011 0586 696E7433 		.ascii	"int32_t\000"
 4011      325F7400 
 4012              	.LASF28:
 4013 058e 7472616E 		.ascii	"transfer_type\000"
 4013      73666572 
 4013      5F747970 
 4013      6500
 4014              	.LASF69:
 4015 059c 75617663 		.ascii	"uavcan_protocol_param_GetSetResponse_decode\000"
 4015      616E5F70 
 4015      726F746F 
 4015      636F6C5F 
 4015      70617261 
 4016              	.LASF23:
 4017 05c8 7061796C 		.ascii	"payload_head\000"
 4017      6F61645F 
 4017      68656164 
 4017      00
 4018              	.LASF70:
 4019 05d5 75617663 		.ascii	"uavcan_protocol_param_GetSetResponse_decode_interna"
ARM GAS  /tmp/cczPv8m9.s 			page 75


 4019      616E5F70 
 4019      726F746F 
 4019      636F6C5F 
 4019      70617261 
 4020 0608 6C00     		.ascii	"l\000"
 4021              	.LASF12:
 4022 060a 5F5F7569 		.ascii	"__uint64_t\000"
 4022      6E743634 
 4022      5F7400
 4023              	.LASF36:
 4024 0615 64617461 		.ascii	"data\000"
 4024      00
 4025              	.LASF65:
 4026 061a 7472616E 		.ascii	"transfer\000"
 4026      73666572 
 4026      00
 4027              	.LASF41:
 4028 0623 55415643 		.ascii	"UAVCAN_PROTOCOL_PARAM_NUMERICVALUE_REAL_VALUE\000"
 4028      414E5F50 
 4028      524F544F 
 4028      434F4C5F 
 4028      50415241 
 4029              	.LASF77:
 4030 0651 75617663 		.ascii	"uavcan_protocol_param_GetSetRequest_decode_internal"
 4030      616E5F70 
 4030      726F746F 
 4030      636F6C5F 
 4030      70617261 
 4031 0684 00       		.ascii	"\000"
 4032              	.LASF21:
 4033 0685 43616E61 		.ascii	"CanardRxTransfer\000"
 4033      72645278 
 4033      5472616E 
 4033      73666572 
 4033      00
 4034              	.LASF9:
 4035 0696 6C6F6E67 		.ascii	"long unsigned int\000"
 4035      20756E73 
 4035      69676E65 
 4035      6420696E 
 4035      7400
 4036              	.LASF60:
 4037 06a8 75617663 		.ascii	"uavcan_protocol_param_GetSetRequest\000"
 4037      616E5F70 
 4037      726F746F 
 4037      636F6C5F 
 4037      70617261 
 4038              	.LASF75:
 4039 06cc 726F6F74 		.ascii	"root_item\000"
 4039      5F697465 
 4039      6D00
 4040              	.LASF6:
 4041 06d6 5F5F696E 		.ascii	"__int32_t\000"
 4041      7433325F 
 4041      7400
 4042              	.LASF40:
 4043 06e0 55415643 		.ascii	"UAVCAN_PROTOCOL_PARAM_NUMERICVALUE_INTEGER_VALUE\000"
ARM GAS  /tmp/cczPv8m9.s 			page 76


 4043      414E5F50 
 4043      524F544F 
 4043      434F4C5F 
 4043      50415241 
 4044              	.LASF26:
 4045 0711 7061796C 		.ascii	"payload_len\000"
 4045      6F61645F 
 4045      6C656E00 
 4046              	.LASF29:
 4047 071d 7472616E 		.ascii	"transfer_id\000"
 4047      73666572 
 4047      5F696400 
 4048              	.LASF57:
 4049 0729 696E6465 		.ascii	"index\000"
 4049      7800
 4050              	.LASF84:
 4051 072f 63616E61 		.ascii	"canardDecodeScalar\000"
 4051      72644465 
 4051      636F6465 
 4051      5363616C 
 4051      617200
 4052              	.LASF64:
 4053 0742 75617663 		.ascii	"uavcan_protocol_param_GetSetResponse\000"
 4053      616E5F70 
 4053      726F746F 
 4053      636F6C5F 
 4053      70617261 
 4054              	.LASF73:
 4055 0767 6D73675F 		.ascii	"msg_buf\000"
 4055      62756600 
 4056              	.LASF35:
 4057 076f 6E657874 		.ascii	"next\000"
 4057      00
 4058              	.LASF88:
 4059 0774 474E5520 		.ascii	"GNU C99 7.3.1 20180622 (release) [ARM/embedded-7-br"
 4059      43393920 
 4059      372E332E 
 4059      31203230 
 4059      31383036 
 4060 07a7 616E6368 		.ascii	"anch revision 261907] -mcpu=cortex-m4 -mfloat-abi=h"
 4060      20726576 
 4060      6973696F 
 4060      6E203236 
 4060      31393037 
 4061 07da 61726420 		.ascii	"ard -mfpu=fpv4-sp-d16 -mno-thumb-interwork -mthumb "
 4061      2D6D6670 
 4061      753D6670 
 4061      76342D73 
 4061      702D6431 
 4062 080d 2D676764 		.ascii	"-ggdb -O2 -std=gnu99 -fomit-frame-pointer -falign-f"
 4062      62202D4F 
 4062      32202D73 
 4062      74643D67 
 4062      6E753939 
 4063 0840 756E6374 		.ascii	"unctions=16 -ffunction-sections -fdata-sections -fn"
 4063      696F6E73 
 4063      3D313620 
ARM GAS  /tmp/cczPv8m9.s 			page 77


 4063      2D666675 
 4063      6E637469 
 4064 0873 6F2D636F 		.ascii	"o-common -fsingle-precision-constant\000"
 4064      6D6D6F6E 
 4064      202D6673 
 4064      696E676C 
 4064      652D7072 
 4065              	.LASF85:
 4066 0898 75617663 		.ascii	"uavcan_protocol_param_Value_encode_internal\000"
 4066      616E5F70 
 4066      726F746F 
 4066      636F6C5F 
 4066      70617261 
 4067              		.ident	"GCC: (GNU Tools for Arm Embedded Processors 7-2018-q3-update) 7.3.1 20180622 (release) [AR
ARM GAS  /tmp/cczPv8m9.s 			page 78


DEFINED SYMBOLS
                            *ABS*:0000000000000000 param_GetSet.c
     /tmp/cczPv8m9.s:18     .text.uavcan_protocol_param_GetSetRequest_encode_internal:0000000000000000 $t
     /tmp/cczPv8m9.s:26     .text.uavcan_protocol_param_GetSetRequest_encode_internal:0000000000000000 uavcan_protocol_param_GetSetRequest_encode_internal
     /tmp/cczPv8m9.s:134    .text.uavcan_protocol_param_GetSetRequest_encode:0000000000000000 $t
     /tmp/cczPv8m9.s:142    .text.uavcan_protocol_param_GetSetRequest_encode:0000000000000000 uavcan_protocol_param_GetSetRequest_encode
     /tmp/cczPv8m9.s:169    .text.uavcan_protocol_param_GetSetRequest_decode_internal:0000000000000000 $t
     /tmp/cczPv8m9.s:177    .text.uavcan_protocol_param_GetSetRequest_decode_internal:0000000000000000 uavcan_protocol_param_GetSetRequest_decode_internal
     /tmp/cczPv8m9.s:346    .text.uavcan_protocol_param_GetSetRequest_decode:0000000000000000 $t
     /tmp/cczPv8m9.s:354    .text.uavcan_protocol_param_GetSetRequest_decode:0000000000000000 uavcan_protocol_param_GetSetRequest_decode
     /tmp/cczPv8m9.s:395    .text.uavcan_protocol_param_GetSetResponse_encode_internal:0000000000000000 $t
     /tmp/cczPv8m9.s:403    .text.uavcan_protocol_param_GetSetResponse_encode_internal:0000000000000000 uavcan_protocol_param_GetSetResponse_encode_internal
     /tmp/cczPv8m9.s:511    .text.uavcan_protocol_param_GetSetResponse_encode:0000000000000000 $t
     /tmp/cczPv8m9.s:519    .text.uavcan_protocol_param_GetSetResponse_encode:0000000000000000 uavcan_protocol_param_GetSetResponse_encode
     /tmp/cczPv8m9.s:546    .text.uavcan_protocol_param_GetSetResponse_decode_internal:0000000000000000 $t
     /tmp/cczPv8m9.s:554    .text.uavcan_protocol_param_GetSetResponse_decode_internal:0000000000000000 uavcan_protocol_param_GetSetResponse_decode_internal
     /tmp/cczPv8m9.s:740    .text.uavcan_protocol_param_GetSetResponse_decode:0000000000000000 $t
     /tmp/cczPv8m9.s:748    .text.uavcan_protocol_param_GetSetResponse_decode:0000000000000000 uavcan_protocol_param_GetSetResponse_decode

UNDEFINED SYMBOLS
canardEncodeScalar
uavcan_protocol_param_Value_encode_internal
canardDecodeScalar
uavcan_protocol_param_Value_decode_internal
uavcan_protocol_param_NumericValue_encode_internal
uavcan_protocol_param_NumericValue_decode_internal
