ARM GAS  /tmp/cc7v9S6V.s 			page 1


   1              		.cpu cortex-m4
   2              		.eabi_attribute 27, 1
   3              		.eabi_attribute 28, 1
   4              		.eabi_attribute 20, 1
   5              		.eabi_attribute 21, 1
   6              		.eabi_attribute 23, 3
   7              		.eabi_attribute 24, 1
   8              		.eabi_attribute 25, 1
   9              		.eabi_attribute 26, 1
  10              		.eabi_attribute 30, 2
  11              		.eabi_attribute 34, 1
  12              		.eabi_attribute 18, 4
  13              		.file	"param_ExecuteOpcode.c"
  14              		.text
  15              	.Ltext0:
  16              		.cfi_sections	.debug_frame
  17              		.section	.text.uavcan_protocol_param_ExecuteOpcodeRequest_encode_internal,"ax",%progbits
  18              		.align	1
  19              		.p2align 4,,15
  20              		.global	uavcan_protocol_param_ExecuteOpcodeRequest_encode_internal
  21              		.syntax unified
  22              		.thumb
  23              		.thumb_func
  24              		.fpu fpv4-sp-d16
  25              		.type	uavcan_protocol_param_ExecuteOpcodeRequest_encode_internal, %function
  26              	uavcan_protocol_param_ExecuteOpcodeRequest_encode_internal:
  27              	.LFB0:
  28              		.file 1 "libcanard/dsdl/uavcan/protocol/param/param_ExecuteOpcode.c"
  29              		.loc 1 37 0
  30              		.cfi_startproc
  31              		@ args = 0, pretend = 0, frame = 0
  32              		@ frame_needed = 0, uses_anonymous_args = 0
  33              	.LVL0:
  34 0000 70B5     		push	{r4, r5, r6, lr}
  35              		.cfi_def_cfa_offset 16
  36              		.cfi_offset 4, -16
  37              		.cfi_offset 5, -12
  38              		.cfi_offset 6, -8
  39              		.cfi_offset 14, -4
  40              		.loc 1 37 0
  41 0002 0E46     		mov	r6, r1
  42 0004 0446     		mov	r4, r0
  43 0006 1546     		mov	r5, r2
  44              		.loc 1 38 0
  45 0008 0346     		mov	r3, r0
  46              	.LVL1:
  47 000a 1146     		mov	r1, r2
  48              	.LVL2:
  49 000c 3046     		mov	r0, r6
  50              	.LVL3:
  51 000e 0822     		movs	r2, #8
  52              	.LVL4:
  53 0010 FFF7FEFF 		bl	canardEncodeScalar
  54              	.LVL5:
  55              		.loc 1 41 0
  56 0014 D4E90201 		ldrd	r0, [r4, #8]
  57 0018 0122     		movs	r2, #1
ARM GAS  /tmp/cc7v9S6V.s 			page 2


  58 001a 0F4B     		ldr	r3, .L6
  59 001c 9042     		cmp	r0, r2
  60 001e 71EB030C 		sbcs	ip, r1, r3
  61 0022 B8BF     		it	lt
  62 0024 1046     		movlt	r0, r2
  63 0026 4FF0FF32 		mov	r2, #-1
  64 002a B8BF     		it	lt
  65 002c 1946     		movlt	r1, r3
  66 002e 8242     		cmp	r2, r0
  67 0030 47F6FF73 		movw	r3, #32767
  68 0034 73EB010C 		sbcs	ip, r3, r1
  69 0038 BCBF     		itt	lt
  70 003a 1046     		movlt	r0, r2
  71 003c 1946     		movlt	r1, r3
  72 003e 2346     		mov	r3, r4
  73 0040 E3E90201 		strd	r0, [r3, #8]!
  74              		.loc 1 42 0
  75 0044 3022     		movs	r2, #48
  76 0046 3046     		mov	r0, r6
  77 0048 05F10801 		add	r1, r5, #8
  78              	.LVL6:
  79 004c FFF7FEFF 		bl	canardEncodeScalar
  80              	.LVL7:
  81              		.loc 1 46 0
  82 0050 05F13800 		add	r0, r5, #56
  83              	.LVL8:
  84 0054 70BD     		pop	{r4, r5, r6, pc}
  85              	.LVL9:
  86              	.L7:
  87 0056 00BF     		.align	2
  88              	.L6:
  89 0058 0080FFFF 		.word	-32768
  90              		.cfi_endproc
  91              	.LFE0:
  92              		.size	uavcan_protocol_param_ExecuteOpcodeRequest_encode_internal, .-uavcan_protocol_param_ExecuteO
  93              		.section	.text.uavcan_protocol_param_ExecuteOpcodeRequest_encode,"ax",%progbits
  94              		.align	1
  95              		.p2align 4,,15
  96              		.global	uavcan_protocol_param_ExecuteOpcodeRequest_encode
  97              		.syntax unified
  98              		.thumb
  99              		.thumb_func
 100              		.fpu fpv4-sp-d16
 101              		.type	uavcan_protocol_param_ExecuteOpcodeRequest_encode, %function
 102              	uavcan_protocol_param_ExecuteOpcodeRequest_encode:
 103              	.LFB1:
 104              		.loc 1 55 0
 105              		.cfi_startproc
 106              		@ args = 0, pretend = 0, frame = 0
 107              		@ frame_needed = 0, uses_anonymous_args = 0
 108              	.LVL10:
 109 0000 08B5     		push	{r3, lr}
 110              		.cfi_def_cfa_offset 8
 111              		.cfi_offset 3, -8
 112              		.cfi_offset 14, -4
 113              		.loc 1 58 0
 114 0002 0022     		movs	r2, #0
ARM GAS  /tmp/cc7v9S6V.s 			page 3


 115 0004 0123     		movs	r3, #1
 116 0006 FFF7FEFF 		bl	uavcan_protocol_param_ExecuteOpcodeRequest_encode_internal
 117              	.LVL11:
 118              		.loc 1 60 0
 119 000a 0730     		adds	r0, r0, #7
 120              	.LVL12:
 121              		.loc 1 61 0
 122 000c C008     		lsrs	r0, r0, #3
 123              	.LVL13:
 124 000e 08BD     		pop	{r3, pc}
 125              		.cfi_endproc
 126              	.LFE1:
 127              		.size	uavcan_protocol_param_ExecuteOpcodeRequest_encode, .-uavcan_protocol_param_ExecuteOpcodeRequ
 128              		.section	.text.uavcan_protocol_param_ExecuteOpcodeRequest_decode_internal,"ax",%progbits
 129              		.align	1
 130              		.p2align 4,,15
 131              		.global	uavcan_protocol_param_ExecuteOpcodeRequest_decode_internal
 132              		.syntax unified
 133              		.thumb
 134              		.thumb_func
 135              		.fpu fpv4-sp-d16
 136              		.type	uavcan_protocol_param_ExecuteOpcodeRequest_decode_internal, %function
 137              	uavcan_protocol_param_ExecuteOpcodeRequest_decode_internal:
 138              	.LFB2:
 139              		.loc 1 80 0
 140              		.cfi_startproc
 141              		@ args = 4, pretend = 0, frame = 0
 142              		@ frame_needed = 0, uses_anonymous_args = 0
 143              	.LVL14:
 144 0000 30B5     		push	{r4, r5, lr}
 145              		.cfi_def_cfa_offset 12
 146              		.cfi_offset 4, -12
 147              		.cfi_offset 5, -8
 148              		.cfi_offset 14, -4
 149 0002 83B0     		sub	sp, sp, #12
 150              		.cfi_def_cfa_offset 24
 151              		.loc 1 80 0
 152 0004 1446     		mov	r4, r2
 153              		.loc 1 83 0
 154 0006 0092     		str	r2, [sp]
 155 0008 0699     		ldr	r1, [sp, #24]
 156              	.LVL15:
 157 000a 0023     		movs	r3, #0
 158              	.LVL16:
 159 000c 0822     		movs	r2, #8
 160              	.LVL17:
 161              		.loc 1 80 0
 162 000e 0546     		mov	r5, r0
 163              		.loc 1 83 0
 164 0010 FFF7FEFF 		bl	canardDecodeScalar
 165              	.LVL18:
 166              		.loc 1 84 0
 167 0014 0828     		cmp	r0, #8
 168 0016 05D0     		beq	.L14
 169              	.LVL19:
 170              	.L11:
 171              		.loc 1 99 0
ARM GAS  /tmp/cc7v9S6V.s 			page 4


 172 0018 0028     		cmp	r0, #0
 173              		.loc 1 105 0
 174 001a A8BF     		it	ge
 175 001c 6FF00800 		mvnge	r0, #8
 176              	.LVL20:
 177              	.L10:
 178              		.loc 1 107 0
 179 0020 03B0     		add	sp, sp, #12
 180              		.cfi_remember_state
 181              		.cfi_def_cfa_offset 12
 182              		@ sp needed
 183 0022 30BD     		pop	{r4, r5, pc}
 184              	.LVL21:
 185              	.L14:
 186              		.cfi_restore_state
 187              		.loc 1 90 0
 188 0024 0699     		ldr	r1, [sp, #24]
 189 0026 0834     		adds	r4, r4, #8
 190              	.LVL22:
 191 0028 0094     		str	r4, [sp]
 192 002a 2846     		mov	r0, r5
 193              	.LVL23:
 194 002c 0123     		movs	r3, #1
 195 002e 3022     		movs	r2, #48
 196 0030 0831     		adds	r1, r1, #8
 197              	.LVL24:
 198 0032 FFF7FEFF 		bl	canardDecodeScalar
 199              	.LVL25:
 200              		.loc 1 91 0
 201 0036 3028     		cmp	r0, #48
 202 0038 EED1     		bne	.L11
 203              		.loc 1 95 0
 204 003a 069B     		ldr	r3, [sp, #24]
 205 003c 03F13800 		add	r0, r3, #56
 206              	.LVL26:
 207              		.loc 1 96 0
 208 0040 EEE7     		b	.L10
 209              		.cfi_endproc
 210              	.LFE2:
 211              		.size	uavcan_protocol_param_ExecuteOpcodeRequest_decode_internal, .-uavcan_protocol_param_ExecuteO
 212              		.section	.text.uavcan_protocol_param_ExecuteOpcodeRequest_decode,"ax",%progbits
 213              		.align	1
 214              		.p2align 4,,15
 215              		.global	uavcan_protocol_param_ExecuteOpcodeRequest_decode
 216              		.syntax unified
 217              		.thumb
 218              		.thumb_func
 219              		.fpu fpv4-sp-d16
 220              		.type	uavcan_protocol_param_ExecuteOpcodeRequest_decode, %function
 221              	uavcan_protocol_param_ExecuteOpcodeRequest_decode:
 222              	.LFB3:
 223              		.loc 1 123 0
 224              		.cfi_startproc
 225              		@ args = 0, pretend = 0, frame = 0
 226              		@ frame_needed = 0, uses_anonymous_args = 0
 227              	.LVL27:
 228 0000 70B5     		push	{r4, r5, r6, lr}
ARM GAS  /tmp/cc7v9S6V.s 			page 5


 229              		.cfi_def_cfa_offset 16
 230              		.cfi_offset 4, -16
 231              		.cfi_offset 5, -12
 232              		.cfi_offset 6, -8
 233              		.cfi_offset 14, -4
 234 0002 541E     		subs	r4, r2, #1
 235 0004 82B0     		sub	sp, sp, #8
 236              		.cfi_def_cfa_offset 24
 237 0006 02F10F06 		add	r6, r2, #15
 238              	.LBB2:
 239              		.loc 1 130 0
 240 000a 0025     		movs	r5, #0
 241              	.LVL28:
 242              	.L16:
 243              		.loc 1 130 0 is_stmt 0 discriminator 3
 244 000c 04F8015F 		strb	r5, [r4, #1]!
 245              		.loc 1 128 0 is_stmt 1 discriminator 3
 246 0010 B442     		cmp	r4, r6
 247 0012 FBD1     		bne	.L16
 248              	.LBE2:
 249              		.loc 1 133 0
 250 0014 0095     		str	r5, [sp]
 251 0016 FFF7FEFF 		bl	uavcan_protocol_param_ExecuteOpcodeRequest_decode_internal
 252              	.LVL29:
 253              		.loc 1 136 0
 254 001a 02B0     		add	sp, sp, #8
 255              		.cfi_def_cfa_offset 16
 256              		@ sp needed
 257 001c 70BD     		pop	{r4, r5, r6, pc}
 258              		.cfi_endproc
 259              	.LFE3:
 260              		.size	uavcan_protocol_param_ExecuteOpcodeRequest_decode, .-uavcan_protocol_param_ExecuteOpcodeRequ
 261 001e 00BF     		.section	.text.uavcan_protocol_param_ExecuteOpcodeResponse_encode_internal,"ax",%progbits
 262              		.align	1
 263              		.p2align 4,,15
 264              		.global	uavcan_protocol_param_ExecuteOpcodeResponse_encode_internal
 265              		.syntax unified
 266              		.thumb
 267              		.thumb_func
 268              		.fpu fpv4-sp-d16
 269              		.type	uavcan_protocol_param_ExecuteOpcodeResponse_encode_internal, %function
 270              	uavcan_protocol_param_ExecuteOpcodeResponse_encode_internal:
 271              	.LFB4:
 272              		.loc 1 150 0
 273              		.cfi_startproc
 274              		@ args = 0, pretend = 0, frame = 0
 275              		@ frame_needed = 0, uses_anonymous_args = 0
 276              	.LVL30:
 277 0000 2DE9F04D 		push	{r4, r5, r6, r7, r8, r10, fp, lr}
 278              		.cfi_def_cfa_offset 32
 279              		.cfi_offset 4, -32
 280              		.cfi_offset 5, -28
 281              		.cfi_offset 6, -24
 282              		.cfi_offset 7, -20
 283              		.cfi_offset 8, -16
 284              		.cfi_offset 10, -12
 285              		.cfi_offset 11, -8
ARM GAS  /tmp/cc7v9S6V.s 			page 6


 286              		.cfi_offset 14, -4
 287              		.loc 1 151 0
 288 0004 D0E90045 		ldrd	r4, [r0]
 289 0008 4FF0010A 		mov	r10, #1
 290 000c DFF850B0 		ldr	fp, .L23
 291 0010 5445     		cmp	r4, r10
 292 0012 75EB0B03 		sbcs	r3, r5, fp
 293              	.LVL31:
 294              		.loc 1 150 0
 295 0016 1746     		mov	r7, r2
 296              		.loc 1 151 0
 297 0018 B8BF     		it	lt
 298 001a 5446     		movlt	r4, r10
 299 001c 4FF0FF32 		mov	r2, #-1
 300              	.LVL32:
 301 0020 B8BF     		it	lt
 302 0022 5D46     		movlt	r5, fp
 303 0024 47F6FF73 		movw	r3, #32767
 304 0028 A242     		cmp	r2, r4
 305              		.loc 1 150 0
 306 002a 8846     		mov	r8, r1
 307              		.loc 1 151 0
 308 002c 73EB0501 		sbcs	r1, r3, r5
 309              	.LVL33:
 310 0030 BCBF     		itt	lt
 311 0032 1446     		movlt	r4, r2
 312 0034 1D46     		movlt	r5, r3
 313              		.loc 1 150 0
 314 0036 0646     		mov	r6, r0
 315              		.loc 1 151 0
 316 0038 C0E90045 		strd	r4, [r0]
 317              		.loc 1 152 0
 318 003c 0346     		mov	r3, r0
 319 003e 3946     		mov	r1, r7
 320 0040 4046     		mov	r0, r8
 321              	.LVL34:
 322 0042 3022     		movs	r2, #48
 323 0044 FFF7FEFF 		bl	canardEncodeScalar
 324              	.LVL35:
 325              		.loc 1 156 0
 326 0048 4046     		mov	r0, r8
 327 004a 06F10803 		add	r3, r6, #8
 328 004e 0122     		movs	r2, #1
 329 0050 07F13001 		add	r1, r7, #48
 330              	.LVL36:
 331 0054 FFF7FEFF 		bl	canardEncodeScalar
 332              	.LVL37:
 333              		.loc 1 160 0
 334 0058 07F13100 		add	r0, r7, #49
 335              	.LVL38:
 336 005c BDE8F08D 		pop	{r4, r5, r6, r7, r8, r10, fp, pc}
 337              	.LVL39:
 338              	.L24:
 339              		.align	2
 340              	.L23:
 341 0060 0080FFFF 		.word	-32768
 342              		.cfi_endproc
ARM GAS  /tmp/cc7v9S6V.s 			page 7


 343              	.LFE4:
 344              		.size	uavcan_protocol_param_ExecuteOpcodeResponse_encode_internal, .-uavcan_protocol_param_Execute
 345              		.section	.text.uavcan_protocol_param_ExecuteOpcodeResponse_encode,"ax",%progbits
 346              		.align	1
 347              		.p2align 4,,15
 348              		.global	uavcan_protocol_param_ExecuteOpcodeResponse_encode
 349              		.syntax unified
 350              		.thumb
 351              		.thumb_func
 352              		.fpu fpv4-sp-d16
 353              		.type	uavcan_protocol_param_ExecuteOpcodeResponse_encode, %function
 354              	uavcan_protocol_param_ExecuteOpcodeResponse_encode:
 355              	.LFB5:
 356              		.loc 1 169 0
 357              		.cfi_startproc
 358              		@ args = 0, pretend = 0, frame = 0
 359              		@ frame_needed = 0, uses_anonymous_args = 0
 360              	.LVL40:
 361 0000 08B5     		push	{r3, lr}
 362              		.cfi_def_cfa_offset 8
 363              		.cfi_offset 3, -8
 364              		.cfi_offset 14, -4
 365              		.loc 1 172 0
 366 0002 0022     		movs	r2, #0
 367 0004 0123     		movs	r3, #1
 368 0006 FFF7FEFF 		bl	uavcan_protocol_param_ExecuteOpcodeResponse_encode_internal
 369              	.LVL41:
 370              		.loc 1 174 0
 371 000a 0730     		adds	r0, r0, #7
 372              	.LVL42:
 373              		.loc 1 175 0
 374 000c C008     		lsrs	r0, r0, #3
 375              	.LVL43:
 376 000e 08BD     		pop	{r3, pc}
 377              		.cfi_endproc
 378              	.LFE5:
 379              		.size	uavcan_protocol_param_ExecuteOpcodeResponse_encode, .-uavcan_protocol_param_ExecuteOpcodeRes
 380              		.section	.text.uavcan_protocol_param_ExecuteOpcodeResponse_decode_internal,"ax",%progbits
 381              		.align	1
 382              		.p2align 4,,15
 383              		.global	uavcan_protocol_param_ExecuteOpcodeResponse_decode_internal
 384              		.syntax unified
 385              		.thumb
 386              		.thumb_func
 387              		.fpu fpv4-sp-d16
 388              		.type	uavcan_protocol_param_ExecuteOpcodeResponse_decode_internal, %function
 389              	uavcan_protocol_param_ExecuteOpcodeResponse_decode_internal:
 390              	.LFB6:
 391              		.loc 1 194 0
 392              		.cfi_startproc
 393              		@ args = 4, pretend = 0, frame = 0
 394              		@ frame_needed = 0, uses_anonymous_args = 0
 395              	.LVL44:
 396 0000 30B5     		push	{r4, r5, lr}
 397              		.cfi_def_cfa_offset 12
 398              		.cfi_offset 4, -12
 399              		.cfi_offset 5, -8
ARM GAS  /tmp/cc7v9S6V.s 			page 8


 400              		.cfi_offset 14, -4
 401 0002 83B0     		sub	sp, sp, #12
 402              		.cfi_def_cfa_offset 24
 403              		.loc 1 194 0
 404 0004 1446     		mov	r4, r2
 405              		.loc 1 197 0
 406 0006 0092     		str	r2, [sp]
 407 0008 0699     		ldr	r1, [sp, #24]
 408              	.LVL45:
 409 000a 0123     		movs	r3, #1
 410              	.LVL46:
 411 000c 3022     		movs	r2, #48
 412              	.LVL47:
 413              		.loc 1 194 0
 414 000e 0546     		mov	r5, r0
 415              		.loc 1 197 0
 416 0010 FFF7FEFF 		bl	canardDecodeScalar
 417              	.LVL48:
 418              		.loc 1 198 0
 419 0014 3028     		cmp	r0, #48
 420 0016 05D0     		beq	.L31
 421              	.LVL49:
 422              	.L28:
 423              		.loc 1 213 0
 424 0018 0028     		cmp	r0, #0
 425              		.loc 1 219 0
 426 001a A8BF     		it	ge
 427 001c 6FF00800 		mvnge	r0, #8
 428              	.LVL50:
 429              	.L27:
 430              		.loc 1 221 0
 431 0020 03B0     		add	sp, sp, #12
 432              		.cfi_remember_state
 433              		.cfi_def_cfa_offset 12
 434              		@ sp needed
 435 0022 30BD     		pop	{r4, r5, pc}
 436              	.LVL51:
 437              	.L31:
 438              		.cfi_restore_state
 439              		.loc 1 204 0
 440 0024 0699     		ldr	r1, [sp, #24]
 441 0026 0834     		adds	r4, r4, #8
 442              	.LVL52:
 443 0028 0094     		str	r4, [sp]
 444 002a 2846     		mov	r0, r5
 445              	.LVL53:
 446 002c 0023     		movs	r3, #0
 447 002e 0122     		movs	r2, #1
 448 0030 3031     		adds	r1, r1, #48
 449              	.LVL54:
 450 0032 FFF7FEFF 		bl	canardDecodeScalar
 451              	.LVL55:
 452              		.loc 1 205 0
 453 0036 0128     		cmp	r0, #1
 454 0038 EED1     		bne	.L28
 455              		.loc 1 209 0
 456 003a 069B     		ldr	r3, [sp, #24]
ARM GAS  /tmp/cc7v9S6V.s 			page 9


 457 003c 03F13100 		add	r0, r3, #49
 458              	.LVL56:
 459              		.loc 1 210 0
 460 0040 EEE7     		b	.L27
 461              		.cfi_endproc
 462              	.LFE6:
 463              		.size	uavcan_protocol_param_ExecuteOpcodeResponse_decode_internal, .-uavcan_protocol_param_Execute
 464              		.section	.text.uavcan_protocol_param_ExecuteOpcodeResponse_decode,"ax",%progbits
 465              		.align	1
 466              		.p2align 4,,15
 467              		.global	uavcan_protocol_param_ExecuteOpcodeResponse_decode
 468              		.syntax unified
 469              		.thumb
 470              		.thumb_func
 471              		.fpu fpv4-sp-d16
 472              		.type	uavcan_protocol_param_ExecuteOpcodeResponse_decode, %function
 473              	uavcan_protocol_param_ExecuteOpcodeResponse_decode:
 474              	.LFB7:
 475              		.loc 1 237 0
 476              		.cfi_startproc
 477              		@ args = 0, pretend = 0, frame = 0
 478              		@ frame_needed = 0, uses_anonymous_args = 0
 479              	.LVL57:
 480 0000 70B5     		push	{r4, r5, r6, lr}
 481              		.cfi_def_cfa_offset 16
 482              		.cfi_offset 4, -16
 483              		.cfi_offset 5, -12
 484              		.cfi_offset 6, -8
 485              		.cfi_offset 14, -4
 486 0002 541E     		subs	r4, r2, #1
 487 0004 82B0     		sub	sp, sp, #8
 488              		.cfi_def_cfa_offset 24
 489 0006 02F10F06 		add	r6, r2, #15
 490              	.LBB3:
 491              		.loc 1 244 0
 492 000a 0025     		movs	r5, #0
 493              	.LVL58:
 494              	.L33:
 495              		.loc 1 244 0 is_stmt 0 discriminator 3
 496 000c 04F8015F 		strb	r5, [r4, #1]!
 497              		.loc 1 242 0 is_stmt 1 discriminator 3
 498 0010 B442     		cmp	r4, r6
 499 0012 FBD1     		bne	.L33
 500              	.LBE3:
 501              		.loc 1 247 0
 502 0014 0095     		str	r5, [sp]
 503 0016 FFF7FEFF 		bl	uavcan_protocol_param_ExecuteOpcodeResponse_decode_internal
 504              	.LVL59:
 505              		.loc 1 250 0
 506 001a 02B0     		add	sp, sp, #8
 507              		.cfi_def_cfa_offset 16
 508              		@ sp needed
 509 001c 70BD     		pop	{r4, r5, r6, pc}
 510              		.cfi_endproc
 511              	.LFE7:
 512              		.size	uavcan_protocol_param_ExecuteOpcodeResponse_decode, .-uavcan_protocol_param_ExecuteOpcodeRes
 513 001e 00BF     		.text
ARM GAS  /tmp/cc7v9S6V.s 			page 10


 514              	.Letext0:
 515              		.file 2 "/usr/arm-none-eabi/include/machine/_default_types.h"
 516              		.file 3 "/usr/arm-none-eabi/include/sys/_stdint.h"
 517              		.file 4 "libcanard/canard.h"
 518              		.file 5 "libcanard/dsdl/uavcan/protocol/param/ExecuteOpcode.h"
 519              		.section	.debug_info,"",%progbits
 520              	.Ldebug_info0:
 521 0000 77070000 		.4byte	0x777
 522 0004 0400     		.2byte	0x4
 523 0006 00000000 		.4byte	.Ldebug_abbrev0
 524 000a 04       		.byte	0x4
 525 000b 01       		.uleb128 0x1
 526 000c DE040000 		.4byte	.LASF60
 527 0010 0C       		.byte	0xc
 528 0011 96040000 		.4byte	.LASF61
 529 0015 1C020000 		.4byte	.LASF62
 530 0019 00000000 		.4byte	.Ldebug_ranges0+0
 531 001d 00000000 		.4byte	0
 532 0021 00000000 		.4byte	.Ldebug_line0
 533 0025 02       		.uleb128 0x2
 534 0026 01       		.byte	0x1
 535 0027 06       		.byte	0x6
 536 0028 22020000 		.4byte	.LASF0
 537 002c 03       		.uleb128 0x3
 538 002d A6010000 		.4byte	.LASF3
 539 0031 02       		.byte	0x2
 540 0032 2B       		.byte	0x2b
 541 0033 37000000 		.4byte	0x37
 542 0037 02       		.uleb128 0x2
 543 0038 01       		.byte	0x1
 544 0039 08       		.byte	0x8
 545 003a D3010000 		.4byte	.LASF1
 546 003e 02       		.uleb128 0x2
 547 003f 02       		.byte	0x2
 548 0040 05       		.byte	0x5
 549 0041 5F000000 		.4byte	.LASF2
 550 0045 03       		.uleb128 0x3
 551 0046 E3000000 		.4byte	.LASF4
 552 004a 02       		.byte	0x2
 553 004b 39       		.byte	0x39
 554 004c 50000000 		.4byte	0x50
 555 0050 02       		.uleb128 0x2
 556 0051 02       		.byte	0x2
 557 0052 07       		.byte	0x7
 558 0053 8E020000 		.4byte	.LASF5
 559 0057 03       		.uleb128 0x3
 560 0058 F4030000 		.4byte	.LASF6
 561 005c 02       		.byte	0x2
 562 005d 4D       		.byte	0x4d
 563 005e 62000000 		.4byte	0x62
 564 0062 02       		.uleb128 0x2
 565 0063 04       		.byte	0x4
 566 0064 05       		.byte	0x5
 567 0065 8C010000 		.4byte	.LASF7
 568 0069 03       		.uleb128 0x3
 569 006a D8000000 		.4byte	.LASF8
 570 006e 02       		.byte	0x2
ARM GAS  /tmp/cc7v9S6V.s 			page 11


 571 006f 4F       		.byte	0x4f
 572 0070 74000000 		.4byte	0x74
 573 0074 02       		.uleb128 0x2
 574 0075 04       		.byte	0x4
 575 0076 07       		.byte	0x7
 576 0077 A5030000 		.4byte	.LASF9
 577 007b 03       		.uleb128 0x3
 578 007c 95010000 		.4byte	.LASF10
 579 0080 02       		.byte	0x2
 580 0081 67       		.byte	0x67
 581 0082 86000000 		.4byte	0x86
 582 0086 02       		.uleb128 0x2
 583 0087 08       		.byte	0x8
 584 0088 05       		.byte	0x5
 585 0089 40010000 		.4byte	.LASF11
 586 008d 03       		.uleb128 0x3
 587 008e 50030000 		.4byte	.LASF12
 588 0092 02       		.byte	0x2
 589 0093 69       		.byte	0x69
 590 0094 98000000 		.4byte	0x98
 591 0098 02       		.uleb128 0x2
 592 0099 08       		.byte	0x8
 593 009a 07       		.byte	0x7
 594 009b 2E020000 		.4byte	.LASF13
 595 009f 04       		.uleb128 0x4
 596 00a0 04       		.byte	0x4
 597 00a1 05       		.byte	0x5
 598 00a2 696E7400 		.ascii	"int\000"
 599 00a6 02       		.uleb128 0x2
 600 00a7 04       		.byte	0x4
 601 00a8 07       		.byte	0x7
 602 00a9 4E020000 		.4byte	.LASF14
 603 00ad 03       		.uleb128 0x3
 604 00ae 31010000 		.4byte	.LASF15
 605 00b2 03       		.byte	0x3
 606 00b3 18       		.byte	0x18
 607 00b4 2C000000 		.4byte	0x2c
 608 00b8 05       		.uleb128 0x5
 609 00b9 AD000000 		.4byte	0xad
 610 00bd 03       		.uleb128 0x3
 611 00be 5B020000 		.4byte	.LASF16
 612 00c2 03       		.byte	0x3
 613 00c3 24       		.byte	0x24
 614 00c4 45000000 		.4byte	0x45
 615 00c8 03       		.uleb128 0x3
 616 00c9 BF020000 		.4byte	.LASF17
 617 00cd 03       		.byte	0x3
 618 00ce 2C       		.byte	0x2c
 619 00cf 57000000 		.4byte	0x57
 620 00d3 05       		.uleb128 0x5
 621 00d4 C8000000 		.4byte	0xc8
 622 00d8 03       		.uleb128 0x3
 623 00d9 45020000 		.4byte	.LASF18
 624 00dd 03       		.byte	0x3
 625 00de 30       		.byte	0x30
 626 00df 69000000 		.4byte	0x69
 627 00e3 03       		.uleb128 0x3
ARM GAS  /tmp/cc7v9S6V.s 			page 12


 628 00e4 29010000 		.4byte	.LASF19
 629 00e8 03       		.byte	0x3
 630 00e9 38       		.byte	0x38
 631 00ea 7B000000 		.4byte	0x7b
 632 00ee 03       		.uleb128 0x3
 633 00ef 56000000 		.4byte	.LASF20
 634 00f3 03       		.byte	0x3
 635 00f4 3C       		.byte	0x3c
 636 00f5 8D000000 		.4byte	0x8d
 637 00f9 03       		.uleb128 0x3
 638 00fa 94030000 		.4byte	.LASF21
 639 00fe 04       		.byte	0x4
 640 00ff 99       		.byte	0x99
 641 0100 09010000 		.4byte	0x109
 642 0104 05       		.uleb128 0x5
 643 0105 F9000000 		.4byte	0xf9
 644 0109 06       		.uleb128 0x6
 645 010a 94030000 		.4byte	.LASF21
 646 010e 20       		.byte	0x20
 647 010f 04       		.byte	0x4
 648 0110 0F01     		.2byte	0x10f
 649 0112 99010000 		.4byte	0x199
 650 0116 07       		.uleb128 0x7
 651 0117 C4010000 		.4byte	.LASF22
 652 011b 04       		.byte	0x4
 653 011c 1401     		.2byte	0x114
 654 011e EE000000 		.4byte	0xee
 655 0122 00       		.byte	0
 656 0123 07       		.uleb128 0x7
 657 0124 11030000 		.4byte	.LASF23
 658 0128 04       		.byte	0x4
 659 0129 2801     		.2byte	0x128
 660 012b F4010000 		.4byte	0x1f4
 661 012f 08       		.byte	0x8
 662 0130 07       		.uleb128 0x7
 663 0131 0D020000 		.4byte	.LASF24
 664 0135 04       		.byte	0x4
 665 0136 2D01     		.2byte	0x12d
 666 0138 EC010000 		.4byte	0x1ec
 667 013c 0C       		.byte	0xc
 668 013d 07       		.uleb128 0x7
 669 013e B7010000 		.4byte	.LASF25
 670 0142 04       		.byte	0x4
 671 0143 2F01     		.2byte	0x12f
 672 0145 F4010000 		.4byte	0x1f4
 673 0149 10       		.byte	0x10
 674 014a 07       		.uleb128 0x7
 675 014b 35040000 		.4byte	.LASF26
 676 014f 04       		.byte	0x4
 677 0150 3101     		.2byte	0x131
 678 0152 BD000000 		.4byte	0xbd
 679 0156 14       		.byte	0x14
 680 0157 07       		.uleb128 0x7
 681 0158 3B000000 		.4byte	.LASF27
 682 015c 04       		.byte	0x4
 683 015d 3601     		.2byte	0x136
 684 015f BD000000 		.4byte	0xbd
ARM GAS  /tmp/cc7v9S6V.s 			page 13


 685 0163 16       		.byte	0x16
 686 0164 07       		.uleb128 0x7
 687 0165 C7020000 		.4byte	.LASF28
 688 0169 04       		.byte	0x4
 689 016a 3701     		.2byte	0x137
 690 016c AD000000 		.4byte	0xad
 691 0170 18       		.byte	0x18
 692 0171 07       		.uleb128 0x7
 693 0172 41040000 		.4byte	.LASF29
 694 0176 04       		.byte	0x4
 695 0177 3801     		.2byte	0x138
 696 0179 AD000000 		.4byte	0xad
 697 017d 19       		.byte	0x19
 698 017e 07       		.uleb128 0x7
 699 017f 4D000000 		.4byte	.LASF30
 700 0183 04       		.byte	0x4
 701 0184 3901     		.2byte	0x139
 702 0186 AD000000 		.4byte	0xad
 703 018a 1A       		.byte	0x1a
 704 018b 07       		.uleb128 0x7
 705 018c 7F020000 		.4byte	.LASF31
 706 0190 04       		.byte	0x4
 707 0191 3A01     		.2byte	0x13a
 708 0193 AD000000 		.4byte	0xad
 709 0197 1B       		.byte	0x1b
 710 0198 00       		.byte	0
 711 0199 02       		.uleb128 0x2
 712 019a 01       		.byte	0x1
 713 019b 02       		.byte	0x2
 714 019c B9020000 		.4byte	.LASF32
 715 01a0 02       		.uleb128 0x2
 716 01a1 01       		.byte	0x1
 717 01a2 08       		.byte	0x8
 718 01a3 B4020000 		.4byte	.LASF33
 719 01a7 08       		.uleb128 0x8
 720 01a8 64020000 		.4byte	.LASF34
 721 01ac 04       		.byte	0x4
 722 01ad 04       		.byte	0x4
 723 01ae D7       		.byte	0xd7
 724 01af CC010000 		.4byte	0x1cc
 725 01b3 09       		.uleb128 0x9
 726 01b4 D9040000 		.4byte	.LASF35
 727 01b8 04       		.byte	0x4
 728 01b9 D9       		.byte	0xd9
 729 01ba CC010000 		.4byte	0x1cc
 730 01be 00       		.byte	0
 731 01bf 09       		.uleb128 0x9
 732 01c0 5B030000 		.4byte	.LASF36
 733 01c4 04       		.byte	0x4
 734 01c5 DA       		.byte	0xda
 735 01c6 D2010000 		.4byte	0x1d2
 736 01ca 04       		.byte	0x4
 737 01cb 00       		.byte	0
 738 01cc 0A       		.uleb128 0xa
 739 01cd 04       		.byte	0x4
 740 01ce A7010000 		.4byte	0x1a7
 741 01d2 0B       		.uleb128 0xb
ARM GAS  /tmp/cc7v9S6V.s 			page 14


 742 01d3 AD000000 		.4byte	0xad
 743 01d7 E1010000 		.4byte	0x1e1
 744 01db 0C       		.uleb128 0xc
 745 01dc A6000000 		.4byte	0xa6
 746 01e0 00       		.byte	0
 747 01e1 03       		.uleb128 0x3
 748 01e2 64020000 		.4byte	.LASF34
 749 01e6 04       		.byte	0x4
 750 01e7 DB       		.byte	0xdb
 751 01e8 A7010000 		.4byte	0x1a7
 752 01ec 0A       		.uleb128 0xa
 753 01ed 04       		.byte	0x4
 754 01ee E1010000 		.4byte	0x1e1
 755 01f2 0D       		.uleb128 0xd
 756 01f3 04       		.byte	0x4
 757 01f4 0A       		.uleb128 0xa
 758 01f5 04       		.byte	0x4
 759 01f6 B8000000 		.4byte	0xb8
 760 01fa 0E       		.uleb128 0xe
 761 01fb 10       		.byte	0x10
 762 01fc 05       		.byte	0x5
 763 01fd 4C       		.byte	0x4c
 764 01fe 1B020000 		.4byte	0x21b
 765 0202 09       		.uleb128 0x9
 766 0203 39010000 		.4byte	.LASF37
 767 0207 05       		.byte	0x5
 768 0208 4F       		.byte	0x4f
 769 0209 AD000000 		.4byte	0xad
 770 020d 00       		.byte	0
 771 020e 09       		.uleb128 0x9
 772 020f 76020000 		.4byte	.LASF38
 773 0213 05       		.byte	0x5
 774 0214 50       		.byte	0x50
 775 0215 E3000000 		.4byte	0xe3
 776 0219 08       		.byte	0x8
 777 021a 00       		.byte	0
 778 021b 03       		.uleb128 0x3
 779 021c 69030000 		.4byte	.LASF39
 780 0220 05       		.byte	0x5
 781 0221 52       		.byte	0x52
 782 0222 FA010000 		.4byte	0x1fa
 783 0226 0E       		.uleb128 0xe
 784 0227 10       		.byte	0x10
 785 0228 05       		.byte	0x5
 786 0229 64       		.byte	0x64
 787 022a 46020000 		.4byte	0x246
 788 022e 09       		.uleb128 0x9
 789 022f 76020000 		.4byte	.LASF38
 790 0233 05       		.byte	0x5
 791 0234 67       		.byte	0x67
 792 0235 E3000000 		.4byte	0xe3
 793 0239 00       		.byte	0
 794 023a 0F       		.uleb128 0xf
 795 023b 6F6B00   		.ascii	"ok\000"
 796 023e 05       		.byte	0x5
 797 023f 68       		.byte	0x68
 798 0240 99010000 		.4byte	0x199
ARM GAS  /tmp/cc7v9S6V.s 			page 15


 799 0244 08       		.byte	0x8
 800 0245 00       		.byte	0
 801 0246 03       		.uleb128 0x3
 802 0247 E1010000 		.4byte	.LASF40
 803 024b 05       		.byte	0x5
 804 024c 6A       		.byte	0x6a
 805 024d 26020000 		.4byte	0x226
 806 0251 10       		.uleb128 0x10
 807 0252 69000000 		.4byte	.LASF45
 808 0256 01       		.byte	0x1
 809 0257 E9       		.byte	0xe9
 810 0258 C8000000 		.4byte	0xc8
 811 025c 00000000 		.4byte	.LFB7
 812 0260 1E000000 		.4byte	.LFE7-.LFB7
 813 0264 01       		.uleb128 0x1
 814 0265 9C       		.byte	0x9c
 815 0266 EE020000 		.4byte	0x2ee
 816 026a 11       		.uleb128 0x11
 817 026b 60030000 		.4byte	.LASF41
 818 026f 01       		.byte	0x1
 819 0270 E9       		.byte	0xe9
 820 0271 EE020000 		.4byte	0x2ee
 821 0275 00000000 		.4byte	.LLST32
 822 0279 11       		.uleb128 0x11
 823 027a 35040000 		.4byte	.LASF26
 824 027e 01       		.byte	0x1
 825 027f EA       		.byte	0xea
 826 0280 BD000000 		.4byte	0xbd
 827 0284 21000000 		.4byte	.LLST33
 828 0288 11       		.uleb128 0x11
 829 0289 48000000 		.4byte	.LASF42
 830 028d 01       		.byte	0x1
 831 028e EB       		.byte	0xeb
 832 028f F4020000 		.4byte	0x2f4
 833 0293 42000000 		.4byte	.LLST34
 834 0297 11       		.uleb128 0x11
 835 0298 4E010000 		.4byte	.LASF43
 836 029c 01       		.byte	0x1
 837 029d EC       		.byte	0xec
 838 029e FA020000 		.4byte	0x2fa
 839 02a2 62000000 		.4byte	.LLST35
 840 02a6 12       		.uleb128 0x12
 841 02a7 9F010000 		.4byte	.LASF44
 842 02ab 01       		.byte	0x1
 843 02ac EE       		.byte	0xee
 844 02ad D3000000 		.4byte	0xd3
 845 02b1 00       		.byte	0
 846 02b2 13       		.uleb128 0x13
 847 02b3 72657400 		.ascii	"ret\000"
 848 02b7 01       		.byte	0x1
 849 02b8 EF       		.byte	0xef
 850 02b9 C8000000 		.4byte	0xc8
 851 02bd 83000000 		.4byte	.LLST36
 852 02c1 14       		.uleb128 0x14
 853 02c2 0A000000 		.4byte	.LBB3
 854 02c6 0A000000 		.4byte	.LBE3-.LBB3
 855 02ca DC020000 		.4byte	0x2dc
ARM GAS  /tmp/cc7v9S6V.s 			page 16


 856 02ce 13       		.uleb128 0x13
 857 02cf 6300     		.ascii	"c\000"
 858 02d1 01       		.byte	0x1
 859 02d2 F2       		.byte	0xf2
 860 02d3 D8000000 		.4byte	0xd8
 861 02d7 A2000000 		.4byte	.LLST37
 862 02db 00       		.byte	0
 863 02dc 15       		.uleb128 0x15
 864 02dd 1A000000 		.4byte	.LVL59
 865 02e1 06030000 		.4byte	0x306
 866 02e5 16       		.uleb128 0x16
 867 02e6 02       		.uleb128 0x2
 868 02e7 7D       		.byte	0x7d
 869 02e8 00       		.sleb128 0
 870 02e9 02       		.uleb128 0x2
 871 02ea 75       		.byte	0x75
 872 02eb 00       		.sleb128 0
 873 02ec 00       		.byte	0
 874 02ed 00       		.byte	0
 875 02ee 0A       		.uleb128 0xa
 876 02ef 04       		.byte	0x4
 877 02f0 04010000 		.4byte	0x104
 878 02f4 0A       		.uleb128 0xa
 879 02f5 04       		.byte	0x4
 880 02f6 46020000 		.4byte	0x246
 881 02fa 0A       		.uleb128 0xa
 882 02fb 04       		.byte	0x4
 883 02fc 00030000 		.4byte	0x300
 884 0300 0A       		.uleb128 0xa
 885 0301 04       		.byte	0x4
 886 0302 AD000000 		.4byte	0xad
 887 0306 10       		.uleb128 0x10
 888 0307 D5020000 		.4byte	.LASF46
 889 030b 01       		.byte	0x1
 890 030c BC       		.byte	0xbc
 891 030d C8000000 		.4byte	0xc8
 892 0311 00000000 		.4byte	.LFB6
 893 0315 42000000 		.4byte	.LFE6-.LFB6
 894 0319 01       		.uleb128 0x1
 895 031a 9C       		.byte	0x9c
 896 031b DC030000 		.4byte	0x3dc
 897 031f 11       		.uleb128 0x11
 898 0320 60030000 		.4byte	.LASF41
 899 0324 01       		.byte	0x1
 900 0325 BD       		.byte	0xbd
 901 0326 EE020000 		.4byte	0x2ee
 902 032a B6000000 		.4byte	.LLST26
 903 032e 11       		.uleb128 0x11
 904 032f 35040000 		.4byte	.LASF26
 905 0333 01       		.byte	0x1
 906 0334 BE       		.byte	0xbe
 907 0335 BD000000 		.4byte	0xbd
 908 0339 D4000000 		.4byte	.LLST27
 909 033d 11       		.uleb128 0x11
 910 033e 48000000 		.4byte	.LASF42
 911 0342 01       		.byte	0x1
 912 0343 BF       		.byte	0xbf
ARM GAS  /tmp/cc7v9S6V.s 			page 17


 913 0344 F4020000 		.4byte	0x2f4
 914 0348 F5000000 		.4byte	.LLST28
 915 034c 11       		.uleb128 0x11
 916 034d 4E010000 		.4byte	.LASF43
 917 0351 01       		.byte	0x1
 918 0352 C0       		.byte	0xc0
 919 0353 FA020000 		.4byte	0x2fa
 920 0357 39010000 		.4byte	.LLST29
 921 035b 11       		.uleb128 0x11
 922 035c 9F010000 		.4byte	.LASF44
 923 0360 01       		.byte	0x1
 924 0361 C1       		.byte	0xc1
 925 0362 C8000000 		.4byte	0xc8
 926 0366 5A010000 		.4byte	.LLST30
 927 036a 13       		.uleb128 0x13
 928 036b 72657400 		.ascii	"ret\000"
 929 036f 01       		.byte	0x1
 930 0370 C3       		.byte	0xc3
 931 0371 C8000000 		.4byte	0xc8
 932 0375 A4010000 		.4byte	.LLST31
 933 0379 17       		.uleb128 0x17
 934 037a FE030000 		.4byte	.LASF54
 935 037e 01       		.byte	0x1
 936 037f D4       		.byte	0xd4
 937 0380 18000000 		.4byte	.L28
 938 0384 18       		.uleb128 0x18
 939 0385 14000000 		.4byte	.LVL48
 940 0389 62070000 		.4byte	0x762
 941 038d B1030000 		.4byte	0x3b1
 942 0391 16       		.uleb128 0x16
 943 0392 01       		.uleb128 0x1
 944 0393 50       		.byte	0x50
 945 0394 02       		.uleb128 0x2
 946 0395 75       		.byte	0x75
 947 0396 00       		.sleb128 0
 948 0397 16       		.uleb128 0x16
 949 0398 01       		.uleb128 0x1
 950 0399 51       		.byte	0x51
 951 039a 03       		.uleb128 0x3
 952 039b 91       		.byte	0x91
 953 039c 00       		.sleb128 0
 954 039d 06       		.byte	0x6
 955 039e 16       		.uleb128 0x16
 956 039f 01       		.uleb128 0x1
 957 03a0 52       		.byte	0x52
 958 03a1 02       		.uleb128 0x2
 959 03a2 08       		.byte	0x8
 960 03a3 30       		.byte	0x30
 961 03a4 16       		.uleb128 0x16
 962 03a5 01       		.uleb128 0x1
 963 03a6 53       		.byte	0x53
 964 03a7 01       		.uleb128 0x1
 965 03a8 31       		.byte	0x31
 966 03a9 16       		.uleb128 0x16
 967 03aa 02       		.uleb128 0x2
 968 03ab 7D       		.byte	0x7d
 969 03ac 00       		.sleb128 0
ARM GAS  /tmp/cc7v9S6V.s 			page 18


 970 03ad 02       		.uleb128 0x2
 971 03ae 74       		.byte	0x74
 972 03af 00       		.sleb128 0
 973 03b0 00       		.byte	0
 974 03b1 15       		.uleb128 0x15
 975 03b2 36000000 		.4byte	.LVL55
 976 03b6 62070000 		.4byte	0x762
 977 03ba 16       		.uleb128 0x16
 978 03bb 01       		.uleb128 0x1
 979 03bc 50       		.byte	0x50
 980 03bd 02       		.uleb128 0x2
 981 03be 75       		.byte	0x75
 982 03bf 00       		.sleb128 0
 983 03c0 16       		.uleb128 0x16
 984 03c1 01       		.uleb128 0x1
 985 03c2 51       		.byte	0x51
 986 03c3 05       		.uleb128 0x5
 987 03c4 91       		.byte	0x91
 988 03c5 00       		.sleb128 0
 989 03c6 06       		.byte	0x6
 990 03c7 23       		.byte	0x23
 991 03c8 30       		.uleb128 0x30
 992 03c9 16       		.uleb128 0x16
 993 03ca 01       		.uleb128 0x1
 994 03cb 52       		.byte	0x52
 995 03cc 01       		.uleb128 0x1
 996 03cd 31       		.byte	0x31
 997 03ce 16       		.uleb128 0x16
 998 03cf 01       		.uleb128 0x1
 999 03d0 53       		.byte	0x53
 1000 03d1 01       		.uleb128 0x1
 1001 03d2 30       		.byte	0x30
 1002 03d3 16       		.uleb128 0x16
 1003 03d4 02       		.uleb128 0x2
 1004 03d5 7D       		.byte	0x7d
 1005 03d6 00       		.sleb128 0
 1006 03d7 02       		.uleb128 0x2
 1007 03d8 74       		.byte	0x74
 1008 03d9 00       		.sleb128 0
 1009 03da 00       		.byte	0
 1010 03db 00       		.byte	0
 1011 03dc 10       		.uleb128 0x10
 1012 03dd B7030000 		.4byte	.LASF47
 1013 03e1 01       		.byte	0x1
 1014 03e2 A8       		.byte	0xa8
 1015 03e3 D8000000 		.4byte	0xd8
 1016 03e7 00000000 		.4byte	.LFB5
 1017 03eb 10000000 		.4byte	.LFE5-.LFB5
 1018 03ef 01       		.uleb128 0x1
 1019 03f0 9C       		.byte	0x9c
 1020 03f1 45040000 		.4byte	0x445
 1021 03f5 11       		.uleb128 0x11
 1022 03f6 B0010000 		.4byte	.LASF48
 1023 03fa 01       		.byte	0x1
 1024 03fb A8       		.byte	0xa8
 1025 03fc F4020000 		.4byte	0x2f4
 1026 0400 D9010000 		.4byte	.LLST23
ARM GAS  /tmp/cc7v9S6V.s 			page 19


 1027 0404 11       		.uleb128 0x11
 1028 0405 D1040000 		.4byte	.LASF49
 1029 0409 01       		.byte	0x1
 1030 040a A8       		.byte	0xa8
 1031 040b F2010000 		.4byte	0x1f2
 1032 040f FA010000 		.4byte	.LLST24
 1033 0413 19       		.uleb128 0x19
 1034 0414 9F010000 		.4byte	.LASF44
 1035 0418 01       		.byte	0x1
 1036 0419 AA       		.byte	0xaa
 1037 041a D8000000 		.4byte	0xd8
 1038 041e 1B020000 		.4byte	.LLST25
 1039 0422 15       		.uleb128 0x15
 1040 0423 0A000000 		.4byte	.LVL41
 1041 0427 45040000 		.4byte	0x445
 1042 042b 16       		.uleb128 0x16
 1043 042c 01       		.uleb128 0x1
 1044 042d 50       		.byte	0x50
 1045 042e 03       		.uleb128 0x3
 1046 042f F3       		.byte	0xf3
 1047 0430 01       		.uleb128 0x1
 1048 0431 50       		.byte	0x50
 1049 0432 16       		.uleb128 0x16
 1050 0433 01       		.uleb128 0x1
 1051 0434 51       		.byte	0x51
 1052 0435 03       		.uleb128 0x3
 1053 0436 F3       		.byte	0xf3
 1054 0437 01       		.uleb128 0x1
 1055 0438 51       		.byte	0x51
 1056 0439 16       		.uleb128 0x16
 1057 043a 01       		.uleb128 0x1
 1058 043b 52       		.byte	0x52
 1059 043c 01       		.uleb128 0x1
 1060 043d 30       		.byte	0x30
 1061 043e 16       		.uleb128 0x16
 1062 043f 01       		.uleb128 0x1
 1063 0440 53       		.byte	0x53
 1064 0441 01       		.uleb128 0x1
 1065 0442 31       		.byte	0x31
 1066 0443 00       		.byte	0
 1067 0444 00       		.byte	0
 1068 0445 10       		.uleb128 0x10
 1069 0446 9C000000 		.4byte	.LASF50
 1070 044a 01       		.byte	0x1
 1071 044b 92       		.byte	0x92
 1072 044c D8000000 		.4byte	0xd8
 1073 0450 00000000 		.4byte	.LFB4
 1074 0454 64000000 		.4byte	.LFE4-.LFB4
 1075 0458 01       		.uleb128 0x1
 1076 0459 9C       		.byte	0x9c
 1077 045a E3040000 		.4byte	0x4e3
 1078 045e 11       		.uleb128 0x11
 1079 045f B0010000 		.4byte	.LASF48
 1080 0463 01       		.byte	0x1
 1081 0464 92       		.byte	0x92
 1082 0465 F4020000 		.4byte	0x2f4
 1083 0469 47020000 		.4byte	.LLST19
ARM GAS  /tmp/cc7v9S6V.s 			page 20


 1084 046d 11       		.uleb128 0x11
 1085 046e D1040000 		.4byte	.LASF49
 1086 0472 01       		.byte	0x1
 1087 0473 93       		.byte	0x93
 1088 0474 F2010000 		.4byte	0x1f2
 1089 0478 7E020000 		.4byte	.LLST20
 1090 047c 11       		.uleb128 0x11
 1091 047d 9F010000 		.4byte	.LASF44
 1092 0481 01       		.byte	0x1
 1093 0482 94       		.byte	0x94
 1094 0483 D8000000 		.4byte	0xd8
 1095 0487 AA020000 		.4byte	.LLST21
 1096 048b 11       		.uleb128 0x11
 1097 048c EA030000 		.4byte	.LASF51
 1098 0490 01       		.byte	0x1
 1099 0491 95       		.byte	0x95
 1100 0492 AD000000 		.4byte	0xad
 1101 0496 05030000 		.4byte	.LLST22
 1102 049a 18       		.uleb128 0x18
 1103 049b 48000000 		.4byte	.LVL35
 1104 049f 6E070000 		.4byte	0x76e
 1105 04a3 C0040000 		.4byte	0x4c0
 1106 04a7 16       		.uleb128 0x16
 1107 04a8 01       		.uleb128 0x1
 1108 04a9 50       		.byte	0x50
 1109 04aa 02       		.uleb128 0x2
 1110 04ab 78       		.byte	0x78
 1111 04ac 00       		.sleb128 0
 1112 04ad 16       		.uleb128 0x16
 1113 04ae 01       		.uleb128 0x1
 1114 04af 51       		.byte	0x51
 1115 04b0 02       		.uleb128 0x2
 1116 04b1 77       		.byte	0x77
 1117 04b2 00       		.sleb128 0
 1118 04b3 16       		.uleb128 0x16
 1119 04b4 01       		.uleb128 0x1
 1120 04b5 52       		.byte	0x52
 1121 04b6 02       		.uleb128 0x2
 1122 04b7 08       		.byte	0x8
 1123 04b8 30       		.byte	0x30
 1124 04b9 16       		.uleb128 0x16
 1125 04ba 01       		.uleb128 0x1
 1126 04bb 53       		.byte	0x53
 1127 04bc 02       		.uleb128 0x2
 1128 04bd 76       		.byte	0x76
 1129 04be 00       		.sleb128 0
 1130 04bf 00       		.byte	0
 1131 04c0 15       		.uleb128 0x15
 1132 04c1 58000000 		.4byte	.LVL37
 1133 04c5 6E070000 		.4byte	0x76e
 1134 04c9 16       		.uleb128 0x16
 1135 04ca 01       		.uleb128 0x1
 1136 04cb 50       		.byte	0x50
 1137 04cc 02       		.uleb128 0x2
 1138 04cd 78       		.byte	0x78
 1139 04ce 00       		.sleb128 0
 1140 04cf 16       		.uleb128 0x16
ARM GAS  /tmp/cc7v9S6V.s 			page 21


 1141 04d0 01       		.uleb128 0x1
 1142 04d1 51       		.byte	0x51
 1143 04d2 02       		.uleb128 0x2
 1144 04d3 77       		.byte	0x77
 1145 04d4 30       		.sleb128 48
 1146 04d5 16       		.uleb128 0x16
 1147 04d6 01       		.uleb128 0x1
 1148 04d7 52       		.byte	0x52
 1149 04d8 02       		.uleb128 0x2
 1150 04d9 7A       		.byte	0x7a
 1151 04da 00       		.sleb128 0
 1152 04db 16       		.uleb128 0x16
 1153 04dc 01       		.uleb128 0x1
 1154 04dd 53       		.byte	0x53
 1155 04de 02       		.uleb128 0x2
 1156 04df 76       		.byte	0x76
 1157 04e0 08       		.sleb128 8
 1158 04e1 00       		.byte	0
 1159 04e2 00       		.byte	0
 1160 04e3 10       		.uleb128 0x10
 1161 04e4 1E030000 		.4byte	.LASF52
 1162 04e8 01       		.byte	0x1
 1163 04e9 77       		.byte	0x77
 1164 04ea C8000000 		.4byte	0xc8
 1165 04ee 00000000 		.4byte	.LFB3
 1166 04f2 1E000000 		.4byte	.LFE3-.LFB3
 1167 04f6 01       		.uleb128 0x1
 1168 04f7 9C       		.byte	0x9c
 1169 04f8 80050000 		.4byte	0x580
 1170 04fc 11       		.uleb128 0x11
 1171 04fd 60030000 		.4byte	.LASF41
 1172 0501 01       		.byte	0x1
 1173 0502 77       		.byte	0x77
 1174 0503 EE020000 		.4byte	0x2ee
 1175 0507 26030000 		.4byte	.LLST13
 1176 050b 11       		.uleb128 0x11
 1177 050c 35040000 		.4byte	.LASF26
 1178 0510 01       		.byte	0x1
 1179 0511 78       		.byte	0x78
 1180 0512 BD000000 		.4byte	0xbd
 1181 0516 47030000 		.4byte	.LLST14
 1182 051a 11       		.uleb128 0x11
 1183 051b 48000000 		.4byte	.LASF42
 1184 051f 01       		.byte	0x1
 1185 0520 79       		.byte	0x79
 1186 0521 80050000 		.4byte	0x580
 1187 0525 68030000 		.4byte	.LLST15
 1188 0529 11       		.uleb128 0x11
 1189 052a 4E010000 		.4byte	.LASF43
 1190 052e 01       		.byte	0x1
 1191 052f 7A       		.byte	0x7a
 1192 0530 FA020000 		.4byte	0x2fa
 1193 0534 88030000 		.4byte	.LLST16
 1194 0538 12       		.uleb128 0x12
 1195 0539 9F010000 		.4byte	.LASF44
 1196 053d 01       		.byte	0x1
 1197 053e 7C       		.byte	0x7c
ARM GAS  /tmp/cc7v9S6V.s 			page 22


 1198 053f D3000000 		.4byte	0xd3
 1199 0543 00       		.byte	0
 1200 0544 13       		.uleb128 0x13
 1201 0545 72657400 		.ascii	"ret\000"
 1202 0549 01       		.byte	0x1
 1203 054a 7D       		.byte	0x7d
 1204 054b C8000000 		.4byte	0xc8
 1205 054f A9030000 		.4byte	.LLST17
 1206 0553 14       		.uleb128 0x14
 1207 0554 0A000000 		.4byte	.LBB2
 1208 0558 0A000000 		.4byte	.LBE2-.LBB2
 1209 055c 6E050000 		.4byte	0x56e
 1210 0560 13       		.uleb128 0x13
 1211 0561 6300     		.ascii	"c\000"
 1212 0563 01       		.byte	0x1
 1213 0564 80       		.byte	0x80
 1214 0565 D8000000 		.4byte	0xd8
 1215 0569 C8030000 		.4byte	.LLST18
 1216 056d 00       		.byte	0
 1217 056e 15       		.uleb128 0x15
 1218 056f 1A000000 		.4byte	.LVL29
 1219 0573 86050000 		.4byte	0x586
 1220 0577 16       		.uleb128 0x16
 1221 0578 02       		.uleb128 0x2
 1222 0579 7D       		.byte	0x7d
 1223 057a 00       		.sleb128 0
 1224 057b 02       		.uleb128 0x2
 1225 057c 75       		.byte	0x75
 1226 057d 00       		.sleb128 0
 1227 057e 00       		.byte	0
 1228 057f 00       		.byte	0
 1229 0580 0A       		.uleb128 0xa
 1230 0581 04       		.byte	0x4
 1231 0582 1B020000 		.4byte	0x21b
 1232 0586 10       		.uleb128 0x10
 1233 0587 EE000000 		.4byte	.LASF53
 1234 058b 01       		.byte	0x1
 1235 058c 4A       		.byte	0x4a
 1236 058d C8000000 		.4byte	0xc8
 1237 0591 00000000 		.4byte	.LFB2
 1238 0595 42000000 		.4byte	.LFE2-.LFB2
 1239 0599 01       		.uleb128 0x1
 1240 059a 9C       		.byte	0x9c
 1241 059b 5C060000 		.4byte	0x65c
 1242 059f 11       		.uleb128 0x11
 1243 05a0 60030000 		.4byte	.LASF41
 1244 05a4 01       		.byte	0x1
 1245 05a5 4B       		.byte	0x4b
 1246 05a6 EE020000 		.4byte	0x2ee
 1247 05aa DC030000 		.4byte	.LLST7
 1248 05ae 11       		.uleb128 0x11
 1249 05af 35040000 		.4byte	.LASF26
 1250 05b3 01       		.byte	0x1
 1251 05b4 4C       		.byte	0x4c
 1252 05b5 BD000000 		.4byte	0xbd
 1253 05b9 FA030000 		.4byte	.LLST8
 1254 05bd 11       		.uleb128 0x11
ARM GAS  /tmp/cc7v9S6V.s 			page 23


 1255 05be 48000000 		.4byte	.LASF42
 1256 05c2 01       		.byte	0x1
 1257 05c3 4D       		.byte	0x4d
 1258 05c4 80050000 		.4byte	0x580
 1259 05c8 1B040000 		.4byte	.LLST9
 1260 05cc 11       		.uleb128 0x11
 1261 05cd 4E010000 		.4byte	.LASF43
 1262 05d1 01       		.byte	0x1
 1263 05d2 4E       		.byte	0x4e
 1264 05d3 FA020000 		.4byte	0x2fa
 1265 05d7 5F040000 		.4byte	.LLST10
 1266 05db 11       		.uleb128 0x11
 1267 05dc 9F010000 		.4byte	.LASF44
 1268 05e0 01       		.byte	0x1
 1269 05e1 4F       		.byte	0x4f
 1270 05e2 C8000000 		.4byte	0xc8
 1271 05e6 80040000 		.4byte	.LLST11
 1272 05ea 13       		.uleb128 0x13
 1273 05eb 72657400 		.ascii	"ret\000"
 1274 05ef 01       		.byte	0x1
 1275 05f0 51       		.byte	0x51
 1276 05f1 C8000000 		.4byte	0xc8
 1277 05f5 CA040000 		.4byte	.LLST12
 1278 05f9 17       		.uleb128 0x17
 1279 05fa 4D040000 		.4byte	.LASF55
 1280 05fe 01       		.byte	0x1
 1281 05ff 62       		.byte	0x62
 1282 0600 18000000 		.4byte	.L11
 1283 0604 18       		.uleb128 0x18
 1284 0605 14000000 		.4byte	.LVL18
 1285 0609 62070000 		.4byte	0x762
 1286 060d 30060000 		.4byte	0x630
 1287 0611 16       		.uleb128 0x16
 1288 0612 01       		.uleb128 0x1
 1289 0613 50       		.byte	0x50
 1290 0614 02       		.uleb128 0x2
 1291 0615 75       		.byte	0x75
 1292 0616 00       		.sleb128 0
 1293 0617 16       		.uleb128 0x16
 1294 0618 01       		.uleb128 0x1
 1295 0619 51       		.byte	0x51
 1296 061a 03       		.uleb128 0x3
 1297 061b 91       		.byte	0x91
 1298 061c 00       		.sleb128 0
 1299 061d 06       		.byte	0x6
 1300 061e 16       		.uleb128 0x16
 1301 061f 01       		.uleb128 0x1
 1302 0620 52       		.byte	0x52
 1303 0621 01       		.uleb128 0x1
 1304 0622 38       		.byte	0x38
 1305 0623 16       		.uleb128 0x16
 1306 0624 01       		.uleb128 0x1
 1307 0625 53       		.byte	0x53
 1308 0626 01       		.uleb128 0x1
 1309 0627 30       		.byte	0x30
 1310 0628 16       		.uleb128 0x16
 1311 0629 02       		.uleb128 0x2
ARM GAS  /tmp/cc7v9S6V.s 			page 24


 1312 062a 7D       		.byte	0x7d
 1313 062b 00       		.sleb128 0
 1314 062c 02       		.uleb128 0x2
 1315 062d 74       		.byte	0x74
 1316 062e 00       		.sleb128 0
 1317 062f 00       		.byte	0
 1318 0630 15       		.uleb128 0x15
 1319 0631 36000000 		.4byte	.LVL25
 1320 0635 62070000 		.4byte	0x762
 1321 0639 16       		.uleb128 0x16
 1322 063a 01       		.uleb128 0x1
 1323 063b 50       		.byte	0x50
 1324 063c 02       		.uleb128 0x2
 1325 063d 75       		.byte	0x75
 1326 063e 00       		.sleb128 0
 1327 063f 16       		.uleb128 0x16
 1328 0640 01       		.uleb128 0x1
 1329 0641 51       		.byte	0x51
 1330 0642 05       		.uleb128 0x5
 1331 0643 91       		.byte	0x91
 1332 0644 00       		.sleb128 0
 1333 0645 06       		.byte	0x6
 1334 0646 23       		.byte	0x23
 1335 0647 08       		.uleb128 0x8
 1336 0648 16       		.uleb128 0x16
 1337 0649 01       		.uleb128 0x1
 1338 064a 52       		.byte	0x52
 1339 064b 02       		.uleb128 0x2
 1340 064c 08       		.byte	0x8
 1341 064d 30       		.byte	0x30
 1342 064e 16       		.uleb128 0x16
 1343 064f 01       		.uleb128 0x1
 1344 0650 53       		.byte	0x53
 1345 0651 01       		.uleb128 0x1
 1346 0652 31       		.byte	0x31
 1347 0653 16       		.uleb128 0x16
 1348 0654 02       		.uleb128 0x2
 1349 0655 7D       		.byte	0x7d
 1350 0656 00       		.sleb128 0
 1351 0657 02       		.uleb128 0x2
 1352 0658 74       		.byte	0x74
 1353 0659 00       		.sleb128 0
 1354 065a 00       		.byte	0
 1355 065b 00       		.byte	0
 1356 065c 10       		.uleb128 0x10
 1357 065d 5A010000 		.4byte	.LASF56
 1358 0661 01       		.byte	0x1
 1359 0662 36       		.byte	0x36
 1360 0663 D8000000 		.4byte	0xd8
 1361 0667 00000000 		.4byte	.LFB1
 1362 066b 10000000 		.4byte	.LFE1-.LFB1
 1363 066f 01       		.uleb128 0x1
 1364 0670 9C       		.byte	0x9c
 1365 0671 C5060000 		.4byte	0x6c5
 1366 0675 11       		.uleb128 0x11
 1367 0676 B0010000 		.4byte	.LASF48
 1368 067a 01       		.byte	0x1
ARM GAS  /tmp/cc7v9S6V.s 			page 25


 1369 067b 36       		.byte	0x36
 1370 067c 80050000 		.4byte	0x580
 1371 0680 FF040000 		.4byte	.LLST4
 1372 0684 11       		.uleb128 0x11
 1373 0685 D1040000 		.4byte	.LASF49
 1374 0689 01       		.byte	0x1
 1375 068a 36       		.byte	0x36
 1376 068b F2010000 		.4byte	0x1f2
 1377 068f 20050000 		.4byte	.LLST5
 1378 0693 19       		.uleb128 0x19
 1379 0694 9F010000 		.4byte	.LASF44
 1380 0698 01       		.byte	0x1
 1381 0699 38       		.byte	0x38
 1382 069a D8000000 		.4byte	0xd8
 1383 069e 41050000 		.4byte	.LLST6
 1384 06a2 15       		.uleb128 0x15
 1385 06a3 0A000000 		.4byte	.LVL11
 1386 06a7 C5060000 		.4byte	0x6c5
 1387 06ab 16       		.uleb128 0x16
 1388 06ac 01       		.uleb128 0x1
 1389 06ad 50       		.byte	0x50
 1390 06ae 03       		.uleb128 0x3
 1391 06af F3       		.byte	0xf3
 1392 06b0 01       		.uleb128 0x1
 1393 06b1 50       		.byte	0x50
 1394 06b2 16       		.uleb128 0x16
 1395 06b3 01       		.uleb128 0x1
 1396 06b4 51       		.byte	0x51
 1397 06b5 03       		.uleb128 0x3
 1398 06b6 F3       		.byte	0xf3
 1399 06b7 01       		.uleb128 0x1
 1400 06b8 51       		.byte	0x51
 1401 06b9 16       		.uleb128 0x16
 1402 06ba 01       		.uleb128 0x1
 1403 06bb 52       		.byte	0x52
 1404 06bc 01       		.uleb128 0x1
 1405 06bd 30       		.byte	0x30
 1406 06be 16       		.uleb128 0x16
 1407 06bf 01       		.uleb128 0x1
 1408 06c0 53       		.byte	0x53
 1409 06c1 01       		.uleb128 0x1
 1410 06c2 31       		.byte	0x31
 1411 06c3 00       		.byte	0
 1412 06c4 00       		.byte	0
 1413 06c5 10       		.uleb128 0x10
 1414 06c6 00000000 		.4byte	.LASF57
 1415 06ca 01       		.byte	0x1
 1416 06cb 21       		.byte	0x21
 1417 06cc D8000000 		.4byte	0xd8
 1418 06d0 00000000 		.4byte	.LFB0
 1419 06d4 5C000000 		.4byte	.LFE0-.LFB0
 1420 06d8 01       		.uleb128 0x1
 1421 06d9 9C       		.byte	0x9c
 1422 06da 62070000 		.4byte	0x762
 1423 06de 11       		.uleb128 0x11
 1424 06df B0010000 		.4byte	.LASF48
 1425 06e3 01       		.byte	0x1
ARM GAS  /tmp/cc7v9S6V.s 			page 26


 1426 06e4 21       		.byte	0x21
 1427 06e5 80050000 		.4byte	0x580
 1428 06e9 6D050000 		.4byte	.LLST0
 1429 06ed 11       		.uleb128 0x11
 1430 06ee D1040000 		.4byte	.LASF49
 1431 06f2 01       		.byte	0x1
 1432 06f3 22       		.byte	0x22
 1433 06f4 F2010000 		.4byte	0x1f2
 1434 06f8 A4050000 		.4byte	.LLST1
 1435 06fc 11       		.uleb128 0x11
 1436 06fd 9F010000 		.4byte	.LASF44
 1437 0701 01       		.byte	0x1
 1438 0702 23       		.byte	0x23
 1439 0703 D8000000 		.4byte	0xd8
 1440 0707 D0050000 		.4byte	.LLST2
 1441 070b 11       		.uleb128 0x11
 1442 070c EA030000 		.4byte	.LASF51
 1443 0710 01       		.byte	0x1
 1444 0711 24       		.byte	0x24
 1445 0712 AD000000 		.4byte	0xad
 1446 0716 36060000 		.4byte	.LLST3
 1447 071a 18       		.uleb128 0x18
 1448 071b 14000000 		.4byte	.LVL5
 1449 071f 6E070000 		.4byte	0x76e
 1450 0723 3F070000 		.4byte	0x73f
 1451 0727 16       		.uleb128 0x16
 1452 0728 01       		.uleb128 0x1
 1453 0729 50       		.byte	0x50
 1454 072a 02       		.uleb128 0x2
 1455 072b 76       		.byte	0x76
 1456 072c 00       		.sleb128 0
 1457 072d 16       		.uleb128 0x16
 1458 072e 01       		.uleb128 0x1
 1459 072f 51       		.byte	0x51
 1460 0730 02       		.uleb128 0x2
 1461 0731 75       		.byte	0x75
 1462 0732 00       		.sleb128 0
 1463 0733 16       		.uleb128 0x16
 1464 0734 01       		.uleb128 0x1
 1465 0735 52       		.byte	0x52
 1466 0736 01       		.uleb128 0x1
 1467 0737 38       		.byte	0x38
 1468 0738 16       		.uleb128 0x16
 1469 0739 01       		.uleb128 0x1
 1470 073a 53       		.byte	0x53
 1471 073b 02       		.uleb128 0x2
 1472 073c 74       		.byte	0x74
 1473 073d 00       		.sleb128 0
 1474 073e 00       		.byte	0
 1475 073f 15       		.uleb128 0x15
 1476 0740 50000000 		.4byte	.LVL7
 1477 0744 6E070000 		.4byte	0x76e
 1478 0748 16       		.uleb128 0x16
 1479 0749 01       		.uleb128 0x1
 1480 074a 50       		.byte	0x50
 1481 074b 02       		.uleb128 0x2
 1482 074c 76       		.byte	0x76
ARM GAS  /tmp/cc7v9S6V.s 			page 27


 1483 074d 00       		.sleb128 0
 1484 074e 16       		.uleb128 0x16
 1485 074f 01       		.uleb128 0x1
 1486 0750 51       		.byte	0x51
 1487 0751 02       		.uleb128 0x2
 1488 0752 75       		.byte	0x75
 1489 0753 08       		.sleb128 8
 1490 0754 16       		.uleb128 0x16
 1491 0755 01       		.uleb128 0x1
 1492 0756 52       		.byte	0x52
 1493 0757 02       		.uleb128 0x2
 1494 0758 08       		.byte	0x8
 1495 0759 30       		.byte	0x30
 1496 075a 16       		.uleb128 0x16
 1497 075b 01       		.uleb128 0x1
 1498 075c 53       		.byte	0x53
 1499 075d 02       		.uleb128 0x2
 1500 075e 74       		.byte	0x74
 1501 075f 08       		.sleb128 8
 1502 0760 00       		.byte	0
 1503 0761 00       		.byte	0
 1504 0762 1A       		.uleb128 0x1a
 1505 0763 83040000 		.4byte	.LASF58
 1506 0767 83040000 		.4byte	.LASF58
 1507 076b 04       		.byte	0x4
 1508 076c CD01     		.2byte	0x1cd
 1509 076e 1A       		.uleb128 0x1a
 1510 076f A1020000 		.4byte	.LASF59
 1511 0773 A1020000 		.4byte	.LASF59
 1512 0777 04       		.byte	0x4
 1513 0778 E701     		.2byte	0x1e7
 1514 077a 00       		.byte	0
 1515              		.section	.debug_abbrev,"",%progbits
 1516              	.Ldebug_abbrev0:
 1517 0000 01       		.uleb128 0x1
 1518 0001 11       		.uleb128 0x11
 1519 0002 01       		.byte	0x1
 1520 0003 25       		.uleb128 0x25
 1521 0004 0E       		.uleb128 0xe
 1522 0005 13       		.uleb128 0x13
 1523 0006 0B       		.uleb128 0xb
 1524 0007 03       		.uleb128 0x3
 1525 0008 0E       		.uleb128 0xe
 1526 0009 1B       		.uleb128 0x1b
 1527 000a 0E       		.uleb128 0xe
 1528 000b 55       		.uleb128 0x55
 1529 000c 17       		.uleb128 0x17
 1530 000d 11       		.uleb128 0x11
 1531 000e 01       		.uleb128 0x1
 1532 000f 10       		.uleb128 0x10
 1533 0010 17       		.uleb128 0x17
 1534 0011 00       		.byte	0
 1535 0012 00       		.byte	0
 1536 0013 02       		.uleb128 0x2
 1537 0014 24       		.uleb128 0x24
 1538 0015 00       		.byte	0
 1539 0016 0B       		.uleb128 0xb
ARM GAS  /tmp/cc7v9S6V.s 			page 28


 1540 0017 0B       		.uleb128 0xb
 1541 0018 3E       		.uleb128 0x3e
 1542 0019 0B       		.uleb128 0xb
 1543 001a 03       		.uleb128 0x3
 1544 001b 0E       		.uleb128 0xe
 1545 001c 00       		.byte	0
 1546 001d 00       		.byte	0
 1547 001e 03       		.uleb128 0x3
 1548 001f 16       		.uleb128 0x16
 1549 0020 00       		.byte	0
 1550 0021 03       		.uleb128 0x3
 1551 0022 0E       		.uleb128 0xe
 1552 0023 3A       		.uleb128 0x3a
 1553 0024 0B       		.uleb128 0xb
 1554 0025 3B       		.uleb128 0x3b
 1555 0026 0B       		.uleb128 0xb
 1556 0027 49       		.uleb128 0x49
 1557 0028 13       		.uleb128 0x13
 1558 0029 00       		.byte	0
 1559 002a 00       		.byte	0
 1560 002b 04       		.uleb128 0x4
 1561 002c 24       		.uleb128 0x24
 1562 002d 00       		.byte	0
 1563 002e 0B       		.uleb128 0xb
 1564 002f 0B       		.uleb128 0xb
 1565 0030 3E       		.uleb128 0x3e
 1566 0031 0B       		.uleb128 0xb
 1567 0032 03       		.uleb128 0x3
 1568 0033 08       		.uleb128 0x8
 1569 0034 00       		.byte	0
 1570 0035 00       		.byte	0
 1571 0036 05       		.uleb128 0x5
 1572 0037 26       		.uleb128 0x26
 1573 0038 00       		.byte	0
 1574 0039 49       		.uleb128 0x49
 1575 003a 13       		.uleb128 0x13
 1576 003b 00       		.byte	0
 1577 003c 00       		.byte	0
 1578 003d 06       		.uleb128 0x6
 1579 003e 13       		.uleb128 0x13
 1580 003f 01       		.byte	0x1
 1581 0040 03       		.uleb128 0x3
 1582 0041 0E       		.uleb128 0xe
 1583 0042 0B       		.uleb128 0xb
 1584 0043 0B       		.uleb128 0xb
 1585 0044 3A       		.uleb128 0x3a
 1586 0045 0B       		.uleb128 0xb
 1587 0046 3B       		.uleb128 0x3b
 1588 0047 05       		.uleb128 0x5
 1589 0048 01       		.uleb128 0x1
 1590 0049 13       		.uleb128 0x13
 1591 004a 00       		.byte	0
 1592 004b 00       		.byte	0
 1593 004c 07       		.uleb128 0x7
 1594 004d 0D       		.uleb128 0xd
 1595 004e 00       		.byte	0
 1596 004f 03       		.uleb128 0x3
ARM GAS  /tmp/cc7v9S6V.s 			page 29


 1597 0050 0E       		.uleb128 0xe
 1598 0051 3A       		.uleb128 0x3a
 1599 0052 0B       		.uleb128 0xb
 1600 0053 3B       		.uleb128 0x3b
 1601 0054 05       		.uleb128 0x5
 1602 0055 49       		.uleb128 0x49
 1603 0056 13       		.uleb128 0x13
 1604 0057 38       		.uleb128 0x38
 1605 0058 0B       		.uleb128 0xb
 1606 0059 00       		.byte	0
 1607 005a 00       		.byte	0
 1608 005b 08       		.uleb128 0x8
 1609 005c 13       		.uleb128 0x13
 1610 005d 01       		.byte	0x1
 1611 005e 03       		.uleb128 0x3
 1612 005f 0E       		.uleb128 0xe
 1613 0060 0B       		.uleb128 0xb
 1614 0061 0B       		.uleb128 0xb
 1615 0062 3A       		.uleb128 0x3a
 1616 0063 0B       		.uleb128 0xb
 1617 0064 3B       		.uleb128 0x3b
 1618 0065 0B       		.uleb128 0xb
 1619 0066 01       		.uleb128 0x1
 1620 0067 13       		.uleb128 0x13
 1621 0068 00       		.byte	0
 1622 0069 00       		.byte	0
 1623 006a 09       		.uleb128 0x9
 1624 006b 0D       		.uleb128 0xd
 1625 006c 00       		.byte	0
 1626 006d 03       		.uleb128 0x3
 1627 006e 0E       		.uleb128 0xe
 1628 006f 3A       		.uleb128 0x3a
 1629 0070 0B       		.uleb128 0xb
 1630 0071 3B       		.uleb128 0x3b
 1631 0072 0B       		.uleb128 0xb
 1632 0073 49       		.uleb128 0x49
 1633 0074 13       		.uleb128 0x13
 1634 0075 38       		.uleb128 0x38
 1635 0076 0B       		.uleb128 0xb
 1636 0077 00       		.byte	0
 1637 0078 00       		.byte	0
 1638 0079 0A       		.uleb128 0xa
 1639 007a 0F       		.uleb128 0xf
 1640 007b 00       		.byte	0
 1641 007c 0B       		.uleb128 0xb
 1642 007d 0B       		.uleb128 0xb
 1643 007e 49       		.uleb128 0x49
 1644 007f 13       		.uleb128 0x13
 1645 0080 00       		.byte	0
 1646 0081 00       		.byte	0
 1647 0082 0B       		.uleb128 0xb
 1648 0083 01       		.uleb128 0x1
 1649 0084 01       		.byte	0x1
 1650 0085 49       		.uleb128 0x49
 1651 0086 13       		.uleb128 0x13
 1652 0087 01       		.uleb128 0x1
 1653 0088 13       		.uleb128 0x13
ARM GAS  /tmp/cc7v9S6V.s 			page 30


 1654 0089 00       		.byte	0
 1655 008a 00       		.byte	0
 1656 008b 0C       		.uleb128 0xc
 1657 008c 21       		.uleb128 0x21
 1658 008d 00       		.byte	0
 1659 008e 49       		.uleb128 0x49
 1660 008f 13       		.uleb128 0x13
 1661 0090 00       		.byte	0
 1662 0091 00       		.byte	0
 1663 0092 0D       		.uleb128 0xd
 1664 0093 0F       		.uleb128 0xf
 1665 0094 00       		.byte	0
 1666 0095 0B       		.uleb128 0xb
 1667 0096 0B       		.uleb128 0xb
 1668 0097 00       		.byte	0
 1669 0098 00       		.byte	0
 1670 0099 0E       		.uleb128 0xe
 1671 009a 13       		.uleb128 0x13
 1672 009b 01       		.byte	0x1
 1673 009c 0B       		.uleb128 0xb
 1674 009d 0B       		.uleb128 0xb
 1675 009e 3A       		.uleb128 0x3a
 1676 009f 0B       		.uleb128 0xb
 1677 00a0 3B       		.uleb128 0x3b
 1678 00a1 0B       		.uleb128 0xb
 1679 00a2 01       		.uleb128 0x1
 1680 00a3 13       		.uleb128 0x13
 1681 00a4 00       		.byte	0
 1682 00a5 00       		.byte	0
 1683 00a6 0F       		.uleb128 0xf
 1684 00a7 0D       		.uleb128 0xd
 1685 00a8 00       		.byte	0
 1686 00a9 03       		.uleb128 0x3
 1687 00aa 08       		.uleb128 0x8
 1688 00ab 3A       		.uleb128 0x3a
 1689 00ac 0B       		.uleb128 0xb
 1690 00ad 3B       		.uleb128 0x3b
 1691 00ae 0B       		.uleb128 0xb
 1692 00af 49       		.uleb128 0x49
 1693 00b0 13       		.uleb128 0x13
 1694 00b1 38       		.uleb128 0x38
 1695 00b2 0B       		.uleb128 0xb
 1696 00b3 00       		.byte	0
 1697 00b4 00       		.byte	0
 1698 00b5 10       		.uleb128 0x10
 1699 00b6 2E       		.uleb128 0x2e
 1700 00b7 01       		.byte	0x1
 1701 00b8 3F       		.uleb128 0x3f
 1702 00b9 19       		.uleb128 0x19
 1703 00ba 03       		.uleb128 0x3
 1704 00bb 0E       		.uleb128 0xe
 1705 00bc 3A       		.uleb128 0x3a
 1706 00bd 0B       		.uleb128 0xb
 1707 00be 3B       		.uleb128 0x3b
 1708 00bf 0B       		.uleb128 0xb
 1709 00c0 27       		.uleb128 0x27
 1710 00c1 19       		.uleb128 0x19
ARM GAS  /tmp/cc7v9S6V.s 			page 31


 1711 00c2 49       		.uleb128 0x49
 1712 00c3 13       		.uleb128 0x13
 1713 00c4 11       		.uleb128 0x11
 1714 00c5 01       		.uleb128 0x1
 1715 00c6 12       		.uleb128 0x12
 1716 00c7 06       		.uleb128 0x6
 1717 00c8 40       		.uleb128 0x40
 1718 00c9 18       		.uleb128 0x18
 1719 00ca 9742     		.uleb128 0x2117
 1720 00cc 19       		.uleb128 0x19
 1721 00cd 01       		.uleb128 0x1
 1722 00ce 13       		.uleb128 0x13
 1723 00cf 00       		.byte	0
 1724 00d0 00       		.byte	0
 1725 00d1 11       		.uleb128 0x11
 1726 00d2 05       		.uleb128 0x5
 1727 00d3 00       		.byte	0
 1728 00d4 03       		.uleb128 0x3
 1729 00d5 0E       		.uleb128 0xe
 1730 00d6 3A       		.uleb128 0x3a
 1731 00d7 0B       		.uleb128 0xb
 1732 00d8 3B       		.uleb128 0x3b
 1733 00d9 0B       		.uleb128 0xb
 1734 00da 49       		.uleb128 0x49
 1735 00db 13       		.uleb128 0x13
 1736 00dc 02       		.uleb128 0x2
 1737 00dd 17       		.uleb128 0x17
 1738 00de 00       		.byte	0
 1739 00df 00       		.byte	0
 1740 00e0 12       		.uleb128 0x12
 1741 00e1 34       		.uleb128 0x34
 1742 00e2 00       		.byte	0
 1743 00e3 03       		.uleb128 0x3
 1744 00e4 0E       		.uleb128 0xe
 1745 00e5 3A       		.uleb128 0x3a
 1746 00e6 0B       		.uleb128 0xb
 1747 00e7 3B       		.uleb128 0x3b
 1748 00e8 0B       		.uleb128 0xb
 1749 00e9 49       		.uleb128 0x49
 1750 00ea 13       		.uleb128 0x13
 1751 00eb 1C       		.uleb128 0x1c
 1752 00ec 0B       		.uleb128 0xb
 1753 00ed 00       		.byte	0
 1754 00ee 00       		.byte	0
 1755 00ef 13       		.uleb128 0x13
 1756 00f0 34       		.uleb128 0x34
 1757 00f1 00       		.byte	0
 1758 00f2 03       		.uleb128 0x3
 1759 00f3 08       		.uleb128 0x8
 1760 00f4 3A       		.uleb128 0x3a
 1761 00f5 0B       		.uleb128 0xb
 1762 00f6 3B       		.uleb128 0x3b
 1763 00f7 0B       		.uleb128 0xb
 1764 00f8 49       		.uleb128 0x49
 1765 00f9 13       		.uleb128 0x13
 1766 00fa 02       		.uleb128 0x2
 1767 00fb 17       		.uleb128 0x17
ARM GAS  /tmp/cc7v9S6V.s 			page 32


 1768 00fc 00       		.byte	0
 1769 00fd 00       		.byte	0
 1770 00fe 14       		.uleb128 0x14
 1771 00ff 0B       		.uleb128 0xb
 1772 0100 01       		.byte	0x1
 1773 0101 11       		.uleb128 0x11
 1774 0102 01       		.uleb128 0x1
 1775 0103 12       		.uleb128 0x12
 1776 0104 06       		.uleb128 0x6
 1777 0105 01       		.uleb128 0x1
 1778 0106 13       		.uleb128 0x13
 1779 0107 00       		.byte	0
 1780 0108 00       		.byte	0
 1781 0109 15       		.uleb128 0x15
 1782 010a 898201   		.uleb128 0x4109
 1783 010d 01       		.byte	0x1
 1784 010e 11       		.uleb128 0x11
 1785 010f 01       		.uleb128 0x1
 1786 0110 31       		.uleb128 0x31
 1787 0111 13       		.uleb128 0x13
 1788 0112 00       		.byte	0
 1789 0113 00       		.byte	0
 1790 0114 16       		.uleb128 0x16
 1791 0115 8A8201   		.uleb128 0x410a
 1792 0118 00       		.byte	0
 1793 0119 02       		.uleb128 0x2
 1794 011a 18       		.uleb128 0x18
 1795 011b 9142     		.uleb128 0x2111
 1796 011d 18       		.uleb128 0x18
 1797 011e 00       		.byte	0
 1798 011f 00       		.byte	0
 1799 0120 17       		.uleb128 0x17
 1800 0121 0A       		.uleb128 0xa
 1801 0122 00       		.byte	0
 1802 0123 03       		.uleb128 0x3
 1803 0124 0E       		.uleb128 0xe
 1804 0125 3A       		.uleb128 0x3a
 1805 0126 0B       		.uleb128 0xb
 1806 0127 3B       		.uleb128 0x3b
 1807 0128 0B       		.uleb128 0xb
 1808 0129 11       		.uleb128 0x11
 1809 012a 01       		.uleb128 0x1
 1810 012b 00       		.byte	0
 1811 012c 00       		.byte	0
 1812 012d 18       		.uleb128 0x18
 1813 012e 898201   		.uleb128 0x4109
 1814 0131 01       		.byte	0x1
 1815 0132 11       		.uleb128 0x11
 1816 0133 01       		.uleb128 0x1
 1817 0134 31       		.uleb128 0x31
 1818 0135 13       		.uleb128 0x13
 1819 0136 01       		.uleb128 0x1
 1820 0137 13       		.uleb128 0x13
 1821 0138 00       		.byte	0
 1822 0139 00       		.byte	0
 1823 013a 19       		.uleb128 0x19
 1824 013b 34       		.uleb128 0x34
ARM GAS  /tmp/cc7v9S6V.s 			page 33


 1825 013c 00       		.byte	0
 1826 013d 03       		.uleb128 0x3
 1827 013e 0E       		.uleb128 0xe
 1828 013f 3A       		.uleb128 0x3a
 1829 0140 0B       		.uleb128 0xb
 1830 0141 3B       		.uleb128 0x3b
 1831 0142 0B       		.uleb128 0xb
 1832 0143 49       		.uleb128 0x49
 1833 0144 13       		.uleb128 0x13
 1834 0145 02       		.uleb128 0x2
 1835 0146 17       		.uleb128 0x17
 1836 0147 00       		.byte	0
 1837 0148 00       		.byte	0
 1838 0149 1A       		.uleb128 0x1a
 1839 014a 2E       		.uleb128 0x2e
 1840 014b 00       		.byte	0
 1841 014c 3F       		.uleb128 0x3f
 1842 014d 19       		.uleb128 0x19
 1843 014e 3C       		.uleb128 0x3c
 1844 014f 19       		.uleb128 0x19
 1845 0150 6E       		.uleb128 0x6e
 1846 0151 0E       		.uleb128 0xe
 1847 0152 03       		.uleb128 0x3
 1848 0153 0E       		.uleb128 0xe
 1849 0154 3A       		.uleb128 0x3a
 1850 0155 0B       		.uleb128 0xb
 1851 0156 3B       		.uleb128 0x3b
 1852 0157 05       		.uleb128 0x5
 1853 0158 00       		.byte	0
 1854 0159 00       		.byte	0
 1855 015a 00       		.byte	0
 1856              		.section	.debug_loc,"",%progbits
 1857              	.Ldebug_loc0:
 1858              	.LLST32:
 1859 0000 00000000 		.4byte	.LVL57
 1860 0004 19000000 		.4byte	.LVL59-1
 1861 0008 0100     		.2byte	0x1
 1862 000a 50       		.byte	0x50
 1863 000b 19000000 		.4byte	.LVL59-1
 1864 000f 1E000000 		.4byte	.LFE7
 1865 0013 0400     		.2byte	0x4
 1866 0015 F3       		.byte	0xf3
 1867 0016 01       		.uleb128 0x1
 1868 0017 50       		.byte	0x50
 1869 0018 9F       		.byte	0x9f
 1870 0019 00000000 		.4byte	0
 1871 001d 00000000 		.4byte	0
 1872              	.LLST33:
 1873 0021 00000000 		.4byte	.LVL57
 1874 0025 19000000 		.4byte	.LVL59-1
 1875 0029 0100     		.2byte	0x1
 1876 002b 51       		.byte	0x51
 1877 002c 19000000 		.4byte	.LVL59-1
 1878 0030 1E000000 		.4byte	.LFE7
 1879 0034 0400     		.2byte	0x4
 1880 0036 F3       		.byte	0xf3
 1881 0037 01       		.uleb128 0x1
ARM GAS  /tmp/cc7v9S6V.s 			page 34


 1882 0038 51       		.byte	0x51
 1883 0039 9F       		.byte	0x9f
 1884 003a 00000000 		.4byte	0
 1885 003e 00000000 		.4byte	0
 1886              	.LLST34:
 1887 0042 00000000 		.4byte	.LVL57
 1888 0046 19000000 		.4byte	.LVL59-1
 1889 004a 0100     		.2byte	0x1
 1890 004c 52       		.byte	0x52
 1891 004d 19000000 		.4byte	.LVL59-1
 1892 0051 1E000000 		.4byte	.LFE7
 1893 0055 0300     		.2byte	0x3
 1894 0057 76       		.byte	0x76
 1895 0058 71       		.sleb128 -15
 1896 0059 9F       		.byte	0x9f
 1897 005a 00000000 		.4byte	0
 1898 005e 00000000 		.4byte	0
 1899              	.LLST35:
 1900 0062 00000000 		.4byte	.LVL57
 1901 0066 19000000 		.4byte	.LVL59-1
 1902 006a 0100     		.2byte	0x1
 1903 006c 53       		.byte	0x53
 1904 006d 19000000 		.4byte	.LVL59-1
 1905 0071 1E000000 		.4byte	.LFE7
 1906 0075 0400     		.2byte	0x4
 1907 0077 F3       		.byte	0xf3
 1908 0078 01       		.uleb128 0x1
 1909 0079 53       		.byte	0x53
 1910 007a 9F       		.byte	0x9f
 1911 007b 00000000 		.4byte	0
 1912 007f 00000000 		.4byte	0
 1913              	.LLST36:
 1914 0083 00000000 		.4byte	.LVL57
 1915 0087 1A000000 		.4byte	.LVL59
 1916 008b 0200     		.2byte	0x2
 1917 008d 30       		.byte	0x30
 1918 008e 9F       		.byte	0x9f
 1919 008f 1A000000 		.4byte	.LVL59
 1920 0093 1E000000 		.4byte	.LFE7
 1921 0097 0100     		.2byte	0x1
 1922 0099 50       		.byte	0x50
 1923 009a 00000000 		.4byte	0
 1924 009e 00000000 		.4byte	0
 1925              	.LLST37:
 1926 00a2 00000000 		.4byte	.LVL57
 1927 00a6 0C000000 		.4byte	.LVL58
 1928 00aa 0200     		.2byte	0x2
 1929 00ac 30       		.byte	0x30
 1930 00ad 9F       		.byte	0x9f
 1931 00ae 00000000 		.4byte	0
 1932 00b2 00000000 		.4byte	0
 1933              	.LLST26:
 1934 00b6 00000000 		.4byte	.LVL44
 1935 00ba 13000000 		.4byte	.LVL48-1
 1936 00be 0100     		.2byte	0x1
 1937 00c0 50       		.byte	0x50
 1938 00c1 13000000 		.4byte	.LVL48-1
ARM GAS  /tmp/cc7v9S6V.s 			page 35


 1939 00c5 42000000 		.4byte	.LFE6
 1940 00c9 0100     		.2byte	0x1
 1941 00cb 55       		.byte	0x55
 1942 00cc 00000000 		.4byte	0
 1943 00d0 00000000 		.4byte	0
 1944              	.LLST27:
 1945 00d4 00000000 		.4byte	.LVL44
 1946 00d8 0A000000 		.4byte	.LVL45
 1947 00dc 0100     		.2byte	0x1
 1948 00de 51       		.byte	0x51
 1949 00df 0A000000 		.4byte	.LVL45
 1950 00e3 42000000 		.4byte	.LFE6
 1951 00e7 0400     		.2byte	0x4
 1952 00e9 F3       		.byte	0xf3
 1953 00ea 01       		.uleb128 0x1
 1954 00eb 51       		.byte	0x51
 1955 00ec 9F       		.byte	0x9f
 1956 00ed 00000000 		.4byte	0
 1957 00f1 00000000 		.4byte	0
 1958              	.LLST28:
 1959 00f5 00000000 		.4byte	.LVL44
 1960 00f9 0E000000 		.4byte	.LVL47
 1961 00fd 0100     		.2byte	0x1
 1962 00ff 52       		.byte	0x52
 1963 0100 0E000000 		.4byte	.LVL47
 1964 0104 18000000 		.4byte	.LVL49
 1965 0108 0100     		.2byte	0x1
 1966 010a 54       		.byte	0x54
 1967 010b 18000000 		.4byte	.LVL49
 1968 010f 24000000 		.4byte	.LVL51
 1969 0113 0400     		.2byte	0x4
 1970 0115 F3       		.byte	0xf3
 1971 0116 01       		.uleb128 0x1
 1972 0117 52       		.byte	0x52
 1973 0118 9F       		.byte	0x9f
 1974 0119 24000000 		.4byte	.LVL51
 1975 011d 28000000 		.4byte	.LVL52
 1976 0121 0100     		.2byte	0x1
 1977 0123 54       		.byte	0x54
 1978 0124 28000000 		.4byte	.LVL52
 1979 0128 42000000 		.4byte	.LFE6
 1980 012c 0300     		.2byte	0x3
 1981 012e 74       		.byte	0x74
 1982 012f 78       		.sleb128 -8
 1983 0130 9F       		.byte	0x9f
 1984 0131 00000000 		.4byte	0
 1985 0135 00000000 		.4byte	0
 1986              	.LLST29:
 1987 0139 00000000 		.4byte	.LVL44
 1988 013d 0C000000 		.4byte	.LVL46
 1989 0141 0100     		.2byte	0x1
 1990 0143 53       		.byte	0x53
 1991 0144 0C000000 		.4byte	.LVL46
 1992 0148 42000000 		.4byte	.LFE6
 1993 014c 0400     		.2byte	0x4
 1994 014e F3       		.byte	0xf3
 1995 014f 01       		.uleb128 0x1
ARM GAS  /tmp/cc7v9S6V.s 			page 36


 1996 0150 53       		.byte	0x53
 1997 0151 9F       		.byte	0x9f
 1998 0152 00000000 		.4byte	0
 1999 0156 00000000 		.4byte	0
 2000              	.LLST30:
 2001 015a 00000000 		.4byte	.LVL44
 2002 015e 18000000 		.4byte	.LVL49
 2003 0162 0200     		.2byte	0x2
 2004 0164 91       		.byte	0x91
 2005 0165 00       		.sleb128 0
 2006 0166 24000000 		.4byte	.LVL51
 2007 016a 32000000 		.4byte	.LVL54
 2008 016e 0600     		.2byte	0x6
 2009 0170 91       		.byte	0x91
 2010 0171 00       		.sleb128 0
 2011 0172 06       		.byte	0x6
 2012 0173 23       		.byte	0x23
 2013 0174 30       		.uleb128 0x30
 2014 0175 9F       		.byte	0x9f
 2015 0176 32000000 		.4byte	.LVL54
 2016 017a 35000000 		.4byte	.LVL55-1
 2017 017e 0100     		.2byte	0x1
 2018 0180 51       		.byte	0x51
 2019 0181 35000000 		.4byte	.LVL55-1
 2020 0185 40000000 		.4byte	.LVL56
 2021 0189 0600     		.2byte	0x6
 2022 018b 91       		.byte	0x91
 2023 018c 00       		.sleb128 0
 2024 018d 06       		.byte	0x6
 2025 018e 23       		.byte	0x23
 2026 018f 30       		.uleb128 0x30
 2027 0190 9F       		.byte	0x9f
 2028 0191 40000000 		.4byte	.LVL56
 2029 0195 42000000 		.4byte	.LFE6
 2030 0199 0100     		.2byte	0x1
 2031 019b 50       		.byte	0x50
 2032 019c 00000000 		.4byte	0
 2033 01a0 00000000 		.4byte	0
 2034              	.LLST31:
 2035 01a4 00000000 		.4byte	.LVL44
 2036 01a8 14000000 		.4byte	.LVL48
 2037 01ac 0200     		.2byte	0x2
 2038 01ae 30       		.byte	0x30
 2039 01af 9F       		.byte	0x9f
 2040 01b0 14000000 		.4byte	.LVL48
 2041 01b4 20000000 		.4byte	.LVL50
 2042 01b8 0100     		.2byte	0x1
 2043 01ba 50       		.byte	0x50
 2044 01bb 24000000 		.4byte	.LVL51
 2045 01bf 2C000000 		.4byte	.LVL53
 2046 01c3 0100     		.2byte	0x1
 2047 01c5 50       		.byte	0x50
 2048 01c6 36000000 		.4byte	.LVL55
 2049 01ca 40000000 		.4byte	.LVL56
 2050 01ce 0100     		.2byte	0x1
 2051 01d0 50       		.byte	0x50
 2052 01d1 00000000 		.4byte	0
ARM GAS  /tmp/cc7v9S6V.s 			page 37


 2053 01d5 00000000 		.4byte	0
 2054              	.LLST23:
 2055 01d9 00000000 		.4byte	.LVL40
 2056 01dd 09000000 		.4byte	.LVL41-1
 2057 01e1 0100     		.2byte	0x1
 2058 01e3 50       		.byte	0x50
 2059 01e4 09000000 		.4byte	.LVL41-1
 2060 01e8 10000000 		.4byte	.LFE5
 2061 01ec 0400     		.2byte	0x4
 2062 01ee F3       		.byte	0xf3
 2063 01ef 01       		.uleb128 0x1
 2064 01f0 50       		.byte	0x50
 2065 01f1 9F       		.byte	0x9f
 2066 01f2 00000000 		.4byte	0
 2067 01f6 00000000 		.4byte	0
 2068              	.LLST24:
 2069 01fa 00000000 		.4byte	.LVL40
 2070 01fe 09000000 		.4byte	.LVL41-1
 2071 0202 0100     		.2byte	0x1
 2072 0204 51       		.byte	0x51
 2073 0205 09000000 		.4byte	.LVL41-1
 2074 0209 10000000 		.4byte	.LFE5
 2075 020d 0400     		.2byte	0x4
 2076 020f F3       		.byte	0xf3
 2077 0210 01       		.uleb128 0x1
 2078 0211 51       		.byte	0x51
 2079 0212 9F       		.byte	0x9f
 2080 0213 00000000 		.4byte	0
 2081 0217 00000000 		.4byte	0
 2082              	.LLST25:
 2083 021b 00000000 		.4byte	.LVL40
 2084 021f 0A000000 		.4byte	.LVL41
 2085 0223 0200     		.2byte	0x2
 2086 0225 30       		.byte	0x30
 2087 0226 9F       		.byte	0x9f
 2088 0227 0A000000 		.4byte	.LVL41
 2089 022b 0C000000 		.4byte	.LVL42
 2090 022f 0100     		.2byte	0x1
 2091 0231 50       		.byte	0x50
 2092 0232 0C000000 		.4byte	.LVL42
 2093 0236 0E000000 		.4byte	.LVL43
 2094 023a 0300     		.2byte	0x3
 2095 023c 70       		.byte	0x70
 2096 023d 79       		.sleb128 -7
 2097 023e 9F       		.byte	0x9f
 2098 023f 00000000 		.4byte	0
 2099 0243 00000000 		.4byte	0
 2100              	.LLST19:
 2101 0247 00000000 		.4byte	.LVL30
 2102 024b 42000000 		.4byte	.LVL34
 2103 024f 0100     		.2byte	0x1
 2104 0251 50       		.byte	0x50
 2105 0252 42000000 		.4byte	.LVL34
 2106 0256 47000000 		.4byte	.LVL35-1
 2107 025a 0100     		.2byte	0x1
 2108 025c 53       		.byte	0x53
 2109 025d 47000000 		.4byte	.LVL35-1
ARM GAS  /tmp/cc7v9S6V.s 			page 38


 2110 0261 60000000 		.4byte	.LVL39
 2111 0265 0100     		.2byte	0x1
 2112 0267 56       		.byte	0x56
 2113 0268 60000000 		.4byte	.LVL39
 2114 026c 64000000 		.4byte	.LFE4
 2115 0270 0400     		.2byte	0x4
 2116 0272 F3       		.byte	0xf3
 2117 0273 01       		.uleb128 0x1
 2118 0274 50       		.byte	0x50
 2119 0275 9F       		.byte	0x9f
 2120 0276 00000000 		.4byte	0
 2121 027a 00000000 		.4byte	0
 2122              	.LLST20:
 2123 027e 00000000 		.4byte	.LVL30
 2124 0282 30000000 		.4byte	.LVL33
 2125 0286 0100     		.2byte	0x1
 2126 0288 51       		.byte	0x51
 2127 0289 30000000 		.4byte	.LVL33
 2128 028d 60000000 		.4byte	.LVL39
 2129 0291 0100     		.2byte	0x1
 2130 0293 58       		.byte	0x58
 2131 0294 60000000 		.4byte	.LVL39
 2132 0298 64000000 		.4byte	.LFE4
 2133 029c 0400     		.2byte	0x4
 2134 029e F3       		.byte	0xf3
 2135 029f 01       		.uleb128 0x1
 2136 02a0 51       		.byte	0x51
 2137 02a1 9F       		.byte	0x9f
 2138 02a2 00000000 		.4byte	0
 2139 02a6 00000000 		.4byte	0
 2140              	.LLST21:
 2141 02aa 00000000 		.4byte	.LVL30
 2142 02ae 20000000 		.4byte	.LVL32
 2143 02b2 0100     		.2byte	0x1
 2144 02b4 52       		.byte	0x52
 2145 02b5 20000000 		.4byte	.LVL32
 2146 02b9 48000000 		.4byte	.LVL35
 2147 02bd 0100     		.2byte	0x1
 2148 02bf 57       		.byte	0x57
 2149 02c0 48000000 		.4byte	.LVL35
 2150 02c4 54000000 		.4byte	.LVL36
 2151 02c8 0300     		.2byte	0x3
 2152 02ca 77       		.byte	0x77
 2153 02cb 30       		.sleb128 48
 2154 02cc 9F       		.byte	0x9f
 2155 02cd 54000000 		.4byte	.LVL36
 2156 02d1 57000000 		.4byte	.LVL37-1
 2157 02d5 0100     		.2byte	0x1
 2158 02d7 51       		.byte	0x51
 2159 02d8 57000000 		.4byte	.LVL37-1
 2160 02dc 58000000 		.4byte	.LVL37
 2161 02e0 0300     		.2byte	0x3
 2162 02e2 77       		.byte	0x77
 2163 02e3 30       		.sleb128 48
 2164 02e4 9F       		.byte	0x9f
 2165 02e5 58000000 		.4byte	.LVL37
 2166 02e9 5C000000 		.4byte	.LVL38
ARM GAS  /tmp/cc7v9S6V.s 			page 39


 2167 02ed 0300     		.2byte	0x3
 2168 02ef 77       		.byte	0x77
 2169 02f0 31       		.sleb128 49
 2170 02f1 9F       		.byte	0x9f
 2171 02f2 5C000000 		.4byte	.LVL38
 2172 02f6 64000000 		.4byte	.LFE4
 2173 02fa 0100     		.2byte	0x1
 2174 02fc 50       		.byte	0x50
 2175 02fd 00000000 		.4byte	0
 2176 0301 00000000 		.4byte	0
 2177              	.LLST22:
 2178 0305 00000000 		.4byte	.LVL30
 2179 0309 16000000 		.4byte	.LVL31
 2180 030d 0100     		.2byte	0x1
 2181 030f 53       		.byte	0x53
 2182 0310 16000000 		.4byte	.LVL31
 2183 0314 64000000 		.4byte	.LFE4
 2184 0318 0400     		.2byte	0x4
 2185 031a F3       		.byte	0xf3
 2186 031b 01       		.uleb128 0x1
 2187 031c 53       		.byte	0x53
 2188 031d 9F       		.byte	0x9f
 2189 031e 00000000 		.4byte	0
 2190 0322 00000000 		.4byte	0
 2191              	.LLST13:
 2192 0326 00000000 		.4byte	.LVL27
 2193 032a 19000000 		.4byte	.LVL29-1
 2194 032e 0100     		.2byte	0x1
 2195 0330 50       		.byte	0x50
 2196 0331 19000000 		.4byte	.LVL29-1
 2197 0335 1E000000 		.4byte	.LFE3
 2198 0339 0400     		.2byte	0x4
 2199 033b F3       		.byte	0xf3
 2200 033c 01       		.uleb128 0x1
 2201 033d 50       		.byte	0x50
 2202 033e 9F       		.byte	0x9f
 2203 033f 00000000 		.4byte	0
 2204 0343 00000000 		.4byte	0
 2205              	.LLST14:
 2206 0347 00000000 		.4byte	.LVL27
 2207 034b 19000000 		.4byte	.LVL29-1
 2208 034f 0100     		.2byte	0x1
 2209 0351 51       		.byte	0x51
 2210 0352 19000000 		.4byte	.LVL29-1
 2211 0356 1E000000 		.4byte	.LFE3
 2212 035a 0400     		.2byte	0x4
 2213 035c F3       		.byte	0xf3
 2214 035d 01       		.uleb128 0x1
 2215 035e 51       		.byte	0x51
 2216 035f 9F       		.byte	0x9f
 2217 0360 00000000 		.4byte	0
 2218 0364 00000000 		.4byte	0
 2219              	.LLST15:
 2220 0368 00000000 		.4byte	.LVL27
 2221 036c 19000000 		.4byte	.LVL29-1
 2222 0370 0100     		.2byte	0x1
 2223 0372 52       		.byte	0x52
ARM GAS  /tmp/cc7v9S6V.s 			page 40


 2224 0373 19000000 		.4byte	.LVL29-1
 2225 0377 1E000000 		.4byte	.LFE3
 2226 037b 0300     		.2byte	0x3
 2227 037d 76       		.byte	0x76
 2228 037e 71       		.sleb128 -15
 2229 037f 9F       		.byte	0x9f
 2230 0380 00000000 		.4byte	0
 2231 0384 00000000 		.4byte	0
 2232              	.LLST16:
 2233 0388 00000000 		.4byte	.LVL27
 2234 038c 19000000 		.4byte	.LVL29-1
 2235 0390 0100     		.2byte	0x1
 2236 0392 53       		.byte	0x53
 2237 0393 19000000 		.4byte	.LVL29-1
 2238 0397 1E000000 		.4byte	.LFE3
 2239 039b 0400     		.2byte	0x4
 2240 039d F3       		.byte	0xf3
 2241 039e 01       		.uleb128 0x1
 2242 039f 53       		.byte	0x53
 2243 03a0 9F       		.byte	0x9f
 2244 03a1 00000000 		.4byte	0
 2245 03a5 00000000 		.4byte	0
 2246              	.LLST17:
 2247 03a9 00000000 		.4byte	.LVL27
 2248 03ad 1A000000 		.4byte	.LVL29
 2249 03b1 0200     		.2byte	0x2
 2250 03b3 30       		.byte	0x30
 2251 03b4 9F       		.byte	0x9f
 2252 03b5 1A000000 		.4byte	.LVL29
 2253 03b9 1E000000 		.4byte	.LFE3
 2254 03bd 0100     		.2byte	0x1
 2255 03bf 50       		.byte	0x50
 2256 03c0 00000000 		.4byte	0
 2257 03c4 00000000 		.4byte	0
 2258              	.LLST18:
 2259 03c8 00000000 		.4byte	.LVL27
 2260 03cc 0C000000 		.4byte	.LVL28
 2261 03d0 0200     		.2byte	0x2
 2262 03d2 30       		.byte	0x30
 2263 03d3 9F       		.byte	0x9f
 2264 03d4 00000000 		.4byte	0
 2265 03d8 00000000 		.4byte	0
 2266              	.LLST7:
 2267 03dc 00000000 		.4byte	.LVL14
 2268 03e0 13000000 		.4byte	.LVL18-1
 2269 03e4 0100     		.2byte	0x1
 2270 03e6 50       		.byte	0x50
 2271 03e7 13000000 		.4byte	.LVL18-1
 2272 03eb 42000000 		.4byte	.LFE2
 2273 03ef 0100     		.2byte	0x1
 2274 03f1 55       		.byte	0x55
 2275 03f2 00000000 		.4byte	0
 2276 03f6 00000000 		.4byte	0
 2277              	.LLST8:
 2278 03fa 00000000 		.4byte	.LVL14
 2279 03fe 0A000000 		.4byte	.LVL15
 2280 0402 0100     		.2byte	0x1
ARM GAS  /tmp/cc7v9S6V.s 			page 41


 2281 0404 51       		.byte	0x51
 2282 0405 0A000000 		.4byte	.LVL15
 2283 0409 42000000 		.4byte	.LFE2
 2284 040d 0400     		.2byte	0x4
 2285 040f F3       		.byte	0xf3
 2286 0410 01       		.uleb128 0x1
 2287 0411 51       		.byte	0x51
 2288 0412 9F       		.byte	0x9f
 2289 0413 00000000 		.4byte	0
 2290 0417 00000000 		.4byte	0
 2291              	.LLST9:
 2292 041b 00000000 		.4byte	.LVL14
 2293 041f 0E000000 		.4byte	.LVL17
 2294 0423 0100     		.2byte	0x1
 2295 0425 52       		.byte	0x52
 2296 0426 0E000000 		.4byte	.LVL17
 2297 042a 18000000 		.4byte	.LVL19
 2298 042e 0100     		.2byte	0x1
 2299 0430 54       		.byte	0x54
 2300 0431 18000000 		.4byte	.LVL19
 2301 0435 24000000 		.4byte	.LVL21
 2302 0439 0400     		.2byte	0x4
 2303 043b F3       		.byte	0xf3
 2304 043c 01       		.uleb128 0x1
 2305 043d 52       		.byte	0x52
 2306 043e 9F       		.byte	0x9f
 2307 043f 24000000 		.4byte	.LVL21
 2308 0443 28000000 		.4byte	.LVL22
 2309 0447 0100     		.2byte	0x1
 2310 0449 54       		.byte	0x54
 2311 044a 28000000 		.4byte	.LVL22
 2312 044e 42000000 		.4byte	.LFE2
 2313 0452 0300     		.2byte	0x3
 2314 0454 74       		.byte	0x74
 2315 0455 78       		.sleb128 -8
 2316 0456 9F       		.byte	0x9f
 2317 0457 00000000 		.4byte	0
 2318 045b 00000000 		.4byte	0
 2319              	.LLST10:
 2320 045f 00000000 		.4byte	.LVL14
 2321 0463 0C000000 		.4byte	.LVL16
 2322 0467 0100     		.2byte	0x1
 2323 0469 53       		.byte	0x53
 2324 046a 0C000000 		.4byte	.LVL16
 2325 046e 42000000 		.4byte	.LFE2
 2326 0472 0400     		.2byte	0x4
 2327 0474 F3       		.byte	0xf3
 2328 0475 01       		.uleb128 0x1
 2329 0476 53       		.byte	0x53
 2330 0477 9F       		.byte	0x9f
 2331 0478 00000000 		.4byte	0
 2332 047c 00000000 		.4byte	0
 2333              	.LLST11:
 2334 0480 00000000 		.4byte	.LVL14
 2335 0484 18000000 		.4byte	.LVL19
 2336 0488 0200     		.2byte	0x2
 2337 048a 91       		.byte	0x91
ARM GAS  /tmp/cc7v9S6V.s 			page 42


 2338 048b 00       		.sleb128 0
 2339 048c 24000000 		.4byte	.LVL21
 2340 0490 32000000 		.4byte	.LVL24
 2341 0494 0600     		.2byte	0x6
 2342 0496 91       		.byte	0x91
 2343 0497 00       		.sleb128 0
 2344 0498 06       		.byte	0x6
 2345 0499 23       		.byte	0x23
 2346 049a 08       		.uleb128 0x8
 2347 049b 9F       		.byte	0x9f
 2348 049c 32000000 		.4byte	.LVL24
 2349 04a0 35000000 		.4byte	.LVL25-1
 2350 04a4 0100     		.2byte	0x1
 2351 04a6 51       		.byte	0x51
 2352 04a7 35000000 		.4byte	.LVL25-1
 2353 04ab 40000000 		.4byte	.LVL26
 2354 04af 0600     		.2byte	0x6
 2355 04b1 91       		.byte	0x91
 2356 04b2 00       		.sleb128 0
 2357 04b3 06       		.byte	0x6
 2358 04b4 23       		.byte	0x23
 2359 04b5 08       		.uleb128 0x8
 2360 04b6 9F       		.byte	0x9f
 2361 04b7 40000000 		.4byte	.LVL26
 2362 04bb 42000000 		.4byte	.LFE2
 2363 04bf 0100     		.2byte	0x1
 2364 04c1 50       		.byte	0x50
 2365 04c2 00000000 		.4byte	0
 2366 04c6 00000000 		.4byte	0
 2367              	.LLST12:
 2368 04ca 00000000 		.4byte	.LVL14
 2369 04ce 14000000 		.4byte	.LVL18
 2370 04d2 0200     		.2byte	0x2
 2371 04d4 30       		.byte	0x30
 2372 04d5 9F       		.byte	0x9f
 2373 04d6 14000000 		.4byte	.LVL18
 2374 04da 20000000 		.4byte	.LVL20
 2375 04de 0100     		.2byte	0x1
 2376 04e0 50       		.byte	0x50
 2377 04e1 24000000 		.4byte	.LVL21
 2378 04e5 2C000000 		.4byte	.LVL23
 2379 04e9 0100     		.2byte	0x1
 2380 04eb 50       		.byte	0x50
 2381 04ec 36000000 		.4byte	.LVL25
 2382 04f0 40000000 		.4byte	.LVL26
 2383 04f4 0100     		.2byte	0x1
 2384 04f6 50       		.byte	0x50
 2385 04f7 00000000 		.4byte	0
 2386 04fb 00000000 		.4byte	0
 2387              	.LLST4:
 2388 04ff 00000000 		.4byte	.LVL10
 2389 0503 09000000 		.4byte	.LVL11-1
 2390 0507 0100     		.2byte	0x1
 2391 0509 50       		.byte	0x50
 2392 050a 09000000 		.4byte	.LVL11-1
 2393 050e 10000000 		.4byte	.LFE1
 2394 0512 0400     		.2byte	0x4
ARM GAS  /tmp/cc7v9S6V.s 			page 43


 2395 0514 F3       		.byte	0xf3
 2396 0515 01       		.uleb128 0x1
 2397 0516 50       		.byte	0x50
 2398 0517 9F       		.byte	0x9f
 2399 0518 00000000 		.4byte	0
 2400 051c 00000000 		.4byte	0
 2401              	.LLST5:
 2402 0520 00000000 		.4byte	.LVL10
 2403 0524 09000000 		.4byte	.LVL11-1
 2404 0528 0100     		.2byte	0x1
 2405 052a 51       		.byte	0x51
 2406 052b 09000000 		.4byte	.LVL11-1
 2407 052f 10000000 		.4byte	.LFE1
 2408 0533 0400     		.2byte	0x4
 2409 0535 F3       		.byte	0xf3
 2410 0536 01       		.uleb128 0x1
 2411 0537 51       		.byte	0x51
 2412 0538 9F       		.byte	0x9f
 2413 0539 00000000 		.4byte	0
 2414 053d 00000000 		.4byte	0
 2415              	.LLST6:
 2416 0541 00000000 		.4byte	.LVL10
 2417 0545 0A000000 		.4byte	.LVL11
 2418 0549 0200     		.2byte	0x2
 2419 054b 30       		.byte	0x30
 2420 054c 9F       		.byte	0x9f
 2421 054d 0A000000 		.4byte	.LVL11
 2422 0551 0C000000 		.4byte	.LVL12
 2423 0555 0100     		.2byte	0x1
 2424 0557 50       		.byte	0x50
 2425 0558 0C000000 		.4byte	.LVL12
 2426 055c 0E000000 		.4byte	.LVL13
 2427 0560 0300     		.2byte	0x3
 2428 0562 70       		.byte	0x70
 2429 0563 79       		.sleb128 -7
 2430 0564 9F       		.byte	0x9f
 2431 0565 00000000 		.4byte	0
 2432 0569 00000000 		.4byte	0
 2433              	.LLST0:
 2434 056d 00000000 		.4byte	.LVL0
 2435 0571 0E000000 		.4byte	.LVL3
 2436 0575 0100     		.2byte	0x1
 2437 0577 50       		.byte	0x50
 2438 0578 0E000000 		.4byte	.LVL3
 2439 057c 13000000 		.4byte	.LVL5-1
 2440 0580 0100     		.2byte	0x1
 2441 0582 53       		.byte	0x53
 2442 0583 13000000 		.4byte	.LVL5-1
 2443 0587 56000000 		.4byte	.LVL9
 2444 058b 0100     		.2byte	0x1
 2445 058d 54       		.byte	0x54
 2446 058e 56000000 		.4byte	.LVL9
 2447 0592 5C000000 		.4byte	.LFE0
 2448 0596 0400     		.2byte	0x4
 2449 0598 F3       		.byte	0xf3
 2450 0599 01       		.uleb128 0x1
 2451 059a 50       		.byte	0x50
ARM GAS  /tmp/cc7v9S6V.s 			page 44


 2452 059b 9F       		.byte	0x9f
 2453 059c 00000000 		.4byte	0
 2454 05a0 00000000 		.4byte	0
 2455              	.LLST1:
 2456 05a4 00000000 		.4byte	.LVL0
 2457 05a8 0C000000 		.4byte	.LVL2
 2458 05ac 0100     		.2byte	0x1
 2459 05ae 51       		.byte	0x51
 2460 05af 0C000000 		.4byte	.LVL2
 2461 05b3 56000000 		.4byte	.LVL9
 2462 05b7 0100     		.2byte	0x1
 2463 05b9 56       		.byte	0x56
 2464 05ba 56000000 		.4byte	.LVL9
 2465 05be 5C000000 		.4byte	.LFE0
 2466 05c2 0400     		.2byte	0x4
 2467 05c4 F3       		.byte	0xf3
 2468 05c5 01       		.uleb128 0x1
 2469 05c6 51       		.byte	0x51
 2470 05c7 9F       		.byte	0x9f
 2471 05c8 00000000 		.4byte	0
 2472 05cc 00000000 		.4byte	0
 2473              	.LLST2:
 2474 05d0 00000000 		.4byte	.LVL0
 2475 05d4 10000000 		.4byte	.LVL4
 2476 05d8 0100     		.2byte	0x1
 2477 05da 52       		.byte	0x52
 2478 05db 10000000 		.4byte	.LVL4
 2479 05df 13000000 		.4byte	.LVL5-1
 2480 05e3 0100     		.2byte	0x1
 2481 05e5 51       		.byte	0x51
 2482 05e6 13000000 		.4byte	.LVL5-1
 2483 05ea 14000000 		.4byte	.LVL5
 2484 05ee 0100     		.2byte	0x1
 2485 05f0 55       		.byte	0x55
 2486 05f1 14000000 		.4byte	.LVL5
 2487 05f5 4C000000 		.4byte	.LVL6
 2488 05f9 0300     		.2byte	0x3
 2489 05fb 75       		.byte	0x75
 2490 05fc 08       		.sleb128 8
 2491 05fd 9F       		.byte	0x9f
 2492 05fe 4C000000 		.4byte	.LVL6
 2493 0602 4F000000 		.4byte	.LVL7-1
 2494 0606 0100     		.2byte	0x1
 2495 0608 51       		.byte	0x51
 2496 0609 4F000000 		.4byte	.LVL7-1
 2497 060d 50000000 		.4byte	.LVL7
 2498 0611 0300     		.2byte	0x3
 2499 0613 75       		.byte	0x75
 2500 0614 08       		.sleb128 8
 2501 0615 9F       		.byte	0x9f
 2502 0616 50000000 		.4byte	.LVL7
 2503 061a 54000000 		.4byte	.LVL8
 2504 061e 0300     		.2byte	0x3
 2505 0620 75       		.byte	0x75
 2506 0621 38       		.sleb128 56
 2507 0622 9F       		.byte	0x9f
 2508 0623 54000000 		.4byte	.LVL8
ARM GAS  /tmp/cc7v9S6V.s 			page 45


 2509 0627 5C000000 		.4byte	.LFE0
 2510 062b 0100     		.2byte	0x1
 2511 062d 50       		.byte	0x50
 2512 062e 00000000 		.4byte	0
 2513 0632 00000000 		.4byte	0
 2514              	.LLST3:
 2515 0636 00000000 		.4byte	.LVL0
 2516 063a 0A000000 		.4byte	.LVL1
 2517 063e 0100     		.2byte	0x1
 2518 0640 53       		.byte	0x53
 2519 0641 0A000000 		.4byte	.LVL1
 2520 0645 5C000000 		.4byte	.LFE0
 2521 0649 0400     		.2byte	0x4
 2522 064b F3       		.byte	0xf3
 2523 064c 01       		.uleb128 0x1
 2524 064d 53       		.byte	0x53
 2525 064e 9F       		.byte	0x9f
 2526 064f 00000000 		.4byte	0
 2527 0653 00000000 		.4byte	0
 2528              		.section	.debug_aranges,"",%progbits
 2529 0000 54000000 		.4byte	0x54
 2530 0004 0200     		.2byte	0x2
 2531 0006 00000000 		.4byte	.Ldebug_info0
 2532 000a 04       		.byte	0x4
 2533 000b 00       		.byte	0
 2534 000c 0000     		.2byte	0
 2535 000e 0000     		.2byte	0
 2536 0010 00000000 		.4byte	.LFB0
 2537 0014 5C000000 		.4byte	.LFE0-.LFB0
 2538 0018 00000000 		.4byte	.LFB1
 2539 001c 10000000 		.4byte	.LFE1-.LFB1
 2540 0020 00000000 		.4byte	.LFB2
 2541 0024 42000000 		.4byte	.LFE2-.LFB2
 2542 0028 00000000 		.4byte	.LFB3
 2543 002c 1E000000 		.4byte	.LFE3-.LFB3
 2544 0030 00000000 		.4byte	.LFB4
 2545 0034 64000000 		.4byte	.LFE4-.LFB4
 2546 0038 00000000 		.4byte	.LFB5
 2547 003c 10000000 		.4byte	.LFE5-.LFB5
 2548 0040 00000000 		.4byte	.LFB6
 2549 0044 42000000 		.4byte	.LFE6-.LFB6
 2550 0048 00000000 		.4byte	.LFB7
 2551 004c 1E000000 		.4byte	.LFE7-.LFB7
 2552 0050 00000000 		.4byte	0
 2553 0054 00000000 		.4byte	0
 2554              		.section	.debug_ranges,"",%progbits
 2555              	.Ldebug_ranges0:
 2556 0000 00000000 		.4byte	.LFB0
 2557 0004 5C000000 		.4byte	.LFE0
 2558 0008 00000000 		.4byte	.LFB1
 2559 000c 10000000 		.4byte	.LFE1
 2560 0010 00000000 		.4byte	.LFB2
 2561 0014 42000000 		.4byte	.LFE2
 2562 0018 00000000 		.4byte	.LFB3
 2563 001c 1E000000 		.4byte	.LFE3
 2564 0020 00000000 		.4byte	.LFB4
 2565 0024 64000000 		.4byte	.LFE4
ARM GAS  /tmp/cc7v9S6V.s 			page 46


 2566 0028 00000000 		.4byte	.LFB5
 2567 002c 10000000 		.4byte	.LFE5
 2568 0030 00000000 		.4byte	.LFB6
 2569 0034 42000000 		.4byte	.LFE6
 2570 0038 00000000 		.4byte	.LFB7
 2571 003c 1E000000 		.4byte	.LFE7
 2572 0040 00000000 		.4byte	0
 2573 0044 00000000 		.4byte	0
 2574              		.section	.debug_line,"",%progbits
 2575              	.Ldebug_line0:
 2576 0000 B5010000 		.section	.debug_str,"MS",%progbits,1
 2576      0200DD00 
 2576      00000201 
 2576      FB0E0D00 
 2576      01010101 
 2577              	.LASF57:
 2578 0000 75617663 		.ascii	"uavcan_protocol_param_ExecuteOpcodeRequest_encode_i"
 2578      616E5F70 
 2578      726F746F 
 2578      636F6C5F 
 2578      70617261 
 2579 0033 6E746572 		.ascii	"nternal\000"
 2579      6E616C00 
 2580              	.LASF27:
 2581 003b 64617461 		.ascii	"data_type_id\000"
 2581      5F747970 
 2581      655F6964 
 2581      00
 2582              	.LASF42:
 2583 0048 64657374 		.ascii	"dest\000"
 2583      00
 2584              	.LASF30:
 2585 004d 7072696F 		.ascii	"priority\000"
 2585      72697479 
 2585      00
 2586              	.LASF20:
 2587 0056 75696E74 		.ascii	"uint64_t\000"
 2587      36345F74 
 2587      00
 2588              	.LASF2:
 2589 005f 73686F72 		.ascii	"short int\000"
 2589      7420696E 
 2589      7400
 2590              	.LASF45:
 2591 0069 75617663 		.ascii	"uavcan_protocol_param_ExecuteOpcodeResponse_decode\000"
 2591      616E5F70 
 2591      726F746F 
 2591      636F6C5F 
 2591      70617261 
 2592              	.LASF50:
 2593 009c 75617663 		.ascii	"uavcan_protocol_param_ExecuteOpcodeResponse_encode_"
 2593      616E5F70 
 2593      726F746F 
 2593      636F6C5F 
 2593      70617261 
 2594 00cf 696E7465 		.ascii	"internal\000"
 2594      726E616C 
ARM GAS  /tmp/cc7v9S6V.s 			page 47


 2594      00
 2595              	.LASF8:
 2596 00d8 5F5F7569 		.ascii	"__uint32_t\000"
 2596      6E743332 
 2596      5F7400
 2597              	.LASF4:
 2598 00e3 5F5F7569 		.ascii	"__uint16_t\000"
 2598      6E743136 
 2598      5F7400
 2599              	.LASF53:
 2600 00ee 75617663 		.ascii	"uavcan_protocol_param_ExecuteOpcodeRequest_decode_i"
 2600      616E5F70 
 2600      726F746F 
 2600      636F6C5F 
 2600      70617261 
 2601 0121 6E746572 		.ascii	"nternal\000"
 2601      6E616C00 
 2602              	.LASF19:
 2603 0129 696E7436 		.ascii	"int64_t\000"
 2603      345F7400 
 2604              	.LASF15:
 2605 0131 75696E74 		.ascii	"uint8_t\000"
 2605      385F7400 
 2606              	.LASF37:
 2607 0139 6F70636F 		.ascii	"opcode\000"
 2607      646500
 2608              	.LASF11:
 2609 0140 6C6F6E67 		.ascii	"long long int\000"
 2609      206C6F6E 
 2609      6720696E 
 2609      7400
 2610              	.LASF43:
 2611 014e 64796E5F 		.ascii	"dyn_arr_buf\000"
 2611      6172725F 
 2611      62756600 
 2612              	.LASF56:
 2613 015a 75617663 		.ascii	"uavcan_protocol_param_ExecuteOpcodeRequest_encode\000"
 2613      616E5F70 
 2613      726F746F 
 2613      636F6C5F 
 2613      70617261 
 2614              	.LASF7:
 2615 018c 6C6F6E67 		.ascii	"long int\000"
 2615      20696E74 
 2615      00
 2616              	.LASF10:
 2617 0195 5F5F696E 		.ascii	"__int64_t\000"
 2617      7436345F 
 2617      7400
 2618              	.LASF44:
 2619 019f 6F666673 		.ascii	"offset\000"
 2619      657400
 2620              	.LASF3:
 2621 01a6 5F5F7569 		.ascii	"__uint8_t\000"
 2621      6E74385F 
 2621      7400
 2622              	.LASF48:
ARM GAS  /tmp/cc7v9S6V.s 			page 48


 2623 01b0 736F7572 		.ascii	"source\000"
 2623      636500
 2624              	.LASF25:
 2625 01b7 7061796C 		.ascii	"payload_tail\000"
 2625      6F61645F 
 2625      7461696C 
 2625      00
 2626              	.LASF22:
 2627 01c4 74696D65 		.ascii	"timestamp_usec\000"
 2627      7374616D 
 2627      705F7573 
 2627      656300
 2628              	.LASF1:
 2629 01d3 756E7369 		.ascii	"unsigned char\000"
 2629      676E6564 
 2629      20636861 
 2629      7200
 2630              	.LASF40:
 2631 01e1 75617663 		.ascii	"uavcan_protocol_param_ExecuteOpcodeResponse\000"
 2631      616E5F70 
 2631      726F746F 
 2631      636F6C5F 
 2631      70617261 
 2632              	.LASF24:
 2633 020d 7061796C 		.ascii	"payload_middle\000"
 2633      6F61645F 
 2633      6D696464 
 2633      6C6500
 2634              	.LASF62:
 2635 021c 2F626C64 		.ascii	"/bldc\000"
 2635      6300
 2636              	.LASF0:
 2637 0222 7369676E 		.ascii	"signed char\000"
 2637      65642063 
 2637      68617200 
 2638              	.LASF13:
 2639 022e 6C6F6E67 		.ascii	"long long unsigned int\000"
 2639      206C6F6E 
 2639      6720756E 
 2639      7369676E 
 2639      65642069 
 2640              	.LASF18:
 2641 0245 75696E74 		.ascii	"uint32_t\000"
 2641      33325F74 
 2641      00
 2642              	.LASF14:
 2643 024e 756E7369 		.ascii	"unsigned int\000"
 2643      676E6564 
 2643      20696E74 
 2643      00
 2644              	.LASF16:
 2645 025b 75696E74 		.ascii	"uint16_t\000"
 2645      31365F74 
 2645      00
 2646              	.LASF34:
 2647 0264 43616E61 		.ascii	"CanardBufferBlock\000"
 2647      72644275 
ARM GAS  /tmp/cc7v9S6V.s 			page 49


 2647      66666572 
 2647      426C6F63 
 2647      6B00
 2648              	.LASF38:
 2649 0276 61726775 		.ascii	"argument\000"
 2649      6D656E74 
 2649      00
 2650              	.LASF31:
 2651 027f 736F7572 		.ascii	"source_node_id\000"
 2651      63655F6E 
 2651      6F64655F 
 2651      696400
 2652              	.LASF5:
 2653 028e 73686F72 		.ascii	"short unsigned int\000"
 2653      7420756E 
 2653      7369676E 
 2653      65642069 
 2653      6E7400
 2654              	.LASF59:
 2655 02a1 63616E61 		.ascii	"canardEncodeScalar\000"
 2655      7264456E 
 2655      636F6465 
 2655      5363616C 
 2655      617200
 2656              	.LASF33:
 2657 02b4 63686172 		.ascii	"char\000"
 2657      00
 2658              	.LASF32:
 2659 02b9 5F426F6F 		.ascii	"_Bool\000"
 2659      6C00
 2660              	.LASF17:
 2661 02bf 696E7433 		.ascii	"int32_t\000"
 2661      325F7400 
 2662              	.LASF28:
 2663 02c7 7472616E 		.ascii	"transfer_type\000"
 2663      73666572 
 2663      5F747970 
 2663      6500
 2664              	.LASF46:
 2665 02d5 75617663 		.ascii	"uavcan_protocol_param_ExecuteOpcodeResponse_decode_"
 2665      616E5F70 
 2665      726F746F 
 2665      636F6C5F 
 2665      70617261 
 2666 0308 696E7465 		.ascii	"internal\000"
 2666      726E616C 
 2666      00
 2667              	.LASF23:
 2668 0311 7061796C 		.ascii	"payload_head\000"
 2668      6F61645F 
 2668      68656164 
 2668      00
 2669              	.LASF52:
 2670 031e 75617663 		.ascii	"uavcan_protocol_param_ExecuteOpcodeRequest_decode\000"
 2670      616E5F70 
 2670      726F746F 
 2670      636F6C5F 
ARM GAS  /tmp/cc7v9S6V.s 			page 50


 2670      70617261 
 2671              	.LASF12:
 2672 0350 5F5F7569 		.ascii	"__uint64_t\000"
 2672      6E743634 
 2672      5F7400
 2673              	.LASF36:
 2674 035b 64617461 		.ascii	"data\000"
 2674      00
 2675              	.LASF41:
 2676 0360 7472616E 		.ascii	"transfer\000"
 2676      73666572 
 2676      00
 2677              	.LASF39:
 2678 0369 75617663 		.ascii	"uavcan_protocol_param_ExecuteOpcodeRequest\000"
 2678      616E5F70 
 2678      726F746F 
 2678      636F6C5F 
 2678      70617261 
 2679              	.LASF21:
 2680 0394 43616E61 		.ascii	"CanardRxTransfer\000"
 2680      72645278 
 2680      5472616E 
 2680      73666572 
 2680      00
 2681              	.LASF9:
 2682 03a5 6C6F6E67 		.ascii	"long unsigned int\000"
 2682      20756E73 
 2682      69676E65 
 2682      6420696E 
 2682      7400
 2683              	.LASF47:
 2684 03b7 75617663 		.ascii	"uavcan_protocol_param_ExecuteOpcodeResponse_encode\000"
 2684      616E5F70 
 2684      726F746F 
 2684      636F6C5F 
 2684      70617261 
 2685              	.LASF51:
 2686 03ea 726F6F74 		.ascii	"root_item\000"
 2686      5F697465 
 2686      6D00
 2687              	.LASF6:
 2688 03f4 5F5F696E 		.ascii	"__int32_t\000"
 2688      7433325F 
 2688      7400
 2689              	.LASF54:
 2690 03fe 75617663 		.ascii	"uavcan_protocol_param_ExecuteOpcodeResponse_error_e"
 2690      616E5F70 
 2690      726F746F 
 2690      636F6C5F 
 2690      70617261 
 2691 0431 78697400 		.ascii	"xit\000"
 2692              	.LASF26:
 2693 0435 7061796C 		.ascii	"payload_len\000"
 2693      6F61645F 
 2693      6C656E00 
 2694              	.LASF29:
 2695 0441 7472616E 		.ascii	"transfer_id\000"
ARM GAS  /tmp/cc7v9S6V.s 			page 51


 2695      73666572 
 2695      5F696400 
 2696              	.LASF55:
 2697 044d 75617663 		.ascii	"uavcan_protocol_param_ExecuteOpcodeRequest_error_ex"
 2697      616E5F70 
 2697      726F746F 
 2697      636F6C5F 
 2697      70617261 
 2698 0480 697400   		.ascii	"it\000"
 2699              	.LASF58:
 2700 0483 63616E61 		.ascii	"canardDecodeScalar\000"
 2700      72644465 
 2700      636F6465 
 2700      5363616C 
 2700      617200
 2701              	.LASF61:
 2702 0496 6C696263 		.ascii	"libcanard/dsdl/uavcan/protocol/param/param_ExecuteO"
 2702      616E6172 
 2702      642F6473 
 2702      646C2F75 
 2702      61766361 
 2703 04c9 70636F64 		.ascii	"pcode.c\000"
 2703      652E6300 
 2704              	.LASF49:
 2705 04d1 6D73675F 		.ascii	"msg_buf\000"
 2705      62756600 
 2706              	.LASF35:
 2707 04d9 6E657874 		.ascii	"next\000"
 2707      00
 2708              	.LASF60:
 2709 04de 474E5520 		.ascii	"GNU C99 7.3.1 20180622 (release) [ARM/embedded-7-br"
 2709      43393920 
 2709      372E332E 
 2709      31203230 
 2709      31383036 
 2710 0511 616E6368 		.ascii	"anch revision 261907] -mcpu=cortex-m4 -mfloat-abi=h"
 2710      20726576 
 2710      6973696F 
 2710      6E203236 
 2710      31393037 
 2711 0544 61726420 		.ascii	"ard -mfpu=fpv4-sp-d16 -mno-thumb-interwork -mthumb "
 2711      2D6D6670 
 2711      753D6670 
 2711      76342D73 
 2711      702D6431 
 2712 0577 2D676764 		.ascii	"-ggdb -O2 -std=gnu99 -fomit-frame-pointer -falign-f"
 2712      62202D4F 
 2712      32202D73 
 2712      74643D67 
 2712      6E753939 
 2713 05aa 756E6374 		.ascii	"unctions=16 -ffunction-sections -fdata-sections -fn"
 2713      696F6E73 
 2713      3D313620 
 2713      2D666675 
 2713      6E637469 
 2714 05dd 6F2D636F 		.ascii	"o-common -fsingle-precision-constant\000"
 2714      6D6D6F6E 
ARM GAS  /tmp/cc7v9S6V.s 			page 52


 2714      202D6673 
 2714      696E676C 
 2714      652D7072 
 2715              		.ident	"GCC: (GNU Tools for Arm Embedded Processors 7-2018-q3-update) 7.3.1 20180622 (release) [AR
ARM GAS  /tmp/cc7v9S6V.s 			page 53


DEFINED SYMBOLS
                            *ABS*:0000000000000000 param_ExecuteOpcode.c
     /tmp/cc7v9S6V.s:18     .text.uavcan_protocol_param_ExecuteOpcodeRequest_encode_internal:0000000000000000 $t
     /tmp/cc7v9S6V.s:26     .text.uavcan_protocol_param_ExecuteOpcodeRequest_encode_internal:0000000000000000 uavcan_protocol_param_ExecuteOpcodeRequest_encode_internal
     /tmp/cc7v9S6V.s:89     .text.uavcan_protocol_param_ExecuteOpcodeRequest_encode_internal:0000000000000058 $d
     /tmp/cc7v9S6V.s:94     .text.uavcan_protocol_param_ExecuteOpcodeRequest_encode:0000000000000000 $t
     /tmp/cc7v9S6V.s:102    .text.uavcan_protocol_param_ExecuteOpcodeRequest_encode:0000000000000000 uavcan_protocol_param_ExecuteOpcodeRequest_encode
     /tmp/cc7v9S6V.s:129    .text.uavcan_protocol_param_ExecuteOpcodeRequest_decode_internal:0000000000000000 $t
     /tmp/cc7v9S6V.s:137    .text.uavcan_protocol_param_ExecuteOpcodeRequest_decode_internal:0000000000000000 uavcan_protocol_param_ExecuteOpcodeRequest_decode_internal
     /tmp/cc7v9S6V.s:213    .text.uavcan_protocol_param_ExecuteOpcodeRequest_decode:0000000000000000 $t
     /tmp/cc7v9S6V.s:221    .text.uavcan_protocol_param_ExecuteOpcodeRequest_decode:0000000000000000 uavcan_protocol_param_ExecuteOpcodeRequest_decode
     /tmp/cc7v9S6V.s:262    .text.uavcan_protocol_param_ExecuteOpcodeResponse_encode_internal:0000000000000000 $t
     /tmp/cc7v9S6V.s:270    .text.uavcan_protocol_param_ExecuteOpcodeResponse_encode_internal:0000000000000000 uavcan_protocol_param_ExecuteOpcodeResponse_encode_internal
     /tmp/cc7v9S6V.s:341    .text.uavcan_protocol_param_ExecuteOpcodeResponse_encode_internal:0000000000000060 $d
     /tmp/cc7v9S6V.s:346    .text.uavcan_protocol_param_ExecuteOpcodeResponse_encode:0000000000000000 $t
     /tmp/cc7v9S6V.s:354    .text.uavcan_protocol_param_ExecuteOpcodeResponse_encode:0000000000000000 uavcan_protocol_param_ExecuteOpcodeResponse_encode
     /tmp/cc7v9S6V.s:381    .text.uavcan_protocol_param_ExecuteOpcodeResponse_decode_internal:0000000000000000 $t
     /tmp/cc7v9S6V.s:389    .text.uavcan_protocol_param_ExecuteOpcodeResponse_decode_internal:0000000000000000 uavcan_protocol_param_ExecuteOpcodeResponse_decode_internal
     /tmp/cc7v9S6V.s:465    .text.uavcan_protocol_param_ExecuteOpcodeResponse_decode:0000000000000000 $t
     /tmp/cc7v9S6V.s:473    .text.uavcan_protocol_param_ExecuteOpcodeResponse_decode:0000000000000000 uavcan_protocol_param_ExecuteOpcodeResponse_decode

UNDEFINED SYMBOLS
canardEncodeScalar
canardDecodeScalar
