ARM GAS  /tmp/cclxi6yR.s 			page 1


   1              		.cpu cortex-m4
   2              		.eabi_attribute 27, 1
   3              		.eabi_attribute 28, 1
   4              		.eabi_attribute 20, 1
   5              		.eabi_attribute 21, 1
   6              		.eabi_attribute 23, 3
   7              		.eabi_attribute 24, 1
   8              		.eabi_attribute 25, 1
   9              		.eabi_attribute 26, 1
  10              		.eabi_attribute 30, 2
  11              		.eabi_attribute 34, 1
  12              		.eabi_attribute 18, 4
  13              		.file	"print.c"
  14              		.text
  15              	.Ltext0:
  16              		.cfi_sections	.debug_frame
  17              		.global	__aeabi_f2d
  18              		.section	.text.lbm_print_value,"ax",%progbits
  19              		.align	1
  20              		.p2align 4,,15
  21              		.global	lbm_print_value
  22              		.syntax unified
  23              		.thumb
  24              		.thumb_func
  25              		.fpu fpv4-sp-d16
  26              		.type	lbm_print_value, %function
  27              	lbm_print_value:
  28              	.LFB45:
  29              		.file 1 "lispBM/lispBM/src/print.c"
  30              		.loc 1 42 0
  31              		.cfi_startproc
  32              		@ args = 0, pretend = 0, frame = 32
  33              		@ frame_needed = 0, uses_anonymous_args = 0
  34              	.LVL0:
  35 0000 2DE9F04F 		push	{r4, r5, r6, r7, r8, r9, r10, fp, lr}
  36              		.cfi_def_cfa_offset 36
  37              		.cfi_offset 4, -36
  38              		.cfi_offset 5, -32
  39              		.cfi_offset 6, -28
  40              		.cfi_offset 7, -24
  41              		.cfi_offset 8, -20
  42              		.cfi_offset 9, -16
  43              		.cfi_offset 10, -12
  44              		.cfi_offset 11, -8
  45              		.cfi_offset 14, -4
  46 0004 8BB0     		sub	sp, sp, #44
  47              		.cfi_def_cfa_offset 80
  48              		.loc 1 42 0
  49 0006 1446     		mov	r4, r2
  50 0008 0746     		mov	r7, r0
  51              		.loc 1 45 0
  52 000a 8022     		movs	r2, #128
  53              	.LVL1:
  54              		.loc 1 42 0
  55 000c 0D46     		mov	r5, r1
  56              		.loc 1 45 0
  57 000e 06A8     		add	r0, sp, #24
ARM GAS  /tmp/cclxi6yR.s 			page 2


  58              	.LVL2:
  59 0010 B549     		ldr	r1, .L85
  60              	.LVL3:
  61 0012 FFF7FEFF 		bl	lbm_stack_create
  62              	.LVL4:
  63              	.LBB78:
  64              	.LBB79:
  65              		.file 2 "lispBM/lispBM/include/stack.h"
  66              		.loc 2 110 0
  67 0016 2146     		mov	r1, r4
  68 0018 06A8     		add	r0, sp, #24
  69              	.LVL5:
  70 001a FFF7FEFF 		bl	lbm_push_u32
  71              	.LVL6:
  72              		.loc 2 111 0
  73 001e 06A8     		add	r0, sp, #24
  74              	.LVL7:
  75 0020 0121     		movs	r1, #1
  76 0022 FFF7FEFF 		bl	lbm_push_u32
  77              	.LVL8:
  78              	.LBE79:
  79              	.LBE78:
  80              	.LBB80:
  81              	.LBB81:
  82              		.loc 2 97 0
  83 0026 0798     		ldr	r0, [sp, #28]
  84 0028 58B3     		cbz	r0, .L1
  85              	.LBE81:
  86              	.LBE80:
  87              		.loc 1 49 0
  88 002a 0024     		movs	r4, #0
  89              	.LVL9:
  90              	.LBB83:
  91              	.LBB84:
  92              		.loc 1 221 0
  93 002c DFF8F0A2 		ldr	r10, .L85+56
  94              	.LBE84:
  95              	.LBB85:
  96              		.loc 1 249 0
  97 0030 DFF8F092 		ldr	r9, .L85+60
  98              	.LBE85:
  99              	.LBE83:
 100              		.loc 1 48 0
 101 0034 2646     		mov	r6, r4
 102              		.loc 1 55 0
 103 0036 A5F10508 		sub	r8, r5, #5
 104              	.LVL10:
 105              	.L52:
 106              	.LBB118:
 107              		.loc 1 59 0
 108 003a 05A9     		add	r1, sp, #20
 109 003c 06A8     		add	r0, sp, #24
 110              	.LVL11:
 111 003e FFF7FEFF 		bl	lbm_pop_u32
 112              	.LVL12:
 113              		.loc 1 61 0
 114 0042 059B     		ldr	r3, [sp, #20]
ARM GAS  /tmp/cclxi6yR.s 			page 3


 115 0044 013B     		subs	r3, r3, #1
 116 0046 052B     		cmp	r3, #5
 117 0048 00F2CF80 		bhi	.L4
 118 004c DFE803F0 		tbb	[pc, r3]
 119              	.L6:
 120 0050 9F       		.byte	(.L5-.L6)/2
 121 0051 9D       		.byte	(.L7-.L6)/2
 122 0052 5B       		.byte	(.L8-.L6)/2
 123 0053 24       		.byte	(.L9-.L6)/2
 124 0054 1C       		.byte	(.L10-.L6)/2
 125 0055 03       		.byte	(.L11-.L6)/2
 126              		.p2align 1
 127              	.L11:
 128              		.loc 1 166 0
 129 0056 291B     		subs	r1, r5, r4
 130 0058 3819     		adds	r0, r7, r4
 131 005a A44A     		ldr	r2, .L85+4
 132 005c FFF7FEFF 		bl	snprintf
 133              	.LVL13:
 134              		.loc 1 173 0
 135 0060 0334     		adds	r4, r4, #3
 136              	.LVL14:
 137              		.loc 1 168 0
 138 0062 0326     		movs	r6, #3
 139              	.LVL15:
 140              	.L17:
 141              	.LBE118:
 142              	.LBB119:
 143              	.LBB82:
 144              		.loc 2 97 0 discriminator 1
 145 0064 079B     		ldr	r3, [sp, #28]
 146 0066 002B     		cmp	r3, #0
 147 0068 00F02281 		beq	.L77
 148              	.LBE82:
 149              	.LBE119:
 150              		.loc 1 55 0
 151 006c 4445     		cmp	r4, r8
 152 006e E4D9     		bls	.L52
 153              	.LVL16:
 154              		.loc 1 342 0
 155 0070 9F4A     		ldr	r2, .L85+8
 156              		.loc 1 343 0
 157 0072 7B19     		adds	r3, r7, r5
 158              		.loc 1 342 0
 159 0074 1068     		ldr	r0, [r2]
 160 0076 47F80800 		str	r0, [r7, r8]	@ unaligned
 161              		.loc 1 343 0
 162 007a 0022     		movs	r2, #0
 163              		.loc 1 344 0
 164 007c 2846     		mov	r0, r5
 165              		.loc 1 343 0
 166 007e 03F8012C 		strb	r2, [r3, #-1]
 167              	.LVL17:
 168              	.L1:
 169              		.loc 1 349 0
 170 0082 0BB0     		add	sp, sp, #44
 171              		.cfi_remember_state
ARM GAS  /tmp/cclxi6yR.s 			page 4


 172              		.cfi_def_cfa_offset 36
 173              		@ sp needed
 174 0084 BDE8F08F 		pop	{r4, r5, r6, r7, r8, r9, r10, fp, pc}
 175              	.LVL18:
 176              	.L10:
 177              		.cfi_restore_state
 178              	.LBB120:
 179              		.loc 1 144 0
 180 0088 9A4A     		ldr	r2, .L85+12
 181              	.L69:
 182              		.loc 1 155 0
 183 008a 291B     		subs	r1, r5, r4
 184 008c 3819     		adds	r0, r7, r4
 185 008e FFF7FEFF 		bl	snprintf
 186              	.LVL19:
 187              		.loc 1 163 0
 188 0092 0134     		adds	r4, r4, #1
 189              	.LVL20:
 190              		.loc 1 157 0
 191 0094 0126     		movs	r6, #1
 192              		.loc 1 164 0
 193 0096 E5E7     		b	.L17
 194              	.LVL21:
 195              	.L9:
 196              	.LBB86:
 197              		.loc 1 104 0
 198 0098 04A9     		add	r1, sp, #16
 199 009a 06A8     		add	r0, sp, #24
 200              	.LVL22:
 201 009c FFF7FEFF 		bl	lbm_pop_u32
 202              	.LVL23:
 203              		.loc 1 106 0
 204 00a0 0498     		ldr	r0, [sp, #16]
 205              	.LVL24:
 206              	.LBB87:
 207              	.LBB88:
 208              		.file 3 "lispBM/lispBM/include/heap.h"
 209              		.loc 3 461 0
 210 00a2 C307     		lsls	r3, r0, #31
 211 00a4 4CBF     		ite	mi
 212 00a6 00F07C43 		andmi	r3, r0, #-67108864
 213 00aa 00F00C03 		andpl	r3, r0, #12
 214              	.LBE88:
 215              	.LBE87:
 216              		.loc 1 106 0
 217 00ae 0BB9     		cbnz	r3, .L21
 218              		.loc 1 106 0 is_stmt 0 discriminator 1
 219 00b0 0309     		lsrs	r3, r0, #4
 220 00b2 D7D0     		beq	.L17
 221              	.L21:
 222              		.loc 1 111 0 is_stmt 1
 223 00b4 FFF7FEFF 		bl	lbm_car
 224              	.LVL25:
 225 00b8 8346     		mov	fp, r0
 226              	.LVL26:
 227              		.loc 1 112 0
 228 00ba 0498     		ldr	r0, [sp, #16]
ARM GAS  /tmp/cclxi6yR.s 			page 5


 229              	.LVL27:
 230 00bc FFF7FEFF 		bl	lbm_cdr
 231              	.LVL28:
 232              		.loc 1 114 0
 233 00c0 291B     		subs	r1, r5, r4
 234              		.loc 1 112 0
 235 00c2 0646     		mov	r6, r0
 236              	.LVL29:
 237              		.loc 1 114 0
 238 00c4 8C4A     		ldr	r2, .L85+16
 239 00c6 3819     		adds	r0, r7, r4
 240              	.LVL30:
 241 00c8 FFF7FEFF 		bl	snprintf
 242              	.LVL31:
 243              	.LBB89:
 244              	.LBB90:
 245              		.loc 3 461 0
 246 00cc F107     		lsls	r1, r6, #31
 247              	.LBE90:
 248              	.LBE89:
 249              		.loc 1 121 0
 250 00ce 04F10104 		add	r4, r4, #1
 251              	.LVL32:
 252              	.LBB93:
 253              	.LBB91:
 254              		.loc 3 461 0
 255 00d2 40F1AB80 		bpl	.L22
 256 00d6 06F07C43 		and	r3, r6, #-67108864
 257              	.LVL33:
 258              	.LBE91:
 259              	.LBE93:
 260              		.loc 1 123 0
 261 00da B3F1805F 		cmp	r3, #268435456
 262 00de 00F0D980 		beq	.L78
 263              	.L24:
 264              		.loc 1 128 0
 265 00e2 0521     		movs	r1, #5
 266 00e4 06A8     		add	r0, sp, #24
 267              	.LVL34:
 268              		.loc 1 126 0
 269 00e6 13B9     		cbnz	r3, .L26
 270 00e8 3309     		lsrs	r3, r6, #4
 271 00ea 00F0D580 		beq	.L79
 272              	.L26:
 273              		.loc 1 130 0
 274 00ee FFF7FEFF 		bl	lbm_push_u32
 275              	.LVL35:
 276              		.loc 1 131 0
 277 00f2 3146     		mov	r1, r6
 278              		.loc 1 130 0
 279 00f4 0390     		str	r0, [sp, #12]
 280              	.LVL36:
 281              		.loc 1 131 0
 282 00f6 06A8     		add	r0, sp, #24
 283              	.LVL37:
 284 00f8 FFF7FEFF 		bl	lbm_push_u32
 285              	.LVL38:
ARM GAS  /tmp/cclxi6yR.s 			page 6


 286 00fc 039B     		ldr	r3, [sp, #12]
 287              		.loc 1 132 0
 288 00fe 0121     		movs	r1, #1
 289              		.loc 1 131 0
 290 0100 03EA0006 		and	r6, r3, r0
 291              	.LVL39:
 292 0104 2AE0     		b	.L74
 293              	.LVL40:
 294              	.L8:
 295              	.LBE86:
 296              	.LBB95:
 297              		.loc 1 65 0
 298 0106 04A9     		add	r1, sp, #16
 299 0108 06A8     		add	r0, sp, #24
 300              	.LVL41:
 301 010a FFF7FEFF 		bl	lbm_pop_u32
 302              	.LVL42:
 303              		.loc 1 67 0
 304 010e 7B4A     		ldr	r2, .L85+20
 305 0110 291B     		subs	r1, r5, r4
 306 0112 3819     		adds	r0, r7, r4
 307 0114 FFF7FEFF 		bl	snprintf
 308              	.LVL43:
 309              		.loc 1 76 0
 310 0118 0498     		ldr	r0, [sp, #16]
 311 011a FFF7FEFF 		bl	lbm_car
 312              	.LVL44:
 313 011e 8346     		mov	fp, r0
 314              		.loc 1 77 0
 315 0120 0498     		ldr	r0, [sp, #16]
 316 0122 FFF7FEFF 		bl	lbm_cdr
 317              	.LVL45:
 318              	.LBB96:
 319              	.LBB97:
 320              		.loc 3 461 0
 321 0126 C207     		lsls	r2, r0, #31
 322              	.LBE97:
 323              	.LBE96:
 324              		.loc 1 77 0
 325 0128 0346     		mov	r3, r0
 326              		.loc 1 75 0
 327 012a 04F10104 		add	r4, r4, #1
 328              	.LVL46:
 329              	.LBB100:
 330              	.LBB98:
 331              		.loc 3 461 0
 332 012e 66D5     		bpl	.L12
 333 0130 00F07C42 		and	r2, r0, #-67108864
 334              	.LVL47:
 335              	.LBE98:
 336              	.LBE100:
 337              		.loc 1 79 0
 338 0134 B2F1805F 		cmp	r2, #268435456
 339 0138 7BD0     		beq	.L80
 340              	.L14:
 341              		.loc 1 82 0
 342 013a 12B9     		cbnz	r2, .L16
ARM GAS  /tmp/cclxi6yR.s 			page 7


 343 013c 1A09     		lsrs	r2, r3, #4
 344 013e 00F0B080 		beq	.L81
 345              	.L16:
 346              		.loc 1 86 0
 347 0142 0521     		movs	r1, #5
 348 0144 06A8     		add	r0, sp, #24
 349              	.LVL48:
 350 0146 0393     		str	r3, [sp, #12]
 351 0148 FFF7FEFF 		bl	lbm_push_u32
 352              	.LVL49:
 353              		.loc 1 87 0
 354 014c 039B     		ldr	r3, [sp, #12]
 355              		.loc 1 86 0
 356 014e 0646     		mov	r6, r0
 357              	.LVL50:
 358              		.loc 1 87 0
 359 0150 1946     		mov	r1, r3
 360 0152 06A8     		add	r0, sp, #24
 361              	.LVL51:
 362 0154 FFF7FEFF 		bl	lbm_push_u32
 363              	.LVL52:
 364              		.loc 1 88 0
 365 0158 0121     		movs	r1, #1
 366              		.loc 1 87 0
 367 015a 0640     		ands	r6, r6, r0
 368              	.LVL53:
 369              	.L74:
 370              		.loc 1 88 0
 371 015c 06A8     		add	r0, sp, #24
 372              	.LVL54:
 373              		.loc 1 87 0
 374 015e 0E40     		ands	r6, r6, r1
 375              	.LVL55:
 376              		.loc 1 88 0
 377 0160 FFF7FEFF 		bl	lbm_push_u32
 378              	.LVL56:
 379              		.loc 1 89 0
 380 0164 0621     		movs	r1, #6
 381              		.loc 1 88 0
 382 0166 0640     		ands	r6, r6, r0
 383              	.LVL57:
 384              		.loc 1 89 0
 385 0168 06A8     		add	r0, sp, #24
 386              	.LVL58:
 387 016a FFF7FEFF 		bl	lbm_push_u32
 388              	.LVL59:
 389 016e 0640     		ands	r6, r6, r0
 390              	.LVL60:
 391              	.L15:
 392              		.loc 1 91 0
 393 0170 5946     		mov	r1, fp
 394 0172 06A8     		add	r0, sp, #24
 395              	.LVL61:
 396 0174 FFF7FEFF 		bl	lbm_push_u32
 397              	.LVL62:
 398              		.loc 1 92 0
 399 0178 0121     		movs	r1, #1
ARM GAS  /tmp/cclxi6yR.s 			page 8


 400              		.loc 1 91 0
 401 017a 0640     		ands	r6, r6, r0
 402              	.LVL63:
 403              		.loc 1 92 0
 404 017c 06A8     		add	r0, sp, #24
 405              	.LVL64:
 406 017e FFF7FEFF 		bl	lbm_push_u32
 407              	.LVL65:
 408              		.loc 1 94 0
 409 0182 0642     		tst	r6, r0
 410 0184 2BD0     		beq	.L27
 411              		.loc 1 69 0
 412 0186 0126     		movs	r6, #1
 413              	.LVL66:
 414 0188 6CE7     		b	.L17
 415              	.LVL67:
 416              	.L7:
 417              	.LBE95:
 418              		.loc 1 155 0
 419 018a 5B4A     		ldr	r2, .L85+16
 420 018c 7DE7     		b	.L69
 421              	.L5:
 422              		.loc 1 178 0
 423 018e 04A9     		add	r1, sp, #16
 424 0190 06A8     		add	r0, sp, #24
 425              	.LVL68:
 426 0192 FFF7FEFF 		bl	lbm_pop_u32
 427              	.LVL69:
 428              		.loc 1 180 0
 429 0196 0498     		ldr	r0, [sp, #16]
 430              	.LVL70:
 431              	.LBB102:
 432              	.LBB103:
 433              		.loc 3 461 0
 434 0198 C207     		lsls	r2, r0, #31
 435 019a 4CBF     		ite	mi
 436 019c 00F07C42 		andmi	r2, r0, #-67108864
 437 01a0 00F00C02 		andpl	r2, r0, #12
 438              	.LVL71:
 439              	.LBE103:
 440              	.LBE102:
 441              		.loc 1 180 0
 442 01a4 B2F1005F 		cmp	r2, #536870912
 443 01a8 00F08D80 		beq	.L31
 444 01ac 2AD8     		bhi	.L32
 445 01ae 082A     		cmp	r2, #8
 446 01b0 00F0D680 		beq	.L33
 447 01b4 60D9     		bls	.L82
 448 01b6 0C2A     		cmp	r2, #12
 449 01b8 7CD0     		beq	.L37
 450 01ba B2F1805F 		cmp	r2, #268435456
 451 01be 40F08780 		bne	.L30
 452              	.LVL72:
 453              		.loc 1 184 0
 454 01c2 0146     		mov	r1, r0
 455 01c4 06A8     		add	r0, sp, #24
 456              	.LVL73:
ARM GAS  /tmp/cclxi6yR.s 			page 9


 457 01c6 FFF7FEFF 		bl	lbm_push_u32
 458              	.LVL74:
 459              		.loc 1 185 0
 460 01ca 0321     		movs	r1, #3
 461              		.loc 1 184 0
 462 01cc 8346     		mov	fp, r0
 463              	.LVL75:
 464              		.loc 1 185 0
 465 01ce 06A8     		add	r0, sp, #24
 466              	.LVL76:
 467 01d0 FFF7FEFF 		bl	lbm_push_u32
 468              	.LVL77:
 469 01d4 0BEA0000 		and	r0, fp, r0
 470              	.LVL78:
 471              		.loc 1 186 0
 472 01d8 C307     		lsls	r3, r0, #31
 473 01da 3FF543AF 		bmi	.L17
 474              	.L27:
 475              	.LBB104:
 476              		.loc 1 95 0
 477 01de 2946     		mov	r1, r5
 478 01e0 3846     		mov	r0, r7
 479 01e2 474A     		ldr	r2, .L85+24
 480 01e4 FFF7FEFF 		bl	snprintf
 481              	.LVL79:
 482              		.loc 1 96 0
 483 01e8 04E0     		b	.L18
 484              	.L4:
 485              	.LBE104:
 486              		.loc 1 335 0
 487 01ea 2946     		mov	r1, r5
 488 01ec 3846     		mov	r0, r7
 489 01ee 454A     		ldr	r2, .L85+28
 490 01f0 FFF7FEFF 		bl	snprintf
 491              	.LVL80:
 492              	.L18:
 493              		.loc 1 72 0 discriminator 1
 494 01f4 4FF0FF30 		mov	r0, #-1
 495              	.LBE120:
 496              		.loc 1 349 0 discriminator 1
 497 01f8 0BB0     		add	sp, sp, #44
 498              		.cfi_remember_state
 499              		.cfi_def_cfa_offset 36
 500              		@ sp needed
 501 01fa BDE8F08F 		pop	{r4, r5, r6, r7, r8, r9, r10, fp, pc}
 502              	.LVL81:
 503              	.L12:
 504              		.cfi_restore_state
 505              	.LBB121:
 506              	.LBB105:
 507              	.LBB101:
 508              	.LBB99:
 509              		.loc 3 461 0
 510 01fe 00F00C02 		and	r2, r0, #12
 511              	.LVL82:
 512 0202 9AE7     		b	.L14
 513              	.LVL83:
ARM GAS  /tmp/cclxi6yR.s 			page 10


 514              	.L32:
 515              	.LBE99:
 516              	.LBE101:
 517              	.LBE105:
 518              		.loc 1 180 0
 519 0204 B2F1504F 		cmp	r2, #-805306368
 520 0208 00F08E80 		beq	.L39
 521 020c 1ED9     		bls	.L83
 522 020e B2F1604F 		cmp	r2, #-536870912
 523 0212 00F0A880 		beq	.L43
 524 0216 B2F1704F 		cmp	r2, #-268435456
 525 021a 59D1     		bne	.L30
 526              		.loc 1 267 0
 527 021c 291B     		subs	r1, r5, r4
 528 021e 3819     		adds	r0, r7, r4
 529 0220 394A     		ldr	r2, .L85+32
 530 0222 FFF7FEFF 		bl	snprintf
 531              	.LVL84:
 532              		.loc 1 274 0
 533 0226 0834     		adds	r4, r4, #8
 534              	.LVL85:
 535              		.loc 1 269 0
 536 0228 0826     		movs	r6, #8
 537              		.loc 1 275 0
 538 022a 1BE7     		b	.L17
 539              	.LVL86:
 540              	.L22:
 541              	.LBB106:
 542              	.LBB94:
 543              	.LBB92:
 544              		.loc 3 461 0
 545 022c 06F00C03 		and	r3, r6, #12
 546              	.LVL87:
 547 0230 57E7     		b	.L24
 548              	.LVL88:
 549              	.L80:
 550              	.LBE92:
 551              	.LBE94:
 552              	.LBE106:
 553              	.LBB107:
 554              		.loc 1 80 0
 555 0232 0146     		mov	r1, r0
 556              	.LVL89:
 557              	.L75:
 558              	.LBE107:
 559              	.LBB108:
 560              		.loc 1 124 0
 561 0234 06A8     		add	r0, sp, #24
 562              	.LVL90:
 563 0236 FFF7FEFF 		bl	lbm_push_u32
 564              	.LVL91:
 565              		.loc 1 125 0
 566 023a 0421     		movs	r1, #4
 567              		.loc 1 124 0
 568 023c 0646     		mov	r6, r0
 569              	.LVL92:
 570              		.loc 1 125 0
ARM GAS  /tmp/cclxi6yR.s 			page 11


 571 023e 06A8     		add	r0, sp, #24
 572              	.LVL93:
 573 0240 FFF7FEFF 		bl	lbm_push_u32
 574              	.LVL94:
 575 0244 0640     		ands	r6, r6, r0
 576              	.LVL95:
 577 0246 06F00106 		and	r6, r6, #1
 578              	.LVL96:
 579 024a 91E7     		b	.L15
 580              	.LVL97:
 581              	.L83:
 582              	.LBE108:
 583              		.loc 1 180 0
 584 024c B2F1405F 		cmp	r2, #805306368
 585 0250 45D0     		beq	.L41
 586 0252 B2F1804F 		cmp	r2, #1073741824
 587 0256 3BD1     		bne	.L30
 588              	.LBB109:
 589              		.loc 1 205 0
 590 0258 FFF7FEFF 		bl	lbm_car
 591              	.LVL98:
 592              		.loc 1 208 0
 593 025c FFF7FEFF 		bl	__aeabi_f2d
 594              	.LVL99:
 595 0260 2E1B     		subs	r6, r5, r4
 596 0262 3B19     		adds	r3, r7, r4
 597 0264 CDE90001 		strd	r0, [sp]
 598 0268 284A     		ldr	r2, .L85+36
 599 026a 3146     		mov	r1, r6
 600 026c 1846     		mov	r0, r3
 601 026e FFF7FEFF 		bl	snprintf
 602              	.LVL100:
 603 0272 0646     		mov	r6, r0
 604              	.LVL101:
 605              		.loc 1 215 0
 606 0274 0444     		add	r4, r4, r0
 607              	.LVL102:
 608 0276 F5E6     		b	.L17
 609              	.LVL103:
 610              	.L82:
 611              	.LBE109:
 612              		.loc 1 180 0
 613 0278 002A     		cmp	r2, #0
 614 027a 6AD0     		beq	.L35
 615 027c 042A     		cmp	r2, #4
 616 027e 27D1     		bne	.L30
 617              		.loc 1 317 0
 618 0280 C0F30713 		ubfx	r3, r0, #4, #8
 619 0284 291B     		subs	r1, r5, r4
 620 0286 3819     		adds	r0, r7, r4
 621 0288 214A     		ldr	r2, .L85+40
 622 028a FFF7FEFF 		bl	snprintf
 623              	.LVL104:
 624              		.loc 1 324 0
 625 028e 0334     		adds	r4, r4, #3
 626              	.LVL105:
 627              		.loc 1 319 0
ARM GAS  /tmp/cclxi6yR.s 			page 12


 628 0290 0326     		movs	r6, #3
 629              		.loc 1 325 0
 630 0292 E7E6     		b	.L17
 631              	.LVL106:
 632              	.L78:
 633              	.LBB110:
 634              		.loc 1 124 0
 635 0294 3146     		mov	r1, r6
 636 0296 CDE7     		b	.L75
 637              	.LVL107:
 638              	.L79:
 639              		.loc 1 128 0
 640 0298 FFF7FEFF 		bl	lbm_push_u32
 641              	.LVL108:
 642 029c 00F00106 		and	r6, r0, #1
 643              	.LVL109:
 644 02a0 66E7     		b	.L15
 645              	.LVL110:
 646              	.L81:
 647              	.LBE110:
 648              	.LBB111:
 649              		.loc 1 84 0
 650 02a2 0521     		movs	r1, #5
 651 02a4 06A8     		add	r0, sp, #24
 652              	.LVL111:
 653 02a6 FFF7FEFF 		bl	lbm_push_u32
 654              	.LVL112:
 655 02aa 00F00106 		and	r6, r0, #1
 656              	.LVL113:
 657 02ae 5FE7     		b	.L15
 658              	.LVL114:
 659              	.L77:
 660 02b0 3046     		mov	r0, r6
 661 02b2 E6E6     		b	.L1
 662              	.L37:
 663              	.LBE111:
 664              		.loc 1 295 0
 665 02b4 174A     		ldr	r2, .L85+44
 666 02b6 0311     		asrs	r3, r0, #4
 667              	.L70:
 668              		.loc 1 306 0
 669 02b8 291B     		subs	r1, r5, r4
 670 02ba 3819     		adds	r0, r7, r4
 671 02bc FFF7FEFF 		bl	snprintf
 672              	.LVL115:
 673 02c0 0646     		mov	r6, r0
 674              	.L71:
 675              	.LVL116:
 676              		.loc 1 313 0
 677 02c2 3444     		add	r4, r4, r6
 678              	.LVL117:
 679              		.loc 1 314 0
 680 02c4 CEE6     		b	.L17
 681              	.LVL118:
 682              	.L31:
 683              	.LBB112:
 684              		.loc 1 220 0
ARM GAS  /tmp/cclxi6yR.s 			page 13


 685 02c6 FFF7FEFF 		bl	lbm_car
 686              	.LVL119:
 687              		.loc 1 221 0
 688 02ca 5246     		mov	r2, r10
 689 02cc 0346     		mov	r3, r0
 690 02ce F3E7     		b	.L70
 691              	.LVL120:
 692              	.L30:
 693              	.LBE112:
 694              		.loc 1 328 0
 695 02d0 0346     		mov	r3, r0
 696 02d2 2946     		mov	r1, r5
 697 02d4 3846     		mov	r0, r7
 698 02d6 104A     		ldr	r2, .L85+48
 699 02d8 FFF7FEFF 		bl	snprintf
 700              	.LVL121:
 701              		.loc 1 329 0
 702 02dc 8AE7     		b	.L18
 703              	.L41:
 704              	.LBB113:
 705              		.loc 1 233 0
 706 02de FFF7FEFF 		bl	lbm_car
 707              	.LVL122:
 708              		.loc 1 234 0
 709 02e2 0E4A     		ldr	r2, .L85+52
 710 02e4 0346     		mov	r3, r0
 711 02e6 E7E7     		b	.L70
 712              	.L86:
 713              		.align	2
 714              	.L85:
 715 02e8 00000000 		.word	.LANCHOR0
 716 02ec 28000000 		.word	.LC4
 717 02f0 08010000 		.word	.LC19
 718 02f4 24000000 		.word	.LC3
 719 02f8 20000000 		.word	.LC2
 720 02fc 00000000 		.word	.LC0
 721 0300 04000000 		.word	.LC1
 722 0304 EC000000 		.word	.LC18
 723 0308 7C000000 		.word	.LC12
 724 030c 34000000 		.word	.LC6
 725 0310 B0000000 		.word	.LC16
 726 0314 A8000000 		.word	.LC14
 727 0318 B8000000 		.word	.LC17
 728 031c 44000000 		.word	.LC8
 729 0320 3C000000 		.word	.LC7
 730 0324 4C000000 		.word	.LC9
 731              	.LVL123:
 732              	.L39:
 733              	.LBE113:
 734              	.LBB114:
 735              		.loc 1 246 0
 736 0328 FFF7FEFF 		bl	lbm_car
 737              	.LVL124:
 738              		.loc 1 247 0
 739 032c 0368     		ldr	r3, [r0]
 740 032e 042B     		cmp	r3, #4
 741 0330 21D1     		bne	.L67
ARM GAS  /tmp/cclxi6yR.s 			page 14


 742              		.loc 1 249 0
 743 0332 8368     		ldr	r3, [r0, #8]
 744 0334 4A46     		mov	r2, r9
 745              	.LVL125:
 746              	.L73:
 747              	.LBE114:
 748              		.loc 1 284 0
 749 0336 291B     		subs	r1, r5, r4
 750 0338 3819     		adds	r0, r7, r4
 751 033a FFF7FEFF 		bl	snprintf
 752              	.LVL126:
 753              		.loc 1 285 0
 754 033e 061E     		subs	r6, r0, #0
 755 0340 BFDC     		bgt	.L71
 756              		.loc 1 288 0
 757 0342 144B     		ldr	r3, .L87
 758 0344 144A     		ldr	r2, .L87+4
 759 0346 1B68     		ldr	r3, [r3]
 760 0348 2946     		mov	r1, r5
 761 034a 3846     		mov	r0, r7
 762              	.LVL127:
 763 034c FFF7FEFF 		bl	snprintf
 764              	.LVL128:
 765              		.loc 1 289 0
 766 0350 50E7     		b	.L18
 767              	.LVL129:
 768              	.L35:
 769              		.loc 1 278 0
 770 0352 0009     		lsrs	r0, r0, #4
 771 0354 FFF7FEFF 		bl	lbm_get_name_by_symbol
 772              	.LVL130:
 773              		.loc 1 279 0
 774 0358 0346     		mov	r3, r0
 775 035a 90B1     		cbz	r0, .L84
 776              		.loc 1 284 0
 777 035c 0E4A     		ldr	r2, .L87+4
 778 035e EAE7     		b	.L73
 779              	.LVL131:
 780              	.L33:
 781              		.loc 1 306 0
 782 0360 0309     		lsrs	r3, r0, #4
 783 0362 0E4A     		ldr	r2, .L87+8
 784 0364 A8E7     		b	.L70
 785              	.L43:
 786              		.loc 1 194 0
 787 0366 291B     		subs	r1, r5, r4
 788 0368 3819     		adds	r0, r7, r4
 789 036a 0D4A     		ldr	r2, .L87+12
 790 036c FFF7FEFF 		bl	snprintf
 791              	.LVL132:
 792              		.loc 1 201 0
 793 0370 0534     		adds	r4, r4, #5
 794              	.LVL133:
 795              		.loc 1 196 0
 796 0372 0526     		movs	r6, #5
 797              		.loc 1 202 0
 798 0374 76E6     		b	.L17
ARM GAS  /tmp/cclxi6yR.s 			page 15


 799              	.LVL134:
 800              	.L67:
 801              	.LBB115:
 802              		.loc 1 260 0
 803 0376 2946     		mov	r1, r5
 804 0378 3846     		mov	r0, r7
 805              	.LVL135:
 806 037a 0A4A     		ldr	r2, .L87+16
 807 037c FFF7FEFF 		bl	snprintf
 808              	.LVL136:
 809              		.loc 1 261 0
 810 0380 38E7     		b	.L18
 811              	.LVL137:
 812              	.L84:
 813              	.LBE115:
 814              	.LBB116:
 815              	.LBB117:
 816              		.loc 3 529 0
 817 0382 049B     		ldr	r3, [sp, #16]
 818              	.LBE117:
 819              	.LBE116:
 820              		.loc 1 281 0
 821 0384 084A     		ldr	r2, .L87+20
 822 0386 2946     		mov	r1, r5
 823 0388 3846     		mov	r0, r7
 824              	.LVL138:
 825 038a 1B09     		lsrs	r3, r3, #4
 826 038c FFF7FEFF 		bl	snprintf
 827              	.LVL139:
 828              		.loc 1 282 0
 829 0390 30E7     		b	.L18
 830              	.L88:
 831 0392 00BF     		.align	2
 832              	.L87:
 833 0394 00000000 		.word	.LANCHOR1
 834 0398 54000000 		.word	.LC10
 835 039c AC000000 		.word	.LC15
 836 03a0 2C000000 		.word	.LC5
 837 03a4 58000000 		.word	.LC11
 838 03a8 88000000 		.word	.LC13
 839              	.LBE121:
 840              		.cfi_endproc
 841              	.LFE45:
 842              		.size	lbm_print_value, .-lbm_print_value
 843              		.global	failed_str
 844              		.section	.bss.stack_storage,"aw",%nobits
 845              		.align	2
 846              		.set	.LANCHOR0,. + 0
 847              		.type	stack_storage, %object
 848              		.size	stack_storage, 512
 849              	stack_storage:
 850 0000 00000000 		.space	512
 850      00000000 
 850      00000000 
 850      00000000 
 850      00000000 
 851              		.section	.data.failed_str,"aw",%progbits
ARM GAS  /tmp/cclxi6yR.s 			page 16


 852              		.align	2
 853              		.set	.LANCHOR1,. + 0
 854              		.type	failed_str, %object
 855              		.size	failed_str, 4
 856              	failed_str:
 857 0000 00000000 		.word	.LC20
 858              		.section	.rodata.lbm_print_value.str1.4,"aMS",%progbits,1
 859              		.align	2
 860              	.LC0:
 861 0000 2800     		.ascii	"(\000"
 862 0002 0000     		.space	2
 863              	.LC1:
 864 0004 4572726F 		.ascii	"Error: Out of print stack\012\000"
 864      723A204F 
 864      7574206F 
 864      66207072 
 864      696E7420 
 865 001f 00       		.space	1
 866              	.LC2:
 867 0020 2000     		.ascii	" \000"
 868 0022 0000     		.space	2
 869              	.LC3:
 870 0024 2900     		.ascii	")\000"
 871 0026 0000     		.space	2
 872              	.LC4:
 873 0028 202E2000 		.ascii	" . \000"
 874              	.LC5:
 875 002c 5F726566 		.ascii	"_ref_\000"
 875      5F00
 876 0032 0000     		.space	2
 877              	.LC6:
 878 0034 7B25667D 		.ascii	"{%f}\000"
 878      00
 879 0039 000000   		.space	3
 880              	.LC7:
 881 003c 7B256C75 		.ascii	"{%lu}\000"
 881      7D00
 882 0042 0000     		.space	2
 883              	.LC8:
 884 0044 7B256C64 		.ascii	"{%ld}\000"
 884      7D00
 885 004a 0000     		.space	2
 886              	.LC9:
 887 004c 22257322 		.ascii	"\"%s\"\000"
 887      00
 888 0051 000000   		.space	3
 889              	.LC10:
 890 0054 257300   		.ascii	"%s\000"
 891 0057 00       		.space	1
 892              	.LC11:
 893 0058 4572726F 		.ascii	"Error: Array type not supported\012\000"
 893      723A2041 
 893      72726179 
 893      20747970 
 893      65206E6F 
 894 0079 000000   		.space	3
 895              	.LC12:
ARM GAS  /tmp/cclxi6yR.s 			page 17


 896 007c 7E535452 		.ascii	"~STREAM~\000"
 896      45414D7E 
 896      00
 897 0085 000000   		.space	3
 898              	.LC13:
 899 0088 4572726F 		.ascii	"Error: Symbol not in table %lu\000"
 899      723A2053 
 899      796D626F 
 899      6C206E6F 
 899      7420696E 
 900 00a7 00       		.space	1
 901              	.LC14:
 902 00a8 256C6400 		.ascii	"%ld\000"
 903              	.LC15:
 904 00ac 256C7500 		.ascii	"%lu\000"
 905              	.LC16:
 906 00b0 5C232563 		.ascii	"\\#%c\000"
 906      00
 907 00b5 000000   		.space	3
 908              	.LC17:
 909 00b8 4572726F 		.ascii	"Error: print does not recognize type of value: %lx\000"
 909      723A2070 
 909      72696E74 
 909      20646F65 
 909      73206E6F 
 910 00eb 00       		.space	1
 911              	.LC18:
 912 00ec 4572726F 		.ascii	"Error: Corrupt print stack!\000"
 912      723A2043 
 912      6F727275 
 912      70742070 
 912      72696E74 
 913              	.LC19:
 914 0108 2E2E2E00 		.ascii	"...\000"
 915              		.section	.rodata.str1.4,"aMS",%progbits,1
 916              		.align	2
 917              	.LC20:
 918 0000 4572726F 		.ascii	"Error: print failed\012\000"
 918      723A2070 
 918      72696E74 
 918      20666169 
 918      6C65640A 
 919              		.text
 920              	.Letext0:
 921              		.file 4 "/usr/arm-none-eabi/include/machine/_default_types.h"
 922              		.file 5 "/usr/arm-none-eabi/include/sys/lock.h"
 923              		.file 6 "/usr/arm-none-eabi/include/sys/_types.h"
 924              		.file 7 "/usr/lib/gcc/arm-none-eabi/7.3.1/include/stddef.h"
 925              		.file 8 "/usr/arm-none-eabi/include/sys/reent.h"
 926              		.file 9 "/usr/arm-none-eabi/include/sys/_stdint.h"
 927              		.file 10 "lispBM/lispBM/include/lbm_types.h"
 928              		.file 11 "/usr/arm-none-eabi/include/stdlib.h"
 929              		.file 12 "/usr/arm-none-eabi/include/stdio.h"
 930              		.file 13 "lispBM/lispBM/include/symrepr.h"