ARM GAS  /tmp/cclxi6yR.s 			page 1


   1              		.cpu cortex-m4
   2              		.eabi_attribute 27, 1
   3              		.eabi_attribute 28, 1
   4              		.eabi_attribute 20, 1
   5              		.eabi_attribute 21, 1
   6              		.eabi_attribute 23, 3
   7              		.eabi_attribute 24, 1
   8              		.eabi_attribute 25, 1
   9              		.eabi_attribute 26, 1
  10              		.eabi_attribute 30, 2
  11              		.eabi_attribute 34, 1
  12              		.eabi_attribute 18, 4
  13              		.file	"print.c"
  14              		.text
  15              	.Ltext0:
  16              		.cfi_sections	.debug_frame
  17              		.global	__aeabi_f2d
  18              		.section	.text.lbm_print_value,"ax",%progbits
  19              		.align	1
  20              		.p2align 4,,15
  21              		.global	lbm_print_value
  22              		.syntax unified
  23              		.thumb
  24              		.thumb_func
  25              		.fpu fpv4-sp-d16
  26              		.type	lbm_print_value, %function
  27              	lbm_print_value:
  28              	.LFB45:
  29              		.file 1 "lispBM/lispBM/src/print.c"
  30              		.loc 1 42 0
  31              		.cfi_startproc
  32              		@ args = 0, pretend = 0, frame = 32
  33              		@ frame_needed = 0, uses_anonymous_args = 0
  34              	.LVL0:
  35 0000 2DE9F04F 		push	{r4, r5, r6, r7, r8, r9, r10, fp, lr}
  36              		.cfi_def_cfa_offset 36
  37              		.cfi_offset 4, -36
  38              		.cfi_offset 5, -32
  39              		.cfi_offset 6, -28
  40              		.cfi_offset 7, -24
  41              		.cfi_offset 8, -20
  42              		.cfi_offset 9, -16
  43              		.cfi_offset 10, -12
  44              		.cfi_offset 11, -8
  45              		.cfi_offset 14, -4
  46 0004 8BB0     		sub	sp, sp, #44
  47              		.cfi_def_cfa_offset 80
  48              		.loc 1 42 0
  49 0006 1446     		mov	r4, r2
  50 0008 0746     		mov	r7, r0
  51              		.loc 1 45 0
  52 000a 8022     		movs	r2, #128
  53              	.LVL1:
  54              		.loc 1 42 0
  55 000c 0D46     		mov	r5, r1
  56              		.loc 1 45 0
  57 000e 06A8     		add	r0, sp, #24
ARM GAS  /tmp/cclxi6yR.s 			page 2


  58              	.LVL2:
  59 0010 B549     		ldr	r1, .L85
  60              	.LVL3:
  61 0012 FFF7FEFF 		bl	lbm_stack_create
  62              	.LVL4:
  63              	.LBB78:
  64              	.LBB79:
  65              		.file 2 "lispBM/lispBM/include/stack.h"
  66              		.loc 2 110 0
  67 0016 2146     		mov	r1, r4
  68 0018 06A8     		add	r0, sp, #24
  69              	.LVL5:
  70 001a FFF7FEFF 		bl	lbm_push_u32
  71              	.LVL6:
  72              		.loc 2 111 0
  73 001e 06A8     		add	r0, sp, #24
  74              	.LVL7:
  75 0020 0121     		movs	r1, #1
  76 0022 FFF7FEFF 		bl	lbm_push_u32
  77              	.LVL8:
  78              	.LBE79:
  79              	.LBE78:
  80              	.LBB80:
  81              	.LBB81:
  82              		.loc 2 97 0
  83 0026 0798     		ldr	r0, [sp, #28]
  84 0028 58B3     		cbz	r0, .L1
  85              	.LBE81:
  86              	.LBE80:
  87              		.loc 1 49 0
  88 002a 0024     		movs	r4, #0
  89              	.LVL9:
  90              	.LBB83:
  91              	.LBB84:
  92              		.loc 1 221 0
  93 002c DFF8F0A2 		ldr	r10, .L85+56
  94              	.LBE84:
  95              	.LBB85:
  96              		.loc 1 249 0
  97 0030 DFF8F092 		ldr	r9, .L85+60
  98              	.LBE85:
  99              	.LBE83:
 100              		.loc 1 48 0
 101 0034 2646     		mov	r6, r4
 102              		.loc 1 55 0
 103 0036 A5F10508 		sub	r8, r5, #5
 104              	.LVL10:
 105              	.L52:
 106              	.LBB118:
 107              		.loc 1 59 0
 108 003a 05A9     		add	r1, sp, #20
 109 003c 06A8     		add	r0, sp, #24
 110              	.LVL11:
 111 003e FFF7FEFF 		bl	lbm_pop_u32
 112              	.LVL12:
 113              		.loc 1 61 0
 114 0042 059B     		ldr	r3, [sp, #20]
ARM GAS  /tmp/cclxi6yR.s 			page 3


 115 0044 013B     		subs	r3, r3, #1
 116 0046 052B     		cmp	r3, #5
 117 0048 00F2CF80 		bhi	.L4
 118 004c DFE803F0 		tbb	[pc, r3]
 119              	.L6:
 120 0050 9F       		.byte	(.L5-.L6)/2
 121 0051 9D       		.byte	(.L7-.L6)/2
 122 0052 5B       		.byte	(.L8-.L6)/2
 123 0053 24       		.byte	(.L9-.L6)/2
 124 0054 1C       		.byte	(.L10-.L6)/2
 125 0055 03       		.byte	(.L11-.L6)/2
 126              		.p2align 1
 127              	.L11:
 128              		.loc 1 166 0
 129 0056 291B     		subs	r1, r5, r4
 130 0058 3819     		adds	r0, r7, r4
 131 005a A44A     		ldr	r2, .L85+4
 132 005c FFF7FEFF 		bl	snprintf
 133              	.LVL13:
 134              		.loc 1 173 0
 135 0060 0334     		adds	r4, r4, #3
 136              	.LVL14:
 137              		.loc 1 168 0
 138 0062 0326     		movs	r6, #3
 139              	.LVL15:
 140              	.L17:
 141              	.LBE118:
 142              	.LBB119:
 143              	.LBB82:
 144              		.loc 2 97 0 discriminator 1
 145 0064 079B     		ldr	r3, [sp, #28]
 146 0066 002B     		cmp	r3, #0
 147 0068 00F02281 		beq	.L77
 148              	.LBE82:
 149              	.LBE119:
 150              		.loc 1 55 0
 151 006c 4445     		cmp	r4, r8
 152 006e E4D9     		bls	.L52
 153              	.LVL16:
 154              		.loc 1 342 0
 155 0070 9F4A     		ldr	r2, .L85+8
 156              		.loc 1 343 0
 157 0072 7B19     		adds	r3, r7, r5
 158              		.loc 1 342 0
 159 0074 1068     		ldr	r0, [r2]
 160 0076 47F80800 		str	r0, [r7, r8]	@ unaligned
 161              		.loc 1 343 0
 162 007a 0022     		movs	r2, #0
 163              		.loc 1 344 0
 164 007c 2846     		mov	r0, r5
 165              		.loc 1 343 0
 166 007e 03F8012C 		strb	r2, [r3, #-1]
 167              	.LVL17:
 168              	.L1:
 169              		.loc 1 349 0
 170 0082 0BB0     		add	sp, sp, #44
 171              		.cfi_remember_state
ARM GAS  /tmp/cclxi6yR.s 			page 4


 172              		.cfi_def_cfa_offset 36
 173              		@ sp needed
 174 0084 BDE8F08F 		pop	{r4, r5, r6, r7, r8, r9, r10, fp, pc}
 175              	.LVL18:
 176              	.L10:
 177              		.cfi_restore_state
 178              	.LBB120:
 179              		.loc 1 144 0
 180 0088 9A4A     		ldr	r2, .L85+12
 181              	.L69:
 182              		.loc 1 155 0
 183 008a 291B     		subs	r1, r5, r4
 184 008c 3819     		adds	r0, r7, r4
 185 008e FFF7FEFF 		bl	snprintf
 186              	.LVL19:
 187              		.loc 1 163 0
 188 0092 0134     		adds	r4, r4, #1
 189              	.LVL20:
 190              		.loc 1 157 0
 191 0094 0126     		movs	r6, #1
 192              		.loc 1 164 0
 193 0096 E5E7     		b	.L17
 194              	.LVL21:
 195              	.L9:
 196              	.LBB86:
 197              		.loc 1 104 0
 198 0098 04A9     		add	r1, sp, #16
 199 009a 06A8     		add	r0, sp, #24
 200              	.LVL22:
 201 009c FFF7FEFF 		bl	lbm_pop_u32
 202              	.LVL23:
 203              		.loc 1 106 0
 204 00a0 0498     		ldr	r0, [sp, #16]
 205              	.LVL24:
 206              	.LBB87:
 207              	.LBB88:
 208              		.file 3 "lispBM/lispBM/include/heap.h"
 209              		.loc 3 461 0
 210 00a2 C307     		lsls	r3, r0, #31
 211 00a4 4CBF     		ite	mi
 212 00a6 00F07C43 		andmi	r3, r0, #-67108864
 213 00aa 00F00C03 		andpl	r3, r0, #12
 214              	.LBE88:
 215              	.LBE87:
 216              		.loc 1 106 0
 217 00ae 0BB9     		cbnz	r3, .L21
 218              		.loc 1 106 0 is_stmt 0 discriminator 1
 219 00b0 0309     		lsrs	r3, r0, #4
 220 00b2 D7D0     		beq	.L17
 221              	.L21:
 222              		.loc 1 111 0 is_stmt 1
 223 00b4 FFF7FEFF 		bl	lbm_car
 224              	.LVL25:
 225 00b8 8346     		mov	fp, r0
 226              	.LVL26:
 227              		.loc 1 112 0
 228 00ba 0498     		ldr	r0, [sp, #16]
ARM GAS  /tmp/cclxi6yR.s 			page 5


 229              	.LVL27:
 230 00bc FFF7FEFF 		bl	lbm_cdr
 231              	.LVL28:
 232              		.loc 1 114 0
 233 00c0 291B     		subs	r1, r5, r4
 234              		.loc 1 112 0
 235 00c2 0646     		mov	r6, r0
 236              	.LVL29:
 237              		.loc 1 114 0
 238 00c4 8C4A     		ldr	r2, .L85+16
 239 00c6 3819     		adds	r0, r7, r4
 240              	.LVL30:
 241 00c8 FFF7FEFF 		bl	snprintf
 242              	.LVL31:
 243              	.LBB89:
 244              	.LBB90:
 245              		.loc 3 461 0
 246 00cc F107     		lsls	r1, r6, #31
 247              	.LBE90:
 248              	.LBE89:
 249              		.loc 1 121 0
 250 00ce 04F10104 		add	r4, r4, #1
 251              	.LVL32:
 252              	.LBB93:
 253              	.LBB91:
 254              		.loc 3 461 0
 255 00d2 40F1AB80 		bpl	.L22
 256 00d6 06F07C43 		and	r3, r6, #-67108864
 257              	.LVL33:
 258              	.LBE91:
 259              	.LBE93:
 260              		.loc 1 123 0
 261 00da B3F1805F 		cmp	r3, #268435456
 262 00de 00F0D980 		beq	.L78
 263              	.L24:
 264              		.loc 1 128 0
 265 00e2 0521     		movs	r1, #5
 266 00e4 06A8     		add	r0, sp, #24
 267              	.LVL34:
 268              		.loc 1 126 0
 269 00e6 13B9     		cbnz	r3, .L26
 270 00e8 3309     		lsrs	r3, r6, #4
 271 00ea 00F0D580 		beq	.L79
 272              	.L26:
 273              		.loc 1 130 0
 274 00ee FFF7FEFF 		bl	lbm_push_u32
 275              	.LVL35:
 276              		.loc 1 131 0
 277 00f2 3146     		mov	r1, r6
 278              		.loc 1 130 0
 279 00f4 0390     		str	r0, [sp, #12]
 280              	.LVL36:
 281              		.loc 1 131 0
 282 00f6 06A8     		add	r0, sp, #24
 283              	.LVL37:
 284 00f8 FFF7FEFF 		bl	lbm_push_u32
 285              	.LVL38:
ARM GAS  /tmp/cclxi6yR.s 			page 6


 286 00fc 039B     		ldr	r3, [sp, #12]
 287              		.loc 1 132 0
 288 00fe 0121     		movs	r1, #1
 289              		.loc 1 131 0
 290 0100 03EA0006 		and	r6, r3, r0
 291              	.LVL39:
 292 0104 2AE0     		b	.L74
 293              	.LVL40:
 294              	.L8:
 295              	.LBE86:
 296              	.LBB95:
 297              		.loc 1 65 0
 298 0106 04A9     		add	r1, sp, #16
 299 0108 06A8     		add	r0, sp, #24
 300              	.LVL41:
 301 010a FFF7FEFF 		bl	lbm_pop_u32
 302              	.LVL42:
 303              		.loc 1 67 0
 304 010e 7B4A     		ldr	r2, .L85+20
 305 0110 291B     		subs	r1, r5, r4
 306 0112 3819     		adds	r0, r7, r4
 307 0114 FFF7FEFF 		bl	snprintf
 308              	.LVL43:
 309              		.loc 1 76 0
 310 0118 0498     		ldr	r0, [sp, #16]
 311 011a FFF7FEFF 		bl	lbm_car
 312              	.LVL44:
 313 011e 8346     		mov	fp, r0
 314              		.loc 1 77 0
 315 0120 0498     		ldr	r0, [sp, #16]
 316 0122 FFF7FEFF 		bl	lbm_cdr
 317              	.LVL45:
 318              	.LBB96:
 319              	.LBB97:
 320              		.loc 3 461 0
 321 0126 C207     		lsls	r2, r0, #31
 322              	.LBE97:
 323              	.LBE96:
 324              		.loc 1 77 0
 325 0128 0346     		mov	r3, r0
 326              		.loc 1 75 0
 327 012a 04F10104 		add	r4, r4, #1
 328              	.LVL46:
 329              	.LBB100:
 330              	.LBB98:
 331              		.loc 3 461 0
 332 012e 66D5     		bpl	.L12
 333 0130 00F07C42 		and	r2, r0, #-67108864
 334              	.LVL47:
 335              	.LBE98:
 336              	.LBE100:
 337              		.loc 1 79 0
 338 0134 B2F1805F 		cmp	r2, #268435456
 339 0138 7BD0     		beq	.L80
 340              	.L14:
 341              		.loc 1 82 0
 342 013a 12B9     		cbnz	r2, .L16
ARM GAS  /tmp/cclxi6yR.s 			page 7


 343 013c 1A09     		lsrs	r2, r3, #4
 344 013e 00F0B080 		beq	.L81
 345              	.L16:
 346              		.loc 1 86 0
 347 0142 0521     		movs	r1, #5
 348 0144 06A8     		add	r0, sp, #24
 349              	.LVL48:
 350 0146 0393     		str	r3, [sp, #12]
 351 0148 FFF7FEFF 		bl	lbm_push_u32
 352              	.LVL49:
 353              		.loc 1 87 0
 354 014c 039B     		ldr	r3, [sp, #12]
 355              		.loc 1 86 0
 356 014e 0646     		mov	r6, r0
 357              	.LVL50:
 358              		.loc 1 87 0
 359 0150 1946     		mov	r1, r3
 360 0152 06A8     		add	r0, sp, #24
 361              	.LVL51:
 362 0154 FFF7FEFF 		bl	lbm_push_u32
 363              	.LVL52:
 364              		.loc 1 88 0
 365 0158 0121     		movs	r1, #1
 366              		.loc 1 87 0
 367 015a 0640     		ands	r6, r6, r0
 368              	.LVL53:
 369              	.L74:
 370              		.loc 1 88 0
 371 015c 06A8     		add	r0, sp, #24
 372              	.LVL54:
 373              		.loc 1 87 0
 374 015e 0E40     		ands	r6, r6, r1
 375              	.LVL55:
 376              		.loc 1 88 0
 377 0160 FFF7FEFF 		bl	lbm_push_u32
 378              	.LVL56:
 379              		.loc 1 89 0
 380 0164 0621     		movs	r1, #6
 381              		.loc 1 88 0
 382 0166 0640     		ands	r6, r6, r0
 383              	.LVL57:
 384              		.loc 1 89 0
 385 0168 06A8     		add	r0, sp, #24
 386              	.LVL58:
 387 016a FFF7FEFF 		bl	lbm_push_u32
 388              	.LVL59:
 389 016e 0640     		ands	r6, r6, r0
 390              	.LVL60:
 391              	.L15:
 392              		.loc 1 91 0
 393 0170 5946     		mov	r1, fp
 394 0172 06A8     		add	r0, sp, #24
 395              	.LVL61:
 396 0174 FFF7FEFF 		bl	lbm_push_u32
 397              	.LVL62:
 398              		.loc 1 92 0
 399 0178 0121     		movs	r1, #1
ARM GAS  /tmp/cclxi6yR.s 			page 8


 400              		.loc 1 91 0
 401 017a 0640     		ands	r6, r6, r0
 402              	.LVL63:
 403              		.loc 1 92 0
 404 017c 06A8     		add	r0, sp, #24
 405              	.LVL64:
 406 017e FFF7FEFF 		bl	lbm_push_u32
 407              	.LVL65:
 408              		.loc 1 94 0
 409 0182 0642     		tst	r6, r0
 410 0184 2BD0     		beq	.L27
 411              		.loc 1 69 0
 412 0186 0126     		movs	r6, #1
 413              	.LVL66:
 414 0188 6CE7     		b	.L17
 415              	.LVL67:
 416              	.L7:
 417              	.LBE95:
 418              		.loc 1 155 0
 419 018a 5B4A     		ldr	r2, .L85+16
 420 018c 7DE7     		b	.L69
 421              	.L5:
 422              		.loc 1 178 0
 423 018e 04A9     		add	r1, sp, #16
 424 0190 06A8     		add	r0, sp, #24
 425              	.LVL68:
 426 0192 FFF7FEFF 		bl	lbm_pop_u32
 427              	.LVL69:
 428              		.loc 1 180 0
 429 0196 0498     		ldr	r0, [sp, #16]
 430              	.LVL70:
 431              	.LBB102:
 432              	.LBB103:
 433              		.loc 3 461 0
 434 0198 C207     		lsls	r2, r0, #31
 435 019a 4CBF     		ite	mi
 436 019c 00F07C42 		andmi	r2, r0, #-67108864
 437 01a0 00F00C02 		andpl	r2, r0, #12
 438              	.LVL71:
 439              	.LBE103:
 440              	.LBE102:
 441              		.loc 1 180 0
 442 01a4 B2F1005F 		cmp	r2, #536870912
 443 01a8 00F08D80 		beq	.L31
 444 01ac 2AD8     		bhi	.L32
 445 01ae 082A     		cmp	r2, #8
 446 01b0 00F0D680 		beq	.L33
 447 01b4 60D9     		bls	.L82
 448 01b6 0C2A     		cmp	r2, #12
 449 01b8 7CD0     		beq	.L37
 450 01ba B2F1805F 		cmp	r2, #268435456
 451 01be 40F08780 		bne	.L30
 452              	.LVL72:
 453              		.loc 1 184 0
 454 01c2 0146     		mov	r1, r0
 455 01c4 06A8     		add	r0, sp, #24
 456              	.LVL73:
ARM GAS  /tmp/cclxi6yR.s 			page 9


 457 01c6 FFF7FEFF 		bl	lbm_push_u32
 458              	.LVL74:
 459              		.loc 1 185 0
 460 01ca 0321     		movs	r1, #3
 461              		.loc 1 184 0
 462 01cc 8346     		mov	fp, r0
 463              	.LVL75:
 464              		.loc 1 185 0
 465 01ce 06A8     		add	r0, sp, #24
 466              	.LVL76:
 467 01d0 FFF7FEFF 		bl	lbm_push_u32
 468              	.LVL77:
 469 01d4 0BEA0000 		and	r0, fp, r0
 470              	.LVL78:
 471              		.loc 1 186 0
 472 01d8 C307     		lsls	r3, r0, #31
 473 01da 3FF543AF 		bmi	.L17
 474              	.L27:
 475              	.LBB104:
 476              		.loc 1 95 0
 477 01de 2946     		mov	r1, r5
 478 01e0 3846     		mov	r0, r7
 479 01e2 474A     		ldr	r2, .L85+24
 480 01e4 FFF7FEFF 		bl	snprintf
 481              	.LVL79:
 482              		.loc 1 96 0
 483 01e8 04E0     		b	.L18
 484              	.L4:
 485              	.LBE104:
 486              		.loc 1 335 0
 487 01ea 2946     		mov	r1, r5
 488 01ec 3846     		mov	r0, r7
 489 01ee 454A     		ldr	r2, .L85+28
 490 01f0 FFF7FEFF 		bl	snprintf
 491              	.LVL80:
 492              	.L18:
 493              		.loc 1 72 0 discriminator 1
 494 01f4 4FF0FF30 		mov	r0, #-1
 495              	.LBE120:
 496              		.loc 1 349 0 discriminator 1
 497 01f8 0BB0     		add	sp, sp, #44
 498              		.cfi_remember_state
 499              		.cfi_def_cfa_offset 36
 500              		@ sp needed
 501 01fa BDE8F08F 		pop	{r4, r5, r6, r7, r8, r9, r10, fp, pc}
 502              	.LVL81:
 503              	.L12:
 504              		.cfi_restore_state
 505              	.LBB121:
 506              	.LBB105:
 507              	.LBB101:
 508              	.LBB99:
 509              		.loc 3 461 0
 510 01fe 00F00C02 		and	r2, r0, #12
 511              	.LVL82:
 512 0202 9AE7     		b	.L14
 513              	.LVL83:
ARM GAS  /tmp/cclxi6yR.s 			page 10


 514              	.L32:
 515              	.LBE99:
 516              	.LBE101:
 517              	.LBE105:
 518              		.loc 1 180 0
 519 0204 B2F1504F 		cmp	r2, #-805306368
 520 0208 00F08E80 		beq	.L39
 521 020c 1ED9     		bls	.L83
 522 020e B2F1604F 		cmp	r2, #-536870912
 523 0212 00F0A880 		beq	.L43
 524 0216 B2F1704F 		cmp	r2, #-268435456
 525 021a 59D1     		bne	.L30
 526              		.loc 1 267 0
 527 021c 291B     		subs	r1, r5, r4
 528 021e 3819     		adds	r0, r7, r4
 529 0220 394A     		ldr	r2, .L85+32
 530 0222 FFF7FEFF 		bl	snprintf
 531              	.LVL84:
 532              		.loc 1 274 0
 533 0226 0834     		adds	r4, r4, #8
 534              	.LVL85:
 535              		.loc 1 269 0
 536 0228 0826     		movs	r6, #8
 537              		.loc 1 275 0
 538 022a 1BE7     		b	.L17
 539              	.LVL86:
 540              	.L22:
 541              	.LBB106:
 542              	.LBB94:
 543              	.LBB92:
 544              		.loc 3 461 0
 545 022c 06F00C03 		and	r3, r6, #12
 546              	.LVL87:
 547 0230 57E7     		b	.L24
 548              	.LVL88:
 549              	.L80:
 550              	.LBE92:
 551              	.LBE94:
 552              	.LBE106:
 553              	.LBB107:
 554              		.loc 1 80 0
 555 0232 0146     		mov	r1, r0
 556              	.LVL89:
 557              	.L75:
 558              	.LBE107:
 559              	.LBB108:
 560              		.loc 1 124 0
 561 0234 06A8     		add	r0, sp, #24
 562              	.LVL90:
 563 0236 FFF7FEFF 		bl	lbm_push_u32
 564              	.LVL91:
 565              		.loc 1 125 0
 566 023a 0421     		movs	r1, #4
 567              		.loc 1 124 0
 568 023c 0646     		mov	r6, r0
 569              	.LVL92:
 570              		.loc 1 125 0
ARM GAS  /tmp/cclxi6yR.s 			page 11


 571 023e 06A8     		add	r0, sp, #24
 572              	.LVL93:
 573 0240 FFF7FEFF 		bl	lbm_push_u32
 574              	.LVL94:
 575 0244 0640     		ands	r6, r6, r0
 576              	.LVL95:
 577 0246 06F00106 		and	r6, r6, #1
 578              	.LVL96:
 579 024a 91E7     		b	.L15
 580              	.LVL97:
 581              	.L83:
 582              	.LBE108:
 583              		.loc 1 180 0
 584 024c B2F1405F 		cmp	r2, #805306368
 585 0250 45D0     		beq	.L41
 586 0252 B2F1804F 		cmp	r2, #1073741824
 587 0256 3BD1     		bne	.L30
 588              	.LBB109:
 589              		.loc 1 205 0
 590 0258 FFF7FEFF 		bl	lbm_car
 591              	.LVL98:
 592              		.loc 1 208 0
 593 025c FFF7FEFF 		bl	__aeabi_f2d
 594              	.LVL99:
 595 0260 2E1B     		subs	r6, r5, r4
 596 0262 3B19     		adds	r3, r7, r4
 597 0264 CDE90001 		strd	r0, [sp]
 598 0268 284A     		ldr	r2, .L85+36
 599 026a 3146     		mov	r1, r6
 600 026c 1846     		mov	r0, r3
 601 026e FFF7FEFF 		bl	snprintf
 602              	.LVL100:
 603 0272 0646     		mov	r6, r0
 604              	.LVL101:
 605              		.loc 1 215 0
 606 0274 0444     		add	r4, r4, r0
 607              	.LVL102:
 608 0276 F5E6     		b	.L17
 609              	.LVL103:
 610              	.L82:
 611              	.LBE109:
 612              		.loc 1 180 0
 613 0278 002A     		cmp	r2, #0
 614 027a 6AD0     		beq	.L35
 615 027c 042A     		cmp	r2, #4
 616 027e 27D1     		bne	.L30
 617              		.loc 1 317 0
 618 0280 C0F30713 		ubfx	r3, r0, #4, #8
 619 0284 291B     		subs	r1, r5, r4
 620 0286 3819     		adds	r0, r7, r4
 621 0288 214A     		ldr	r2, .L85+40
 622 028a FFF7FEFF 		bl	snprintf
 623              	.LVL104:
 624              		.loc 1 324 0
 625 028e 0334     		adds	r4, r4, #3
 626              	.LVL105:
 627              		.loc 1 319 0
ARM GAS  /tmp/cclxi6yR.s 			page 12


 628 0290 0326     		movs	r6, #3
 629              		.loc 1 325 0
 630 0292 E7E6     		b	.L17
 631              	.LVL106:
 632              	.L78:
 633              	.LBB110:
 634              		.loc 1 124 0
 635 0294 3146     		mov	r1, r6
 636 0296 CDE7     		b	.L75
 637              	.LVL107:
 638              	.L79:
 639              		.loc 1 128 0
 640 0298 FFF7FEFF 		bl	lbm_push_u32
 641              	.LVL108:
 642 029c 00F00106 		and	r6, r0, #1
 643              	.LVL109:
 644 02a0 66E7     		b	.L15
 645              	.LVL110:
 646              	.L81:
 647              	.LBE110:
 648              	.LBB111:
 649              		.loc 1 84 0
 650 02a2 0521     		movs	r1, #5
 651 02a4 06A8     		add	r0, sp, #24
 652              	.LVL111:
 653 02a6 FFF7FEFF 		bl	lbm_push_u32
 654              	.LVL112:
 655 02aa 00F00106 		and	r6, r0, #1
 656              	.LVL113:
 657 02ae 5FE7     		b	.L15
 658              	.LVL114:
 659              	.L77:
 660 02b0 3046     		mov	r0, r6
 661 02b2 E6E6     		b	.L1
 662              	.L37:
 663              	.LBE111:
 664              		.loc 1 295 0
 665 02b4 174A     		ldr	r2, .L85+44
 666 02b6 0311     		asrs	r3, r0, #4
 667              	.L70:
 668              		.loc 1 306 0
 669 02b8 291B     		subs	r1, r5, r4
 670 02ba 3819     		adds	r0, r7, r4
 671 02bc FFF7FEFF 		bl	snprintf
 672              	.LVL115:
 673 02c0 0646     		mov	r6, r0
 674              	.L71:
 675              	.LVL116:
 676              		.loc 1 313 0
 677 02c2 3444     		add	r4, r4, r6
 678              	.LVL117:
 679              		.loc 1 314 0
 680 02c4 CEE6     		b	.L17
 681              	.LVL118:
 682              	.L31:
 683              	.LBB112:
 684              		.loc 1 220 0
ARM GAS  /tmp/cclxi6yR.s 			page 13


 685 02c6 FFF7FEFF 		bl	lbm_car
 686              	.LVL119:
 687              		.loc 1 221 0
 688 02ca 5246     		mov	r2, r10
 689 02cc 0346     		mov	r3, r0
 690 02ce F3E7     		b	.L70
 691              	.LVL120:
 692              	.L30:
 693              	.LBE112:
 694              		.loc 1 328 0
 695 02d0 0346     		mov	r3, r0
 696 02d2 2946     		mov	r1, r5
 697 02d4 3846     		mov	r0, r7
 698 02d6 104A     		ldr	r2, .L85+48
 699 02d8 FFF7FEFF 		bl	snprintf
 700              	.LVL121:
 701              		.loc 1 329 0
 702 02dc 8AE7     		b	.L18
 703              	.L41:
 704              	.LBB113:
 705              		.loc 1 233 0
 706 02de FFF7FEFF 		bl	lbm_car
 707              	.LVL122:
 708              		.loc 1 234 0
 709 02e2 0E4A     		ldr	r2, .L85+52
 710 02e4 0346     		mov	r3, r0
 711 02e6 E7E7     		b	.L70
 712              	.L86:
 713              		.align	2
 714              	.L85:
 715 02e8 00000000 		.word	.LANCHOR0
 716 02ec 28000000 		.word	.LC4
 717 02f0 08010000 		.word	.LC19
 718 02f4 24000000 		.word	.LC3
 719 02f8 20000000 		.word	.LC2
 720 02fc 00000000 		.word	.LC0
 721 0300 04000000 		.word	.LC1
 722 0304 EC000000 		.word	.LC18
 723 0308 7C000000 		.word	.LC12
 724 030c 34000000 		.word	.LC6
 725 0310 B0000000 		.word	.LC16
 726 0314 A8000000 		.word	.LC14
 727 0318 B8000000 		.word	.LC17
 728 031c 44000000 		.word	.LC8
 729 0320 3C000000 		.word	.LC7
 730 0324 4C000000 		.word	.LC9
 731              	.LVL123:
 732              	.L39:
 733              	.LBE113:
 734              	.LBB114:
 735              		.loc 1 246 0
 736 0328 FFF7FEFF 		bl	lbm_car
 737              	.LVL124:
 738              		.loc 1 247 0
 739 032c 0368     		ldr	r3, [r0]
 740 032e 042B     		cmp	r3, #4
 741 0330 21D1     		bne	.L67
ARM GAS  /tmp/cclxi6yR.s 			page 14


 742              		.loc 1 249 0
 743 0332 8368     		ldr	r3, [r0, #8]
 744 0334 4A46     		mov	r2, r9
 745              	.LVL125:
 746              	.L73:
 747              	.LBE114:
 748              		.loc 1 284 0
 749 0336 291B     		subs	r1, r5, r4
 750 0338 3819     		adds	r0, r7, r4
 751 033a FFF7FEFF 		bl	snprintf
 752              	.LVL126:
 753              		.loc 1 285 0
 754 033e 061E     		subs	r6, r0, #0
 755 0340 BFDC     		bgt	.L71
 756              		.loc 1 288 0
 757 0342 144B     		ldr	r3, .L87
 758 0344 144A     		ldr	r2, .L87+4
 759 0346 1B68     		ldr	r3, [r3]
 760 0348 2946     		mov	r1, r5
 761 034a 3846     		mov	r0, r7
 762              	.LVL127:
 763 034c FFF7FEFF 		bl	snprintf
 764              	.LVL128:
 765              		.loc 1 289 0
 766 0350 50E7     		b	.L18
 767              	.LVL129:
 768              	.L35:
 769              		.loc 1 278 0
 770 0352 0009     		lsrs	r0, r0, #4
 771 0354 FFF7FEFF 		bl	lbm_get_name_by_symbol
 772              	.LVL130:
 773              		.loc 1 279 0
 774 0358 0346     		mov	r3, r0
 775 035a 90B1     		cbz	r0, .L84
 776              		.loc 1 284 0
 777 035c 0E4A     		ldr	r2, .L87+4
 778 035e EAE7     		b	.L73
 779              	.LVL131:
 780              	.L33:
 781              		.loc 1 306 0
 782 0360 0309     		lsrs	r3, r0, #4
 783 0362 0E4A     		ldr	r2, .L87+8
 784 0364 A8E7     		b	.L70
 785              	.L43:
 786              		.loc 1 194 0
 787 0366 291B     		subs	r1, r5, r4
 788 0368 3819     		adds	r0, r7, r4
 789 036a 0D4A     		ldr	r2, .L87+12
 790 036c FFF7FEFF 		bl	snprintf
 791              	.LVL132:
 792              		.loc 1 201 0
 793 0370 0534     		adds	r4, r4, #5
 794              	.LVL133:
 795              		.loc 1 196 0
 796 0372 0526     		movs	r6, #5
 797              		.loc 1 202 0
 798 0374 76E6     		b	.L17
ARM GAS  /tmp/cclxi6yR.s 			page 15


 799              	.LVL134:
 800              	.L67:
 801              	.LBB115:
 802              		.loc 1 260 0
 803 0376 2946     		mov	r1, r5
 804 0378 3846     		mov	r0, r7
 805              	.LVL135:
 806 037a 0A4A     		ldr	r2, .L87+16
 807 037c FFF7FEFF 		bl	snprintf
 808              	.LVL136:
 809              		.loc 1 261 0
 810 0380 38E7     		b	.L18
 811              	.LVL137:
 812              	.L84:
 813              	.LBE115:
 814              	.LBB116:
 815              	.LBB117:
 816              		.loc 3 529 0
 817 0382 049B     		ldr	r3, [sp, #16]
 818              	.LBE117:
 819              	.LBE116:
 820              		.loc 1 281 0
 821 0384 084A     		ldr	r2, .L87+20
 822 0386 2946     		mov	r1, r5
 823 0388 3846     		mov	r0, r7
 824              	.LVL138:
 825 038a 1B09     		lsrs	r3, r3, #4
 826 038c FFF7FEFF 		bl	snprintf
 827              	.LVL139:
 828              		.loc 1 282 0
 829 0390 30E7     		b	.L18
 830              	.L88:
 831 0392 00BF     		.align	2
 832              	.L87:
 833 0394 00000000 		.word	.LANCHOR1
 834 0398 54000000 		.word	.LC10
 835 039c AC000000 		.word	.LC15
 836 03a0 2C000000 		.word	.LC5
 837 03a4 58000000 		.word	.LC11
 838 03a8 88000000 		.word	.LC13
 839              	.LBE121:
 840              		.cfi_endproc
 841              	.LFE45:
 842              		.size	lbm_print_value, .-lbm_print_value
 843              		.global	failed_str
 844              		.section	.bss.stack_storage,"aw",%nobits
 845              		.align	2
 846              		.set	.LANCHOR0,. + 0
 847              		.type	stack_storage, %object
 848              		.size	stack_storage, 512
 849              	stack_storage:
 850 0000 00000000 		.space	512
 850      00000000 
 850      00000000 
 850      00000000 
 850      00000000 
 851              		.section	.data.failed_str,"aw",%progbits
ARM GAS  /tmp/cclxi6yR.s 			page 16


 852              		.align	2
 853              		.set	.LANCHOR1,. + 0
 854              		.type	failed_str, %object
 855              		.size	failed_str, 4
 856              	failed_str:
 857 0000 00000000 		.word	.LC20
 858              		.section	.rodata.lbm_print_value.str1.4,"aMS",%progbits,1
 859              		.align	2
 860              	.LC0:
 861 0000 2800     		.ascii	"(\000"
 862 0002 0000     		.space	2
 863              	.LC1:
 864 0004 4572726F 		.ascii	"Error: Out of print stack\012\000"
 864      723A204F 
 864      7574206F 
 864      66207072 
 864      696E7420 
 865 001f 00       		.space	1
 866              	.LC2:
 867 0020 2000     		.ascii	" \000"
 868 0022 0000     		.space	2
 869              	.LC3:
 870 0024 2900     		.ascii	")\000"
 871 0026 0000     		.space	2
 872              	.LC4:
 873 0028 202E2000 		.ascii	" . \000"
 874              	.LC5:
 875 002c 5F726566 		.ascii	"_ref_\000"
 875      5F00
 876 0032 0000     		.space	2
 877              	.LC6:
 878 0034 7B25667D 		.ascii	"{%f}\000"
 878      00
 879 0039 000000   		.space	3
 880              	.LC7:
 881 003c 7B256C75 		.ascii	"{%lu}\000"
 881      7D00
 882 0042 0000     		.space	2
 883              	.LC8:
 884 0044 7B256C64 		.ascii	"{%ld}\000"
 884      7D00
 885 004a 0000     		.space	2
 886              	.LC9:
 887 004c 22257322 		.ascii	"\"%s\"\000"
 887      00
 888 0051 000000   		.space	3
 889              	.LC10:
 890 0054 257300   		.ascii	"%s\000"
 891 0057 00       		.space	1
 892              	.LC11:
 893 0058 4572726F 		.ascii	"Error: Array type not supported\012\000"
 893      723A2041 
 893      72726179 
 893      20747970 
 893      65206E6F 
 894 0079 000000   		.space	3
 895              	.LC12:
ARM GAS  /tmp/cclxi6yR.s 			page 17


 896 007c 7E535452 		.ascii	"~STREAM~\000"
 896      45414D7E 
 896      00
 897 0085 000000   		.space	3
 898              	.LC13:
 899 0088 4572726F 		.ascii	"Error: Symbol not in table %lu\000"
 899      723A2053 
 899      796D626F 
 899      6C206E6F 
 899      7420696E 
 900 00a7 00       		.space	1
 901              	.LC14:
 902 00a8 256C6400 		.ascii	"%ld\000"
 903              	.LC15:
 904 00ac 256C7500 		.ascii	"%lu\000"
 905              	.LC16:
 906 00b0 5C232563 		.ascii	"\\#%c\000"
 906      00
 907 00b5 000000   		.space	3
 908              	.LC17:
 909 00b8 4572726F 		.ascii	"Error: print does not recognize type of value: %lx\000"
 909      723A2070 
 909      72696E74 
 909      20646F65 
 909      73206E6F 
 910 00eb 00       		.space	1
 911              	.LC18:
 912 00ec 4572726F 		.ascii	"Error: Corrupt print stack!\000"
 912      723A2043 
 912      6F727275 
 912      70742070 
 912      72696E74 
 913              	.LC19:
 914 0108 2E2E2E00 		.ascii	"...\000"
 915              		.section	.rodata.str1.4,"aMS",%progbits,1
 916              		.align	2
 917              	.LC20:
 918 0000 4572726F 		.ascii	"Error: print failed\012\000"
 918      723A2070 
 918      72696E74 
 918      20666169 
 918      6C65640A 
 919              		.text
 920              	.Letext0:
 921              		.file 4 "/usr/arm-none-eabi/include/machine/_default_types.h"
 922              		.file 5 "/usr/arm-none-eabi/include/sys/lock.h"
 923              		.file 6 "/usr/arm-none-eabi/include/sys/_types.h"
 924              		.file 7 "/usr/lib/gcc/arm-none-eabi/7.3.1/include/stddef.h"
 925              		.file 8 "/usr/arm-none-eabi/include/sys/reent.h"
 926              		.file 9 "/usr/arm-none-eabi/include/sys/_stdint.h"
 927              		.file 10 "lispBM/lispBM/include/lbm_types.h"
 928              		.file 11 "/usr/arm-none-eabi/include/stdlib.h"
 929              		.file 12 "/usr/arm-none-eabi/include/stdio.h"
 930              		.file 13 "lispBM/lispBM/include/symrepr.h"
 931              		.section	.debug_info,"",%progbits
 932              	.Ldebug_info0:
 933 0000 D3110000 		.4byte	0x11d3
ARM GAS  /tmp/cclxi6yR.s 			page 18


 934 0004 0400     		.2byte	0x4
 935 0006 00000000 		.4byte	.Ldebug_abbrev0
 936 000a 04       		.byte	0x4
 937 000b 01       		.uleb128 0x1
 938 000c 5F010000 		.4byte	.LASF162
 939 0010 0C       		.byte	0xc
 940 0011 FB030000 		.4byte	.LASF163
 941 0015 C2040000 		.4byte	.LASF164
 942 0019 10010000 		.4byte	.Ldebug_ranges0+0x110
 943 001d 00000000 		.4byte	0
 944 0021 00000000 		.4byte	.Ldebug_line0
 945 0025 02       		.uleb128 0x2
 946 0026 01       		.byte	0x1
 947 0027 06       		.byte	0x6
 948 0028 9F060000 		.4byte	.LASF0
 949 002c 02       		.uleb128 0x2
 950 002d 01       		.byte	0x1
 951 002e 08       		.byte	0x8
 952 002f F3050000 		.4byte	.LASF1
 953 0033 02       		.uleb128 0x2
 954 0034 02       		.byte	0x2
 955 0035 05       		.byte	0x5
 956 0036 F9040000 		.4byte	.LASF2
 957 003a 02       		.uleb128 0x2
 958 003b 02       		.byte	0x2
 959 003c 07       		.byte	0x7
 960 003d BC060000 		.4byte	.LASF3
 961 0041 03       		.uleb128 0x3
 962 0042 89000000 		.4byte	.LASF5
 963 0046 04       		.byte	0x4
 964 0047 4D       		.byte	0x4d
 965 0048 4C000000 		.4byte	0x4c
 966 004c 02       		.uleb128 0x2
 967 004d 04       		.byte	0x4
 968 004e 05       		.byte	0x5
 969 004f 08050000 		.4byte	.LASF4
 970 0053 03       		.uleb128 0x3
 971 0054 01060000 		.4byte	.LASF6
 972 0058 04       		.byte	0x4
 973 0059 4F       		.byte	0x4f
 974 005a 5E000000 		.4byte	0x5e
 975 005e 02       		.uleb128 0x2
 976 005f 04       		.byte	0x4
 977 0060 07       		.byte	0x7
 978 0061 A7050000 		.4byte	.LASF7
 979 0065 02       		.uleb128 0x2
 980 0066 08       		.byte	0x8
 981 0067 05       		.byte	0x5
 982 0068 15040000 		.4byte	.LASF8
 983 006c 02       		.uleb128 0x2
 984 006d 08       		.byte	0x8
 985 006e 07       		.byte	0x7
 986 006f 95020000 		.4byte	.LASF9
 987 0073 04       		.uleb128 0x4
 988 0074 04       		.byte	0x4
 989 0075 05       		.byte	0x5
 990 0076 696E7400 		.ascii	"int\000"
ARM GAS  /tmp/cclxi6yR.s 			page 19


 991 007a 02       		.uleb128 0x2
 992 007b 04       		.byte	0x4
 993 007c 07       		.byte	0x7
 994 007d 54000000 		.4byte	.LASF10
 995 0081 05       		.uleb128 0x5
 996 0082 04       		.byte	0x4
 997 0083 03       		.uleb128 0x3
 998 0084 D1040000 		.4byte	.LASF11
 999 0088 05       		.byte	0x5
 1000 0089 22       		.byte	0x22
 1001 008a 8E000000 		.4byte	0x8e
 1002 008e 06       		.uleb128 0x6
 1003 008f 04       		.byte	0x4
 1004 0090 94000000 		.4byte	0x94
 1005 0094 07       		.uleb128 0x7
 1006 0095 E4050000 		.4byte	.LASF118
 1007 0099 03       		.uleb128 0x3
 1008 009a DE060000 		.4byte	.LASF12
 1009 009e 06       		.byte	0x6
 1010 009f 2C       		.byte	0x2c
 1011 00a0 4C000000 		.4byte	0x4c
 1012 00a4 03       		.uleb128 0x3
 1013 00a5 E2000000 		.4byte	.LASF13
 1014 00a9 06       		.byte	0x6
 1015 00aa 72       		.byte	0x72
 1016 00ab 4C000000 		.4byte	0x4c
 1017 00af 08       		.uleb128 0x8
 1018 00b0 C0050000 		.4byte	.LASF14
 1019 00b4 07       		.byte	0x7
 1020 00b5 6501     		.2byte	0x165
 1021 00b7 7A000000 		.4byte	0x7a
 1022 00bb 09       		.uleb128 0x9
 1023 00bc 04       		.byte	0x4
 1024 00bd 06       		.byte	0x6
 1025 00be A6       		.byte	0xa6
 1026 00bf DA000000 		.4byte	0xda
 1027 00c3 0A       		.uleb128 0xa
 1028 00c4 B9030000 		.4byte	.LASF15
 1029 00c8 06       		.byte	0x6
 1030 00c9 A8       		.byte	0xa8
 1031 00ca AF000000 		.4byte	0xaf
 1032 00ce 0A       		.uleb128 0xa
 1033 00cf 2A050000 		.4byte	.LASF16
 1034 00d3 06       		.byte	0x6
 1035 00d4 A9       		.byte	0xa9
 1036 00d5 DA000000 		.4byte	0xda
 1037 00d9 00       		.byte	0
 1038 00da 0B       		.uleb128 0xb
 1039 00db 2C000000 		.4byte	0x2c
 1040 00df EA000000 		.4byte	0xea
 1041 00e3 0C       		.uleb128 0xc
 1042 00e4 7A000000 		.4byte	0x7a
 1043 00e8 03       		.byte	0x3
 1044 00e9 00       		.byte	0
 1045 00ea 0D       		.uleb128 0xd
 1046 00eb 08       		.byte	0x8
 1047 00ec 06       		.byte	0x6
ARM GAS  /tmp/cclxi6yR.s 			page 20


 1048 00ed A3       		.byte	0xa3
 1049 00ee 0B010000 		.4byte	0x10b
 1050 00f2 0E       		.uleb128 0xe
 1051 00f3 35010000 		.4byte	.LASF17
 1052 00f7 06       		.byte	0x6
 1053 00f8 A5       		.byte	0xa5
 1054 00f9 73000000 		.4byte	0x73
 1055 00fd 00       		.byte	0
 1056 00fe 0E       		.uleb128 0xe
 1057 00ff 42030000 		.4byte	.LASF18
 1058 0103 06       		.byte	0x6
 1059 0104 AA       		.byte	0xaa
 1060 0105 BB000000 		.4byte	0xbb
 1061 0109 04       		.byte	0x4
 1062 010a 00       		.byte	0
 1063 010b 03       		.uleb128 0x3
 1064 010c 71040000 		.4byte	.LASF19
 1065 0110 06       		.byte	0x6
 1066 0111 AB       		.byte	0xab
 1067 0112 EA000000 		.4byte	0xea
 1068 0116 03       		.uleb128 0x3
 1069 0117 B0030000 		.4byte	.LASF20
 1070 011b 06       		.byte	0x6
 1071 011c AF       		.byte	0xaf
 1072 011d 83000000 		.4byte	0x83
 1073 0121 03       		.uleb128 0x3
 1074 0122 39040000 		.4byte	.LASF21
 1075 0126 08       		.byte	0x8
 1076 0127 16       		.byte	0x16
 1077 0128 5E000000 		.4byte	0x5e
 1078 012c 0F       		.uleb128 0xf
 1079 012d 08010000 		.4byte	.LASF26
 1080 0131 18       		.byte	0x18
 1081 0132 08       		.byte	0x8
 1082 0133 2F       		.byte	0x2f
 1083 0134 7F010000 		.4byte	0x17f
 1084 0138 0E       		.uleb128 0xe
 1085 0139 2B030000 		.4byte	.LASF22
 1086 013d 08       		.byte	0x8
 1087 013e 31       		.byte	0x31
 1088 013f 7F010000 		.4byte	0x17f
 1089 0143 00       		.byte	0
 1090 0144 10       		.uleb128 0x10
 1091 0145 5F6B00   		.ascii	"_k\000"
 1092 0148 08       		.byte	0x8
 1093 0149 32       		.byte	0x32
 1094 014a 73000000 		.4byte	0x73
 1095 014e 04       		.byte	0x4
 1096 014f 0E       		.uleb128 0xe
 1097 0150 81050000 		.4byte	.LASF23
 1098 0154 08       		.byte	0x8
 1099 0155 32       		.byte	0x32
 1100 0156 73000000 		.4byte	0x73
 1101 015a 08       		.byte	0x8
 1102 015b 0E       		.uleb128 0xe
 1103 015c 16050000 		.4byte	.LASF24
 1104 0160 08       		.byte	0x8
ARM GAS  /tmp/cclxi6yR.s 			page 21


 1105 0161 32       		.byte	0x32
 1106 0162 73000000 		.4byte	0x73
 1107 0166 0C       		.byte	0xc
 1108 0167 0E       		.uleb128 0xe
 1109 0168 C8020000 		.4byte	.LASF25
 1110 016c 08       		.byte	0x8
 1111 016d 32       		.byte	0x32
 1112 016e 73000000 		.4byte	0x73
 1113 0172 10       		.byte	0x10
 1114 0173 10       		.uleb128 0x10
 1115 0174 5F7800   		.ascii	"_x\000"
 1116 0177 08       		.byte	0x8
 1117 0178 33       		.byte	0x33
 1118 0179 85010000 		.4byte	0x185
 1119 017d 14       		.byte	0x14
 1120 017e 00       		.byte	0
 1121 017f 06       		.uleb128 0x6
 1122 0180 04       		.byte	0x4
 1123 0181 2C010000 		.4byte	0x12c
 1124 0185 0B       		.uleb128 0xb
 1125 0186 21010000 		.4byte	0x121
 1126 018a 95010000 		.4byte	0x195
 1127 018e 0C       		.uleb128 0xc
 1128 018f 7A000000 		.4byte	0x7a
 1129 0193 00       		.byte	0
 1130 0194 00       		.byte	0
 1131 0195 0F       		.uleb128 0xf
 1132 0196 9C050000 		.4byte	.LASF27
 1133 019a 24       		.byte	0x24
 1134 019b 08       		.byte	0x8
 1135 019c 37       		.byte	0x37
 1136 019d 0E020000 		.4byte	0x20e
 1137 01a1 0E       		.uleb128 0xe
 1138 01a2 F8020000 		.4byte	.LASF28
 1139 01a6 08       		.byte	0x8
 1140 01a7 39       		.byte	0x39
 1141 01a8 73000000 		.4byte	0x73
 1142 01ac 00       		.byte	0
 1143 01ad 0E       		.uleb128 0xe
 1144 01ae 43010000 		.4byte	.LASF29
 1145 01b2 08       		.byte	0x8
 1146 01b3 3A       		.byte	0x3a
 1147 01b4 73000000 		.4byte	0x73
 1148 01b8 04       		.byte	0x4
 1149 01b9 0E       		.uleb128 0xe
 1150 01ba 2B010000 		.4byte	.LASF30
 1151 01be 08       		.byte	0x8
 1152 01bf 3B       		.byte	0x3b
 1153 01c0 73000000 		.4byte	0x73
 1154 01c4 08       		.byte	0x8
 1155 01c5 0E       		.uleb128 0xe
 1156 01c6 84030000 		.4byte	.LASF31
 1157 01ca 08       		.byte	0x8
 1158 01cb 3C       		.byte	0x3c
 1159 01cc 73000000 		.4byte	0x73
 1160 01d0 0C       		.byte	0xc
 1161 01d1 0E       		.uleb128 0xe
ARM GAS  /tmp/cclxi6yR.s 			page 22


 1162 01d2 C8040000 		.4byte	.LASF32
 1163 01d6 08       		.byte	0x8
 1164 01d7 3D       		.byte	0x3d
 1165 01d8 73000000 		.4byte	0x73
 1166 01dc 10       		.byte	0x10
 1167 01dd 0E       		.uleb128 0xe
 1168 01de 44050000 		.4byte	.LASF33
 1169 01e2 08       		.byte	0x8
 1170 01e3 3E       		.byte	0x3e
 1171 01e4 73000000 		.4byte	0x73
 1172 01e8 14       		.byte	0x14
 1173 01e9 0E       		.uleb128 0xe
 1174 01ea 10010000 		.4byte	.LASF34
 1175 01ee 08       		.byte	0x8
 1176 01ef 3F       		.byte	0x3f
 1177 01f0 73000000 		.4byte	0x73
 1178 01f4 18       		.byte	0x18
 1179 01f5 0E       		.uleb128 0xe
 1180 01f6 0B030000 		.4byte	.LASF35
 1181 01fa 08       		.byte	0x8
 1182 01fb 40       		.byte	0x40
 1183 01fc 73000000 		.4byte	0x73
 1184 0200 1C       		.byte	0x1c
 1185 0201 0E       		.uleb128 0xe
 1186 0202 97040000 		.4byte	.LASF36
 1187 0206 08       		.byte	0x8
 1188 0207 41       		.byte	0x41
 1189 0208 73000000 		.4byte	0x73
 1190 020c 20       		.byte	0x20
 1191 020d 00       		.byte	0
 1192 020e 11       		.uleb128 0x11
 1193 020f 1B000000 		.4byte	.LASF37
 1194 0213 0801     		.2byte	0x108
 1195 0215 08       		.byte	0x8
 1196 0216 4A       		.byte	0x4a
 1197 0217 4E020000 		.4byte	0x24e
 1198 021b 0E       		.uleb128 0xe
 1199 021c 97060000 		.4byte	.LASF38
 1200 0220 08       		.byte	0x8
 1201 0221 4B       		.byte	0x4b
 1202 0222 4E020000 		.4byte	0x24e
 1203 0226 00       		.byte	0
 1204 0227 0E       		.uleb128 0xe
 1205 0228 D8050000 		.4byte	.LASF39
 1206 022c 08       		.byte	0x8
 1207 022d 4C       		.byte	0x4c
 1208 022e 4E020000 		.4byte	0x24e
 1209 0232 80       		.byte	0x80
 1210 0233 12       		.uleb128 0x12
 1211 0234 CF060000 		.4byte	.LASF40
 1212 0238 08       		.byte	0x8
 1213 0239 4E       		.byte	0x4e
 1214 023a 21010000 		.4byte	0x121
 1215 023e 0001     		.2byte	0x100
 1216 0240 12       		.uleb128 0x12
 1217 0241 19070000 		.4byte	.LASF41
 1218 0245 08       		.byte	0x8
ARM GAS  /tmp/cclxi6yR.s 			page 23


 1219 0246 51       		.byte	0x51
 1220 0247 21010000 		.4byte	0x121
 1221 024b 0401     		.2byte	0x104
 1222 024d 00       		.byte	0
 1223 024e 0B       		.uleb128 0xb
 1224 024f 81000000 		.4byte	0x81
 1225 0253 5E020000 		.4byte	0x25e
 1226 0257 0C       		.uleb128 0xc
 1227 0258 7A000000 		.4byte	0x7a
 1228 025c 1F       		.byte	0x1f
 1229 025d 00       		.byte	0
 1230 025e 11       		.uleb128 0x11
 1231 025f F1040000 		.4byte	.LASF42
 1232 0263 9001     		.2byte	0x190
 1233 0265 08       		.byte	0x8
 1234 0266 5D       		.byte	0x5d
 1235 0267 9C020000 		.4byte	0x29c
 1236 026b 0E       		.uleb128 0xe
 1237 026c 2B030000 		.4byte	.LASF22
 1238 0270 08       		.byte	0x8
 1239 0271 5E       		.byte	0x5e
 1240 0272 9C020000 		.4byte	0x29c
 1241 0276 00       		.byte	0
 1242 0277 0E       		.uleb128 0xe
 1243 0278 1A030000 		.4byte	.LASF43
 1244 027c 08       		.byte	0x8
 1245 027d 5F       		.byte	0x5f
 1246 027e 73000000 		.4byte	0x73
 1247 0282 04       		.byte	0x4
 1248 0283 0E       		.uleb128 0xe
 1249 0284 FB000000 		.4byte	.LASF44
 1250 0288 08       		.byte	0x8
 1251 0289 61       		.byte	0x61
 1252 028a A2020000 		.4byte	0x2a2
 1253 028e 08       		.byte	0x8
 1254 028f 0E       		.uleb128 0xe
 1255 0290 1B000000 		.4byte	.LASF37
 1256 0294 08       		.byte	0x8
 1257 0295 62       		.byte	0x62
 1258 0296 0E020000 		.4byte	0x20e
 1259 029a 88       		.byte	0x88
 1260 029b 00       		.byte	0
 1261 029c 06       		.uleb128 0x6
 1262 029d 04       		.byte	0x4
 1263 029e 5E020000 		.4byte	0x25e
 1264 02a2 0B       		.uleb128 0xb
 1265 02a3 B2020000 		.4byte	0x2b2
 1266 02a7 B2020000 		.4byte	0x2b2
 1267 02ab 0C       		.uleb128 0xc
 1268 02ac 7A000000 		.4byte	0x7a
 1269 02b0 1F       		.byte	0x1f
 1270 02b1 00       		.byte	0
 1271 02b2 06       		.uleb128 0x6
 1272 02b3 04       		.byte	0x4
 1273 02b4 B8020000 		.4byte	0x2b8
 1274 02b8 13       		.uleb128 0x13
 1275 02b9 0F       		.uleb128 0xf
ARM GAS  /tmp/cclxi6yR.s 			page 24


 1276 02ba 36060000 		.4byte	.LASF45
 1277 02be 08       		.byte	0x8
 1278 02bf 08       		.byte	0x8
 1279 02c0 75       		.byte	0x75
 1280 02c1 DE020000 		.4byte	0x2de
 1281 02c5 0E       		.uleb128 0xe
 1282 02c6 23040000 		.4byte	.LASF46
 1283 02ca 08       		.byte	0x8
 1284 02cb 76       		.byte	0x76
 1285 02cc DE020000 		.4byte	0x2de
 1286 02d0 00       		.byte	0
 1287 02d1 0E       		.uleb128 0xe
 1288 02d2 D8060000 		.4byte	.LASF47
 1289 02d6 08       		.byte	0x8
 1290 02d7 77       		.byte	0x77
 1291 02d8 73000000 		.4byte	0x73
 1292 02dc 04       		.byte	0x4
 1293 02dd 00       		.byte	0
 1294 02de 06       		.uleb128 0x6
 1295 02df 04       		.byte	0x4
 1296 02e0 2C000000 		.4byte	0x2c
 1297 02e4 0F       		.uleb128 0xf
 1298 02e5 C0020000 		.4byte	.LASF48
 1299 02e9 68       		.byte	0x68
 1300 02ea 08       		.byte	0x8
 1301 02eb B5       		.byte	0xb5
 1302 02ec 0E040000 		.4byte	0x40e
 1303 02f0 10       		.uleb128 0x10
 1304 02f1 5F7000   		.ascii	"_p\000"
 1305 02f4 08       		.byte	0x8
 1306 02f5 B6       		.byte	0xb6
 1307 02f6 DE020000 		.4byte	0x2de
 1308 02fa 00       		.byte	0
 1309 02fb 10       		.uleb128 0x10
 1310 02fc 5F7200   		.ascii	"_r\000"
 1311 02ff 08       		.byte	0x8
 1312 0300 B7       		.byte	0xb7
 1313 0301 73000000 		.4byte	0x73
 1314 0305 04       		.byte	0x4
 1315 0306 10       		.uleb128 0x10
 1316 0307 5F7700   		.ascii	"_w\000"
 1317 030a 08       		.byte	0x8
 1318 030b B8       		.byte	0xb8
 1319 030c 73000000 		.4byte	0x73
 1320 0310 08       		.byte	0x8
 1321 0311 0E       		.uleb128 0xe
 1322 0312 77000000 		.4byte	.LASF49
 1323 0316 08       		.byte	0x8
 1324 0317 B9       		.byte	0xb9
 1325 0318 33000000 		.4byte	0x33
 1326 031c 0C       		.byte	0xc
 1327 031d 0E       		.uleb128 0xe
 1328 031e 50040000 		.4byte	.LASF50
 1329 0322 08       		.byte	0x8
 1330 0323 BA       		.byte	0xba
 1331 0324 33000000 		.4byte	0x33
 1332 0328 0E       		.byte	0xe
ARM GAS  /tmp/cclxi6yR.s 			page 25


 1333 0329 10       		.uleb128 0x10
 1334 032a 5F626600 		.ascii	"_bf\000"
 1335 032e 08       		.byte	0x8
 1336 032f BB       		.byte	0xbb
 1337 0330 B9020000 		.4byte	0x2b9
 1338 0334 10       		.byte	0x10
 1339 0335 0E       		.uleb128 0xe
 1340 0336 6E000000 		.4byte	.LASF51
 1341 033a 08       		.byte	0x8
 1342 033b BC       		.byte	0xbc
 1343 033c 73000000 		.4byte	0x73
 1344 0340 18       		.byte	0x18
 1345 0341 0E       		.uleb128 0xe
 1346 0342 00010000 		.4byte	.LASF52
 1347 0346 08       		.byte	0x8
 1348 0347 C3       		.byte	0xc3
 1349 0348 81000000 		.4byte	0x81
 1350 034c 1C       		.byte	0x1c
 1351 034d 0E       		.uleb128 0xe
 1352 034e B6000000 		.4byte	.LASF53
 1353 0352 08       		.byte	0x8
 1354 0353 C5       		.byte	0xc5
 1355 0354 7B050000 		.4byte	0x57b
 1356 0358 20       		.byte	0x20
 1357 0359 0E       		.uleb128 0xe
 1358 035a D9040000 		.4byte	.LASF54
 1359 035e 08       		.byte	0x8
 1360 035f C7       		.byte	0xc7
 1361 0360 A5050000 		.4byte	0x5a5
 1362 0364 24       		.byte	0x24
 1363 0365 0E       		.uleb128 0xe
 1364 0366 3D070000 		.4byte	.LASF55
 1365 036a 08       		.byte	0x8
 1366 036b CA       		.byte	0xca
 1367 036c C9050000 		.4byte	0x5c9
 1368 0370 28       		.byte	0x28
 1369 0371 0E       		.uleb128 0xe
 1370 0372 C5030000 		.4byte	.LASF56
 1371 0376 08       		.byte	0x8
 1372 0377 CB       		.byte	0xcb
 1373 0378 E3050000 		.4byte	0x5e3
 1374 037c 2C       		.byte	0x2c
 1375 037d 10       		.uleb128 0x10
 1376 037e 5F756200 		.ascii	"_ub\000"
 1377 0382 08       		.byte	0x8
 1378 0383 CE       		.byte	0xce
 1379 0384 B9020000 		.4byte	0x2b9
 1380 0388 30       		.byte	0x30
 1381 0389 10       		.uleb128 0x10
 1382 038a 5F757000 		.ascii	"_up\000"
 1383 038e 08       		.byte	0x8
 1384 038f CF       		.byte	0xcf
 1385 0390 DE020000 		.4byte	0x2de
 1386 0394 38       		.byte	0x38
 1387 0395 10       		.uleb128 0x10
 1388 0396 5F757200 		.ascii	"_ur\000"
 1389 039a 08       		.byte	0x8
ARM GAS  /tmp/cclxi6yR.s 			page 26


 1390 039b D0       		.byte	0xd0
 1391 039c 73000000 		.4byte	0x73
 1392 03a0 3C       		.byte	0x3c
 1393 03a1 0E       		.uleb128 0xe
 1394 03a2 54070000 		.4byte	.LASF57
 1395 03a6 08       		.byte	0x8
 1396 03a7 D3       		.byte	0xd3
 1397 03a8 E9050000 		.4byte	0x5e9
 1398 03ac 40       		.byte	0x40
 1399 03ad 0E       		.uleb128 0xe
 1400 03ae E5060000 		.4byte	.LASF58
 1401 03b2 08       		.byte	0x8
 1402 03b3 D4       		.byte	0xd4
 1403 03b4 F9050000 		.4byte	0x5f9
 1404 03b8 43       		.byte	0x43
 1405 03b9 10       		.uleb128 0x10
 1406 03ba 5F6C6200 		.ascii	"_lb\000"
 1407 03be 08       		.byte	0x8
 1408 03bf D7       		.byte	0xd7
 1409 03c0 B9020000 		.4byte	0x2b9
 1410 03c4 44       		.byte	0x44
 1411 03c5 0E       		.uleb128 0xe
 1412 03c6 93050000 		.4byte	.LASF59
 1413 03ca 08       		.byte	0x8
 1414 03cb DA       		.byte	0xda
 1415 03cc 73000000 		.4byte	0x73
 1416 03d0 4C       		.byte	0x4c
 1417 03d1 0E       		.uleb128 0xe
 1418 03d2 DB020000 		.4byte	.LASF60
 1419 03d6 08       		.byte	0x8
 1420 03d7 DB       		.byte	0xdb
 1421 03d8 99000000 		.4byte	0x99
 1422 03dc 50       		.byte	0x50
 1423 03dd 0E       		.uleb128 0xe
 1424 03de 24050000 		.4byte	.LASF61
 1425 03e2 08       		.byte	0x8
 1426 03e3 DE       		.byte	0xde
 1427 03e4 2C040000 		.4byte	0x42c
 1428 03e8 54       		.byte	0x54
 1429 03e9 0E       		.uleb128 0xe
 1430 03ea A1050000 		.4byte	.LASF62
 1431 03ee 08       		.byte	0x8
 1432 03ef E2       		.byte	0xe2
 1433 03f0 16010000 		.4byte	0x116
 1434 03f4 58       		.byte	0x58
 1435 03f5 0E       		.uleb128 0xe
 1436 03f6 9A000000 		.4byte	.LASF63
 1437 03fa 08       		.byte	0x8
 1438 03fb E4       		.byte	0xe4
 1439 03fc 0B010000 		.4byte	0x10b
 1440 0400 5C       		.byte	0x5c
 1441 0401 0E       		.uleb128 0xe
 1442 0402 11070000 		.4byte	.LASF64
 1443 0406 08       		.byte	0x8
 1444 0407 E5       		.byte	0xe5
 1445 0408 73000000 		.4byte	0x73
 1446 040c 64       		.byte	0x64
ARM GAS  /tmp/cclxi6yR.s 			page 27


 1447 040d 00       		.byte	0
 1448 040e 14       		.uleb128 0x14
 1449 040f 73000000 		.4byte	0x73
 1450 0413 2C040000 		.4byte	0x42c
 1451 0417 15       		.uleb128 0x15
 1452 0418 2C040000 		.4byte	0x42c
 1453 041c 15       		.uleb128 0x15
 1454 041d 81000000 		.4byte	0x81
 1455 0421 15       		.uleb128 0x15
 1456 0422 69050000 		.4byte	0x569
 1457 0426 15       		.uleb128 0x15
 1458 0427 73000000 		.4byte	0x73
 1459 042b 00       		.byte	0
 1460 042c 06       		.uleb128 0x6
 1461 042d 04       		.byte	0x4
 1462 042e 37040000 		.4byte	0x437
 1463 0432 16       		.uleb128 0x16
 1464 0433 2C040000 		.4byte	0x42c
 1465 0437 17       		.uleb128 0x17
 1466 0438 B5060000 		.4byte	.LASF65
 1467 043c 2804     		.2byte	0x428
 1468 043e 08       		.byte	0x8
 1469 043f 6002     		.2byte	0x260
 1470 0441 69050000 		.4byte	0x569
 1471 0445 18       		.uleb128 0x18
 1472 0446 93000000 		.4byte	.LASF66
 1473 044a 08       		.byte	0x8
 1474 044b 6202     		.2byte	0x262
 1475 044d 73000000 		.4byte	0x73
 1476 0451 00       		.byte	0
 1477 0452 18       		.uleb128 0x18
 1478 0453 E5030000 		.4byte	.LASF67
 1479 0457 08       		.byte	0x8
 1480 0458 6702     		.2byte	0x267
 1481 045a 50060000 		.4byte	0x650
 1482 045e 04       		.byte	0x4
 1483 045f 18       		.uleb128 0x18
 1484 0460 D4000000 		.4byte	.LASF68
 1485 0464 08       		.byte	0x8
 1486 0465 6702     		.2byte	0x267
 1487 0467 50060000 		.4byte	0x650
 1488 046b 08       		.byte	0x8
 1489 046c 18       		.uleb128 0x18
 1490 046d 43070000 		.4byte	.LASF69
 1491 0471 08       		.byte	0x8
 1492 0472 6702     		.2byte	0x267
 1493 0474 50060000 		.4byte	0x650
 1494 0478 0C       		.byte	0xc
 1495 0479 18       		.uleb128 0x18
 1496 047a 15030000 		.4byte	.LASF70
 1497 047e 08       		.byte	0x8
 1498 047f 6902     		.2byte	0x269
 1499 0481 73000000 		.4byte	0x73
 1500 0485 10       		.byte	0x10
 1501 0486 18       		.uleb128 0x18
 1502 0487 E3020000 		.4byte	.LASF71
 1503 048b 08       		.byte	0x8
ARM GAS  /tmp/cclxi6yR.s 			page 28


 1504 048c 6A02     		.2byte	0x26a
 1505 048e 32080000 		.4byte	0x832
 1506 0492 14       		.byte	0x14
 1507 0493 18       		.uleb128 0x18
 1508 0494 F8060000 		.4byte	.LASF72
 1509 0498 08       		.byte	0x8
 1510 0499 6D02     		.2byte	0x26d
 1511 049b 73000000 		.4byte	0x73
 1512 049f 30       		.byte	0x30
 1513 04a0 18       		.uleb128 0x18
 1514 04a1 8F060000 		.4byte	.LASF73
 1515 04a5 08       		.byte	0x8
 1516 04a6 6E02     		.2byte	0x26e
 1517 04a8 47080000 		.4byte	0x847
 1518 04ac 34       		.byte	0x34
 1519 04ad 18       		.uleb128 0x18
 1520 04ae CC030000 		.4byte	.LASF74
 1521 04b2 08       		.byte	0x8
 1522 04b3 7002     		.2byte	0x270
 1523 04b5 73000000 		.4byte	0x73
 1524 04b9 38       		.byte	0x38
 1525 04ba 18       		.uleb128 0x18
 1526 04bb 67040000 		.4byte	.LASF75
 1527 04bf 08       		.byte	0x8
 1528 04c0 7202     		.2byte	0x272
 1529 04c2 58080000 		.4byte	0x858
 1530 04c6 3C       		.byte	0x3c
 1531 04c7 18       		.uleb128 0x18
 1532 04c8 1A010000 		.4byte	.LASF76
 1533 04cc 08       		.byte	0x8
 1534 04cd 7502     		.2byte	0x275
 1535 04cf 7F010000 		.4byte	0x17f
 1536 04d3 40       		.byte	0x40
 1537 04d4 18       		.uleb128 0x18
 1538 04d5 8B020000 		.4byte	.LASF77
 1539 04d9 08       		.byte	0x8
 1540 04da 7602     		.2byte	0x276
 1541 04dc 73000000 		.4byte	0x73
 1542 04e0 44       		.byte	0x44
 1543 04e1 18       		.uleb128 0x18
 1544 04e2 4A030000 		.4byte	.LASF78
 1545 04e6 08       		.byte	0x8
 1546 04e7 7702     		.2byte	0x277
 1547 04e9 7F010000 		.4byte	0x17f
 1548 04ed 48       		.byte	0x48
 1549 04ee 18       		.uleb128 0x18
 1550 04ef 29040000 		.4byte	.LASF79
 1551 04f3 08       		.byte	0x8
 1552 04f4 7802     		.2byte	0x278
 1553 04f6 5E080000 		.4byte	0x85e
 1554 04fa 4C       		.byte	0x4c
 1555 04fb 18       		.uleb128 0x18
 1556 04fc 79050000 		.4byte	.LASF80
 1557 0500 08       		.byte	0x8
 1558 0501 7B02     		.2byte	0x27b
 1559 0503 73000000 		.4byte	0x73
 1560 0507 50       		.byte	0x50
ARM GAS  /tmp/cclxi6yR.s 			page 29


 1561 0508 18       		.uleb128 0x18
 1562 0509 EB050000 		.4byte	.LASF81
 1563 050d 08       		.byte	0x8
 1564 050e 7C02     		.2byte	0x27c
 1565 0510 69050000 		.4byte	0x569
 1566 0514 54       		.byte	0x54
 1567 0515 18       		.uleb128 0x18
 1568 0516 65050000 		.4byte	.LASF82
 1569 051a 08       		.byte	0x8
 1570 051b 9F02     		.2byte	0x29f
 1571 051d 10080000 		.4byte	0x810
 1572 0521 58       		.byte	0x58
 1573 0522 19       		.uleb128 0x19
 1574 0523 F1040000 		.4byte	.LASF42
 1575 0527 08       		.byte	0x8
 1576 0528 A302     		.2byte	0x2a3
 1577 052a 9C020000 		.4byte	0x29c
 1578 052e 4801     		.2byte	0x148
 1579 0530 19       		.uleb128 0x19
 1580 0531 A7030000 		.4byte	.LASF83
 1581 0535 08       		.byte	0x8
 1582 0536 A402     		.2byte	0x2a4
 1583 0538 5E020000 		.4byte	0x25e
 1584 053c 4C01     		.2byte	0x14c
 1585 053e 19       		.uleb128 0x19
 1586 053f 8E030000 		.4byte	.LASF84
 1587 0543 08       		.byte	0x8
 1588 0544 A802     		.2byte	0x2a8
 1589 0546 6F080000 		.4byte	0x86f
 1590 054a DC02     		.2byte	0x2dc
 1591 054c 19       		.uleb128 0x19
 1592 054d 4B060000 		.4byte	.LASF85
 1593 0551 08       		.byte	0x8
 1594 0552 AD02     		.2byte	0x2ad
 1595 0554 15060000 		.4byte	0x615
 1596 0558 E002     		.2byte	0x2e0
 1597 055a 19       		.uleb128 0x19
 1598 055b 11050000 		.4byte	.LASF86
 1599 055f 08       		.byte	0x8
 1600 0560 AF02     		.2byte	0x2af
 1601 0562 7B080000 		.4byte	0x87b
 1602 0566 EC02     		.2byte	0x2ec
 1603 0568 00       		.byte	0
 1604 0569 06       		.uleb128 0x6
 1605 056a 04       		.byte	0x4
 1606 056b 6F050000 		.4byte	0x56f
 1607 056f 02       		.uleb128 0x2
 1608 0570 01       		.byte	0x1
 1609 0571 08       		.byte	0x8
 1610 0572 7F030000 		.4byte	.LASF87
 1611 0576 16       		.uleb128 0x16
 1612 0577 6F050000 		.4byte	0x56f
 1613 057b 06       		.uleb128 0x6
 1614 057c 04       		.byte	0x4
 1615 057d 0E040000 		.4byte	0x40e
 1616 0581 14       		.uleb128 0x14
 1617 0582 73000000 		.4byte	0x73
ARM GAS  /tmp/cclxi6yR.s 			page 30


 1618 0586 9F050000 		.4byte	0x59f
 1619 058a 15       		.uleb128 0x15
 1620 058b 2C040000 		.4byte	0x42c
 1621 058f 15       		.uleb128 0x15
 1622 0590 81000000 		.4byte	0x81
 1623 0594 15       		.uleb128 0x15
 1624 0595 9F050000 		.4byte	0x59f
 1625 0599 15       		.uleb128 0x15
 1626 059a 73000000 		.4byte	0x73
 1627 059e 00       		.byte	0
 1628 059f 06       		.uleb128 0x6
 1629 05a0 04       		.byte	0x4
 1630 05a1 76050000 		.4byte	0x576
 1631 05a5 06       		.uleb128 0x6
 1632 05a6 04       		.byte	0x4
 1633 05a7 81050000 		.4byte	0x581
 1634 05ab 14       		.uleb128 0x14
 1635 05ac A4000000 		.4byte	0xa4
 1636 05b0 C9050000 		.4byte	0x5c9
 1637 05b4 15       		.uleb128 0x15
 1638 05b5 2C040000 		.4byte	0x42c
 1639 05b9 15       		.uleb128 0x15
 1640 05ba 81000000 		.4byte	0x81
 1641 05be 15       		.uleb128 0x15
 1642 05bf A4000000 		.4byte	0xa4
 1643 05c3 15       		.uleb128 0x15
 1644 05c4 73000000 		.4byte	0x73
 1645 05c8 00       		.byte	0
 1646 05c9 06       		.uleb128 0x6
 1647 05ca 04       		.byte	0x4
 1648 05cb AB050000 		.4byte	0x5ab
 1649 05cf 14       		.uleb128 0x14
 1650 05d0 73000000 		.4byte	0x73
 1651 05d4 E3050000 		.4byte	0x5e3
 1652 05d8 15       		.uleb128 0x15
 1653 05d9 2C040000 		.4byte	0x42c
 1654 05dd 15       		.uleb128 0x15
 1655 05de 81000000 		.4byte	0x81
 1656 05e2 00       		.byte	0
 1657 05e3 06       		.uleb128 0x6
 1658 05e4 04       		.byte	0x4
 1659 05e5 CF050000 		.4byte	0x5cf
 1660 05e9 0B       		.uleb128 0xb
 1661 05ea 2C000000 		.4byte	0x2c
 1662 05ee F9050000 		.4byte	0x5f9
 1663 05f2 0C       		.uleb128 0xc
 1664 05f3 7A000000 		.4byte	0x7a
 1665 05f7 02       		.byte	0x2
 1666 05f8 00       		.byte	0
 1667 05f9 0B       		.uleb128 0xb
 1668 05fa 2C000000 		.4byte	0x2c
 1669 05fe 09060000 		.4byte	0x609
 1670 0602 0C       		.uleb128 0xc
 1671 0603 7A000000 		.4byte	0x7a
 1672 0607 00       		.byte	0
 1673 0608 00       		.byte	0
 1674 0609 08       		.uleb128 0x8
ARM GAS  /tmp/cclxi6yR.s 			page 31


 1675 060a D4020000 		.4byte	.LASF88
 1676 060e 08       		.byte	0x8
 1677 060f 1F01     		.2byte	0x11f
 1678 0611 E4020000 		.4byte	0x2e4
 1679 0615 1A       		.uleb128 0x1a
 1680 0616 45060000 		.4byte	.LASF89
 1681 061a 0C       		.byte	0xc
 1682 061b 08       		.byte	0x8
 1683 061c 2301     		.2byte	0x123
 1684 061e 4A060000 		.4byte	0x64a
 1685 0622 18       		.uleb128 0x18
 1686 0623 2B030000 		.4byte	.LASF22
 1687 0627 08       		.byte	0x8
 1688 0628 2501     		.2byte	0x125
 1689 062a 4A060000 		.4byte	0x64a
 1690 062e 00       		.byte	0
 1691 062f 18       		.uleb128 0x18
 1692 0630 B9050000 		.4byte	.LASF90
 1693 0634 08       		.byte	0x8
 1694 0635 2601     		.2byte	0x126
 1695 0637 73000000 		.4byte	0x73
 1696 063b 04       		.byte	0x4
 1697 063c 18       		.uleb128 0x18
 1698 063d BF030000 		.4byte	.LASF91
 1699 0641 08       		.byte	0x8
 1700 0642 2701     		.2byte	0x127
 1701 0644 50060000 		.4byte	0x650
 1702 0648 08       		.byte	0x8
 1703 0649 00       		.byte	0
 1704 064a 06       		.uleb128 0x6
 1705 064b 04       		.byte	0x4
 1706 064c 15060000 		.4byte	0x615
 1707 0650 06       		.uleb128 0x6
 1708 0651 04       		.byte	0x4
 1709 0652 09060000 		.4byte	0x609
 1710 0656 1A       		.uleb128 0x1a
 1711 0657 83020000 		.4byte	.LASF92
 1712 065b 0E       		.byte	0xe
 1713 065c 08       		.byte	0x8
 1714 065d 3F01     		.2byte	0x13f
 1715 065f 8B060000 		.4byte	0x68b
 1716 0663 18       		.uleb128 0x18
 1717 0664 21070000 		.4byte	.LASF93
 1718 0668 08       		.byte	0x8
 1719 0669 4001     		.2byte	0x140
 1720 066b 8B060000 		.4byte	0x68b
 1721 066f 00       		.byte	0
 1722 0670 18       		.uleb128 0x18
 1723 0671 33040000 		.4byte	.LASF94
 1724 0675 08       		.byte	0x8
 1725 0676 4101     		.2byte	0x141
 1726 0678 8B060000 		.4byte	0x68b
 1727 067c 06       		.byte	0x6
 1728 067d 18       		.uleb128 0x18
 1729 067e 31060000 		.4byte	.LASF95
 1730 0682 08       		.byte	0x8
 1731 0683 4201     		.2byte	0x142
ARM GAS  /tmp/cclxi6yR.s 			page 32


 1732 0685 3A000000 		.4byte	0x3a
 1733 0689 0C       		.byte	0xc
 1734 068a 00       		.byte	0
 1735 068b 0B       		.uleb128 0xb
 1736 068c 3A000000 		.4byte	0x3a
 1737 0690 9B060000 		.4byte	0x69b
 1738 0694 0C       		.uleb128 0xc
 1739 0695 7A000000 		.4byte	0x7a
 1740 0699 02       		.byte	0x2
 1741 069a 00       		.byte	0
 1742 069b 1B       		.uleb128 0x1b
 1743 069c D0       		.byte	0xd0
 1744 069d 08       		.byte	0x8
 1745 069e 8002     		.2byte	0x280
 1746 06a0 9C070000 		.4byte	0x79c
 1747 06a4 18       		.uleb128 0x18
 1748 06a5 EB060000 		.4byte	.LASF96
 1749 06a9 08       		.byte	0x8
 1750 06aa 8202     		.2byte	0x282
 1751 06ac 7A000000 		.4byte	0x7a
 1752 06b0 00       		.byte	0
 1753 06b1 18       		.uleb128 0x18
 1754 06b2 53060000 		.4byte	.LASF97
 1755 06b6 08       		.byte	0x8
 1756 06b7 8302     		.2byte	0x283
 1757 06b9 69050000 		.4byte	0x569
 1758 06bd 04       		.byte	0x4
 1759 06be 18       		.uleb128 0x18
 1760 06bf AC020000 		.4byte	.LASF98
 1761 06c3 08       		.byte	0x8
 1762 06c4 8402     		.2byte	0x284
 1763 06c6 9C070000 		.4byte	0x79c
 1764 06ca 08       		.byte	0x8
 1765 06cb 18       		.uleb128 0x18
 1766 06cc 4E050000 		.4byte	.LASF99
 1767 06d0 08       		.byte	0x8
 1768 06d1 8502     		.2byte	0x285
 1769 06d3 95010000 		.4byte	0x195
 1770 06d7 24       		.byte	0x24
 1771 06d8 18       		.uleb128 0x18
 1772 06d9 EC030000 		.4byte	.LASF100
 1773 06dd 08       		.byte	0x8
 1774 06de 8602     		.2byte	0x286
 1775 06e0 73000000 		.4byte	0x73
 1776 06e4 48       		.byte	0x48
 1777 06e5 18       		.uleb128 0x18
 1778 06e6 27070000 		.4byte	.LASF101
 1779 06ea 08       		.byte	0x8
 1780 06eb 8702     		.2byte	0x287
 1781 06ed 6C000000 		.4byte	0x6c
 1782 06f1 50       		.byte	0x50
 1783 06f2 18       		.uleb128 0x18
 1784 06f3 43000000 		.4byte	.LASF102
 1785 06f7 08       		.byte	0x8
 1786 06f8 8802     		.2byte	0x288
 1787 06fa 56060000 		.4byte	0x656
 1788 06fe 58       		.byte	0x58
ARM GAS  /tmp/cclxi6yR.s 			page 33


 1789 06ff 18       		.uleb128 0x18
 1790 0700 6C030000 		.4byte	.LASF103
 1791 0704 08       		.byte	0x8
 1792 0705 8902     		.2byte	0x289
 1793 0707 0B010000 		.4byte	0x10b
 1794 070b 68       		.byte	0x68
 1795 070c 18       		.uleb128 0x18
 1796 070d 60060000 		.4byte	.LASF104
 1797 0711 08       		.byte	0x8
 1798 0712 8A02     		.2byte	0x28a
 1799 0714 0B010000 		.4byte	0x10b
 1800 0718 70       		.byte	0x70
 1801 0719 18       		.uleb128 0x18
 1802 071a 29000000 		.4byte	.LASF105
 1803 071e 08       		.byte	0x8
 1804 071f 8B02     		.2byte	0x28b
 1805 0721 0B010000 		.4byte	0x10b
 1806 0725 78       		.byte	0x78
 1807 0726 18       		.uleb128 0x18
 1808 0727 89050000 		.4byte	.LASF106
 1809 072b 08       		.byte	0x8
 1810 072c 8C02     		.2byte	0x28c
 1811 072e AC070000 		.4byte	0x7ac
 1812 0732 80       		.byte	0x80
 1813 0733 18       		.uleb128 0x18
 1814 0734 48000000 		.4byte	.LASF107
 1815 0738 08       		.byte	0x8
 1816 0739 8D02     		.2byte	0x28d
 1817 073b BC070000 		.4byte	0x7bc
 1818 073f 88       		.byte	0x88
 1819 0740 18       		.uleb128 0x18
 1820 0741 14060000 		.4byte	.LASF108
 1821 0745 08       		.byte	0x8
 1822 0746 8E02     		.2byte	0x28e
 1823 0748 73000000 		.4byte	0x73
 1824 074c A0       		.byte	0xa0
 1825 074d 18       		.uleb128 0x18
 1826 074e BC000000 		.4byte	.LASF109
 1827 0752 08       		.byte	0x8
 1828 0753 8F02     		.2byte	0x28f
 1829 0755 0B010000 		.4byte	0x10b
 1830 0759 A4       		.byte	0xa4
 1831 075a 18       		.uleb128 0x18
 1832 075b 98030000 		.4byte	.LASF110
 1833 075f 08       		.byte	0x8
 1834 0760 9002     		.2byte	0x290
 1835 0762 0B010000 		.4byte	0x10b
 1836 0766 AC       		.byte	0xac
 1837 0767 18       		.uleb128 0x18
 1838 0768 31030000 		.4byte	.LASF111
 1839 076c 08       		.byte	0x8
 1840 076d 9102     		.2byte	0x291
 1841 076f 0B010000 		.4byte	0x10b
 1842 0773 B4       		.byte	0xb4
 1843 0774 18       		.uleb128 0x18
 1844 0775 41040000 		.4byte	.LASF112
 1845 0779 08       		.byte	0x8
ARM GAS  /tmp/cclxi6yR.s 			page 34


 1846 077a 9202     		.2byte	0x292
 1847 077c 0B010000 		.4byte	0x10b
 1848 0780 BC       		.byte	0xbc
 1849 0781 18       		.uleb128 0x18
 1850 0782 5B030000 		.4byte	.LASF113
 1851 0786 08       		.byte	0x8
 1852 0787 9302     		.2byte	0x293
 1853 0789 0B010000 		.4byte	0x10b
 1854 078d C4       		.byte	0xc4
 1855 078e 18       		.uleb128 0x18
 1856 078f A2040000 		.4byte	.LASF114
 1857 0793 08       		.byte	0x8
 1858 0794 9402     		.2byte	0x294
 1859 0796 73000000 		.4byte	0x73
 1860 079a CC       		.byte	0xcc
 1861 079b 00       		.byte	0
 1862 079c 0B       		.uleb128 0xb
 1863 079d 6F050000 		.4byte	0x56f
 1864 07a1 AC070000 		.4byte	0x7ac
 1865 07a5 0C       		.uleb128 0xc
 1866 07a6 7A000000 		.4byte	0x7a
 1867 07aa 19       		.byte	0x19
 1868 07ab 00       		.byte	0
 1869 07ac 0B       		.uleb128 0xb
 1870 07ad 6F050000 		.4byte	0x56f
 1871 07b1 BC070000 		.4byte	0x7bc
 1872 07b5 0C       		.uleb128 0xc
 1873 07b6 7A000000 		.4byte	0x7a
 1874 07ba 07       		.byte	0x7
 1875 07bb 00       		.byte	0
 1876 07bc 0B       		.uleb128 0xb
 1877 07bd 6F050000 		.4byte	0x56f
 1878 07c1 CC070000 		.4byte	0x7cc
 1879 07c5 0C       		.uleb128 0xc
 1880 07c6 7A000000 		.4byte	0x7a
 1881 07ca 17       		.byte	0x17
 1882 07cb 00       		.byte	0
 1883 07cc 1B       		.uleb128 0x1b
 1884 07cd F0       		.byte	0xf0
 1885 07ce 08       		.byte	0x8
 1886 07cf 9902     		.2byte	0x299
 1887 07d1 F0070000 		.4byte	0x7f0
 1888 07d5 18       		.uleb128 0x18
 1889 07d6 58010000 		.4byte	.LASF115
 1890 07da 08       		.byte	0x8
 1891 07db 9C02     		.2byte	0x29c
 1892 07dd F0070000 		.4byte	0x7f0
 1893 07e1 00       		.byte	0
 1894 07e2 18       		.uleb128 0x18
 1895 07e3 4B070000 		.4byte	.LASF116
 1896 07e7 08       		.byte	0x8
 1897 07e8 9D02     		.2byte	0x29d
 1898 07ea 00080000 		.4byte	0x800
 1899 07ee 78       		.byte	0x78
 1900 07ef 00       		.byte	0
 1901 07f0 0B       		.uleb128 0xb
 1902 07f1 DE020000 		.4byte	0x2de
ARM GAS  /tmp/cclxi6yR.s 			page 35


 1903 07f5 00080000 		.4byte	0x800
 1904 07f9 0C       		.uleb128 0xc
 1905 07fa 7A000000 		.4byte	0x7a
 1906 07fe 1D       		.byte	0x1d
 1907 07ff 00       		.byte	0
 1908 0800 0B       		.uleb128 0xb
 1909 0801 7A000000 		.4byte	0x7a
 1910 0805 10080000 		.4byte	0x810
 1911 0809 0C       		.uleb128 0xc
 1912 080a 7A000000 		.4byte	0x7a
 1913 080e 1D       		.byte	0x1d
 1914 080f 00       		.byte	0
 1915 0810 1C       		.uleb128 0x1c
 1916 0811 F0       		.byte	0xf0
 1917 0812 08       		.byte	0x8
 1918 0813 7E02     		.2byte	0x27e
 1919 0815 32080000 		.4byte	0x832
 1920 0819 1D       		.uleb128 0x1d
 1921 081a B5060000 		.4byte	.LASF65
 1922 081e 08       		.byte	0x8
 1923 081f 9502     		.2byte	0x295
 1924 0821 9B060000 		.4byte	0x69b
 1925 0825 1D       		.uleb128 0x1d
 1926 0826 5D050000 		.4byte	.LASF117
 1927 082a 08       		.byte	0x8
 1928 082b 9E02     		.2byte	0x29e
 1929 082d CC070000 		.4byte	0x7cc
 1930 0831 00       		.byte	0
 1931 0832 0B       		.uleb128 0xb
 1932 0833 6F050000 		.4byte	0x56f
 1933 0837 42080000 		.4byte	0x842
 1934 083b 0C       		.uleb128 0xc
 1935 083c 7A000000 		.4byte	0x7a
 1936 0840 18       		.byte	0x18
 1937 0841 00       		.byte	0
 1938 0842 07       		.uleb128 0x7
 1939 0843 32070000 		.4byte	.LASF119
 1940 0847 06       		.uleb128 0x6
 1941 0848 04       		.byte	0x4
 1942 0849 42080000 		.4byte	0x842
 1943 084d 1E       		.uleb128 0x1e
 1944 084e 58080000 		.4byte	0x858
 1945 0852 15       		.uleb128 0x15
 1946 0853 2C040000 		.4byte	0x42c
 1947 0857 00       		.byte	0
 1948 0858 06       		.uleb128 0x6
 1949 0859 04       		.byte	0x4
 1950 085a 4D080000 		.4byte	0x84d
 1951 085e 06       		.uleb128 0x6
 1952 085f 04       		.byte	0x4
 1953 0860 7F010000 		.4byte	0x17f
 1954 0864 1E       		.uleb128 0x1e
 1955 0865 6F080000 		.4byte	0x86f
 1956 0869 15       		.uleb128 0x15
 1957 086a 73000000 		.4byte	0x73
 1958 086e 00       		.byte	0
 1959 086f 06       		.uleb128 0x6
ARM GAS  /tmp/cclxi6yR.s 			page 36


 1960 0870 04       		.byte	0x4
 1961 0871 75080000 		.4byte	0x875
 1962 0875 06       		.uleb128 0x6
 1963 0876 04       		.byte	0x4
 1964 0877 64080000 		.4byte	0x864
 1965 087b 0B       		.uleb128 0xb
 1966 087c 09060000 		.4byte	0x609
 1967 0880 8B080000 		.4byte	0x88b
 1968 0884 0C       		.uleb128 0xc
 1969 0885 7A000000 		.4byte	0x7a
 1970 0889 02       		.byte	0x2
 1971 088a 00       		.byte	0
 1972 088b 1F       		.uleb128 0x1f
 1973 088c 4C010000 		.4byte	.LASF120
 1974 0890 08       		.byte	0x8
 1975 0891 2E03     		.2byte	0x32e
 1976 0893 2C040000 		.4byte	0x42c
 1977 0897 1F       		.uleb128 0x1f
 1978 0898 31050000 		.4byte	.LASF121
 1979 089c 08       		.byte	0x8
 1980 089d 2F03     		.2byte	0x32f
 1981 089f 32040000 		.4byte	0x432
 1982 08a3 03       		.uleb128 0x3
 1983 08a4 C7050000 		.4byte	.LASF122
 1984 08a8 09       		.byte	0x9
 1985 08a9 2C       		.byte	0x2c
 1986 08aa 41000000 		.4byte	0x41
 1987 08ae 03       		.uleb128 0x3
 1988 08af 22010000 		.4byte	.LASF123
 1989 08b3 09       		.byte	0x9
 1990 08b4 30       		.byte	0x30
 1991 08b5 53000000 		.4byte	0x53
 1992 08b9 03       		.uleb128 0x3
 1993 08ba EE020000 		.4byte	.LASF124
 1994 08be 0A       		.byte	0xa
 1995 08bf 1E       		.byte	0x1e
 1996 08c0 AE080000 		.4byte	0x8ae
 1997 08c4 03       		.uleb128 0x3
 1998 08c5 5E040000 		.4byte	.LASF125
 1999 08c9 0A       		.byte	0xa
 2000 08ca 20       		.byte	0x20
 2001 08cb AE080000 		.4byte	0x8ae
 2002 08cf 03       		.uleb128 0x3
 2003 08d0 E0040000 		.4byte	.LASF126
 2004 08d4 0A       		.byte	0xa
 2005 08d5 22       		.byte	0x22
 2006 08d6 AE080000 		.4byte	0x8ae
 2007 08da 03       		.uleb128 0x3
 2008 08db 3D060000 		.4byte	.LASF127
 2009 08df 0A       		.byte	0xa
 2010 08e0 23       		.byte	0x23
 2011 08e1 A3080000 		.4byte	0x8a3
 2012 08e5 02       		.uleb128 0x2
 2013 08e6 04       		.byte	0x4
 2014 08e7 04       		.byte	0x4
 2015 08e8 3D010000 		.4byte	.LASF128
 2016 08ec 02       		.uleb128 0x2
ARM GAS  /tmp/cclxi6yR.s 			page 37


 2017 08ed 01       		.byte	0x1
 2018 08ee 02       		.byte	0x2
 2019 08ef B7040000 		.4byte	.LASF129
 2020 08f3 0D       		.uleb128 0xd
 2021 08f4 0C       		.byte	0xc
 2022 08f5 03       		.byte	0x3
 2023 08f6 FB       		.byte	0xfb
 2024 08f7 20090000 		.4byte	0x920
 2025 08fb 0E       		.uleb128 0xe
 2026 08fc CF050000 		.4byte	.LASF130
 2027 0900 03       		.byte	0x3
 2028 0901 FC       		.byte	0xfc
 2029 0902 C4080000 		.4byte	0x8c4
 2030 0906 00       		.byte	0
 2031 0907 0E       		.uleb128 0xe
 2032 0908 92040000 		.4byte	.LASF131
 2033 090c 03       		.byte	0x3
 2034 090d FD       		.byte	0xfd
 2035 090e AE080000 		.4byte	0x8ae
 2036 0912 04       		.byte	0x4
 2037 0913 0E       		.uleb128 0xe
 2038 0914 BD040000 		.4byte	.LASF132
 2039 0918 03       		.byte	0x3
 2040 0919 FE       		.byte	0xfe
 2041 091a 20090000 		.4byte	0x920
 2042 091e 08       		.byte	0x8
 2043 091f 00       		.byte	0
 2044 0920 06       		.uleb128 0x6
 2045 0921 04       		.byte	0x4
 2046 0922 AE080000 		.4byte	0x8ae
 2047 0926 03       		.uleb128 0x3
 2048 0927 A3000000 		.4byte	.LASF133
 2049 092b 03       		.byte	0x3
 2050 092c FF       		.byte	0xff
 2051 092d F3080000 		.4byte	0x8f3
 2052 0931 20       		.uleb128 0x20
 2053 0932 01030000 		.4byte	.LASF134
 2054 0936 0B       		.byte	0xb
 2055 0937 63       		.byte	0x63
 2056 0938 69050000 		.4byte	0x569
 2057 093c 0D       		.uleb128 0xd
 2058 093d 10       		.byte	0x10
 2059 093e 02       		.byte	0x2
 2060 093f 1D       		.byte	0x1d
 2061 0940 74090000 		.4byte	0x974
 2062 0944 0E       		.uleb128 0xe
 2063 0945 BD040000 		.4byte	.LASF132
 2064 0949 02       		.byte	0x2
 2065 094a 1E       		.byte	0x1e
 2066 094b 74090000 		.4byte	0x974
 2067 094f 00       		.byte	0
 2068 0950 10       		.uleb128 0x10
 2069 0951 737000   		.ascii	"sp\000"
 2070 0954 02       		.byte	0x2
 2071 0955 1F       		.byte	0x1f
 2072 0956 7A000000 		.4byte	0x7a
 2073 095a 04       		.byte	0x4
ARM GAS  /tmp/cclxi6yR.s 			page 38


 2074 095b 0E       		.uleb128 0xe
 2075 095c 92040000 		.4byte	.LASF131
 2076 0960 02       		.byte	0x2
 2077 0961 20       		.byte	0x20
 2078 0962 7A000000 		.4byte	0x7a
 2079 0966 08       		.byte	0x8
 2080 0967 0E       		.uleb128 0xe
 2081 0968 CD020000 		.4byte	.LASF135
 2082 096c 02       		.byte	0x2
 2083 096d 21       		.byte	0x21
 2084 096e 7A000000 		.4byte	0x7a
 2085 0972 0C       		.byte	0xc
 2086 0973 00       		.byte	0
 2087 0974 06       		.uleb128 0x6
 2088 0975 04       		.byte	0x4
 2089 0976 CF080000 		.4byte	0x8cf
 2090 097a 03       		.uleb128 0x3
 2091 097b AB040000 		.4byte	.LASF136
 2092 097f 02       		.byte	0x2
 2093 0980 22       		.byte	0x22
 2094 0981 3C090000 		.4byte	0x93c
 2095 0985 0B       		.uleb128 0xb
 2096 0986 B9080000 		.4byte	0x8b9
 2097 098a 95090000 		.4byte	0x995
 2098 098e 0C       		.uleb128 0xc
 2099 098f 7A000000 		.4byte	0x7a
 2100 0993 7F       		.byte	0x7f
 2101 0994 00       		.byte	0
 2102 0995 21       		.uleb128 0x21
 2103 0996 D7030000 		.4byte	.LASF138
 2104 099a 01       		.byte	0x1
 2105 099b 26       		.byte	0x26
 2106 099c 85090000 		.4byte	0x985
 2107 09a0 05       		.uleb128 0x5
 2108 09a1 03       		.byte	0x3
 2109 09a2 00000000 		.4byte	stack_storage
 2110 09a6 22       		.uleb128 0x22
 2111 09a7 7E000000 		.4byte	.LASF137
 2112 09ab 01       		.byte	0x1
 2113 09ac 28       		.byte	0x28
 2114 09ad 9F050000 		.4byte	0x59f
 2115 09b1 05       		.uleb128 0x5
 2116 09b2 03       		.byte	0x3
 2117 09b3 00000000 		.4byte	failed_str
 2118 09b7 23       		.uleb128 0x23
 2119 09b8 21060000 		.4byte	.LASF165
 2120 09bc 01       		.byte	0x1
 2121 09bd 2A       		.byte	0x2a
 2122 09be 73000000 		.4byte	0x73
 2123 09c2 00000000 		.4byte	.LFB45
 2124 09c6 AC030000 		.4byte	.LFE45-.LFB45
 2125 09ca 01       		.uleb128 0x1
 2126 09cb 9C       		.byte	0x9c
 2127 09cc 99100000 		.4byte	0x1099
 2128 09d0 24       		.uleb128 0x24
 2129 09d1 62756600 		.ascii	"buf\000"
 2130 09d5 01       		.byte	0x1
ARM GAS  /tmp/cclxi6yR.s 			page 39


 2131 09d6 2A       		.byte	0x2a
 2132 09d7 69050000 		.4byte	0x569
 2133 09db 00000000 		.4byte	.LLST0
 2134 09df 24       		.uleb128 0x24
 2135 09e0 6C656E00 		.ascii	"len\000"
 2136 09e4 01       		.byte	0x1
 2137 09e5 2A       		.byte	0x2a
 2138 09e6 7A000000 		.4byte	0x7a
 2139 09ea 1E000000 		.4byte	.LLST1
 2140 09ee 24       		.uleb128 0x24
 2141 09ef 7400     		.ascii	"t\000"
 2142 09f1 01       		.byte	0x1
 2143 09f2 2A       		.byte	0x2a
 2144 09f3 B9080000 		.4byte	0x8b9
 2145 09f7 3C000000 		.4byte	.LLST2
 2146 09fb 25       		.uleb128 0x25
 2147 09fc 7300     		.ascii	"s\000"
 2148 09fe 01       		.byte	0x1
 2149 09ff 2C       		.byte	0x2c
 2150 0a00 7A090000 		.4byte	0x97a
 2151 0a04 02       		.uleb128 0x2
 2152 0a05 91       		.byte	0x91
 2153 0a06 48       		.sleb128 -56
 2154 0a07 26       		.uleb128 0x26
 2155 0a08 7200     		.ascii	"r\000"
 2156 0a0a 01       		.byte	0x1
 2157 0a0b 2F       		.byte	0x2f
 2158 0a0c 73000000 		.4byte	0x73
 2159 0a10 68000000 		.4byte	.LLST3
 2160 0a14 26       		.uleb128 0x26
 2161 0a15 6E00     		.ascii	"n\000"
 2162 0a17 01       		.byte	0x1
 2163 0a18 30       		.byte	0x30
 2164 0a19 7A000000 		.4byte	0x7a
 2165 0a1d 0A010000 		.4byte	.LLST4
 2166 0a21 27       		.uleb128 0x27
 2167 0a22 B9020000 		.4byte	.LASF139
 2168 0a26 01       		.byte	0x1
 2169 0a27 31       		.byte	0x31
 2170 0a28 7A000000 		.4byte	0x7a
 2171 0a2c AC010000 		.4byte	.LLST5
 2172 0a30 27       		.uleb128 0x27
 2173 0a31 13000000 		.4byte	.LASF140
 2174 0a35 01       		.byte	0x1
 2175 0a36 32       		.byte	0x32
 2176 0a37 9F050000 		.4byte	0x59f
 2177 0a3b D6010000 		.4byte	.LLST6
 2178 0a3f 26       		.uleb128 0x26
 2179 0a40 72657300 		.ascii	"res\000"
 2180 0a44 01       		.byte	0x1
 2181 0a45 33       		.byte	0x33
 2182 0a46 73000000 		.4byte	0x73
 2183 0a4a F4010000 		.4byte	.LLST7
 2184 0a4e 28       		.uleb128 0x28
 2185 0a4f 18000000 		.4byte	.Ldebug_ranges0+0x18
 2186 0a53 EE0F0000 		.4byte	0xfee
 2187 0a57 21       		.uleb128 0x21
ARM GAS  /tmp/cclxi6yR.s 			page 40


 2188 0a58 03050000 		.4byte	.LASF141
 2189 0a5c 01       		.byte	0x1
 2190 0a5d 39       		.byte	0x39
 2191 0a5e B9080000 		.4byte	0x8b9
 2192 0a62 02       		.uleb128 0x2
 2193 0a63 91       		.byte	0x91
 2194 0a64 40       		.sleb128 -64
 2195 0a65 21       		.uleb128 0x21
 2196 0a66 DC000000 		.4byte	.LASF142
 2197 0a6a 01       		.byte	0x1
 2198 0a6b 3A       		.byte	0x3a
 2199 0a6c CF080000 		.4byte	0x8cf
 2200 0a70 02       		.uleb128 0x2
 2201 0a71 91       		.byte	0x91
 2202 0a72 44       		.sleb128 -60
 2203 0a73 28       		.uleb128 0x28
 2204 0a74 C0000000 		.4byte	.Ldebug_ranges0+0xc0
 2205 0a78 DF0B0000 		.4byte	0xbdf
 2206 0a7c 27       		.uleb128 0x27
 2207 0a7d 1C050000 		.4byte	.LASF143
 2208 0a81 01       		.byte	0x1
 2209 0a82 4C       		.byte	0x4c
 2210 0a83 B9080000 		.4byte	0x8b9
 2211 0a87 18030000 		.4byte	.LLST17
 2212 0a8b 27       		.uleb128 0x27
 2213 0a8c 56040000 		.4byte	.LASF144
 2214 0a90 01       		.byte	0x1
 2215 0a91 4D       		.byte	0x4d
 2216 0a92 B9080000 		.4byte	0x8b9
 2217 0a96 4C030000 		.4byte	.LLST18
 2218 0a9a 29       		.uleb128 0x29
 2219 0a9b 6A110000 		.4byte	0x116a
 2220 0a9f 26010000 		.4byte	.LBB96
 2221 0aa3 F0000000 		.4byte	.Ldebug_ranges0+0xf0
 2222 0aa7 01       		.byte	0x1
 2223 0aa8 4F       		.byte	0x4f
 2224 0aa9 B70A0000 		.4byte	0xab7
 2225 0aad 2A       		.uleb128 0x2a
 2226 0aae 7B110000 		.4byte	0x117b
 2227 0ab2 A3030000 		.4byte	.LLST19
 2228 0ab6 00       		.byte	0
 2229 0ab7 2B       		.uleb128 0x2b
 2230 0ab8 0E010000 		.4byte	.LVL42
 2231 0abc 86110000 		.4byte	0x1186
 2232 0ac0 D10A0000 		.4byte	0xad1
 2233 0ac4 2C       		.uleb128 0x2c
 2234 0ac5 01       		.uleb128 0x1
 2235 0ac6 50       		.byte	0x50
 2236 0ac7 02       		.uleb128 0x2
 2237 0ac8 91       		.byte	0x91
 2238 0ac9 48       		.sleb128 -56
 2239 0aca 2C       		.uleb128 0x2c
 2240 0acb 01       		.uleb128 0x1
 2241 0acc 51       		.byte	0x51
 2242 0acd 02       		.uleb128 0x2
 2243 0ace 91       		.byte	0x91
 2244 0acf 40       		.sleb128 -64
ARM GAS  /tmp/cclxi6yR.s 			page 41


 2245 0ad0 00       		.byte	0
 2246 0ad1 2B       		.uleb128 0x2b
 2247 0ad2 18010000 		.4byte	.LVL43
 2248 0ad6 91110000 		.4byte	0x1191
 2249 0ada FA0A0000 		.4byte	0xafa
 2250 0ade 2C       		.uleb128 0x2c
 2251 0adf 01       		.uleb128 0x1
 2252 0ae0 50       		.byte	0x50
 2253 0ae1 05       		.uleb128 0x5
 2254 0ae2 77       		.byte	0x77
 2255 0ae3 00       		.sleb128 0
 2256 0ae4 74       		.byte	0x74
 2257 0ae5 00       		.sleb128 0
 2258 0ae6 22       		.byte	0x22
 2259 0ae7 2C       		.uleb128 0x2c
 2260 0ae8 01       		.uleb128 0x1
 2261 0ae9 51       		.byte	0x51
 2262 0aea 05       		.uleb128 0x5
 2263 0aeb 75       		.byte	0x75
 2264 0aec 00       		.sleb128 0
 2265 0aed 74       		.byte	0x74
 2266 0aee 00       		.sleb128 0
 2267 0aef 1C       		.byte	0x1c
 2268 0af0 2C       		.uleb128 0x2c
 2269 0af1 01       		.uleb128 0x1
 2270 0af2 52       		.byte	0x52
 2271 0af3 05       		.uleb128 0x5
 2272 0af4 03       		.byte	0x3
 2273 0af5 00000000 		.4byte	.LC0
 2274 0af9 00       		.byte	0
 2275 0afa 2D       		.uleb128 0x2d
 2276 0afb 1E010000 		.4byte	.LVL44
 2277 0aff 9D110000 		.4byte	0x119d
 2278 0b03 2D       		.uleb128 0x2d
 2279 0b04 26010000 		.4byte	.LVL45
 2280 0b08 A9110000 		.4byte	0x11a9
 2281 0b0c 2B       		.uleb128 0x2b
 2282 0b0d 4C010000 		.4byte	.LVL49
 2283 0b11 B5110000 		.4byte	0x11b5
 2284 0b15 250B0000 		.4byte	0xb25
 2285 0b19 2C       		.uleb128 0x2c
 2286 0b1a 01       		.uleb128 0x1
 2287 0b1b 50       		.byte	0x50
 2288 0b1c 02       		.uleb128 0x2
 2289 0b1d 91       		.byte	0x91
 2290 0b1e 48       		.sleb128 -56
 2291 0b1f 2C       		.uleb128 0x2c
 2292 0b20 01       		.uleb128 0x1
 2293 0b21 51       		.byte	0x51
 2294 0b22 01       		.uleb128 0x1
 2295 0b23 35       		.byte	0x35
 2296 0b24 00       		.byte	0
 2297 0b25 2B       		.uleb128 0x2b
 2298 0b26 58010000 		.4byte	.LVL52
 2299 0b2a B5110000 		.4byte	0x11b5
 2300 0b2e 410B0000 		.4byte	0xb41
 2301 0b32 2C       		.uleb128 0x2c
ARM GAS  /tmp/cclxi6yR.s 			page 42


 2302 0b33 01       		.uleb128 0x1
 2303 0b34 50       		.byte	0x50
 2304 0b35 02       		.uleb128 0x2
 2305 0b36 91       		.byte	0x91
 2306 0b37 48       		.sleb128 -56
 2307 0b38 2C       		.uleb128 0x2c
 2308 0b39 01       		.uleb128 0x1
 2309 0b3a 51       		.byte	0x51
 2310 0b3b 04       		.uleb128 0x4
 2311 0b3c 91       		.byte	0x91
 2312 0b3d BC7F     		.sleb128 -68
 2313 0b3f 06       		.byte	0x6
 2314 0b40 00       		.byte	0
 2315 0b41 2B       		.uleb128 0x2b
 2316 0b42 64010000 		.4byte	.LVL56
 2317 0b46 B5110000 		.4byte	0x11b5
 2318 0b4a 5A0B0000 		.4byte	0xb5a
 2319 0b4e 2C       		.uleb128 0x2c
 2320 0b4f 01       		.uleb128 0x1
 2321 0b50 50       		.byte	0x50
 2322 0b51 02       		.uleb128 0x2
 2323 0b52 91       		.byte	0x91
 2324 0b53 48       		.sleb128 -56
 2325 0b54 2C       		.uleb128 0x2c
 2326 0b55 01       		.uleb128 0x1
 2327 0b56 51       		.byte	0x51
 2328 0b57 01       		.uleb128 0x1
 2329 0b58 31       		.byte	0x31
 2330 0b59 00       		.byte	0
 2331 0b5a 2B       		.uleb128 0x2b
 2332 0b5b 6E010000 		.4byte	.LVL59
 2333 0b5f B5110000 		.4byte	0x11b5
 2334 0b63 730B0000 		.4byte	0xb73
 2335 0b67 2C       		.uleb128 0x2c
 2336 0b68 01       		.uleb128 0x1
 2337 0b69 50       		.byte	0x50
 2338 0b6a 02       		.uleb128 0x2
 2339 0b6b 91       		.byte	0x91
 2340 0b6c 48       		.sleb128 -56
 2341 0b6d 2C       		.uleb128 0x2c
 2342 0b6e 01       		.uleb128 0x1
 2343 0b6f 51       		.byte	0x51
 2344 0b70 01       		.uleb128 0x1
 2345 0b71 36       		.byte	0x36
 2346 0b72 00       		.byte	0
 2347 0b73 2B       		.uleb128 0x2b
 2348 0b74 78010000 		.4byte	.LVL62
 2349 0b78 B5110000 		.4byte	0x11b5
 2350 0b7c 8D0B0000 		.4byte	0xb8d
 2351 0b80 2C       		.uleb128 0x2c
 2352 0b81 01       		.uleb128 0x1
 2353 0b82 50       		.byte	0x50
 2354 0b83 02       		.uleb128 0x2
 2355 0b84 91       		.byte	0x91
 2356 0b85 48       		.sleb128 -56
 2357 0b86 2C       		.uleb128 0x2c
 2358 0b87 01       		.uleb128 0x1
ARM GAS  /tmp/cclxi6yR.s 			page 43


 2359 0b88 51       		.byte	0x51
 2360 0b89 02       		.uleb128 0x2
 2361 0b8a 7B       		.byte	0x7b
 2362 0b8b 00       		.sleb128 0
 2363 0b8c 00       		.byte	0
 2364 0b8d 2B       		.uleb128 0x2b
 2365 0b8e 82010000 		.4byte	.LVL65
 2366 0b92 B5110000 		.4byte	0x11b5
 2367 0b96 A60B0000 		.4byte	0xba6
 2368 0b9a 2C       		.uleb128 0x2c
 2369 0b9b 01       		.uleb128 0x1
 2370 0b9c 50       		.byte	0x50
 2371 0b9d 02       		.uleb128 0x2
 2372 0b9e 91       		.byte	0x91
 2373 0b9f 48       		.sleb128 -56
 2374 0ba0 2C       		.uleb128 0x2c
 2375 0ba1 01       		.uleb128 0x1
 2376 0ba2 51       		.byte	0x51
 2377 0ba3 01       		.uleb128 0x1
 2378 0ba4 31       		.byte	0x31
 2379 0ba5 00       		.byte	0
 2380 0ba6 2B       		.uleb128 0x2b
 2381 0ba7 E8010000 		.4byte	.LVL79
 2382 0bab 91110000 		.4byte	0x1191
 2383 0baf C90B0000 		.4byte	0xbc9
 2384 0bb3 2C       		.uleb128 0x2c
 2385 0bb4 01       		.uleb128 0x1
 2386 0bb5 50       		.byte	0x50
 2387 0bb6 02       		.uleb128 0x2
 2388 0bb7 77       		.byte	0x77
 2389 0bb8 00       		.sleb128 0
 2390 0bb9 2C       		.uleb128 0x2c
 2391 0bba 01       		.uleb128 0x1
 2392 0bbb 51       		.byte	0x51
 2393 0bbc 02       		.uleb128 0x2
 2394 0bbd 75       		.byte	0x75
 2395 0bbe 00       		.sleb128 0
 2396 0bbf 2C       		.uleb128 0x2c
 2397 0bc0 01       		.uleb128 0x1
 2398 0bc1 52       		.byte	0x52
 2399 0bc2 05       		.uleb128 0x5
 2400 0bc3 03       		.byte	0x3
 2401 0bc4 04000000 		.4byte	.LC1
 2402 0bc8 00       		.byte	0
 2403 0bc9 2E       		.uleb128 0x2e
 2404 0bca AA020000 		.4byte	.LVL112
 2405 0bce B5110000 		.4byte	0x11b5
 2406 0bd2 2C       		.uleb128 0x2c
 2407 0bd3 01       		.uleb128 0x1
 2408 0bd4 50       		.byte	0x50
 2409 0bd5 02       		.uleb128 0x2
 2410 0bd6 91       		.byte	0x91
 2411 0bd7 48       		.sleb128 -56
 2412 0bd8 2C       		.uleb128 0x2c
 2413 0bd9 01       		.uleb128 0x1
 2414 0bda 51       		.byte	0x51
 2415 0bdb 01       		.uleb128 0x1
ARM GAS  /tmp/cclxi6yR.s 			page 44


 2416 0bdc 35       		.byte	0x35
 2417 0bdd 00       		.byte	0
 2418 0bde 00       		.byte	0
 2419 0bdf 28       		.uleb128 0x28
 2420 0be0 78000000 		.4byte	.Ldebug_ranges0+0x78
 2421 0be4 EB0C0000 		.4byte	0xceb
 2422 0be8 27       		.uleb128 0x27
 2423 0be9 1C050000 		.4byte	.LASF143
 2424 0bed 01       		.byte	0x1
 2425 0bee 6F       		.byte	0x6f
 2426 0bef B9080000 		.4byte	0x8b9
 2427 0bf3 C1030000 		.4byte	.LLST14
 2428 0bf7 27       		.uleb128 0x27
 2429 0bf8 56040000 		.4byte	.LASF144
 2430 0bfc 01       		.byte	0x1
 2431 0bfd 70       		.byte	0x70
 2432 0bfe B9080000 		.4byte	0x8b9
 2433 0c02 F5030000 		.4byte	.LLST15
 2434 0c06 2F       		.uleb128 0x2f
 2435 0c07 6A110000 		.4byte	0x116a
 2436 0c0b A2000000 		.4byte	.LBB87
 2437 0c0f 0C000000 		.4byte	.LBE87-.LBB87
 2438 0c13 01       		.byte	0x1
 2439 0c14 6A       		.byte	0x6a
 2440 0c15 1F0C0000 		.4byte	0xc1f
 2441 0c19 30       		.uleb128 0x30
 2442 0c1a 7B110000 		.4byte	0x117b
 2443 0c1e 00       		.byte	0
 2444 0c1f 29       		.uleb128 0x29
 2445 0c20 6A110000 		.4byte	0x116a
 2446 0c24 CC000000 		.4byte	.LBB89
 2447 0c28 A0000000 		.4byte	.Ldebug_ranges0+0xa0
 2448 0c2c 01       		.byte	0x1
 2449 0c2d 7B       		.byte	0x7b
 2450 0c2e 3C0C0000 		.4byte	0xc3c
 2451 0c32 2A       		.uleb128 0x2a
 2452 0c33 7B110000 		.4byte	0x117b
 2453 0c37 29040000 		.4byte	.LLST16
 2454 0c3b 00       		.byte	0
 2455 0c3c 2B       		.uleb128 0x2b
 2456 0c3d A0000000 		.4byte	.LVL23
 2457 0c41 86110000 		.4byte	0x1186
 2458 0c45 560C0000 		.4byte	0xc56
 2459 0c49 2C       		.uleb128 0x2c
 2460 0c4a 01       		.uleb128 0x1
 2461 0c4b 50       		.byte	0x50
 2462 0c4c 02       		.uleb128 0x2
 2463 0c4d 91       		.byte	0x91
 2464 0c4e 48       		.sleb128 -56
 2465 0c4f 2C       		.uleb128 0x2c
 2466 0c50 01       		.uleb128 0x1
 2467 0c51 51       		.byte	0x51
 2468 0c52 02       		.uleb128 0x2
 2469 0c53 91       		.byte	0x91
 2470 0c54 40       		.sleb128 -64
 2471 0c55 00       		.byte	0
 2472 0c56 2D       		.uleb128 0x2d
ARM GAS  /tmp/cclxi6yR.s 			page 45


 2473 0c57 B8000000 		.4byte	.LVL25
 2474 0c5b 9D110000 		.4byte	0x119d
 2475 0c5f 2D       		.uleb128 0x2d
 2476 0c60 C0000000 		.4byte	.LVL28
 2477 0c64 A9110000 		.4byte	0x11a9
 2478 0c68 2B       		.uleb128 0x2b
 2479 0c69 CC000000 		.4byte	.LVL31
 2480 0c6d 91110000 		.4byte	0x1191
 2481 0c71 910C0000 		.4byte	0xc91
 2482 0c75 2C       		.uleb128 0x2c
 2483 0c76 01       		.uleb128 0x1
 2484 0c77 50       		.byte	0x50
 2485 0c78 05       		.uleb128 0x5
 2486 0c79 77       		.byte	0x77
 2487 0c7a 00       		.sleb128 0
 2488 0c7b 74       		.byte	0x74
 2489 0c7c 00       		.sleb128 0
 2490 0c7d 22       		.byte	0x22
 2491 0c7e 2C       		.uleb128 0x2c
 2492 0c7f 01       		.uleb128 0x1
 2493 0c80 51       		.byte	0x51
 2494 0c81 05       		.uleb128 0x5
 2495 0c82 75       		.byte	0x75
 2496 0c83 00       		.sleb128 0
 2497 0c84 74       		.byte	0x74
 2498 0c85 00       		.sleb128 0
 2499 0c86 1C       		.byte	0x1c
 2500 0c87 2C       		.uleb128 0x2c
 2501 0c88 01       		.uleb128 0x1
 2502 0c89 52       		.byte	0x52
 2503 0c8a 05       		.uleb128 0x5
 2504 0c8b 03       		.byte	0x3
 2505 0c8c 20000000 		.4byte	.LC2
 2506 0c90 00       		.byte	0
 2507 0c91 2D       		.uleb128 0x2d
 2508 0c92 F2000000 		.4byte	.LVL35
 2509 0c96 B5110000 		.4byte	0x11b5
 2510 0c9a 2B       		.uleb128 0x2b
 2511 0c9b FC000000 		.4byte	.LVL38
 2512 0c9f B5110000 		.4byte	0x11b5
 2513 0ca3 B40C0000 		.4byte	0xcb4
 2514 0ca7 2C       		.uleb128 0x2c
 2515 0ca8 01       		.uleb128 0x1
 2516 0ca9 50       		.byte	0x50
 2517 0caa 02       		.uleb128 0x2
 2518 0cab 91       		.byte	0x91
 2519 0cac 48       		.sleb128 -56
 2520 0cad 2C       		.uleb128 0x2c
 2521 0cae 01       		.uleb128 0x1
 2522 0caf 51       		.byte	0x51
 2523 0cb0 02       		.uleb128 0x2
 2524 0cb1 76       		.byte	0x76
 2525 0cb2 00       		.sleb128 0
 2526 0cb3 00       		.byte	0
 2527 0cb4 2B       		.uleb128 0x2b
 2528 0cb5 3A020000 		.4byte	.LVL91
 2529 0cb9 B5110000 		.4byte	0x11b5
ARM GAS  /tmp/cclxi6yR.s 			page 46


 2530 0cbd C80C0000 		.4byte	0xcc8
 2531 0cc1 2C       		.uleb128 0x2c
 2532 0cc2 01       		.uleb128 0x1
 2533 0cc3 50       		.byte	0x50
 2534 0cc4 02       		.uleb128 0x2
 2535 0cc5 91       		.byte	0x91
 2536 0cc6 48       		.sleb128 -56
 2537 0cc7 00       		.byte	0
 2538 0cc8 2B       		.uleb128 0x2b
 2539 0cc9 44020000 		.4byte	.LVL94
 2540 0ccd B5110000 		.4byte	0x11b5
 2541 0cd1 E10C0000 		.4byte	0xce1
 2542 0cd5 2C       		.uleb128 0x2c
 2543 0cd6 01       		.uleb128 0x1
 2544 0cd7 50       		.byte	0x50
 2545 0cd8 02       		.uleb128 0x2
 2546 0cd9 91       		.byte	0x91
 2547 0cda 48       		.sleb128 -56
 2548 0cdb 2C       		.uleb128 0x2c
 2549 0cdc 01       		.uleb128 0x1
 2550 0cdd 51       		.byte	0x51
 2551 0cde 01       		.uleb128 0x1
 2552 0cdf 34       		.byte	0x34
 2553 0ce0 00       		.byte	0
 2554 0ce1 2D       		.uleb128 0x2d
 2555 0ce2 9C020000 		.4byte	.LVL108
 2556 0ce6 B5110000 		.4byte	0x11b5
 2557 0cea 00       		.byte	0
 2558 0ceb 31       		.uleb128 0x31
 2559 0cec 58020000 		.4byte	.LBB109
 2560 0cf0 20000000 		.4byte	.LBE109-.LBB109
 2561 0cf4 3B0D0000 		.4byte	0xd3b
 2562 0cf8 26       		.uleb128 0x26
 2563 0cf9 757600   		.ascii	"uv\000"
 2564 0cfc 01       		.byte	0x1
 2565 0cfd CD       		.byte	0xcd
 2566 0cfe B9080000 		.4byte	0x8b9
 2567 0d02 47040000 		.4byte	.LLST21
 2568 0d06 32       		.uleb128 0x32
 2569 0d07 7600     		.ascii	"v\000"
 2570 0d09 01       		.byte	0x1
 2571 0d0a CE       		.byte	0xce
 2572 0d0b E5080000 		.4byte	0x8e5
 2573 0d0f 2D       		.uleb128 0x2d
 2574 0d10 5C020000 		.4byte	.LVL98
 2575 0d14 9D110000 		.4byte	0x119d
 2576 0d18 2E       		.uleb128 0x2e
 2577 0d19 72020000 		.4byte	.LVL100
 2578 0d1d 91110000 		.4byte	0x1191
 2579 0d21 2C       		.uleb128 0x2c
 2580 0d22 01       		.uleb128 0x1
 2581 0d23 50       		.byte	0x50
 2582 0d24 05       		.uleb128 0x5
 2583 0d25 77       		.byte	0x77
 2584 0d26 00       		.sleb128 0
 2585 0d27 74       		.byte	0x74
 2586 0d28 00       		.sleb128 0
ARM GAS  /tmp/cclxi6yR.s 			page 47


 2587 0d29 22       		.byte	0x22
 2588 0d2a 2C       		.uleb128 0x2c
 2589 0d2b 01       		.uleb128 0x1
 2590 0d2c 51       		.byte	0x51
 2591 0d2d 02       		.uleb128 0x2
 2592 0d2e 76       		.byte	0x76
 2593 0d2f 00       		.sleb128 0
 2594 0d30 2C       		.uleb128 0x2c
 2595 0d31 01       		.uleb128 0x1
 2596 0d32 52       		.byte	0x52
 2597 0d33 05       		.uleb128 0x5
 2598 0d34 03       		.byte	0x3
 2599 0d35 34000000 		.4byte	.LC6
 2600 0d39 00       		.byte	0
 2601 0d3a 00       		.byte	0
 2602 0d3b 28       		.uleb128 0x28
 2603 0d3c 40000000 		.4byte	.Ldebug_ranges0+0x40
 2604 0d40 5B0D0000 		.4byte	0xd5b
 2605 0d44 26       		.uleb128 0x26
 2606 0d45 7600     		.ascii	"v\000"
 2607 0d47 01       		.byte	0x1
 2608 0d48 DC       		.byte	0xdc
 2609 0d49 B9080000 		.4byte	0x8b9
 2610 0d4d 5A040000 		.4byte	.LLST12
 2611 0d51 2D       		.uleb128 0x2d
 2612 0d52 CA020000 		.4byte	.LVL119
 2613 0d56 9D110000 		.4byte	0x119d
 2614 0d5a 00       		.byte	0
 2615 0d5b 31       		.uleb128 0x31
 2616 0d5c DE020000 		.4byte	.LBB113
 2617 0d60 4A000000 		.4byte	.LBE113-.LBB113
 2618 0d64 7F0D0000 		.4byte	0xd7f
 2619 0d68 26       		.uleb128 0x26
 2620 0d69 7600     		.ascii	"v\000"
 2621 0d6b 01       		.byte	0x1
 2622 0d6c E9       		.byte	0xe9
 2623 0d6d A3080000 		.4byte	0x8a3
 2624 0d71 6D040000 		.4byte	.LLST22
 2625 0d75 2D       		.uleb128 0x2d
 2626 0d76 E2020000 		.4byte	.LVL122
 2627 0d7a 9D110000 		.4byte	0x119d
 2628 0d7e 00       		.byte	0
 2629 0d7f 28       		.uleb128 0x28
 2630 0d80 58000000 		.4byte	.Ldebug_ranges0+0x58
 2631 0d84 C00D0000 		.4byte	0xdc0
 2632 0d88 27       		.uleb128 0x27
 2633 0d89 79030000 		.4byte	.LASF145
 2634 0d8d 01       		.byte	0x1
 2635 0d8e F6       		.byte	0xf6
 2636 0d8f 99100000 		.4byte	0x1099
 2637 0d93 80040000 		.4byte	.LLST13
 2638 0d97 2D       		.uleb128 0x2d
 2639 0d98 2C030000 		.4byte	.LVL124
 2640 0d9c 9D110000 		.4byte	0x119d
 2641 0da0 2E       		.uleb128 0x2e
 2642 0da1 80030000 		.4byte	.LVL136
 2643 0da5 91110000 		.4byte	0x1191
ARM GAS  /tmp/cclxi6yR.s 			page 48


 2644 0da9 2C       		.uleb128 0x2c
 2645 0daa 01       		.uleb128 0x1
 2646 0dab 50       		.byte	0x50
 2647 0dac 02       		.uleb128 0x2
 2648 0dad 77       		.byte	0x77
 2649 0dae 00       		.sleb128 0
 2650 0daf 2C       		.uleb128 0x2c
 2651 0db0 01       		.uleb128 0x1
 2652 0db1 51       		.byte	0x51
 2653 0db2 02       		.uleb128 0x2
 2654 0db3 75       		.byte	0x75
 2655 0db4 00       		.sleb128 0
 2656 0db5 2C       		.uleb128 0x2c
 2657 0db6 01       		.uleb128 0x1
 2658 0db7 52       		.byte	0x52
 2659 0db8 05       		.uleb128 0x5
 2660 0db9 03       		.byte	0x3
 2661 0dba 58000000 		.4byte	.LC11
 2662 0dbe 00       		.byte	0
 2663 0dbf 00       		.byte	0
 2664 0dc0 2F       		.uleb128 0x2f
 2665 0dc1 6A110000 		.4byte	0x116a
 2666 0dc5 98010000 		.4byte	.LBB102
 2667 0dc9 0C000000 		.4byte	.LBE102-.LBB102
 2668 0dcd 01       		.byte	0x1
 2669 0dce B4       		.byte	0xb4
 2670 0dcf DD0D0000 		.4byte	0xddd
 2671 0dd3 2A       		.uleb128 0x2a
 2672 0dd4 7B110000 		.4byte	0x117b
 2673 0dd8 9E040000 		.4byte	.LLST20
 2674 0ddc 00       		.byte	0
 2675 0ddd 33       		.uleb128 0x33
 2676 0dde FA100000 		.4byte	0x10fa
 2677 0de2 82030000 		.4byte	.LBB116
 2678 0de6 02000000 		.4byte	.LBE116-.LBB116
 2679 0dea 01       		.byte	0x1
 2680 0deb 1901     		.2byte	0x119
 2681 0ded F70D0000 		.4byte	0xdf7
 2682 0df1 30       		.uleb128 0x30
 2683 0df2 0B110000 		.4byte	0x110b
 2684 0df6 00       		.byte	0
 2685 0df7 2B       		.uleb128 0x2b
 2686 0df8 42000000 		.4byte	.LVL12
 2687 0dfc 86110000 		.4byte	0x1186
 2688 0e00 110E0000 		.4byte	0xe11
 2689 0e04 2C       		.uleb128 0x2c
 2690 0e05 01       		.uleb128 0x1
 2691 0e06 50       		.byte	0x50
 2692 0e07 02       		.uleb128 0x2
 2693 0e08 91       		.byte	0x91
 2694 0e09 48       		.sleb128 -56
 2695 0e0a 2C       		.uleb128 0x2c
 2696 0e0b 01       		.uleb128 0x1
 2697 0e0c 51       		.byte	0x51
 2698 0e0d 02       		.uleb128 0x2
 2699 0e0e 91       		.byte	0x91
 2700 0e0f 44       		.sleb128 -60
ARM GAS  /tmp/cclxi6yR.s 			page 49


 2701 0e10 00       		.byte	0
 2702 0e11 2B       		.uleb128 0x2b
 2703 0e12 60000000 		.4byte	.LVL13
 2704 0e16 91110000 		.4byte	0x1191
 2705 0e1a 3A0E0000 		.4byte	0xe3a
 2706 0e1e 2C       		.uleb128 0x2c
 2707 0e1f 01       		.uleb128 0x1
 2708 0e20 50       		.byte	0x50
 2709 0e21 05       		.uleb128 0x5
 2710 0e22 77       		.byte	0x77
 2711 0e23 00       		.sleb128 0
 2712 0e24 74       		.byte	0x74
 2713 0e25 00       		.sleb128 0
 2714 0e26 22       		.byte	0x22
 2715 0e27 2C       		.uleb128 0x2c
 2716 0e28 01       		.uleb128 0x1
 2717 0e29 51       		.byte	0x51
 2718 0e2a 05       		.uleb128 0x5
 2719 0e2b 75       		.byte	0x75
 2720 0e2c 00       		.sleb128 0
 2721 0e2d 74       		.byte	0x74
 2722 0e2e 00       		.sleb128 0
 2723 0e2f 1C       		.byte	0x1c
 2724 0e30 2C       		.uleb128 0x2c
 2725 0e31 01       		.uleb128 0x1
 2726 0e32 52       		.byte	0x52
 2727 0e33 05       		.uleb128 0x5
 2728 0e34 03       		.byte	0x3
 2729 0e35 28000000 		.4byte	.LC4
 2730 0e39 00       		.byte	0
 2731 0e3a 2B       		.uleb128 0x2b
 2732 0e3b 92000000 		.4byte	.LVL19
 2733 0e3f 91110000 		.4byte	0x1191
 2734 0e43 5A0E0000 		.4byte	0xe5a
 2735 0e47 2C       		.uleb128 0x2c
 2736 0e48 01       		.uleb128 0x1
 2737 0e49 50       		.byte	0x50
 2738 0e4a 05       		.uleb128 0x5
 2739 0e4b 77       		.byte	0x77
 2740 0e4c 00       		.sleb128 0
 2741 0e4d 74       		.byte	0x74
 2742 0e4e 00       		.sleb128 0
 2743 0e4f 22       		.byte	0x22
 2744 0e50 2C       		.uleb128 0x2c
 2745 0e51 01       		.uleb128 0x1
 2746 0e52 51       		.byte	0x51
 2747 0e53 05       		.uleb128 0x5
 2748 0e54 75       		.byte	0x75
 2749 0e55 00       		.sleb128 0
 2750 0e56 74       		.byte	0x74
 2751 0e57 00       		.sleb128 0
 2752 0e58 1C       		.byte	0x1c
 2753 0e59 00       		.byte	0
 2754 0e5a 2B       		.uleb128 0x2b
 2755 0e5b 96010000 		.4byte	.LVL69
 2756 0e5f 86110000 		.4byte	0x1186
 2757 0e63 740E0000 		.4byte	0xe74
ARM GAS  /tmp/cclxi6yR.s 			page 50


 2758 0e67 2C       		.uleb128 0x2c
 2759 0e68 01       		.uleb128 0x1
 2760 0e69 50       		.byte	0x50
 2761 0e6a 02       		.uleb128 0x2
 2762 0e6b 91       		.byte	0x91
 2763 0e6c 48       		.sleb128 -56
 2764 0e6d 2C       		.uleb128 0x2c
 2765 0e6e 01       		.uleb128 0x1
 2766 0e6f 51       		.byte	0x51
 2767 0e70 02       		.uleb128 0x2
 2768 0e71 91       		.byte	0x91
 2769 0e72 40       		.sleb128 -64
 2770 0e73 00       		.byte	0
 2771 0e74 2B       		.uleb128 0x2b
 2772 0e75 CA010000 		.4byte	.LVL74
 2773 0e79 B5110000 		.4byte	0x11b5
 2774 0e7d 880E0000 		.4byte	0xe88
 2775 0e81 2C       		.uleb128 0x2c
 2776 0e82 01       		.uleb128 0x1
 2777 0e83 50       		.byte	0x50
 2778 0e84 02       		.uleb128 0x2
 2779 0e85 91       		.byte	0x91
 2780 0e86 48       		.sleb128 -56
 2781 0e87 00       		.byte	0
 2782 0e88 2B       		.uleb128 0x2b
 2783 0e89 D4010000 		.4byte	.LVL77
 2784 0e8d B5110000 		.4byte	0x11b5
 2785 0e91 A10E0000 		.4byte	0xea1
 2786 0e95 2C       		.uleb128 0x2c
 2787 0e96 01       		.uleb128 0x1
 2788 0e97 50       		.byte	0x50
 2789 0e98 02       		.uleb128 0x2
 2790 0e99 91       		.byte	0x91
 2791 0e9a 48       		.sleb128 -56
 2792 0e9b 2C       		.uleb128 0x2c
 2793 0e9c 01       		.uleb128 0x1
 2794 0e9d 51       		.byte	0x51
 2795 0e9e 01       		.uleb128 0x1
 2796 0e9f 33       		.byte	0x33
 2797 0ea0 00       		.byte	0
 2798 0ea1 2B       		.uleb128 0x2b
 2799 0ea2 F4010000 		.4byte	.LVL80
 2800 0ea6 91110000 		.4byte	0x1191
 2801 0eaa C40E0000 		.4byte	0xec4
 2802 0eae 2C       		.uleb128 0x2c
 2803 0eaf 01       		.uleb128 0x1
 2804 0eb0 50       		.byte	0x50
 2805 0eb1 02       		.uleb128 0x2
 2806 0eb2 77       		.byte	0x77
 2807 0eb3 00       		.sleb128 0
 2808 0eb4 2C       		.uleb128 0x2c
 2809 0eb5 01       		.uleb128 0x1
 2810 0eb6 51       		.byte	0x51
 2811 0eb7 02       		.uleb128 0x2
 2812 0eb8 75       		.byte	0x75
 2813 0eb9 00       		.sleb128 0
 2814 0eba 2C       		.uleb128 0x2c
ARM GAS  /tmp/cclxi6yR.s 			page 51


 2815 0ebb 01       		.uleb128 0x1
 2816 0ebc 52       		.byte	0x52
 2817 0ebd 05       		.uleb128 0x5
 2818 0ebe 03       		.byte	0x3
 2819 0ebf EC000000 		.4byte	.LC18
 2820 0ec3 00       		.byte	0
 2821 0ec4 2B       		.uleb128 0x2b
 2822 0ec5 26020000 		.4byte	.LVL84
 2823 0ec9 91110000 		.4byte	0x1191
 2824 0ecd ED0E0000 		.4byte	0xeed
 2825 0ed1 2C       		.uleb128 0x2c
 2826 0ed2 01       		.uleb128 0x1
 2827 0ed3 50       		.byte	0x50
 2828 0ed4 05       		.uleb128 0x5
 2829 0ed5 77       		.byte	0x77
 2830 0ed6 00       		.sleb128 0
 2831 0ed7 74       		.byte	0x74
 2832 0ed8 00       		.sleb128 0
 2833 0ed9 22       		.byte	0x22
 2834 0eda 2C       		.uleb128 0x2c
 2835 0edb 01       		.uleb128 0x1
 2836 0edc 51       		.byte	0x51
 2837 0edd 05       		.uleb128 0x5
 2838 0ede 75       		.byte	0x75
 2839 0edf 00       		.sleb128 0
 2840 0ee0 74       		.byte	0x74
 2841 0ee1 00       		.sleb128 0
 2842 0ee2 1C       		.byte	0x1c
 2843 0ee3 2C       		.uleb128 0x2c
 2844 0ee4 01       		.uleb128 0x1
 2845 0ee5 52       		.byte	0x52
 2846 0ee6 05       		.uleb128 0x5
 2847 0ee7 03       		.byte	0x3
 2848 0ee8 7C000000 		.4byte	.LC12
 2849 0eec 00       		.byte	0
 2850 0eed 2B       		.uleb128 0x2b
 2851 0eee 8E020000 		.4byte	.LVL104
 2852 0ef2 91110000 		.4byte	0x1191
 2853 0ef6 160F0000 		.4byte	0xf16
 2854 0efa 2C       		.uleb128 0x2c
 2855 0efb 01       		.uleb128 0x1
 2856 0efc 50       		.byte	0x50
 2857 0efd 05       		.uleb128 0x5
 2858 0efe 77       		.byte	0x77
 2859 0eff 00       		.sleb128 0
 2860 0f00 74       		.byte	0x74
 2861 0f01 00       		.sleb128 0
 2862 0f02 22       		.byte	0x22
 2863 0f03 2C       		.uleb128 0x2c
 2864 0f04 01       		.uleb128 0x1
 2865 0f05 51       		.byte	0x51
 2866 0f06 05       		.uleb128 0x5
 2867 0f07 75       		.byte	0x75
 2868 0f08 00       		.sleb128 0
 2869 0f09 74       		.byte	0x74
 2870 0f0a 00       		.sleb128 0
 2871 0f0b 1C       		.byte	0x1c
ARM GAS  /tmp/cclxi6yR.s 			page 52


 2872 0f0c 2C       		.uleb128 0x2c
 2873 0f0d 01       		.uleb128 0x1
 2874 0f0e 52       		.byte	0x52
 2875 0f0f 05       		.uleb128 0x5
 2876 0f10 03       		.byte	0x3
 2877 0f11 B0000000 		.4byte	.LC16
 2878 0f15 00       		.byte	0
 2879 0f16 2B       		.uleb128 0x2b
 2880 0f17 C0020000 		.4byte	.LVL115
 2881 0f1b 91110000 		.4byte	0x1191
 2882 0f1f 360F0000 		.4byte	0xf36
 2883 0f23 2C       		.uleb128 0x2c
 2884 0f24 01       		.uleb128 0x1
 2885 0f25 50       		.byte	0x50
 2886 0f26 05       		.uleb128 0x5
 2887 0f27 77       		.byte	0x77
 2888 0f28 00       		.sleb128 0
 2889 0f29 74       		.byte	0x74
 2890 0f2a 00       		.sleb128 0
 2891 0f2b 22       		.byte	0x22
 2892 0f2c 2C       		.uleb128 0x2c
 2893 0f2d 01       		.uleb128 0x1
 2894 0f2e 51       		.byte	0x51
 2895 0f2f 05       		.uleb128 0x5
 2896 0f30 75       		.byte	0x75
 2897 0f31 00       		.sleb128 0
 2898 0f32 74       		.byte	0x74
 2899 0f33 00       		.sleb128 0
 2900 0f34 1C       		.byte	0x1c
 2901 0f35 00       		.byte	0
 2902 0f36 2B       		.uleb128 0x2b
 2903 0f37 DC020000 		.4byte	.LVL121
 2904 0f3b 91110000 		.4byte	0x1191
 2905 0f3f 590F0000 		.4byte	0xf59
 2906 0f43 2C       		.uleb128 0x2c
 2907 0f44 01       		.uleb128 0x1
 2908 0f45 50       		.byte	0x50
 2909 0f46 02       		.uleb128 0x2
 2910 0f47 77       		.byte	0x77
 2911 0f48 00       		.sleb128 0
 2912 0f49 2C       		.uleb128 0x2c
 2913 0f4a 01       		.uleb128 0x1
 2914 0f4b 51       		.byte	0x51
 2915 0f4c 02       		.uleb128 0x2
 2916 0f4d 75       		.byte	0x75
 2917 0f4e 00       		.sleb128 0
 2918 0f4f 2C       		.uleb128 0x2c
 2919 0f50 01       		.uleb128 0x1
 2920 0f51 52       		.byte	0x52
 2921 0f52 05       		.uleb128 0x5
 2922 0f53 03       		.byte	0x3
 2923 0f54 B8000000 		.4byte	.LC17
 2924 0f58 00       		.byte	0
 2925 0f59 2B       		.uleb128 0x2b
 2926 0f5a 3E030000 		.4byte	.LVL126
 2927 0f5e 91110000 		.4byte	0x1191
 2928 0f62 790F0000 		.4byte	0xf79
ARM GAS  /tmp/cclxi6yR.s 			page 53


 2929 0f66 2C       		.uleb128 0x2c
 2930 0f67 01       		.uleb128 0x1
 2931 0f68 50       		.byte	0x50
 2932 0f69 05       		.uleb128 0x5
 2933 0f6a 77       		.byte	0x77
 2934 0f6b 00       		.sleb128 0
 2935 0f6c 74       		.byte	0x74
 2936 0f6d 00       		.sleb128 0
 2937 0f6e 22       		.byte	0x22
 2938 0f6f 2C       		.uleb128 0x2c
 2939 0f70 01       		.uleb128 0x1
 2940 0f71 51       		.byte	0x51
 2941 0f72 05       		.uleb128 0x5
 2942 0f73 75       		.byte	0x75
 2943 0f74 00       		.sleb128 0
 2944 0f75 74       		.byte	0x74
 2945 0f76 00       		.sleb128 0
 2946 0f77 1C       		.byte	0x1c
 2947 0f78 00       		.byte	0
 2948 0f79 2B       		.uleb128 0x2b
 2949 0f7a 50030000 		.4byte	.LVL128
 2950 0f7e 91110000 		.4byte	0x1191
 2951 0f82 9C0F0000 		.4byte	0xf9c
 2952 0f86 2C       		.uleb128 0x2c
 2953 0f87 01       		.uleb128 0x1
 2954 0f88 50       		.byte	0x50
 2955 0f89 02       		.uleb128 0x2
 2956 0f8a 77       		.byte	0x77
 2957 0f8b 00       		.sleb128 0
 2958 0f8c 2C       		.uleb128 0x2c
 2959 0f8d 01       		.uleb128 0x1
 2960 0f8e 51       		.byte	0x51
 2961 0f8f 02       		.uleb128 0x2
 2962 0f90 75       		.byte	0x75
 2963 0f91 00       		.sleb128 0
 2964 0f92 2C       		.uleb128 0x2c
 2965 0f93 01       		.uleb128 0x1
 2966 0f94 52       		.byte	0x52
 2967 0f95 05       		.uleb128 0x5
 2968 0f96 03       		.byte	0x3
 2969 0f97 54000000 		.4byte	.LC10
 2970 0f9b 00       		.byte	0
 2971 0f9c 2D       		.uleb128 0x2d
 2972 0f9d 58030000 		.4byte	.LVL130
 2973 0fa1 C0110000 		.4byte	0x11c0
 2974 0fa5 2B       		.uleb128 0x2b
 2975 0fa6 70030000 		.4byte	.LVL132
 2976 0faa 91110000 		.4byte	0x1191
 2977 0fae CE0F0000 		.4byte	0xfce
 2978 0fb2 2C       		.uleb128 0x2c
 2979 0fb3 01       		.uleb128 0x1
 2980 0fb4 50       		.byte	0x50
 2981 0fb5 05       		.uleb128 0x5
 2982 0fb6 77       		.byte	0x77
 2983 0fb7 00       		.sleb128 0
 2984 0fb8 74       		.byte	0x74
 2985 0fb9 00       		.sleb128 0
ARM GAS  /tmp/cclxi6yR.s 			page 54


 2986 0fba 22       		.byte	0x22
 2987 0fbb 2C       		.uleb128 0x2c
 2988 0fbc 01       		.uleb128 0x1
 2989 0fbd 51       		.byte	0x51
 2990 0fbe 05       		.uleb128 0x5
 2991 0fbf 75       		.byte	0x75
 2992 0fc0 00       		.sleb128 0
 2993 0fc1 74       		.byte	0x74
 2994 0fc2 00       		.sleb128 0
 2995 0fc3 1C       		.byte	0x1c
 2996 0fc4 2C       		.uleb128 0x2c
 2997 0fc5 01       		.uleb128 0x1
 2998 0fc6 52       		.byte	0x52
 2999 0fc7 05       		.uleb128 0x5
 3000 0fc8 03       		.byte	0x3
 3001 0fc9 2C000000 		.4byte	.LC5
 3002 0fcd 00       		.byte	0
 3003 0fce 2E       		.uleb128 0x2e
 3004 0fcf 90030000 		.4byte	.LVL139
 3005 0fd3 91110000 		.4byte	0x1191
 3006 0fd7 2C       		.uleb128 0x2c
 3007 0fd8 01       		.uleb128 0x1
 3008 0fd9 50       		.byte	0x50
 3009 0fda 02       		.uleb128 0x2
 3010 0fdb 77       		.byte	0x77
 3011 0fdc 00       		.sleb128 0
 3012 0fdd 2C       		.uleb128 0x2c
 3013 0fde 01       		.uleb128 0x1
 3014 0fdf 51       		.byte	0x51
 3015 0fe0 02       		.uleb128 0x2
 3016 0fe1 75       		.byte	0x75
 3017 0fe2 00       		.sleb128 0
 3018 0fe3 2C       		.uleb128 0x2c
 3019 0fe4 01       		.uleb128 0x1
 3020 0fe5 52       		.byte	0x52
 3021 0fe6 05       		.uleb128 0x5
 3022 0fe7 03       		.byte	0x3
 3023 0fe8 88000000 		.4byte	.LC13
 3024 0fec 00       		.byte	0
 3025 0fed 00       		.byte	0
 3026 0fee 2F       		.uleb128 0x2f
 3027 0fef 9F100000 		.4byte	0x109f
 3028 0ff3 16000000 		.4byte	.LBB78
 3029 0ff7 10000000 		.4byte	.LBE78-.LBB78
 3030 0ffb 01       		.byte	0x1
 3031 0ffc 35       		.byte	0x35
 3032 0ffd 5C100000 		.4byte	0x105c
 3033 1001 34       		.uleb128 0x34
 3034 1002 C3100000 		.4byte	0x10c3
 3035 1006 01       		.byte	0x1
 3036 1007 2A       		.uleb128 0x2a
 3037 1008 B8100000 		.4byte	0x10b8
 3038 100c B1040000 		.4byte	.LLST8
 3039 1010 2A       		.uleb128 0x2a
 3040 1011 AF100000 		.4byte	0x10af
 3041 1015 D2040000 		.4byte	.LLST9
 3042 1019 35       		.uleb128 0x35
ARM GAS  /tmp/cclxi6yR.s 			page 55


 3043 101a 16000000 		.4byte	.LBB79
 3044 101e 10000000 		.4byte	.LBE79-.LBB79
 3045 1022 36       		.uleb128 0x36
 3046 1023 CE100000 		.4byte	0x10ce
 3047 1027 C7060000 		.4byte	.LLST10
 3048 102b 2B       		.uleb128 0x2b
 3049 102c 1E000000 		.4byte	.LVL6
 3050 1030 B5110000 		.4byte	0x11b5
 3051 1034 45100000 		.4byte	0x1045
 3052 1038 2C       		.uleb128 0x2c
 3053 1039 01       		.uleb128 0x1
 3054 103a 50       		.byte	0x50
 3055 103b 02       		.uleb128 0x2
 3056 103c 91       		.byte	0x91
 3057 103d 48       		.sleb128 -56
 3058 103e 2C       		.uleb128 0x2c
 3059 103f 01       		.uleb128 0x1
 3060 1040 51       		.byte	0x51
 3061 1041 02       		.uleb128 0x2
 3062 1042 74       		.byte	0x74
 3063 1043 00       		.sleb128 0
 3064 1044 00       		.byte	0
 3065 1045 2E       		.uleb128 0x2e
 3066 1046 26000000 		.4byte	.LVL8
 3067 104a B5110000 		.4byte	0x11b5
 3068 104e 2C       		.uleb128 0x2c
 3069 104f 01       		.uleb128 0x1
 3070 1050 50       		.byte	0x50
 3071 1051 02       		.uleb128 0x2
 3072 1052 91       		.byte	0x91
 3073 1053 48       		.sleb128 -56
 3074 1054 2C       		.uleb128 0x2c
 3075 1055 01       		.uleb128 0x1
 3076 1056 51       		.byte	0x51
 3077 1057 01       		.uleb128 0x1
 3078 1058 31       		.byte	0x31
 3079 1059 00       		.byte	0
 3080 105a 00       		.byte	0
 3081 105b 00       		.byte	0
 3082 105c 29       		.uleb128 0x29
 3083 105d E0100000 		.4byte	0x10e0
 3084 1061 26000000 		.4byte	.LBB80
 3085 1065 00000000 		.4byte	.Ldebug_ranges0+0
 3086 1069 01       		.byte	0x1
 3087 106a 37       		.byte	0x37
 3088 106b 79100000 		.4byte	0x1079
 3089 106f 2A       		.uleb128 0x2a
 3090 1070 F0100000 		.4byte	0x10f0
 3091 1074 DB060000 		.4byte	.LLST11
 3092 1078 00       		.byte	0
 3093 1079 2E       		.uleb128 0x2e
 3094 107a 16000000 		.4byte	.LVL4
 3095 107e CB110000 		.4byte	0x11cb
 3096 1082 2C       		.uleb128 0x2c
 3097 1083 01       		.uleb128 0x1
 3098 1084 50       		.byte	0x50
 3099 1085 02       		.uleb128 0x2
ARM GAS  /tmp/cclxi6yR.s 			page 56


 3100 1086 91       		.byte	0x91
 3101 1087 48       		.sleb128 -56
 3102 1088 2C       		.uleb128 0x2c
 3103 1089 01       		.uleb128 0x1
 3104 108a 51       		.byte	0x51
 3105 108b 05       		.uleb128 0x5
 3106 108c 03       		.byte	0x3
 3107 108d 00000000 		.4byte	.LANCHOR0
 3108 1091 2C       		.uleb128 0x2c
 3109 1092 01       		.uleb128 0x1
 3110 1093 52       		.byte	0x52
 3111 1094 02       		.uleb128 0x2
 3112 1095 08       		.byte	0x8
 3113 1096 80       		.byte	0x80
 3114 1097 00       		.byte	0
 3115 1098 00       		.byte	0
 3116 1099 06       		.uleb128 0x6
 3117 109a 04       		.byte	0x4
 3118 109b 26090000 		.4byte	0x926
 3119 109f 37       		.uleb128 0x37
 3120 10a0 6A050000 		.4byte	.LASF148
 3121 10a4 02       		.byte	0x2
 3122 10a5 6C       		.byte	0x6c
 3123 10a6 73000000 		.4byte	0x73
 3124 10aa 03       		.byte	0x3
 3125 10ab DA100000 		.4byte	0x10da
 3126 10af 38       		.uleb128 0x38
 3127 10b0 7300     		.ascii	"s\000"
 3128 10b2 02       		.byte	0x2
 3129 10b3 6C       		.byte	0x6c
 3130 10b4 DA100000 		.4byte	0x10da
 3131 10b8 39       		.uleb128 0x39
 3132 10b9 CA000000 		.4byte	.LASF146
 3133 10bd 02       		.byte	0x2
 3134 10be 6C       		.byte	0x6c
 3135 10bf CF080000 		.4byte	0x8cf
 3136 10c3 39       		.uleb128 0x39
 3137 10c4 CF000000 		.4byte	.LASF147
 3138 10c8 02       		.byte	0x2
 3139 10c9 6C       		.byte	0x6c
 3140 10ca CF080000 		.4byte	0x8cf
 3141 10ce 32       		.uleb128 0x32
 3142 10cf 72657300 		.ascii	"res\000"
 3143 10d3 02       		.byte	0x2
 3144 10d4 6D       		.byte	0x6d
 3145 10d5 73000000 		.4byte	0x73
 3146 10d9 00       		.byte	0
 3147 10da 06       		.uleb128 0x6
 3148 10db 04       		.byte	0x4
 3149 10dc 7A090000 		.4byte	0x97a
 3150 10e0 37       		.uleb128 0x37
 3151 10e1 00000000 		.4byte	.LASF149
 3152 10e5 02       		.byte	0x2
 3153 10e6 60       		.byte	0x60
 3154 10e7 73000000 		.4byte	0x73
 3155 10eb 03       		.byte	0x3
 3156 10ec FA100000 		.4byte	0x10fa
ARM GAS  /tmp/cclxi6yR.s 			page 57


 3157 10f0 38       		.uleb128 0x38
 3158 10f1 7300     		.ascii	"s\000"
 3159 10f3 02       		.byte	0x2
 3160 10f4 60       		.byte	0x60
 3161 10f5 DA100000 		.4byte	0x10da
 3162 10f9 00       		.byte	0
 3163 10fa 3A       		.uleb128 0x3a
 3164 10fb 37000000 		.4byte	.LASF150
 3165 10ff 03       		.byte	0x3
 3166 1100 1002     		.2byte	0x210
 3167 1102 CF080000 		.4byte	0x8cf
 3168 1106 03       		.byte	0x3
 3169 1107 16110000 		.4byte	0x1116
 3170 110b 3B       		.uleb128 0x3b
 3171 110c 7800     		.ascii	"x\000"
 3172 110e 03       		.byte	0x3
 3173 110f 1002     		.2byte	0x210
 3174 1111 B9080000 		.4byte	0x8b9
 3175 1115 00       		.byte	0
 3176 1116 3A       		.uleb128 0x3a
 3177 1117 7C040000 		.4byte	.LASF151
 3178 111b 03       		.byte	0x3
 3179 111c 0C02     		.2byte	0x20c
 3180 111e 6F050000 		.4byte	0x56f
 3181 1122 03       		.byte	0x3
 3182 1123 32110000 		.4byte	0x1132
 3183 1127 3B       		.uleb128 0x3b
 3184 1128 7800     		.ascii	"x\000"
 3185 112a 03       		.byte	0x3
 3186 112b 0C02     		.2byte	0x20c
 3187 112d B9080000 		.4byte	0x8b9
 3188 1131 00       		.byte	0
 3189 1132 3A       		.uleb128 0x3a
 3190 1133 AB060000 		.4byte	.LASF152
 3191 1137 03       		.byte	0x3
 3192 1138 0802     		.2byte	0x208
 3193 113a CF080000 		.4byte	0x8cf
 3194 113e 03       		.byte	0x3
 3195 113f 4E110000 		.4byte	0x114e
 3196 1143 3B       		.uleb128 0x3b
 3197 1144 7800     		.ascii	"x\000"
 3198 1146 03       		.byte	0x3
 3199 1147 0802     		.2byte	0x208
 3200 1149 B9080000 		.4byte	0x8b9
 3201 114d 00       		.byte	0
 3202 114e 3A       		.uleb128 0x3a
 3203 114f 85060000 		.4byte	.LASF153
 3204 1153 03       		.byte	0x3
 3205 1154 0402     		.2byte	0x204
 3206 1156 DA080000 		.4byte	0x8da
 3207 115a 03       		.byte	0x3
 3208 115b 6A110000 		.4byte	0x116a
 3209 115f 3B       		.uleb128 0x3b
 3210 1160 7800     		.ascii	"x\000"
 3211 1162 03       		.byte	0x3
 3212 1163 0402     		.2byte	0x204
 3213 1165 B9080000 		.4byte	0x8b9
ARM GAS  /tmp/cclxi6yR.s 			page 58


 3214 1169 00       		.byte	0
 3215 116a 3A       		.uleb128 0x3a
 3216 116b 1F030000 		.4byte	.LASF154
 3217 116f 03       		.byte	0x3
 3218 1170 CC01     		.2byte	0x1cc
 3219 1172 C4080000 		.4byte	0x8c4
 3220 1176 03       		.byte	0x3
 3221 1177 86110000 		.4byte	0x1186
 3222 117b 3B       		.uleb128 0x3b
 3223 117c 7800     		.ascii	"x\000"
 3224 117e 03       		.byte	0x3
 3225 117f CC01     		.2byte	0x1cc
 3226 1181 B9080000 		.4byte	0x8b9
 3227 1185 00       		.byte	0
 3228 1186 3C       		.uleb128 0x3c
 3229 1187 4F030000 		.4byte	.LASF155
 3230 118b 4F030000 		.4byte	.LASF155
 3231 118f 02       		.byte	0x2
 3232 1190 59       		.byte	0x59
 3233 1191 3D       		.uleb128 0x3d
 3234 1192 89040000 		.4byte	.LASF156
 3235 1196 89040000 		.4byte	.LASF156
 3236 119a 0C       		.byte	0xc
 3237 119b 0A01     		.2byte	0x10a
 3238 119d 3D       		.uleb128 0x3d
 3239 119e E9040000 		.4byte	.LASF157
 3240 11a2 E9040000 		.4byte	.LASF157
 3241 11a6 03       		.byte	0x3
 3242 11a7 5C01     		.2byte	0x15c
 3243 11a9 3D       		.uleb128 0x3d
 3244 11aa 0C060000 		.4byte	.LASF158
 3245 11ae 0C060000 		.4byte	.LASF158
 3246 11b2 03       		.byte	0x3
 3247 11b3 6401     		.2byte	0x164
 3248 11b5 3C       		.uleb128 0x3c
 3249 11b6 61000000 		.4byte	.LASF159
 3250 11ba 61000000 		.4byte	.LASF159
 3251 11be 02       		.byte	0x2
 3252 11bf 52       		.byte	0x52
 3253 11c0 3C       		.uleb128 0x3c
 3254 11c1 6E060000 		.4byte	.LASF160
 3255 11c5 6E060000 		.4byte	.LASF160
 3256 11c9 0D       		.byte	0xd
 3257 11ca BD       		.byte	0xbd
 3258 11cb 3C       		.uleb128 0x3c
 3259 11cc EA000000 		.4byte	.LASF161
 3260 11d0 EA000000 		.4byte	.LASF161
 3261 11d4 02       		.byte	0x2
 3262 11d5 32       		.byte	0x32
 3263 11d6 00       		.byte	0
 3264              		.section	.debug_abbrev,"",%progbits
 3265              	.Ldebug_abbrev0:
 3266 0000 01       		.uleb128 0x1
 3267 0001 11       		.uleb128 0x11
 3268 0002 01       		.byte	0x1
 3269 0003 25       		.uleb128 0x25
 3270 0004 0E       		.uleb128 0xe
ARM GAS  /tmp/cclxi6yR.s 			page 59


 3271 0005 13       		.uleb128 0x13
 3272 0006 0B       		.uleb128 0xb
 3273 0007 03       		.uleb128 0x3
 3274 0008 0E       		.uleb128 0xe
 3275 0009 1B       		.uleb128 0x1b
 3276 000a 0E       		.uleb128 0xe
 3277 000b 55       		.uleb128 0x55
 3278 000c 17       		.uleb128 0x17
 3279 000d 11       		.uleb128 0x11
 3280 000e 01       		.uleb128 0x1
 3281 000f 10       		.uleb128 0x10
 3282 0010 17       		.uleb128 0x17
 3283 0011 00       		.byte	0
 3284 0012 00       		.byte	0
 3285 0013 02       		.uleb128 0x2
 3286 0014 24       		.uleb128 0x24
 3287 0015 00       		.byte	0
 3288 0016 0B       		.uleb128 0xb
 3289 0017 0B       		.uleb128 0xb
 3290 0018 3E       		.uleb128 0x3e
 3291 0019 0B       		.uleb128 0xb
 3292 001a 03       		.uleb128 0x3
 3293 001b 0E       		.uleb128 0xe
 3294 001c 00       		.byte	0
 3295 001d 00       		.byte	0
 3296 001e 03       		.uleb128 0x3
 3297 001f 16       		.uleb128 0x16
 3298 0020 00       		.byte	0
 3299 0021 03       		.uleb128 0x3
 3300 0022 0E       		.uleb128 0xe
 3301 0023 3A       		.uleb128 0x3a
 3302 0024 0B       		.uleb128 0xb
 3303 0025 3B       		.uleb128 0x3b
 3304 0026 0B       		.uleb128 0xb
 3305 0027 49       		.uleb128 0x49
 3306 0028 13       		.uleb128 0x13
 3307 0029 00       		.byte	0
 3308 002a 00       		.byte	0
 3309 002b 04       		.uleb128 0x4
 3310 002c 24       		.uleb128 0x24
 3311 002d 00       		.byte	0
 3312 002e 0B       		.uleb128 0xb
 3313 002f 0B       		.uleb128 0xb
 3314 0030 3E       		.uleb128 0x3e
 3315 0031 0B       		.uleb128 0xb
 3316 0032 03       		.uleb128 0x3
 3317 0033 08       		.uleb128 0x8
 3318 0034 00       		.byte	0
 3319 0035 00       		.byte	0
 3320 0036 05       		.uleb128 0x5
 3321 0037 0F       		.uleb128 0xf
 3322 0038 00       		.byte	0
 3323 0039 0B       		.uleb128 0xb
 3324 003a 0B       		.uleb128 0xb
 3325 003b 00       		.byte	0
 3326 003c 00       		.byte	0
 3327 003d 06       		.uleb128 0x6
ARM GAS  /tmp/cclxi6yR.s 			page 60


 3328 003e 0F       		.uleb128 0xf
 3329 003f 00       		.byte	0
 3330 0040 0B       		.uleb128 0xb
 3331 0041 0B       		.uleb128 0xb
 3332 0042 49       		.uleb128 0x49
 3333 0043 13       		.uleb128 0x13
 3334 0044 00       		.byte	0
 3335 0045 00       		.byte	0
 3336 0046 07       		.uleb128 0x7
 3337 0047 13       		.uleb128 0x13
 3338 0048 00       		.byte	0
 3339 0049 03       		.uleb128 0x3
 3340 004a 0E       		.uleb128 0xe
 3341 004b 3C       		.uleb128 0x3c
 3342 004c 19       		.uleb128 0x19
 3343 004d 00       		.byte	0
 3344 004e 00       		.byte	0
 3345 004f 08       		.uleb128 0x8
 3346 0050 16       		.uleb128 0x16
 3347 0051 00       		.byte	0
 3348 0052 03       		.uleb128 0x3
 3349 0053 0E       		.uleb128 0xe
 3350 0054 3A       		.uleb128 0x3a
 3351 0055 0B       		.uleb128 0xb
 3352 0056 3B       		.uleb128 0x3b
 3353 0057 05       		.uleb128 0x5
 3354 0058 49       		.uleb128 0x49
 3355 0059 13       		.uleb128 0x13
 3356 005a 00       		.byte	0
 3357 005b 00       		.byte	0
 3358 005c 09       		.uleb128 0x9
 3359 005d 17       		.uleb128 0x17
 3360 005e 01       		.byte	0x1
 3361 005f 0B       		.uleb128 0xb
 3362 0060 0B       		.uleb128 0xb
 3363 0061 3A       		.uleb128 0x3a
 3364 0062 0B       		.uleb128 0xb
 3365 0063 3B       		.uleb128 0x3b
 3366 0064 0B       		.uleb128 0xb
 3367 0065 01       		.uleb128 0x1
 3368 0066 13       		.uleb128 0x13
 3369 0067 00       		.byte	0
 3370 0068 00       		.byte	0
 3371 0069 0A       		.uleb128 0xa
 3372 006a 0D       		.uleb128 0xd
 3373 006b 00       		.byte	0
 3374 006c 03       		.uleb128 0x3
 3375 006d 0E       		.uleb128 0xe
 3376 006e 3A       		.uleb128 0x3a
 3377 006f 0B       		.uleb128 0xb
 3378 0070 3B       		.uleb128 0x3b
 3379 0071 0B       		.uleb128 0xb
 3380 0072 49       		.uleb128 0x49
 3381 0073 13       		.uleb128 0x13
 3382 0074 00       		.byte	0
 3383 0075 00       		.byte	0
 3384 0076 0B       		.uleb128 0xb
ARM GAS  /tmp/cclxi6yR.s 			page 61


 3385 0077 01       		.uleb128 0x1
 3386 0078 01       		.byte	0x1
 3387 0079 49       		.uleb128 0x49
 3388 007a 13       		.uleb128 0x13
 3389 007b 01       		.uleb128 0x1
 3390 007c 13       		.uleb128 0x13
 3391 007d 00       		.byte	0
 3392 007e 00       		.byte	0
 3393 007f 0C       		.uleb128 0xc
 3394 0080 21       		.uleb128 0x21
 3395 0081 00       		.byte	0
 3396 0082 49       		.uleb128 0x49
 3397 0083 13       		.uleb128 0x13
 3398 0084 2F       		.uleb128 0x2f
 3399 0085 0B       		.uleb128 0xb
 3400 0086 00       		.byte	0
 3401 0087 00       		.byte	0
 3402 0088 0D       		.uleb128 0xd
 3403 0089 13       		.uleb128 0x13
 3404 008a 01       		.byte	0x1
 3405 008b 0B       		.uleb128 0xb
 3406 008c 0B       		.uleb128 0xb
 3407 008d 3A       		.uleb128 0x3a
 3408 008e 0B       		.uleb128 0xb
 3409 008f 3B       		.uleb128 0x3b
 3410 0090 0B       		.uleb128 0xb
 3411 0091 01       		.uleb128 0x1
 3412 0092 13       		.uleb128 0x13
 3413 0093 00       		.byte	0
 3414 0094 00       		.byte	0
 3415 0095 0E       		.uleb128 0xe
 3416 0096 0D       		.uleb128 0xd
 3417 0097 00       		.byte	0
 3418 0098 03       		.uleb128 0x3
 3419 0099 0E       		.uleb128 0xe
 3420 009a 3A       		.uleb128 0x3a
 3421 009b 0B       		.uleb128 0xb
 3422 009c 3B       		.uleb128 0x3b
 3423 009d 0B       		.uleb128 0xb
 3424 009e 49       		.uleb128 0x49
 3425 009f 13       		.uleb128 0x13
 3426 00a0 38       		.uleb128 0x38
 3427 00a1 0B       		.uleb128 0xb
 3428 00a2 00       		.byte	0
 3429 00a3 00       		.byte	0
 3430 00a4 0F       		.uleb128 0xf
 3431 00a5 13       		.uleb128 0x13
 3432 00a6 01       		.byte	0x1
 3433 00a7 03       		.uleb128 0x3
 3434 00a8 0E       		.uleb128 0xe
 3435 00a9 0B       		.uleb128 0xb
 3436 00aa 0B       		.uleb128 0xb
 3437 00ab 3A       		.uleb128 0x3a
 3438 00ac 0B       		.uleb128 0xb
 3439 00ad 3B       		.uleb128 0x3b
 3440 00ae 0B       		.uleb128 0xb
 3441 00af 01       		.uleb128 0x1
ARM GAS  /tmp/cclxi6yR.s 			page 62


 3442 00b0 13       		.uleb128 0x13
 3443 00b1 00       		.byte	0
 3444 00b2 00       		.byte	0
 3445 00b3 10       		.uleb128 0x10
 3446 00b4 0D       		.uleb128 0xd
 3447 00b5 00       		.byte	0
 3448 00b6 03       		.uleb128 0x3
 3449 00b7 08       		.uleb128 0x8
 3450 00b8 3A       		.uleb128 0x3a
 3451 00b9 0B       		.uleb128 0xb
 3452 00ba 3B       		.uleb128 0x3b
 3453 00bb 0B       		.uleb128 0xb
 3454 00bc 49       		.uleb128 0x49
 3455 00bd 13       		.uleb128 0x13
 3456 00be 38       		.uleb128 0x38
 3457 00bf 0B       		.uleb128 0xb
 3458 00c0 00       		.byte	0
 3459 00c1 00       		.byte	0
 3460 00c2 11       		.uleb128 0x11
 3461 00c3 13       		.uleb128 0x13
 3462 00c4 01       		.byte	0x1
 3463 00c5 03       		.uleb128 0x3
 3464 00c6 0E       		.uleb128 0xe
 3465 00c7 0B       		.uleb128 0xb
 3466 00c8 05       		.uleb128 0x5
 3467 00c9 3A       		.uleb128 0x3a
 3468 00ca 0B       		.uleb128 0xb
 3469 00cb 3B       		.uleb128 0x3b
 3470 00cc 0B       		.uleb128 0xb
 3471 00cd 01       		.uleb128 0x1
 3472 00ce 13       		.uleb128 0x13
 3473 00cf 00       		.byte	0
 3474 00d0 00       		.byte	0
 3475 00d1 12       		.uleb128 0x12
 3476 00d2 0D       		.uleb128 0xd
 3477 00d3 00       		.byte	0
 3478 00d4 03       		.uleb128 0x3
 3479 00d5 0E       		.uleb128 0xe
 3480 00d6 3A       		.uleb128 0x3a
 3481 00d7 0B       		.uleb128 0xb
 3482 00d8 3B       		.uleb128 0x3b
 3483 00d9 0B       		.uleb128 0xb
 3484 00da 49       		.uleb128 0x49
 3485 00db 13       		.uleb128 0x13
 3486 00dc 38       		.uleb128 0x38
 3487 00dd 05       		.uleb128 0x5
 3488 00de 00       		.byte	0
 3489 00df 00       		.byte	0
 3490 00e0 13       		.uleb128 0x13
 3491 00e1 15       		.uleb128 0x15
 3492 00e2 00       		.byte	0
 3493 00e3 27       		.uleb128 0x27
 3494 00e4 19       		.uleb128 0x19
 3495 00e5 00       		.byte	0
 3496 00e6 00       		.byte	0
 3497 00e7 14       		.uleb128 0x14
 3498 00e8 15       		.uleb128 0x15
ARM GAS  /tmp/cclxi6yR.s 			page 63


 3499 00e9 01       		.byte	0x1
 3500 00ea 27       		.uleb128 0x27
 3501 00eb 19       		.uleb128 0x19
 3502 00ec 49       		.uleb128 0x49
 3503 00ed 13       		.uleb128 0x13
 3504 00ee 01       		.uleb128 0x1
 3505 00ef 13       		.uleb128 0x13
 3506 00f0 00       		.byte	0
 3507 00f1 00       		.byte	0
 3508 00f2 15       		.uleb128 0x15
 3509 00f3 05       		.uleb128 0x5
 3510 00f4 00       		.byte	0
 3511 00f5 49       		.uleb128 0x49
 3512 00f6 13       		.uleb128 0x13
 3513 00f7 00       		.byte	0
 3514 00f8 00       		.byte	0
 3515 00f9 16       		.uleb128 0x16
 3516 00fa 26       		.uleb128 0x26
 3517 00fb 00       		.byte	0
 3518 00fc 49       		.uleb128 0x49
 3519 00fd 13       		.uleb128 0x13
 3520 00fe 00       		.byte	0
 3521 00ff 00       		.byte	0
 3522 0100 17       		.uleb128 0x17
 3523 0101 13       		.uleb128 0x13
 3524 0102 01       		.byte	0x1
 3525 0103 03       		.uleb128 0x3
 3526 0104 0E       		.uleb128 0xe
 3527 0105 0B       		.uleb128 0xb
 3528 0106 05       		.uleb128 0x5
 3529 0107 3A       		.uleb128 0x3a
 3530 0108 0B       		.uleb128 0xb
 3531 0109 3B       		.uleb128 0x3b
 3532 010a 05       		.uleb128 0x5
 3533 010b 01       		.uleb128 0x1
 3534 010c 13       		.uleb128 0x13
 3535 010d 00       		.byte	0
 3536 010e 00       		.byte	0
 3537 010f 18       		.uleb128 0x18
 3538 0110 0D       		.uleb128 0xd
 3539 0111 00       		.byte	0
 3540 0112 03       		.uleb128 0x3
 3541 0113 0E       		.uleb128 0xe
 3542 0114 3A       		.uleb128 0x3a
 3543 0115 0B       		.uleb128 0xb
 3544 0116 3B       		.uleb128 0x3b
 3545 0117 05       		.uleb128 0x5
 3546 0118 49       		.uleb128 0x49
 3547 0119 13       		.uleb128 0x13
 3548 011a 38       		.uleb128 0x38
 3549 011b 0B       		.uleb128 0xb
 3550 011c 00       		.byte	0
 3551 011d 00       		.byte	0
 3552 011e 19       		.uleb128 0x19
 3553 011f 0D       		.uleb128 0xd
 3554 0120 00       		.byte	0
 3555 0121 03       		.uleb128 0x3
ARM GAS  /tmp/cclxi6yR.s 			page 64


 3556 0122 0E       		.uleb128 0xe
 3557 0123 3A       		.uleb128 0x3a
 3558 0124 0B       		.uleb128 0xb
 3559 0125 3B       		.uleb128 0x3b
 3560 0126 05       		.uleb128 0x5
 3561 0127 49       		.uleb128 0x49
 3562 0128 13       		.uleb128 0x13
 3563 0129 38       		.uleb128 0x38
 3564 012a 05       		.uleb128 0x5
 3565 012b 00       		.byte	0
 3566 012c 00       		.byte	0
 3567 012d 1A       		.uleb128 0x1a
 3568 012e 13       		.uleb128 0x13
 3569 012f 01       		.byte	0x1
 3570 0130 03       		.uleb128 0x3
 3571 0131 0E       		.uleb128 0xe
 3572 0132 0B       		.uleb128 0xb
 3573 0133 0B       		.uleb128 0xb
 3574 0134 3A       		.uleb128 0x3a
 3575 0135 0B       		.uleb128 0xb
 3576 0136 3B       		.uleb128 0x3b
 3577 0137 05       		.uleb128 0x5
 3578 0138 01       		.uleb128 0x1
 3579 0139 13       		.uleb128 0x13
 3580 013a 00       		.byte	0
 3581 013b 00       		.byte	0
 3582 013c 1B       		.uleb128 0x1b
 3583 013d 13       		.uleb128 0x13
 3584 013e 01       		.byte	0x1
 3585 013f 0B       		.uleb128 0xb
 3586 0140 0B       		.uleb128 0xb
 3587 0141 3A       		.uleb128 0x3a
 3588 0142 0B       		.uleb128 0xb
 3589 0143 3B       		.uleb128 0x3b
 3590 0144 05       		.uleb128 0x5
 3591 0145 01       		.uleb128 0x1
 3592 0146 13       		.uleb128 0x13
 3593 0147 00       		.byte	0
 3594 0148 00       		.byte	0
 3595 0149 1C       		.uleb128 0x1c
 3596 014a 17       		.uleb128 0x17
 3597 014b 01       		.byte	0x1
 3598 014c 0B       		.uleb128 0xb
 3599 014d 0B       		.uleb128 0xb
 3600 014e 3A       		.uleb128 0x3a
 3601 014f 0B       		.uleb128 0xb
 3602 0150 3B       		.uleb128 0x3b
 3603 0151 05       		.uleb128 0x5
 3604 0152 01       		.uleb128 0x1
 3605 0153 13       		.uleb128 0x13
 3606 0154 00       		.byte	0
 3607 0155 00       		.byte	0
 3608 0156 1D       		.uleb128 0x1d
 3609 0157 0D       		.uleb128 0xd
 3610 0158 00       		.byte	0
 3611 0159 03       		.uleb128 0x3
 3612 015a 0E       		.uleb128 0xe
ARM GAS  /tmp/cclxi6yR.s 			page 65


 3613 015b 3A       		.uleb128 0x3a
 3614 015c 0B       		.uleb128 0xb
 3615 015d 3B       		.uleb128 0x3b
 3616 015e 05       		.uleb128 0x5
 3617 015f 49       		.uleb128 0x49
 3618 0160 13       		.uleb128 0x13
 3619 0161 00       		.byte	0
 3620 0162 00       		.byte	0
 3621 0163 1E       		.uleb128 0x1e
 3622 0164 15       		.uleb128 0x15
 3623 0165 01       		.byte	0x1
 3624 0166 27       		.uleb128 0x27
 3625 0167 19       		.uleb128 0x19
 3626 0168 01       		.uleb128 0x1
 3627 0169 13       		.uleb128 0x13
 3628 016a 00       		.byte	0
 3629 016b 00       		.byte	0
 3630 016c 1F       		.uleb128 0x1f
 3631 016d 34       		.uleb128 0x34
 3632 016e 00       		.byte	0
 3633 016f 03       		.uleb128 0x3
 3634 0170 0E       		.uleb128 0xe
 3635 0171 3A       		.uleb128 0x3a
 3636 0172 0B       		.uleb128 0xb
 3637 0173 3B       		.uleb128 0x3b
 3638 0174 05       		.uleb128 0x5
 3639 0175 49       		.uleb128 0x49
 3640 0176 13       		.uleb128 0x13
 3641 0177 3F       		.uleb128 0x3f
 3642 0178 19       		.uleb128 0x19
 3643 0179 3C       		.uleb128 0x3c
 3644 017a 19       		.uleb128 0x19
 3645 017b 00       		.byte	0
 3646 017c 00       		.byte	0
 3647 017d 20       		.uleb128 0x20
 3648 017e 34       		.uleb128 0x34
 3649 017f 00       		.byte	0
 3650 0180 03       		.uleb128 0x3
 3651 0181 0E       		.uleb128 0xe
 3652 0182 3A       		.uleb128 0x3a
 3653 0183 0B       		.uleb128 0xb
 3654 0184 3B       		.uleb128 0x3b
 3655 0185 0B       		.uleb128 0xb
 3656 0186 49       		.uleb128 0x49
 3657 0187 13       		.uleb128 0x13
 3658 0188 3F       		.uleb128 0x3f
 3659 0189 19       		.uleb128 0x19
 3660 018a 3C       		.uleb128 0x3c
 3661 018b 19       		.uleb128 0x19
 3662 018c 00       		.byte	0
 3663 018d 00       		.byte	0
 3664 018e 21       		.uleb128 0x21
 3665 018f 34       		.uleb128 0x34
 3666 0190 00       		.byte	0
 3667 0191 03       		.uleb128 0x3
 3668 0192 0E       		.uleb128 0xe
 3669 0193 3A       		.uleb128 0x3a
ARM GAS  /tmp/cclxi6yR.s 			page 66


 3670 0194 0B       		.uleb128 0xb
 3671 0195 3B       		.uleb128 0x3b
 3672 0196 0B       		.uleb128 0xb
 3673 0197 49       		.uleb128 0x49
 3674 0198 13       		.uleb128 0x13
 3675 0199 02       		.uleb128 0x2
 3676 019a 18       		.uleb128 0x18
 3677 019b 00       		.byte	0
 3678 019c 00       		.byte	0
 3679 019d 22       		.uleb128 0x22
 3680 019e 34       		.uleb128 0x34
 3681 019f 00       		.byte	0
 3682 01a0 03       		.uleb128 0x3
 3683 01a1 0E       		.uleb128 0xe
 3684 01a2 3A       		.uleb128 0x3a
 3685 01a3 0B       		.uleb128 0xb
 3686 01a4 3B       		.uleb128 0x3b
 3687 01a5 0B       		.uleb128 0xb
 3688 01a6 49       		.uleb128 0x49
 3689 01a7 13       		.uleb128 0x13
 3690 01a8 3F       		.uleb128 0x3f
 3691 01a9 19       		.uleb128 0x19
 3692 01aa 02       		.uleb128 0x2
 3693 01ab 18       		.uleb128 0x18
 3694 01ac 00       		.byte	0
 3695 01ad 00       		.byte	0
 3696 01ae 23       		.uleb128 0x23
 3697 01af 2E       		.uleb128 0x2e
 3698 01b0 01       		.byte	0x1
 3699 01b1 3F       		.uleb128 0x3f
 3700 01b2 19       		.uleb128 0x19
 3701 01b3 03       		.uleb128 0x3
 3702 01b4 0E       		.uleb128 0xe
 3703 01b5 3A       		.uleb128 0x3a
 3704 01b6 0B       		.uleb128 0xb
 3705 01b7 3B       		.uleb128 0x3b
 3706 01b8 0B       		.uleb128 0xb
 3707 01b9 27       		.uleb128 0x27
 3708 01ba 19       		.uleb128 0x19
 3709 01bb 49       		.uleb128 0x49
 3710 01bc 13       		.uleb128 0x13
 3711 01bd 11       		.uleb128 0x11
 3712 01be 01       		.uleb128 0x1
 3713 01bf 12       		.uleb128 0x12
 3714 01c0 06       		.uleb128 0x6
 3715 01c1 40       		.uleb128 0x40
 3716 01c2 18       		.uleb128 0x18
 3717 01c3 9642     		.uleb128 0x2116
 3718 01c5 19       		.uleb128 0x19
 3719 01c6 01       		.uleb128 0x1
 3720 01c7 13       		.uleb128 0x13
 3721 01c8 00       		.byte	0
 3722 01c9 00       		.byte	0
 3723 01ca 24       		.uleb128 0x24
 3724 01cb 05       		.uleb128 0x5
 3725 01cc 00       		.byte	0
 3726 01cd 03       		.uleb128 0x3
ARM GAS  /tmp/cclxi6yR.s 			page 67


 3727 01ce 08       		.uleb128 0x8
 3728 01cf 3A       		.uleb128 0x3a
 3729 01d0 0B       		.uleb128 0xb
 3730 01d1 3B       		.uleb128 0x3b
 3731 01d2 0B       		.uleb128 0xb
 3732 01d3 49       		.uleb128 0x49
 3733 01d4 13       		.uleb128 0x13
 3734 01d5 02       		.uleb128 0x2
 3735 01d6 17       		.uleb128 0x17
 3736 01d7 00       		.byte	0
 3737 01d8 00       		.byte	0
 3738 01d9 25       		.uleb128 0x25
 3739 01da 34       		.uleb128 0x34
 3740 01db 00       		.byte	0
 3741 01dc 03       		.uleb128 0x3
 3742 01dd 08       		.uleb128 0x8
 3743 01de 3A       		.uleb128 0x3a
 3744 01df 0B       		.uleb128 0xb
 3745 01e0 3B       		.uleb128 0x3b
 3746 01e1 0B       		.uleb128 0xb
 3747 01e2 49       		.uleb128 0x49
 3748 01e3 13       		.uleb128 0x13
 3749 01e4 02       		.uleb128 0x2
 3750 01e5 18       		.uleb128 0x18
 3751 01e6 00       		.byte	0
 3752 01e7 00       		.byte	0
 3753 01e8 26       		.uleb128 0x26
 3754 01e9 34       		.uleb128 0x34
 3755 01ea 00       		.byte	0
 3756 01eb 03       		.uleb128 0x3
 3757 01ec 08       		.uleb128 0x8
 3758 01ed 3A       		.uleb128 0x3a
 3759 01ee 0B       		.uleb128 0xb
 3760 01ef 3B       		.uleb128 0x3b
 3761 01f0 0B       		.uleb128 0xb
 3762 01f1 49       		.uleb128 0x49
 3763 01f2 13       		.uleb128 0x13
 3764 01f3 02       		.uleb128 0x2
 3765 01f4 17       		.uleb128 0x17
 3766 01f5 00       		.byte	0
 3767 01f6 00       		.byte	0
 3768 01f7 27       		.uleb128 0x27
 3769 01f8 34       		.uleb128 0x34
 3770 01f9 00       		.byte	0
 3771 01fa 03       		.uleb128 0x3
 3772 01fb 0E       		.uleb128 0xe
 3773 01fc 3A       		.uleb128 0x3a
 3774 01fd 0B       		.uleb128 0xb
 3775 01fe 3B       		.uleb128 0x3b
 3776 01ff 0B       		.uleb128 0xb
 3777 0200 49       		.uleb128 0x49
 3778 0201 13       		.uleb128 0x13
 3779 0202 02       		.uleb128 0x2
 3780 0203 17       		.uleb128 0x17
 3781 0204 00       		.byte	0
 3782 0205 00       		.byte	0
 3783 0206 28       		.uleb128 0x28
ARM GAS  /tmp/cclxi6yR.s 			page 68


 3784 0207 0B       		.uleb128 0xb
 3785 0208 01       		.byte	0x1
 3786 0209 55       		.uleb128 0x55
 3787 020a 17       		.uleb128 0x17
 3788 020b 01       		.uleb128 0x1
 3789 020c 13       		.uleb128 0x13
 3790 020d 00       		.byte	0
 3791 020e 00       		.byte	0
 3792 020f 29       		.uleb128 0x29
 3793 0210 1D       		.uleb128 0x1d
 3794 0211 01       		.byte	0x1
 3795 0212 31       		.uleb128 0x31
 3796 0213 13       		.uleb128 0x13
 3797 0214 52       		.uleb128 0x52
 3798 0215 01       		.uleb128 0x1
 3799 0216 55       		.uleb128 0x55
 3800 0217 17       		.uleb128 0x17
 3801 0218 58       		.uleb128 0x58
 3802 0219 0B       		.uleb128 0xb
 3803 021a 59       		.uleb128 0x59
 3804 021b 0B       		.uleb128 0xb
 3805 021c 01       		.uleb128 0x1
 3806 021d 13       		.uleb128 0x13
 3807 021e 00       		.byte	0
 3808 021f 00       		.byte	0
 3809 0220 2A       		.uleb128 0x2a
 3810 0221 05       		.uleb128 0x5
 3811 0222 00       		.byte	0
 3812 0223 31       		.uleb128 0x31
 3813 0224 13       		.uleb128 0x13
 3814 0225 02       		.uleb128 0x2
 3815 0226 17       		.uleb128 0x17
 3816 0227 00       		.byte	0
 3817 0228 00       		.byte	0
 3818 0229 2B       		.uleb128 0x2b
 3819 022a 898201   		.uleb128 0x4109
 3820 022d 01       		.byte	0x1
 3821 022e 11       		.uleb128 0x11
 3822 022f 01       		.uleb128 0x1
 3823 0230 31       		.uleb128 0x31
 3824 0231 13       		.uleb128 0x13
 3825 0232 01       		.uleb128 0x1
 3826 0233 13       		.uleb128 0x13
 3827 0234 00       		.byte	0
 3828 0235 00       		.byte	0
 3829 0236 2C       		.uleb128 0x2c
 3830 0237 8A8201   		.uleb128 0x410a
 3831 023a 00       		.byte	0
 3832 023b 02       		.uleb128 0x2
 3833 023c 18       		.uleb128 0x18
 3834 023d 9142     		.uleb128 0x2111
 3835 023f 18       		.uleb128 0x18
 3836 0240 00       		.byte	0
 3837 0241 00       		.byte	0
 3838 0242 2D       		.uleb128 0x2d
 3839 0243 898201   		.uleb128 0x4109
 3840 0246 00       		.byte	0
ARM GAS  /tmp/cclxi6yR.s 			page 69


 3841 0247 11       		.uleb128 0x11
 3842 0248 01       		.uleb128 0x1
 3843 0249 31       		.uleb128 0x31
 3844 024a 13       		.uleb128 0x13
 3845 024b 00       		.byte	0
 3846 024c 00       		.byte	0
 3847 024d 2E       		.uleb128 0x2e
 3848 024e 898201   		.uleb128 0x4109
 3849 0251 01       		.byte	0x1
 3850 0252 11       		.uleb128 0x11
 3851 0253 01       		.uleb128 0x1
 3852 0254 31       		.uleb128 0x31
 3853 0255 13       		.uleb128 0x13
 3854 0256 00       		.byte	0
 3855 0257 00       		.byte	0
 3856 0258 2F       		.uleb128 0x2f
 3857 0259 1D       		.uleb128 0x1d
 3858 025a 01       		.byte	0x1
 3859 025b 31       		.uleb128 0x31
 3860 025c 13       		.uleb128 0x13
 3861 025d 11       		.uleb128 0x11
 3862 025e 01       		.uleb128 0x1
 3863 025f 12       		.uleb128 0x12
 3864 0260 06       		.uleb128 0x6
 3865 0261 58       		.uleb128 0x58
 3866 0262 0B       		.uleb128 0xb
 3867 0263 59       		.uleb128 0x59
 3868 0264 0B       		.uleb128 0xb
 3869 0265 01       		.uleb128 0x1
 3870 0266 13       		.uleb128 0x13
 3871 0267 00       		.byte	0
 3872 0268 00       		.byte	0
 3873 0269 30       		.uleb128 0x30
 3874 026a 05       		.uleb128 0x5
 3875 026b 00       		.byte	0
 3876 026c 31       		.uleb128 0x31
 3877 026d 13       		.uleb128 0x13
 3878 026e 00       		.byte	0
 3879 026f 00       		.byte	0
 3880 0270 31       		.uleb128 0x31
 3881 0271 0B       		.uleb128 0xb
 3882 0272 01       		.byte	0x1
 3883 0273 11       		.uleb128 0x11
 3884 0274 01       		.uleb128 0x1
 3885 0275 12       		.uleb128 0x12
 3886 0276 06       		.uleb128 0x6
 3887 0277 01       		.uleb128 0x1
 3888 0278 13       		.uleb128 0x13
 3889 0279 00       		.byte	0
 3890 027a 00       		.byte	0
 3891 027b 32       		.uleb128 0x32
 3892 027c 34       		.uleb128 0x34
 3893 027d 00       		.byte	0
 3894 027e 03       		.uleb128 0x3
 3895 027f 08       		.uleb128 0x8
 3896 0280 3A       		.uleb128 0x3a
 3897 0281 0B       		.uleb128 0xb
ARM GAS  /tmp/cclxi6yR.s 			page 70


 3898 0282 3B       		.uleb128 0x3b
 3899 0283 0B       		.uleb128 0xb
 3900 0284 49       		.uleb128 0x49
 3901 0285 13       		.uleb128 0x13
 3902 0286 00       		.byte	0
 3903 0287 00       		.byte	0
 3904 0288 33       		.uleb128 0x33
 3905 0289 1D       		.uleb128 0x1d
 3906 028a 01       		.byte	0x1
 3907 028b 31       		.uleb128 0x31
 3908 028c 13       		.uleb128 0x13
 3909 028d 11       		.uleb128 0x11
 3910 028e 01       		.uleb128 0x1
 3911 028f 12       		.uleb128 0x12
 3912 0290 06       		.uleb128 0x6
 3913 0291 58       		.uleb128 0x58
 3914 0292 0B       		.uleb128 0xb
 3915 0293 59       		.uleb128 0x59
 3916 0294 05       		.uleb128 0x5
 3917 0295 01       		.uleb128 0x1
 3918 0296 13       		.uleb128 0x13
 3919 0297 00       		.byte	0
 3920 0298 00       		.byte	0
 3921 0299 34       		.uleb128 0x34
 3922 029a 05       		.uleb128 0x5
 3923 029b 00       		.byte	0
 3924 029c 31       		.uleb128 0x31
 3925 029d 13       		.uleb128 0x13
 3926 029e 1C       		.uleb128 0x1c
 3927 029f 0B       		.uleb128 0xb
 3928 02a0 00       		.byte	0
 3929 02a1 00       		.byte	0
 3930 02a2 35       		.uleb128 0x35
 3931 02a3 0B       		.uleb128 0xb
 3932 02a4 01       		.byte	0x1
 3933 02a5 11       		.uleb128 0x11
 3934 02a6 01       		.uleb128 0x1
 3935 02a7 12       		.uleb128 0x12
 3936 02a8 06       		.uleb128 0x6
 3937 02a9 00       		.byte	0
 3938 02aa 00       		.byte	0
 3939 02ab 36       		.uleb128 0x36
 3940 02ac 34       		.uleb128 0x34
 3941 02ad 00       		.byte	0
 3942 02ae 31       		.uleb128 0x31
 3943 02af 13       		.uleb128 0x13
 3944 02b0 02       		.uleb128 0x2
 3945 02b1 17       		.uleb128 0x17
 3946 02b2 00       		.byte	0
 3947 02b3 00       		.byte	0
 3948 02b4 37       		.uleb128 0x37
 3949 02b5 2E       		.uleb128 0x2e
 3950 02b6 01       		.byte	0x1
 3951 02b7 03       		.uleb128 0x3
 3952 02b8 0E       		.uleb128 0xe
 3953 02b9 3A       		.uleb128 0x3a
 3954 02ba 0B       		.uleb128 0xb
ARM GAS  /tmp/cclxi6yR.s 			page 71


 3955 02bb 3B       		.uleb128 0x3b
 3956 02bc 0B       		.uleb128 0xb
 3957 02bd 27       		.uleb128 0x27
 3958 02be 19       		.uleb128 0x19
 3959 02bf 49       		.uleb128 0x49
 3960 02c0 13       		.uleb128 0x13
 3961 02c1 20       		.uleb128 0x20
 3962 02c2 0B       		.uleb128 0xb
 3963 02c3 01       		.uleb128 0x1
 3964 02c4 13       		.uleb128 0x13
 3965 02c5 00       		.byte	0
 3966 02c6 00       		.byte	0
 3967 02c7 38       		.uleb128 0x38
 3968 02c8 05       		.uleb128 0x5
 3969 02c9 00       		.byte	0
 3970 02ca 03       		.uleb128 0x3
 3971 02cb 08       		.uleb128 0x8
 3972 02cc 3A       		.uleb128 0x3a
 3973 02cd 0B       		.uleb128 0xb
 3974 02ce 3B       		.uleb128 0x3b
 3975 02cf 0B       		.uleb128 0xb
 3976 02d0 49       		.uleb128 0x49
 3977 02d1 13       		.uleb128 0x13
 3978 02d2 00       		.byte	0
 3979 02d3 00       		.byte	0
 3980 02d4 39       		.uleb128 0x39
 3981 02d5 05       		.uleb128 0x5
 3982 02d6 00       		.byte	0
 3983 02d7 03       		.uleb128 0x3
 3984 02d8 0E       		.uleb128 0xe
 3985 02d9 3A       		.uleb128 0x3a
 3986 02da 0B       		.uleb128 0xb
 3987 02db 3B       		.uleb128 0x3b
 3988 02dc 0B       		.uleb128 0xb
 3989 02dd 49       		.uleb128 0x49
 3990 02de 13       		.uleb128 0x13
 3991 02df 00       		.byte	0
 3992 02e0 00       		.byte	0
 3993 02e1 3A       		.uleb128 0x3a
 3994 02e2 2E       		.uleb128 0x2e
 3995 02e3 01       		.byte	0x1
 3996 02e4 03       		.uleb128 0x3
 3997 02e5 0E       		.uleb128 0xe
 3998 02e6 3A       		.uleb128 0x3a
 3999 02e7 0B       		.uleb128 0xb
 4000 02e8 3B       		.uleb128 0x3b
 4001 02e9 05       		.uleb128 0x5
 4002 02ea 27       		.uleb128 0x27
 4003 02eb 19       		.uleb128 0x19
 4004 02ec 49       		.uleb128 0x49
 4005 02ed 13       		.uleb128 0x13
 4006 02ee 20       		.uleb128 0x20
 4007 02ef 0B       		.uleb128 0xb
 4008 02f0 01       		.uleb128 0x1
 4009 02f1 13       		.uleb128 0x13
 4010 02f2 00       		.byte	0
 4011 02f3 00       		.byte	0
ARM GAS  /tmp/cclxi6yR.s 			page 72


 4012 02f4 3B       		.uleb128 0x3b
 4013 02f5 05       		.uleb128 0x5
 4014 02f6 00       		.byte	0
 4015 02f7 03       		.uleb128 0x3
 4016 02f8 08       		.uleb128 0x8
 4017 02f9 3A       		.uleb128 0x3a
 4018 02fa 0B       		.uleb128 0xb
 4019 02fb 3B       		.uleb128 0x3b
 4020 02fc 05       		.uleb128 0x5
 4021 02fd 49       		.uleb128 0x49
 4022 02fe 13       		.uleb128 0x13
 4023 02ff 00       		.byte	0
 4024 0300 00       		.byte	0
 4025 0301 3C       		.uleb128 0x3c
 4026 0302 2E       		.uleb128 0x2e
 4027 0303 00       		.byte	0
 4028 0304 3F       		.uleb128 0x3f
 4029 0305 19       		.uleb128 0x19
 4030 0306 3C       		.uleb128 0x3c
 4031 0307 19       		.uleb128 0x19
 4032 0308 6E       		.uleb128 0x6e
 4033 0309 0E       		.uleb128 0xe
 4034 030a 03       		.uleb128 0x3
 4035 030b 0E       		.uleb128 0xe
 4036 030c 3A       		.uleb128 0x3a
 4037 030d 0B       		.uleb128 0xb
 4038 030e 3B       		.uleb128 0x3b
 4039 030f 0B       		.uleb128 0xb
 4040 0310 00       		.byte	0
 4041 0311 00       		.byte	0
 4042 0312 3D       		.uleb128 0x3d
 4043 0313 2E       		.uleb128 0x2e
 4044 0314 00       		.byte	0
 4045 0315 3F       		.uleb128 0x3f
 4046 0316 19       		.uleb128 0x19
 4047 0317 3C       		.uleb128 0x3c
 4048 0318 19       		.uleb128 0x19
 4049 0319 6E       		.uleb128 0x6e
 4050 031a 0E       		.uleb128 0xe
 4051 031b 03       		.uleb128 0x3
 4052 031c 0E       		.uleb128 0xe
 4053 031d 3A       		.uleb128 0x3a
 4054 031e 0B       		.uleb128 0xb
 4055 031f 3B       		.uleb128 0x3b
 4056 0320 05       		.uleb128 0x5
 4057 0321 00       		.byte	0
 4058 0322 00       		.byte	0
 4059 0323 00       		.byte	0
 4060              		.section	.debug_loc,"",%progbits
 4061              	.Ldebug_loc0:
 4062              	.LLST0:
 4063 0000 00000000 		.4byte	.LVL0
 4064 0004 10000000 		.4byte	.LVL2
 4065 0008 0100     		.2byte	0x1
 4066 000a 50       		.byte	0x50
 4067 000b 10000000 		.4byte	.LVL2
 4068 000f AC030000 		.4byte	.LFE45
ARM GAS  /tmp/cclxi6yR.s 			page 73


 4069 0013 0100     		.2byte	0x1
 4070 0015 57       		.byte	0x57
 4071 0016 00000000 		.4byte	0
 4072 001a 00000000 		.4byte	0
 4073              	.LLST1:
 4074 001e 00000000 		.4byte	.LVL0
 4075 0022 12000000 		.4byte	.LVL3
 4076 0026 0100     		.2byte	0x1
 4077 0028 51       		.byte	0x51
 4078 0029 12000000 		.4byte	.LVL3
 4079 002d AC030000 		.4byte	.LFE45
 4080 0031 0100     		.2byte	0x1
 4081 0033 55       		.byte	0x55
 4082 0034 00000000 		.4byte	0
 4083 0038 00000000 		.4byte	0
 4084              	.LLST2:
 4085 003c 00000000 		.4byte	.LVL0
 4086 0040 0C000000 		.4byte	.LVL1
 4087 0044 0100     		.2byte	0x1
 4088 0046 52       		.byte	0x52
 4089 0047 0C000000 		.4byte	.LVL1
 4090 004b 2C000000 		.4byte	.LVL9
 4091 004f 0100     		.2byte	0x1
 4092 0051 54       		.byte	0x54
 4093 0052 2C000000 		.4byte	.LVL9
 4094 0056 AC030000 		.4byte	.LFE45
 4095 005a 0400     		.2byte	0x4
 4096 005c F3       		.byte	0xf3
 4097 005d 01       		.uleb128 0x1
 4098 005e 52       		.byte	0x52
 4099 005f 9F       		.byte	0x9f
 4100 0060 00000000 		.4byte	0
 4101 0064 00000000 		.4byte	0
 4102              	.LLST3:
 4103 0068 16000000 		.4byte	.LVL4
 4104 006c 3A000000 		.4byte	.LVL10
 4105 0070 0200     		.2byte	0x2
 4106 0072 30       		.byte	0x30
 4107 0073 9F       		.byte	0x9f
 4108 0074 60000000 		.4byte	.LVL13
 4109 0078 64000000 		.4byte	.LVL15
 4110 007c 0200     		.2byte	0x2
 4111 007e 33       		.byte	0x33
 4112 007f 9F       		.byte	0x9f
 4113 0080 92000000 		.4byte	.LVL19
 4114 0084 98000000 		.4byte	.LVL21
 4115 0088 0200     		.2byte	0x2
 4116 008a 31       		.byte	0x31
 4117 008b 9F       		.byte	0x9f
 4118 008c CC000000 		.4byte	.LVL31
 4119 0090 06010000 		.4byte	.LVL40
 4120 0094 0200     		.2byte	0x2
 4121 0096 31       		.byte	0x31
 4122 0097 9F       		.byte	0x9f
 4123 0098 18010000 		.4byte	.LVL43
 4124 009c 8A010000 		.4byte	.LVL67
 4125 00a0 0200     		.2byte	0x2
ARM GAS  /tmp/cclxi6yR.s 			page 74


 4126 00a2 31       		.byte	0x31
 4127 00a3 9F       		.byte	0x9f
 4128 00a4 FE010000 		.4byte	.LVL81
 4129 00a8 04020000 		.4byte	.LVL83
 4130 00ac 0200     		.2byte	0x2
 4131 00ae 31       		.byte	0x31
 4132 00af 9F       		.byte	0x9f
 4133 00b0 26020000 		.4byte	.LVL84
 4134 00b4 2C020000 		.4byte	.LVL86
 4135 00b8 0200     		.2byte	0x2
 4136 00ba 38       		.byte	0x38
 4137 00bb 9F       		.byte	0x9f
 4138 00bc 2C020000 		.4byte	.LVL86
 4139 00c0 4C020000 		.4byte	.LVL97
 4140 00c4 0200     		.2byte	0x2
 4141 00c6 31       		.byte	0x31
 4142 00c7 9F       		.byte	0x9f
 4143 00c8 8E020000 		.4byte	.LVL104
 4144 00cc 94020000 		.4byte	.LVL106
 4145 00d0 0200     		.2byte	0x2
 4146 00d2 33       		.byte	0x33
 4147 00d3 9F       		.byte	0x9f
 4148 00d4 94020000 		.4byte	.LVL106
 4149 00d8 B0020000 		.4byte	.LVL114
 4150 00dc 0200     		.2byte	0x2
 4151 00de 31       		.byte	0x31
 4152 00df 9F       		.byte	0x9f
 4153 00e0 3E030000 		.4byte	.LVL126
 4154 00e4 4C030000 		.4byte	.LVL127
 4155 00e8 0100     		.2byte	0x1
 4156 00ea 50       		.byte	0x50
 4157 00eb 4C030000 		.4byte	.LVL127
 4158 00ef 52030000 		.4byte	.LVL129
 4159 00f3 0100     		.2byte	0x1
 4160 00f5 56       		.byte	0x56
 4161 00f6 70030000 		.4byte	.LVL132
 4162 00fa 76030000 		.4byte	.LVL134
 4163 00fe 0200     		.2byte	0x2
 4164 0100 35       		.byte	0x35
 4165 0101 9F       		.byte	0x9f
 4166 0102 00000000 		.4byte	0
 4167 0106 00000000 		.4byte	0
 4168              	.LLST4:
 4169 010a 16000000 		.4byte	.LVL4
 4170 010e 3A000000 		.4byte	.LVL10
 4171 0112 0200     		.2byte	0x2
 4172 0114 30       		.byte	0x30
 4173 0115 9F       		.byte	0x9f
 4174 0116 60000000 		.4byte	.LVL13
 4175 011a 64000000 		.4byte	.LVL15
 4176 011e 0200     		.2byte	0x2
 4177 0120 33       		.byte	0x33
 4178 0121 9F       		.byte	0x9f
 4179 0122 92000000 		.4byte	.LVL19
 4180 0126 98000000 		.4byte	.LVL21
 4181 012a 0200     		.2byte	0x2
 4182 012c 31       		.byte	0x31
ARM GAS  /tmp/cclxi6yR.s 			page 75


 4183 012d 9F       		.byte	0x9f
 4184 012e CC000000 		.4byte	.LVL31
 4185 0132 06010000 		.4byte	.LVL40
 4186 0136 0200     		.2byte	0x2
 4187 0138 31       		.byte	0x31
 4188 0139 9F       		.byte	0x9f
 4189 013a 18010000 		.4byte	.LVL43
 4190 013e 8A010000 		.4byte	.LVL67
 4191 0142 0200     		.2byte	0x2
 4192 0144 31       		.byte	0x31
 4193 0145 9F       		.byte	0x9f
 4194 0146 FE010000 		.4byte	.LVL81
 4195 014a 04020000 		.4byte	.LVL83
 4196 014e 0200     		.2byte	0x2
 4197 0150 31       		.byte	0x31
 4198 0151 9F       		.byte	0x9f
 4199 0152 26020000 		.4byte	.LVL84
 4200 0156 2C020000 		.4byte	.LVL86
 4201 015a 0200     		.2byte	0x2
 4202 015c 38       		.byte	0x38
 4203 015d 9F       		.byte	0x9f
 4204 015e 2C020000 		.4byte	.LVL86
 4205 0162 4C020000 		.4byte	.LVL97
 4206 0166 0200     		.2byte	0x2
 4207 0168 31       		.byte	0x31
 4208 0169 9F       		.byte	0x9f
 4209 016a 74020000 		.4byte	.LVL101
 4210 016e 78020000 		.4byte	.LVL103
 4211 0172 0100     		.2byte	0x1
 4212 0174 50       		.byte	0x50
 4213 0175 8E020000 		.4byte	.LVL104
 4214 0179 94020000 		.4byte	.LVL106
 4215 017d 0200     		.2byte	0x2
 4216 017f 33       		.byte	0x33
 4217 0180 9F       		.byte	0x9f
 4218 0181 94020000 		.4byte	.LVL106
 4219 0185 B0020000 		.4byte	.LVL114
 4220 0189 0200     		.2byte	0x2
 4221 018b 31       		.byte	0x31
 4222 018c 9F       		.byte	0x9f
 4223 018d C2020000 		.4byte	.LVL116
 4224 0191 C6020000 		.4byte	.LVL118
 4225 0195 0100     		.2byte	0x1
 4226 0197 56       		.byte	0x56
 4227 0198 70030000 		.4byte	.LVL132
 4228 019c 76030000 		.4byte	.LVL134
 4229 01a0 0200     		.2byte	0x2
 4230 01a2 35       		.byte	0x35
 4231 01a3 9F       		.byte	0x9f
 4232 01a4 00000000 		.4byte	0
 4233 01a8 00000000 		.4byte	0
 4234              	.LLST5:
 4235 01ac 16000000 		.4byte	.LVL4
 4236 01b0 3A000000 		.4byte	.LVL10
 4237 01b4 0200     		.2byte	0x2
 4238 01b6 30       		.byte	0x30
 4239 01b7 9F       		.byte	0x9f
ARM GAS  /tmp/cclxi6yR.s 			page 76


 4240 01b8 3A000000 		.4byte	.LVL10
 4241 01bc 82000000 		.4byte	.LVL17
 4242 01c0 0100     		.2byte	0x1
 4243 01c2 54       		.byte	0x54
 4244 01c3 88000000 		.4byte	.LVL18
 4245 01c7 AC030000 		.4byte	.LFE45
 4246 01cb 0100     		.2byte	0x1
 4247 01cd 54       		.byte	0x54
 4248 01ce 00000000 		.4byte	0
 4249 01d2 00000000 		.4byte	0
 4250              	.LLST6:
 4251 01d6 58030000 		.4byte	.LVL130
 4252 01da 60030000 		.4byte	.LVL131
 4253 01de 0100     		.2byte	0x1
 4254 01e0 50       		.byte	0x50
 4255 01e1 82030000 		.4byte	.LVL137
 4256 01e5 8A030000 		.4byte	.LVL138
 4257 01e9 0100     		.2byte	0x1
 4258 01eb 50       		.byte	0x50
 4259 01ec 00000000 		.4byte	0
 4260 01f0 00000000 		.4byte	0
 4261              	.LLST7:
 4262 01f4 98000000 		.4byte	.LVL21
 4263 01f8 F6000000 		.4byte	.LVL36
 4264 01fc 0200     		.2byte	0x2
 4265 01fe 31       		.byte	0x31
 4266 01ff 9F       		.byte	0x9f
 4267 0200 F6000000 		.4byte	.LVL36
 4268 0204 F8000000 		.4byte	.LVL37
 4269 0208 0500     		.2byte	0x5
 4270 020a 70       		.byte	0x70
 4271 020b 00       		.sleb128 0
 4272 020c 31       		.byte	0x31
 4273 020d 1A       		.byte	0x1a
 4274 020e 9F       		.byte	0x9f
 4275 020f F8000000 		.4byte	.LVL37
 4276 0213 06010000 		.4byte	.LVL40
 4277 0217 0700     		.2byte	0x7
 4278 0219 91       		.byte	0x91
 4279 021a BC7F     		.sleb128 -68
 4280 021c 06       		.byte	0x6
 4281 021d 31       		.byte	0x31
 4282 021e 1A       		.byte	0x1a
 4283 021f 9F       		.byte	0x9f
 4284 0220 06010000 		.4byte	.LVL40
 4285 0224 50010000 		.4byte	.LVL50
 4286 0228 0200     		.2byte	0x2
 4287 022a 31       		.byte	0x31
 4288 022b 9F       		.byte	0x9f
 4289 022c 50010000 		.4byte	.LVL50
 4290 0230 54010000 		.4byte	.LVL51
 4291 0234 0500     		.2byte	0x5
 4292 0236 70       		.byte	0x70
 4293 0237 00       		.sleb128 0
 4294 0238 31       		.byte	0x31
 4295 0239 1A       		.byte	0x1a
 4296 023a 9F       		.byte	0x9f
ARM GAS  /tmp/cclxi6yR.s 			page 77


 4297 023b 54010000 		.4byte	.LVL51
 4298 023f 5C010000 		.4byte	.LVL53
 4299 0243 0500     		.2byte	0x5
 4300 0245 76       		.byte	0x76
 4301 0246 00       		.sleb128 0
 4302 0247 31       		.byte	0x31
 4303 0248 1A       		.byte	0x1a
 4304 0249 9F       		.byte	0x9f
 4305 024a 60010000 		.4byte	.LVL55
 4306 024e 82010000 		.4byte	.LVL65
 4307 0252 0100     		.2byte	0x1
 4308 0254 56       		.byte	0x56
 4309 0255 82010000 		.4byte	.LVL65
 4310 0259 88010000 		.4byte	.LVL66
 4311 025d 0600     		.2byte	0x6
 4312 025f 76       		.byte	0x76
 4313 0260 00       		.sleb128 0
 4314 0261 70       		.byte	0x70
 4315 0262 00       		.sleb128 0
 4316 0263 1A       		.byte	0x1a
 4317 0264 9F       		.byte	0x9f
 4318 0265 C2010000 		.4byte	.LVL72
 4319 0269 CE010000 		.4byte	.LVL75
 4320 026d 0200     		.2byte	0x2
 4321 026f 31       		.byte	0x31
 4322 0270 9F       		.byte	0x9f
 4323 0271 CE010000 		.4byte	.LVL75
 4324 0275 D0010000 		.4byte	.LVL76
 4325 0279 0500     		.2byte	0x5
 4326 027b 70       		.byte	0x70
 4327 027c 00       		.sleb128 0
 4328 027d 31       		.byte	0x31
 4329 027e 1A       		.byte	0x1a
 4330 027f 9F       		.byte	0x9f
 4331 0280 D0010000 		.4byte	.LVL76
 4332 0284 D4010000 		.4byte	.LVL77
 4333 0288 0500     		.2byte	0x5
 4334 028a 7B       		.byte	0x7b
 4335 028b 00       		.sleb128 0
 4336 028c 31       		.byte	0x31
 4337 028d 1A       		.byte	0x1a
 4338 028e 9F       		.byte	0x9f
 4339 028f D4010000 		.4byte	.LVL77
 4340 0293 D8010000 		.4byte	.LVL78
 4341 0297 0800     		.2byte	0x8
 4342 0299 7B       		.byte	0x7b
 4343 029a 00       		.sleb128 0
 4344 029b 70       		.byte	0x70
 4345 029c 00       		.sleb128 0
 4346 029d 1A       		.byte	0x1a
 4347 029e 31       		.byte	0x31
 4348 029f 1A       		.byte	0x1a
 4349 02a0 9F       		.byte	0x9f
 4350 02a1 FE010000 		.4byte	.LVL81
 4351 02a5 04020000 		.4byte	.LVL83
 4352 02a9 0200     		.2byte	0x2
 4353 02ab 31       		.byte	0x31
ARM GAS  /tmp/cclxi6yR.s 			page 78


 4354 02ac 9F       		.byte	0x9f
 4355 02ad 2C020000 		.4byte	.LVL86
 4356 02b1 3E020000 		.4byte	.LVL92
 4357 02b5 0200     		.2byte	0x2
 4358 02b7 31       		.byte	0x31
 4359 02b8 9F       		.byte	0x9f
 4360 02b9 3E020000 		.4byte	.LVL92
 4361 02bd 40020000 		.4byte	.LVL93
 4362 02c1 0500     		.2byte	0x5
 4363 02c3 70       		.byte	0x70
 4364 02c4 00       		.sleb128 0
 4365 02c5 31       		.byte	0x31
 4366 02c6 1A       		.byte	0x1a
 4367 02c7 9F       		.byte	0x9f
 4368 02c8 40020000 		.4byte	.LVL93
 4369 02cc 46020000 		.4byte	.LVL95
 4370 02d0 0500     		.2byte	0x5
 4371 02d2 76       		.byte	0x76
 4372 02d3 00       		.sleb128 0
 4373 02d4 31       		.byte	0x31
 4374 02d5 1A       		.byte	0x1a
 4375 02d6 9F       		.byte	0x9f
 4376 02d7 4A020000 		.4byte	.LVL96
 4377 02db 4C020000 		.4byte	.LVL97
 4378 02df 0100     		.2byte	0x1
 4379 02e1 56       		.byte	0x56
 4380 02e2 94020000 		.4byte	.LVL106
 4381 02e6 A0020000 		.4byte	.LVL109
 4382 02ea 0200     		.2byte	0x2
 4383 02ec 31       		.byte	0x31
 4384 02ed 9F       		.byte	0x9f
 4385 02ee A0020000 		.4byte	.LVL109
 4386 02f2 A2020000 		.4byte	.LVL110
 4387 02f6 0100     		.2byte	0x1
 4388 02f8 56       		.byte	0x56
 4389 02f9 A2020000 		.4byte	.LVL110
 4390 02fd AE020000 		.4byte	.LVL113
 4391 0301 0200     		.2byte	0x2
 4392 0303 31       		.byte	0x31
 4393 0304 9F       		.byte	0x9f
 4394 0305 AE020000 		.4byte	.LVL113
 4395 0309 B0020000 		.4byte	.LVL114
 4396 030d 0100     		.2byte	0x1
 4397 030f 56       		.byte	0x56
 4398 0310 00000000 		.4byte	0
 4399 0314 00000000 		.4byte	0
 4400              	.LLST17:
 4401 0318 2E010000 		.4byte	.LVL46
 4402 031c 5C010000 		.4byte	.LVL53
 4403 0320 0100     		.2byte	0x1
 4404 0322 5B       		.byte	0x5b
 4405 0323 FE010000 		.4byte	.LVL81
 4406 0327 04020000 		.4byte	.LVL83
 4407 032b 0100     		.2byte	0x1
 4408 032d 5B       		.byte	0x5b
 4409 032e 32020000 		.4byte	.LVL88
 4410 0332 34020000 		.4byte	.LVL89
ARM GAS  /tmp/cclxi6yR.s 			page 79


 4411 0336 0100     		.2byte	0x1
 4412 0338 5B       		.byte	0x5b
 4413 0339 A2020000 		.4byte	.LVL110
 4414 033d B0020000 		.4byte	.LVL114
 4415 0341 0100     		.2byte	0x1
 4416 0343 5B       		.byte	0x5b
 4417 0344 00000000 		.4byte	0
 4418 0348 00000000 		.4byte	0
 4419              	.LLST18:
 4420 034c 2E010000 		.4byte	.LVL46
 4421 0350 46010000 		.4byte	.LVL48
 4422 0354 0100     		.2byte	0x1
 4423 0356 50       		.byte	0x50
 4424 0357 46010000 		.4byte	.LVL48
 4425 035b 4B010000 		.4byte	.LVL49-1
 4426 035f 0100     		.2byte	0x1
 4427 0361 53       		.byte	0x53
 4428 0362 4B010000 		.4byte	.LVL49-1
 4429 0366 5C010000 		.4byte	.LVL53
 4430 036a 0300     		.2byte	0x3
 4431 036c 91       		.byte	0x91
 4432 036d BC7F     		.sleb128 -68
 4433 036f FE010000 		.4byte	.LVL81
 4434 0373 04020000 		.4byte	.LVL83
 4435 0377 0100     		.2byte	0x1
 4436 0379 50       		.byte	0x50
 4437 037a 32020000 		.4byte	.LVL88
 4438 037e 34020000 		.4byte	.LVL89
 4439 0382 0100     		.2byte	0x1
 4440 0384 50       		.byte	0x50
 4441 0385 A2020000 		.4byte	.LVL110
 4442 0389 A6020000 		.4byte	.LVL111
 4443 038d 0100     		.2byte	0x1
 4444 038f 50       		.byte	0x50
 4445 0390 A6020000 		.4byte	.LVL111
 4446 0394 A9020000 		.4byte	.LVL112-1
 4447 0398 0100     		.2byte	0x1
 4448 039a 53       		.byte	0x53
 4449 039b 00000000 		.4byte	0
 4450 039f 00000000 		.4byte	0
 4451              	.LLST19:
 4452 03a3 2E010000 		.4byte	.LVL46
 4453 03a7 34010000 		.4byte	.LVL47
 4454 03ab 0100     		.2byte	0x1
 4455 03ad 50       		.byte	0x50
 4456 03ae FE010000 		.4byte	.LVL81
 4457 03b2 02020000 		.4byte	.LVL82
 4458 03b6 0100     		.2byte	0x1
 4459 03b8 50       		.byte	0x50
 4460 03b9 00000000 		.4byte	0
 4461 03bd 00000000 		.4byte	0
 4462              	.LLST14:
 4463 03c1 BA000000 		.4byte	.LVL26
 4464 03c5 BC000000 		.4byte	.LVL27
 4465 03c9 0100     		.2byte	0x1
 4466 03cb 50       		.byte	0x50
 4467 03cc BC000000 		.4byte	.LVL27
ARM GAS  /tmp/cclxi6yR.s 			page 80


 4468 03d0 06010000 		.4byte	.LVL40
 4469 03d4 0100     		.2byte	0x1
 4470 03d6 5B       		.byte	0x5b
 4471 03d7 2C020000 		.4byte	.LVL86
 4472 03db 32020000 		.4byte	.LVL88
 4473 03df 0100     		.2byte	0x1
 4474 03e1 5B       		.byte	0x5b
 4475 03e2 94020000 		.4byte	.LVL106
 4476 03e6 A2020000 		.4byte	.LVL110
 4477 03ea 0100     		.2byte	0x1
 4478 03ec 5B       		.byte	0x5b
 4479 03ed 00000000 		.4byte	0
 4480 03f1 00000000 		.4byte	0
 4481              	.LLST15:
 4482 03f5 C4000000 		.4byte	.LVL29
 4483 03f9 C8000000 		.4byte	.LVL30
 4484 03fd 0100     		.2byte	0x1
 4485 03ff 50       		.byte	0x50
 4486 0400 C8000000 		.4byte	.LVL30
 4487 0404 04010000 		.4byte	.LVL39
 4488 0408 0100     		.2byte	0x1
 4489 040a 56       		.byte	0x56
 4490 040b 2C020000 		.4byte	.LVL86
 4491 040f 32020000 		.4byte	.LVL88
 4492 0413 0100     		.2byte	0x1
 4493 0415 56       		.byte	0x56
 4494 0416 94020000 		.4byte	.LVL106
 4495 041a A0020000 		.4byte	.LVL109
 4496 041e 0100     		.2byte	0x1
 4497 0420 56       		.byte	0x56
 4498 0421 00000000 		.4byte	0
 4499 0425 00000000 		.4byte	0
 4500              	.LLST16:
 4501 0429 D2000000 		.4byte	.LVL32
 4502 042d DA000000 		.4byte	.LVL33
 4503 0431 0100     		.2byte	0x1
 4504 0433 56       		.byte	0x56
 4505 0434 2C020000 		.4byte	.LVL86
 4506 0438 30020000 		.4byte	.LVL87
 4507 043c 0100     		.2byte	0x1
 4508 043e 56       		.byte	0x56
 4509 043f 00000000 		.4byte	0
 4510 0443 00000000 		.4byte	0
 4511              	.LLST21:
 4512 0447 5C020000 		.4byte	.LVL98
 4513 044b 5F020000 		.4byte	.LVL99-1
 4514 044f 0100     		.2byte	0x1
 4515 0451 50       		.byte	0x50
 4516 0452 00000000 		.4byte	0
 4517 0456 00000000 		.4byte	0
 4518              	.LLST12:
 4519 045a CA020000 		.4byte	.LVL119
 4520 045e D0020000 		.4byte	.LVL120
 4521 0462 0100     		.2byte	0x1
 4522 0464 50       		.byte	0x50
 4523 0465 00000000 		.4byte	0
 4524 0469 00000000 		.4byte	0
ARM GAS  /tmp/cclxi6yR.s 			page 81


 4525              	.LLST22:
 4526 046d E2020000 		.4byte	.LVL122
 4527 0471 28030000 		.4byte	.LVL123
 4528 0475 0100     		.2byte	0x1
 4529 0477 50       		.byte	0x50
 4530 0478 00000000 		.4byte	0
 4531 047c 00000000 		.4byte	0
 4532              	.LLST13:
 4533 0480 2C030000 		.4byte	.LVL124
 4534 0484 36030000 		.4byte	.LVL125
 4535 0488 0100     		.2byte	0x1
 4536 048a 50       		.byte	0x50
 4537 048b 76030000 		.4byte	.LVL134
 4538 048f 7A030000 		.4byte	.LVL135
 4539 0493 0100     		.2byte	0x1
 4540 0495 50       		.byte	0x50
 4541 0496 00000000 		.4byte	0
 4542 049a 00000000 		.4byte	0
 4543              	.LLST20:
 4544 049e 98010000 		.4byte	.LVL70
 4545 04a2 A4010000 		.4byte	.LVL71
 4546 04a6 0100     		.2byte	0x1
 4547 04a8 50       		.byte	0x50
 4548 04a9 00000000 		.4byte	0
 4549 04ad 00000000 		.4byte	0
 4550              	.LLST8:
 4551 04b1 16000000 		.4byte	.LVL4
 4552 04b5 2C000000 		.4byte	.LVL9
 4553 04b9 0100     		.2byte	0x1
 4554 04bb 54       		.byte	0x54
 4555 04bc 2C000000 		.4byte	.LVL9
 4556 04c0 AC030000 		.4byte	.LFE45
 4557 04c4 0400     		.2byte	0x4
 4558 04c6 F3       		.byte	0xf3
 4559 04c7 01       		.uleb128 0x1
 4560 04c8 52       		.byte	0x52
 4561 04c9 9F       		.byte	0x9f
 4562 04ca 00000000 		.4byte	0
 4563 04ce 00000000 		.4byte	0
 4564              	.LLST9:
 4565 04d2 16000000 		.4byte	.LVL4
 4566 04d6 1A000000 		.4byte	.LVL5
 4567 04da 0300     		.2byte	0x3
 4568 04dc 91       		.byte	0x91
 4569 04dd 48       		.sleb128 -56
 4570 04de 9F       		.byte	0x9f
 4571 04df 1A000000 		.4byte	.LVL5
 4572 04e3 1D000000 		.4byte	.LVL6-1
 4573 04e7 0100     		.2byte	0x1
 4574 04e9 50       		.byte	0x50
 4575 04ea 1D000000 		.4byte	.LVL6-1
 4576 04ee 20000000 		.4byte	.LVL7
 4577 04f2 0300     		.2byte	0x3
 4578 04f4 91       		.byte	0x91
 4579 04f5 48       		.sleb128 -56
 4580 04f6 9F       		.byte	0x9f
 4581 04f7 20000000 		.4byte	.LVL7
ARM GAS  /tmp/cclxi6yR.s 			page 82


 4582 04fb 25000000 		.4byte	.LVL8-1
 4583 04ff 0100     		.2byte	0x1
 4584 0501 50       		.byte	0x50
 4585 0502 25000000 		.4byte	.LVL8-1
 4586 0506 3E000000 		.4byte	.LVL11
 4587 050a 0300     		.2byte	0x3
 4588 050c 91       		.byte	0x91
 4589 050d 48       		.sleb128 -56
 4590 050e 9F       		.byte	0x9f
 4591 050f 3E000000 		.4byte	.LVL11
 4592 0513 41000000 		.4byte	.LVL12-1
 4593 0517 0100     		.2byte	0x1
 4594 0519 50       		.byte	0x50
 4595 051a 41000000 		.4byte	.LVL12-1
 4596 051e 9C000000 		.4byte	.LVL22
 4597 0522 0300     		.2byte	0x3
 4598 0524 91       		.byte	0x91
 4599 0525 48       		.sleb128 -56
 4600 0526 9F       		.byte	0x9f
 4601 0527 9C000000 		.4byte	.LVL22
 4602 052b 9F000000 		.4byte	.LVL23-1
 4603 052f 0100     		.2byte	0x1
 4604 0531 50       		.byte	0x50
 4605 0532 9F000000 		.4byte	.LVL23-1
 4606 0536 E6000000 		.4byte	.LVL34
 4607 053a 0300     		.2byte	0x3
 4608 053c 91       		.byte	0x91
 4609 053d 48       		.sleb128 -56
 4610 053e 9F       		.byte	0x9f
 4611 053f E6000000 		.4byte	.LVL34
 4612 0543 F1000000 		.4byte	.LVL35-1
 4613 0547 0100     		.2byte	0x1
 4614 0549 50       		.byte	0x50
 4615 054a F1000000 		.4byte	.LVL35-1
 4616 054e F8000000 		.4byte	.LVL37
 4617 0552 0300     		.2byte	0x3
 4618 0554 91       		.byte	0x91
 4619 0555 48       		.sleb128 -56
 4620 0556 9F       		.byte	0x9f
 4621 0557 F8000000 		.4byte	.LVL37
 4622 055b FB000000 		.4byte	.LVL38-1
 4623 055f 0100     		.2byte	0x1
 4624 0561 50       		.byte	0x50
 4625 0562 FB000000 		.4byte	.LVL38-1
 4626 0566 0A010000 		.4byte	.LVL41
 4627 056a 0300     		.2byte	0x3
 4628 056c 91       		.byte	0x91
 4629 056d 48       		.sleb128 -56
 4630 056e 9F       		.byte	0x9f
 4631 056f 0A010000 		.4byte	.LVL41
 4632 0573 0D010000 		.4byte	.LVL42-1
 4633 0577 0100     		.2byte	0x1
 4634 0579 50       		.byte	0x50
 4635 057a 0D010000 		.4byte	.LVL42-1
 4636 057e 46010000 		.4byte	.LVL48
 4637 0582 0300     		.2byte	0x3
 4638 0584 91       		.byte	0x91
ARM GAS  /tmp/cclxi6yR.s 			page 83


 4639 0585 48       		.sleb128 -56
 4640 0586 9F       		.byte	0x9f
 4641 0587 46010000 		.4byte	.LVL48
 4642 058b 4B010000 		.4byte	.LVL49-1
 4643 058f 0100     		.2byte	0x1
 4644 0591 50       		.byte	0x50
 4645 0592 4B010000 		.4byte	.LVL49-1
 4646 0596 54010000 		.4byte	.LVL51
 4647 059a 0300     		.2byte	0x3
 4648 059c 91       		.byte	0x91
 4649 059d 48       		.sleb128 -56
 4650 059e 9F       		.byte	0x9f
 4651 059f 54010000 		.4byte	.LVL51
 4652 05a3 57010000 		.4byte	.LVL52-1
 4653 05a7 0100     		.2byte	0x1
 4654 05a9 50       		.byte	0x50
 4655 05aa 57010000 		.4byte	.LVL52-1
 4656 05ae 5E010000 		.4byte	.LVL54
 4657 05b2 0300     		.2byte	0x3
 4658 05b4 91       		.byte	0x91
 4659 05b5 48       		.sleb128 -56
 4660 05b6 9F       		.byte	0x9f
 4661 05b7 5E010000 		.4byte	.LVL54
 4662 05bb 63010000 		.4byte	.LVL56-1
 4663 05bf 0100     		.2byte	0x1
 4664 05c1 50       		.byte	0x50
 4665 05c2 63010000 		.4byte	.LVL56-1
 4666 05c6 6A010000 		.4byte	.LVL58
 4667 05ca 0300     		.2byte	0x3
 4668 05cc 91       		.byte	0x91
 4669 05cd 48       		.sleb128 -56
 4670 05ce 9F       		.byte	0x9f
 4671 05cf 6A010000 		.4byte	.LVL58
 4672 05d3 6D010000 		.4byte	.LVL59-1
 4673 05d7 0100     		.2byte	0x1
 4674 05d9 50       		.byte	0x50
 4675 05da 6D010000 		.4byte	.LVL59-1
 4676 05de 74010000 		.4byte	.LVL61
 4677 05e2 0300     		.2byte	0x3
 4678 05e4 91       		.byte	0x91
 4679 05e5 48       		.sleb128 -56
 4680 05e6 9F       		.byte	0x9f
 4681 05e7 74010000 		.4byte	.LVL61
 4682 05eb 77010000 		.4byte	.LVL62-1
 4683 05ef 0100     		.2byte	0x1
 4684 05f1 50       		.byte	0x50
 4685 05f2 77010000 		.4byte	.LVL62-1
 4686 05f6 7E010000 		.4byte	.LVL64
 4687 05fa 0300     		.2byte	0x3
 4688 05fc 91       		.byte	0x91
 4689 05fd 48       		.sleb128 -56
 4690 05fe 9F       		.byte	0x9f
 4691 05ff 7E010000 		.4byte	.LVL64
 4692 0603 81010000 		.4byte	.LVL65-1
 4693 0607 0100     		.2byte	0x1
 4694 0609 50       		.byte	0x50
 4695 060a 81010000 		.4byte	.LVL65-1
ARM GAS  /tmp/cclxi6yR.s 			page 84


 4696 060e 92010000 		.4byte	.LVL68
 4697 0612 0300     		.2byte	0x3
 4698 0614 91       		.byte	0x91
 4699 0615 48       		.sleb128 -56
 4700 0616 9F       		.byte	0x9f
 4701 0617 92010000 		.4byte	.LVL68
 4702 061b 95010000 		.4byte	.LVL69-1
 4703 061f 0100     		.2byte	0x1
 4704 0621 50       		.byte	0x50
 4705 0622 95010000 		.4byte	.LVL69-1
 4706 0626 C6010000 		.4byte	.LVL73
 4707 062a 0300     		.2byte	0x3
 4708 062c 91       		.byte	0x91
 4709 062d 48       		.sleb128 -56
 4710 062e 9F       		.byte	0x9f
 4711 062f C6010000 		.4byte	.LVL73
 4712 0633 C9010000 		.4byte	.LVL74-1
 4713 0637 0100     		.2byte	0x1
 4714 0639 50       		.byte	0x50
 4715 063a C9010000 		.4byte	.LVL74-1
 4716 063e D0010000 		.4byte	.LVL76
 4717 0642 0300     		.2byte	0x3
 4718 0644 91       		.byte	0x91
 4719 0645 48       		.sleb128 -56
 4720 0646 9F       		.byte	0x9f
 4721 0647 D0010000 		.4byte	.LVL76
 4722 064b D3010000 		.4byte	.LVL77-1
 4723 064f 0100     		.2byte	0x1
 4724 0651 50       		.byte	0x50
 4725 0652 D3010000 		.4byte	.LVL77-1
 4726 0656 36020000 		.4byte	.LVL90
 4727 065a 0300     		.2byte	0x3
 4728 065c 91       		.byte	0x91
 4729 065d 48       		.sleb128 -56
 4730 065e 9F       		.byte	0x9f
 4731 065f 36020000 		.4byte	.LVL90
 4732 0663 39020000 		.4byte	.LVL91-1
 4733 0667 0100     		.2byte	0x1
 4734 0669 50       		.byte	0x50
 4735 066a 39020000 		.4byte	.LVL91-1
 4736 066e 40020000 		.4byte	.LVL93
 4737 0672 0300     		.2byte	0x3
 4738 0674 91       		.byte	0x91
 4739 0675 48       		.sleb128 -56
 4740 0676 9F       		.byte	0x9f
 4741 0677 40020000 		.4byte	.LVL93
 4742 067b 43020000 		.4byte	.LVL94-1
 4743 067f 0100     		.2byte	0x1
 4744 0681 50       		.byte	0x50
 4745 0682 43020000 		.4byte	.LVL94-1
 4746 0686 98020000 		.4byte	.LVL107
 4747 068a 0300     		.2byte	0x3
 4748 068c 91       		.byte	0x91
 4749 068d 48       		.sleb128 -56
 4750 068e 9F       		.byte	0x9f
 4751 068f 98020000 		.4byte	.LVL107
 4752 0693 9B020000 		.4byte	.LVL108-1
ARM GAS  /tmp/cclxi6yR.s 			page 85


 4753 0697 0100     		.2byte	0x1
 4754 0699 50       		.byte	0x50
 4755 069a 9B020000 		.4byte	.LVL108-1
 4756 069e A6020000 		.4byte	.LVL111
 4757 06a2 0300     		.2byte	0x3
 4758 06a4 91       		.byte	0x91
 4759 06a5 48       		.sleb128 -56
 4760 06a6 9F       		.byte	0x9f
 4761 06a7 A6020000 		.4byte	.LVL111
 4762 06ab A9020000 		.4byte	.LVL112-1
 4763 06af 0100     		.2byte	0x1
 4764 06b1 50       		.byte	0x50
 4765 06b2 A9020000 		.4byte	.LVL112-1
 4766 06b6 AC030000 		.4byte	.LFE45
 4767 06ba 0300     		.2byte	0x3
 4768 06bc 91       		.byte	0x91
 4769 06bd 48       		.sleb128 -56
 4770 06be 9F       		.byte	0x9f
 4771 06bf 00000000 		.4byte	0
 4772 06c3 00000000 		.4byte	0
 4773              	.LLST10:
 4774 06c7 16000000 		.4byte	.LVL4
 4775 06cb 1E000000 		.4byte	.LVL6
 4776 06cf 0200     		.2byte	0x2
 4777 06d1 31       		.byte	0x31
 4778 06d2 9F       		.byte	0x9f
 4779 06d3 00000000 		.4byte	0
 4780 06d7 00000000 		.4byte	0
 4781              	.LLST11:
 4782 06db 26000000 		.4byte	.LVL8
 4783 06df 3E000000 		.4byte	.LVL11
 4784 06e3 0300     		.2byte	0x3
 4785 06e5 91       		.byte	0x91
 4786 06e6 48       		.sleb128 -56
 4787 06e7 9F       		.byte	0x9f
 4788 06e8 3E000000 		.4byte	.LVL11
 4789 06ec 41000000 		.4byte	.LVL12-1
 4790 06f0 0100     		.2byte	0x1
 4791 06f2 50       		.byte	0x50
 4792 06f3 41000000 		.4byte	.LVL12-1
 4793 06f7 9C000000 		.4byte	.LVL22
 4794 06fb 0300     		.2byte	0x3
 4795 06fd 91       		.byte	0x91
 4796 06fe 48       		.sleb128 -56
 4797 06ff 9F       		.byte	0x9f
 4798 0700 9C000000 		.4byte	.LVL22
 4799 0704 9F000000 		.4byte	.LVL23-1
 4800 0708 0100     		.2byte	0x1
 4801 070a 50       		.byte	0x50
 4802 070b 9F000000 		.4byte	.LVL23-1
 4803 070f E6000000 		.4byte	.LVL34
 4804 0713 0300     		.2byte	0x3
 4805 0715 91       		.byte	0x91
 4806 0716 48       		.sleb128 -56
 4807 0717 9F       		.byte	0x9f
 4808 0718 E6000000 		.4byte	.LVL34
 4809 071c F1000000 		.4byte	.LVL35-1
ARM GAS  /tmp/cclxi6yR.s 			page 86


 4810 0720 0100     		.2byte	0x1
 4811 0722 50       		.byte	0x50
 4812 0723 F1000000 		.4byte	.LVL35-1
 4813 0727 F8000000 		.4byte	.LVL37
 4814 072b 0300     		.2byte	0x3
 4815 072d 91       		.byte	0x91
 4816 072e 48       		.sleb128 -56
 4817 072f 9F       		.byte	0x9f
 4818 0730 F8000000 		.4byte	.LVL37
 4819 0734 FB000000 		.4byte	.LVL38-1
 4820 0738 0100     		.2byte	0x1
 4821 073a 50       		.byte	0x50
 4822 073b FB000000 		.4byte	.LVL38-1
 4823 073f 0A010000 		.4byte	.LVL41
 4824 0743 0300     		.2byte	0x3
 4825 0745 91       		.byte	0x91
 4826 0746 48       		.sleb128 -56
 4827 0747 9F       		.byte	0x9f
 4828 0748 0A010000 		.4byte	.LVL41
 4829 074c 0D010000 		.4byte	.LVL42-1
 4830 0750 0100     		.2byte	0x1
 4831 0752 50       		.byte	0x50
 4832 0753 0D010000 		.4byte	.LVL42-1
 4833 0757 46010000 		.4byte	.LVL48
 4834 075b 0300     		.2byte	0x3
 4835 075d 91       		.byte	0x91
 4836 075e 48       		.sleb128 -56
 4837 075f 9F       		.byte	0x9f
 4838 0760 46010000 		.4byte	.LVL48
 4839 0764 4B010000 		.4byte	.LVL49-1
 4840 0768 0100     		.2byte	0x1
 4841 076a 50       		.byte	0x50
 4842 076b 4B010000 		.4byte	.LVL49-1
 4843 076f 54010000 		.4byte	.LVL51
 4844 0773 0300     		.2byte	0x3
 4845 0775 91       		.byte	0x91
 4846 0776 48       		.sleb128 -56
 4847 0777 9F       		.byte	0x9f
 4848 0778 54010000 		.4byte	.LVL51
 4849 077c 57010000 		.4byte	.LVL52-1
 4850 0780 0100     		.2byte	0x1
 4851 0782 50       		.byte	0x50
 4852 0783 57010000 		.4byte	.LVL52-1
 4853 0787 5E010000 		.4byte	.LVL54
 4854 078b 0300     		.2byte	0x3
 4855 078d 91       		.byte	0x91
 4856 078e 48       		.sleb128 -56
 4857 078f 9F       		.byte	0x9f
 4858 0790 5E010000 		.4byte	.LVL54
 4859 0794 63010000 		.4byte	.LVL56-1
 4860 0798 0100     		.2byte	0x1
 4861 079a 50       		.byte	0x50
 4862 079b 63010000 		.4byte	.LVL56-1
 4863 079f 6A010000 		.4byte	.LVL58
 4864 07a3 0300     		.2byte	0x3
 4865 07a5 91       		.byte	0x91
 4866 07a6 48       		.sleb128 -56
ARM GAS  /tmp/cclxi6yR.s 			page 87


 4867 07a7 9F       		.byte	0x9f
 4868 07a8 6A010000 		.4byte	.LVL58
 4869 07ac 6D010000 		.4byte	.LVL59-1
 4870 07b0 0100     		.2byte	0x1
 4871 07b2 50       		.byte	0x50
 4872 07b3 6D010000 		.4byte	.LVL59-1
 4873 07b7 74010000 		.4byte	.LVL61
 4874 07bb 0300     		.2byte	0x3
 4875 07bd 91       		.byte	0x91
 4876 07be 48       		.sleb128 -56
 4877 07bf 9F       		.byte	0x9f
 4878 07c0 74010000 		.4byte	.LVL61
 4879 07c4 77010000 		.4byte	.LVL62-1
 4880 07c8 0100     		.2byte	0x1
 4881 07ca 50       		.byte	0x50
 4882 07cb 77010000 		.4byte	.LVL62-1
 4883 07cf 7E010000 		.4byte	.LVL64
 4884 07d3 0300     		.2byte	0x3
 4885 07d5 91       		.byte	0x91
 4886 07d6 48       		.sleb128 -56
 4887 07d7 9F       		.byte	0x9f
 4888 07d8 7E010000 		.4byte	.LVL64
 4889 07dc 81010000 		.4byte	.LVL65-1
 4890 07e0 0100     		.2byte	0x1
 4891 07e2 50       		.byte	0x50
 4892 07e3 81010000 		.4byte	.LVL65-1
 4893 07e7 92010000 		.4byte	.LVL68
 4894 07eb 0300     		.2byte	0x3
 4895 07ed 91       		.byte	0x91
 4896 07ee 48       		.sleb128 -56
 4897 07ef 9F       		.byte	0x9f
 4898 07f0 92010000 		.4byte	.LVL68
 4899 07f4 95010000 		.4byte	.LVL69-1
 4900 07f8 0100     		.2byte	0x1
 4901 07fa 50       		.byte	0x50
 4902 07fb 95010000 		.4byte	.LVL69-1
 4903 07ff C6010000 		.4byte	.LVL73
 4904 0803 0300     		.2byte	0x3
 4905 0805 91       		.byte	0x91
 4906 0806 48       		.sleb128 -56
 4907 0807 9F       		.byte	0x9f
 4908 0808 C6010000 		.4byte	.LVL73
 4909 080c C9010000 		.4byte	.LVL74-1
 4910 0810 0100     		.2byte	0x1
 4911 0812 50       		.byte	0x50
 4912 0813 C9010000 		.4byte	.LVL74-1
 4913 0817 D0010000 		.4byte	.LVL76
 4914 081b 0300     		.2byte	0x3
 4915 081d 91       		.byte	0x91
 4916 081e 48       		.sleb128 -56
 4917 081f 9F       		.byte	0x9f
 4918 0820 D0010000 		.4byte	.LVL76
 4919 0824 D3010000 		.4byte	.LVL77-1
 4920 0828 0100     		.2byte	0x1
 4921 082a 50       		.byte	0x50
 4922 082b D3010000 		.4byte	.LVL77-1
 4923 082f 36020000 		.4byte	.LVL90
ARM GAS  /tmp/cclxi6yR.s 			page 88


 4924 0833 0300     		.2byte	0x3
 4925 0835 91       		.byte	0x91
 4926 0836 48       		.sleb128 -56
 4927 0837 9F       		.byte	0x9f
 4928 0838 36020000 		.4byte	.LVL90
 4929 083c 39020000 		.4byte	.LVL91-1
 4930 0840 0100     		.2byte	0x1
 4931 0842 50       		.byte	0x50
 4932 0843 39020000 		.4byte	.LVL91-1
 4933 0847 40020000 		.4byte	.LVL93
 4934 084b 0300     		.2byte	0x3
 4935 084d 91       		.byte	0x91
 4936 084e 48       		.sleb128 -56
 4937 084f 9F       		.byte	0x9f
 4938 0850 40020000 		.4byte	.LVL93
 4939 0854 43020000 		.4byte	.LVL94-1
 4940 0858 0100     		.2byte	0x1
 4941 085a 50       		.byte	0x50
 4942 085b 43020000 		.4byte	.LVL94-1
 4943 085f 98020000 		.4byte	.LVL107
 4944 0863 0300     		.2byte	0x3
 4945 0865 91       		.byte	0x91
 4946 0866 48       		.sleb128 -56
 4947 0867 9F       		.byte	0x9f
 4948 0868 98020000 		.4byte	.LVL107
 4949 086c 9B020000 		.4byte	.LVL108-1
 4950 0870 0100     		.2byte	0x1
 4951 0872 50       		.byte	0x50
 4952 0873 9B020000 		.4byte	.LVL108-1
 4953 0877 A6020000 		.4byte	.LVL111
 4954 087b 0300     		.2byte	0x3
 4955 087d 91       		.byte	0x91
 4956 087e 48       		.sleb128 -56
 4957 087f 9F       		.byte	0x9f
 4958 0880 A6020000 		.4byte	.LVL111
 4959 0884 A9020000 		.4byte	.LVL112-1
 4960 0888 0100     		.2byte	0x1
 4961 088a 50       		.byte	0x50
 4962 088b A9020000 		.4byte	.LVL112-1
 4963 088f AC030000 		.4byte	.LFE45
 4964 0893 0300     		.2byte	0x3
 4965 0895 91       		.byte	0x91
 4966 0896 48       		.sleb128 -56
 4967 0897 9F       		.byte	0x9f
 4968 0898 00000000 		.4byte	0
 4969 089c 00000000 		.4byte	0
 4970              		.section	.debug_aranges,"",%progbits
 4971 0000 1C000000 		.4byte	0x1c
 4972 0004 0200     		.2byte	0x2
 4973 0006 00000000 		.4byte	.Ldebug_info0
 4974 000a 04       		.byte	0x4
 4975 000b 00       		.byte	0
 4976 000c 0000     		.2byte	0
 4977 000e 0000     		.2byte	0
 4978 0010 00000000 		.4byte	.LFB45
 4979 0014 AC030000 		.4byte	.LFE45-.LFB45
 4980 0018 00000000 		.4byte	0
ARM GAS  /tmp/cclxi6yR.s 			page 89


 4981 001c 00000000 		.4byte	0
 4982              		.section	.debug_ranges,"",%progbits
 4983              	.Ldebug_ranges0:
 4984 0000 26000000 		.4byte	.LBB80
 4985 0004 2A000000 		.4byte	.LBE80
 4986 0008 64000000 		.4byte	.LBB119
 4987 000c 6C000000 		.4byte	.LBE119
 4988 0010 00000000 		.4byte	0
 4989 0014 00000000 		.4byte	0
 4990 0018 2C000000 		.4byte	.LBB83
 4991 001c 34000000 		.4byte	.LBE83
 4992 0020 3A000000 		.4byte	.LBB118
 4993 0024 64000000 		.4byte	.LBE118
 4994 0028 88000000 		.4byte	.LBB120
 4995 002c F8010000 		.4byte	.LBE120
 4996 0030 FE010000 		.4byte	.LBB121
 4997 0034 AC030000 		.4byte	.LBE121
 4998 0038 00000000 		.4byte	0
 4999 003c 00000000 		.4byte	0
 5000 0040 2C000000 		.4byte	.LBB84
 5001 0044 30000000 		.4byte	.LBE84
 5002 0048 C6020000 		.4byte	.LBB112
 5003 004c D0020000 		.4byte	.LBE112
 5004 0050 00000000 		.4byte	0
 5005 0054 00000000 		.4byte	0
 5006 0058 30000000 		.4byte	.LBB85
 5007 005c 34000000 		.4byte	.LBE85
 5008 0060 28030000 		.4byte	.LBB114
 5009 0064 36030000 		.4byte	.LBE114
 5010 0068 76030000 		.4byte	.LBB115
 5011 006c 82030000 		.4byte	.LBE115
 5012 0070 00000000 		.4byte	0
 5013 0074 00000000 		.4byte	0
 5014 0078 98000000 		.4byte	.LBB86
 5015 007c 06010000 		.4byte	.LBE86
 5016 0080 2C020000 		.4byte	.LBB106
 5017 0084 32020000 		.4byte	.LBE106
 5018 0088 34020000 		.4byte	.LBB108
 5019 008c 4C020000 		.4byte	.LBE108
 5020 0090 94020000 		.4byte	.LBB110
 5021 0094 A2020000 		.4byte	.LBE110
 5022 0098 00000000 		.4byte	0
 5023 009c 00000000 		.4byte	0
 5024 00a0 CC000000 		.4byte	.LBB89
 5025 00a4 CE000000 		.4byte	.LBE89
 5026 00a8 D2000000 		.4byte	.LBB93
 5027 00ac DA000000 		.4byte	.LBE93
 5028 00b0 2C020000 		.4byte	.LBB94
 5029 00b4 32020000 		.4byte	.LBE94
 5030 00b8 00000000 		.4byte	0
 5031 00bc 00000000 		.4byte	0
 5032 00c0 06010000 		.4byte	.LBB95
 5033 00c4 8A010000 		.4byte	.LBE95
 5034 00c8 DE010000 		.4byte	.LBB104
 5035 00cc EA010000 		.4byte	.LBE104
 5036 00d0 FE010000 		.4byte	.LBB105
 5037 00d4 04020000 		.4byte	.LBE105
ARM GAS  /tmp/cclxi6yR.s 			page 90


 5038 00d8 32020000 		.4byte	.LBB107
 5039 00dc 34020000 		.4byte	.LBE107
 5040 00e0 A2020000 		.4byte	.LBB111
 5041 00e4 B4020000 		.4byte	.LBE111
 5042 00e8 00000000 		.4byte	0
 5043 00ec 00000000 		.4byte	0
 5044 00f0 26010000 		.4byte	.LBB96
 5045 00f4 28010000 		.4byte	.LBE96
 5046 00f8 2E010000 		.4byte	.LBB100
 5047 00fc 34010000 		.4byte	.LBE100
 5048 0100 FE010000 		.4byte	.LBB101
 5049 0104 04020000 		.4byte	.LBE101
 5050 0108 00000000 		.4byte	0
 5051 010c 00000000 		.4byte	0
 5052 0110 00000000 		.4byte	.LFB45
 5053 0114 AC030000 		.4byte	.LFE45
 5054 0118 00000000 		.4byte	0
 5055 011c 00000000 		.4byte	0
 5056              		.section	.debug_line,"",%progbits
 5057              	.Ldebug_line0:
 5058 0000 EC020000 		.section	.debug_str,"MS",%progbits,1
 5058      02006201 
 5058      00000201 
 5058      FB0E0D00 
 5058      01010101 
 5059              	.LASF149:
 5060 0000 6C626D5F 		.ascii	"lbm_stack_is_empty\000"
 5060      73746163 
 5060      6B5F6973 
 5060      5F656D70 
 5060      747900
 5061              	.LASF140:
 5062 0013 7374725F 		.ascii	"str_ptr\000"
 5062      70747200 
 5063              	.LASF37:
 5064 001b 5F6F6E5F 		.ascii	"_on_exit_args\000"
 5064      65786974 
 5064      5F617267 
 5064      7300
 5065              	.LASF105:
 5066 0029 5F776374 		.ascii	"_wctomb_state\000"
 5066      6F6D625F 
 5066      73746174 
 5066      6500
 5067              	.LASF150:
 5068 0037 6C626D5F 		.ascii	"lbm_dec_sym\000"
 5068      6465635F 
 5068      73796D00 
 5069              	.LASF102:
 5070 0043 5F723438 		.ascii	"_r48\000"
 5070      00
 5071              	.LASF107:
 5072 0048 5F736967 		.ascii	"_signal_buf\000"
 5072      6E616C5F 
 5072      62756600 
 5073              	.LASF10:
 5074 0054 756E7369 		.ascii	"unsigned int\000"
ARM GAS  /tmp/cclxi6yR.s 			page 91


 5074      676E6564 
 5074      20696E74 
 5074      00
 5075              	.LASF159:
 5076 0061 6C626D5F 		.ascii	"lbm_push_u32\000"
 5076      70757368 
 5076      5F753332 
 5076      00
 5077              	.LASF51:
 5078 006e 5F6C6266 		.ascii	"_lbfsize\000"
 5078      73697A65 
 5078      00
 5079              	.LASF49:
 5080 0077 5F666C61 		.ascii	"_flags\000"
 5080      677300
 5081              	.LASF137:
 5082 007e 6661696C 		.ascii	"failed_str\000"
 5082      65645F73 
 5082      747200
 5083              	.LASF5:
 5084 0089 5F5F696E 		.ascii	"__int32_t\000"
 5084      7433325F 
 5084      7400
 5085              	.LASF66:
 5086 0093 5F657272 		.ascii	"_errno\000"
 5086      6E6F00
 5087              	.LASF63:
 5088 009a 5F6D6273 		.ascii	"_mbstate\000"
 5088      74617465 
 5088      00
 5089              	.LASF133:
 5090 00a3 6C626D5F 		.ascii	"lbm_array_header_t\000"
 5090      61727261 
 5090      795F6865 
 5090      61646572 
 5090      5F7400
 5091              	.LASF53:
 5092 00b6 5F726561 		.ascii	"_read\000"
 5092      6400
 5093              	.LASF109:
 5094 00bc 5F6D6272 		.ascii	"_mbrlen_state\000"
 5094      6C656E5F 
 5094      73746174 
 5094      6500
 5095              	.LASF146:
 5096 00ca 76616C30 		.ascii	"val0\000"
 5096      00
 5097              	.LASF147:
 5098 00cf 76616C31 		.ascii	"val1\000"
 5098      00
 5099              	.LASF68:
 5100 00d4 5F737464 		.ascii	"_stdout\000"
 5100      6F757400 
 5101              	.LASF142:
 5102 00dc 696E7374 		.ascii	"instr\000"
 5102      7200
 5103              	.LASF13:
ARM GAS  /tmp/cclxi6yR.s 			page 92


 5104 00e2 5F66706F 		.ascii	"_fpos_t\000"
 5104      735F7400 
 5105              	.LASF161:
 5106 00ea 6C626D5F 		.ascii	"lbm_stack_create\000"
 5106      73746163 
 5106      6B5F6372 
 5106      65617465 
 5106      00
 5107              	.LASF44:
 5108 00fb 5F666E73 		.ascii	"_fns\000"
 5108      00
 5109              	.LASF52:
 5110 0100 5F636F6F 		.ascii	"_cookie\000"
 5110      6B696500 
 5111              	.LASF26:
 5112 0108 5F426967 		.ascii	"_Bigint\000"
 5112      696E7400 
 5113              	.LASF34:
 5114 0110 5F5F746D 		.ascii	"__tm_wday\000"
 5114      5F776461 
 5114      7900
 5115              	.LASF76:
 5116 011a 5F726573 		.ascii	"_result\000"
 5116      756C7400 
 5117              	.LASF123:
 5118 0122 75696E74 		.ascii	"uint32_t\000"
 5118      33325F74 
 5118      00
 5119              	.LASF30:
 5120 012b 5F5F746D 		.ascii	"__tm_hour\000"
 5120      5F686F75 
 5120      7200
 5121              	.LASF17:
 5122 0135 5F5F636F 		.ascii	"__count\000"
 5122      756E7400 
 5123              	.LASF128:
 5124 013d 666C6F61 		.ascii	"float\000"
 5124      7400
 5125              	.LASF29:
 5126 0143 5F5F746D 		.ascii	"__tm_min\000"
 5126      5F6D696E 
 5126      00
 5127              	.LASF120:
 5128 014c 5F696D70 		.ascii	"_impure_ptr\000"
 5128      7572655F 
 5128      70747200 
 5129              	.LASF115:
 5130 0158 5F6E6578 		.ascii	"_nextf\000"
 5130      746600
 5131              	.LASF162:
 5132 015f 474E5520 		.ascii	"GNU C99 7.3.1 20180622 (release) [ARM/embedded-7-br"
 5132      43393920 
 5132      372E332E 
 5132      31203230 
 5132      31383036 
 5133 0192 616E6368 		.ascii	"anch revision 261907] -mcpu=cortex-m4 -mfloat-abi=h"
 5133      20726576 
ARM GAS  /tmp/cclxi6yR.s 			page 93


 5133      6973696F 
 5133      6E203236 
 5133      31393037 
 5134 01c5 61726420 		.ascii	"ard -mfpu=fpv4-sp-d16 -mno-thumb-interwork -mthumb "
 5134      2D6D6670 
 5134      753D6670 
 5134      76342D73 
 5134      702D6431 
 5135 01f8 2D676764 		.ascii	"-ggdb -O2 -std=gnu99 -fomit-frame-pointer -falign-f"
 5135      62202D4F 
 5135      32202D73 
 5135      74643D67 
 5135      6E753939 
 5136 022b 756E6374 		.ascii	"unctions=16 -ffunction-sections -fdata-sections -fn"
 5136      696F6E73 
 5136      3D313620 
 5136      2D666675 
 5136      6E637469 
 5137 025e 6F2D636F 		.ascii	"o-common -fsingle-precision-constant\000"
 5137      6D6D6F6E 
 5137      202D6673 
 5137      696E676C 
 5137      652D7072 
 5138              	.LASF92:
 5139 0283 5F72616E 		.ascii	"_rand48\000"
 5139      64343800 
 5140              	.LASF77:
 5141 028b 5F726573 		.ascii	"_result_k\000"
 5141      756C745F 
 5141      6B00
 5142              	.LASF9:
 5143 0295 6C6F6E67 		.ascii	"long long unsigned int\000"
 5143      206C6F6E 
 5143      6720756E 
 5143      7369676E 
 5143      65642069 
 5144              	.LASF98:
 5145 02ac 5F617363 		.ascii	"_asctime_buf\000"
 5145      74696D65 
 5145      5F627566 
 5145      00
 5146              	.LASF139:
 5147 02b9 6F666673 		.ascii	"offset\000"
 5147      657400
 5148              	.LASF48:
 5149 02c0 5F5F7346 		.ascii	"__sFILE\000"
 5149      494C4500 
 5150              	.LASF25:
 5151 02c8 5F776473 		.ascii	"_wds\000"
 5151      00
 5152              	.LASF135:
 5153 02cd 6D61785F 		.ascii	"max_sp\000"
 5153      737000
 5154              	.LASF88:
 5155 02d4 5F5F4649 		.ascii	"__FILE\000"
 5155      4C4500
 5156              	.LASF60:
ARM GAS  /tmp/cclxi6yR.s 			page 94


 5157 02db 5F6F6666 		.ascii	"_offset\000"
 5157      73657400 
 5158              	.LASF71:
 5159 02e3 5F656D65 		.ascii	"_emergency\000"
 5159      7267656E 
 5159      637900
 5160              	.LASF124:
 5161 02ee 6C626D5F 		.ascii	"lbm_value\000"
 5161      76616C75 
 5161      6500
 5162              	.LASF28:
 5163 02f8 5F5F746D 		.ascii	"__tm_sec\000"
 5163      5F736563 
 5163      00
 5164              	.LASF134:
 5165 0301 7375626F 		.ascii	"suboptarg\000"
 5165      70746172 
 5165      6700
 5166              	.LASF35:
 5167 030b 5F5F746D 		.ascii	"__tm_yday\000"
 5167      5F796461 
 5167      7900
 5168              	.LASF70:
 5169 0315 5F696E63 		.ascii	"_inc\000"
 5169      00
 5170              	.LASF43:
 5171 031a 5F696E64 		.ascii	"_ind\000"
 5171      00
 5172              	.LASF154:
 5173 031f 6C626D5F 		.ascii	"lbm_type_of\000"
 5173      74797065 
 5173      5F6F6600 
 5174              	.LASF22:
 5175 032b 5F6E6578 		.ascii	"_next\000"
 5175      7400
 5176              	.LASF111:
 5177 0331 5F6D6273 		.ascii	"_mbsrtowcs_state\000"
 5177      72746F77 
 5177      63735F73 
 5177      74617465 
 5177      00
 5178              	.LASF18:
 5179 0342 5F5F7661 		.ascii	"__value\000"
 5179      6C756500 
 5180              	.LASF78:
 5181 034a 5F703573 		.ascii	"_p5s\000"
 5181      00
 5182              	.LASF155:
 5183 034f 6C626D5F 		.ascii	"lbm_pop_u32\000"
 5183      706F705F 
 5183      75333200 
 5184              	.LASF113:
 5185 035b 5F776373 		.ascii	"_wcsrtombs_state\000"
 5185      72746F6D 
 5185      62735F73 
 5185      74617465 
 5185      00
ARM GAS  /tmp/cclxi6yR.s 			page 95


 5186              	.LASF103:
 5187 036c 5F6D626C 		.ascii	"_mblen_state\000"
 5187      656E5F73 
 5187      74617465 
 5187      00
 5188              	.LASF145:
 5189 0379 61727261 		.ascii	"array\000"
 5189      7900
 5190              	.LASF87:
 5191 037f 63686172 		.ascii	"char\000"
 5191      00
 5192              	.LASF31:
 5193 0384 5F5F746D 		.ascii	"__tm_mday\000"
 5193      5F6D6461 
 5193      7900
 5194              	.LASF84:
 5195 038e 5F736967 		.ascii	"_sig_func\000"
 5195      5F66756E 
 5195      6300
 5196              	.LASF110:
 5197 0398 5F6D6272 		.ascii	"_mbrtowc_state\000"
 5197      746F7763 
 5197      5F737461 
 5197      746500
 5198              	.LASF83:
 5199 03a7 5F617465 		.ascii	"_atexit0\000"
 5199      78697430 
 5199      00
 5200              	.LASF20:
 5201 03b0 5F666C6F 		.ascii	"_flock_t\000"
 5201      636B5F74 
 5201      00
 5202              	.LASF15:
 5203 03b9 5F5F7763 		.ascii	"__wch\000"
 5203      6800
 5204              	.LASF91:
 5205 03bf 5F696F62 		.ascii	"_iobs\000"
 5205      7300
 5206              	.LASF56:
 5207 03c5 5F636C6F 		.ascii	"_close\000"
 5207      736500
 5208              	.LASF74:
 5209 03cc 5F5F7364 		.ascii	"__sdidinit\000"
 5209      6964696E 
 5209      697400
 5210              	.LASF138:
 5211 03d7 73746163 		.ascii	"stack_storage\000"
 5211      6B5F7374 
 5211      6F726167 
 5211      6500
 5212              	.LASF67:
 5213 03e5 5F737464 		.ascii	"_stdin\000"
 5213      696E00
 5214              	.LASF100:
 5215 03ec 5F67616D 		.ascii	"_gamma_signgam\000"
 5215      6D615F73 
 5215      69676E67 
ARM GAS  /tmp/cclxi6yR.s 			page 96


 5215      616D00
 5216              	.LASF163:
 5217 03fb 6C697370 		.ascii	"lispBM/lispBM/src/print.c\000"
 5217      424D2F6C 
 5217      69737042 
 5217      4D2F7372 
 5217      632F7072 
 5218              	.LASF8:
 5219 0415 6C6F6E67 		.ascii	"long long int\000"
 5219      206C6F6E 
 5219      6720696E 
 5219      7400
 5220              	.LASF46:
 5221 0423 5F626173 		.ascii	"_base\000"
 5221      6500
 5222              	.LASF79:
 5223 0429 5F667265 		.ascii	"_freelist\000"
 5223      656C6973 
 5223      7400
 5224              	.LASF94:
 5225 0433 5F6D756C 		.ascii	"_mult\000"
 5225      7400
 5226              	.LASF21:
 5227 0439 5F5F554C 		.ascii	"__ULong\000"
 5227      6F6E6700 
 5228              	.LASF112:
 5229 0441 5F776372 		.ascii	"_wcrtomb_state\000"
 5229      746F6D62 
 5229      5F737461 
 5229      746500
 5230              	.LASF50:
 5231 0450 5F66696C 		.ascii	"_file\000"
 5231      6500
 5232              	.LASF144:
 5233 0456 6364725F 		.ascii	"cdr_val\000"
 5233      76616C00 
 5234              	.LASF125:
 5235 045e 6C626D5F 		.ascii	"lbm_type\000"
 5235      74797065 
 5235      00
 5236              	.LASF75:
 5237 0467 5F5F636C 		.ascii	"__cleanup\000"
 5237      65616E75 
 5237      7000
 5238              	.LASF19:
 5239 0471 5F6D6273 		.ascii	"_mbstate_t\000"
 5239      74617465 
 5239      5F7400
 5240              	.LASF151:
 5241 047c 6C626D5F 		.ascii	"lbm_dec_char\000"
 5241      6465635F 
 5241      63686172 
 5241      00
 5242              	.LASF156:
 5243 0489 736E7072 		.ascii	"snprintf\000"
 5243      696E7466 
 5243      00
ARM GAS  /tmp/cclxi6yR.s 			page 97


 5244              	.LASF131:
 5245 0492 73697A65 		.ascii	"size\000"
 5245      00
 5246              	.LASF36:
 5247 0497 5F5F746D 		.ascii	"__tm_isdst\000"
 5247      5F697364 
 5247      737400
 5248              	.LASF114:
 5249 04a2 5F685F65 		.ascii	"_h_errno\000"
 5249      72726E6F 
 5249      00
 5250              	.LASF136:
 5251 04ab 6C626D5F 		.ascii	"lbm_stack_t\000"
 5251      73746163 
 5251      6B5F7400 
 5252              	.LASF129:
 5253 04b7 5F426F6F 		.ascii	"_Bool\000"
 5253      6C00
 5254              	.LASF132:
 5255 04bd 64617461 		.ascii	"data\000"
 5255      00
 5256              	.LASF164:
 5257 04c2 2F626C64 		.ascii	"/bldc\000"
 5257      6300
 5258              	.LASF32:
 5259 04c8 5F5F746D 		.ascii	"__tm_mon\000"
 5259      5F6D6F6E 
 5259      00
 5260              	.LASF11:
 5261 04d1 5F4C4F43 		.ascii	"_LOCK_T\000"
 5261      4B5F5400 
 5262              	.LASF54:
 5263 04d9 5F777269 		.ascii	"_write\000"
 5263      746500
 5264              	.LASF126:
 5265 04e0 6C626D5F 		.ascii	"lbm_uint\000"
 5265      75696E74 
 5265      00
 5266              	.LASF157:
 5267 04e9 6C626D5F 		.ascii	"lbm_car\000"
 5267      63617200 
 5268              	.LASF42:
 5269 04f1 5F617465 		.ascii	"_atexit\000"
 5269      78697400 
 5270              	.LASF2:
 5271 04f9 73686F72 		.ascii	"short int\000"
 5271      7420696E 
 5271      7400
 5272              	.LASF141:
 5273 0503 63757272 		.ascii	"curr\000"
 5273      00
 5274              	.LASF4:
 5275 0508 6C6F6E67 		.ascii	"long int\000"
 5275      20696E74 
 5275      00
 5276              	.LASF86:
 5277 0511 5F5F7366 		.ascii	"__sf\000"
ARM GAS  /tmp/cclxi6yR.s 			page 98


 5277      00
 5278              	.LASF24:
 5279 0516 5F736967 		.ascii	"_sign\000"
 5279      6E00
 5280              	.LASF143:
 5281 051c 6361725F 		.ascii	"car_val\000"
 5281      76616C00 
 5282              	.LASF61:
 5283 0524 5F646174 		.ascii	"_data\000"
 5283      6100
 5284              	.LASF16:
 5285 052a 5F5F7763 		.ascii	"__wchb\000"
 5285      686200
 5286              	.LASF121:
 5287 0531 5F676C6F 		.ascii	"_global_impure_ptr\000"
 5287      62616C5F 
 5287      696D7075 
 5287      72655F70 
 5287      747200
 5288              	.LASF33:
 5289 0544 5F5F746D 		.ascii	"__tm_year\000"
 5289      5F796561 
 5289      7200
 5290              	.LASF99:
 5291 054e 5F6C6F63 		.ascii	"_localtime_buf\000"
 5291      616C7469 
 5291      6D655F62 
 5291      756600
 5292              	.LASF117:
 5293 055d 5F756E75 		.ascii	"_unused\000"
 5293      73656400 
 5294              	.LASF82:
 5295 0565 5F6E6577 		.ascii	"_new\000"
 5295      00
 5296              	.LASF148:
 5297 056a 6C626D5F 		.ascii	"lbm_push_u32_2\000"
 5297      70757368 
 5297      5F753332 
 5297      5F3200
 5298              	.LASF80:
 5299 0579 5F637674 		.ascii	"_cvtlen\000"
 5299      6C656E00 
 5300              	.LASF23:
 5301 0581 5F6D6178 		.ascii	"_maxwds\000"
 5301      77647300 
 5302              	.LASF106:
 5303 0589 5F6C3634 		.ascii	"_l64a_buf\000"
 5303      615F6275 
 5303      6600
 5304              	.LASF59:
 5305 0593 5F626C6B 		.ascii	"_blksize\000"
 5305      73697A65 
 5305      00
 5306              	.LASF27:
 5307 059c 5F5F746D 		.ascii	"__tm\000"
 5307      00
 5308              	.LASF62:
ARM GAS  /tmp/cclxi6yR.s 			page 99


 5309 05a1 5F6C6F63 		.ascii	"_lock\000"
 5309      6B00
 5310              	.LASF7:
 5311 05a7 6C6F6E67 		.ascii	"long unsigned int\000"
 5311      20756E73 
 5311      69676E65 
 5311      6420696E 
 5311      7400
 5312              	.LASF90:
 5313 05b9 5F6E696F 		.ascii	"_niobs\000"
 5313      627300
 5314              	.LASF14:
 5315 05c0 77696E74 		.ascii	"wint_t\000"
 5315      5F7400
 5316              	.LASF122:
 5317 05c7 696E7433 		.ascii	"int32_t\000"
 5317      325F7400 
 5318              	.LASF130:
 5319 05cf 656C745F 		.ascii	"elt_type\000"
 5319      74797065 
 5319      00
 5320              	.LASF39:
 5321 05d8 5F64736F 		.ascii	"_dso_handle\000"
 5321      5F68616E 
 5321      646C6500 
 5322              	.LASF118:
 5323 05e4 5F5F6C6F 		.ascii	"__lock\000"
 5323      636B00
 5324              	.LASF81:
 5325 05eb 5F637674 		.ascii	"_cvtbuf\000"
 5325      62756600 
 5326              	.LASF1:
 5327 05f3 756E7369 		.ascii	"unsigned char\000"
 5327      676E6564 
 5327      20636861 
 5327      7200
 5328              	.LASF6:
 5329 0601 5F5F7569 		.ascii	"__uint32_t\000"
 5329      6E743332 
 5329      5F7400
 5330              	.LASF158:
 5331 060c 6C626D5F 		.ascii	"lbm_cdr\000"
 5331      63647200 
 5332              	.LASF108:
 5333 0614 5F676574 		.ascii	"_getdate_err\000"
 5333      64617465 
 5333      5F657272 
 5333      00
 5334              	.LASF165:
 5335 0621 6C626D5F 		.ascii	"lbm_print_value\000"
 5335      7072696E 
 5335      745F7661 
 5335      6C756500 
 5336              	.LASF95:
 5337 0631 5F616464 		.ascii	"_add\000"
 5337      00
 5338              	.LASF45:
ARM GAS  /tmp/cclxi6yR.s 			page 100


 5339 0636 5F5F7362 		.ascii	"__sbuf\000"
 5339      756600
 5340              	.LASF127:
 5341 063d 6C626D5F 		.ascii	"lbm_int\000"
 5341      696E7400 
 5342              	.LASF89:
 5343 0645 5F676C75 		.ascii	"_glue\000"
 5343      6500
 5344              	.LASF85:
 5345 064b 5F5F7367 		.ascii	"__sglue\000"
 5345      6C756500 
 5346              	.LASF97:
 5347 0653 5F737472 		.ascii	"_strtok_last\000"
 5347      746F6B5F 
 5347      6C617374 
 5347      00
 5348              	.LASF104:
 5349 0660 5F6D6274 		.ascii	"_mbtowc_state\000"
 5349      6F77635F 
 5349      73746174 
 5349      6500
 5350              	.LASF160:
 5351 066e 6C626D5F 		.ascii	"lbm_get_name_by_symbol\000"
 5351      6765745F 
 5351      6E616D65 
 5351      5F62795F 
 5351      73796D62 
 5352              	.LASF153:
 5353 0685 6C626D5F 		.ascii	"lbm_dec_i\000"
 5353      6465635F 
 5353      6900
 5354              	.LASF73:
 5355 068f 5F6C6F63 		.ascii	"_locale\000"
 5355      616C6500 
 5356              	.LASF38:
 5357 0697 5F666E61 		.ascii	"_fnargs\000"
 5357      72677300 
 5358              	.LASF0:
 5359 069f 7369676E 		.ascii	"signed char\000"
 5359      65642063 
 5359      68617200 
 5360              	.LASF152:
 5361 06ab 6C626D5F 		.ascii	"lbm_dec_u\000"
 5361      6465635F 
 5361      7500
 5362              	.LASF65:
 5363 06b5 5F726565 		.ascii	"_reent\000"
 5363      6E7400
 5364              	.LASF3:
 5365 06bc 73686F72 		.ascii	"short unsigned int\000"
 5365      7420756E 
 5365      7369676E 
 5365      65642069 
 5365      6E7400
 5366              	.LASF40:
 5367 06cf 5F666E74 		.ascii	"_fntypes\000"
 5367      79706573 
ARM GAS  /tmp/cclxi6yR.s 			page 101


 5367      00
 5368              	.LASF47:
 5369 06d8 5F73697A 		.ascii	"_size\000"
 5369      6500
 5370              	.LASF12:
 5371 06de 5F6F6666 		.ascii	"_off_t\000"
 5371      5F7400
 5372              	.LASF58:
 5373 06e5 5F6E6275 		.ascii	"_nbuf\000"
 5373      6600
 5374              	.LASF96:
 5375 06eb 5F756E75 		.ascii	"_unused_rand\000"
 5375      7365645F 
 5375      72616E64 
 5375      00
 5376              	.LASF72:
 5377 06f8 5F756E73 		.ascii	"_unspecified_locale_info\000"
 5377      70656369 
 5377      66696564 
 5377      5F6C6F63 
 5377      616C655F 
 5378              	.LASF64:
 5379 0711 5F666C61 		.ascii	"_flags2\000"
 5379      67733200 
 5380              	.LASF41:
 5381 0719 5F69735F 		.ascii	"_is_cxa\000"
 5381      63786100 
 5382              	.LASF93:
 5383 0721 5F736565 		.ascii	"_seed\000"
 5383      6400
 5384              	.LASF101:
 5385 0727 5F72616E 		.ascii	"_rand_next\000"
 5385      645F6E65 
 5385      787400
 5386              	.LASF119:
 5387 0732 5F5F6C6F 		.ascii	"__locale_t\000"
 5387      63616C65 
 5387      5F7400
 5388              	.LASF55:
 5389 073d 5F736565 		.ascii	"_seek\000"
 5389      6B00
 5390              	.LASF69:
 5391 0743 5F737464 		.ascii	"_stderr\000"
 5391      65727200 
 5392              	.LASF116:
 5393 074b 5F6E6D61 		.ascii	"_nmalloc\000"
 5393      6C6C6F63 
 5393      00
 5394              	.LASF57:
 5395 0754 5F756275 		.ascii	"_ubuf\000"
 5395      6600
 5396              		.ident	"GCC: (GNU Tools for Arm Embedded Processors 7-2018-q3-update) 7.3.1 20180622 (release) [AR
ARM GAS  /tmp/cclxi6yR.s 			page 102


DEFINED SYMBOLS
                            *ABS*:0000000000000000 print.c
     /tmp/cclxi6yR.s:19     .text.lbm_print_value:0000000000000000 $t
     /tmp/cclxi6yR.s:27     .text.lbm_print_value:0000000000000000 lbm_print_value
     /tmp/cclxi6yR.s:120    .text.lbm_print_value:0000000000000050 $d
     /tmp/cclxi6yR.s:126    .text.lbm_print_value:0000000000000056 $t
     /tmp/cclxi6yR.s:715    .text.lbm_print_value:00000000000002e8 $d
     /tmp/cclxi6yR.s:736    .text.lbm_print_value:0000000000000328 $t
     /tmp/cclxi6yR.s:833    .text.lbm_print_value:0000000000000394 $d
     /tmp/cclxi6yR.s:856    .data.failed_str:0000000000000000 failed_str
     /tmp/cclxi6yR.s:845    .bss.stack_storage:0000000000000000 $d
     /tmp/cclxi6yR.s:849    .bss.stack_storage:0000000000000000 stack_storage
     /tmp/cclxi6yR.s:852    .data.failed_str:0000000000000000 $d
     /tmp/cclxi6yR.s:859    .rodata.lbm_print_value.str1.4:0000000000000000 $d
     /tmp/cclxi6yR.s:916    .rodata.str1.4:0000000000000000 $d

UNDEFINED SYMBOLS
__aeabi_f2d
lbm_stack_create
lbm_push_u32
lbm_pop_u32
snprintf
lbm_car
lbm_cdr
lbm_get_name_by_symbol
