ARM GAS  /tmp/ccqBRpQq.s 			page 1


   1              		.cpu cortex-m4
   2              		.eabi_attribute 27, 1
   3              		.eabi_attribute 28, 1
   4              		.eabi_attribute 20, 1
   5              		.eabi_attribute 21, 1
   6              		.eabi_attribute 23, 3
   7              		.eabi_attribute 24, 1
   8              		.eabi_attribute 25, 1
   9              		.eabi_attribute 26, 1
  10              		.eabi_attribute 30, 2
  11              		.eabi_attribute 34, 1
  12              		.eabi_attribute 18, 4
  13              		.file	"protocol_GetNodeInfo.c"
  14              		.text
  15              	.Ltext0:
  16              		.cfi_sections	.debug_frame
  17              		.section	.text.uavcan_protocol_GetNodeInfoRequest_encode_internal,"ax",%progbits
  18              		.align	1
  19              		.p2align 4,,15
  20              		.global	uavcan_protocol_GetNodeInfoRequest_encode_internal
  21              		.syntax unified
  22              		.thumb
  23              		.thumb_func
  24              		.fpu fpv4-sp-d16
  25              		.type	uavcan_protocol_GetNodeInfoRequest_encode_internal, %function
  26              	uavcan_protocol_GetNodeInfoRequest_encode_internal:
  27              	.LFB0:
  28              		.file 1 "libcanard/dsdl/uavcan/protocol/protocol_GetNodeInfo.c"
  29              		.loc 1 29 0
  30              		.cfi_startproc
  31              		@ args = 0, pretend = 0, frame = 0
  32              		@ frame_needed = 0, uses_anonymous_args = 0
  33              		@ link register save eliminated.
  34              	.LVL0:
  35              		.loc 1 31 0
  36 0000 1046     		mov	r0, r2
  37              	.LVL1:
  38 0002 7047     		bx	lr
  39              		.cfi_endproc
  40              	.LFE0:
  41              		.size	uavcan_protocol_GetNodeInfoRequest_encode_internal, .-uavcan_protocol_GetNodeInfoRequest_enc
  42              		.section	.text.uavcan_protocol_GetNodeInfoRequest_encode,"ax",%progbits
  43              		.align	1
  44              		.p2align 4,,15
  45              		.global	uavcan_protocol_GetNodeInfoRequest_encode
  46              		.syntax unified
  47              		.thumb
  48              		.thumb_func
  49              		.fpu fpv4-sp-d16
  50              		.type	uavcan_protocol_GetNodeInfoRequest_encode, %function
  51              	uavcan_protocol_GetNodeInfoRequest_encode:
  52              	.LFB1:
  53              		.loc 1 34 0
  54              		.cfi_startproc
  55              		@ args = 0, pretend = 0, frame = 0
  56              		@ frame_needed = 0, uses_anonymous_args = 0
  57              		@ link register save eliminated.
ARM GAS  /tmp/ccqBRpQq.s 			page 2


  58              	.LVL2:
  59              		.loc 1 36 0
  60 0000 0020     		movs	r0, #0
  61              	.LVL3:
  62 0002 7047     		bx	lr
  63              		.cfi_endproc
  64              	.LFE1:
  65              		.size	uavcan_protocol_GetNodeInfoRequest_encode, .-uavcan_protocol_GetNodeInfoRequest_encode
  66              		.section	.text.uavcan_protocol_GetNodeInfoRequest_decode_internal,"ax",%progbits
  67              		.align	1
  68              		.p2align 4,,15
  69              		.global	uavcan_protocol_GetNodeInfoRequest_decode_internal
  70              		.syntax unified
  71              		.thumb
  72              		.thumb_func
  73              		.fpu fpv4-sp-d16
  74              		.type	uavcan_protocol_GetNodeInfoRequest_decode_internal, %function
  75              	uavcan_protocol_GetNodeInfoRequest_decode_internal:
  76              	.LFB2:
  77              		.loc 1 43 0
  78              		.cfi_startproc
  79              		@ args = 4, pretend = 0, frame = 0
  80              		@ frame_needed = 0, uses_anonymous_args = 0
  81              		@ link register save eliminated.
  82              	.LVL4:
  83              		.loc 1 45 0
  84 0000 0098     		ldr	r0, [sp]
  85              	.LVL5:
  86 0002 7047     		bx	lr
  87              		.cfi_endproc
  88              	.LFE2:
  89              		.size	uavcan_protocol_GetNodeInfoRequest_decode_internal, .-uavcan_protocol_GetNodeInfoRequest_dec
  90              		.section	.text.uavcan_protocol_GetNodeInfoRequest_decode,"ax",%progbits
  91              		.align	1
  92              		.p2align 4,,15
  93              		.global	uavcan_protocol_GetNodeInfoRequest_decode
  94              		.syntax unified
  95              		.thumb
  96              		.thumb_func
  97              		.fpu fpv4-sp-d16
  98              		.type	uavcan_protocol_GetNodeInfoRequest_decode, %function
  99              	uavcan_protocol_GetNodeInfoRequest_decode:
 100              	.LFB3:
 101              		.loc 1 51 0
 102              		.cfi_startproc
 103              		@ args = 0, pretend = 0, frame = 0
 104              		@ frame_needed = 0, uses_anonymous_args = 0
 105              		@ link register save eliminated.
 106              	.LVL6:
 107              		.loc 1 53 0
 108 0000 0020     		movs	r0, #0
 109              	.LVL7:
 110 0002 7047     		bx	lr
 111              		.cfi_endproc
 112              	.LFE3:
 113              		.size	uavcan_protocol_GetNodeInfoRequest_decode, .-uavcan_protocol_GetNodeInfoRequest_decode
 114              		.section	.text.uavcan_protocol_GetNodeInfoResponse_encode_internal,"ax",%progbits
ARM GAS  /tmp/ccqBRpQq.s 			page 3


 115              		.align	1
 116              		.p2align 4,,15
 117              		.global	uavcan_protocol_GetNodeInfoResponse_encode_internal
 118              		.syntax unified
 119              		.thumb
 120              		.thumb_func
 121              		.fpu fpv4-sp-d16
 122              		.type	uavcan_protocol_GetNodeInfoResponse_encode_internal, %function
 123              	uavcan_protocol_GetNodeInfoResponse_encode_internal:
 124              	.LFB4:
 125              		.loc 1 67 0
 126              		.cfi_startproc
 127              		@ args = 0, pretend = 0, frame = 0
 128              		@ frame_needed = 0, uses_anonymous_args = 0
 129              	.LVL8:
 130 0000 F8B5     		push	{r3, r4, r5, r6, r7, lr}
 131              		.cfi_def_cfa_offset 24
 132              		.cfi_offset 3, -24
 133              		.cfi_offset 4, -20
 134              		.cfi_offset 5, -16
 135              		.cfi_offset 6, -12
 136              		.cfi_offset 7, -8
 137              		.cfi_offset 14, -4
 138              		.loc 1 67 0
 139 0002 1C46     		mov	r4, r3
 140              		.loc 1 71 0
 141 0004 0023     		movs	r3, #0
 142              	.LVL9:
 143              		.loc 1 67 0
 144 0006 0646     		mov	r6, r0
 145 0008 0F46     		mov	r7, r1
 146              		.loc 1 71 0
 147 000a FFF7FEFF 		bl	uavcan_protocol_NodeStatus_encode_internal
 148              	.LVL10:
 149              		.loc 1 74 0
 150 000e 3946     		mov	r1, r7
 151 0010 0246     		mov	r2, r0
 152 0012 0023     		movs	r3, #0
 153 0014 06F11000 		add	r0, r6, #16
 154              	.LVL11:
 155 0018 FFF7FEFF 		bl	uavcan_protocol_SoftwareVersion_encode_internal
 156              	.LVL12:
 157              		.loc 1 77 0
 158 001c 3946     		mov	r1, r7
 159 001e 0246     		mov	r2, r0
 160 0020 0023     		movs	r3, #0
 161 0022 06F12000 		add	r0, r6, #32
 162              	.LVL13:
 163 0026 FFF7FEFF 		bl	uavcan_protocol_HardwareVersion_encode_internal
 164              	.LVL14:
 165 002a 0546     		mov	r5, r0
 166              	.LVL15:
 167              		.loc 1 80 0
 168 002c 9CB1     		cbz	r4, .L15
 169              	.LVL16:
 170              	.L7:
 171              		.loc 1 88 0 discriminator 1
ARM GAS  /tmp/ccqBRpQq.s 			page 4


 172 002e 96F83C30 		ldrb	r3, [r6, #60]	@ zero_extendqisi2
 173 0032 73B1     		cbz	r3, .L6
 174              		.loc 1 88 0 is_stmt 0
 175 0034 0024     		movs	r4, #0
 176              	.LVL17:
 177              	.L9:
 178              		.loc 1 93 0 is_stmt 1 discriminator 3
 179 0036 336C     		ldr	r3, [r6, #64]
 180              		.loc 1 90 0 discriminator 3
 181 0038 2946     		mov	r1, r5
 182 003a 2344     		add	r3, r3, r4
 183 003c 0822     		movs	r2, #8
 184 003e 3846     		mov	r0, r7
 185 0040 FFF7FEFF 		bl	canardEncodeScalar
 186              	.LVL18:
 187              		.loc 1 88 0 discriminator 3
 188 0044 96F83C30 		ldrb	r3, [r6, #60]	@ zero_extendqisi2
 189 0048 0134     		adds	r4, r4, #1
 190              	.LVL19:
 191 004a A342     		cmp	r3, r4
 192              		.loc 1 94 0 discriminator 3
 193 004c 05F10805 		add	r5, r5, #8
 194              	.LVL20:
 195              		.loc 1 88 0 discriminator 3
 196 0050 F1D8     		bhi	.L9
 197              	.LVL21:
 198              	.L6:
 199              		.loc 1 98 0
 200 0052 2846     		mov	r0, r5
 201 0054 F8BD     		pop	{r3, r4, r5, r6, r7, pc}
 202              	.LVL22:
 203              	.L15:
 204              		.loc 1 83 0
 205 0056 0146     		mov	r1, r0
 206 0058 06F13C03 		add	r3, r6, #60
 207 005c 0722     		movs	r2, #7
 208 005e 3846     		mov	r0, r7
 209              	.LVL23:
 210 0060 FFF7FEFF 		bl	canardEncodeScalar
 211              	.LVL24:
 212              		.loc 1 84 0
 213 0064 0735     		adds	r5, r5, #7
 214              	.LVL25:
 215 0066 E2E7     		b	.L7
 216              		.cfi_endproc
 217              	.LFE4:
 218              		.size	uavcan_protocol_GetNodeInfoResponse_encode_internal, .-uavcan_protocol_GetNodeInfoResponse_e
 219              		.section	.text.uavcan_protocol_GetNodeInfoResponse_encode,"ax",%progbits
 220              		.align	1
 221              		.p2align 4,,15
 222              		.global	uavcan_protocol_GetNodeInfoResponse_encode
 223              		.syntax unified
 224              		.thumb
 225              		.thumb_func
 226              		.fpu fpv4-sp-d16
 227              		.type	uavcan_protocol_GetNodeInfoResponse_encode, %function
 228              	uavcan_protocol_GetNodeInfoResponse_encode:
ARM GAS  /tmp/ccqBRpQq.s 			page 5


 229              	.LFB5:
 230              		.loc 1 107 0
 231              		.cfi_startproc
 232              		@ args = 0, pretend = 0, frame = 0
 233              		@ frame_needed = 0, uses_anonymous_args = 0
 234              	.LVL26:
 235 0000 08B5     		push	{r3, lr}
 236              		.cfi_def_cfa_offset 8
 237              		.cfi_offset 3, -8
 238              		.cfi_offset 14, -4
 239              		.loc 1 110 0
 240 0002 0022     		movs	r2, #0
 241 0004 0123     		movs	r3, #1
 242 0006 FFF7FEFF 		bl	uavcan_protocol_GetNodeInfoResponse_encode_internal
 243              	.LVL27:
 244              		.loc 1 112 0
 245 000a 0730     		adds	r0, r0, #7
 246              	.LVL28:
 247              		.loc 1 113 0
 248 000c C008     		lsrs	r0, r0, #3
 249              	.LVL29:
 250 000e 08BD     		pop	{r3, pc}
 251              		.cfi_endproc
 252              	.LFE5:
 253              		.size	uavcan_protocol_GetNodeInfoResponse_encode, .-uavcan_protocol_GetNodeInfoResponse_encode
 254              		.section	.text.uavcan_protocol_GetNodeInfoResponse_decode_internal,"ax",%progbits
 255              		.align	1
 256              		.p2align 4,,15
 257              		.global	uavcan_protocol_GetNodeInfoResponse_decode_internal
 258              		.syntax unified
 259              		.thumb
 260              		.thumb_func
 261              		.fpu fpv4-sp-d16
 262              		.type	uavcan_protocol_GetNodeInfoResponse_decode_internal, %function
 263              	uavcan_protocol_GetNodeInfoResponse_decode_internal:
 264              	.LFB6:
 265              		.loc 1 132 0
 266              		.cfi_startproc
 267              		@ args = 4, pretend = 0, frame = 0
 268              		@ frame_needed = 0, uses_anonymous_args = 0
 269              	.LVL30:
 270 0000 2DE9F043 		push	{r4, r5, r6, r7, r8, r9, lr}
 271              		.cfi_def_cfa_offset 28
 272              		.cfi_offset 4, -28
 273              		.cfi_offset 5, -24
 274              		.cfi_offset 6, -20
 275              		.cfi_offset 7, -16
 276              		.cfi_offset 8, -12
 277              		.cfi_offset 9, -8
 278              		.cfi_offset 14, -4
 279 0004 83B0     		sub	sp, sp, #12
 280              		.cfi_def_cfa_offset 40
 281              		.loc 1 132 0
 282 0006 8146     		mov	r9, r0
 283 0008 0A9C     		ldr	r4, [sp, #40]
 284              		.loc 1 137 0
 285 000a 0094     		str	r4, [sp]
ARM GAS  /tmp/ccqBRpQq.s 			page 6


 286              		.loc 1 132 0
 287 000c 0F46     		mov	r7, r1
 288 000e 1646     		mov	r6, r2
 289 0010 1D46     		mov	r5, r3
 290              		.loc 1 137 0
 291 0012 FFF7FEFF 		bl	uavcan_protocol_NodeStatus_decode_internal
 292              	.LVL31:
 293              		.loc 1 138 0
 294 0016 041E     		subs	r4, r0, #0
 295 0018 03DA     		bge	.L39
 296              	.LVL32:
 297              	.L18:
 298              		.loc 1 216 0
 299 001a 2046     		mov	r0, r4
 300 001c 03B0     		add	sp, sp, #12
 301              		.cfi_remember_state
 302              		.cfi_def_cfa_offset 28
 303              		@ sp needed
 304 001e BDE8F083 		pop	{r4, r5, r6, r7, r8, r9, pc}
 305              	.LVL33:
 306              	.L39:
 307              		.cfi_restore_state
 308              		.loc 1 145 0
 309 0022 0094     		str	r4, [sp]
 310 0024 2B46     		mov	r3, r5
 311 0026 06F11002 		add	r2, r6, #16
 312 002a 3946     		mov	r1, r7
 313 002c 4846     		mov	r0, r9
 314              	.LVL34:
 315 002e FFF7FEFF 		bl	uavcan_protocol_SoftwareVersion_decode_internal
 316              	.LVL35:
 317              		.loc 1 146 0
 318 0032 041E     		subs	r4, r0, #0
 319 0034 F1DB     		blt	.L18
 320              		.loc 1 153 0
 321 0036 0094     		str	r4, [sp]
 322 0038 2B46     		mov	r3, r5
 323 003a 06F12002 		add	r2, r6, #32
 324 003e 3946     		mov	r1, r7
 325 0040 4846     		mov	r0, r9
 326              	.LVL36:
 327 0042 FFF7FEFF 		bl	uavcan_protocol_HardwareVersion_decode_internal
 328              	.LVL37:
 329              		.loc 1 154 0
 330 0046 041E     		subs	r4, r0, #0
 331 0048 E7DB     		blt	.L18
 332              		.loc 1 162 0
 333 004a 5FB3     		cbz	r7, .L20
 334              		.loc 1 165 0
 335 004c D4EBC707 		rsbs	r7, r4, r7, lsl #3
 336 0050 48BF     		it	mi
 337 0052 0737     		addmi	r7, r7, #7
 338 0054 C7F3C707 		ubfx	r7, r7, #3, #8
 339 0058 86F83C70 		strb	r7, [r6, #60]
 340              	.LVL38:
 341              	.L22:
 342              		.loc 1 183 0
ARM GAS  /tmp/ccqBRpQq.s 			page 7


 343 005c 0DB1     		cbz	r5, .L24
 344              		.loc 1 185 0
 345 005e 2B68     		ldr	r3, [r5]
 346 0060 3364     		str	r3, [r6, #64]
 347              	.L24:
 348              		.loc 1 188 0 discriminator 1
 349 0062 002F     		cmp	r7, #0
 350 0064 D9D0     		beq	.L18
 351              		.loc 1 188 0 is_stmt 0
 352 0066 4FF00008 		mov	r8, #0
 353 006a 06E0     		b	.L26
 354              	.LVL39:
 355              	.L40:
 356              		.loc 1 201 0 is_stmt 1
 357 006c 2B68     		ldr	r3, [r5]
 358 006e 0133     		adds	r3, r3, #1
 359 0070 2B60     		str	r3, [r5]
 360              	.LVL40:
 361              	.L25:
 362              		.loc 1 188 0 discriminator 2
 363 0072 96F83C30 		ldrb	r3, [r6, #60]	@ zero_extendqisi2
 364 0076 4345     		cmp	r3, r8
 365 0078 CFD9     		bls	.L18
 366              	.LVL41:
 367              	.L26:
 368              		.loc 1 192 0
 369 007a 0822     		movs	r2, #8
 370 007c 2146     		mov	r1, r4
 371 007e 0023     		movs	r3, #0
 372 0080 4846     		mov	r0, r9
 373              		.loc 1 188 0
 374 0082 08F10108 		add	r8, r8, #1
 375              	.LVL42:
 376              		.loc 1 203 0
 377 0086 1444     		add	r4, r4, r2
 378              	.LVL43:
 379              		.loc 1 190 0
 380 0088 002D     		cmp	r5, #0
 381 008a F2D0     		beq	.L25
 382              	.LVL44:
 383              		.loc 1 192 0
 384 008c 2F68     		ldr	r7, [r5]
 385 008e 0097     		str	r7, [sp]
 386 0090 FFF7FEFF 		bl	canardDecodeScalar
 387              	.LVL45:
 388              		.loc 1 197 0
 389 0094 0828     		cmp	r0, #8
 390 0096 E9D0     		beq	.L40
 391              	.LVL46:
 392              	.L23:
 393              		.loc 1 208 0
 394 0098 0028     		cmp	r0, #0
 395 009a B4BF     		ite	lt
 396 009c 0446     		movlt	r4, r0
 397 009e 6FF00804 		mvnge	r4, #8
 398 00a2 BAE7     		b	.L18
 399              	.LVL47:
ARM GAS  /tmp/ccqBRpQq.s 			page 8


 400              	.L20:
 401              		.loc 1 174 0
 402 00a4 06F13C02 		add	r2, r6, #60
 403              		.loc 1 170 0
 404 00a8 0092     		str	r2, [sp]
 405 00aa 3B46     		mov	r3, r7
 406 00ac 0722     		movs	r2, #7
 407 00ae 2146     		mov	r1, r4
 408 00b0 4846     		mov	r0, r9
 409              	.LVL48:
 410 00b2 FFF7FEFF 		bl	canardDecodeScalar
 411              	.LVL49:
 412              		.loc 1 175 0
 413 00b6 0728     		cmp	r0, #7
 414 00b8 EED1     		bne	.L23
 415 00ba 96F83C70 		ldrb	r7, [r6, #60]	@ zero_extendqisi2
 416              		.loc 1 179 0
 417 00be 0734     		adds	r4, r4, #7
 418              	.LVL50:
 419 00c0 CCE7     		b	.L22
 420              		.cfi_endproc
 421              	.LFE6:
 422              		.size	uavcan_protocol_GetNodeInfoResponse_decode_internal, .-uavcan_protocol_GetNodeInfoResponse_d
 423 00c2 00BF     		.section	.text.uavcan_protocol_GetNodeInfoResponse_decode,"ax",%progbits
 424              		.align	1
 425              		.p2align 4,,15
 426              		.global	uavcan_protocol_GetNodeInfoResponse_decode
 427              		.syntax unified
 428              		.thumb
 429              		.thumb_func
 430              		.fpu fpv4-sp-d16
 431              		.type	uavcan_protocol_GetNodeInfoResponse_decode, %function
 432              	uavcan_protocol_GetNodeInfoResponse_decode:
 433              	.LFB7:
 434              		.loc 1 232 0
 435              		.cfi_startproc
 436              		@ args = 0, pretend = 0, frame = 0
 437              		@ frame_needed = 0, uses_anonymous_args = 0
 438              	.LVL51:
 439 0000 70B5     		push	{r4, r5, r6, lr}
 440              		.cfi_def_cfa_offset 16
 441              		.cfi_offset 4, -16
 442              		.cfi_offset 5, -12
 443              		.cfi_offset 6, -8
 444              		.cfi_offset 14, -4
 445 0002 541E     		subs	r4, r2, #1
 446 0004 82B0     		sub	sp, sp, #8
 447              		.cfi_def_cfa_offset 24
 448 0006 02F14706 		add	r6, r2, #71
 449              	.LBB2:
 450              		.loc 1 239 0
 451 000a 0025     		movs	r5, #0
 452              	.LVL52:
 453              	.L42:
 454              		.loc 1 239 0 is_stmt 0 discriminator 3
 455 000c 04F8015F 		strb	r5, [r4, #1]!
 456              		.loc 1 237 0 is_stmt 1 discriminator 3
ARM GAS  /tmp/ccqBRpQq.s 			page 9


 457 0010 B442     		cmp	r4, r6
 458 0012 FBD1     		bne	.L42
 459              	.LBE2:
 460              		.loc 1 242 0
 461 0014 0095     		str	r5, [sp]
 462 0016 FFF7FEFF 		bl	uavcan_protocol_GetNodeInfoResponse_decode_internal
 463              	.LVL53:
 464              		.loc 1 245 0
 465 001a 02B0     		add	sp, sp, #8
 466              		.cfi_def_cfa_offset 16
 467              		@ sp needed
 468 001c 70BD     		pop	{r4, r5, r6, pc}
 469              		.cfi_endproc
 470              	.LFE7:
 471              		.size	uavcan_protocol_GetNodeInfoResponse_decode, .-uavcan_protocol_GetNodeInfoResponse_decode
 472 001e 00BF     		.text
 473              	.Letext0:
 474              		.file 2 "/usr/arm-none-eabi/include/machine/_default_types.h"
 475              		.file 3 "/usr/arm-none-eabi/include/sys/_stdint.h"
 476              		.file 4 "libcanard/canard.h"
 477              		.file 5 "libcanard/dsdl/uavcan/protocol/HardwareVersion.h"
 478              		.file 6 "libcanard/dsdl/uavcan/protocol/NodeStatus.h"
 479              		.file 7 "libcanard/dsdl/uavcan/protocol/SoftwareVersion.h"
 480              		.file 8 "libcanard/dsdl/uavcan/protocol/GetNodeInfo.h"
 481              		.section	.debug_info,"",%progbits
 482              	.Ldebug_info0:
 483 0000 9A080000 		.4byte	0x89a
 484 0004 0400     		.2byte	0x4
 485 0006 00000000 		.4byte	.Ldebug_abbrev0
 486 000a 04       		.byte	0x4
 487 000b 01       		.uleb128 0x1
 488 000c 66060000 		.4byte	.LASF80
 489 0010 0C       		.byte	0xc
 490 0011 2D000000 		.4byte	.LASF81
 491 0015 6B030000 		.4byte	.LASF82
 492 0019 00000000 		.4byte	.Ldebug_ranges0+0
 493 001d 00000000 		.4byte	0
 494 0021 00000000 		.4byte	.Ldebug_line0
 495 0025 02       		.uleb128 0x2
 496 0026 01       		.byte	0x1
 497 0027 06       		.byte	0x6
 498 0028 71030000 		.4byte	.LASF0
 499 002c 03       		.uleb128 0x3
 500 002d 12030000 		.4byte	.LASF3
 501 0031 02       		.byte	0x2
 502 0032 2B       		.byte	0x2b
 503 0033 37000000 		.4byte	0x37
 504 0037 02       		.uleb128 0x2
 505 0038 01       		.byte	0x1
 506 0039 08       		.byte	0x8
 507 003a 4E030000 		.4byte	.LASF1
 508 003e 02       		.uleb128 0x2
 509 003f 02       		.byte	0x2
 510 0040 05       		.byte	0x5
 511 0041 92000000 		.4byte	.LASF2
 512 0045 03       		.uleb128 0x3
 513 0046 C8000000 		.4byte	.LASF4
ARM GAS  /tmp/ccqBRpQq.s 			page 10


 514 004a 02       		.byte	0x2
 515 004b 39       		.byte	0x39
 516 004c 50000000 		.4byte	0x50
 517 0050 02       		.uleb128 0x2
 518 0051 02       		.byte	0x2
 519 0052 07       		.byte	0x7
 520 0053 F8030000 		.4byte	.LASF5
 521 0057 03       		.uleb128 0x3
 522 0058 50050000 		.4byte	.LASF6
 523 005c 02       		.byte	0x2
 524 005d 4D       		.byte	0x4d
 525 005e 62000000 		.4byte	0x62
 526 0062 02       		.uleb128 0x2
 527 0063 04       		.byte	0x4
 528 0064 05       		.byte	0x5
 529 0065 CF020000 		.4byte	.LASF7
 530 0069 03       		.uleb128 0x3
 531 006a B8000000 		.4byte	.LASF8
 532 006e 02       		.byte	0x2
 533 006f 4F       		.byte	0x4f
 534 0070 74000000 		.4byte	0x74
 535 0074 02       		.uleb128 0x2
 536 0075 04       		.byte	0x4
 537 0076 07       		.byte	0x7
 538 0077 C8040000 		.4byte	.LASF9
 539 007b 02       		.uleb128 0x2
 540 007c 08       		.byte	0x8
 541 007d 05       		.byte	0x5
 542 007e 5A020000 		.4byte	.LASF10
 543 0082 03       		.uleb128 0x3
 544 0083 6F040000 		.4byte	.LASF11
 545 0087 02       		.byte	0x2
 546 0088 69       		.byte	0x69
 547 0089 8D000000 		.4byte	0x8d
 548 008d 02       		.uleb128 0x2
 549 008e 08       		.byte	0x8
 550 008f 07       		.byte	0x7
 551 0090 7D030000 		.4byte	.LASF12
 552 0094 04       		.uleb128 0x4
 553 0095 04       		.byte	0x4
 554 0096 05       		.byte	0x5
 555 0097 696E7400 		.ascii	"int\000"
 556 009b 02       		.uleb128 0x2
 557 009c 04       		.byte	0x4
 558 009d 07       		.byte	0x7
 559 009e 9D030000 		.4byte	.LASF13
 560 00a2 03       		.uleb128 0x3
 561 00a3 1D010000 		.4byte	.LASF14
 562 00a7 03       		.byte	0x3
 563 00a8 18       		.byte	0x18
 564 00a9 2C000000 		.4byte	0x2c
 565 00ad 05       		.uleb128 0x5
 566 00ae A2000000 		.4byte	0xa2
 567 00b2 03       		.uleb128 0x3
 568 00b3 AA030000 		.4byte	.LASF15
 569 00b7 03       		.byte	0x3
 570 00b8 24       		.byte	0x24
ARM GAS  /tmp/ccqBRpQq.s 			page 11


 571 00b9 45000000 		.4byte	0x45
 572 00bd 03       		.uleb128 0x3
 573 00be 4C040000 		.4byte	.LASF16
 574 00c2 03       		.byte	0x3
 575 00c3 2C       		.byte	0x2c
 576 00c4 57000000 		.4byte	0x57
 577 00c8 05       		.uleb128 0x5
 578 00c9 BD000000 		.4byte	0xbd
 579 00cd 03       		.uleb128 0x3
 580 00ce 94030000 		.4byte	.LASF17
 581 00d2 03       		.byte	0x3
 582 00d3 30       		.byte	0x30
 583 00d4 69000000 		.4byte	0x69
 584 00d8 03       		.uleb128 0x3
 585 00d9 89000000 		.4byte	.LASF18
 586 00dd 03       		.byte	0x3
 587 00de 3C       		.byte	0x3c
 588 00df 82000000 		.4byte	0x82
 589 00e3 03       		.uleb128 0x3
 590 00e4 B7040000 		.4byte	.LASF19
 591 00e8 04       		.byte	0x4
 592 00e9 99       		.byte	0x99
 593 00ea F3000000 		.4byte	0xf3
 594 00ee 05       		.uleb128 0x5
 595 00ef E3000000 		.4byte	0xe3
 596 00f3 06       		.uleb128 0x6
 597 00f4 B7040000 		.4byte	.LASF19
 598 00f8 20       		.byte	0x20
 599 00f9 04       		.byte	0x4
 600 00fa 0F01     		.2byte	0x10f
 601 00fc 83010000 		.4byte	0x183
 602 0100 07       		.uleb128 0x7
 603 0101 30030000 		.4byte	.LASF20
 604 0105 04       		.byte	0x4
 605 0106 1401     		.2byte	0x114
 606 0108 D8000000 		.4byte	0xd8
 607 010c 00       		.byte	0
 608 010d 07       		.uleb128 0x7
 609 010e 62040000 		.4byte	.LASF21
 610 0112 04       		.byte	0x4
 611 0113 2801     		.2byte	0x128
 612 0115 DE010000 		.4byte	0x1de
 613 0119 08       		.byte	0x8
 614 011a 07       		.uleb128 0x7
 615 011b 5C030000 		.4byte	.LASF22
 616 011f 04       		.byte	0x4
 617 0120 2D01     		.2byte	0x12d
 618 0122 D6010000 		.4byte	0x1d6
 619 0126 0C       		.byte	0xc
 620 0127 07       		.uleb128 0x7
 621 0128 23030000 		.4byte	.LASF23
 622 012c 04       		.byte	0x4
 623 012d 2F01     		.2byte	0x12f
 624 012f DE010000 		.4byte	0x1de
 625 0133 10       		.byte	0x10
 626 0134 07       		.uleb128 0x7
 627 0135 D6050000 		.4byte	.LASF24
ARM GAS  /tmp/ccqBRpQq.s 			page 12


 628 0139 04       		.byte	0x4
 629 013a 3101     		.2byte	0x131
 630 013c B2000000 		.4byte	0xb2
 631 0140 14       		.byte	0x14
 632 0141 07       		.uleb128 0x7
 633 0142 20000000 		.4byte	.LASF25
 634 0146 04       		.byte	0x4
 635 0147 3601     		.2byte	0x136
 636 0149 B2000000 		.4byte	0xb2
 637 014d 16       		.byte	0x16
 638 014e 07       		.uleb128 0x7
 639 014f 54040000 		.4byte	.LASF26
 640 0153 04       		.byte	0x4
 641 0154 3701     		.2byte	0x137
 642 0156 A2000000 		.4byte	0xa2
 643 015a 18       		.byte	0x18
 644 015b 07       		.uleb128 0x7
 645 015c E2050000 		.4byte	.LASF27
 646 0160 04       		.byte	0x4
 647 0161 3801     		.2byte	0x138
 648 0163 A2000000 		.4byte	0xa2
 649 0167 19       		.byte	0x19
 650 0168 07       		.uleb128 0x7
 651 0169 6F000000 		.4byte	.LASF28
 652 016d 04       		.byte	0x4
 653 016e 3901     		.2byte	0x139
 654 0170 A2000000 		.4byte	0xa2
 655 0174 1A       		.byte	0x1a
 656 0175 07       		.uleb128 0x7
 657 0176 C5030000 		.4byte	.LASF29
 658 017a 04       		.byte	0x4
 659 017b 3A01     		.2byte	0x13a
 660 017d A2000000 		.4byte	0xa2
 661 0181 1B       		.byte	0x1b
 662 0182 00       		.byte	0
 663 0183 02       		.uleb128 0x2
 664 0184 01       		.byte	0x1
 665 0185 02       		.byte	0x2
 666 0186 46040000 		.4byte	.LASF30
 667 018a 02       		.uleb128 0x2
 668 018b 01       		.byte	0x1
 669 018c 08       		.byte	0x8
 670 018d 41040000 		.4byte	.LASF31
 671 0191 08       		.uleb128 0x8
 672 0192 B3030000 		.4byte	.LASF32
 673 0196 04       		.byte	0x4
 674 0197 04       		.byte	0x4
 675 0198 D7       		.byte	0xd7
 676 0199 B6010000 		.4byte	0x1b6
 677 019d 09       		.uleb128 0x9
 678 019e 61060000 		.4byte	.LASF33
 679 01a2 04       		.byte	0x4
 680 01a3 D9       		.byte	0xd9
 681 01a4 B6010000 		.4byte	0x1b6
 682 01a8 00       		.byte	0
 683 01a9 09       		.uleb128 0x9
 684 01aa 7A040000 		.4byte	.LASF34
ARM GAS  /tmp/ccqBRpQq.s 			page 13


 685 01ae 04       		.byte	0x4
 686 01af DA       		.byte	0xda
 687 01b0 BC010000 		.4byte	0x1bc
 688 01b4 04       		.byte	0x4
 689 01b5 00       		.byte	0
 690 01b6 0A       		.uleb128 0xa
 691 01b7 04       		.byte	0x4
 692 01b8 91010000 		.4byte	0x191
 693 01bc 0B       		.uleb128 0xb
 694 01bd A2000000 		.4byte	0xa2
 695 01c1 CB010000 		.4byte	0x1cb
 696 01c5 0C       		.uleb128 0xc
 697 01c6 9B000000 		.4byte	0x9b
 698 01ca 00       		.byte	0
 699 01cb 03       		.uleb128 0x3
 700 01cc B3030000 		.4byte	.LASF32
 701 01d0 04       		.byte	0x4
 702 01d1 DB       		.byte	0xdb
 703 01d2 91010000 		.4byte	0x191
 704 01d6 0A       		.uleb128 0xa
 705 01d7 04       		.byte	0x4
 706 01d8 CB010000 		.4byte	0x1cb
 707 01dc 0D       		.uleb128 0xd
 708 01dd 04       		.byte	0x4
 709 01de 0A       		.uleb128 0xa
 710 01df 04       		.byte	0x4
 711 01e0 AD000000 		.4byte	0xad
 712 01e4 0E       		.uleb128 0xe
 713 01e5 08       		.byte	0x8
 714 01e6 05       		.byte	0x5
 715 01e7 46       		.byte	0x46
 716 01e8 05020000 		.4byte	0x205
 717 01ec 0F       		.uleb128 0xf
 718 01ed 6C656E00 		.ascii	"len\000"
 719 01f1 05       		.byte	0x5
 720 01f2 48       		.byte	0x48
 721 01f3 A2000000 		.4byte	0xa2
 722 01f7 00       		.byte	0
 723 01f8 09       		.uleb128 0x9
 724 01f9 7A040000 		.4byte	.LASF34
 725 01fd 05       		.byte	0x5
 726 01fe 49       		.byte	0x49
 727 01ff 05020000 		.4byte	0x205
 728 0203 04       		.byte	0x4
 729 0204 00       		.byte	0
 730 0205 0A       		.uleb128 0xa
 731 0206 04       		.byte	0x4
 732 0207 A2000000 		.4byte	0xa2
 733 020b 0E       		.uleb128 0xe
 734 020c 1C       		.byte	0x1c
 735 020d 05       		.byte	0x5
 736 020e 40       		.byte	0x40
 737 020f 44020000 		.4byte	0x244
 738 0213 09       		.uleb128 0x9
 739 0214 17010000 		.4byte	.LASF35
 740 0218 05       		.byte	0x5
 741 0219 43       		.byte	0x43
ARM GAS  /tmp/ccqBRpQq.s 			page 14


 742 021a A2000000 		.4byte	0xa2
 743 021e 00       		.byte	0
 744 021f 09       		.uleb128 0x9
 745 0220 5A050000 		.4byte	.LASF36
 746 0224 05       		.byte	0x5
 747 0225 44       		.byte	0x44
 748 0226 A2000000 		.4byte	0xa2
 749 022a 01       		.byte	0x1
 750 022b 09       		.uleb128 0x9
 751 022c 44030000 		.4byte	.LASF37
 752 0230 05       		.byte	0x5
 753 0231 45       		.byte	0x45
 754 0232 44020000 		.4byte	0x244
 755 0236 02       		.byte	0x2
 756 0237 09       		.uleb128 0x9
 757 0238 E4040000 		.4byte	.LASF38
 758 023c 05       		.byte	0x5
 759 023d 4A       		.byte	0x4a
 760 023e E4010000 		.4byte	0x1e4
 761 0242 14       		.byte	0x14
 762 0243 00       		.byte	0
 763 0244 0B       		.uleb128 0xb
 764 0245 A2000000 		.4byte	0xa2
 765 0249 54020000 		.4byte	0x254
 766 024d 10       		.uleb128 0x10
 767 024e 9B000000 		.4byte	0x9b
 768 0252 0F       		.byte	0xf
 769 0253 00       		.byte	0
 770 0254 03       		.uleb128 0x3
 771 0255 00000000 		.4byte	.LASF39
 772 0259 05       		.byte	0x5
 773 025a 4C       		.byte	0x4c
 774 025b 0B020000 		.4byte	0x20b
 775 025f 0E       		.uleb128 0xe
 776 0260 0C       		.byte	0xc
 777 0261 06       		.byte	0x6
 778 0262 6E       		.byte	0x6e
 779 0263 A4020000 		.4byte	0x2a4
 780 0267 09       		.uleb128 0x9
 781 0268 EE050000 		.4byte	.LASF40
 782 026c 06       		.byte	0x6
 783 026d 71       		.byte	0x71
 784 026e CD000000 		.4byte	0xcd
 785 0272 00       		.byte	0
 786 0273 09       		.uleb128 0x9
 787 0274 63000000 		.4byte	.LASF41
 788 0278 06       		.byte	0x6
 789 0279 72       		.byte	0x72
 790 027a A2000000 		.4byte	0xa2
 791 027e 04       		.byte	0x4
 792 027f 09       		.uleb128 0x9
 793 0280 C3000000 		.4byte	.LASF42
 794 0284 06       		.byte	0x6
 795 0285 73       		.byte	0x73
 796 0286 A2000000 		.4byte	0xa2
 797 028a 05       		.byte	0x5
 798 028b 09       		.uleb128 0x9
ARM GAS  /tmp/ccqBRpQq.s 			page 15


 799 028c 51020000 		.4byte	.LASF43
 800 0290 06       		.byte	0x6
 801 0291 74       		.byte	0x74
 802 0292 A2000000 		.4byte	0xa2
 803 0296 06       		.byte	0x6
 804 0297 09       		.uleb128 0x9
 805 0298 25040000 		.4byte	.LASF44
 806 029c 06       		.byte	0x6
 807 029d 75       		.byte	0x75
 808 029e B2000000 		.4byte	0xb2
 809 02a2 08       		.byte	0x8
 810 02a3 00       		.byte	0
 811 02a4 03       		.uleb128 0x3
 812 02a5 8B050000 		.4byte	.LASF45
 813 02a9 06       		.byte	0x6
 814 02aa 77       		.byte	0x77
 815 02ab 5F020000 		.4byte	0x25f
 816 02af 0E       		.uleb128 0xe
 817 02b0 10       		.byte	0x10
 818 02b1 07       		.byte	0x7
 819 02b2 55       		.byte	0x55
 820 02b3 F4020000 		.4byte	0x2f4
 821 02b7 09       		.uleb128 0x9
 822 02b8 17010000 		.4byte	.LASF35
 823 02bc 07       		.byte	0x7
 824 02bd 58       		.byte	0x58
 825 02be A2000000 		.4byte	0xa2
 826 02c2 00       		.byte	0
 827 02c3 09       		.uleb128 0x9
 828 02c4 5A050000 		.4byte	.LASF36
 829 02c8 07       		.byte	0x7
 830 02c9 59       		.byte	0x59
 831 02ca A2000000 		.4byte	0xa2
 832 02ce 01       		.byte	0x1
 833 02cf 09       		.uleb128 0x9
 834 02d0 59010000 		.4byte	.LASF46
 835 02d4 07       		.byte	0x7
 836 02d5 5A       		.byte	0x5a
 837 02d6 A2000000 		.4byte	0xa2
 838 02da 02       		.byte	0x2
 839 02db 09       		.uleb128 0x9
 840 02dc 9C000000 		.4byte	.LASF47
 841 02e0 07       		.byte	0x7
 842 02e1 5B       		.byte	0x5b
 843 02e2 CD000000 		.4byte	0xcd
 844 02e6 04       		.byte	0x4
 845 02e7 09       		.uleb128 0x9
 846 02e8 D3000000 		.4byte	.LASF48
 847 02ec 07       		.byte	0x7
 848 02ed 5C       		.byte	0x5c
 849 02ee D8000000 		.4byte	0xd8
 850 02f2 08       		.byte	0x8
 851 02f3 00       		.byte	0
 852 02f4 03       		.uleb128 0x3
 853 02f5 30050000 		.4byte	.LASF49
 854 02f9 07       		.byte	0x7
 855 02fa 5E       		.byte	0x5e
ARM GAS  /tmp/ccqBRpQq.s 			page 16


 856 02fb AF020000 		.4byte	0x2af
 857 02ff 0E       		.uleb128 0xe
 858 0300 01       		.byte	0x1
 859 0301 08       		.byte	0x8
 860 0302 44       		.byte	0x44
 861 0303 14030000 		.4byte	0x314
 862 0307 09       		.uleb128 0x9
 863 0308 11010000 		.4byte	.LASF50
 864 030c 08       		.byte	0x8
 865 030d 46       		.byte	0x46
 866 030e A2000000 		.4byte	0xa2
 867 0312 00       		.byte	0
 868 0313 00       		.byte	0
 869 0314 03       		.uleb128 0x3
 870 0315 36060000 		.4byte	.LASF51
 871 0319 08       		.byte	0x8
 872 031a 47       		.byte	0x47
 873 031b FF020000 		.4byte	0x2ff
 874 031f 0E       		.uleb128 0xe
 875 0320 08       		.byte	0x8
 876 0321 08       		.byte	0x8
 877 0322 61       		.byte	0x61
 878 0323 40030000 		.4byte	0x340
 879 0327 0F       		.uleb128 0xf
 880 0328 6C656E00 		.ascii	"len\000"
 881 032c 08       		.byte	0x8
 882 032d 63       		.byte	0x63
 883 032e A2000000 		.4byte	0xa2
 884 0332 00       		.byte	0
 885 0333 09       		.uleb128 0x9
 886 0334 7A040000 		.4byte	.LASF34
 887 0338 08       		.byte	0x8
 888 0339 64       		.byte	0x64
 889 033a 05020000 		.4byte	0x205
 890 033e 04       		.byte	0x4
 891 033f 00       		.byte	0
 892 0340 0E       		.uleb128 0xe
 893 0341 48       		.byte	0x48
 894 0342 08       		.byte	0x8
 895 0343 5B       		.byte	0x5b
 896 0344 79030000 		.4byte	0x379
 897 0348 09       		.uleb128 0x9
 898 0349 0B040000 		.4byte	.LASF52
 899 034d 08       		.byte	0x8
 900 034e 5E       		.byte	0x5e
 901 034f A4020000 		.4byte	0x2a4
 902 0353 00       		.byte	0
 903 0354 09       		.uleb128 0x9
 904 0355 A7000000 		.4byte	.LASF53
 905 0359 08       		.byte	0x8
 906 035a 5F       		.byte	0x5f
 907 035b F4020000 		.4byte	0x2f4
 908 035f 10       		.byte	0x10
 909 0360 09       		.uleb128 0x9
 910 0361 78000000 		.4byte	.LASF54
 911 0365 08       		.byte	0x8
 912 0366 60       		.byte	0x60
ARM GAS  /tmp/ccqBRpQq.s 			page 17


 913 0367 54020000 		.4byte	0x254
 914 036b 20       		.byte	0x20
 915 036c 09       		.uleb128 0x9
 916 036d 3F030000 		.4byte	.LASF55
 917 0371 08       		.byte	0x8
 918 0372 65       		.byte	0x65
 919 0373 1F030000 		.4byte	0x31f
 920 0377 3C       		.byte	0x3c
 921 0378 00       		.byte	0
 922 0379 03       		.uleb128 0x3
 923 037a D4030000 		.4byte	.LASF56
 924 037e 08       		.byte	0x8
 925 037f 67       		.byte	0x67
 926 0380 40030000 		.4byte	0x340
 927 0384 11       		.uleb128 0x11
 928 0385 60050000 		.4byte	.LASF61
 929 0389 01       		.byte	0x1
 930 038a E4       		.byte	0xe4
 931 038b BD000000 		.4byte	0xbd
 932 038f 00000000 		.4byte	.LFB7
 933 0393 1E000000 		.4byte	.LFE7-.LFB7
 934 0397 01       		.uleb128 0x1
 935 0398 9C       		.byte	0x9c
 936 0399 21040000 		.4byte	0x421
 937 039d 12       		.uleb128 0x12
 938 039e 7F040000 		.4byte	.LASF57
 939 03a2 01       		.byte	0x1
 940 03a3 E4       		.byte	0xe4
 941 03a4 21040000 		.4byte	0x421
 942 03a8 00000000 		.4byte	.LLST19
 943 03ac 12       		.uleb128 0x12
 944 03ad D6050000 		.4byte	.LASF24
 945 03b1 01       		.byte	0x1
 946 03b2 E5       		.byte	0xe5
 947 03b3 B2000000 		.4byte	0xb2
 948 03b7 21000000 		.4byte	.LLST20
 949 03bb 12       		.uleb128 0x12
 950 03bc 6A000000 		.4byte	.LASF58
 951 03c0 01       		.byte	0x1
 952 03c1 E6       		.byte	0xe6
 953 03c2 27040000 		.4byte	0x427
 954 03c6 42000000 		.4byte	.LLST21
 955 03ca 12       		.uleb128 0x12
 956 03cb 68020000 		.4byte	.LASF59
 957 03cf 01       		.byte	0x1
 958 03d0 E7       		.byte	0xe7
 959 03d1 2D040000 		.4byte	0x42d
 960 03d5 63000000 		.4byte	.LLST22
 961 03d9 13       		.uleb128 0x13
 962 03da 0B030000 		.4byte	.LASF60
 963 03de 01       		.byte	0x1
 964 03df E9       		.byte	0xe9
 965 03e0 C8000000 		.4byte	0xc8
 966 03e4 00       		.byte	0
 967 03e5 14       		.uleb128 0x14
 968 03e6 72657400 		.ascii	"ret\000"
 969 03ea 01       		.byte	0x1
ARM GAS  /tmp/ccqBRpQq.s 			page 18


 970 03eb EA       		.byte	0xea
 971 03ec BD000000 		.4byte	0xbd
 972 03f0 84000000 		.4byte	.LLST23
 973 03f4 15       		.uleb128 0x15
 974 03f5 0A000000 		.4byte	.LBB2
 975 03f9 0A000000 		.4byte	.LBE2-.LBB2
 976 03fd 0F040000 		.4byte	0x40f
 977 0401 14       		.uleb128 0x14
 978 0402 6300     		.ascii	"c\000"
 979 0404 01       		.byte	0x1
 980 0405 ED       		.byte	0xed
 981 0406 CD000000 		.4byte	0xcd
 982 040a A3000000 		.4byte	.LLST24
 983 040e 00       		.byte	0
 984 040f 16       		.uleb128 0x16
 985 0410 1A000000 		.4byte	.LVL53
 986 0414 33040000 		.4byte	0x433
 987 0418 17       		.uleb128 0x17
 988 0419 02       		.uleb128 0x2
 989 041a 7D       		.byte	0x7d
 990 041b 00       		.sleb128 0
 991 041c 02       		.uleb128 0x2
 992 041d 75       		.byte	0x75
 993 041e 00       		.sleb128 0
 994 041f 00       		.byte	0
 995 0420 00       		.byte	0
 996 0421 0A       		.uleb128 0xa
 997 0422 04       		.byte	0x4
 998 0423 EE000000 		.4byte	0xee
 999 0427 0A       		.uleb128 0xa
 1000 0428 04       		.byte	0x4
 1001 0429 79030000 		.4byte	0x379
 1002 042d 0A       		.uleb128 0xa
 1003 042e 04       		.byte	0x4
 1004 042f 05020000 		.4byte	0x205
 1005 0433 11       		.uleb128 0x11
 1006 0434 25010000 		.4byte	.LASF62
 1007 0438 01       		.byte	0x1
 1008 0439 7E       		.byte	0x7e
 1009 043a BD000000 		.4byte	0xbd
 1010 043e 00000000 		.4byte	.LFB6
 1011 0442 C2000000 		.4byte	.LFE6-.LFB6
 1012 0446 01       		.uleb128 0x1
 1013 0447 9C       		.byte	0x9c
 1014 0448 99050000 		.4byte	0x599
 1015 044c 12       		.uleb128 0x12
 1016 044d 7F040000 		.4byte	.LASF57
 1017 0451 01       		.byte	0x1
 1018 0452 7F       		.byte	0x7f
 1019 0453 21040000 		.4byte	0x421
 1020 0457 B7000000 		.4byte	.LLST12
 1021 045b 12       		.uleb128 0x12
 1022 045c D6050000 		.4byte	.LASF24
 1023 0460 01       		.byte	0x1
 1024 0461 80       		.byte	0x80
 1025 0462 B2000000 		.4byte	0xb2
 1026 0466 EB000000 		.4byte	.LLST13
ARM GAS  /tmp/ccqBRpQq.s 			page 19


 1027 046a 12       		.uleb128 0x12
 1028 046b 6A000000 		.4byte	.LASF58
 1029 046f 01       		.byte	0x1
 1030 0470 81       		.byte	0x81
 1031 0471 27040000 		.4byte	0x427
 1032 0475 0C010000 		.4byte	.LLST14
 1033 0479 12       		.uleb128 0x12
 1034 047a 68020000 		.4byte	.LASF59
 1035 047e 01       		.byte	0x1
 1036 047f 82       		.byte	0x82
 1037 0480 2D040000 		.4byte	0x42d
 1038 0484 2A010000 		.4byte	.LLST15
 1039 0488 12       		.uleb128 0x12
 1040 0489 0B030000 		.4byte	.LASF60
 1041 048d 01       		.byte	0x1
 1042 048e 83       		.byte	0x83
 1043 048f BD000000 		.4byte	0xbd
 1044 0493 48010000 		.4byte	.LLST16
 1045 0497 14       		.uleb128 0x14
 1046 0498 72657400 		.ascii	"ret\000"
 1047 049c 01       		.byte	0x1
 1048 049d 85       		.byte	0x85
 1049 049e BD000000 		.4byte	0xbd
 1050 04a2 EF010000 		.4byte	.LLST17
 1051 04a6 14       		.uleb128 0x14
 1052 04a7 6300     		.ascii	"c\000"
 1053 04a9 01       		.byte	0x1
 1054 04aa 86       		.byte	0x86
 1055 04ab CD000000 		.4byte	0xcd
 1056 04af 3C020000 		.4byte	.LLST18
 1057 04b3 18       		.uleb128 0x18
 1058 04b4 88040000 		.4byte	.LASF83
 1059 04b8 01       		.byte	0x1
 1060 04b9 CF       		.byte	0xcf
 1061 04ba 98000000 		.4byte	.L23
 1062 04be 19       		.uleb128 0x19
 1063 04bf 16000000 		.4byte	.LVL31
 1064 04c3 43080000 		.4byte	0x843
 1065 04c7 EB040000 		.4byte	0x4eb
 1066 04cb 17       		.uleb128 0x17
 1067 04cc 01       		.uleb128 0x1
 1068 04cd 50       		.byte	0x50
 1069 04ce 02       		.uleb128 0x2
 1070 04cf 79       		.byte	0x79
 1071 04d0 00       		.sleb128 0
 1072 04d1 17       		.uleb128 0x17
 1073 04d2 01       		.uleb128 0x1
 1074 04d3 51       		.byte	0x51
 1075 04d4 02       		.uleb128 0x2
 1076 04d5 77       		.byte	0x77
 1077 04d6 00       		.sleb128 0
 1078 04d7 17       		.uleb128 0x17
 1079 04d8 01       		.uleb128 0x1
 1080 04d9 52       		.byte	0x52
 1081 04da 02       		.uleb128 0x2
 1082 04db 76       		.byte	0x76
 1083 04dc 00       		.sleb128 0
ARM GAS  /tmp/ccqBRpQq.s 			page 20


 1084 04dd 17       		.uleb128 0x17
 1085 04de 01       		.uleb128 0x1
 1086 04df 53       		.byte	0x53
 1087 04e0 02       		.uleb128 0x2
 1088 04e1 75       		.byte	0x75
 1089 04e2 00       		.sleb128 0
 1090 04e3 17       		.uleb128 0x17
 1091 04e4 02       		.uleb128 0x2
 1092 04e5 7D       		.byte	0x7d
 1093 04e6 00       		.sleb128 0
 1094 04e7 02       		.uleb128 0x2
 1095 04e8 74       		.byte	0x74
 1096 04e9 00       		.sleb128 0
 1097 04ea 00       		.byte	0
 1098 04eb 19       		.uleb128 0x19
 1099 04ec 32000000 		.4byte	.LVL35
 1100 04f0 4E080000 		.4byte	0x84e
 1101 04f4 18050000 		.4byte	0x518
 1102 04f8 17       		.uleb128 0x17
 1103 04f9 01       		.uleb128 0x1
 1104 04fa 50       		.byte	0x50
 1105 04fb 02       		.uleb128 0x2
 1106 04fc 79       		.byte	0x79
 1107 04fd 00       		.sleb128 0
 1108 04fe 17       		.uleb128 0x17
 1109 04ff 01       		.uleb128 0x1
 1110 0500 51       		.byte	0x51
 1111 0501 02       		.uleb128 0x2
 1112 0502 77       		.byte	0x77
 1113 0503 00       		.sleb128 0
 1114 0504 17       		.uleb128 0x17
 1115 0505 01       		.uleb128 0x1
 1116 0506 52       		.byte	0x52
 1117 0507 02       		.uleb128 0x2
 1118 0508 76       		.byte	0x76
 1119 0509 10       		.sleb128 16
 1120 050a 17       		.uleb128 0x17
 1121 050b 01       		.uleb128 0x1
 1122 050c 53       		.byte	0x53
 1123 050d 02       		.uleb128 0x2
 1124 050e 75       		.byte	0x75
 1125 050f 00       		.sleb128 0
 1126 0510 17       		.uleb128 0x17
 1127 0511 02       		.uleb128 0x2
 1128 0512 7D       		.byte	0x7d
 1129 0513 00       		.sleb128 0
 1130 0514 02       		.uleb128 0x2
 1131 0515 74       		.byte	0x74
 1132 0516 00       		.sleb128 0
 1133 0517 00       		.byte	0
 1134 0518 19       		.uleb128 0x19
 1135 0519 46000000 		.4byte	.LVL37
 1136 051d 59080000 		.4byte	0x859
 1137 0521 45050000 		.4byte	0x545
 1138 0525 17       		.uleb128 0x17
 1139 0526 01       		.uleb128 0x1
 1140 0527 50       		.byte	0x50
ARM GAS  /tmp/ccqBRpQq.s 			page 21


 1141 0528 02       		.uleb128 0x2
 1142 0529 79       		.byte	0x79
 1143 052a 00       		.sleb128 0
 1144 052b 17       		.uleb128 0x17
 1145 052c 01       		.uleb128 0x1
 1146 052d 51       		.byte	0x51
 1147 052e 02       		.uleb128 0x2
 1148 052f 77       		.byte	0x77
 1149 0530 00       		.sleb128 0
 1150 0531 17       		.uleb128 0x17
 1151 0532 01       		.uleb128 0x1
 1152 0533 52       		.byte	0x52
 1153 0534 02       		.uleb128 0x2
 1154 0535 76       		.byte	0x76
 1155 0536 20       		.sleb128 32
 1156 0537 17       		.uleb128 0x17
 1157 0538 01       		.uleb128 0x1
 1158 0539 53       		.byte	0x53
 1159 053a 02       		.uleb128 0x2
 1160 053b 75       		.byte	0x75
 1161 053c 00       		.sleb128 0
 1162 053d 17       		.uleb128 0x17
 1163 053e 02       		.uleb128 0x2
 1164 053f 7D       		.byte	0x7d
 1165 0540 00       		.sleb128 0
 1166 0541 02       		.uleb128 0x2
 1167 0542 74       		.byte	0x74
 1168 0543 00       		.sleb128 0
 1169 0544 00       		.byte	0
 1170 0545 19       		.uleb128 0x19
 1171 0546 94000000 		.4byte	.LVL45
 1172 054a 64080000 		.4byte	0x864
 1173 054e 70050000 		.4byte	0x570
 1174 0552 17       		.uleb128 0x17
 1175 0553 01       		.uleb128 0x1
 1176 0554 50       		.byte	0x50
 1177 0555 02       		.uleb128 0x2
 1178 0556 79       		.byte	0x79
 1179 0557 00       		.sleb128 0
 1180 0558 17       		.uleb128 0x17
 1181 0559 01       		.uleb128 0x1
 1182 055a 51       		.byte	0x51
 1183 055b 02       		.uleb128 0x2
 1184 055c 74       		.byte	0x74
 1185 055d 78       		.sleb128 -8
 1186 055e 17       		.uleb128 0x17
 1187 055f 01       		.uleb128 0x1
 1188 0560 52       		.byte	0x52
 1189 0561 01       		.uleb128 0x1
 1190 0562 38       		.byte	0x38
 1191 0563 17       		.uleb128 0x17
 1192 0564 01       		.uleb128 0x1
 1193 0565 53       		.byte	0x53
 1194 0566 01       		.uleb128 0x1
 1195 0567 30       		.byte	0x30
 1196 0568 17       		.uleb128 0x17
 1197 0569 02       		.uleb128 0x2
ARM GAS  /tmp/ccqBRpQq.s 			page 22


 1198 056a 7D       		.byte	0x7d
 1199 056b 00       		.sleb128 0
 1200 056c 02       		.uleb128 0x2
 1201 056d 77       		.byte	0x77
 1202 056e 00       		.sleb128 0
 1203 056f 00       		.byte	0
 1204 0570 16       		.uleb128 0x16
 1205 0571 B6000000 		.4byte	.LVL49
 1206 0575 64080000 		.4byte	0x864
 1207 0579 17       		.uleb128 0x17
 1208 057a 01       		.uleb128 0x1
 1209 057b 50       		.byte	0x50
 1210 057c 02       		.uleb128 0x2
 1211 057d 79       		.byte	0x79
 1212 057e 00       		.sleb128 0
 1213 057f 17       		.uleb128 0x17
 1214 0580 01       		.uleb128 0x1
 1215 0581 51       		.byte	0x51
 1216 0582 02       		.uleb128 0x2
 1217 0583 74       		.byte	0x74
 1218 0584 00       		.sleb128 0
 1219 0585 17       		.uleb128 0x17
 1220 0586 01       		.uleb128 0x1
 1221 0587 52       		.byte	0x52
 1222 0588 01       		.uleb128 0x1
 1223 0589 37       		.byte	0x37
 1224 058a 17       		.uleb128 0x17
 1225 058b 01       		.uleb128 0x1
 1226 058c 53       		.byte	0x53
 1227 058d 02       		.uleb128 0x2
 1228 058e 77       		.byte	0x77
 1229 058f 00       		.sleb128 0
 1230 0590 17       		.uleb128 0x17
 1231 0591 02       		.uleb128 0x2
 1232 0592 7D       		.byte	0x7d
 1233 0593 00       		.sleb128 0
 1234 0594 02       		.uleb128 0x2
 1235 0595 76       		.byte	0x76
 1236 0596 3C       		.sleb128 60
 1237 0597 00       		.byte	0
 1238 0598 00       		.byte	0
 1239 0599 11       		.uleb128 0x11
 1240 059a C9010000 		.4byte	.LASF63
 1241 059e 01       		.byte	0x1
 1242 059f 6A       		.byte	0x6a
 1243 05a0 CD000000 		.4byte	0xcd
 1244 05a4 00000000 		.4byte	.LFB5
 1245 05a8 10000000 		.4byte	.LFE5-.LFB5
 1246 05ac 01       		.uleb128 0x1
 1247 05ad 9C       		.byte	0x9c
 1248 05ae 02060000 		.4byte	0x602
 1249 05b2 12       		.uleb128 0x12
 1250 05b3 1C030000 		.4byte	.LASF64
 1251 05b7 01       		.byte	0x1
 1252 05b8 6A       		.byte	0x6a
 1253 05b9 27040000 		.4byte	0x427
 1254 05bd 8D020000 		.4byte	.LLST9
ARM GAS  /tmp/ccqBRpQq.s 			page 23


 1255 05c1 12       		.uleb128 0x12
 1256 05c2 59060000 		.4byte	.LASF65
 1257 05c6 01       		.byte	0x1
 1258 05c7 6A       		.byte	0x6a
 1259 05c8 DC010000 		.4byte	0x1dc
 1260 05cc AE020000 		.4byte	.LLST10
 1261 05d0 1A       		.uleb128 0x1a
 1262 05d1 0B030000 		.4byte	.LASF60
 1263 05d5 01       		.byte	0x1
 1264 05d6 6C       		.byte	0x6c
 1265 05d7 CD000000 		.4byte	0xcd
 1266 05db CF020000 		.4byte	.LLST11
 1267 05df 16       		.uleb128 0x16
 1268 05e0 0A000000 		.4byte	.LVL27
 1269 05e4 02060000 		.4byte	0x602
 1270 05e8 17       		.uleb128 0x17
 1271 05e9 01       		.uleb128 0x1
 1272 05ea 50       		.byte	0x50
 1273 05eb 03       		.uleb128 0x3
 1274 05ec F3       		.byte	0xf3
 1275 05ed 01       		.uleb128 0x1
 1276 05ee 50       		.byte	0x50
 1277 05ef 17       		.uleb128 0x17
 1278 05f0 01       		.uleb128 0x1
 1279 05f1 51       		.byte	0x51
 1280 05f2 03       		.uleb128 0x3
 1281 05f3 F3       		.byte	0xf3
 1282 05f4 01       		.uleb128 0x1
 1283 05f5 51       		.byte	0x51
 1284 05f6 17       		.uleb128 0x17
 1285 05f7 01       		.uleb128 0x1
 1286 05f8 52       		.byte	0x52
 1287 05f9 01       		.uleb128 0x1
 1288 05fa 30       		.byte	0x30
 1289 05fb 17       		.uleb128 0x17
 1290 05fc 01       		.uleb128 0x1
 1291 05fd 53       		.byte	0x53
 1292 05fe 01       		.uleb128 0x1
 1293 05ff 31       		.byte	0x31
 1294 0600 00       		.byte	0
 1295 0601 00       		.byte	0
 1296 0602 11       		.uleb128 0x11
 1297 0603 DD000000 		.4byte	.LASF66
 1298 0607 01       		.byte	0x1
 1299 0608 3F       		.byte	0x3f
 1300 0609 CD000000 		.4byte	0xcd
 1301 060d 00000000 		.4byte	.LFB4
 1302 0611 68000000 		.4byte	.LFE4-.LFB4
 1303 0615 01       		.uleb128 0x1
 1304 0616 9C       		.byte	0x9c
 1305 0617 09070000 		.4byte	0x709
 1306 061b 12       		.uleb128 0x12
 1307 061c 1C030000 		.4byte	.LASF64
 1308 0620 01       		.byte	0x1
 1309 0621 3F       		.byte	0x3f
 1310 0622 27040000 		.4byte	0x427
 1311 0626 FB020000 		.4byte	.LLST4
ARM GAS  /tmp/ccqBRpQq.s 			page 24


 1312 062a 12       		.uleb128 0x12
 1313 062b 59060000 		.4byte	.LASF65
 1314 062f 01       		.byte	0x1
 1315 0630 40       		.byte	0x40
 1316 0631 DC010000 		.4byte	0x1dc
 1317 0635 19030000 		.4byte	.LLST5
 1318 0639 12       		.uleb128 0x12
 1319 063a 0B030000 		.4byte	.LASF60
 1320 063e 01       		.byte	0x1
 1321 063f 41       		.byte	0x41
 1322 0640 CD000000 		.4byte	0xcd
 1323 0644 37030000 		.4byte	.LLST6
 1324 0648 12       		.uleb128 0x12
 1325 0649 DA040000 		.4byte	.LASF67
 1326 064d 01       		.byte	0x1
 1327 064e 42       		.byte	0x42
 1328 064f A2000000 		.4byte	0xa2
 1329 0653 B0030000 		.4byte	.LLST7
 1330 0657 14       		.uleb128 0x14
 1331 0658 6300     		.ascii	"c\000"
 1332 065a 01       		.byte	0x1
 1333 065b 44       		.byte	0x44
 1334 065c CD000000 		.4byte	0xcd
 1335 0660 D1030000 		.4byte	.LLST8
 1336 0664 19       		.uleb128 0x19
 1337 0665 0E000000 		.4byte	.LVL10
 1338 0669 70080000 		.4byte	0x870
 1339 066d 8A060000 		.4byte	0x68a
 1340 0671 17       		.uleb128 0x17
 1341 0672 01       		.uleb128 0x1
 1342 0673 50       		.byte	0x50
 1343 0674 02       		.uleb128 0x2
 1344 0675 76       		.byte	0x76
 1345 0676 00       		.sleb128 0
 1346 0677 17       		.uleb128 0x17
 1347 0678 01       		.uleb128 0x1
 1348 0679 51       		.byte	0x51
 1349 067a 02       		.uleb128 0x2
 1350 067b 77       		.byte	0x77
 1351 067c 00       		.sleb128 0
 1352 067d 17       		.uleb128 0x17
 1353 067e 01       		.uleb128 0x1
 1354 067f 52       		.byte	0x52
 1355 0680 03       		.uleb128 0x3
 1356 0681 F3       		.byte	0xf3
 1357 0682 01       		.uleb128 0x1
 1358 0683 52       		.byte	0x52
 1359 0684 17       		.uleb128 0x17
 1360 0685 01       		.uleb128 0x1
 1361 0686 53       		.byte	0x53
 1362 0687 01       		.uleb128 0x1
 1363 0688 30       		.byte	0x30
 1364 0689 00       		.byte	0
 1365 068a 19       		.uleb128 0x19
 1366 068b 1C000000 		.4byte	.LVL12
 1367 068f 7B080000 		.4byte	0x87b
 1368 0693 A9060000 		.4byte	0x6a9
ARM GAS  /tmp/ccqBRpQq.s 			page 25


 1369 0697 17       		.uleb128 0x17
 1370 0698 01       		.uleb128 0x1
 1371 0699 50       		.byte	0x50
 1372 069a 02       		.uleb128 0x2
 1373 069b 76       		.byte	0x76
 1374 069c 10       		.sleb128 16
 1375 069d 17       		.uleb128 0x17
 1376 069e 01       		.uleb128 0x1
 1377 069f 51       		.byte	0x51
 1378 06a0 02       		.uleb128 0x2
 1379 06a1 77       		.byte	0x77
 1380 06a2 00       		.sleb128 0
 1381 06a3 17       		.uleb128 0x17
 1382 06a4 01       		.uleb128 0x1
 1383 06a5 53       		.byte	0x53
 1384 06a6 01       		.uleb128 0x1
 1385 06a7 30       		.byte	0x30
 1386 06a8 00       		.byte	0
 1387 06a9 19       		.uleb128 0x19
 1388 06aa 2A000000 		.4byte	.LVL14
 1389 06ae 86080000 		.4byte	0x886
 1390 06b2 C8060000 		.4byte	0x6c8
 1391 06b6 17       		.uleb128 0x17
 1392 06b7 01       		.uleb128 0x1
 1393 06b8 50       		.byte	0x50
 1394 06b9 02       		.uleb128 0x2
 1395 06ba 76       		.byte	0x76
 1396 06bb 20       		.sleb128 32
 1397 06bc 17       		.uleb128 0x17
 1398 06bd 01       		.uleb128 0x1
 1399 06be 51       		.byte	0x51
 1400 06bf 02       		.uleb128 0x2
 1401 06c0 77       		.byte	0x77
 1402 06c1 00       		.sleb128 0
 1403 06c2 17       		.uleb128 0x17
 1404 06c3 01       		.uleb128 0x1
 1405 06c4 53       		.byte	0x53
 1406 06c5 01       		.uleb128 0x1
 1407 06c6 30       		.byte	0x30
 1408 06c7 00       		.byte	0
 1409 06c8 19       		.uleb128 0x19
 1410 06c9 44000000 		.4byte	.LVL18
 1411 06cd 91080000 		.4byte	0x891
 1412 06d1 E7060000 		.4byte	0x6e7
 1413 06d5 17       		.uleb128 0x17
 1414 06d6 01       		.uleb128 0x1
 1415 06d7 50       		.byte	0x50
 1416 06d8 02       		.uleb128 0x2
 1417 06d9 77       		.byte	0x77
 1418 06da 00       		.sleb128 0
 1419 06db 17       		.uleb128 0x17
 1420 06dc 01       		.uleb128 0x1
 1421 06dd 51       		.byte	0x51
 1422 06de 02       		.uleb128 0x2
 1423 06df 75       		.byte	0x75
 1424 06e0 00       		.sleb128 0
 1425 06e1 17       		.uleb128 0x17
ARM GAS  /tmp/ccqBRpQq.s 			page 26


 1426 06e2 01       		.uleb128 0x1
 1427 06e3 52       		.byte	0x52
 1428 06e4 01       		.uleb128 0x1
 1429 06e5 38       		.byte	0x38
 1430 06e6 00       		.byte	0
 1431 06e7 16       		.uleb128 0x16
 1432 06e8 64000000 		.4byte	.LVL24
 1433 06ec 91080000 		.4byte	0x891
 1434 06f0 17       		.uleb128 0x17
 1435 06f1 01       		.uleb128 0x1
 1436 06f2 50       		.byte	0x50
 1437 06f3 02       		.uleb128 0x2
 1438 06f4 77       		.byte	0x77
 1439 06f5 00       		.sleb128 0
 1440 06f6 17       		.uleb128 0x17
 1441 06f7 01       		.uleb128 0x1
 1442 06f8 51       		.byte	0x51
 1443 06f9 02       		.uleb128 0x2
 1444 06fa 75       		.byte	0x75
 1445 06fb 00       		.sleb128 0
 1446 06fc 17       		.uleb128 0x17
 1447 06fd 01       		.uleb128 0x1
 1448 06fe 52       		.byte	0x52
 1449 06ff 01       		.uleb128 0x1
 1450 0700 37       		.byte	0x37
 1451 0701 17       		.uleb128 0x17
 1452 0702 01       		.uleb128 0x1
 1453 0703 53       		.byte	0x53
 1454 0704 02       		.uleb128 0x2
 1455 0705 76       		.byte	0x76
 1456 0706 3C       		.sleb128 60
 1457 0707 00       		.byte	0
 1458 0708 00       		.byte	0
 1459 0709 11       		.uleb128 0x11
 1460 070a F9050000 		.4byte	.LASF68
 1461 070e 01       		.byte	0x1
 1462 070f 2F       		.byte	0x2f
 1463 0710 BD000000 		.4byte	0xbd
 1464 0714 00000000 		.4byte	.LFB3
 1465 0718 04000000 		.4byte	.LFE3-.LFB3
 1466 071c 01       		.uleb128 0x1
 1467 071d 9C       		.byte	0x9c
 1468 071e 59070000 		.4byte	0x759
 1469 0722 12       		.uleb128 0x12
 1470 0723 7F040000 		.4byte	.LASF57
 1471 0727 01       		.byte	0x1
 1472 0728 2F       		.byte	0x2f
 1473 0729 21040000 		.4byte	0x421
 1474 072d 14040000 		.4byte	.LLST3
 1475 0731 1B       		.uleb128 0x1b
 1476 0732 D6050000 		.4byte	.LASF24
 1477 0736 01       		.byte	0x1
 1478 0737 30       		.byte	0x30
 1479 0738 B2000000 		.4byte	0xb2
 1480 073c 01       		.uleb128 0x1
 1481 073d 51       		.byte	0x51
 1482 073e 1B       		.uleb128 0x1b
ARM GAS  /tmp/ccqBRpQq.s 			page 27


 1483 073f 6A000000 		.4byte	.LASF58
 1484 0743 01       		.byte	0x1
 1485 0744 31       		.byte	0x31
 1486 0745 59070000 		.4byte	0x759
 1487 0749 01       		.uleb128 0x1
 1488 074a 52       		.byte	0x52
 1489 074b 1B       		.uleb128 0x1b
 1490 074c 68020000 		.4byte	.LASF59
 1491 0750 01       		.byte	0x1
 1492 0751 32       		.byte	0x32
 1493 0752 2D040000 		.4byte	0x42d
 1494 0756 01       		.uleb128 0x1
 1495 0757 53       		.byte	0x53
 1496 0758 00       		.byte	0
 1497 0759 0A       		.uleb128 0xa
 1498 075a 04       		.byte	0x4
 1499 075b 14030000 		.4byte	0x314
 1500 075f 11       		.uleb128 0x11
 1501 0760 D8020000 		.4byte	.LASF69
 1502 0764 01       		.byte	0x1
 1503 0765 26       		.byte	0x26
 1504 0766 BD000000 		.4byte	0xbd
 1505 076a 00000000 		.4byte	.LFB2
 1506 076e 04000000 		.4byte	.LFE2-.LFB2
 1507 0772 01       		.uleb128 0x1
 1508 0773 9C       		.byte	0x9c
 1509 0774 BD070000 		.4byte	0x7bd
 1510 0778 12       		.uleb128 0x12
 1511 0779 7F040000 		.4byte	.LASF57
 1512 077d 01       		.byte	0x1
 1513 077e 26       		.byte	0x26
 1514 077f 21040000 		.4byte	0x421
 1515 0783 35040000 		.4byte	.LLST2
 1516 0787 1B       		.uleb128 0x1b
 1517 0788 D6050000 		.4byte	.LASF24
 1518 078c 01       		.byte	0x1
 1519 078d 27       		.byte	0x27
 1520 078e B2000000 		.4byte	0xb2
 1521 0792 01       		.uleb128 0x1
 1522 0793 51       		.byte	0x51
 1523 0794 1B       		.uleb128 0x1b
 1524 0795 6A000000 		.4byte	.LASF58
 1525 0799 01       		.byte	0x1
 1526 079a 28       		.byte	0x28
 1527 079b 59070000 		.4byte	0x759
 1528 079f 01       		.uleb128 0x1
 1529 07a0 52       		.byte	0x52
 1530 07a1 1B       		.uleb128 0x1b
 1531 07a2 68020000 		.4byte	.LASF59
 1532 07a6 01       		.byte	0x1
 1533 07a7 29       		.byte	0x29
 1534 07a8 2D040000 		.4byte	0x42d
 1535 07ac 01       		.uleb128 0x1
 1536 07ad 53       		.byte	0x53
 1537 07ae 1B       		.uleb128 0x1b
 1538 07af 0B030000 		.4byte	.LASF60
 1539 07b3 01       		.byte	0x1
ARM GAS  /tmp/ccqBRpQq.s 			page 28


 1540 07b4 2A       		.byte	0x2a
 1541 07b5 BD000000 		.4byte	0xbd
 1542 07b9 02       		.uleb128 0x2
 1543 07ba 91       		.byte	0x91
 1544 07bb 00       		.sleb128 0
 1545 07bc 00       		.byte	0
 1546 07bd 11       		.uleb128 0x11
 1547 07be 27020000 		.4byte	.LASF70
 1548 07c2 01       		.byte	0x1
 1549 07c3 21       		.byte	0x21
 1550 07c4 CD000000 		.4byte	0xcd
 1551 07c8 00000000 		.4byte	.LFB1
 1552 07cc 04000000 		.4byte	.LFE1-.LFB1
 1553 07d0 01       		.uleb128 0x1
 1554 07d1 9C       		.byte	0x9c
 1555 07d2 F3070000 		.4byte	0x7f3
 1556 07d6 12       		.uleb128 0x12
 1557 07d7 1C030000 		.4byte	.LASF64
 1558 07db 01       		.byte	0x1
 1559 07dc 21       		.byte	0x21
 1560 07dd 59070000 		.4byte	0x759
 1561 07e1 56040000 		.4byte	.LLST1
 1562 07e5 1B       		.uleb128 0x1b
 1563 07e6 59060000 		.4byte	.LASF65
 1564 07ea 01       		.byte	0x1
 1565 07eb 21       		.byte	0x21
 1566 07ec DC010000 		.4byte	0x1dc
 1567 07f0 01       		.uleb128 0x1
 1568 07f1 51       		.byte	0x51
 1569 07f2 00       		.byte	0
 1570 07f3 11       		.uleb128 0x11
 1571 07f4 F4010000 		.4byte	.LASF71
 1572 07f8 01       		.byte	0x1
 1573 07f9 19       		.byte	0x19
 1574 07fa CD000000 		.4byte	0xcd
 1575 07fe 00000000 		.4byte	.LFB0
 1576 0802 04000000 		.4byte	.LFE0-.LFB0
 1577 0806 01       		.uleb128 0x1
 1578 0807 9C       		.byte	0x9c
 1579 0808 43080000 		.4byte	0x843
 1580 080c 12       		.uleb128 0x12
 1581 080d 1C030000 		.4byte	.LASF64
 1582 0811 01       		.byte	0x1
 1583 0812 19       		.byte	0x19
 1584 0813 59070000 		.4byte	0x759
 1585 0817 77040000 		.4byte	.LLST0
 1586 081b 1B       		.uleb128 0x1b
 1587 081c 59060000 		.4byte	.LASF65
 1588 0820 01       		.byte	0x1
 1589 0821 1A       		.byte	0x1a
 1590 0822 DC010000 		.4byte	0x1dc
 1591 0826 01       		.uleb128 0x1
 1592 0827 51       		.byte	0x51
 1593 0828 1B       		.uleb128 0x1b
 1594 0829 0B030000 		.4byte	.LASF60
 1595 082d 01       		.byte	0x1
 1596 082e 1B       		.byte	0x1b
ARM GAS  /tmp/ccqBRpQq.s 			page 29


 1597 082f CD000000 		.4byte	0xcd
 1598 0833 01       		.uleb128 0x1
 1599 0834 52       		.byte	0x52
 1600 0835 1B       		.uleb128 0x1b
 1601 0836 DA040000 		.4byte	.LASF67
 1602 083a 01       		.byte	0x1
 1603 083b 1C       		.byte	0x1c
 1604 083c A2000000 		.4byte	0xa2
 1605 0840 01       		.uleb128 0x1
 1606 0841 53       		.byte	0x53
 1607 0842 00       		.byte	0
 1608 0843 1C       		.uleb128 0x1c
 1609 0844 A4020000 		.4byte	.LASF72
 1610 0848 A4020000 		.4byte	.LASF72
 1611 084c 06       		.byte	0x6
 1612 084d 83       		.byte	0x83
 1613 084e 1C       		.uleb128 0x1c
 1614 084f 74020000 		.4byte	.LASF73
 1615 0853 74020000 		.4byte	.LASF73
 1616 0857 07       		.byte	0x7
 1617 0858 6A       		.byte	0x6a
 1618 0859 1C       		.uleb128 0x1c
 1619 085a A6050000 		.4byte	.LASF74
 1620 085e A6050000 		.4byte	.LASF74
 1621 0862 05       		.byte	0x5
 1622 0863 58       		.byte	0x58
 1623 0864 1D       		.uleb128 0x1d
 1624 0865 23060000 		.4byte	.LASF75
 1625 0869 23060000 		.4byte	.LASF75
 1626 086d 04       		.byte	0x4
 1627 086e CD01     		.2byte	0x1cd
 1628 0870 1C       		.uleb128 0x1c
 1629 0871 9E010000 		.4byte	.LASF76
 1630 0875 9E010000 		.4byte	.LASF76
 1631 0879 06       		.byte	0x6
 1632 087a 80       		.byte	0x80
 1633 087b 1C       		.uleb128 0x1c
 1634 087c 6E010000 		.4byte	.LASF77
 1635 0880 6E010000 		.4byte	.LASF77
 1636 0884 07       		.byte	0x7
 1637 0885 67       		.byte	0x67
 1638 0886 1C       		.uleb128 0x1c
 1639 0887 00050000 		.4byte	.LASF78
 1640 088b 00050000 		.4byte	.LASF78
 1641 088f 05       		.byte	0x5
 1642 0890 55       		.byte	0x55
 1643 0891 1D       		.uleb128 0x1d
 1644 0892 12040000 		.4byte	.LASF79
 1645 0896 12040000 		.4byte	.LASF79
 1646 089a 04       		.byte	0x4
 1647 089b E701     		.2byte	0x1e7
 1648 089d 00       		.byte	0
 1649              		.section	.debug_abbrev,"",%progbits
 1650              	.Ldebug_abbrev0:
 1651 0000 01       		.uleb128 0x1
 1652 0001 11       		.uleb128 0x11
 1653 0002 01       		.byte	0x1
ARM GAS  /tmp/ccqBRpQq.s 			page 30


 1654 0003 25       		.uleb128 0x25
 1655 0004 0E       		.uleb128 0xe
 1656 0005 13       		.uleb128 0x13
 1657 0006 0B       		.uleb128 0xb
 1658 0007 03       		.uleb128 0x3
 1659 0008 0E       		.uleb128 0xe
 1660 0009 1B       		.uleb128 0x1b
 1661 000a 0E       		.uleb128 0xe
 1662 000b 55       		.uleb128 0x55
 1663 000c 17       		.uleb128 0x17
 1664 000d 11       		.uleb128 0x11
 1665 000e 01       		.uleb128 0x1
 1666 000f 10       		.uleb128 0x10
 1667 0010 17       		.uleb128 0x17
 1668 0011 00       		.byte	0
 1669 0012 00       		.byte	0
 1670 0013 02       		.uleb128 0x2
 1671 0014 24       		.uleb128 0x24
 1672 0015 00       		.byte	0
 1673 0016 0B       		.uleb128 0xb
 1674 0017 0B       		.uleb128 0xb
 1675 0018 3E       		.uleb128 0x3e
 1676 0019 0B       		.uleb128 0xb
 1677 001a 03       		.uleb128 0x3
 1678 001b 0E       		.uleb128 0xe
 1679 001c 00       		.byte	0
 1680 001d 00       		.byte	0
 1681 001e 03       		.uleb128 0x3
 1682 001f 16       		.uleb128 0x16
 1683 0020 00       		.byte	0
 1684 0021 03       		.uleb128 0x3
 1685 0022 0E       		.uleb128 0xe
 1686 0023 3A       		.uleb128 0x3a
 1687 0024 0B       		.uleb128 0xb
 1688 0025 3B       		.uleb128 0x3b
 1689 0026 0B       		.uleb128 0xb
 1690 0027 49       		.uleb128 0x49
 1691 0028 13       		.uleb128 0x13
 1692 0029 00       		.byte	0
 1693 002a 00       		.byte	0
 1694 002b 04       		.uleb128 0x4
 1695 002c 24       		.uleb128 0x24
 1696 002d 00       		.byte	0
 1697 002e 0B       		.uleb128 0xb
 1698 002f 0B       		.uleb128 0xb
 1699 0030 3E       		.uleb128 0x3e
 1700 0031 0B       		.uleb128 0xb
 1701 0032 03       		.uleb128 0x3
 1702 0033 08       		.uleb128 0x8
 1703 0034 00       		.byte	0
 1704 0035 00       		.byte	0
 1705 0036 05       		.uleb128 0x5
 1706 0037 26       		.uleb128 0x26
 1707 0038 00       		.byte	0
 1708 0039 49       		.uleb128 0x49
 1709 003a 13       		.uleb128 0x13
 1710 003b 00       		.byte	0
ARM GAS  /tmp/ccqBRpQq.s 			page 31


 1711 003c 00       		.byte	0
 1712 003d 06       		.uleb128 0x6
 1713 003e 13       		.uleb128 0x13
 1714 003f 01       		.byte	0x1
 1715 0040 03       		.uleb128 0x3
 1716 0041 0E       		.uleb128 0xe
 1717 0042 0B       		.uleb128 0xb
 1718 0043 0B       		.uleb128 0xb
 1719 0044 3A       		.uleb128 0x3a
 1720 0045 0B       		.uleb128 0xb
 1721 0046 3B       		.uleb128 0x3b
 1722 0047 05       		.uleb128 0x5
 1723 0048 01       		.uleb128 0x1
 1724 0049 13       		.uleb128 0x13
 1725 004a 00       		.byte	0
 1726 004b 00       		.byte	0
 1727 004c 07       		.uleb128 0x7
 1728 004d 0D       		.uleb128 0xd
 1729 004e 00       		.byte	0
 1730 004f 03       		.uleb128 0x3
 1731 0050 0E       		.uleb128 0xe
 1732 0051 3A       		.uleb128 0x3a
 1733 0052 0B       		.uleb128 0xb
 1734 0053 3B       		.uleb128 0x3b
 1735 0054 05       		.uleb128 0x5
 1736 0055 49       		.uleb128 0x49
 1737 0056 13       		.uleb128 0x13
 1738 0057 38       		.uleb128 0x38
 1739 0058 0B       		.uleb128 0xb
 1740 0059 00       		.byte	0
 1741 005a 00       		.byte	0
 1742 005b 08       		.uleb128 0x8
 1743 005c 13       		.uleb128 0x13
 1744 005d 01       		.byte	0x1
 1745 005e 03       		.uleb128 0x3
 1746 005f 0E       		.uleb128 0xe
 1747 0060 0B       		.uleb128 0xb
 1748 0061 0B       		.uleb128 0xb
 1749 0062 3A       		.uleb128 0x3a
 1750 0063 0B       		.uleb128 0xb
 1751 0064 3B       		.uleb128 0x3b
 1752 0065 0B       		.uleb128 0xb
 1753 0066 01       		.uleb128 0x1
 1754 0067 13       		.uleb128 0x13
 1755 0068 00       		.byte	0
 1756 0069 00       		.byte	0
 1757 006a 09       		.uleb128 0x9
 1758 006b 0D       		.uleb128 0xd
 1759 006c 00       		.byte	0
 1760 006d 03       		.uleb128 0x3
 1761 006e 0E       		.uleb128 0xe
 1762 006f 3A       		.uleb128 0x3a
 1763 0070 0B       		.uleb128 0xb
 1764 0071 3B       		.uleb128 0x3b
 1765 0072 0B       		.uleb128 0xb
 1766 0073 49       		.uleb128 0x49
 1767 0074 13       		.uleb128 0x13
ARM GAS  /tmp/ccqBRpQq.s 			page 32


 1768 0075 38       		.uleb128 0x38
 1769 0076 0B       		.uleb128 0xb
 1770 0077 00       		.byte	0
 1771 0078 00       		.byte	0
 1772 0079 0A       		.uleb128 0xa
 1773 007a 0F       		.uleb128 0xf
 1774 007b 00       		.byte	0
 1775 007c 0B       		.uleb128 0xb
 1776 007d 0B       		.uleb128 0xb
 1777 007e 49       		.uleb128 0x49
 1778 007f 13       		.uleb128 0x13
 1779 0080 00       		.byte	0
 1780 0081 00       		.byte	0
 1781 0082 0B       		.uleb128 0xb
 1782 0083 01       		.uleb128 0x1
 1783 0084 01       		.byte	0x1
 1784 0085 49       		.uleb128 0x49
 1785 0086 13       		.uleb128 0x13
 1786 0087 01       		.uleb128 0x1
 1787 0088 13       		.uleb128 0x13
 1788 0089 00       		.byte	0
 1789 008a 00       		.byte	0
 1790 008b 0C       		.uleb128 0xc
 1791 008c 21       		.uleb128 0x21
 1792 008d 00       		.byte	0
 1793 008e 49       		.uleb128 0x49
 1794 008f 13       		.uleb128 0x13
 1795 0090 00       		.byte	0
 1796 0091 00       		.byte	0
 1797 0092 0D       		.uleb128 0xd
 1798 0093 0F       		.uleb128 0xf
 1799 0094 00       		.byte	0
 1800 0095 0B       		.uleb128 0xb
 1801 0096 0B       		.uleb128 0xb
 1802 0097 00       		.byte	0
 1803 0098 00       		.byte	0
 1804 0099 0E       		.uleb128 0xe
 1805 009a 13       		.uleb128 0x13
 1806 009b 01       		.byte	0x1
 1807 009c 0B       		.uleb128 0xb
 1808 009d 0B       		.uleb128 0xb
 1809 009e 3A       		.uleb128 0x3a
 1810 009f 0B       		.uleb128 0xb
 1811 00a0 3B       		.uleb128 0x3b
 1812 00a1 0B       		.uleb128 0xb
 1813 00a2 01       		.uleb128 0x1
 1814 00a3 13       		.uleb128 0x13
 1815 00a4 00       		.byte	0
 1816 00a5 00       		.byte	0
 1817 00a6 0F       		.uleb128 0xf
 1818 00a7 0D       		.uleb128 0xd
 1819 00a8 00       		.byte	0
 1820 00a9 03       		.uleb128 0x3
 1821 00aa 08       		.uleb128 0x8
 1822 00ab 3A       		.uleb128 0x3a
 1823 00ac 0B       		.uleb128 0xb
 1824 00ad 3B       		.uleb128 0x3b
ARM GAS  /tmp/ccqBRpQq.s 			page 33


 1825 00ae 0B       		.uleb128 0xb
 1826 00af 49       		.uleb128 0x49
 1827 00b0 13       		.uleb128 0x13
 1828 00b1 38       		.uleb128 0x38
 1829 00b2 0B       		.uleb128 0xb
 1830 00b3 00       		.byte	0
 1831 00b4 00       		.byte	0
 1832 00b5 10       		.uleb128 0x10
 1833 00b6 21       		.uleb128 0x21
 1834 00b7 00       		.byte	0
 1835 00b8 49       		.uleb128 0x49
 1836 00b9 13       		.uleb128 0x13
 1837 00ba 2F       		.uleb128 0x2f
 1838 00bb 0B       		.uleb128 0xb
 1839 00bc 00       		.byte	0
 1840 00bd 00       		.byte	0
 1841 00be 11       		.uleb128 0x11
 1842 00bf 2E       		.uleb128 0x2e
 1843 00c0 01       		.byte	0x1
 1844 00c1 3F       		.uleb128 0x3f
 1845 00c2 19       		.uleb128 0x19
 1846 00c3 03       		.uleb128 0x3
 1847 00c4 0E       		.uleb128 0xe
 1848 00c5 3A       		.uleb128 0x3a
 1849 00c6 0B       		.uleb128 0xb
 1850 00c7 3B       		.uleb128 0x3b
 1851 00c8 0B       		.uleb128 0xb
 1852 00c9 27       		.uleb128 0x27
 1853 00ca 19       		.uleb128 0x19
 1854 00cb 49       		.uleb128 0x49
 1855 00cc 13       		.uleb128 0x13
 1856 00cd 11       		.uleb128 0x11
 1857 00ce 01       		.uleb128 0x1
 1858 00cf 12       		.uleb128 0x12
 1859 00d0 06       		.uleb128 0x6
 1860 00d1 40       		.uleb128 0x40
 1861 00d2 18       		.uleb128 0x18
 1862 00d3 9742     		.uleb128 0x2117
 1863 00d5 19       		.uleb128 0x19
 1864 00d6 01       		.uleb128 0x1
 1865 00d7 13       		.uleb128 0x13
 1866 00d8 00       		.byte	0
 1867 00d9 00       		.byte	0
 1868 00da 12       		.uleb128 0x12
 1869 00db 05       		.uleb128 0x5
 1870 00dc 00       		.byte	0
 1871 00dd 03       		.uleb128 0x3
 1872 00de 0E       		.uleb128 0xe
 1873 00df 3A       		.uleb128 0x3a
 1874 00e0 0B       		.uleb128 0xb
 1875 00e1 3B       		.uleb128 0x3b
 1876 00e2 0B       		.uleb128 0xb
 1877 00e3 49       		.uleb128 0x49
 1878 00e4 13       		.uleb128 0x13
 1879 00e5 02       		.uleb128 0x2
 1880 00e6 17       		.uleb128 0x17
 1881 00e7 00       		.byte	0
ARM GAS  /tmp/ccqBRpQq.s 			page 34


 1882 00e8 00       		.byte	0
 1883 00e9 13       		.uleb128 0x13
 1884 00ea 34       		.uleb128 0x34
 1885 00eb 00       		.byte	0
 1886 00ec 03       		.uleb128 0x3
 1887 00ed 0E       		.uleb128 0xe
 1888 00ee 3A       		.uleb128 0x3a
 1889 00ef 0B       		.uleb128 0xb
 1890 00f0 3B       		.uleb128 0x3b
 1891 00f1 0B       		.uleb128 0xb
 1892 00f2 49       		.uleb128 0x49
 1893 00f3 13       		.uleb128 0x13
 1894 00f4 1C       		.uleb128 0x1c
 1895 00f5 0B       		.uleb128 0xb
 1896 00f6 00       		.byte	0
 1897 00f7 00       		.byte	0
 1898 00f8 14       		.uleb128 0x14
 1899 00f9 34       		.uleb128 0x34
 1900 00fa 00       		.byte	0
 1901 00fb 03       		.uleb128 0x3
 1902 00fc 08       		.uleb128 0x8
 1903 00fd 3A       		.uleb128 0x3a
 1904 00fe 0B       		.uleb128 0xb
 1905 00ff 3B       		.uleb128 0x3b
 1906 0100 0B       		.uleb128 0xb
 1907 0101 49       		.uleb128 0x49
 1908 0102 13       		.uleb128 0x13
 1909 0103 02       		.uleb128 0x2
 1910 0104 17       		.uleb128 0x17
 1911 0105 00       		.byte	0
 1912 0106 00       		.byte	0
 1913 0107 15       		.uleb128 0x15
 1914 0108 0B       		.uleb128 0xb
 1915 0109 01       		.byte	0x1
 1916 010a 11       		.uleb128 0x11
 1917 010b 01       		.uleb128 0x1
 1918 010c 12       		.uleb128 0x12
 1919 010d 06       		.uleb128 0x6
 1920 010e 01       		.uleb128 0x1
 1921 010f 13       		.uleb128 0x13
 1922 0110 00       		.byte	0
 1923 0111 00       		.byte	0
 1924 0112 16       		.uleb128 0x16
 1925 0113 898201   		.uleb128 0x4109
 1926 0116 01       		.byte	0x1
 1927 0117 11       		.uleb128 0x11
 1928 0118 01       		.uleb128 0x1
 1929 0119 31       		.uleb128 0x31
 1930 011a 13       		.uleb128 0x13
 1931 011b 00       		.byte	0
 1932 011c 00       		.byte	0
 1933 011d 17       		.uleb128 0x17
 1934 011e 8A8201   		.uleb128 0x410a
 1935 0121 00       		.byte	0
 1936 0122 02       		.uleb128 0x2
 1937 0123 18       		.uleb128 0x18
 1938 0124 9142     		.uleb128 0x2111
ARM GAS  /tmp/ccqBRpQq.s 			page 35


 1939 0126 18       		.uleb128 0x18
 1940 0127 00       		.byte	0
 1941 0128 00       		.byte	0
 1942 0129 18       		.uleb128 0x18
 1943 012a 0A       		.uleb128 0xa
 1944 012b 00       		.byte	0
 1945 012c 03       		.uleb128 0x3
 1946 012d 0E       		.uleb128 0xe
 1947 012e 3A       		.uleb128 0x3a
 1948 012f 0B       		.uleb128 0xb
 1949 0130 3B       		.uleb128 0x3b
 1950 0131 0B       		.uleb128 0xb
 1951 0132 11       		.uleb128 0x11
 1952 0133 01       		.uleb128 0x1
 1953 0134 00       		.byte	0
 1954 0135 00       		.byte	0
 1955 0136 19       		.uleb128 0x19
 1956 0137 898201   		.uleb128 0x4109
 1957 013a 01       		.byte	0x1
 1958 013b 11       		.uleb128 0x11
 1959 013c 01       		.uleb128 0x1
 1960 013d 31       		.uleb128 0x31
 1961 013e 13       		.uleb128 0x13
 1962 013f 01       		.uleb128 0x1
 1963 0140 13       		.uleb128 0x13
 1964 0141 00       		.byte	0
 1965 0142 00       		.byte	0
 1966 0143 1A       		.uleb128 0x1a
 1967 0144 34       		.uleb128 0x34
 1968 0145 00       		.byte	0
 1969 0146 03       		.uleb128 0x3
 1970 0147 0E       		.uleb128 0xe
 1971 0148 3A       		.uleb128 0x3a
 1972 0149 0B       		.uleb128 0xb
 1973 014a 3B       		.uleb128 0x3b
 1974 014b 0B       		.uleb128 0xb
 1975 014c 49       		.uleb128 0x49
 1976 014d 13       		.uleb128 0x13
 1977 014e 02       		.uleb128 0x2
 1978 014f 17       		.uleb128 0x17
 1979 0150 00       		.byte	0
 1980 0151 00       		.byte	0
 1981 0152 1B       		.uleb128 0x1b
 1982 0153 05       		.uleb128 0x5
 1983 0154 00       		.byte	0
 1984 0155 03       		.uleb128 0x3
 1985 0156 0E       		.uleb128 0xe
 1986 0157 3A       		.uleb128 0x3a
 1987 0158 0B       		.uleb128 0xb
 1988 0159 3B       		.uleb128 0x3b
 1989 015a 0B       		.uleb128 0xb
 1990 015b 49       		.uleb128 0x49
 1991 015c 13       		.uleb128 0x13
 1992 015d 02       		.uleb128 0x2
 1993 015e 18       		.uleb128 0x18
 1994 015f 00       		.byte	0
 1995 0160 00       		.byte	0
ARM GAS  /tmp/ccqBRpQq.s 			page 36


 1996 0161 1C       		.uleb128 0x1c
 1997 0162 2E       		.uleb128 0x2e
 1998 0163 00       		.byte	0
 1999 0164 3F       		.uleb128 0x3f
 2000 0165 19       		.uleb128 0x19
 2001 0166 3C       		.uleb128 0x3c
 2002 0167 19       		.uleb128 0x19
 2003 0168 6E       		.uleb128 0x6e
 2004 0169 0E       		.uleb128 0xe
 2005 016a 03       		.uleb128 0x3
 2006 016b 0E       		.uleb128 0xe
 2007 016c 3A       		.uleb128 0x3a
 2008 016d 0B       		.uleb128 0xb
 2009 016e 3B       		.uleb128 0x3b
 2010 016f 0B       		.uleb128 0xb
 2011 0170 00       		.byte	0
 2012 0171 00       		.byte	0
 2013 0172 1D       		.uleb128 0x1d
 2014 0173 2E       		.uleb128 0x2e
 2015 0174 00       		.byte	0
 2016 0175 3F       		.uleb128 0x3f
 2017 0176 19       		.uleb128 0x19
 2018 0177 3C       		.uleb128 0x3c
 2019 0178 19       		.uleb128 0x19
 2020 0179 6E       		.uleb128 0x6e
 2021 017a 0E       		.uleb128 0xe
 2022 017b 03       		.uleb128 0x3
 2023 017c 0E       		.uleb128 0xe
 2024 017d 3A       		.uleb128 0x3a
 2025 017e 0B       		.uleb128 0xb
 2026 017f 3B       		.uleb128 0x3b
 2027 0180 05       		.uleb128 0x5
 2028 0181 00       		.byte	0
 2029 0182 00       		.byte	0
 2030 0183 00       		.byte	0
 2031              		.section	.debug_loc,"",%progbits
 2032              	.Ldebug_loc0:
 2033              	.LLST19:
 2034 0000 00000000 		.4byte	.LVL51
 2035 0004 19000000 		.4byte	.LVL53-1
 2036 0008 0100     		.2byte	0x1
 2037 000a 50       		.byte	0x50
 2038 000b 19000000 		.4byte	.LVL53-1
 2039 000f 1E000000 		.4byte	.LFE7
 2040 0013 0400     		.2byte	0x4
 2041 0015 F3       		.byte	0xf3
 2042 0016 01       		.uleb128 0x1
 2043 0017 50       		.byte	0x50
 2044 0018 9F       		.byte	0x9f
 2045 0019 00000000 		.4byte	0
 2046 001d 00000000 		.4byte	0
 2047              	.LLST20:
 2048 0021 00000000 		.4byte	.LVL51
 2049 0025 19000000 		.4byte	.LVL53-1
 2050 0029 0100     		.2byte	0x1
 2051 002b 51       		.byte	0x51
 2052 002c 19000000 		.4byte	.LVL53-1
ARM GAS  /tmp/ccqBRpQq.s 			page 37


 2053 0030 1E000000 		.4byte	.LFE7
 2054 0034 0400     		.2byte	0x4
 2055 0036 F3       		.byte	0xf3
 2056 0037 01       		.uleb128 0x1
 2057 0038 51       		.byte	0x51
 2058 0039 9F       		.byte	0x9f
 2059 003a 00000000 		.4byte	0
 2060 003e 00000000 		.4byte	0
 2061              	.LLST21:
 2062 0042 00000000 		.4byte	.LVL51
 2063 0046 19000000 		.4byte	.LVL53-1
 2064 004a 0100     		.2byte	0x1
 2065 004c 52       		.byte	0x52
 2066 004d 19000000 		.4byte	.LVL53-1
 2067 0051 1E000000 		.4byte	.LFE7
 2068 0055 0400     		.2byte	0x4
 2069 0057 76       		.byte	0x76
 2070 0058 B97F     		.sleb128 -71
 2071 005a 9F       		.byte	0x9f
 2072 005b 00000000 		.4byte	0
 2073 005f 00000000 		.4byte	0
 2074              	.LLST22:
 2075 0063 00000000 		.4byte	.LVL51
 2076 0067 19000000 		.4byte	.LVL53-1
 2077 006b 0100     		.2byte	0x1
 2078 006d 53       		.byte	0x53
 2079 006e 19000000 		.4byte	.LVL53-1
 2080 0072 1E000000 		.4byte	.LFE7
 2081 0076 0400     		.2byte	0x4
 2082 0078 F3       		.byte	0xf3
 2083 0079 01       		.uleb128 0x1
 2084 007a 53       		.byte	0x53
 2085 007b 9F       		.byte	0x9f
 2086 007c 00000000 		.4byte	0
 2087 0080 00000000 		.4byte	0
 2088              	.LLST23:
 2089 0084 00000000 		.4byte	.LVL51
 2090 0088 1A000000 		.4byte	.LVL53
 2091 008c 0200     		.2byte	0x2
 2092 008e 30       		.byte	0x30
 2093 008f 9F       		.byte	0x9f
 2094 0090 1A000000 		.4byte	.LVL53
 2095 0094 1E000000 		.4byte	.LFE7
 2096 0098 0100     		.2byte	0x1
 2097 009a 50       		.byte	0x50
 2098 009b 00000000 		.4byte	0
 2099 009f 00000000 		.4byte	0
 2100              	.LLST24:
 2101 00a3 00000000 		.4byte	.LVL51
 2102 00a7 0C000000 		.4byte	.LVL52
 2103 00ab 0200     		.2byte	0x2
 2104 00ad 30       		.byte	0x30
 2105 00ae 9F       		.byte	0x9f
 2106 00af 00000000 		.4byte	0
 2107 00b3 00000000 		.4byte	0
 2108              	.LLST12:
 2109 00b7 00000000 		.4byte	.LVL30
ARM GAS  /tmp/ccqBRpQq.s 			page 38


 2110 00bb 15000000 		.4byte	.LVL31-1
 2111 00bf 0100     		.2byte	0x1
 2112 00c1 50       		.byte	0x50
 2113 00c2 15000000 		.4byte	.LVL31-1
 2114 00c6 8C000000 		.4byte	.LVL44
 2115 00ca 0100     		.2byte	0x1
 2116 00cc 59       		.byte	0x59
 2117 00cd 8C000000 		.4byte	.LVL44
 2118 00d1 93000000 		.4byte	.LVL45-1
 2119 00d5 0100     		.2byte	0x1
 2120 00d7 50       		.byte	0x50
 2121 00d8 93000000 		.4byte	.LVL45-1
 2122 00dc C2000000 		.4byte	.LFE6
 2123 00e0 0100     		.2byte	0x1
 2124 00e2 59       		.byte	0x59
 2125 00e3 00000000 		.4byte	0
 2126 00e7 00000000 		.4byte	0
 2127              	.LLST13:
 2128 00eb 00000000 		.4byte	.LVL30
 2129 00ef 15000000 		.4byte	.LVL31-1
 2130 00f3 0100     		.2byte	0x1
 2131 00f5 51       		.byte	0x51
 2132 00f6 15000000 		.4byte	.LVL31-1
 2133 00fa C2000000 		.4byte	.LFE6
 2134 00fe 0400     		.2byte	0x4
 2135 0100 F3       		.byte	0xf3
 2136 0101 01       		.uleb128 0x1
 2137 0102 51       		.byte	0x51
 2138 0103 9F       		.byte	0x9f
 2139 0104 00000000 		.4byte	0
 2140 0108 00000000 		.4byte	0
 2141              	.LLST14:
 2142 010c 00000000 		.4byte	.LVL30
 2143 0110 15000000 		.4byte	.LVL31-1
 2144 0114 0100     		.2byte	0x1
 2145 0116 52       		.byte	0x52
 2146 0117 15000000 		.4byte	.LVL31-1
 2147 011b C2000000 		.4byte	.LFE6
 2148 011f 0100     		.2byte	0x1
 2149 0121 56       		.byte	0x56
 2150 0122 00000000 		.4byte	0
 2151 0126 00000000 		.4byte	0
 2152              	.LLST15:
 2153 012a 00000000 		.4byte	.LVL30
 2154 012e 15000000 		.4byte	.LVL31-1
 2155 0132 0100     		.2byte	0x1
 2156 0134 53       		.byte	0x53
 2157 0135 15000000 		.4byte	.LVL31-1
 2158 0139 C2000000 		.4byte	.LFE6
 2159 013d 0100     		.2byte	0x1
 2160 013f 55       		.byte	0x55
 2161 0140 00000000 		.4byte	0
 2162 0144 00000000 		.4byte	0
 2163              	.LLST16:
 2164 0148 00000000 		.4byte	.LVL30
 2165 014c 16000000 		.4byte	.LVL31
 2166 0150 0200     		.2byte	0x2
ARM GAS  /tmp/ccqBRpQq.s 			page 39


 2167 0152 91       		.byte	0x91
 2168 0153 00       		.sleb128 0
 2169 0154 16000000 		.4byte	.LVL31
 2170 0158 1A000000 		.4byte	.LVL32
 2171 015c 0100     		.2byte	0x1
 2172 015e 50       		.byte	0x50
 2173 015f 22000000 		.4byte	.LVL33
 2174 0163 2E000000 		.4byte	.LVL34
 2175 0167 0100     		.2byte	0x1
 2176 0169 50       		.byte	0x50
 2177 016a 2E000000 		.4byte	.LVL34
 2178 016e 32000000 		.4byte	.LVL35
 2179 0172 0100     		.2byte	0x1
 2180 0174 54       		.byte	0x54
 2181 0175 32000000 		.4byte	.LVL35
 2182 0179 42000000 		.4byte	.LVL36
 2183 017d 0100     		.2byte	0x1
 2184 017f 50       		.byte	0x50
 2185 0180 42000000 		.4byte	.LVL36
 2186 0184 46000000 		.4byte	.LVL37
 2187 0188 0100     		.2byte	0x1
 2188 018a 54       		.byte	0x54
 2189 018b 46000000 		.4byte	.LVL37
 2190 018f 5C000000 		.4byte	.LVL38
 2191 0193 0100     		.2byte	0x1
 2192 0195 50       		.byte	0x50
 2193 0196 5C000000 		.4byte	.LVL38
 2194 019a 6C000000 		.4byte	.LVL39
 2195 019e 0100     		.2byte	0x1
 2196 01a0 54       		.byte	0x54
 2197 01a1 6C000000 		.4byte	.LVL39
 2198 01a5 72000000 		.4byte	.LVL40
 2199 01a9 0300     		.2byte	0x3
 2200 01ab 74       		.byte	0x74
 2201 01ac 78       		.sleb128 -8
 2202 01ad 9F       		.byte	0x9f
 2203 01ae 72000000 		.4byte	.LVL40
 2204 01b2 88000000 		.4byte	.LVL43
 2205 01b6 0100     		.2byte	0x1
 2206 01b8 54       		.byte	0x54
 2207 01b9 88000000 		.4byte	.LVL43
 2208 01bd 93000000 		.4byte	.LVL45-1
 2209 01c1 0100     		.2byte	0x1
 2210 01c3 51       		.byte	0x51
 2211 01c4 93000000 		.4byte	.LVL45-1
 2212 01c8 98000000 		.4byte	.LVL46
 2213 01cc 0300     		.2byte	0x3
 2214 01ce 74       		.byte	0x74
 2215 01cf 78       		.sleb128 -8
 2216 01d0 9F       		.byte	0x9f
 2217 01d1 A4000000 		.4byte	.LVL47
 2218 01d5 B2000000 		.4byte	.LVL48
 2219 01d9 0100     		.2byte	0x1
 2220 01db 50       		.byte	0x50
 2221 01dc B2000000 		.4byte	.LVL48
 2222 01e0 C2000000 		.4byte	.LFE6
 2223 01e4 0100     		.2byte	0x1
ARM GAS  /tmp/ccqBRpQq.s 			page 40


 2224 01e6 54       		.byte	0x54
 2225 01e7 00000000 		.4byte	0
 2226 01eb 00000000 		.4byte	0
 2227              	.LLST17:
 2228 01ef 00000000 		.4byte	.LVL30
 2229 01f3 1A000000 		.4byte	.LVL32
 2230 01f7 0200     		.2byte	0x2
 2231 01f9 30       		.byte	0x30
 2232 01fa 9F       		.byte	0x9f
 2233 01fb 22000000 		.4byte	.LVL33
 2234 01ff 5C000000 		.4byte	.LVL38
 2235 0203 0200     		.2byte	0x2
 2236 0205 30       		.byte	0x30
 2237 0206 9F       		.byte	0x9f
 2238 0207 6C000000 		.4byte	.LVL39
 2239 020b 72000000 		.4byte	.LVL40
 2240 020f 0100     		.2byte	0x1
 2241 0211 50       		.byte	0x50
 2242 0212 94000000 		.4byte	.LVL45
 2243 0216 A4000000 		.4byte	.LVL47
 2244 021a 0100     		.2byte	0x1
 2245 021c 50       		.byte	0x50
 2246 021d A4000000 		.4byte	.LVL47
 2247 0221 B6000000 		.4byte	.LVL49
 2248 0225 0200     		.2byte	0x2
 2249 0227 30       		.byte	0x30
 2250 0228 9F       		.byte	0x9f
 2251 0229 B6000000 		.4byte	.LVL49
 2252 022d C2000000 		.4byte	.LFE6
 2253 0231 0100     		.2byte	0x1
 2254 0233 50       		.byte	0x50
 2255 0234 00000000 		.4byte	0
 2256 0238 00000000 		.4byte	0
 2257              	.LLST18:
 2258 023c 00000000 		.4byte	.LVL30
 2259 0240 1A000000 		.4byte	.LVL32
 2260 0244 0200     		.2byte	0x2
 2261 0246 30       		.byte	0x30
 2262 0247 9F       		.byte	0x9f
 2263 0248 22000000 		.4byte	.LVL33
 2264 024c 6C000000 		.4byte	.LVL39
 2265 0250 0200     		.2byte	0x2
 2266 0252 30       		.byte	0x30
 2267 0253 9F       		.byte	0x9f
 2268 0254 6C000000 		.4byte	.LVL39
 2269 0258 72000000 		.4byte	.LVL40
 2270 025c 0300     		.2byte	0x3
 2271 025e 78       		.byte	0x78
 2272 025f 7F       		.sleb128 -1
 2273 0260 9F       		.byte	0x9f
 2274 0261 72000000 		.4byte	.LVL40
 2275 0265 86000000 		.4byte	.LVL42
 2276 0269 0100     		.2byte	0x1
 2277 026b 58       		.byte	0x58
 2278 026c 86000000 		.4byte	.LVL42
 2279 0270 98000000 		.4byte	.LVL46
 2280 0274 0300     		.2byte	0x3
ARM GAS  /tmp/ccqBRpQq.s 			page 41


 2281 0276 78       		.byte	0x78
 2282 0277 7F       		.sleb128 -1
 2283 0278 9F       		.byte	0x9f
 2284 0279 A4000000 		.4byte	.LVL47
 2285 027d C2000000 		.4byte	.LFE6
 2286 0281 0200     		.2byte	0x2
 2287 0283 30       		.byte	0x30
 2288 0284 9F       		.byte	0x9f
 2289 0285 00000000 		.4byte	0
 2290 0289 00000000 		.4byte	0
 2291              	.LLST9:
 2292 028d 00000000 		.4byte	.LVL26
 2293 0291 09000000 		.4byte	.LVL27-1
 2294 0295 0100     		.2byte	0x1
 2295 0297 50       		.byte	0x50
 2296 0298 09000000 		.4byte	.LVL27-1
 2297 029c 10000000 		.4byte	.LFE5
 2298 02a0 0400     		.2byte	0x4
 2299 02a2 F3       		.byte	0xf3
 2300 02a3 01       		.uleb128 0x1
 2301 02a4 50       		.byte	0x50
 2302 02a5 9F       		.byte	0x9f
 2303 02a6 00000000 		.4byte	0
 2304 02aa 00000000 		.4byte	0
 2305              	.LLST10:
 2306 02ae 00000000 		.4byte	.LVL26
 2307 02b2 09000000 		.4byte	.LVL27-1
 2308 02b6 0100     		.2byte	0x1
 2309 02b8 51       		.byte	0x51
 2310 02b9 09000000 		.4byte	.LVL27-1
 2311 02bd 10000000 		.4byte	.LFE5
 2312 02c1 0400     		.2byte	0x4
 2313 02c3 F3       		.byte	0xf3
 2314 02c4 01       		.uleb128 0x1
 2315 02c5 51       		.byte	0x51
 2316 02c6 9F       		.byte	0x9f
 2317 02c7 00000000 		.4byte	0
 2318 02cb 00000000 		.4byte	0
 2319              	.LLST11:
 2320 02cf 00000000 		.4byte	.LVL26
 2321 02d3 0A000000 		.4byte	.LVL27
 2322 02d7 0200     		.2byte	0x2
 2323 02d9 30       		.byte	0x30
 2324 02da 9F       		.byte	0x9f
 2325 02db 0A000000 		.4byte	.LVL27
 2326 02df 0C000000 		.4byte	.LVL28
 2327 02e3 0100     		.2byte	0x1
 2328 02e5 50       		.byte	0x50
 2329 02e6 0C000000 		.4byte	.LVL28
 2330 02ea 0E000000 		.4byte	.LVL29
 2331 02ee 0300     		.2byte	0x3
 2332 02f0 70       		.byte	0x70
 2333 02f1 79       		.sleb128 -7
 2334 02f2 9F       		.byte	0x9f
 2335 02f3 00000000 		.4byte	0
 2336 02f7 00000000 		.4byte	0
 2337              	.LLST4:
ARM GAS  /tmp/ccqBRpQq.s 			page 42


 2338 02fb 00000000 		.4byte	.LVL8
 2339 02ff 0D000000 		.4byte	.LVL10-1
 2340 0303 0100     		.2byte	0x1
 2341 0305 50       		.byte	0x50
 2342 0306 0D000000 		.4byte	.LVL10-1
 2343 030a 68000000 		.4byte	.LFE4
 2344 030e 0100     		.2byte	0x1
 2345 0310 56       		.byte	0x56
 2346 0311 00000000 		.4byte	0
 2347 0315 00000000 		.4byte	0
 2348              	.LLST5:
 2349 0319 00000000 		.4byte	.LVL8
 2350 031d 0D000000 		.4byte	.LVL10-1
 2351 0321 0100     		.2byte	0x1
 2352 0323 51       		.byte	0x51
 2353 0324 0D000000 		.4byte	.LVL10-1
 2354 0328 68000000 		.4byte	.LFE4
 2355 032c 0100     		.2byte	0x1
 2356 032e 57       		.byte	0x57
 2357 032f 00000000 		.4byte	0
 2358 0333 00000000 		.4byte	0
 2359              	.LLST6:
 2360 0337 00000000 		.4byte	.LVL8
 2361 033b 0D000000 		.4byte	.LVL10-1
 2362 033f 0100     		.2byte	0x1
 2363 0341 52       		.byte	0x52
 2364 0342 0D000000 		.4byte	.LVL10-1
 2365 0346 0E000000 		.4byte	.LVL10
 2366 034a 0400     		.2byte	0x4
 2367 034c F3       		.byte	0xf3
 2368 034d 01       		.uleb128 0x1
 2369 034e 52       		.byte	0x52
 2370 034f 9F       		.byte	0x9f
 2371 0350 0E000000 		.4byte	.LVL10
 2372 0354 18000000 		.4byte	.LVL11
 2373 0358 0100     		.2byte	0x1
 2374 035a 50       		.byte	0x50
 2375 035b 18000000 		.4byte	.LVL11
 2376 035f 1B000000 		.4byte	.LVL12-1
 2377 0363 0100     		.2byte	0x1
 2378 0365 52       		.byte	0x52
 2379 0366 1C000000 		.4byte	.LVL12
 2380 036a 26000000 		.4byte	.LVL13
 2381 036e 0100     		.2byte	0x1
 2382 0370 50       		.byte	0x50
 2383 0371 26000000 		.4byte	.LVL13
 2384 0375 29000000 		.4byte	.LVL14-1
 2385 0379 0100     		.2byte	0x1
 2386 037b 52       		.byte	0x52
 2387 037c 2C000000 		.4byte	.LVL15
 2388 0380 2E000000 		.4byte	.LVL16
 2389 0384 0100     		.2byte	0x1
 2390 0386 50       		.byte	0x50
 2391 0387 2E000000 		.4byte	.LVL16
 2392 038b 56000000 		.4byte	.LVL22
 2393 038f 0100     		.2byte	0x1
 2394 0391 55       		.byte	0x55
ARM GAS  /tmp/ccqBRpQq.s 			page 43


 2395 0392 56000000 		.4byte	.LVL22
 2396 0396 60000000 		.4byte	.LVL23
 2397 039a 0100     		.2byte	0x1
 2398 039c 50       		.byte	0x50
 2399 039d 60000000 		.4byte	.LVL23
 2400 03a1 68000000 		.4byte	.LFE4
 2401 03a5 0100     		.2byte	0x1
 2402 03a7 55       		.byte	0x55
 2403 03a8 00000000 		.4byte	0
 2404 03ac 00000000 		.4byte	0
 2405              	.LLST7:
 2406 03b0 00000000 		.4byte	.LVL8
 2407 03b4 06000000 		.4byte	.LVL9
 2408 03b8 0100     		.2byte	0x1
 2409 03ba 53       		.byte	0x53
 2410 03bb 06000000 		.4byte	.LVL9
 2411 03bf 68000000 		.4byte	.LFE4
 2412 03c3 0400     		.2byte	0x4
 2413 03c5 F3       		.byte	0xf3
 2414 03c6 01       		.uleb128 0x1
 2415 03c7 53       		.byte	0x53
 2416 03c8 9F       		.byte	0x9f
 2417 03c9 00000000 		.4byte	0
 2418 03cd 00000000 		.4byte	0
 2419              	.LLST8:
 2420 03d1 00000000 		.4byte	.LVL8
 2421 03d5 36000000 		.4byte	.LVL17
 2422 03d9 0200     		.2byte	0x2
 2423 03db 30       		.byte	0x30
 2424 03dc 9F       		.byte	0x9f
 2425 03dd 36000000 		.4byte	.LVL17
 2426 03e1 4A000000 		.4byte	.LVL19
 2427 03e5 0100     		.2byte	0x1
 2428 03e7 54       		.byte	0x54
 2429 03e8 4A000000 		.4byte	.LVL19
 2430 03ec 50000000 		.4byte	.LVL20
 2431 03f0 0300     		.2byte	0x3
 2432 03f2 74       		.byte	0x74
 2433 03f3 7F       		.sleb128 -1
 2434 03f4 9F       		.byte	0x9f
 2435 03f5 50000000 		.4byte	.LVL20
 2436 03f9 52000000 		.4byte	.LVL21
 2437 03fd 0100     		.2byte	0x1
 2438 03ff 54       		.byte	0x54
 2439 0400 56000000 		.4byte	.LVL22
 2440 0404 68000000 		.4byte	.LFE4
 2441 0408 0200     		.2byte	0x2
 2442 040a 30       		.byte	0x30
 2443 040b 9F       		.byte	0x9f
 2444 040c 00000000 		.4byte	0
 2445 0410 00000000 		.4byte	0
 2446              	.LLST3:
 2447 0414 00000000 		.4byte	.LVL6
 2448 0418 02000000 		.4byte	.LVL7
 2449 041c 0100     		.2byte	0x1
 2450 041e 50       		.byte	0x50
 2451 041f 02000000 		.4byte	.LVL7
ARM GAS  /tmp/ccqBRpQq.s 			page 44


 2452 0423 04000000 		.4byte	.LFE3
 2453 0427 0400     		.2byte	0x4
 2454 0429 F3       		.byte	0xf3
 2455 042a 01       		.uleb128 0x1
 2456 042b 50       		.byte	0x50
 2457 042c 9F       		.byte	0x9f
 2458 042d 00000000 		.4byte	0
 2459 0431 00000000 		.4byte	0
 2460              	.LLST2:
 2461 0435 00000000 		.4byte	.LVL4
 2462 0439 02000000 		.4byte	.LVL5
 2463 043d 0100     		.2byte	0x1
 2464 043f 50       		.byte	0x50
 2465 0440 02000000 		.4byte	.LVL5
 2466 0444 04000000 		.4byte	.LFE2
 2467 0448 0400     		.2byte	0x4
 2468 044a F3       		.byte	0xf3
 2469 044b 01       		.uleb128 0x1
 2470 044c 50       		.byte	0x50
 2471 044d 9F       		.byte	0x9f
 2472 044e 00000000 		.4byte	0
 2473 0452 00000000 		.4byte	0
 2474              	.LLST1:
 2475 0456 00000000 		.4byte	.LVL2
 2476 045a 02000000 		.4byte	.LVL3
 2477 045e 0100     		.2byte	0x1
 2478 0460 50       		.byte	0x50
 2479 0461 02000000 		.4byte	.LVL3
 2480 0465 04000000 		.4byte	.LFE1
 2481 0469 0400     		.2byte	0x4
 2482 046b F3       		.byte	0xf3
 2483 046c 01       		.uleb128 0x1
 2484 046d 50       		.byte	0x50
 2485 046e 9F       		.byte	0x9f
 2486 046f 00000000 		.4byte	0
 2487 0473 00000000 		.4byte	0
 2488              	.LLST0:
 2489 0477 00000000 		.4byte	.LVL0
 2490 047b 02000000 		.4byte	.LVL1
 2491 047f 0100     		.2byte	0x1
 2492 0481 50       		.byte	0x50
 2493 0482 02000000 		.4byte	.LVL1
 2494 0486 04000000 		.4byte	.LFE0
 2495 048a 0400     		.2byte	0x4
 2496 048c F3       		.byte	0xf3
 2497 048d 01       		.uleb128 0x1
 2498 048e 50       		.byte	0x50
 2499 048f 9F       		.byte	0x9f
 2500 0490 00000000 		.4byte	0
 2501 0494 00000000 		.4byte	0
 2502              		.section	.debug_aranges,"",%progbits
 2503 0000 54000000 		.4byte	0x54
 2504 0004 0200     		.2byte	0x2
 2505 0006 00000000 		.4byte	.Ldebug_info0
 2506 000a 04       		.byte	0x4
 2507 000b 00       		.byte	0
 2508 000c 0000     		.2byte	0
ARM GAS  /tmp/ccqBRpQq.s 			page 45


 2509 000e 0000     		.2byte	0
 2510 0010 00000000 		.4byte	.LFB0
 2511 0014 04000000 		.4byte	.LFE0-.LFB0
 2512 0018 00000000 		.4byte	.LFB1
 2513 001c 04000000 		.4byte	.LFE1-.LFB1
 2514 0020 00000000 		.4byte	.LFB2
 2515 0024 04000000 		.4byte	.LFE2-.LFB2
 2516 0028 00000000 		.4byte	.LFB3
 2517 002c 04000000 		.4byte	.LFE3-.LFB3
 2518 0030 00000000 		.4byte	.LFB4
 2519 0034 68000000 		.4byte	.LFE4-.LFB4
 2520 0038 00000000 		.4byte	.LFB5
 2521 003c 10000000 		.4byte	.LFE5-.LFB5
 2522 0040 00000000 		.4byte	.LFB6
 2523 0044 C2000000 		.4byte	.LFE6-.LFB6
 2524 0048 00000000 		.4byte	.LFB7
 2525 004c 1E000000 		.4byte	.LFE7-.LFB7
 2526 0050 00000000 		.4byte	0
 2527 0054 00000000 		.4byte	0
 2528              		.section	.debug_ranges,"",%progbits
 2529              	.Ldebug_ranges0:
 2530 0000 00000000 		.4byte	.LFB0
 2531 0004 04000000 		.4byte	.LFE0
 2532 0008 00000000 		.4byte	.LFB1
 2533 000c 04000000 		.4byte	.LFE1
 2534 0010 00000000 		.4byte	.LFB2
 2535 0014 04000000 		.4byte	.LFE2
 2536 0018 00000000 		.4byte	.LFB3
 2537 001c 04000000 		.4byte	.LFE3
 2538 0020 00000000 		.4byte	.LFB4
 2539 0024 68000000 		.4byte	.LFE4
 2540 0028 00000000 		.4byte	.LFB5
 2541 002c 10000000 		.4byte	.LFE5
 2542 0030 00000000 		.4byte	.LFB6
 2543 0034 C2000000 		.4byte	.LFE6
 2544 0038 00000000 		.4byte	.LFB7
 2545 003c 1E000000 		.4byte	.LFE7
 2546 0040 00000000 		.4byte	0
 2547 0044 00000000 		.4byte	0
 2548              		.section	.debug_line,"",%progbits
 2549              	.Ldebug_line0:
 2550 0000 14020000 		.section	.debug_str,"MS",%progbits,1
 2550      02001001 
 2550      00000201 
 2550      FB0E0D00 
 2550      01010101 
 2551              	.LASF39:
 2552 0000 75617663 		.ascii	"uavcan_protocol_HardwareVersion\000"
 2552      616E5F70 
 2552      726F746F 
 2552      636F6C5F 
 2552      48617264 
 2553              	.LASF25:
 2554 0020 64617461 		.ascii	"data_type_id\000"
 2554      5F747970 
 2554      655F6964 
 2554      00
ARM GAS  /tmp/ccqBRpQq.s 			page 46


 2555              	.LASF81:
 2556 002d 6C696263 		.ascii	"libcanard/dsdl/uavcan/protocol/protocol_GetNodeInfo"
 2556      616E6172 
 2556      642F6473 
 2556      646C2F75 
 2556      61766361 
 2557 0060 2E6300   		.ascii	".c\000"
 2558              	.LASF41:
 2559 0063 6865616C 		.ascii	"health\000"
 2559      746800
 2560              	.LASF58:
 2561 006a 64657374 		.ascii	"dest\000"
 2561      00
 2562              	.LASF28:
 2563 006f 7072696F 		.ascii	"priority\000"
 2563      72697479 
 2563      00
 2564              	.LASF54:
 2565 0078 68617264 		.ascii	"hardware_version\000"
 2565      77617265 
 2565      5F766572 
 2565      73696F6E 
 2565      00
 2566              	.LASF18:
 2567 0089 75696E74 		.ascii	"uint64_t\000"
 2567      36345F74 
 2567      00
 2568              	.LASF2:
 2569 0092 73686F72 		.ascii	"short int\000"
 2569      7420696E 
 2569      7400
 2570              	.LASF47:
 2571 009c 7663735F 		.ascii	"vcs_commit\000"
 2571      636F6D6D 
 2571      697400
 2572              	.LASF53:
 2573 00a7 736F6674 		.ascii	"software_version\000"
 2573      77617265 
 2573      5F766572 
 2573      73696F6E 
 2573      00
 2574              	.LASF8:
 2575 00b8 5F5F7569 		.ascii	"__uint32_t\000"
 2575      6E743332 
 2575      5F7400
 2576              	.LASF42:
 2577 00c3 6D6F6465 		.ascii	"mode\000"
 2577      00
 2578              	.LASF4:
 2579 00c8 5F5F7569 		.ascii	"__uint16_t\000"
 2579      6E743136 
 2579      5F7400
 2580              	.LASF48:
 2581 00d3 696D6167 		.ascii	"image_crc\000"
 2581      655F6372 
 2581      6300
 2582              	.LASF66:
ARM GAS  /tmp/ccqBRpQq.s 			page 47


 2583 00dd 75617663 		.ascii	"uavcan_protocol_GetNodeInfoResponse_encode_internal"
 2583      616E5F70 
 2583      726F746F 
 2583      636F6C5F 
 2583      4765744E 
 2584 0110 00       		.ascii	"\000"
 2585              	.LASF50:
 2586 0111 656D7074 		.ascii	"empty\000"
 2586      7900
 2587              	.LASF35:
 2588 0117 6D616A6F 		.ascii	"major\000"
 2588      7200
 2589              	.LASF14:
 2590 011d 75696E74 		.ascii	"uint8_t\000"
 2590      385F7400 
 2591              	.LASF62:
 2592 0125 75617663 		.ascii	"uavcan_protocol_GetNodeInfoResponse_decode_internal"
 2592      616E5F70 
 2592      726F746F 
 2592      636F6C5F 
 2592      4765744E 
 2593 0158 00       		.ascii	"\000"
 2594              	.LASF46:
 2595 0159 6F707469 		.ascii	"optional_field_flags\000"
 2595      6F6E616C 
 2595      5F666965 
 2595      6C645F66 
 2595      6C616773 
 2596              	.LASF77:
 2597 016e 75617663 		.ascii	"uavcan_protocol_SoftwareVersion_encode_internal\000"
 2597      616E5F70 
 2597      726F746F 
 2597      636F6C5F 
 2597      536F6674 
 2598              	.LASF76:
 2599 019e 75617663 		.ascii	"uavcan_protocol_NodeStatus_encode_internal\000"
 2599      616E5F70 
 2599      726F746F 
 2599      636F6C5F 
 2599      4E6F6465 
 2600              	.LASF63:
 2601 01c9 75617663 		.ascii	"uavcan_protocol_GetNodeInfoResponse_encode\000"
 2601      616E5F70 
 2601      726F746F 
 2601      636F6C5F 
 2601      4765744E 
 2602              	.LASF71:
 2603 01f4 75617663 		.ascii	"uavcan_protocol_GetNodeInfoRequest_encode_internal\000"
 2603      616E5F70 
 2603      726F746F 
 2603      636F6C5F 
 2603      4765744E 
 2604              	.LASF70:
 2605 0227 75617663 		.ascii	"uavcan_protocol_GetNodeInfoRequest_encode\000"
 2605      616E5F70 
 2605      726F746F 
 2605      636F6C5F 
ARM GAS  /tmp/ccqBRpQq.s 			page 48


 2605      4765744E 
 2606              	.LASF43:
 2607 0251 7375625F 		.ascii	"sub_mode\000"
 2607      6D6F6465 
 2607      00
 2608              	.LASF10:
 2609 025a 6C6F6E67 		.ascii	"long long int\000"
 2609      206C6F6E 
 2609      6720696E 
 2609      7400
 2610              	.LASF59:
 2611 0268 64796E5F 		.ascii	"dyn_arr_buf\000"
 2611      6172725F 
 2611      62756600 
 2612              	.LASF73:
 2613 0274 75617663 		.ascii	"uavcan_protocol_SoftwareVersion_decode_internal\000"
 2613      616E5F70 
 2613      726F746F 
 2613      636F6C5F 
 2613      536F6674 
 2614              	.LASF72:
 2615 02a4 75617663 		.ascii	"uavcan_protocol_NodeStatus_decode_internal\000"
 2615      616E5F70 
 2615      726F746F 
 2615      636F6C5F 
 2615      4E6F6465 
 2616              	.LASF7:
 2617 02cf 6C6F6E67 		.ascii	"long int\000"
 2617      20696E74 
 2617      00
 2618              	.LASF69:
 2619 02d8 75617663 		.ascii	"uavcan_protocol_GetNodeInfoRequest_decode_internal\000"
 2619      616E5F70 
 2619      726F746F 
 2619      636F6C5F 
 2619      4765744E 
 2620              	.LASF60:
 2621 030b 6F666673 		.ascii	"offset\000"
 2621      657400
 2622              	.LASF3:
 2623 0312 5F5F7569 		.ascii	"__uint8_t\000"
 2623      6E74385F 
 2623      7400
 2624              	.LASF64:
 2625 031c 736F7572 		.ascii	"source\000"
 2625      636500
 2626              	.LASF23:
 2627 0323 7061796C 		.ascii	"payload_tail\000"
 2627      6F61645F 
 2627      7461696C 
 2627      00
 2628              	.LASF20:
 2629 0330 74696D65 		.ascii	"timestamp_usec\000"
 2629      7374616D 
 2629      705F7573 
 2629      656300
 2630              	.LASF55:
ARM GAS  /tmp/ccqBRpQq.s 			page 49


 2631 033f 6E616D65 		.ascii	"name\000"
 2631      00
 2632              	.LASF37:
 2633 0344 756E6971 		.ascii	"unique_id\000"
 2633      75655F69 
 2633      6400
 2634              	.LASF1:
 2635 034e 756E7369 		.ascii	"unsigned char\000"
 2635      676E6564 
 2635      20636861 
 2635      7200
 2636              	.LASF22:
 2637 035c 7061796C 		.ascii	"payload_middle\000"
 2637      6F61645F 
 2637      6D696464 
 2637      6C6500
 2638              	.LASF82:
 2639 036b 2F626C64 		.ascii	"/bldc\000"
 2639      6300
 2640              	.LASF0:
 2641 0371 7369676E 		.ascii	"signed char\000"
 2641      65642063 
 2641      68617200 
 2642              	.LASF12:
 2643 037d 6C6F6E67 		.ascii	"long long unsigned int\000"
 2643      206C6F6E 
 2643      6720756E 
 2643      7369676E 
 2643      65642069 
 2644              	.LASF17:
 2645 0394 75696E74 		.ascii	"uint32_t\000"
 2645      33325F74 
 2645      00
 2646              	.LASF13:
 2647 039d 756E7369 		.ascii	"unsigned int\000"
 2647      676E6564 
 2647      20696E74 
 2647      00
 2648              	.LASF15:
 2649 03aa 75696E74 		.ascii	"uint16_t\000"
 2649      31365F74 
 2649      00
 2650              	.LASF32:
 2651 03b3 43616E61 		.ascii	"CanardBufferBlock\000"
 2651      72644275 
 2651      66666572 
 2651      426C6F63 
 2651      6B00
 2652              	.LASF29:
 2653 03c5 736F7572 		.ascii	"source_node_id\000"
 2653      63655F6E 
 2653      6F64655F 
 2653      696400
 2654              	.LASF56:
 2655 03d4 75617663 		.ascii	"uavcan_protocol_GetNodeInfoResponse\000"
 2655      616E5F70 
 2655      726F746F 
ARM GAS  /tmp/ccqBRpQq.s 			page 50


 2655      636F6C5F 
 2655      4765744E 
 2656              	.LASF5:
 2657 03f8 73686F72 		.ascii	"short unsigned int\000"
 2657      7420756E 
 2657      7369676E 
 2657      65642069 
 2657      6E7400
 2658              	.LASF52:
 2659 040b 73746174 		.ascii	"status\000"
 2659      757300
 2660              	.LASF79:
 2661 0412 63616E61 		.ascii	"canardEncodeScalar\000"
 2661      7264456E 
 2661      636F6465 
 2661      5363616C 
 2661      617200
 2662              	.LASF44:
 2663 0425 76656E64 		.ascii	"vendor_specific_status_code\000"
 2663      6F725F73 
 2663      70656369 
 2663      6669635F 
 2663      73746174 
 2664              	.LASF31:
 2665 0441 63686172 		.ascii	"char\000"
 2665      00
 2666              	.LASF30:
 2667 0446 5F426F6F 		.ascii	"_Bool\000"
 2667      6C00
 2668              	.LASF16:
 2669 044c 696E7433 		.ascii	"int32_t\000"
 2669      325F7400 
 2670              	.LASF26:
 2671 0454 7472616E 		.ascii	"transfer_type\000"
 2671      73666572 
 2671      5F747970 
 2671      6500
 2672              	.LASF21:
 2673 0462 7061796C 		.ascii	"payload_head\000"
 2673      6F61645F 
 2673      68656164 
 2673      00
 2674              	.LASF11:
 2675 046f 5F5F7569 		.ascii	"__uint64_t\000"
 2675      6E743634 
 2675      5F7400
 2676              	.LASF34:
 2677 047a 64617461 		.ascii	"data\000"
 2677      00
 2678              	.LASF57:
 2679 047f 7472616E 		.ascii	"transfer\000"
 2679      73666572 
 2679      00
 2680              	.LASF83:
 2681 0488 75617663 		.ascii	"uavcan_protocol_GetNodeInfoResponse_error_exit\000"
 2681      616E5F70 
 2681      726F746F 
ARM GAS  /tmp/ccqBRpQq.s 			page 51


 2681      636F6C5F 
 2681      4765744E 
 2682              	.LASF19:
 2683 04b7 43616E61 		.ascii	"CanardRxTransfer\000"
 2683      72645278 
 2683      5472616E 
 2683      73666572 
 2683      00
 2684              	.LASF9:
 2685 04c8 6C6F6E67 		.ascii	"long unsigned int\000"
 2685      20756E73 
 2685      69676E65 
 2685      6420696E 
 2685      7400
 2686              	.LASF67:
 2687 04da 726F6F74 		.ascii	"root_item\000"
 2687      5F697465 
 2687      6D00
 2688              	.LASF38:
 2689 04e4 63657274 		.ascii	"certificate_of_authenticity\000"
 2689      69666963 
 2689      6174655F 
 2689      6F665F61 
 2689      75746865 
 2690              	.LASF78:
 2691 0500 75617663 		.ascii	"uavcan_protocol_HardwareVersion_encode_internal\000"
 2691      616E5F70 
 2691      726F746F 
 2691      636F6C5F 
 2691      48617264 
 2692              	.LASF49:
 2693 0530 75617663 		.ascii	"uavcan_protocol_SoftwareVersion\000"
 2693      616E5F70 
 2693      726F746F 
 2693      636F6C5F 
 2693      536F6674 
 2694              	.LASF6:
 2695 0550 5F5F696E 		.ascii	"__int32_t\000"
 2695      7433325F 
 2695      7400
 2696              	.LASF36:
 2697 055a 6D696E6F 		.ascii	"minor\000"
 2697      7200
 2698              	.LASF61:
 2699 0560 75617663 		.ascii	"uavcan_protocol_GetNodeInfoResponse_decode\000"
 2699      616E5F70 
 2699      726F746F 
 2699      636F6C5F 
 2699      4765744E 
 2700              	.LASF45:
 2701 058b 75617663 		.ascii	"uavcan_protocol_NodeStatus\000"
 2701      616E5F70 
 2701      726F746F 
 2701      636F6C5F 
 2701      4E6F6465 
 2702              	.LASF74:
 2703 05a6 75617663 		.ascii	"uavcan_protocol_HardwareVersion_decode_internal\000"
ARM GAS  /tmp/ccqBRpQq.s 			page 52


 2703      616E5F70 
 2703      726F746F 
 2703      636F6C5F 
 2703      48617264 
 2704              	.LASF24:
 2705 05d6 7061796C 		.ascii	"payload_len\000"
 2705      6F61645F 
 2705      6C656E00 
 2706              	.LASF27:
 2707 05e2 7472616E 		.ascii	"transfer_id\000"
 2707      73666572 
 2707      5F696400 
 2708              	.LASF40:
 2709 05ee 75707469 		.ascii	"uptime_sec\000"
 2709      6D655F73 
 2709      656300
 2710              	.LASF68:
 2711 05f9 75617663 		.ascii	"uavcan_protocol_GetNodeInfoRequest_decode\000"
 2711      616E5F70 
 2711      726F746F 
 2711      636F6C5F 
 2711      4765744E 
 2712              	.LASF75:
 2713 0623 63616E61 		.ascii	"canardDecodeScalar\000"
 2713      72644465 
 2713      636F6465 
 2713      5363616C 
 2713      617200
 2714              	.LASF51:
 2715 0636 75617663 		.ascii	"uavcan_protocol_GetNodeInfoRequest\000"
 2715      616E5F70 
 2715      726F746F 
 2715      636F6C5F 
 2715      4765744E 
 2716              	.LASF65:
 2717 0659 6D73675F 		.ascii	"msg_buf\000"
 2717      62756600 
 2718              	.LASF33:
 2719 0661 6E657874 		.ascii	"next\000"
 2719      00
 2720              	.LASF80:
 2721 0666 474E5520 		.ascii	"GNU C99 7.3.1 20180622 (release) [ARM/embedded-7-br"
 2721      43393920 
 2721      372E332E 
 2721      31203230 
 2721      31383036 
 2722 0699 616E6368 		.ascii	"anch revision 261907] -mcpu=cortex-m4 -mfloat-abi=h"
 2722      20726576 
 2722      6973696F 
 2722      6E203236 
 2722      31393037 
 2723 06cc 61726420 		.ascii	"ard -mfpu=fpv4-sp-d16 -mno-thumb-interwork -mthumb "
 2723      2D6D6670 
 2723      753D6670 
 2723      76342D73 
 2723      702D6431 
 2724 06ff 2D676764 		.ascii	"-ggdb -O2 -std=gnu99 -fomit-frame-pointer -falign-f"
ARM GAS  /tmp/ccqBRpQq.s 			page 53


 2724      62202D4F 
 2724      32202D73 
 2724      74643D67 
 2724      6E753939 
 2725 0732 756E6374 		.ascii	"unctions=16 -ffunction-sections -fdata-sections -fn"
 2725      696F6E73 
 2725      3D313620 
 2725      2D666675 
 2725      6E637469 
 2726 0765 6F2D636F 		.ascii	"o-common -fsingle-precision-constant\000"
 2726      6D6D6F6E 
 2726      202D6673 
 2726      696E676C 
 2726      652D7072 
 2727              		.ident	"GCC: (GNU Tools for Arm Embedded Processors 7-2018-q3-update) 7.3.1 20180622 (release) [AR
ARM GAS  /tmp/ccqBRpQq.s 			page 54


DEFINED SYMBOLS
                            *ABS*:0000000000000000 protocol_GetNodeInfo.c
     /tmp/ccqBRpQq.s:18     .text.uavcan_protocol_GetNodeInfoRequest_encode_internal:0000000000000000 $t
     /tmp/ccqBRpQq.s:26     .text.uavcan_protocol_GetNodeInfoRequest_encode_internal:0000000000000000 uavcan_protocol_GetNodeInfoRequest_encode_internal
     /tmp/ccqBRpQq.s:43     .text.uavcan_protocol_GetNodeInfoRequest_encode:0000000000000000 $t
     /tmp/ccqBRpQq.s:51     .text.uavcan_protocol_GetNodeInfoRequest_encode:0000000000000000 uavcan_protocol_GetNodeInfoRequest_encode
     /tmp/ccqBRpQq.s:67     .text.uavcan_protocol_GetNodeInfoRequest_decode_internal:0000000000000000 $t
     /tmp/ccqBRpQq.s:75     .text.uavcan_protocol_GetNodeInfoRequest_decode_internal:0000000000000000 uavcan_protocol_GetNodeInfoRequest_decode_internal
     /tmp/ccqBRpQq.s:91     .text.uavcan_protocol_GetNodeInfoRequest_decode:0000000000000000 $t
     /tmp/ccqBRpQq.s:99     .text.uavcan_protocol_GetNodeInfoRequest_decode:0000000000000000 uavcan_protocol_GetNodeInfoRequest_decode
     /tmp/ccqBRpQq.s:115    .text.uavcan_protocol_GetNodeInfoResponse_encode_internal:0000000000000000 $t
     /tmp/ccqBRpQq.s:123    .text.uavcan_protocol_GetNodeInfoResponse_encode_internal:0000000000000000 uavcan_protocol_GetNodeInfoResponse_encode_internal
     /tmp/ccqBRpQq.s:220    .text.uavcan_protocol_GetNodeInfoResponse_encode:0000000000000000 $t
     /tmp/ccqBRpQq.s:228    .text.uavcan_protocol_GetNodeInfoResponse_encode:0000000000000000 uavcan_protocol_GetNodeInfoResponse_encode
     /tmp/ccqBRpQq.s:255    .text.uavcan_protocol_GetNodeInfoResponse_decode_internal:0000000000000000 $t
     /tmp/ccqBRpQq.s:263    .text.uavcan_protocol_GetNodeInfoResponse_decode_internal:0000000000000000 uavcan_protocol_GetNodeInfoResponse_decode_internal
     /tmp/ccqBRpQq.s:424    .text.uavcan_protocol_GetNodeInfoResponse_decode:0000000000000000 $t
     /tmp/ccqBRpQq.s:432    .text.uavcan_protocol_GetNodeInfoResponse_decode:0000000000000000 uavcan_protocol_GetNodeInfoResponse_decode

UNDEFINED SYMBOLS
uavcan_protocol_NodeStatus_encode_internal
uavcan_protocol_SoftwareVersion_encode_internal
uavcan_protocol_HardwareVersion_encode_internal
canardEncodeScalar
uavcan_protocol_NodeStatus_decode_internal
uavcan_protocol_SoftwareVersion_decode_internal
uavcan_protocol_HardwareVersion_decode_internal
canardDecodeScalar
