ARM GAS  /tmp/ccFHQtRL.s 			page 1


   1              		.cpu cortex-m4
   2              		.eabi_attribute 27, 1
   3              		.eabi_attribute 28, 1
   4              		.eabi_attribute 20, 1
   5              		.eabi_attribute 21, 1
   6              		.eabi_attribute 23, 3
   7              		.eabi_attribute 24, 1
   8              		.eabi_attribute 25, 1
   9              		.eabi_attribute 26, 1
  10              		.eabi_attribute 30, 2
  11              		.eabi_attribute 34, 1
  12              		.eabi_attribute 18, 4
  13              		.file	"protocol_SoftwareVersion.c"
  14              		.text
  15              	.Ltext0:
  16              		.cfi_sections	.debug_frame
  17              		.section	.text.uavcan_protocol_SoftwareVersion_encode_internal,"ax",%progbits
  18              		.align	1
  19              		.p2align 4,,15
  20              		.global	uavcan_protocol_SoftwareVersion_encode_internal
  21              		.syntax unified
  22              		.thumb
  23              		.thumb_func
  24              		.fpu fpv4-sp-d16
  25              		.type	uavcan_protocol_SoftwareVersion_encode_internal, %function
  26              	uavcan_protocol_SoftwareVersion_encode_internal:
  27              	.LFB0:
  28              		.file 1 "libcanard/dsdl/uavcan/protocol/protocol_SoftwareVersion.c"
  29              		.loc 1 37 0
  30              		.cfi_startproc
  31              		@ args = 0, pretend = 0, frame = 0
  32              		@ frame_needed = 0, uses_anonymous_args = 0
  33              	.LVL0:
  34 0000 70B5     		push	{r4, r5, r6, lr}
  35              		.cfi_def_cfa_offset 16
  36              		.cfi_offset 4, -16
  37              		.cfi_offset 5, -12
  38              		.cfi_offset 6, -8
  39              		.cfi_offset 14, -4
  40              		.loc 1 37 0
  41 0002 0D46     		mov	r5, r1
  42 0004 1446     		mov	r4, r2
  43 0006 0646     		mov	r6, r0
  44              		.loc 1 38 0
  45 0008 0346     		mov	r3, r0
  46              	.LVL1:
  47 000a 1146     		mov	r1, r2
  48              	.LVL2:
  49 000c 2846     		mov	r0, r5
  50              	.LVL3:
  51 000e 0822     		movs	r2, #8
  52              	.LVL4:
  53 0010 FFF7FEFF 		bl	canardEncodeScalar
  54              	.LVL5:
  55              		.loc 1 41 0
  56 0014 731C     		adds	r3, r6, #1
  57 0016 04F10801 		add	r1, r4, #8
ARM GAS  /tmp/ccFHQtRL.s 			page 2


  58              	.LVL6:
  59 001a 2846     		mov	r0, r5
  60 001c 0822     		movs	r2, #8
  61 001e FFF7FEFF 		bl	canardEncodeScalar
  62              	.LVL7:
  63              		.loc 1 44 0
  64 0022 B31C     		adds	r3, r6, #2
  65 0024 04F11001 		add	r1, r4, #16
  66              	.LVL8:
  67 0028 2846     		mov	r0, r5
  68 002a 0822     		movs	r2, #8
  69 002c FFF7FEFF 		bl	canardEncodeScalar
  70              	.LVL9:
  71              		.loc 1 47 0
  72 0030 331D     		adds	r3, r6, #4
  73 0032 04F11801 		add	r1, r4, #24
  74              	.LVL10:
  75 0036 2846     		mov	r0, r5
  76 0038 2022     		movs	r2, #32
  77 003a FFF7FEFF 		bl	canardEncodeScalar
  78              	.LVL11:
  79              		.loc 1 50 0
  80 003e 2846     		mov	r0, r5
  81 0040 06F10803 		add	r3, r6, #8
  82 0044 04F13801 		add	r1, r4, #56
  83              	.LVL12:
  84 0048 4022     		movs	r2, #64
  85 004a FFF7FEFF 		bl	canardEncodeScalar
  86              	.LVL13:
  87              		.loc 1 54 0
  88 004e 04F17800 		add	r0, r4, #120
  89              	.LVL14:
  90 0052 70BD     		pop	{r4, r5, r6, pc}
  91              		.cfi_endproc
  92              	.LFE0:
  93              		.size	uavcan_protocol_SoftwareVersion_encode_internal, .-uavcan_protocol_SoftwareVersion_encode_in
  94              		.section	.text.uavcan_protocol_SoftwareVersion_encode,"ax",%progbits
  95              		.align	1
  96              		.p2align 4,,15
  97              		.global	uavcan_protocol_SoftwareVersion_encode
  98              		.syntax unified
  99              		.thumb
 100              		.thumb_func
 101              		.fpu fpv4-sp-d16
 102              		.type	uavcan_protocol_SoftwareVersion_encode, %function
 103              	uavcan_protocol_SoftwareVersion_encode:
 104              	.LFB1:
 105              		.loc 1 63 0
 106              		.cfi_startproc
 107              		@ args = 0, pretend = 0, frame = 0
 108              		@ frame_needed = 0, uses_anonymous_args = 0
 109              	.LVL15:
 110 0000 08B5     		push	{r3, lr}
 111              		.cfi_def_cfa_offset 8
 112              		.cfi_offset 3, -8
 113              		.cfi_offset 14, -4
 114              		.loc 1 66 0
ARM GAS  /tmp/ccFHQtRL.s 			page 3


 115 0002 0022     		movs	r2, #0
 116 0004 0123     		movs	r3, #1
 117 0006 FFF7FEFF 		bl	uavcan_protocol_SoftwareVersion_encode_internal
 118              	.LVL16:
 119              		.loc 1 68 0
 120 000a 0730     		adds	r0, r0, #7
 121              	.LVL17:
 122              		.loc 1 69 0
 123 000c C008     		lsrs	r0, r0, #3
 124              	.LVL18:
 125 000e 08BD     		pop	{r3, pc}
 126              		.cfi_endproc
 127              	.LFE1:
 128              		.size	uavcan_protocol_SoftwareVersion_encode, .-uavcan_protocol_SoftwareVersion_encode
 129              		.section	.text.uavcan_protocol_SoftwareVersion_decode_internal,"ax",%progbits
 130              		.align	1
 131              		.p2align 4,,15
 132              		.global	uavcan_protocol_SoftwareVersion_decode_internal
 133              		.syntax unified
 134              		.thumb
 135              		.thumb_func
 136              		.fpu fpv4-sp-d16
 137              		.type	uavcan_protocol_SoftwareVersion_decode_internal, %function
 138              	uavcan_protocol_SoftwareVersion_decode_internal:
 139              	.LFB2:
 140              		.loc 1 88 0
 141              		.cfi_startproc
 142              		@ args = 4, pretend = 0, frame = 0
 143              		@ frame_needed = 0, uses_anonymous_args = 0
 144              	.LVL19:
 145 0000 30B5     		push	{r4, r5, lr}
 146              		.cfi_def_cfa_offset 12
 147              		.cfi_offset 4, -12
 148              		.cfi_offset 5, -8
 149              		.cfi_offset 14, -4
 150 0002 83B0     		sub	sp, sp, #12
 151              		.cfi_def_cfa_offset 24
 152              		.loc 1 88 0
 153 0004 1446     		mov	r4, r2
 154              		.loc 1 91 0
 155 0006 0092     		str	r2, [sp]
 156 0008 0699     		ldr	r1, [sp, #24]
 157              	.LVL20:
 158 000a 0023     		movs	r3, #0
 159              	.LVL21:
 160 000c 0822     		movs	r2, #8
 161              	.LVL22:
 162              		.loc 1 88 0
 163 000e 0546     		mov	r5, r0
 164              		.loc 1 91 0
 165 0010 FFF7FEFF 		bl	canardDecodeScalar
 166              	.LVL23:
 167              		.loc 1 92 0
 168 0014 0828     		cmp	r0, #8
 169 0016 05D0     		beq	.L10
 170              	.LVL24:
 171              	.L7:
ARM GAS  /tmp/ccFHQtRL.s 			page 4


 172              		.loc 1 128 0
 173 0018 0028     		cmp	r0, #0
 174              		.loc 1 134 0
 175 001a A8BF     		it	ge
 176 001c 6FF00800 		mvnge	r0, #8
 177              	.LVL25:
 178              	.L6:
 179              		.loc 1 136 0
 180 0020 03B0     		add	sp, sp, #12
 181              		.cfi_remember_state
 182              		.cfi_def_cfa_offset 12
 183              		@ sp needed
 184 0022 30BD     		pop	{r4, r5, pc}
 185              	.LVL26:
 186              	.L10:
 187              		.cfi_restore_state
 188              		.loc 1 98 0
 189 0024 0699     		ldr	r1, [sp, #24]
 190 0026 631C     		adds	r3, r4, #1
 191 0028 0246     		mov	r2, r0
 192 002a 0093     		str	r3, [sp]
 193 002c 0831     		adds	r1, r1, #8
 194              	.LVL27:
 195 002e 0023     		movs	r3, #0
 196 0030 2846     		mov	r0, r5
 197              	.LVL28:
 198 0032 FFF7FEFF 		bl	canardDecodeScalar
 199              	.LVL29:
 200              		.loc 1 99 0
 201 0036 0828     		cmp	r0, #8
 202 0038 EED1     		bne	.L7
 203              	.LVL30:
 204              		.loc 1 105 0
 205 003a 0699     		ldr	r1, [sp, #24]
 206 003c A31C     		adds	r3, r4, #2
 207 003e 0246     		mov	r2, r0
 208 0040 0093     		str	r3, [sp]
 209 0042 1031     		adds	r1, r1, #16
 210              	.LVL31:
 211 0044 0023     		movs	r3, #0
 212 0046 2846     		mov	r0, r5
 213              	.LVL32:
 214 0048 FFF7FEFF 		bl	canardDecodeScalar
 215              	.LVL33:
 216              		.loc 1 106 0
 217 004c 0828     		cmp	r0, #8
 218 004e E3D1     		bne	.L7
 219              	.LVL34:
 220              		.loc 1 112 0
 221 0050 0699     		ldr	r1, [sp, #24]
 222 0052 231D     		adds	r3, r4, #4
 223 0054 0093     		str	r3, [sp]
 224 0056 2022     		movs	r2, #32
 225 0058 0023     		movs	r3, #0
 226 005a 1831     		adds	r1, r1, #24
 227              	.LVL35:
 228 005c 2846     		mov	r0, r5
ARM GAS  /tmp/ccFHQtRL.s 			page 5


 229              	.LVL36:
 230 005e FFF7FEFF 		bl	canardDecodeScalar
 231              	.LVL37:
 232              		.loc 1 113 0
 233 0062 2028     		cmp	r0, #32
 234 0064 D8D1     		bne	.L7
 235              	.LVL38:
 236              		.loc 1 119 0
 237 0066 0699     		ldr	r1, [sp, #24]
 238 0068 0834     		adds	r4, r4, #8
 239              	.LVL39:
 240 006a 0094     		str	r4, [sp]
 241 006c 2846     		mov	r0, r5
 242              	.LVL40:
 243 006e 0023     		movs	r3, #0
 244 0070 4022     		movs	r2, #64
 245 0072 3831     		adds	r1, r1, #56
 246              	.LVL41:
 247 0074 FFF7FEFF 		bl	canardDecodeScalar
 248              	.LVL42:
 249              		.loc 1 120 0
 250 0078 4028     		cmp	r0, #64
 251 007a CDD1     		bne	.L7
 252              		.loc 1 124 0
 253 007c 069B     		ldr	r3, [sp, #24]
 254 007e 03F17800 		add	r0, r3, #120
 255              	.LVL43:
 256              		.loc 1 125 0
 257 0082 CDE7     		b	.L6
 258              		.cfi_endproc
 259              	.LFE2:
 260              		.size	uavcan_protocol_SoftwareVersion_decode_internal, .-uavcan_protocol_SoftwareVersion_decode_in
 261              		.section	.text.uavcan_protocol_SoftwareVersion_decode,"ax",%progbits
 262              		.align	1
 263              		.p2align 4,,15
 264              		.global	uavcan_protocol_SoftwareVersion_decode
 265              		.syntax unified
 266              		.thumb
 267              		.thumb_func
 268              		.fpu fpv4-sp-d16
 269              		.type	uavcan_protocol_SoftwareVersion_decode, %function
 270              	uavcan_protocol_SoftwareVersion_decode:
 271              	.LFB3:
 272              		.loc 1 152 0
 273              		.cfi_startproc
 274              		@ args = 0, pretend = 0, frame = 0
 275              		@ frame_needed = 0, uses_anonymous_args = 0
 276              	.LVL44:
 277 0000 70B5     		push	{r4, r5, r6, lr}
 278              		.cfi_def_cfa_offset 16
 279              		.cfi_offset 4, -16
 280              		.cfi_offset 5, -12
 281              		.cfi_offset 6, -8
 282              		.cfi_offset 14, -4
 283 0002 541E     		subs	r4, r2, #1
 284 0004 82B0     		sub	sp, sp, #8
 285              		.cfi_def_cfa_offset 24
ARM GAS  /tmp/ccFHQtRL.s 			page 6


 286 0006 02F10F06 		add	r6, r2, #15
 287              	.LBB2:
 288              		.loc 1 159 0
 289 000a 0025     		movs	r5, #0
 290              	.LVL45:
 291              	.L12:
 292              		.loc 1 159 0 is_stmt 0 discriminator 3
 293 000c 04F8015F 		strb	r5, [r4, #1]!
 294              		.loc 1 157 0 is_stmt 1 discriminator 3
 295 0010 B442     		cmp	r4, r6
 296 0012 FBD1     		bne	.L12
 297              	.LBE2:
 298              		.loc 1 162 0
 299 0014 0095     		str	r5, [sp]
 300 0016 FFF7FEFF 		bl	uavcan_protocol_SoftwareVersion_decode_internal
 301              	.LVL46:
 302              		.loc 1 165 0
 303 001a 02B0     		add	sp, sp, #8
 304              		.cfi_def_cfa_offset 16
 305              		@ sp needed
 306 001c 70BD     		pop	{r4, r5, r6, pc}
 307              		.cfi_endproc
 308              	.LFE3:
 309              		.size	uavcan_protocol_SoftwareVersion_decode, .-uavcan_protocol_SoftwareVersion_decode
 310 001e 00BF     		.text
 311              	.Letext0:
 312              		.file 2 "/usr/arm-none-eabi/include/machine/_default_types.h"
 313              		.file 3 "/usr/arm-none-eabi/include/sys/_stdint.h"
 314              		.file 4 "libcanard/canard.h"
 315              		.file 5 "libcanard/dsdl/uavcan/protocol/SoftwareVersion.h"
 316              		.section	.debug_info,"",%progbits
 317              	.Ldebug_info0:
 318 0000 CB050000 		.4byte	0x5cb
 319 0004 0400     		.2byte	0x4
 320 0006 00000000 		.4byte	.Ldebug_abbrev0
 321 000a 04       		.byte	0x4
 322 000b 01       		.uleb128 0x1
 323 000c 6E030000 		.4byte	.LASF54
 324 0010 0C       		.byte	0xc
 325 0011 DB010000 		.4byte	.LASF55
 326 0015 D5010000 		.4byte	.LASF56
 327 0019 00000000 		.4byte	.Ldebug_ranges0+0
 328 001d 00000000 		.4byte	0
 329 0021 00000000 		.4byte	.Ldebug_line0
 330 0025 02       		.uleb128 0x2
 331 0026 01       		.byte	0x1
 332 0027 06       		.byte	0x6
 333 0028 D7000000 		.4byte	.LASF0
 334 002c 03       		.uleb128 0x3
 335 002d 64010000 		.4byte	.LASF3
 336 0031 02       		.byte	0x2
 337 0032 2B       		.byte	0x2b
 338 0033 37000000 		.4byte	0x37
 339 0037 02       		.uleb128 0x2
 340 0038 01       		.byte	0x1
 341 0039 08       		.byte	0x8
 342 003a 91010000 		.4byte	.LASF1
ARM GAS  /tmp/ccFHQtRL.s 			page 7


 343 003e 02       		.uleb128 0x2
 344 003f 02       		.byte	0x2
 345 0040 05       		.byte	0x5
 346 0041 24000000 		.4byte	.LASF2
 347 0045 03       		.uleb128 0x3
 348 0046 6F000000 		.4byte	.LASF4
 349 004a 02       		.byte	0x2
 350 004b 39       		.byte	0x39
 351 004c 50000000 		.4byte	0x50
 352 0050 02       		.uleb128 0x2
 353 0051 02       		.byte	0x2
 354 0052 07       		.byte	0x7
 355 0053 6C020000 		.4byte	.LASF5
 356 0057 03       		.uleb128 0x3
 357 0058 26030000 		.4byte	.LASF6
 358 005c 02       		.byte	0x2
 359 005d 4D       		.byte	0x4d
 360 005e 62000000 		.4byte	0x62
 361 0062 02       		.uleb128 0x2
 362 0063 04       		.byte	0x4
 363 0064 05       		.byte	0x5
 364 0065 54010000 		.4byte	.LASF7
 365 0069 03       		.uleb128 0x3
 366 006a 39000000 		.4byte	.LASF8
 367 006e 02       		.byte	0x2
 368 006f 4F       		.byte	0x4f
 369 0070 74000000 		.4byte	0x74
 370 0074 02       		.uleb128 0x2
 371 0075 04       		.byte	0x4
 372 0076 07       		.byte	0x7
 373 0077 EA020000 		.4byte	.LASF9
 374 007b 02       		.uleb128 0x2
 375 007c 08       		.byte	0x8
 376 007d 05       		.byte	0x5
 377 007e E3000000 		.4byte	.LASF10
 378 0082 03       		.uleb128 0x3
 379 0083 C0020000 		.4byte	.LASF11
 380 0087 02       		.byte	0x2
 381 0088 69       		.byte	0x69
 382 0089 8D000000 		.4byte	0x8d
 383 008d 02       		.uleb128 0x2
 384 008e 08       		.byte	0x8
 385 008f 07       		.byte	0x7
 386 0090 15020000 		.4byte	.LASF12
 387 0094 04       		.uleb128 0x4
 388 0095 04       		.byte	0x4
 389 0096 05       		.byte	0x5
 390 0097 696E7400 		.ascii	"int\000"
 391 009b 02       		.uleb128 0x2
 392 009c 04       		.byte	0x4
 393 009d 07       		.byte	0x7
 394 009e 35020000 		.4byte	.LASF13
 395 00a2 03       		.uleb128 0x3
 396 00a3 8A000000 		.4byte	.LASF14
 397 00a7 03       		.byte	0x3
 398 00a8 18       		.byte	0x18
 399 00a9 2C000000 		.4byte	0x2c
ARM GAS  /tmp/ccFHQtRL.s 			page 8


 400 00ad 05       		.uleb128 0x5
 401 00ae A2000000 		.4byte	0xa2
 402 00b2 03       		.uleb128 0x3
 403 00b3 42020000 		.4byte	.LASF15
 404 00b7 03       		.byte	0x3
 405 00b8 24       		.byte	0x24
 406 00b9 45000000 		.4byte	0x45
 407 00bd 03       		.uleb128 0x3
 408 00be 9D020000 		.4byte	.LASF16
 409 00c2 03       		.byte	0x3
 410 00c3 2C       		.byte	0x2c
 411 00c4 57000000 		.4byte	0x57
 412 00c8 05       		.uleb128 0x5
 413 00c9 BD000000 		.4byte	0xbd
 414 00cd 03       		.uleb128 0x3
 415 00ce 2C020000 		.4byte	.LASF17
 416 00d2 03       		.byte	0x3
 417 00d3 30       		.byte	0x30
 418 00d4 69000000 		.4byte	0x69
 419 00d8 03       		.uleb128 0x3
 420 00d9 1B000000 		.4byte	.LASF18
 421 00dd 03       		.byte	0x3
 422 00de 3C       		.byte	0x3c
 423 00df 82000000 		.4byte	0x82
 424 00e3 03       		.uleb128 0x3
 425 00e4 D9020000 		.4byte	.LASF19
 426 00e8 04       		.byte	0x4
 427 00e9 99       		.byte	0x99
 428 00ea F3000000 		.4byte	0xf3
 429 00ee 05       		.uleb128 0x5
 430 00ef E3000000 		.4byte	0xe3
 431 00f3 06       		.uleb128 0x6
 432 00f4 D9020000 		.4byte	.LASF19
 433 00f8 20       		.byte	0x20
 434 00f9 04       		.byte	0x4
 435 00fa 0F01     		.2byte	0x10f
 436 00fc 83010000 		.4byte	0x183
 437 0100 07       		.uleb128 0x7
 438 0101 82010000 		.4byte	.LASF20
 439 0105 04       		.byte	0x4
 440 0106 1401     		.2byte	0x114
 441 0108 D8000000 		.4byte	0xd8
 442 010c 00       		.byte	0
 443 010d 07       		.uleb128 0x7
 444 010e B3020000 		.4byte	.LASF21
 445 0112 04       		.byte	0x4
 446 0113 2801     		.2byte	0x128
 447 0115 DE010000 		.4byte	0x1de
 448 0119 08       		.byte	0x8
 449 011a 07       		.uleb128 0x7
 450 011b 9F010000 		.4byte	.LASF22
 451 011f 04       		.byte	0x4
 452 0120 2D01     		.2byte	0x12d
 453 0122 D6010000 		.4byte	0x1d6
 454 0126 0C       		.byte	0xc
 455 0127 07       		.uleb128 0x7
 456 0128 75010000 		.4byte	.LASF23
ARM GAS  /tmp/ccFHQtRL.s 			page 9


 457 012c 04       		.byte	0x4
 458 012d 2F01     		.2byte	0x12f
 459 012f DE010000 		.4byte	0x1de
 460 0133 10       		.byte	0x10
 461 0134 07       		.uleb128 0x7
 462 0135 36030000 		.4byte	.LASF24
 463 0139 04       		.byte	0x4
 464 013a 3101     		.2byte	0x131
 465 013c B2000000 		.4byte	0xb2
 466 0140 14       		.byte	0x14
 467 0141 07       		.uleb128 0x7
 468 0142 00000000 		.4byte	.LASF25
 469 0146 04       		.byte	0x4
 470 0147 3601     		.2byte	0x136
 471 0149 B2000000 		.4byte	0xb2
 472 014d 16       		.byte	0x16
 473 014e 07       		.uleb128 0x7
 474 014f A5020000 		.4byte	.LASF26
 475 0153 04       		.byte	0x4
 476 0154 3701     		.2byte	0x137
 477 0156 A2000000 		.4byte	0xa2
 478 015a 18       		.byte	0x18
 479 015b 07       		.uleb128 0x7
 480 015c 42030000 		.4byte	.LASF27
 481 0160 04       		.byte	0x4
 482 0161 3801     		.2byte	0x138
 483 0163 A2000000 		.4byte	0xa2
 484 0167 19       		.byte	0x19
 485 0168 07       		.uleb128 0x7
 486 0169 12000000 		.4byte	.LASF28
 487 016d 04       		.byte	0x4
 488 016e 3901     		.2byte	0x139
 489 0170 A2000000 		.4byte	0xa2
 490 0174 1A       		.byte	0x1a
 491 0175 07       		.uleb128 0x7
 492 0176 5D020000 		.4byte	.LASF29
 493 017a 04       		.byte	0x4
 494 017b 3A01     		.2byte	0x13a
 495 017d A2000000 		.4byte	0xa2
 496 0181 1B       		.byte	0x1b
 497 0182 00       		.byte	0
 498 0183 02       		.uleb128 0x2
 499 0184 01       		.byte	0x1
 500 0185 02       		.byte	0x2
 501 0186 97020000 		.4byte	.LASF30
 502 018a 02       		.uleb128 0x2
 503 018b 01       		.byte	0x1
 504 018c 08       		.byte	0x8
 505 018d 92020000 		.4byte	.LASF31
 506 0191 08       		.uleb128 0x8
 507 0192 4B020000 		.4byte	.LASF32
 508 0196 04       		.byte	0x4
 509 0197 04       		.byte	0x4
 510 0198 D7       		.byte	0xd7
 511 0199 B6010000 		.4byte	0x1b6
 512 019d 09       		.uleb128 0x9
 513 019e 69030000 		.4byte	.LASF33
ARM GAS  /tmp/ccFHQtRL.s 			page 10


 514 01a2 04       		.byte	0x4
 515 01a3 D9       		.byte	0xd9
 516 01a4 B6010000 		.4byte	0x1b6
 517 01a8 00       		.byte	0
 518 01a9 09       		.uleb128 0x9
 519 01aa CB020000 		.4byte	.LASF34
 520 01ae 04       		.byte	0x4
 521 01af DA       		.byte	0xda
 522 01b0 BC010000 		.4byte	0x1bc
 523 01b4 04       		.byte	0x4
 524 01b5 00       		.byte	0
 525 01b6 0A       		.uleb128 0xa
 526 01b7 04       		.byte	0x4
 527 01b8 91010000 		.4byte	0x191
 528 01bc 0B       		.uleb128 0xb
 529 01bd A2000000 		.4byte	0xa2
 530 01c1 CB010000 		.4byte	0x1cb
 531 01c5 0C       		.uleb128 0xc
 532 01c6 9B000000 		.4byte	0x9b
 533 01ca 00       		.byte	0
 534 01cb 03       		.uleb128 0x3
 535 01cc 4B020000 		.4byte	.LASF32
 536 01d0 04       		.byte	0x4
 537 01d1 DB       		.byte	0xdb
 538 01d2 91010000 		.4byte	0x191
 539 01d6 0A       		.uleb128 0xa
 540 01d7 04       		.byte	0x4
 541 01d8 CB010000 		.4byte	0x1cb
 542 01dc 0D       		.uleb128 0xd
 543 01dd 04       		.byte	0x4
 544 01de 0A       		.uleb128 0xa
 545 01df 04       		.byte	0x4
 546 01e0 AD000000 		.4byte	0xad
 547 01e4 0E       		.uleb128 0xe
 548 01e5 10       		.byte	0x10
 549 01e6 05       		.byte	0x5
 550 01e7 55       		.byte	0x55
 551 01e8 29020000 		.4byte	0x229
 552 01ec 09       		.uleb128 0x9
 553 01ed 84000000 		.4byte	.LASF35
 554 01f1 05       		.byte	0x5
 555 01f2 58       		.byte	0x58
 556 01f3 A2000000 		.4byte	0xa2
 557 01f7 00       		.byte	0
 558 01f8 09       		.uleb128 0x9
 559 01f9 30030000 		.4byte	.LASF36
 560 01fd 05       		.byte	0x5
 561 01fe 59       		.byte	0x59
 562 01ff A2000000 		.4byte	0xa2
 563 0203 01       		.byte	0x1
 564 0204 09       		.uleb128 0x9
 565 0205 92000000 		.4byte	.LASF37
 566 0209 05       		.byte	0x5
 567 020a 5A       		.byte	0x5a
 568 020b A2000000 		.4byte	0xa2
 569 020f 02       		.byte	0x2
 570 0210 09       		.uleb128 0x9
ARM GAS  /tmp/ccFHQtRL.s 			page 11


 571 0211 2E000000 		.4byte	.LASF38
 572 0215 05       		.byte	0x5
 573 0216 5B       		.byte	0x5b
 574 0217 CD000000 		.4byte	0xcd
 575 021b 04       		.byte	0x4
 576 021c 09       		.uleb128 0x9
 577 021d 7A000000 		.4byte	.LASF39
 578 0221 05       		.byte	0x5
 579 0222 5C       		.byte	0x5c
 580 0223 D8000000 		.4byte	0xd8
 581 0227 08       		.byte	0x8
 582 0228 00       		.byte	0
 583 0229 03       		.uleb128 0x3
 584 022a 06030000 		.4byte	.LASF40
 585 022e 05       		.byte	0x5
 586 022f 5E       		.byte	0x5e
 587 0230 E4010000 		.4byte	0x1e4
 588 0234 0F       		.uleb128 0xf
 589 0235 2D010000 		.4byte	.LASF45
 590 0239 01       		.byte	0x1
 591 023a 94       		.byte	0x94
 592 023b BD000000 		.4byte	0xbd
 593 023f 00000000 		.4byte	.LFB3
 594 0243 1E000000 		.4byte	.LFE3-.LFB3
 595 0247 01       		.uleb128 0x1
 596 0248 9C       		.byte	0x9c
 597 0249 D1020000 		.4byte	0x2d1
 598 024d 10       		.uleb128 0x10
 599 024e D0020000 		.4byte	.LASF41
 600 0252 01       		.byte	0x1
 601 0253 94       		.byte	0x94
 602 0254 D1020000 		.4byte	0x2d1
 603 0258 00000000 		.4byte	.LLST13
 604 025c 10       		.uleb128 0x10
 605 025d 36030000 		.4byte	.LASF24
 606 0261 01       		.byte	0x1
 607 0262 95       		.byte	0x95
 608 0263 B2000000 		.4byte	0xb2
 609 0267 21000000 		.4byte	.LLST14
 610 026b 10       		.uleb128 0x10
 611 026c 0D000000 		.4byte	.LASF42
 612 0270 01       		.byte	0x1
 613 0271 96       		.byte	0x96
 614 0272 D7020000 		.4byte	0x2d7
 615 0276 42000000 		.4byte	.LLST15
 616 027a 10       		.uleb128 0x10
 617 027b F1000000 		.4byte	.LASF43
 618 027f 01       		.byte	0x1
 619 0280 97       		.byte	0x97
 620 0281 DD020000 		.4byte	0x2dd
 621 0285 62000000 		.4byte	.LLST16
 622 0289 11       		.uleb128 0x11
 623 028a 5D010000 		.4byte	.LASF44
 624 028e 01       		.byte	0x1
 625 028f 99       		.byte	0x99
 626 0290 C8000000 		.4byte	0xc8
 627 0294 00       		.byte	0
ARM GAS  /tmp/ccFHQtRL.s 			page 12


 628 0295 12       		.uleb128 0x12
 629 0296 72657400 		.ascii	"ret\000"
 630 029a 01       		.byte	0x1
 631 029b 9A       		.byte	0x9a
 632 029c BD000000 		.4byte	0xbd
 633 02a0 83000000 		.4byte	.LLST17
 634 02a4 13       		.uleb128 0x13
 635 02a5 0A000000 		.4byte	.LBB2
 636 02a9 0A000000 		.4byte	.LBE2-.LBB2
 637 02ad BF020000 		.4byte	0x2bf
 638 02b1 12       		.uleb128 0x12
 639 02b2 6300     		.ascii	"c\000"
 640 02b4 01       		.byte	0x1
 641 02b5 9D       		.byte	0x9d
 642 02b6 CD000000 		.4byte	0xcd
 643 02ba A2000000 		.4byte	.LLST18
 644 02be 00       		.byte	0
 645 02bf 14       		.uleb128 0x14
 646 02c0 1A000000 		.4byte	.LVL46
 647 02c4 E9020000 		.4byte	0x2e9
 648 02c8 15       		.uleb128 0x15
 649 02c9 02       		.uleb128 0x2
 650 02ca 7D       		.byte	0x7d
 651 02cb 00       		.sleb128 0
 652 02cc 02       		.uleb128 0x2
 653 02cd 75       		.byte	0x75
 654 02ce 00       		.sleb128 0
 655 02cf 00       		.byte	0
 656 02d0 00       		.byte	0
 657 02d1 0A       		.uleb128 0xa
 658 02d2 04       		.byte	0x4
 659 02d3 EE000000 		.4byte	0xee
 660 02d7 0A       		.uleb128 0xa
 661 02d8 04       		.byte	0x4
 662 02d9 29020000 		.4byte	0x229
 663 02dd 0A       		.uleb128 0xa
 664 02de 04       		.byte	0x4
 665 02df E3020000 		.4byte	0x2e3
 666 02e3 0A       		.uleb128 0xa
 667 02e4 04       		.byte	0x4
 668 02e5 A2000000 		.4byte	0xa2
 669 02e9 0F       		.uleb128 0xf
 670 02ea FD000000 		.4byte	.LASF46
 671 02ee 01       		.byte	0x1
 672 02ef 52       		.byte	0x52
 673 02f0 BD000000 		.4byte	0xbd
 674 02f4 00000000 		.4byte	.LFB2
 675 02f8 84000000 		.4byte	.LFE2-.LFB2
 676 02fc 01       		.uleb128 0x1
 677 02fd 9C       		.byte	0x9c
 678 02fe 40040000 		.4byte	0x440
 679 0302 10       		.uleb128 0x10
 680 0303 D0020000 		.4byte	.LASF41
 681 0307 01       		.byte	0x1
 682 0308 53       		.byte	0x53
 683 0309 D1020000 		.4byte	0x2d1
 684 030d B6000000 		.4byte	.LLST7
ARM GAS  /tmp/ccFHQtRL.s 			page 13


 685 0311 10       		.uleb128 0x10
 686 0312 36030000 		.4byte	.LASF24
 687 0316 01       		.byte	0x1
 688 0317 54       		.byte	0x54
 689 0318 B2000000 		.4byte	0xb2
 690 031c D4000000 		.4byte	.LLST8
 691 0320 10       		.uleb128 0x10
 692 0321 0D000000 		.4byte	.LASF42
 693 0325 01       		.byte	0x1
 694 0326 55       		.byte	0x55
 695 0327 D7020000 		.4byte	0x2d7
 696 032b F5000000 		.4byte	.LLST9
 697 032f 10       		.uleb128 0x10
 698 0330 F1000000 		.4byte	.LASF43
 699 0334 01       		.byte	0x1
 700 0335 56       		.byte	0x56
 701 0336 DD020000 		.4byte	0x2dd
 702 033a 39010000 		.4byte	.LLST10
 703 033e 10       		.uleb128 0x10
 704 033f 5D010000 		.4byte	.LASF44
 705 0343 01       		.byte	0x1
 706 0344 57       		.byte	0x57
 707 0345 BD000000 		.4byte	0xbd
 708 0349 5A010000 		.4byte	.LLST11
 709 034d 12       		.uleb128 0x12
 710 034e 72657400 		.ascii	"ret\000"
 711 0352 01       		.byte	0x1
 712 0353 59       		.byte	0x59
 713 0354 BD000000 		.4byte	0xbd
 714 0358 25020000 		.4byte	.LLST12
 715 035c 16       		.uleb128 0x16
 716 035d 44000000 		.4byte	.LASF57
 717 0361 01       		.byte	0x1
 718 0362 7F       		.byte	0x7f
 719 0363 18000000 		.4byte	.L7
 720 0367 17       		.uleb128 0x17
 721 0368 14000000 		.4byte	.LVL23
 722 036c B6050000 		.4byte	0x5b6
 723 0370 93030000 		.4byte	0x393
 724 0374 15       		.uleb128 0x15
 725 0375 01       		.uleb128 0x1
 726 0376 50       		.byte	0x50
 727 0377 02       		.uleb128 0x2
 728 0378 75       		.byte	0x75
 729 0379 00       		.sleb128 0
 730 037a 15       		.uleb128 0x15
 731 037b 01       		.uleb128 0x1
 732 037c 51       		.byte	0x51
 733 037d 03       		.uleb128 0x3
 734 037e 91       		.byte	0x91
 735 037f 00       		.sleb128 0
 736 0380 06       		.byte	0x6
 737 0381 15       		.uleb128 0x15
 738 0382 01       		.uleb128 0x1
 739 0383 52       		.byte	0x52
 740 0384 01       		.uleb128 0x1
 741 0385 38       		.byte	0x38
ARM GAS  /tmp/ccFHQtRL.s 			page 14


 742 0386 15       		.uleb128 0x15
 743 0387 01       		.uleb128 0x1
 744 0388 53       		.byte	0x53
 745 0389 01       		.uleb128 0x1
 746 038a 30       		.byte	0x30
 747 038b 15       		.uleb128 0x15
 748 038c 02       		.uleb128 0x2
 749 038d 7D       		.byte	0x7d
 750 038e 00       		.sleb128 0
 751 038f 02       		.uleb128 0x2
 752 0390 74       		.byte	0x74
 753 0391 00       		.sleb128 0
 754 0392 00       		.byte	0
 755 0393 17       		.uleb128 0x17
 756 0394 36000000 		.4byte	.LVL29
 757 0398 B6050000 		.4byte	0x5b6
 758 039c BC030000 		.4byte	0x3bc
 759 03a0 15       		.uleb128 0x15
 760 03a1 01       		.uleb128 0x1
 761 03a2 50       		.byte	0x50
 762 03a3 02       		.uleb128 0x2
 763 03a4 75       		.byte	0x75
 764 03a5 00       		.sleb128 0
 765 03a6 15       		.uleb128 0x15
 766 03a7 01       		.uleb128 0x1
 767 03a8 51       		.byte	0x51
 768 03a9 05       		.uleb128 0x5
 769 03aa 91       		.byte	0x91
 770 03ab 00       		.sleb128 0
 771 03ac 06       		.byte	0x6
 772 03ad 23       		.byte	0x23
 773 03ae 08       		.uleb128 0x8
 774 03af 15       		.uleb128 0x15
 775 03b0 01       		.uleb128 0x1
 776 03b1 53       		.byte	0x53
 777 03b2 01       		.uleb128 0x1
 778 03b3 30       		.byte	0x30
 779 03b4 15       		.uleb128 0x15
 780 03b5 02       		.uleb128 0x2
 781 03b6 7D       		.byte	0x7d
 782 03b7 00       		.sleb128 0
 783 03b8 02       		.uleb128 0x2
 784 03b9 74       		.byte	0x74
 785 03ba 01       		.sleb128 1
 786 03bb 00       		.byte	0
 787 03bc 17       		.uleb128 0x17
 788 03bd 4C000000 		.4byte	.LVL33
 789 03c1 B6050000 		.4byte	0x5b6
 790 03c5 E5030000 		.4byte	0x3e5
 791 03c9 15       		.uleb128 0x15
 792 03ca 01       		.uleb128 0x1
 793 03cb 50       		.byte	0x50
 794 03cc 02       		.uleb128 0x2
 795 03cd 75       		.byte	0x75
 796 03ce 00       		.sleb128 0
 797 03cf 15       		.uleb128 0x15
 798 03d0 01       		.uleb128 0x1
ARM GAS  /tmp/ccFHQtRL.s 			page 15


 799 03d1 51       		.byte	0x51
 800 03d2 05       		.uleb128 0x5
 801 03d3 91       		.byte	0x91
 802 03d4 00       		.sleb128 0
 803 03d5 06       		.byte	0x6
 804 03d6 23       		.byte	0x23
 805 03d7 10       		.uleb128 0x10
 806 03d8 15       		.uleb128 0x15
 807 03d9 01       		.uleb128 0x1
 808 03da 53       		.byte	0x53
 809 03db 01       		.uleb128 0x1
 810 03dc 30       		.byte	0x30
 811 03dd 15       		.uleb128 0x15
 812 03de 02       		.uleb128 0x2
 813 03df 7D       		.byte	0x7d
 814 03e0 00       		.sleb128 0
 815 03e1 02       		.uleb128 0x2
 816 03e2 74       		.byte	0x74
 817 03e3 02       		.sleb128 2
 818 03e4 00       		.byte	0
 819 03e5 17       		.uleb128 0x17
 820 03e6 62000000 		.4byte	.LVL37
 821 03ea B6050000 		.4byte	0x5b6
 822 03ee 14040000 		.4byte	0x414
 823 03f2 15       		.uleb128 0x15
 824 03f3 01       		.uleb128 0x1
 825 03f4 50       		.byte	0x50
 826 03f5 02       		.uleb128 0x2
 827 03f6 75       		.byte	0x75
 828 03f7 00       		.sleb128 0
 829 03f8 15       		.uleb128 0x15
 830 03f9 01       		.uleb128 0x1
 831 03fa 51       		.byte	0x51
 832 03fb 05       		.uleb128 0x5
 833 03fc 91       		.byte	0x91
 834 03fd 00       		.sleb128 0
 835 03fe 06       		.byte	0x6
 836 03ff 23       		.byte	0x23
 837 0400 18       		.uleb128 0x18
 838 0401 15       		.uleb128 0x15
 839 0402 01       		.uleb128 0x1
 840 0403 52       		.byte	0x52
 841 0404 02       		.uleb128 0x2
 842 0405 08       		.byte	0x8
 843 0406 20       		.byte	0x20
 844 0407 15       		.uleb128 0x15
 845 0408 01       		.uleb128 0x1
 846 0409 53       		.byte	0x53
 847 040a 01       		.uleb128 0x1
 848 040b 30       		.byte	0x30
 849 040c 15       		.uleb128 0x15
 850 040d 02       		.uleb128 0x2
 851 040e 7D       		.byte	0x7d
 852 040f 00       		.sleb128 0
 853 0410 02       		.uleb128 0x2
 854 0411 74       		.byte	0x74
 855 0412 04       		.sleb128 4
ARM GAS  /tmp/ccFHQtRL.s 			page 16


 856 0413 00       		.byte	0
 857 0414 14       		.uleb128 0x14
 858 0415 78000000 		.4byte	.LVL42
 859 0419 B6050000 		.4byte	0x5b6
 860 041d 15       		.uleb128 0x15
 861 041e 01       		.uleb128 0x1
 862 041f 50       		.byte	0x50
 863 0420 02       		.uleb128 0x2
 864 0421 75       		.byte	0x75
 865 0422 00       		.sleb128 0
 866 0423 15       		.uleb128 0x15
 867 0424 01       		.uleb128 0x1
 868 0425 51       		.byte	0x51
 869 0426 05       		.uleb128 0x5
 870 0427 91       		.byte	0x91
 871 0428 00       		.sleb128 0
 872 0429 06       		.byte	0x6
 873 042a 23       		.byte	0x23
 874 042b 38       		.uleb128 0x38
 875 042c 15       		.uleb128 0x15
 876 042d 01       		.uleb128 0x1
 877 042e 52       		.byte	0x52
 878 042f 02       		.uleb128 0x2
 879 0430 08       		.byte	0x8
 880 0431 40       		.byte	0x40
 881 0432 15       		.uleb128 0x15
 882 0433 01       		.uleb128 0x1
 883 0434 53       		.byte	0x53
 884 0435 01       		.uleb128 0x1
 885 0436 30       		.byte	0x30
 886 0437 15       		.uleb128 0x15
 887 0438 02       		.uleb128 0x2
 888 0439 7D       		.byte	0x7d
 889 043a 00       		.sleb128 0
 890 043b 02       		.uleb128 0x2
 891 043c 74       		.byte	0x74
 892 043d 00       		.sleb128 0
 893 043e 00       		.byte	0
 894 043f 00       		.byte	0
 895 0440 0F       		.uleb128 0xf
 896 0441 AE010000 		.4byte	.LASF47
 897 0445 01       		.byte	0x1
 898 0446 3E       		.byte	0x3e
 899 0447 CD000000 		.4byte	0xcd
 900 044b 00000000 		.4byte	.LFB1
 901 044f 10000000 		.4byte	.LFE1-.LFB1
 902 0453 01       		.uleb128 0x1
 903 0454 9C       		.byte	0x9c
 904 0455 A9040000 		.4byte	0x4a9
 905 0459 10       		.uleb128 0x10
 906 045a 6E010000 		.4byte	.LASF48
 907 045e 01       		.byte	0x1
 908 045f 3E       		.byte	0x3e
 909 0460 D7020000 		.4byte	0x2d7
 910 0464 91020000 		.4byte	.LLST4
 911 0468 10       		.uleb128 0x10
 912 0469 61030000 		.4byte	.LASF49
ARM GAS  /tmp/ccFHQtRL.s 			page 17


 913 046d 01       		.byte	0x1
 914 046e 3E       		.byte	0x3e
 915 046f DC010000 		.4byte	0x1dc
 916 0473 B2020000 		.4byte	.LLST5
 917 0477 18       		.uleb128 0x18
 918 0478 5D010000 		.4byte	.LASF44
 919 047c 01       		.byte	0x1
 920 047d 40       		.byte	0x40
 921 047e CD000000 		.4byte	0xcd
 922 0482 D3020000 		.4byte	.LLST6
 923 0486 14       		.uleb128 0x14
 924 0487 0A000000 		.4byte	.LVL16
 925 048b A9040000 		.4byte	0x4a9
 926 048f 15       		.uleb128 0x15
 927 0490 01       		.uleb128 0x1
 928 0491 50       		.byte	0x50
 929 0492 03       		.uleb128 0x3
 930 0493 F3       		.byte	0xf3
 931 0494 01       		.uleb128 0x1
 932 0495 50       		.byte	0x50
 933 0496 15       		.uleb128 0x15
 934 0497 01       		.uleb128 0x1
 935 0498 51       		.byte	0x51
 936 0499 03       		.uleb128 0x3
 937 049a F3       		.byte	0xf3
 938 049b 01       		.uleb128 0x1
 939 049c 51       		.byte	0x51
 940 049d 15       		.uleb128 0x15
 941 049e 01       		.uleb128 0x1
 942 049f 52       		.byte	0x52
 943 04a0 01       		.uleb128 0x1
 944 04a1 30       		.byte	0x30
 945 04a2 15       		.uleb128 0x15
 946 04a3 01       		.uleb128 0x1
 947 04a4 53       		.byte	0x53
 948 04a5 01       		.uleb128 0x1
 949 04a6 31       		.byte	0x31
 950 04a7 00       		.byte	0
 951 04a8 00       		.byte	0
 952 04a9 0F       		.uleb128 0xf
 953 04aa A7000000 		.4byte	.LASF50
 954 04ae 01       		.byte	0x1
 955 04af 21       		.byte	0x21
 956 04b0 CD000000 		.4byte	0xcd
 957 04b4 00000000 		.4byte	.LFB0
 958 04b8 54000000 		.4byte	.LFE0-.LFB0
 959 04bc 01       		.uleb128 0x1
 960 04bd 9C       		.byte	0x9c
 961 04be B6050000 		.4byte	0x5b6
 962 04c2 10       		.uleb128 0x10
 963 04c3 6E010000 		.4byte	.LASF48
 964 04c7 01       		.byte	0x1
 965 04c8 21       		.byte	0x21
 966 04c9 D7020000 		.4byte	0x2d7
 967 04cd FF020000 		.4byte	.LLST0
 968 04d1 10       		.uleb128 0x10
 969 04d2 61030000 		.4byte	.LASF49
ARM GAS  /tmp/ccFHQtRL.s 			page 18


 970 04d6 01       		.byte	0x1
 971 04d7 22       		.byte	0x22
 972 04d8 DC010000 		.4byte	0x1dc
 973 04dc 28030000 		.4byte	.LLST1
 974 04e0 10       		.uleb128 0x10
 975 04e1 5D010000 		.4byte	.LASF44
 976 04e5 01       		.byte	0x1
 977 04e6 23       		.byte	0x23
 978 04e7 CD000000 		.4byte	0xcd
 979 04eb 46030000 		.4byte	.LLST2
 980 04ef 10       		.uleb128 0x10
 981 04f0 FC020000 		.4byte	.LASF51
 982 04f4 01       		.byte	0x1
 983 04f5 24       		.byte	0x24
 984 04f6 A2000000 		.4byte	0xa2
 985 04fa 1C040000 		.4byte	.LLST3
 986 04fe 17       		.uleb128 0x17
 987 04ff 14000000 		.4byte	.LVL5
 988 0503 C2050000 		.4byte	0x5c2
 989 0507 23050000 		.4byte	0x523
 990 050b 15       		.uleb128 0x15
 991 050c 01       		.uleb128 0x1
 992 050d 50       		.byte	0x50
 993 050e 02       		.uleb128 0x2
 994 050f 75       		.byte	0x75
 995 0510 00       		.sleb128 0
 996 0511 15       		.uleb128 0x15
 997 0512 01       		.uleb128 0x1
 998 0513 51       		.byte	0x51
 999 0514 02       		.uleb128 0x2
 1000 0515 74       		.byte	0x74
 1001 0516 00       		.sleb128 0
 1002 0517 15       		.uleb128 0x15
 1003 0518 01       		.uleb128 0x1
 1004 0519 52       		.byte	0x52
 1005 051a 01       		.uleb128 0x1
 1006 051b 38       		.byte	0x38
 1007 051c 15       		.uleb128 0x15
 1008 051d 01       		.uleb128 0x1
 1009 051e 53       		.byte	0x53
 1010 051f 02       		.uleb128 0x2
 1011 0520 76       		.byte	0x76
 1012 0521 00       		.sleb128 0
 1013 0522 00       		.byte	0
 1014 0523 17       		.uleb128 0x17
 1015 0524 22000000 		.4byte	.LVL7
 1016 0528 C2050000 		.4byte	0x5c2
 1017 052c 48050000 		.4byte	0x548
 1018 0530 15       		.uleb128 0x15
 1019 0531 01       		.uleb128 0x1
 1020 0532 50       		.byte	0x50
 1021 0533 02       		.uleb128 0x2
 1022 0534 75       		.byte	0x75
 1023 0535 00       		.sleb128 0
 1024 0536 15       		.uleb128 0x15
 1025 0537 01       		.uleb128 0x1
 1026 0538 51       		.byte	0x51
ARM GAS  /tmp/ccFHQtRL.s 			page 19


 1027 0539 02       		.uleb128 0x2
 1028 053a 74       		.byte	0x74
 1029 053b 08       		.sleb128 8
 1030 053c 15       		.uleb128 0x15
 1031 053d 01       		.uleb128 0x1
 1032 053e 52       		.byte	0x52
 1033 053f 01       		.uleb128 0x1
 1034 0540 38       		.byte	0x38
 1035 0541 15       		.uleb128 0x15
 1036 0542 01       		.uleb128 0x1
 1037 0543 53       		.byte	0x53
 1038 0544 02       		.uleb128 0x2
 1039 0545 76       		.byte	0x76
 1040 0546 01       		.sleb128 1
 1041 0547 00       		.byte	0
 1042 0548 17       		.uleb128 0x17
 1043 0549 30000000 		.4byte	.LVL9
 1044 054d C2050000 		.4byte	0x5c2
 1045 0551 6D050000 		.4byte	0x56d
 1046 0555 15       		.uleb128 0x15
 1047 0556 01       		.uleb128 0x1
 1048 0557 50       		.byte	0x50
 1049 0558 02       		.uleb128 0x2
 1050 0559 75       		.byte	0x75
 1051 055a 00       		.sleb128 0
 1052 055b 15       		.uleb128 0x15
 1053 055c 01       		.uleb128 0x1
 1054 055d 51       		.byte	0x51
 1055 055e 02       		.uleb128 0x2
 1056 055f 74       		.byte	0x74
 1057 0560 10       		.sleb128 16
 1058 0561 15       		.uleb128 0x15
 1059 0562 01       		.uleb128 0x1
 1060 0563 52       		.byte	0x52
 1061 0564 01       		.uleb128 0x1
 1062 0565 38       		.byte	0x38
 1063 0566 15       		.uleb128 0x15
 1064 0567 01       		.uleb128 0x1
 1065 0568 53       		.byte	0x53
 1066 0569 02       		.uleb128 0x2
 1067 056a 76       		.byte	0x76
 1068 056b 02       		.sleb128 2
 1069 056c 00       		.byte	0
 1070 056d 17       		.uleb128 0x17
 1071 056e 3E000000 		.4byte	.LVL11
 1072 0572 C2050000 		.4byte	0x5c2
 1073 0576 93050000 		.4byte	0x593
 1074 057a 15       		.uleb128 0x15
 1075 057b 01       		.uleb128 0x1
 1076 057c 50       		.byte	0x50
 1077 057d 02       		.uleb128 0x2
 1078 057e 75       		.byte	0x75
 1079 057f 00       		.sleb128 0
 1080 0580 15       		.uleb128 0x15
 1081 0581 01       		.uleb128 0x1
 1082 0582 51       		.byte	0x51
 1083 0583 02       		.uleb128 0x2
ARM GAS  /tmp/ccFHQtRL.s 			page 20


 1084 0584 74       		.byte	0x74
 1085 0585 18       		.sleb128 24
 1086 0586 15       		.uleb128 0x15
 1087 0587 01       		.uleb128 0x1
 1088 0588 52       		.byte	0x52
 1089 0589 02       		.uleb128 0x2
 1090 058a 08       		.byte	0x8
 1091 058b 20       		.byte	0x20
 1092 058c 15       		.uleb128 0x15
 1093 058d 01       		.uleb128 0x1
 1094 058e 53       		.byte	0x53
 1095 058f 02       		.uleb128 0x2
 1096 0590 76       		.byte	0x76
 1097 0591 04       		.sleb128 4
 1098 0592 00       		.byte	0
 1099 0593 14       		.uleb128 0x14
 1100 0594 4E000000 		.4byte	.LVL13
 1101 0598 C2050000 		.4byte	0x5c2
 1102 059c 15       		.uleb128 0x15
 1103 059d 01       		.uleb128 0x1
 1104 059e 50       		.byte	0x50
 1105 059f 02       		.uleb128 0x2
 1106 05a0 75       		.byte	0x75
 1107 05a1 00       		.sleb128 0
 1108 05a2 15       		.uleb128 0x15
 1109 05a3 01       		.uleb128 0x1
 1110 05a4 51       		.byte	0x51
 1111 05a5 02       		.uleb128 0x2
 1112 05a6 74       		.byte	0x74
 1113 05a7 38       		.sleb128 56
 1114 05a8 15       		.uleb128 0x15
 1115 05a9 01       		.uleb128 0x1
 1116 05aa 52       		.byte	0x52
 1117 05ab 02       		.uleb128 0x2
 1118 05ac 08       		.byte	0x8
 1119 05ad 40       		.byte	0x40
 1120 05ae 15       		.uleb128 0x15
 1121 05af 01       		.uleb128 0x1
 1122 05b0 53       		.byte	0x53
 1123 05b1 02       		.uleb128 0x2
 1124 05b2 76       		.byte	0x76
 1125 05b3 08       		.sleb128 8
 1126 05b4 00       		.byte	0
 1127 05b5 00       		.byte	0
 1128 05b6 19       		.uleb128 0x19
 1129 05b7 4E030000 		.4byte	.LASF52
 1130 05bb 4E030000 		.4byte	.LASF52
 1131 05bf 04       		.byte	0x4
 1132 05c0 CD01     		.2byte	0x1cd
 1133 05c2 19       		.uleb128 0x19
 1134 05c3 7F020000 		.4byte	.LASF53
 1135 05c7 7F020000 		.4byte	.LASF53
 1136 05cb 04       		.byte	0x4
 1137 05cc E701     		.2byte	0x1e7
 1138 05ce 00       		.byte	0
 1139              		.section	.debug_abbrev,"",%progbits
 1140              	.Ldebug_abbrev0:
ARM GAS  /tmp/ccFHQtRL.s 			page 21


 1141 0000 01       		.uleb128 0x1
 1142 0001 11       		.uleb128 0x11
 1143 0002 01       		.byte	0x1
 1144 0003 25       		.uleb128 0x25
 1145 0004 0E       		.uleb128 0xe
 1146 0005 13       		.uleb128 0x13
 1147 0006 0B       		.uleb128 0xb
 1148 0007 03       		.uleb128 0x3
 1149 0008 0E       		.uleb128 0xe
 1150 0009 1B       		.uleb128 0x1b
 1151 000a 0E       		.uleb128 0xe
 1152 000b 55       		.uleb128 0x55
 1153 000c 17       		.uleb128 0x17
 1154 000d 11       		.uleb128 0x11
 1155 000e 01       		.uleb128 0x1
 1156 000f 10       		.uleb128 0x10
 1157 0010 17       		.uleb128 0x17
 1158 0011 00       		.byte	0
 1159 0012 00       		.byte	0
 1160 0013 02       		.uleb128 0x2
 1161 0014 24       		.uleb128 0x24
 1162 0015 00       		.byte	0
 1163 0016 0B       		.uleb128 0xb
 1164 0017 0B       		.uleb128 0xb
 1165 0018 3E       		.uleb128 0x3e
 1166 0019 0B       		.uleb128 0xb
 1167 001a 03       		.uleb128 0x3
 1168 001b 0E       		.uleb128 0xe
 1169 001c 00       		.byte	0
 1170 001d 00       		.byte	0
 1171 001e 03       		.uleb128 0x3
 1172 001f 16       		.uleb128 0x16
 1173 0020 00       		.byte	0
 1174 0021 03       		.uleb128 0x3
 1175 0022 0E       		.uleb128 0xe
 1176 0023 3A       		.uleb128 0x3a
 1177 0024 0B       		.uleb128 0xb
 1178 0025 3B       		.uleb128 0x3b
 1179 0026 0B       		.uleb128 0xb
 1180 0027 49       		.uleb128 0x49
 1181 0028 13       		.uleb128 0x13
 1182 0029 00       		.byte	0
 1183 002a 00       		.byte	0
 1184 002b 04       		.uleb128 0x4
 1185 002c 24       		.uleb128 0x24
 1186 002d 00       		.byte	0
 1187 002e 0B       		.uleb128 0xb
 1188 002f 0B       		.uleb128 0xb
 1189 0030 3E       		.uleb128 0x3e
 1190 0031 0B       		.uleb128 0xb
 1191 0032 03       		.uleb128 0x3
 1192 0033 08       		.uleb128 0x8
 1193 0034 00       		.byte	0
 1194 0035 00       		.byte	0
 1195 0036 05       		.uleb128 0x5
 1196 0037 26       		.uleb128 0x26
 1197 0038 00       		.byte	0
ARM GAS  /tmp/ccFHQtRL.s 			page 22


 1198 0039 49       		.uleb128 0x49
 1199 003a 13       		.uleb128 0x13
 1200 003b 00       		.byte	0
 1201 003c 00       		.byte	0
 1202 003d 06       		.uleb128 0x6
 1203 003e 13       		.uleb128 0x13
 1204 003f 01       		.byte	0x1
 1205 0040 03       		.uleb128 0x3
 1206 0041 0E       		.uleb128 0xe
 1207 0042 0B       		.uleb128 0xb
 1208 0043 0B       		.uleb128 0xb
 1209 0044 3A       		.uleb128 0x3a
 1210 0045 0B       		.uleb128 0xb
 1211 0046 3B       		.uleb128 0x3b
 1212 0047 05       		.uleb128 0x5
 1213 0048 01       		.uleb128 0x1
 1214 0049 13       		.uleb128 0x13
 1215 004a 00       		.byte	0
 1216 004b 00       		.byte	0
 1217 004c 07       		.uleb128 0x7
 1218 004d 0D       		.uleb128 0xd
 1219 004e 00       		.byte	0
 1220 004f 03       		.uleb128 0x3
 1221 0050 0E       		.uleb128 0xe
 1222 0051 3A       		.uleb128 0x3a
 1223 0052 0B       		.uleb128 0xb
 1224 0053 3B       		.uleb128 0x3b
 1225 0054 05       		.uleb128 0x5
 1226 0055 49       		.uleb128 0x49
 1227 0056 13       		.uleb128 0x13
 1228 0057 38       		.uleb128 0x38
 1229 0058 0B       		.uleb128 0xb
 1230 0059 00       		.byte	0
 1231 005a 00       		.byte	0
 1232 005b 08       		.uleb128 0x8
 1233 005c 13       		.uleb128 0x13
 1234 005d 01       		.byte	0x1
 1235 005e 03       		.uleb128 0x3
 1236 005f 0E       		.uleb128 0xe
 1237 0060 0B       		.uleb128 0xb
 1238 0061 0B       		.uleb128 0xb
 1239 0062 3A       		.uleb128 0x3a
 1240 0063 0B       		.uleb128 0xb
 1241 0064 3B       		.uleb128 0x3b
 1242 0065 0B       		.uleb128 0xb
 1243 0066 01       		.uleb128 0x1
 1244 0067 13       		.uleb128 0x13
 1245 0068 00       		.byte	0
 1246 0069 00       		.byte	0
 1247 006a 09       		.uleb128 0x9
 1248 006b 0D       		.uleb128 0xd
 1249 006c 00       		.byte	0
 1250 006d 03       		.uleb128 0x3
 1251 006e 0E       		.uleb128 0xe
 1252 006f 3A       		.uleb128 0x3a
 1253 0070 0B       		.uleb128 0xb
 1254 0071 3B       		.uleb128 0x3b
ARM GAS  /tmp/ccFHQtRL.s 			page 23


 1255 0072 0B       		.uleb128 0xb
 1256 0073 49       		.uleb128 0x49
 1257 0074 13       		.uleb128 0x13
 1258 0075 38       		.uleb128 0x38
 1259 0076 0B       		.uleb128 0xb
 1260 0077 00       		.byte	0
 1261 0078 00       		.byte	0
 1262 0079 0A       		.uleb128 0xa
 1263 007a 0F       		.uleb128 0xf
 1264 007b 00       		.byte	0
 1265 007c 0B       		.uleb128 0xb
 1266 007d 0B       		.uleb128 0xb
 1267 007e 49       		.uleb128 0x49
 1268 007f 13       		.uleb128 0x13
 1269 0080 00       		.byte	0
 1270 0081 00       		.byte	0
 1271 0082 0B       		.uleb128 0xb
 1272 0083 01       		.uleb128 0x1
 1273 0084 01       		.byte	0x1
 1274 0085 49       		.uleb128 0x49
 1275 0086 13       		.uleb128 0x13
 1276 0087 01       		.uleb128 0x1
 1277 0088 13       		.uleb128 0x13
 1278 0089 00       		.byte	0
 1279 008a 00       		.byte	0
 1280 008b 0C       		.uleb128 0xc
 1281 008c 21       		.uleb128 0x21
 1282 008d 00       		.byte	0
 1283 008e 49       		.uleb128 0x49
 1284 008f 13       		.uleb128 0x13
 1285 0090 00       		.byte	0
 1286 0091 00       		.byte	0
 1287 0092 0D       		.uleb128 0xd
 1288 0093 0F       		.uleb128 0xf
 1289 0094 00       		.byte	0
 1290 0095 0B       		.uleb128 0xb
 1291 0096 0B       		.uleb128 0xb
 1292 0097 00       		.byte	0
 1293 0098 00       		.byte	0
 1294 0099 0E       		.uleb128 0xe
 1295 009a 13       		.uleb128 0x13
 1296 009b 01       		.byte	0x1
 1297 009c 0B       		.uleb128 0xb
 1298 009d 0B       		.uleb128 0xb
 1299 009e 3A       		.uleb128 0x3a
 1300 009f 0B       		.uleb128 0xb
 1301 00a0 3B       		.uleb128 0x3b
 1302 00a1 0B       		.uleb128 0xb
 1303 00a2 01       		.uleb128 0x1
 1304 00a3 13       		.uleb128 0x13
 1305 00a4 00       		.byte	0
 1306 00a5 00       		.byte	0
 1307 00a6 0F       		.uleb128 0xf
 1308 00a7 2E       		.uleb128 0x2e
 1309 00a8 01       		.byte	0x1
 1310 00a9 3F       		.uleb128 0x3f
 1311 00aa 19       		.uleb128 0x19
ARM GAS  /tmp/ccFHQtRL.s 			page 24


 1312 00ab 03       		.uleb128 0x3
 1313 00ac 0E       		.uleb128 0xe
 1314 00ad 3A       		.uleb128 0x3a
 1315 00ae 0B       		.uleb128 0xb
 1316 00af 3B       		.uleb128 0x3b
 1317 00b0 0B       		.uleb128 0xb
 1318 00b1 27       		.uleb128 0x27
 1319 00b2 19       		.uleb128 0x19
 1320 00b3 49       		.uleb128 0x49
 1321 00b4 13       		.uleb128 0x13
 1322 00b5 11       		.uleb128 0x11
 1323 00b6 01       		.uleb128 0x1
 1324 00b7 12       		.uleb128 0x12
 1325 00b8 06       		.uleb128 0x6
 1326 00b9 40       		.uleb128 0x40
 1327 00ba 18       		.uleb128 0x18
 1328 00bb 9742     		.uleb128 0x2117
 1329 00bd 19       		.uleb128 0x19
 1330 00be 01       		.uleb128 0x1
 1331 00bf 13       		.uleb128 0x13
 1332 00c0 00       		.byte	0
 1333 00c1 00       		.byte	0
 1334 00c2 10       		.uleb128 0x10
 1335 00c3 05       		.uleb128 0x5
 1336 00c4 00       		.byte	0
 1337 00c5 03       		.uleb128 0x3
 1338 00c6 0E       		.uleb128 0xe
 1339 00c7 3A       		.uleb128 0x3a
 1340 00c8 0B       		.uleb128 0xb
 1341 00c9 3B       		.uleb128 0x3b
 1342 00ca 0B       		.uleb128 0xb
 1343 00cb 49       		.uleb128 0x49
 1344 00cc 13       		.uleb128 0x13
 1345 00cd 02       		.uleb128 0x2
 1346 00ce 17       		.uleb128 0x17
 1347 00cf 00       		.byte	0
 1348 00d0 00       		.byte	0
 1349 00d1 11       		.uleb128 0x11
 1350 00d2 34       		.uleb128 0x34
 1351 00d3 00       		.byte	0
 1352 00d4 03       		.uleb128 0x3
 1353 00d5 0E       		.uleb128 0xe
 1354 00d6 3A       		.uleb128 0x3a
 1355 00d7 0B       		.uleb128 0xb
 1356 00d8 3B       		.uleb128 0x3b
 1357 00d9 0B       		.uleb128 0xb
 1358 00da 49       		.uleb128 0x49
 1359 00db 13       		.uleb128 0x13
 1360 00dc 1C       		.uleb128 0x1c
 1361 00dd 0B       		.uleb128 0xb
 1362 00de 00       		.byte	0
 1363 00df 00       		.byte	0
 1364 00e0 12       		.uleb128 0x12
 1365 00e1 34       		.uleb128 0x34
 1366 00e2 00       		.byte	0
 1367 00e3 03       		.uleb128 0x3
 1368 00e4 08       		.uleb128 0x8
ARM GAS  /tmp/ccFHQtRL.s 			page 25


 1369 00e5 3A       		.uleb128 0x3a
 1370 00e6 0B       		.uleb128 0xb
 1371 00e7 3B       		.uleb128 0x3b
 1372 00e8 0B       		.uleb128 0xb
 1373 00e9 49       		.uleb128 0x49
 1374 00ea 13       		.uleb128 0x13
 1375 00eb 02       		.uleb128 0x2
 1376 00ec 17       		.uleb128 0x17
 1377 00ed 00       		.byte	0
 1378 00ee 00       		.byte	0
 1379 00ef 13       		.uleb128 0x13
 1380 00f0 0B       		.uleb128 0xb
 1381 00f1 01       		.byte	0x1
 1382 00f2 11       		.uleb128 0x11
 1383 00f3 01       		.uleb128 0x1
 1384 00f4 12       		.uleb128 0x12
 1385 00f5 06       		.uleb128 0x6
 1386 00f6 01       		.uleb128 0x1
 1387 00f7 13       		.uleb128 0x13
 1388 00f8 00       		.byte	0
 1389 00f9 00       		.byte	0
 1390 00fa 14       		.uleb128 0x14
 1391 00fb 898201   		.uleb128 0x4109
 1392 00fe 01       		.byte	0x1
 1393 00ff 11       		.uleb128 0x11
 1394 0100 01       		.uleb128 0x1
 1395 0101 31       		.uleb128 0x31
 1396 0102 13       		.uleb128 0x13
 1397 0103 00       		.byte	0
 1398 0104 00       		.byte	0
 1399 0105 15       		.uleb128 0x15
 1400 0106 8A8201   		.uleb128 0x410a
 1401 0109 00       		.byte	0
 1402 010a 02       		.uleb128 0x2
 1403 010b 18       		.uleb128 0x18
 1404 010c 9142     		.uleb128 0x2111
 1405 010e 18       		.uleb128 0x18
 1406 010f 00       		.byte	0
 1407 0110 00       		.byte	0
 1408 0111 16       		.uleb128 0x16
 1409 0112 0A       		.uleb128 0xa
 1410 0113 00       		.byte	0
 1411 0114 03       		.uleb128 0x3
 1412 0115 0E       		.uleb128 0xe
 1413 0116 3A       		.uleb128 0x3a
 1414 0117 0B       		.uleb128 0xb
 1415 0118 3B       		.uleb128 0x3b
 1416 0119 0B       		.uleb128 0xb
 1417 011a 11       		.uleb128 0x11
 1418 011b 01       		.uleb128 0x1
 1419 011c 00       		.byte	0
 1420 011d 00       		.byte	0
 1421 011e 17       		.uleb128 0x17
 1422 011f 898201   		.uleb128 0x4109
 1423 0122 01       		.byte	0x1
 1424 0123 11       		.uleb128 0x11
 1425 0124 01       		.uleb128 0x1
ARM GAS  /tmp/ccFHQtRL.s 			page 26


 1426 0125 31       		.uleb128 0x31
 1427 0126 13       		.uleb128 0x13
 1428 0127 01       		.uleb128 0x1
 1429 0128 13       		.uleb128 0x13
 1430 0129 00       		.byte	0
 1431 012a 00       		.byte	0
 1432 012b 18       		.uleb128 0x18
 1433 012c 34       		.uleb128 0x34
 1434 012d 00       		.byte	0
 1435 012e 03       		.uleb128 0x3
 1436 012f 0E       		.uleb128 0xe
 1437 0130 3A       		.uleb128 0x3a
 1438 0131 0B       		.uleb128 0xb
 1439 0132 3B       		.uleb128 0x3b
 1440 0133 0B       		.uleb128 0xb
 1441 0134 49       		.uleb128 0x49
 1442 0135 13       		.uleb128 0x13
 1443 0136 02       		.uleb128 0x2
 1444 0137 17       		.uleb128 0x17
 1445 0138 00       		.byte	0
 1446 0139 00       		.byte	0
 1447 013a 19       		.uleb128 0x19
 1448 013b 2E       		.uleb128 0x2e
 1449 013c 00       		.byte	0
 1450 013d 3F       		.uleb128 0x3f
 1451 013e 19       		.uleb128 0x19
 1452 013f 3C       		.uleb128 0x3c
 1453 0140 19       		.uleb128 0x19
 1454 0141 6E       		.uleb128 0x6e
 1455 0142 0E       		.uleb128 0xe
 1456 0143 03       		.uleb128 0x3
 1457 0144 0E       		.uleb128 0xe
 1458 0145 3A       		.uleb128 0x3a
 1459 0146 0B       		.uleb128 0xb
 1460 0147 3B       		.uleb128 0x3b
 1461 0148 05       		.uleb128 0x5
 1462 0149 00       		.byte	0
 1463 014a 00       		.byte	0
 1464 014b 00       		.byte	0
 1465              		.section	.debug_loc,"",%progbits
 1466              	.Ldebug_loc0:
 1467              	.LLST13:
 1468 0000 00000000 		.4byte	.LVL44
 1469 0004 19000000 		.4byte	.LVL46-1
 1470 0008 0100     		.2byte	0x1
 1471 000a 50       		.byte	0x50
 1472 000b 19000000 		.4byte	.LVL46-1
 1473 000f 1E000000 		.4byte	.LFE3
 1474 0013 0400     		.2byte	0x4
 1475 0015 F3       		.byte	0xf3
 1476 0016 01       		.uleb128 0x1
 1477 0017 50       		.byte	0x50
 1478 0018 9F       		.byte	0x9f
 1479 0019 00000000 		.4byte	0
 1480 001d 00000000 		.4byte	0
 1481              	.LLST14:
 1482 0021 00000000 		.4byte	.LVL44
ARM GAS  /tmp/ccFHQtRL.s 			page 27


 1483 0025 19000000 		.4byte	.LVL46-1
 1484 0029 0100     		.2byte	0x1
 1485 002b 51       		.byte	0x51
 1486 002c 19000000 		.4byte	.LVL46-1
 1487 0030 1E000000 		.4byte	.LFE3
 1488 0034 0400     		.2byte	0x4
 1489 0036 F3       		.byte	0xf3
 1490 0037 01       		.uleb128 0x1
 1491 0038 51       		.byte	0x51
 1492 0039 9F       		.byte	0x9f
 1493 003a 00000000 		.4byte	0
 1494 003e 00000000 		.4byte	0
 1495              	.LLST15:
 1496 0042 00000000 		.4byte	.LVL44
 1497 0046 19000000 		.4byte	.LVL46-1
 1498 004a 0100     		.2byte	0x1
 1499 004c 52       		.byte	0x52
 1500 004d 19000000 		.4byte	.LVL46-1
 1501 0051 1E000000 		.4byte	.LFE3
 1502 0055 0300     		.2byte	0x3
 1503 0057 76       		.byte	0x76
 1504 0058 71       		.sleb128 -15
 1505 0059 9F       		.byte	0x9f
 1506 005a 00000000 		.4byte	0
 1507 005e 00000000 		.4byte	0
 1508              	.LLST16:
 1509 0062 00000000 		.4byte	.LVL44
 1510 0066 19000000 		.4byte	.LVL46-1
 1511 006a 0100     		.2byte	0x1
 1512 006c 53       		.byte	0x53
 1513 006d 19000000 		.4byte	.LVL46-1
 1514 0071 1E000000 		.4byte	.LFE3
 1515 0075 0400     		.2byte	0x4
 1516 0077 F3       		.byte	0xf3
 1517 0078 01       		.uleb128 0x1
 1518 0079 53       		.byte	0x53
 1519 007a 9F       		.byte	0x9f
 1520 007b 00000000 		.4byte	0
 1521 007f 00000000 		.4byte	0
 1522              	.LLST17:
 1523 0083 00000000 		.4byte	.LVL44
 1524 0087 1A000000 		.4byte	.LVL46
 1525 008b 0200     		.2byte	0x2
 1526 008d 30       		.byte	0x30
 1527 008e 9F       		.byte	0x9f
 1528 008f 1A000000 		.4byte	.LVL46
 1529 0093 1E000000 		.4byte	.LFE3
 1530 0097 0100     		.2byte	0x1
 1531 0099 50       		.byte	0x50
 1532 009a 00000000 		.4byte	0
 1533 009e 00000000 		.4byte	0
 1534              	.LLST18:
 1535 00a2 00000000 		.4byte	.LVL44
 1536 00a6 0C000000 		.4byte	.LVL45
 1537 00aa 0200     		.2byte	0x2
 1538 00ac 30       		.byte	0x30
 1539 00ad 9F       		.byte	0x9f
ARM GAS  /tmp/ccFHQtRL.s 			page 28


 1540 00ae 00000000 		.4byte	0
 1541 00b2 00000000 		.4byte	0
 1542              	.LLST7:
 1543 00b6 00000000 		.4byte	.LVL19
 1544 00ba 13000000 		.4byte	.LVL23-1
 1545 00be 0100     		.2byte	0x1
 1546 00c0 50       		.byte	0x50
 1547 00c1 13000000 		.4byte	.LVL23-1
 1548 00c5 84000000 		.4byte	.LFE2
 1549 00c9 0100     		.2byte	0x1
 1550 00cb 55       		.byte	0x55
 1551 00cc 00000000 		.4byte	0
 1552 00d0 00000000 		.4byte	0
 1553              	.LLST8:
 1554 00d4 00000000 		.4byte	.LVL19
 1555 00d8 0A000000 		.4byte	.LVL20
 1556 00dc 0100     		.2byte	0x1
 1557 00de 51       		.byte	0x51
 1558 00df 0A000000 		.4byte	.LVL20
 1559 00e3 84000000 		.4byte	.LFE2
 1560 00e7 0400     		.2byte	0x4
 1561 00e9 F3       		.byte	0xf3
 1562 00ea 01       		.uleb128 0x1
 1563 00eb 51       		.byte	0x51
 1564 00ec 9F       		.byte	0x9f
 1565 00ed 00000000 		.4byte	0
 1566 00f1 00000000 		.4byte	0
 1567              	.LLST9:
 1568 00f5 00000000 		.4byte	.LVL19
 1569 00f9 0E000000 		.4byte	.LVL22
 1570 00fd 0100     		.2byte	0x1
 1571 00ff 52       		.byte	0x52
 1572 0100 0E000000 		.4byte	.LVL22
 1573 0104 18000000 		.4byte	.LVL24
 1574 0108 0100     		.2byte	0x1
 1575 010a 54       		.byte	0x54
 1576 010b 18000000 		.4byte	.LVL24
 1577 010f 24000000 		.4byte	.LVL26
 1578 0113 0400     		.2byte	0x4
 1579 0115 F3       		.byte	0xf3
 1580 0116 01       		.uleb128 0x1
 1581 0117 52       		.byte	0x52
 1582 0118 9F       		.byte	0x9f
 1583 0119 24000000 		.4byte	.LVL26
 1584 011d 6A000000 		.4byte	.LVL39
 1585 0121 0100     		.2byte	0x1
 1586 0123 54       		.byte	0x54
 1587 0124 6A000000 		.4byte	.LVL39
 1588 0128 84000000 		.4byte	.LFE2
 1589 012c 0300     		.2byte	0x3
 1590 012e 74       		.byte	0x74
 1591 012f 78       		.sleb128 -8
 1592 0130 9F       		.byte	0x9f
 1593 0131 00000000 		.4byte	0
 1594 0135 00000000 		.4byte	0
 1595              	.LLST10:
 1596 0139 00000000 		.4byte	.LVL19
ARM GAS  /tmp/ccFHQtRL.s 			page 29


 1597 013d 0C000000 		.4byte	.LVL21
 1598 0141 0100     		.2byte	0x1
 1599 0143 53       		.byte	0x53
 1600 0144 0C000000 		.4byte	.LVL21
 1601 0148 84000000 		.4byte	.LFE2
 1602 014c 0400     		.2byte	0x4
 1603 014e F3       		.byte	0xf3
 1604 014f 01       		.uleb128 0x1
 1605 0150 53       		.byte	0x53
 1606 0151 9F       		.byte	0x9f
 1607 0152 00000000 		.4byte	0
 1608 0156 00000000 		.4byte	0
 1609              	.LLST11:
 1610 015a 00000000 		.4byte	.LVL19
 1611 015e 18000000 		.4byte	.LVL24
 1612 0162 0200     		.2byte	0x2
 1613 0164 91       		.byte	0x91
 1614 0165 00       		.sleb128 0
 1615 0166 24000000 		.4byte	.LVL26
 1616 016a 2E000000 		.4byte	.LVL27
 1617 016e 0600     		.2byte	0x6
 1618 0170 91       		.byte	0x91
 1619 0171 00       		.sleb128 0
 1620 0172 06       		.byte	0x6
 1621 0173 23       		.byte	0x23
 1622 0174 08       		.uleb128 0x8
 1623 0175 9F       		.byte	0x9f
 1624 0176 2E000000 		.4byte	.LVL27
 1625 017a 35000000 		.4byte	.LVL29-1
 1626 017e 0100     		.2byte	0x1
 1627 0180 51       		.byte	0x51
 1628 0181 35000000 		.4byte	.LVL29-1
 1629 0185 3A000000 		.4byte	.LVL30
 1630 0189 0600     		.2byte	0x6
 1631 018b 91       		.byte	0x91
 1632 018c 00       		.sleb128 0
 1633 018d 06       		.byte	0x6
 1634 018e 23       		.byte	0x23
 1635 018f 08       		.uleb128 0x8
 1636 0190 9F       		.byte	0x9f
 1637 0191 3A000000 		.4byte	.LVL30
 1638 0195 44000000 		.4byte	.LVL31
 1639 0199 0600     		.2byte	0x6
 1640 019b 91       		.byte	0x91
 1641 019c 00       		.sleb128 0
 1642 019d 06       		.byte	0x6
 1643 019e 23       		.byte	0x23
 1644 019f 10       		.uleb128 0x10
 1645 01a0 9F       		.byte	0x9f
 1646 01a1 44000000 		.4byte	.LVL31
 1647 01a5 4B000000 		.4byte	.LVL33-1
 1648 01a9 0100     		.2byte	0x1
 1649 01ab 51       		.byte	0x51
 1650 01ac 4B000000 		.4byte	.LVL33-1
 1651 01b0 50000000 		.4byte	.LVL34
 1652 01b4 0600     		.2byte	0x6
 1653 01b6 91       		.byte	0x91
ARM GAS  /tmp/ccFHQtRL.s 			page 30


 1654 01b7 00       		.sleb128 0
 1655 01b8 06       		.byte	0x6
 1656 01b9 23       		.byte	0x23
 1657 01ba 10       		.uleb128 0x10
 1658 01bb 9F       		.byte	0x9f
 1659 01bc 50000000 		.4byte	.LVL34
 1660 01c0 5C000000 		.4byte	.LVL35
 1661 01c4 0600     		.2byte	0x6
 1662 01c6 91       		.byte	0x91
 1663 01c7 00       		.sleb128 0
 1664 01c8 06       		.byte	0x6
 1665 01c9 23       		.byte	0x23
 1666 01ca 18       		.uleb128 0x18
 1667 01cb 9F       		.byte	0x9f
 1668 01cc 5C000000 		.4byte	.LVL35
 1669 01d0 61000000 		.4byte	.LVL37-1
 1670 01d4 0100     		.2byte	0x1
 1671 01d6 51       		.byte	0x51
 1672 01d7 61000000 		.4byte	.LVL37-1
 1673 01db 66000000 		.4byte	.LVL38
 1674 01df 0600     		.2byte	0x6
 1675 01e1 91       		.byte	0x91
 1676 01e2 00       		.sleb128 0
 1677 01e3 06       		.byte	0x6
 1678 01e4 23       		.byte	0x23
 1679 01e5 18       		.uleb128 0x18
 1680 01e6 9F       		.byte	0x9f
 1681 01e7 66000000 		.4byte	.LVL38
 1682 01eb 74000000 		.4byte	.LVL41
 1683 01ef 0600     		.2byte	0x6
 1684 01f1 91       		.byte	0x91
 1685 01f2 00       		.sleb128 0
 1686 01f3 06       		.byte	0x6
 1687 01f4 23       		.byte	0x23
 1688 01f5 38       		.uleb128 0x38
 1689 01f6 9F       		.byte	0x9f
 1690 01f7 74000000 		.4byte	.LVL41
 1691 01fb 77000000 		.4byte	.LVL42-1
 1692 01ff 0100     		.2byte	0x1
 1693 0201 51       		.byte	0x51
 1694 0202 77000000 		.4byte	.LVL42-1
 1695 0206 82000000 		.4byte	.LVL43
 1696 020a 0600     		.2byte	0x6
 1697 020c 91       		.byte	0x91
 1698 020d 00       		.sleb128 0
 1699 020e 06       		.byte	0x6
 1700 020f 23       		.byte	0x23
 1701 0210 38       		.uleb128 0x38
 1702 0211 9F       		.byte	0x9f
 1703 0212 82000000 		.4byte	.LVL43
 1704 0216 84000000 		.4byte	.LFE2
 1705 021a 0100     		.2byte	0x1
 1706 021c 50       		.byte	0x50
 1707 021d 00000000 		.4byte	0
 1708 0221 00000000 		.4byte	0
 1709              	.LLST12:
 1710 0225 00000000 		.4byte	.LVL19
ARM GAS  /tmp/ccFHQtRL.s 			page 31


 1711 0229 14000000 		.4byte	.LVL23
 1712 022d 0200     		.2byte	0x2
 1713 022f 30       		.byte	0x30
 1714 0230 9F       		.byte	0x9f
 1715 0231 14000000 		.4byte	.LVL23
 1716 0235 20000000 		.4byte	.LVL25
 1717 0239 0100     		.2byte	0x1
 1718 023b 50       		.byte	0x50
 1719 023c 24000000 		.4byte	.LVL26
 1720 0240 32000000 		.4byte	.LVL28
 1721 0244 0100     		.2byte	0x1
 1722 0246 50       		.byte	0x50
 1723 0247 32000000 		.4byte	.LVL28
 1724 024b 35000000 		.4byte	.LVL29-1
 1725 024f 0100     		.2byte	0x1
 1726 0251 52       		.byte	0x52
 1727 0252 36000000 		.4byte	.LVL29
 1728 0256 48000000 		.4byte	.LVL32
 1729 025a 0100     		.2byte	0x1
 1730 025c 50       		.byte	0x50
 1731 025d 48000000 		.4byte	.LVL32
 1732 0261 4B000000 		.4byte	.LVL33-1
 1733 0265 0100     		.2byte	0x1
 1734 0267 52       		.byte	0x52
 1735 0268 4C000000 		.4byte	.LVL33
 1736 026c 5E000000 		.4byte	.LVL36
 1737 0270 0100     		.2byte	0x1
 1738 0272 50       		.byte	0x50
 1739 0273 62000000 		.4byte	.LVL37
 1740 0277 6E000000 		.4byte	.LVL40
 1741 027b 0100     		.2byte	0x1
 1742 027d 50       		.byte	0x50
 1743 027e 78000000 		.4byte	.LVL42
 1744 0282 82000000 		.4byte	.LVL43
 1745 0286 0100     		.2byte	0x1
 1746 0288 50       		.byte	0x50
 1747 0289 00000000 		.4byte	0
 1748 028d 00000000 		.4byte	0
 1749              	.LLST4:
 1750 0291 00000000 		.4byte	.LVL15
 1751 0295 09000000 		.4byte	.LVL16-1
 1752 0299 0100     		.2byte	0x1
 1753 029b 50       		.byte	0x50
 1754 029c 09000000 		.4byte	.LVL16-1
 1755 02a0 10000000 		.4byte	.LFE1
 1756 02a4 0400     		.2byte	0x4
 1757 02a6 F3       		.byte	0xf3
 1758 02a7 01       		.uleb128 0x1
 1759 02a8 50       		.byte	0x50
 1760 02a9 9F       		.byte	0x9f
 1761 02aa 00000000 		.4byte	0
 1762 02ae 00000000 		.4byte	0
 1763              	.LLST5:
 1764 02b2 00000000 		.4byte	.LVL15
 1765 02b6 09000000 		.4byte	.LVL16-1
 1766 02ba 0100     		.2byte	0x1
 1767 02bc 51       		.byte	0x51
ARM GAS  /tmp/ccFHQtRL.s 			page 32


 1768 02bd 09000000 		.4byte	.LVL16-1
 1769 02c1 10000000 		.4byte	.LFE1
 1770 02c5 0400     		.2byte	0x4
 1771 02c7 F3       		.byte	0xf3
 1772 02c8 01       		.uleb128 0x1
 1773 02c9 51       		.byte	0x51
 1774 02ca 9F       		.byte	0x9f
 1775 02cb 00000000 		.4byte	0
 1776 02cf 00000000 		.4byte	0
 1777              	.LLST6:
 1778 02d3 00000000 		.4byte	.LVL15
 1779 02d7 0A000000 		.4byte	.LVL16
 1780 02db 0200     		.2byte	0x2
 1781 02dd 30       		.byte	0x30
 1782 02de 9F       		.byte	0x9f
 1783 02df 0A000000 		.4byte	.LVL16
 1784 02e3 0C000000 		.4byte	.LVL17
 1785 02e7 0100     		.2byte	0x1
 1786 02e9 50       		.byte	0x50
 1787 02ea 0C000000 		.4byte	.LVL17
 1788 02ee 0E000000 		.4byte	.LVL18
 1789 02f2 0300     		.2byte	0x3
 1790 02f4 70       		.byte	0x70
 1791 02f5 79       		.sleb128 -7
 1792 02f6 9F       		.byte	0x9f
 1793 02f7 00000000 		.4byte	0
 1794 02fb 00000000 		.4byte	0
 1795              	.LLST0:
 1796 02ff 00000000 		.4byte	.LVL0
 1797 0303 0E000000 		.4byte	.LVL3
 1798 0307 0100     		.2byte	0x1
 1799 0309 50       		.byte	0x50
 1800 030a 0E000000 		.4byte	.LVL3
 1801 030e 13000000 		.4byte	.LVL5-1
 1802 0312 0100     		.2byte	0x1
 1803 0314 53       		.byte	0x53
 1804 0315 13000000 		.4byte	.LVL5-1
 1805 0319 54000000 		.4byte	.LFE0
 1806 031d 0100     		.2byte	0x1
 1807 031f 56       		.byte	0x56
 1808 0320 00000000 		.4byte	0
 1809 0324 00000000 		.4byte	0
 1810              	.LLST1:
 1811 0328 00000000 		.4byte	.LVL0
 1812 032c 0C000000 		.4byte	.LVL2
 1813 0330 0100     		.2byte	0x1
 1814 0332 51       		.byte	0x51
 1815 0333 0C000000 		.4byte	.LVL2
 1816 0337 54000000 		.4byte	.LFE0
 1817 033b 0100     		.2byte	0x1
 1818 033d 55       		.byte	0x55
 1819 033e 00000000 		.4byte	0
 1820 0342 00000000 		.4byte	0
 1821              	.LLST2:
 1822 0346 00000000 		.4byte	.LVL0
 1823 034a 10000000 		.4byte	.LVL4
 1824 034e 0100     		.2byte	0x1
ARM GAS  /tmp/ccFHQtRL.s 			page 33


 1825 0350 52       		.byte	0x52
 1826 0351 10000000 		.4byte	.LVL4
 1827 0355 13000000 		.4byte	.LVL5-1
 1828 0359 0100     		.2byte	0x1
 1829 035b 51       		.byte	0x51
 1830 035c 13000000 		.4byte	.LVL5-1
 1831 0360 14000000 		.4byte	.LVL5
 1832 0364 0100     		.2byte	0x1
 1833 0366 54       		.byte	0x54
 1834 0367 14000000 		.4byte	.LVL5
 1835 036b 1A000000 		.4byte	.LVL6
 1836 036f 0300     		.2byte	0x3
 1837 0371 74       		.byte	0x74
 1838 0372 08       		.sleb128 8
 1839 0373 9F       		.byte	0x9f
 1840 0374 1A000000 		.4byte	.LVL6
 1841 0378 21000000 		.4byte	.LVL7-1
 1842 037c 0100     		.2byte	0x1
 1843 037e 51       		.byte	0x51
 1844 037f 21000000 		.4byte	.LVL7-1
 1845 0383 22000000 		.4byte	.LVL7
 1846 0387 0300     		.2byte	0x3
 1847 0389 74       		.byte	0x74
 1848 038a 08       		.sleb128 8
 1849 038b 9F       		.byte	0x9f
 1850 038c 22000000 		.4byte	.LVL7
 1851 0390 28000000 		.4byte	.LVL8
 1852 0394 0300     		.2byte	0x3
 1853 0396 74       		.byte	0x74
 1854 0397 10       		.sleb128 16
 1855 0398 9F       		.byte	0x9f
 1856 0399 28000000 		.4byte	.LVL8
 1857 039d 2F000000 		.4byte	.LVL9-1
 1858 03a1 0100     		.2byte	0x1
 1859 03a3 51       		.byte	0x51
 1860 03a4 2F000000 		.4byte	.LVL9-1
 1861 03a8 30000000 		.4byte	.LVL9
 1862 03ac 0300     		.2byte	0x3
 1863 03ae 74       		.byte	0x74
 1864 03af 10       		.sleb128 16
 1865 03b0 9F       		.byte	0x9f
 1866 03b1 30000000 		.4byte	.LVL9
 1867 03b5 36000000 		.4byte	.LVL10
 1868 03b9 0300     		.2byte	0x3
 1869 03bb 74       		.byte	0x74
 1870 03bc 18       		.sleb128 24
 1871 03bd 9F       		.byte	0x9f
 1872 03be 36000000 		.4byte	.LVL10
 1873 03c2 3D000000 		.4byte	.LVL11-1
 1874 03c6 0100     		.2byte	0x1
 1875 03c8 51       		.byte	0x51
 1876 03c9 3D000000 		.4byte	.LVL11-1
 1877 03cd 3E000000 		.4byte	.LVL11
 1878 03d1 0300     		.2byte	0x3
 1879 03d3 74       		.byte	0x74
 1880 03d4 18       		.sleb128 24
 1881 03d5 9F       		.byte	0x9f
ARM GAS  /tmp/ccFHQtRL.s 			page 34


 1882 03d6 3E000000 		.4byte	.LVL11
 1883 03da 48000000 		.4byte	.LVL12
 1884 03de 0300     		.2byte	0x3
 1885 03e0 74       		.byte	0x74
 1886 03e1 38       		.sleb128 56
 1887 03e2 9F       		.byte	0x9f
 1888 03e3 48000000 		.4byte	.LVL12
 1889 03e7 4D000000 		.4byte	.LVL13-1
 1890 03eb 0100     		.2byte	0x1
 1891 03ed 51       		.byte	0x51
 1892 03ee 4D000000 		.4byte	.LVL13-1
 1893 03f2 4E000000 		.4byte	.LVL13
 1894 03f6 0300     		.2byte	0x3
 1895 03f8 74       		.byte	0x74
 1896 03f9 38       		.sleb128 56
 1897 03fa 9F       		.byte	0x9f
 1898 03fb 4E000000 		.4byte	.LVL13
 1899 03ff 52000000 		.4byte	.LVL14
 1900 0403 0400     		.2byte	0x4
 1901 0405 74       		.byte	0x74
 1902 0406 F800     		.sleb128 120
 1903 0408 9F       		.byte	0x9f
 1904 0409 52000000 		.4byte	.LVL14
 1905 040d 54000000 		.4byte	.LFE0
 1906 0411 0100     		.2byte	0x1
 1907 0413 50       		.byte	0x50
 1908 0414 00000000 		.4byte	0
 1909 0418 00000000 		.4byte	0
 1910              	.LLST3:
 1911 041c 00000000 		.4byte	.LVL0
 1912 0420 0A000000 		.4byte	.LVL1
 1913 0424 0100     		.2byte	0x1
 1914 0426 53       		.byte	0x53
 1915 0427 0A000000 		.4byte	.LVL1
 1916 042b 54000000 		.4byte	.LFE0
 1917 042f 0400     		.2byte	0x4
 1918 0431 F3       		.byte	0xf3
 1919 0432 01       		.uleb128 0x1
 1920 0433 53       		.byte	0x53
 1921 0434 9F       		.byte	0x9f
 1922 0435 00000000 		.4byte	0
 1923 0439 00000000 		.4byte	0
 1924              		.section	.debug_aranges,"",%progbits
 1925 0000 34000000 		.4byte	0x34
 1926 0004 0200     		.2byte	0x2
 1927 0006 00000000 		.4byte	.Ldebug_info0
 1928 000a 04       		.byte	0x4
 1929 000b 00       		.byte	0
 1930 000c 0000     		.2byte	0
 1931 000e 0000     		.2byte	0
 1932 0010 00000000 		.4byte	.LFB0
 1933 0014 54000000 		.4byte	.LFE0-.LFB0
 1934 0018 00000000 		.4byte	.LFB1
 1935 001c 10000000 		.4byte	.LFE1-.LFB1
 1936 0020 00000000 		.4byte	.LFB2
 1937 0024 84000000 		.4byte	.LFE2-.LFB2
 1938 0028 00000000 		.4byte	.LFB3
ARM GAS  /tmp/ccFHQtRL.s 			page 35


 1939 002c 1E000000 		.4byte	.LFE3-.LFB3
 1940 0030 00000000 		.4byte	0
 1941 0034 00000000 		.4byte	0
 1942              		.section	.debug_ranges,"",%progbits
 1943              	.Ldebug_ranges0:
 1944 0000 00000000 		.4byte	.LFB0
 1945 0004 54000000 		.4byte	.LFE0
 1946 0008 00000000 		.4byte	.LFB1
 1947 000c 10000000 		.4byte	.LFE1
 1948 0010 00000000 		.4byte	.LFB2
 1949 0014 84000000 		.4byte	.LFE2
 1950 0018 00000000 		.4byte	.LFB3
 1951 001c 1E000000 		.4byte	.LFE3
 1952 0020 00000000 		.4byte	0
 1953 0024 00000000 		.4byte	0
 1954              		.section	.debug_line,"",%progbits
 1955              	.Ldebug_line0:
 1956 0000 51010000 		.section	.debug_str,"MS",%progbits,1
 1956      0200DE00 
 1956      00000201 
 1956      FB0E0D00 
 1956      01010101 
 1957              	.LASF25:
 1958 0000 64617461 		.ascii	"data_type_id\000"
 1958      5F747970 
 1958      655F6964 
 1958      00
 1959              	.LASF42:
 1960 000d 64657374 		.ascii	"dest\000"
 1960      00
 1961              	.LASF28:
 1962 0012 7072696F 		.ascii	"priority\000"
 1962      72697479 
 1962      00
 1963              	.LASF18:
 1964 001b 75696E74 		.ascii	"uint64_t\000"
 1964      36345F74 
 1964      00
 1965              	.LASF2:
 1966 0024 73686F72 		.ascii	"short int\000"
 1966      7420696E 
 1966      7400
 1967              	.LASF38:
 1968 002e 7663735F 		.ascii	"vcs_commit\000"
 1968      636F6D6D 
 1968      697400
 1969              	.LASF8:
 1970 0039 5F5F7569 		.ascii	"__uint32_t\000"
 1970      6E743332 
 1970      5F7400
 1971              	.LASF57:
 1972 0044 75617663 		.ascii	"uavcan_protocol_SoftwareVersion_error_exit\000"
 1972      616E5F70 
 1972      726F746F 
 1972      636F6C5F 
 1972      536F6674 
 1973              	.LASF4:
ARM GAS  /tmp/ccFHQtRL.s 			page 36


 1974 006f 5F5F7569 		.ascii	"__uint16_t\000"
 1974      6E743136 
 1974      5F7400
 1975              	.LASF39:
 1976 007a 696D6167 		.ascii	"image_crc\000"
 1976      655F6372 
 1976      6300
 1977              	.LASF35:
 1978 0084 6D616A6F 		.ascii	"major\000"
 1978      7200
 1979              	.LASF14:
 1980 008a 75696E74 		.ascii	"uint8_t\000"
 1980      385F7400 
 1981              	.LASF37:
 1982 0092 6F707469 		.ascii	"optional_field_flags\000"
 1982      6F6E616C 
 1982      5F666965 
 1982      6C645F66 
 1982      6C616773 
 1983              	.LASF50:
 1984 00a7 75617663 		.ascii	"uavcan_protocol_SoftwareVersion_encode_internal\000"
 1984      616E5F70 
 1984      726F746F 
 1984      636F6C5F 
 1984      536F6674 
 1985              	.LASF0:
 1986 00d7 7369676E 		.ascii	"signed char\000"
 1986      65642063 
 1986      68617200 
 1987              	.LASF10:
 1988 00e3 6C6F6E67 		.ascii	"long long int\000"
 1988      206C6F6E 
 1988      6720696E 
 1988      7400
 1989              	.LASF43:
 1990 00f1 64796E5F 		.ascii	"dyn_arr_buf\000"
 1990      6172725F 
 1990      62756600 
 1991              	.LASF46:
 1992 00fd 75617663 		.ascii	"uavcan_protocol_SoftwareVersion_decode_internal\000"
 1992      616E5F70 
 1992      726F746F 
 1992      636F6C5F 
 1992      536F6674 
 1993              	.LASF45:
 1994 012d 75617663 		.ascii	"uavcan_protocol_SoftwareVersion_decode\000"
 1994      616E5F70 
 1994      726F746F 
 1994      636F6C5F 
 1994      536F6674 
 1995              	.LASF7:
 1996 0154 6C6F6E67 		.ascii	"long int\000"
 1996      20696E74 
 1996      00
 1997              	.LASF44:
 1998 015d 6F666673 		.ascii	"offset\000"
 1998      657400
ARM GAS  /tmp/ccFHQtRL.s 			page 37


 1999              	.LASF3:
 2000 0164 5F5F7569 		.ascii	"__uint8_t\000"
 2000      6E74385F 
 2000      7400
 2001              	.LASF48:
 2002 016e 736F7572 		.ascii	"source\000"
 2002      636500
 2003              	.LASF23:
 2004 0175 7061796C 		.ascii	"payload_tail\000"
 2004      6F61645F 
 2004      7461696C 
 2004      00
 2005              	.LASF20:
 2006 0182 74696D65 		.ascii	"timestamp_usec\000"
 2006      7374616D 
 2006      705F7573 
 2006      656300
 2007              	.LASF1:
 2008 0191 756E7369 		.ascii	"unsigned char\000"
 2008      676E6564 
 2008      20636861 
 2008      7200
 2009              	.LASF22:
 2010 019f 7061796C 		.ascii	"payload_middle\000"
 2010      6F61645F 
 2010      6D696464 
 2010      6C6500
 2011              	.LASF47:
 2012 01ae 75617663 		.ascii	"uavcan_protocol_SoftwareVersion_encode\000"
 2012      616E5F70 
 2012      726F746F 
 2012      636F6C5F 
 2012      536F6674 
 2013              	.LASF56:
 2014 01d5 2F626C64 		.ascii	"/bldc\000"
 2014      6300
 2015              	.LASF55:
 2016 01db 6C696263 		.ascii	"libcanard/dsdl/uavcan/protocol/protocol_SoftwareVer"
 2016      616E6172 
 2016      642F6473 
 2016      646C2F75 
 2016      61766361 
 2017 020e 73696F6E 		.ascii	"sion.c\000"
 2017      2E6300
 2018              	.LASF12:
 2019 0215 6C6F6E67 		.ascii	"long long unsigned int\000"
 2019      206C6F6E 
 2019      6720756E 
 2019      7369676E 
 2019      65642069 
 2020              	.LASF17:
 2021 022c 75696E74 		.ascii	"uint32_t\000"
 2021      33325F74 
 2021      00
 2022              	.LASF13:
 2023 0235 756E7369 		.ascii	"unsigned int\000"
 2023      676E6564 
ARM GAS  /tmp/ccFHQtRL.s 			page 38


 2023      20696E74 
 2023      00
 2024              	.LASF15:
 2025 0242 75696E74 		.ascii	"uint16_t\000"
 2025      31365F74 
 2025      00
 2026              	.LASF32:
 2027 024b 43616E61 		.ascii	"CanardBufferBlock\000"
 2027      72644275 
 2027      66666572 
 2027      426C6F63 
 2027      6B00
 2028              	.LASF29:
 2029 025d 736F7572 		.ascii	"source_node_id\000"
 2029      63655F6E 
 2029      6F64655F 
 2029      696400
 2030              	.LASF5:
 2031 026c 73686F72 		.ascii	"short unsigned int\000"
 2031      7420756E 
 2031      7369676E 
 2031      65642069 
 2031      6E7400
 2032              	.LASF53:
 2033 027f 63616E61 		.ascii	"canardEncodeScalar\000"
 2033      7264456E 
 2033      636F6465 
 2033      5363616C 
 2033      617200
 2034              	.LASF31:
 2035 0292 63686172 		.ascii	"char\000"
 2035      00
 2036              	.LASF30:
 2037 0297 5F426F6F 		.ascii	"_Bool\000"
 2037      6C00
 2038              	.LASF16:
 2039 029d 696E7433 		.ascii	"int32_t\000"
 2039      325F7400 
 2040              	.LASF26:
 2041 02a5 7472616E 		.ascii	"transfer_type\000"
 2041      73666572 
 2041      5F747970 
 2041      6500
 2042              	.LASF21:
 2043 02b3 7061796C 		.ascii	"payload_head\000"
 2043      6F61645F 
 2043      68656164 
 2043      00
 2044              	.LASF11:
 2045 02c0 5F5F7569 		.ascii	"__uint64_t\000"
 2045      6E743634 
 2045      5F7400
 2046              	.LASF34:
 2047 02cb 64617461 		.ascii	"data\000"
 2047      00
 2048              	.LASF41:
 2049 02d0 7472616E 		.ascii	"transfer\000"
ARM GAS  /tmp/ccFHQtRL.s 			page 39


 2049      73666572 
 2049      00
 2050              	.LASF19:
 2051 02d9 43616E61 		.ascii	"CanardRxTransfer\000"
 2051      72645278 
 2051      5472616E 
 2051      73666572 
 2051      00
 2052              	.LASF9:
 2053 02ea 6C6F6E67 		.ascii	"long unsigned int\000"
 2053      20756E73 
 2053      69676E65 
 2053      6420696E 
 2053      7400
 2054              	.LASF51:
 2055 02fc 726F6F74 		.ascii	"root_item\000"
 2055      5F697465 
 2055      6D00
 2056              	.LASF40:
 2057 0306 75617663 		.ascii	"uavcan_protocol_SoftwareVersion\000"
 2057      616E5F70 
 2057      726F746F 
 2057      636F6C5F 
 2057      536F6674 
 2058              	.LASF6:
 2059 0326 5F5F696E 		.ascii	"__int32_t\000"
 2059      7433325F 
 2059      7400
 2060              	.LASF36:
 2061 0330 6D696E6F 		.ascii	"minor\000"
 2061      7200
 2062              	.LASF24:
 2063 0336 7061796C 		.ascii	"payload_len\000"
 2063      6F61645F 
 2063      6C656E00 
 2064              	.LASF27:
 2065 0342 7472616E 		.ascii	"transfer_id\000"
 2065      73666572 
 2065      5F696400 
 2066              	.LASF52:
 2067 034e 63616E61 		.ascii	"canardDecodeScalar\000"
 2067      72644465 
 2067      636F6465 
 2067      5363616C 
 2067      617200
 2068              	.LASF49:
 2069 0361 6D73675F 		.ascii	"msg_buf\000"
 2069      62756600 
 2070              	.LASF33:
 2071 0369 6E657874 		.ascii	"next\000"
 2071      00
 2072              	.LASF54:
 2073 036e 474E5520 		.ascii	"GNU C99 7.3.1 20180622 (release) [ARM/embedded-7-br"
 2073      43393920 
 2073      372E332E 
 2073      31203230 
 2073      31383036 
ARM GAS  /tmp/ccFHQtRL.s 			page 40


 2074 03a1 616E6368 		.ascii	"anch revision 261907] -mcpu=cortex-m4 -mfloat-abi=h"
 2074      20726576 
 2074      6973696F 
 2074      6E203236 
 2074      31393037 
 2075 03d4 61726420 		.ascii	"ard -mfpu=fpv4-sp-d16 -mno-thumb-interwork -mthumb "
 2075      2D6D6670 
 2075      753D6670 
 2075      76342D73 
 2075      702D6431 
 2076 0407 2D676764 		.ascii	"-ggdb -O2 -std=gnu99 -fomit-frame-pointer -falign-f"
 2076      62202D4F 
 2076      32202D73 
 2076      74643D67 
 2076      6E753939 
 2077 043a 756E6374 		.ascii	"unctions=16 -ffunction-sections -fdata-sections -fn"
 2077      696F6E73 
 2077      3D313620 
 2077      2D666675 
 2077      6E637469 
 2078 046d 6F2D636F 		.ascii	"o-common -fsingle-precision-constant\000"
 2078      6D6D6F6E 
 2078      202D6673 
 2078      696E676C 
 2078      652D7072 
 2079              		.ident	"GCC: (GNU Tools for Arm Embedded Processors 7-2018-q3-update) 7.3.1 20180622 (release) [AR
ARM GAS  /tmp/ccFHQtRL.s 			page 41


DEFINED SYMBOLS
                            *ABS*:0000000000000000 protocol_SoftwareVersion.c
     /tmp/ccFHQtRL.s:18     .text.uavcan_protocol_SoftwareVersion_encode_internal:0000000000000000 $t
     /tmp/ccFHQtRL.s:26     .text.uavcan_protocol_SoftwareVersion_encode_internal:0000000000000000 uavcan_protocol_SoftwareVersion_encode_internal
     /tmp/ccFHQtRL.s:95     .text.uavcan_protocol_SoftwareVersion_encode:0000000000000000 $t
     /tmp/ccFHQtRL.s:103    .text.uavcan_protocol_SoftwareVersion_encode:0000000000000000 uavcan_protocol_SoftwareVersion_encode
     /tmp/ccFHQtRL.s:130    .text.uavcan_protocol_SoftwareVersion_decode_internal:0000000000000000 $t
     /tmp/ccFHQtRL.s:138    .text.uavcan_protocol_SoftwareVersion_decode_internal:0000000000000000 uavcan_protocol_SoftwareVersion_decode_internal
     /tmp/ccFHQtRL.s:262    .text.uavcan_protocol_SoftwareVersion_decode:0000000000000000 $t
     /tmp/ccFHQtRL.s:270    .text.uavcan_protocol_SoftwareVersion_decode:0000000000000000 uavcan_protocol_SoftwareVersion_decode

UNDEFINED SYMBOLS
canardEncodeScalar
canardDecodeScalar
