ARM GAS  /tmp/ccj9F9Kr.s 			page 1


   1              		.cpu cortex-m4
   2              		.eabi_attribute 27, 1
   3              		.eabi_attribute 28, 1
   4              		.eabi_attribute 20, 1
   5              		.eabi_attribute 21, 1
   6              		.eabi_attribute 23, 3
   7              		.eabi_attribute 24, 1
   8              		.eabi_attribute 25, 1
   9              		.eabi_attribute 26, 1
  10              		.eabi_attribute 30, 2
  11              		.eabi_attribute 34, 1
  12              		.eabi_attribute 18, 4
  13              		.file	"protocol_HardwareVersion.c"
  14              		.text
  15              	.Ltext0:
  16              		.cfi_sections	.debug_frame
  17              		.section	.text.uavcan_protocol_HardwareVersion_encode_internal,"ax",%progbits
  18              		.align	1
  19              		.p2align 4,,15
  20              		.global	uavcan_protocol_HardwareVersion_encode_internal
  21              		.syntax unified
  22              		.thumb
  23              		.thumb_func
  24              		.fpu fpv4-sp-d16
  25              		.type	uavcan_protocol_HardwareVersion_encode_internal, %function
  26              	uavcan_protocol_HardwareVersion_encode_internal:
  27              	.LFB0:
  28              		.file 1 "libcanard/dsdl/uavcan/protocol/protocol_HardwareVersion.c"
  29              		.loc 1 37 0
  30              		.cfi_startproc
  31              		@ args = 0, pretend = 0, frame = 0
  32              		@ frame_needed = 0, uses_anonymous_args = 0
  33              	.LVL0:
  34 0000 2DE9F047 		push	{r4, r5, r6, r7, r8, r9, r10, lr}
  35              		.cfi_def_cfa_offset 32
  36              		.cfi_offset 4, -32
  37              		.cfi_offset 5, -28
  38              		.cfi_offset 6, -24
  39              		.cfi_offset 7, -20
  40              		.cfi_offset 8, -16
  41              		.cfi_offset 9, -12
  42              		.cfi_offset 10, -8
  43              		.cfi_offset 14, -4
  44              		.loc 1 37 0
  45 0004 0F46     		mov	r7, r1
  46 0006 9146     		mov	r9, r2
  47 0008 8046     		mov	r8, r0
  48              		.loc 1 40 0
  49 000a 1146     		mov	r1, r2
  50              	.LVL1:
  51              		.loc 1 37 0
  52 000c 9A46     		mov	r10, r3
  53              		.loc 1 40 0
  54 000e 0822     		movs	r2, #8
  55              	.LVL2:
  56 0010 0346     		mov	r3, r0
  57              	.LVL3:
ARM GAS  /tmp/ccj9F9Kr.s 			page 2


  58 0012 3846     		mov	r0, r7
  59              	.LVL4:
  60 0014 FFF7FEFF 		bl	canardEncodeScalar
  61              	.LVL5:
  62              		.loc 1 43 0
  63 0018 08F10103 		add	r3, r8, #1
  64 001c 09F10801 		add	r1, r9, #8
  65              	.LVL6:
  66 0020 3846     		mov	r0, r7
  67 0022 0822     		movs	r2, #8
  68 0024 FFF7FEFF 		bl	canardEncodeScalar
  69              	.LVL7:
  70              		.loc 1 44 0
  71 0028 09F11004 		add	r4, r9, #16
  72              	.LVL8:
  73 002c 08F10205 		add	r5, r8, #2
  74 0030 09F19006 		add	r6, r9, #144
  75              	.LVL9:
  76              	.L2:
  77              		.loc 1 49 0 discriminator 3
  78 0034 0822     		movs	r2, #8
  79 0036 2B46     		mov	r3, r5
  80 0038 2146     		mov	r1, r4
  81 003a 3846     		mov	r0, r7
  82              		.loc 1 50 0 discriminator 3
  83 003c 1444     		add	r4, r4, r2
  84              	.LVL10:
  85              		.loc 1 49 0 discriminator 3
  86 003e FFF7FEFF 		bl	canardEncodeScalar
  87              	.LVL11:
  88              		.loc 1 47 0 discriminator 3
  89 0042 A642     		cmp	r6, r4
  90 0044 05F10105 		add	r5, r5, #1
  91 0048 F4D1     		bne	.L2
  92              		.loc 1 54 0
  93 004a BAF1000F 		cmp	r10, #0
  94 004e 15D0     		beq	.L13
  95              	.LVL12:
  96              	.L3:
  97              		.loc 1 62 0 discriminator 1
  98 0050 98F81430 		ldrb	r3, [r8, #20]	@ zero_extendqisi2
  99 0054 7BB1     		cbz	r3, .L1
 100              		.loc 1 62 0 is_stmt 0
 101 0056 0025     		movs	r5, #0
 102              	.LVL13:
 103              	.L5:
 104              		.loc 1 67 0 is_stmt 1 discriminator 3
 105 0058 D8F81830 		ldr	r3, [r8, #24]
 106              		.loc 1 64 0 discriminator 3
 107 005c 3146     		mov	r1, r6
 108 005e 2B44     		add	r3, r3, r5
 109 0060 0822     		movs	r2, #8
 110 0062 3846     		mov	r0, r7
 111 0064 FFF7FEFF 		bl	canardEncodeScalar
 112              	.LVL14:
 113              		.loc 1 62 0 discriminator 3
 114 0068 98F81430 		ldrb	r3, [r8, #20]	@ zero_extendqisi2
ARM GAS  /tmp/ccj9F9Kr.s 			page 3


 115 006c 0135     		adds	r5, r5, #1
 116              	.LVL15:
 117 006e AB42     		cmp	r3, r5
 118              		.loc 1 68 0 discriminator 3
 119 0070 06F10806 		add	r6, r6, #8
 120              	.LVL16:
 121              		.loc 1 62 0 discriminator 3
 122 0074 F0D8     		bhi	.L5
 123              	.LVL17:
 124              	.L1:
 125              		.loc 1 72 0
 126 0076 3046     		mov	r0, r6
 127 0078 BDE8F087 		pop	{r4, r5, r6, r7, r8, r9, r10, pc}
 128              	.LVL18:
 129              	.L13:
 130              		.loc 1 57 0
 131 007c 3146     		mov	r1, r6
 132 007e 08F11403 		add	r3, r8, #20
 133 0082 0822     		movs	r2, #8
 134 0084 3846     		mov	r0, r7
 135 0086 FFF7FEFF 		bl	canardEncodeScalar
 136              	.LVL19:
 137              		.loc 1 58 0
 138 008a 09F19806 		add	r6, r9, #152
 139              	.LVL20:
 140 008e DFE7     		b	.L3
 141              		.cfi_endproc
 142              	.LFE0:
 143              		.size	uavcan_protocol_HardwareVersion_encode_internal, .-uavcan_protocol_HardwareVersion_encode_in
 144              		.section	.text.uavcan_protocol_HardwareVersion_encode,"ax",%progbits
 145              		.align	1
 146              		.p2align 4,,15
 147              		.global	uavcan_protocol_HardwareVersion_encode
 148              		.syntax unified
 149              		.thumb
 150              		.thumb_func
 151              		.fpu fpv4-sp-d16
 152              		.type	uavcan_protocol_HardwareVersion_encode, %function
 153              	uavcan_protocol_HardwareVersion_encode:
 154              	.LFB1:
 155              		.loc 1 81 0
 156              		.cfi_startproc
 157              		@ args = 0, pretend = 0, frame = 0
 158              		@ frame_needed = 0, uses_anonymous_args = 0
 159              	.LVL21:
 160 0000 08B5     		push	{r3, lr}
 161              		.cfi_def_cfa_offset 8
 162              		.cfi_offset 3, -8
 163              		.cfi_offset 14, -4
 164              		.loc 1 84 0
 165 0002 0022     		movs	r2, #0
 166 0004 0123     		movs	r3, #1
 167 0006 FFF7FEFF 		bl	uavcan_protocol_HardwareVersion_encode_internal
 168              	.LVL22:
 169              		.loc 1 86 0
 170 000a 0730     		adds	r0, r0, #7
 171              	.LVL23:
ARM GAS  /tmp/ccj9F9Kr.s 			page 4


 172              		.loc 1 87 0
 173 000c C008     		lsrs	r0, r0, #3
 174              	.LVL24:
 175 000e 08BD     		pop	{r3, pc}
 176              		.cfi_endproc
 177              	.LFE1:
 178              		.size	uavcan_protocol_HardwareVersion_encode, .-uavcan_protocol_HardwareVersion_encode
 179              		.section	.text.uavcan_protocol_HardwareVersion_decode_internal,"ax",%progbits
 180              		.align	1
 181              		.p2align 4,,15
 182              		.global	uavcan_protocol_HardwareVersion_decode_internal
 183              		.syntax unified
 184              		.thumb
 185              		.thumb_func
 186              		.fpu fpv4-sp-d16
 187              		.type	uavcan_protocol_HardwareVersion_decode_internal, %function
 188              	uavcan_protocol_HardwareVersion_decode_internal:
 189              	.LFB2:
 190              		.loc 1 106 0
 191              		.cfi_startproc
 192              		@ args = 4, pretend = 0, frame = 0
 193              		@ frame_needed = 0, uses_anonymous_args = 0
 194              	.LVL25:
 195 0000 2DE9F04F 		push	{r4, r5, r6, r7, r8, r9, r10, fp, lr}
 196              		.cfi_def_cfa_offset 36
 197              		.cfi_offset 4, -36
 198              		.cfi_offset 5, -32
 199              		.cfi_offset 6, -28
 200              		.cfi_offset 7, -24
 201              		.cfi_offset 8, -20
 202              		.cfi_offset 9, -16
 203              		.cfi_offset 10, -12
 204              		.cfi_offset 11, -8
 205              		.cfi_offset 14, -4
 206 0004 83B0     		sub	sp, sp, #12
 207              		.cfi_def_cfa_offset 48
 208              		.loc 1 106 0
 209 0006 1646     		mov	r6, r2
 210              		.loc 1 110 0
 211 0008 0092     		str	r2, [sp]
 212              		.loc 1 106 0
 213 000a 8B46     		mov	fp, r1
 214 000c 9946     		mov	r9, r3
 215              		.loc 1 110 0
 216 000e 0C99     		ldr	r1, [sp, #48]
 217              	.LVL26:
 218 0010 0023     		movs	r3, #0
 219              	.LVL27:
 220 0012 0822     		movs	r2, #8
 221              	.LVL28:
 222              		.loc 1 106 0
 223 0014 0746     		mov	r7, r0
 224              		.loc 1 110 0
 225 0016 FFF7FEFF 		bl	canardDecodeScalar
 226              	.LVL29:
 227              		.loc 1 111 0
 228 001a 0828     		cmp	r0, #8
ARM GAS  /tmp/ccj9F9Kr.s 			page 5


 229              		.loc 1 110 0
 230 001c 0446     		mov	r4, r0
 231              	.LVL30:
 232              		.loc 1 111 0
 233 001e 07D0     		beq	.L40
 234              	.LVL31:
 235              	.L17:
 236              		.loc 1 189 0
 237 0020 002C     		cmp	r4, #0
 238 0022 A8BF     		it	ge
 239 0024 6FF00804 		mvnge	r4, #8
 240              	.LVL32:
 241              	.L16:
 242              		.loc 1 191 0
 243 0028 2046     		mov	r0, r4
 244 002a 03B0     		add	sp, sp, #12
 245              		.cfi_remember_state
 246              		.cfi_def_cfa_offset 36
 247              		@ sp needed
 248 002c BDE8F08F 		pop	{r4, r5, r6, r7, r8, r9, r10, fp, pc}
 249              	.LVL33:
 250              	.L40:
 251              		.cfi_restore_state
 252              		.loc 1 117 0
 253 0030 0C99     		ldr	r1, [sp, #48]
 254 0032 731C     		adds	r3, r6, #1
 255 0034 0246     		mov	r2, r0
 256 0036 0093     		str	r3, [sp]
 257 0038 0831     		adds	r1, r1, #8
 258              	.LVL34:
 259 003a 0023     		movs	r3, #0
 260 003c 3846     		mov	r0, r7
 261              	.LVL35:
 262 003e FFF7FEFF 		bl	canardDecodeScalar
 263              	.LVL36:
 264              		.loc 1 118 0
 265 0042 0828     		cmp	r0, #8
 266              		.loc 1 117 0
 267 0044 0446     		mov	r4, r0
 268              	.LVL37:
 269              		.loc 1 118 0
 270 0046 EBD1     		bne	.L17
 271              		.loc 1 122 0
 272 0048 0C9B     		ldr	r3, [sp, #48]
 273 004a 06F10208 		add	r8, r6, #2
 274 004e 03F1100A 		add	r10, r3, #16
 275              	.LVL38:
 276 0052 03F19005 		add	r5, r3, #144
 277 0056 00E0     		b	.L18
 278              	.LVL39:
 279              	.L26:
 280 0058 A246     		mov	r10, r4
 281              	.LVL40:
 282              	.L18:
 283              		.loc 1 127 0
 284 005a CDF80080 		str	r8, [sp]
 285 005e 0023     		movs	r3, #0
ARM GAS  /tmp/ccj9F9Kr.s 			page 6


 286 0060 0822     		movs	r2, #8
 287 0062 5146     		mov	r1, r10
 288 0064 3846     		mov	r0, r7
 289              	.LVL41:
 290 0066 FFF7FEFF 		bl	canardDecodeScalar
 291              	.LVL42:
 292              		.loc 1 128 0
 293 006a 0828     		cmp	r0, #8
 294              		.loc 1 127 0
 295 006c 0446     		mov	r4, r0
 296              	.LVL43:
 297 006e 08F10108 		add	r8, r8, #1
 298              	.LVL44:
 299              		.loc 1 128 0
 300 0072 D5D1     		bne	.L17
 301              		.loc 1 132 0 discriminator 2
 302 0074 0AF10804 		add	r4, r10, #8
 303              	.LVL45:
 304              		.loc 1 125 0 discriminator 2
 305 0078 AC42     		cmp	r4, r5
 306 007a EDD1     		bne	.L26
 307              		.loc 1 137 0
 308 007c BBF1000F 		cmp	fp, #0
 309 0080 2CD0     		beq	.L19
 310              		.loc 1 140 0
 311 0082 D5EBCB05 		rsbs	r5, r5, fp, lsl #3
 312 0086 48BF     		it	mi
 313 0088 0735     		addmi	r5, r5, #7
 314 008a C5F3C705 		ubfx	r5, r5, #3, #8
 315 008e 3575     		strb	r5, [r6, #20]
 316              	.L21:
 317              		.loc 1 158 0
 318 0090 B9F1000F 		cmp	r9, #0
 319 0094 02D0     		beq	.L22
 320              		.loc 1 160 0
 321 0096 D9F80030 		ldr	r3, [r9]
 322 009a B361     		str	r3, [r6, #24]
 323              	.L22:
 324              	.LVL46:
 325              		.loc 1 163 0 discriminator 1
 326 009c 002D     		cmp	r5, #0
 327 009e C3D0     		beq	.L16
 328              		.loc 1 163 0 is_stmt 0
 329 00a0 4FF00008 		mov	r8, #0
 330 00a4 07E0     		b	.L25
 331              	.LVL47:
 332              	.L41:
 333              		.loc 1 176 0 is_stmt 1
 334 00a6 D9F80030 		ldr	r3, [r9]
 335 00aa 0133     		adds	r3, r3, #1
 336 00ac C9F80030 		str	r3, [r9]
 337              	.LVL48:
 338              	.L24:
 339              		.loc 1 163 0 discriminator 2
 340 00b0 337D     		ldrb	r3, [r6, #20]	@ zero_extendqisi2
 341 00b2 4345     		cmp	r3, r8
 342 00b4 B8D9     		bls	.L16
ARM GAS  /tmp/ccj9F9Kr.s 			page 7


 343              	.LVL49:
 344              	.L25:
 345              		.loc 1 167 0
 346 00b6 0822     		movs	r2, #8
 347 00b8 2146     		mov	r1, r4
 348 00ba 0023     		movs	r3, #0
 349 00bc 3846     		mov	r0, r7
 350              		.loc 1 163 0
 351 00be 08F10108 		add	r8, r8, #1
 352              	.LVL50:
 353              		.loc 1 178 0
 354 00c2 1444     		add	r4, r4, r2
 355              	.LVL51:
 356              		.loc 1 165 0
 357 00c4 B9F1000F 		cmp	r9, #0
 358 00c8 F2D0     		beq	.L24
 359              	.LVL52:
 360              		.loc 1 167 0
 361 00ca D9F80050 		ldr	r5, [r9]
 362 00ce 0095     		str	r5, [sp]
 363 00d0 FFF7FEFF 		bl	canardDecodeScalar
 364              	.LVL53:
 365              		.loc 1 172 0
 366 00d4 0828     		cmp	r0, #8
 367 00d6 E6D0     		beq	.L41
 368              		.loc 1 182 0
 369 00d8 0446     		mov	r4, r0
 370              	.LVL54:
 371 00da A1E7     		b	.L17
 372              	.LVL55:
 373              	.L19:
 374              		.loc 1 149 0
 375 00dc 06F11404 		add	r4, r6, #20
 376              	.LVL56:
 377              		.loc 1 145 0
 378 00e0 0246     		mov	r2, r0
 379 00e2 0094     		str	r4, [sp]
 380 00e4 5B46     		mov	r3, fp
 381 00e6 2946     		mov	r1, r5
 382 00e8 3846     		mov	r0, r7
 383              	.LVL57:
 384 00ea FFF7FEFF 		bl	canardDecodeScalar
 385              	.LVL58:
 386              		.loc 1 150 0
 387 00ee 0828     		cmp	r0, #8
 388              		.loc 1 145 0
 389 00f0 0446     		mov	r4, r0
 390              	.LVL59:
 391              		.loc 1 150 0
 392 00f2 95D1     		bne	.L17
 393 00f4 357D     		ldrb	r5, [r6, #20]	@ zero_extendqisi2
 394              		.loc 1 154 0
 395 00f6 0AF11004 		add	r4, r10, #16
 396              	.LVL60:
 397 00fa C9E7     		b	.L21
 398              		.cfi_endproc
 399              	.LFE2:
ARM GAS  /tmp/ccj9F9Kr.s 			page 8


 400              		.size	uavcan_protocol_HardwareVersion_decode_internal, .-uavcan_protocol_HardwareVersion_decode_in
 401              		.section	.text.uavcan_protocol_HardwareVersion_decode,"ax",%progbits
 402              		.align	1
 403              		.p2align 4,,15
 404              		.global	uavcan_protocol_HardwareVersion_decode
 405              		.syntax unified
 406              		.thumb
 407              		.thumb_func
 408              		.fpu fpv4-sp-d16
 409              		.type	uavcan_protocol_HardwareVersion_decode, %function
 410              	uavcan_protocol_HardwareVersion_decode:
 411              	.LFB3:
 412              		.loc 1 207 0
 413              		.cfi_startproc
 414              		@ args = 0, pretend = 0, frame = 0
 415              		@ frame_needed = 0, uses_anonymous_args = 0
 416              	.LVL61:
 417 0000 70B5     		push	{r4, r5, r6, lr}
 418              		.cfi_def_cfa_offset 16
 419              		.cfi_offset 4, -16
 420              		.cfi_offset 5, -12
 421              		.cfi_offset 6, -8
 422              		.cfi_offset 14, -4
 423 0002 541E     		subs	r4, r2, #1
 424 0004 82B0     		sub	sp, sp, #8
 425              		.cfi_def_cfa_offset 24
 426 0006 02F11B06 		add	r6, r2, #27
 427              	.LBB2:
 428              		.loc 1 214 0
 429 000a 0025     		movs	r5, #0
 430              	.LVL62:
 431              	.L43:
 432              		.loc 1 214 0 is_stmt 0 discriminator 3
 433 000c 04F8015F 		strb	r5, [r4, #1]!
 434              		.loc 1 212 0 is_stmt 1 discriminator 3
 435 0010 B442     		cmp	r4, r6
 436 0012 FBD1     		bne	.L43
 437              	.LBE2:
 438              		.loc 1 217 0
 439 0014 0095     		str	r5, [sp]
 440 0016 FFF7FEFF 		bl	uavcan_protocol_HardwareVersion_decode_internal
 441              	.LVL63:
 442              		.loc 1 220 0
 443 001a 02B0     		add	sp, sp, #8
 444              		.cfi_def_cfa_offset 16
 445              		@ sp needed
 446 001c 70BD     		pop	{r4, r5, r6, pc}
 447              		.cfi_endproc
 448              	.LFE3:
 449              		.size	uavcan_protocol_HardwareVersion_decode, .-uavcan_protocol_HardwareVersion_decode
 450 001e 00BF     		.text
 451              	.Letext0:
 452              		.file 2 "/usr/arm-none-eabi/include/machine/_default_types.h"
 453              		.file 3 "/usr/arm-none-eabi/include/sys/_stdint.h"
 454              		.file 4 "libcanard/canard.h"
 455              		.file 5 "libcanard/dsdl/uavcan/protocol/HardwareVersion.h"
 456              		.section	.debug_info,"",%progbits
ARM GAS  /tmp/ccj9F9Kr.s 			page 9


 457              	.Ldebug_info0:
 458 0000 FE050000 		.4byte	0x5fe
 459 0004 0400     		.2byte	0x4
 460 0006 00000000 		.4byte	.Ldebug_abbrev0
 461 000a 04       		.byte	0x4
 462 000b 01       		.uleb128 0x1
 463 000c 6A030000 		.4byte	.LASF53
 464 0010 0C       		.byte	0xc
 465 0011 89000000 		.4byte	.LASF54
 466 0015 5A010000 		.4byte	.LASF55
 467 0019 00000000 		.4byte	.Ldebug_ranges0+0
 468 001d 00000000 		.4byte	0
 469 0021 00000000 		.4byte	.Ldebug_line0
 470 0025 02       		.uleb128 0x2
 471 0026 01       		.byte	0x1
 472 0027 06       		.byte	0x6
 473 0028 60010000 		.4byte	.LASF0
 474 002c 03       		.uleb128 0x3
 475 002d 06010000 		.4byte	.LASF3
 476 0031 02       		.byte	0x2
 477 0032 2B       		.byte	0x2b
 478 0033 37000000 		.4byte	0x37
 479 0037 02       		.uleb128 0x2
 480 0038 01       		.byte	0x1
 481 0039 08       		.byte	0x8
 482 003a 3D010000 		.4byte	.LASF1
 483 003e 02       		.uleb128 0x2
 484 003f 02       		.byte	0x2
 485 0040 05       		.byte	0x5
 486 0041 44000000 		.4byte	.LASF2
 487 0045 03       		.uleb128 0x3
 488 0046 C3000000 		.4byte	.LASF4
 489 004a 02       		.byte	0x2
 490 004b 39       		.byte	0x39
 491 004c 50000000 		.4byte	0x50
 492 0050 02       		.uleb128 0x2
 493 0051 02       		.byte	0x2
 494 0052 07       		.byte	0x7
 495 0053 C3010000 		.4byte	.LASF5
 496 0057 03       		.uleb128 0x3
 497 0058 F2020000 		.4byte	.LASF6
 498 005c 02       		.byte	0x2
 499 005d 4D       		.byte	0x4d
 500 005e 62000000 		.4byte	0x62
 501 0062 02       		.uleb128 0x2
 502 0063 04       		.byte	0x4
 503 0064 05       		.byte	0x5
 504 0065 F6000000 		.4byte	.LASF7
 505 0069 03       		.uleb128 0x3
 506 006a 7E000000 		.4byte	.LASF8
 507 006e 02       		.byte	0x2
 508 006f 4F       		.byte	0x4f
 509 0070 74000000 		.4byte	0x74
 510 0074 02       		.uleb128 0x2
 511 0075 04       		.byte	0x4
 512 0076 07       		.byte	0x7
 513 0077 68020000 		.4byte	.LASF9
ARM GAS  /tmp/ccj9F9Kr.s 			page 10


 514 007b 02       		.uleb128 0x2
 515 007c 08       		.byte	0x8
 516 007d 05       		.byte	0x5
 517 007e DC000000 		.4byte	.LASF10
 518 0082 03       		.uleb128 0x3
 519 0083 3E020000 		.4byte	.LASF11
 520 0087 02       		.byte	0x2
 521 0088 69       		.byte	0x69
 522 0089 8D000000 		.4byte	0x8d
 523 008d 02       		.uleb128 0x2
 524 008e 08       		.byte	0x8
 525 008f 07       		.byte	0x7
 526 0090 6C010000 		.4byte	.LASF12
 527 0094 04       		.uleb128 0x4
 528 0095 04       		.byte	0x4
 529 0096 05       		.byte	0x5
 530 0097 696E7400 		.ascii	"int\000"
 531 009b 02       		.uleb128 0x2
 532 009c 04       		.byte	0x4
 533 009d 07       		.byte	0x7
 534 009e 8C010000 		.4byte	.LASF13
 535 00a2 03       		.uleb128 0x3
 536 00a3 D4000000 		.4byte	.LASF14
 537 00a7 03       		.byte	0x3
 538 00a8 18       		.byte	0x18
 539 00a9 2C000000 		.4byte	0x2c
 540 00ad 05       		.uleb128 0x5
 541 00ae A2000000 		.4byte	0xa2
 542 00b2 03       		.uleb128 0x3
 543 00b3 99010000 		.4byte	.LASF15
 544 00b7 03       		.byte	0x3
 545 00b8 24       		.byte	0x24
 546 00b9 45000000 		.4byte	0x45
 547 00bd 03       		.uleb128 0x3
 548 00be 1B020000 		.4byte	.LASF16
 549 00c2 03       		.byte	0x3
 550 00c3 2C       		.byte	0x2c
 551 00c4 57000000 		.4byte	0x57
 552 00c8 05       		.uleb128 0x5
 553 00c9 BD000000 		.4byte	0xbd
 554 00cd 03       		.uleb128 0x3
 555 00ce 83010000 		.4byte	.LASF17
 556 00d2 03       		.byte	0x3
 557 00d3 30       		.byte	0x30
 558 00d4 69000000 		.4byte	0x69
 559 00d8 03       		.uleb128 0x3
 560 00d9 3B000000 		.4byte	.LASF18
 561 00dd 03       		.byte	0x3
 562 00de 3C       		.byte	0x3c
 563 00df 82000000 		.4byte	0x82
 564 00e3 03       		.uleb128 0x3
 565 00e4 57020000 		.4byte	.LASF19
 566 00e8 04       		.byte	0x4
 567 00e9 99       		.byte	0x99
 568 00ea F3000000 		.4byte	0xf3
 569 00ee 05       		.uleb128 0x5
 570 00ef E3000000 		.4byte	0xe3
ARM GAS  /tmp/ccj9F9Kr.s 			page 11


 571 00f3 06       		.uleb128 0x6
 572 00f4 57020000 		.4byte	.LASF19
 573 00f8 20       		.byte	0x20
 574 00f9 04       		.byte	0x4
 575 00fa 0F01     		.2byte	0x10f
 576 00fc 83010000 		.4byte	0x183
 577 0100 07       		.uleb128 0x7
 578 0101 24010000 		.4byte	.LASF20
 579 0105 04       		.byte	0x4
 580 0106 1401     		.2byte	0x114
 581 0108 D8000000 		.4byte	0xd8
 582 010c 00       		.byte	0
 583 010d 07       		.uleb128 0x7
 584 010e 31020000 		.4byte	.LASF21
 585 0112 04       		.byte	0x4
 586 0113 2801     		.2byte	0x128
 587 0115 DE010000 		.4byte	0x1de
 588 0119 08       		.byte	0x8
 589 011a 07       		.uleb128 0x7
 590 011b 4B010000 		.4byte	.LASF22
 591 011f 04       		.byte	0x4
 592 0120 2D01     		.2byte	0x12d
 593 0122 D6010000 		.4byte	0x1d6
 594 0126 0C       		.byte	0xc
 595 0127 07       		.uleb128 0x7
 596 0128 17010000 		.4byte	.LASF23
 597 012c 04       		.byte	0x4
 598 012d 2F01     		.2byte	0x12f
 599 012f DE010000 		.4byte	0x1de
 600 0133 10       		.byte	0x10
 601 0134 07       		.uleb128 0x7
 602 0135 32030000 		.4byte	.LASF24
 603 0139 04       		.byte	0x4
 604 013a 3101     		.2byte	0x131
 605 013c B2000000 		.4byte	0xb2
 606 0140 14       		.byte	0x14
 607 0141 07       		.uleb128 0x7
 608 0142 20000000 		.4byte	.LASF25
 609 0146 04       		.byte	0x4
 610 0147 3601     		.2byte	0x136
 611 0149 B2000000 		.4byte	0xb2
 612 014d 16       		.byte	0x16
 613 014e 07       		.uleb128 0x7
 614 014f 23020000 		.4byte	.LASF26
 615 0153 04       		.byte	0x4
 616 0154 3701     		.2byte	0x137
 617 0156 A2000000 		.4byte	0xa2
 618 015a 18       		.byte	0x18
 619 015b 07       		.uleb128 0x7
 620 015c 3E030000 		.4byte	.LASF27
 621 0160 04       		.byte	0x4
 622 0161 3801     		.2byte	0x138
 623 0163 A2000000 		.4byte	0xa2
 624 0167 19       		.byte	0x19
 625 0168 07       		.uleb128 0x7
 626 0169 32000000 		.4byte	.LASF28
 627 016d 04       		.byte	0x4
ARM GAS  /tmp/ccj9F9Kr.s 			page 12


 628 016e 3901     		.2byte	0x139
 629 0170 A2000000 		.4byte	0xa2
 630 0174 1A       		.byte	0x1a
 631 0175 07       		.uleb128 0x7
 632 0176 B4010000 		.4byte	.LASF29
 633 017a 04       		.byte	0x4
 634 017b 3A01     		.2byte	0x13a
 635 017d A2000000 		.4byte	0xa2
 636 0181 1B       		.byte	0x1b
 637 0182 00       		.byte	0
 638 0183 02       		.uleb128 0x2
 639 0184 01       		.byte	0x1
 640 0185 02       		.byte	0x2
 641 0186 15020000 		.4byte	.LASF30
 642 018a 02       		.uleb128 0x2
 643 018b 01       		.byte	0x1
 644 018c 08       		.byte	0x8
 645 018d 10020000 		.4byte	.LASF31
 646 0191 08       		.uleb128 0x8
 647 0192 A2010000 		.4byte	.LASF32
 648 0196 04       		.byte	0x4
 649 0197 04       		.byte	0x4
 650 0198 D7       		.byte	0xd7
 651 0199 B6010000 		.4byte	0x1b6
 652 019d 09       		.uleb128 0x9
 653 019e 65030000 		.4byte	.LASF33
 654 01a2 04       		.byte	0x4
 655 01a3 D9       		.byte	0xd9
 656 01a4 B6010000 		.4byte	0x1b6
 657 01a8 00       		.byte	0
 658 01a9 09       		.uleb128 0x9
 659 01aa 49020000 		.4byte	.LASF34
 660 01ae 04       		.byte	0x4
 661 01af DA       		.byte	0xda
 662 01b0 BC010000 		.4byte	0x1bc
 663 01b4 04       		.byte	0x4
 664 01b5 00       		.byte	0
 665 01b6 0A       		.uleb128 0xa
 666 01b7 04       		.byte	0x4
 667 01b8 91010000 		.4byte	0x191
 668 01bc 0B       		.uleb128 0xb
 669 01bd A2000000 		.4byte	0xa2
 670 01c1 CB010000 		.4byte	0x1cb
 671 01c5 0C       		.uleb128 0xc
 672 01c6 9B000000 		.4byte	0x9b
 673 01ca 00       		.byte	0
 674 01cb 03       		.uleb128 0x3
 675 01cc A2010000 		.4byte	.LASF32
 676 01d0 04       		.byte	0x4
 677 01d1 DB       		.byte	0xdb
 678 01d2 91010000 		.4byte	0x191
 679 01d6 0A       		.uleb128 0xa
 680 01d7 04       		.byte	0x4
 681 01d8 CB010000 		.4byte	0x1cb
 682 01dc 0D       		.uleb128 0xd
 683 01dd 04       		.byte	0x4
 684 01de 0A       		.uleb128 0xa
ARM GAS  /tmp/ccj9F9Kr.s 			page 13


 685 01df 04       		.byte	0x4
 686 01e0 AD000000 		.4byte	0xad
 687 01e4 0E       		.uleb128 0xe
 688 01e5 08       		.byte	0x8
 689 01e6 05       		.byte	0x5
 690 01e7 46       		.byte	0x46
 691 01e8 05020000 		.4byte	0x205
 692 01ec 0F       		.uleb128 0xf
 693 01ed 6C656E00 		.ascii	"len\000"
 694 01f1 05       		.byte	0x5
 695 01f2 48       		.byte	0x48
 696 01f3 A2000000 		.4byte	0xa2
 697 01f7 00       		.byte	0
 698 01f8 09       		.uleb128 0x9
 699 01f9 49020000 		.4byte	.LASF34
 700 01fd 05       		.byte	0x5
 701 01fe 49       		.byte	0x49
 702 01ff 05020000 		.4byte	0x205
 703 0203 04       		.byte	0x4
 704 0204 00       		.byte	0
 705 0205 0A       		.uleb128 0xa
 706 0206 04       		.byte	0x4
 707 0207 A2000000 		.4byte	0xa2
 708 020b 0E       		.uleb128 0xe
 709 020c 1C       		.byte	0x1c
 710 020d 05       		.byte	0x5
 711 020e 40       		.byte	0x40
 712 020f 44020000 		.4byte	0x244
 713 0213 09       		.uleb128 0x9
 714 0214 CE000000 		.4byte	.LASF35
 715 0218 05       		.byte	0x5
 716 0219 43       		.byte	0x43
 717 021a A2000000 		.4byte	0xa2
 718 021e 00       		.byte	0
 719 021f 09       		.uleb128 0x9
 720 0220 FC020000 		.4byte	.LASF36
 721 0224 05       		.byte	0x5
 722 0225 44       		.byte	0x44
 723 0226 A2000000 		.4byte	0xa2
 724 022a 01       		.byte	0x1
 725 022b 09       		.uleb128 0x9
 726 022c 33010000 		.4byte	.LASF37
 727 0230 05       		.byte	0x5
 728 0231 45       		.byte	0x45
 729 0232 44020000 		.4byte	0x244
 730 0236 02       		.byte	0x2
 731 0237 09       		.uleb128 0x9
 732 0238 D6020000 		.4byte	.LASF38
 733 023c 05       		.byte	0x5
 734 023d 4A       		.byte	0x4a
 735 023e E4010000 		.4byte	0x1e4
 736 0242 14       		.byte	0x14
 737 0243 00       		.byte	0
 738 0244 0B       		.uleb128 0xb
 739 0245 A2000000 		.4byte	0xa2
 740 0249 54020000 		.4byte	0x254
 741 024d 10       		.uleb128 0x10
ARM GAS  /tmp/ccj9F9Kr.s 			page 14


 742 024e 9B000000 		.4byte	0x9b
 743 0252 0F       		.byte	0xf
 744 0253 00       		.byte	0
 745 0254 03       		.uleb128 0x3
 746 0255 00000000 		.4byte	.LASF39
 747 0259 05       		.byte	0x5
 748 025a 4C       		.byte	0x4c
 749 025b 0B020000 		.4byte	0x20b
 750 025f 11       		.uleb128 0x11
 751 0260 D6010000 		.4byte	.LASF44
 752 0264 01       		.byte	0x1
 753 0265 CB       		.byte	0xcb
 754 0266 BD000000 		.4byte	0xbd
 755 026a 00000000 		.4byte	.LFB3
 756 026e 1E000000 		.4byte	.LFE3-.LFB3
 757 0272 01       		.uleb128 0x1
 758 0273 9C       		.byte	0x9c
 759 0274 FC020000 		.4byte	0x2fc
 760 0278 12       		.uleb128 0x12
 761 0279 4E020000 		.4byte	.LASF40
 762 027d 01       		.byte	0x1
 763 027e CB       		.byte	0xcb
 764 027f FC020000 		.4byte	0x2fc
 765 0283 00000000 		.4byte	.LLST15
 766 0287 12       		.uleb128 0x12
 767 0288 32030000 		.4byte	.LASF24
 768 028c 01       		.byte	0x1
 769 028d CC       		.byte	0xcc
 770 028e B2000000 		.4byte	0xb2
 771 0292 21000000 		.4byte	.LLST16
 772 0296 12       		.uleb128 0x12
 773 0297 2D000000 		.4byte	.LASF41
 774 029b 01       		.byte	0x1
 775 029c CD       		.byte	0xcd
 776 029d 02030000 		.4byte	0x302
 777 02a1 42000000 		.4byte	.LLST17
 778 02a5 12       		.uleb128 0x12
 779 02a6 EA000000 		.4byte	.LASF42
 780 02aa 01       		.byte	0x1
 781 02ab CE       		.byte	0xce
 782 02ac 08030000 		.4byte	0x308
 783 02b0 62000000 		.4byte	.LLST18
 784 02b4 13       		.uleb128 0x13
 785 02b5 FF000000 		.4byte	.LASF43
 786 02b9 01       		.byte	0x1
 787 02ba D0       		.byte	0xd0
 788 02bb C8000000 		.4byte	0xc8
 789 02bf 00       		.byte	0
 790 02c0 14       		.uleb128 0x14
 791 02c1 72657400 		.ascii	"ret\000"
 792 02c5 01       		.byte	0x1
 793 02c6 D1       		.byte	0xd1
 794 02c7 BD000000 		.4byte	0xbd
 795 02cb 83000000 		.4byte	.LLST19
 796 02cf 15       		.uleb128 0x15
 797 02d0 0A000000 		.4byte	.LBB2
 798 02d4 0A000000 		.4byte	.LBE2-.LBB2
ARM GAS  /tmp/ccj9F9Kr.s 			page 15


 799 02d8 EA020000 		.4byte	0x2ea
 800 02dc 14       		.uleb128 0x14
 801 02dd 6300     		.ascii	"c\000"
 802 02df 01       		.byte	0x1
 803 02e0 D4       		.byte	0xd4
 804 02e1 CD000000 		.4byte	0xcd
 805 02e5 A2000000 		.4byte	.LLST20
 806 02e9 00       		.byte	0
 807 02ea 16       		.uleb128 0x16
 808 02eb 1A000000 		.4byte	.LVL63
 809 02ef 0E030000 		.4byte	0x30e
 810 02f3 17       		.uleb128 0x17
 811 02f4 02       		.uleb128 0x2
 812 02f5 7D       		.byte	0x7d
 813 02f6 00       		.sleb128 0
 814 02f7 02       		.uleb128 0x2
 815 02f8 75       		.byte	0x75
 816 02f9 00       		.sleb128 0
 817 02fa 00       		.byte	0
 818 02fb 00       		.byte	0
 819 02fc 0A       		.uleb128 0xa
 820 02fd 04       		.byte	0x4
 821 02fe EE000000 		.4byte	0xee
 822 0302 0A       		.uleb128 0xa
 823 0303 04       		.byte	0x4
 824 0304 54020000 		.4byte	0x254
 825 0308 0A       		.uleb128 0xa
 826 0309 04       		.byte	0x4
 827 030a 05020000 		.4byte	0x205
 828 030e 11       		.uleb128 0x11
 829 030f 02030000 		.4byte	.LASF45
 830 0313 01       		.byte	0x1
 831 0314 64       		.byte	0x64
 832 0315 BD000000 		.4byte	0xbd
 833 0319 00000000 		.4byte	.LFB2
 834 031d FC000000 		.4byte	.LFE2-.LFB2
 835 0321 01       		.uleb128 0x1
 836 0322 9C       		.byte	0x9c
 837 0323 6E040000 		.4byte	0x46e
 838 0327 12       		.uleb128 0x12
 839 0328 4E020000 		.4byte	.LASF40
 840 032c 01       		.byte	0x1
 841 032d 65       		.byte	0x65
 842 032e FC020000 		.4byte	0x2fc
 843 0332 B6000000 		.4byte	.LLST8
 844 0336 12       		.uleb128 0x12
 845 0337 32030000 		.4byte	.LASF24
 846 033b 01       		.byte	0x1
 847 033c 66       		.byte	0x66
 848 033d B2000000 		.4byte	0xb2
 849 0341 EA000000 		.4byte	.LLST9
 850 0345 12       		.uleb128 0x12
 851 0346 2D000000 		.4byte	.LASF41
 852 034a 01       		.byte	0x1
 853 034b 67       		.byte	0x67
 854 034c 02030000 		.4byte	0x302
 855 0350 0B010000 		.4byte	.LLST10
ARM GAS  /tmp/ccj9F9Kr.s 			page 16


 856 0354 12       		.uleb128 0x12
 857 0355 EA000000 		.4byte	.LASF42
 858 0359 01       		.byte	0x1
 859 035a 68       		.byte	0x68
 860 035b 08030000 		.4byte	0x308
 861 035f 29010000 		.4byte	.LLST11
 862 0363 12       		.uleb128 0x12
 863 0364 FF000000 		.4byte	.LASF43
 864 0368 01       		.byte	0x1
 865 0369 69       		.byte	0x69
 866 036a BD000000 		.4byte	0xbd
 867 036e 47010000 		.4byte	.LLST12
 868 0372 14       		.uleb128 0x14
 869 0373 72657400 		.ascii	"ret\000"
 870 0377 01       		.byte	0x1
 871 0378 6B       		.byte	0x6b
 872 0379 BD000000 		.4byte	0xbd
 873 037d 05020000 		.4byte	.LLST13
 874 0381 14       		.uleb128 0x14
 875 0382 6300     		.ascii	"c\000"
 876 0384 01       		.byte	0x1
 877 0385 6C       		.byte	0x6c
 878 0386 CD000000 		.4byte	0xcd
 879 038a 71020000 		.4byte	.LLST14
 880 038e 18       		.uleb128 0x18
 881 038f A1020000 		.4byte	.LASF56
 882 0393 01       		.byte	0x1
 883 0394 B6       		.byte	0xb6
 884 0395 20000000 		.4byte	.L17
 885 0399 19       		.uleb128 0x19
 886 039a 1A000000 		.4byte	.LVL29
 887 039e E9050000 		.4byte	0x5e9
 888 03a2 C5030000 		.4byte	0x3c5
 889 03a6 17       		.uleb128 0x17
 890 03a7 01       		.uleb128 0x1
 891 03a8 50       		.byte	0x50
 892 03a9 02       		.uleb128 0x2
 893 03aa 77       		.byte	0x77
 894 03ab 00       		.sleb128 0
 895 03ac 17       		.uleb128 0x17
 896 03ad 01       		.uleb128 0x1
 897 03ae 51       		.byte	0x51
 898 03af 03       		.uleb128 0x3
 899 03b0 91       		.byte	0x91
 900 03b1 00       		.sleb128 0
 901 03b2 06       		.byte	0x6
 902 03b3 17       		.uleb128 0x17
 903 03b4 01       		.uleb128 0x1
 904 03b5 52       		.byte	0x52
 905 03b6 01       		.uleb128 0x1
 906 03b7 38       		.byte	0x38
 907 03b8 17       		.uleb128 0x17
 908 03b9 01       		.uleb128 0x1
 909 03ba 53       		.byte	0x53
 910 03bb 01       		.uleb128 0x1
 911 03bc 30       		.byte	0x30
 912 03bd 17       		.uleb128 0x17
ARM GAS  /tmp/ccj9F9Kr.s 			page 17


 913 03be 02       		.uleb128 0x2
 914 03bf 7D       		.byte	0x7d
 915 03c0 00       		.sleb128 0
 916 03c1 02       		.uleb128 0x2
 917 03c2 76       		.byte	0x76
 918 03c3 00       		.sleb128 0
 919 03c4 00       		.byte	0
 920 03c5 19       		.uleb128 0x19
 921 03c6 42000000 		.4byte	.LVL36
 922 03ca E9050000 		.4byte	0x5e9
 923 03ce F4030000 		.4byte	0x3f4
 924 03d2 17       		.uleb128 0x17
 925 03d3 01       		.uleb128 0x1
 926 03d4 50       		.byte	0x50
 927 03d5 02       		.uleb128 0x2
 928 03d6 77       		.byte	0x77
 929 03d7 00       		.sleb128 0
 930 03d8 17       		.uleb128 0x17
 931 03d9 01       		.uleb128 0x1
 932 03da 51       		.byte	0x51
 933 03db 05       		.uleb128 0x5
 934 03dc 91       		.byte	0x91
 935 03dd 00       		.sleb128 0
 936 03de 06       		.byte	0x6
 937 03df 23       		.byte	0x23
 938 03e0 08       		.uleb128 0x8
 939 03e1 17       		.uleb128 0x17
 940 03e2 01       		.uleb128 0x1
 941 03e3 52       		.byte	0x52
 942 03e4 02       		.uleb128 0x2
 943 03e5 74       		.byte	0x74
 944 03e6 00       		.sleb128 0
 945 03e7 17       		.uleb128 0x17
 946 03e8 01       		.uleb128 0x1
 947 03e9 53       		.byte	0x53
 948 03ea 01       		.uleb128 0x1
 949 03eb 30       		.byte	0x30
 950 03ec 17       		.uleb128 0x17
 951 03ed 02       		.uleb128 0x2
 952 03ee 7D       		.byte	0x7d
 953 03ef 00       		.sleb128 0
 954 03f0 02       		.uleb128 0x2
 955 03f1 76       		.byte	0x76
 956 03f2 01       		.sleb128 1
 957 03f3 00       		.byte	0
 958 03f4 19       		.uleb128 0x19
 959 03f5 6A000000 		.4byte	.LVL42
 960 03f9 E9050000 		.4byte	0x5e9
 961 03fd 1F040000 		.4byte	0x41f
 962 0401 17       		.uleb128 0x17
 963 0402 01       		.uleb128 0x1
 964 0403 50       		.byte	0x50
 965 0404 02       		.uleb128 0x2
 966 0405 77       		.byte	0x77
 967 0406 00       		.sleb128 0
 968 0407 17       		.uleb128 0x17
 969 0408 01       		.uleb128 0x1
ARM GAS  /tmp/ccj9F9Kr.s 			page 18


 970 0409 51       		.byte	0x51
 971 040a 02       		.uleb128 0x2
 972 040b 7A       		.byte	0x7a
 973 040c 00       		.sleb128 0
 974 040d 17       		.uleb128 0x17
 975 040e 01       		.uleb128 0x1
 976 040f 52       		.byte	0x52
 977 0410 01       		.uleb128 0x1
 978 0411 38       		.byte	0x38
 979 0412 17       		.uleb128 0x17
 980 0413 01       		.uleb128 0x1
 981 0414 53       		.byte	0x53
 982 0415 01       		.uleb128 0x1
 983 0416 30       		.byte	0x30
 984 0417 17       		.uleb128 0x17
 985 0418 02       		.uleb128 0x2
 986 0419 7D       		.byte	0x7d
 987 041a 00       		.sleb128 0
 988 041b 02       		.uleb128 0x2
 989 041c 78       		.byte	0x78
 990 041d 00       		.sleb128 0
 991 041e 00       		.byte	0
 992 041f 19       		.uleb128 0x19
 993 0420 D4000000 		.4byte	.LVL53
 994 0424 E9050000 		.4byte	0x5e9
 995 0428 4A040000 		.4byte	0x44a
 996 042c 17       		.uleb128 0x17
 997 042d 01       		.uleb128 0x1
 998 042e 50       		.byte	0x50
 999 042f 02       		.uleb128 0x2
 1000 0430 77       		.byte	0x77
 1001 0431 00       		.sleb128 0
 1002 0432 17       		.uleb128 0x17
 1003 0433 01       		.uleb128 0x1
 1004 0434 51       		.byte	0x51
 1005 0435 02       		.uleb128 0x2
 1006 0436 74       		.byte	0x74
 1007 0437 78       		.sleb128 -8
 1008 0438 17       		.uleb128 0x17
 1009 0439 01       		.uleb128 0x1
 1010 043a 52       		.byte	0x52
 1011 043b 01       		.uleb128 0x1
 1012 043c 38       		.byte	0x38
 1013 043d 17       		.uleb128 0x17
 1014 043e 01       		.uleb128 0x1
 1015 043f 53       		.byte	0x53
 1016 0440 01       		.uleb128 0x1
 1017 0441 30       		.byte	0x30
 1018 0442 17       		.uleb128 0x17
 1019 0443 02       		.uleb128 0x2
 1020 0444 7D       		.byte	0x7d
 1021 0445 00       		.sleb128 0
 1022 0446 02       		.uleb128 0x2
 1023 0447 75       		.byte	0x75
 1024 0448 00       		.sleb128 0
 1025 0449 00       		.byte	0
 1026 044a 16       		.uleb128 0x16
ARM GAS  /tmp/ccj9F9Kr.s 			page 19


 1027 044b EE000000 		.4byte	.LVL58
 1028 044f E9050000 		.4byte	0x5e9
 1029 0453 17       		.uleb128 0x17
 1030 0454 01       		.uleb128 0x1
 1031 0455 50       		.byte	0x50
 1032 0456 02       		.uleb128 0x2
 1033 0457 77       		.byte	0x77
 1034 0458 00       		.sleb128 0
 1035 0459 17       		.uleb128 0x17
 1036 045a 01       		.uleb128 0x1
 1037 045b 51       		.byte	0x51
 1038 045c 02       		.uleb128 0x2
 1039 045d 75       		.byte	0x75
 1040 045e 00       		.sleb128 0
 1041 045f 17       		.uleb128 0x17
 1042 0460 01       		.uleb128 0x1
 1043 0461 53       		.byte	0x53
 1044 0462 02       		.uleb128 0x2
 1045 0463 7B       		.byte	0x7b
 1046 0464 00       		.sleb128 0
 1047 0465 17       		.uleb128 0x17
 1048 0466 02       		.uleb128 0x2
 1049 0467 7D       		.byte	0x7d
 1050 0468 00       		.sleb128 0
 1051 0469 02       		.uleb128 0x2
 1052 046a 74       		.byte	0x74
 1053 046b 00       		.sleb128 0
 1054 046c 00       		.byte	0
 1055 046d 00       		.byte	0
 1056 046e 11       		.uleb128 0x11
 1057 046f 7A020000 		.4byte	.LASF46
 1058 0473 01       		.byte	0x1
 1059 0474 50       		.byte	0x50
 1060 0475 CD000000 		.4byte	0xcd
 1061 0479 00000000 		.4byte	.LFB1
 1062 047d 10000000 		.4byte	.LFE1-.LFB1
 1063 0481 01       		.uleb128 0x1
 1064 0482 9C       		.byte	0x9c
 1065 0483 D7040000 		.4byte	0x4d7
 1066 0487 12       		.uleb128 0x12
 1067 0488 10010000 		.4byte	.LASF47
 1068 048c 01       		.byte	0x1
 1069 048d 50       		.byte	0x50
 1070 048e 02030000 		.4byte	0x302
 1071 0492 E6020000 		.4byte	.LLST5
 1072 0496 12       		.uleb128 0x12
 1073 0497 5D030000 		.4byte	.LASF48
 1074 049b 01       		.byte	0x1
 1075 049c 50       		.byte	0x50
 1076 049d DC010000 		.4byte	0x1dc
 1077 04a1 07030000 		.4byte	.LLST6
 1078 04a5 1A       		.uleb128 0x1a
 1079 04a6 FF000000 		.4byte	.LASF43
 1080 04aa 01       		.byte	0x1
 1081 04ab 52       		.byte	0x52
 1082 04ac CD000000 		.4byte	0xcd
 1083 04b0 28030000 		.4byte	.LLST7
ARM GAS  /tmp/ccj9F9Kr.s 			page 20


 1084 04b4 16       		.uleb128 0x16
 1085 04b5 0A000000 		.4byte	.LVL22
 1086 04b9 D7040000 		.4byte	0x4d7
 1087 04bd 17       		.uleb128 0x17
 1088 04be 01       		.uleb128 0x1
 1089 04bf 50       		.byte	0x50
 1090 04c0 03       		.uleb128 0x3
 1091 04c1 F3       		.byte	0xf3
 1092 04c2 01       		.uleb128 0x1
 1093 04c3 50       		.byte	0x50
 1094 04c4 17       		.uleb128 0x17
 1095 04c5 01       		.uleb128 0x1
 1096 04c6 51       		.byte	0x51
 1097 04c7 03       		.uleb128 0x3
 1098 04c8 F3       		.byte	0xf3
 1099 04c9 01       		.uleb128 0x1
 1100 04ca 51       		.byte	0x51
 1101 04cb 17       		.uleb128 0x17
 1102 04cc 01       		.uleb128 0x1
 1103 04cd 52       		.byte	0x52
 1104 04ce 01       		.uleb128 0x1
 1105 04cf 30       		.byte	0x30
 1106 04d0 17       		.uleb128 0x17
 1107 04d1 01       		.uleb128 0x1
 1108 04d2 53       		.byte	0x53
 1109 04d3 01       		.uleb128 0x1
 1110 04d4 31       		.byte	0x31
 1111 04d5 00       		.byte	0
 1112 04d6 00       		.byte	0
 1113 04d7 11       		.uleb128 0x11
 1114 04d8 4E000000 		.4byte	.LASF49
 1115 04dc 01       		.byte	0x1
 1116 04dd 21       		.byte	0x21
 1117 04de CD000000 		.4byte	0xcd
 1118 04e2 00000000 		.4byte	.LFB0
 1119 04e6 90000000 		.4byte	.LFE0-.LFB0
 1120 04ea 01       		.uleb128 0x1
 1121 04eb 9C       		.byte	0x9c
 1122 04ec E9050000 		.4byte	0x5e9
 1123 04f0 12       		.uleb128 0x12
 1124 04f1 10010000 		.4byte	.LASF47
 1125 04f5 01       		.byte	0x1
 1126 04f6 21       		.byte	0x21
 1127 04f7 02030000 		.4byte	0x302
 1128 04fb 54030000 		.4byte	.LLST0
 1129 04ff 12       		.uleb128 0x12
 1130 0500 5D030000 		.4byte	.LASF48
 1131 0504 01       		.byte	0x1
 1132 0505 22       		.byte	0x22
 1133 0506 DC010000 		.4byte	0x1dc
 1134 050a 7D030000 		.4byte	.LLST1
 1135 050e 12       		.uleb128 0x12
 1136 050f FF000000 		.4byte	.LASF43
 1137 0513 01       		.byte	0x1
 1138 0514 23       		.byte	0x23
 1139 0515 CD000000 		.4byte	0xcd
 1140 0519 9B030000 		.4byte	.LLST2
ARM GAS  /tmp/ccj9F9Kr.s 			page 21


 1141 051d 12       		.uleb128 0x12
 1142 051e CC020000 		.4byte	.LASF50
 1143 0522 01       		.byte	0x1
 1144 0523 24       		.byte	0x24
 1145 0524 A2000000 		.4byte	0xa2
 1146 0528 38040000 		.4byte	.LLST3
 1147 052c 14       		.uleb128 0x14
 1148 052d 6300     		.ascii	"c\000"
 1149 052f 01       		.byte	0x1
 1150 0530 26       		.byte	0x26
 1151 0531 CD000000 		.4byte	0xcd
 1152 0535 59040000 		.4byte	.LLST4
 1153 0539 19       		.uleb128 0x19
 1154 053a 18000000 		.4byte	.LVL5
 1155 053e F5050000 		.4byte	0x5f5
 1156 0542 5E050000 		.4byte	0x55e
 1157 0546 17       		.uleb128 0x17
 1158 0547 01       		.uleb128 0x1
 1159 0548 50       		.byte	0x50
 1160 0549 02       		.uleb128 0x2
 1161 054a 77       		.byte	0x77
 1162 054b 00       		.sleb128 0
 1163 054c 17       		.uleb128 0x17
 1164 054d 01       		.uleb128 0x1
 1165 054e 51       		.byte	0x51
 1166 054f 02       		.uleb128 0x2
 1167 0550 79       		.byte	0x79
 1168 0551 00       		.sleb128 0
 1169 0552 17       		.uleb128 0x17
 1170 0553 01       		.uleb128 0x1
 1171 0554 52       		.byte	0x52
 1172 0555 01       		.uleb128 0x1
 1173 0556 38       		.byte	0x38
 1174 0557 17       		.uleb128 0x17
 1175 0558 01       		.uleb128 0x1
 1176 0559 53       		.byte	0x53
 1177 055a 02       		.uleb128 0x2
 1178 055b 78       		.byte	0x78
 1179 055c 00       		.sleb128 0
 1180 055d 00       		.byte	0
 1181 055e 19       		.uleb128 0x19
 1182 055f 28000000 		.4byte	.LVL7
 1183 0563 F5050000 		.4byte	0x5f5
 1184 0567 83050000 		.4byte	0x583
 1185 056b 17       		.uleb128 0x17
 1186 056c 01       		.uleb128 0x1
 1187 056d 50       		.byte	0x50
 1188 056e 02       		.uleb128 0x2
 1189 056f 77       		.byte	0x77
 1190 0570 00       		.sleb128 0
 1191 0571 17       		.uleb128 0x17
 1192 0572 01       		.uleb128 0x1
 1193 0573 51       		.byte	0x51
 1194 0574 02       		.uleb128 0x2
 1195 0575 79       		.byte	0x79
 1196 0576 08       		.sleb128 8
 1197 0577 17       		.uleb128 0x17
ARM GAS  /tmp/ccj9F9Kr.s 			page 22


 1198 0578 01       		.uleb128 0x1
 1199 0579 52       		.byte	0x52
 1200 057a 01       		.uleb128 0x1
 1201 057b 38       		.byte	0x38
 1202 057c 17       		.uleb128 0x17
 1203 057d 01       		.uleb128 0x1
 1204 057e 53       		.byte	0x53
 1205 057f 02       		.uleb128 0x2
 1206 0580 78       		.byte	0x78
 1207 0581 01       		.sleb128 1
 1208 0582 00       		.byte	0
 1209 0583 19       		.uleb128 0x19
 1210 0584 42000000 		.4byte	.LVL11
 1211 0588 F5050000 		.4byte	0x5f5
 1212 058c A8050000 		.4byte	0x5a8
 1213 0590 17       		.uleb128 0x17
 1214 0591 01       		.uleb128 0x1
 1215 0592 50       		.byte	0x50
 1216 0593 02       		.uleb128 0x2
 1217 0594 77       		.byte	0x77
 1218 0595 00       		.sleb128 0
 1219 0596 17       		.uleb128 0x17
 1220 0597 01       		.uleb128 0x1
 1221 0598 51       		.byte	0x51
 1222 0599 02       		.uleb128 0x2
 1223 059a 74       		.byte	0x74
 1224 059b 78       		.sleb128 -8
 1225 059c 17       		.uleb128 0x17
 1226 059d 01       		.uleb128 0x1
 1227 059e 52       		.byte	0x52
 1228 059f 01       		.uleb128 0x1
 1229 05a0 38       		.byte	0x38
 1230 05a1 17       		.uleb128 0x17
 1231 05a2 01       		.uleb128 0x1
 1232 05a3 53       		.byte	0x53
 1233 05a4 02       		.uleb128 0x2
 1234 05a5 75       		.byte	0x75
 1235 05a6 00       		.sleb128 0
 1236 05a7 00       		.byte	0
 1237 05a8 19       		.uleb128 0x19
 1238 05a9 68000000 		.4byte	.LVL14
 1239 05ad F5050000 		.4byte	0x5f5
 1240 05b1 C7050000 		.4byte	0x5c7
 1241 05b5 17       		.uleb128 0x17
 1242 05b6 01       		.uleb128 0x1
 1243 05b7 50       		.byte	0x50
 1244 05b8 02       		.uleb128 0x2
 1245 05b9 77       		.byte	0x77
 1246 05ba 00       		.sleb128 0
 1247 05bb 17       		.uleb128 0x17
 1248 05bc 01       		.uleb128 0x1
 1249 05bd 51       		.byte	0x51
 1250 05be 02       		.uleb128 0x2
 1251 05bf 76       		.byte	0x76
 1252 05c0 00       		.sleb128 0
 1253 05c1 17       		.uleb128 0x17
 1254 05c2 01       		.uleb128 0x1
ARM GAS  /tmp/ccj9F9Kr.s 			page 23


 1255 05c3 52       		.byte	0x52
 1256 05c4 01       		.uleb128 0x1
 1257 05c5 38       		.byte	0x38
 1258 05c6 00       		.byte	0
 1259 05c7 16       		.uleb128 0x16
 1260 05c8 8A000000 		.4byte	.LVL19
 1261 05cc F5050000 		.4byte	0x5f5
 1262 05d0 17       		.uleb128 0x17
 1263 05d1 01       		.uleb128 0x1
 1264 05d2 50       		.byte	0x50
 1265 05d3 02       		.uleb128 0x2
 1266 05d4 77       		.byte	0x77
 1267 05d5 00       		.sleb128 0
 1268 05d6 17       		.uleb128 0x17
 1269 05d7 01       		.uleb128 0x1
 1270 05d8 51       		.byte	0x51
 1271 05d9 02       		.uleb128 0x2
 1272 05da 76       		.byte	0x76
 1273 05db 00       		.sleb128 0
 1274 05dc 17       		.uleb128 0x17
 1275 05dd 01       		.uleb128 0x1
 1276 05de 52       		.byte	0x52
 1277 05df 01       		.uleb128 0x1
 1278 05e0 38       		.byte	0x38
 1279 05e1 17       		.uleb128 0x17
 1280 05e2 01       		.uleb128 0x1
 1281 05e3 53       		.byte	0x53
 1282 05e4 02       		.uleb128 0x2
 1283 05e5 78       		.byte	0x78
 1284 05e6 14       		.sleb128 20
 1285 05e7 00       		.byte	0
 1286 05e8 00       		.byte	0
 1287 05e9 1B       		.uleb128 0x1b
 1288 05ea 4A030000 		.4byte	.LASF51
 1289 05ee 4A030000 		.4byte	.LASF51
 1290 05f2 04       		.byte	0x4
 1291 05f3 CD01     		.2byte	0x1cd
 1292 05f5 1B       		.uleb128 0x1b
 1293 05f6 FD010000 		.4byte	.LASF52
 1294 05fa FD010000 		.4byte	.LASF52
 1295 05fe 04       		.byte	0x4
 1296 05ff E701     		.2byte	0x1e7
 1297 0601 00       		.byte	0
 1298              		.section	.debug_abbrev,"",%progbits
 1299              	.Ldebug_abbrev0:
 1300 0000 01       		.uleb128 0x1
 1301 0001 11       		.uleb128 0x11
 1302 0002 01       		.byte	0x1
 1303 0003 25       		.uleb128 0x25
 1304 0004 0E       		.uleb128 0xe
 1305 0005 13       		.uleb128 0x13
 1306 0006 0B       		.uleb128 0xb
 1307 0007 03       		.uleb128 0x3
 1308 0008 0E       		.uleb128 0xe
 1309 0009 1B       		.uleb128 0x1b
 1310 000a 0E       		.uleb128 0xe
 1311 000b 55       		.uleb128 0x55
ARM GAS  /tmp/ccj9F9Kr.s 			page 24


 1312 000c 17       		.uleb128 0x17
 1313 000d 11       		.uleb128 0x11
 1314 000e 01       		.uleb128 0x1
 1315 000f 10       		.uleb128 0x10
 1316 0010 17       		.uleb128 0x17
 1317 0011 00       		.byte	0
 1318 0012 00       		.byte	0
 1319 0013 02       		.uleb128 0x2
 1320 0014 24       		.uleb128 0x24
 1321 0015 00       		.byte	0
 1322 0016 0B       		.uleb128 0xb
 1323 0017 0B       		.uleb128 0xb
 1324 0018 3E       		.uleb128 0x3e
 1325 0019 0B       		.uleb128 0xb
 1326 001a 03       		.uleb128 0x3
 1327 001b 0E       		.uleb128 0xe
 1328 001c 00       		.byte	0
 1329 001d 00       		.byte	0
 1330 001e 03       		.uleb128 0x3
 1331 001f 16       		.uleb128 0x16
 1332 0020 00       		.byte	0
 1333 0021 03       		.uleb128 0x3
 1334 0022 0E       		.uleb128 0xe
 1335 0023 3A       		.uleb128 0x3a
 1336 0024 0B       		.uleb128 0xb
 1337 0025 3B       		.uleb128 0x3b
 1338 0026 0B       		.uleb128 0xb
 1339 0027 49       		.uleb128 0x49
 1340 0028 13       		.uleb128 0x13
 1341 0029 00       		.byte	0
 1342 002a 00       		.byte	0
 1343 002b 04       		.uleb128 0x4
 1344 002c 24       		.uleb128 0x24
 1345 002d 00       		.byte	0
 1346 002e 0B       		.uleb128 0xb
 1347 002f 0B       		.uleb128 0xb
 1348 0030 3E       		.uleb128 0x3e
 1349 0031 0B       		.uleb128 0xb
 1350 0032 03       		.uleb128 0x3
 1351 0033 08       		.uleb128 0x8
 1352 0034 00       		.byte	0
 1353 0035 00       		.byte	0
 1354 0036 05       		.uleb128 0x5
 1355 0037 26       		.uleb128 0x26
 1356 0038 00       		.byte	0
 1357 0039 49       		.uleb128 0x49
 1358 003a 13       		.uleb128 0x13
 1359 003b 00       		.byte	0
 1360 003c 00       		.byte	0
 1361 003d 06       		.uleb128 0x6
 1362 003e 13       		.uleb128 0x13
 1363 003f 01       		.byte	0x1
 1364 0040 03       		.uleb128 0x3
 1365 0041 0E       		.uleb128 0xe
 1366 0042 0B       		.uleb128 0xb
 1367 0043 0B       		.uleb128 0xb
 1368 0044 3A       		.uleb128 0x3a
ARM GAS  /tmp/ccj9F9Kr.s 			page 25


 1369 0045 0B       		.uleb128 0xb
 1370 0046 3B       		.uleb128 0x3b
 1371 0047 05       		.uleb128 0x5
 1372 0048 01       		.uleb128 0x1
 1373 0049 13       		.uleb128 0x13
 1374 004a 00       		.byte	0
 1375 004b 00       		.byte	0
 1376 004c 07       		.uleb128 0x7
 1377 004d 0D       		.uleb128 0xd
 1378 004e 00       		.byte	0
 1379 004f 03       		.uleb128 0x3
 1380 0050 0E       		.uleb128 0xe
 1381 0051 3A       		.uleb128 0x3a
 1382 0052 0B       		.uleb128 0xb
 1383 0053 3B       		.uleb128 0x3b
 1384 0054 05       		.uleb128 0x5
 1385 0055 49       		.uleb128 0x49
 1386 0056 13       		.uleb128 0x13
 1387 0057 38       		.uleb128 0x38
 1388 0058 0B       		.uleb128 0xb
 1389 0059 00       		.byte	0
 1390 005a 00       		.byte	0
 1391 005b 08       		.uleb128 0x8
 1392 005c 13       		.uleb128 0x13
 1393 005d 01       		.byte	0x1
 1394 005e 03       		.uleb128 0x3
 1395 005f 0E       		.uleb128 0xe
 1396 0060 0B       		.uleb128 0xb
 1397 0061 0B       		.uleb128 0xb
 1398 0062 3A       		.uleb128 0x3a
 1399 0063 0B       		.uleb128 0xb
 1400 0064 3B       		.uleb128 0x3b
 1401 0065 0B       		.uleb128 0xb
 1402 0066 01       		.uleb128 0x1
 1403 0067 13       		.uleb128 0x13
 1404 0068 00       		.byte	0
 1405 0069 00       		.byte	0
 1406 006a 09       		.uleb128 0x9
 1407 006b 0D       		.uleb128 0xd
 1408 006c 00       		.byte	0
 1409 006d 03       		.uleb128 0x3
 1410 006e 0E       		.uleb128 0xe
 1411 006f 3A       		.uleb128 0x3a
 1412 0070 0B       		.uleb128 0xb
 1413 0071 3B       		.uleb128 0x3b
 1414 0072 0B       		.uleb128 0xb
 1415 0073 49       		.uleb128 0x49
 1416 0074 13       		.uleb128 0x13
 1417 0075 38       		.uleb128 0x38
 1418 0076 0B       		.uleb128 0xb
 1419 0077 00       		.byte	0
 1420 0078 00       		.byte	0
 1421 0079 0A       		.uleb128 0xa
 1422 007a 0F       		.uleb128 0xf
 1423 007b 00       		.byte	0
 1424 007c 0B       		.uleb128 0xb
 1425 007d 0B       		.uleb128 0xb
ARM GAS  /tmp/ccj9F9Kr.s 			page 26


 1426 007e 49       		.uleb128 0x49
 1427 007f 13       		.uleb128 0x13
 1428 0080 00       		.byte	0
 1429 0081 00       		.byte	0
 1430 0082 0B       		.uleb128 0xb
 1431 0083 01       		.uleb128 0x1
 1432 0084 01       		.byte	0x1
 1433 0085 49       		.uleb128 0x49
 1434 0086 13       		.uleb128 0x13
 1435 0087 01       		.uleb128 0x1
 1436 0088 13       		.uleb128 0x13
 1437 0089 00       		.byte	0
 1438 008a 00       		.byte	0
 1439 008b 0C       		.uleb128 0xc
 1440 008c 21       		.uleb128 0x21
 1441 008d 00       		.byte	0
 1442 008e 49       		.uleb128 0x49
 1443 008f 13       		.uleb128 0x13
 1444 0090 00       		.byte	0
 1445 0091 00       		.byte	0
 1446 0092 0D       		.uleb128 0xd
 1447 0093 0F       		.uleb128 0xf
 1448 0094 00       		.byte	0
 1449 0095 0B       		.uleb128 0xb
 1450 0096 0B       		.uleb128 0xb
 1451 0097 00       		.byte	0
 1452 0098 00       		.byte	0
 1453 0099 0E       		.uleb128 0xe
 1454 009a 13       		.uleb128 0x13
 1455 009b 01       		.byte	0x1
 1456 009c 0B       		.uleb128 0xb
 1457 009d 0B       		.uleb128 0xb
 1458 009e 3A       		.uleb128 0x3a
 1459 009f 0B       		.uleb128 0xb
 1460 00a0 3B       		.uleb128 0x3b
 1461 00a1 0B       		.uleb128 0xb
 1462 00a2 01       		.uleb128 0x1
 1463 00a3 13       		.uleb128 0x13
 1464 00a4 00       		.byte	0
 1465 00a5 00       		.byte	0
 1466 00a6 0F       		.uleb128 0xf
 1467 00a7 0D       		.uleb128 0xd
 1468 00a8 00       		.byte	0
 1469 00a9 03       		.uleb128 0x3
 1470 00aa 08       		.uleb128 0x8
 1471 00ab 3A       		.uleb128 0x3a
 1472 00ac 0B       		.uleb128 0xb
 1473 00ad 3B       		.uleb128 0x3b
 1474 00ae 0B       		.uleb128 0xb
 1475 00af 49       		.uleb128 0x49
 1476 00b0 13       		.uleb128 0x13
 1477 00b1 38       		.uleb128 0x38
 1478 00b2 0B       		.uleb128 0xb
 1479 00b3 00       		.byte	0
 1480 00b4 00       		.byte	0
 1481 00b5 10       		.uleb128 0x10
 1482 00b6 21       		.uleb128 0x21
ARM GAS  /tmp/ccj9F9Kr.s 			page 27


 1483 00b7 00       		.byte	0
 1484 00b8 49       		.uleb128 0x49
 1485 00b9 13       		.uleb128 0x13
 1486 00ba 2F       		.uleb128 0x2f
 1487 00bb 0B       		.uleb128 0xb
 1488 00bc 00       		.byte	0
 1489 00bd 00       		.byte	0
 1490 00be 11       		.uleb128 0x11
 1491 00bf 2E       		.uleb128 0x2e
 1492 00c0 01       		.byte	0x1
 1493 00c1 3F       		.uleb128 0x3f
 1494 00c2 19       		.uleb128 0x19
 1495 00c3 03       		.uleb128 0x3
 1496 00c4 0E       		.uleb128 0xe
 1497 00c5 3A       		.uleb128 0x3a
 1498 00c6 0B       		.uleb128 0xb
 1499 00c7 3B       		.uleb128 0x3b
 1500 00c8 0B       		.uleb128 0xb
 1501 00c9 27       		.uleb128 0x27
 1502 00ca 19       		.uleb128 0x19
 1503 00cb 49       		.uleb128 0x49
 1504 00cc 13       		.uleb128 0x13
 1505 00cd 11       		.uleb128 0x11
 1506 00ce 01       		.uleb128 0x1
 1507 00cf 12       		.uleb128 0x12
 1508 00d0 06       		.uleb128 0x6
 1509 00d1 40       		.uleb128 0x40
 1510 00d2 18       		.uleb128 0x18
 1511 00d3 9742     		.uleb128 0x2117
 1512 00d5 19       		.uleb128 0x19
 1513 00d6 01       		.uleb128 0x1
 1514 00d7 13       		.uleb128 0x13
 1515 00d8 00       		.byte	0
 1516 00d9 00       		.byte	0
 1517 00da 12       		.uleb128 0x12
 1518 00db 05       		.uleb128 0x5
 1519 00dc 00       		.byte	0
 1520 00dd 03       		.uleb128 0x3
 1521 00de 0E       		.uleb128 0xe
 1522 00df 3A       		.uleb128 0x3a
 1523 00e0 0B       		.uleb128 0xb
 1524 00e1 3B       		.uleb128 0x3b
 1525 00e2 0B       		.uleb128 0xb
 1526 00e3 49       		.uleb128 0x49
 1527 00e4 13       		.uleb128 0x13
 1528 00e5 02       		.uleb128 0x2
 1529 00e6 17       		.uleb128 0x17
 1530 00e7 00       		.byte	0
 1531 00e8 00       		.byte	0
 1532 00e9 13       		.uleb128 0x13
 1533 00ea 34       		.uleb128 0x34
 1534 00eb 00       		.byte	0
 1535 00ec 03       		.uleb128 0x3
 1536 00ed 0E       		.uleb128 0xe
 1537 00ee 3A       		.uleb128 0x3a
 1538 00ef 0B       		.uleb128 0xb
 1539 00f0 3B       		.uleb128 0x3b
ARM GAS  /tmp/ccj9F9Kr.s 			page 28


 1540 00f1 0B       		.uleb128 0xb
 1541 00f2 49       		.uleb128 0x49
 1542 00f3 13       		.uleb128 0x13
 1543 00f4 1C       		.uleb128 0x1c
 1544 00f5 0B       		.uleb128 0xb
 1545 00f6 00       		.byte	0
 1546 00f7 00       		.byte	0
 1547 00f8 14       		.uleb128 0x14
 1548 00f9 34       		.uleb128 0x34
 1549 00fa 00       		.byte	0
 1550 00fb 03       		.uleb128 0x3
 1551 00fc 08       		.uleb128 0x8
 1552 00fd 3A       		.uleb128 0x3a
 1553 00fe 0B       		.uleb128 0xb
 1554 00ff 3B       		.uleb128 0x3b
 1555 0100 0B       		.uleb128 0xb
 1556 0101 49       		.uleb128 0x49
 1557 0102 13       		.uleb128 0x13
 1558 0103 02       		.uleb128 0x2
 1559 0104 17       		.uleb128 0x17
 1560 0105 00       		.byte	0
 1561 0106 00       		.byte	0
 1562 0107 15       		.uleb128 0x15
 1563 0108 0B       		.uleb128 0xb
 1564 0109 01       		.byte	0x1
 1565 010a 11       		.uleb128 0x11
 1566 010b 01       		.uleb128 0x1
 1567 010c 12       		.uleb128 0x12
 1568 010d 06       		.uleb128 0x6
 1569 010e 01       		.uleb128 0x1
 1570 010f 13       		.uleb128 0x13
 1571 0110 00       		.byte	0
 1572 0111 00       		.byte	0
 1573 0112 16       		.uleb128 0x16
 1574 0113 898201   		.uleb128 0x4109
 1575 0116 01       		.byte	0x1
 1576 0117 11       		.uleb128 0x11
 1577 0118 01       		.uleb128 0x1
 1578 0119 31       		.uleb128 0x31
 1579 011a 13       		.uleb128 0x13
 1580 011b 00       		.byte	0
 1581 011c 00       		.byte	0
 1582 011d 17       		.uleb128 0x17
 1583 011e 8A8201   		.uleb128 0x410a
 1584 0121 00       		.byte	0
 1585 0122 02       		.uleb128 0x2
 1586 0123 18       		.uleb128 0x18
 1587 0124 9142     		.uleb128 0x2111
 1588 0126 18       		.uleb128 0x18
 1589 0127 00       		.byte	0
 1590 0128 00       		.byte	0
 1591 0129 18       		.uleb128 0x18
 1592 012a 0A       		.uleb128 0xa
 1593 012b 00       		.byte	0
 1594 012c 03       		.uleb128 0x3
 1595 012d 0E       		.uleb128 0xe
 1596 012e 3A       		.uleb128 0x3a
ARM GAS  /tmp/ccj9F9Kr.s 			page 29


 1597 012f 0B       		.uleb128 0xb
 1598 0130 3B       		.uleb128 0x3b
 1599 0131 0B       		.uleb128 0xb
 1600 0132 11       		.uleb128 0x11
 1601 0133 01       		.uleb128 0x1
 1602 0134 00       		.byte	0
 1603 0135 00       		.byte	0
 1604 0136 19       		.uleb128 0x19
 1605 0137 898201   		.uleb128 0x4109
 1606 013a 01       		.byte	0x1
 1607 013b 11       		.uleb128 0x11
 1608 013c 01       		.uleb128 0x1
 1609 013d 31       		.uleb128 0x31
 1610 013e 13       		.uleb128 0x13
 1611 013f 01       		.uleb128 0x1
 1612 0140 13       		.uleb128 0x13
 1613 0141 00       		.byte	0
 1614 0142 00       		.byte	0
 1615 0143 1A       		.uleb128 0x1a
 1616 0144 34       		.uleb128 0x34
 1617 0145 00       		.byte	0
 1618 0146 03       		.uleb128 0x3
 1619 0147 0E       		.uleb128 0xe
 1620 0148 3A       		.uleb128 0x3a
 1621 0149 0B       		.uleb128 0xb
 1622 014a 3B       		.uleb128 0x3b
 1623 014b 0B       		.uleb128 0xb
 1624 014c 49       		.uleb128 0x49
 1625 014d 13       		.uleb128 0x13
 1626 014e 02       		.uleb128 0x2
 1627 014f 17       		.uleb128 0x17
 1628 0150 00       		.byte	0
 1629 0151 00       		.byte	0
 1630 0152 1B       		.uleb128 0x1b
 1631 0153 2E       		.uleb128 0x2e
 1632 0154 00       		.byte	0
 1633 0155 3F       		.uleb128 0x3f
 1634 0156 19       		.uleb128 0x19
 1635 0157 3C       		.uleb128 0x3c
 1636 0158 19       		.uleb128 0x19
 1637 0159 6E       		.uleb128 0x6e
 1638 015a 0E       		.uleb128 0xe
 1639 015b 03       		.uleb128 0x3
 1640 015c 0E       		.uleb128 0xe
 1641 015d 3A       		.uleb128 0x3a
 1642 015e 0B       		.uleb128 0xb
 1643 015f 3B       		.uleb128 0x3b
 1644 0160 05       		.uleb128 0x5
 1645 0161 00       		.byte	0
 1646 0162 00       		.byte	0
 1647 0163 00       		.byte	0
 1648              		.section	.debug_loc,"",%progbits
 1649              	.Ldebug_loc0:
 1650              	.LLST15:
 1651 0000 00000000 		.4byte	.LVL61
 1652 0004 19000000 		.4byte	.LVL63-1
 1653 0008 0100     		.2byte	0x1
ARM GAS  /tmp/ccj9F9Kr.s 			page 30


 1654 000a 50       		.byte	0x50
 1655 000b 19000000 		.4byte	.LVL63-1
 1656 000f 1E000000 		.4byte	.LFE3
 1657 0013 0400     		.2byte	0x4
 1658 0015 F3       		.byte	0xf3
 1659 0016 01       		.uleb128 0x1
 1660 0017 50       		.byte	0x50
 1661 0018 9F       		.byte	0x9f
 1662 0019 00000000 		.4byte	0
 1663 001d 00000000 		.4byte	0
 1664              	.LLST16:
 1665 0021 00000000 		.4byte	.LVL61
 1666 0025 19000000 		.4byte	.LVL63-1
 1667 0029 0100     		.2byte	0x1
 1668 002b 51       		.byte	0x51
 1669 002c 19000000 		.4byte	.LVL63-1
 1670 0030 1E000000 		.4byte	.LFE3
 1671 0034 0400     		.2byte	0x4
 1672 0036 F3       		.byte	0xf3
 1673 0037 01       		.uleb128 0x1
 1674 0038 51       		.byte	0x51
 1675 0039 9F       		.byte	0x9f
 1676 003a 00000000 		.4byte	0
 1677 003e 00000000 		.4byte	0
 1678              	.LLST17:
 1679 0042 00000000 		.4byte	.LVL61
 1680 0046 19000000 		.4byte	.LVL63-1
 1681 004a 0100     		.2byte	0x1
 1682 004c 52       		.byte	0x52
 1683 004d 19000000 		.4byte	.LVL63-1
 1684 0051 1E000000 		.4byte	.LFE3
 1685 0055 0300     		.2byte	0x3
 1686 0057 76       		.byte	0x76
 1687 0058 65       		.sleb128 -27
 1688 0059 9F       		.byte	0x9f
 1689 005a 00000000 		.4byte	0
 1690 005e 00000000 		.4byte	0
 1691              	.LLST18:
 1692 0062 00000000 		.4byte	.LVL61
 1693 0066 19000000 		.4byte	.LVL63-1
 1694 006a 0100     		.2byte	0x1
 1695 006c 53       		.byte	0x53
 1696 006d 19000000 		.4byte	.LVL63-1
 1697 0071 1E000000 		.4byte	.LFE3
 1698 0075 0400     		.2byte	0x4
 1699 0077 F3       		.byte	0xf3
 1700 0078 01       		.uleb128 0x1
 1701 0079 53       		.byte	0x53
 1702 007a 9F       		.byte	0x9f
 1703 007b 00000000 		.4byte	0
 1704 007f 00000000 		.4byte	0
 1705              	.LLST19:
 1706 0083 00000000 		.4byte	.LVL61
 1707 0087 1A000000 		.4byte	.LVL63
 1708 008b 0200     		.2byte	0x2
 1709 008d 30       		.byte	0x30
 1710 008e 9F       		.byte	0x9f
ARM GAS  /tmp/ccj9F9Kr.s 			page 31


 1711 008f 1A000000 		.4byte	.LVL63
 1712 0093 1E000000 		.4byte	.LFE3
 1713 0097 0100     		.2byte	0x1
 1714 0099 50       		.byte	0x50
 1715 009a 00000000 		.4byte	0
 1716 009e 00000000 		.4byte	0
 1717              	.LLST20:
 1718 00a2 00000000 		.4byte	.LVL61
 1719 00a6 0C000000 		.4byte	.LVL62
 1720 00aa 0200     		.2byte	0x2
 1721 00ac 30       		.byte	0x30
 1722 00ad 9F       		.byte	0x9f
 1723 00ae 00000000 		.4byte	0
 1724 00b2 00000000 		.4byte	0
 1725              	.LLST8:
 1726 00b6 00000000 		.4byte	.LVL25
 1727 00ba 19000000 		.4byte	.LVL29-1
 1728 00be 0100     		.2byte	0x1
 1729 00c0 50       		.byte	0x50
 1730 00c1 19000000 		.4byte	.LVL29-1
 1731 00c5 CA000000 		.4byte	.LVL52
 1732 00c9 0100     		.2byte	0x1
 1733 00cb 57       		.byte	0x57
 1734 00cc CA000000 		.4byte	.LVL52
 1735 00d0 D3000000 		.4byte	.LVL53-1
 1736 00d4 0100     		.2byte	0x1
 1737 00d6 50       		.byte	0x50
 1738 00d7 D3000000 		.4byte	.LVL53-1
 1739 00db FC000000 		.4byte	.LFE2
 1740 00df 0100     		.2byte	0x1
 1741 00e1 57       		.byte	0x57
 1742 00e2 00000000 		.4byte	0
 1743 00e6 00000000 		.4byte	0
 1744              	.LLST9:
 1745 00ea 00000000 		.4byte	.LVL25
 1746 00ee 10000000 		.4byte	.LVL26
 1747 00f2 0100     		.2byte	0x1
 1748 00f4 51       		.byte	0x51
 1749 00f5 10000000 		.4byte	.LVL26
 1750 00f9 FC000000 		.4byte	.LFE2
 1751 00fd 0400     		.2byte	0x4
 1752 00ff F3       		.byte	0xf3
 1753 0100 01       		.uleb128 0x1
 1754 0101 51       		.byte	0x51
 1755 0102 9F       		.byte	0x9f
 1756 0103 00000000 		.4byte	0
 1757 0107 00000000 		.4byte	0
 1758              	.LLST10:
 1759 010b 00000000 		.4byte	.LVL25
 1760 010f 14000000 		.4byte	.LVL28
 1761 0113 0100     		.2byte	0x1
 1762 0115 52       		.byte	0x52
 1763 0116 14000000 		.4byte	.LVL28
 1764 011a FC000000 		.4byte	.LFE2
 1765 011e 0100     		.2byte	0x1
 1766 0120 56       		.byte	0x56
 1767 0121 00000000 		.4byte	0
ARM GAS  /tmp/ccj9F9Kr.s 			page 32


 1768 0125 00000000 		.4byte	0
 1769              	.LLST11:
 1770 0129 00000000 		.4byte	.LVL25
 1771 012d 12000000 		.4byte	.LVL27
 1772 0131 0100     		.2byte	0x1
 1773 0133 53       		.byte	0x53
 1774 0134 12000000 		.4byte	.LVL27
 1775 0138 FC000000 		.4byte	.LFE2
 1776 013c 0100     		.2byte	0x1
 1777 013e 59       		.byte	0x59
 1778 013f 00000000 		.4byte	0
 1779 0143 00000000 		.4byte	0
 1780              	.LLST12:
 1781 0147 00000000 		.4byte	.LVL25
 1782 014b 20000000 		.4byte	.LVL31
 1783 014f 0200     		.2byte	0x2
 1784 0151 91       		.byte	0x91
 1785 0152 00       		.sleb128 0
 1786 0153 30000000 		.4byte	.LVL33
 1787 0157 3A000000 		.4byte	.LVL34
 1788 015b 0600     		.2byte	0x6
 1789 015d 91       		.byte	0x91
 1790 015e 00       		.sleb128 0
 1791 015f 06       		.byte	0x6
 1792 0160 23       		.byte	0x23
 1793 0161 08       		.uleb128 0x8
 1794 0162 9F       		.byte	0x9f
 1795 0163 3A000000 		.4byte	.LVL34
 1796 0167 41000000 		.4byte	.LVL36-1
 1797 016b 0100     		.2byte	0x1
 1798 016d 51       		.byte	0x51
 1799 016e 41000000 		.4byte	.LVL36-1
 1800 0172 52000000 		.4byte	.LVL38
 1801 0176 0600     		.2byte	0x6
 1802 0178 91       		.byte	0x91
 1803 0179 00       		.sleb128 0
 1804 017a 06       		.byte	0x6
 1805 017b 23       		.byte	0x23
 1806 017c 08       		.uleb128 0x8
 1807 017d 9F       		.byte	0x9f
 1808 017e 52000000 		.4byte	.LVL38
 1809 0182 58000000 		.4byte	.LVL39
 1810 0186 0100     		.2byte	0x1
 1811 0188 5A       		.byte	0x5a
 1812 0189 58000000 		.4byte	.LVL39
 1813 018d 5A000000 		.4byte	.LVL40
 1814 0191 0100     		.2byte	0x1
 1815 0193 54       		.byte	0x54
 1816 0194 5A000000 		.4byte	.LVL40
 1817 0198 78000000 		.4byte	.LVL45
 1818 019c 0100     		.2byte	0x1
 1819 019e 5A       		.byte	0x5a
 1820 019f 78000000 		.4byte	.LVL45
 1821 01a3 A6000000 		.4byte	.LVL47
 1822 01a7 0100     		.2byte	0x1
 1823 01a9 54       		.byte	0x54
 1824 01aa A6000000 		.4byte	.LVL47
ARM GAS  /tmp/ccj9F9Kr.s 			page 33


 1825 01ae B0000000 		.4byte	.LVL48
 1826 01b2 0300     		.2byte	0x3
 1827 01b4 74       		.byte	0x74
 1828 01b5 78       		.sleb128 -8
 1829 01b6 9F       		.byte	0x9f
 1830 01b7 B0000000 		.4byte	.LVL48
 1831 01bb C4000000 		.4byte	.LVL51
 1832 01bf 0100     		.2byte	0x1
 1833 01c1 54       		.byte	0x54
 1834 01c2 C4000000 		.4byte	.LVL51
 1835 01c6 D3000000 		.4byte	.LVL53-1
 1836 01ca 0100     		.2byte	0x1
 1837 01cc 51       		.byte	0x51
 1838 01cd D3000000 		.4byte	.LVL53-1
 1839 01d1 DA000000 		.4byte	.LVL54
 1840 01d5 0300     		.2byte	0x3
 1841 01d7 74       		.byte	0x74
 1842 01d8 78       		.sleb128 -8
 1843 01d9 9F       		.byte	0x9f
 1844 01da DC000000 		.4byte	.LVL55
 1845 01de E0000000 		.4byte	.LVL56
 1846 01e2 0100     		.2byte	0x1
 1847 01e4 54       		.byte	0x54
 1848 01e5 E0000000 		.4byte	.LVL56
 1849 01e9 FA000000 		.4byte	.LVL60
 1850 01ed 0300     		.2byte	0x3
 1851 01ef 7A       		.byte	0x7a
 1852 01f0 08       		.sleb128 8
 1853 01f1 9F       		.byte	0x9f
 1854 01f2 FA000000 		.4byte	.LVL60
 1855 01f6 FC000000 		.4byte	.LFE2
 1856 01fa 0100     		.2byte	0x1
 1857 01fc 54       		.byte	0x54
 1858 01fd 00000000 		.4byte	0
 1859 0201 00000000 		.4byte	0
 1860              	.LLST13:
 1861 0205 00000000 		.4byte	.LVL25
 1862 0209 1E000000 		.4byte	.LVL30
 1863 020d 0200     		.2byte	0x2
 1864 020f 30       		.byte	0x30
 1865 0210 9F       		.byte	0x9f
 1866 0211 1E000000 		.4byte	.LVL30
 1867 0215 28000000 		.4byte	.LVL32
 1868 0219 0100     		.2byte	0x1
 1869 021b 50       		.byte	0x50
 1870 021c 30000000 		.4byte	.LVL33
 1871 0220 3E000000 		.4byte	.LVL35
 1872 0224 0100     		.2byte	0x1
 1873 0226 50       		.byte	0x50
 1874 0227 3E000000 		.4byte	.LVL35
 1875 022b 46000000 		.4byte	.LVL37
 1876 022f 0100     		.2byte	0x1
 1877 0231 54       		.byte	0x54
 1878 0232 46000000 		.4byte	.LVL37
 1879 0236 66000000 		.4byte	.LVL41
 1880 023a 0100     		.2byte	0x1
 1881 023c 50       		.byte	0x50
ARM GAS  /tmp/ccj9F9Kr.s 			page 34


 1882 023d 6E000000 		.4byte	.LVL43
 1883 0241 B0000000 		.4byte	.LVL48
 1884 0245 0100     		.2byte	0x1
 1885 0247 50       		.byte	0x50
 1886 0248 D4000000 		.4byte	.LVL53
 1887 024c EA000000 		.4byte	.LVL57
 1888 0250 0100     		.2byte	0x1
 1889 0252 50       		.byte	0x50
 1890 0253 EA000000 		.4byte	.LVL57
 1891 0257 ED000000 		.4byte	.LVL58-1
 1892 025b 0100     		.2byte	0x1
 1893 025d 52       		.byte	0x52
 1894 025e F2000000 		.4byte	.LVL59
 1895 0262 FC000000 		.4byte	.LFE2
 1896 0266 0100     		.2byte	0x1
 1897 0268 50       		.byte	0x50
 1898 0269 00000000 		.4byte	0
 1899 026d 00000000 		.4byte	0
 1900              	.LLST14:
 1901 0271 00000000 		.4byte	.LVL25
 1902 0275 20000000 		.4byte	.LVL31
 1903 0279 0200     		.2byte	0x2
 1904 027b 30       		.byte	0x30
 1905 027c 9F       		.byte	0x9f
 1906 027d 30000000 		.4byte	.LVL33
 1907 0281 58000000 		.4byte	.LVL39
 1908 0285 0200     		.2byte	0x2
 1909 0287 30       		.byte	0x30
 1910 0288 9F       		.byte	0x9f
 1911 0289 5A000000 		.4byte	.LVL40
 1912 028d 72000000 		.4byte	.LVL44
 1913 0291 0800     		.2byte	0x8
 1914 0293 78       		.byte	0x78
 1915 0294 00       		.sleb128 0
 1916 0295 76       		.byte	0x76
 1917 0296 00       		.sleb128 0
 1918 0297 1C       		.byte	0x1c
 1919 0298 32       		.byte	0x32
 1920 0299 1C       		.byte	0x1c
 1921 029a 9F       		.byte	0x9f
 1922 029b 72000000 		.4byte	.LVL44
 1923 029f 78000000 		.4byte	.LVL45
 1924 02a3 0800     		.2byte	0x8
 1925 02a5 78       		.byte	0x78
 1926 02a6 00       		.sleb128 0
 1927 02a7 76       		.byte	0x76
 1928 02a8 00       		.sleb128 0
 1929 02a9 1C       		.byte	0x1c
 1930 02aa 33       		.byte	0x33
 1931 02ab 1C       		.byte	0x1c
 1932 02ac 9F       		.byte	0x9f
 1933 02ad 9C000000 		.4byte	.LVL46
 1934 02b1 A6000000 		.4byte	.LVL47
 1935 02b5 0200     		.2byte	0x2
 1936 02b7 30       		.byte	0x30
 1937 02b8 9F       		.byte	0x9f
 1938 02b9 A6000000 		.4byte	.LVL47
ARM GAS  /tmp/ccj9F9Kr.s 			page 35


 1939 02bd B0000000 		.4byte	.LVL48
 1940 02c1 0300     		.2byte	0x3
 1941 02c3 78       		.byte	0x78
 1942 02c4 7F       		.sleb128 -1
 1943 02c5 9F       		.byte	0x9f
 1944 02c6 B0000000 		.4byte	.LVL48
 1945 02ca C2000000 		.4byte	.LVL50
 1946 02ce 0100     		.2byte	0x1
 1947 02d0 58       		.byte	0x58
 1948 02d1 C2000000 		.4byte	.LVL50
 1949 02d5 DC000000 		.4byte	.LVL55
 1950 02d9 0300     		.2byte	0x3
 1951 02db 78       		.byte	0x78
 1952 02dc 7F       		.sleb128 -1
 1953 02dd 9F       		.byte	0x9f
 1954 02de 00000000 		.4byte	0
 1955 02e2 00000000 		.4byte	0
 1956              	.LLST5:
 1957 02e6 00000000 		.4byte	.LVL21
 1958 02ea 09000000 		.4byte	.LVL22-1
 1959 02ee 0100     		.2byte	0x1
 1960 02f0 50       		.byte	0x50
 1961 02f1 09000000 		.4byte	.LVL22-1
 1962 02f5 10000000 		.4byte	.LFE1
 1963 02f9 0400     		.2byte	0x4
 1964 02fb F3       		.byte	0xf3
 1965 02fc 01       		.uleb128 0x1
 1966 02fd 50       		.byte	0x50
 1967 02fe 9F       		.byte	0x9f
 1968 02ff 00000000 		.4byte	0
 1969 0303 00000000 		.4byte	0
 1970              	.LLST6:
 1971 0307 00000000 		.4byte	.LVL21
 1972 030b 09000000 		.4byte	.LVL22-1
 1973 030f 0100     		.2byte	0x1
 1974 0311 51       		.byte	0x51
 1975 0312 09000000 		.4byte	.LVL22-1
 1976 0316 10000000 		.4byte	.LFE1
 1977 031a 0400     		.2byte	0x4
 1978 031c F3       		.byte	0xf3
 1979 031d 01       		.uleb128 0x1
 1980 031e 51       		.byte	0x51
 1981 031f 9F       		.byte	0x9f
 1982 0320 00000000 		.4byte	0
 1983 0324 00000000 		.4byte	0
 1984              	.LLST7:
 1985 0328 00000000 		.4byte	.LVL21
 1986 032c 0A000000 		.4byte	.LVL22
 1987 0330 0200     		.2byte	0x2
 1988 0332 30       		.byte	0x30
 1989 0333 9F       		.byte	0x9f
 1990 0334 0A000000 		.4byte	.LVL22
 1991 0338 0C000000 		.4byte	.LVL23
 1992 033c 0100     		.2byte	0x1
 1993 033e 50       		.byte	0x50
 1994 033f 0C000000 		.4byte	.LVL23
 1995 0343 0E000000 		.4byte	.LVL24
ARM GAS  /tmp/ccj9F9Kr.s 			page 36


 1996 0347 0300     		.2byte	0x3
 1997 0349 70       		.byte	0x70
 1998 034a 79       		.sleb128 -7
 1999 034b 9F       		.byte	0x9f
 2000 034c 00000000 		.4byte	0
 2001 0350 00000000 		.4byte	0
 2002              	.LLST0:
 2003 0354 00000000 		.4byte	.LVL0
 2004 0358 14000000 		.4byte	.LVL4
 2005 035c 0100     		.2byte	0x1
 2006 035e 50       		.byte	0x50
 2007 035f 14000000 		.4byte	.LVL4
 2008 0363 17000000 		.4byte	.LVL5-1
 2009 0367 0100     		.2byte	0x1
 2010 0369 53       		.byte	0x53
 2011 036a 17000000 		.4byte	.LVL5-1
 2012 036e 90000000 		.4byte	.LFE0
 2013 0372 0100     		.2byte	0x1
 2014 0374 58       		.byte	0x58
 2015 0375 00000000 		.4byte	0
 2016 0379 00000000 		.4byte	0
 2017              	.LLST1:
 2018 037d 00000000 		.4byte	.LVL0
 2019 0381 0C000000 		.4byte	.LVL1
 2020 0385 0100     		.2byte	0x1
 2021 0387 51       		.byte	0x51
 2022 0388 0C000000 		.4byte	.LVL1
 2023 038c 90000000 		.4byte	.LFE0
 2024 0390 0100     		.2byte	0x1
 2025 0392 57       		.byte	0x57
 2026 0393 00000000 		.4byte	0
 2027 0397 00000000 		.4byte	0
 2028              	.LLST2:
 2029 039b 00000000 		.4byte	.LVL0
 2030 039f 10000000 		.4byte	.LVL2
 2031 03a3 0100     		.2byte	0x1
 2032 03a5 52       		.byte	0x52
 2033 03a6 10000000 		.4byte	.LVL2
 2034 03aa 17000000 		.4byte	.LVL5-1
 2035 03ae 0100     		.2byte	0x1
 2036 03b0 51       		.byte	0x51
 2037 03b1 17000000 		.4byte	.LVL5-1
 2038 03b5 18000000 		.4byte	.LVL5
 2039 03b9 0100     		.2byte	0x1
 2040 03bb 59       		.byte	0x59
 2041 03bc 18000000 		.4byte	.LVL5
 2042 03c0 20000000 		.4byte	.LVL6
 2043 03c4 0300     		.2byte	0x3
 2044 03c6 79       		.byte	0x79
 2045 03c7 08       		.sleb128 8
 2046 03c8 9F       		.byte	0x9f
 2047 03c9 20000000 		.4byte	.LVL6
 2048 03cd 27000000 		.4byte	.LVL7-1
 2049 03d1 0100     		.2byte	0x1
 2050 03d3 51       		.byte	0x51
 2051 03d4 27000000 		.4byte	.LVL7-1
 2052 03d8 2C000000 		.4byte	.LVL8
ARM GAS  /tmp/ccj9F9Kr.s 			page 37


 2053 03dc 0300     		.2byte	0x3
 2054 03de 79       		.byte	0x79
 2055 03df 08       		.sleb128 8
 2056 03e0 9F       		.byte	0x9f
 2057 03e1 2C000000 		.4byte	.LVL8
 2058 03e5 3E000000 		.4byte	.LVL10
 2059 03e9 0100     		.2byte	0x1
 2060 03eb 54       		.byte	0x54
 2061 03ec 3E000000 		.4byte	.LVL10
 2062 03f0 41000000 		.4byte	.LVL11-1
 2063 03f4 0100     		.2byte	0x1
 2064 03f6 51       		.byte	0x51
 2065 03f7 41000000 		.4byte	.LVL11-1
 2066 03fb 42000000 		.4byte	.LVL11
 2067 03ff 0300     		.2byte	0x3
 2068 0401 74       		.byte	0x74
 2069 0402 78       		.sleb128 -8
 2070 0403 9F       		.byte	0x9f
 2071 0404 42000000 		.4byte	.LVL11
 2072 0408 50000000 		.4byte	.LVL12
 2073 040c 0100     		.2byte	0x1
 2074 040e 54       		.byte	0x54
 2075 040f 50000000 		.4byte	.LVL12
 2076 0413 7C000000 		.4byte	.LVL18
 2077 0417 0100     		.2byte	0x1
 2078 0419 56       		.byte	0x56
 2079 041a 7C000000 		.4byte	.LVL18
 2080 041e 8E000000 		.4byte	.LVL20
 2081 0422 0100     		.2byte	0x1
 2082 0424 54       		.byte	0x54
 2083 0425 8E000000 		.4byte	.LVL20
 2084 0429 90000000 		.4byte	.LFE0
 2085 042d 0100     		.2byte	0x1
 2086 042f 56       		.byte	0x56
 2087 0430 00000000 		.4byte	0
 2088 0434 00000000 		.4byte	0
 2089              	.LLST3:
 2090 0438 00000000 		.4byte	.LVL0
 2091 043c 12000000 		.4byte	.LVL3
 2092 0440 0100     		.2byte	0x1
 2093 0442 53       		.byte	0x53
 2094 0443 12000000 		.4byte	.LVL3
 2095 0447 90000000 		.4byte	.LFE0
 2096 044b 0400     		.2byte	0x4
 2097 044d F3       		.byte	0xf3
 2098 044e 01       		.uleb128 0x1
 2099 044f 53       		.byte	0x53
 2100 0450 9F       		.byte	0x9f
 2101 0451 00000000 		.4byte	0
 2102 0455 00000000 		.4byte	0
 2103              	.LLST4:
 2104 0459 00000000 		.4byte	.LVL0
 2105 045d 34000000 		.4byte	.LVL9
 2106 0461 0200     		.2byte	0x2
 2107 0463 30       		.byte	0x30
 2108 0464 9F       		.byte	0x9f
 2109 0465 34000000 		.4byte	.LVL9
ARM GAS  /tmp/ccj9F9Kr.s 			page 38


 2110 0469 42000000 		.4byte	.LVL11
 2111 046d 0800     		.2byte	0x8
 2112 046f 75       		.byte	0x75
 2113 0470 00       		.sleb128 0
 2114 0471 78       		.byte	0x78
 2115 0472 00       		.sleb128 0
 2116 0473 1C       		.byte	0x1c
 2117 0474 32       		.byte	0x32
 2118 0475 1C       		.byte	0x1c
 2119 0476 9F       		.byte	0x9f
 2120 0477 50000000 		.4byte	.LVL12
 2121 047b 58000000 		.4byte	.LVL13
 2122 047f 0200     		.2byte	0x2
 2123 0481 30       		.byte	0x30
 2124 0482 9F       		.byte	0x9f
 2125 0483 58000000 		.4byte	.LVL13
 2126 0487 6E000000 		.4byte	.LVL15
 2127 048b 0100     		.2byte	0x1
 2128 048d 55       		.byte	0x55
 2129 048e 6E000000 		.4byte	.LVL15
 2130 0492 74000000 		.4byte	.LVL16
 2131 0496 0300     		.2byte	0x3
 2132 0498 75       		.byte	0x75
 2133 0499 7F       		.sleb128 -1
 2134 049a 9F       		.byte	0x9f
 2135 049b 74000000 		.4byte	.LVL16
 2136 049f 76000000 		.4byte	.LVL17
 2137 04a3 0100     		.2byte	0x1
 2138 04a5 55       		.byte	0x55
 2139 04a6 00000000 		.4byte	0
 2140 04aa 00000000 		.4byte	0
 2141              		.section	.debug_aranges,"",%progbits
 2142 0000 34000000 		.4byte	0x34
 2143 0004 0200     		.2byte	0x2
 2144 0006 00000000 		.4byte	.Ldebug_info0
 2145 000a 04       		.byte	0x4
 2146 000b 00       		.byte	0
 2147 000c 0000     		.2byte	0
 2148 000e 0000     		.2byte	0
 2149 0010 00000000 		.4byte	.LFB0
 2150 0014 90000000 		.4byte	.LFE0-.LFB0
 2151 0018 00000000 		.4byte	.LFB1
 2152 001c 10000000 		.4byte	.LFE1-.LFB1
 2153 0020 00000000 		.4byte	.LFB2
 2154 0024 FC000000 		.4byte	.LFE2-.LFB2
 2155 0028 00000000 		.4byte	.LFB3
 2156 002c 1E000000 		.4byte	.LFE3-.LFB3
 2157 0030 00000000 		.4byte	0
 2158 0034 00000000 		.4byte	0
 2159              		.section	.debug_ranges,"",%progbits
 2160              	.Ldebug_ranges0:
 2161 0000 00000000 		.4byte	.LFB0
 2162 0004 90000000 		.4byte	.LFE0
 2163 0008 00000000 		.4byte	.LFB1
 2164 000c 10000000 		.4byte	.LFE1
 2165 0010 00000000 		.4byte	.LFB2
 2166 0014 FC000000 		.4byte	.LFE2
ARM GAS  /tmp/ccj9F9Kr.s 			page 39


 2167 0018 00000000 		.4byte	.LFB3
 2168 001c 1E000000 		.4byte	.LFE3
 2169 0020 00000000 		.4byte	0
 2170 0024 00000000 		.4byte	0
 2171              		.section	.debug_line,"",%progbits
 2172              	.Ldebug_line0:
 2173 0000 CF010000 		.section	.debug_str,"MS",%progbits,1
 2173      0200DE00 
 2173      00000201 
 2173      FB0E0D00 
 2173      01010101 
 2174              	.LASF39:
 2175 0000 75617663 		.ascii	"uavcan_protocol_HardwareVersion\000"
 2175      616E5F70 
 2175      726F746F 
 2175      636F6C5F 
 2175      48617264 
 2176              	.LASF25:
 2177 0020 64617461 		.ascii	"data_type_id\000"
 2177      5F747970 
 2177      655F6964 
 2177      00
 2178              	.LASF41:
 2179 002d 64657374 		.ascii	"dest\000"
 2179      00
 2180              	.LASF28:
 2181 0032 7072696F 		.ascii	"priority\000"
 2181      72697479 
 2181      00
 2182              	.LASF18:
 2183 003b 75696E74 		.ascii	"uint64_t\000"
 2183      36345F74 
 2183      00
 2184              	.LASF2:
 2185 0044 73686F72 		.ascii	"short int\000"
 2185      7420696E 
 2185      7400
 2186              	.LASF49:
 2187 004e 75617663 		.ascii	"uavcan_protocol_HardwareVersion_encode_internal\000"
 2187      616E5F70 
 2187      726F746F 
 2187      636F6C5F 
 2187      48617264 
 2188              	.LASF8:
 2189 007e 5F5F7569 		.ascii	"__uint32_t\000"
 2189      6E743332 
 2189      5F7400
 2190              	.LASF54:
 2191 0089 6C696263 		.ascii	"libcanard/dsdl/uavcan/protocol/protocol_HardwareVer"
 2191      616E6172 
 2191      642F6473 
 2191      646C2F75 
 2191      61766361 
 2192 00bc 73696F6E 		.ascii	"sion.c\000"
 2192      2E6300
 2193              	.LASF4:
 2194 00c3 5F5F7569 		.ascii	"__uint16_t\000"
ARM GAS  /tmp/ccj9F9Kr.s 			page 40


 2194      6E743136 
 2194      5F7400
 2195              	.LASF35:
 2196 00ce 6D616A6F 		.ascii	"major\000"
 2196      7200
 2197              	.LASF14:
 2198 00d4 75696E74 		.ascii	"uint8_t\000"
 2198      385F7400 
 2199              	.LASF10:
 2200 00dc 6C6F6E67 		.ascii	"long long int\000"
 2200      206C6F6E 
 2200      6720696E 
 2200      7400
 2201              	.LASF42:
 2202 00ea 64796E5F 		.ascii	"dyn_arr_buf\000"
 2202      6172725F 
 2202      62756600 
 2203              	.LASF7:
 2204 00f6 6C6F6E67 		.ascii	"long int\000"
 2204      20696E74 
 2204      00
 2205              	.LASF43:
 2206 00ff 6F666673 		.ascii	"offset\000"
 2206      657400
 2207              	.LASF3:
 2208 0106 5F5F7569 		.ascii	"__uint8_t\000"
 2208      6E74385F 
 2208      7400
 2209              	.LASF47:
 2210 0110 736F7572 		.ascii	"source\000"
 2210      636500
 2211              	.LASF23:
 2212 0117 7061796C 		.ascii	"payload_tail\000"
 2212      6F61645F 
 2212      7461696C 
 2212      00
 2213              	.LASF20:
 2214 0124 74696D65 		.ascii	"timestamp_usec\000"
 2214      7374616D 
 2214      705F7573 
 2214      656300
 2215              	.LASF37:
 2216 0133 756E6971 		.ascii	"unique_id\000"
 2216      75655F69 
 2216      6400
 2217              	.LASF1:
 2218 013d 756E7369 		.ascii	"unsigned char\000"
 2218      676E6564 
 2218      20636861 
 2218      7200
 2219              	.LASF22:
 2220 014b 7061796C 		.ascii	"payload_middle\000"
 2220      6F61645F 
 2220      6D696464 
 2220      6C6500
 2221              	.LASF55:
 2222 015a 2F626C64 		.ascii	"/bldc\000"
ARM GAS  /tmp/ccj9F9Kr.s 			page 41


 2222      6300
 2223              	.LASF0:
 2224 0160 7369676E 		.ascii	"signed char\000"
 2224      65642063 
 2224      68617200 
 2225              	.LASF12:
 2226 016c 6C6F6E67 		.ascii	"long long unsigned int\000"
 2226      206C6F6E 
 2226      6720756E 
 2226      7369676E 
 2226      65642069 
 2227              	.LASF17:
 2228 0183 75696E74 		.ascii	"uint32_t\000"
 2228      33325F74 
 2228      00
 2229              	.LASF13:
 2230 018c 756E7369 		.ascii	"unsigned int\000"
 2230      676E6564 
 2230      20696E74 
 2230      00
 2231              	.LASF15:
 2232 0199 75696E74 		.ascii	"uint16_t\000"
 2232      31365F74 
 2232      00
 2233              	.LASF32:
 2234 01a2 43616E61 		.ascii	"CanardBufferBlock\000"
 2234      72644275 
 2234      66666572 
 2234      426C6F63 
 2234      6B00
 2235              	.LASF29:
 2236 01b4 736F7572 		.ascii	"source_node_id\000"
 2236      63655F6E 
 2236      6F64655F 
 2236      696400
 2237              	.LASF5:
 2238 01c3 73686F72 		.ascii	"short unsigned int\000"
 2238      7420756E 
 2238      7369676E 
 2238      65642069 
 2238      6E7400
 2239              	.LASF44:
 2240 01d6 75617663 		.ascii	"uavcan_protocol_HardwareVersion_decode\000"
 2240      616E5F70 
 2240      726F746F 
 2240      636F6C5F 
 2240      48617264 
 2241              	.LASF52:
 2242 01fd 63616E61 		.ascii	"canardEncodeScalar\000"
 2242      7264456E 
 2242      636F6465 
 2242      5363616C 
 2242      617200
 2243              	.LASF31:
 2244 0210 63686172 		.ascii	"char\000"
 2244      00
 2245              	.LASF30:
ARM GAS  /tmp/ccj9F9Kr.s 			page 42


 2246 0215 5F426F6F 		.ascii	"_Bool\000"
 2246      6C00
 2247              	.LASF16:
 2248 021b 696E7433 		.ascii	"int32_t\000"
 2248      325F7400 
 2249              	.LASF26:
 2250 0223 7472616E 		.ascii	"transfer_type\000"
 2250      73666572 
 2250      5F747970 
 2250      6500
 2251              	.LASF21:
 2252 0231 7061796C 		.ascii	"payload_head\000"
 2252      6F61645F 
 2252      68656164 
 2252      00
 2253              	.LASF11:
 2254 023e 5F5F7569 		.ascii	"__uint64_t\000"
 2254      6E743634 
 2254      5F7400
 2255              	.LASF34:
 2256 0249 64617461 		.ascii	"data\000"
 2256      00
 2257              	.LASF40:
 2258 024e 7472616E 		.ascii	"transfer\000"
 2258      73666572 
 2258      00
 2259              	.LASF19:
 2260 0257 43616E61 		.ascii	"CanardRxTransfer\000"
 2260      72645278 
 2260      5472616E 
 2260      73666572 
 2260      00
 2261              	.LASF9:
 2262 0268 6C6F6E67 		.ascii	"long unsigned int\000"
 2262      20756E73 
 2262      69676E65 
 2262      6420696E 
 2262      7400
 2263              	.LASF46:
 2264 027a 75617663 		.ascii	"uavcan_protocol_HardwareVersion_encode\000"
 2264      616E5F70 
 2264      726F746F 
 2264      636F6C5F 
 2264      48617264 
 2265              	.LASF56:
 2266 02a1 75617663 		.ascii	"uavcan_protocol_HardwareVersion_error_exit\000"
 2266      616E5F70 
 2266      726F746F 
 2266      636F6C5F 
 2266      48617264 
 2267              	.LASF50:
 2268 02cc 726F6F74 		.ascii	"root_item\000"
 2268      5F697465 
 2268      6D00
 2269              	.LASF38:
 2270 02d6 63657274 		.ascii	"certificate_of_authenticity\000"
 2270      69666963 
ARM GAS  /tmp/ccj9F9Kr.s 			page 43


 2270      6174655F 
 2270      6F665F61 
 2270      75746865 
 2271              	.LASF6:
 2272 02f2 5F5F696E 		.ascii	"__int32_t\000"
 2272      7433325F 
 2272      7400
 2273              	.LASF36:
 2274 02fc 6D696E6F 		.ascii	"minor\000"
 2274      7200
 2275              	.LASF45:
 2276 0302 75617663 		.ascii	"uavcan_protocol_HardwareVersion_decode_internal\000"
 2276      616E5F70 
 2276      726F746F 
 2276      636F6C5F 
 2276      48617264 
 2277              	.LASF24:
 2278 0332 7061796C 		.ascii	"payload_len\000"
 2278      6F61645F 
 2278      6C656E00 
 2279              	.LASF27:
 2280 033e 7472616E 		.ascii	"transfer_id\000"
 2280      73666572 
 2280      5F696400 
 2281              	.LASF51:
 2282 034a 63616E61 		.ascii	"canardDecodeScalar\000"
 2282      72644465 
 2282      636F6465 
 2282      5363616C 
 2282      617200
 2283              	.LASF48:
 2284 035d 6D73675F 		.ascii	"msg_buf\000"
 2284      62756600 
 2285              	.LASF33:
 2286 0365 6E657874 		.ascii	"next\000"
 2286      00
 2287              	.LASF53:
 2288 036a 474E5520 		.ascii	"GNU C99 7.3.1 20180622 (release) [ARM/embedded-7-br"
 2288      43393920 
 2288      372E332E 
 2288      31203230 
 2288      31383036 
 2289 039d 616E6368 		.ascii	"anch revision 261907] -mcpu=cortex-m4 -mfloat-abi=h"
 2289      20726576 
 2289      6973696F 
 2289      6E203236 
 2289      31393037 
 2290 03d0 61726420 		.ascii	"ard -mfpu=fpv4-sp-d16 -mno-thumb-interwork -mthumb "
 2290      2D6D6670 
 2290      753D6670 
 2290      76342D73 
 2290      702D6431 
 2291 0403 2D676764 		.ascii	"-ggdb -O2 -std=gnu99 -fomit-frame-pointer -falign-f"
 2291      62202D4F 
 2291      32202D73 
 2291      74643D67 
 2291      6E753939 
ARM GAS  /tmp/ccj9F9Kr.s 			page 44


 2292 0436 756E6374 		.ascii	"unctions=16 -ffunction-sections -fdata-sections -fn"
 2292      696F6E73 
 2292      3D313620 
 2292      2D666675 
 2292      6E637469 
 2293 0469 6F2D636F 		.ascii	"o-common -fsingle-precision-constant\000"
 2293      6D6D6F6E 
 2293      202D6673 
 2293      696E676C 
 2293      652D7072 
 2294              		.ident	"GCC: (GNU Tools for Arm Embedded Processors 7-2018-q3-update) 7.3.1 20180622 (release) [AR
ARM GAS  /tmp/ccj9F9Kr.s 			page 45


DEFINED SYMBOLS
                            *ABS*:0000000000000000 protocol_HardwareVersion.c
     /tmp/ccj9F9Kr.s:18     .text.uavcan_protocol_HardwareVersion_encode_internal:0000000000000000 $t
     /tmp/ccj9F9Kr.s:26     .text.uavcan_protocol_HardwareVersion_encode_internal:0000000000000000 uavcan_protocol_HardwareVersion_encode_internal
     /tmp/ccj9F9Kr.s:145    .text.uavcan_protocol_HardwareVersion_encode:0000000000000000 $t
     /tmp/ccj9F9Kr.s:153    .text.uavcan_protocol_HardwareVersion_encode:0000000000000000 uavcan_protocol_HardwareVersion_encode
     /tmp/ccj9F9Kr.s:180    .text.uavcan_protocol_HardwareVersion_decode_internal:0000000000000000 $t
     /tmp/ccj9F9Kr.s:188    .text.uavcan_protocol_HardwareVersion_decode_internal:0000000000000000 uavcan_protocol_HardwareVersion_decode_internal
     /tmp/ccj9F9Kr.s:402    .text.uavcan_protocol_HardwareVersion_decode:0000000000000000 $t
     /tmp/ccj9F9Kr.s:410    .text.uavcan_protocol_HardwareVersion_decode:0000000000000000 uavcan_protocol_HardwareVersion_decode

UNDEFINED SYMBOLS
canardEncodeScalar
canardDecodeScalar
