ARM GAS  /tmp/ccFHQtRL.s 			page 1


   1              		.cpu cortex-m4
   2              		.eabi_attribute 27, 1
   3              		.eabi_attribute 28, 1
   4              		.eabi_attribute 20, 1
   5              		.eabi_attribute 21, 1
   6              		.eabi_attribute 23, 3
   7              		.eabi_attribute 24, 1
   8              		.eabi_attribute 25, 1
   9              		.eabi_attribute 26, 1
  10              		.eabi_attribute 30, 2
  11              		.eabi_attribute 34, 1
  12              		.eabi_attribute 18, 4
  13              		.file	"protocol_SoftwareVersion.c"
  14              		.text
  15              	.Ltext0:
  16              		.cfi_sections	.debug_frame
  17              		.section	.text.uavcan_protocol_SoftwareVersion_encode_internal,"ax",%progbits
  18              		.align	1
  19              		.p2align 4,,15
  20              		.global	uavcan_protocol_SoftwareVersion_encode_internal
  21              		.syntax unified
  22              		.thumb
  23              		.thumb_func
  24              		.fpu fpv4-sp-d16
  25              		.type	uavcan_protocol_SoftwareVersion_encode_internal, %function
  26              	uavcan_protocol_SoftwareVersion_encode_internal:
  27              	.LFB0:
  28              		.file 1 "libcanard/dsdl/uavcan/protocol/protocol_SoftwareVersion.c"
  29              		.loc 1 37 0
  30              		.cfi_startproc
  31              		@ args = 0, pretend = 0, frame = 0
  32              		@ frame_needed = 0, uses_anonymous_args = 0
  33              	.LVL0:
  34 0000 70B5     		push	{r4, r5, r6, lr}
  35              		.cfi_def_cfa_offset 16
  36              		.cfi_offset 4, -16
  37              		.cfi_offset 5, -12
  38              		.cfi_offset 6, -8
  39              		.cfi_offset 14, -4
  40              		.loc 1 37 0
  41 0002 0D46     		mov	r5, r1
  42 0004 1446     		mov	r4, r2
  43 0006 0646     		mov	r6, r0
  44              		.loc 1 38 0
  45 0008 0346     		mov	r3, r0
  46              	.LVL1:
  47 000a 1146     		mov	r1, r2
  48              	.LVL2:
  49 000c 2846     		mov	r0, r5
  50              	.LVL3:
  51 000e 0822     		movs	r2, #8
  52              	.LVL4:
  53 0010 FFF7FEFF 		bl	canardEncodeScalar
  54              	.LVL5:
  55              		.loc 1 41 0
  56 0014 731C     		adds	r3, r6, #1
  57 0016 04F10801 		add	r1, r4, #8
ARM GAS  /tmp/ccFHQtRL.s 			page 2


  58              	.LVL6:
  59 001a 2846     		mov	r0, r5
  60 001c 0822     		movs	r2, #8
  61 001e FFF7FEFF 		bl	canardEncodeScalar
  62              	.LVL7:
  63              		.loc 1 44 0
  64 0022 B31C     		adds	r3, r6, #2
  65 0024 04F11001 		add	r1, r4, #16
  66              	.LVL8:
  67 0028 2846     		mov	r0, r5
  68 002a 0822     		movs	r2, #8
  69 002c FFF7FEFF 		bl	canardEncodeScalar
  70              	.LVL9:
  71              		.loc 1 47 0
  72 0030 331D     		adds	r3, r6, #4
  73 0032 04F11801 		add	r1, r4, #24
  74              	.LVL10:
  75 0036 2846     		mov	r0, r5
  76 0038 2022     		movs	r2, #32
  77 003a FFF7FEFF 		bl	canardEncodeScalar
  78              	.LVL11:
  79              		.loc 1 50 0
  80 003e 2846     		mov	r0, r5
  81 0040 06F10803 		add	r3, r6, #8
  82 0044 04F13801 		add	r1, r4, #56
  83              	.LVL12:
  84 0048 4022     		movs	r2, #64
  85 004a FFF7FEFF 		bl	canardEncodeScalar
  86              	.LVL13:
  87              		.loc 1 54 0
  88 004e 04F17800 		add	r0, r4, #120
  89              	.LVL14:
  90 0052 70BD     		pop	{r4, r5, r6, pc}
  91              		.cfi_endproc
  92              	.LFE0:
  93              		.size	uavcan_protocol_SoftwareVersion_encode_internal, .-uavcan_protocol_SoftwareVersion_encode_in
  94              		.section	.text.uavcan_protocol_SoftwareVersion_encode,"ax",%progbits
  95              		.align	1
  96              		.p2align 4,,15
  97              		.global	uavcan_protocol_SoftwareVersion_encode
  98              		.syntax unified
  99              		.thumb
 100              		.thumb_func
 101              		.fpu fpv4-sp-d16
 102              		.type	uavcan_protocol_SoftwareVersion_encode, %function
 103              	uavcan_protocol_SoftwareVersion_encode:
 104              	.LFB1:
 105              		.loc 1 63 0
 106              		.cfi_startproc
 107              		@ args = 0, pretend = 0, frame = 0
 108              		@ frame_needed = 0, uses_anonymous_args = 0
 109              	.LVL15:
 110 0000 08B5     		push	{r3, lr}
 111              		.cfi_def_cfa_offset 8
 112              		.cfi_offset 3, -8
 113              		.cfi_offset 14, -4
 114              		.loc 1 66 0
ARM GAS  /tmp/ccFHQtRL.s 			page 3


 115 0002 0022     		movs	r2, #0
 116 0004 0123     		movs	r3, #1
 117 0006 FFF7FEFF 		bl	uavcan_protocol_SoftwareVersion_encode_internal
 118              	.LVL16:
 119              		.loc 1 68 0
 120 000a 0730     		adds	r0, r0, #7
 121              	.LVL17:
 122              		.loc 1 69 0
 123 000c C008     		lsrs	r0, r0, #3
 124              	.LVL18:
 125 000e 08BD     		pop	{r3, pc}
 126              		.cfi_endproc
 127              	.LFE1:
 128              		.size	uavcan_protocol_SoftwareVersion_encode, .-uavcan_protocol_SoftwareVersion_encode
 129              		.section	.text.uavcan_protocol_SoftwareVersion_decode_internal,"ax",%progbits
 130              		.align	1
 131              		.p2align 4,,15
 132              		.global	uavcan_protocol_SoftwareVersion_decode_internal
 133              		.syntax unified
 134              		.thumb
 135              		.thumb_func
 136              		.fpu fpv4-sp-d16
 137              		.type	uavcan_protocol_SoftwareVersion_decode_internal, %function
 138              	uavcan_protocol_SoftwareVersion_decode_internal:
 139              	.LFB2:
 140              		.loc 1 88 0
 141              		.cfi_startproc
 142              		@ args = 4, pretend = 0, frame = 0
 143              		@ frame_needed = 0, uses_anonymous_args = 0
 144              	.LVL19:
 145 0000 30B5     		push	{r4, r5, lr}
 146              		.cfi_def_cfa_offset 12
 147              		.cfi_offset 4, -12
 148              		.cfi_offset 5, -8
 149              		.cfi_offset 14, -4
 150 0002 83B0     		sub	sp, sp, #12
 151              		.cfi_def_cfa_offset 24
 152              		.loc 1 88 0
 153 0004 1446     		mov	r4, r2
 154              		.loc 1 91 0
 155 0006 0092     		str	r2, [sp]
 156 0008 0699     		ldr	r1, [sp, #24]
 157              	.LVL20:
 158 000a 0023     		movs	r3, #0
 159              	.LVL21:
 160 000c 0822     		movs	r2, #8
 161              	.LVL22:
 162              		.loc 1 88 0
 163 000e 0546     		mov	r5, r0
 164              		.loc 1 91 0
 165 0010 FFF7FEFF 		bl	canardDecodeScalar
 166              	.LVL23:
 167              		.loc 1 92 0
 168 0014 0828     		cmp	r0, #8
 169 0016 05D0     		beq	.L10
 170              	.LVL24:
 171              	.L7:
ARM GAS  /tmp/ccFHQtRL.s 			page 4


 172              		.loc 1 128 0
 173 0018 0028     		cmp	r0, #0
 174              		.loc 1 134 0
 175 001a A8BF     		it	ge
 176 001c 6FF00800 		mvnge	r0, #8
 177              	.LVL25:
 178              	.L6:
 179              		.loc 1 136 0
 180 0020 03B0     		add	sp, sp, #12
 181              		.cfi_remember_state
 182              		.cfi_def_cfa_offset 12
 183              		@ sp needed
 184 0022 30BD     		pop	{r4, r5, pc}
 185              	.LVL26:
 186              	.L10:
 187              		.cfi_restore_state
 188              		.loc 1 98 0
 189 0024 0699     		ldr	r1, [sp, #24]
 190 0026 631C     		adds	r3, r4, #1
 191 0028 0246     		mov	r2, r0
 192 002a 0093     		str	r3, [sp]
 193 002c 0831     		adds	r1, r1, #8
 194              	.LVL27:
 195 002e 0023     		movs	r3, #0
 196 0030 2846     		mov	r0, r5
 197              	.LVL28:
 198 0032 FFF7FEFF 		bl	canardDecodeScalar
 199              	.LVL29:
 200              		.loc 1 99 0
 201 0036 0828     		cmp	r0, #8
 202 0038 EED1     		bne	.L7
 203              	.LVL30:
 204              		.loc 1 105 0
 205 003a 0699     		ldr	r1, [sp, #24]
 206 003c A31C     		adds	r3, r4, #2
 207 003e 0246     		mov	r2, r0
 208 0040 0093     		str	r3, [sp]
 209 0042 1031     		adds	r1, r1, #16
 210              	.LVL31:
 211 0044 0023     		movs	r3, #0
 212 0046 2846     		mov	r0, r5
 213              	.LVL32:
 214 0048 FFF7FEFF 		bl	canardDecodeScalar
 215              	.LVL33:
 216              		.loc 1 106 0
 217 004c 0828     		cmp	r0, #8
 218 004e E3D1     		bne	.L7
 219              	.LVL34:
 220              		.loc 1 112 0
 221 0050 0699     		ldr	r1, [sp, #24]
 222 0052 231D     		adds	r3, r4, #4
 223 0054 0093     		str	r3, [sp]
 224 0056 2022     		movs	r2, #32
 225 0058 0023     		movs	r3, #0
 226 005a 1831     		adds	r1, r1, #24
 227              	.LVL35:
 228 005c 2846     		mov	r0, r5
ARM GAS  /tmp/ccFHQtRL.s 			page 5


 229              	.LVL36:
 230 005e FFF7FEFF 		bl	canardDecodeScalar
 231              	.LVL37:
 232              		.loc 1 113 0
 233 0062 2028     		cmp	r0, #32
 234 0064 D8D1     		bne	.L7
 235              	.LVL38:
 236              		.loc 1 119 0
 237 0066 0699     		ldr	r1, [sp, #24]
 238 0068 0834     		adds	r4, r4, #8
 239              	.LVL39:
 240 006a 0094     		str	r4, [sp]
 241 006c 2846     		mov	r0, r5
 242              	.LVL40:
 243 006e 0023     		movs	r3, #0
 244 0070 4022     		movs	r2, #64
 245 0072 3831     		adds	r1, r1, #56
 246              	.LVL41:
 247 0074 FFF7FEFF 		bl	canardDecodeScalar
 248              	.LVL42:
 249              		.loc 1 120 0
 250 0078 4028     		cmp	r0, #64
 251 007a CDD1     		bne	.L7
 252              		.loc 1 124 0
 253 007c 069B     		ldr	r3, [sp, #24]
 254 007e 03F17800 		add	r0, r3, #120
 255              	.LVL43:
 256              		.loc 1 125 0
 257 0082 CDE7     		b	.L6
 258              		.cfi_endproc
 259              	.LFE2:
 260              		.size	uavcan_protocol_SoftwareVersion_decode_internal, .-uavcan_protocol_SoftwareVersion_decode_in
 261              		.section	.text.uavcan_protocol_SoftwareVersion_decode,"ax",%progbits
 262              		.align	1
 263              		.p2align 4,,15
 264              		.global	uavcan_protocol_SoftwareVersion_decode
 265              		.syntax unified
 266              		.thumb
 267              		.thumb_func
 268              		.fpu fpv4-sp-d16
 269              		.type	uavcan_protocol_SoftwareVersion_decode, %function
 270              	uavcan_protocol_SoftwareVersion_decode:
 271              	.LFB3:
 272              		.loc 1 152 0
 273              		.cfi_startproc
 274              		@ args = 0, pretend = 0, frame = 0
 275              		@ frame_needed = 0, uses_anonymous_args = 0
 276              	.LVL44:
 277 0000 70B5     		push	{r4, r5, r6, lr}
 278              		.cfi_def_cfa_offset 16
 279              		.cfi_offset 4, -16
 280              		.cfi_offset 5, -12
 281              		.cfi_offset 6, -8
 282              		.cfi_offset 14, -4
 283 0002 541E     		subs	r4, r2, #1
 284 0004 82B0     		sub	sp, sp, #8
 285              		.cfi_def_cfa_offset 24
ARM GAS  /tmp/ccFHQtRL.s 			page 6


 286 0006 02F10F06 		add	r6, r2, #15
 287              	.LBB2:
 288              		.loc 1 159 0
 289 000a 0025     		movs	r5, #0
 290              	.LVL45:
 291              	.L12:
 292              		.loc 1 159 0 is_stmt 0 discriminator 3
 293 000c 04F8015F 		strb	r5, [r4, #1]!
 294              		.loc 1 157 0 is_stmt 1 discriminator 3
 295 0010 B442     		cmp	r4, r6
 296 0012 FBD1     		bne	.L12
 297              	.LBE2:
 298              		.loc 1 162 0
 299 0014 0095     		str	r5, [sp]
 300 0016 FFF7FEFF 		bl	uavcan_protocol_SoftwareVersion_decode_internal
 301              	.LVL46:
 302              		.loc 1 165 0
 303 001a 02B0     		add	sp, sp, #8
 304              		.cfi_def_cfa_offset 16
 305              		@ sp needed
 306 001c 70BD     		pop	{r4, r5, r6, pc}
 307              		.cfi_endproc
 308              	.LFE3:
 309              		.size	uavcan_protocol_SoftwareVersion_decode, .-uavcan_protocol_SoftwareVersion_decode
 310 001e 00BF     		.text
 311              	.Letext0:
 312              		.file 2 "/usr/arm-none-eabi/include/machine/_default_types.h"
 313              		.file 3 "/usr/arm-none-eabi/include/sys/_stdint.h"
 314              		.file 4 "libcanard/canard.h"
 315              		.file 5 "libcanard/dsdl/uavcan/protocol/SoftwareVersion.h"