ARM GAS  /tmp/cclYhXuA.s 			page 1


   1              		.cpu cortex-m4
   2              		.eabi_attribute 27, 1
   3              		.eabi_attribute 28, 1
   4              		.eabi_attribute 20, 1
   5              		.eabi_attribute 21, 1
   6              		.eabi_attribute 23, 3
   7              		.eabi_attribute 24, 1
   8              		.eabi_attribute 25, 1
   9              		.eabi_attribute 26, 1
  10              		.eabi_attribute 30, 2
  11              		.eabi_attribute 34, 1
  12              		.eabi_attribute 18, 4
  13              		.file	"protocol_NodeStatus.c"
  14              		.text
  15              	.Ltext0:
  16              		.cfi_sections	.debug_frame
  17              		.section	.text.uavcan_protocol_NodeStatus_encode_internal,"ax",%progbits
  18              		.align	1
  19              		.p2align 4,,15
  20              		.global	uavcan_protocol_NodeStatus_encode_internal
  21              		.syntax unified
  22              		.thumb
  23              		.thumb_func
  24              		.fpu fpv4-sp-d16
  25              		.type	uavcan_protocol_NodeStatus_encode_internal, %function
  26              	uavcan_protocol_NodeStatus_encode_internal:
  27              	.LFB0:
  28              		.file 1 "libcanard/dsdl/uavcan/protocol/protocol_NodeStatus.c"
  29              		.loc 1 37 0
  30              		.cfi_startproc
  31              		@ args = 0, pretend = 0, frame = 0
  32              		@ frame_needed = 0, uses_anonymous_args = 0
  33              	.LVL0:
  34 0000 70B5     		push	{r4, r5, r6, lr}
  35              		.cfi_def_cfa_offset 16
  36              		.cfi_offset 4, -16
  37              		.cfi_offset 5, -12
  38              		.cfi_offset 6, -8
  39              		.cfi_offset 14, -4
  40              		.loc 1 37 0
  41 0002 0446     		mov	r4, r0
  42 0004 0E46     		mov	r6, r1
  43 0006 1546     		mov	r5, r2
  44              		.loc 1 38 0
  45 0008 0346     		mov	r3, r0
  46              	.LVL1:
  47 000a 1146     		mov	r1, r2
  48              	.LVL2:
  49 000c 3046     		mov	r0, r6
  50              	.LVL3:
  51 000e 2022     		movs	r2, #32
  52              	.LVL4:
  53 0010 FFF7FEFF 		bl	canardEncodeScalar
  54              	.LVL5:
  55              		.loc 1 41 0
  56 0014 2279     		ldrb	r2, [r4, #4]	@ zero_extendqisi2
  57 0016 2346     		mov	r3, r4
ARM GAS  /tmp/cclYhXuA.s 			page 2


  58 0018 032A     		cmp	r2, #3
  59 001a 28BF     		it	cs
  60 001c 0322     		movcs	r2, #3
  61 001e 03F8042F 		strb	r2, [r3, #4]!
  62              		.loc 1 42 0
  63 0022 05F12001 		add	r1, r5, #32
  64              	.LVL6:
  65 0026 3046     		mov	r0, r6
  66 0028 0222     		movs	r2, #2
  67 002a FFF7FEFF 		bl	canardEncodeScalar
  68              	.LVL7:
  69              		.loc 1 45 0
  70 002e 6279     		ldrb	r2, [r4, #5]	@ zero_extendqisi2
  71 0030 2346     		mov	r3, r4
  72 0032 072A     		cmp	r2, #7
  73 0034 28BF     		it	cs
  74 0036 0722     		movcs	r2, #7
  75 0038 03F8052F 		strb	r2, [r3, #5]!
  76              		.loc 1 46 0
  77 003c 05F12201 		add	r1, r5, #34
  78              	.LVL8:
  79 0040 3046     		mov	r0, r6
  80 0042 0322     		movs	r2, #3
  81 0044 FFF7FEFF 		bl	canardEncodeScalar
  82              	.LVL9:
  83              		.loc 1 49 0
  84 0048 A279     		ldrb	r2, [r4, #6]	@ zero_extendqisi2
  85 004a 2346     		mov	r3, r4
  86 004c 072A     		cmp	r2, #7
  87 004e 28BF     		it	cs
  88 0050 0722     		movcs	r2, #7
  89 0052 03F8062F 		strb	r2, [r3, #6]!
  90              		.loc 1 50 0
  91 0056 05F12501 		add	r1, r5, #37
  92              	.LVL10:
  93 005a 3046     		mov	r0, r6
  94 005c 0322     		movs	r2, #3
  95 005e FFF7FEFF 		bl	canardEncodeScalar
  96              	.LVL11:
  97              		.loc 1 53 0
  98 0062 3046     		mov	r0, r6
  99 0064 04F10803 		add	r3, r4, #8
 100 0068 05F12801 		add	r1, r5, #40
 101              	.LVL12:
 102 006c 1022     		movs	r2, #16
 103 006e FFF7FEFF 		bl	canardEncodeScalar
 104              	.LVL13:
 105              		.loc 1 57 0
 106 0072 05F13800 		add	r0, r5, #56
 107              	.LVL14:
 108 0076 70BD     		pop	{r4, r5, r6, pc}
 109              		.cfi_endproc
 110              	.LFE0:
 111              		.size	uavcan_protocol_NodeStatus_encode_internal, .-uavcan_protocol_NodeStatus_encode_internal
 112              		.section	.text.uavcan_protocol_NodeStatus_encode,"ax",%progbits
 113              		.align	1
 114              		.p2align 4,,15
ARM GAS  /tmp/cclYhXuA.s 			page 3


 115              		.global	uavcan_protocol_NodeStatus_encode
 116              		.syntax unified
 117              		.thumb
 118              		.thumb_func
 119              		.fpu fpv4-sp-d16
 120              		.type	uavcan_protocol_NodeStatus_encode, %function
 121              	uavcan_protocol_NodeStatus_encode:
 122              	.LFB1:
 123              		.loc 1 66 0
 124              		.cfi_startproc
 125              		@ args = 0, pretend = 0, frame = 0
 126              		@ frame_needed = 0, uses_anonymous_args = 0
 127              	.LVL15:
 128 0000 08B5     		push	{r3, lr}
 129              		.cfi_def_cfa_offset 8
 130              		.cfi_offset 3, -8
 131              		.cfi_offset 14, -4
 132              		.loc 1 69 0
 133 0002 0022     		movs	r2, #0
 134 0004 0123     		movs	r3, #1
 135 0006 FFF7FEFF 		bl	uavcan_protocol_NodeStatus_encode_internal
 136              	.LVL16:
 137              		.loc 1 71 0
 138 000a 0730     		adds	r0, r0, #7
 139              	.LVL17:
 140              		.loc 1 72 0
 141 000c C008     		lsrs	r0, r0, #3
 142              	.LVL18:
 143 000e 08BD     		pop	{r3, pc}
 144              		.cfi_endproc
 145              	.LFE1:
 146              		.size	uavcan_protocol_NodeStatus_encode, .-uavcan_protocol_NodeStatus_encode
 147              		.section	.text.uavcan_protocol_NodeStatus_decode_internal,"ax",%progbits
 148              		.align	1
 149              		.p2align 4,,15
 150              		.global	uavcan_protocol_NodeStatus_decode_internal
 151              		.syntax unified
 152              		.thumb
 153              		.thumb_func
 154              		.fpu fpv4-sp-d16
 155              		.type	uavcan_protocol_NodeStatus_decode_internal, %function
 156              	uavcan_protocol_NodeStatus_decode_internal:
 157              	.LFB2:
 158              		.loc 1 91 0
 159              		.cfi_startproc
 160              		@ args = 4, pretend = 0, frame = 0
 161              		@ frame_needed = 0, uses_anonymous_args = 0
 162              	.LVL19:
 163 0000 30B5     		push	{r4, r5, lr}
 164              		.cfi_def_cfa_offset 12
 165              		.cfi_offset 4, -12
 166              		.cfi_offset 5, -8
 167              		.cfi_offset 14, -4
 168 0002 83B0     		sub	sp, sp, #12
 169              		.cfi_def_cfa_offset 24
 170              		.loc 1 91 0
 171 0004 1446     		mov	r4, r2
ARM GAS  /tmp/cclYhXuA.s 			page 4


 172              		.loc 1 94 0
 173 0006 0092     		str	r2, [sp]
 174 0008 0699     		ldr	r1, [sp, #24]
 175              	.LVL20:
 176 000a 0023     		movs	r3, #0
 177              	.LVL21:
 178 000c 2022     		movs	r2, #32
 179              	.LVL22:
 180              		.loc 1 91 0
 181 000e 0546     		mov	r5, r0
 182              		.loc 1 94 0
 183 0010 FFF7FEFF 		bl	canardDecodeScalar
 184              	.LVL23:
 185              		.loc 1 95 0
 186 0014 2028     		cmp	r0, #32
 187 0016 05D0     		beq	.L10
 188              	.LVL24:
 189              	.L7:
 190              		.loc 1 131 0
 191 0018 0028     		cmp	r0, #0
 192              		.loc 1 137 0
 193 001a A8BF     		it	ge
 194 001c 6FF00800 		mvnge	r0, #8
 195              	.LVL25:
 196              	.L6:
 197              		.loc 1 139 0
 198 0020 03B0     		add	sp, sp, #12
 199              		.cfi_remember_state
 200              		.cfi_def_cfa_offset 12
 201              		@ sp needed
 202 0022 30BD     		pop	{r4, r5, pc}
 203              	.LVL26:
 204              	.L10:
 205              		.cfi_restore_state
 206              		.loc 1 101 0
 207 0024 0699     		ldr	r1, [sp, #24]
 208 0026 231D     		adds	r3, r4, #4
 209 0028 0093     		str	r3, [sp]
 210 002a 0222     		movs	r2, #2
 211 002c 0023     		movs	r3, #0
 212 002e 2031     		adds	r1, r1, #32
 213              	.LVL27:
 214 0030 2846     		mov	r0, r5
 215              	.LVL28:
 216 0032 FFF7FEFF 		bl	canardDecodeScalar
 217              	.LVL29:
 218              		.loc 1 102 0
 219 0036 0228     		cmp	r0, #2
 220 0038 EED1     		bne	.L7
 221              	.LVL30:
 222              		.loc 1 108 0
 223 003a 0699     		ldr	r1, [sp, #24]
 224 003c 631D     		adds	r3, r4, #5
 225 003e 0093     		str	r3, [sp]
 226 0040 0322     		movs	r2, #3
 227 0042 0023     		movs	r3, #0
 228 0044 2231     		adds	r1, r1, #34
ARM GAS  /tmp/cclYhXuA.s 			page 5


 229              	.LVL31:
 230 0046 2846     		mov	r0, r5
 231              	.LVL32:
 232 0048 FFF7FEFF 		bl	canardDecodeScalar
 233              	.LVL33:
 234              		.loc 1 109 0
 235 004c 0328     		cmp	r0, #3
 236 004e E3D1     		bne	.L7
 237              	.LVL34:
 238              		.loc 1 115 0
 239 0050 0699     		ldr	r1, [sp, #24]
 240 0052 A31D     		adds	r3, r4, #6
 241 0054 0246     		mov	r2, r0
 242 0056 0093     		str	r3, [sp]
 243 0058 2531     		adds	r1, r1, #37
 244              	.LVL35:
 245 005a 0023     		movs	r3, #0
 246 005c 2846     		mov	r0, r5
 247              	.LVL36:
 248 005e FFF7FEFF 		bl	canardDecodeScalar
 249              	.LVL37:
 250              		.loc 1 116 0
 251 0062 0328     		cmp	r0, #3
 252 0064 D8D1     		bne	.L7
 253              	.LVL38:
 254              		.loc 1 122 0
 255 0066 0699     		ldr	r1, [sp, #24]
 256 0068 0834     		adds	r4, r4, #8
 257              	.LVL39:
 258 006a 0094     		str	r4, [sp]
 259 006c 2846     		mov	r0, r5
 260              	.LVL40:
 261 006e 0023     		movs	r3, #0
 262 0070 1022     		movs	r2, #16
 263 0072 2831     		adds	r1, r1, #40
 264              	.LVL41:
 265 0074 FFF7FEFF 		bl	canardDecodeScalar
 266              	.LVL42:
 267              		.loc 1 123 0
 268 0078 1028     		cmp	r0, #16
 269 007a CDD1     		bne	.L7
 270              		.loc 1 127 0
 271 007c 069B     		ldr	r3, [sp, #24]
 272 007e 03F13800 		add	r0, r3, #56
 273              	.LVL43:
 274              		.loc 1 128 0
 275 0082 CDE7     		b	.L6
 276              		.cfi_endproc
 277              	.LFE2:
 278              		.size	uavcan_protocol_NodeStatus_decode_internal, .-uavcan_protocol_NodeStatus_decode_internal
 279              		.section	.text.uavcan_protocol_NodeStatus_decode,"ax",%progbits
 280              		.align	1
 281              		.p2align 4,,15
 282              		.global	uavcan_protocol_NodeStatus_decode
 283              		.syntax unified
 284              		.thumb
 285              		.thumb_func
ARM GAS  /tmp/cclYhXuA.s 			page 6


 286              		.fpu fpv4-sp-d16
 287              		.type	uavcan_protocol_NodeStatus_decode, %function
 288              	uavcan_protocol_NodeStatus_decode:
 289              	.LFB3:
 290              		.loc 1 155 0
 291              		.cfi_startproc
 292              		@ args = 0, pretend = 0, frame = 0
 293              		@ frame_needed = 0, uses_anonymous_args = 0
 294              	.LVL44:
 295 0000 70B5     		push	{r4, r5, r6, lr}
 296              		.cfi_def_cfa_offset 16
 297              		.cfi_offset 4, -16
 298              		.cfi_offset 5, -12
 299              		.cfi_offset 6, -8
 300              		.cfi_offset 14, -4
 301 0002 541E     		subs	r4, r2, #1
 302 0004 82B0     		sub	sp, sp, #8
 303              		.cfi_def_cfa_offset 24
 304 0006 02F10B06 		add	r6, r2, #11
 305              	.LBB2:
 306              		.loc 1 162 0
 307 000a 0025     		movs	r5, #0
 308              	.LVL45:
 309              	.L12:
 310              		.loc 1 162 0 is_stmt 0 discriminator 3
 311 000c 04F8015F 		strb	r5, [r4, #1]!
 312              		.loc 1 160 0 is_stmt 1 discriminator 3
 313 0010 B442     		cmp	r4, r6
 314 0012 FBD1     		bne	.L12
 315              	.LBE2:
 316              		.loc 1 165 0
 317 0014 0095     		str	r5, [sp]
 318 0016 FFF7FEFF 		bl	uavcan_protocol_NodeStatus_decode_internal
 319              	.LVL46:
 320              		.loc 1 168 0
 321 001a 02B0     		add	sp, sp, #8
 322              		.cfi_def_cfa_offset 16
 323              		@ sp needed
 324 001c 70BD     		pop	{r4, r5, r6, pc}
 325              		.cfi_endproc
 326              	.LFE3:
 327              		.size	uavcan_protocol_NodeStatus_decode, .-uavcan_protocol_NodeStatus_decode
 328 001e 00BF     		.text
 329              	.Letext0:
 330              		.file 2 "/usr/arm-none-eabi/include/machine/_default_types.h"
 331              		.file 3 "/usr/arm-none-eabi/include/sys/_stdint.h"
 332              		.file 4 "libcanard/canard.h"
 333              		.file 5 "libcanard/dsdl/uavcan/protocol/NodeStatus.h"