ARM GAS  /tmp/ccqBRpQq.s 			page 1


   1              		.cpu cortex-m4
   2              		.eabi_attribute 27, 1
   3              		.eabi_attribute 28, 1
   4              		.eabi_attribute 20, 1
   5              		.eabi_attribute 21, 1
   6              		.eabi_attribute 23, 3
   7              		.eabi_attribute 24, 1
   8              		.eabi_attribute 25, 1
   9              		.eabi_attribute 26, 1
  10              		.eabi_attribute 30, 2
  11              		.eabi_attribute 34, 1
  12              		.eabi_attribute 18, 4
  13              		.file	"protocol_GetNodeInfo.c"
  14              		.text
  15              	.Ltext0:
  16              		.cfi_sections	.debug_frame
  17              		.section	.text.uavcan_protocol_GetNodeInfoRequest_encode_internal,"ax",%progbits
  18              		.align	1
  19              		.p2align 4,,15
  20              		.global	uavcan_protocol_GetNodeInfoRequest_encode_internal
  21              		.syntax unified
  22              		.thumb
  23              		.thumb_func
  24              		.fpu fpv4-sp-d16
  25              		.type	uavcan_protocol_GetNodeInfoRequest_encode_internal, %function
  26              	uavcan_protocol_GetNodeInfoRequest_encode_internal:
  27              	.LFB0:
  28              		.file 1 "libcanard/dsdl/uavcan/protocol/protocol_GetNodeInfo.c"
  29              		.loc 1 29 0
  30              		.cfi_startproc
  31              		@ args = 0, pretend = 0, frame = 0
  32              		@ frame_needed = 0, uses_anonymous_args = 0
  33              		@ link register save eliminated.
  34              	.LVL0:
  35              		.loc 1 31 0
  36 0000 1046     		mov	r0, r2
  37              	.LVL1:
  38 0002 7047     		bx	lr
  39              		.cfi_endproc
  40              	.LFE0:
  41              		.size	uavcan_protocol_GetNodeInfoRequest_encode_internal, .-uavcan_protocol_GetNodeInfoRequest_enc
  42              		.section	.text.uavcan_protocol_GetNodeInfoRequest_encode,"ax",%progbits
  43              		.align	1
  44              		.p2align 4,,15
  45              		.global	uavcan_protocol_GetNodeInfoRequest_encode
  46              		.syntax unified
  47              		.thumb
  48              		.thumb_func
  49              		.fpu fpv4-sp-d16
  50              		.type	uavcan_protocol_GetNodeInfoRequest_encode, %function
  51              	uavcan_protocol_GetNodeInfoRequest_encode:
  52              	.LFB1:
  53              		.loc 1 34 0
  54              		.cfi_startproc
  55              		@ args = 0, pretend = 0, frame = 0
  56              		@ frame_needed = 0, uses_anonymous_args = 0
  57              		@ link register save eliminated.
ARM GAS  /tmp/ccqBRpQq.s 			page 2


  58              	.LVL2:
  59              		.loc 1 36 0
  60 0000 0020     		movs	r0, #0
  61              	.LVL3:
  62 0002 7047     		bx	lr
  63              		.cfi_endproc
  64              	.LFE1:
  65              		.size	uavcan_protocol_GetNodeInfoRequest_encode, .-uavcan_protocol_GetNodeInfoRequest_encode
  66              		.section	.text.uavcan_protocol_GetNodeInfoRequest_decode_internal,"ax",%progbits
  67              		.align	1
  68              		.p2align 4,,15
  69              		.global	uavcan_protocol_GetNodeInfoRequest_decode_internal
  70              		.syntax unified
  71              		.thumb
  72              		.thumb_func
  73              		.fpu fpv4-sp-d16
  74              		.type	uavcan_protocol_GetNodeInfoRequest_decode_internal, %function
  75              	uavcan_protocol_GetNodeInfoRequest_decode_internal:
  76              	.LFB2:
  77              		.loc 1 43 0
  78              		.cfi_startproc
  79              		@ args = 4, pretend = 0, frame = 0
  80              		@ frame_needed = 0, uses_anonymous_args = 0
  81              		@ link register save eliminated.
  82              	.LVL4:
  83              		.loc 1 45 0
  84 0000 0098     		ldr	r0, [sp]
  85              	.LVL5:
  86 0002 7047     		bx	lr
  87              		.cfi_endproc
  88              	.LFE2:
  89              		.size	uavcan_protocol_GetNodeInfoRequest_decode_internal, .-uavcan_protocol_GetNodeInfoRequest_dec
  90              		.section	.text.uavcan_protocol_GetNodeInfoRequest_decode,"ax",%progbits
  91              		.align	1
  92              		.p2align 4,,15
  93              		.global	uavcan_protocol_GetNodeInfoRequest_decode
  94              		.syntax unified
  95              		.thumb
  96              		.thumb_func
  97              		.fpu fpv4-sp-d16
  98              		.type	uavcan_protocol_GetNodeInfoRequest_decode, %function
  99              	uavcan_protocol_GetNodeInfoRequest_decode:
 100              	.LFB3:
 101              		.loc 1 51 0
 102              		.cfi_startproc
 103              		@ args = 0, pretend = 0, frame = 0
 104              		@ frame_needed = 0, uses_anonymous_args = 0
 105              		@ link register save eliminated.
 106              	.LVL6:
 107              		.loc 1 53 0
 108 0000 0020     		movs	r0, #0
 109              	.LVL7:
 110 0002 7047     		bx	lr
 111              		.cfi_endproc
 112              	.LFE3:
 113              		.size	uavcan_protocol_GetNodeInfoRequest_decode, .-uavcan_protocol_GetNodeInfoRequest_decode
 114              		.section	.text.uavcan_protocol_GetNodeInfoResponse_encode_internal,"ax",%progbits
ARM GAS  /tmp/ccqBRpQq.s 			page 3


 115              		.align	1
 116              		.p2align 4,,15
 117              		.global	uavcan_protocol_GetNodeInfoResponse_encode_internal
 118              		.syntax unified
 119              		.thumb
 120              		.thumb_func
 121              		.fpu fpv4-sp-d16
 122              		.type	uavcan_protocol_GetNodeInfoResponse_encode_internal, %function
 123              	uavcan_protocol_GetNodeInfoResponse_encode_internal:
 124              	.LFB4:
 125              		.loc 1 67 0
 126              		.cfi_startproc
 127              		@ args = 0, pretend = 0, frame = 0
 128              		@ frame_needed = 0, uses_anonymous_args = 0
 129              	.LVL8:
 130 0000 F8B5     		push	{r3, r4, r5, r6, r7, lr}
 131              		.cfi_def_cfa_offset 24
 132              		.cfi_offset 3, -24
 133              		.cfi_offset 4, -20
 134              		.cfi_offset 5, -16
 135              		.cfi_offset 6, -12
 136              		.cfi_offset 7, -8
 137              		.cfi_offset 14, -4
 138              		.loc 1 67 0
 139 0002 1C46     		mov	r4, r3
 140              		.loc 1 71 0
 141 0004 0023     		movs	r3, #0
 142              	.LVL9:
 143              		.loc 1 67 0
 144 0006 0646     		mov	r6, r0
 145 0008 0F46     		mov	r7, r1
 146              		.loc 1 71 0
 147 000a FFF7FEFF 		bl	uavcan_protocol_NodeStatus_encode_internal
 148              	.LVL10:
 149              		.loc 1 74 0
 150 000e 3946     		mov	r1, r7
 151 0010 0246     		mov	r2, r0
 152 0012 0023     		movs	r3, #0
 153 0014 06F11000 		add	r0, r6, #16
 154              	.LVL11:
 155 0018 FFF7FEFF 		bl	uavcan_protocol_SoftwareVersion_encode_internal
 156              	.LVL12:
 157              		.loc 1 77 0
 158 001c 3946     		mov	r1, r7
 159 001e 0246     		mov	r2, r0
 160 0020 0023     		movs	r3, #0
 161 0022 06F12000 		add	r0, r6, #32
 162              	.LVL13:
 163 0026 FFF7FEFF 		bl	uavcan_protocol_HardwareVersion_encode_internal
 164              	.LVL14:
 165 002a 0546     		mov	r5, r0
 166              	.LVL15:
 167              		.loc 1 80 0
 168 002c 9CB1     		cbz	r4, .L15
 169              	.LVL16:
 170              	.L7:
 171              		.loc 1 88 0 discriminator 1
ARM GAS  /tmp/ccqBRpQq.s 			page 4


 172 002e 96F83C30 		ldrb	r3, [r6, #60]	@ zero_extendqisi2
 173 0032 73B1     		cbz	r3, .L6
 174              		.loc 1 88 0 is_stmt 0
 175 0034 0024     		movs	r4, #0
 176              	.LVL17:
 177              	.L9:
 178              		.loc 1 93 0 is_stmt 1 discriminator 3
 179 0036 336C     		ldr	r3, [r6, #64]
 180              		.loc 1 90 0 discriminator 3
 181 0038 2946     		mov	r1, r5
 182 003a 2344     		add	r3, r3, r4
 183 003c 0822     		movs	r2, #8
 184 003e 3846     		mov	r0, r7
 185 0040 FFF7FEFF 		bl	canardEncodeScalar
 186              	.LVL18:
 187              		.loc 1 88 0 discriminator 3
 188 0044 96F83C30 		ldrb	r3, [r6, #60]	@ zero_extendqisi2
 189 0048 0134     		adds	r4, r4, #1
 190              	.LVL19:
 191 004a A342     		cmp	r3, r4
 192              		.loc 1 94 0 discriminator 3
 193 004c 05F10805 		add	r5, r5, #8
 194              	.LVL20:
 195              		.loc 1 88 0 discriminator 3
 196 0050 F1D8     		bhi	.L9
 197              	.LVL21:
 198              	.L6:
 199              		.loc 1 98 0
 200 0052 2846     		mov	r0, r5
 201 0054 F8BD     		pop	{r3, r4, r5, r6, r7, pc}
 202              	.LVL22:
 203              	.L15:
 204              		.loc 1 83 0
 205 0056 0146     		mov	r1, r0
 206 0058 06F13C03 		add	r3, r6, #60
 207 005c 0722     		movs	r2, #7
 208 005e 3846     		mov	r0, r7
 209              	.LVL23:
 210 0060 FFF7FEFF 		bl	canardEncodeScalar
 211              	.LVL24:
 212              		.loc 1 84 0
 213 0064 0735     		adds	r5, r5, #7
 214              	.LVL25:
 215 0066 E2E7     		b	.L7
 216              		.cfi_endproc
 217              	.LFE4:
 218              		.size	uavcan_protocol_GetNodeInfoResponse_encode_internal, .-uavcan_protocol_GetNodeInfoResponse_e
 219              		.section	.text.uavcan_protocol_GetNodeInfoResponse_encode,"ax",%progbits
 220              		.align	1
 221              		.p2align 4,,15
 222              		.global	uavcan_protocol_GetNodeInfoResponse_encode
 223              		.syntax unified
 224              		.thumb
 225              		.thumb_func
 226              		.fpu fpv4-sp-d16
 227              		.type	uavcan_protocol_GetNodeInfoResponse_encode, %function
 228              	uavcan_protocol_GetNodeInfoResponse_encode:
ARM GAS  /tmp/ccqBRpQq.s 			page 5


 229              	.LFB5:
 230              		.loc 1 107 0
 231              		.cfi_startproc
 232              		@ args = 0, pretend = 0, frame = 0
 233              		@ frame_needed = 0, uses_anonymous_args = 0
 234              	.LVL26:
 235 0000 08B5     		push	{r3, lr}
 236              		.cfi_def_cfa_offset 8
 237              		.cfi_offset 3, -8
 238              		.cfi_offset 14, -4
 239              		.loc 1 110 0
 240 0002 0022     		movs	r2, #0
 241 0004 0123     		movs	r3, #1
 242 0006 FFF7FEFF 		bl	uavcan_protocol_GetNodeInfoResponse_encode_internal
 243              	.LVL27:
 244              		.loc 1 112 0
 245 000a 0730     		adds	r0, r0, #7
 246              	.LVL28:
 247              		.loc 1 113 0
 248 000c C008     		lsrs	r0, r0, #3
 249              	.LVL29:
 250 000e 08BD     		pop	{r3, pc}
 251              		.cfi_endproc
 252              	.LFE5:
 253              		.size	uavcan_protocol_GetNodeInfoResponse_encode, .-uavcan_protocol_GetNodeInfoResponse_encode
 254              		.section	.text.uavcan_protocol_GetNodeInfoResponse_decode_internal,"ax",%progbits
 255              		.align	1
 256              		.p2align 4,,15
 257              		.global	uavcan_protocol_GetNodeInfoResponse_decode_internal
 258              		.syntax unified
 259              		.thumb
 260              		.thumb_func
 261              		.fpu fpv4-sp-d16
 262              		.type	uavcan_protocol_GetNodeInfoResponse_decode_internal, %function
 263              	uavcan_protocol_GetNodeInfoResponse_decode_internal:
 264              	.LFB6:
 265              		.loc 1 132 0
 266              		.cfi_startproc
 267              		@ args = 4, pretend = 0, frame = 0
 268              		@ frame_needed = 0, uses_anonymous_args = 0
 269              	.LVL30:
 270 0000 2DE9F043 		push	{r4, r5, r6, r7, r8, r9, lr}
 271              		.cfi_def_cfa_offset 28
 272              		.cfi_offset 4, -28
 273              		.cfi_offset 5, -24
 274              		.cfi_offset 6, -20
 275              		.cfi_offset 7, -16
 276              		.cfi_offset 8, -12
 277              		.cfi_offset 9, -8
 278              		.cfi_offset 14, -4
 279 0004 83B0     		sub	sp, sp, #12
 280              		.cfi_def_cfa_offset 40
 281              		.loc 1 132 0
 282 0006 8146     		mov	r9, r0
 283 0008 0A9C     		ldr	r4, [sp, #40]
 284              		.loc 1 137 0
 285 000a 0094     		str	r4, [sp]
ARM GAS  /tmp/ccqBRpQq.s 			page 6


 286              		.loc 1 132 0
 287 000c 0F46     		mov	r7, r1
 288 000e 1646     		mov	r6, r2
 289 0010 1D46     		mov	r5, r3
 290              		.loc 1 137 0
 291 0012 FFF7FEFF 		bl	uavcan_protocol_NodeStatus_decode_internal
 292              	.LVL31:
 293              		.loc 1 138 0
 294 0016 041E     		subs	r4, r0, #0
 295 0018 03DA     		bge	.L39
 296              	.LVL32:
 297              	.L18:
 298              		.loc 1 216 0
 299 001a 2046     		mov	r0, r4
 300 001c 03B0     		add	sp, sp, #12
 301              		.cfi_remember_state
 302              		.cfi_def_cfa_offset 28
 303              		@ sp needed
 304 001e BDE8F083 		pop	{r4, r5, r6, r7, r8, r9, pc}
 305              	.LVL33:
 306              	.L39:
 307              		.cfi_restore_state
 308              		.loc 1 145 0
 309 0022 0094     		str	r4, [sp]
 310 0024 2B46     		mov	r3, r5
 311 0026 06F11002 		add	r2, r6, #16
 312 002a 3946     		mov	r1, r7
 313 002c 4846     		mov	r0, r9
 314              	.LVL34:
 315 002e FFF7FEFF 		bl	uavcan_protocol_SoftwareVersion_decode_internal
 316              	.LVL35:
 317              		.loc 1 146 0
 318 0032 041E     		subs	r4, r0, #0
 319 0034 F1DB     		blt	.L18
 320              		.loc 1 153 0
 321 0036 0094     		str	r4, [sp]
 322 0038 2B46     		mov	r3, r5
 323 003a 06F12002 		add	r2, r6, #32
 324 003e 3946     		mov	r1, r7
 325 0040 4846     		mov	r0, r9
 326              	.LVL36:
 327 0042 FFF7FEFF 		bl	uavcan_protocol_HardwareVersion_decode_internal
 328              	.LVL37:
 329              		.loc 1 154 0
 330 0046 041E     		subs	r4, r0, #0
 331 0048 E7DB     		blt	.L18
 332              		.loc 1 162 0
 333 004a 5FB3     		cbz	r7, .L20
 334              		.loc 1 165 0
 335 004c D4EBC707 		rsbs	r7, r4, r7, lsl #3
 336 0050 48BF     		it	mi
 337 0052 0737     		addmi	r7, r7, #7
 338 0054 C7F3C707 		ubfx	r7, r7, #3, #8
 339 0058 86F83C70 		strb	r7, [r6, #60]
 340              	.LVL38:
 341              	.L22:
 342              		.loc 1 183 0
ARM GAS  /tmp/ccqBRpQq.s 			page 7


 343 005c 0DB1     		cbz	r5, .L24
 344              		.loc 1 185 0
 345 005e 2B68     		ldr	r3, [r5]
 346 0060 3364     		str	r3, [r6, #64]
 347              	.L24:
 348              		.loc 1 188 0 discriminator 1
 349 0062 002F     		cmp	r7, #0
 350 0064 D9D0     		beq	.L18
 351              		.loc 1 188 0 is_stmt 0
 352 0066 4FF00008 		mov	r8, #0
 353 006a 06E0     		b	.L26
 354              	.LVL39:
 355              	.L40:
 356              		.loc 1 201 0 is_stmt 1
 357 006c 2B68     		ldr	r3, [r5]
 358 006e 0133     		adds	r3, r3, #1
 359 0070 2B60     		str	r3, [r5]
 360              	.LVL40:
 361              	.L25:
 362              		.loc 1 188 0 discriminator 2
 363 0072 96F83C30 		ldrb	r3, [r6, #60]	@ zero_extendqisi2
 364 0076 4345     		cmp	r3, r8
 365 0078 CFD9     		bls	.L18
 366              	.LVL41:
 367              	.L26:
 368              		.loc 1 192 0
 369 007a 0822     		movs	r2, #8
 370 007c 2146     		mov	r1, r4
 371 007e 0023     		movs	r3, #0
 372 0080 4846     		mov	r0, r9
 373              		.loc 1 188 0
 374 0082 08F10108 		add	r8, r8, #1
 375              	.LVL42:
 376              		.loc 1 203 0
 377 0086 1444     		add	r4, r4, r2
 378              	.LVL43:
 379              		.loc 1 190 0
 380 0088 002D     		cmp	r5, #0
 381 008a F2D0     		beq	.L25
 382              	.LVL44:
 383              		.loc 1 192 0
 384 008c 2F68     		ldr	r7, [r5]
 385 008e 0097     		str	r7, [sp]
 386 0090 FFF7FEFF 		bl	canardDecodeScalar
 387              	.LVL45:
 388              		.loc 1 197 0
 389 0094 0828     		cmp	r0, #8
 390 0096 E9D0     		beq	.L40
 391              	.LVL46:
 392              	.L23:
 393              		.loc 1 208 0
 394 0098 0028     		cmp	r0, #0
 395 009a B4BF     		ite	lt
 396 009c 0446     		movlt	r4, r0
 397 009e 6FF00804 		mvnge	r4, #8
 398 00a2 BAE7     		b	.L18
 399              	.LVL47:
ARM GAS  /tmp/ccqBRpQq.s 			page 8


 400              	.L20:
 401              		.loc 1 174 0
 402 00a4 06F13C02 		add	r2, r6, #60
 403              		.loc 1 170 0
 404 00a8 0092     		str	r2, [sp]
 405 00aa 3B46     		mov	r3, r7
 406 00ac 0722     		movs	r2, #7
 407 00ae 2146     		mov	r1, r4
 408 00b0 4846     		mov	r0, r9
 409              	.LVL48:
 410 00b2 FFF7FEFF 		bl	canardDecodeScalar
 411              	.LVL49:
 412              		.loc 1 175 0
 413 00b6 0728     		cmp	r0, #7
 414 00b8 EED1     		bne	.L23
 415 00ba 96F83C70 		ldrb	r7, [r6, #60]	@ zero_extendqisi2
 416              		.loc 1 179 0
 417 00be 0734     		adds	r4, r4, #7
 418              	.LVL50:
 419 00c0 CCE7     		b	.L22
 420              		.cfi_endproc
 421              	.LFE6:
 422              		.size	uavcan_protocol_GetNodeInfoResponse_decode_internal, .-uavcan_protocol_GetNodeInfoResponse_d
 423 00c2 00BF     		.section	.text.uavcan_protocol_GetNodeInfoResponse_decode,"ax",%progbits
 424              		.align	1
 425              		.p2align 4,,15
 426              		.global	uavcan_protocol_GetNodeInfoResponse_decode
 427              		.syntax unified
 428              		.thumb
 429              		.thumb_func
 430              		.fpu fpv4-sp-d16
 431              		.type	uavcan_protocol_GetNodeInfoResponse_decode, %function
 432              	uavcan_protocol_GetNodeInfoResponse_decode:
 433              	.LFB7:
 434              		.loc 1 232 0
 435              		.cfi_startproc
 436              		@ args = 0, pretend = 0, frame = 0
 437              		@ frame_needed = 0, uses_anonymous_args = 0
 438              	.LVL51:
 439 0000 70B5     		push	{r4, r5, r6, lr}
 440              		.cfi_def_cfa_offset 16
 441              		.cfi_offset 4, -16
 442              		.cfi_offset 5, -12
 443              		.cfi_offset 6, -8
 444              		.cfi_offset 14, -4
 445 0002 541E     		subs	r4, r2, #1
 446 0004 82B0     		sub	sp, sp, #8
 447              		.cfi_def_cfa_offset 24
 448 0006 02F14706 		add	r6, r2, #71
 449              	.LBB2:
 450              		.loc 1 239 0
 451 000a 0025     		movs	r5, #0
 452              	.LVL52:
 453              	.L42:
 454              		.loc 1 239 0 is_stmt 0 discriminator 3
 455 000c 04F8015F 		strb	r5, [r4, #1]!
 456              		.loc 1 237 0 is_stmt 1 discriminator 3
ARM GAS  /tmp/ccqBRpQq.s 			page 9


 457 0010 B442     		cmp	r4, r6
 458 0012 FBD1     		bne	.L42
 459              	.LBE2:
 460              		.loc 1 242 0
 461 0014 0095     		str	r5, [sp]
 462 0016 FFF7FEFF 		bl	uavcan_protocol_GetNodeInfoResponse_decode_internal
 463              	.LVL53:
 464              		.loc 1 245 0
 465 001a 02B0     		add	sp, sp, #8
 466              		.cfi_def_cfa_offset 16
 467              		@ sp needed
 468 001c 70BD     		pop	{r4, r5, r6, pc}
 469              		.cfi_endproc
 470              	.LFE7:
 471              		.size	uavcan_protocol_GetNodeInfoResponse_decode, .-uavcan_protocol_GetNodeInfoResponse_decode
 472 001e 00BF     		.text
 473              	.Letext0:
 474              		.file 2 "/usr/arm-none-eabi/include/machine/_default_types.h"
 475              		.file 3 "/usr/arm-none-eabi/include/sys/_stdint.h"
 476              		.file 4 "libcanard/canard.h"
 477              		.file 5 "libcanard/dsdl/uavcan/protocol/HardwareVersion.h"
 478              		.file 6 "libcanard/dsdl/uavcan/protocol/NodeStatus.h"
 479              		.file 7 "libcanard/dsdl/uavcan/protocol/SoftwareVersion.h"
 480              		.file 8 "libcanard/dsdl/uavcan/protocol/GetNodeInfo.h"