ARM GAS  /tmp/ccj9F9Kr.s 			page 1


   1              		.cpu cortex-m4
   2              		.eabi_attribute 27, 1
   3              		.eabi_attribute 28, 1
   4              		.eabi_attribute 20, 1
   5              		.eabi_attribute 21, 1
   6              		.eabi_attribute 23, 3
   7              		.eabi_attribute 24, 1
   8              		.eabi_attribute 25, 1
   9              		.eabi_attribute 26, 1
  10              		.eabi_attribute 30, 2
  11              		.eabi_attribute 34, 1
  12              		.eabi_attribute 18, 4
  13              		.file	"protocol_HardwareVersion.c"
  14              		.text
  15              	.Ltext0:
  16              		.cfi_sections	.debug_frame
  17              		.section	.text.uavcan_protocol_HardwareVersion_encode_internal,"ax",%progbits
  18              		.align	1
  19              		.p2align 4,,15
  20              		.global	uavcan_protocol_HardwareVersion_encode_internal
  21              		.syntax unified
  22              		.thumb
  23              		.thumb_func
  24              		.fpu fpv4-sp-d16
  25              		.type	uavcan_protocol_HardwareVersion_encode_internal, %function
  26              	uavcan_protocol_HardwareVersion_encode_internal:
  27              	.LFB0:
  28              		.file 1 "libcanard/dsdl/uavcan/protocol/protocol_HardwareVersion.c"
  29              		.loc 1 37 0
  30              		.cfi_startproc
  31              		@ args = 0, pretend = 0, frame = 0
  32              		@ frame_needed = 0, uses_anonymous_args = 0
  33              	.LVL0:
  34 0000 2DE9F047 		push	{r4, r5, r6, r7, r8, r9, r10, lr}
  35              		.cfi_def_cfa_offset 32
  36              		.cfi_offset 4, -32
  37              		.cfi_offset 5, -28
  38              		.cfi_offset 6, -24
  39              		.cfi_offset 7, -20
  40              		.cfi_offset 8, -16
  41              		.cfi_offset 9, -12
  42              		.cfi_offset 10, -8
  43              		.cfi_offset 14, -4
  44              		.loc 1 37 0
  45 0004 0F46     		mov	r7, r1
  46 0006 9146     		mov	r9, r2
  47 0008 8046     		mov	r8, r0
  48              		.loc 1 40 0
  49 000a 1146     		mov	r1, r2
  50              	.LVL1:
  51              		.loc 1 37 0
  52 000c 9A46     		mov	r10, r3
  53              		.loc 1 40 0
  54 000e 0822     		movs	r2, #8
  55              	.LVL2:
  56 0010 0346     		mov	r3, r0
  57              	.LVL3:
ARM GAS  /tmp/ccj9F9Kr.s 			page 2


  58 0012 3846     		mov	r0, r7
  59              	.LVL4:
  60 0014 FFF7FEFF 		bl	canardEncodeScalar
  61              	.LVL5:
  62              		.loc 1 43 0
  63 0018 08F10103 		add	r3, r8, #1
  64 001c 09F10801 		add	r1, r9, #8
  65              	.LVL6:
  66 0020 3846     		mov	r0, r7
  67 0022 0822     		movs	r2, #8
  68 0024 FFF7FEFF 		bl	canardEncodeScalar
  69              	.LVL7:
  70              		.loc 1 44 0
  71 0028 09F11004 		add	r4, r9, #16
  72              	.LVL8:
  73 002c 08F10205 		add	r5, r8, #2
  74 0030 09F19006 		add	r6, r9, #144
  75              	.LVL9:
  76              	.L2:
  77              		.loc 1 49 0 discriminator 3
  78 0034 0822     		movs	r2, #8
  79 0036 2B46     		mov	r3, r5
  80 0038 2146     		mov	r1, r4
  81 003a 3846     		mov	r0, r7
  82              		.loc 1 50 0 discriminator 3
  83 003c 1444     		add	r4, r4, r2
  84              	.LVL10:
  85              		.loc 1 49 0 discriminator 3
  86 003e FFF7FEFF 		bl	canardEncodeScalar
  87              	.LVL11:
  88              		.loc 1 47 0 discriminator 3
  89 0042 A642     		cmp	r6, r4
  90 0044 05F10105 		add	r5, r5, #1
  91 0048 F4D1     		bne	.L2
  92              		.loc 1 54 0
  93 004a BAF1000F 		cmp	r10, #0
  94 004e 15D0     		beq	.L13
  95              	.LVL12:
  96              	.L3:
  97              		.loc 1 62 0 discriminator 1
  98 0050 98F81430 		ldrb	r3, [r8, #20]	@ zero_extendqisi2
  99 0054 7BB1     		cbz	r3, .L1
 100              		.loc 1 62 0 is_stmt 0
 101 0056 0025     		movs	r5, #0
 102              	.LVL13:
 103              	.L5:
 104              		.loc 1 67 0 is_stmt 1 discriminator 3
 105 0058 D8F81830 		ldr	r3, [r8, #24]
 106              		.loc 1 64 0 discriminator 3
 107 005c 3146     		mov	r1, r6
 108 005e 2B44     		add	r3, r3, r5
 109 0060 0822     		movs	r2, #8
 110 0062 3846     		mov	r0, r7
 111 0064 FFF7FEFF 		bl	canardEncodeScalar
 112              	.LVL14:
 113              		.loc 1 62 0 discriminator 3
 114 0068 98F81430 		ldrb	r3, [r8, #20]	@ zero_extendqisi2
ARM GAS  /tmp/ccj9F9Kr.s 			page 3


 115 006c 0135     		adds	r5, r5, #1
 116              	.LVL15:
 117 006e AB42     		cmp	r3, r5
 118              		.loc 1 68 0 discriminator 3
 119 0070 06F10806 		add	r6, r6, #8
 120              	.LVL16:
 121              		.loc 1 62 0 discriminator 3
 122 0074 F0D8     		bhi	.L5
 123              	.LVL17:
 124              	.L1:
 125              		.loc 1 72 0
 126 0076 3046     		mov	r0, r6
 127 0078 BDE8F087 		pop	{r4, r5, r6, r7, r8, r9, r10, pc}
 128              	.LVL18:
 129              	.L13:
 130              		.loc 1 57 0
 131 007c 3146     		mov	r1, r6
 132 007e 08F11403 		add	r3, r8, #20
 133 0082 0822     		movs	r2, #8
 134 0084 3846     		mov	r0, r7
 135 0086 FFF7FEFF 		bl	canardEncodeScalar
 136              	.LVL19:
 137              		.loc 1 58 0
 138 008a 09F19806 		add	r6, r9, #152
 139              	.LVL20:
 140 008e DFE7     		b	.L3
 141              		.cfi_endproc
 142              	.LFE0:
 143              		.size	uavcan_protocol_HardwareVersion_encode_internal, .-uavcan_protocol_HardwareVersion_encode_in
 144              		.section	.text.uavcan_protocol_HardwareVersion_encode,"ax",%progbits
 145              		.align	1
 146              		.p2align 4,,15
 147              		.global	uavcan_protocol_HardwareVersion_encode
 148              		.syntax unified
 149              		.thumb
 150              		.thumb_func
 151              		.fpu fpv4-sp-d16
 152              		.type	uavcan_protocol_HardwareVersion_encode, %function
 153              	uavcan_protocol_HardwareVersion_encode:
 154              	.LFB1:
 155              		.loc 1 81 0
 156              		.cfi_startproc
 157              		@ args = 0, pretend = 0, frame = 0
 158              		@ frame_needed = 0, uses_anonymous_args = 0
 159              	.LVL21:
 160 0000 08B5     		push	{r3, lr}
 161              		.cfi_def_cfa_offset 8
 162              		.cfi_offset 3, -8
 163              		.cfi_offset 14, -4
 164              		.loc 1 84 0
 165 0002 0022     		movs	r2, #0
 166 0004 0123     		movs	r3, #1
 167 0006 FFF7FEFF 		bl	uavcan_protocol_HardwareVersion_encode_internal
 168              	.LVL22:
 169              		.loc 1 86 0
 170 000a 0730     		adds	r0, r0, #7
 171              	.LVL23:
ARM GAS  /tmp/ccj9F9Kr.s 			page 4


 172              		.loc 1 87 0
 173 000c C008     		lsrs	r0, r0, #3
 174              	.LVL24:
 175 000e 08BD     		pop	{r3, pc}
 176              		.cfi_endproc
 177              	.LFE1:
 178              		.size	uavcan_protocol_HardwareVersion_encode, .-uavcan_protocol_HardwareVersion_encode
 179              		.section	.text.uavcan_protocol_HardwareVersion_decode_internal,"ax",%progbits
 180              		.align	1
 181              		.p2align 4,,15
 182              		.global	uavcan_protocol_HardwareVersion_decode_internal
 183              		.syntax unified
 184              		.thumb
 185              		.thumb_func
 186              		.fpu fpv4-sp-d16
 187              		.type	uavcan_protocol_HardwareVersion_decode_internal, %function
 188              	uavcan_protocol_HardwareVersion_decode_internal:
 189              	.LFB2:
 190              		.loc 1 106 0
 191              		.cfi_startproc
 192              		@ args = 4, pretend = 0, frame = 0
 193              		@ frame_needed = 0, uses_anonymous_args = 0
 194              	.LVL25:
 195 0000 2DE9F04F 		push	{r4, r5, r6, r7, r8, r9, r10, fp, lr}
 196              		.cfi_def_cfa_offset 36
 197              		.cfi_offset 4, -36
 198              		.cfi_offset 5, -32
 199              		.cfi_offset 6, -28
 200              		.cfi_offset 7, -24
 201              		.cfi_offset 8, -20
 202              		.cfi_offset 9, -16
 203              		.cfi_offset 10, -12
 204              		.cfi_offset 11, -8
 205              		.cfi_offset 14, -4
 206 0004 83B0     		sub	sp, sp, #12
 207              		.cfi_def_cfa_offset 48
 208              		.loc 1 106 0
 209 0006 1646     		mov	r6, r2
 210              		.loc 1 110 0
 211 0008 0092     		str	r2, [sp]
 212              		.loc 1 106 0
 213 000a 8B46     		mov	fp, r1
 214 000c 9946     		mov	r9, r3
 215              		.loc 1 110 0
 216 000e 0C99     		ldr	r1, [sp, #48]
 217              	.LVL26:
 218 0010 0023     		movs	r3, #0
 219              	.LVL27:
 220 0012 0822     		movs	r2, #8
 221              	.LVL28:
 222              		.loc 1 106 0
 223 0014 0746     		mov	r7, r0
 224              		.loc 1 110 0
 225 0016 FFF7FEFF 		bl	canardDecodeScalar
 226              	.LVL29:
 227              		.loc 1 111 0
 228 001a 0828     		cmp	r0, #8
ARM GAS  /tmp/ccj9F9Kr.s 			page 5


 229              		.loc 1 110 0
 230 001c 0446     		mov	r4, r0
 231              	.LVL30:
 232              		.loc 1 111 0
 233 001e 07D0     		beq	.L40
 234              	.LVL31:
 235              	.L17:
 236              		.loc 1 189 0
 237 0020 002C     		cmp	r4, #0
 238 0022 A8BF     		it	ge
 239 0024 6FF00804 		mvnge	r4, #8
 240              	.LVL32:
 241              	.L16:
 242              		.loc 1 191 0
 243 0028 2046     		mov	r0, r4
 244 002a 03B0     		add	sp, sp, #12
 245              		.cfi_remember_state
 246              		.cfi_def_cfa_offset 36
 247              		@ sp needed
 248 002c BDE8F08F 		pop	{r4, r5, r6, r7, r8, r9, r10, fp, pc}
 249              	.LVL33:
 250              	.L40:
 251              		.cfi_restore_state
 252              		.loc 1 117 0
 253 0030 0C99     		ldr	r1, [sp, #48]
 254 0032 731C     		adds	r3, r6, #1
 255 0034 0246     		mov	r2, r0
 256 0036 0093     		str	r3, [sp]
 257 0038 0831     		adds	r1, r1, #8
 258              	.LVL34:
 259 003a 0023     		movs	r3, #0
 260 003c 3846     		mov	r0, r7
 261              	.LVL35:
 262 003e FFF7FEFF 		bl	canardDecodeScalar
 263              	.LVL36:
 264              		.loc 1 118 0
 265 0042 0828     		cmp	r0, #8
 266              		.loc 1 117 0
 267 0044 0446     		mov	r4, r0
 268              	.LVL37:
 269              		.loc 1 118 0
 270 0046 EBD1     		bne	.L17
 271              		.loc 1 122 0
 272 0048 0C9B     		ldr	r3, [sp, #48]
 273 004a 06F10208 		add	r8, r6, #2
 274 004e 03F1100A 		add	r10, r3, #16
 275              	.LVL38:
 276 0052 03F19005 		add	r5, r3, #144
 277 0056 00E0     		b	.L18
 278              	.LVL39:
 279              	.L26:
 280 0058 A246     		mov	r10, r4
 281              	.LVL40:
 282              	.L18:
 283              		.loc 1 127 0
 284 005a CDF80080 		str	r8, [sp]
 285 005e 0023     		movs	r3, #0
ARM GAS  /tmp/ccj9F9Kr.s 			page 6


 286 0060 0822     		movs	r2, #8
 287 0062 5146     		mov	r1, r10
 288 0064 3846     		mov	r0, r7
 289              	.LVL41:
 290 0066 FFF7FEFF 		bl	canardDecodeScalar
 291              	.LVL42:
 292              		.loc 1 128 0
 293 006a 0828     		cmp	r0, #8
 294              		.loc 1 127 0
 295 006c 0446     		mov	r4, r0
 296              	.LVL43:
 297 006e 08F10108 		add	r8, r8, #1
 298              	.LVL44:
 299              		.loc 1 128 0
 300 0072 D5D1     		bne	.L17
 301              		.loc 1 132 0 discriminator 2
 302 0074 0AF10804 		add	r4, r10, #8
 303              	.LVL45:
 304              		.loc 1 125 0 discriminator 2
 305 0078 AC42     		cmp	r4, r5
 306 007a EDD1     		bne	.L26
 307              		.loc 1 137 0
 308 007c BBF1000F 		cmp	fp, #0
 309 0080 2CD0     		beq	.L19
 310              		.loc 1 140 0
 311 0082 D5EBCB05 		rsbs	r5, r5, fp, lsl #3
 312 0086 48BF     		it	mi
 313 0088 0735     		addmi	r5, r5, #7
 314 008a C5F3C705 		ubfx	r5, r5, #3, #8
 315 008e 3575     		strb	r5, [r6, #20]
 316              	.L21:
 317              		.loc 1 158 0
 318 0090 B9F1000F 		cmp	r9, #0
 319 0094 02D0     		beq	.L22
 320              		.loc 1 160 0
 321 0096 D9F80030 		ldr	r3, [r9]
 322 009a B361     		str	r3, [r6, #24]
 323              	.L22:
 324              	.LVL46:
 325              		.loc 1 163 0 discriminator 1
 326 009c 002D     		cmp	r5, #0
 327 009e C3D0     		beq	.L16
 328              		.loc 1 163 0 is_stmt 0
 329 00a0 4FF00008 		mov	r8, #0
 330 00a4 07E0     		b	.L25
 331              	.LVL47:
 332              	.L41:
 333              		.loc 1 176 0 is_stmt 1
 334 00a6 D9F80030 		ldr	r3, [r9]
 335 00aa 0133     		adds	r3, r3, #1
 336 00ac C9F80030 		str	r3, [r9]
 337              	.LVL48:
 338              	.L24:
 339              		.loc 1 163 0 discriminator 2
 340 00b0 337D     		ldrb	r3, [r6, #20]	@ zero_extendqisi2
 341 00b2 4345     		cmp	r3, r8
 342 00b4 B8D9     		bls	.L16
ARM GAS  /tmp/ccj9F9Kr.s 			page 7


 343              	.LVL49:
 344              	.L25:
 345              		.loc 1 167 0
 346 00b6 0822     		movs	r2, #8
 347 00b8 2146     		mov	r1, r4
 348 00ba 0023     		movs	r3, #0
 349 00bc 3846     		mov	r0, r7
 350              		.loc 1 163 0
 351 00be 08F10108 		add	r8, r8, #1
 352              	.LVL50:
 353              		.loc 1 178 0
 354 00c2 1444     		add	r4, r4, r2
 355              	.LVL51:
 356              		.loc 1 165 0
 357 00c4 B9F1000F 		cmp	r9, #0
 358 00c8 F2D0     		beq	.L24
 359              	.LVL52:
 360              		.loc 1 167 0
 361 00ca D9F80050 		ldr	r5, [r9]
 362 00ce 0095     		str	r5, [sp]
 363 00d0 FFF7FEFF 		bl	canardDecodeScalar
 364              	.LVL53:
 365              		.loc 1 172 0
 366 00d4 0828     		cmp	r0, #8
 367 00d6 E6D0     		beq	.L41
 368              		.loc 1 182 0
 369 00d8 0446     		mov	r4, r0
 370              	.LVL54:
 371 00da A1E7     		b	.L17
 372              	.LVL55:
 373              	.L19:
 374              		.loc 1 149 0
 375 00dc 06F11404 		add	r4, r6, #20
 376              	.LVL56:
 377              		.loc 1 145 0
 378 00e0 0246     		mov	r2, r0
 379 00e2 0094     		str	r4, [sp]
 380 00e4 5B46     		mov	r3, fp
 381 00e6 2946     		mov	r1, r5
 382 00e8 3846     		mov	r0, r7
 383              	.LVL57:
 384 00ea FFF7FEFF 		bl	canardDecodeScalar
 385              	.LVL58:
 386              		.loc 1 150 0
 387 00ee 0828     		cmp	r0, #8
 388              		.loc 1 145 0
 389 00f0 0446     		mov	r4, r0
 390              	.LVL59:
 391              		.loc 1 150 0
 392 00f2 95D1     		bne	.L17
 393 00f4 357D     		ldrb	r5, [r6, #20]	@ zero_extendqisi2
 394              		.loc 1 154 0
 395 00f6 0AF11004 		add	r4, r10, #16
 396              	.LVL60:
 397 00fa C9E7     		b	.L21
 398              		.cfi_endproc
 399              	.LFE2:
ARM GAS  /tmp/ccj9F9Kr.s 			page 8


 400              		.size	uavcan_protocol_HardwareVersion_decode_internal, .-uavcan_protocol_HardwareVersion_decode_in
 401              		.section	.text.uavcan_protocol_HardwareVersion_decode,"ax",%progbits
 402              		.align	1
 403              		.p2align 4,,15
 404              		.global	uavcan_protocol_HardwareVersion_decode
 405              		.syntax unified
 406              		.thumb
 407              		.thumb_func
 408              		.fpu fpv4-sp-d16
 409              		.type	uavcan_protocol_HardwareVersion_decode, %function
 410              	uavcan_protocol_HardwareVersion_decode:
 411              	.LFB3:
 412              		.loc 1 207 0
 413              		.cfi_startproc
 414              		@ args = 0, pretend = 0, frame = 0
 415              		@ frame_needed = 0, uses_anonymous_args = 0
 416              	.LVL61:
 417 0000 70B5     		push	{r4, r5, r6, lr}
 418              		.cfi_def_cfa_offset 16
 419              		.cfi_offset 4, -16
 420              		.cfi_offset 5, -12
 421              		.cfi_offset 6, -8
 422              		.cfi_offset 14, -4
 423 0002 541E     		subs	r4, r2, #1
 424 0004 82B0     		sub	sp, sp, #8
 425              		.cfi_def_cfa_offset 24
 426 0006 02F11B06 		add	r6, r2, #27
 427              	.LBB2:
 428              		.loc 1 214 0
 429 000a 0025     		movs	r5, #0
 430              	.LVL62:
 431              	.L43:
 432              		.loc 1 214 0 is_stmt 0 discriminator 3
 433 000c 04F8015F 		strb	r5, [r4, #1]!
 434              		.loc 1 212 0 is_stmt 1 discriminator 3
 435 0010 B442     		cmp	r4, r6
 436 0012 FBD1     		bne	.L43
 437              	.LBE2:
 438              		.loc 1 217 0
 439 0014 0095     		str	r5, [sp]
 440 0016 FFF7FEFF 		bl	uavcan_protocol_HardwareVersion_decode_internal
 441              	.LVL63:
 442              		.loc 1 220 0
 443 001a 02B0     		add	sp, sp, #8
 444              		.cfi_def_cfa_offset 16
 445              		@ sp needed
 446 001c 70BD     		pop	{r4, r5, r6, pc}
 447              		.cfi_endproc
 448              	.LFE3:
 449              		.size	uavcan_protocol_HardwareVersion_decode, .-uavcan_protocol_HardwareVersion_decode
 450 001e 00BF     		.text
 451              	.Letext0:
 452              		.file 2 "/usr/arm-none-eabi/include/machine/_default_types.h"
 453              		.file 3 "/usr/arm-none-eabi/include/sys/_stdint.h"
 454              		.file 4 "libcanard/canard.h"
 455              		.file 5 "libcanard/dsdl/uavcan/protocol/HardwareVersion.h"