ARM GAS  /tmp/ccvTjNA2.s 			page 1


   1              		.cpu cortex-m4
   2              		.eabi_attribute 27, 1
   3              		.eabi_attribute 28, 1
   4              		.eabi_attribute 20, 1
   5              		.eabi_attribute 21, 1
   6              		.eabi_attribute 23, 3
   7              		.eabi_attribute 24, 1
   8              		.eabi_attribute 25, 1
   9              		.eabi_attribute 26, 1
  10              		.eabi_attribute 30, 2
  11              		.eabi_attribute 34, 1
  12              		.eabi_attribute 18, 4
  13              		.file	"rf.c"
  14              		.text
  15              	.Ltext0:
  16              		.cfi_sections	.debug_frame
  17              		.section	.text.rf_init,"ax",%progbits
  18              		.align	1
  19              		.p2align 4,,15
  20              		.global	rf_init
  21              		.syntax unified
  22              		.thumb
  23              		.thumb_func
  24              		.fpu fpv4-sp-d16
  25              		.type	rf_init, %function
  26              	rf_init:
  27              	.LFB256:
  28              		.file 1 "nrf/rf.c"
  29              		.loc 1 25 0
  30              		.cfi_startproc
  31              		@ args = 0, pretend = 0, frame = 0
  32              		@ frame_needed = 0, uses_anonymous_args = 0
  33              		@ link register save eliminated.
  34              		.loc 1 26 0
  35 0000 FFF7FEBF 		b	spi_sw_init
  36              	.LVL0:
  37              		.cfi_endproc
  38              	.LFE256:
  39              		.size	rf_init, .-rf_init
  40              		.section	.text.rf_stop,"ax",%progbits
  41              		.align	1
  42              		.p2align 4,,15
  43              		.global	rf_stop
  44              		.syntax unified
  45              		.thumb
  46              		.thumb_func
  47              		.fpu fpv4-sp-d16
  48              		.type	rf_stop, %function
  49              	rf_stop:
  50              	.LFB257:
  51              		.loc 1 29 0
  52              		.cfi_startproc
  53              		@ args = 0, pretend = 0, frame = 0
  54              		@ frame_needed = 0, uses_anonymous_args = 0
  55              		@ link register save eliminated.
  56              		.loc 1 30 0
  57 0000 FFF7FEBF 		b	spi_sw_stop
ARM GAS  /tmp/ccvTjNA2.s 			page 2


  58              	.LVL1:
  59              		.cfi_endproc
  60              	.LFE257:
  61              		.size	rf_stop, .-rf_stop
  62              		.section	.text.rf_write_tx_payload,"ax",%progbits
  63              		.align	1
  64              		.p2align 4,,15
  65              		.global	rf_write_tx_payload
  66              		.syntax unified
  67              		.thumb
  68              		.thumb_func
  69              		.fpu fpv4-sp-d16
  70              		.type	rf_write_tx_payload, %function
  71              	rf_write_tx_payload:
  72              	.LFB266:
  73              		.loc 1 145 0
  74              		.cfi_startproc
  75              		@ args = 0, pretend = 0, frame = 8
  76              		@ frame_needed = 0, uses_anonymous_args = 0
  77              	.LVL2:
  78 0000 70B5     		push	{r4, r5, r6, lr}
  79              		.cfi_def_cfa_offset 16
  80              		.cfi_offset 4, -16
  81              		.cfi_offset 5, -12
  82              		.cfi_offset 6, -8
  83              		.cfi_offset 14, -4
  84 0002 82B0     		sub	sp, sp, #8
  85              		.cfi_def_cfa_offset 24
  86              		.loc 1 146 0
  87 0004 02AC     		add	r4, sp, #8
  88 0006 A023     		movs	r3, #160
  89 0008 04F8013D 		strb	r3, [r4, #-1]!
  90              		.loc 1 145 0
  91 000c 0546     		mov	r5, r0
  92 000e 0E46     		mov	r6, r1
  93              		.loc 1 147 0
  94 0010 FFF7FEFF 		bl	spi_sw_begin
  95              	.LVL3:
  96              		.loc 1 148 0
  97 0014 2146     		mov	r1, r4
  98 0016 0122     		movs	r2, #1
  99 0018 0020     		movs	r0, #0
 100 001a FFF7FEFF 		bl	spi_sw_transfer
 101              	.LVL4:
 102              		.loc 1 149 0
 103 001e 3246     		mov	r2, r6
 104 0020 2946     		mov	r1, r5
 105 0022 0020     		movs	r0, #0
 106 0024 FFF7FEFF 		bl	spi_sw_transfer
 107              	.LVL5:
 108              		.loc 1 150 0
 109 0028 FFF7FEFF 		bl	spi_sw_end
 110              	.LVL6:
 111              		.loc 1 152 0
 112 002c 02B0     		add	sp, sp, #8
 113              		.cfi_def_cfa_offset 16
 114              		@ sp needed
ARM GAS  /tmp/ccvTjNA2.s 			page 3


 115 002e 70BD     		pop	{r4, r5, r6, pc}
 116              		.cfi_endproc
 117              	.LFE266:
 118              		.size	rf_write_tx_payload, .-rf_write_tx_payload
 119              		.section	.text.rf_write_tx_payload_no_ack,"ax",%progbits
 120              		.align	1
 121              		.p2align 4,,15
 122              		.global	rf_write_tx_payload_no_ack
 123              		.syntax unified
 124              		.thumb
 125              		.thumb_func
 126              		.fpu fpv4-sp-d16
 127              		.type	rf_write_tx_payload_no_ack, %function
 128              	rf_write_tx_payload_no_ack:
 129              	.LFB267:
 130              		.loc 1 155 0
 131              		.cfi_startproc
 132              		@ args = 0, pretend = 0, frame = 8
 133              		@ frame_needed = 0, uses_anonymous_args = 0
 134              	.LVL7:
 135 0000 70B5     		push	{r4, r5, r6, lr}
 136              		.cfi_def_cfa_offset 16
 137              		.cfi_offset 4, -16
 138              		.cfi_offset 5, -12
 139              		.cfi_offset 6, -8
 140              		.cfi_offset 14, -4
 141 0002 82B0     		sub	sp, sp, #8
 142              		.cfi_def_cfa_offset 24
 143              		.loc 1 156 0
 144 0004 02AC     		add	r4, sp, #8
 145 0006 B023     		movs	r3, #176
 146 0008 04F8013D 		strb	r3, [r4, #-1]!
 147              		.loc 1 155 0
 148 000c 0546     		mov	r5, r0
 149 000e 0E46     		mov	r6, r1
 150              		.loc 1 157 0
 151 0010 FFF7FEFF 		bl	spi_sw_begin
 152              	.LVL8:
 153              		.loc 1 158 0
 154 0014 2146     		mov	r1, r4
 155 0016 0122     		movs	r2, #1
 156 0018 0020     		movs	r0, #0
 157 001a FFF7FEFF 		bl	spi_sw_transfer
 158              	.LVL9:
 159              		.loc 1 159 0
 160 001e 3246     		mov	r2, r6
 161 0020 2946     		mov	r1, r5
 162 0022 0020     		movs	r0, #0
 163 0024 FFF7FEFF 		bl	spi_sw_transfer
 164              	.LVL10:
 165              		.loc 1 160 0
 166 0028 FFF7FEFF 		bl	spi_sw_end
 167              	.LVL11:
 168              		.loc 1 162 0
 169 002c 02B0     		add	sp, sp, #8
 170              		.cfi_def_cfa_offset 16
 171              		@ sp needed
ARM GAS  /tmp/ccvTjNA2.s 			page 4


 172 002e 70BD     		pop	{r4, r5, r6, pc}
 173              		.cfi_endproc
 174              	.LFE267:
 175              		.size	rf_write_tx_payload_no_ack, .-rf_write_tx_payload_no_ack
 176              		.section	.text.rf_write_ack_payload,"ax",%progbits
 177              		.align	1
 178              		.p2align 4,,15
 179              		.global	rf_write_ack_payload
 180              		.syntax unified
 181              		.thumb
 182              		.thumb_func
 183              		.fpu fpv4-sp-d16
 184              		.type	rf_write_ack_payload, %function
 185              	rf_write_ack_payload:
 186              	.LFB268:
 187              		.loc 1 165 0
 188              		.cfi_startproc
 189              		@ args = 0, pretend = 0, frame = 8
 190              		@ frame_needed = 0, uses_anonymous_args = 0
 191              	.LVL12:
 192 0000 70B5     		push	{r4, r5, r6, lr}
 193              		.cfi_def_cfa_offset 16
 194              		.cfi_offset 4, -16
 195              		.cfi_offset 5, -12
 196              		.cfi_offset 6, -8
 197              		.cfi_offset 14, -4
 198 0002 82B0     		sub	sp, sp, #8
 199              		.cfi_def_cfa_offset 24
 200              		.loc 1 166 0
 201 0004 02AC     		add	r4, sp, #8
 202 0006 00F00700 		and	r0, r0, #7
 203              	.LVL13:
 204 000a 60F05700 		orn	r0, r0, #87
 205 000e 04F8010D 		strb	r0, [r4, #-1]!
 206              		.loc 1 165 0
 207 0012 0D46     		mov	r5, r1
 208 0014 1646     		mov	r6, r2
 209              		.loc 1 167 0
 210 0016 FFF7FEFF 		bl	spi_sw_begin
 211              	.LVL14:
 212              		.loc 1 168 0
 213 001a 2146     		mov	r1, r4
 214 001c 0122     		movs	r2, #1
 215 001e 0020     		movs	r0, #0
 216 0020 FFF7FEFF 		bl	spi_sw_transfer
 217              	.LVL15:
 218              		.loc 1 169 0
 219 0024 3246     		mov	r2, r6
 220 0026 2946     		mov	r1, r5
 221 0028 0020     		movs	r0, #0
 222 002a FFF7FEFF 		bl	spi_sw_transfer
 223              	.LVL16:
 224              		.loc 1 170 0
 225 002e FFF7FEFF 		bl	spi_sw_end
 226              	.LVL17:
 227              		.loc 1 172 0
 228 0032 02B0     		add	sp, sp, #8
ARM GAS  /tmp/ccvTjNA2.s 			page 5


 229              		.cfi_def_cfa_offset 16
 230              		@ sp needed
 231 0034 70BD     		pop	{r4, r5, r6, pc}
 232              		.cfi_endproc
 233              	.LFE268:
 234              		.size	rf_write_ack_payload, .-rf_write_ack_payload
 235 0036 00BF     		.section	.text.rf_read_rx_payload,"ax",%progbits
 236              		.align	1
 237              		.p2align 4,,15
 238              		.global	rf_read_rx_payload
 239              		.syntax unified
 240              		.thumb
 241              		.thumb_func
 242              		.fpu fpv4-sp-d16
 243              		.type	rf_read_rx_payload, %function
 244              	rf_read_rx_payload:
 245              	.LFB269:
 246              		.loc 1 175 0
 247              		.cfi_startproc
 248              		@ args = 0, pretend = 0, frame = 8
 249              		@ frame_needed = 0, uses_anonymous_args = 0
 250              	.LVL18:
 251 0000 70B5     		push	{r4, r5, r6, lr}
 252              		.cfi_def_cfa_offset 16
 253              		.cfi_offset 4, -16
 254              		.cfi_offset 5, -12
 255              		.cfi_offset 6, -8
 256              		.cfi_offset 14, -4
 257 0002 82B0     		sub	sp, sp, #8
 258              		.cfi_def_cfa_offset 24
 259              		.loc 1 176 0
 260 0004 02AC     		add	r4, sp, #8
 261 0006 6123     		movs	r3, #97
 262 0008 04F8013D 		strb	r3, [r4, #-1]!
 263              		.loc 1 175 0
 264 000c 0546     		mov	r5, r0
 265 000e 0E46     		mov	r6, r1
 266              		.loc 1 177 0
 267 0010 FFF7FEFF 		bl	spi_sw_begin
 268              	.LVL19:
 269              		.loc 1 178 0
 270 0014 2146     		mov	r1, r4
 271 0016 0122     		movs	r2, #1
 272 0018 0020     		movs	r0, #0
 273 001a FFF7FEFF 		bl	spi_sw_transfer
 274              	.LVL20:
 275              		.loc 1 179 0
 276 001e 3246     		mov	r2, r6
 277 0020 2846     		mov	r0, r5
 278 0022 0021     		movs	r1, #0
 279 0024 FFF7FEFF 		bl	spi_sw_transfer
 280              	.LVL21:
 281              		.loc 1 180 0
 282 0028 FFF7FEFF 		bl	spi_sw_end
 283              	.LVL22:
 284              		.loc 1 182 0
 285 002c 02B0     		add	sp, sp, #8
ARM GAS  /tmp/ccvTjNA2.s 			page 6


 286              		.cfi_def_cfa_offset 16
 287              		@ sp needed
 288 002e 70BD     		pop	{r4, r5, r6, pc}
 289              		.cfi_endproc
 290              	.LFE269:
 291              		.size	rf_read_rx_payload, .-rf_read_rx_payload
 292              		.section	.text.rf_flush_tx,"ax",%progbits
 293              		.align	1
 294              		.p2align 4,,15
 295              		.global	rf_flush_tx
 296              		.syntax unified
 297              		.thumb
 298              		.thumb_func
 299              		.fpu fpv4-sp-d16
 300              		.type	rf_flush_tx, %function
 301              	rf_flush_tx:
 302              	.LFB281:
 303              		.loc 1 272 0
 304              		.cfi_startproc
 305              		@ args = 0, pretend = 0, frame = 8
 306              		@ frame_needed = 0, uses_anonymous_args = 0
 307 0000 10B5     		push	{r4, lr}
 308              		.cfi_def_cfa_offset 8
 309              		.cfi_offset 4, -8
 310              		.cfi_offset 14, -4
 311 0002 82B0     		sub	sp, sp, #8
 312              		.cfi_def_cfa_offset 16
 313              		.loc 1 273 0
 314 0004 02AC     		add	r4, sp, #8
 315 0006 E123     		movs	r3, #225
 316 0008 04F8013D 		strb	r3, [r4, #-1]!
 317              		.loc 1 274 0
 318 000c FFF7FEFF 		bl	spi_sw_begin
 319              	.LVL23:
 320              		.loc 1 275 0
 321 0010 2146     		mov	r1, r4
 322 0012 0122     		movs	r2, #1
 323 0014 0020     		movs	r0, #0
 324 0016 FFF7FEFF 		bl	spi_sw_transfer
 325              	.LVL24:
 326              		.loc 1 276 0
 327 001a FFF7FEFF 		bl	spi_sw_end
 328              	.LVL25:
 329              		.loc 1 277 0
 330 001e 02B0     		add	sp, sp, #8
 331              		.cfi_def_cfa_offset 8
 332              		@ sp needed
 333 0020 10BD     		pop	{r4, pc}
 334              		.cfi_endproc
 335              	.LFE281:
 336              		.size	rf_flush_tx, .-rf_flush_tx
 337 0022 00BF     		.section	.text.rf_flush_rx,"ax",%progbits
 338              		.align	1
 339              		.p2align 4,,15
 340              		.global	rf_flush_rx
 341              		.syntax unified
 342              		.thumb
ARM GAS  /tmp/ccvTjNA2.s 			page 7


 343              		.thumb_func
 344              		.fpu fpv4-sp-d16
 345              		.type	rf_flush_rx, %function
 346              	rf_flush_rx:
 347              	.LFB282:
 348              		.loc 1 279 0
 349              		.cfi_startproc
 350              		@ args = 0, pretend = 0, frame = 8
 351              		@ frame_needed = 0, uses_anonymous_args = 0
 352 0000 10B5     		push	{r4, lr}
 353              		.cfi_def_cfa_offset 8
 354              		.cfi_offset 4, -8
 355              		.cfi_offset 14, -4
 356 0002 82B0     		sub	sp, sp, #8
 357              		.cfi_def_cfa_offset 16
 358              		.loc 1 280 0
 359 0004 02AC     		add	r4, sp, #8
 360 0006 E223     		movs	r3, #226
 361 0008 04F8013D 		strb	r3, [r4, #-1]!
 362              		.loc 1 281 0
 363 000c FFF7FEFF 		bl	spi_sw_begin
 364              	.LVL26:
 365              		.loc 1 282 0
 366 0010 2146     		mov	r1, r4
 367 0012 0122     		movs	r2, #1
 368 0014 0020     		movs	r0, #0
 369 0016 FFF7FEFF 		bl	spi_sw_transfer
 370              	.LVL27:
 371              		.loc 1 283 0
 372 001a FFF7FEFF 		bl	spi_sw_end
 373              	.LVL28:
 374              		.loc 1 284 0
 375 001e 02B0     		add	sp, sp, #8
 376              		.cfi_def_cfa_offset 8
 377              		@ sp needed
 378 0020 10BD     		pop	{r4, pc}
 379              		.cfi_endproc
 380              	.LFE282:
 381              		.size	rf_flush_rx, .-rf_flush_rx
 382 0022 00BF     		.section	.text.rf_flush_all,"ax",%progbits
 383              		.align	1
 384              		.p2align 4,,15
 385              		.global	rf_flush_all
 386              		.syntax unified
 387              		.thumb
 388              		.thumb_func
 389              		.fpu fpv4-sp-d16
 390              		.type	rf_flush_all, %function
 391              	rf_flush_all:
 392              	.LFB283:
 393              		.loc 1 286 0
 394              		.cfi_startproc
 395              		@ args = 0, pretend = 0, frame = 0
 396              		@ frame_needed = 0, uses_anonymous_args = 0
 397 0000 08B5     		push	{r3, lr}
 398              		.cfi_def_cfa_offset 8
 399              		.cfi_offset 3, -8
ARM GAS  /tmp/ccvTjNA2.s 			page 8


 400              		.cfi_offset 14, -4
 401              		.loc 1 287 0
 402 0002 FFF7FEFF 		bl	rf_flush_rx
 403              	.LVL29:
 404              		.loc 1 289 0
 405 0006 BDE80840 		pop	{r3, lr}
 406              		.cfi_restore 14
 407              		.cfi_restore 3
 408              		.cfi_def_cfa_offset 0
 409              		.loc 1 288 0
 410 000a FFF7FEBF 		b	rf_flush_tx
 411              	.LVL30:
 412              		.cfi_endproc
 413              	.LFE283:
 414              		.size	rf_flush_all, .-rf_flush_all
 415 000e 00BF     		.section	.text.rf_get_payload_width,"ax",%progbits
 416              		.align	1
 417              		.p2align 4,,15
 418              		.global	rf_get_payload_width
 419              		.syntax unified
 420              		.thumb
 421              		.thumb_func
 422              		.fpu fpv4-sp-d16
 423              		.type	rf_get_payload_width, %function
 424              	rf_get_payload_width:
 425              	.LFB288:
 426              		.loc 1 307 0
 427              		.cfi_startproc
 428              		@ args = 0, pretend = 0, frame = 8
 429              		@ frame_needed = 0, uses_anonymous_args = 0
 430 0000 10B5     		push	{r4, lr}
 431              		.cfi_def_cfa_offset 8
 432              		.cfi_offset 4, -8
 433              		.cfi_offset 14, -4
 434 0002 82B0     		sub	sp, sp, #8
 435              		.cfi_def_cfa_offset 16
 436              		.loc 1 309 0
 437 0004 02AC     		add	r4, sp, #8
 438 0006 6023     		movs	r3, #96
 439 0008 04F8013D 		strb	r3, [r4, #-1]!
 440              		.loc 1 310 0
 441 000c FFF7FEFF 		bl	spi_sw_begin
 442              	.LVL31:
 443              		.loc 1 311 0
 444 0010 2146     		mov	r1, r4
 445 0012 0122     		movs	r2, #1
 446 0014 0020     		movs	r0, #0
 447 0016 FFF7FEFF 		bl	spi_sw_transfer
 448              	.LVL32:
 449              		.loc 1 312 0
 450 001a 0DF10600 		add	r0, sp, #6
 451 001e 0122     		movs	r2, #1
 452 0020 0021     		movs	r1, #0
 453 0022 FFF7FEFF 		bl	spi_sw_transfer
 454              	.LVL33:
 455              		.loc 1 313 0
 456 0026 FFF7FEFF 		bl	spi_sw_end
ARM GAS  /tmp/ccvTjNA2.s 			page 9


 457              	.LVL34:
 458              		.loc 1 315 0
 459 002a 9DF80600 		ldrb	r0, [sp, #6]	@ zero_extendqisi2
 460 002e 02B0     		add	sp, sp, #8
 461              		.cfi_def_cfa_offset 8
 462              		@ sp needed
 463 0030 10BD     		pop	{r4, pc}
 464              		.cfi_endproc
 465              	.LFE288:
 466              		.size	rf_get_payload_width, .-rf_get_payload_width
 467 0032 00BF     		.section	.text.rf_status,"ax",%progbits
 468              		.align	1
 469              		.p2align 4,,15
 470              		.global	rf_status
 471              		.syntax unified
 472              		.thumb
 473              		.thumb_func
 474              		.fpu fpv4-sp-d16
 475              		.type	rf_status, %function
 476              	rf_status:
 477              	.LFB289:
 478              		.loc 1 317 0
 479              		.cfi_startproc
 480              		@ args = 0, pretend = 0, frame = 8
 481              		@ frame_needed = 0, uses_anonymous_args = 0
 482 0000 10B5     		push	{r4, lr}
 483              		.cfi_def_cfa_offset 8
 484              		.cfi_offset 4, -8
 485              		.cfi_offset 14, -4
 486 0002 82B0     		sub	sp, sp, #8
 487              		.cfi_def_cfa_offset 16
 488              		.loc 1 318 0
 489 0004 02AC     		add	r4, sp, #8
 490 0006 FF23     		movs	r3, #255
 491 0008 04F8013D 		strb	r3, [r4, #-1]!
 492              		.loc 1 319 0
 493 000c FFF7FEFF 		bl	spi_sw_begin
 494              	.LVL35:
 495              		.loc 1 320 0
 496 0010 2046     		mov	r0, r4
 497 0012 2146     		mov	r1, r4
 498 0014 0122     		movs	r2, #1
 499 0016 FFF7FEFF 		bl	spi_sw_transfer
 500              	.LVL36:
 501              		.loc 1 321 0
 502 001a FFF7FEFF 		bl	spi_sw_end
 503              	.LVL37:
 504              		.loc 1 323 0
 505 001e 9DF80700 		ldrb	r0, [sp, #7]	@ zero_extendqisi2
 506 0022 02B0     		add	sp, sp, #8
 507              		.cfi_def_cfa_offset 8
 508              		@ sp needed
 509 0024 10BD     		pop	{r4, pc}
 510              		.cfi_endproc
 511              	.LFE289:
 512              		.size	rf_status, .-rf_status
 513 0026 00BF     		.section	.text.rf_write_reg,"ax",%progbits
ARM GAS  /tmp/ccvTjNA2.s 			page 10


 514              		.align	1
 515              		.p2align 4,,15
 516              		.global	rf_write_reg
 517              		.syntax unified
 518              		.thumb
 519              		.thumb_func
 520              		.fpu fpv4-sp-d16
 521              		.type	rf_write_reg, %function
 522              	rf_write_reg:
 523              	.LFB292:
 524              		.loc 1 333 0
 525              		.cfi_startproc
 526              		@ args = 0, pretend = 0, frame = 8
 527              		@ frame_needed = 0, uses_anonymous_args = 0
 528              	.LVL38:
 529 0000 70B5     		push	{r4, r5, r6, lr}
 530              		.cfi_def_cfa_offset 16
 531              		.cfi_offset 4, -16
 532              		.cfi_offset 5, -12
 533              		.cfi_offset 6, -8
 534              		.cfi_offset 14, -4
 535 0002 82B0     		sub	sp, sp, #8
 536              		.cfi_def_cfa_offset 24
 537              		.loc 1 334 0
 538 0004 02AC     		add	r4, sp, #8
 539 0006 40F02000 		orr	r0, r0, #32
 540              	.LVL39:
 541 000a 04F8010D 		strb	r0, [r4, #-1]!
 542              		.loc 1 333 0
 543 000e 0D46     		mov	r5, r1
 544 0010 1646     		mov	r6, r2
 545              		.loc 1 336 0
 546 0012 FFF7FEFF 		bl	spi_sw_begin
 547              	.LVL40:
 548              		.loc 1 337 0
 549 0016 2146     		mov	r1, r4
 550 0018 0122     		movs	r2, #1
 551 001a 0020     		movs	r0, #0
 552 001c FFF7FEFF 		bl	spi_sw_transfer
 553              	.LVL41:
 554              		.loc 1 338 0
 555 0020 3246     		mov	r2, r6
 556 0022 2946     		mov	r1, r5
 557 0024 0020     		movs	r0, #0
 558 0026 FFF7FEFF 		bl	spi_sw_transfer
 559              	.LVL42:
 560              		.loc 1 339 0
 561 002a FFF7FEFF 		bl	spi_sw_end
 562              	.LVL43:
 563              		.loc 1 340 0
 564 002e 02B0     		add	sp, sp, #8
 565              		.cfi_def_cfa_offset 16
 566              		@ sp needed
 567 0030 70BD     		pop	{r4, r5, r6, pc}
 568              		.cfi_endproc
 569              	.LFE292:
 570              		.size	rf_write_reg, .-rf_write_reg
ARM GAS  /tmp/ccvTjNA2.s 			page 11


 571 0032 00BF     		.section	.text.rf_set_rx_addr,"ax",%progbits
 572              		.align	1
 573              		.p2align 4,,15
 574              		.global	rf_set_rx_addr
 575              		.syntax unified
 576              		.thumb
 577              		.thumb_func
 578              		.fpu fpv4-sp-d16
 579              		.type	rf_set_rx_addr, %function
 580              	rf_set_rx_addr:
 581              	.LFB264:
 582              		.loc 1 137 0
 583              		.cfi_startproc
 584              		@ args = 0, pretend = 0, frame = 0
 585              		@ frame_needed = 0, uses_anonymous_args = 0
 586              		@ link register save eliminated.
 587              	.LVL44:
 588              		.loc 1 138 0
 589 0000 0A30     		adds	r0, r0, #10
 590              	.LVL45:
 591 0002 FFF7FEBF 		b	rf_write_reg
 592              	.LVL46:
 593              		.cfi_endproc
 594              	.LFE264:
 595              		.size	rf_set_rx_addr, .-rf_set_rx_addr
 596 0006 00BF     		.section	.text.rf_set_tx_addr,"ax",%progbits
 597              		.align	1
 598              		.p2align 4,,15
 599              		.global	rf_set_tx_addr
 600              		.syntax unified
 601              		.thumb
 602              		.thumb_func
 603              		.fpu fpv4-sp-d16
 604              		.type	rf_set_tx_addr, %function
 605              	rf_set_tx_addr:
 606              	.LFB265:
 607              		.loc 1 141 0
 608              		.cfi_startproc
 609              		@ args = 0, pretend = 0, frame = 0
 610              		@ frame_needed = 0, uses_anonymous_args = 0
 611              		@ link register save eliminated.
 612              	.LVL47:
 613              		.loc 1 142 0
 614 0000 0A46     		mov	r2, r1
 615 0002 0146     		mov	r1, r0
 616              	.LVL48:
 617 0004 1020     		movs	r0, #16
 618              	.LVL49:
 619 0006 FFF7FEBF 		b	rf_write_reg
 620              	.LVL50:
 621              		.cfi_endproc
 622              	.LFE265:
 623              		.size	rf_set_tx_addr, .-rf_set_tx_addr
 624 000a 00BF     		.section	.text.rf_set_address_width,"ax",%progbits
 625              		.align	1
 626              		.p2align 4,,15
 627              		.global	rf_set_address_width
ARM GAS  /tmp/ccvTjNA2.s 			page 12


 628              		.syntax unified
 629              		.thumb
 630              		.thumb_func
 631              		.fpu fpv4-sp-d16
 632              		.type	rf_set_address_width, %function
 633              	rf_set_address_width:
 634              	.LFB260:
 635              		.loc 1 82 0
 636              		.cfi_startproc
 637              		@ args = 0, pretend = 0, frame = 8
 638              		@ frame_needed = 0, uses_anonymous_args = 0
 639              	.LVL51:
 640 0000 00B5     		push	{lr}
 641              		.cfi_def_cfa_offset 4
 642              		.cfi_offset 14, -4
 643 0002 83B0     		sub	sp, sp, #12
 644              		.cfi_def_cfa_offset 16
 645 0004 02A9     		add	r1, sp, #8
 646              		.loc 1 83 0
 647 0006 0130     		adds	r0, r0, #1
 648              	.LVL52:
 649 0008 01F8010D 		strb	r0, [r1, #-1]!
 650              	.LVL53:
 651              	.LBB74:
 652              	.LBB75:
 653              		.loc 1 343 0
 654 000c 0122     		movs	r2, #1
 655 000e 0320     		movs	r0, #3
 656 0010 FFF7FEFF 		bl	rf_write_reg
 657              	.LVL54:
 658              	.LBE75:
 659              	.LBE74:
 660              		.loc 1 84 0
 661 0014 03B0     		add	sp, sp, #12
 662              		.cfi_def_cfa_offset 4
 663              		@ sp needed
 664 0016 5DF804FB 		ldr	pc, [sp], #4
 665              		.cfi_endproc
 666              	.LFE260:
 667              		.size	rf_set_address_width, .-rf_set_address_width
 668 001a 00BF     		.section	.text.rf_set_frequency,"ax",%progbits
 669              		.align	1
 670              		.p2align 4,,15
 671              		.global	rf_set_frequency
 672              		.syntax unified
 673              		.thumb
 674              		.thumb_func
 675              		.fpu fpv4-sp-d16
 676              		.type	rf_set_frequency, %function
 677              	rf_set_frequency:
 678              	.LFB270:
 679              		.loc 1 185 0
 680              		.cfi_startproc
 681              		@ args = 0, pretend = 0, frame = 8
 682              		@ frame_needed = 0, uses_anonymous_args = 0
 683              	.LVL55:
 684 0000 00B5     		push	{lr}
ARM GAS  /tmp/ccvTjNA2.s 			page 13


 685              		.cfi_def_cfa_offset 4
 686              		.cfi_offset 14, -4
 687 0002 83B0     		sub	sp, sp, #12
 688              		.cfi_def_cfa_offset 16
 689 0004 02A9     		add	r1, sp, #8
 690              		.loc 1 186 0
 691 0006 6038     		subs	r0, r0, #96
 692              	.LVL56:
 693 0008 00F07F00 		and	r0, r0, #127
 694              	.LVL57:
 695 000c 01F8010D 		strb	r0, [r1, #-1]!
 696              	.LVL58:
 697              	.LBB76:
 698              	.LBB77:
 699              		.loc 1 343 0
 700 0010 0122     		movs	r2, #1
 701 0012 0520     		movs	r0, #5
 702 0014 FFF7FEFF 		bl	rf_write_reg
 703              	.LVL59:
 704              	.LBE77:
 705              	.LBE76:
 706              		.loc 1 188 0
 707 0018 03B0     		add	sp, sp, #12
 708              		.cfi_def_cfa_offset 4
 709              		@ sp needed
 710 001a 5DF804FB 		ldr	pc, [sp], #4
 711              		.cfi_endproc
 712              	.LFE270:
 713              		.size	rf_set_frequency, .-rf_set_frequency
 714 001e 00BF     		.section	.text.rf_clear_irq,"ax",%progbits
 715              		.align	1
 716              		.p2align 4,,15
 717              		.global	rf_clear_irq
 718              		.syntax unified
 719              		.thumb
 720              		.thumb_func
 721              		.fpu fpv4-sp-d16
 722              		.type	rf_clear_irq, %function
 723              	rf_clear_irq:
 724              	.LFB284:
 725              		.loc 1 291 0
 726              		.cfi_startproc
 727              		@ args = 0, pretend = 0, frame = 8
 728              		@ frame_needed = 0, uses_anonymous_args = 0
 729              	.LVL60:
 730 0000 00B5     		push	{lr}
 731              		.cfi_def_cfa_offset 4
 732              		.cfi_offset 14, -4
 733 0002 83B0     		sub	sp, sp, #12
 734              		.cfi_def_cfa_offset 16
 735 0004 02A9     		add	r1, sp, #8
 736 0006 7023     		movs	r3, #112
 737 0008 01F8013D 		strb	r3, [r1, #-1]!
 738              	.LVL61:
 739              	.LBB78:
 740              	.LBB79:
 741              		.loc 1 343 0
ARM GAS  /tmp/ccvTjNA2.s 			page 14


 742 000c 0122     		movs	r2, #1
 743 000e 0720     		movs	r0, #7
 744 0010 FFF7FEFF 		bl	rf_write_reg
 745              	.LVL62:
 746              	.LBE79:
 747              	.LBE78:
 748              		.loc 1 293 0
 749 0014 03B0     		add	sp, sp, #12
 750              		.cfi_def_cfa_offset 4
 751              		@ sp needed
 752 0016 5DF804FB 		ldr	pc, [sp], #4
 753              		.cfi_endproc
 754              	.LFE284:
 755              		.size	rf_clear_irq, .-rf_clear_irq
 756 001a 00BF     		.section	.text.rf_clear_rx_irq,"ax",%progbits
 757              		.align	1
 758              		.p2align 4,,15
 759              		.global	rf_clear_rx_irq
 760              		.syntax unified
 761              		.thumb
 762              		.thumb_func
 763              		.fpu fpv4-sp-d16
 764              		.type	rf_clear_rx_irq, %function
 765              	rf_clear_rx_irq:
 766              	.LFB285:
 767              		.loc 1 295 0
 768              		.cfi_startproc
 769              		@ args = 0, pretend = 0, frame = 8
 770              		@ frame_needed = 0, uses_anonymous_args = 0
 771              	.LVL63:
 772 0000 00B5     		push	{lr}
 773              		.cfi_def_cfa_offset 4
 774              		.cfi_offset 14, -4
 775 0002 83B0     		sub	sp, sp, #12
 776              		.cfi_def_cfa_offset 16
 777 0004 02A9     		add	r1, sp, #8
 778 0006 4023     		movs	r3, #64
 779 0008 01F8013D 		strb	r3, [r1, #-1]!
 780              	.LVL64:
 781              	.LBB80:
 782              	.LBB81:
 783              		.loc 1 343 0
 784 000c 0122     		movs	r2, #1
 785 000e 0720     		movs	r0, #7
 786 0010 FFF7FEFF 		bl	rf_write_reg
 787              	.LVL65:
 788              	.LBE81:
 789              	.LBE80:
 790              		.loc 1 297 0
 791 0014 03B0     		add	sp, sp, #12
 792              		.cfi_def_cfa_offset 4
 793              		@ sp needed
 794 0016 5DF804FB 		ldr	pc, [sp], #4
 795              		.cfi_endproc
 796              	.LFE285:
 797              		.size	rf_clear_rx_irq, .-rf_clear_rx_irq
 798 001a 00BF     		.section	.text.rf_clear_tx_irq,"ax",%progbits
ARM GAS  /tmp/ccvTjNA2.s 			page 15


 799              		.align	1
 800              		.p2align 4,,15
 801              		.global	rf_clear_tx_irq
 802              		.syntax unified
 803              		.thumb
 804              		.thumb_func
 805              		.fpu fpv4-sp-d16
 806              		.type	rf_clear_tx_irq, %function
 807              	rf_clear_tx_irq:
 808              	.LFB286:
 809              		.loc 1 299 0
 810              		.cfi_startproc
 811              		@ args = 0, pretend = 0, frame = 8
 812              		@ frame_needed = 0, uses_anonymous_args = 0
 813              	.LVL66:
 814 0000 00B5     		push	{lr}
 815              		.cfi_def_cfa_offset 4
 816              		.cfi_offset 14, -4
 817 0002 83B0     		sub	sp, sp, #12
 818              		.cfi_def_cfa_offset 16
 819 0004 02A9     		add	r1, sp, #8
 820 0006 2023     		movs	r3, #32
 821 0008 01F8013D 		strb	r3, [r1, #-1]!
 822              	.LVL67:
 823              	.LBB82:
 824              	.LBB83:
 825              		.loc 1 343 0
 826 000c 0122     		movs	r2, #1
 827 000e 0720     		movs	r0, #7
 828 0010 FFF7FEFF 		bl	rf_write_reg
 829              	.LVL68:
 830              	.LBE83:
 831              	.LBE82:
 832              		.loc 1 301 0
 833 0014 03B0     		add	sp, sp, #12
 834              		.cfi_def_cfa_offset 4
 835              		@ sp needed
 836 0016 5DF804FB 		ldr	pc, [sp], #4
 837              		.cfi_endproc
 838              	.LFE286:
 839              		.size	rf_clear_tx_irq, .-rf_clear_tx_irq
 840 001a 00BF     		.section	.text.rf_clear_maxrt_irq,"ax",%progbits
 841              		.align	1
 842              		.p2align 4,,15
 843              		.global	rf_clear_maxrt_irq
 844              		.syntax unified
 845              		.thumb
 846              		.thumb_func
 847              		.fpu fpv4-sp-d16
 848              		.type	rf_clear_maxrt_irq, %function
 849              	rf_clear_maxrt_irq:
 850              	.LFB287:
 851              		.loc 1 303 0
 852              		.cfi_startproc
 853              		@ args = 0, pretend = 0, frame = 8
 854              		@ frame_needed = 0, uses_anonymous_args = 0
 855              	.LVL69:
ARM GAS  /tmp/ccvTjNA2.s 			page 16


 856 0000 00B5     		push	{lr}
 857              		.cfi_def_cfa_offset 4
 858              		.cfi_offset 14, -4
 859 0002 83B0     		sub	sp, sp, #12
 860              		.cfi_def_cfa_offset 16
 861 0004 02A9     		add	r1, sp, #8
 862 0006 1023     		movs	r3, #16
 863 0008 01F8013D 		strb	r3, [r1, #-1]!
 864              	.LVL70:
 865              	.LBB84:
 866              	.LBB85:
 867              		.loc 1 343 0
 868 000c 0122     		movs	r2, #1
 869 000e 0720     		movs	r0, #7
 870 0010 FFF7FEFF 		bl	rf_write_reg
 871              	.LVL71:
 872              	.LBE85:
 873              	.LBE84:
 874              		.loc 1 305 0
 875 0014 03B0     		add	sp, sp, #12
 876              		.cfi_def_cfa_offset 4
 877              		@ sp needed
 878 0016 5DF804FB 		ldr	pc, [sp], #4
 879              		.cfi_endproc
 880              	.LFE287:
 881              		.size	rf_clear_maxrt_irq, .-rf_clear_maxrt_irq
 882 001a 00BF     		.section	.text.rf_write_reg_byte,"ax",%progbits
 883              		.align	1
 884              		.p2align 4,,15
 885              		.global	rf_write_reg_byte
 886              		.syntax unified
 887              		.thumb
 888              		.thumb_func
 889              		.fpu fpv4-sp-d16
 890              		.type	rf_write_reg_byte, %function
 891              	rf_write_reg_byte:
 892              	.LFB293:
 893              		.loc 1 342 0
 894              		.cfi_startproc
 895              		@ args = 0, pretend = 0, frame = 8
 896              		@ frame_needed = 0, uses_anonymous_args = 0
 897              	.LVL72:
 898 0000 00B5     		push	{lr}
 899              		.cfi_def_cfa_offset 4
 900              		.cfi_offset 14, -4
 901 0002 83B0     		sub	sp, sp, #12
 902              		.cfi_def_cfa_offset 16
 903              		.loc 1 342 0
 904 0004 02AB     		add	r3, sp, #8
 905              		.loc 1 343 0
 906 0006 0122     		movs	r2, #1
 907              		.loc 1 342 0
 908 0008 03F8011D 		strb	r1, [r3, #-1]!
 909              		.loc 1 343 0
 910 000c 1946     		mov	r1, r3
 911              	.LVL73:
 912 000e FFF7FEFF 		bl	rf_write_reg
ARM GAS  /tmp/ccvTjNA2.s 			page 17


 913              	.LVL74:
 914              		.loc 1 344 0
 915 0012 03B0     		add	sp, sp, #12
 916              		.cfi_def_cfa_offset 4
 917              		@ sp needed
 918 0014 5DF804FB 		ldr	pc, [sp], #4
 919              		.cfi_endproc
 920              	.LFE293:
 921              		.size	rf_write_reg_byte, .-rf_write_reg_byte
 922              		.section	.text.rf_read_reg,"ax",%progbits
 923              		.align	1
 924              		.p2align 4,,15
 925              		.global	rf_read_reg
 926              		.syntax unified
 927              		.thumb
 928              		.thumb_func
 929              		.fpu fpv4-sp-d16
 930              		.type	rf_read_reg, %function
 931              	rf_read_reg:
 932              	.LFB294:
 933              		.loc 1 346 0
 934              		.cfi_startproc
 935              		@ args = 0, pretend = 0, frame = 8
 936              		@ frame_needed = 0, uses_anonymous_args = 0
 937              	.LVL75:
 938 0000 70B5     		push	{r4, r5, r6, lr}
 939              		.cfi_def_cfa_offset 16
 940              		.cfi_offset 4, -16
 941              		.cfi_offset 5, -12
 942              		.cfi_offset 6, -8
 943              		.cfi_offset 14, -4
 944 0002 82B0     		sub	sp, sp, #8
 945              		.cfi_def_cfa_offset 24
 946              		.loc 1 347 0
 947 0004 02AC     		add	r4, sp, #8
 948              		.loc 1 346 0
 949 0006 0D46     		mov	r5, r1
 950              		.loc 1 347 0
 951 0008 04F8010D 		strb	r0, [r4, #-1]!
 952              		.loc 1 346 0
 953 000c 1646     		mov	r6, r2
 954              		.loc 1 349 0
 955 000e FFF7FEFF 		bl	spi_sw_begin
 956              	.LVL76:
 957              		.loc 1 350 0
 958 0012 2146     		mov	r1, r4
 959 0014 0122     		movs	r2, #1
 960 0016 0020     		movs	r0, #0
 961 0018 FFF7FEFF 		bl	spi_sw_transfer
 962              	.LVL77:
 963              		.loc 1 351 0
 964 001c 3246     		mov	r2, r6
 965 001e 2846     		mov	r0, r5
 966 0020 0021     		movs	r1, #0
 967 0022 FFF7FEFF 		bl	spi_sw_transfer
 968              	.LVL78:
 969              		.loc 1 352 0
ARM GAS  /tmp/ccvTjNA2.s 			page 18


 970 0026 FFF7FEFF 		bl	spi_sw_end
 971              	.LVL79:
 972              		.loc 1 353 0
 973 002a 02B0     		add	sp, sp, #8
 974              		.cfi_def_cfa_offset 16
 975              		@ sp needed
 976 002c 70BD     		pop	{r4, r5, r6, pc}
 977              		.cfi_endproc
 978              	.LFE294:
 979              		.size	rf_read_reg, .-rf_read_reg
 980 002e 00BF     		.section	.text.rf_set_speed,"ax",%progbits
 981              		.align	1
 982              		.p2align 4,,15
 983              		.global	rf_set_speed
 984              		.syntax unified
 985              		.thumb
 986              		.thumb_func
 987              		.fpu fpv4-sp-d16
 988              		.type	rf_set_speed, %function
 989              	rf_set_speed:
 990              	.LFB258:
 991              		.loc 1 33 0
 992              		.cfi_startproc
 993              		@ args = 0, pretend = 0, frame = 8
 994              		@ frame_needed = 0, uses_anonymous_args = 0
 995              	.LVL80:
 996 0000 10B5     		push	{r4, lr}
 997              		.cfi_def_cfa_offset 8
 998              		.cfi_offset 4, -8
 999              		.cfi_offset 14, -4
 1000 0002 82B0     		sub	sp, sp, #8
 1001              		.cfi_def_cfa_offset 16
 1002              	.LBB86:
 1003              	.LBB87:
 1004              		.loc 1 357 0
 1005 0004 0122     		movs	r2, #1
 1006              	.LBE87:
 1007              	.LBE86:
 1008              		.loc 1 33 0
 1009 0006 0446     		mov	r4, r0
 1010              	.LBB89:
 1011              	.LBB88:
 1012              		.loc 1 357 0
 1013 0008 0DF10701 		add	r1, sp, #7
 1014 000c 0620     		movs	r0, #6
 1015              	.LVL81:
 1016 000e FFF7FEFF 		bl	rf_read_reg
 1017              	.LVL82:
 1018              		.loc 1 358 0
 1019 0012 9DF80720 		ldrb	r2, [sp, #7]	@ zero_extendqisi2
 1020              	.LVL83:
 1021              	.LBE88:
 1022              	.LBE89:
 1023              		.loc 1 37 0
 1024 0016 02F0D703 		and	r3, r2, #215
 1025              	.LVL84:
 1026              		.loc 1 39 0
ARM GAS  /tmp/ccvTjNA2.s 			page 19


 1027 001a 84B1     		cbz	r4, .L44
 1028 001c 022C     		cmp	r4, #2
 1029 001e 0BD0     		beq	.L45
 1030              	.L43:
 1031              		.loc 1 55 0
 1032 0020 9342     		cmp	r3, r2
 1033 0022 07D0     		beq	.L42
 1034              	.LVL85:
 1035              	.LBB90:
 1036              	.LBB91:
 1037              		.loc 1 343 0
 1038 0024 0DF10701 		add	r1, sp, #7
 1039 0028 0122     		movs	r2, #1
 1040 002a 0620     		movs	r0, #6
 1041 002c 8DF80730 		strb	r3, [sp, #7]
 1042              	.LVL86:
 1043 0030 FFF7FEFF 		bl	rf_write_reg
 1044              	.LVL87:
 1045              	.L42:
 1046              	.LBE91:
 1047              	.LBE90:
 1048              		.loc 1 58 0
 1049 0034 02B0     		add	sp, sp, #8
 1050              		.cfi_remember_state
 1051              		.cfi_def_cfa_offset 8
 1052              		@ sp needed
 1053 0036 10BD     		pop	{r4, pc}
 1054              	.LVL88:
 1055              	.L45:
 1056              		.cfi_restore_state
 1057              		.loc 1 48 0
 1058 0038 43F00803 		orr	r3, r3, #8
 1059              	.LVL89:
 1060              		.loc 1 49 0
 1061 003c F0E7     		b	.L43
 1062              	.L44:
 1063              		.loc 1 41 0
 1064 003e 43F02003 		orr	r3, r3, #32
 1065              	.LVL90:
 1066              		.loc 1 42 0
 1067 0042 EDE7     		b	.L43
 1068              		.cfi_endproc
 1069              	.LFE258:
 1070              		.size	rf_set_speed, .-rf_set_speed
 1071              		.section	.text.rf_set_power,"ax",%progbits
 1072              		.align	1
 1073              		.p2align 4,,15
 1074              		.global	rf_set_power
 1075              		.syntax unified
 1076              		.thumb
 1077              		.thumb_func
 1078              		.fpu fpv4-sp-d16
 1079              		.type	rf_set_power, %function
 1080              	rf_set_power:
 1081              	.LFB259:
 1082              		.loc 1 60 0
 1083              		.cfi_startproc
ARM GAS  /tmp/ccvTjNA2.s 			page 20


 1084              		@ args = 0, pretend = 0, frame = 8
 1085              		@ frame_needed = 0, uses_anonymous_args = 0
 1086              	.LVL91:
 1087              		.loc 1 61 0
 1088 0000 0428     		cmp	r0, #4
 1089 0002 20D0     		beq	.L54
 1090              	.LVL92:
 1091              		.loc 1 60 0
 1092 0004 10B5     		push	{r4, lr}
 1093              		.cfi_def_cfa_offset 8
 1094              		.cfi_offset 4, -8
 1095              		.cfi_offset 14, -4
 1096 0006 82B0     		sub	sp, sp, #8
 1097              		.cfi_def_cfa_offset 16
 1098 0008 0446     		mov	r4, r0
 1099              	.LBB92:
 1100              	.LBB93:
 1101              		.loc 1 357 0
 1102 000a 0122     		movs	r2, #1
 1103 000c 0DF10701 		add	r1, sp, #7
 1104 0010 0620     		movs	r0, #6
 1105              	.LVL93:
 1106 0012 FFF7FEFF 		bl	rf_read_reg
 1107              	.LVL94:
 1108              		.loc 1 358 0
 1109 0016 9DF80720 		ldrb	r2, [sp, #7]	@ zero_extendqisi2
 1110              	.LVL95:
 1111              	.LBE93:
 1112              	.LBE92:
 1113              		.loc 1 68 0
 1114 001a 22F00703 		bic	r3, r2, #7
 1115              		.loc 1 69 0
 1116 001e 43EA4403 		orr	r3, r3, r4, lsl #1
 1117 0022 03F0FE03 		and	r3, r3, #254
 1118              	.LVL96:
 1119              		.loc 1 73 0
 1120 0026 032C     		cmp	r4, #3
 1121              		.loc 1 74 0
 1122 0028 08BF     		it	eq
 1123 002a 43F00103 		orreq	r3, r3, #1
 1124              	.LVL97:
 1125              		.loc 1 77 0
 1126 002e 9342     		cmp	r3, r2
 1127 0030 07D0     		beq	.L48
 1128              	.LVL98:
 1129              	.LBB94:
 1130              	.LBB95:
 1131              		.loc 1 343 0
 1132 0032 0DF10701 		add	r1, sp, #7
 1133 0036 0122     		movs	r2, #1
 1134 0038 0620     		movs	r0, #6
 1135 003a 8DF80730 		strb	r3, [sp, #7]
 1136              	.LVL99:
 1137 003e FFF7FEFF 		bl	rf_write_reg
 1138              	.LVL100:
 1139              	.L48:
 1140              	.LBE95:
ARM GAS  /tmp/ccvTjNA2.s 			page 21


 1141              	.LBE94:
 1142              		.loc 1 80 0
 1143 0042 02B0     		add	sp, sp, #8
 1144              		.cfi_def_cfa_offset 8
 1145              		@ sp needed
 1146 0044 10BD     		pop	{r4, pc}
 1147              	.LVL101:
 1148              	.L54:
 1149              		.cfi_def_cfa_offset 0
 1150              		.cfi_restore 4
 1151              		.cfi_restore 14
 1152 0046 7047     		bx	lr
 1153              		.cfi_endproc
 1154              	.LFE259:
 1155              		.size	rf_set_power, .-rf_set_power
 1156              		.section	.text.rf_set_crc_type,"ax",%progbits
 1157              		.align	1
 1158              		.p2align 4,,15
 1159              		.global	rf_set_crc_type
 1160              		.syntax unified
 1161              		.thumb
 1162              		.thumb_func
 1163              		.fpu fpv4-sp-d16
 1164              		.type	rf_set_crc_type, %function
 1165              	rf_set_crc_type:
 1166              	.LFB261:
 1167              		.loc 1 86 0
 1168              		.cfi_startproc
 1169              		@ args = 0, pretend = 0, frame = 8
 1170              		@ frame_needed = 0, uses_anonymous_args = 0
 1171              	.LVL102:
 1172 0000 10B5     		push	{r4, lr}
 1173              		.cfi_def_cfa_offset 8
 1174              		.cfi_offset 4, -8
 1175              		.cfi_offset 14, -4
 1176 0002 82B0     		sub	sp, sp, #8
 1177              		.cfi_def_cfa_offset 16
 1178              		.loc 1 86 0
 1179 0004 0446     		mov	r4, r0
 1180              	.LBB96:
 1181              	.LBB97:
 1182              		.loc 1 357 0
 1183 0006 0122     		movs	r2, #1
 1184 0008 0DF10701 		add	r1, sp, #7
 1185 000c 0020     		movs	r0, #0
 1186              	.LVL103:
 1187 000e FFF7FEFF 		bl	rf_read_reg
 1188              	.LVL104:
 1189              		.loc 1 358 0
 1190 0012 9DF80720 		ldrb	r2, [sp, #7]	@ zero_extendqisi2
 1191              	.LVL105:
 1192              	.LBE97:
 1193              	.LBE96:
 1194              		.loc 1 92 0
 1195 0016 012C     		cmp	r4, #1
 1196              		.loc 1 90 0
 1197 0018 02F0F303 		and	r3, r2, #243
ARM GAS  /tmp/ccvTjNA2.s 			page 22


 1198              	.LVL106:
 1199              		.loc 1 92 0
 1200 001c 10D0     		beq	.L59
 1201 001e 022C     		cmp	r4, #2
 1202 0020 0BD0     		beq	.L60
 1203              	.L58:
 1204              		.loc 1 108 0
 1205 0022 9342     		cmp	r3, r2
 1206 0024 07D0     		beq	.L57
 1207              	.LVL107:
 1208              	.LBB98:
 1209              	.LBB99:
 1210              		.loc 1 343 0
 1211 0026 0DF10701 		add	r1, sp, #7
 1212 002a 0122     		movs	r2, #1
 1213 002c 0020     		movs	r0, #0
 1214 002e 8DF80730 		strb	r3, [sp, #7]
 1215              	.LVL108:
 1216 0032 FFF7FEFF 		bl	rf_write_reg
 1217              	.LVL109:
 1218              	.L57:
 1219              	.LBE99:
 1220              	.LBE98:
 1221              		.loc 1 111 0
 1222 0036 02B0     		add	sp, sp, #8
 1223              		.cfi_remember_state
 1224              		.cfi_def_cfa_offset 8
 1225              		@ sp needed
 1226 0038 10BD     		pop	{r4, pc}
 1227              	.LVL110:
 1228              	.L60:
 1229              		.cfi_restore_state
 1230              		.loc 1 101 0
 1231 003a 43F00C03 		orr	r3, r3, #12
 1232              	.LVL111:
 1233              		.loc 1 102 0
 1234 003e F0E7     		b	.L58
 1235              	.L59:
 1236              		.loc 1 97 0
 1237 0040 43F00803 		orr	r3, r3, #8
 1238              	.LVL112:
 1239              		.loc 1 98 0
 1240 0044 EDE7     		b	.L58
 1241              		.cfi_endproc
 1242              	.LFE261:
 1243              		.size	rf_set_crc_type, .-rf_set_crc_type
 1244 0046 00BF     		.section	.text.rf_set_retr_retries,"ax",%progbits
 1245              		.align	1
 1246              		.p2align 4,,15
 1247              		.global	rf_set_retr_retries
 1248              		.syntax unified
 1249              		.thumb
 1250              		.thumb_func
 1251              		.fpu fpv4-sp-d16
 1252              		.type	rf_set_retr_retries, %function
 1253              	rf_set_retr_retries:
 1254              	.LFB262:
ARM GAS  /tmp/ccvTjNA2.s 			page 23


 1255              		.loc 1 113 0
 1256              		.cfi_startproc
 1257              		@ args = 0, pretend = 0, frame = 8
 1258              		@ frame_needed = 0, uses_anonymous_args = 0
 1259              	.LVL113:
 1260 0000 10B5     		push	{r4, lr}
 1261              		.cfi_def_cfa_offset 8
 1262              		.cfi_offset 4, -8
 1263              		.cfi_offset 14, -4
 1264 0002 82B0     		sub	sp, sp, #8
 1265              		.cfi_def_cfa_offset 16
 1266              		.loc 1 113 0
 1267 0004 0446     		mov	r4, r0
 1268              	.LBB100:
 1269              	.LBB101:
 1270              		.loc 1 357 0
 1271 0006 0DF10701 		add	r1, sp, #7
 1272 000a 0122     		movs	r2, #1
 1273 000c 0420     		movs	r0, #4
 1274              	.LVL114:
 1275 000e FFF7FEFF 		bl	rf_read_reg
 1276              	.LVL115:
 1277              		.loc 1 358 0
 1278 0012 9DF80720 		ldrb	r2, [sp, #7]	@ zero_extendqisi2
 1279              	.LVL116:
 1280              	.LBE101:
 1281              	.LBE100:
 1282              		.loc 1 118 0
 1283 0016 04F00F03 		and	r3, r4, #15
 1284              		.loc 1 117 0
 1285 001a 22F00F01 		bic	r1, r2, #15
 1286              		.loc 1 118 0
 1287 001e 0B43     		orrs	r3, r3, r1
 1288              	.LVL117:
 1289              		.loc 1 120 0
 1290 0020 9342     		cmp	r3, r2
 1291 0022 07D0     		beq	.L63
 1292              	.LVL118:
 1293              	.LBB102:
 1294              	.LBB103:
 1295              		.loc 1 343 0
 1296 0024 0DF10701 		add	r1, sp, #7
 1297 0028 0122     		movs	r2, #1
 1298 002a 0420     		movs	r0, #4
 1299 002c 8DF80730 		strb	r3, [sp, #7]
 1300              	.LVL119:
 1301 0030 FFF7FEFF 		bl	rf_write_reg
 1302              	.LVL120:
 1303              	.L63:
 1304              	.LBE103:
 1305              	.LBE102:
 1306              		.loc 1 123 0
 1307 0034 02B0     		add	sp, sp, #8
 1308              		.cfi_def_cfa_offset 8
 1309              		@ sp needed
 1310 0036 10BD     		pop	{r4, pc}
 1311              		.cfi_endproc
ARM GAS  /tmp/ccvTjNA2.s 			page 24


 1312              	.LFE262:
 1313              		.size	rf_set_retr_retries, .-rf_set_retr_retries
 1314              		.section	.text.rf_set_retr_delay,"ax",%progbits
 1315              		.align	1
 1316              		.p2align 4,,15
 1317              		.global	rf_set_retr_delay
 1318              		.syntax unified
 1319              		.thumb
 1320              		.thumb_func
 1321              		.fpu fpv4-sp-d16
 1322              		.type	rf_set_retr_delay, %function
 1323              	rf_set_retr_delay:
 1324              	.LFB263:
 1325              		.loc 1 125 0
 1326              		.cfi_startproc
 1327              		@ args = 0, pretend = 0, frame = 8
 1328              		@ frame_needed = 0, uses_anonymous_args = 0
 1329              	.LVL121:
 1330 0000 10B5     		push	{r4, lr}
 1331              		.cfi_def_cfa_offset 8
 1332              		.cfi_offset 4, -8
 1333              		.cfi_offset 14, -4
 1334 0002 82B0     		sub	sp, sp, #8
 1335              		.cfi_def_cfa_offset 16
 1336              		.loc 1 125 0
 1337 0004 0446     		mov	r4, r0
 1338              	.LBB104:
 1339              	.LBB105:
 1340              		.loc 1 357 0
 1341 0006 0122     		movs	r2, #1
 1342 0008 0DF10701 		add	r1, sp, #7
 1343 000c 0420     		movs	r0, #4
 1344              	.LVL122:
 1345 000e FFF7FEFF 		bl	rf_read_reg
 1346              	.LVL123:
 1347              		.loc 1 358 0
 1348 0012 9DF80720 		ldrb	r2, [sp, #7]	@ zero_extendqisi2
 1349              	.LVL124:
 1350              	.LBE105:
 1351              	.LBE104:
 1352              		.loc 1 129 0
 1353 0016 02F00F03 		and	r3, r2, #15
 1354              		.loc 1 130 0
 1355 001a 43EA0413 		orr	r3, r3, r4, lsl #4
 1356 001e DBB2     		uxtb	r3, r3
 1357              	.LVL125:
 1358              		.loc 1 132 0
 1359 0020 9342     		cmp	r3, r2
 1360 0022 07D0     		beq	.L66
 1361              	.LVL126:
 1362              	.LBB106:
 1363              	.LBB107:
 1364              		.loc 1 343 0
 1365 0024 0DF10701 		add	r1, sp, #7
 1366 0028 0122     		movs	r2, #1
 1367 002a 0420     		movs	r0, #4
 1368 002c 8DF80730 		strb	r3, [sp, #7]
ARM GAS  /tmp/ccvTjNA2.s 			page 25


 1369              	.LVL127:
 1370 0030 FFF7FEFF 		bl	rf_write_reg
 1371              	.LVL128:
 1372              	.L66:
 1373              	.LBE107:
 1374              	.LBE106:
 1375              		.loc 1 135 0
 1376 0034 02B0     		add	sp, sp, #8
 1377              		.cfi_def_cfa_offset 8
 1378              		@ sp needed
 1379 0036 10BD     		pop	{r4, pc}
 1380              		.cfi_endproc
 1381              	.LFE263:
 1382              		.size	rf_set_retr_delay, .-rf_set_retr_delay
 1383              		.section	.text.rf_get_frequency,"ax",%progbits
 1384              		.align	1
 1385              		.p2align 4,,15
 1386              		.global	rf_get_frequency
 1387              		.syntax unified
 1388              		.thumb
 1389              		.thumb_func
 1390              		.fpu fpv4-sp-d16
 1391              		.type	rf_get_frequency, %function
 1392              	rf_get_frequency:
 1393              	.LFB271:
 1394              		.loc 1 191 0
 1395              		.cfi_startproc
 1396              		@ args = 0, pretend = 0, frame = 8
 1397              		@ frame_needed = 0, uses_anonymous_args = 0
 1398              	.LVL129:
 1399 0000 00B5     		push	{lr}
 1400              		.cfi_def_cfa_offset 4
 1401              		.cfi_offset 14, -4
 1402 0002 83B0     		sub	sp, sp, #12
 1403              		.cfi_def_cfa_offset 16
 1404              	.LBB108:
 1405              	.LBB109:
 1406              		.loc 1 357 0
 1407 0004 0122     		movs	r2, #1
 1408 0006 0DF10701 		add	r1, sp, #7
 1409 000a 0520     		movs	r0, #5
 1410 000c FFF7FEFF 		bl	rf_read_reg
 1411              	.LVL130:
 1412              		.loc 1 358 0
 1413 0010 9DF80700 		ldrb	r0, [sp, #7]	@ zero_extendqisi2
 1414              	.LVL131:
 1415              	.LBE109:
 1416              	.LBE108:
 1417              		.loc 1 194 0
 1418 0014 00F51660 		add	r0, r0, #2400
 1419 0018 03B0     		add	sp, sp, #12
 1420              		.cfi_def_cfa_offset 4
 1421              		@ sp needed
 1422 001a 5DF804FB 		ldr	pc, [sp], #4
 1423              		.cfi_endproc
 1424              	.LFE271:
 1425              		.size	rf_get_frequency, .-rf_get_frequency
ARM GAS  /tmp/ccvTjNA2.s 			page 26


 1426 001e 00BF     		.section	.text.rf_get_address_width,"ax",%progbits
 1427              		.align	1
 1428              		.p2align 4,,15
 1429              		.global	rf_get_address_width
 1430              		.syntax unified
 1431              		.thumb
 1432              		.thumb_func
 1433              		.fpu fpv4-sp-d16
 1434              		.type	rf_get_address_width, %function
 1435              	rf_get_address_width:
 1436              	.LFB272:
 1437              		.loc 1 196 0
 1438              		.cfi_startproc
 1439              		@ args = 0, pretend = 0, frame = 8
 1440              		@ frame_needed = 0, uses_anonymous_args = 0
 1441              	.LVL132:
 1442 0000 00B5     		push	{lr}
 1443              		.cfi_def_cfa_offset 4
 1444              		.cfi_offset 14, -4
 1445 0002 83B0     		sub	sp, sp, #12
 1446              		.cfi_def_cfa_offset 16
 1447              	.LBB110:
 1448              	.LBB111:
 1449              		.loc 1 357 0
 1450 0004 0122     		movs	r2, #1
 1451 0006 0DF10701 		add	r1, sp, #7
 1452 000a 0320     		movs	r0, #3
 1453 000c FFF7FEFF 		bl	rf_read_reg
 1454              	.LVL133:
 1455              		.loc 1 358 0
 1456 0010 9DF80700 		ldrb	r0, [sp, #7]	@ zero_extendqisi2
 1457              	.LVL134:
 1458              	.LBE111:
 1459              	.LBE110:
 1460              		.loc 1 198 0
 1461 0014 0230     		adds	r0, r0, #2
 1462 0016 03B0     		add	sp, sp, #12
 1463              		.cfi_def_cfa_offset 4
 1464              		@ sp needed
 1465 0018 5DF804FB 		ldr	pc, [sp], #4
 1466              		.cfi_endproc
 1467              	.LFE272:
 1468              		.size	rf_get_address_width, .-rf_get_address_width
 1469              		.section	.text.rf_power_up,"ax",%progbits
 1470              		.align	1
 1471              		.p2align 4,,15
 1472              		.global	rf_power_up
 1473              		.syntax unified
 1474              		.thumb
 1475              		.thumb_func
 1476              		.fpu fpv4-sp-d16
 1477              		.type	rf_power_up, %function
 1478              	rf_power_up:
 1479              	.LFB273:
 1480              		.loc 1 201 0
 1481              		.cfi_startproc
 1482              		@ args = 0, pretend = 0, frame = 8
ARM GAS  /tmp/ccvTjNA2.s 			page 27


 1483              		@ frame_needed = 0, uses_anonymous_args = 0
 1484              	.LVL135:
 1485 0000 00B5     		push	{lr}
 1486              		.cfi_def_cfa_offset 4
 1487              		.cfi_offset 14, -4
 1488 0002 83B0     		sub	sp, sp, #12
 1489              		.cfi_def_cfa_offset 16
 1490              	.LBB112:
 1491              	.LBB113:
 1492              		.loc 1 357 0
 1493 0004 0020     		movs	r0, #0
 1494 0006 0DF10701 		add	r1, sp, #7
 1495 000a 0122     		movs	r2, #1
 1496 000c FFF7FEFF 		bl	rf_read_reg
 1497              	.LVL136:
 1498              		.loc 1 358 0
 1499 0010 9DF80730 		ldrb	r3, [sp, #7]	@ zero_extendqisi2
 1500              	.LVL137:
 1501              	.LBE113:
 1502              	.LBE112:
 1503              		.loc 1 203 0
 1504 0014 13F00200 		ands	r0, r3, #2
 1505 0018 08D1     		bne	.L73
 1506              	.LVL138:
 1507 001a 43F00203 		orr	r3, r3, #2
 1508              	.LVL139:
 1509              	.LBB114:
 1510              	.LBB115:
 1511              		.loc 1 343 0
 1512 001e 0DF10701 		add	r1, sp, #7
 1513              	.LVL140:
 1514 0022 0122     		movs	r2, #1
 1515 0024 8DF80730 		strb	r3, [sp, #7]
 1516              	.LVL141:
 1517 0028 FFF7FEFF 		bl	rf_write_reg
 1518              	.LVL142:
 1519              	.L73:
 1520              	.LBE115:
 1521              	.LBE114:
 1522              		.loc 1 207 0
 1523 002c 03B0     		add	sp, sp, #12
 1524              		.cfi_def_cfa_offset 4
 1525              		@ sp needed
 1526 002e 5DF804FB 		ldr	pc, [sp], #4
 1527              		.cfi_endproc
 1528              	.LFE273:
 1529              		.size	rf_power_up, .-rf_power_up
 1530 0032 00BF     		.section	.text.rf_power_down,"ax",%progbits
 1531              		.align	1
 1532              		.p2align 4,,15
 1533              		.global	rf_power_down
 1534              		.syntax unified
 1535              		.thumb
 1536              		.thumb_func
 1537              		.fpu fpv4-sp-d16
 1538              		.type	rf_power_down, %function
 1539              	rf_power_down:
ARM GAS  /tmp/ccvTjNA2.s 			page 28


 1540              	.LFB274:
 1541              		.loc 1 210 0
 1542              		.cfi_startproc
 1543              		@ args = 0, pretend = 0, frame = 8
 1544              		@ frame_needed = 0, uses_anonymous_args = 0
 1545              	.LVL143:
 1546 0000 00B5     		push	{lr}
 1547              		.cfi_def_cfa_offset 4
 1548              		.cfi_offset 14, -4
 1549 0002 83B0     		sub	sp, sp, #12
 1550              		.cfi_def_cfa_offset 16
 1551              	.LBB116:
 1552              	.LBB117:
 1553              		.loc 1 357 0
 1554 0004 0122     		movs	r2, #1
 1555 0006 0DF10701 		add	r1, sp, #7
 1556 000a 0020     		movs	r0, #0
 1557 000c FFF7FEFF 		bl	rf_read_reg
 1558              	.LVL144:
 1559              		.loc 1 358 0
 1560 0010 9DF80730 		ldrb	r3, [sp, #7]	@ zero_extendqisi2
 1561              	.LVL145:
 1562              	.LBE117:
 1563              	.LBE116:
 1564              		.loc 1 212 0
 1565 0014 9A07     		lsls	r2, r3, #30
 1566 0016 09D5     		bpl	.L76
 1567              	.LVL146:
 1568              		.loc 1 213 0
 1569 0018 23F00203 		bic	r3, r3, #2
 1570              	.LVL147:
 1571              	.LBB118:
 1572              	.LBB119:
 1573              		.loc 1 343 0
 1574 001c 0DF10701 		add	r1, sp, #7
 1575 0020 0122     		movs	r2, #1
 1576 0022 0020     		movs	r0, #0
 1577              	.LBE119:
 1578              	.LBE118:
 1579              		.loc 1 214 0
 1580 0024 8DF80730 		strb	r3, [sp, #7]
 1581              	.LVL148:
 1582              	.LBB121:
 1583              	.LBB120:
 1584              		.loc 1 343 0
 1585 0028 FFF7FEFF 		bl	rf_write_reg
 1586              	.LVL149:
 1587              	.L76:
 1588              	.LBE120:
 1589              	.LBE121:
 1590              		.loc 1 216 0
 1591 002c 03B0     		add	sp, sp, #12
 1592              		.cfi_def_cfa_offset 4
 1593              		@ sp needed
 1594 002e 5DF804FB 		ldr	pc, [sp], #4
 1595              		.cfi_endproc
 1596              	.LFE274:
ARM GAS  /tmp/ccvTjNA2.s 			page 29


 1597              		.size	rf_power_down, .-rf_power_down
 1598 0032 00BF     		.section	.text.rf_mode_tx,"ax",%progbits
 1599              		.align	1
 1600              		.p2align 4,,15
 1601              		.global	rf_mode_tx
 1602              		.syntax unified
 1603              		.thumb
 1604              		.thumb_func
 1605              		.fpu fpv4-sp-d16
 1606              		.type	rf_mode_tx, %function
 1607              	rf_mode_tx:
 1608              	.LFB275:
 1609              		.loc 1 219 0
 1610              		.cfi_startproc
 1611              		@ args = 0, pretend = 0, frame = 8
 1612              		@ frame_needed = 0, uses_anonymous_args = 0
 1613              	.LVL150:
 1614 0000 00B5     		push	{lr}
 1615              		.cfi_def_cfa_offset 4
 1616              		.cfi_offset 14, -4
 1617 0002 83B0     		sub	sp, sp, #12
 1618              		.cfi_def_cfa_offset 16
 1619              	.LBB122:
 1620              	.LBB123:
 1621              		.loc 1 357 0
 1622 0004 0122     		movs	r2, #1
 1623 0006 0DF10701 		add	r1, sp, #7
 1624 000a 0020     		movs	r0, #0
 1625 000c FFF7FEFF 		bl	rf_read_reg
 1626              	.LVL151:
 1627              		.loc 1 358 0
 1628 0010 9DF80730 		ldrb	r3, [sp, #7]	@ zero_extendqisi2
 1629              	.LVL152:
 1630              	.LBE123:
 1631              	.LBE122:
 1632              		.loc 1 221 0
 1633 0014 DA07     		lsls	r2, r3, #31
 1634 0016 09D5     		bpl	.L82
 1635              	.LVL153:
 1636              		.loc 1 222 0
 1637 0018 23F00103 		bic	r3, r3, #1
 1638              	.LVL154:
 1639              	.LBB124:
 1640              	.LBB125:
 1641              		.loc 1 343 0
 1642 001c 0DF10701 		add	r1, sp, #7
 1643 0020 0122     		movs	r2, #1
 1644 0022 0020     		movs	r0, #0
 1645              	.LBE125:
 1646              	.LBE124:
 1647              		.loc 1 223 0
 1648 0024 8DF80730 		strb	r3, [sp, #7]
 1649              	.LVL155:
 1650              	.LBB127:
 1651              	.LBB126:
 1652              		.loc 1 343 0
 1653 0028 FFF7FEFF 		bl	rf_write_reg
ARM GAS  /tmp/ccvTjNA2.s 			page 30


 1654              	.LVL156:
 1655              	.L82:
 1656              	.LBE126:
 1657              	.LBE127:
 1658              		.loc 1 225 0
 1659 002c 03B0     		add	sp, sp, #12
 1660              		.cfi_def_cfa_offset 4
 1661              		@ sp needed
 1662 002e 5DF804FB 		ldr	pc, [sp], #4
 1663              		.cfi_endproc
 1664              	.LFE275:
 1665              		.size	rf_mode_tx, .-rf_mode_tx
 1666 0032 00BF     		.section	.text.rf_mode_rx,"ax",%progbits
 1667              		.align	1
 1668              		.p2align 4,,15
 1669              		.global	rf_mode_rx
 1670              		.syntax unified
 1671              		.thumb
 1672              		.thumb_func
 1673              		.fpu fpv4-sp-d16
 1674              		.type	rf_mode_rx, %function
 1675              	rf_mode_rx:
 1676              	.LFB276:
 1677              		.loc 1 228 0
 1678              		.cfi_startproc
 1679              		@ args = 0, pretend = 0, frame = 8
 1680              		@ frame_needed = 0, uses_anonymous_args = 0
 1681              	.LVL157:
 1682 0000 00B5     		push	{lr}
 1683              		.cfi_def_cfa_offset 4
 1684              		.cfi_offset 14, -4
 1685 0002 83B0     		sub	sp, sp, #12
 1686              		.cfi_def_cfa_offset 16
 1687              	.LBB128:
 1688              	.LBB129:
 1689              		.loc 1 357 0
 1690 0004 0020     		movs	r0, #0
 1691 0006 0DF10701 		add	r1, sp, #7
 1692 000a 0122     		movs	r2, #1
 1693 000c FFF7FEFF 		bl	rf_read_reg
 1694              	.LVL158:
 1695              		.loc 1 358 0
 1696 0010 9DF80730 		ldrb	r3, [sp, #7]	@ zero_extendqisi2
 1697              	.LVL159:
 1698              	.LBE129:
 1699              	.LBE128:
 1700              		.loc 1 230 0
 1701 0014 13F00100 		ands	r0, r3, #1
 1702 0018 08D1     		bne	.L88
 1703              	.LVL160:
 1704 001a 43F00103 		orr	r3, r3, #1
 1705              	.LVL161:
 1706              	.LBB130:
 1707              	.LBB131:
 1708              		.loc 1 343 0
 1709 001e 0DF10701 		add	r1, sp, #7
 1710              	.LVL162:
ARM GAS  /tmp/ccvTjNA2.s 			page 31


 1711 0022 0122     		movs	r2, #1
 1712 0024 8DF80730 		strb	r3, [sp, #7]
 1713              	.LVL163:
 1714 0028 FFF7FEFF 		bl	rf_write_reg
 1715              	.LVL164:
 1716              	.L88:
 1717              	.LBE131:
 1718              	.LBE130:
 1719              		.loc 1 234 0
 1720 002c 03B0     		add	sp, sp, #12
 1721              		.cfi_def_cfa_offset 4
 1722              		@ sp needed
 1723 002e 5DF804FB 		ldr	pc, [sp], #4
 1724              		.cfi_endproc
 1725              	.LFE276:
 1726              		.size	rf_mode_rx, .-rf_mode_rx
 1727 0032 00BF     		.section	.text.rf_enable_pipe_autoack,"ax",%progbits
 1728              		.align	1
 1729              		.p2align 4,,15
 1730              		.global	rf_enable_pipe_autoack
 1731              		.syntax unified
 1732              		.thumb
 1733              		.thumb_func
 1734              		.fpu fpv4-sp-d16
 1735              		.type	rf_enable_pipe_autoack, %function
 1736              	rf_enable_pipe_autoack:
 1737              	.LFB277:
 1738              		.loc 1 237 0
 1739              		.cfi_startproc
 1740              		@ args = 0, pretend = 0, frame = 8
 1741              		@ frame_needed = 0, uses_anonymous_args = 0
 1742              	.LVL165:
 1743 0000 10B5     		push	{r4, lr}
 1744              		.cfi_def_cfa_offset 8
 1745              		.cfi_offset 4, -8
 1746              		.cfi_offset 14, -4
 1747              	.LBB132:
 1748              	.LBB133:
 1749              		.loc 1 357 0
 1750 0002 0122     		movs	r2, #1
 1751              	.LBE133:
 1752              	.LBE132:
 1753              		.loc 1 237 0
 1754 0004 82B0     		sub	sp, sp, #8
 1755              		.cfi_def_cfa_offset 16
 1756              		.loc 1 237 0
 1757 0006 0446     		mov	r4, r0
 1758              	.LBB135:
 1759              	.LBB134:
 1760              		.loc 1 357 0
 1761 0008 0DF10701 		add	r1, sp, #7
 1762 000c 1046     		mov	r0, r2
 1763              	.LVL166:
 1764 000e FFF7FEFF 		bl	rf_read_reg
 1765              	.LVL167:
 1766              		.loc 1 358 0
 1767 0012 9DF80700 		ldrb	r0, [sp, #7]	@ zero_extendqisi2
ARM GAS  /tmp/ccvTjNA2.s 			page 32


 1768              	.LVL168:
 1769              	.LBE134:
 1770              	.LBE135:
 1771              		.loc 1 239 0
 1772 0016 34EA0003 		bics	r3, r4, r0
 1773 001a 09D0     		beq	.L91
 1774              	.LVL169:
 1775              	.LBB136:
 1776              	.LBB137:
 1777              		.loc 1 343 0
 1778 001c 0122     		movs	r2, #1
 1779              	.LBE137:
 1780              	.LBE136:
 1781              		.loc 1 240 0
 1782 001e 40EA0403 		orr	r3, r0, r4
 1783              	.LVL170:
 1784              	.LBB140:
 1785              	.LBB138:
 1786              		.loc 1 343 0
 1787 0022 0DF10701 		add	r1, sp, #7
 1788 0026 1046     		mov	r0, r2
 1789              	.LBE138:
 1790              	.LBE140:
 1791              		.loc 1 241 0
 1792 0028 8DF80730 		strb	r3, [sp, #7]
 1793              	.LVL171:
 1794              	.LBB141:
 1795              	.LBB139:
 1796              		.loc 1 343 0
 1797 002c FFF7FEFF 		bl	rf_write_reg
 1798              	.LVL172:
 1799              	.L91:
 1800              	.LBE139:
 1801              	.LBE141:
 1802              		.loc 1 243 0
 1803 0030 02B0     		add	sp, sp, #8
 1804              		.cfi_def_cfa_offset 8
 1805              		@ sp needed
 1806 0032 10BD     		pop	{r4, pc}
 1807              		.cfi_endproc
 1808              	.LFE277:
 1809              		.size	rf_enable_pipe_autoack, .-rf_enable_pipe_autoack
 1810              		.section	.text.rf_enable_pipe_address,"ax",%progbits
 1811              		.align	1
 1812              		.p2align 4,,15
 1813              		.global	rf_enable_pipe_address
 1814              		.syntax unified
 1815              		.thumb
 1816              		.thumb_func
 1817              		.fpu fpv4-sp-d16
 1818              		.type	rf_enable_pipe_address, %function
 1819              	rf_enable_pipe_address:
 1820              	.LFB278:
 1821              		.loc 1 246 0
 1822              		.cfi_startproc
 1823              		@ args = 0, pretend = 0, frame = 8
 1824              		@ frame_needed = 0, uses_anonymous_args = 0
ARM GAS  /tmp/ccvTjNA2.s 			page 33


 1825              	.LVL173:
 1826 0000 10B5     		push	{r4, lr}
 1827              		.cfi_def_cfa_offset 8
 1828              		.cfi_offset 4, -8
 1829              		.cfi_offset 14, -4
 1830 0002 82B0     		sub	sp, sp, #8
 1831              		.cfi_def_cfa_offset 16
 1832              		.loc 1 246 0
 1833 0004 0446     		mov	r4, r0
 1834              	.LBB142:
 1835              	.LBB143:
 1836              		.loc 1 357 0
 1837 0006 0DF10701 		add	r1, sp, #7
 1838 000a 0220     		movs	r0, #2
 1839              	.LVL174:
 1840 000c 0122     		movs	r2, #1
 1841 000e FFF7FEFF 		bl	rf_read_reg
 1842              	.LVL175:
 1843              		.loc 1 358 0
 1844 0012 9DF80700 		ldrb	r0, [sp, #7]	@ zero_extendqisi2
 1845              	.LVL176:
 1846              	.LBE143:
 1847              	.LBE142:
 1848              		.loc 1 248 0
 1849 0016 34EA0003 		bics	r3, r4, r0
 1850 001a 09D0     		beq	.L94
 1851              	.LVL177:
 1852              		.loc 1 249 0
 1853 001c 40EA0403 		orr	r3, r0, r4
 1854              	.LVL178:
 1855              	.LBB144:
 1856              	.LBB145:
 1857              		.loc 1 343 0
 1858 0020 0DF10701 		add	r1, sp, #7
 1859 0024 0122     		movs	r2, #1
 1860 0026 0220     		movs	r0, #2
 1861              	.LBE145:
 1862              	.LBE144:
 1863              		.loc 1 250 0
 1864 0028 8DF80730 		strb	r3, [sp, #7]
 1865              	.LVL179:
 1866              	.LBB147:
 1867              	.LBB146:
 1868              		.loc 1 343 0
 1869 002c FFF7FEFF 		bl	rf_write_reg
 1870              	.LVL180:
 1871              	.L94:
 1872              	.LBE146:
 1873              	.LBE147:
 1874              		.loc 1 252 0
 1875 0030 02B0     		add	sp, sp, #8
 1876              		.cfi_def_cfa_offset 8
 1877              		@ sp needed
 1878 0032 10BD     		pop	{r4, pc}
 1879              		.cfi_endproc
 1880              	.LFE278:
 1881              		.size	rf_enable_pipe_address, .-rf_enable_pipe_address
ARM GAS  /tmp/ccvTjNA2.s 			page 34


 1882              		.section	.text.rf_enable_pipe_dlp,"ax",%progbits
 1883              		.align	1
 1884              		.p2align 4,,15
 1885              		.global	rf_enable_pipe_dlp
 1886              		.syntax unified
 1887              		.thumb
 1888              		.thumb_func
 1889              		.fpu fpv4-sp-d16
 1890              		.type	rf_enable_pipe_dlp, %function
 1891              	rf_enable_pipe_dlp:
 1892              	.LFB279:
 1893              		.loc 1 255 0
 1894              		.cfi_startproc
 1895              		@ args = 0, pretend = 0, frame = 8
 1896              		@ frame_needed = 0, uses_anonymous_args = 0
 1897              	.LVL181:
 1898 0000 10B5     		push	{r4, lr}
 1899              		.cfi_def_cfa_offset 8
 1900              		.cfi_offset 4, -8
 1901              		.cfi_offset 14, -4
 1902 0002 82B0     		sub	sp, sp, #8
 1903              		.cfi_def_cfa_offset 16
 1904              		.loc 1 255 0
 1905 0004 0446     		mov	r4, r0
 1906              	.LBB148:
 1907              	.LBB149:
 1908              		.loc 1 357 0
 1909 0006 0DF10701 		add	r1, sp, #7
 1910 000a 1C20     		movs	r0, #28
 1911              	.LVL182:
 1912 000c 0122     		movs	r2, #1
 1913 000e FFF7FEFF 		bl	rf_read_reg
 1914              	.LVL183:
 1915              		.loc 1 358 0
 1916 0012 9DF80700 		ldrb	r0, [sp, #7]	@ zero_extendqisi2
 1917              	.LVL184:
 1918              	.LBE149:
 1919              	.LBE148:
 1920              		.loc 1 257 0
 1921 0016 34EA0003 		bics	r3, r4, r0
 1922 001a 09D0     		beq	.L97
 1923              	.LVL185:
 1924              		.loc 1 258 0
 1925 001c 40EA0403 		orr	r3, r0, r4
 1926              	.LVL186:
 1927              	.LBB150:
 1928              	.LBB151:
 1929              		.loc 1 343 0
 1930 0020 0DF10701 		add	r1, sp, #7
 1931 0024 0122     		movs	r2, #1
 1932 0026 1C20     		movs	r0, #28
 1933              	.LBE151:
 1934              	.LBE150:
 1935              		.loc 1 259 0
 1936 0028 8DF80730 		strb	r3, [sp, #7]
 1937              	.LVL187:
 1938              	.LBB153:
ARM GAS  /tmp/ccvTjNA2.s 			page 35


 1939              	.LBB152:
 1940              		.loc 1 343 0
 1941 002c FFF7FEFF 		bl	rf_write_reg
 1942              	.LVL188:
 1943              	.L97:
 1944              	.LBE152:
 1945              	.LBE153:
 1946              		.loc 1 261 0
 1947 0030 02B0     		add	sp, sp, #8
 1948              		.cfi_def_cfa_offset 8
 1949              		@ sp needed
 1950 0032 10BD     		pop	{r4, pc}
 1951              		.cfi_endproc
 1952              	.LFE279:
 1953              		.size	rf_enable_pipe_dlp, .-rf_enable_pipe_dlp
 1954              		.section	.text.rf_enable_features,"ax",%progbits
 1955              		.align	1
 1956              		.p2align 4,,15
 1957              		.global	rf_enable_features
 1958              		.syntax unified
 1959              		.thumb
 1960              		.thumb_func
 1961              		.fpu fpv4-sp-d16
 1962              		.type	rf_enable_features, %function
 1963              	rf_enable_features:
 1964              	.LFB280:
 1965              		.loc 1 264 0
 1966              		.cfi_startproc
 1967              		@ args = 0, pretend = 0, frame = 8
 1968              		@ frame_needed = 0, uses_anonymous_args = 0
 1969              	.LVL189:
 1970 0000 10B5     		push	{r4, lr}
 1971              		.cfi_def_cfa_offset 8
 1972              		.cfi_offset 4, -8
 1973              		.cfi_offset 14, -4
 1974 0002 82B0     		sub	sp, sp, #8
 1975              		.cfi_def_cfa_offset 16
 1976              		.loc 1 264 0
 1977 0004 0446     		mov	r4, r0
 1978              	.LBB154:
 1979              	.LBB155:
 1980              		.loc 1 357 0
 1981 0006 0DF10701 		add	r1, sp, #7
 1982 000a 1D20     		movs	r0, #29
 1983              	.LVL190:
 1984 000c 0122     		movs	r2, #1
 1985 000e FFF7FEFF 		bl	rf_read_reg
 1986              	.LVL191:
 1987              		.loc 1 358 0
 1988 0012 9DF80700 		ldrb	r0, [sp, #7]	@ zero_extendqisi2
 1989              	.LVL192:
 1990              	.LBE155:
 1991              	.LBE154:
 1992              		.loc 1 266 0
 1993 0016 34EA0003 		bics	r3, r4, r0
 1994 001a 09D0     		beq	.L100
 1995              	.LVL193:
ARM GAS  /tmp/ccvTjNA2.s 			page 36


 1996              		.loc 1 267 0
 1997 001c 40EA0403 		orr	r3, r0, r4
 1998              	.LVL194:
 1999              	.LBB156:
 2000              	.LBB157:
 2001              		.loc 1 343 0
 2002 0020 0DF10701 		add	r1, sp, #7
 2003 0024 0122     		movs	r2, #1
 2004 0026 1D20     		movs	r0, #29
 2005              	.LBE157:
 2006              	.LBE156:
 2007              		.loc 1 268 0
 2008 0028 8DF80730 		strb	r3, [sp, #7]
 2009              	.LVL195:
 2010              	.LBB159:
 2011              	.LBB158:
 2012              		.loc 1 343 0
 2013 002c FFF7FEFF 		bl	rf_write_reg
 2014              	.LVL196:
 2015              	.L100:
 2016              	.LBE158:
 2017              	.LBE159:
 2018              		.loc 1 270 0
 2019 0030 02B0     		add	sp, sp, #8
 2020              		.cfi_def_cfa_offset 8
 2021              		@ sp needed
 2022 0032 10BD     		pop	{r4, pc}
 2023              		.cfi_endproc
 2024              	.LFE280:
 2025              		.size	rf_enable_features, .-rf_enable_features
 2026              		.section	.text.rf_fifo_status,"ax",%progbits
 2027              		.align	1
 2028              		.p2align 4,,15
 2029              		.global	rf_fifo_status
 2030              		.syntax unified
 2031              		.thumb
 2032              		.thumb_func
 2033              		.fpu fpv4-sp-d16
 2034              		.type	rf_fifo_status, %function
 2035              	rf_fifo_status:
 2036              	.LFB290:
 2037              		.loc 1 325 0
 2038              		.cfi_startproc
 2039              		@ args = 0, pretend = 0, frame = 8
 2040              		@ frame_needed = 0, uses_anonymous_args = 0
 2041              	.LVL197:
 2042 0000 00B5     		push	{lr}
 2043              		.cfi_def_cfa_offset 4
 2044              		.cfi_offset 14, -4
 2045 0002 83B0     		sub	sp, sp, #12
 2046              		.cfi_def_cfa_offset 16
 2047              	.LBB160:
 2048              	.LBB161:
 2049              		.loc 1 357 0
 2050 0004 0122     		movs	r2, #1
 2051 0006 0DF10701 		add	r1, sp, #7
 2052 000a 1720     		movs	r0, #23
ARM GAS  /tmp/ccvTjNA2.s 			page 37


 2053 000c FFF7FEFF 		bl	rf_read_reg
 2054              	.LVL198:
 2055              	.LBE161:
 2056              	.LBE160:
 2057              		.loc 1 327 0
 2058 0010 9DF80700 		ldrb	r0, [sp, #7]	@ zero_extendqisi2
 2059 0014 03B0     		add	sp, sp, #12
 2060              		.cfi_def_cfa_offset 4
 2061              		@ sp needed
 2062 0016 5DF804FB 		ldr	pc, [sp], #4
 2063              		.cfi_endproc
 2064              	.LFE290:
 2065              		.size	rf_fifo_status, .-rf_fifo_status
 2066 001a 00BF     		.section	.text.rf_rx_power_detect,"ax",%progbits
 2067              		.align	1
 2068              		.p2align 4,,15
 2069              		.global	rf_rx_power_detect
 2070              		.syntax unified
 2071              		.thumb
 2072              		.thumb_func
 2073              		.fpu fpv4-sp-d16
 2074              		.type	rf_rx_power_detect, %function
 2075              	rf_rx_power_detect:
 2076              	.LFB291:
 2077              		.loc 1 329 0
 2078              		.cfi_startproc
 2079              		@ args = 0, pretend = 0, frame = 8
 2080              		@ frame_needed = 0, uses_anonymous_args = 0
 2081              	.LVL199:
 2082 0000 00B5     		push	{lr}
 2083              		.cfi_def_cfa_offset 4
 2084              		.cfi_offset 14, -4
 2085 0002 83B0     		sub	sp, sp, #12
 2086              		.cfi_def_cfa_offset 16
 2087              	.LBB162:
 2088              	.LBB163:
 2089              		.loc 1 357 0
 2090 0004 0122     		movs	r2, #1
 2091 0006 0DF10701 		add	r1, sp, #7
 2092 000a 0920     		movs	r0, #9
 2093 000c FFF7FEFF 		bl	rf_read_reg
 2094              	.LVL200:
 2095              		.loc 1 358 0
 2096 0010 9DF80700 		ldrb	r0, [sp, #7]	@ zero_extendqisi2
 2097              	.LVL201:
 2098              	.LBE163:
 2099              	.LBE162:
 2100              		.loc 1 331 0
 2101 0014 4008     		lsrs	r0, r0, #1
 2102 0016 03B0     		add	sp, sp, #12
 2103              		.cfi_def_cfa_offset 4
 2104              		@ sp needed
 2105 0018 5DF804FB 		ldr	pc, [sp], #4
 2106              		.cfi_endproc
 2107              	.LFE291:
 2108              		.size	rf_rx_power_detect, .-rf_rx_power_detect
 2109              		.section	.text.rf_read_reg_byte,"ax",%progbits
ARM GAS  /tmp/ccvTjNA2.s 			page 38


 2110              		.align	1
 2111              		.p2align 4,,15
 2112              		.global	rf_read_reg_byte
 2113              		.syntax unified
 2114              		.thumb
 2115              		.thumb_func
 2116              		.fpu fpv4-sp-d16
 2117              		.type	rf_read_reg_byte, %function
 2118              	rf_read_reg_byte:
 2119              	.LFB295:
 2120              		.loc 1 355 0
 2121              		.cfi_startproc
 2122              		@ args = 0, pretend = 0, frame = 8
 2123              		@ frame_needed = 0, uses_anonymous_args = 0
 2124              	.LVL202:
 2125 0000 00B5     		push	{lr}
 2126              		.cfi_def_cfa_offset 4
 2127              		.cfi_offset 14, -4
 2128 0002 83B0     		sub	sp, sp, #12
 2129              		.cfi_def_cfa_offset 16
 2130              		.loc 1 357 0
 2131 0004 0122     		movs	r2, #1
 2132 0006 0DF10701 		add	r1, sp, #7
 2133 000a FFF7FEFF 		bl	rf_read_reg
 2134              	.LVL203:
 2135              		.loc 1 359 0
 2136 000e 9DF80700 		ldrb	r0, [sp, #7]	@ zero_extendqisi2
 2137 0012 03B0     		add	sp, sp, #12
 2138              		.cfi_def_cfa_offset 4
 2139              		@ sp needed
 2140 0014 5DF804FB 		ldr	pc, [sp], #4
 2141              		.cfi_endproc
 2142              	.LFE295:
 2143              		.size	rf_read_reg_byte, .-rf_read_reg_byte
 2144              		.text
 2145              	.Letext0:
 2146              		.file 2 "/usr/arm-none-eabi/include/machine/_default_types.h"
 2147              		.file 3 "/usr/arm-none-eabi/include/sys/_stdint.h"
 2148              		.file 4 "/usr/lib/gcc/arm-none-eabi/7.3.1/include/stddef.h"
 2149              		.file 5 "ChibiOS_3.0.5/os/rt/ports/ARMCMx/compilers/GCC/chtypes.h"
 2150              		.file 6 "ChibiOS_3.0.5/os/rt/include/chsystypes.h"
 2151              		.file 7 "ChibiOS_3.0.5/os/rt/include/chschd.h"
 2152              		.file 8 "ChibiOS_3.0.5/os/ext/CMSIS/include/core_cm4.h"
 2153              		.file 9 "ChibiOS_3.0.5/os/ext/CMSIS/ST/system_stm32f4xx.h"
 2154              		.file 10 "ChibiOS_3.0.5/os/ext/CMSIS/ST/stm32f407xx.h"
 2155              		.file 11 "ChibiOS_3.0.5/os/rt/ports/ARMCMx/chcore.h"
 2156              		.file 12 "ChibiOS_3.0.5/os/rt/ports/ARMCMx/chcore_v7m.h"
 2157              		.file 13 "ChibiOS_3.0.5/os/rt/include/chtm.h"
 2158              		.file 14 "ChibiOS_3.0.5/os/rt/include/chsem.h"
 2159              		.file 15 "ChibiOS_3.0.5/os/rt/include/chmtx.h"
 2160              		.file 16 "ChibiOS_3.0.5/os/rt/include/chregistry.h"
 2161              		.file 17 "ChibiOS_3.0.5/os/rt/include/chevents.h"
 2162              		.file 18 "ChibiOS_3.0.5/os/rt/include/chqueues.h"
 2163              		.file 19 "./datatypes.h"
 2164              		.file 20 "./conf_general.h"
 2165              		.file 21 "ChibiOS_3.0.5/os/hal/ports/STM32/STM32F4xx/stm32_dma.h"
 2166              		.file 22 "ChibiOS_3.0.5/os/hal/ports/STM32/LLD/GPIOv2/pal_lld.h"
ARM GAS  /tmp/ccvTjNA2.s 			page 39


 2167              		.file 23 "ChibiOS_3.0.5/os/hal/include/can.h"
 2168              		.file 24 "ChibiOS_3.0.5/os/hal/ports/STM32/LLD/can_lld.h"
 2169              		.file 25 "ChibiOS_3.0.5/os/hal/include/i2c.h"
 2170              		.file 26 "ChibiOS_3.0.5/os/hal/ports/STM32/LLD/I2Cv1/i2c_lld.h"
 2171              		.file 27 "ChibiOS_3.0.5/os/hal/include/icu.h"
 2172              		.file 28 "ChibiOS_3.0.5/os/hal/ports/STM32/LLD/TIMv1/icu_lld.h"
 2173              		.file 29 "ChibiOS_3.0.5/os/hal/ports/STM32/LLD/TIMv1/stm32_tim.h"
 2174              		.file 30 "ChibiOS_3.0.5/os/hal/include/serial.h"
 2175              		.file 31 "ChibiOS_3.0.5/os/hal/ports/STM32/LLD/USARTv1/serial_lld.h"
 2176              		.file 32 "ChibiOS_3.0.5/os/hal/include/spi.h"
 2177              		.file 33 "ChibiOS_3.0.5/os/hal/ports/STM32/LLD/SPIv1/spi_lld.h"
 2178              		.file 34 "ChibiOS_3.0.5/os/hal/include/usb.h"
 2179              		.file 35 "ChibiOS_3.0.5/os/hal/ports/STM32/LLD/OTGv1/usb_lld.h"
 2180              		.file 36 "ChibiOS_3.0.5/os/hal/ports/STM32/LLD/OTGv1/stm32_otg.h"
 2181              		.file 37 "nrf/spi_sw.h"