ARM GAS  /tmp/ccfGKsbN.s 			page 1


   1              		.cpu cortex-m4
   2              		.eabi_attribute 27, 1
   3              		.eabi_attribute 28, 1
   4              		.eabi_attribute 20, 1
   5              		.eabi_attribute 21, 1
   6              		.eabi_attribute 23, 3
   7              		.eabi_attribute 24, 1
   8              		.eabi_attribute 25, 1
   9              		.eabi_attribute 26, 1
  10              		.eabi_attribute 30, 2
  11              		.eabi_attribute 34, 1
  12              		.eabi_attribute 18, 4
  13              		.file	"serial_usb.c"
  14              		.text
  15              	.Ltext0:
  16              		.cfi_sections	.debug_frame
  17              		.section	.text.onotify,"ax",%progbits
  18              		.align	1
  19              		.p2align 4,,15
  20              		.syntax unified
  21              		.thumb
  22              		.thumb_func
  23              		.fpu fpv4-sp-d16
  24              		.type	onotify, %function
  25              	onotify:
  26              	.LFB265:
  27              		.file 1 "ChibiOS_3.0.5/os/hal/src/serial_usb.c"
  28              		.loc 1 144 0
  29              		.cfi_startproc
  30              		@ args = 0, pretend = 0, frame = 0
  31              		@ frame_needed = 0, uses_anonymous_args = 0
  32              	.LVL0:
  33 0000 10B5     		push	{r4, lr}
  34              		.cfi_def_cfa_offset 8
  35              		.cfi_offset 4, -8
  36              		.cfi_offset 14, -4
  37              		.loc 1 146 0
  38 0002 046A     		ldr	r4, [r0, #32]
  39              	.LVL1:
  40              		.loc 1 150 0
  41 0004 D4F85428 		ldr	r2, [r4, #2132]
  42 0008 1368     		ldr	r3, [r2]
  43 000a 1978     		ldrb	r1, [r3]	@ zero_extendqisi2
  44 000c 0429     		cmp	r1, #4
  45 000e 00D0     		beq	.L8
  46              	.L1:
  47              		.loc 1 169 0
  48 0010 10BD     		pop	{r4, pc}
  49              	.LVL2:
  50              	.L8:
  51              		.loc 1 150 0 discriminator 1
  52 0012 217A     		ldrb	r1, [r4, #8]	@ zero_extendqisi2
  53 0014 0229     		cmp	r1, #2
  54 0016 FBD1     		bne	.L1
  55              		.loc 1 157 0
  56 0018 1179     		ldrb	r1, [r2, #4]	@ zero_extendqisi2
  57 001a 1A89     		ldrh	r2, [r3, #8]
ARM GAS  /tmp/ccfGKsbN.s 			page 2


  58 001c 0123     		movs	r3, #1
  59 001e 8B40     		lsls	r3, r3, r1
  60 0020 1342     		tst	r3, r2
  61 0022 F5D1     		bne	.L1
  62              	.LBB200:
  63              	.LBB201:
  64              		.file 2 "ChibiOS_3.0.5/os/rt/include/chqueues.h"
  65              		.loc 2 357 0
  66 0024 D4E90F13 		ldrd	r1, r3, [r4, #60]
  67 0028 A26B     		ldr	r2, [r4, #56]
  68 002a 5B1A     		subs	r3, r3, r1
  69              	.LBE201:
  70              	.LBE200:
  71              		.loc 1 158 0
  72 002c 9B1A     		subs	r3, r3, r2
  73 002e EFD0     		beq	.L1
  74              	.LBB202:
  75              	.LBB203:
  76              	.LBB204:
  77              	.LBB205:
  78              	.LBB206:
  79              	.LBB207:
  80              		.file 3 "ChibiOS_3.0.5/os/ext/CMSIS/include/core_cmFunc.h"
  81              		.loc 3 331 0
  82              		.syntax unified
  83              	@ 331 "ChibiOS_3.0.5/os/ext/CMSIS/include/core_cmFunc.h" 1
  84 0030 62B6     		cpsie i
  85              	@ 0 "" 2
  86              		.thumb
  87              		.syntax unified
  88              	.LBE207:
  89              	.LBE206:
  90              	.LBE205:
  91              	.LBE204:
  92              	.LBE203:
  93              	.LBE202:
  94              		.loc 1 161 0
  95 0032 D4F85428 		ldr	r2, [r4, #2132]
  96 0036 1179     		ldrb	r1, [r2, #4]	@ zero_extendqisi2
  97 0038 1068     		ldr	r0, [r2]
  98              	.LVL3:
  99 003a 04F13002 		add	r2, r4, #48
 100 003e FFF7FEFF 		bl	usbPrepareQueuedTransmit
 101              	.LVL4:
 102              	.LBB208:
 103              	.LBB209:
 104              	.LBB210:
 105              	.LBB211:
 106              	.LBB212:
 107              		.loc 3 342 0
 108              		.syntax unified
 109              	@ 342 "ChibiOS_3.0.5/os/ext/CMSIS/include/core_cmFunc.h" 1
 110 0042 72B6     		cpsid i
 111              	@ 0 "" 2
 112              		.thumb
 113              		.syntax unified
 114              	.LBE212:
ARM GAS  /tmp/ccfGKsbN.s 			page 3


 115              	.LBE211:
 116              	.LBE210:
 117              	.LBE209:
 118              	.LBE208:
 119              		.loc 1 166 0
 120 0044 D4F85438 		ldr	r3, [r4, #2132]
 121              		.loc 1 169 0
 122 0048 BDE81040 		pop	{r4, lr}
 123              		.cfi_restore 14
 124              		.cfi_restore 4
 125              		.cfi_def_cfa_offset 0
 126              	.LVL5:
 127              		.loc 1 166 0
 128 004c 1979     		ldrb	r1, [r3, #4]	@ zero_extendqisi2
 129 004e 1868     		ldr	r0, [r3]
 130 0050 FFF7FEBF 		b	usbStartTransmitI
 131              	.LVL6:
 132              		.cfi_endproc
 133              	.LFE265:
 134              		.size	onotify, .-onotify
 135              		.section	.text.inotify,"ax",%progbits
 136              		.align	1
 137              		.p2align 4,,15
 138              		.syntax unified
 139              		.thumb
 140              		.thumb_func
 141              		.fpu fpv4-sp-d16
 142              		.type	inotify, %function
 143              	inotify:
 144              	.LFB264:
 145              		.loc 1 109 0
 146              		.cfi_startproc
 147              		@ args = 0, pretend = 0, frame = 0
 148              		@ frame_needed = 0, uses_anonymous_args = 0
 149              	.LVL7:
 150 0000 10B5     		push	{r4, lr}
 151              		.cfi_def_cfa_offset 8
 152              		.cfi_offset 4, -8
 153              		.cfi_offset 14, -4
 154              		.loc 1 111 0
 155 0002 046A     		ldr	r4, [r0, #32]
 156              	.LVL8:
 157              		.loc 1 115 0
 158 0004 D4F85428 		ldr	r2, [r4, #2132]
 159 0008 1368     		ldr	r3, [r2]
 160 000a 1978     		ldrb	r1, [r3]	@ zero_extendqisi2
 161 000c 0429     		cmp	r1, #4
 162 000e 00D0     		beq	.L12
 163              	.LVL9:
 164              	.L9:
 165              		.loc 1 137 0
 166 0010 10BD     		pop	{r4, pc}
 167              	.LVL10:
 168              	.L12:
 169              		.loc 1 115 0 discriminator 1
 170 0012 217A     		ldrb	r1, [r4, #8]	@ zero_extendqisi2
 171 0014 0229     		cmp	r1, #2
ARM GAS  /tmp/ccfGKsbN.s 			page 4


 172 0016 FBD1     		bne	.L9
 173              		.loc 1 123 0
 174 0018 5179     		ldrb	r1, [r2, #5]	@ zero_extendqisi2
 175              	.LVL11:
 176              		.loc 1 124 0
 177 001a 5889     		ldrh	r0, [r3, #10]
 178              	.LVL12:
 179 001c 0122     		movs	r2, #1
 180 001e 8A40     		lsls	r2, r2, r1
 181 0020 0242     		tst	r2, r0
 182 0022 F5D1     		bne	.L9
 183              		.loc 1 123 0
 184 0024 03EB8103 		add	r3, r3, r1, lsl #2
 185              	.LVL13:
 186              	.LBB213:
 187              	.LBB214:
 188              		.loc 2 290 0
 189 0028 A269     		ldr	r2, [r4, #24]
 190 002a E169     		ldr	r1, [r4, #28]
 191              	.LVL14:
 192              	.LBE214:
 193              	.LBE213:
 194              		.loc 1 123 0
 195 002c DB68     		ldr	r3, [r3, #12]
 196              	.LBB217:
 197              	.LBB215:
 198              		.loc 2 290 0
 199 002e 6069     		ldr	r0, [r4, #20]
 200              	.LBE215:
 201              	.LBE217:
 202              		.loc 1 123 0
 203 0030 5B8A     		ldrh	r3, [r3, #18]
 204              	.LVL15:
 205              	.LBB218:
 206              	.LBB216:
 207              		.loc 2 290 0
 208 0032 8A1A     		subs	r2, r1, r2
 209 0034 121A     		subs	r2, r2, r0
 210              	.LVL16:
 211              	.LBE216:
 212              	.LBE218:
 213              		.loc 1 125 0
 214 0036 9342     		cmp	r3, r2
 215 0038 EAD8     		bhi	.L9
 216              	.LBB219:
 217              	.LBB220:
 218              	.LBB221:
 219              	.LBB222:
 220              	.LBB223:
 221              	.LBB224:
 222              		.loc 3 331 0
 223              		.syntax unified
 224              	@ 331 "ChibiOS_3.0.5/os/ext/CMSIS/include/core_cmFunc.h" 1
 225 003a 62B6     		cpsie i
 226              	@ 0 "" 2
 227              	.LVL17:
 228              		.thumb
ARM GAS  /tmp/ccfGKsbN.s 			page 5


 229              		.syntax unified
 230              	.LBE224:
 231              	.LBE223:
 232              	.LBE222:
 233              	.LBE221:
 234              	.LBE220:
 235              	.LBE219:
 236              		.loc 1 128 0
 237 003c B2FBF3F2 		udiv	r2, r2, r3
 238              	.LVL18:
 239              		.loc 1 129 0
 240 0040 D4F85408 		ldr	r0, [r4, #2132]
 241              	.LVL19:
 242 0044 03FB02F3 		mul	r3, r3, r2
 243              	.LVL20:
 244 0048 4179     		ldrb	r1, [r0, #5]	@ zero_extendqisi2
 245 004a 0068     		ldr	r0, [r0]
 246 004c 04F10C02 		add	r2, r4, #12
 247 0050 FFF7FEFF 		bl	usbPrepareQueuedReceive
 248              	.LVL21:
 249              	.LBB225:
 250              	.LBB226:
 251              	.LBB227:
 252              	.LBB228:
 253              	.LBB229:
 254              		.loc 3 342 0
 255              		.syntax unified
 256              	@ 342 "ChibiOS_3.0.5/os/ext/CMSIS/include/core_cmFunc.h" 1
 257 0054 72B6     		cpsid i
 258              	@ 0 "" 2
 259              		.thumb
 260              		.syntax unified
 261              	.LBE229:
 262              	.LBE228:
 263              	.LBE227:
 264              	.LBE226:
 265              	.LBE225:
 266              		.loc 1 134 0
 267 0056 D4F85438 		ldr	r3, [r4, #2132]
 268              		.loc 1 137 0
 269 005a BDE81040 		pop	{r4, lr}
 270              		.cfi_restore 14
 271              		.cfi_restore 4
 272              		.cfi_def_cfa_offset 0
 273              	.LVL22:
 274              		.loc 1 134 0
 275 005e 5979     		ldrb	r1, [r3, #5]	@ zero_extendqisi2
 276 0060 1868     		ldr	r0, [r3]
 277 0062 FFF7FEBF 		b	usbStartReceiveI
 278              	.LVL23:
 279              		.cfi_endproc
 280              	.LFE264:
 281              		.size	inotify, .-inotify
 282 0066 00BF     		.section	.text.readt,"ax",%progbits
 283              		.align	1
 284              		.p2align 4,,15
 285              		.syntax unified
ARM GAS  /tmp/ccfGKsbN.s 			page 6


 286              		.thumb
 287              		.thumb_func
 288              		.fpu fpv4-sp-d16
 289              		.type	readt, %function
 290              	readt:
 291              	.LFB263:
 292              		.loc 1 94 0
 293              		.cfi_startproc
 294              		@ args = 0, pretend = 0, frame = 0
 295              		@ frame_needed = 0, uses_anonymous_args = 0
 296              		@ link register save eliminated.
 297              	.LVL24:
 298              		.loc 1 96 0
 299 0000 0C30     		adds	r0, r0, #12
 300              	.LVL25:
 301 0002 FFF7FEBF 		b	chIQReadTimeout
 302              	.LVL26:
 303              		.cfi_endproc
 304              	.LFE263:
 305              		.size	readt, .-readt
 306 0006 00BF     		.section	.text.read,"ax",%progbits
 307              		.align	1
 308              		.p2align 4,,15
 309              		.syntax unified
 310              		.thumb
 311              		.thumb_func
 312              		.fpu fpv4-sp-d16
 313              		.type	read, %function
 314              	read:
 315              	.LFB257:
 316              		.loc 1 63 0
 317              		.cfi_startproc
 318              		@ args = 0, pretend = 0, frame = 0
 319              		@ frame_needed = 0, uses_anonymous_args = 0
 320              		@ link register save eliminated.
 321              	.LVL27:
 322              		.loc 1 65 0
 323 0000 0C30     		adds	r0, r0, #12
 324              	.LVL28:
 325 0002 4FF0FF33 		mov	r3, #-1
 326 0006 FFF7FEBF 		b	chIQReadTimeout
 327              	.LVL29:
 328              		.cfi_endproc
 329              	.LFE257:
 330              		.size	read, .-read
 331 000a 00BF     		.section	.text.writet,"ax",%progbits
 332              		.align	1
 333              		.p2align 4,,15
 334              		.syntax unified
 335              		.thumb
 336              		.thumb_func
 337              		.fpu fpv4-sp-d16
 338              		.type	writet, %function
 339              	writet:
 340              	.LFB262:
 341              		.loc 1 89 0
 342              		.cfi_startproc
ARM GAS  /tmp/ccfGKsbN.s 			page 7


 343              		@ args = 0, pretend = 0, frame = 0
 344              		@ frame_needed = 0, uses_anonymous_args = 0
 345              		@ link register save eliminated.
 346              	.LVL30:
 347              		.loc 1 91 0
 348 0000 3030     		adds	r0, r0, #48
 349              	.LVL31:
 350 0002 FFF7FEBF 		b	chOQWriteTimeout
 351              	.LVL32:
 352              		.cfi_endproc
 353              	.LFE262:
 354              		.size	writet, .-writet
 355 0006 00BF     		.section	.text.write,"ax",%progbits
 356              		.align	1
 357              		.p2align 4,,15
 358              		.syntax unified
 359              		.thumb
 360              		.thumb_func
 361              		.fpu fpv4-sp-d16
 362              		.type	write, %function
 363              	write:
 364              	.LFB256:
 365              		.loc 1 57 0
 366              		.cfi_startproc
 367              		@ args = 0, pretend = 0, frame = 0
 368              		@ frame_needed = 0, uses_anonymous_args = 0
 369              		@ link register save eliminated.
 370              	.LVL33:
 371              		.loc 1 59 0
 372 0000 3030     		adds	r0, r0, #48
 373              	.LVL34:
 374 0002 4FF0FF33 		mov	r3, #-1
 375 0006 FFF7FEBF 		b	chOQWriteTimeout
 376              	.LVL35:
 377              		.cfi_endproc
 378              	.LFE256:
 379              		.size	write, .-write
 380 000a 00BF     		.section	.text.gett,"ax",%progbits
 381              		.align	1
 382              		.p2align 4,,15
 383              		.syntax unified
 384              		.thumb
 385              		.thumb_func
 386              		.fpu fpv4-sp-d16
 387              		.type	gett, %function
 388              	gett:
 389              	.LFB261:
 390              		.loc 1 84 0
 391              		.cfi_startproc
 392              		@ args = 0, pretend = 0, frame = 0
 393              		@ frame_needed = 0, uses_anonymous_args = 0
 394              		@ link register save eliminated.
 395              	.LVL36:
 396              		.loc 1 86 0
 397 0000 0C30     		adds	r0, r0, #12
 398              	.LVL37:
 399 0002 FFF7FEBF 		b	chIQGetTimeout
ARM GAS  /tmp/ccfGKsbN.s 			page 8


 400              	.LVL38:
 401              		.cfi_endproc
 402              	.LFE261:
 403              		.size	gett, .-gett
 404 0006 00BF     		.section	.text.get,"ax",%progbits
 405              		.align	1
 406              		.p2align 4,,15
 407              		.syntax unified
 408              		.thumb
 409              		.thumb_func
 410              		.fpu fpv4-sp-d16
 411              		.type	get, %function
 412              	get:
 413              	.LFB259:
 414              		.loc 1 74 0
 415              		.cfi_startproc
 416              		@ args = 0, pretend = 0, frame = 0
 417              		@ frame_needed = 0, uses_anonymous_args = 0
 418              		@ link register save eliminated.
 419              	.LVL39:
 420              		.loc 1 76 0
 421 0000 0C30     		adds	r0, r0, #12
 422              	.LVL40:
 423 0002 4FF0FF31 		mov	r1, #-1
 424 0006 FFF7FEBF 		b	chIQGetTimeout
 425              	.LVL41:
 426              		.cfi_endproc
 427              	.LFE259:
 428              		.size	get, .-get
 429 000a 00BF     		.section	.text.putt,"ax",%progbits
 430              		.align	1
 431              		.p2align 4,,15
 432              		.syntax unified
 433              		.thumb
 434              		.thumb_func
 435              		.fpu fpv4-sp-d16
 436              		.type	putt, %function
 437              	putt:
 438              	.LFB260:
 439              		.loc 1 79 0
 440              		.cfi_startproc
 441              		@ args = 0, pretend = 0, frame = 0
 442              		@ frame_needed = 0, uses_anonymous_args = 0
 443              		@ link register save eliminated.
 444              	.LVL42:
 445              		.loc 1 81 0
 446 0000 3030     		adds	r0, r0, #48
 447              	.LVL43:
 448 0002 FFF7FEBF 		b	chOQPutTimeout
 449              	.LVL44:
 450              		.cfi_endproc
 451              	.LFE260:
 452              		.size	putt, .-putt
 453 0006 00BF     		.section	.text.put,"ax",%progbits
 454              		.align	1
 455              		.p2align 4,,15
 456              		.syntax unified
ARM GAS  /tmp/ccfGKsbN.s 			page 9


 457              		.thumb
 458              		.thumb_func
 459              		.fpu fpv4-sp-d16
 460              		.type	put, %function
 461              	put:
 462              	.LFB258:
 463              		.loc 1 69 0
 464              		.cfi_startproc
 465              		@ args = 0, pretend = 0, frame = 0
 466              		@ frame_needed = 0, uses_anonymous_args = 0
 467              		@ link register save eliminated.
 468              	.LVL45:
 469              		.loc 1 71 0
 470 0000 3030     		adds	r0, r0, #48
 471              	.LVL46:
 472 0002 4FF0FF32 		mov	r2, #-1
 473 0006 FFF7FEBF 		b	chOQPutTimeout
 474              	.LVL47:
 475              		.cfi_endproc
 476              	.LFE258:
 477              		.size	put, .-put
 478 000a 00BF     		.section	.text.sduInit,"ax",%progbits
 479              		.align	1
 480              		.p2align 4,,15
 481              		.global	sduInit
 482              		.syntax unified
 483              		.thumb
 484              		.thumb_func
 485              		.fpu fpv4-sp-d16
 486              		.type	sduInit, %function
 487              	sduInit:
 488              	.LFB266:
 489              		.loc 1 182 0
 490              		.cfi_startproc
 491              		@ args = 0, pretend = 0, frame = 0
 492              		@ frame_needed = 0, uses_anonymous_args = 0
 493              		@ link register save eliminated.
 494              		.loc 1 183 0
 495 0000 7047     		bx	lr
 496              		.cfi_endproc
 497              	.LFE266:
 498              		.size	sduInit, .-sduInit
 499 0002 00BF     		.section	.text.sduObjectInit,"ax",%progbits
 500              		.align	1
 501              		.p2align 4,,15
 502              		.global	sduObjectInit
 503              		.syntax unified
 504              		.thumb
 505              		.thumb_func
 506              		.fpu fpv4-sp-d16
 507              		.type	sduObjectInit, %function
 508              	sduObjectInit:
 509              	.LFB267:
 510              		.loc 1 194 0
 511              		.cfi_startproc
 512              		@ args = 0, pretend = 0, frame = 0
 513              		@ frame_needed = 0, uses_anonymous_args = 0
ARM GAS  /tmp/ccfGKsbN.s 			page 10


 514              	.LVL48:
 515 0000 10B5     		push	{r4, lr}
 516              		.cfi_def_cfa_offset 8
 517              		.cfi_offset 4, -8
 518              		.cfi_offset 14, -4
 519              		.loc 1 196 0
 520 0002 0346     		mov	r3, r0
 521 0004 0E4A     		ldr	r2, .L24
 522 0006 43F8042B 		str	r2, [r3], #4
 523              	.LVL49:
 524              		.loc 1 194 0
 525 000a 82B0     		sub	sp, sp, #8
 526              		.cfi_def_cfa_offset 16
 527              		.loc 1 198 0
 528 000c 0122     		movs	r2, #1
 529              		.loc 1 194 0
 530 000e 0446     		mov	r4, r0
 531              		.loc 1 199 0
 532 0010 0090     		str	r0, [sp]
 533 0012 00F15401 		add	r1, r0, #84
 534              	.LBB230:
 535              	.LBB231:
 536              	.LBB232:
 537              		.file 4 "ChibiOS_3.0.5/os/rt/include/chevents.h"
 538              		.loc 4 172 0
 539 0016 4360     		str	r3, [r0, #4]
 540              	.LVL50:
 541              	.LBE232:
 542              	.LBE231:
 543              	.LBE230:
 544              		.loc 1 198 0
 545 0018 0272     		strb	r2, [r0, #8]
 546              		.loc 1 199 0
 547 001a 0A4B     		ldr	r3, .L24+4
 548 001c 0C30     		adds	r0, r0, #12
 549              	.LVL51:
 550 001e 4FF48062 		mov	r2, #1024
 551 0022 FFF7FEFF 		bl	chIQObjectInit
 552              	.LVL52:
 553              		.loc 1 200 0
 554 0026 0094     		str	r4, [sp]
 555 0028 04F25441 		addw	r1, r4, #1108
 556 002c 04F13000 		add	r0, r4, #48
 557 0030 054B     		ldr	r3, .L24+8
 558 0032 4FF48062 		mov	r2, #1024
 559 0036 FFF7FEFF 		bl	chOQObjectInit
 560              	.LVL53:
 561              		.loc 1 201 0
 562 003a 02B0     		add	sp, sp, #8
 563              		.cfi_def_cfa_offset 8
 564              		@ sp needed
 565 003c 10BD     		pop	{r4, pc}
 566              	.LVL54:
 567              	.L25:
 568 003e 00BF     		.align	2
 569              	.L24:
 570 0040 00000000 		.word	.LANCHOR0
ARM GAS  /tmp/ccfGKsbN.s 			page 11


 571 0044 00000000 		.word	inotify
 572 0048 00000000 		.word	onotify
 573              		.cfi_endproc
 574              	.LFE267:
 575              		.size	sduObjectInit, .-sduObjectInit
 576              		.section	.text.sduStart,"ax",%progbits
 577              		.align	1
 578              		.p2align 4,,15
 579              		.global	sduStart
 580              		.syntax unified
 581              		.thumb
 582              		.thumb_func
 583              		.fpu fpv4-sp-d16
 584              		.type	sduStart, %function
 585              	sduStart:
 586              	.LFB268:
 587              		.loc 1 211 0
 588              		.cfi_startproc
 589              		@ args = 0, pretend = 0, frame = 0
 590              		@ frame_needed = 0, uses_anonymous_args = 0
 591              		@ link register save eliminated.
 592              	.LVL55:
 593              		.loc 1 212 0
 594 0000 0B68     		ldr	r3, [r1]
 595              	.LVL56:
 596              	.LBB233:
 597              	.LBB234:
 598              	.LBB235:
 599              	.LBB236:
 600              	.LBB237:
 601              		.loc 3 342 0
 602              		.syntax unified
 603              	@ 342 "ChibiOS_3.0.5/os/ext/CMSIS/include/core_cmFunc.h" 1
 604 0002 72B6     		cpsid i
 605              	@ 0 "" 2
 606              		.thumb
 607              		.syntax unified
 608              	.LBE237:
 609              	.LBE236:
 610              	.LBE235:
 611              	.LBE234:
 612              	.LBE233:
 613              		.loc 1 219 0
 614 0004 0A79     		ldrb	r2, [r1, #4]	@ zero_extendqisi2
 615 0006 03EB8202 		add	r2, r3, r2, lsl #2
 616 000a 9061     		str	r0, [r2, #24]
 617              		.loc 1 220 0
 618 000c 4A79     		ldrb	r2, [r1, #5]	@ zero_extendqisi2
 619 000e 0932     		adds	r2, r2, #9
 620 0010 43F82200 		str	r0, [r3, r2, lsl #2]
 621              		.loc 1 221 0
 622 0014 8A79     		ldrb	r2, [r1, #6]	@ zero_extendqisi2
 623 0016 12B1     		cbz	r2, .L27
 624              		.loc 1 222 0
 625 0018 03EB8203 		add	r3, r3, r2, lsl #2
 626              	.LVL57:
 627 001c 9861     		str	r0, [r3, #24]
ARM GAS  /tmp/ccfGKsbN.s 			page 12


 628              	.L27:
 629              		.loc 1 225 0
 630 001e 0223     		movs	r3, #2
 631              		.loc 1 224 0
 632 0020 C0F85418 		str	r1, [r0, #2132]
 633              		.loc 1 225 0
 634 0024 0372     		strb	r3, [r0, #8]
 635              	.LBB238:
 636              	.LBB239:
 637              	.LBB240:
 638              	.LBB241:
 639              	.LBB242:
 640              	.LBB243:
 641              		.loc 3 331 0
 642              		.syntax unified
 643              	@ 331 "ChibiOS_3.0.5/os/ext/CMSIS/include/core_cmFunc.h" 1
 644 0026 62B6     		cpsie i
 645              	@ 0 "" 2
 646              		.thumb
 647              		.syntax unified
 648              	.LBE243:
 649              	.LBE242:
 650              	.LBE241:
 651              	.LBE240:
 652              	.LBE239:
 653              	.LBE238:
 654              		.loc 1 227 0
 655 0028 7047     		bx	lr
 656              		.cfi_endproc
 657              	.LFE268:
 658              		.size	sduStart, .-sduStart
 659 002a 00BF     		.section	.text.sduStop,"ax",%progbits
 660              		.align	1
 661              		.p2align 4,,15
 662              		.global	sduStop
 663              		.syntax unified
 664              		.thumb
 665              		.thumb_func
 666              		.fpu fpv4-sp-d16
 667              		.type	sduStop, %function
 668              	sduStop:
 669              	.LFB269:
 670              		.loc 1 238 0
 671              		.cfi_startproc
 672              		@ args = 0, pretend = 0, frame = 0
 673              		@ frame_needed = 0, uses_anonymous_args = 0
 674              	.LVL58:
 675              		.loc 1 239 0
 676 0000 D0F85438 		ldr	r3, [r0, #2132]
 677              		.loc 1 238 0
 678 0004 10B5     		push	{r4, lr}
 679              		.cfi_def_cfa_offset 8
 680              		.cfi_offset 4, -8
 681              		.cfi_offset 14, -4
 682              		.loc 1 239 0
 683 0006 1A68     		ldr	r2, [r3]
 684              	.LVL59:
ARM GAS  /tmp/ccfGKsbN.s 			page 13


 685              		.loc 1 238 0
 686 0008 0446     		mov	r4, r0
 687              	.LBB244:
 688              	.LBB245:
 689              	.LBB246:
 690              	.LBB247:
 691              	.LBB248:
 692              		.loc 3 342 0
 693              		.syntax unified
 694              	@ 342 "ChibiOS_3.0.5/os/ext/CMSIS/include/core_cmFunc.h" 1
 695 000a 72B6     		cpsid i
 696              	@ 0 "" 2
 697              		.thumb
 698              		.syntax unified
 699              	.LBE248:
 700              	.LBE247:
 701              	.LBE246:
 702              	.LBE245:
 703              	.LBE244:
 704              		.loc 1 248 0
 705 000c D0F85418 		ldr	r1, [r0, #2132]
 706 0010 0B79     		ldrb	r3, [r1, #4]	@ zero_extendqisi2
 707 0012 0533     		adds	r3, r3, #5
 708 0014 02EB8303 		add	r3, r2, r3, lsl #2
 709 0018 0020     		movs	r0, #0
 710              	.LVL60:
 711 001a 5860     		str	r0, [r3, #4]
 712              		.loc 1 249 0
 713 001c 4B79     		ldrb	r3, [r1, #5]	@ zero_extendqisi2
 714 001e 0933     		adds	r3, r3, #9
 715 0020 42F82300 		str	r0, [r2, r3, lsl #2]
 716              		.loc 1 250 0
 717 0024 8B79     		ldrb	r3, [r1, #6]	@ zero_extendqisi2
 718 0026 1BB1     		cbz	r3, .L32
 719              		.loc 1 251 0
 720 0028 0533     		adds	r3, r3, #5
 721 002a 02EB8302 		add	r2, r2, r3, lsl #2
 722              	.LVL61:
 723 002e 5060     		str	r0, [r2, #4]
 724              	.L32:
 725              		.loc 1 253 0
 726 0030 0123     		movs	r3, #1
 727 0032 2372     		strb	r3, [r4, #8]
 728              	.LVL62:
 729              	.LBB249:
 730              	.LBB250:
 731              		.file 5 "ChibiOS_3.0.5/os/hal/osal/rt/osal.h"
 732              		.loc 5 844 0
 733 0034 0221     		movs	r1, #2
 734 0036 201D     		adds	r0, r4, #4
 735              	.LVL63:
 736 0038 FFF7FEFF 		bl	chEvtBroadcastFlagsI
 737              	.LVL64:
 738              	.LBE250:
 739              	.LBE249:
 740              		.loc 1 257 0
 741 003c 04F10C00 		add	r0, r4, #12
ARM GAS  /tmp/ccfGKsbN.s 			page 14


 742 0040 FFF7FEFF 		bl	chIQResetI
 743              	.LVL65:
 744              		.loc 1 258 0
 745 0044 04F13000 		add	r0, r4, #48
 746 0048 FFF7FEFF 		bl	chOQResetI
 747              	.LVL66:
 748              	.LBB251:
 749              	.LBB252:
 750              		.loc 5 600 0
 751 004c FFF7FEFF 		bl	chSchRescheduleS
 752              	.LVL67:
 753              	.LBE252:
 754              	.LBE251:
 755              	.LBB253:
 756              	.LBB254:
 757              	.LBB255:
 758              	.LBB256:
 759              	.LBB257:
 760              	.LBB258:
 761              		.loc 3 331 0
 762              		.syntax unified
 763              	@ 331 "ChibiOS_3.0.5/os/ext/CMSIS/include/core_cmFunc.h" 1
 764 0050 62B6     		cpsie i
 765              	@ 0 "" 2
 766              		.thumb
 767              		.syntax unified
 768              	.LBE258:
 769              	.LBE257:
 770              	.LBE256:
 771              	.LBE255:
 772              	.LBE254:
 773              	.LBE253:
 774              		.loc 1 261 0
 775 0052 10BD     		pop	{r4, pc}
 776              		.cfi_endproc
 777              	.LFE269:
 778              		.size	sduStop, .-sduStop
 779              		.section	.text.sduConfigureHookI,"ax",%progbits
 780              		.align	1
 781              		.p2align 4,,15
 782              		.global	sduConfigureHookI
 783              		.syntax unified
 784              		.thumb
 785              		.thumb_func
 786              		.fpu fpv4-sp-d16
 787              		.type	sduConfigureHookI, %function
 788              	sduConfigureHookI:
 789              	.LFB270:
 790              		.loc 1 270 0
 791              		.cfi_startproc
 792              		@ args = 0, pretend = 0, frame = 0
 793              		@ frame_needed = 0, uses_anonymous_args = 0
 794              	.LVL68:
 795 0000 70B5     		push	{r4, r5, r6, lr}
 796              		.cfi_def_cfa_offset 16
 797              		.cfi_offset 4, -16
 798              		.cfi_offset 5, -12
ARM GAS  /tmp/ccfGKsbN.s 			page 15


 799              		.cfi_offset 6, -8
 800              		.cfi_offset 14, -4
 801              		.loc 1 271 0
 802 0002 D0F85438 		ldr	r3, [r0, #2132]
 803              		.loc 1 273 0
 804 0006 00F10C06 		add	r6, r0, #12
 805              		.loc 1 270 0
 806 000a 0446     		mov	r4, r0
 807              		.loc 1 273 0
 808 000c 3046     		mov	r0, r6
 809              	.LVL69:
 810              		.loc 1 271 0
 811 000e 1D68     		ldr	r5, [r3]
 812              	.LVL70:
 813              		.loc 1 273 0
 814 0010 FFF7FEFF 		bl	chIQResetI
 815              	.LVL71:
 816              		.loc 1 274 0
 817 0014 04F13000 		add	r0, r4, #48
 818 0018 FFF7FEFF 		bl	chOQResetI
 819              	.LVL72:
 820              	.LBB259:
 821              	.LBB260:
 822              		.loc 5 844 0
 823 001c 201D     		adds	r0, r4, #4
 824              	.LVL73:
 825 001e 0121     		movs	r1, #1
 826 0020 FFF7FEFF 		bl	chEvtBroadcastFlagsI
 827              	.LVL74:
 828              	.LBE260:
 829              	.LBE259:
 830              		.loc 1 278 0
 831 0024 D4F85438 		ldr	r3, [r4, #2132]
 832 0028 5979     		ldrb	r1, [r3, #5]	@ zero_extendqisi2
 833              		.loc 1 279 0
 834 002a 05EB8103 		add	r3, r5, r1, lsl #2
 835              		.loc 1 278 0
 836 002e 2846     		mov	r0, r5
 837              		.loc 1 279 0
 838 0030 DB68     		ldr	r3, [r3, #12]
 839              		.loc 1 278 0
 840 0032 3246     		mov	r2, r6
 841 0034 5B8A     		ldrh	r3, [r3, #18]
 842 0036 FFF7FEFF 		bl	usbPrepareQueuedReceive
 843              	.LVL75:
 844              		.loc 1 280 0
 845 003a D4F85438 		ldr	r3, [r4, #2132]
 846 003e 2846     		mov	r0, r5
 847 0040 5979     		ldrb	r1, [r3, #5]	@ zero_extendqisi2
 848              		.loc 1 281 0
 849 0042 BDE87040 		pop	{r4, r5, r6, lr}
 850              		.cfi_restore 14
 851              		.cfi_restore 6
 852              		.cfi_restore 5
 853              		.cfi_restore 4
 854              		.cfi_def_cfa_offset 0
 855              	.LVL76:
ARM GAS  /tmp/ccfGKsbN.s 			page 16


 856              		.loc 1 280 0
 857 0046 FFF7FEBF 		b	usbStartReceiveI
 858              	.LVL77:
 859              		.cfi_endproc
 860              	.LFE270:
 861              		.size	sduConfigureHookI, .-sduConfigureHookI
 862 004a 00BF     		.section	.text.sduRequestsHook,"ax",%progbits
 863              		.align	1
 864              		.p2align 4,,15
 865              		.global	sduRequestsHook
 866              		.syntax unified
 867              		.thumb
 868              		.thumb_func
 869              		.fpu fpv4-sp-d16
 870              		.type	sduRequestsHook, %function
 871              	sduRequestsHook:
 872              	.LFB271:
 873              		.loc 1 298 0
 874              		.cfi_startproc
 875              		@ args = 0, pretend = 0, frame = 0
 876              		@ frame_needed = 0, uses_anonymous_args = 0
 877              		@ link register save eliminated.
 878              	.LVL78:
 879              		.loc 1 300 0
 880 0000 90F84430 		ldrb	r3, [r0, #68]	@ zero_extendqisi2
 881 0004 03F06003 		and	r3, r3, #96
 882 0008 202B     		cmp	r3, #32
 883 000a 01D0     		beq	.L45
 884              	.L44:
 885              		.loc 1 313 0
 886 000c 0020     		movs	r0, #0
 887              	.LVL79:
 888              		.loc 1 317 0
 889 000e 7047     		bx	lr
 890              	.LVL80:
 891              	.L45:
 892              		.loc 1 301 0
 893 0010 90F84530 		ldrb	r3, [r0, #69]	@ zero_extendqisi2
 894 0014 202B     		cmp	r3, #32
 895 0016 F9D3     		bcc	.L44
 896 0018 212B     		cmp	r3, #33
 897 001a 07D8     		bhi	.L46
 898              		.loc 1 303 0
 899 001c 074B     		ldr	r3, .L47
 900 001e 8363     		str	r3, [r0, #56]
 901 0020 0722     		movs	r2, #7
 902 0022 0023     		movs	r3, #0
 903 0024 C0E90F23 		strd	r2, r3, [r0, #60]
 904              		.loc 1 304 0
 905 0028 0120     		movs	r0, #1
 906              	.LVL81:
 907 002a 7047     		bx	lr
 908              	.LVL82:
 909              	.L46:
 910              		.loc 1 301 0
 911 002c 222B     		cmp	r3, #34
 912 002e EDD1     		bne	.L44
ARM GAS  /tmp/ccfGKsbN.s 			page 17


 913              		.loc 1 310 0
 914 0030 0023     		movs	r3, #0
 915 0032 C0E90E33 		strd	r3, r3, [r0, #56]
 916 0036 0364     		str	r3, [r0, #64]
 917              		.loc 1 311 0
 918 0038 0120     		movs	r0, #1
 919              	.LVL83:
 920 003a 7047     		bx	lr
 921              	.L48:
 922              		.align	2
 923              	.L47:
 924 003c 00000000 		.word	.LANCHOR1
 925              		.cfi_endproc
 926              	.LFE271:
 927              		.size	sduRequestsHook, .-sduRequestsHook
 928              		.section	.text.sduDataTransmitted,"ax",%progbits
 929              		.align	1
 930              		.p2align 4,,15
 931              		.global	sduDataTransmitted
 932              		.syntax unified
 933              		.thumb
 934              		.thumb_func
 935              		.fpu fpv4-sp-d16
 936              		.type	sduDataTransmitted, %function
 937              	sduDataTransmitted:
 938              	.LFB272:
 939              		.loc 1 327 0
 940              		.cfi_startproc
 941              		@ args = 0, pretend = 0, frame = 0
 942              		@ frame_needed = 0, uses_anonymous_args = 0
 943              	.LVL84:
 944              		.loc 1 329 0
 945 0000 00EB8103 		add	r3, r0, r1, lsl #2
 946              		.loc 1 327 0
 947 0004 70B5     		push	{r4, r5, r6, lr}
 948              		.cfi_def_cfa_offset 16
 949              		.cfi_offset 4, -16
 950              		.cfi_offset 5, -12
 951              		.cfi_offset 6, -8
 952              		.cfi_offset 14, -4
 953              		.loc 1 329 0
 954 0006 9C69     		ldr	r4, [r3, #24]
 955              	.LVL85:
 956              		.loc 1 331 0
 957 0008 BCB1     		cbz	r4, .L49
 958 000a 0E46     		mov	r6, r1
 959 000c 0546     		mov	r5, r0
 960              	.LBB261:
 961              	.LBB262:
 962              	.LBB263:
 963              	.LBB264:
 964              	.LBB265:
 965              	.LBB266:
 966              		.loc 3 342 0
 967              		.syntax unified
 968              	@ 342 "ChibiOS_3.0.5/os/ext/CMSIS/include/core_cmFunc.h" 1
 969 000e 72B6     		cpsid i
ARM GAS  /tmp/ccfGKsbN.s 			page 18


 970              	@ 0 "" 2
 971              	.LVL86:
 972              		.thumb
 973              		.syntax unified
 974              	.LBE266:
 975              	.LBE265:
 976              	.LBE264:
 977              	.LBE263:
 978              	.LBE262:
 979              	.LBE261:
 980              	.LBB267:
 981              	.LBB268:
 982              		.loc 5 844 0
 983 0010 0821     		movs	r1, #8
 984              	.LVL87:
 985 0012 201D     		adds	r0, r4, #4
 986              	.LVL88:
 987 0014 FFF7FEFF 		bl	chEvtBroadcastFlagsI
 988              	.LVL89:
 989              	.LBE268:
 990              	.LBE267:
 991              	.LBB269:
 992              	.LBB270:
 993              		.loc 2 357 0
 994 0018 D4E90F13 		ldrd	r1, r3, [r4, #60]
 995 001c A26B     		ldr	r2, [r4, #56]
 996 001e 5B1A     		subs	r3, r3, r1
 997              	.LBE270:
 998              	.LBE269:
 999              		.loc 1 339 0
 1000 0020 9B1A     		subs	r3, r3, r2
 1001 0022 0BD1     		bne	.L60
 1002              		.loc 1 349 0
 1003 0024 05EB8603 		add	r3, r5, r6, lsl #2
 1004 0028 DB68     		ldr	r3, [r3, #12]
 1005 002a 5A69     		ldr	r2, [r3, #20]
 1006 002c 5268     		ldr	r2, [r2, #4]
 1007 002e 1AB1     		cbz	r2, .L52
 1008              		.loc 1 351 0 discriminator 1
 1009 0030 1B8A     		ldrh	r3, [r3, #16]
 1010 0032 013B     		subs	r3, r3, #1
 1011              		.loc 1 349 0 discriminator 1
 1012 0034 1340     		ands	r3, r3, r2
 1013 0036 01D0     		beq	.L60
 1014              	.L52:
 1015              	.LBB271:
 1016              	.LBB272:
 1017              	.LBB273:
 1018              	.LBB274:
 1019              	.LBB275:
 1020              	.LBB276:
 1021              		.loc 3 331 0
 1022              		.syntax unified
 1023              	@ 331 "ChibiOS_3.0.5/os/ext/CMSIS/include/core_cmFunc.h" 1
 1024 0038 62B6     		cpsie i
 1025              	@ 0 "" 2
 1026              	.LVL90:
ARM GAS  /tmp/ccfGKsbN.s 			page 19


 1027              		.thumb
 1028              		.syntax unified
 1029              	.L49:
 1030              	.LBE276:
 1031              	.LBE275:
 1032              	.LBE274:
 1033              	.LBE273:
 1034              	.LBE272:
 1035              	.LBE271:
 1036              		.loc 1 366 0
 1037 003a 70BD     		pop	{r4, r5, r6, pc}
 1038              	.LVL91:
 1039              	.L60:
 1040              	.LBB282:
 1041              	.LBB283:
 1042              	.LBB284:
 1043              	.LBB285:
 1044              	.LBB286:
 1045              	.LBB287:
 1046              		.loc 3 331 0
 1047              		.syntax unified
 1048              	@ 331 "ChibiOS_3.0.5/os/ext/CMSIS/include/core_cmFunc.h" 1
 1049 003c 62B6     		cpsie i
 1050              	@ 0 "" 2
 1051              		.thumb
 1052              		.syntax unified
 1053              	.LBE287:
 1054              	.LBE286:
 1055              	.LBE285:
 1056              	.LBE284:
 1057              	.LBE283:
 1058              	.LBE282:
 1059              		.loc 1 358 0
 1060 003e 04F13002 		add	r2, r4, #48
 1061 0042 3146     		mov	r1, r6
 1062 0044 2846     		mov	r0, r5
 1063 0046 FFF7FEFF 		bl	usbPrepareQueuedTransmit
 1064              	.LVL92:
 1065              	.LBB288:
 1066              	.LBB289:
 1067              	.LBB290:
 1068              	.LBB291:
 1069              	.LBB292:
 1070              	.LBB293:
 1071              		.loc 3 342 0
 1072              		.syntax unified
 1073              	@ 342 "ChibiOS_3.0.5/os/ext/CMSIS/include/core_cmFunc.h" 1
 1074 004a 72B6     		cpsid i
 1075              	@ 0 "" 2
 1076              		.thumb
 1077              		.syntax unified
 1078              	.LBE293:
 1079              	.LBE292:
 1080              	.LBE291:
 1081              	.LBE290:
 1082              	.LBE289:
 1083              	.LBE288:
ARM GAS  /tmp/ccfGKsbN.s 			page 20


 1084              		.loc 1 361 0
 1085 004c 3146     		mov	r1, r6
 1086 004e 2846     		mov	r0, r5
 1087 0050 FFF7FEFF 		bl	usbStartTransmitI
 1088              	.LVL93:
 1089              	.LBB294:
 1090              	.LBB281:
 1091              	.LBB280:
 1092              	.LBB279:
 1093              	.LBB278:
 1094              	.LBB277:
 1095              		.loc 3 331 0
 1096              		.syntax unified
 1097              	@ 331 "ChibiOS_3.0.5/os/ext/CMSIS/include/core_cmFunc.h" 1
 1098 0054 62B6     		cpsie i
 1099              	@ 0 "" 2
 1100              		.thumb
 1101              		.syntax unified
 1102 0056 F0E7     		b	.L49
 1103              	.LBE277:
 1104              	.LBE278:
 1105              	.LBE279:
 1106              	.LBE280:
 1107              	.LBE281:
 1108              	.LBE294:
 1109              		.cfi_endproc
 1110              	.LFE272:
 1111              		.size	sduDataTransmitted, .-sduDataTransmitted
 1112              		.section	.text.sduDataReceived,"ax",%progbits
 1113              		.align	1
 1114              		.p2align 4,,15
 1115              		.global	sduDataReceived
 1116              		.syntax unified
 1117              		.thumb
 1118              		.thumb_func
 1119              		.fpu fpv4-sp-d16
 1120              		.type	sduDataReceived, %function
 1121              	sduDataReceived:
 1122              	.LFB273:
 1123              		.loc 1 376 0
 1124              		.cfi_startproc
 1125              		@ args = 0, pretend = 0, frame = 0
 1126              		@ frame_needed = 0, uses_anonymous_args = 0
 1127              	.LVL94:
 1128 0000 F8B5     		push	{r3, r4, r5, r6, r7, lr}
 1129              		.cfi_def_cfa_offset 24
 1130              		.cfi_offset 3, -24
 1131              		.cfi_offset 4, -20
 1132              		.cfi_offset 5, -16
 1133              		.cfi_offset 6, -12
 1134              		.cfi_offset 7, -8
 1135              		.cfi_offset 14, -4
 1136              		.loc 1 378 0
 1137 0002 01F10903 		add	r3, r1, #9
 1138 0006 50F82340 		ldr	r4, [r0, r3, lsl #2]
 1139              	.LVL95:
 1140              		.loc 1 380 0
ARM GAS  /tmp/ccfGKsbN.s 			page 21


 1141 000a 94B1     		cbz	r4, .L61
 1142 000c 0746     		mov	r7, r0
 1143 000e 0E46     		mov	r6, r1
 1144              	.LBB295:
 1145              	.LBB296:
 1146              	.LBB297:
 1147              	.LBB298:
 1148              	.LBB299:
 1149              	.LBB300:
 1150              		.loc 3 342 0
 1151              		.syntax unified
 1152              	@ 342 "ChibiOS_3.0.5/os/ext/CMSIS/include/core_cmFunc.h" 1
 1153 0010 72B6     		cpsid i
 1154              	@ 0 "" 2
 1155              	.LVL96:
 1156              		.thumb
 1157              		.syntax unified
 1158              	.LBE300:
 1159              	.LBE299:
 1160              	.LBE298:
 1161              	.LBE297:
 1162              	.LBE296:
 1163              	.LBE295:
 1164              	.LBB301:
 1165              	.LBB302:
 1166              		.loc 5 844 0
 1167 0012 0421     		movs	r1, #4
 1168              	.LVL97:
 1169 0014 6018     		adds	r0, r4, r1
 1170              	.LVL98:
 1171 0016 FFF7FEFF 		bl	chEvtBroadcastFlagsI
 1172              	.LVL99:
 1173              	.LBE302:
 1174              	.LBE301:
 1175              		.loc 1 389 0
 1176 001a 07EB8603 		add	r3, r7, r6, lsl #2
 1177              	.LBB303:
 1178              	.LBB304:
 1179              		.loc 2 290 0
 1180 001e E569     		ldr	r5, [r4, #28]
 1181              	.LBE304:
 1182              	.LBE303:
 1183              		.loc 1 389 0
 1184 0020 D968     		ldr	r1, [r3, #12]
 1185              	.LBB307:
 1186              	.LBB305:
 1187              		.loc 2 290 0
 1188 0022 A269     		ldr	r2, [r4, #24]
 1189 0024 6369     		ldr	r3, [r4, #20]
 1190              	.LBE305:
 1191              	.LBE307:
 1192              		.loc 1 389 0
 1193 0026 498A     		ldrh	r1, [r1, #18]
 1194              	.LVL100:
 1195              	.LBB308:
 1196              	.LBB306:
 1197              		.loc 2 290 0
ARM GAS  /tmp/ccfGKsbN.s 			page 22


 1198 0028 AA1A     		subs	r2, r5, r2
 1199 002a D21A     		subs	r2, r2, r3
 1200              	.LVL101:
 1201              	.LBE306:
 1202              	.LBE308:
 1203              		.loc 1 390 0
 1204 002c 9142     		cmp	r1, r2
 1205 002e 01D9     		bls	.L68
 1206              	.LBB309:
 1207              	.LBB310:
 1208              	.LBB311:
 1209              	.LBB312:
 1210              	.LBB313:
 1211              	.LBB314:
 1212              		.loc 3 331 0
 1213              		.syntax unified
 1214              	@ 331 "ChibiOS_3.0.5/os/ext/CMSIS/include/core_cmFunc.h" 1
 1215 0030 62B6     		cpsie i
 1216              	@ 0 "" 2
 1217              	.LVL102:
 1218              		.thumb
 1219              		.syntax unified
 1220              	.L61:
 1221              	.LBE314:
 1222              	.LBE313:
 1223              	.LBE312:
 1224              	.LBE311:
 1225              	.LBE310:
 1226              	.LBE309:
 1227              		.loc 1 402 0
 1228 0032 F8BD     		pop	{r3, r4, r5, r6, r7, pc}
 1229              	.LVL103:
 1230              	.L68:
 1231              	.LBB320:
 1232              	.LBB321:
 1233              	.LBB322:
 1234              	.LBB323:
 1235              	.LBB324:
 1236              	.LBB325:
 1237              		.loc 3 331 0
 1238              		.syntax unified
 1239              	@ 331 "ChibiOS_3.0.5/os/ext/CMSIS/include/core_cmFunc.h" 1
 1240 0034 62B6     		cpsie i
 1241              	@ 0 "" 2
 1242              	.LVL104:
 1243              		.thumb
 1244              		.syntax unified
 1245              	.LBE325:
 1246              	.LBE324:
 1247              	.LBE323:
 1248              	.LBE322:
 1249              	.LBE321:
 1250              	.LBE320:
 1251              		.loc 1 395 0
 1252 0036 B2FBF1F3 		udiv	r3, r2, r1
 1253              		.loc 1 396 0
 1254 003a 3846     		mov	r0, r7
ARM GAS  /tmp/ccfGKsbN.s 			page 23


 1255 003c 01FB03F3 		mul	r3, r1, r3
 1256              	.LVL105:
 1257 0040 04F10C02 		add	r2, r4, #12
 1258 0044 3146     		mov	r1, r6
 1259              	.LVL106:
 1260 0046 FFF7FEFF 		bl	usbPrepareQueuedReceive
 1261              	.LVL107:
 1262              	.LBB326:
 1263              	.LBB327:
 1264              	.LBB328:
 1265              	.LBB329:
 1266              	.LBB330:
 1267              	.LBB331:
 1268              		.loc 3 342 0
 1269              		.syntax unified
 1270              	@ 342 "ChibiOS_3.0.5/os/ext/CMSIS/include/core_cmFunc.h" 1
 1271 004a 72B6     		cpsid i
 1272              	@ 0 "" 2
 1273              		.thumb
 1274              		.syntax unified
 1275              	.LBE331:
 1276              	.LBE330:
 1277              	.LBE329:
 1278              	.LBE328:
 1279              	.LBE327:
 1280              	.LBE326:
 1281              		.loc 1 399 0
 1282 004c 3146     		mov	r1, r6
 1283 004e 3846     		mov	r0, r7
 1284 0050 FFF7FEFF 		bl	usbStartReceiveI
 1285              	.LVL108:
 1286              	.LBB332:
 1287              	.LBB319:
 1288              	.LBB318:
 1289              	.LBB317:
 1290              	.LBB316:
 1291              	.LBB315:
 1292              		.loc 3 331 0
 1293              		.syntax unified
 1294              	@ 331 "ChibiOS_3.0.5/os/ext/CMSIS/include/core_cmFunc.h" 1
 1295 0054 62B6     		cpsie i
 1296              	@ 0 "" 2
 1297              		.thumb
 1298              		.syntax unified
 1299 0056 ECE7     		b	.L61
 1300              	.LBE315:
 1301              	.LBE316:
 1302              	.LBE317:
 1303              	.LBE318:
 1304              	.LBE319:
 1305              	.LBE332:
 1306              		.cfi_endproc
 1307              	.LFE273:
 1308              		.size	sduDataReceived, .-sduDataReceived
 1309              		.section	.text.sduInterruptTransmitted,"ax",%progbits
 1310              		.align	1
 1311              		.p2align 4,,15
ARM GAS  /tmp/ccfGKsbN.s 			page 24


 1312              		.global	sduInterruptTransmitted
 1313              		.syntax unified
 1314              		.thumb
 1315              		.thumb_func
 1316              		.fpu fpv4-sp-d16
 1317              		.type	sduInterruptTransmitted, %function
 1318              	sduInterruptTransmitted:
 1319              	.LFB274:
 1320              		.loc 1 412 0
 1321              		.cfi_startproc
 1322              		@ args = 0, pretend = 0, frame = 0
 1323              		@ frame_needed = 0, uses_anonymous_args = 0
 1324              		@ link register save eliminated.
 1325              	.LVL109:
 1326              		.loc 1 416 0
 1327 0000 7047     		bx	lr
 1328              		.cfi_endproc
 1329              	.LFE274:
 1330              		.size	sduInterruptTransmitted, .-sduInterruptTransmitted
 1331 0002 00BF     		.section	.data.linecoding,"aw",%progbits
 1332              		.align	2
 1333              		.set	.LANCHOR1,. + 0
 1334              		.type	linecoding, %object
 1335              		.size	linecoding, 7
 1336              	linecoding:
 1337 0000 00       		.byte	0
 1338 0001 96       		.byte	-106
 1339 0002 00       		.byte	0
 1340 0003 00       		.byte	0
 1341 0004 00       		.byte	0
 1342 0005 00       		.byte	0
 1343 0006 08       		.byte	8
 1344              		.section	.rodata.vmt,"a",%progbits
 1345              		.align	2
 1346              		.set	.LANCHOR0,. + 0
 1347              		.type	vmt, %object
 1348              		.size	vmt, 32
 1349              	vmt:
 1350 0000 00000000 		.word	write
 1351 0004 00000000 		.word	read
 1352 0008 00000000 		.word	put
 1353 000c 00000000 		.word	get
 1354 0010 00000000 		.word	putt
 1355 0014 00000000 		.word	gett
 1356 0018 00000000 		.word	writet
 1357 001c 00000000 		.word	readt
 1358              		.text
 1359              	.Letext0:
 1360              		.file 6 "/usr/lib/gcc/arm-none-eabi/7.3.1/include/stddef.h"
 1361              		.file 7 "/usr/arm-none-eabi/include/machine/_default_types.h"
 1362              		.file 8 "/usr/arm-none-eabi/include/sys/_stdint.h"
 1363              		.file 9 "ChibiOS_3.0.5/os/rt/ports/ARMCMx/compilers/GCC/chtypes.h"
 1364              		.file 10 "ChibiOS_3.0.5/os/rt/include/chsystypes.h"
 1365              		.file 11 "ChibiOS_3.0.5/os/rt/include/chschd.h"
 1366              		.file 12 "ChibiOS_3.0.5/os/ext/CMSIS/include/core_cm4.h"
 1367              		.file 13 "ChibiOS_3.0.5/os/ext/CMSIS/ST/system_stm32f4xx.h"
 1368              		.file 14 "ChibiOS_3.0.5/os/ext/CMSIS/ST/stm32f407xx.h"
ARM GAS  /tmp/ccfGKsbN.s 			page 25


 1369              		.file 15 "ChibiOS_3.0.5/os/rt/ports/ARMCMx/chcore.h"
 1370              		.file 16 "ChibiOS_3.0.5/os/rt/ports/ARMCMx/chcore_v7m.h"
 1371              		.file 17 "ChibiOS_3.0.5/os/rt/include/chtm.h"
 1372              		.file 18 "ChibiOS_3.0.5/os/rt/include/chsem.h"
 1373              		.file 19 "ChibiOS_3.0.5/os/rt/include/chmtx.h"
 1374              		.file 20 "ChibiOS_3.0.5/os/rt/include/chregistry.h"
 1375              		.file 21 "./datatypes.h"
 1376              		.file 22 "./conf_general.h"
 1377              		.file 23 "ChibiOS_3.0.5/os/hal/ports/STM32/STM32F4xx/stm32_dma.h"
 1378              		.file 24 "ChibiOS_3.0.5/os/hal/ports/STM32/LLD/GPIOv2/pal_lld.h"
 1379              		.file 25 "ChibiOS_3.0.5/os/hal/include/can.h"
 1380              		.file 26 "ChibiOS_3.0.5/os/hal/ports/STM32/LLD/can_lld.h"
 1381              		.file 27 "ChibiOS_3.0.5/os/hal/include/i2c.h"
 1382              		.file 28 "ChibiOS_3.0.5/os/hal/ports/STM32/LLD/I2Cv1/i2c_lld.h"
 1383              		.file 29 "ChibiOS_3.0.5/os/hal/include/icu.h"
 1384              		.file 30 "ChibiOS_3.0.5/os/hal/ports/STM32/LLD/TIMv1/icu_lld.h"
 1385              		.file 31 "ChibiOS_3.0.5/os/hal/ports/STM32/LLD/TIMv1/stm32_tim.h"
 1386              		.file 32 "ChibiOS_3.0.5/os/hal/include/serial.h"
 1387              		.file 33 "ChibiOS_3.0.5/os/hal/ports/STM32/LLD/USARTv1/serial_lld.h"
 1388              		.file 34 "ChibiOS_3.0.5/os/hal/include/spi.h"
 1389              		.file 35 "ChibiOS_3.0.5/os/hal/ports/STM32/LLD/SPIv1/spi_lld.h"
 1390              		.file 36 "ChibiOS_3.0.5/os/hal/include/usb.h"
 1391              		.file 37 "ChibiOS_3.0.5/os/hal/ports/STM32/LLD/OTGv1/usb_lld.h"
 1392              		.file 38 "ChibiOS_3.0.5/os/hal/ports/STM32/LLD/OTGv1/stm32_otg.h"
 1393              		.file 39 "ChibiOS_3.0.5/os/hal/include/serial_usb.h"
 1394              		.file 40 "ChibiOS_3.0.5/os/rt/include/chsys.h"