ARM GAS  /tmp/cc1FbtRv.s 			page 1


   1              		.cpu cortex-m4
   2              		.eabi_attribute 27, 1
   3              		.eabi_attribute 28, 1
   4              		.eabi_attribute 20, 1
   5              		.eabi_attribute 21, 1
   6              		.eabi_attribute 23, 3
   7              		.eabi_attribute 24, 1
   8              		.eabi_attribute 25, 1
   9              		.eabi_attribute 26, 1
  10              		.eabi_attribute 30, 2
  11              		.eabi_attribute 34, 1
  12              		.eabi_attribute 18, 4
  13              		.file	"serial_lld.c"
  14              		.text
  15              	.Ltext0:
  16              		.cfi_sections	.debug_frame
  17              		.section	.text.notify1,"ax",%progbits
  18              		.align	1
  19              		.p2align 4,,15
  20              		.syntax unified
  21              		.thumb
  22              		.thumb_func
  23              		.fpu fpv4-sp-d16
  24              		.type	notify1, %function
  25              	notify1:
  26              	.LFB260:
  27              		.file 1 "ChibiOS_3.0.5/os/hal/ports/STM32/LLD/USARTv1/serial_lld.c"
  28              		.loc 1 208 0
  29              		.cfi_startproc
  30              		@ args = 0, pretend = 0, frame = 0
  31              		@ frame_needed = 0, uses_anonymous_args = 0
  32              		@ link register save eliminated.
  33              	.LVL0:
  34              		.loc 1 211 0
  35 0000 024A     		ldr	r2, .L3
  36 0002 D368     		ldr	r3, [r2, #12]
  37 0004 43F08003 		orr	r3, r3, #128
  38 0008 D360     		str	r3, [r2, #12]
  39              		.loc 1 212 0
  40 000a 7047     		bx	lr
  41              	.L4:
  42              		.align	2
  43              	.L3:
  44 000c 00100140 		.word	1073811456
  45              		.cfi_endproc
  46              	.LFE260:
  47              		.size	notify1, .-notify1
  48              		.section	.text.notify2,"ax",%progbits
  49              		.align	1
  50              		.p2align 4,,15
  51              		.syntax unified
  52              		.thumb
  53              		.thumb_func
  54              		.fpu fpv4-sp-d16
  55              		.type	notify2, %function
  56              	notify2:
  57              	.LFB261:
ARM GAS  /tmp/cc1FbtRv.s 			page 2


  58              		.loc 1 216 0
  59              		.cfi_startproc
  60              		@ args = 0, pretend = 0, frame = 0
  61              		@ frame_needed = 0, uses_anonymous_args = 0
  62              		@ link register save eliminated.
  63              	.LVL1:
  64              		.loc 1 219 0
  65 0000 024A     		ldr	r2, .L6
  66 0002 D368     		ldr	r3, [r2, #12]
  67 0004 43F08003 		orr	r3, r3, #128
  68 0008 D360     		str	r3, [r2, #12]
  69              		.loc 1 220 0
  70 000a 7047     		bx	lr
  71              	.L7:
  72              		.align	2
  73              	.L6:
  74 000c 00440040 		.word	1073759232
  75              		.cfi_endproc
  76              	.LFE261:
  77              		.size	notify2, .-notify2
  78              		.section	.text.notify3,"ax",%progbits
  79              		.align	1
  80              		.p2align 4,,15
  81              		.syntax unified
  82              		.thumb
  83              		.thumb_func
  84              		.fpu fpv4-sp-d16
  85              		.type	notify3, %function
  86              	notify3:
  87              	.LFB262:
  88              		.loc 1 224 0
  89              		.cfi_startproc
  90              		@ args = 0, pretend = 0, frame = 0
  91              		@ frame_needed = 0, uses_anonymous_args = 0
  92              		@ link register save eliminated.
  93              	.LVL2:
  94              		.loc 1 227 0
  95 0000 024A     		ldr	r2, .L9
  96 0002 D368     		ldr	r3, [r2, #12]
  97 0004 43F08003 		orr	r3, r3, #128
  98 0008 D360     		str	r3, [r2, #12]
  99              		.loc 1 228 0
 100 000a 7047     		bx	lr
 101              	.L10:
 102              		.align	2
 103              	.L9:
 104 000c 00480040 		.word	1073760256
 105              		.cfi_endproc
 106              	.LFE262:
 107              		.size	notify3, .-notify3
 108              		.section	.text.notify4,"ax",%progbits
 109              		.align	1
 110              		.p2align 4,,15
 111              		.syntax unified
 112              		.thumb
 113              		.thumb_func
 114              		.fpu fpv4-sp-d16
ARM GAS  /tmp/cc1FbtRv.s 			page 3


 115              		.type	notify4, %function
 116              	notify4:
 117              	.LFB263:
 118              		.loc 1 232 0
 119              		.cfi_startproc
 120              		@ args = 0, pretend = 0, frame = 0
 121              		@ frame_needed = 0, uses_anonymous_args = 0
 122              		@ link register save eliminated.
 123              	.LVL3:
 124              		.loc 1 235 0
 125 0000 024A     		ldr	r2, .L12
 126 0002 D368     		ldr	r3, [r2, #12]
 127 0004 43F08003 		orr	r3, r3, #128
 128 0008 D360     		str	r3, [r2, #12]
 129              		.loc 1 236 0
 130 000a 7047     		bx	lr
 131              	.L13:
 132              		.align	2
 133              	.L12:
 134 000c 004C0040 		.word	1073761280
 135              		.cfi_endproc
 136              	.LFE263:
 137              		.size	notify4, .-notify4
 138              		.section	.text.notify5,"ax",%progbits
 139              		.align	1
 140              		.p2align 4,,15
 141              		.syntax unified
 142              		.thumb
 143              		.thumb_func
 144              		.fpu fpv4-sp-d16
 145              		.type	notify5, %function
 146              	notify5:
 147              	.LFB264:
 148              		.loc 1 240 0
 149              		.cfi_startproc
 150              		@ args = 0, pretend = 0, frame = 0
 151              		@ frame_needed = 0, uses_anonymous_args = 0
 152              		@ link register save eliminated.
 153              	.LVL4:
 154              		.loc 1 243 0
 155 0000 024A     		ldr	r2, .L15
 156 0002 D368     		ldr	r3, [r2, #12]
 157 0004 43F08003 		orr	r3, r3, #128
 158 0008 D360     		str	r3, [r2, #12]
 159              		.loc 1 244 0
 160 000a 7047     		bx	lr
 161              	.L16:
 162              		.align	2
 163              	.L15:
 164 000c 00500040 		.word	1073762304
 165              		.cfi_endproc
 166              	.LFE264:
 167              		.size	notify5, .-notify5
 168              		.section	.text.notify6,"ax",%progbits
 169              		.align	1
 170              		.p2align 4,,15
 171              		.syntax unified
ARM GAS  /tmp/cc1FbtRv.s 			page 4


 172              		.thumb
 173              		.thumb_func
 174              		.fpu fpv4-sp-d16
 175              		.type	notify6, %function
 176              	notify6:
 177              	.LFB265:
 178              		.loc 1 248 0
 179              		.cfi_startproc
 180              		@ args = 0, pretend = 0, frame = 0
 181              		@ frame_needed = 0, uses_anonymous_args = 0
 182              		@ link register save eliminated.
 183              	.LVL5:
 184              		.loc 1 251 0
 185 0000 024A     		ldr	r2, .L18
 186 0002 D368     		ldr	r3, [r2, #12]
 187 0004 43F08003 		orr	r3, r3, #128
 188 0008 D360     		str	r3, [r2, #12]
 189              		.loc 1 252 0
 190 000a 7047     		bx	lr
 191              	.L19:
 192              		.align	2
 193              	.L18:
 194 000c 00140140 		.word	1073812480
 195              		.cfi_endproc
 196              	.LFE265:
 197              		.size	notify6, .-notify6
 198              		.section	.text.serve_interrupt,"ax",%progbits
 199              		.align	1
 200              		.p2align 4,,15
 201              		.syntax unified
 202              		.thumb
 203              		.thumb_func
 204              		.fpu fpv4-sp-d16
 205              		.type	serve_interrupt, %function
 206              	serve_interrupt:
 207              	.LFB259:
 208              		.loc 1 153 0
 209              		.cfi_startproc
 210              		@ args = 0, pretend = 0, frame = 0
 211              		@ frame_needed = 0, uses_anonymous_args = 0
 212              	.LVL6:
 213 0000 2DE9F041 		push	{r4, r5, r6, r7, r8, lr}
 214              		.cfi_def_cfa_offset 24
 215              		.cfi_offset 4, -24
 216              		.cfi_offset 5, -20
 217              		.cfi_offset 6, -16
 218              		.cfi_offset 7, -12
 219              		.cfi_offset 8, -8
 220              		.cfi_offset 14, -4
 221              		.loc 1 154 0
 222 0004 D0F85451 		ldr	r5, [r0, #340]
 223              	.LVL7:
 224              		.loc 1 155 0
 225 0008 EF68     		ldr	r7, [r5, #12]
 226              	.LVL8:
 227              		.loc 1 156 0
 228 000a 2B68     		ldr	r3, [r5]
ARM GAS  /tmp/cc1FbtRv.s 			page 5


 229              		.loc 1 159 0
 230 000c DA05     		lsls	r2, r3, #23
 231              		.loc 1 153 0
 232 000e 0646     		mov	r6, r0
 233              		.loc 1 156 0
 234 0010 9CB2     		uxth	r4, r3
 235              	.LVL9:
 236              		.loc 1 159 0
 237 0012 46D4     		bmi	.L69
 238              	.LVL10:
 239              	.L21:
 240              	.LBB168:
 241              	.LBB169:
 242              	.LBB170:
 243              	.LBB171:
 244              	.LBB172:
 245              	.LBB173:
 246              		.file 2 "ChibiOS_3.0.5/os/ext/CMSIS/include/core_cmFunc.h"
 247              		.loc 2 342 0
 248              		.syntax unified
 249              	@ 342 "ChibiOS_3.0.5/os/ext/CMSIS/include/core_cmFunc.h" 1
 250 0014 72B6     		cpsid i
 251              	@ 0 "" 2
 252              		.thumb
 253              		.syntax unified
 254              	.LBE173:
 255              	.LBE172:
 256              	.LBE171:
 257              	.LBE170:
 258              	.LBE169:
 259              	.LBE168:
 260              		.loc 1 168 0
 261 0016 14F02F0F 		tst	r4, #47
 262 001a 2CD0     		beq	.L22
 263              	.LBB174:
 264              	.LBB175:
 265              	.LBB176:
 266              		.loc 1 145 0
 267 001c 06F10408 		add	r8, r6, #4
 268 0020 07E0     		b	.L29
 269              	.L23:
 270              	.LBE176:
 271              	.LBE175:
 272              		.loc 1 176 0
 273 0022 A006     		lsls	r0, r4, #26
 274              		.loc 1 175 0
 275 0024 6968     		ldr	r1, [r5, #4]
 276              	.LVL11:
 277              		.loc 1 176 0
 278 0026 1DD4     		bmi	.L70
 279              	.L28:
 280              		.loc 1 178 0
 281 0028 2C68     		ldr	r4, [r5]
 282              	.LVL12:
 283 002a A4B2     		uxth	r4, r4
 284              	.LVL13:
 285              	.LBE174:
ARM GAS  /tmp/cc1FbtRv.s 			page 6


 286              		.loc 1 168 0
 287 002c 14F02F0F 		tst	r4, #47
 288 0030 21D0     		beq	.L22
 289              	.LVL14:
 290              	.L29:
 291              	.LBB181:
 292              		.loc 1 173 0
 293 0032 2307     		lsls	r3, r4, #28
 294 0034 F5D0     		beq	.L23
 295              	.LVL15:
 296              	.LBB180:
 297              	.LBB179:
 298              		.loc 1 138 0
 299 0036 14F0080F 		tst	r4, #8
 300 003a 0CBF     		ite	eq
 301 003c 0021     		moveq	r1, #0
 302 003e 8021     		movne	r1, #128
 303              	.LVL16:
 304              		.loc 1 139 0
 305 0040 E007     		lsls	r0, r4, #31
 306              		.loc 1 140 0
 307 0042 48BF     		it	mi
 308 0044 41F02001 		orrmi	r1, r1, #32
 309              	.LVL17:
 310              		.loc 1 141 0
 311 0048 A207     		lsls	r2, r4, #30
 312              		.loc 1 142 0
 313 004a 48BF     		it	mi
 314 004c 41F04001 		orrmi	r1, r1, #64
 315              	.LVL18:
 316              		.loc 1 143 0
 317 0050 6307     		lsls	r3, r4, #29
 318              		.loc 1 144 0
 319 0052 48BF     		it	mi
 320 0054 41F48071 		orrmi	r1, r1, #256
 321              	.LVL19:
 322              	.LBB177:
 323              	.LBB178:
 324              		.file 3 "ChibiOS_3.0.5/os/hal/osal/rt/osal.h"
 325              		.loc 3 844 0
 326 0058 4046     		mov	r0, r8
 327 005a FFF7FEFF 		bl	chEvtBroadcastFlagsI
 328              	.LVL20:
 329              	.LBE178:
 330              	.LBE177:
 331              	.LBE179:
 332              	.LBE180:
 333              		.loc 1 176 0
 334 005e A006     		lsls	r0, r4, #26
 335              		.loc 1 175 0
 336 0060 6968     		ldr	r1, [r5, #4]
 337              	.LVL21:
 338              		.loc 1 176 0
 339 0062 E1D5     		bpl	.L28
 340              	.LVL22:
 341              	.L70:
 342              		.loc 1 177 0
ARM GAS  /tmp/cc1FbtRv.s 			page 7


 343 0064 C9B2     		uxtb	r1, r1
 344 0066 3046     		mov	r0, r6
 345 0068 FFF7FEFF 		bl	sdIncomingDataI
 346              	.LVL23:
 347              		.loc 1 178 0
 348 006c 2C68     		ldr	r4, [r5]
 349              	.LVL24:
 350 006e A4B2     		uxth	r4, r4
 351              	.LVL25:
 352              	.LBE181:
 353              		.loc 1 168 0
 354 0070 14F02F0F 		tst	r4, #47
 355 0074 DDD1     		bne	.L29
 356              	.L22:
 357              	.LBB182:
 358              	.LBB183:
 359              	.LBB184:
 360              	.LBB185:
 361              	.LBB186:
 362              	.LBB187:
 363              		.loc 2 331 0
 364              		.syntax unified
 365              	@ 331 "ChibiOS_3.0.5/os/ext/CMSIS/include/core_cmFunc.h" 1
 366 0076 62B6     		cpsie i
 367              	@ 0 "" 2
 368              		.thumb
 369              		.syntax unified
 370              	.LBE187:
 371              	.LBE186:
 372              	.LBE185:
 373              	.LBE184:
 374              	.LBE183:
 375              	.LBE182:
 376              		.loc 1 183 0
 377 0078 3906     		lsls	r1, r7, #24
 378 007a 01D5     		bpl	.L30
 379              		.loc 1 183 0 is_stmt 0 discriminator 1
 380 007c 2206     		lsls	r2, r4, #24
 381 007e 1BD4     		bmi	.L71
 382              	.L30:
 383              		.loc 1 197 0 is_stmt 1
 384 0080 6306     		lsls	r3, r4, #25
 385 0082 0CD5     		bpl	.L20
 386              	.LBB188:
 387              	.LBB189:
 388              	.LBB190:
 389              	.LBB191:
 390              	.LBB192:
 391              	.LBB193:
 392              		.loc 2 342 0
 393              		.syntax unified
 394              	@ 342 "ChibiOS_3.0.5/os/ext/CMSIS/include/core_cmFunc.h" 1
 395 0084 72B6     		cpsid i
 396              	@ 0 "" 2
 397              	.LVL26:
 398              		.thumb
 399              		.syntax unified
ARM GAS  /tmp/cc1FbtRv.s 			page 8


 400              	.LBE193:
 401              	.LBE192:
 402              	.LBE191:
 403              	.LBE190:
 404              	.LBE189:
 405              	.LBE188:
 406              	.LBB194:
 407              	.LBB195:
 408              		.file 4 "ChibiOS_3.0.5/os/rt/include/chqueues.h"
 409              		.loc 4 390 0
 410 0086 D6E91123 		ldrd	r2, r3, [r6, #68]
 411 008a 9A42     		cmp	r2, r3
 412 008c 1ED0     		beq	.L72
 413              	.LVL27:
 414              	.L34:
 415              	.LBE195:
 416              	.LBE194:
 417              		.loc 1 201 0
 418 008e 4FF6BF73 		movw	r3, #65471
 419 0092 1F40     		ands	r7, r7, r3
 420              	.LVL28:
 421              		.loc 1 202 0
 422 0094 6FF04003 		mvn	r3, #64
 423              		.loc 1 201 0
 424 0098 EF60     		str	r7, [r5, #12]
 425              		.loc 1 202 0
 426 009a 2B60     		str	r3, [r5]
 427              	.LBB197:
 428              	.LBB198:
 429              	.LBB199:
 430              	.LBB200:
 431              	.LBB201:
 432              	.LBB202:
 433              		.loc 2 331 0
 434              		.syntax unified
 435              	@ 331 "ChibiOS_3.0.5/os/ext/CMSIS/include/core_cmFunc.h" 1
 436 009c 62B6     		cpsie i
 437              	@ 0 "" 2
 438              		.thumb
 439              		.syntax unified
 440              	.L20:
 441              	.LBE202:
 442              	.LBE201:
 443              	.LBE200:
 444              	.LBE199:
 445              	.LBE198:
 446              	.LBE197:
 447              		.loc 1 205 0
 448 009e BDE8F081 		pop	{r4, r5, r6, r7, r8, pc}
 449              	.LVL29:
 450              	.L69:
 451              	.LBB203:
 452              	.LBB204:
 453              	.LBB205:
 454              	.LBB206:
 455              	.LBB207:
 456              	.LBB208:
ARM GAS  /tmp/cc1FbtRv.s 			page 9


 457              		.loc 2 342 0
 458              		.syntax unified
 459              	@ 342 "ChibiOS_3.0.5/os/ext/CMSIS/include/core_cmFunc.h" 1
 460 00a2 72B6     		cpsid i
 461              	@ 0 "" 2
 462              	.LVL30:
 463              		.thumb
 464              		.syntax unified
 465              	.LBE208:
 466              	.LBE207:
 467              	.LBE206:
 468              	.LBE205:
 469              	.LBE204:
 470              	.LBE203:
 471              	.LBB209:
 472              	.LBB210:
 473              		.loc 3 844 0
 474 00a4 4FF40071 		mov	r1, #512
 475 00a8 0430     		adds	r0, r0, #4
 476              	.LVL31:
 477 00aa FFF7FEFF 		bl	chEvtBroadcastFlagsI
 478              	.LVL32:
 479              	.LBE210:
 480              	.LBE209:
 481              		.loc 1 162 0
 482 00ae 6FF48073 		mvn	r3, #256
 483 00b2 2B60     		str	r3, [r5]
 484              	.LBB211:
 485              	.LBB212:
 486              	.LBB213:
 487              	.LBB214:
 488              	.LBB215:
 489              	.LBB216:
 490              		.loc 2 331 0
 491              		.syntax unified
 492              	@ 331 "ChibiOS_3.0.5/os/ext/CMSIS/include/core_cmFunc.h" 1
 493 00b4 62B6     		cpsie i
 494              	@ 0 "" 2
 495              		.thumb
 496              		.syntax unified
 497 00b6 ADE7     		b	.L21
 498              	.L71:
 499              	.LBE216:
 500              	.LBE215:
 501              	.LBE214:
 502              	.LBE213:
 503              	.LBE212:
 504              	.LBE211:
 505              	.LBB217:
 506              	.LBB218:
 507              	.LBB219:
 508              	.LBB220:
 509              	.LBB221:
 510              	.LBB222:
 511              	.LBB223:
 512              		.loc 2 342 0
 513              		.syntax unified
ARM GAS  /tmp/cc1FbtRv.s 			page 10


 514              	@ 342 "ChibiOS_3.0.5/os/ext/CMSIS/include/core_cmFunc.h" 1
 515 00b8 72B6     		cpsid i
 516              	@ 0 "" 2
 517              		.thumb
 518              		.syntax unified
 519              	.LBE223:
 520              	.LBE222:
 521              	.LBE221:
 522              	.LBE220:
 523              	.LBE219:
 524              	.LBE218:
 525              		.loc 1 186 0
 526 00ba 06F13000 		add	r0, r6, #48
 527 00be FFF7FEFF 		bl	chOQGetI
 528              	.LVL33:
 529              		.loc 1 187 0
 530 00c2 0028     		cmp	r0, #0
 531 00c4 0ADB     		blt	.L73
 532              		.loc 1 192 0
 533 00c6 6860     		str	r0, [r5, #4]
 534              	.LVL34:
 535              	.L32:
 536              	.LBB224:
 537              	.LBB225:
 538              	.LBB226:
 539              	.LBB227:
 540              	.LBB228:
 541              	.LBB229:
 542              		.loc 2 331 0
 543              		.syntax unified
 544              	@ 331 "ChibiOS_3.0.5/os/ext/CMSIS/include/core_cmFunc.h" 1
 545 00c8 62B6     		cpsie i
 546              	@ 0 "" 2
 547              		.thumb
 548              		.syntax unified
 549 00ca D9E7     		b	.L30
 550              	.LVL35:
 551              	.L72:
 552              	.LBE229:
 553              	.LBE228:
 554              	.LBE227:
 555              	.LBE226:
 556              	.LBE225:
 557              	.LBE224:
 558              	.LBE217:
 559              	.LBB232:
 560              	.LBB196:
 561              		.loc 4 390 0
 562 00cc B36B     		ldr	r3, [r6, #56]
 563 00ce 002B     		cmp	r3, #0
 564 00d0 DDD0     		beq	.L34
 565              	.LVL36:
 566              	.LBE196:
 567              	.LBE232:
 568              	.LBB233:
 569              	.LBB234:
 570              		.loc 3 844 0
ARM GAS  /tmp/cc1FbtRv.s 			page 11


 571 00d2 301D     		adds	r0, r6, #4
 572              	.LVL37:
 573 00d4 1021     		movs	r1, #16
 574 00d6 FFF7FEFF 		bl	chEvtBroadcastFlagsI
 575              	.LVL38:
 576 00da D8E7     		b	.L34
 577              	.LVL39:
 578              	.L73:
 579              	.LBE234:
 580              	.LBE233:
 581              	.LBB235:
 582              	.LBB230:
 583              	.LBB231:
 584 00dc 0821     		movs	r1, #8
 585 00de 301D     		adds	r0, r6, #4
 586              	.LVL40:
 587 00e0 FFF7FEFF 		bl	chEvtBroadcastFlagsI
 588              	.LVL41:
 589              	.LBE231:
 590              	.LBE230:
 591              		.loc 1 189 0
 592 00e4 4FF63F73 		movw	r3, #65343
 593 00e8 3B40     		ands	r3, r3, r7
 594 00ea 43F04003 		orr	r3, r3, #64
 595 00ee EB60     		str	r3, [r5, #12]
 596 00f0 EAE7     		b	.L32
 597              	.LBE235:
 598              		.cfi_endproc
 599              	.LFE259:
 600              		.size	serve_interrupt, .-serve_interrupt
 601 00f2 00BF     		.section	.text.VectorD4,"ax",%progbits
 602              		.align	1
 603              		.p2align 4,,15
 604              		.global	VectorD4
 605              		.syntax unified
 606              		.thumb
 607              		.thumb_func
 608              		.fpu fpv4-sp-d16
 609              		.type	VectorD4, %function
 610              	VectorD4:
 611              	.LFB266:
 612              		.loc 1 268 0
 613              		.cfi_startproc
 614              		@ args = 0, pretend = 0, frame = 0
 615              		@ frame_needed = 0, uses_anonymous_args = 0
 616 0000 08B5     		push	{r3, lr}
 617              		.cfi_def_cfa_offset 8
 618              		.cfi_offset 3, -8
 619              		.cfi_offset 14, -4
 620              		.loc 1 272 0
 621 0002 0348     		ldr	r0, .L76
 622 0004 FFF7FEFF 		bl	serve_interrupt
 623              	.LVL42:
 624              		.loc 1 275 0
 625 0008 BDE80840 		pop	{r3, lr}
 626              		.cfi_restore 14
 627              		.cfi_restore 3
ARM GAS  /tmp/cc1FbtRv.s 			page 12


 628              		.cfi_def_cfa_offset 0
 629              		.loc 1 274 0
 630 000c FFF7FEBF 		b	_port_irq_epilogue
 631              	.LVL43:
 632              	.L77:
 633              		.align	2
 634              	.L76:
 635 0010 00000000 		.word	.LANCHOR0
 636              		.cfi_endproc
 637              	.LFE266:
 638              		.size	VectorD4, .-VectorD4
 639              		.section	.text.VectorD8,"ax",%progbits
 640              		.align	1
 641              		.p2align 4,,15
 642              		.global	VectorD8
 643              		.syntax unified
 644              		.thumb
 645              		.thumb_func
 646              		.fpu fpv4-sp-d16
 647              		.type	VectorD8, %function
 648              	VectorD8:
 649              	.LFB267:
 650              		.loc 1 287 0
 651              		.cfi_startproc
 652              		@ args = 0, pretend = 0, frame = 0
 653              		@ frame_needed = 0, uses_anonymous_args = 0
 654 0000 08B5     		push	{r3, lr}
 655              		.cfi_def_cfa_offset 8
 656              		.cfi_offset 3, -8
 657              		.cfi_offset 14, -4
 658              		.loc 1 291 0
 659 0002 0348     		ldr	r0, .L80
 660 0004 FFF7FEFF 		bl	serve_interrupt
 661              	.LVL44:
 662              		.loc 1 294 0
 663 0008 BDE80840 		pop	{r3, lr}
 664              		.cfi_restore 14
 665              		.cfi_restore 3
 666              		.cfi_def_cfa_offset 0
 667              		.loc 1 293 0
 668 000c FFF7FEBF 		b	_port_irq_epilogue
 669              	.LVL45:
 670              	.L81:
 671              		.align	2
 672              	.L80:
 673 0010 00000000 		.word	.LANCHOR1
 674              		.cfi_endproc
 675              	.LFE267:
 676              		.size	VectorD8, .-VectorD8
 677              		.section	.text.VectorDC,"ax",%progbits
 678              		.align	1
 679              		.p2align 4,,15
 680              		.global	VectorDC
 681              		.syntax unified
 682              		.thumb
 683              		.thumb_func
 684              		.fpu fpv4-sp-d16
ARM GAS  /tmp/cc1FbtRv.s 			page 13


 685              		.type	VectorDC, %function
 686              	VectorDC:
 687              	.LFB268:
 688              		.loc 1 306 0
 689              		.cfi_startproc
 690              		@ args = 0, pretend = 0, frame = 0
 691              		@ frame_needed = 0, uses_anonymous_args = 0
 692 0000 08B5     		push	{r3, lr}
 693              		.cfi_def_cfa_offset 8
 694              		.cfi_offset 3, -8
 695              		.cfi_offset 14, -4
 696              		.loc 1 310 0
 697 0002 0348     		ldr	r0, .L84
 698 0004 FFF7FEFF 		bl	serve_interrupt
 699              	.LVL46:
 700              		.loc 1 313 0
 701 0008 BDE80840 		pop	{r3, lr}
 702              		.cfi_restore 14
 703              		.cfi_restore 3
 704              		.cfi_def_cfa_offset 0
 705              		.loc 1 312 0
 706 000c FFF7FEBF 		b	_port_irq_epilogue
 707              	.LVL47:
 708              	.L85:
 709              		.align	2
 710              	.L84:
 711 0010 00000000 		.word	.LANCHOR2
 712              		.cfi_endproc
 713              	.LFE268:
 714              		.size	VectorDC, .-VectorDC
 715              		.section	.text.Vector110,"ax",%progbits
 716              		.align	1
 717              		.p2align 4,,15
 718              		.global	Vector110
 719              		.syntax unified
 720              		.thumb
 721              		.thumb_func
 722              		.fpu fpv4-sp-d16
 723              		.type	Vector110, %function
 724              	Vector110:
 725              	.LFB269:
 726              		.loc 1 325 0
 727              		.cfi_startproc
 728              		@ args = 0, pretend = 0, frame = 0
 729              		@ frame_needed = 0, uses_anonymous_args = 0
 730 0000 08B5     		push	{r3, lr}
 731              		.cfi_def_cfa_offset 8
 732              		.cfi_offset 3, -8
 733              		.cfi_offset 14, -4
 734              		.loc 1 329 0
 735 0002 0348     		ldr	r0, .L88
 736 0004 FFF7FEFF 		bl	serve_interrupt
 737              	.LVL48:
 738              		.loc 1 332 0
 739 0008 BDE80840 		pop	{r3, lr}
 740              		.cfi_restore 14
 741              		.cfi_restore 3
ARM GAS  /tmp/cc1FbtRv.s 			page 14


 742              		.cfi_def_cfa_offset 0
 743              		.loc 1 331 0
 744 000c FFF7FEBF 		b	_port_irq_epilogue
 745              	.LVL49:
 746              	.L89:
 747              		.align	2
 748              	.L88:
 749 0010 00000000 		.word	.LANCHOR3
 750              		.cfi_endproc
 751              	.LFE269:
 752              		.size	Vector110, .-Vector110
 753              		.section	.text.Vector114,"ax",%progbits
 754              		.align	1
 755              		.p2align 4,,15
 756              		.global	Vector114
 757              		.syntax unified
 758              		.thumb
 759              		.thumb_func
 760              		.fpu fpv4-sp-d16
 761              		.type	Vector114, %function
 762              	Vector114:
 763              	.LFB270:
 764              		.loc 1 344 0
 765              		.cfi_startproc
 766              		@ args = 0, pretend = 0, frame = 0
 767              		@ frame_needed = 0, uses_anonymous_args = 0
 768 0000 08B5     		push	{r3, lr}
 769              		.cfi_def_cfa_offset 8
 770              		.cfi_offset 3, -8
 771              		.cfi_offset 14, -4
 772              		.loc 1 348 0
 773 0002 0348     		ldr	r0, .L92
 774 0004 FFF7FEFF 		bl	serve_interrupt
 775              	.LVL50:
 776              		.loc 1 351 0
 777 0008 BDE80840 		pop	{r3, lr}
 778              		.cfi_restore 14
 779              		.cfi_restore 3
 780              		.cfi_def_cfa_offset 0
 781              		.loc 1 350 0
 782 000c FFF7FEBF 		b	_port_irq_epilogue
 783              	.LVL51:
 784              	.L93:
 785              		.align	2
 786              	.L92:
 787 0010 00000000 		.word	.LANCHOR4
 788              		.cfi_endproc
 789              	.LFE270:
 790              		.size	Vector114, .-Vector114
 791              		.section	.text.Vector15C,"ax",%progbits
 792              		.align	1
 793              		.p2align 4,,15
 794              		.global	Vector15C
 795              		.syntax unified
 796              		.thumb
 797              		.thumb_func
 798              		.fpu fpv4-sp-d16
ARM GAS  /tmp/cc1FbtRv.s 			page 15


 799              		.type	Vector15C, %function
 800              	Vector15C:
 801              	.LFB271:
 802              		.loc 1 363 0
 803              		.cfi_startproc
 804              		@ args = 0, pretend = 0, frame = 0
 805              		@ frame_needed = 0, uses_anonymous_args = 0
 806 0000 08B5     		push	{r3, lr}
 807              		.cfi_def_cfa_offset 8
 808              		.cfi_offset 3, -8
 809              		.cfi_offset 14, -4
 810              		.loc 1 367 0
 811 0002 0348     		ldr	r0, .L96
 812 0004 FFF7FEFF 		bl	serve_interrupt
 813              	.LVL52:
 814              		.loc 1 370 0
 815 0008 BDE80840 		pop	{r3, lr}
 816              		.cfi_restore 14
 817              		.cfi_restore 3
 818              		.cfi_def_cfa_offset 0
 819              		.loc 1 369 0
 820 000c FFF7FEBF 		b	_port_irq_epilogue
 821              	.LVL53:
 822              	.L97:
 823              		.align	2
 824              	.L96:
 825 0010 00000000 		.word	.LANCHOR5
 826              		.cfi_endproc
 827              	.LFE271:
 828              		.size	Vector15C, .-Vector15C
 829              		.section	.text.sd_lld_init,"ax",%progbits
 830              		.align	1
 831              		.p2align 4,,15
 832              		.global	sd_lld_init
 833              		.syntax unified
 834              		.thumb
 835              		.thumb_func
 836              		.fpu fpv4-sp-d16
 837              		.type	sd_lld_init, %function
 838              	sd_lld_init:
 839              	.LFB272:
 840              		.loc 1 382 0
 841              		.cfi_startproc
 842              		@ args = 0, pretend = 0, frame = 0
 843              		@ frame_needed = 0, uses_anonymous_args = 0
 844 0000 F8B5     		push	{r3, r4, r5, r6, r7, lr}
 845              		.cfi_def_cfa_offset 24
 846              		.cfi_offset 3, -24
 847              		.cfi_offset 4, -20
 848              		.cfi_offset 5, -16
 849              		.cfi_offset 6, -12
 850              		.cfi_offset 7, -8
 851              		.cfi_offset 14, -4
 852              		.loc 1 385 0
 853 0002 1B4D     		ldr	r5, .L100
 854              		.loc 1 390 0
 855 0004 1B4C     		ldr	r4, .L100+4
ARM GAS  /tmp/cc1FbtRv.s 			page 16


 856              		.loc 1 385 0
 857 0006 1C4A     		ldr	r2, .L100+8
 858              		.loc 1 395 0
 859 0008 1C4F     		ldr	r7, .L100+12
 860              		.loc 1 400 0
 861 000a 1D4E     		ldr	r6, .L100+16
 862              		.loc 1 385 0
 863 000c 2846     		mov	r0, r5
 864 000e 0021     		movs	r1, #0
 865 0010 FFF7FEFF 		bl	sdObjectInit
 866              	.LVL54:
 867              		.loc 1 386 0
 868 0014 1B4B     		ldr	r3, .L100+20
 869              		.loc 1 390 0
 870 0016 1C4A     		ldr	r2, .L100+24
 871              		.loc 1 386 0
 872 0018 C5F85431 		str	r3, [r5, #340]
 873              		.loc 1 390 0
 874 001c 2046     		mov	r0, r4
 875 001e 0021     		movs	r1, #0
 876 0020 FFF7FEFF 		bl	sdObjectInit
 877              	.LVL55:
 878              		.loc 1 405 0
 879 0024 194D     		ldr	r5, .L100+28
 880              		.loc 1 391 0
 881 0026 1A4B     		ldr	r3, .L100+32
 882              		.loc 1 395 0
 883 0028 1A4A     		ldr	r2, .L100+36
 884              		.loc 1 391 0
 885 002a C4F85431 		str	r3, [r4, #340]
 886              		.loc 1 395 0
 887 002e 3846     		mov	r0, r7
 888 0030 0021     		movs	r1, #0
 889 0032 FFF7FEFF 		bl	sdObjectInit
 890              	.LVL56:
 891              		.loc 1 410 0
 892 0036 184C     		ldr	r4, .L100+40
 893              		.loc 1 396 0
 894 0038 184B     		ldr	r3, .L100+44
 895              		.loc 1 400 0
 896 003a 194A     		ldr	r2, .L100+48
 897              		.loc 1 396 0
 898 003c C7F85431 		str	r3, [r7, #340]
 899              		.loc 1 400 0
 900 0040 3046     		mov	r0, r6
 901 0042 0021     		movs	r1, #0
 902 0044 FFF7FEFF 		bl	sdObjectInit
 903              	.LVL57:
 904              		.loc 1 401 0
 905 0048 164B     		ldr	r3, .L100+52
 906              		.loc 1 405 0
 907 004a 174A     		ldr	r2, .L100+56
 908              		.loc 1 401 0
 909 004c C6F85431 		str	r3, [r6, #340]
 910              		.loc 1 405 0
 911 0050 2846     		mov	r0, r5
 912 0052 0021     		movs	r1, #0
ARM GAS  /tmp/cc1FbtRv.s 			page 17


 913 0054 FFF7FEFF 		bl	sdObjectInit
 914              	.LVL58:
 915              		.loc 1 406 0
 916 0058 144B     		ldr	r3, .L100+60
 917              		.loc 1 410 0
 918 005a 154A     		ldr	r2, .L100+64
 919              		.loc 1 406 0
 920 005c C5F85431 		str	r3, [r5, #340]
 921              		.loc 1 410 0
 922 0060 2046     		mov	r0, r4
 923 0062 0021     		movs	r1, #0
 924 0064 FFF7FEFF 		bl	sdObjectInit
 925              	.LVL59:
 926              		.loc 1 411 0
 927 0068 124B     		ldr	r3, .L100+68
 928 006a C4F85431 		str	r3, [r4, #340]
 929              		.loc 1 413 0
 930 006e F8BD     		pop	{r3, r4, r5, r6, r7, pc}
 931              	.L101:
 932              		.align	2
 933              	.L100:
 934 0070 00000000 		.word	.LANCHOR0
 935 0074 00000000 		.word	.LANCHOR1
 936 0078 00000000 		.word	notify1
 937 007c 00000000 		.word	.LANCHOR2
 938 0080 00000000 		.word	.LANCHOR3
 939 0084 00100140 		.word	1073811456
 940 0088 00000000 		.word	notify2
 941 008c 00000000 		.word	.LANCHOR4
 942 0090 00440040 		.word	1073759232
 943 0094 00000000 		.word	notify3
 944 0098 00000000 		.word	.LANCHOR5
 945 009c 00480040 		.word	1073760256
 946 00a0 00000000 		.word	notify4
 947 00a4 004C0040 		.word	1073761280
 948 00a8 00000000 		.word	notify5
 949 00ac 00500040 		.word	1073762304
 950 00b0 00000000 		.word	notify6
 951 00b4 00140140 		.word	1073812480
 952              		.cfi_endproc
 953              	.LFE272:
 954              		.size	sd_lld_init, .-sd_lld_init
 955              		.section	.text.sd_lld_start,"ax",%progbits
 956              		.align	1
 957              		.p2align 4,,15
 958              		.global	sd_lld_start
 959              		.syntax unified
 960              		.thumb
 961              		.thumb_func
 962              		.fpu fpv4-sp-d16
 963              		.type	sd_lld_start, %function
 964              	sd_lld_start:
 965              	.LFB273:
 966              		.loc 1 425 0
 967              		.cfi_startproc
 968              		@ args = 0, pretend = 0, frame = 0
 969              		@ frame_needed = 0, uses_anonymous_args = 0
ARM GAS  /tmp/cc1FbtRv.s 			page 18


 970              	.LVL60:
 971 0000 38B5     		push	{r3, r4, r5, lr}
 972              		.cfi_def_cfa_offset 16
 973              		.cfi_offset 3, -16
 974              		.cfi_offset 4, -12
 975              		.cfi_offset 5, -8
 976              		.cfi_offset 14, -4
 977              		.loc 1 428 0
 978 0002 3D4C     		ldr	r4, .L122
 979              		.loc 1 430 0
 980 0004 037A     		ldrb	r3, [r0, #8]	@ zero_extendqisi2
 981              		.loc 1 428 0
 982 0006 0029     		cmp	r1, #0
 983 0008 18BF     		it	ne
 984 000a 0C46     		movne	r4, r1
 985              	.LVL61:
 986              		.loc 1 430 0
 987 000c 012B     		cmp	r3, #1
 988              		.loc 1 425 0
 989 000e 0546     		mov	r5, r0
 990              		.loc 1 430 0
 991 0010 24D0     		beq	.L117
 992              	.LVL62:
 993              	.L105:
 994              	.LBB238:
 995              	.LBB239:
 996              		.loc 1 92 0
 997 0012 D5F85431 		ldr	r3, [r5, #340]
 998              	.LVL63:
 999              		.loc 1 96 0
 1000 0016 3949     		ldr	r1, .L122+4
 1001 0018 2068     		ldr	r0, [r4]
 1002 001a 8B42     		cmp	r3, r1
 1003 001c 19D0     		beq	.L112
 1004 001e 384A     		ldr	r2, .L122+8
 1005 0020 9342     		cmp	r3, r2
 1006 0022 16D0     		beq	.L112
 1007              		.loc 1 102 0
 1008 0024 374A     		ldr	r2, .L122+12
 1009 0026 B2FBF0F2 		udiv	r2, r2, r0
 1010 002a 9A60     		str	r2, [r3, #8]
 1011              	.L114:
 1012              		.loc 1 108 0
 1013 002c A288     		ldrh	r2, [r4, #4]
 1014              		.loc 1 105 0
 1015 002e E088     		ldrh	r0, [r4, #6]
 1016              		.loc 1 106 0
 1017 0030 2189     		ldrh	r1, [r4, #8]
 1018              		.loc 1 108 0
 1019 0032 42F40452 		orr	r2, r2, #8448
 1020 0036 42F02C02 		orr	r2, r2, #44
 1021              		.loc 1 105 0
 1022 003a 40F04000 		orr	r0, r0, #64
 1023              		.loc 1 106 0
 1024 003e 41F00101 		orr	r1, r1, #1
 1025              		.loc 1 110 0
 1026 0042 0024     		movs	r4, #0
ARM GAS  /tmp/cc1FbtRv.s 			page 19


 1027              	.LVL64:
 1028              		.loc 1 105 0
 1029 0044 1861     		str	r0, [r3, #16]
 1030              		.loc 1 106 0
 1031 0046 5961     		str	r1, [r3, #20]
 1032              		.loc 1 107 0
 1033 0048 DA60     		str	r2, [r3, #12]
 1034              		.loc 1 110 0
 1035 004a 1C60     		str	r4, [r3]
 1036              		.loc 1 111 0
 1037 004c 1A68     		ldr	r2, [r3]
 1038              		.loc 1 112 0
 1039 004e 5B68     		ldr	r3, [r3, #4]
 1040              	.LVL65:
 1041              	.LBE239:
 1042              	.LBE238:
 1043              		.loc 1 469 0
 1044 0050 38BD     		pop	{r3, r4, r5, pc}
 1045              	.LVL66:
 1046              	.L112:
 1047              	.LBB241:
 1048              	.LBB240:
 1049              		.loc 1 100 0
 1050 0052 2D4A     		ldr	r2, .L122+16
 1051 0054 B2FBF0F2 		udiv	r2, r2, r0
 1052 0058 9A60     		str	r2, [r3, #8]
 1053 005a E7E7     		b	.L114
 1054              	.LVL67:
 1055              	.L117:
 1056              	.LBE240:
 1057              	.LBE241:
 1058              		.loc 1 432 0
 1059 005c 2B4B     		ldr	r3, .L122+20
 1060 005e 9842     		cmp	r0, r3
 1061 0060 1FD0     		beq	.L118
 1062              		.loc 1 438 0
 1063 0062 2B4B     		ldr	r3, .L122+24
 1064 0064 9842     		cmp	r0, r3
 1065 0066 3CD0     		beq	.L119
 1066              		.loc 1 444 0
 1067 0068 2A4B     		ldr	r3, .L122+28
 1068 006a 9842     		cmp	r0, r3
 1069 006c 0FD0     		beq	.L120
 1070              		.loc 1 450 0
 1071 006e 2A4B     		ldr	r3, .L122+32
 1072 0070 9842     		cmp	r0, r3
 1073 0072 2CD0     		beq	.L121
 1074              		.loc 1 456 0
 1075 0074 294B     		ldr	r3, .L122+36
 1076 0076 9842     		cmp	r0, r3
 1077 0078 1CD1     		bne	.L107
 1078              		.loc 1 457 0
 1079 007a 294A     		ldr	r2, .L122+40
 1080 007c 136C     		ldr	r3, [r2, #64]
 1081 007e 43F48013 		orr	r3, r3, #1048576
 1082 0082 1364     		str	r3, [r2, #64]
 1083              		.loc 1 458 0
ARM GAS  /tmp/cc1FbtRv.s 			page 20


 1084 0084 0421     		movs	r1, #4
 1085 0086 3520     		movs	r0, #53
 1086              	.LVL68:
 1087 0088 FFF7FEFF 		bl	nvicEnableVector
 1088              	.LVL69:
 1089 008c C1E7     		b	.L105
 1090              	.LVL70:
 1091              	.L120:
 1092              		.loc 1 445 0
 1093 008e 244A     		ldr	r2, .L122+40
 1094 0090 136C     		ldr	r3, [r2, #64]
 1095 0092 43F48023 		orr	r3, r3, #262144
 1096 0096 1364     		str	r3, [r2, #64]
 1097              		.loc 1 446 0
 1098 0098 0421     		movs	r1, #4
 1099 009a 2720     		movs	r0, #39
 1100              	.LVL71:
 1101 009c FFF7FEFF 		bl	nvicEnableVector
 1102              	.LVL72:
 1103 00a0 B7E7     		b	.L105
 1104              	.LVL73:
 1105              	.L118:
 1106              		.loc 1 433 0
 1107 00a2 1F4A     		ldr	r2, .L122+40
 1108 00a4 536C     		ldr	r3, [r2, #68]
 1109 00a6 43F01003 		orr	r3, r3, #16
 1110 00aa 5364     		str	r3, [r2, #68]
 1111              		.loc 1 434 0
 1112 00ac 0421     		movs	r1, #4
 1113 00ae 2520     		movs	r0, #37
 1114              	.LVL74:
 1115 00b0 FFF7FEFF 		bl	nvicEnableVector
 1116              	.LVL75:
 1117              	.L107:
 1118              		.loc 1 462 0
 1119 00b4 1B4B     		ldr	r3, .L122+44
 1120 00b6 9D42     		cmp	r5, r3
 1121 00b8 ABD1     		bne	.L105
 1122              		.loc 1 463 0
 1123 00ba 194A     		ldr	r2, .L122+40
 1124 00bc 536C     		ldr	r3, [r2, #68]
 1125 00be 43F02003 		orr	r3, r3, #32
 1126 00c2 5364     		str	r3, [r2, #68]
 1127              		.loc 1 464 0
 1128 00c4 0421     		movs	r1, #4
 1129 00c6 4720     		movs	r0, #71
 1130 00c8 FFF7FEFF 		bl	nvicEnableVector
 1131              	.LVL76:
 1132 00cc A1E7     		b	.L105
 1133              	.LVL77:
 1134              	.L121:
 1135              		.loc 1 451 0
 1136 00ce 144A     		ldr	r2, .L122+40
 1137 00d0 136C     		ldr	r3, [r2, #64]
 1138 00d2 43F40023 		orr	r3, r3, #524288
 1139 00d6 1364     		str	r3, [r2, #64]
 1140              		.loc 1 452 0
ARM GAS  /tmp/cc1FbtRv.s 			page 21


 1141 00d8 0421     		movs	r1, #4
 1142 00da 3420     		movs	r0, #52
 1143              	.LVL78:
 1144 00dc FFF7FEFF 		bl	nvicEnableVector
 1145              	.LVL79:
 1146 00e0 97E7     		b	.L105
 1147              	.LVL80:
 1148              	.L119:
 1149              		.loc 1 439 0
 1150 00e2 0F4A     		ldr	r2, .L122+40
 1151 00e4 136C     		ldr	r3, [r2, #64]
 1152 00e6 43F40033 		orr	r3, r3, #131072
 1153 00ea 1364     		str	r3, [r2, #64]
 1154              		.loc 1 440 0
 1155 00ec 0421     		movs	r1, #4
 1156 00ee 2620     		movs	r0, #38
 1157              	.LVL81:
 1158 00f0 FFF7FEFF 		bl	nvicEnableVector
 1159              	.LVL82:
 1160 00f4 DEE7     		b	.L107
 1161              	.L123:
 1162 00f6 00BF     		.align	2
 1163              	.L122:
 1164 00f8 00000000 		.word	.LANCHOR6
 1165 00fc 00100140 		.word	1073811456
 1166 0100 00140140 		.word	1073812480
 1167 0104 80DE8002 		.word	42000000
 1168 0108 00BD0105 		.word	84000000
 1169 010c 00000000 		.word	.LANCHOR0
 1170 0110 00000000 		.word	.LANCHOR1
 1171 0114 00000000 		.word	.LANCHOR2
 1172 0118 00000000 		.word	.LANCHOR3
 1173 011c 00000000 		.word	.LANCHOR4
 1174 0120 00380240 		.word	1073887232
 1175 0124 00000000 		.word	.LANCHOR5
 1176              		.cfi_endproc
 1177              	.LFE273:
 1178              		.size	sd_lld_start, .-sd_lld_start
 1179              		.section	.text.sd_lld_stop,"ax",%progbits
 1180              		.align	1
 1181              		.p2align 4,,15
 1182              		.global	sd_lld_stop
 1183              		.syntax unified
 1184              		.thumb
 1185              		.thumb_func
 1186              		.fpu fpv4-sp-d16
 1187              		.type	sd_lld_stop, %function
 1188              	sd_lld_stop:
 1189              	.LFB274:
 1190              		.loc 1 480 0
 1191              		.cfi_startproc
 1192              		@ args = 0, pretend = 0, frame = 0
 1193              		@ frame_needed = 0, uses_anonymous_args = 0
 1194              		@ link register save eliminated.
 1195              	.LVL83:
 1196              		.loc 1 482 0
 1197 0000 037A     		ldrb	r3, [r0, #8]	@ zero_extendqisi2
ARM GAS  /tmp/cc1FbtRv.s 			page 22


 1198 0002 022B     		cmp	r3, #2
 1199 0004 00D0     		beq	.L133
 1200              	.L124:
 1201              		.loc 1 527 0
 1202 0006 7047     		bx	lr
 1203              	.L133:
 1204              		.loc 1 485 0
 1205 0008 2349     		ldr	r1, .L139
 1206              		.loc 1 483 0
 1207 000a D0F85431 		ldr	r3, [r0, #340]
 1208              	.LVL84:
 1209              	.LBB242:
 1210              	.LBB243:
 1211              		.loc 1 123 0
 1212 000e 0022     		movs	r2, #0
 1213              	.LBE243:
 1214              	.LBE242:
 1215              		.loc 1 485 0
 1216 0010 8842     		cmp	r0, r1
 1217              	.LBB245:
 1218              	.LBB244:
 1219              		.loc 1 123 0
 1220 0012 DA60     		str	r2, [r3, #12]
 1221              		.loc 1 124 0
 1222 0014 1A61     		str	r2, [r3, #16]
 1223              		.loc 1 125 0
 1224 0016 5A61     		str	r2, [r3, #20]
 1225              	.LVL85:
 1226              	.LBE244:
 1227              	.LBE245:
 1228              		.loc 1 485 0
 1229 0018 16D0     		beq	.L134
 1230              		.loc 1 492 0
 1231 001a 204B     		ldr	r3, .L139+4
 1232 001c 9842     		cmp	r0, r3
 1233 001e 23D0     		beq	.L135
 1234              		.loc 1 499 0
 1235 0020 1F4B     		ldr	r3, .L139+8
 1236 0022 9842     		cmp	r0, r3
 1237 0024 28D0     		beq	.L136
 1238              		.loc 1 506 0
 1239 0026 1F4B     		ldr	r3, .L139+12
 1240 0028 9842     		cmp	r0, r3
 1241 002a 15D0     		beq	.L137
 1242              		.loc 1 513 0
 1243 002c 1E4B     		ldr	r3, .L139+16
 1244 002e 9842     		cmp	r0, r3
 1245 0030 2AD0     		beq	.L138
 1246              		.loc 1 520 0
 1247 0032 1E4B     		ldr	r3, .L139+20
 1248 0034 9842     		cmp	r0, r3
 1249 0036 E6D1     		bne	.L124
 1250              		.loc 1 521 0
 1251 0038 1D4A     		ldr	r2, .L139+24
 1252 003a 536C     		ldr	r3, [r2, #68]
 1253 003c 23F02003 		bic	r3, r3, #32
 1254 0040 5364     		str	r3, [r2, #68]
ARM GAS  /tmp/cc1FbtRv.s 			page 23


 1255              		.loc 1 522 0
 1256 0042 4720     		movs	r0, #71
 1257              	.LVL86:
 1258 0044 FFF7FEBF 		b	nvicDisableVector
 1259              	.LVL87:
 1260              	.L134:
 1261              		.loc 1 486 0
 1262 0048 194A     		ldr	r2, .L139+24
 1263 004a 536C     		ldr	r3, [r2, #68]
 1264 004c 23F01003 		bic	r3, r3, #16
 1265 0050 5364     		str	r3, [r2, #68]
 1266              		.loc 1 487 0
 1267 0052 2520     		movs	r0, #37
 1268              	.LVL88:
 1269 0054 FFF7FEBF 		b	nvicDisableVector
 1270              	.LVL89:
 1271              	.L137:
 1272              		.loc 1 507 0
 1273 0058 154A     		ldr	r2, .L139+24
 1274 005a 136C     		ldr	r3, [r2, #64]
 1275 005c 23F40023 		bic	r3, r3, #524288
 1276 0060 1364     		str	r3, [r2, #64]
 1277              		.loc 1 508 0
 1278 0062 3420     		movs	r0, #52
 1279              	.LVL90:
 1280 0064 FFF7FEBF 		b	nvicDisableVector
 1281              	.LVL91:
 1282              	.L135:
 1283              		.loc 1 493 0
 1284 0068 114A     		ldr	r2, .L139+24
 1285 006a 136C     		ldr	r3, [r2, #64]
 1286 006c 23F40033 		bic	r3, r3, #131072
 1287 0070 1364     		str	r3, [r2, #64]
 1288              		.loc 1 494 0
 1289 0072 2620     		movs	r0, #38
 1290              	.LVL92:
 1291 0074 FFF7FEBF 		b	nvicDisableVector
 1292              	.LVL93:
 1293              	.L136:
 1294              		.loc 1 500 0
 1295 0078 0D4A     		ldr	r2, .L139+24
 1296 007a 136C     		ldr	r3, [r2, #64]
 1297 007c 23F48023 		bic	r3, r3, #262144
 1298 0080 1364     		str	r3, [r2, #64]
 1299              		.loc 1 501 0
 1300 0082 2720     		movs	r0, #39
 1301              	.LVL94:
 1302 0084 FFF7FEBF 		b	nvicDisableVector
 1303              	.LVL95:
 1304              	.L138:
 1305              		.loc 1 514 0
 1306 0088 094A     		ldr	r2, .L139+24
 1307 008a 136C     		ldr	r3, [r2, #64]
 1308 008c 23F48013 		bic	r3, r3, #1048576
 1309 0090 1364     		str	r3, [r2, #64]
 1310              		.loc 1 515 0
 1311 0092 3520     		movs	r0, #53
ARM GAS  /tmp/cc1FbtRv.s 			page 24


 1312              	.LVL96:
 1313 0094 FFF7FEBF 		b	nvicDisableVector
 1314              	.LVL97:
 1315              	.L140:
 1316              		.align	2
 1317              	.L139:
 1318 0098 00000000 		.word	.LANCHOR0
 1319 009c 00000000 		.word	.LANCHOR1
 1320 00a0 00000000 		.word	.LANCHOR2
 1321 00a4 00000000 		.word	.LANCHOR3
 1322 00a8 00000000 		.word	.LANCHOR4
 1323 00ac 00000000 		.word	.LANCHOR5
 1324 00b0 00380240 		.word	1073887232
 1325              		.cfi_endproc
 1326              	.LFE274:
 1327              		.size	sd_lld_stop, .-sd_lld_stop
 1328              		.global	SD6
 1329              		.global	SD5
 1330              		.global	SD4
 1331              		.global	SD3
 1332              		.global	SD2
 1333              		.global	SD1
 1334              		.section	.bss.SD1,"aw",%nobits
 1335              		.align	2
 1336              		.set	.LANCHOR0,. + 0
 1337              		.type	SD1, %object
 1338              		.size	SD1, 344
 1339              	SD1:
 1340 0000 00000000 		.space	344
 1340      00000000 
 1340      00000000 
 1340      00000000 
 1340      00000000 
 1341              		.section	.bss.SD2,"aw",%nobits
 1342              		.align	2
 1343              		.set	.LANCHOR1,. + 0
 1344              		.type	SD2, %object
 1345              		.size	SD2, 344
 1346              	SD2:
 1347 0000 00000000 		.space	344
 1347      00000000 
 1347      00000000 
 1347      00000000 
 1347      00000000 
 1348              		.section	.bss.SD3,"aw",%nobits
 1349              		.align	2
 1350              		.set	.LANCHOR2,. + 0
 1351              		.type	SD3, %object
 1352              		.size	SD3, 344
 1353              	SD3:
 1354 0000 00000000 		.space	344
 1354      00000000 
 1354      00000000 
 1354      00000000 
 1354      00000000 
 1355              		.section	.bss.SD4,"aw",%nobits
 1356              		.align	2
ARM GAS  /tmp/cc1FbtRv.s 			page 25


 1357              		.set	.LANCHOR3,. + 0
 1358              		.type	SD4, %object
 1359              		.size	SD4, 344
 1360              	SD4:
 1361 0000 00000000 		.space	344
 1361      00000000 
 1361      00000000 
 1361      00000000 
 1361      00000000 
 1362              		.section	.bss.SD5,"aw",%nobits
 1363              		.align	2
 1364              		.set	.LANCHOR4,. + 0
 1365              		.type	SD5, %object
 1366              		.size	SD5, 344
 1367              	SD5:
 1368 0000 00000000 		.space	344
 1368      00000000 
 1368      00000000 
 1368      00000000 
 1368      00000000 
 1369              		.section	.bss.SD6,"aw",%nobits
 1370              		.align	2
 1371              		.set	.LANCHOR5,. + 0
 1372              		.type	SD6, %object
 1373              		.size	SD6, 344
 1374              	SD6:
 1375 0000 00000000 		.space	344
 1375      00000000 
 1375      00000000 
 1375      00000000 
 1375      00000000 
 1376              		.section	.rodata.default_config,"a",%progbits
 1377              		.align	2
 1378              		.set	.LANCHOR6,. + 0
 1379              		.type	default_config, %object
 1380              		.size	default_config, 12
 1381              	default_config:
 1382 0000 00C20100 		.word	115200
 1383 0004 0000     		.short	0
 1384 0006 0040     		.short	16384
 1385 0008 0000     		.short	0
 1386 000a 0000     		.space	2
 1387              		.text
 1388              	.Letext0:
 1389              		.file 5 "/usr/lib/gcc/arm-none-eabi/7.3.1/include/stddef.h"
 1390              		.file 6 "/usr/arm-none-eabi/include/machine/_default_types.h"
 1391              		.file 7 "/usr/arm-none-eabi/include/sys/_stdint.h"
 1392              		.file 8 "ChibiOS_3.0.5/os/rt/ports/ARMCMx/compilers/GCC/chtypes.h"
 1393              		.file 9 "ChibiOS_3.0.5/os/rt/include/chsystypes.h"
 1394              		.file 10 "ChibiOS_3.0.5/os/rt/include/chschd.h"
 1395              		.file 11 "ChibiOS_3.0.5/os/ext/CMSIS/include/core_cm4.h"
 1396              		.file 12 "ChibiOS_3.0.5/os/ext/CMSIS/ST/system_stm32f4xx.h"
 1397              		.file 13 "ChibiOS_3.0.5/os/ext/CMSIS/ST/stm32f407xx.h"
 1398              		.file 14 "ChibiOS_3.0.5/os/rt/ports/ARMCMx/chcore.h"
 1399              		.file 15 "ChibiOS_3.0.5/os/rt/ports/ARMCMx/chcore_v7m.h"
 1400              		.file 16 "ChibiOS_3.0.5/os/rt/include/chtm.h"
 1401              		.file 17 "ChibiOS_3.0.5/os/rt/include/chsem.h"
ARM GAS  /tmp/cc1FbtRv.s 			page 26


 1402              		.file 18 "ChibiOS_3.0.5/os/rt/include/chmtx.h"
 1403              		.file 19 "ChibiOS_3.0.5/os/rt/include/chregistry.h"
 1404              		.file 20 "ChibiOS_3.0.5/os/rt/include/chevents.h"
 1405              		.file 21 "./datatypes.h"
 1406              		.file 22 "./conf_general.h"
 1407              		.file 23 "ChibiOS_3.0.5/os/hal/ports/STM32/STM32F4xx/stm32_dma.h"
 1408              		.file 24 "ChibiOS_3.0.5/os/hal/ports/STM32/LLD/GPIOv2/pal_lld.h"
 1409              		.file 25 "ChibiOS_3.0.5/os/hal/include/can.h"
 1410              		.file 26 "ChibiOS_3.0.5/os/hal/ports/STM32/LLD/can_lld.h"
 1411              		.file 27 "ChibiOS_3.0.5/os/hal/include/i2c.h"
 1412              		.file 28 "ChibiOS_3.0.5/os/hal/ports/STM32/LLD/I2Cv1/i2c_lld.h"
 1413              		.file 29 "ChibiOS_3.0.5/os/hal/include/icu.h"
 1414              		.file 30 "ChibiOS_3.0.5/os/hal/ports/STM32/LLD/TIMv1/icu_lld.h"
 1415              		.file 31 "ChibiOS_3.0.5/os/hal/ports/STM32/LLD/TIMv1/stm32_tim.h"
 1416              		.file 32 "ChibiOS_3.0.5/os/hal/include/serial.h"
 1417              		.file 33 "ChibiOS_3.0.5/os/hal/ports/STM32/LLD/USARTv1/serial_lld.h"
 1418              		.file 34 "ChibiOS_3.0.5/os/hal/include/spi.h"
 1419              		.file 35 "ChibiOS_3.0.5/os/hal/ports/STM32/LLD/SPIv1/spi_lld.h"
 1420              		.file 36 "ChibiOS_3.0.5/os/hal/include/usb.h"
 1421              		.file 37 "ChibiOS_3.0.5/os/hal/ports/STM32/LLD/OTGv1/usb_lld.h"
 1422              		.file 38 "ChibiOS_3.0.5/os/hal/ports/STM32/LLD/OTGv1/stm32_otg.h"
 1423              		.file 39 "ChibiOS_3.0.5/os/rt/include/chsys.h"
 1424              		.file 40 "ChibiOS_3.0.5/os/hal/ports/common/ARMCMx/nvic.h"