ARM GAS  /tmp/ccP2QTJa.s 			page 1


   1              		.cpu cortex-m4
   2              		.eabi_attribute 27, 1
   3              		.eabi_attribute 28, 1
   4              		.eabi_attribute 20, 1
   5              		.eabi_attribute 21, 1
   6              		.eabi_attribute 23, 3
   7              		.eabi_attribute 24, 1
   8              		.eabi_attribute 25, 1
   9              		.eabi_attribute 26, 1
  10              		.eabi_attribute 30, 2
  11              		.eabi_attribute 34, 1
  12              		.eabi_attribute 18, 4
  13              		.file	"servo_simple.c"
  14              		.text
  15              	.Ltext0:
  16              		.cfi_sections	.debug_frame
  17              		.section	.text.servo_simple_stop,"ax",%progbits
  18              		.align	1
  19              		.p2align 4,,15
  20              		.global	servo_simple_stop
  21              		.syntax unified
  22              		.thumb
  23              		.thumb_func
  24              		.fpu fpv4-sp-d16
  25              		.type	servo_simple_stop, %function
  26              	servo_simple_stop:
  27              	.LFB257:
  28              		.file 1 "servo_simple.c"
  29              		.loc 1 75 0
  30              		.cfi_startproc
  31              		@ args = 0, pretend = 0, frame = 0
  32              		@ frame_needed = 0, uses_anonymous_args = 0
  33 0000 10B5     		push	{r4, lr}
  34              		.cfi_def_cfa_offset 8
  35              		.cfi_offset 4, -8
  36              		.cfi_offset 14, -4
  37              		.loc 1 76 0
  38 0002 094C     		ldr	r4, .L9
  39 0004 2378     		ldrb	r3, [r4]	@ zero_extendqisi2
  40 0006 03B9     		cbnz	r3, .L8
  41              		.loc 1 82 0
  42 0008 10BD     		pop	{r4, pc}
  43              	.L8:
  44              		.loc 1 77 0
  45 000a 0022     		movs	r2, #0
  46 000c 4021     		movs	r1, #64
  47 000e 0748     		ldr	r0, .L9+4
  48 0010 FFF7FEFF 		bl	_pal_lld_setgroupmode
  49              	.LVL0:
  50              		.loc 1 78 0
  51 0014 0021     		movs	r1, #0
  52 0016 0648     		ldr	r0, .L9+8
  53 0018 FFF7FEFF 		bl	TIM_Cmd
  54              	.LVL1:
  55              		.loc 1 79 0
  56 001c 0448     		ldr	r0, .L9+8
  57 001e FFF7FEFF 		bl	TIM_DeInit
ARM GAS  /tmp/ccP2QTJa.s 			page 2


  58              	.LVL2:
  59              		.loc 1 80 0
  60 0022 0023     		movs	r3, #0
  61 0024 2370     		strb	r3, [r4]
  62              		.loc 1 82 0
  63 0026 10BD     		pop	{r4, pc}
  64              	.L10:
  65              		.align	2
  66              	.L9:
  67 0028 00000000 		.word	.LANCHOR0
  68 002c 00040240 		.word	1073873920
  69 0030 00080040 		.word	1073743872
  70              		.cfi_endproc
  71              	.LFE257:
  72              		.size	servo_simple_stop, .-servo_simple_stop
  73              		.section	.text.servo_simple_is_running,"ax",%progbits
  74              		.align	1
  75              		.p2align 4,,15
  76              		.global	servo_simple_is_running
  77              		.syntax unified
  78              		.thumb
  79              		.thumb_func
  80              		.fpu fpv4-sp-d16
  81              		.type	servo_simple_is_running, %function
  82              	servo_simple_is_running:
  83              	.LFB258:
  84              		.loc 1 84 0
  85              		.cfi_startproc
  86              		@ args = 0, pretend = 0, frame = 0
  87              		@ frame_needed = 0, uses_anonymous_args = 0
  88              		@ link register save eliminated.
  89              		.loc 1 85 0
  90 0000 014B     		ldr	r3, .L12
  91 0002 1878     		ldrb	r0, [r3]	@ zero_extendqisi2
  92              		.loc 1 86 0
  93 0004 7047     		bx	lr
  94              	.L13:
  95 0006 00BF     		.align	2
  96              	.L12:
  97 0008 00000000 		.word	.LANCHOR0
  98              		.cfi_endproc
  99              	.LFE258:
 100              		.size	servo_simple_is_running, .-servo_simple_is_running
 101              		.section	.text.servo_simple_set_output,"ax",%progbits
 102              		.align	1
 103              		.p2align 4,,15
 104              		.global	servo_simple_set_output
 105              		.syntax unified
 106              		.thumb
 107              		.thumb_func
 108              		.fpu fpv4-sp-d16
 109              		.type	servo_simple_set_output, %function
 110              	servo_simple_set_output:
 111              	.LFB259:
 112              		.loc 1 88 0
 113              		.cfi_startproc
 114              		@ args = 0, pretend = 0, frame = 8
ARM GAS  /tmp/ccP2QTJa.s 			page 3


 115              		@ frame_needed = 0, uses_anonymous_args = 0
 116              	.LVL3:
 117 0000 00B5     		push	{lr}
 118              		.cfi_def_cfa_offset 4
 119              		.cfi_offset 14, -4
 120              		.loc 1 89 0
 121 0002 0D4B     		ldr	r3, .L20
 122 0004 1B78     		ldrb	r3, [r3]	@ zero_extendqisi2
 123              		.loc 1 88 0
 124 0006 83B0     		sub	sp, sp, #12
 125              		.cfi_def_cfa_offset 16
 126              		.loc 1 88 0
 127 0008 8DED010A 		vstr.32	s0, [sp, #4]
 128              		.loc 1 89 0
 129 000c 8BB1     		cbz	r3, .L14
 130              		.loc 1 93 0
 131 000e F7EE000A 		vmov.f32	s1, #1.0e+0
 132 0012 9FED0A0A 		vldr.32	s0, .L20+4
 133              	.LVL4:
 134 0016 01A8     		add	r0, sp, #4
 135              	.LVL5:
 136 0018 FFF7FEFF 		bl	utils_truncate_number
 137              	.LVL6:
 138              		.loc 1 95 0
 139 001c 9DED017A 		vldr.32	s14, [sp, #4]
 140 0020 DFED077A 		vldr.32	s15, .L20+8
 141              		.loc 1 100 0
 142 0024 074B     		ldr	r3, .L20+12
 143              		.loc 1 95 0
 144 0026 E7EE277A 		vfma.f32	s15, s14, s15
 145              	.LVL7:
 146              		.loc 1 100 0
 147 002a FCEEE77A 		vcvt.u32.f32	s15, s15
 148              	.LVL8:
 149 002e C3ED0D7A 		vstr.32	s15, [r3, #52]	@ int
 150              	.LVL9:
 151              	.L14:
 152              		.loc 1 104 0
 153 0032 03B0     		add	sp, sp, #12
 154              		.cfi_def_cfa_offset 4
 155              		@ sp needed
 156 0034 5DF804FB 		ldr	pc, [sp], #4
 157              	.L21:
 158              		.align	2
 159              	.L20:
 160 0038 00000000 		.word	.LANCHOR0
 161 003c 00000000 		.word	0
 162 0040 00007A44 		.word	1148846080
 163 0044 00080040 		.word	1073743872
 164              		.cfi_endproc
 165              	.LFE259:
 166              		.size	servo_simple_set_output, .-servo_simple_set_output
 167              		.section	.text.servo_simple_init,"ax",%progbits
 168              		.align	1
 169              		.p2align 4,,15
 170              		.global	servo_simple_init
 171              		.syntax unified
ARM GAS  /tmp/ccP2QTJa.s 			page 4


 172              		.thumb
 173              		.thumb_func
 174              		.fpu fpv4-sp-d16
 175              		.type	servo_simple_init, %function
 176              	servo_simple_init:
 177              	.LFB256:
 178              		.loc 1 37 0
 179              		.cfi_startproc
 180              		@ args = 0, pretend = 0, frame = 32
 181              		@ frame_needed = 0, uses_anonymous_args = 0
 182 0000 30B5     		push	{r4, r5, lr}
 183              		.cfi_def_cfa_offset 12
 184              		.cfi_offset 4, -12
 185              		.cfi_offset 5, -8
 186              		.cfi_offset 14, -4
 187              		.loc 1 41 0
 188 0002 4FF48D72 		mov	r2, #282
 189              		.loc 1 37 0
 190 0006 89B0     		sub	sp, sp, #36
 191              		.cfi_def_cfa_offset 48
 192              		.loc 1 51 0
 193 0008 194C     		ldr	r4, .L24
 194              		.loc 1 41 0
 195 000a 1A48     		ldr	r0, .L24+4
 196 000c 4021     		movs	r1, #64
 197 000e FFF7FEFF 		bl	_pal_lld_setgroupmode
 198              	.LVL10:
 199              		.loc 1 44 0
 200 0012 0121     		movs	r1, #1
 201 0014 0420     		movs	r0, #4
 202 0016 FFF7FEFF 		bl	RCC_APB1PeriphClockCmd
 203              	.LVL11:
 204              		.loc 1 46 0
 205 001a 0025     		movs	r5, #0
 206              		.loc 1 47 0
 207 001c 5322     		movs	r2, #83
 208              		.loc 1 51 0
 209 001e 2046     		mov	r0, r4
 210              		.loc 1 49 0
 211 0020 44F62063 		movw	r3, #20000
 212              		.loc 1 51 0
 213 0024 6946     		mov	r1, sp
 214              		.loc 1 49 0
 215 0026 CDE90023 		strd	r2, r3, [sp]
 216              		.loc 1 46 0
 217 002a ADF80850 		strh	r5, [sp, #8]	@ movhi
 218              		.loc 1 51 0
 219 002e FFF7FEFF 		bl	TIM_TimeBaseInit
 220              	.LVL12:
 221              		.loc 1 53 0
 222 0032 114B     		ldr	r3, .L24+8
 223 0034 0393     		str	r3, [sp, #12]
 224              		.loc 1 59 0
 225 0036 2046     		mov	r0, r4
 226 0038 03A9     		add	r1, sp, #12
 227              		.loc 1 55 0
 228 003a 0595     		str	r5, [sp, #20]
ARM GAS  /tmp/ccP2QTJa.s 			page 5


 229              		.loc 1 56 0
 230 003c ADF81850 		strh	r5, [sp, #24]	@ movhi
 231              		.loc 1 59 0
 232 0040 FFF7FEFF 		bl	TIM_OC1Init
 233              	.LVL13:
 234              		.loc 1 60 0
 235 0044 2046     		mov	r0, r4
 236 0046 0821     		movs	r1, #8
 237 0048 FFF7FEFF 		bl	TIM_OC1PreloadConfig
 238              	.LVL14:
 239              		.loc 1 66 0
 240 004c 2046     		mov	r0, r4
 241 004e 0121     		movs	r1, #1
 242 0050 FFF7FEFF 		bl	TIM_ARRPreloadConfig
 243              	.LVL15:
 244              		.loc 1 68 0
 245 0054 B6EE000A 		vmov.f32	s0, #5.0e-1
 246 0058 FFF7FEFF 		bl	servo_simple_set_output
 247              	.LVL16:
 248              		.loc 1 70 0
 249 005c 2046     		mov	r0, r4
 250 005e 0121     		movs	r1, #1
 251 0060 FFF7FEFF 		bl	TIM_Cmd
 252              	.LVL17:
 253              		.loc 1 72 0
 254 0064 054B     		ldr	r3, .L24+12
 255 0066 0122     		movs	r2, #1
 256 0068 1A70     		strb	r2, [r3]
 257              		.loc 1 73 0
 258 006a 09B0     		add	sp, sp, #36
 259              		.cfi_def_cfa_offset 12
 260              		@ sp needed
 261 006c 30BD     		pop	{r4, r5, pc}
 262              	.L25:
 263 006e 00BF     		.align	2
 264              	.L24:
 265 0070 00080040 		.word	1073743872
 266 0074 00040240 		.word	1073873920
 267 0078 60000100 		.word	65632
 268 007c 00000000 		.word	.LANCHOR0
 269              		.cfi_endproc
 270              	.LFE256:
 271              		.size	servo_simple_init, .-servo_simple_init
 272              		.section	.bss.m_is_running,"aw",%nobits
 273              		.set	.LANCHOR0,. + 0
 274              		.type	m_is_running, %object
 275              		.size	m_is_running, 1
 276              	m_is_running:
 277 0000 00       		.space	1
 278              		.text
 279              	.Letext0:
 280              		.file 2 "/usr/lib/gcc/arm-none-eabi/7.3.1/include/stddef.h"
 281              		.file 3 "/usr/arm-none-eabi/include/machine/_default_types.h"
 282              		.file 4 "/usr/arm-none-eabi/include/sys/_stdint.h"
 283              		.file 5 "ChibiOS_3.0.5/os/rt/ports/ARMCMx/compilers/GCC/chtypes.h"
 284              		.file 6 "ChibiOS_3.0.5/os/rt/include/chsystypes.h"
 285              		.file 7 "ChibiOS_3.0.5/os/rt/include/chschd.h"
ARM GAS  /tmp/ccP2QTJa.s 			page 6


 286              		.file 8 "ChibiOS_3.0.5/os/ext/CMSIS/include/core_cm4.h"
 287              		.file 9 "ChibiOS_3.0.5/os/ext/CMSIS/ST/system_stm32f4xx.h"
 288              		.file 10 "ChibiOS_3.0.5/os/ext/CMSIS/ST/stm32f407xx.h"
 289              		.file 11 "ChibiOS_3.0.5/os/rt/ports/ARMCMx/chcore.h"
 290              		.file 12 "ChibiOS_3.0.5/os/rt/ports/ARMCMx/chcore_v7m.h"
 291              		.file 13 "ChibiOS_3.0.5/os/rt/include/chtm.h"
 292              		.file 14 "ChibiOS_3.0.5/os/rt/include/chsem.h"
 293              		.file 15 "ChibiOS_3.0.5/os/rt/include/chmtx.h"
 294              		.file 16 "ChibiOS_3.0.5/os/rt/include/chregistry.h"
 295              		.file 17 "ChibiOS_3.0.5/os/rt/include/chevents.h"
 296              		.file 18 "ChibiOS_3.0.5/os/rt/include/chqueues.h"
 297              		.file 19 "./datatypes.h"
 298              		.file 20 "ChibiOS_3.0.5/ext/stdperiph_stm32f4/inc/stm32f4xx_tim.h"
 299              		.file 21 "./conf_general.h"
 300              		.file 22 "ChibiOS_3.0.5/os/hal/ports/STM32/STM32F4xx/stm32_dma.h"
 301              		.file 23 "ChibiOS_3.0.5/os/hal/ports/STM32/LLD/GPIOv2/pal_lld.h"
 302              		.file 24 "ChibiOS_3.0.5/os/ext/CMSIS/ST/stm32f4xx.h"
 303              		.file 25 "ChibiOS_3.0.5/os/hal/include/can.h"
 304              		.file 26 "ChibiOS_3.0.5/os/hal/ports/STM32/LLD/can_lld.h"
 305              		.file 27 "ChibiOS_3.0.5/os/hal/include/i2c.h"
 306              		.file 28 "ChibiOS_3.0.5/os/hal/ports/STM32/LLD/I2Cv1/i2c_lld.h"
 307              		.file 29 "ChibiOS_3.0.5/os/hal/include/icu.h"
 308              		.file 30 "ChibiOS_3.0.5/os/hal/ports/STM32/LLD/TIMv1/icu_lld.h"
 309              		.file 31 "ChibiOS_3.0.5/os/hal/ports/STM32/LLD/TIMv1/stm32_tim.h"
 310              		.file 32 "ChibiOS_3.0.5/os/hal/include/serial.h"
 311              		.file 33 "ChibiOS_3.0.5/os/hal/ports/STM32/LLD/USARTv1/serial_lld.h"
 312              		.file 34 "ChibiOS_3.0.5/os/hal/include/spi.h"
 313              		.file 35 "ChibiOS_3.0.5/os/hal/ports/STM32/LLD/SPIv1/spi_lld.h"
 314              		.file 36 "ChibiOS_3.0.5/os/hal/include/usb.h"
 315              		.file 37 "ChibiOS_3.0.5/os/hal/ports/STM32/LLD/OTGv1/usb_lld.h"
 316              		.file 38 "ChibiOS_3.0.5/os/hal/ports/STM32/LLD/OTGv1/stm32_otg.h"
 317              		.file 39 "utils.h"
 318              		.file 40 "ChibiOS_3.0.5/ext/stdperiph_stm32f4/inc/stm32f4xx_rcc.h"