ARM GAS  /tmp/cczRLyY9.s 			page 1


   1              		.cpu cortex-m4
   2              		.eabi_attribute 27, 1
   3              		.eabi_attribute 28, 1
   4              		.eabi_attribute 20, 1
   5              		.eabi_attribute 21, 1
   6              		.eabi_attribute 23, 3
   7              		.eabi_attribute 24, 1
   8              		.eabi_attribute 25, 1
   9              		.eabi_attribute 26, 1
  10              		.eabi_attribute 30, 2
  11              		.eabi_attribute 34, 1
  12              		.eabi_attribute 18, 4
  13              		.file	"spi.c"
  14              		.text
  15              	.Ltext0:
  16              		.cfi_sections	.debug_frame
  17              		.section	.text.spiInit,"ax",%progbits
  18              		.align	1
  19              		.p2align 4,,15
  20              		.global	spiInit
  21              		.syntax unified
  22              		.thumb
  23              		.thumb_func
  24              		.fpu fpv4-sp-d16
  25              		.type	spiInit, %function
  26              	spiInit:
  27              	.LFB256:
  28              		.file 1 "ChibiOS_3.0.5/os/hal/src/spi.c"
  29              		.loc 1 56 0
  30              		.cfi_startproc
  31              		@ args = 0, pretend = 0, frame = 0
  32              		@ frame_needed = 0, uses_anonymous_args = 0
  33              		@ link register save eliminated.
  34              		.loc 1 58 0
  35 0000 FFF7FEBF 		b	spi_lld_init
  36              	.LVL0:
  37              		.cfi_endproc
  38              	.LFE256:
  39              		.size	spiInit, .-spiInit
  40              		.section	.text.spiObjectInit,"ax",%progbits
  41              		.align	1
  42              		.p2align 4,,15
  43              		.global	spiObjectInit
  44              		.syntax unified
  45              		.thumb
  46              		.thumb_func
  47              		.fpu fpv4-sp-d16
  48              		.type	spiObjectInit, %function
  49              	spiObjectInit:
  50              	.LFB257:
  51              		.loc 1 68 0
  52              		.cfi_startproc
  53              		@ args = 0, pretend = 0, frame = 0
  54              		@ frame_needed = 0, uses_anonymous_args = 0
  55              		@ link register save eliminated.
  56              	.LVL1:
  57              		.loc 1 70 0
ARM GAS  /tmp/cczRLyY9.s 			page 2


  58 0000 0122     		movs	r2, #1
  59              		.loc 1 71 0
  60 0002 0023     		movs	r3, #0
  61              		.loc 1 70 0
  62 0004 0270     		strb	r2, [r0]
  63              		.loc 1 73 0
  64 0006 C0E90133 		strd	r3, r3, [r0, #4]
  65              	.LVL2:
  66              	.LBB194:
  67              	.LBB195:
  68              		.file 2 "ChibiOS_3.0.5/os/hal/osal/rt/osal.h"
  69              		.loc 2 887 0
  70 000a 0C30     		adds	r0, r0, #12
  71              	.LVL3:
  72 000c FFF7FEBF 		b	chMtxObjectInit
  73              	.LVL4:
  74              	.LBE195:
  75              	.LBE194:
  76              		.cfi_endproc
  77              	.LFE257:
  78              		.size	spiObjectInit, .-spiObjectInit
  79              		.section	.text.spiStart,"ax",%progbits
  80              		.align	1
  81              		.p2align 4,,15
  82              		.global	spiStart
  83              		.syntax unified
  84              		.thumb
  85              		.thumb_func
  86              		.fpu fpv4-sp-d16
  87              		.type	spiStart, %function
  88              	spiStart:
  89              	.LFB258:
  90              		.loc 1 91 0
  91              		.cfi_startproc
  92              		@ args = 0, pretend = 0, frame = 0
  93              		@ frame_needed = 0, uses_anonymous_args = 0
  94              	.LVL5:
  95 0000 10B5     		push	{r4, lr}
  96              		.cfi_def_cfa_offset 8
  97              		.cfi_offset 4, -8
  98              		.cfi_offset 14, -4
  99              		.loc 1 91 0
 100 0002 0446     		mov	r4, r0
 101              	.LBB196:
 102              	.LBB197:
 103              	.LBB198:
 104              	.LBB199:
 105              	.LBB200:
 106              		.file 3 "ChibiOS_3.0.5/os/ext/CMSIS/include/core_cmFunc.h"
 107              		.loc 3 342 0
 108              		.syntax unified
 109              	@ 342 "ChibiOS_3.0.5/os/ext/CMSIS/include/core_cmFunc.h" 1
 110 0004 72B6     		cpsid i
 111              	@ 0 "" 2
 112              		.thumb
 113              		.syntax unified
 114              	.LBE200:
ARM GAS  /tmp/cczRLyY9.s 			page 3


 115              	.LBE199:
 116              	.LBE198:
 117              	.LBE197:
 118              	.LBE196:
 119              		.loc 1 98 0
 120 0006 4160     		str	r1, [r0, #4]
 121              		.loc 1 99 0
 122 0008 FFF7FEFF 		bl	spi_lld_start
 123              	.LVL6:
 124              		.loc 1 100 0
 125 000c 0223     		movs	r3, #2
 126 000e 2370     		strb	r3, [r4]
 127              	.LBB201:
 128              	.LBB202:
 129              	.LBB203:
 130              	.LBB204:
 131              	.LBB205:
 132              	.LBB206:
 133              		.loc 3 331 0
 134              		.syntax unified
 135              	@ 331 "ChibiOS_3.0.5/os/ext/CMSIS/include/core_cmFunc.h" 1
 136 0010 62B6     		cpsie i
 137              	@ 0 "" 2
 138              		.thumb
 139              		.syntax unified
 140              	.LBE206:
 141              	.LBE205:
 142              	.LBE204:
 143              	.LBE203:
 144              	.LBE202:
 145              	.LBE201:
 146              		.loc 1 102 0
 147 0012 10BD     		pop	{r4, pc}
 148              		.cfi_endproc
 149              	.LFE258:
 150              		.size	spiStart, .-spiStart
 151              		.section	.text.spiStop,"ax",%progbits
 152              		.align	1
 153              		.p2align 4,,15
 154              		.global	spiStop
 155              		.syntax unified
 156              		.thumb
 157              		.thumb_func
 158              		.fpu fpv4-sp-d16
 159              		.type	spiStop, %function
 160              	spiStop:
 161              	.LFB259:
 162              		.loc 1 113 0
 163              		.cfi_startproc
 164              		@ args = 0, pretend = 0, frame = 0
 165              		@ frame_needed = 0, uses_anonymous_args = 0
 166              	.LVL7:
 167 0000 10B5     		push	{r4, lr}
 168              		.cfi_def_cfa_offset 8
 169              		.cfi_offset 4, -8
 170              		.cfi_offset 14, -4
 171              		.loc 1 113 0
ARM GAS  /tmp/cczRLyY9.s 			page 4


 172 0002 0446     		mov	r4, r0
 173              	.LBB207:
 174              	.LBB208:
 175              	.LBB209:
 176              	.LBB210:
 177              	.LBB211:
 178              		.loc 3 342 0
 179              		.syntax unified
 180              	@ 342 "ChibiOS_3.0.5/os/ext/CMSIS/include/core_cmFunc.h" 1
 181 0004 72B6     		cpsid i
 182              	@ 0 "" 2
 183              		.thumb
 184              		.syntax unified
 185              	.LBE211:
 186              	.LBE210:
 187              	.LBE209:
 188              	.LBE208:
 189              	.LBE207:
 190              		.loc 1 120 0
 191 0006 FFF7FEFF 		bl	spi_lld_stop
 192              	.LVL8:
 193              		.loc 1 121 0
 194 000a 0123     		movs	r3, #1
 195 000c 2370     		strb	r3, [r4]
 196              	.LBB212:
 197              	.LBB213:
 198              	.LBB214:
 199              	.LBB215:
 200              	.LBB216:
 201              	.LBB217:
 202              		.loc 3 331 0
 203              		.syntax unified
 204              	@ 331 "ChibiOS_3.0.5/os/ext/CMSIS/include/core_cmFunc.h" 1
 205 000e 62B6     		cpsie i
 206              	@ 0 "" 2
 207              		.thumb
 208              		.syntax unified
 209              	.LBE217:
 210              	.LBE216:
 211              	.LBE215:
 212              	.LBE214:
 213              	.LBE213:
 214              	.LBE212:
 215              		.loc 1 123 0
 216 0010 10BD     		pop	{r4, pc}
 217              		.cfi_endproc
 218              	.LFE259:
 219              		.size	spiStop, .-spiStop
 220 0012 00BF     		.section	.text.spiSelect,"ax",%progbits
 221              		.align	1
 222              		.p2align 4,,15
 223              		.global	spiSelect
 224              		.syntax unified
 225              		.thumb
 226              		.thumb_func
 227              		.fpu fpv4-sp-d16
 228              		.type	spiSelect, %function
ARM GAS  /tmp/cczRLyY9.s 			page 5


 229              	spiSelect:
 230              	.LFB260:
 231              		.loc 1 132 0
 232              		.cfi_startproc
 233              		@ args = 0, pretend = 0, frame = 0
 234              		@ frame_needed = 0, uses_anonymous_args = 0
 235              	.LVL9:
 236 0000 08B5     		push	{r3, lr}
 237              		.cfi_def_cfa_offset 8
 238              		.cfi_offset 3, -8
 239              		.cfi_offset 14, -4
 240              	.LBB218:
 241              	.LBB219:
 242              	.LBB220:
 243              	.LBB221:
 244              	.LBB222:
 245              		.loc 3 342 0
 246              		.syntax unified
 247              	@ 342 "ChibiOS_3.0.5/os/ext/CMSIS/include/core_cmFunc.h" 1
 248 0002 72B6     		cpsid i
 249              	@ 0 "" 2
 250              		.thumb
 251              		.syntax unified
 252              	.LBE222:
 253              	.LBE221:
 254              	.LBE220:
 255              	.LBE219:
 256              	.LBE218:
 257              		.loc 1 138 0
 258 0004 FFF7FEFF 		bl	spi_lld_select
 259              	.LVL10:
 260              	.LBB223:
 261              	.LBB224:
 262              	.LBB225:
 263              	.LBB226:
 264              	.LBB227:
 265              	.LBB228:
 266              		.loc 3 331 0
 267              		.syntax unified
 268              	@ 331 "ChibiOS_3.0.5/os/ext/CMSIS/include/core_cmFunc.h" 1
 269 0008 62B6     		cpsie i
 270              	@ 0 "" 2
 271              		.thumb
 272              		.syntax unified
 273              	.LBE228:
 274              	.LBE227:
 275              	.LBE226:
 276              	.LBE225:
 277              	.LBE224:
 278              	.LBE223:
 279              		.loc 1 140 0
 280 000a 08BD     		pop	{r3, pc}
 281              		.cfi_endproc
 282              	.LFE260:
 283              		.size	spiSelect, .-spiSelect
 284              		.section	.text.spiUnselect,"ax",%progbits
 285              		.align	1
ARM GAS  /tmp/cczRLyY9.s 			page 6


 286              		.p2align 4,,15
 287              		.global	spiUnselect
 288              		.syntax unified
 289              		.thumb
 290              		.thumb_func
 291              		.fpu fpv4-sp-d16
 292              		.type	spiUnselect, %function
 293              	spiUnselect:
 294              	.LFB261:
 295              		.loc 1 150 0
 296              		.cfi_startproc
 297              		@ args = 0, pretend = 0, frame = 0
 298              		@ frame_needed = 0, uses_anonymous_args = 0
 299              	.LVL11:
 300 0000 08B5     		push	{r3, lr}
 301              		.cfi_def_cfa_offset 8
 302              		.cfi_offset 3, -8
 303              		.cfi_offset 14, -4
 304              	.LBB229:
 305              	.LBB230:
 306              	.LBB231:
 307              	.LBB232:
 308              	.LBB233:
 309              		.loc 3 342 0
 310              		.syntax unified
 311              	@ 342 "ChibiOS_3.0.5/os/ext/CMSIS/include/core_cmFunc.h" 1
 312 0002 72B6     		cpsid i
 313              	@ 0 "" 2
 314              		.thumb
 315              		.syntax unified
 316              	.LBE233:
 317              	.LBE232:
 318              	.LBE231:
 319              	.LBE230:
 320              	.LBE229:
 321              		.loc 1 156 0
 322 0004 FFF7FEFF 		bl	spi_lld_unselect
 323              	.LVL12:
 324              	.LBB234:
 325              	.LBB235:
 326              	.LBB236:
 327              	.LBB237:
 328              	.LBB238:
 329              	.LBB239:
 330              		.loc 3 331 0
 331              		.syntax unified
 332              	@ 331 "ChibiOS_3.0.5/os/ext/CMSIS/include/core_cmFunc.h" 1
 333 0008 62B6     		cpsie i
 334              	@ 0 "" 2
 335              		.thumb
 336              		.syntax unified
 337              	.LBE239:
 338              	.LBE238:
 339              	.LBE237:
 340              	.LBE236:
 341              	.LBE235:
 342              	.LBE234:
ARM GAS  /tmp/cczRLyY9.s 			page 7


 343              		.loc 1 158 0
 344 000a 08BD     		pop	{r3, pc}
 345              		.cfi_endproc
 346              	.LFE261:
 347              		.size	spiUnselect, .-spiUnselect
 348              		.section	.text.spiStartIgnore,"ax",%progbits
 349              		.align	1
 350              		.p2align 4,,15
 351              		.global	spiStartIgnore
 352              		.syntax unified
 353              		.thumb
 354              		.thumb_func
 355              		.fpu fpv4-sp-d16
 356              		.type	spiStartIgnore, %function
 357              	spiStartIgnore:
 358              	.LFB262:
 359              		.loc 1 173 0
 360              		.cfi_startproc
 361              		@ args = 0, pretend = 0, frame = 0
 362              		@ frame_needed = 0, uses_anonymous_args = 0
 363              	.LVL13:
 364 0000 08B5     		push	{r3, lr}
 365              		.cfi_def_cfa_offset 8
 366              		.cfi_offset 3, -8
 367              		.cfi_offset 14, -4
 368              	.LBB240:
 369              	.LBB241:
 370              	.LBB242:
 371              	.LBB243:
 372              	.LBB244:
 373              		.loc 3 342 0
 374              		.syntax unified
 375              	@ 342 "ChibiOS_3.0.5/os/ext/CMSIS/include/core_cmFunc.h" 1
 376 0002 72B6     		cpsid i
 377              	@ 0 "" 2
 378              		.thumb
 379              		.syntax unified
 380              	.LBE244:
 381              	.LBE243:
 382              	.LBE242:
 383              	.LBE241:
 384              	.LBE240:
 385              		.loc 1 179 0
 386 0004 0322     		movs	r2, #3
 387 0006 0270     		strb	r2, [r0]
 388 0008 FFF7FEFF 		bl	spi_lld_ignore
 389              	.LVL14:
 390              	.LBB245:
 391              	.LBB246:
 392              	.LBB247:
 393              	.LBB248:
 394              	.LBB249:
 395              	.LBB250:
 396              		.loc 3 331 0
 397              		.syntax unified
 398              	@ 331 "ChibiOS_3.0.5/os/ext/CMSIS/include/core_cmFunc.h" 1
 399 000c 62B6     		cpsie i
ARM GAS  /tmp/cczRLyY9.s 			page 8


 400              	@ 0 "" 2
 401              		.thumb
 402              		.syntax unified
 403              	.LBE250:
 404              	.LBE249:
 405              	.LBE248:
 406              	.LBE247:
 407              	.LBE246:
 408              	.LBE245:
 409              		.loc 1 181 0
 410 000e 08BD     		pop	{r3, pc}
 411              		.cfi_endproc
 412              	.LFE262:
 413              		.size	spiStartIgnore, .-spiStartIgnore
 414              		.section	.text.spiStartExchange,"ax",%progbits
 415              		.align	1
 416              		.p2align 4,,15
 417              		.global	spiStartExchange
 418              		.syntax unified
 419              		.thumb
 420              		.thumb_func
 421              		.fpu fpv4-sp-d16
 422              		.type	spiStartExchange, %function
 423              	spiStartExchange:
 424              	.LFB263:
 425              		.loc 1 201 0
 426              		.cfi_startproc
 427              		@ args = 0, pretend = 0, frame = 0
 428              		@ frame_needed = 0, uses_anonymous_args = 0
 429              	.LVL15:
 430 0000 38B5     		push	{r3, r4, r5, lr}
 431              		.cfi_def_cfa_offset 16
 432              		.cfi_offset 3, -16
 433              		.cfi_offset 4, -12
 434              		.cfi_offset 5, -8
 435              		.cfi_offset 14, -4
 436              	.LBB251:
 437              	.LBB252:
 438              	.LBB253:
 439              	.LBB254:
 440              	.LBB255:
 441              		.loc 3 342 0
 442              		.syntax unified
 443              	@ 342 "ChibiOS_3.0.5/os/ext/CMSIS/include/core_cmFunc.h" 1
 444 0002 72B6     		cpsid i
 445              	@ 0 "" 2
 446              		.thumb
 447              		.syntax unified
 448              	.LBE255:
 449              	.LBE254:
 450              	.LBE253:
 451              	.LBE252:
 452              	.LBE251:
 453              		.loc 1 208 0
 454 0004 0325     		movs	r5, #3
 455 0006 0570     		strb	r5, [r0]
 456 0008 FFF7FEFF 		bl	spi_lld_exchange
ARM GAS  /tmp/cczRLyY9.s 			page 9


 457              	.LVL16:
 458              	.LBB256:
 459              	.LBB257:
 460              	.LBB258:
 461              	.LBB259:
 462              	.LBB260:
 463              	.LBB261:
 464              		.loc 3 331 0
 465              		.syntax unified
 466              	@ 331 "ChibiOS_3.0.5/os/ext/CMSIS/include/core_cmFunc.h" 1
 467 000c 62B6     		cpsie i
 468              	@ 0 "" 2
 469              		.thumb
 470              		.syntax unified
 471              	.LBE261:
 472              	.LBE260:
 473              	.LBE259:
 474              	.LBE258:
 475              	.LBE257:
 476              	.LBE256:
 477              		.loc 1 210 0
 478 000e 38BD     		pop	{r3, r4, r5, pc}
 479              		.cfi_endproc
 480              	.LFE263:
 481              		.size	spiStartExchange, .-spiStartExchange
 482              		.section	.text.spiStartSend,"ax",%progbits
 483              		.align	1
 484              		.p2align 4,,15
 485              		.global	spiStartSend
 486              		.syntax unified
 487              		.thumb
 488              		.thumb_func
 489              		.fpu fpv4-sp-d16
 490              		.type	spiStartSend, %function
 491              	spiStartSend:
 492              	.LFB264:
 493              		.loc 1 227 0
 494              		.cfi_startproc
 495              		@ args = 0, pretend = 0, frame = 0
 496              		@ frame_needed = 0, uses_anonymous_args = 0
 497              	.LVL17:
 498 0000 10B5     		push	{r4, lr}
 499              		.cfi_def_cfa_offset 8
 500              		.cfi_offset 4, -8
 501              		.cfi_offset 14, -4
 502              	.LBB262:
 503              	.LBB263:
 504              	.LBB264:
 505              	.LBB265:
 506              	.LBB266:
 507              		.loc 3 342 0
 508              		.syntax unified
 509              	@ 342 "ChibiOS_3.0.5/os/ext/CMSIS/include/core_cmFunc.h" 1
 510 0002 72B6     		cpsid i
 511              	@ 0 "" 2
 512              		.thumb
 513              		.syntax unified
ARM GAS  /tmp/cczRLyY9.s 			page 10


 514              	.LBE266:
 515              	.LBE265:
 516              	.LBE264:
 517              	.LBE263:
 518              	.LBE262:
 519              		.loc 1 233 0
 520 0004 0324     		movs	r4, #3
 521 0006 0470     		strb	r4, [r0]
 522 0008 FFF7FEFF 		bl	spi_lld_send
 523              	.LVL18:
 524              	.LBB267:
 525              	.LBB268:
 526              	.LBB269:
 527              	.LBB270:
 528              	.LBB271:
 529              	.LBB272:
 530              		.loc 3 331 0
 531              		.syntax unified
 532              	@ 331 "ChibiOS_3.0.5/os/ext/CMSIS/include/core_cmFunc.h" 1
 533 000c 62B6     		cpsie i
 534              	@ 0 "" 2
 535              		.thumb
 536              		.syntax unified
 537              	.LBE272:
 538              	.LBE271:
 539              	.LBE270:
 540              	.LBE269:
 541              	.LBE268:
 542              	.LBE267:
 543              		.loc 1 235 0
 544 000e 10BD     		pop	{r4, pc}
 545              		.cfi_endproc
 546              	.LFE264:
 547              		.size	spiStartSend, .-spiStartSend
 548              		.section	.text.spiStartReceive,"ax",%progbits
 549              		.align	1
 550              		.p2align 4,,15
 551              		.global	spiStartReceive
 552              		.syntax unified
 553              		.thumb
 554              		.thumb_func
 555              		.fpu fpv4-sp-d16
 556              		.type	spiStartReceive, %function
 557              	spiStartReceive:
 558              	.LFB265:
 559              		.loc 1 252 0
 560              		.cfi_startproc
 561              		@ args = 0, pretend = 0, frame = 0
 562              		@ frame_needed = 0, uses_anonymous_args = 0
 563              	.LVL19:
 564 0000 10B5     		push	{r4, lr}
 565              		.cfi_def_cfa_offset 8
 566              		.cfi_offset 4, -8
 567              		.cfi_offset 14, -4
 568              	.LBB273:
 569              	.LBB274:
 570              	.LBB275:
ARM GAS  /tmp/cczRLyY9.s 			page 11


 571              	.LBB276:
 572              	.LBB277:
 573              		.loc 3 342 0
 574              		.syntax unified
 575              	@ 342 "ChibiOS_3.0.5/os/ext/CMSIS/include/core_cmFunc.h" 1
 576 0002 72B6     		cpsid i
 577              	@ 0 "" 2
 578              		.thumb
 579              		.syntax unified
 580              	.LBE277:
 581              	.LBE276:
 582              	.LBE275:
 583              	.LBE274:
 584              	.LBE273:
 585              		.loc 1 258 0
 586 0004 0324     		movs	r4, #3
 587 0006 0470     		strb	r4, [r0]
 588 0008 FFF7FEFF 		bl	spi_lld_receive
 589              	.LVL20:
 590              	.LBB278:
 591              	.LBB279:
 592              	.LBB280:
 593              	.LBB281:
 594              	.LBB282:
 595              	.LBB283:
 596              		.loc 3 331 0
 597              		.syntax unified
 598              	@ 331 "ChibiOS_3.0.5/os/ext/CMSIS/include/core_cmFunc.h" 1
 599 000c 62B6     		cpsie i
 600              	@ 0 "" 2
 601              		.thumb
 602              		.syntax unified
 603              	.LBE283:
 604              	.LBE282:
 605              	.LBE281:
 606              	.LBE280:
 607              	.LBE279:
 608              	.LBE278:
 609              		.loc 1 260 0
 610 000e 10BD     		pop	{r4, pc}
 611              		.cfi_endproc
 612              	.LFE265:
 613              		.size	spiStartReceive, .-spiStartReceive
 614              		.section	.text.spiIgnore,"ax",%progbits
 615              		.align	1
 616              		.p2align 4,,15
 617              		.global	spiIgnore
 618              		.syntax unified
 619              		.thumb
 620              		.thumb_func
 621              		.fpu fpv4-sp-d16
 622              		.type	spiIgnore, %function
 623              	spiIgnore:
 624              	.LFB266:
 625              		.loc 1 277 0
 626              		.cfi_startproc
 627              		@ args = 0, pretend = 0, frame = 0
ARM GAS  /tmp/cczRLyY9.s 			page 12


 628              		@ frame_needed = 0, uses_anonymous_args = 0
 629              	.LVL21:
 630 0000 10B5     		push	{r4, lr}
 631              		.cfi_def_cfa_offset 8
 632              		.cfi_offset 4, -8
 633              		.cfi_offset 14, -4
 634              		.loc 1 277 0
 635 0002 0446     		mov	r4, r0
 636              	.LBB284:
 637              	.LBB285:
 638              	.LBB286:
 639              	.LBB287:
 640              	.LBB288:
 641              		.loc 3 342 0
 642              		.syntax unified
 643              	@ 342 "ChibiOS_3.0.5/os/ext/CMSIS/include/core_cmFunc.h" 1
 644 0004 72B6     		cpsid i
 645              	@ 0 "" 2
 646              		.thumb
 647              		.syntax unified
 648              	.LBE288:
 649              	.LBE287:
 650              	.LBE286:
 651              	.LBE285:
 652              	.LBE284:
 653              		.loc 1 284 0
 654 0006 0323     		movs	r3, #3
 655 0008 04F8083B 		strb	r3, [r4], #8
 656 000c FFF7FEFF 		bl	spi_lld_ignore
 657              	.LVL22:
 658              	.LBB289:
 659              	.LBB290:
 660              		.loc 2 688 0
 661 0010 2046     		mov	r0, r4
 662 0012 FFF7FEFF 		bl	chThdSuspendS
 663              	.LVL23:
 664              	.LBE290:
 665              	.LBE289:
 666              	.LBB291:
 667              	.LBB292:
 668              	.LBB293:
 669              	.LBB294:
 670              	.LBB295:
 671              	.LBB296:
 672              		.loc 3 331 0
 673              		.syntax unified
 674              	@ 331 "ChibiOS_3.0.5/os/ext/CMSIS/include/core_cmFunc.h" 1
 675 0016 62B6     		cpsie i
 676              	@ 0 "" 2
 677              		.thumb
 678              		.syntax unified
 679              	.LBE296:
 680              	.LBE295:
 681              	.LBE294:
 682              	.LBE293:
 683              	.LBE292:
 684              	.LBE291:
ARM GAS  /tmp/cczRLyY9.s 			page 13


 685              		.loc 1 287 0
 686 0018 10BD     		pop	{r4, pc}
 687              		.cfi_endproc
 688              	.LFE266:
 689              		.size	spiIgnore, .-spiIgnore
 690 001a 00BF     		.section	.text.spiExchange,"ax",%progbits
 691              		.align	1
 692              		.p2align 4,,15
 693              		.global	spiExchange
 694              		.syntax unified
 695              		.thumb
 696              		.thumb_func
 697              		.fpu fpv4-sp-d16
 698              		.type	spiExchange, %function
 699              	spiExchange:
 700              	.LFB267:
 701              		.loc 1 308 0
 702              		.cfi_startproc
 703              		@ args = 0, pretend = 0, frame = 0
 704              		@ frame_needed = 0, uses_anonymous_args = 0
 705              	.LVL24:
 706 0000 38B5     		push	{r3, r4, r5, lr}
 707              		.cfi_def_cfa_offset 16
 708              		.cfi_offset 3, -16
 709              		.cfi_offset 4, -12
 710              		.cfi_offset 5, -8
 711              		.cfi_offset 14, -4
 712              		.loc 1 308 0
 713 0002 0446     		mov	r4, r0
 714              	.LBB297:
 715              	.LBB298:
 716              	.LBB299:
 717              	.LBB300:
 718              	.LBB301:
 719              		.loc 3 342 0
 720              		.syntax unified
 721              	@ 342 "ChibiOS_3.0.5/os/ext/CMSIS/include/core_cmFunc.h" 1
 722 0004 72B6     		cpsid i
 723              	@ 0 "" 2
 724              		.thumb
 725              		.syntax unified
 726              	.LBE301:
 727              	.LBE300:
 728              	.LBE299:
 729              	.LBE298:
 730              	.LBE297:
 731              		.loc 1 316 0
 732 0006 0325     		movs	r5, #3
 733 0008 04F8085B 		strb	r5, [r4], #8
 734 000c FFF7FEFF 		bl	spi_lld_exchange
 735              	.LVL25:
 736              	.LBB302:
 737              	.LBB303:
 738              		.loc 2 688 0
 739 0010 2046     		mov	r0, r4
 740 0012 FFF7FEFF 		bl	chThdSuspendS
 741              	.LVL26:
ARM GAS  /tmp/cczRLyY9.s 			page 14


 742              	.LBE303:
 743              	.LBE302:
 744              	.LBB304:
 745              	.LBB305:
 746              	.LBB306:
 747              	.LBB307:
 748              	.LBB308:
 749              	.LBB309:
 750              		.loc 3 331 0
 751              		.syntax unified
 752              	@ 331 "ChibiOS_3.0.5/os/ext/CMSIS/include/core_cmFunc.h" 1
 753 0016 62B6     		cpsie i
 754              	@ 0 "" 2
 755              		.thumb
 756              		.syntax unified
 757              	.LBE309:
 758              	.LBE308:
 759              	.LBE307:
 760              	.LBE306:
 761              	.LBE305:
 762              	.LBE304:
 763              		.loc 1 319 0
 764 0018 38BD     		pop	{r3, r4, r5, pc}
 765              		.cfi_endproc
 766              	.LFE267:
 767              		.size	spiExchange, .-spiExchange
 768 001a 00BF     		.section	.text.spiSend,"ax",%progbits
 769              		.align	1
 770              		.p2align 4,,15
 771              		.global	spiSend
 772              		.syntax unified
 773              		.thumb
 774              		.thumb_func
 775              		.fpu fpv4-sp-d16
 776              		.type	spiSend, %function
 777              	spiSend:
 778              	.LFB268:
 779              		.loc 1 337 0
 780              		.cfi_startproc
 781              		@ args = 0, pretend = 0, frame = 0
 782              		@ frame_needed = 0, uses_anonymous_args = 0
 783              	.LVL27:
 784 0000 10B5     		push	{r4, lr}
 785              		.cfi_def_cfa_offset 8
 786              		.cfi_offset 4, -8
 787              		.cfi_offset 14, -4
 788              		.loc 1 337 0
 789 0002 0446     		mov	r4, r0
 790              	.LBB310:
 791              	.LBB311:
 792              	.LBB312:
 793              	.LBB313:
 794              	.LBB314:
 795              		.loc 3 342 0
 796              		.syntax unified
 797              	@ 342 "ChibiOS_3.0.5/os/ext/CMSIS/include/core_cmFunc.h" 1
 798 0004 72B6     		cpsid i
ARM GAS  /tmp/cczRLyY9.s 			page 15


 799              	@ 0 "" 2
 800              		.thumb
 801              		.syntax unified
 802              	.LBE314:
 803              	.LBE313:
 804              	.LBE312:
 805              	.LBE311:
 806              	.LBE310:
 807              		.loc 1 344 0
 808 0006 0323     		movs	r3, #3
 809 0008 04F8083B 		strb	r3, [r4], #8
 810 000c FFF7FEFF 		bl	spi_lld_send
 811              	.LVL28:
 812              	.LBB315:
 813              	.LBB316:
 814              		.loc 2 688 0
 815 0010 2046     		mov	r0, r4
 816 0012 FFF7FEFF 		bl	chThdSuspendS
 817              	.LVL29:
 818              	.LBE316:
 819              	.LBE315:
 820              	.LBB317:
 821              	.LBB318:
 822              	.LBB319:
 823              	.LBB320:
 824              	.LBB321:
 825              	.LBB322:
 826              		.loc 3 331 0
 827              		.syntax unified
 828              	@ 331 "ChibiOS_3.0.5/os/ext/CMSIS/include/core_cmFunc.h" 1
 829 0016 62B6     		cpsie i
 830              	@ 0 "" 2
 831              		.thumb
 832              		.syntax unified
 833              	.LBE322:
 834              	.LBE321:
 835              	.LBE320:
 836              	.LBE319:
 837              	.LBE318:
 838              	.LBE317:
 839              		.loc 1 347 0
 840 0018 10BD     		pop	{r4, pc}
 841              		.cfi_endproc
 842              	.LFE268:
 843              		.size	spiSend, .-spiSend
 844 001a 00BF     		.section	.text.spiReceive,"ax",%progbits
 845              		.align	1
 846              		.p2align 4,,15
 847              		.global	spiReceive
 848              		.syntax unified
 849              		.thumb
 850              		.thumb_func
 851              		.fpu fpv4-sp-d16
 852              		.type	spiReceive, %function
 853              	spiReceive:
 854              	.LFB269:
 855              		.loc 1 365 0
ARM GAS  /tmp/cczRLyY9.s 			page 16


 856              		.cfi_startproc
 857              		@ args = 0, pretend = 0, frame = 0
 858              		@ frame_needed = 0, uses_anonymous_args = 0
 859              	.LVL30:
 860 0000 10B5     		push	{r4, lr}
 861              		.cfi_def_cfa_offset 8
 862              		.cfi_offset 4, -8
 863              		.cfi_offset 14, -4
 864              		.loc 1 365 0
 865 0002 0446     		mov	r4, r0
 866              	.LBB323:
 867              	.LBB324:
 868              	.LBB325:
 869              	.LBB326:
 870              	.LBB327:
 871              		.loc 3 342 0
 872              		.syntax unified
 873              	@ 342 "ChibiOS_3.0.5/os/ext/CMSIS/include/core_cmFunc.h" 1
 874 0004 72B6     		cpsid i
 875              	@ 0 "" 2
 876              		.thumb
 877              		.syntax unified
 878              	.LBE327:
 879              	.LBE326:
 880              	.LBE325:
 881              	.LBE324:
 882              	.LBE323:
 883              		.loc 1 372 0
 884 0006 0323     		movs	r3, #3
 885 0008 04F8083B 		strb	r3, [r4], #8
 886 000c FFF7FEFF 		bl	spi_lld_receive
 887              	.LVL31:
 888              	.LBB328:
 889              	.LBB329:
 890              		.loc 2 688 0
 891 0010 2046     		mov	r0, r4
 892 0012 FFF7FEFF 		bl	chThdSuspendS
 893              	.LVL32:
 894              	.LBE329:
 895              	.LBE328:
 896              	.LBB330:
 897              	.LBB331:
 898              	.LBB332:
 899              	.LBB333:
 900              	.LBB334:
 901              	.LBB335:
 902              		.loc 3 331 0
 903              		.syntax unified
 904              	@ 331 "ChibiOS_3.0.5/os/ext/CMSIS/include/core_cmFunc.h" 1
 905 0016 62B6     		cpsie i
 906              	@ 0 "" 2
 907              		.thumb
 908              		.syntax unified
 909              	.LBE335:
 910              	.LBE334:
 911              	.LBE333:
 912              	.LBE332:
ARM GAS  /tmp/cczRLyY9.s 			page 17


 913              	.LBE331:
 914              	.LBE330:
 915              		.loc 1 375 0
 916 0018 10BD     		pop	{r4, pc}
 917              		.cfi_endproc
 918              	.LFE269:
 919              		.size	spiReceive, .-spiReceive
 920 001a 00BF     		.section	.text.spiAcquireBus,"ax",%progbits
 921              		.align	1
 922              		.p2align 4,,15
 923              		.global	spiAcquireBus
 924              		.syntax unified
 925              		.thumb
 926              		.thumb_func
 927              		.fpu fpv4-sp-d16
 928              		.type	spiAcquireBus, %function
 929              	spiAcquireBus:
 930              	.LFB270:
 931              		.loc 1 390 0
 932              		.cfi_startproc
 933              		@ args = 0, pretend = 0, frame = 0
 934              		@ frame_needed = 0, uses_anonymous_args = 0
 935              		@ link register save eliminated.
 936              	.LVL33:
 937              	.LBB336:
 938              	.LBB337:
 939              		.loc 2 907 0
 940 0000 0C30     		adds	r0, r0, #12
 941              	.LVL34:
 942 0002 FFF7FEBF 		b	chMtxLock
 943              	.LVL35:
 944              	.LBE337:
 945              	.LBE336:
 946              		.cfi_endproc
 947              	.LFE270:
 948              		.size	spiAcquireBus, .-spiAcquireBus
 949 0006 00BF     		.section	.text.spiReleaseBus,"ax",%progbits
 950              		.align	1
 951              		.p2align 4,,15
 952              		.global	spiReleaseBus
 953              		.syntax unified
 954              		.thumb
 955              		.thumb_func
 956              		.fpu fpv4-sp-d16
 957              		.type	spiReleaseBus, %function
 958              	spiReleaseBus:
 959              	.LFB271:
 960              		.loc 1 406 0
 961              		.cfi_startproc
 962              		@ args = 0, pretend = 0, frame = 0
 963              		@ frame_needed = 0, uses_anonymous_args = 0
 964              		@ link register save eliminated.
 965              	.LVL36:
 966              	.LBB338:
 967              	.LBB339:
 968              		.loc 2 931 0
 969 0000 0C30     		adds	r0, r0, #12
ARM GAS  /tmp/cczRLyY9.s 			page 18


 970              	.LVL37:
 971 0002 FFF7FEBF 		b	chMtxUnlock
 972              	.LVL38:
 973              	.LBE339:
 974              	.LBE338:
 975              		.cfi_endproc
 976              	.LFE271:
 977              		.size	spiReleaseBus, .-spiReleaseBus
 978 0006 00BF     		.text
 979              	.Letext0:
 980              		.file 4 "/usr/lib/gcc/arm-none-eabi/7.3.1/include/stddef.h"
 981              		.file 5 "/usr/arm-none-eabi/include/machine/_default_types.h"
 982              		.file 6 "/usr/arm-none-eabi/include/sys/_stdint.h"
 983              		.file 7 "ChibiOS_3.0.5/os/rt/ports/ARMCMx/compilers/GCC/chtypes.h"
 984              		.file 8 "ChibiOS_3.0.5/os/rt/include/chsystypes.h"
 985              		.file 9 "ChibiOS_3.0.5/os/rt/include/chschd.h"
 986              		.file 10 "ChibiOS_3.0.5/os/ext/CMSIS/include/core_cm4.h"
 987              		.file 11 "ChibiOS_3.0.5/os/ext/CMSIS/ST/system_stm32f4xx.h"
 988              		.file 12 "ChibiOS_3.0.5/os/ext/CMSIS/ST/stm32f407xx.h"
 989              		.file 13 "ChibiOS_3.0.5/os/rt/ports/ARMCMx/chcore.h"
 990              		.file 14 "ChibiOS_3.0.5/os/rt/ports/ARMCMx/chcore_v7m.h"
 991              		.file 15 "ChibiOS_3.0.5/os/rt/include/chtm.h"
 992              		.file 16 "ChibiOS_3.0.5/os/rt/include/chsem.h"
 993              		.file 17 "ChibiOS_3.0.5/os/rt/include/chmtx.h"
 994              		.file 18 "ChibiOS_3.0.5/os/rt/include/chregistry.h"
 995              		.file 19 "ChibiOS_3.0.5/os/rt/include/chevents.h"
 996              		.file 20 "ChibiOS_3.0.5/os/rt/include/chqueues.h"
 997              		.file 21 "./datatypes.h"
 998              		.file 22 "./conf_general.h"
 999              		.file 23 "ChibiOS_3.0.5/os/hal/ports/STM32/STM32F4xx/stm32_dma.h"
 1000              		.file 24 "ChibiOS_3.0.5/os/hal/ports/STM32/LLD/GPIOv2/pal_lld.h"
 1001              		.file 25 "ChibiOS_3.0.5/os/hal/include/can.h"
 1002              		.file 26 "ChibiOS_3.0.5/os/hal/ports/STM32/LLD/can_lld.h"
 1003              		.file 27 "ChibiOS_3.0.5/os/hal/include/i2c.h"
 1004              		.file 28 "ChibiOS_3.0.5/os/hal/ports/STM32/LLD/I2Cv1/i2c_lld.h"
 1005              		.file 29 "ChibiOS_3.0.5/os/hal/include/icu.h"
 1006              		.file 30 "ChibiOS_3.0.5/os/hal/ports/STM32/LLD/TIMv1/icu_lld.h"
 1007              		.file 31 "ChibiOS_3.0.5/os/hal/ports/STM32/LLD/TIMv1/stm32_tim.h"
 1008              		.file 32 "ChibiOS_3.0.5/os/hal/include/serial.h"
 1009              		.file 33 "ChibiOS_3.0.5/os/hal/ports/STM32/LLD/USARTv1/serial_lld.h"
 1010              		.file 34 "ChibiOS_3.0.5/os/hal/include/spi.h"
 1011              		.file 35 "ChibiOS_3.0.5/os/hal/ports/STM32/LLD/SPIv1/spi_lld.h"
 1012              		.file 36 "ChibiOS_3.0.5/os/hal/include/usb.h"
 1013              		.file 37 "ChibiOS_3.0.5/os/hal/ports/STM32/LLD/OTGv1/usb_lld.h"
 1014              		.file 38 "ChibiOS_3.0.5/os/hal/ports/STM32/LLD/OTGv1/stm32_otg.h"
 1015              		.file 39 "ChibiOS_3.0.5/os/rt/include/chsys.h"
 1016              		.file 40 "ChibiOS_3.0.5/os/rt/include/chthreads.h"