ARM GAS  /tmp/ccJdBRGL.s 			page 1


   1              		.cpu cortex-m4
   2              		.eabi_attribute 27, 1
   3              		.eabi_attribute 28, 1
   4              		.eabi_attribute 20, 1
   5              		.eabi_attribute 21, 1
   6              		.eabi_attribute 23, 3
   7              		.eabi_attribute 24, 1
   8              		.eabi_attribute 25, 1
   9              		.eabi_attribute 26, 1
  10              		.eabi_attribute 30, 2
  11              		.eabi_attribute 34, 1
  12              		.eabi_attribute 18, 4
  13              		.file	"spi_lld.c"
  14              		.text
  15              	.Ltext0:
  16              		.cfi_sections	.debug_frame
  17              		.section	.text.spi_lld_serve_tx_interrupt,"ax",%progbits
  18              		.align	1
  19              		.p2align 4,,15
  20              		.syntax unified
  21              		.thumb
  22              		.thumb_func
  23              		.fpu fpv4-sp-d16
  24              		.type	spi_lld_serve_tx_interrupt, %function
  25              	spi_lld_serve_tx_interrupt:
  26              	.LFB257:
  27              		.file 1 "ChibiOS_3.0.5/os/hal/ports/STM32/LLD/SPIv1/spi_lld.c"
  28              		.loc 1 158 0
  29              		.cfi_startproc
  30              		@ args = 0, pretend = 0, frame = 0
  31              		@ frame_needed = 0, uses_anonymous_args = 0
  32              		@ link register save eliminated.
  33              	.LVL0:
  34              		.loc 1 163 0
  35 0000 11F00C0F 		tst	r1, #12
  36 0004 00D1     		bne	.L4
  37              		.loc 1 170 0
  38 0006 7047     		bx	lr
  39              	.L4:
  40              	.LVL1:
  41              	.LBB56:
  42              	.LBB57:
  43              		.file 2 "ChibiOS_3.0.5/os/hal/osal/rt/osal.h"
  44              		.loc 2 462 0
  45 0008 0148     		ldr	r0, .L5
  46              	.LVL2:
  47 000a FFF7FEBF 		b	chSysHalt
  48              	.LVL3:
  49              	.L6:
  50 000e 00BF     		.align	2
  51              	.L5:
  52 0010 00000000 		.word	.LC0
  53              	.LBE57:
  54              	.LBE56:
  55              		.cfi_endproc
  56              	.LFE257:
  57              		.size	spi_lld_serve_tx_interrupt, .-spi_lld_serve_tx_interrupt
ARM GAS  /tmp/ccJdBRGL.s 			page 2


  58              		.section	.text.spi_lld_serve_rx_interrupt,"ax",%progbits
  59              		.align	1
  60              		.p2align 4,,15
  61              		.syntax unified
  62              		.thumb
  63              		.thumb_func
  64              		.fpu fpv4-sp-d16
  65              		.type	spi_lld_serve_rx_interrupt, %function
  66              	spi_lld_serve_rx_interrupt:
  67              	.LFB256:
  68              		.loc 1 132 0
  69              		.cfi_startproc
  70              		@ args = 0, pretend = 0, frame = 0
  71              		@ frame_needed = 0, uses_anonymous_args = 0
  72              	.LVL4:
  73              		.loc 1 136 0
  74 0000 11F00C0F 		tst	r1, #12
  75              		.loc 1 132 0
  76 0004 38B5     		push	{r3, r4, r5, lr}
  77              		.cfi_def_cfa_offset 16
  78              		.cfi_offset 3, -16
  79              		.cfi_offset 4, -12
  80              		.cfi_offset 5, -8
  81              		.cfi_offset 14, -4
  82              		.loc 1 132 0
  83 0006 0446     		mov	r4, r0
  84              		.loc 1 136 0
  85 0008 30D1     		bne	.L22
  86              	.LVL5:
  87              	.L8:
  88              		.loc 1 144 0
  89 000a 606A     		ldr	r0, [r4, #36]
  90 000c 0268     		ldr	r2, [r0]
  91 000e 1368     		ldr	r3, [r2]
  92 0010 23F01F03 		bic	r3, r3, #31
  93 0014 1360     		str	r3, [r2]
  94              	.L9:
  95              		.loc 1 144 0 is_stmt 0 discriminator 2
  96 0016 1368     		ldr	r3, [r2]
  97 0018 D907     		lsls	r1, r3, #31
  98 001a FCD4     		bmi	.L9
  99              		.loc 1 144 0 discriminator 3
 100 001c 057A     		ldrb	r5, [r0, #8]	@ zero_extendqisi2
 101              		.loc 1 145 0 is_stmt 1 discriminator 3
 102 001e 216A     		ldr	r1, [r4, #32]
 103              		.loc 1 144 0 discriminator 3
 104 0020 4068     		ldr	r0, [r0, #4]
 105              		.loc 1 145 0 discriminator 3
 106 0022 0A68     		ldr	r2, [r1]
 107              		.loc 1 144 0 discriminator 3
 108 0024 3D23     		movs	r3, #61
 109 0026 AB40     		lsls	r3, r3, r5
 110 0028 0360     		str	r3, [r0]
 111              		.loc 1 145 0 discriminator 3
 112 002a 1368     		ldr	r3, [r2]
 113 002c 23F01F03 		bic	r3, r3, #31
 114 0030 1360     		str	r3, [r2]
ARM GAS  /tmp/ccJdBRGL.s 			page 3


 115              	.L10:
 116              		.loc 1 145 0 is_stmt 0 discriminator 2
 117 0032 1368     		ldr	r3, [r2]
 118 0034 DB07     		lsls	r3, r3, #31
 119 0036 FCD4     		bmi	.L10
 120              		.loc 1 149 0 is_stmt 1 discriminator 3
 121 0038 6368     		ldr	r3, [r4, #4]
 122              		.loc 1 145 0 discriminator 3
 123 003a 087A     		ldrb	r0, [r1, #8]	@ zero_extendqisi2
 124              		.loc 1 149 0 discriminator 3
 125 003c 1A68     		ldr	r2, [r3]
 126              		.loc 1 145 0 discriminator 3
 127 003e 4968     		ldr	r1, [r1, #4]
 128 0040 3D23     		movs	r3, #61
 129 0042 8340     		lsls	r3, r3, r0
 130 0044 0B60     		str	r3, [r1]
 131              		.loc 1 149 0 discriminator 3
 132 0046 72B1     		cbz	r2, .L11
 133              		.loc 1 149 0 is_stmt 0 discriminator 1
 134 0048 0423     		movs	r3, #4
 135 004a 2370     		strb	r3, [r4]
 136 004c 2046     		mov	r0, r4
 137 004e 9047     		blx	r2
 138              	.LVL6:
 139 0050 2378     		ldrb	r3, [r4]	@ zero_extendqisi2
 140 0052 042B     		cmp	r3, #4
 141 0054 07D0     		beq	.L11
 142              	.L12:
 143              	.LBB58:
 144              	.LBB59:
 145              	.LBB60:
 146              	.LBB61:
 147              	.LBB62:
 148              	.LBB63:
 149              		.file 3 "ChibiOS_3.0.5/os/ext/CMSIS/include/core_cmFunc.h"
 150              		.loc 3 342 0 is_stmt 1 discriminator 4
 151              		.syntax unified
 152              	@ 342 "ChibiOS_3.0.5/os/ext/CMSIS/include/core_cmFunc.h" 1
 153 0056 72B6     		cpsid i
 154              	@ 0 "" 2
 155              	.LVL7:
 156              		.thumb
 157              		.syntax unified
 158              	.LBE63:
 159              	.LBE62:
 160              	.LBE61:
 161              	.LBE60:
 162              	.LBE59:
 163              	.LBE58:
 164              	.LBB64:
 165              	.LBB65:
 166              		.loc 2 728 0 discriminator 4
 167 0058 0021     		movs	r1, #0
 168 005a 04F10800 		add	r0, r4, #8
 169              	.LVL8:
 170 005e FFF7FEFF 		bl	chThdResumeI
 171              	.LVL9:
ARM GAS  /tmp/ccJdBRGL.s 			page 4


 172              	.LBE65:
 173              	.LBE64:
 174              	.LBB66:
 175              	.LBB67:
 176              	.LBB68:
 177              	.LBB69:
 178              	.LBB70:
 179              	.LBB71:
 180              		.loc 3 331 0 discriminator 4
 181              		.syntax unified
 182              	@ 331 "ChibiOS_3.0.5/os/ext/CMSIS/include/core_cmFunc.h" 1
 183 0062 62B6     		cpsie i
 184              	@ 0 "" 2
 185              		.thumb
 186              		.syntax unified
 187              	.LBE71:
 188              	.LBE70:
 189              	.LBE69:
 190              	.LBE68:
 191              	.LBE67:
 192              	.LBE66:
 193              		.loc 1 150 0 discriminator 4
 194 0064 38BD     		pop	{r3, r4, r5, pc}
 195              	.LVL10:
 196              	.L11:
 197              		.loc 1 149 0 discriminator 3
 198 0066 0223     		movs	r3, #2
 199 0068 2370     		strb	r3, [r4]
 200 006a F4E7     		b	.L12
 201              	.LVL11:
 202              	.L22:
 203              	.LBB72:
 204              	.LBB73:
 205              		.loc 2 462 0
 206 006c 0148     		ldr	r0, .L23
 207              	.LVL12:
 208 006e FFF7FEFF 		bl	chSysHalt
 209              	.LVL13:
 210 0072 CAE7     		b	.L8
 211              	.L24:
 212              		.align	2
 213              	.L23:
 214 0074 00000000 		.word	.LC0
 215              	.LBE73:
 216              	.LBE72:
 217              		.cfi_endproc
 218              	.LFE256:
 219              		.size	spi_lld_serve_rx_interrupt, .-spi_lld_serve_rx_interrupt
 220              		.section	.text.spi_lld_init,"ax",%progbits
 221              		.align	1
 222              		.p2align 4,,15
 223              		.global	spi_lld_init
 224              		.syntax unified
 225              		.thumb
 226              		.thumb_func
 227              		.fpu fpv4-sp-d16
 228              		.type	spi_lld_init, %function
ARM GAS  /tmp/ccJdBRGL.s 			page 5


 229              	spi_lld_init:
 230              	.LFB258:
 231              		.loc 1 185 0
 232              		.cfi_startproc
 233              		@ args = 0, pretend = 0, frame = 0
 234              		@ frame_needed = 0, uses_anonymous_args = 0
 235 0000 70B5     		push	{r4, r5, r6, lr}
 236              		.cfi_def_cfa_offset 16
 237              		.cfi_offset 4, -16
 238              		.cfi_offset 5, -12
 239              		.cfi_offset 6, -8
 240              		.cfi_offset 14, -4
 241              		.loc 1 190 0
 242 0002 114E     		ldr	r6, .L27
 243              		.loc 1 187 0
 244 0004 114B     		ldr	r3, .L27+4
 245              		.loc 1 192 0
 246 0006 124D     		ldr	r5, .L27+8
 247              		.loc 1 226 0
 248 0008 124C     		ldr	r4, .L27+12
 249              		.loc 1 187 0
 250 000a 4FF6FF72 		movw	r2, #65535
 251              		.loc 1 190 0
 252 000e 3046     		mov	r0, r6
 253              		.loc 1 187 0
 254 0010 1A80     		strh	r2, [r3]	@ movhi
 255              		.loc 1 190 0
 256 0012 FFF7FEFF 		bl	spiObjectInit
 257              	.LVL14:
 258              		.loc 1 194 0
 259 0016 104A     		ldr	r2, .L27+16
 260              		.loc 1 200 0
 261 0018 104B     		ldr	r3, .L27+20
 262              		.loc 1 191 0
 263 001a 1149     		ldr	r1, .L27+24
 264 001c F161     		str	r1, [r6, #28]
 265              		.loc 1 226 0
 266 001e 2046     		mov	r0, r4
 267              		.loc 1 193 0
 268 0020 05F12401 		add	r1, r5, #36
 269 0024 C6E90851 		strd	r5, r1, [r6, #32]
 270              		.loc 1 200 0
 271 0028 C6E90A23 		strd	r2, r3, [r6, #40]
 272              		.loc 1 226 0
 273 002c FFF7FEFF 		bl	spiObjectInit
 274              	.LVL15:
 275              		.loc 1 227 0
 276 0030 0C49     		ldr	r1, .L27+28
 277              		.loc 1 230 0
 278 0032 0D4A     		ldr	r2, .L27+32
 279              		.loc 1 236 0
 280 0034 0D4B     		ldr	r3, .L27+36
 281              		.loc 1 227 0
 282 0036 E161     		str	r1, [r4, #28]
 283              		.loc 1 228 0
 284 0038 A5F16001 		sub	r1, r5, #96
 285              		.loc 1 229 0
ARM GAS  /tmp/ccJdBRGL.s 			page 6


 286 003c 0C3D     		subs	r5, r5, #12
 287 003e C4E90815 		strd	r1, r5, [r4, #32]
 288              		.loc 1 236 0
 289 0042 C4E90A23 		strd	r2, r3, [r4, #40]
 290              		.loc 1 296 0
 291 0046 70BD     		pop	{r4, r5, r6, pc}
 292              	.L28:
 293              		.align	2
 294              	.L27:
 295 0048 00000000 		.word	.LANCHOR1
 296 004c 00000000 		.word	.LANCHOR0
 297 0050 60000000 		.word	_stm32_dma_streams+96
 298 0054 00000000 		.word	.LANCHOR2
 299 0058 16000106 		.word	100728854
 300 005c 46000106 		.word	100728902
 301 0060 00300140 		.word	1073819648
 302 0064 003C0040 		.word	1073757184
 303 0068 16000100 		.word	65558
 304 006c 46000100 		.word	65606
 305              		.cfi_endproc
 306              	.LFE258:
 307              		.size	spi_lld_init, .-spi_lld_init
 308              		.section	.text.spi_lld_start,"ax",%progbits
 309              		.align	1
 310              		.p2align 4,,15
 311              		.global	spi_lld_start
 312              		.syntax unified
 313              		.thumb
 314              		.thumb_func
 315              		.fpu fpv4-sp-d16
 316              		.type	spi_lld_start, %function
 317              	spi_lld_start:
 318              	.LFB259:
 319              		.loc 1 305 0
 320              		.cfi_startproc
 321              		@ args = 0, pretend = 0, frame = 0
 322              		@ frame_needed = 0, uses_anonymous_args = 0
 323              	.LVL16:
 324              		.loc 1 308 0
 325 0000 0378     		ldrb	r3, [r0]	@ zero_extendqisi2
 326 0002 012B     		cmp	r3, #1
 327              		.loc 1 305 0
 328 0004 10B5     		push	{r4, lr}
 329              		.cfi_def_cfa_offset 8
 330              		.cfi_offset 4, -8
 331              		.cfi_offset 14, -4
 332              		.loc 1 305 0
 333 0006 0446     		mov	r4, r0
 334              		.loc 1 308 0
 335 0008 1DD0     		beq	.L36
 336 000a C369     		ldr	r3, [r0, #28]
 337              	.LVL17:
 338              	.L30:
 339              		.loc 1 412 0
 340 000c 6268     		ldr	r2, [r4, #4]
 341 000e A16A     		ldr	r1, [r4, #40]
 342 0010 5089     		ldrh	r0, [r2, #10]
ARM GAS  /tmp/ccJdBRGL.s 			page 7


 343 0012 E26A     		ldr	r2, [r4, #44]
 344 0014 21F4F041 		bic	r1, r1, #30720
 345 0018 22F4F042 		bic	r2, r2, #30720
 346 001c 10F4006F 		tst	r0, #2048
 347              		.loc 1 422 0
 348 0020 1CBF     		itt	ne
 349 0022 41F42051 		orrne	r1, r1, #10240
 350              		.loc 1 424 0
 351 0026 42F42052 		orrne	r2, r2, #10240
 352              		.loc 1 423 0
 353 002a C4E90A12 		strd	r1, r2, [r4, #40]
 354              		.loc 1 428 0
 355 002e 40F44170 		orr	r0, r0, #772
 356              		.loc 1 430 0
 357 0032 0722     		movs	r2, #7
 358              		.loc 1 427 0
 359 0034 0021     		movs	r1, #0
 360 0036 1960     		str	r1, [r3]
 361              		.loc 1 428 0
 362 0038 1860     		str	r0, [r3]
 363              		.loc 1 430 0
 364 003a 5A60     		str	r2, [r3, #4]
 365              		.loc 1 431 0
 366 003c 1A68     		ldr	r2, [r3]
 367 003e 42F04002 		orr	r2, r2, #64
 368 0042 1A60     		str	r2, [r3]
 369              		.loc 1 432 0
 370 0044 10BD     		pop	{r4, pc}
 371              	.LVL18:
 372              	.L36:
 373              		.loc 1 310 0
 374 0046 1A4B     		ldr	r3, .L41
 375 0048 9842     		cmp	r0, r3
 376 004a 0CD0     		beq	.L39
 377              		.loc 1 342 0
 378 004c 194B     		ldr	r3, .L41+4
 379 004e 9842     		cmp	r0, r3
 380 0050 1BD0     		beq	.L40
 381              	.LVL19:
 382              	.L32:
 383              		.loc 1 408 0
 384 0052 D4E90812 		ldrd	r1, r2, [r4, #32]
 385              		.loc 1 407 0
 386 0056 E369     		ldr	r3, [r4, #28]
 387 0058 0868     		ldr	r0, [r1]
 388              		.loc 1 408 0
 389 005a 1168     		ldr	r1, [r2]
 390              		.loc 1 407 0
 391 005c 03F10C02 		add	r2, r3, #12
 392 0060 8260     		str	r2, [r0, #8]
 393              		.loc 1 408 0
 394 0062 8A60     		str	r2, [r1, #8]
 395 0064 D2E7     		b	.L30
 396              	.LVL20:
 397              	.L39:
 398              	.LBB74:
 399              		.loc 1 312 0
ARM GAS  /tmp/ccJdBRGL.s 			page 8


 400 0066 0346     		mov	r3, r0
 401 0068 134A     		ldr	r2, .L41+8
 402 006a 006A     		ldr	r0, [r0, #32]
 403              	.LVL21:
 404 006c 0A21     		movs	r1, #10
 405 006e FFF7FEFF 		bl	dmaStreamAllocate
 406              	.LVL22:
 407              		.loc 1 317 0
 408 0072 2346     		mov	r3, r4
 409 0074 114A     		ldr	r2, .L41+12
 410 0076 606A     		ldr	r0, [r4, #36]
 411 0078 0A21     		movs	r1, #10
 412 007a FFF7FEFF 		bl	dmaStreamAllocate
 413              	.LVL23:
 414              		.loc 1 322 0
 415 007e 104A     		ldr	r2, .L41+16
 416 0080 536C     		ldr	r3, [r2, #68]
 417 0082 43F48053 		orr	r3, r3, #4096
 418 0086 5364     		str	r3, [r2, #68]
 419 0088 E3E7     		b	.L32
 420              	.LVL24:
 421              	.L40:
 422              	.LBE74:
 423              	.LBB75:
 424              		.loc 1 344 0
 425 008a 0346     		mov	r3, r0
 426 008c 0A4A     		ldr	r2, .L41+8
 427 008e 006A     		ldr	r0, [r0, #32]
 428              	.LVL25:
 429 0090 0A21     		movs	r1, #10
 430 0092 FFF7FEFF 		bl	dmaStreamAllocate
 431              	.LVL26:
 432              		.loc 1 349 0
 433 0096 2346     		mov	r3, r4
 434 0098 084A     		ldr	r2, .L41+12
 435 009a 606A     		ldr	r0, [r4, #36]
 436 009c 0A21     		movs	r1, #10
 437 009e FFF7FEFF 		bl	dmaStreamAllocate
 438              	.LVL27:
 439              		.loc 1 354 0
 440 00a2 074A     		ldr	r2, .L41+16
 441 00a4 136C     		ldr	r3, [r2, #64]
 442 00a6 43F40043 		orr	r3, r3, #32768
 443 00aa 1364     		str	r3, [r2, #64]
 444 00ac D1E7     		b	.L32
 445              	.L42:
 446 00ae 00BF     		.align	2
 447              	.L41:
 448 00b0 00000000 		.word	.LANCHOR1
 449 00b4 00000000 		.word	.LANCHOR2
 450 00b8 00000000 		.word	spi_lld_serve_rx_interrupt
 451 00bc 00000000 		.word	spi_lld_serve_tx_interrupt
 452 00c0 00380240 		.word	1073887232
 453              	.LBE75:
 454              		.cfi_endproc
 455              	.LFE259:
 456              		.size	spi_lld_start, .-spi_lld_start
ARM GAS  /tmp/ccJdBRGL.s 			page 9


 457              		.section	.text.spi_lld_stop,"ax",%progbits
 458              		.align	1
 459              		.p2align 4,,15
 460              		.global	spi_lld_stop
 461              		.syntax unified
 462              		.thumb
 463              		.thumb_func
 464              		.fpu fpv4-sp-d16
 465              		.type	spi_lld_stop, %function
 466              	spi_lld_stop:
 467              	.LFB260:
 468              		.loc 1 441 0
 469              		.cfi_startproc
 470              		@ args = 0, pretend = 0, frame = 0
 471              		@ frame_needed = 0, uses_anonymous_args = 0
 472              	.LVL28:
 473              		.loc 1 444 0
 474 0000 0378     		ldrb	r3, [r0]	@ zero_extendqisi2
 475 0002 022B     		cmp	r3, #2
 476 0004 00D0     		beq	.L52
 477 0006 7047     		bx	lr
 478              	.L52:
 479              		.loc 1 441 0
 480 0008 10B5     		push	{r4, lr}
 481              		.cfi_def_cfa_offset 8
 482              		.cfi_offset 4, -8
 483              		.cfi_offset 14, -4
 484 000a 0446     		mov	r4, r0
 485              		.loc 1 449 0
 486 000c D0E90730 		ldrd	r3, r0, [r0, #28]
 487              	.LVL29:
 488              		.loc 1 447 0
 489 0010 0022     		movs	r2, #0
 490 0012 1A60     		str	r2, [r3]
 491              		.loc 1 448 0
 492 0014 5A60     		str	r2, [r3, #4]
 493              		.loc 1 449 0
 494 0016 FFF7FEFF 		bl	dmaStreamRelease
 495              	.LVL30:
 496              		.loc 1 450 0
 497 001a 606A     		ldr	r0, [r4, #36]
 498 001c FFF7FEFF 		bl	dmaStreamRelease
 499              	.LVL31:
 500              		.loc 1 453 0
 501 0020 084B     		ldr	r3, .L54
 502 0022 9C42     		cmp	r4, r3
 503 0024 08D0     		beq	.L53
 504              		.loc 1 461 0
 505 0026 084B     		ldr	r3, .L54+4
 506 0028 9C42     		cmp	r4, r3
 507 002a 04D1     		bne	.L43
 508              		.loc 1 462 0
 509 002c 074A     		ldr	r2, .L54+8
 510 002e 136C     		ldr	r3, [r2, #64]
 511 0030 23F40043 		bic	r3, r3, #32768
 512 0034 1364     		str	r3, [r2, #64]
 513              	.L43:
ARM GAS  /tmp/ccJdBRGL.s 			page 10


 514              		.loc 1 477 0
 515 0036 10BD     		pop	{r4, pc}
 516              	.LVL32:
 517              	.L53:
 518              		.loc 1 454 0
 519 0038 044A     		ldr	r2, .L54+8
 520 003a 536C     		ldr	r3, [r2, #68]
 521 003c 23F48053 		bic	r3, r3, #4096
 522 0040 5364     		str	r3, [r2, #68]
 523              		.loc 1 477 0
 524 0042 10BD     		pop	{r4, pc}
 525              	.LVL33:
 526              	.L55:
 527              		.align	2
 528              	.L54:
 529 0044 00000000 		.word	.LANCHOR1
 530 0048 00000000 		.word	.LANCHOR2
 531 004c 00380240 		.word	1073887232
 532              		.cfi_endproc
 533              	.LFE260:
 534              		.size	spi_lld_stop, .-spi_lld_stop
 535              		.section	.text.spi_lld_select,"ax",%progbits
 536              		.align	1
 537              		.p2align 4,,15
 538              		.global	spi_lld_select
 539              		.syntax unified
 540              		.thumb
 541              		.thumb_func
 542              		.fpu fpv4-sp-d16
 543              		.type	spi_lld_select, %function
 544              	spi_lld_select:
 545              	.LFB261:
 546              		.loc 1 486 0
 547              		.cfi_startproc
 548              		@ args = 0, pretend = 0, frame = 0
 549              		@ frame_needed = 0, uses_anonymous_args = 0
 550              		@ link register save eliminated.
 551              	.LVL34:
 552              		.loc 1 488 0
 553 0000 4268     		ldr	r2, [r0, #4]
 554 0002 1189     		ldrh	r1, [r2, #8]
 555 0004 5268     		ldr	r2, [r2, #4]
 556 0006 0123     		movs	r3, #1
 557 0008 8B40     		lsls	r3, r3, r1
 558 000a 9BB2     		uxth	r3, r3
 559 000c 5383     		strh	r3, [r2, #26]	@ movhi
 560              		.loc 1 489 0
 561 000e 7047     		bx	lr
 562              		.cfi_endproc
 563              	.LFE261:
 564              		.size	spi_lld_select, .-spi_lld_select
 565              		.section	.text.spi_lld_unselect,"ax",%progbits
 566              		.align	1
 567              		.p2align 4,,15
 568              		.global	spi_lld_unselect
 569              		.syntax unified
 570              		.thumb
ARM GAS  /tmp/ccJdBRGL.s 			page 11


 571              		.thumb_func
 572              		.fpu fpv4-sp-d16
 573              		.type	spi_lld_unselect, %function
 574              	spi_lld_unselect:
 575              	.LFB262:
 576              		.loc 1 499 0
 577              		.cfi_startproc
 578              		@ args = 0, pretend = 0, frame = 0
 579              		@ frame_needed = 0, uses_anonymous_args = 0
 580              		@ link register save eliminated.
 581              	.LVL35:
 582              		.loc 1 501 0
 583 0000 4268     		ldr	r2, [r0, #4]
 584 0002 1189     		ldrh	r1, [r2, #8]
 585 0004 5268     		ldr	r2, [r2, #4]
 586 0006 0123     		movs	r3, #1
 587 0008 8B40     		lsls	r3, r3, r1
 588 000a 9BB2     		uxth	r3, r3
 589 000c 1383     		strh	r3, [r2, #24]	@ movhi
 590              		.loc 1 502 0
 591 000e 7047     		bx	lr
 592              		.cfi_endproc
 593              	.LFE262:
 594              		.size	spi_lld_unselect, .-spi_lld_unselect
 595              		.section	.text.spi_lld_ignore,"ax",%progbits
 596              		.align	1
 597              		.p2align 4,,15
 598              		.global	spi_lld_ignore
 599              		.syntax unified
 600              		.thumb
 601              		.thumb_func
 602              		.fpu fpv4-sp-d16
 603              		.type	spi_lld_ignore, %function
 604              	spi_lld_ignore:
 605              	.LFB263:
 606              		.loc 1 515 0
 607              		.cfi_startproc
 608              		@ args = 0, pretend = 0, frame = 0
 609              		@ frame_needed = 0, uses_anonymous_args = 0
 610              		@ link register save eliminated.
 611              	.LVL36:
 612              		.loc 1 521 0
 613 0000 D0E90823 		ldrd	r2, r3, [r0, #32]
 614              		.loc 1 515 0
 615 0004 30B4     		push	{r4, r5}
 616              		.cfi_def_cfa_offset 8
 617              		.cfi_offset 4, -8
 618              		.cfi_offset 5, -4
 619              		.loc 1 517 0
 620 0006 1268     		ldr	r2, [r2]
 621              		.loc 1 521 0
 622 0008 1B68     		ldr	r3, [r3]
 623              		.loc 1 517 0
 624 000a 0A4C     		ldr	r4, .L60
 625              		.loc 1 523 0
 626 000c D0E90A50 		ldrd	r5, r0, [r0, #40]
 627              	.LVL37:
ARM GAS  /tmp/ccJdBRGL.s 			page 12


 628              		.loc 1 517 0
 629 0010 D460     		str	r4, [r2, #12]
 630              		.loc 1 521 0
 631 0012 094C     		ldr	r4, .L60+4
 632              		.loc 1 518 0
 633 0014 5160     		str	r1, [r2, #4]
 634              		.loc 1 519 0
 635 0016 1560     		str	r5, [r2]
 636              		.loc 1 521 0
 637 0018 DC60     		str	r4, [r3, #12]
 638              		.loc 1 522 0
 639 001a 5960     		str	r1, [r3, #4]
 640              		.loc 1 523 0
 641 001c 1860     		str	r0, [r3]
 642              		.loc 1 525 0
 643 001e 1168     		ldr	r1, [r2]
 644              	.LVL38:
 645 0020 41F00101 		orr	r1, r1, #1
 646 0024 1160     		str	r1, [r2]
 647              		.loc 1 526 0
 648 0026 1A68     		ldr	r2, [r3]
 649 0028 42F00102 		orr	r2, r2, #1
 650 002c 1A60     		str	r2, [r3]
 651              		.loc 1 527 0
 652 002e 30BC     		pop	{r4, r5}
 653              		.cfi_restore 5
 654              		.cfi_restore 4
 655              		.cfi_def_cfa_offset 0
 656 0030 7047     		bx	lr
 657              	.L61:
 658 0032 00BF     		.align	2
 659              	.L60:
 660 0034 00000000 		.word	.LANCHOR3
 661 0038 00000000 		.word	.LANCHOR0
 662              		.cfi_endproc
 663              	.LFE263:
 664              		.size	spi_lld_ignore, .-spi_lld_ignore
 665              		.section	.text.spi_lld_exchange,"ax",%progbits
 666              		.align	1
 667              		.p2align 4,,15
 668              		.global	spi_lld_exchange
 669              		.syntax unified
 670              		.thumb
 671              		.thumb_func
 672              		.fpu fpv4-sp-d16
 673              		.type	spi_lld_exchange, %function
 674              	spi_lld_exchange:
 675              	.LFB264:
 676              		.loc 1 545 0
 677              		.cfi_startproc
 678              		@ args = 0, pretend = 0, frame = 0
 679              		@ frame_needed = 0, uses_anonymous_args = 0
 680              		@ link register save eliminated.
 681              	.LVL39:
 682 0000 70B4     		push	{r4, r5, r6}
 683              		.cfi_def_cfa_offset 12
 684              		.cfi_offset 4, -12
ARM GAS  /tmp/ccJdBRGL.s 			page 13


 685              		.cfi_offset 5, -8
 686              		.cfi_offset 6, -4
 687              		.loc 1 551 0
 688 0002 D0E90854 		ldrd	r5, r4, [r0, #32]
 689              		.loc 1 553 0
 690 0006 D0E90A60 		ldrd	r6, r0, [r0, #40]
 691              	.LVL40:
 692              		.loc 1 547 0
 693 000a 2D68     		ldr	r5, [r5]
 694              		.loc 1 551 0
 695 000c 2468     		ldr	r4, [r4]
 696              		.loc 1 547 0
 697 000e EB60     		str	r3, [r5, #12]
 698              		.loc 1 549 0
 699 0010 46F48066 		orr	r6, r6, #1024
 700              		.loc 1 553 0
 701 0014 40F48060 		orr	r0, r0, #1024
 702              		.loc 1 548 0
 703 0018 6960     		str	r1, [r5, #4]
 704              		.loc 1 549 0
 705 001a 2E60     		str	r6, [r5]
 706              		.loc 1 551 0
 707 001c E260     		str	r2, [r4, #12]
 708              		.loc 1 552 0
 709 001e 6160     		str	r1, [r4, #4]
 710              		.loc 1 553 0
 711 0020 2060     		str	r0, [r4]
 712              		.loc 1 555 0
 713 0022 2B68     		ldr	r3, [r5]
 714              	.LVL41:
 715 0024 43F00103 		orr	r3, r3, #1
 716 0028 2B60     		str	r3, [r5]
 717              		.loc 1 556 0
 718 002a 2368     		ldr	r3, [r4]
 719 002c 43F00103 		orr	r3, r3, #1
 720 0030 2360     		str	r3, [r4]
 721              		.loc 1 557 0
 722 0032 70BC     		pop	{r4, r5, r6}
 723              		.cfi_restore 6
 724              		.cfi_restore 5
 725              		.cfi_restore 4
 726              		.cfi_def_cfa_offset 0
 727 0034 7047     		bx	lr
 728              		.cfi_endproc
 729              	.LFE264:
 730              		.size	spi_lld_exchange, .-spi_lld_exchange
 731 0036 00BF     		.section	.text.spi_lld_send,"ax",%progbits
 732              		.align	1
 733              		.p2align 4,,15
 734              		.global	spi_lld_send
 735              		.syntax unified
 736              		.thumb
 737              		.thumb_func
 738              		.fpu fpv4-sp-d16
 739              		.type	spi_lld_send, %function
 740              	spi_lld_send:
 741              	.LFB265:
ARM GAS  /tmp/ccJdBRGL.s 			page 14


 742              		.loc 1 572 0
 743              		.cfi_startproc
 744              		@ args = 0, pretend = 0, frame = 0
 745              		@ frame_needed = 0, uses_anonymous_args = 0
 746              		@ link register save eliminated.
 747              	.LVL42:
 748 0000 70B4     		push	{r4, r5, r6}
 749              		.cfi_def_cfa_offset 12
 750              		.cfi_offset 4, -12
 751              		.cfi_offset 5, -8
 752              		.cfi_offset 6, -4
 753              		.loc 1 578 0
 754 0002 D0E90843 		ldrd	r4, r3, [r0, #32]
 755              		.loc 1 580 0
 756 0006 C56A     		ldr	r5, [r0, #44]
 757              		.loc 1 574 0
 758 0008 2468     		ldr	r4, [r4]
 759              		.loc 1 578 0
 760 000a 1B68     		ldr	r3, [r3]
 761              		.loc 1 576 0
 762 000c 806A     		ldr	r0, [r0, #40]
 763              	.LVL43:
 764              		.loc 1 574 0
 765 000e 094E     		ldr	r6, .L66
 766 0010 E660     		str	r6, [r4, #12]
 767              		.loc 1 580 0
 768 0012 45F48065 		orr	r5, r5, #1024
 769              		.loc 1 575 0
 770 0016 6160     		str	r1, [r4, #4]
 771              		.loc 1 576 0
 772 0018 2060     		str	r0, [r4]
 773              		.loc 1 578 0
 774 001a DA60     		str	r2, [r3, #12]
 775              		.loc 1 579 0
 776 001c 5960     		str	r1, [r3, #4]
 777              		.loc 1 580 0
 778 001e 1D60     		str	r5, [r3]
 779              		.loc 1 582 0
 780 0020 2268     		ldr	r2, [r4]
 781              	.LVL44:
 782 0022 42F00102 		orr	r2, r2, #1
 783 0026 2260     		str	r2, [r4]
 784              		.loc 1 583 0
 785 0028 1A68     		ldr	r2, [r3]
 786 002a 42F00102 		orr	r2, r2, #1
 787 002e 1A60     		str	r2, [r3]
 788              		.loc 1 584 0
 789 0030 70BC     		pop	{r4, r5, r6}
 790              		.cfi_restore 6
 791              		.cfi_restore 5
 792              		.cfi_restore 4
 793              		.cfi_def_cfa_offset 0
 794 0032 7047     		bx	lr
 795              	.L67:
 796              		.align	2
 797              	.L66:
 798 0034 00000000 		.word	.LANCHOR3
ARM GAS  /tmp/ccJdBRGL.s 			page 15


 799              		.cfi_endproc
 800              	.LFE265:
 801              		.size	spi_lld_send, .-spi_lld_send
 802              		.section	.text.spi_lld_receive,"ax",%progbits
 803              		.align	1
 804              		.p2align 4,,15
 805              		.global	spi_lld_receive
 806              		.syntax unified
 807              		.thumb
 808              		.thumb_func
 809              		.fpu fpv4-sp-d16
 810              		.type	spi_lld_receive, %function
 811              	spi_lld_receive:
 812              	.LFB266:
 813              		.loc 1 599 0
 814              		.cfi_startproc
 815              		@ args = 0, pretend = 0, frame = 0
 816              		@ frame_needed = 0, uses_anonymous_args = 0
 817              		@ link register save eliminated.
 818              	.LVL45:
 819 0000 30B4     		push	{r4, r5}
 820              		.cfi_def_cfa_offset 8
 821              		.cfi_offset 4, -8
 822              		.cfi_offset 5, -4
 823              		.loc 1 605 0
 824 0002 D0E90843 		ldrd	r4, r3, [r0, #32]
 825              		.loc 1 603 0
 826 0006 856A     		ldr	r5, [r0, #40]
 827              		.loc 1 601 0
 828 0008 2468     		ldr	r4, [r4]
 829              		.loc 1 605 0
 830 000a 1B68     		ldr	r3, [r3]
 831              		.loc 1 607 0
 832 000c C06A     		ldr	r0, [r0, #44]
 833              	.LVL46:
 834              		.loc 1 601 0
 835 000e E260     		str	r2, [r4, #12]
 836              		.loc 1 603 0
 837 0010 45F48065 		orr	r5, r5, #1024
 838              		.loc 1 605 0
 839 0014 074A     		ldr	r2, .L70
 840              	.LVL47:
 841              		.loc 1 602 0
 842 0016 6160     		str	r1, [r4, #4]
 843              	.LVL48:
 844              		.loc 1 603 0
 845 0018 2560     		str	r5, [r4]
 846              		.loc 1 605 0
 847 001a DA60     		str	r2, [r3, #12]
 848              		.loc 1 606 0
 849 001c 5960     		str	r1, [r3, #4]
 850              		.loc 1 607 0
 851 001e 1860     		str	r0, [r3]
 852              		.loc 1 609 0
 853 0020 2268     		ldr	r2, [r4]
 854 0022 42F00102 		orr	r2, r2, #1
 855 0026 2260     		str	r2, [r4]
ARM GAS  /tmp/ccJdBRGL.s 			page 16


 856              		.loc 1 610 0
 857 0028 1A68     		ldr	r2, [r3]
 858 002a 42F00102 		orr	r2, r2, #1
 859 002e 1A60     		str	r2, [r3]
 860              		.loc 1 611 0
 861 0030 30BC     		pop	{r4, r5}
 862              		.cfi_restore 5
 863              		.cfi_restore 4
 864              		.cfi_def_cfa_offset 0
 865 0032 7047     		bx	lr
 866              	.L71:
 867              		.align	2
 868              	.L70:
 869 0034 00000000 		.word	.LANCHOR0
 870              		.cfi_endproc
 871              	.LFE266:
 872              		.size	spi_lld_receive, .-spi_lld_receive
 873              		.section	.text.spi_lld_polled_exchange,"ax",%progbits
 874              		.align	1
 875              		.p2align 4,,15
 876              		.global	spi_lld_polled_exchange
 877              		.syntax unified
 878              		.thumb
 879              		.thumb_func
 880              		.fpu fpv4-sp-d16
 881              		.type	spi_lld_polled_exchange, %function
 882              	spi_lld_polled_exchange:
 883              	.LFB267:
 884              		.loc 1 625 0
 885              		.cfi_startproc
 886              		@ args = 0, pretend = 0, frame = 0
 887              		@ frame_needed = 0, uses_anonymous_args = 0
 888              		@ link register save eliminated.
 889              	.LVL49:
 890              		.loc 1 627 0
 891 0000 C269     		ldr	r2, [r0, #28]
 892 0002 D160     		str	r1, [r2, #12]
 893              	.L73:
 894              		.loc 1 628 0 discriminator 1
 895 0004 9368     		ldr	r3, [r2, #8]
 896 0006 DB07     		lsls	r3, r3, #31
 897 0008 FCD5     		bpl	.L73
 898              		.loc 1 630 0
 899 000a D068     		ldr	r0, [r2, #12]
 900              	.LVL50:
 901              		.loc 1 631 0
 902 000c 80B2     		uxth	r0, r0
 903 000e 7047     		bx	lr
 904              		.cfi_endproc
 905              	.LFE267:
 906              		.size	spi_lld_polled_exchange, .-spi_lld_polled_exchange
 907              		.global	SPID3
 908              		.global	SPID1
 909              		.section	.bss.SPID1,"aw",%nobits
 910              		.align	2
 911              		.set	.LANCHOR1,. + 0
 912              		.type	SPID1, %object
ARM GAS  /tmp/ccJdBRGL.s 			page 17


 913              		.size	SPID1, 48
 914              	SPID1:
 915 0000 00000000 		.space	48
 915      00000000 
 915      00000000 
 915      00000000 
 915      00000000 
 916              		.section	.bss.SPID3,"aw",%nobits
 917              		.align	2
 918              		.set	.LANCHOR2,. + 0
 919              		.type	SPID3, %object
 920              		.size	SPID3, 48
 921              	SPID3:
 922 0000 00000000 		.space	48
 922      00000000 
 922      00000000 
 922      00000000 
 922      00000000 
 923              		.section	.bss.dummyrx,"aw",%nobits
 924              		.align	1
 925              		.set	.LANCHOR3,. + 0
 926              		.type	dummyrx, %object
 927              		.size	dummyrx, 2
 928              	dummyrx:
 929 0000 0000     		.space	2
 930              		.section	.bss.dummytx,"aw",%nobits
 931              		.align	1
 932              		.set	.LANCHOR0,. + 0
 933              		.type	dummytx, %object
 934              		.size	dummytx, 2
 935              	dummytx:
 936 0000 0000     		.space	2
 937              		.section	.rodata.spi_lld_serve_tx_interrupt.str1.4,"aMS",%progbits,1
 938              		.align	2
 939              	.LC0:
 940 0000 444D4120 		.ascii	"DMA failure\000"
 940      6661696C 
 940      75726500 
 941              		.text
 942              	.Letext0:
 943              		.file 4 "/usr/lib/gcc/arm-none-eabi/7.3.1/include/stddef.h"
 944              		.file 5 "/usr/arm-none-eabi/include/machine/_default_types.h"
 945              		.file 6 "/usr/arm-none-eabi/include/sys/_stdint.h"
 946              		.file 7 "ChibiOS_3.0.5/os/rt/ports/ARMCMx/compilers/GCC/chtypes.h"
 947              		.file 8 "ChibiOS_3.0.5/os/rt/include/chsystypes.h"
 948              		.file 9 "ChibiOS_3.0.5/os/rt/include/chschd.h"
 949              		.file 10 "ChibiOS_3.0.5/os/ext/CMSIS/include/core_cm4.h"
 950              		.file 11 "ChibiOS_3.0.5/os/ext/CMSIS/ST/system_stm32f4xx.h"
 951              		.file 12 "ChibiOS_3.0.5/os/ext/CMSIS/ST/stm32f407xx.h"
 952              		.file 13 "ChibiOS_3.0.5/os/rt/ports/ARMCMx/chcore.h"
 953              		.file 14 "ChibiOS_3.0.5/os/rt/ports/ARMCMx/chcore_v7m.h"
 954              		.file 15 "ChibiOS_3.0.5/os/rt/include/chtm.h"
 955              		.file 16 "ChibiOS_3.0.5/os/rt/include/chsem.h"
 956              		.file 17 "ChibiOS_3.0.5/os/rt/include/chmtx.h"
 957              		.file 18 "ChibiOS_3.0.5/os/rt/include/chregistry.h"
 958              		.file 19 "ChibiOS_3.0.5/os/rt/include/chevents.h"
 959              		.file 20 "ChibiOS_3.0.5/os/rt/include/chqueues.h"
ARM GAS  /tmp/ccJdBRGL.s 			page 18


 960              		.file 21 "./datatypes.h"
 961              		.file 22 "./conf_general.h"
 962              		.file 23 "ChibiOS_3.0.5/os/hal/ports/STM32/STM32F4xx/stm32_dma.h"
 963              		.file 24 "ChibiOS_3.0.5/os/hal/ports/STM32/LLD/GPIOv2/pal_lld.h"
 964              		.file 25 "ChibiOS_3.0.5/os/hal/include/can.h"
 965              		.file 26 "ChibiOS_3.0.5/os/hal/ports/STM32/LLD/can_lld.h"
 966              		.file 27 "ChibiOS_3.0.5/os/hal/include/i2c.h"
 967              		.file 28 "ChibiOS_3.0.5/os/hal/ports/STM32/LLD/I2Cv1/i2c_lld.h"
 968              		.file 29 "ChibiOS_3.0.5/os/hal/include/icu.h"
 969              		.file 30 "ChibiOS_3.0.5/os/hal/ports/STM32/LLD/TIMv1/icu_lld.h"
 970              		.file 31 "ChibiOS_3.0.5/os/hal/ports/STM32/LLD/TIMv1/stm32_tim.h"
 971              		.file 32 "ChibiOS_3.0.5/os/hal/include/serial.h"
 972              		.file 33 "ChibiOS_3.0.5/os/hal/ports/STM32/LLD/USARTv1/serial_lld.h"
 973              		.file 34 "ChibiOS_3.0.5/os/hal/include/spi.h"
 974              		.file 35 "ChibiOS_3.0.5/os/hal/ports/STM32/LLD/SPIv1/spi_lld.h"
 975              		.file 36 "ChibiOS_3.0.5/os/hal/include/usb.h"
 976              		.file 37 "ChibiOS_3.0.5/os/hal/ports/STM32/LLD/OTGv1/usb_lld.h"
 977              		.file 38 "ChibiOS_3.0.5/os/hal/ports/STM32/LLD/OTGv1/stm32_otg.h"
 978              		.file 39 "ChibiOS_3.0.5/os/rt/include/chsys.h"
 979              		.file 40 "ChibiOS_3.0.5/os/rt/include/chthreads.h"