ARM GAS  /tmp/ccgbc1XE.s 			page 1


   1              		.cpu cortex-m4
   2              		.eabi_attribute 27, 1
   3              		.eabi_attribute 28, 1
   4              		.eabi_attribute 20, 1
   5              		.eabi_attribute 21, 1
   6              		.eabi_attribute 23, 3
   7              		.eabi_attribute 24, 1
   8              		.eabi_attribute 25, 1
   9              		.eabi_attribute 26, 1
  10              		.eabi_attribute 30, 2
  11              		.eabi_attribute 34, 1
  12              		.eabi_attribute 18, 4
  13              		.file	"spi_bb.c"
  14              		.text
  15              	.Ltext0:
  16              		.cfi_sections	.debug_frame
  17              		.section	.text.spi_bb_init,"ax",%progbits
  18              		.align	1
  19              		.p2align 4,,15
  20              		.global	spi_bb_init
  21              		.syntax unified
  22              		.thumb
  23              		.thumb_func
  24              		.fpu fpv4-sp-d16
  25              		.type	spi_bb_init, %function
  26              	spi_bb_init:
  27              	.LFB256:
  28              		.file 1 "spi_bb.c"
  29              		.loc 1 25 0
  30              		.cfi_startproc
  31              		@ args = 0, pretend = 0, frame = 0
  32              		@ frame_needed = 0, uses_anonymous_args = 0
  33              	.LVL0:
  34 0000 38B5     		push	{r3, r4, r5, lr}
  35              		.cfi_def_cfa_offset 16
  36              		.cfi_offset 3, -16
  37              		.cfi_offset 4, -12
  38              		.cfi_offset 5, -8
  39              		.cfi_offset 14, -4
  40              		.loc 1 25 0
  41 0002 0446     		mov	r4, r0
  42              		.loc 1 26 0
  43 0004 2430     		adds	r0, r0, #36
  44              	.LVL1:
  45 0006 FFF7FEFF 		bl	chMtxObjectInit
  46              	.LVL2:
  47              		.loc 1 28 0
  48 000a D4E90601 		ldrd	r0, r1, [r4, #24]
  49 000e 0125     		movs	r5, #1
  50 0010 05FA01F1 		lsl	r1, r5, r1
  51 0014 2022     		movs	r2, #32
  52 0016 FFF7FEFF 		bl	_pal_lld_setgroupmode
  53              	.LVL3:
  54              		.loc 1 29 0
  55 001a D4E90201 		ldrd	r0, r1, [r4, #8]
  56 001e 1922     		movs	r2, #25
  57 0020 05FA01F1 		lsl	r1, r5, r1
ARM GAS  /tmp/ccgbc1XE.s 			page 2


  58 0024 FFF7FEFF 		bl	_pal_lld_setgroupmode
  59              	.LVL4:
  60              		.loc 1 30 0
  61 0028 D4E90001 		ldrd	r0, r1, [r4]
  62 002c 1922     		movs	r2, #25
  63 002e 05FA01F1 		lsl	r1, r5, r1
  64 0032 FFF7FEFF 		bl	_pal_lld_setgroupmode
  65              	.LVL5:
  66              		.loc 1 31 0
  67 0036 D4E90401 		ldrd	r0, r1, [r4, #16]
  68 003a 1922     		movs	r2, #25
  69 003c 05FA01F1 		lsl	r1, r5, r1
  70 0040 FFF7FEFF 		bl	_pal_lld_setgroupmode
  71              	.LVL6:
  72              		.loc 1 33 0
  73 0044 6168     		ldr	r1, [r4, #4]
  74              		.loc 1 32 0
  75 0046 6369     		ldr	r3, [r4, #20]
  76 0048 2269     		ldr	r2, [r4, #16]
  77              		.loc 1 33 0
  78 004a 2068     		ldr	r0, [r4]
  79              		.loc 1 32 0
  80 004c 05FA03F3 		lsl	r3, r5, r3
  81              		.loc 1 33 0
  82 0050 8D40     		lsls	r5, r5, r1
  83              		.loc 1 32 0
  84 0052 9BB2     		uxth	r3, r3
  85              		.loc 1 35 0
  86 0054 0021     		movs	r1, #0
  87              		.loc 1 33 0
  88 0056 ADB2     		uxth	r5, r5
  89              		.loc 1 32 0
  90 0058 1383     		strh	r3, [r2, #24]	@ movhi
  91              		.loc 1 33 0
  92 005a 0583     		strh	r5, [r0, #24]	@ movhi
  93              		.loc 1 35 0
  94 005c 84F82010 		strb	r1, [r4, #32]
  95              		.loc 1 36 0
  96 0060 84F82110 		strb	r1, [r4, #33]
  97              		.loc 1 37 0
  98 0064 38BD     		pop	{r3, r4, r5, pc}
  99              		.cfi_endproc
 100              	.LFE256:
 101              		.size	spi_bb_init, .-spi_bb_init
 102 0066 00BF     		.section	.text.spi_bb_transfer_8,"ax",%progbits
 103              		.align	1
 104              		.p2align 4,,15
 105              		.global	spi_bb_transfer_8
 106              		.syntax unified
 107              		.thumb
 108              		.thumb_func
 109              		.fpu fpv4-sp-d16
 110              		.type	spi_bb_transfer_8, %function
 111              	spi_bb_transfer_8:
 112              	.LFB258:
 113              		.loc 1 46 0
 114              		.cfi_startproc
ARM GAS  /tmp/ccgbc1XE.s 			page 3


 115              		@ args = 0, pretend = 0, frame = 16
 116              		@ frame_needed = 0, uses_anonymous_args = 0
 117              	.LVL7:
 118 0000 2DE9F04F 		push	{r4, r5, r6, r7, r8, r9, r10, fp, lr}
 119              		.cfi_def_cfa_offset 36
 120              		.cfi_offset 4, -36
 121              		.cfi_offset 5, -32
 122              		.cfi_offset 6, -28
 123              		.cfi_offset 7, -24
 124              		.cfi_offset 8, -20
 125              		.cfi_offset 9, -16
 126              		.cfi_offset 10, -12
 127              		.cfi_offset 11, -8
 128              		.cfi_offset 14, -4
 129 0004 85B0     		sub	sp, sp, #20
 130              		.cfi_def_cfa_offset 56
 131              	.LBB59:
 132              		.loc 1 47 0
 133 0006 002B     		cmp	r3, #0
 134 0008 0193     		str	r3, [sp, #4]
 135 000a 7EDD     		ble	.L4
 136 000c 4FF0000C 		mov	ip, #0
 137 0010 8846     		mov	r8, r1
 138 0012 9646     		mov	lr, r2
 139              	.LBB60:
 140              		.loc 1 48 0
 141 0014 6646     		mov	r6, ip
 142              	.LVL8:
 143              	.L14:
 144 0016 BEF1000F 		cmp	lr, #0
 145 001a 79D0     		beq	.L15
 146              		.loc 1 48 0 is_stmt 0 discriminator 1
 147 001c 1EF80C40 		ldrb	r4, [lr, ip]	@ zero_extendqisi2
 148              	.L6:
 149              		.loc 1 48 0
 150 0020 0827     		movs	r7, #8
 151 0022 0021     		movs	r1, #0
 152              	.L12:
 153              	.LVL9:
 154              	.LBB61:
 155              	.LBB62:
 156              		.loc 1 52 0 is_stmt 1
 157 0024 4369     		ldr	r3, [r0, #20]
 158 0026 0569     		ldr	r5, [r0, #16]
 159 0028 E209     		lsrs	r2, r4, #7
 160 002a 02FA03FA 		lsl	r10, r2, r3
 161 002e 03F11009 		add	r9, r3, #16
 162 0032 82F00102 		eor	r2, r2, #1
 163              		.loc 1 55 0
 164 0036 C368     		ldr	r3, [r0, #12]
 165              		.loc 1 52 0
 166 0038 02FA09F9 		lsl	r9, r2, r9
 167              		.loc 1 55 0
 168 003c 0122     		movs	r2, #1
 169 003e 02FA03F3 		lsl	r3, r2, r3
 170 0042 8268     		ldr	r2, [r0, #8]
 171 0044 9BB2     		uxth	r3, r3
ARM GAS  /tmp/ccgbc1XE.s 			page 4


 172              		.loc 1 52 0
 173 0046 49EA0A09 		orr	r9, r9, r10
 174 004a C5F81890 		str	r9, [r5, #24]
 175              		.loc 1 55 0
 176 004e 1383     		strh	r3, [r2, #24]	@ movhi
 177              	.LBB63:
 178              	.LBB64:
 179              		.loc 1 99 0
 180 0050 0296     		str	r6, [sp, #8]
 181 0052 029B     		ldr	r3, [sp, #8]
 182              	.LBE64:
 183              	.LBE63:
 184              		.loc 1 53 0
 185 0054 6400     		lsls	r4, r4, #1
 186              	.LVL10:
 187              	.LBB69:
 188              	.LBB67:
 189              		.loc 1 99 0
 190 0056 052B     		cmp	r3, #5
 191              	.LBE67:
 192              	.LBE69:
 193              		.loc 1 53 0
 194 0058 E4B2     		uxtb	r4, r4
 195              	.LVL11:
 196              	.LBB70:
 197              	.LBB68:
 198              		.loc 1 99 0
 199 005a 06DC     		bgt	.L7
 200              	.L8:
 201              	.LBB65:
 202              	.LBB66:
 203              		.file 2 "ChibiOS_3.0.5/os/ext/CMSIS/include/core_cmInstr.h"
 204              		.loc 2 327 0
 205              		.syntax unified
 206              	@ 327 "ChibiOS_3.0.5/os/ext/CMSIS/include/core_cmInstr.h" 1
 207 005c 00BF     		nop
 208              	@ 0 "" 2
 209              		.thumb
 210              		.syntax unified
 211              	.LBE66:
 212              	.LBE65:
 213              		.loc 1 99 0
 214 005e 029B     		ldr	r3, [sp, #8]
 215 0060 0133     		adds	r3, r3, #1
 216 0062 0293     		str	r3, [sp, #8]
 217 0064 029B     		ldr	r3, [sp, #8]
 218 0066 052B     		cmp	r3, #5
 219 0068 F8DD     		ble	.L8
 220              	.L7:
 221              	.LVL12:
 222              	.LBE68:
 223              	.LBE70:
 224              		.loc 1 59 0
 225 006a D0E90623 		ldrd	r2, r3, [r0, #24]
 226 006e 1269     		ldr	r2, [r2, #16]
 227 0070 22FA03F3 		lsr	r3, r2, r3
 228 0074 03F0010B 		and	fp, r3, #1
ARM GAS  /tmp/ccgbc1XE.s 			page 5


 229              	.LVL13:
 230              	.LBB71:
 231              	.LBB72:
 232              		.loc 2 327 0
 233              		.syntax unified
 234              	@ 327 "ChibiOS_3.0.5/os/ext/CMSIS/include/core_cmInstr.h" 1
 235 0078 00BF     		nop
 236              	@ 0 "" 2
 237              		.thumb
 238              		.syntax unified
 239              	.LBE72:
 240              	.LBE71:
 241              		.loc 1 61 0
 242 007a D0E90623 		ldrd	r2, r3, [r0, #24]
 243 007e 1269     		ldr	r2, [r2, #16]
 244 0080 22FA03F9 		lsr	r9, r2, r3
 245 0084 09F00109 		and	r9, r9, #1
 246 0088 09EB0B0A 		add	r10, r9, fp
 247              	.LVL14:
 248              	.LBB73:
 249              	.LBB74:
 250              		.loc 2 327 0
 251              		.syntax unified
 252              	@ 327 "ChibiOS_3.0.5/os/ext/CMSIS/include/core_cmInstr.h" 1
 253 008c 00BF     		nop
 254              	@ 0 "" 2
 255              		.thumb
 256              		.syntax unified
 257              	.LBE74:
 258              	.LBE73:
 259              		.loc 1 63 0
 260 008e D0E90623 		ldrd	r2, r3, [r0, #24]
 261 0092 1269     		ldr	r2, [r2, #16]
 262 0094 22FA03F9 		lsr	r9, r2, r3
 263 0098 09F00109 		and	r9, r9, #1
 264 009c D144     		add	r9, r9, r10
 265              	.LVL15:
 266              	.LBB75:
 267              	.LBB76:
 268              		.loc 2 327 0
 269              		.syntax unified
 270              	@ 327 "ChibiOS_3.0.5/os/ext/CMSIS/include/core_cmInstr.h" 1
 271 009e 00BF     		nop
 272              	@ 0 "" 2
 273              		.thumb
 274              		.syntax unified
 275              	.LBE76:
 276              	.LBE75:
 277              		.loc 1 65 0
 278 00a0 D0E90623 		ldrd	r2, r3, [r0, #24]
 279 00a4 1269     		ldr	r2, [r2, #16]
 280 00a6 22FA03F3 		lsr	r3, r2, r3
 281 00aa 03F00103 		and	r3, r3, #1
 282 00ae 9944     		add	r9, r9, r3
 283              	.LVL16:
 284              	.LBB77:
 285              	.LBB78:
ARM GAS  /tmp/ccgbc1XE.s 			page 6


 286              		.loc 2 327 0
 287              		.syntax unified
 288              	@ 327 "ChibiOS_3.0.5/os/ext/CMSIS/include/core_cmInstr.h" 1
 289 00b0 00BF     		nop
 290              	@ 0 "" 2
 291              		.thumb
 292              		.syntax unified
 293              	.LBE78:
 294              	.LBE77:
 295              		.loc 1 67 0
 296 00b2 8369     		ldr	r3, [r0, #24]
 297 00b4 C569     		ldr	r5, [r0, #28]
 298 00b6 1A69     		ldr	r2, [r3, #16]
 299              		.loc 1 69 0
 300 00b8 C368     		ldr	r3, [r0, #12]
 301              		.loc 1 67 0
 302 00ba EA40     		lsrs	r2, r2, r5
 303 00bc 02F0010A 		and	r10, r2, #1
 304              		.loc 1 69 0
 305 00c0 0122     		movs	r2, #1
 306 00c2 02FA03F3 		lsl	r3, r2, r3
 307 00c6 8268     		ldr	r2, [r0, #8]
 308 00c8 9BB2     		uxth	r3, r3
 309 00ca 5383     		strh	r3, [r2, #26]	@ movhi
 310              	.LBB79:
 311              	.LBB80:
 312              		.loc 1 99 0
 313 00cc 0396     		str	r6, [sp, #12]
 314              	.LBE80:
 315              	.LBE79:
 316              		.loc 1 72 0
 317 00ce 4900     		lsls	r1, r1, #1
 318              	.LVL17:
 319              		.loc 1 67 0
 320 00d0 D144     		add	r9, r9, r10
 321              	.LVL18:
 322              	.LBB85:
 323              	.LBB83:
 324              		.loc 1 99 0
 325 00d2 039B     		ldr	r3, [sp, #12]
 326              	.LBE83:
 327              	.LBE85:
 328              		.loc 1 73 0
 329 00d4 B9F1020F 		cmp	r9, #2
 330              		.loc 1 72 0
 331 00d8 C9B2     		uxtb	r1, r1
 332              	.LVL19:
 333              		.loc 1 74 0
 334 00da 88BF     		it	hi
 335 00dc 41F00101 		orrhi	r1, r1, #1
 336              	.LVL20:
 337              	.LBB86:
 338              	.LBB84:
 339              		.loc 1 99 0
 340 00e0 052B     		cmp	r3, #5
 341 00e2 06DC     		bgt	.L10
 342              	.L11:
ARM GAS  /tmp/ccgbc1XE.s 			page 7


 343              	.LBB81:
 344              	.LBB82:
 345              		.loc 2 327 0
 346              		.syntax unified
 347              	@ 327 "ChibiOS_3.0.5/os/ext/CMSIS/include/core_cmInstr.h" 1
 348 00e4 00BF     		nop
 349              	@ 0 "" 2
 350              		.thumb
 351              		.syntax unified
 352              	.LBE82:
 353              	.LBE81:
 354              		.loc 1 99 0
 355 00e6 039B     		ldr	r3, [sp, #12]
 356 00e8 0133     		adds	r3, r3, #1
 357 00ea 0393     		str	r3, [sp, #12]
 358 00ec 039B     		ldr	r3, [sp, #12]
 359 00ee 052B     		cmp	r3, #5
 360 00f0 F8DD     		ble	.L11
 361              	.L10:
 362              	.LVL21:
 363              	.LBE84:
 364              	.LBE86:
 365              	.LBE62:
 366              		.loc 1 51 0
 367 00f2 013F     		subs	r7, r7, #1
 368              	.LVL22:
 369 00f4 96D1     		bne	.L12
 370              	.LBE61:
 371              		.loc 1 80 0
 372 00f6 B8F1000F 		cmp	r8, #0
 373 00fa 01D0     		beq	.L13
 374              		.loc 1 81 0
 375 00fc 08F80C10 		strb	r1, [r8, ip]
 376              	.L13:
 377              	.LBE60:
 378              		.loc 1 47 0 discriminator 2
 379 0100 019B     		ldr	r3, [sp, #4]
 380 0102 0CF1010C 		add	ip, ip, #1
 381              	.LVL23:
 382 0106 6345     		cmp	r3, ip
 383 0108 85D1     		bne	.L14
 384              	.LVL24:
 385              	.L4:
 386              	.LBE59:
 387              		.loc 1 84 0
 388 010a 05B0     		add	sp, sp, #20
 389              		.cfi_remember_state
 390              		.cfi_def_cfa_offset 36
 391              		@ sp needed
 392 010c BDE8F08F 		pop	{r4, r5, r6, r7, r8, r9, r10, fp, pc}
 393              	.LVL25:
 394              	.L15:
 395              		.cfi_restore_state
 396              	.LBB88:
 397              	.LBB87:
 398              		.loc 1 48 0
 399 0110 FF24     		movs	r4, #255
ARM GAS  /tmp/ccgbc1XE.s 			page 8


 400 0112 85E7     		b	.L6
 401              	.LBE87:
 402              	.LBE88:
 403              		.cfi_endproc
 404              	.LFE258:
 405              		.size	spi_bb_transfer_8, .-spi_bb_transfer_8
 406              		.section	.text.spi_bb_exchange_8,"ax",%progbits
 407              		.align	1
 408              		.p2align 4,,15
 409              		.global	spi_bb_exchange_8
 410              		.syntax unified
 411              		.thumb
 412              		.thumb_func
 413              		.fpu fpv4-sp-d16
 414              		.type	spi_bb_exchange_8, %function
 415              	spi_bb_exchange_8:
 416              	.LFB257:
 417              		.loc 1 40 0
 418              		.cfi_startproc
 419              		@ args = 0, pretend = 0, frame = 16
 420              		@ frame_needed = 0, uses_anonymous_args = 0
 421              	.LVL26:
 422 0000 00B5     		push	{lr}
 423              		.cfi_def_cfa_offset 4
 424              		.cfi_offset 14, -4
 425 0002 85B0     		sub	sp, sp, #20
 426              		.cfi_def_cfa_offset 24
 427              		.loc 1 40 0
 428 0004 04AA     		add	r2, sp, #16
 429              		.loc 1 42 0
 430 0006 0123     		movs	r3, #1
 431              		.loc 1 40 0
 432 0008 02F8091D 		strb	r1, [r2, #-9]!
 433              		.loc 1 42 0
 434 000c 0DF10F01 		add	r1, sp, #15
 435              	.LVL27:
 436 0010 FFF7FEFF 		bl	spi_bb_transfer_8
 437              	.LVL28:
 438              		.loc 1 44 0
 439 0014 9DF80F00 		ldrb	r0, [sp, #15]	@ zero_extendqisi2
 440              	.LVL29:
 441 0018 05B0     		add	sp, sp, #20
 442              		.cfi_def_cfa_offset 4
 443              		@ sp needed
 444 001a 5DF804FB 		ldr	pc, [sp], #4
 445              		.cfi_endproc
 446              	.LFE257:
 447              		.size	spi_bb_exchange_8, .-spi_bb_exchange_8
 448 001e 00BF     		.section	.text.spi_bb_begin,"ax",%progbits
 449              		.align	1
 450              		.p2align 4,,15
 451              		.global	spi_bb_begin
 452              		.syntax unified
 453              		.thumb
 454              		.thumb_func
 455              		.fpu fpv4-sp-d16
 456              		.type	spi_bb_begin, %function
ARM GAS  /tmp/ccgbc1XE.s 			page 9


 457              	spi_bb_begin:
 458              	.LFB259:
 459              		.loc 1 86 0
 460              		.cfi_startproc
 461              		@ args = 0, pretend = 0, frame = 8
 462              		@ frame_needed = 0, uses_anonymous_args = 0
 463              		@ link register save eliminated.
 464              	.LVL30:
 465 0000 82B0     		sub	sp, sp, #8
 466              		.cfi_def_cfa_offset 8
 467              	.LBB89:
 468              	.LBB90:
 469              		.loc 1 99 0
 470 0002 0023     		movs	r3, #0
 471 0004 0193     		str	r3, [sp, #4]
 472 0006 019B     		ldr	r3, [sp, #4]
 473 0008 052B     		cmp	r3, #5
 474 000a 06DC     		bgt	.L27
 475              	.L28:
 476              	.LBB91:
 477              	.LBB92:
 478              		.loc 2 327 0
 479              		.syntax unified
 480              	@ 327 "ChibiOS_3.0.5/os/ext/CMSIS/include/core_cmInstr.h" 1
 481 000c 00BF     		nop
 482              	@ 0 "" 2
 483              		.thumb
 484              		.syntax unified
 485              	.LBE92:
 486              	.LBE91:
 487              		.loc 1 99 0
 488 000e 019B     		ldr	r3, [sp, #4]
 489 0010 0133     		adds	r3, r3, #1
 490 0012 0193     		str	r3, [sp, #4]
 491 0014 019B     		ldr	r3, [sp, #4]
 492 0016 052B     		cmp	r3, #5
 493 0018 F8DD     		ble	.L28
 494              	.L27:
 495              	.LBE90:
 496              	.LBE89:
 497              		.loc 1 88 0
 498 001a D0E90012 		ldrd	r1, r2, [r0]
 499 001e 0123     		movs	r3, #1
 500 0020 9340     		lsls	r3, r3, r2
 501 0022 9BB2     		uxth	r3, r3
 502              	.LBB93:
 503              	.LBB94:
 504              		.loc 1 99 0
 505 0024 0022     		movs	r2, #0
 506              	.LBE94:
 507              	.LBE93:
 508              		.loc 1 88 0
 509 0026 4B83     		strh	r3, [r1, #26]	@ movhi
 510              	.LBB98:
 511              	.LBB97:
 512              		.loc 1 99 0
 513 0028 0092     		str	r2, [sp]
ARM GAS  /tmp/ccgbc1XE.s 			page 10


 514 002a 009B     		ldr	r3, [sp]
 515 002c 052B     		cmp	r3, #5
 516 002e 06DC     		bgt	.L26
 517              	.L30:
 518              	.LBB95:
 519              	.LBB96:
 520              		.loc 2 327 0
 521              		.syntax unified
 522              	@ 327 "ChibiOS_3.0.5/os/ext/CMSIS/include/core_cmInstr.h" 1
 523 0030 00BF     		nop
 524              	@ 0 "" 2
 525              		.thumb
 526              		.syntax unified
 527              	.LBE96:
 528              	.LBE95:
 529              		.loc 1 99 0
 530 0032 009B     		ldr	r3, [sp]
 531 0034 0133     		adds	r3, r3, #1
 532 0036 0093     		str	r3, [sp]
 533 0038 009B     		ldr	r3, [sp]
 534 003a 052B     		cmp	r3, #5
 535 003c F8DD     		ble	.L30
 536              	.L26:
 537              	.LBE97:
 538              	.LBE98:
 539              		.loc 1 90 0
 540 003e 02B0     		add	sp, sp, #8
 541              		.cfi_def_cfa_offset 0
 542              		@ sp needed
 543 0040 7047     		bx	lr
 544              		.cfi_endproc
 545              	.LFE259:
 546              		.size	spi_bb_begin, .-spi_bb_begin
 547 0042 00BF     		.section	.text.spi_bb_end,"ax",%progbits
 548              		.align	1
 549              		.p2align 4,,15
 550              		.global	spi_bb_end
 551              		.syntax unified
 552              		.thumb
 553              		.thumb_func
 554              		.fpu fpv4-sp-d16
 555              		.type	spi_bb_end, %function
 556              	spi_bb_end:
 557              	.LFB260:
 558              		.loc 1 92 0
 559              		.cfi_startproc
 560              		@ args = 0, pretend = 0, frame = 8
 561              		@ frame_needed = 0, uses_anonymous_args = 0
 562              		@ link register save eliminated.
 563              	.LVL31:
 564 0000 82B0     		sub	sp, sp, #8
 565              		.cfi_def_cfa_offset 8
 566              	.LBB99:
 567              	.LBB100:
 568              		.loc 1 99 0
 569 0002 0023     		movs	r3, #0
 570 0004 0193     		str	r3, [sp, #4]
ARM GAS  /tmp/ccgbc1XE.s 			page 11


 571 0006 019B     		ldr	r3, [sp, #4]
 572 0008 052B     		cmp	r3, #5
 573 000a 06DC     		bgt	.L35
 574              	.L36:
 575              	.LBB101:
 576              	.LBB102:
 577              		.loc 2 327 0
 578              		.syntax unified
 579              	@ 327 "ChibiOS_3.0.5/os/ext/CMSIS/include/core_cmInstr.h" 1
 580 000c 00BF     		nop
 581              	@ 0 "" 2
 582              		.thumb
 583              		.syntax unified
 584              	.LBE102:
 585              	.LBE101:
 586              		.loc 1 99 0
 587 000e 019B     		ldr	r3, [sp, #4]
 588 0010 0133     		adds	r3, r3, #1
 589 0012 0193     		str	r3, [sp, #4]
 590 0014 019B     		ldr	r3, [sp, #4]
 591 0016 052B     		cmp	r3, #5
 592 0018 F8DD     		ble	.L36
 593              	.L35:
 594              	.LBE100:
 595              	.LBE99:
 596              		.loc 1 94 0
 597 001a D0E90012 		ldrd	r1, r2, [r0]
 598 001e 0123     		movs	r3, #1
 599 0020 9340     		lsls	r3, r3, r2
 600 0022 9BB2     		uxth	r3, r3
 601              	.LBB103:
 602              	.LBB104:
 603              		.loc 1 99 0
 604 0024 0022     		movs	r2, #0
 605              	.LBE104:
 606              	.LBE103:
 607              		.loc 1 94 0
 608 0026 0B83     		strh	r3, [r1, #24]	@ movhi
 609              	.LBB108:
 610              	.LBB107:
 611              		.loc 1 99 0
 612 0028 0092     		str	r2, [sp]
 613 002a 009B     		ldr	r3, [sp]
 614 002c 052B     		cmp	r3, #5
 615 002e 06DC     		bgt	.L34
 616              	.L38:
 617              	.LBB105:
 618              	.LBB106:
 619              		.loc 2 327 0
 620              		.syntax unified
 621              	@ 327 "ChibiOS_3.0.5/os/ext/CMSIS/include/core_cmInstr.h" 1
 622 0030 00BF     		nop
 623              	@ 0 "" 2
 624              		.thumb
 625              		.syntax unified
 626              	.LBE106:
 627              	.LBE105:
ARM GAS  /tmp/ccgbc1XE.s 			page 12


 628              		.loc 1 99 0
 629 0032 009B     		ldr	r3, [sp]
 630 0034 0133     		adds	r3, r3, #1
 631 0036 0093     		str	r3, [sp]
 632 0038 009B     		ldr	r3, [sp]
 633 003a 052B     		cmp	r3, #5
 634 003c F8DD     		ble	.L38
 635              	.L34:
 636              	.LBE107:
 637              	.LBE108:
 638              		.loc 1 96 0
 639 003e 02B0     		add	sp, sp, #8
 640              		.cfi_def_cfa_offset 0
 641              		@ sp needed
 642 0040 7047     		bx	lr
 643              		.cfi_endproc
 644              	.LFE260:
 645              		.size	spi_bb_end, .-spi_bb_end
 646 0042 00BF     		.section	.text.spi_bb_delay,"ax",%progbits
 647              		.align	1
 648              		.p2align 4,,15
 649              		.global	spi_bb_delay
 650              		.syntax unified
 651              		.thumb
 652              		.thumb_func
 653              		.fpu fpv4-sp-d16
 654              		.type	spi_bb_delay, %function
 655              	spi_bb_delay:
 656              	.LFB261:
 657              		.loc 1 98 0
 658              		.cfi_startproc
 659              		@ args = 0, pretend = 0, frame = 8
 660              		@ frame_needed = 0, uses_anonymous_args = 0
 661              		@ link register save eliminated.
 662 0000 82B0     		sub	sp, sp, #8
 663              		.cfi_def_cfa_offset 8
 664              	.LBB109:
 665              		.loc 1 99 0
 666 0002 0023     		movs	r3, #0
 667 0004 0193     		str	r3, [sp, #4]
 668 0006 019B     		ldr	r3, [sp, #4]
 669 0008 052B     		cmp	r3, #5
 670 000a 06DC     		bgt	.L42
 671              	.L44:
 672              	.LBB110:
 673              	.LBB111:
 674              		.loc 2 327 0
 675              		.syntax unified
 676              	@ 327 "ChibiOS_3.0.5/os/ext/CMSIS/include/core_cmInstr.h" 1
 677 000c 00BF     		nop
 678              	@ 0 "" 2
 679              		.thumb
 680              		.syntax unified
 681              	.LBE111:
 682              	.LBE110:
 683              		.loc 1 99 0
 684 000e 019B     		ldr	r3, [sp, #4]
ARM GAS  /tmp/ccgbc1XE.s 			page 13


 685 0010 0133     		adds	r3, r3, #1
 686 0012 0193     		str	r3, [sp, #4]
 687 0014 019B     		ldr	r3, [sp, #4]
 688 0016 052B     		cmp	r3, #5
 689 0018 F8DD     		ble	.L44
 690              	.L42:
 691              	.LBE109:
 692              		.loc 1 102 0
 693 001a 02B0     		add	sp, sp, #8
 694              		.cfi_def_cfa_offset 0
 695              		@ sp needed
 696 001c 7047     		bx	lr
 697              		.cfi_endproc
 698              	.LFE261:
 699              		.size	spi_bb_delay, .-spi_bb_delay
 700 001e 00BF     		.text
 701              	.Letext0:
 702              		.file 3 "/usr/lib/gcc/arm-none-eabi/7.3.1/include/stddef.h"
 703              		.file 4 "/usr/arm-none-eabi/include/machine/_default_types.h"
 704              		.file 5 "/usr/arm-none-eabi/include/sys/_stdint.h"
 705              		.file 6 "ChibiOS_3.0.5/os/rt/ports/ARMCMx/compilers/GCC/chtypes.h"
 706              		.file 7 "ChibiOS_3.0.5/os/rt/include/chsystypes.h"
 707              		.file 8 "ChibiOS_3.0.5/os/rt/include/chschd.h"
 708              		.file 9 "ChibiOS_3.0.5/os/ext/CMSIS/include/core_cm4.h"
 709              		.file 10 "ChibiOS_3.0.5/os/ext/CMSIS/ST/system_stm32f4xx.h"
 710              		.file 11 "ChibiOS_3.0.5/os/ext/CMSIS/ST/stm32f407xx.h"
 711              		.file 12 "ChibiOS_3.0.5/os/rt/ports/ARMCMx/chcore.h"
 712              		.file 13 "ChibiOS_3.0.5/os/rt/ports/ARMCMx/chcore_v7m.h"
 713              		.file 14 "ChibiOS_3.0.5/os/rt/include/chtm.h"
 714              		.file 15 "ChibiOS_3.0.5/os/rt/include/chsem.h"
 715              		.file 16 "ChibiOS_3.0.5/os/rt/include/chmtx.h"
 716              		.file 17 "ChibiOS_3.0.5/os/rt/include/chregistry.h"
 717              		.file 18 "ChibiOS_3.0.5/os/rt/include/chevents.h"
 718              		.file 19 "ChibiOS_3.0.5/os/rt/include/chqueues.h"
 719              		.file 20 "./datatypes.h"
 720              		.file 21 "./conf_general.h"
 721              		.file 22 "ChibiOS_3.0.5/os/hal/ports/STM32/STM32F4xx/stm32_dma.h"
 722              		.file 23 "ChibiOS_3.0.5/os/hal/ports/STM32/LLD/GPIOv2/pal_lld.h"
 723              		.file 24 "ChibiOS_3.0.5/os/hal/include/can.h"
 724              		.file 25 "ChibiOS_3.0.5/os/hal/ports/STM32/LLD/can_lld.h"
 725              		.file 26 "ChibiOS_3.0.5/os/hal/include/i2c.h"
 726              		.file 27 "ChibiOS_3.0.5/os/hal/ports/STM32/LLD/I2Cv1/i2c_lld.h"
 727              		.file 28 "ChibiOS_3.0.5/os/hal/include/icu.h"
 728              		.file 29 "ChibiOS_3.0.5/os/hal/ports/STM32/LLD/TIMv1/icu_lld.h"
 729              		.file 30 "ChibiOS_3.0.5/os/hal/ports/STM32/LLD/TIMv1/stm32_tim.h"
 730              		.file 31 "ChibiOS_3.0.5/os/hal/include/serial.h"
 731              		.file 32 "ChibiOS_3.0.5/os/hal/ports/STM32/LLD/USARTv1/serial_lld.h"
 732              		.file 33 "ChibiOS_3.0.5/os/hal/include/spi.h"
 733              		.file 34 "ChibiOS_3.0.5/os/hal/ports/STM32/LLD/SPIv1/spi_lld.h"
 734              		.file 35 "ChibiOS_3.0.5/os/hal/include/usb.h"
 735              		.file 36 "ChibiOS_3.0.5/os/hal/ports/STM32/LLD/OTGv1/usb_lld.h"
 736              		.file 37 "ChibiOS_3.0.5/os/hal/ports/STM32/LLD/OTGv1/stm32_otg.h"
 737              		.file 38 "spi_bb.h"