ARM GAS  /tmp/ccF2L4A0.s 			page 1


   1              		.cpu cortex-m4
   2              		.eabi_attribute 27, 1
   3              		.eabi_attribute 28, 1
   4              		.eabi_attribute 20, 1
   5              		.eabi_attribute 21, 1
   6              		.eabi_attribute 23, 3
   7              		.eabi_attribute 24, 1
   8              		.eabi_attribute 25, 1
   9              		.eabi_attribute 26, 1
  10              		.eabi_attribute 30, 2
  11              		.eabi_attribute 34, 1
  12              		.eabi_attribute 18, 4
  13              		.file	"stm32f4xx_flash.c"
  14              		.text
  15              	.Ltext0:
  16              		.cfi_sections	.debug_frame
  17              		.section	.text.FLASH_SetLatency,"ax",%progbits
  18              		.align	1
  19              		.p2align 4,,15
  20              		.global	FLASH_SetLatency
  21              		.syntax unified
  22              		.thumb
  23              		.thumb_func
  24              		.fpu fpv4-sp-d16
  25              		.type	FLASH_SetLatency, %function
  26              	FLASH_SetLatency:
  27              	.LFB112:
  28              		.file 1 "ChibiOS_3.0.5/ext/stdperiph_stm32f4/src/stm32f4xx_flash.c"
  29              		.loc 1 290 0
  30              		.cfi_startproc
  31              		@ args = 0, pretend = 0, frame = 0
  32              		@ frame_needed = 0, uses_anonymous_args = 0
  33              		@ link register save eliminated.
  34              	.LVL0:
  35              		.loc 1 295 0
  36 0000 014B     		ldr	r3, .L3
  37 0002 C0B2     		uxtb	r0, r0
  38              	.LVL1:
  39 0004 1870     		strb	r0, [r3]
  40              		.loc 1 296 0
  41 0006 7047     		bx	lr
  42              	.L4:
  43              		.align	2
  44              	.L3:
  45 0008 003C0240 		.word	1073888256
  46              		.cfi_endproc
  47              	.LFE112:
  48              		.size	FLASH_SetLatency, .-FLASH_SetLatency
  49              		.section	.text.FLASH_PrefetchBufferCmd,"ax",%progbits
  50              		.align	1
  51              		.p2align 4,,15
  52              		.global	FLASH_PrefetchBufferCmd
  53              		.syntax unified
  54              		.thumb
  55              		.thumb_func
  56              		.fpu fpv4-sp-d16
  57              		.type	FLASH_PrefetchBufferCmd, %function
ARM GAS  /tmp/ccF2L4A0.s 			page 2


  58              	FLASH_PrefetchBufferCmd:
  59              	.LFB113:
  60              		.loc 1 305 0
  61              		.cfi_startproc
  62              		@ args = 0, pretend = 0, frame = 0
  63              		@ frame_needed = 0, uses_anonymous_args = 0
  64              		@ link register save eliminated.
  65              	.LVL2:
  66              		.loc 1 312 0
  67 0000 054A     		ldr	r2, .L9
  68 0002 1368     		ldr	r3, [r2]
  69              		.loc 1 310 0
  70 0004 18B9     		cbnz	r0, .L8
  71              		.loc 1 316 0
  72 0006 23F48073 		bic	r3, r3, #256
  73 000a 1360     		str	r3, [r2]
  74              		.loc 1 318 0
  75 000c 7047     		bx	lr
  76              	.L8:
  77              		.loc 1 312 0
  78 000e 43F48073 		orr	r3, r3, #256
  79 0012 1360     		str	r3, [r2]
  80 0014 7047     		bx	lr
  81              	.L10:
  82 0016 00BF     		.align	2
  83              	.L9:
  84 0018 003C0240 		.word	1073888256
  85              		.cfi_endproc
  86              	.LFE113:
  87              		.size	FLASH_PrefetchBufferCmd, .-FLASH_PrefetchBufferCmd
  88              		.section	.text.FLASH_InstructionCacheCmd,"ax",%progbits
  89              		.align	1
  90              		.p2align 4,,15
  91              		.global	FLASH_InstructionCacheCmd
  92              		.syntax unified
  93              		.thumb
  94              		.thumb_func
  95              		.fpu fpv4-sp-d16
  96              		.type	FLASH_InstructionCacheCmd, %function
  97              	FLASH_InstructionCacheCmd:
  98              	.LFB114:
  99              		.loc 1 327 0
 100              		.cfi_startproc
 101              		@ args = 0, pretend = 0, frame = 0
 102              		@ frame_needed = 0, uses_anonymous_args = 0
 103              		@ link register save eliminated.
 104              	.LVL3:
 105              		.loc 1 333 0
 106 0000 054A     		ldr	r2, .L15
 107 0002 1368     		ldr	r3, [r2]
 108              		.loc 1 331 0
 109 0004 18B9     		cbnz	r0, .L14
 110              		.loc 1 337 0
 111 0006 23F40073 		bic	r3, r3, #512
 112 000a 1360     		str	r3, [r2]
 113              		.loc 1 339 0
 114 000c 7047     		bx	lr
ARM GAS  /tmp/ccF2L4A0.s 			page 3


 115              	.L14:
 116              		.loc 1 333 0
 117 000e 43F40073 		orr	r3, r3, #512
 118 0012 1360     		str	r3, [r2]
 119 0014 7047     		bx	lr
 120              	.L16:
 121 0016 00BF     		.align	2
 122              	.L15:
 123 0018 003C0240 		.word	1073888256
 124              		.cfi_endproc
 125              	.LFE114:
 126              		.size	FLASH_InstructionCacheCmd, .-FLASH_InstructionCacheCmd
 127              		.section	.text.FLASH_DataCacheCmd,"ax",%progbits
 128              		.align	1
 129              		.p2align 4,,15
 130              		.global	FLASH_DataCacheCmd
 131              		.syntax unified
 132              		.thumb
 133              		.thumb_func
 134              		.fpu fpv4-sp-d16
 135              		.type	FLASH_DataCacheCmd, %function
 136              	FLASH_DataCacheCmd:
 137              	.LFB115:
 138              		.loc 1 348 0
 139              		.cfi_startproc
 140              		@ args = 0, pretend = 0, frame = 0
 141              		@ frame_needed = 0, uses_anonymous_args = 0
 142              		@ link register save eliminated.
 143              	.LVL4:
 144              		.loc 1 354 0
 145 0000 054A     		ldr	r2, .L21
 146 0002 1368     		ldr	r3, [r2]
 147              		.loc 1 352 0
 148 0004 18B9     		cbnz	r0, .L20
 149              		.loc 1 358 0
 150 0006 23F48063 		bic	r3, r3, #1024
 151 000a 1360     		str	r3, [r2]
 152              		.loc 1 360 0
 153 000c 7047     		bx	lr
 154              	.L20:
 155              		.loc 1 354 0
 156 000e 43F48063 		orr	r3, r3, #1024
 157 0012 1360     		str	r3, [r2]
 158 0014 7047     		bx	lr
 159              	.L22:
 160 0016 00BF     		.align	2
 161              	.L21:
 162 0018 003C0240 		.word	1073888256
 163              		.cfi_endproc
 164              	.LFE115:
 165              		.size	FLASH_DataCacheCmd, .-FLASH_DataCacheCmd
 166              		.section	.text.FLASH_InstructionCacheReset,"ax",%progbits
 167              		.align	1
 168              		.p2align 4,,15
 169              		.global	FLASH_InstructionCacheReset
 170              		.syntax unified
 171              		.thumb
ARM GAS  /tmp/ccF2L4A0.s 			page 4


 172              		.thumb_func
 173              		.fpu fpv4-sp-d16
 174              		.type	FLASH_InstructionCacheReset, %function
 175              	FLASH_InstructionCacheReset:
 176              	.LFB116:
 177              		.loc 1 369 0
 178              		.cfi_startproc
 179              		@ args = 0, pretend = 0, frame = 0
 180              		@ frame_needed = 0, uses_anonymous_args = 0
 181              		@ link register save eliminated.
 182              		.loc 1 370 0
 183 0000 024A     		ldr	r2, .L24
 184 0002 1368     		ldr	r3, [r2]
 185 0004 43F40063 		orr	r3, r3, #2048
 186 0008 1360     		str	r3, [r2]
 187              		.loc 1 371 0
 188 000a 7047     		bx	lr
 189              	.L25:
 190              		.align	2
 191              	.L24:
 192 000c 003C0240 		.word	1073888256
 193              		.cfi_endproc
 194              	.LFE116:
 195              		.size	FLASH_InstructionCacheReset, .-FLASH_InstructionCacheReset
 196              		.section	.text.FLASH_DataCacheReset,"ax",%progbits
 197              		.align	1
 198              		.p2align 4,,15
 199              		.global	FLASH_DataCacheReset
 200              		.syntax unified
 201              		.thumb
 202              		.thumb_func
 203              		.fpu fpv4-sp-d16
 204              		.type	FLASH_DataCacheReset, %function
 205              	FLASH_DataCacheReset:
 206              	.LFB117:
 207              		.loc 1 380 0
 208              		.cfi_startproc
 209              		@ args = 0, pretend = 0, frame = 0
 210              		@ frame_needed = 0, uses_anonymous_args = 0
 211              		@ link register save eliminated.
 212              		.loc 1 381 0
 213 0000 024A     		ldr	r2, .L27
 214 0002 1368     		ldr	r3, [r2]
 215 0004 43F48053 		orr	r3, r3, #4096
 216 0008 1360     		str	r3, [r2]
 217              		.loc 1 382 0
 218 000a 7047     		bx	lr
 219              	.L28:
 220              		.align	2
 221              	.L27:
 222 000c 003C0240 		.word	1073888256
 223              		.cfi_endproc
 224              	.LFE117:
 225              		.size	FLASH_DataCacheReset, .-FLASH_DataCacheReset
 226              		.section	.text.FLASH_Unlock,"ax",%progbits
 227              		.align	1
 228              		.p2align 4,,15
ARM GAS  /tmp/ccF2L4A0.s 			page 5


 229              		.global	FLASH_Unlock
 230              		.syntax unified
 231              		.thumb
 232              		.thumb_func
 233              		.fpu fpv4-sp-d16
 234              		.type	FLASH_Unlock, %function
 235              	FLASH_Unlock:
 236              	.LFB118:
 237              		.loc 1 427 0
 238              		.cfi_startproc
 239              		@ args = 0, pretend = 0, frame = 0
 240              		@ frame_needed = 0, uses_anonymous_args = 0
 241              		@ link register save eliminated.
 242              		.loc 1 428 0
 243 0000 044B     		ldr	r3, .L31
 244 0002 1A69     		ldr	r2, [r3, #16]
 245 0004 002A     		cmp	r2, #0
 246 0006 03DA     		bge	.L29
 247              		.loc 1 431 0
 248 0008 0349     		ldr	r1, .L31+4
 249              		.loc 1 432 0
 250 000a 044A     		ldr	r2, .L31+8
 251              		.loc 1 431 0
 252 000c 5960     		str	r1, [r3, #4]
 253              		.loc 1 432 0
 254 000e 5A60     		str	r2, [r3, #4]
 255              	.L29:
 256              		.loc 1 434 0
 257 0010 7047     		bx	lr
 258              	.L32:
 259 0012 00BF     		.align	2
 260              	.L31:
 261 0014 003C0240 		.word	1073888256
 262 0018 23016745 		.word	1164378403
 263 001c AB89EFCD 		.word	-839939669
 264              		.cfi_endproc
 265              	.LFE118:
 266              		.size	FLASH_Unlock, .-FLASH_Unlock
 267              		.section	.text.FLASH_Lock,"ax",%progbits
 268              		.align	1
 269              		.p2align 4,,15
 270              		.global	FLASH_Lock
 271              		.syntax unified
 272              		.thumb
 273              		.thumb_func
 274              		.fpu fpv4-sp-d16
 275              		.type	FLASH_Lock, %function
 276              	FLASH_Lock:
 277              	.LFB119:
 278              		.loc 1 442 0
 279              		.cfi_startproc
 280              		@ args = 0, pretend = 0, frame = 0
 281              		@ frame_needed = 0, uses_anonymous_args = 0
 282              		@ link register save eliminated.
 283              		.loc 1 444 0
 284 0000 024A     		ldr	r2, .L34
 285 0002 1369     		ldr	r3, [r2, #16]
ARM GAS  /tmp/ccF2L4A0.s 			page 6


 286 0004 43F00043 		orr	r3, r3, #-2147483648
 287 0008 1361     		str	r3, [r2, #16]
 288              		.loc 1 445 0
 289 000a 7047     		bx	lr
 290              	.L35:
 291              		.align	2
 292              	.L34:
 293 000c 003C0240 		.word	1073888256
 294              		.cfi_endproc
 295              	.LFE119:
 296              		.size	FLASH_Lock, .-FLASH_Lock
 297              		.section	.text.FLASH_OB_Unlock,"ax",%progbits
 298              		.align	1
 299              		.p2align 4,,15
 300              		.global	FLASH_OB_Unlock
 301              		.syntax unified
 302              		.thumb
 303              		.thumb_func
 304              		.fpu fpv4-sp-d16
 305              		.type	FLASH_OB_Unlock, %function
 306              	FLASH_OB_Unlock:
 307              	.LFB128:
 308              		.loc 1 984 0
 309              		.cfi_startproc
 310              		@ args = 0, pretend = 0, frame = 0
 311              		@ frame_needed = 0, uses_anonymous_args = 0
 312              		@ link register save eliminated.
 313              		.loc 1 985 0
 314 0000 044B     		ldr	r3, .L41
 315 0002 5A69     		ldr	r2, [r3, #20]
 316 0004 D207     		lsls	r2, r2, #31
 317 0006 03D5     		bpl	.L36
 318              		.loc 1 988 0
 319 0008 0349     		ldr	r1, .L41+4
 320              		.loc 1 989 0
 321 000a 044A     		ldr	r2, .L41+8
 322              		.loc 1 988 0
 323 000c 9960     		str	r1, [r3, #8]
 324              		.loc 1 989 0
 325 000e 9A60     		str	r2, [r3, #8]
 326              	.L36:
 327              		.loc 1 991 0
 328 0010 7047     		bx	lr
 329              	.L42:
 330 0012 00BF     		.align	2
 331              	.L41:
 332 0014 003C0240 		.word	1073888256
 333 0018 3B2A1908 		.word	135866939
 334 001c 7F6E5D4C 		.word	1281191551
 335              		.cfi_endproc
 336              	.LFE128:
 337              		.size	FLASH_OB_Unlock, .-FLASH_OB_Unlock
 338              		.section	.text.FLASH_OB_Lock,"ax",%progbits
 339              		.align	1
 340              		.p2align 4,,15
 341              		.global	FLASH_OB_Lock
 342              		.syntax unified
ARM GAS  /tmp/ccF2L4A0.s 			page 7


 343              		.thumb
 344              		.thumb_func
 345              		.fpu fpv4-sp-d16
 346              		.type	FLASH_OB_Lock, %function
 347              	FLASH_OB_Lock:
 348              	.LFB129:
 349              		.loc 1 999 0
 350              		.cfi_startproc
 351              		@ args = 0, pretend = 0, frame = 0
 352              		@ frame_needed = 0, uses_anonymous_args = 0
 353              		@ link register save eliminated.
 354              		.loc 1 1001 0
 355 0000 024A     		ldr	r2, .L44
 356 0002 5369     		ldr	r3, [r2, #20]
 357 0004 43F00103 		orr	r3, r3, #1
 358 0008 5361     		str	r3, [r2, #20]
 359              		.loc 1 1002 0
 360 000a 7047     		bx	lr
 361              	.L45:
 362              		.align	2
 363              	.L44:
 364 000c 003C0240 		.word	1073888256
 365              		.cfi_endproc
 366              	.LFE129:
 367              		.size	FLASH_OB_Lock, .-FLASH_OB_Lock
 368              		.section	.text.FLASH_OB_PCROPSelectionConfig,"ax",%progbits
 369              		.align	1
 370              		.p2align 4,,15
 371              		.global	FLASH_OB_PCROPSelectionConfig
 372              		.syntax unified
 373              		.thumb
 374              		.thumb_func
 375              		.fpu fpv4-sp-d16
 376              		.type	FLASH_OB_PCROPSelectionConfig, %function
 377              	FLASH_OB_PCROPSelectionConfig:
 378              	.LFB132:
 379              		.loc 1 1114 0
 380              		.cfi_startproc
 381              		@ args = 0, pretend = 0, frame = 0
 382              		@ frame_needed = 0, uses_anonymous_args = 0
 383              		@ link register save eliminated.
 384              	.LVL5:
 385              		.loc 1 1121 0
 386 0000 034A     		ldr	r2, .L47
 387 0002 1378     		ldrb	r3, [r2]	@ zero_extendqisi2
 388              	.LVL6:
 389 0004 03F07F03 		and	r3, r3, #127
 390              	.LVL7:
 391              		.loc 1 1123 0
 392 0008 1843     		orrs	r0, r0, r3
 393              	.LVL8:
 394 000a 1070     		strb	r0, [r2]
 395              		.loc 1 1125 0
 396 000c 7047     		bx	lr
 397              	.L48:
 398 000e 00BF     		.align	2
 399              	.L47:
ARM GAS  /tmp/ccF2L4A0.s 			page 8


 400 0010 173C0240 		.word	1073888279
 401              		.cfi_endproc
 402              	.LFE132:
 403              		.size	FLASH_OB_PCROPSelectionConfig, .-FLASH_OB_PCROPSelectionConfig
 404              		.section	.text.FLASH_OB_BootConfig,"ax",%progbits
 405              		.align	1
 406              		.p2align 4,,15
 407              		.global	FLASH_OB_BootConfig
 408              		.syntax unified
 409              		.thumb
 410              		.thumb_func
 411              		.fpu fpv4-sp-d16
 412              		.type	FLASH_OB_BootConfig, %function
 413              	FLASH_OB_BootConfig:
 414              	.LFB137:
 415              		.loc 1 1290 0
 416              		.cfi_startproc
 417              		@ args = 0, pretend = 0, frame = 0
 418              		@ frame_needed = 0, uses_anonymous_args = 0
 419              		@ link register save eliminated.
 420              	.LVL9:
 421              		.loc 1 1295 0
 422 0000 044B     		ldr	r3, .L50
 423 0002 1A78     		ldrb	r2, [r3]	@ zero_extendqisi2
 424 0004 02F0EF02 		and	r2, r2, #239
 425 0008 1A70     		strb	r2, [r3]
 426              		.loc 1 1296 0
 427 000a 1A78     		ldrb	r2, [r3]	@ zero_extendqisi2
 428 000c 1043     		orrs	r0, r0, r2
 429              	.LVL10:
 430 000e 1870     		strb	r0, [r3]
 431              		.loc 1 1298 0
 432 0010 7047     		bx	lr
 433              	.L51:
 434 0012 00BF     		.align	2
 435              	.L50:
 436 0014 143C0240 		.word	1073888276
 437              		.cfi_endproc
 438              	.LFE137:
 439              		.size	FLASH_OB_BootConfig, .-FLASH_OB_BootConfig
 440              		.section	.text.FLASH_OB_BORConfig,"ax",%progbits
 441              		.align	1
 442              		.p2align 4,,15
 443              		.global	FLASH_OB_BORConfig
 444              		.syntax unified
 445              		.thumb
 446              		.thumb_func
 447              		.fpu fpv4-sp-d16
 448              		.type	FLASH_OB_BORConfig, %function
 449              	FLASH_OB_BORConfig:
 450              	.LFB138:
 451              		.loc 1 1311 0
 452              		.cfi_startproc
 453              		@ args = 0, pretend = 0, frame = 0
 454              		@ frame_needed = 0, uses_anonymous_args = 0
 455              		@ link register save eliminated.
 456              	.LVL11:
ARM GAS  /tmp/ccF2L4A0.s 			page 9


 457              		.loc 1 1316 0
 458 0000 044B     		ldr	r3, .L53
 459 0002 1A78     		ldrb	r2, [r3]	@ zero_extendqisi2
 460 0004 02F0F302 		and	r2, r2, #243
 461 0008 1A70     		strb	r2, [r3]
 462              		.loc 1 1317 0
 463 000a 1A78     		ldrb	r2, [r3]	@ zero_extendqisi2
 464 000c 1043     		orrs	r0, r0, r2
 465              	.LVL12:
 466 000e 1870     		strb	r0, [r3]
 467              		.loc 1 1319 0
 468 0010 7047     		bx	lr
 469              	.L54:
 470 0012 00BF     		.align	2
 471              	.L53:
 472 0014 143C0240 		.word	1073888276
 473              		.cfi_endproc
 474              	.LFE138:
 475              		.size	FLASH_OB_BORConfig, .-FLASH_OB_BORConfig
 476              		.section	.text.FLASH_OB_GetUser,"ax",%progbits
 477              		.align	1
 478              		.p2align 4,,15
 479              		.global	FLASH_OB_GetUser
 480              		.syntax unified
 481              		.thumb
 482              		.thumb_func
 483              		.fpu fpv4-sp-d16
 484              		.type	FLASH_OB_GetUser, %function
 485              	FLASH_OB_GetUser:
 486              	.LFB140:
 487              		.loc 1 1347 0
 488              		.cfi_startproc
 489              		@ args = 0, pretend = 0, frame = 0
 490              		@ frame_needed = 0, uses_anonymous_args = 0
 491              		@ link register save eliminated.
 492              		.loc 1 1349 0
 493 0000 024B     		ldr	r3, .L56
 494 0002 5869     		ldr	r0, [r3, #20]
 495              		.loc 1 1350 0
 496 0004 C0F34710 		ubfx	r0, r0, #5, #8
 497 0008 7047     		bx	lr
 498              	.L57:
 499 000a 00BF     		.align	2
 500              	.L56:
 501 000c 003C0240 		.word	1073888256
 502              		.cfi_endproc
 503              	.LFE140:
 504              		.size	FLASH_OB_GetUser, .-FLASH_OB_GetUser
 505              		.section	.text.FLASH_OB_GetWRP,"ax",%progbits
 506              		.align	1
 507              		.p2align 4,,15
 508              		.global	FLASH_OB_GetWRP
 509              		.syntax unified
 510              		.thumb
 511              		.thumb_func
 512              		.fpu fpv4-sp-d16
 513              		.type	FLASH_OB_GetWRP, %function
ARM GAS  /tmp/ccF2L4A0.s 			page 10


 514              	FLASH_OB_GetWRP:
 515              	.LFB141:
 516              		.loc 1 1358 0
 517              		.cfi_startproc
 518              		@ args = 0, pretend = 0, frame = 0
 519              		@ frame_needed = 0, uses_anonymous_args = 0
 520              		@ link register save eliminated.
 521              		.loc 1 1360 0
 522 0000 014B     		ldr	r3, .L59
 523 0002 1888     		ldrh	r0, [r3]
 524              		.loc 1 1361 0
 525 0004 7047     		bx	lr
 526              	.L60:
 527 0006 00BF     		.align	2
 528              	.L59:
 529 0008 163C0240 		.word	1073888278
 530              		.cfi_endproc
 531              	.LFE141:
 532              		.size	FLASH_OB_GetWRP, .-FLASH_OB_GetWRP
 533              		.section	.text.FLASH_OB_GetWRP1,"ax",%progbits
 534              		.align	1
 535              		.p2align 4,,15
 536              		.global	FLASH_OB_GetWRP1
 537              		.syntax unified
 538              		.thumb
 539              		.thumb_func
 540              		.fpu fpv4-sp-d16
 541              		.type	FLASH_OB_GetWRP1, %function
 542              	FLASH_OB_GetWRP1:
 543              	.LFB142:
 544              		.loc 1 1372 0
 545              		.cfi_startproc
 546              		@ args = 0, pretend = 0, frame = 0
 547              		@ frame_needed = 0, uses_anonymous_args = 0
 548              		@ link register save eliminated.
 549              		.loc 1 1374 0
 550 0000 014B     		ldr	r3, .L62
 551 0002 1888     		ldrh	r0, [r3]
 552              		.loc 1 1375 0
 553 0004 7047     		bx	lr
 554              	.L63:
 555 0006 00BF     		.align	2
 556              	.L62:
 557 0008 1A3C0240 		.word	1073888282
 558              		.cfi_endproc
 559              	.LFE142:
 560              		.size	FLASH_OB_GetWRP1, .-FLASH_OB_GetWRP1
 561              		.section	.text.FLASH_OB_GetPCROP,"ax",%progbits
 562              		.align	1
 563              		.p2align 4,,15
 564              		.global	FLASH_OB_GetPCROP
 565              		.syntax unified
 566              		.thumb
 567              		.thumb_func
 568              		.fpu fpv4-sp-d16
 569              		.type	FLASH_OB_GetPCROP, %function
 570              	FLASH_OB_GetPCROP:
ARM GAS  /tmp/ccF2L4A0.s 			page 11


 571              	.LFB156:
 572              		.cfi_startproc
 573              		@ args = 0, pretend = 0, frame = 0
 574              		@ frame_needed = 0, uses_anonymous_args = 0
 575              		@ link register save eliminated.
 576 0000 014B     		ldr	r3, .L65
 577 0002 1888     		ldrh	r0, [r3]
 578 0004 7047     		bx	lr
 579              	.L66:
 580 0006 00BF     		.align	2
 581              	.L65:
 582 0008 163C0240 		.word	1073888278
 583              		.cfi_endproc
 584              	.LFE156:
 585              		.size	FLASH_OB_GetPCROP, .-FLASH_OB_GetPCROP
 586              		.section	.text.FLASH_OB_GetPCROP1,"ax",%progbits
 587              		.align	1
 588              		.p2align 4,,15
 589              		.global	FLASH_OB_GetPCROP1
 590              		.syntax unified
 591              		.thumb
 592              		.thumb_func
 593              		.fpu fpv4-sp-d16
 594              		.type	FLASH_OB_GetPCROP1, %function
 595              	FLASH_OB_GetPCROP1:
 596              	.LFB158:
 597              		.cfi_startproc
 598              		@ args = 0, pretend = 0, frame = 0
 599              		@ frame_needed = 0, uses_anonymous_args = 0
 600              		@ link register save eliminated.
 601 0000 014B     		ldr	r3, .L68
 602 0002 1888     		ldrh	r0, [r3]
 603 0004 7047     		bx	lr
 604              	.L69:
 605 0006 00BF     		.align	2
 606              	.L68:
 607 0008 1A3C0240 		.word	1073888282
 608              		.cfi_endproc
 609              	.LFE158:
 610              		.size	FLASH_OB_GetPCROP1, .-FLASH_OB_GetPCROP1
 611              		.section	.text.FLASH_OB_GetRDP,"ax",%progbits
 612              		.align	1
 613              		.p2align 4,,15
 614              		.global	FLASH_OB_GetRDP
 615              		.syntax unified
 616              		.thumb
 617              		.thumb_func
 618              		.fpu fpv4-sp-d16
 619              		.type	FLASH_OB_GetRDP, %function
 620              	FLASH_OB_GetRDP:
 621              	.LFB145:
 622              		.loc 1 1413 0
 623              		.cfi_startproc
 624              		@ args = 0, pretend = 0, frame = 0
 625              		@ frame_needed = 0, uses_anonymous_args = 0
 626              		@ link register save eliminated.
 627              	.LVL13:
ARM GAS  /tmp/ccF2L4A0.s 			page 12


 628              		.loc 1 1416 0
 629 0000 024B     		ldr	r3, .L71
 630 0002 1878     		ldrb	r0, [r3]	@ zero_extendqisi2
 631              	.LVL14:
 632              		.loc 1 1425 0
 633 0004 AA38     		subs	r0, r0, #170
 634              	.LVL15:
 635 0006 18BF     		it	ne
 636 0008 0120     		movne	r0, #1
 637 000a 7047     		bx	lr
 638              	.L72:
 639              		.align	2
 640              	.L71:
 641 000c 153C0240 		.word	1073888277
 642              		.cfi_endproc
 643              	.LFE145:
 644              		.size	FLASH_OB_GetRDP, .-FLASH_OB_GetRDP
 645              		.section	.text.FLASH_OB_GetBOR,"ax",%progbits
 646              		.align	1
 647              		.p2align 4,,15
 648              		.global	FLASH_OB_GetBOR
 649              		.syntax unified
 650              		.thumb
 651              		.thumb_func
 652              		.fpu fpv4-sp-d16
 653              		.type	FLASH_OB_GetBOR, %function
 654              	FLASH_OB_GetBOR:
 655              	.LFB146:
 656              		.loc 1 1437 0
 657              		.cfi_startproc
 658              		@ args = 0, pretend = 0, frame = 0
 659              		@ frame_needed = 0, uses_anonymous_args = 0
 660              		@ link register save eliminated.
 661              		.loc 1 1439 0
 662 0000 024B     		ldr	r3, .L74
 663 0002 1878     		ldrb	r0, [r3]	@ zero_extendqisi2
 664              		.loc 1 1440 0
 665 0004 00F00C00 		and	r0, r0, #12
 666 0008 7047     		bx	lr
 667              	.L75:
 668 000a 00BF     		.align	2
 669              	.L74:
 670 000c 143C0240 		.word	1073888276
 671              		.cfi_endproc
 672              	.LFE146:
 673              		.size	FLASH_OB_GetBOR, .-FLASH_OB_GetBOR
 674              		.section	.text.FLASH_ITConfig,"ax",%progbits
 675              		.align	1
 676              		.p2align 4,,15
 677              		.global	FLASH_ITConfig
 678              		.syntax unified
 679              		.thumb
 680              		.thumb_func
 681              		.fpu fpv4-sp-d16
 682              		.type	FLASH_ITConfig, %function
 683              	FLASH_ITConfig:
 684              	.LFB147:
ARM GAS  /tmp/ccF2L4A0.s 			page 13


 685              		.loc 1 1466 0
 686              		.cfi_startproc
 687              		@ args = 0, pretend = 0, frame = 0
 688              		@ frame_needed = 0, uses_anonymous_args = 0
 689              		@ link register save eliminated.
 690              	.LVL16:
 691              		.loc 1 1474 0
 692 0000 044A     		ldr	r2, .L80
 693 0002 1369     		ldr	r3, [r2, #16]
 694              		.loc 1 1471 0
 695 0004 19B9     		cbnz	r1, .L79
 696              		.loc 1 1479 0
 697 0006 23EA0000 		bic	r0, r3, r0
 698              	.LVL17:
 699 000a 1061     		str	r0, [r2, #16]
 700              		.loc 1 1481 0
 701 000c 7047     		bx	lr
 702              	.LVL18:
 703              	.L79:
 704              		.loc 1 1474 0
 705 000e 1843     		orrs	r0, r0, r3
 706              	.LVL19:
 707 0010 1061     		str	r0, [r2, #16]
 708 0012 7047     		bx	lr
 709              	.L81:
 710              		.align	2
 711              	.L80:
 712 0014 003C0240 		.word	1073888256
 713              		.cfi_endproc
 714              	.LFE147:
 715              		.size	FLASH_ITConfig, .-FLASH_ITConfig
 716              		.section	.text.FLASH_GetFlagStatus,"ax",%progbits
 717              		.align	1
 718              		.p2align 4,,15
 719              		.global	FLASH_GetFlagStatus
 720              		.syntax unified
 721              		.thumb
 722              		.thumb_func
 723              		.fpu fpv4-sp-d16
 724              		.type	FLASH_GetFlagStatus, %function
 725              	FLASH_GetFlagStatus:
 726              	.LFB148:
 727              		.loc 1 1498 0
 728              		.cfi_startproc
 729              		@ args = 0, pretend = 0, frame = 0
 730              		@ frame_needed = 0, uses_anonymous_args = 0
 731              		@ link register save eliminated.
 732              	.LVL20:
 733              		.loc 1 1503 0
 734 0000 034B     		ldr	r3, .L83
 735 0002 DB68     		ldr	r3, [r3, #12]
 736              	.LVL21:
 737 0004 0342     		tst	r3, r0
 738              		.loc 1 1513 0
 739 0006 14BF     		ite	ne
 740 0008 0120     		movne	r0, #1
 741              	.LVL22:
ARM GAS  /tmp/ccF2L4A0.s 			page 14


 742 000a 0020     		moveq	r0, #0
 743 000c 7047     		bx	lr
 744              	.L84:
 745 000e 00BF     		.align	2
 746              	.L83:
 747 0010 003C0240 		.word	1073888256
 748              		.cfi_endproc
 749              	.LFE148:
 750              		.size	FLASH_GetFlagStatus, .-FLASH_GetFlagStatus
 751              		.section	.text.FLASH_ClearFlag,"ax",%progbits
 752              		.align	1
 753              		.p2align 4,,15
 754              		.global	FLASH_ClearFlag
 755              		.syntax unified
 756              		.thumb
 757              		.thumb_func
 758              		.fpu fpv4-sp-d16
 759              		.type	FLASH_ClearFlag, %function
 760              	FLASH_ClearFlag:
 761              	.LFB149:
 762              		.loc 1 1529 0
 763              		.cfi_startproc
 764              		@ args = 0, pretend = 0, frame = 0
 765              		@ frame_needed = 0, uses_anonymous_args = 0
 766              		@ link register save eliminated.
 767              	.LVL23:
 768              		.loc 1 1534 0
 769 0000 014B     		ldr	r3, .L86
 770 0002 D860     		str	r0, [r3, #12]
 771              		.loc 1 1535 0
 772 0004 7047     		bx	lr
 773              	.L87:
 774 0006 00BF     		.align	2
 775              	.L86:
 776 0008 003C0240 		.word	1073888256
 777              		.cfi_endproc
 778              	.LFE149:
 779              		.size	FLASH_ClearFlag, .-FLASH_ClearFlag
 780              		.section	.text.FLASH_GetStatus,"ax",%progbits
 781              		.align	1
 782              		.p2align 4,,15
 783              		.global	FLASH_GetStatus
 784              		.syntax unified
 785              		.thumb
 786              		.thumb_func
 787              		.fpu fpv4-sp-d16
 788              		.type	FLASH_GetStatus, %function
 789              	FLASH_GetStatus:
 790              	.LFB150:
 791              		.loc 1 1544 0
 792              		.cfi_startproc
 793              		@ args = 0, pretend = 0, frame = 0
 794              		@ frame_needed = 0, uses_anonymous_args = 0
 795              		@ link register save eliminated.
 796              	.LVL24:
 797              		.loc 1 1547 0
 798 0000 0E4B     		ldr	r3, .L95
ARM GAS  /tmp/ccF2L4A0.s 			page 15


 799 0002 DA68     		ldr	r2, [r3, #12]
 800 0004 D203     		lsls	r2, r2, #15
 801 0006 10D4     		bmi	.L90
 802              		.loc 1 1553 0
 803 0008 DA68     		ldr	r2, [r3, #12]
 804 000a D106     		lsls	r1, r2, #27
 805 000c 0FD4     		bmi	.L91
 806              		.loc 1 1559 0
 807 000e DA68     		ldr	r2, [r3, #12]
 808 0010 D205     		lsls	r2, r2, #23
 809 0012 10D4     		bmi	.L92
 810              		.loc 1 1565 0
 811 0014 DA68     		ldr	r2, [r3, #12]
 812 0016 12F0E00F 		tst	r2, #224
 813 001a 0AD1     		bne	.L93
 814              	.LBB4:
 815              	.LBB5:
 816              		.loc 1 1571 0
 817 001c DB68     		ldr	r3, [r3, #12]
 818 001e 13F0020F 		tst	r3, #2
 819              		.loc 1 1577 0
 820 0022 14BF     		ite	ne
 821 0024 0820     		movne	r0, #8
 822 0026 0920     		moveq	r0, #9
 823 0028 7047     		bx	lr
 824              	.L90:
 825              	.LBE5:
 826              	.LBE4:
 827              		.loc 1 1549 0
 828 002a 0120     		movs	r0, #1
 829 002c 7047     		bx	lr
 830              	.L91:
 831              		.loc 1 1555 0
 832 002e 0620     		movs	r0, #6
 833 0030 7047     		bx	lr
 834              	.L93:
 835              		.loc 1 1567 0
 836 0032 0720     		movs	r0, #7
 837              	.LVL25:
 838              		.loc 1 1585 0
 839 0034 7047     		bx	lr
 840              	.LVL26:
 841              	.L92:
 842              		.loc 1 1561 0
 843 0036 0220     		movs	r0, #2
 844 0038 7047     		bx	lr
 845              	.L96:
 846 003a 00BF     		.align	2
 847              	.L95:
 848 003c 003C0240 		.word	1073888256
 849              		.cfi_endproc
 850              	.LFE150:
 851              		.size	FLASH_GetStatus, .-FLASH_GetStatus
 852              		.section	.text.FLASH_WaitForLastOperation,"ax",%progbits
 853              		.align	1
 854              		.p2align 4,,15
 855              		.global	FLASH_WaitForLastOperation
ARM GAS  /tmp/ccF2L4A0.s 			page 16


 856              		.syntax unified
 857              		.thumb
 858              		.thumb_func
 859              		.fpu fpv4-sp-d16
 860              		.type	FLASH_WaitForLastOperation, %function
 861              	FLASH_WaitForLastOperation:
 862              	.LFB151:
 863              		.loc 1 1594 0
 864              		.cfi_startproc
 865              		@ args = 0, pretend = 0, frame = 8
 866              		@ frame_needed = 0, uses_anonymous_args = 0
 867 0000 00B5     		push	{lr}
 868              		.cfi_def_cfa_offset 4
 869              		.cfi_offset 14, -4
 870 0002 83B0     		sub	sp, sp, #12
 871              		.cfi_def_cfa_offset 16
 872              		.loc 1 1595 0
 873 0004 0923     		movs	r3, #9
 874 0006 8DF80730 		strb	r3, [sp, #7]
 875              	.L103:
 876              		.loc 1 1598 0
 877 000a FFF7FEFF 		bl	FLASH_GetStatus
 878              	.LVL27:
 879 000e 8DF80700 		strb	r0, [sp, #7]
 880              		.loc 1 1603 0
 881 0012 9DF80730 		ldrb	r3, [sp, #7]	@ zero_extendqisi2
 882 0016 012B     		cmp	r3, #1
 883 0018 F7D0     		beq	.L103
 884              		.loc 1 1608 0
 885 001a 9DF80700 		ldrb	r0, [sp, #7]	@ zero_extendqisi2
 886              		.loc 1 1609 0
 887 001e 03B0     		add	sp, sp, #12
 888              		.cfi_def_cfa_offset 4
 889              		@ sp needed
 890 0020 5DF804FB 		ldr	pc, [sp], #4
 891              		.cfi_endproc
 892              	.LFE151:
 893              		.size	FLASH_WaitForLastOperation, .-FLASH_WaitForLastOperation
 894              		.section	.text.FLASH_EraseSector,"ax",%progbits
 895              		.align	1
 896              		.p2align 4,,15
 897              		.global	FLASH_EraseSector
 898              		.syntax unified
 899              		.thumb
 900              		.thumb_func
 901              		.fpu fpv4-sp-d16
 902              		.type	FLASH_EraseSector, %function
 903              	FLASH_EraseSector:
 904              	.LFB120:
 905              		.loc 1 485 0
 906              		.cfi_startproc
 907              		@ args = 0, pretend = 0, frame = 0
 908              		@ frame_needed = 0, uses_anonymous_args = 0
 909              	.LVL28:
 910 0000 70B5     		push	{r4, r5, r6, lr}
 911              		.cfi_def_cfa_offset 16
 912              		.cfi_offset 4, -16
ARM GAS  /tmp/ccF2L4A0.s 			page 17


 913              		.cfi_offset 5, -12
 914              		.cfi_offset 6, -8
 915              		.cfi_offset 14, -4
 916              		.loc 1 485 0
 917 0002 0646     		mov	r6, r0
 918              		.loc 1 493 0
 919 0004 61B1     		cbz	r1, .L107
 920              		.loc 1 497 0
 921 0006 0129     		cmp	r1, #1
 922 0008 2FD0     		beq	.L108
 923              		.loc 1 501 0
 924 000a 0229     		cmp	r1, #2
 925              		.loc 1 507 0
 926 000c 0CBF     		ite	eq
 927 000e 4FF40074 		moveq	r4, #512
 928 0012 4FF44074 		movne	r4, #768
 929              	.LVL29:
 930              		.loc 1 510 0
 931 0016 FFF7FEFF 		bl	FLASH_WaitForLastOperation
 932              	.LVL30:
 933              		.loc 1 512 0
 934 001a 0928     		cmp	r0, #9
 935 001c 05D0     		beq	.L111
 936              	.L106:
 937              		.loc 1 530 0
 938 001e 70BD     		pop	{r4, r5, r6, pc}
 939              	.LVL31:
 940              	.L107:
 941              		.loc 1 495 0
 942 0020 0C46     		mov	r4, r1
 943              	.L105:
 944              	.LVL32:
 945              		.loc 1 510 0
 946 0022 FFF7FEFF 		bl	FLASH_WaitForLastOperation
 947              	.LVL33:
 948              		.loc 1 512 0
 949 0026 0928     		cmp	r0, #9
 950 0028 F9D1     		bne	.L106
 951              	.L111:
 952              		.loc 1 515 0
 953 002a 114D     		ldr	r5, .L112
 954 002c 2B69     		ldr	r3, [r5, #16]
 955 002e 23F44073 		bic	r3, r3, #768
 956 0032 2B61     		str	r3, [r5, #16]
 957              		.loc 1 516 0
 958 0034 2969     		ldr	r1, [r5, #16]
 959 0036 2143     		orrs	r1, r1, r4
 960 0038 2961     		str	r1, [r5, #16]
 961              		.loc 1 517 0
 962 003a 2B69     		ldr	r3, [r5, #16]
 963 003c 23F0F803 		bic	r3, r3, #248
 964 0040 2B61     		str	r3, [r5, #16]
 965              		.loc 1 518 0
 966 0042 2869     		ldr	r0, [r5, #16]
 967              	.LVL34:
 968 0044 40F00200 		orr	r0, r0, #2
 969 0048 3043     		orrs	r0, r0, r6
ARM GAS  /tmp/ccF2L4A0.s 			page 18


 970 004a 2861     		str	r0, [r5, #16]
 971              		.loc 1 519 0
 972 004c 2B69     		ldr	r3, [r5, #16]
 973 004e 43F48033 		orr	r3, r3, #65536
 974 0052 2B61     		str	r3, [r5, #16]
 975              		.loc 1 522 0
 976 0054 FFF7FEFF 		bl	FLASH_WaitForLastOperation
 977              	.LVL35:
 978              		.loc 1 525 0
 979 0058 2B69     		ldr	r3, [r5, #16]
 980 005a 23F00203 		bic	r3, r3, #2
 981 005e 2B61     		str	r3, [r5, #16]
 982              		.loc 1 526 0
 983 0060 2B69     		ldr	r3, [r5, #16]
 984 0062 23F0F803 		bic	r3, r3, #248
 985 0066 2B61     		str	r3, [r5, #16]
 986              		.loc 1 530 0
 987 0068 70BD     		pop	{r4, r5, r6, pc}
 988              	.LVL36:
 989              	.L108:
 990              		.loc 1 499 0
 991 006a 4FF48074 		mov	r4, #256
 992 006e D8E7     		b	.L105
 993              	.L113:
 994              		.align	2
 995              	.L112:
 996 0070 003C0240 		.word	1073888256
 997              		.cfi_endproc
 998              	.LFE120:
 999              		.size	FLASH_EraseSector, .-FLASH_EraseSector
 1000              		.section	.text.FLASH_EraseAllSectors,"ax",%progbits
 1001              		.align	1
 1002              		.p2align 4,,15
 1003              		.global	FLASH_EraseAllSectors
 1004              		.syntax unified
 1005              		.thumb
 1006              		.thumb_func
 1007              		.fpu fpv4-sp-d16
 1008              		.type	FLASH_EraseAllSectors, %function
 1009              	FLASH_EraseAllSectors:
 1010              	.LFB121:
 1011              		.loc 1 553 0
 1012              		.cfi_startproc
 1013              		@ args = 0, pretend = 0, frame = 0
 1014              		@ frame_needed = 0, uses_anonymous_args = 0
 1015              	.LVL37:
 1016 0000 38B5     		push	{r3, r4, r5, lr}
 1017              		.cfi_def_cfa_offset 16
 1018              		.cfi_offset 3, -16
 1019              		.cfi_offset 4, -12
 1020              		.cfi_offset 5, -8
 1021              		.cfi_offset 14, -4
 1022              		.loc 1 553 0
 1023 0002 0446     		mov	r4, r0
 1024              		.loc 1 558 0
 1025 0004 FFF7FEFF 		bl	FLASH_WaitForLastOperation
 1026              	.LVL38:
ARM GAS  /tmp/ccF2L4A0.s 			page 19


 1027              		.loc 1 561 0
 1028 0008 3CB1     		cbz	r4, .L115
 1029              		.loc 1 565 0
 1030 000a 012C     		cmp	r4, #1
 1031 000c 1FD0     		beq	.L118
 1032              		.loc 1 569 0
 1033 000e 022C     		cmp	r4, #2
 1034              		.loc 1 575 0
 1035 0010 0CBF     		ite	eq
 1036 0012 4FF40074 		moveq	r4, #512
 1037 0016 4FF44074 		movne	r4, #768
 1038              	.L115:
 1039              	.LVL39:
 1040              		.loc 1 577 0
 1041 001a 0928     		cmp	r0, #9
 1042 001c 00D0     		beq	.L121
 1043              	.L116:
 1044              		.loc 1 609 0
 1045 001e 38BD     		pop	{r3, r4, r5, pc}
 1046              	.LVL40:
 1047              	.L121:
 1048              		.loc 1 594 0
 1049 0020 0D4D     		ldr	r5, .L122
 1050 0022 2B69     		ldr	r3, [r5, #16]
 1051 0024 23F44073 		bic	r3, r3, #768
 1052 0028 2B61     		str	r3, [r5, #16]
 1053              		.loc 1 595 0
 1054 002a 2B69     		ldr	r3, [r5, #16]
 1055 002c 1C43     		orrs	r4, r4, r3
 1056              	.LVL41:
 1057 002e 2C61     		str	r4, [r5, #16]
 1058              		.loc 1 596 0
 1059 0030 2B69     		ldr	r3, [r5, #16]
 1060 0032 43F00403 		orr	r3, r3, #4
 1061 0036 2B61     		str	r3, [r5, #16]
 1062              		.loc 1 597 0
 1063 0038 2B69     		ldr	r3, [r5, #16]
 1064 003a 43F48033 		orr	r3, r3, #65536
 1065 003e 2B61     		str	r3, [r5, #16]
 1066              		.loc 1 600 0
 1067 0040 FFF7FEFF 		bl	FLASH_WaitForLastOperation
 1068              	.LVL42:
 1069              		.loc 1 603 0
 1070 0044 2B69     		ldr	r3, [r5, #16]
 1071 0046 23F00403 		bic	r3, r3, #4
 1072 004a 2B61     		str	r3, [r5, #16]
 1073              		.loc 1 609 0
 1074 004c 38BD     		pop	{r3, r4, r5, pc}
 1075              	.LVL43:
 1076              	.L118:
 1077              		.loc 1 577 0
 1078 004e 0928     		cmp	r0, #9
 1079              		.loc 1 567 0
 1080 0050 4FF48074 		mov	r4, #256
 1081              	.LVL44:
 1082              		.loc 1 577 0
 1083 0054 E3D1     		bne	.L116
ARM GAS  /tmp/ccF2L4A0.s 			page 20


 1084 0056 E3E7     		b	.L121
 1085              	.L123:
 1086              		.align	2
 1087              	.L122:
 1088 0058 003C0240 		.word	1073888256
 1089              		.cfi_endproc
 1090              	.LFE121:
 1091              		.size	FLASH_EraseAllSectors, .-FLASH_EraseAllSectors
 1092              		.section	.text.FLASH_EraseAllBank1Sectors,"ax",%progbits
 1093              		.align	1
 1094              		.p2align 4,,15
 1095              		.global	FLASH_EraseAllBank1Sectors
 1096              		.syntax unified
 1097              		.thumb
 1098              		.thumb_func
 1099              		.fpu fpv4-sp-d16
 1100              		.type	FLASH_EraseAllBank1Sectors, %function
 1101              	FLASH_EraseAllBank1Sectors:
 1102              	.LFB154:
 1103              		.cfi_startproc
 1104              		@ args = 0, pretend = 0, frame = 0
 1105              		@ frame_needed = 0, uses_anonymous_args = 0
 1106              		@ link register save eliminated.
 1107 0000 FFF7FEBF 		b	FLASH_EraseAllSectors
 1108              		.cfi_endproc
 1109              	.LFE154:
 1110              		.size	FLASH_EraseAllBank1Sectors, .-FLASH_EraseAllBank1Sectors
 1111              		.section	.text.FLASH_EraseAllBank2Sectors,"ax",%progbits
 1112              		.align	1
 1113              		.p2align 4,,15
 1114              		.global	FLASH_EraseAllBank2Sectors
 1115              		.syntax unified
 1116              		.thumb
 1117              		.thumb_func
 1118              		.fpu fpv4-sp-d16
 1119              		.type	FLASH_EraseAllBank2Sectors, %function
 1120              	FLASH_EraseAllBank2Sectors:
 1121              	.LFB123:
 1122              		.loc 1 701 0
 1123              		.cfi_startproc
 1124              		@ args = 0, pretend = 0, frame = 0
 1125              		@ frame_needed = 0, uses_anonymous_args = 0
 1126              	.LVL45:
 1127              		.loc 1 701 0
 1128 0000 38B5     		push	{r3, r4, r5, lr}
 1129              		.cfi_def_cfa_offset 16
 1130              		.cfi_offset 3, -16
 1131              		.cfi_offset 4, -12
 1132              		.cfi_offset 5, -8
 1133              		.cfi_offset 14, -4
 1134              		.loc 1 701 0
 1135 0002 0446     		mov	r4, r0
 1136              		.loc 1 706 0
 1137 0004 FFF7FEFF 		bl	FLASH_WaitForLastOperation
 1138              	.LVL46:
 1139              		.loc 1 709 0
 1140 0008 3CB1     		cbz	r4, .L126
ARM GAS  /tmp/ccF2L4A0.s 			page 21


 1141              		.loc 1 713 0
 1142 000a 012C     		cmp	r4, #1
 1143 000c 1FD0     		beq	.L129
 1144              		.loc 1 717 0
 1145 000e 022C     		cmp	r4, #2
 1146              		.loc 1 723 0
 1147 0010 0CBF     		ite	eq
 1148 0012 4FF40074 		moveq	r4, #512
 1149 0016 4FF44074 		movne	r4, #768
 1150              	.L126:
 1151              	.LVL47:
 1152              		.loc 1 725 0
 1153 001a 0928     		cmp	r0, #9
 1154 001c 00D0     		beq	.L132
 1155              	.L127:
 1156              		.loc 1 742 0
 1157 001e 38BD     		pop	{r3, r4, r5, pc}
 1158              	.LVL48:
 1159              	.L132:
 1160              		.loc 1 728 0
 1161 0020 0D4D     		ldr	r5, .L133
 1162 0022 2B69     		ldr	r3, [r5, #16]
 1163 0024 23F44073 		bic	r3, r3, #768
 1164 0028 2B61     		str	r3, [r5, #16]
 1165              		.loc 1 729 0
 1166 002a 2B69     		ldr	r3, [r5, #16]
 1167 002c 1C43     		orrs	r4, r4, r3
 1168              	.LVL49:
 1169 002e 2C61     		str	r4, [r5, #16]
 1170              		.loc 1 730 0
 1171 0030 2B69     		ldr	r3, [r5, #16]
 1172 0032 43F40043 		orr	r3, r3, #32768
 1173 0036 2B61     		str	r3, [r5, #16]
 1174              		.loc 1 731 0
 1175 0038 2B69     		ldr	r3, [r5, #16]
 1176 003a 43F48033 		orr	r3, r3, #65536
 1177 003e 2B61     		str	r3, [r5, #16]
 1178              		.loc 1 734 0
 1179 0040 FFF7FEFF 		bl	FLASH_WaitForLastOperation
 1180              	.LVL50:
 1181              		.loc 1 737 0
 1182 0044 2B69     		ldr	r3, [r5, #16]
 1183 0046 23F40043 		bic	r3, r3, #32768
 1184 004a 2B61     		str	r3, [r5, #16]
 1185              		.loc 1 742 0
 1186 004c 38BD     		pop	{r3, r4, r5, pc}
 1187              	.LVL51:
 1188              	.L129:
 1189              		.loc 1 725 0
 1190 004e 0928     		cmp	r0, #9
 1191              		.loc 1 715 0
 1192 0050 4FF48074 		mov	r4, #256
 1193              	.LVL52:
 1194              		.loc 1 725 0
 1195 0054 E3D1     		bne	.L127
 1196 0056 E3E7     		b	.L132
 1197              	.L134:
ARM GAS  /tmp/ccF2L4A0.s 			page 22


 1198              		.align	2
 1199              	.L133:
 1200 0058 003C0240 		.word	1073888256
 1201              		.cfi_endproc
 1202              	.LFE123:
 1203              		.size	FLASH_EraseAllBank2Sectors, .-FLASH_EraseAllBank2Sectors
 1204              		.section	.text.FLASH_ProgramDoubleWord,"ax",%progbits
 1205              		.align	1
 1206              		.p2align 4,,15
 1207              		.global	FLASH_ProgramDoubleWord
 1208              		.syntax unified
 1209              		.thumb
 1210              		.thumb_func
 1211              		.fpu fpv4-sp-d16
 1212              		.type	FLASH_ProgramDoubleWord, %function
 1213              	FLASH_ProgramDoubleWord:
 1214              	.LFB124:
 1215              		.loc 1 758 0
 1216              		.cfi_startproc
 1217              		@ args = 0, pretend = 0, frame = 0
 1218              		@ frame_needed = 0, uses_anonymous_args = 0
 1219              	.LVL53:
 1220 0000 F8B5     		push	{r3, r4, r5, r6, r7, lr}
 1221              		.cfi_def_cfa_offset 24
 1222              		.cfi_offset 3, -24
 1223              		.cfi_offset 4, -20
 1224              		.cfi_offset 5, -16
 1225              		.cfi_offset 6, -12
 1226              		.cfi_offset 7, -8
 1227              		.cfi_offset 14, -4
 1228              		.loc 1 758 0
 1229 0002 0546     		mov	r5, r0
 1230 0004 1646     		mov	r6, r2
 1231 0006 1F46     		mov	r7, r3
 1232              		.loc 1 765 0
 1233 0008 FFF7FEFF 		bl	FLASH_WaitForLastOperation
 1234              	.LVL54:
 1235              		.loc 1 767 0
 1236 000c 0928     		cmp	r0, #9
 1237 000e 00D0     		beq	.L138
 1238              		.loc 1 784 0
 1239 0010 F8BD     		pop	{r3, r4, r5, r6, r7, pc}
 1240              	.LVL55:
 1241              	.L138:
 1242              		.loc 1 770 0
 1243 0012 0B4C     		ldr	r4, .L139
 1244 0014 2369     		ldr	r3, [r4, #16]
 1245 0016 23F44073 		bic	r3, r3, #768
 1246 001a 2361     		str	r3, [r4, #16]
 1247              		.loc 1 771 0
 1248 001c 2369     		ldr	r3, [r4, #16]
 1249 001e 43F44073 		orr	r3, r3, #768
 1250 0022 2361     		str	r3, [r4, #16]
 1251              		.loc 1 772 0
 1252 0024 2369     		ldr	r3, [r4, #16]
 1253 0026 43F00103 		orr	r3, r3, #1
 1254 002a 2361     		str	r3, [r4, #16]
ARM GAS  /tmp/ccF2L4A0.s 			page 23


 1255              		.loc 1 774 0
 1256 002c C5E90067 		strd	r6, [r5]
 1257              		.loc 1 777 0
 1258 0030 FFF7FEFF 		bl	FLASH_WaitForLastOperation
 1259              	.LVL56:
 1260              		.loc 1 780 0
 1261 0034 2369     		ldr	r3, [r4, #16]
 1262 0036 23F00103 		bic	r3, r3, #1
 1263 003a 2361     		str	r3, [r4, #16]
 1264              		.loc 1 784 0
 1265 003c F8BD     		pop	{r3, r4, r5, r6, r7, pc}
 1266              	.LVL57:
 1267              	.L140:
 1268 003e 00BF     		.align	2
 1269              	.L139:
 1270 0040 003C0240 		.word	1073888256
 1271              		.cfi_endproc
 1272              	.LFE124:
 1273              		.size	FLASH_ProgramDoubleWord, .-FLASH_ProgramDoubleWord
 1274              		.section	.text.FLASH_ProgramWord,"ax",%progbits
 1275              		.align	1
 1276              		.p2align 4,,15
 1277              		.global	FLASH_ProgramWord
 1278              		.syntax unified
 1279              		.thumb
 1280              		.thumb_func
 1281              		.fpu fpv4-sp-d16
 1282              		.type	FLASH_ProgramWord, %function
 1283              	FLASH_ProgramWord:
 1284              	.LFB125:
 1285              		.loc 1 801 0
 1286              		.cfi_startproc
 1287              		@ args = 0, pretend = 0, frame = 0
 1288              		@ frame_needed = 0, uses_anonymous_args = 0
 1289              	.LVL58:
 1290 0000 70B5     		push	{r4, r5, r6, lr}
 1291              		.cfi_def_cfa_offset 16
 1292              		.cfi_offset 4, -16
 1293              		.cfi_offset 5, -12
 1294              		.cfi_offset 6, -8
 1295              		.cfi_offset 14, -4
 1296              		.loc 1 801 0
 1297 0002 0546     		mov	r5, r0
 1298 0004 0E46     		mov	r6, r1
 1299              		.loc 1 808 0
 1300 0006 FFF7FEFF 		bl	FLASH_WaitForLastOperation
 1301              	.LVL59:
 1302              		.loc 1 810 0
 1303 000a 0928     		cmp	r0, #9
 1304 000c 00D0     		beq	.L144
 1305              		.loc 1 827 0
 1306 000e 70BD     		pop	{r4, r5, r6, pc}
 1307              	.LVL60:
 1308              	.L144:
 1309              		.loc 1 813 0
 1310 0010 0A4C     		ldr	r4, .L145
 1311 0012 2369     		ldr	r3, [r4, #16]
ARM GAS  /tmp/ccF2L4A0.s 			page 24


 1312 0014 23F44073 		bic	r3, r3, #768
 1313 0018 2361     		str	r3, [r4, #16]
 1314              		.loc 1 814 0
 1315 001a 2369     		ldr	r3, [r4, #16]
 1316 001c 43F40073 		orr	r3, r3, #512
 1317 0020 2361     		str	r3, [r4, #16]
 1318              		.loc 1 815 0
 1319 0022 2369     		ldr	r3, [r4, #16]
 1320 0024 43F00103 		orr	r3, r3, #1
 1321 0028 2361     		str	r3, [r4, #16]
 1322              		.loc 1 817 0
 1323 002a 2E60     		str	r6, [r5]
 1324              		.loc 1 820 0
 1325 002c FFF7FEFF 		bl	FLASH_WaitForLastOperation
 1326              	.LVL61:
 1327              		.loc 1 823 0
 1328 0030 2369     		ldr	r3, [r4, #16]
 1329 0032 23F00103 		bic	r3, r3, #1
 1330 0036 2361     		str	r3, [r4, #16]
 1331              		.loc 1 827 0
 1332 0038 70BD     		pop	{r4, r5, r6, pc}
 1333              	.LVL62:
 1334              	.L146:
 1335 003a 00BF     		.align	2
 1336              	.L145:
 1337 003c 003C0240 		.word	1073888256
 1338              		.cfi_endproc
 1339              	.LFE125:
 1340              		.size	FLASH_ProgramWord, .-FLASH_ProgramWord
 1341              		.section	.text.FLASH_ProgramHalfWord,"ax",%progbits
 1342              		.align	1
 1343              		.p2align 4,,15
 1344              		.global	FLASH_ProgramHalfWord
 1345              		.syntax unified
 1346              		.thumb
 1347              		.thumb_func
 1348              		.fpu fpv4-sp-d16
 1349              		.type	FLASH_ProgramHalfWord, %function
 1350              	FLASH_ProgramHalfWord:
 1351              	.LFB126:
 1352              		.loc 1 843 0
 1353              		.cfi_startproc
 1354              		@ args = 0, pretend = 0, frame = 0
 1355              		@ frame_needed = 0, uses_anonymous_args = 0
 1356              	.LVL63:
 1357 0000 70B5     		push	{r4, r5, r6, lr}
 1358              		.cfi_def_cfa_offset 16
 1359              		.cfi_offset 4, -16
 1360              		.cfi_offset 5, -12
 1361              		.cfi_offset 6, -8
 1362              		.cfi_offset 14, -4
 1363              		.loc 1 843 0
 1364 0002 0546     		mov	r5, r0
 1365 0004 0E46     		mov	r6, r1
 1366              		.loc 1 850 0
 1367 0006 FFF7FEFF 		bl	FLASH_WaitForLastOperation
 1368              	.LVL64:
ARM GAS  /tmp/ccF2L4A0.s 			page 25


 1369              		.loc 1 852 0
 1370 000a 0928     		cmp	r0, #9
 1371 000c 00D0     		beq	.L150
 1372              		.loc 1 869 0
 1373 000e 70BD     		pop	{r4, r5, r6, pc}
 1374              	.LVL65:
 1375              	.L150:
 1376              		.loc 1 855 0
 1377 0010 0A4C     		ldr	r4, .L151
 1378 0012 2369     		ldr	r3, [r4, #16]
 1379 0014 23F44073 		bic	r3, r3, #768
 1380 0018 2361     		str	r3, [r4, #16]
 1381              		.loc 1 856 0
 1382 001a 2369     		ldr	r3, [r4, #16]
 1383 001c 43F48073 		orr	r3, r3, #256
 1384 0020 2361     		str	r3, [r4, #16]
 1385              		.loc 1 857 0
 1386 0022 2369     		ldr	r3, [r4, #16]
 1387 0024 43F00103 		orr	r3, r3, #1
 1388 0028 2361     		str	r3, [r4, #16]
 1389              		.loc 1 859 0
 1390 002a 2E80     		strh	r6, [r5]	@ movhi
 1391              		.loc 1 862 0
 1392 002c FFF7FEFF 		bl	FLASH_WaitForLastOperation
 1393              	.LVL66:
 1394              		.loc 1 865 0
 1395 0030 2369     		ldr	r3, [r4, #16]
 1396 0032 23F00103 		bic	r3, r3, #1
 1397 0036 2361     		str	r3, [r4, #16]
 1398              		.loc 1 869 0
 1399 0038 70BD     		pop	{r4, r5, r6, pc}
 1400              	.LVL67:
 1401              	.L152:
 1402 003a 00BF     		.align	2
 1403              	.L151:
 1404 003c 003C0240 		.word	1073888256
 1405              		.cfi_endproc
 1406              	.LFE126:
 1407              		.size	FLASH_ProgramHalfWord, .-FLASH_ProgramHalfWord
 1408              		.section	.text.FLASH_ProgramByte,"ax",%progbits
 1409              		.align	1
 1410              		.p2align 4,,15
 1411              		.global	FLASH_ProgramByte
 1412              		.syntax unified
 1413              		.thumb
 1414              		.thumb_func
 1415              		.fpu fpv4-sp-d16
 1416              		.type	FLASH_ProgramByte, %function
 1417              	FLASH_ProgramByte:
 1418              	.LFB127:
 1419              		.loc 1 885 0
 1420              		.cfi_startproc
 1421              		@ args = 0, pretend = 0, frame = 0
 1422              		@ frame_needed = 0, uses_anonymous_args = 0
 1423              	.LVL68:
 1424 0000 70B5     		push	{r4, r5, r6, lr}
 1425              		.cfi_def_cfa_offset 16
ARM GAS  /tmp/ccF2L4A0.s 			page 26


 1426              		.cfi_offset 4, -16
 1427              		.cfi_offset 5, -12
 1428              		.cfi_offset 6, -8
 1429              		.cfi_offset 14, -4
 1430              		.loc 1 885 0
 1431 0002 0546     		mov	r5, r0
 1432 0004 0E46     		mov	r6, r1
 1433              		.loc 1 892 0
 1434 0006 FFF7FEFF 		bl	FLASH_WaitForLastOperation
 1435              	.LVL69:
 1436              		.loc 1 894 0
 1437 000a 0928     		cmp	r0, #9
 1438 000c 00D0     		beq	.L156
 1439              		.loc 1 912 0
 1440 000e 70BD     		pop	{r4, r5, r6, pc}
 1441              	.LVL70:
 1442              	.L156:
 1443              		.loc 1 897 0
 1444 0010 094C     		ldr	r4, .L157
 1445 0012 2369     		ldr	r3, [r4, #16]
 1446 0014 23F44073 		bic	r3, r3, #768
 1447 0018 2361     		str	r3, [r4, #16]
 1448              		.loc 1 898 0
 1449 001a 2369     		ldr	r3, [r4, #16]
 1450 001c 2361     		str	r3, [r4, #16]
 1451              		.loc 1 899 0
 1452 001e 2369     		ldr	r3, [r4, #16]
 1453 0020 43F00103 		orr	r3, r3, #1
 1454 0024 2361     		str	r3, [r4, #16]
 1455              		.loc 1 901 0
 1456 0026 2E70     		strb	r6, [r5]
 1457              		.loc 1 904 0
 1458 0028 FFF7FEFF 		bl	FLASH_WaitForLastOperation
 1459              	.LVL71:
 1460              		.loc 1 907 0
 1461 002c 2369     		ldr	r3, [r4, #16]
 1462 002e 23F00103 		bic	r3, r3, #1
 1463 0032 2361     		str	r3, [r4, #16]
 1464              		.loc 1 912 0
 1465 0034 70BD     		pop	{r4, r5, r6, pc}
 1466              	.LVL72:
 1467              	.L158:
 1468 0036 00BF     		.align	2
 1469              	.L157:
 1470 0038 003C0240 		.word	1073888256
 1471              		.cfi_endproc
 1472              	.LFE127:
 1473              		.size	FLASH_ProgramByte, .-FLASH_ProgramByte
 1474              		.section	.text.FLASH_OB_WRPConfig,"ax",%progbits
 1475              		.align	1
 1476              		.p2align 4,,15
 1477              		.global	FLASH_OB_WRPConfig
 1478              		.syntax unified
 1479              		.thumb
 1480              		.thumb_func
 1481              		.fpu fpv4-sp-d16
 1482              		.type	FLASH_OB_WRPConfig, %function
ARM GAS  /tmp/ccF2L4A0.s 			page 27


 1483              	FLASH_OB_WRPConfig:
 1484              	.LFB130:
 1485              		.loc 1 1022 0
 1486              		.cfi_startproc
 1487              		@ args = 0, pretend = 0, frame = 0
 1488              		@ frame_needed = 0, uses_anonymous_args = 0
 1489              	.LVL73:
 1490 0000 38B5     		push	{r3, r4, r5, lr}
 1491              		.cfi_def_cfa_offset 16
 1492              		.cfi_offset 3, -16
 1493              		.cfi_offset 4, -12
 1494              		.cfi_offset 5, -8
 1495              		.cfi_offset 14, -4
 1496              		.loc 1 1022 0
 1497 0002 0446     		mov	r4, r0
 1498 0004 0D46     		mov	r5, r1
 1499              		.loc 1 1029 0
 1500 0006 FFF7FEFF 		bl	FLASH_WaitForLastOperation
 1501              	.LVL74:
 1502              		.loc 1 1031 0
 1503 000a 0928     		cmp	r0, #9
 1504 000c 00D0     		beq	.L163
 1505              		.loc 1 1042 0
 1506 000e 38BD     		pop	{r3, r4, r5, pc}
 1507              	.LVL75:
 1508              	.L163:
 1509 0010 A4B2     		uxth	r4, r4
 1510              	.LVL76:
 1511              		.loc 1 1033 0
 1512 0012 25B9     		cbnz	r5, .L164
 1513              		.loc 1 1039 0
 1514 0014 054B     		ldr	r3, .L165
 1515 0016 1A88     		ldrh	r2, [r3]
 1516 0018 1443     		orrs	r4, r4, r2
 1517 001a 1C80     		strh	r4, [r3]	@ movhi
 1518              		.loc 1 1042 0
 1519 001c 38BD     		pop	{r3, r4, r5, pc}
 1520              	.L164:
 1521              		.loc 1 1035 0
 1522 001e 034A     		ldr	r2, .L165
 1523 0020 1388     		ldrh	r3, [r2]
 1524 0022 23EA0404 		bic	r4, r3, r4
 1525 0026 1480     		strh	r4, [r2]	@ movhi
 1526              		.loc 1 1042 0
 1527 0028 38BD     		pop	{r3, r4, r5, pc}
 1528              	.L166:
 1529 002a 00BF     		.align	2
 1530              	.L165:
 1531 002c 163C0240 		.word	1073888278
 1532              		.cfi_endproc
 1533              	.LFE130:
 1534              		.size	FLASH_OB_WRPConfig, .-FLASH_OB_WRPConfig
 1535              		.section	.text.FLASH_OB_WRP1Config,"ax",%progbits
 1536              		.align	1
 1537              		.p2align 4,,15
 1538              		.global	FLASH_OB_WRP1Config
 1539              		.syntax unified
ARM GAS  /tmp/ccF2L4A0.s 			page 28


 1540              		.thumb
 1541              		.thumb_func
 1542              		.fpu fpv4-sp-d16
 1543              		.type	FLASH_OB_WRP1Config, %function
 1544              	FLASH_OB_WRP1Config:
 1545              	.LFB131:
 1546              		.loc 1 1064 0
 1547              		.cfi_startproc
 1548              		@ args = 0, pretend = 0, frame = 0
 1549              		@ frame_needed = 0, uses_anonymous_args = 0
 1550              	.LVL77:
 1551 0000 38B5     		push	{r3, r4, r5, lr}
 1552              		.cfi_def_cfa_offset 16
 1553              		.cfi_offset 3, -16
 1554              		.cfi_offset 4, -12
 1555              		.cfi_offset 5, -8
 1556              		.cfi_offset 14, -4
 1557              		.loc 1 1064 0
 1558 0002 0446     		mov	r4, r0
 1559 0004 0D46     		mov	r5, r1
 1560              		.loc 1 1071 0
 1561 0006 FFF7FEFF 		bl	FLASH_WaitForLastOperation
 1562              	.LVL78:
 1563              		.loc 1 1073 0
 1564 000a 0928     		cmp	r0, #9
 1565 000c 00D0     		beq	.L171
 1566              		.loc 1 1084 0
 1567 000e 38BD     		pop	{r3, r4, r5, pc}
 1568              	.LVL79:
 1569              	.L171:
 1570 0010 A4B2     		uxth	r4, r4
 1571              	.LVL80:
 1572              		.loc 1 1075 0
 1573 0012 25B9     		cbnz	r5, .L172
 1574              		.loc 1 1081 0
 1575 0014 054B     		ldr	r3, .L173
 1576 0016 1A88     		ldrh	r2, [r3]
 1577 0018 1443     		orrs	r4, r4, r2
 1578 001a 1C80     		strh	r4, [r3]	@ movhi
 1579              		.loc 1 1084 0
 1580 001c 38BD     		pop	{r3, r4, r5, pc}
 1581              	.L172:
 1582              		.loc 1 1077 0
 1583 001e 034A     		ldr	r2, .L173
 1584 0020 1388     		ldrh	r3, [r2]
 1585 0022 23EA0404 		bic	r4, r3, r4
 1586 0026 1480     		strh	r4, [r2]	@ movhi
 1587              		.loc 1 1084 0
 1588 0028 38BD     		pop	{r3, r4, r5, pc}
 1589              	.L174:
 1590 002a 00BF     		.align	2
 1591              	.L173:
 1592 002c 1A3C0240 		.word	1073888282
 1593              		.cfi_endproc
 1594              	.LFE131:
 1595              		.size	FLASH_OB_WRP1Config, .-FLASH_OB_WRP1Config
 1596              		.section	.text.FLASH_OB_PCROPConfig,"ax",%progbits
ARM GAS  /tmp/ccF2L4A0.s 			page 29


 1597              		.align	1
 1598              		.p2align 4,,15
 1599              		.global	FLASH_OB_PCROPConfig
 1600              		.syntax unified
 1601              		.thumb
 1602              		.thumb_func
 1603              		.fpu fpv4-sp-d16
 1604              		.type	FLASH_OB_PCROPConfig, %function
 1605              	FLASH_OB_PCROPConfig:
 1606              	.LFB133:
 1607              		.loc 1 1144 0
 1608              		.cfi_startproc
 1609              		@ args = 0, pretend = 0, frame = 0
 1610              		@ frame_needed = 0, uses_anonymous_args = 0
 1611              	.LVL81:
 1612 0000 38B5     		push	{r3, r4, r5, lr}
 1613              		.cfi_def_cfa_offset 16
 1614              		.cfi_offset 3, -16
 1615              		.cfi_offset 4, -12
 1616              		.cfi_offset 5, -8
 1617              		.cfi_offset 14, -4
 1618              		.loc 1 1144 0
 1619 0002 0446     		mov	r4, r0
 1620 0004 0D46     		mov	r5, r1
 1621              		.loc 1 1151 0
 1622 0006 FFF7FEFF 		bl	FLASH_WaitForLastOperation
 1623              	.LVL82:
 1624              		.loc 1 1153 0
 1625 000a 0928     		cmp	r0, #9
 1626 000c 00D0     		beq	.L179
 1627              		.loc 1 1164 0
 1628 000e 38BD     		pop	{r3, r4, r5, pc}
 1629              	.LVL83:
 1630              	.L179:
 1631 0010 A4B2     		uxth	r4, r4
 1632              	.LVL84:
 1633              		.loc 1 1155 0
 1634 0012 2DB9     		cbnz	r5, .L180
 1635              		.loc 1 1161 0
 1636 0014 054A     		ldr	r2, .L181
 1637 0016 1388     		ldrh	r3, [r2]
 1638 0018 23EA0404 		bic	r4, r3, r4
 1639 001c 1480     		strh	r4, [r2]	@ movhi
 1640              		.loc 1 1164 0
 1641 001e 38BD     		pop	{r3, r4, r5, pc}
 1642              	.L180:
 1643              		.loc 1 1157 0
 1644 0020 024B     		ldr	r3, .L181
 1645 0022 1A88     		ldrh	r2, [r3]
 1646 0024 1443     		orrs	r4, r4, r2
 1647 0026 1C80     		strh	r4, [r3]	@ movhi
 1648              		.loc 1 1164 0
 1649 0028 38BD     		pop	{r3, r4, r5, pc}
 1650              	.L182:
 1651 002a 00BF     		.align	2
 1652              	.L181:
 1653 002c 163C0240 		.word	1073888278
ARM GAS  /tmp/ccF2L4A0.s 			page 30


 1654              		.cfi_endproc
 1655              	.LFE133:
 1656              		.size	FLASH_OB_PCROPConfig, .-FLASH_OB_PCROPConfig
 1657              		.section	.text.FLASH_OB_PCROP1Config,"ax",%progbits
 1658              		.align	1
 1659              		.p2align 4,,15
 1660              		.global	FLASH_OB_PCROP1Config
 1661              		.syntax unified
 1662              		.thumb
 1663              		.thumb_func
 1664              		.fpu fpv4-sp-d16
 1665              		.type	FLASH_OB_PCROP1Config, %function
 1666              	FLASH_OB_PCROP1Config:
 1667              	.LFB134:
 1668              		.loc 1 1181 0
 1669              		.cfi_startproc
 1670              		@ args = 0, pretend = 0, frame = 0
 1671              		@ frame_needed = 0, uses_anonymous_args = 0
 1672              	.LVL85:
 1673 0000 38B5     		push	{r3, r4, r5, lr}
 1674              		.cfi_def_cfa_offset 16
 1675              		.cfi_offset 3, -16
 1676              		.cfi_offset 4, -12
 1677              		.cfi_offset 5, -8
 1678              		.cfi_offset 14, -4
 1679              		.loc 1 1181 0
 1680 0002 0446     		mov	r4, r0
 1681 0004 0D46     		mov	r5, r1
 1682              		.loc 1 1188 0
 1683 0006 FFF7FEFF 		bl	FLASH_WaitForLastOperation
 1684              	.LVL86:
 1685              		.loc 1 1190 0
 1686 000a 0928     		cmp	r0, #9
 1687 000c 00D0     		beq	.L187
 1688              		.loc 1 1201 0
 1689 000e 38BD     		pop	{r3, r4, r5, pc}
 1690              	.LVL87:
 1691              	.L187:
 1692 0010 A4B2     		uxth	r4, r4
 1693              	.LVL88:
 1694              		.loc 1 1192 0
 1695 0012 2DB9     		cbnz	r5, .L188
 1696              		.loc 1 1198 0
 1697 0014 054A     		ldr	r2, .L189
 1698 0016 1388     		ldrh	r3, [r2]
 1699 0018 23EA0404 		bic	r4, r3, r4
 1700 001c 1480     		strh	r4, [r2]	@ movhi
 1701              		.loc 1 1201 0
 1702 001e 38BD     		pop	{r3, r4, r5, pc}
 1703              	.L188:
 1704              		.loc 1 1194 0
 1705 0020 024B     		ldr	r3, .L189
 1706 0022 1A88     		ldrh	r2, [r3]
 1707 0024 1443     		orrs	r4, r4, r2
 1708 0026 1C80     		strh	r4, [r3]	@ movhi
 1709              		.loc 1 1201 0
 1710 0028 38BD     		pop	{r3, r4, r5, pc}
ARM GAS  /tmp/ccF2L4A0.s 			page 31


 1711              	.L190:
 1712 002a 00BF     		.align	2
 1713              	.L189:
 1714 002c 1A3C0240 		.word	1073888282
 1715              		.cfi_endproc
 1716              	.LFE134:
 1717              		.size	FLASH_OB_PCROP1Config, .-FLASH_OB_PCROP1Config
 1718              		.section	.text.FLASH_OB_RDPConfig,"ax",%progbits
 1719              		.align	1
 1720              		.p2align 4,,15
 1721              		.global	FLASH_OB_RDPConfig
 1722              		.syntax unified
 1723              		.thumb
 1724              		.thumb_func
 1725              		.fpu fpv4-sp-d16
 1726              		.type	FLASH_OB_RDPConfig, %function
 1727              	FLASH_OB_RDPConfig:
 1728              	.LFB135:
 1729              		.loc 1 1217 0
 1730              		.cfi_startproc
 1731              		@ args = 0, pretend = 0, frame = 0
 1732              		@ frame_needed = 0, uses_anonymous_args = 0
 1733              	.LVL89:
 1734 0000 10B5     		push	{r4, lr}
 1735              		.cfi_def_cfa_offset 8
 1736              		.cfi_offset 4, -8
 1737              		.cfi_offset 14, -4
 1738              		.loc 1 1217 0
 1739 0002 0446     		mov	r4, r0
 1740              		.loc 1 1223 0
 1741 0004 FFF7FEFF 		bl	FLASH_WaitForLastOperation
 1742              	.LVL90:
 1743              		.loc 1 1225 0
 1744 0008 0928     		cmp	r0, #9
 1745              		.loc 1 1227 0
 1746 000a 04BF     		itt	eq
 1747 000c 014B     		ldreq	r3, .L194
 1748 000e 1C70     		strbeq	r4, [r3]
 1749              		.loc 1 1230 0
 1750 0010 10BD     		pop	{r4, pc}
 1751              	.L195:
 1752 0012 00BF     		.align	2
 1753              	.L194:
 1754 0014 153C0240 		.word	1073888277
 1755              		.cfi_endproc
 1756              	.LFE135:
 1757              		.size	FLASH_OB_RDPConfig, .-FLASH_OB_RDPConfig
 1758              		.section	.text.FLASH_OB_UserConfig,"ax",%progbits
 1759              		.align	1
 1760              		.p2align 4,,15
 1761              		.global	FLASH_OB_UserConfig
 1762              		.syntax unified
 1763              		.thumb
 1764              		.thumb_func
 1765              		.fpu fpv4-sp-d16
 1766              		.type	FLASH_OB_UserConfig, %function
 1767              	FLASH_OB_UserConfig:
ARM GAS  /tmp/ccF2L4A0.s 			page 32


 1768              	.LFB136:
 1769              		.loc 1 1249 0
 1770              		.cfi_startproc
 1771              		@ args = 0, pretend = 0, frame = 0
 1772              		@ frame_needed = 0, uses_anonymous_args = 0
 1773              	.LVL91:
 1774 0000 70B5     		push	{r4, r5, r6, lr}
 1775              		.cfi_def_cfa_offset 16
 1776              		.cfi_offset 4, -16
 1777              		.cfi_offset 5, -12
 1778              		.cfi_offset 6, -8
 1779              		.cfi_offset 14, -4
 1780              		.loc 1 1249 0
 1781 0002 0646     		mov	r6, r0
 1782 0004 0C46     		mov	r4, r1
 1783 0006 1546     		mov	r5, r2
 1784              		.loc 1 1259 0
 1785 0008 FFF7FEFF 		bl	FLASH_WaitForLastOperation
 1786              	.LVL92:
 1787              		.loc 1 1261 0
 1788 000c 0928     		cmp	r0, #9
 1789 000e 00D0     		beq	.L199
 1790              		.loc 1 1276 0
 1791 0010 70BD     		pop	{r4, r5, r6, pc}
 1792              	.L199:
 1793              		.loc 1 1270 0
 1794 0012 044A     		ldr	r2, .L200
 1795 0014 1378     		ldrb	r3, [r2]	@ zero_extendqisi2
 1796              	.LVL93:
 1797 0016 03F00F03 		and	r3, r3, #15
 1798              	.LVL94:
 1799              		.loc 1 1274 0
 1800 001a 1E43     		orrs	r6, r6, r3
 1801 001c 3543     		orrs	r5, r5, r6
 1802 001e 2C43     		orrs	r4, r4, r5
 1803 0020 1470     		strb	r4, [r2]
 1804              		.loc 1 1276 0
 1805 0022 70BD     		pop	{r4, r5, r6, pc}
 1806              	.L201:
 1807              		.align	2
 1808              	.L200:
 1809 0024 143C0240 		.word	1073888276
 1810              		.cfi_endproc
 1811              	.LFE136:
 1812              		.size	FLASH_OB_UserConfig, .-FLASH_OB_UserConfig
 1813              		.section	.text.FLASH_OB_Launch,"ax",%progbits
 1814              		.align	1
 1815              		.p2align 4,,15
 1816              		.global	FLASH_OB_Launch
 1817              		.syntax unified
 1818              		.thumb
 1819              		.thumb_func
 1820              		.fpu fpv4-sp-d16
 1821              		.type	FLASH_OB_Launch, %function
 1822              	FLASH_OB_Launch:
 1823              	.LFB139:
 1824              		.loc 1 1328 0
ARM GAS  /tmp/ccF2L4A0.s 			page 33


 1825              		.cfi_startproc
 1826              		@ args = 0, pretend = 0, frame = 0
 1827              		@ frame_needed = 0, uses_anonymous_args = 0
 1828              		@ link register save eliminated.
 1829              	.LVL95:
 1830              		.loc 1 1332 0
 1831 0000 034A     		ldr	r2, .L203
 1832 0002 1378     		ldrb	r3, [r2]	@ zero_extendqisi2
 1833 0004 43F00203 		orr	r3, r3, #2
 1834 0008 1370     		strb	r3, [r2]
 1835              		.loc 1 1335 0
 1836 000a FFF7FEBF 		b	FLASH_WaitForLastOperation
 1837              	.LVL96:
 1838              	.L204:
 1839 000e 00BF     		.align	2
 1840              	.L203:
 1841 0010 143C0240 		.word	1073888276
 1842              		.cfi_endproc
 1843              	.LFE139:
 1844              		.size	FLASH_OB_Launch, .-FLASH_OB_Launch
 1845              		.text
 1846              	.Letext0:
 1847              		.file 2 "/usr/arm-none-eabi/include/machine/_default_types.h"
 1848              		.file 3 "/usr/arm-none-eabi/include/sys/_stdint.h"
 1849              		.file 4 "ChibiOS_3.0.5/os/ext/CMSIS/include/core_cm4.h"
 1850              		.file 5 "ChibiOS_3.0.5/os/ext/CMSIS/ST/system_stm32f4xx.h"
 1851              		.file 6 "ChibiOS_3.0.5/os/ext/CMSIS/ST/stm32f407xx.h"
 1852              		.file 7 "ChibiOS_3.0.5/os/ext/CMSIS/ST/stm32f4xx.h"
 1853              		.file 8 "ChibiOS_3.0.5/ext/stdperiph_stm32f4/inc/stm32f4xx_flash.h"
 1854              		.section	.debug_info,"",%progbits
 1855              	.Ldebug_info0:
 1856 0000 3A0A0000 		.4byte	0xa3a
 1857 0004 0400     		.2byte	0x4
 1858 0006 00000000 		.4byte	.Ldebug_abbrev0
 1859 000a 04       		.byte	0x4
 1860 000b 01       		.uleb128 0x1
 1861 000c 10060000 		.4byte	.LASF102
 1862 0010 0C       		.byte	0xc
 1863 0011 DC010000 		.4byte	.LASF103
 1864 0015 25030000 		.4byte	.LASF104
 1865 0019 00000000 		.4byte	.Ldebug_ranges0+0
 1866 001d 00000000 		.4byte	0
 1867 0021 00000000 		.4byte	.Ldebug_line0
 1868 0025 02       		.uleb128 0x2
 1869 0026 08       		.byte	0x8
 1870 0027 07       		.byte	0x7
 1871 0028 4B030000 		.4byte	.LASF0
 1872 002c 02       		.uleb128 0x2
 1873 002d 01       		.byte	0x1
 1874 002e 06       		.byte	0x6
 1875 002f 2B030000 		.4byte	.LASF1
 1876 0033 03       		.uleb128 0x3
 1877 0034 5F020000 		.4byte	.LASF4
 1878 0038 02       		.byte	0x2
 1879 0039 2B       		.byte	0x2b
 1880 003a 3E000000 		.4byte	0x3e
 1881 003e 02       		.uleb128 0x2
ARM GAS  /tmp/ccF2L4A0.s 			page 34


 1882 003f 01       		.byte	0x1
 1883 0040 08       		.byte	0x8
 1884 0041 E4020000 		.4byte	.LASF2
 1885 0045 02       		.uleb128 0x2
 1886 0046 02       		.byte	0x2
 1887 0047 05       		.byte	0x5
 1888 0048 4F010000 		.4byte	.LASF3
 1889 004c 03       		.uleb128 0x3
 1890 004d C2000000 		.4byte	.LASF5
 1891 0051 02       		.byte	0x2
 1892 0052 39       		.byte	0x39
 1893 0053 57000000 		.4byte	0x57
 1894 0057 02       		.uleb128 0x2
 1895 0058 02       		.byte	0x2
 1896 0059 07       		.byte	0x7
 1897 005a D0030000 		.4byte	.LASF6
 1898 005e 03       		.uleb128 0x3
 1899 005f DB040000 		.4byte	.LASF7
 1900 0063 02       		.byte	0x2
 1901 0064 4D       		.byte	0x4d
 1902 0065 69000000 		.4byte	0x69
 1903 0069 02       		.uleb128 0x2
 1904 006a 04       		.byte	0x4
 1905 006b 05       		.byte	0x5
 1906 006c 28020000 		.4byte	.LASF8
 1907 0070 03       		.uleb128 0x3
 1908 0071 96000000 		.4byte	.LASF9
 1909 0075 02       		.byte	0x2
 1910 0076 4F       		.byte	0x4f
 1911 0077 7B000000 		.4byte	0x7b
 1912 007b 02       		.uleb128 0x2
 1913 007c 04       		.byte	0x4
 1914 007d 07       		.byte	0x7
 1915 007e 74040000 		.4byte	.LASF10
 1916 0082 02       		.uleb128 0x2
 1917 0083 08       		.byte	0x8
 1918 0084 05       		.byte	0x5
 1919 0085 AF010000 		.4byte	.LASF11
 1920 0089 03       		.uleb128 0x3
 1921 008a 69040000 		.4byte	.LASF12
 1922 008e 02       		.byte	0x2
 1923 008f 69       		.byte	0x69
 1924 0090 25000000 		.4byte	0x25
 1925 0094 04       		.uleb128 0x4
 1926 0095 04       		.byte	0x4
 1927 0096 05       		.byte	0x5
 1928 0097 696E7400 		.ascii	"int\000"
 1929 009b 02       		.uleb128 0x2
 1930 009c 04       		.byte	0x4
 1931 009d 07       		.byte	0x7
 1932 009e 8D030000 		.4byte	.LASF13
 1933 00a2 03       		.uleb128 0x3
 1934 00a3 14010000 		.4byte	.LASF14
 1935 00a7 03       		.byte	0x3
 1936 00a8 18       		.byte	0x18
 1937 00a9 33000000 		.4byte	0x33
 1938 00ad 03       		.uleb128 0x3
ARM GAS  /tmp/ccF2L4A0.s 			page 35


 1939 00ae 17040000 		.4byte	.LASF15
 1940 00b2 03       		.byte	0x3
 1941 00b3 24       		.byte	0x24
 1942 00b4 4C000000 		.4byte	0x4c
 1943 00b8 03       		.uleb128 0x3
 1944 00b9 20040000 		.4byte	.LASF16
 1945 00bd 03       		.byte	0x3
 1946 00be 2C       		.byte	0x2c
 1947 00bf 5E000000 		.4byte	0x5e
 1948 00c3 05       		.uleb128 0x5
 1949 00c4 B8000000 		.4byte	0xb8
 1950 00c8 03       		.uleb128 0x3
 1951 00c9 74030000 		.4byte	.LASF17
 1952 00cd 03       		.byte	0x3
 1953 00ce 30       		.byte	0x30
 1954 00cf 70000000 		.4byte	0x70
 1955 00d3 05       		.uleb128 0x5
 1956 00d4 C8000000 		.4byte	0xc8
 1957 00d8 03       		.uleb128 0x3
 1958 00d9 44000000 		.4byte	.LASF18
 1959 00dd 03       		.byte	0x3
 1960 00de 3C       		.byte	0x3c
 1961 00df 89000000 		.4byte	0x89
 1962 00e3 06       		.uleb128 0x6
 1963 00e4 A2050000 		.4byte	.LASF19
 1964 00e8 04       		.byte	0x4
 1965 00e9 A706     		.2byte	0x6a7
 1966 00eb C3000000 		.4byte	0xc3
 1967 00ef 07       		.uleb128 0x7
 1968 00f0 59040000 		.4byte	.LASF20
 1969 00f4 05       		.byte	0x5
 1970 00f5 4C       		.byte	0x4c
 1971 00f6 C8000000 		.4byte	0xc8
 1972 00fa 08       		.uleb128 0x8
 1973 00fb 1C       		.byte	0x1c
 1974 00fc 06       		.byte	0x6
 1975 00fd DA01     		.2byte	0x1da
 1976 00ff 5D010000 		.4byte	0x15d
 1977 0103 09       		.uleb128 0x9
 1978 0104 41435200 		.ascii	"ACR\000"
 1979 0108 06       		.byte	0x6
 1980 0109 DC01     		.2byte	0x1dc
 1981 010b D3000000 		.4byte	0xd3
 1982 010f 00       		.byte	0
 1983 0110 0A       		.uleb128 0xa
 1984 0111 E5050000 		.4byte	.LASF21
 1985 0115 06       		.byte	0x6
 1986 0116 DD01     		.2byte	0x1dd
 1987 0118 D3000000 		.4byte	0xd3
 1988 011c 04       		.byte	0x4
 1989 011d 0A       		.uleb128 0xa
 1990 011e 9E010000 		.4byte	.LASF22
 1991 0122 06       		.byte	0x6
 1992 0123 DE01     		.2byte	0x1de
 1993 0125 D3000000 		.4byte	0xd3
 1994 0129 08       		.byte	0x8
 1995 012a 09       		.uleb128 0x9
ARM GAS  /tmp/ccF2L4A0.s 			page 36


 1996 012b 535200   		.ascii	"SR\000"
 1997 012e 06       		.byte	0x6
 1998 012f DF01     		.2byte	0x1df
 1999 0131 D3000000 		.4byte	0xd3
 2000 0135 0C       		.byte	0xc
 2001 0136 09       		.uleb128 0x9
 2002 0137 435200   		.ascii	"CR\000"
 2003 013a 06       		.byte	0x6
 2004 013b E001     		.2byte	0x1e0
 2005 013d D3000000 		.4byte	0xd3
 2006 0141 10       		.byte	0x10
 2007 0142 0A       		.uleb128 0xa
 2008 0143 F3050000 		.4byte	.LASF23
 2009 0147 06       		.byte	0x6
 2010 0148 E101     		.2byte	0x1e1
 2011 014a D3000000 		.4byte	0xd3
 2012 014e 14       		.byte	0x14
 2013 014f 0A       		.uleb128 0xa
 2014 0150 A8020000 		.4byte	.LASF24
 2015 0154 06       		.byte	0x6
 2016 0155 E201     		.2byte	0x1e2
 2017 0157 D3000000 		.4byte	0xd3
 2018 015b 18       		.byte	0x18
 2019 015c 00       		.byte	0
 2020 015d 0B       		.uleb128 0xb
 2021 015e 79050000 		.4byte	.LASF25
 2022 0162 06       		.byte	0x6
 2023 0163 E301     		.2byte	0x1e3
 2024 0165 FA000000 		.4byte	0xfa
 2025 0169 0C       		.uleb128 0xc
 2026 016a 07       		.byte	0x7
 2027 016b 01       		.byte	0x1
 2028 016c 3E000000 		.4byte	0x3e
 2029 0170 07       		.byte	0x7
 2030 0171 B9       		.byte	0xb9
 2031 0172 83010000 		.4byte	0x183
 2032 0176 0D       		.uleb128 0xd
 2033 0177 B4030000 		.4byte	.LASF26
 2034 017b 00       		.byte	0
 2035 017c 0E       		.uleb128 0xe
 2036 017d 53455400 		.ascii	"SET\000"
 2037 0181 01       		.byte	0x1
 2038 0182 00       		.byte	0
 2039 0183 03       		.uleb128 0x3
 2040 0184 B7000000 		.4byte	.LASF27
 2041 0188 07       		.byte	0x7
 2042 0189 BC       		.byte	0xbc
 2043 018a 69010000 		.4byte	0x169
 2044 018e 0C       		.uleb128 0xc
 2045 018f 07       		.byte	0x7
 2046 0190 01       		.byte	0x1
 2047 0191 3E000000 		.4byte	0x3e
 2048 0195 07       		.byte	0x7
 2049 0196 BF       		.byte	0xbf
 2050 0197 A8010000 		.4byte	0x1a8
 2051 019b 0D       		.uleb128 0xd
 2052 019c 47010000 		.4byte	.LASF28
ARM GAS  /tmp/ccF2L4A0.s 			page 37


 2053 01a0 00       		.byte	0
 2054 01a1 0D       		.uleb128 0xd
 2055 01a2 F9050000 		.4byte	.LASF29
 2056 01a6 01       		.byte	0x1
 2057 01a7 00       		.byte	0
 2058 01a8 03       		.uleb128 0x3
 2059 01a9 B1040000 		.4byte	.LASF30
 2060 01ad 07       		.byte	0x7
 2061 01ae C2       		.byte	0xc2
 2062 01af 8E010000 		.4byte	0x18e
 2063 01b3 0C       		.uleb128 0xc
 2064 01b4 07       		.byte	0x7
 2065 01b5 01       		.byte	0x1
 2066 01b6 3E000000 		.4byte	0x3e
 2067 01ba 08       		.byte	0x8
 2068 01bb 35       		.byte	0x35
 2069 01bc F7010000 		.4byte	0x1f7
 2070 01c0 0D       		.uleb128 0xd
 2071 01c1 A9030000 		.4byte	.LASF31
 2072 01c5 01       		.byte	0x1
 2073 01c6 0D       		.uleb128 0xd
 2074 01c7 34070000 		.4byte	.LASF32
 2075 01cb 02       		.byte	0x2
 2076 01cc 0D       		.uleb128 0xd
 2077 01cd 69050000 		.4byte	.LASF33
 2078 01d1 03       		.byte	0x3
 2079 01d2 0D       		.uleb128 0xd
 2080 01d3 D5050000 		.4byte	.LASF34
 2081 01d7 04       		.byte	0x4
 2082 01d8 0D       		.uleb128 0xd
 2083 01d9 A1040000 		.4byte	.LASF35
 2084 01dd 05       		.byte	0x5
 2085 01de 0D       		.uleb128 0xd
 2086 01df 34000000 		.4byte	.LASF36
 2087 01e3 06       		.byte	0x6
 2088 01e4 0D       		.uleb128 0xd
 2089 01e5 19050000 		.4byte	.LASF37
 2090 01e9 07       		.byte	0x7
 2091 01ea 0D       		.uleb128 0xd
 2092 01eb 49020000 		.4byte	.LASF38
 2093 01ef 08       		.byte	0x8
 2094 01f0 0D       		.uleb128 0xd
 2095 01f1 9A030000 		.4byte	.LASF39
 2096 01f5 09       		.byte	0x9
 2097 01f6 00       		.byte	0
 2098 01f7 03       		.uleb128 0x3
 2099 01f8 1C010000 		.4byte	.LASF40
 2100 01fc 08       		.byte	0x8
 2101 01fd 3F       		.byte	0x3f
 2102 01fe B3010000 		.4byte	0x1b3
 2103 0202 05       		.uleb128 0x5
 2104 0203 F7010000 		.4byte	0x1f7
 2105 0207 0F       		.uleb128 0xf
 2106 0208 87050000 		.4byte	.LASF41
 2107 020c 01       		.byte	0x1
 2108 020d 3906     		.2byte	0x639
 2109 020f F7010000 		.4byte	0x1f7
ARM GAS  /tmp/ccF2L4A0.s 			page 38


 2110 0213 00000000 		.4byte	.LFB151
 2111 0217 24000000 		.4byte	.LFE151-.LFB151
 2112 021b 01       		.uleb128 0x1
 2113 021c 9C       		.byte	0x9c
 2114 021d 3A020000 		.4byte	0x23a
 2115 0221 10       		.uleb128 0x10
 2116 0222 EC030000 		.4byte	.LASF44
 2117 0226 01       		.byte	0x1
 2118 0227 3B06     		.2byte	0x63b
 2119 0229 02020000 		.4byte	0x202
 2120 022d 02       		.uleb128 0x2
 2121 022e 91       		.byte	0x91
 2122 022f 77       		.sleb128 -9
 2123 0230 11       		.uleb128 0x11
 2124 0231 0E000000 		.4byte	.LVL27
 2125 0235 3A020000 		.4byte	0x23a
 2126 0239 00       		.byte	0
 2127 023a 12       		.uleb128 0x12
 2128 023b 28040000 		.4byte	.LASF105
 2129 023f 01       		.byte	0x1
 2130 0240 0706     		.2byte	0x607
 2131 0242 F7010000 		.4byte	0x1f7
 2132 0246 01       		.byte	0x1
 2133 0247 58020000 		.4byte	0x258
 2134 024b 13       		.uleb128 0x13
 2135 024c 69020000 		.4byte	.LASF89
 2136 0250 01       		.byte	0x1
 2137 0251 0906     		.2byte	0x609
 2138 0253 F7010000 		.4byte	0x1f7
 2139 0257 00       		.byte	0
 2140 0258 14       		.uleb128 0x14
 2141 0259 7D030000 		.4byte	.LASF46
 2142 025d 01       		.byte	0x1
 2143 025e F805     		.2byte	0x5f8
 2144 0260 00000000 		.4byte	.LFB149
 2145 0264 0C000000 		.4byte	.LFE149-.LFB149
 2146 0268 01       		.uleb128 0x1
 2147 0269 9C       		.byte	0x9c
 2148 026a 7D020000 		.4byte	0x27d
 2149 026e 15       		.uleb128 0x15
 2150 026f BD010000 		.4byte	.LASF43
 2151 0273 01       		.byte	0x1
 2152 0274 F805     		.2byte	0x5f8
 2153 0276 C8000000 		.4byte	0xc8
 2154 027a 01       		.uleb128 0x1
 2155 027b 50       		.byte	0x50
 2156 027c 00       		.byte	0
 2157 027d 0F       		.uleb128 0xf
 2158 027e 37030000 		.4byte	.LASF42
 2159 0282 01       		.byte	0x1
 2160 0283 D905     		.2byte	0x5d9
 2161 0285 83010000 		.4byte	0x183
 2162 0289 00000000 		.4byte	.LFB148
 2163 028d 14000000 		.4byte	.LFE148-.LFB148
 2164 0291 01       		.uleb128 0x1
 2165 0292 9C       		.byte	0x9c
 2166 0293 B8020000 		.4byte	0x2b8
ARM GAS  /tmp/ccF2L4A0.s 			page 39


 2167 0297 16       		.uleb128 0x16
 2168 0298 BD010000 		.4byte	.LASF43
 2169 029c 01       		.byte	0x1
 2170 029d D905     		.2byte	0x5d9
 2171 029f C8000000 		.4byte	0xc8
 2172 02a3 00000000 		.4byte	.LLST7
 2173 02a7 17       		.uleb128 0x17
 2174 02a8 D4000000 		.4byte	.LASF45
 2175 02ac 01       		.byte	0x1
 2176 02ad DB05     		.2byte	0x5db
 2177 02af 83010000 		.4byte	0x183
 2178 02b3 21000000 		.4byte	.LLST8
 2179 02b7 00       		.byte	0
 2180 02b8 14       		.uleb128 0x14
 2181 02b9 00000000 		.4byte	.LASF47
 2182 02bd 01       		.byte	0x1
 2183 02be B905     		.2byte	0x5b9
 2184 02c0 00000000 		.4byte	.LFB147
 2185 02c4 18000000 		.4byte	.LFE147-.LFB147
 2186 02c8 01       		.uleb128 0x1
 2187 02c9 9C       		.byte	0x9c
 2188 02ca ED020000 		.4byte	0x2ed
 2189 02ce 16       		.uleb128 0x16
 2190 02cf 68000000 		.4byte	.LASF48
 2191 02d3 01       		.byte	0x1
 2192 02d4 B905     		.2byte	0x5b9
 2193 02d6 C8000000 		.4byte	0xc8
 2194 02da 5A000000 		.4byte	.LLST6
 2195 02de 15       		.uleb128 0x15
 2196 02df 3E010000 		.4byte	.LASF49
 2197 02e3 01       		.byte	0x1
 2198 02e4 B905     		.2byte	0x5b9
 2199 02e6 A8010000 		.4byte	0x1a8
 2200 02ea 01       		.uleb128 0x1
 2201 02eb 51       		.byte	0x51
 2202 02ec 00       		.byte	0
 2203 02ed 18       		.uleb128 0x18
 2204 02ee 38040000 		.4byte	.LASF56
 2205 02f2 01       		.byte	0x1
 2206 02f3 9C05     		.2byte	0x59c
 2207 02f5 A2000000 		.4byte	0xa2
 2208 02f9 00000000 		.4byte	.LFB146
 2209 02fd 10000000 		.4byte	.LFE146-.LFB146
 2210 0301 01       		.uleb128 0x1
 2211 0302 9C       		.byte	0x9c
 2212 0303 0F       		.uleb128 0xf
 2213 0304 00060000 		.4byte	.LASF50
 2214 0308 01       		.byte	0x1
 2215 0309 8405     		.2byte	0x584
 2216 030b 83010000 		.4byte	0x183
 2217 030f 00000000 		.4byte	.LFB145
 2218 0313 10000000 		.4byte	.LFE145-.LFB145
 2219 0317 01       		.uleb128 0x1
 2220 0318 9C       		.byte	0x9c
 2221 0319 2E030000 		.4byte	0x32e
 2222 031d 17       		.uleb128 0x17
 2223 031e 29010000 		.4byte	.LASF51
ARM GAS  /tmp/ccF2L4A0.s 			page 40


 2224 0322 01       		.byte	0x1
 2225 0323 8605     		.2byte	0x586
 2226 0325 83010000 		.4byte	0x183
 2227 0329 94000000 		.4byte	.LLST5
 2228 032d 00       		.byte	0
 2229 032e 19       		.uleb128 0x19
 2230 032f C1040000 		.4byte	.LASF52
 2231 0333 01       		.byte	0x1
 2232 0334 7705     		.2byte	0x577
 2233 0336 AD000000 		.4byte	0xad
 2234 033a 19       		.uleb128 0x19
 2235 033b 62030000 		.4byte	.LASF53
 2236 033f 01       		.byte	0x1
 2237 0340 6905     		.2byte	0x569
 2238 0342 AD000000 		.4byte	0xad
 2239 0346 1A       		.uleb128 0x1a
 2240 0347 06040000 		.4byte	.LASF54
 2241 034b 01       		.byte	0x1
 2242 034c 5B05     		.2byte	0x55b
 2243 034e AD000000 		.4byte	0xad
 2244 0352 01       		.byte	0x1
 2245 0353 1A       		.uleb128 0x1a
 2246 0354 79000000 		.4byte	.LASF55
 2247 0358 01       		.byte	0x1
 2248 0359 4D05     		.2byte	0x54d
 2249 035b AD000000 		.4byte	0xad
 2250 035f 01       		.byte	0x1
 2251 0360 18       		.uleb128 0x18
 2252 0361 D3020000 		.4byte	.LASF57
 2253 0365 01       		.byte	0x1
 2254 0366 4205     		.2byte	0x542
 2255 0368 A2000000 		.4byte	0xa2
 2256 036c 00000000 		.4byte	.LFB140
 2257 0370 10000000 		.4byte	.LFE140-.LFB140
 2258 0374 01       		.uleb128 0x1
 2259 0375 9C       		.byte	0x9c
 2260 0376 0F       		.uleb128 0xf
 2261 0377 AF020000 		.4byte	.LASF58
 2262 037b 01       		.byte	0x1
 2263 037c 2F05     		.2byte	0x52f
 2264 037e F7010000 		.4byte	0x1f7
 2265 0382 00000000 		.4byte	.LFB139
 2266 0386 14000000 		.4byte	.LFE139-.LFB139
 2267 038a 01       		.uleb128 0x1
 2268 038b 9C       		.byte	0x9c
 2269 038c A7030000 		.4byte	0x3a7
 2270 0390 1B       		.uleb128 0x1b
 2271 0391 EC030000 		.4byte	.LASF44
 2272 0395 01       		.byte	0x1
 2273 0396 3105     		.2byte	0x531
 2274 0398 F7010000 		.4byte	0x1f7
 2275 039c 09       		.byte	0x9
 2276 039d 1C       		.uleb128 0x1c
 2277 039e 0E000000 		.4byte	.LVL96
 2278 03a2 07020000 		.4byte	0x207
 2279 03a6 00       		.byte	0
 2280 03a7 14       		.uleb128 0x14
ARM GAS  /tmp/ccF2L4A0.s 			page 41


 2281 03a8 F3030000 		.4byte	.LASF59
 2282 03ac 01       		.byte	0x1
 2283 03ad 1E05     		.2byte	0x51e
 2284 03af 00000000 		.4byte	.LFB138
 2285 03b3 18000000 		.4byte	.LFE138-.LFB138
 2286 03b7 01       		.uleb128 0x1
 2287 03b8 9C       		.byte	0x9c
 2288 03b9 CE030000 		.4byte	0x3ce
 2289 03bd 16       		.uleb128 0x16
 2290 03be D4040000 		.4byte	.LASF60
 2291 03c2 01       		.byte	0x1
 2292 03c3 1E05     		.2byte	0x51e
 2293 03c5 A2000000 		.4byte	0xa2
 2294 03c9 BB000000 		.4byte	.LLST4
 2295 03cd 00       		.byte	0
 2296 03ce 14       		.uleb128 0x14
 2297 03cf BF020000 		.4byte	.LASF61
 2298 03d3 01       		.byte	0x1
 2299 03d4 0905     		.2byte	0x509
 2300 03d6 00000000 		.4byte	.LFB137
 2301 03da 18000000 		.4byte	.LFE137-.LFB137
 2302 03de 01       		.uleb128 0x1
 2303 03df 9C       		.byte	0x9c
 2304 03e0 F5030000 		.4byte	0x3f5
 2305 03e4 16       		.uleb128 0x16
 2306 03e5 71000000 		.4byte	.LASF62
 2307 03e9 01       		.byte	0x1
 2308 03ea 0905     		.2byte	0x509
 2309 03ec A2000000 		.4byte	0xa2
 2310 03f0 DC000000 		.4byte	.LLST3
 2311 03f4 00       		.byte	0
 2312 03f5 14       		.uleb128 0x14
 2313 03f6 DE000000 		.4byte	.LASF63
 2314 03fa 01       		.byte	0x1
 2315 03fb E004     		.2byte	0x4e0
 2316 03fd 00000000 		.4byte	.LFB136
 2317 0401 28000000 		.4byte	.LFE136-.LFB136
 2318 0405 01       		.uleb128 0x1
 2319 0406 9C       		.byte	0x9c
 2320 0407 65040000 		.4byte	0x465
 2321 040b 16       		.uleb128 0x16
 2322 040c 2C000000 		.4byte	.LASF64
 2323 0410 01       		.byte	0x1
 2324 0411 E004     		.2byte	0x4e0
 2325 0413 A2000000 		.4byte	0xa2
 2326 0417 FD000000 		.4byte	.LLST46
 2327 041b 16       		.uleb128 0x16
 2328 041c CD050000 		.4byte	.LASF65
 2329 0420 01       		.byte	0x1
 2330 0421 E004     		.2byte	0x4e0
 2331 0423 A2000000 		.4byte	0xa2
 2332 0427 1E010000 		.4byte	.LLST47
 2333 042b 16       		.uleb128 0x16
 2334 042c EA050000 		.4byte	.LASF66
 2335 0430 01       		.byte	0x1
 2336 0431 E004     		.2byte	0x4e0
 2337 0433 A2000000 		.4byte	0xa2
ARM GAS  /tmp/ccF2L4A0.s 			page 42


 2338 0437 3F010000 		.4byte	.LLST48
 2339 043b 17       		.uleb128 0x17
 2340 043c 2D050000 		.4byte	.LASF67
 2341 0440 01       		.byte	0x1
 2342 0441 E204     		.2byte	0x4e2
 2343 0443 A2000000 		.4byte	0xa2
 2344 0447 60010000 		.4byte	.LLST49
 2345 044b 17       		.uleb128 0x17
 2346 044c EC030000 		.4byte	.LASF44
 2347 0450 01       		.byte	0x1
 2348 0451 E304     		.2byte	0x4e3
 2349 0453 F7010000 		.4byte	0x1f7
 2350 0457 84010000 		.4byte	.LLST50
 2351 045b 11       		.uleb128 0x11
 2352 045c 0C000000 		.4byte	.LVL92
 2353 0460 07020000 		.4byte	0x207
 2354 0464 00       		.byte	0
 2355 0465 14       		.uleb128 0x14
 2356 0466 F8040000 		.4byte	.LASF68
 2357 046a 01       		.byte	0x1
 2358 046b C004     		.2byte	0x4c0
 2359 046d 00000000 		.4byte	.LFB135
 2360 0471 18000000 		.4byte	.LFE135-.LFB135
 2361 0475 01       		.uleb128 0x1
 2362 0476 9C       		.byte	0x9c
 2363 0477 A5040000 		.4byte	0x4a5
 2364 047b 16       		.uleb128 0x16
 2365 047c 25000000 		.4byte	.LASF69
 2366 0480 01       		.byte	0x1
 2367 0481 C004     		.2byte	0x4c0
 2368 0483 A2000000 		.4byte	0xa2
 2369 0487 A3010000 		.4byte	.LLST44
 2370 048b 17       		.uleb128 0x17
 2371 048c EC030000 		.4byte	.LASF44
 2372 0490 01       		.byte	0x1
 2373 0491 C204     		.2byte	0x4c2
 2374 0493 F7010000 		.4byte	0x1f7
 2375 0497 C4010000 		.4byte	.LLST45
 2376 049b 11       		.uleb128 0x11
 2377 049c 08000000 		.4byte	.LVL90
 2378 04a0 07020000 		.4byte	0x207
 2379 04a4 00       		.byte	0
 2380 04a5 14       		.uleb128 0x14
 2381 04a6 59010000 		.4byte	.LASF70
 2382 04aa 01       		.byte	0x1
 2383 04ab 9C04     		.2byte	0x49c
 2384 04ad 00000000 		.4byte	.LFB134
 2385 04b1 30000000 		.4byte	.LFE134-.LFB134
 2386 04b5 01       		.uleb128 0x1
 2387 04b6 9C       		.byte	0x9c
 2388 04b7 F5040000 		.4byte	0x4f5
 2389 04bb 16       		.uleb128 0x16
 2390 04bc A6010000 		.4byte	.LASF71
 2391 04c0 01       		.byte	0x1
 2392 04c1 9C04     		.2byte	0x49c
 2393 04c3 C8000000 		.4byte	0xc8
 2394 04c7 E3010000 		.4byte	.LLST41
ARM GAS  /tmp/ccF2L4A0.s 			page 43


 2395 04cb 16       		.uleb128 0x16
 2396 04cc 3E010000 		.4byte	.LASF49
 2397 04d0 01       		.byte	0x1
 2398 04d1 9C04     		.2byte	0x49c
 2399 04d3 A8010000 		.4byte	0x1a8
 2400 04d7 0F020000 		.4byte	.LLST42
 2401 04db 17       		.uleb128 0x17
 2402 04dc EC030000 		.4byte	.LASF44
 2403 04e0 01       		.byte	0x1
 2404 04e1 9E04     		.2byte	0x49e
 2405 04e3 F7010000 		.4byte	0x1f7
 2406 04e7 30020000 		.4byte	.LLST43
 2407 04eb 11       		.uleb128 0x11
 2408 04ec 0A000000 		.4byte	.LVL86
 2409 04f0 07020000 		.4byte	0x207
 2410 04f4 00       		.byte	0
 2411 04f5 14       		.uleb128 0x14
 2412 04f6 F2000000 		.4byte	.LASF72
 2413 04fa 01       		.byte	0x1
 2414 04fb 7704     		.2byte	0x477
 2415 04fd 00000000 		.4byte	.LFB133
 2416 0501 30000000 		.4byte	.LFE133-.LFB133
 2417 0505 01       		.uleb128 0x1
 2418 0506 9C       		.byte	0x9c
 2419 0507 45050000 		.4byte	0x545
 2420 050b 16       		.uleb128 0x16
 2421 050c A6010000 		.4byte	.LASF71
 2422 0510 01       		.byte	0x1
 2423 0511 7704     		.2byte	0x477
 2424 0513 C8000000 		.4byte	0xc8
 2425 0517 4F020000 		.4byte	.LLST38
 2426 051b 16       		.uleb128 0x16
 2427 051c 3E010000 		.4byte	.LASF49
 2428 0520 01       		.byte	0x1
 2429 0521 7704     		.2byte	0x477
 2430 0523 A8010000 		.4byte	0x1a8
 2431 0527 7B020000 		.4byte	.LLST39
 2432 052b 17       		.uleb128 0x17
 2433 052c EC030000 		.4byte	.LASF44
 2434 0530 01       		.byte	0x1
 2435 0531 7904     		.2byte	0x479
 2436 0533 F7010000 		.4byte	0x1f7
 2437 0537 9C020000 		.4byte	.LLST40
 2438 053b 11       		.uleb128 0x11
 2439 053c 0A000000 		.4byte	.LVL82
 2440 0540 07020000 		.4byte	0x207
 2441 0544 00       		.byte	0
 2442 0545 14       		.uleb128 0x14
 2443 0546 AF050000 		.4byte	.LASF73
 2444 054a 01       		.byte	0x1
 2445 054b 5904     		.2byte	0x459
 2446 054d 00000000 		.4byte	.LFB132
 2447 0551 14000000 		.4byte	.LFE132-.LFB132
 2448 0555 01       		.uleb128 0x1
 2449 0556 9C       		.byte	0x9c
 2450 0557 7C050000 		.4byte	0x57c
 2451 055b 16       		.uleb128 0x16
ARM GAS  /tmp/ccF2L4A0.s 			page 44


 2452 055c E3030000 		.4byte	.LASF74
 2453 0560 01       		.byte	0x1
 2454 0561 5904     		.2byte	0x459
 2455 0563 A2000000 		.4byte	0xa2
 2456 0567 BB020000 		.4byte	.LLST1
 2457 056b 17       		.uleb128 0x17
 2458 056c 2D050000 		.4byte	.LASF67
 2459 0570 01       		.byte	0x1
 2460 0571 5B04     		.2byte	0x45b
 2461 0573 A2000000 		.4byte	0xa2
 2462 0577 DC020000 		.4byte	.LLST2
 2463 057b 00       		.byte	0
 2464 057c 14       		.uleb128 0x14
 2465 057d C8010000 		.4byte	.LASF75
 2466 0581 01       		.byte	0x1
 2467 0582 2704     		.2byte	0x427
 2468 0584 00000000 		.4byte	.LFB131
 2469 0588 30000000 		.4byte	.LFE131-.LFB131
 2470 058c 01       		.uleb128 0x1
 2471 058d 9C       		.byte	0x9c
 2472 058e CC050000 		.4byte	0x5cc
 2473 0592 16       		.uleb128 0x16
 2474 0593 CD000000 		.4byte	.LASF76
 2475 0597 01       		.byte	0x1
 2476 0598 2704     		.2byte	0x427
 2477 059a C8000000 		.4byte	0xc8
 2478 059e 01030000 		.4byte	.LLST35
 2479 05a2 16       		.uleb128 0x16
 2480 05a3 3E010000 		.4byte	.LASF49
 2481 05a7 01       		.byte	0x1
 2482 05a8 2704     		.2byte	0x427
 2483 05aa A8010000 		.4byte	0x1a8
 2484 05ae 2D030000 		.4byte	.LLST36
 2485 05b2 17       		.uleb128 0x17
 2486 05b3 EC030000 		.4byte	.LASF44
 2487 05b7 01       		.byte	0x1
 2488 05b8 2904     		.2byte	0x429
 2489 05ba F7010000 		.4byte	0x1f7
 2490 05be 4E030000 		.4byte	.LLST37
 2491 05c2 11       		.uleb128 0x11
 2492 05c3 0A000000 		.4byte	.LVL78
 2493 05c7 07020000 		.4byte	0x207
 2494 05cb 00       		.byte	0
 2495 05cc 14       		.uleb128 0x14
 2496 05cd E5040000 		.4byte	.LASF77
 2497 05d1 01       		.byte	0x1
 2498 05d2 FD03     		.2byte	0x3fd
 2499 05d4 00000000 		.4byte	.LFB130
 2500 05d8 30000000 		.4byte	.LFE130-.LFB130
 2501 05dc 01       		.uleb128 0x1
 2502 05dd 9C       		.byte	0x9c
 2503 05de 1C060000 		.4byte	0x61c
 2504 05e2 16       		.uleb128 0x16
 2505 05e3 CD000000 		.4byte	.LASF76
 2506 05e7 01       		.byte	0x1
 2507 05e8 FD03     		.2byte	0x3fd
 2508 05ea C8000000 		.4byte	0xc8
ARM GAS  /tmp/ccF2L4A0.s 			page 45


 2509 05ee 6D030000 		.4byte	.LLST32
 2510 05f2 16       		.uleb128 0x16
 2511 05f3 3E010000 		.4byte	.LASF49
 2512 05f7 01       		.byte	0x1
 2513 05f8 FD03     		.2byte	0x3fd
 2514 05fa A8010000 		.4byte	0x1a8
 2515 05fe 99030000 		.4byte	.LLST33
 2516 0602 17       		.uleb128 0x17
 2517 0603 EC030000 		.4byte	.LASF44
 2518 0607 01       		.byte	0x1
 2519 0608 FF03     		.2byte	0x3ff
 2520 060a F7010000 		.4byte	0x1f7
 2521 060e BA030000 		.4byte	.LLST34
 2522 0612 11       		.uleb128 0x11
 2523 0613 0A000000 		.4byte	.LVL74
 2524 0617 07020000 		.4byte	0x207
 2525 061b 00       		.byte	0
 2526 061c 1D       		.uleb128 0x1d
 2527 061d A1000000 		.4byte	.LASF78
 2528 0621 01       		.byte	0x1
 2529 0622 E603     		.2byte	0x3e6
 2530 0624 00000000 		.4byte	.LFB129
 2531 0628 10000000 		.4byte	.LFE129-.LFB129
 2532 062c 01       		.uleb128 0x1
 2533 062d 9C       		.byte	0x9c
 2534 062e 1D       		.uleb128 0x1d
 2535 062f FD020000 		.4byte	.LASF79
 2536 0633 01       		.byte	0x1
 2537 0634 D703     		.2byte	0x3d7
 2538 0636 00000000 		.4byte	.LFB128
 2539 063a 20000000 		.4byte	.LFE128-.LFB128
 2540 063e 01       		.uleb128 0x1
 2541 063f 9C       		.byte	0x9c
 2542 0640 0F       		.uleb128 0xf
 2543 0641 96020000 		.4byte	.LASF80
 2544 0645 01       		.byte	0x1
 2545 0646 7403     		.2byte	0x374
 2546 0648 F7010000 		.4byte	0x1f7
 2547 064c 00000000 		.4byte	.LFB127
 2548 0650 3C000000 		.4byte	.LFE127-.LFB127
 2549 0654 01       		.uleb128 0x1
 2550 0655 9C       		.byte	0x9c
 2551 0656 9D060000 		.4byte	0x69d
 2552 065a 16       		.uleb128 0x16
 2553 065b AF000000 		.4byte	.LASF81
 2554 065f 01       		.byte	0x1
 2555 0660 7403     		.2byte	0x374
 2556 0662 C8000000 		.4byte	0xc8
 2557 0666 D9030000 		.4byte	.LLST29
 2558 066a 16       		.uleb128 0x16
 2559 066b 91020000 		.4byte	.LASF82
 2560 066f 01       		.byte	0x1
 2561 0670 7403     		.2byte	0x374
 2562 0672 A2000000 		.4byte	0xa2
 2563 0676 05040000 		.4byte	.LLST30
 2564 067a 17       		.uleb128 0x17
 2565 067b EC030000 		.4byte	.LASF44
ARM GAS  /tmp/ccF2L4A0.s 			page 46


 2566 067f 01       		.byte	0x1
 2567 0680 7603     		.2byte	0x376
 2568 0682 F7010000 		.4byte	0x1f7
 2569 0686 26040000 		.4byte	.LLST31
 2570 068a 11       		.uleb128 0x11
 2571 068b 0A000000 		.4byte	.LVL69
 2572 068f 07020000 		.4byte	0x207
 2573 0693 11       		.uleb128 0x11
 2574 0694 2C000000 		.4byte	.LVL71
 2575 0698 07020000 		.4byte	0x207
 2576 069c 00       		.byte	0
 2577 069d 0F       		.uleb128 0xf
 2578 069e BA030000 		.4byte	.LASF83
 2579 06a2 01       		.byte	0x1
 2580 06a3 4A03     		.2byte	0x34a
 2581 06a5 F7010000 		.4byte	0x1f7
 2582 06a9 00000000 		.4byte	.LFB126
 2583 06ad 40000000 		.4byte	.LFE126-.LFB126
 2584 06b1 01       		.uleb128 0x1
 2585 06b2 9C       		.byte	0x9c
 2586 06b3 FA060000 		.4byte	0x6fa
 2587 06b7 16       		.uleb128 0x16
 2588 06b8 AF000000 		.4byte	.LASF81
 2589 06bc 01       		.byte	0x1
 2590 06bd 4A03     		.2byte	0x34a
 2591 06bf C8000000 		.4byte	0xc8
 2592 06c3 50040000 		.4byte	.LLST26
 2593 06c7 16       		.uleb128 0x16
 2594 06c8 91020000 		.4byte	.LASF82
 2595 06cc 01       		.byte	0x1
 2596 06cd 4A03     		.2byte	0x34a
 2597 06cf AD000000 		.4byte	0xad
 2598 06d3 7C040000 		.4byte	.LLST27
 2599 06d7 17       		.uleb128 0x17
 2600 06d8 EC030000 		.4byte	.LASF44
 2601 06dc 01       		.byte	0x1
 2602 06dd 4C03     		.2byte	0x34c
 2603 06df F7010000 		.4byte	0x1f7
 2604 06e3 9D040000 		.4byte	.LLST28
 2605 06e7 11       		.uleb128 0x11
 2606 06e8 0A000000 		.4byte	.LVL64
 2607 06ec 07020000 		.4byte	0x207
 2608 06f0 11       		.uleb128 0x11
 2609 06f1 30000000 		.4byte	.LVL66
 2610 06f5 07020000 		.4byte	0x207
 2611 06f9 00       		.byte	0
 2612 06fa 0F       		.uleb128 0xf
 2613 06fb 37050000 		.4byte	.LASF84
 2614 06ff 01       		.byte	0x1
 2615 0700 2003     		.2byte	0x320
 2616 0702 F7010000 		.4byte	0x1f7
 2617 0706 00000000 		.4byte	.LFB125
 2618 070a 40000000 		.4byte	.LFE125-.LFB125
 2619 070e 01       		.uleb128 0x1
 2620 070f 9C       		.byte	0x9c
 2621 0710 57070000 		.4byte	0x757
 2622 0714 16       		.uleb128 0x16
ARM GAS  /tmp/ccF2L4A0.s 			page 47


 2623 0715 AF000000 		.4byte	.LASF81
 2624 0719 01       		.byte	0x1
 2625 071a 2003     		.2byte	0x320
 2626 071c C8000000 		.4byte	0xc8
 2627 0720 C7040000 		.4byte	.LLST23
 2628 0724 16       		.uleb128 0x16
 2629 0725 91020000 		.4byte	.LASF82
 2630 0729 01       		.byte	0x1
 2631 072a 2003     		.2byte	0x320
 2632 072c C8000000 		.4byte	0xc8
 2633 0730 F3040000 		.4byte	.LLST24
 2634 0734 17       		.uleb128 0x17
 2635 0735 EC030000 		.4byte	.LASF44
 2636 0739 01       		.byte	0x1
 2637 073a 2203     		.2byte	0x322
 2638 073c F7010000 		.4byte	0x1f7
 2639 0740 1F050000 		.4byte	.LLST25
 2640 0744 11       		.uleb128 0x11
 2641 0745 0A000000 		.4byte	.LVL59
 2642 0749 07020000 		.4byte	0x207
 2643 074d 11       		.uleb128 0x11
 2644 074e 30000000 		.4byte	.LVL61
 2645 0752 07020000 		.4byte	0x207
 2646 0756 00       		.byte	0
 2647 0757 0F       		.uleb128 0xf
 2648 0758 31020000 		.4byte	.LASF85
 2649 075c 01       		.byte	0x1
 2650 075d F502     		.2byte	0x2f5
 2651 075f F7010000 		.4byte	0x1f7
 2652 0763 00000000 		.4byte	.LFB124
 2653 0767 44000000 		.4byte	.LFE124-.LFB124
 2654 076b 01       		.uleb128 0x1
 2655 076c 9C       		.byte	0x9c
 2656 076d B4070000 		.4byte	0x7b4
 2657 0771 16       		.uleb128 0x16
 2658 0772 AF000000 		.4byte	.LASF81
 2659 0776 01       		.byte	0x1
 2660 0777 F502     		.2byte	0x2f5
 2661 0779 C8000000 		.4byte	0xc8
 2662 077d 49050000 		.4byte	.LLST20
 2663 0781 16       		.uleb128 0x16
 2664 0782 91020000 		.4byte	.LASF82
 2665 0786 01       		.byte	0x1
 2666 0787 F502     		.2byte	0x2f5
 2667 0789 D8000000 		.4byte	0xd8
 2668 078d 75050000 		.4byte	.LLST21
 2669 0791 17       		.uleb128 0x17
 2670 0792 EC030000 		.4byte	.LASF44
 2671 0796 01       		.byte	0x1
 2672 0797 F702     		.2byte	0x2f7
 2673 0799 F7010000 		.4byte	0x1f7
 2674 079d 9D050000 		.4byte	.LLST22
 2675 07a1 11       		.uleb128 0x11
 2676 07a2 0C000000 		.4byte	.LVL54
 2677 07a6 07020000 		.4byte	0x207
 2678 07aa 11       		.uleb128 0x11
 2679 07ab 34000000 		.4byte	.LVL56
ARM GAS  /tmp/ccF2L4A0.s 			page 48


 2680 07af 07020000 		.4byte	0x207
 2681 07b3 00       		.byte	0
 2682 07b4 0F       		.uleb128 0xf
 2683 07b5 4D000000 		.4byte	.LASF86
 2684 07b9 01       		.byte	0x1
 2685 07ba BC02     		.2byte	0x2bc
 2686 07bc F7010000 		.4byte	0x1f7
 2687 07c0 00000000 		.4byte	.LFB123
 2688 07c4 5C000000 		.4byte	.LFE123-.LFB123
 2689 07c8 01       		.uleb128 0x1
 2690 07c9 9C       		.byte	0x9c
 2691 07ca 11080000 		.4byte	0x811
 2692 07ce 16       		.uleb128 0x16
 2693 07cf 89000000 		.4byte	.LASF87
 2694 07d3 01       		.byte	0x1
 2695 07d4 BC02     		.2byte	0x2bc
 2696 07d6 A2000000 		.4byte	0xa2
 2697 07da C7050000 		.4byte	.LLST17
 2698 07de 17       		.uleb128 0x17
 2699 07df 34010000 		.4byte	.LASF88
 2700 07e3 01       		.byte	0x1
 2701 07e4 BE02     		.2byte	0x2be
 2702 07e6 C8000000 		.4byte	0xc8
 2703 07ea E8050000 		.4byte	.LLST18
 2704 07ee 17       		.uleb128 0x17
 2705 07ef EC030000 		.4byte	.LASF44
 2706 07f3 01       		.byte	0x1
 2707 07f4 BF02     		.2byte	0x2bf
 2708 07f6 F7010000 		.4byte	0x1f7
 2709 07fa 1E060000 		.4byte	.LLST19
 2710 07fe 11       		.uleb128 0x11
 2711 07ff 08000000 		.4byte	.LVL46
 2712 0803 07020000 		.4byte	0x207
 2713 0807 11       		.uleb128 0x11
 2714 0808 44000000 		.4byte	.LVL50
 2715 080c 07020000 		.4byte	0x207
 2716 0810 00       		.byte	0
 2717 0811 1E       		.uleb128 0x1e
 2718 0812 86040000 		.4byte	.LASF106
 2719 0816 01       		.byte	0x1
 2720 0817 7902     		.2byte	0x279
 2721 0819 F7010000 		.4byte	0x1f7
 2722 081d 46080000 		.4byte	0x846
 2723 0821 1F       		.uleb128 0x1f
 2724 0822 89000000 		.4byte	.LASF87
 2725 0826 01       		.byte	0x1
 2726 0827 7902     		.2byte	0x279
 2727 0829 A2000000 		.4byte	0xa2
 2728 082d 13       		.uleb128 0x13
 2729 082e 34010000 		.4byte	.LASF88
 2730 0832 01       		.byte	0x1
 2731 0833 7B02     		.2byte	0x27b
 2732 0835 C8000000 		.4byte	0xc8
 2733 0839 13       		.uleb128 0x13
 2734 083a EC030000 		.4byte	.LASF44
 2735 083e 01       		.byte	0x1
 2736 083f 7C02     		.2byte	0x27c
ARM GAS  /tmp/ccF2L4A0.s 			page 49


 2737 0841 F7010000 		.4byte	0x1f7
 2738 0845 00       		.byte	0
 2739 0846 0F       		.uleb128 0xf
 2740 0847 0F000000 		.4byte	.LASF90
 2741 084b 01       		.byte	0x1
 2742 084c 2802     		.2byte	0x228
 2743 084e F7010000 		.4byte	0x1f7
 2744 0852 00000000 		.4byte	.LFB121
 2745 0856 5C000000 		.4byte	.LFE121-.LFB121
 2746 085a 01       		.uleb128 0x1
 2747 085b 9C       		.byte	0x9c
 2748 085c A3080000 		.4byte	0x8a3
 2749 0860 16       		.uleb128 0x16
 2750 0861 89000000 		.4byte	.LASF87
 2751 0865 01       		.byte	0x1
 2752 0866 2802     		.2byte	0x228
 2753 0868 A2000000 		.4byte	0xa2
 2754 086c 48060000 		.4byte	.LLST14
 2755 0870 17       		.uleb128 0x17
 2756 0871 34010000 		.4byte	.LASF88
 2757 0875 01       		.byte	0x1
 2758 0876 2A02     		.2byte	0x22a
 2759 0878 C8000000 		.4byte	0xc8
 2760 087c 69060000 		.4byte	.LLST15
 2761 0880 17       		.uleb128 0x17
 2762 0881 EC030000 		.4byte	.LASF44
 2763 0885 01       		.byte	0x1
 2764 0886 2B02     		.2byte	0x22b
 2765 0888 F7010000 		.4byte	0x1f7
 2766 088c 9F060000 		.4byte	.LLST16
 2767 0890 11       		.uleb128 0x11
 2768 0891 08000000 		.4byte	.LVL38
 2769 0895 07020000 		.4byte	0x207
 2770 0899 11       		.uleb128 0x11
 2771 089a 44000000 		.4byte	.LVL42
 2772 089e 07020000 		.4byte	0x207
 2773 08a2 00       		.byte	0
 2774 08a3 0F       		.uleb128 0xf
 2775 08a4 16020000 		.4byte	.LASF91
 2776 08a8 01       		.byte	0x1
 2777 08a9 E401     		.2byte	0x1e4
 2778 08ab F7010000 		.4byte	0x1f7
 2779 08af 00000000 		.4byte	.LFB120
 2780 08b3 74000000 		.4byte	.LFE120-.LFB120
 2781 08b7 01       		.uleb128 0x1
 2782 08b8 9C       		.byte	0x9c
 2783 08b9 19090000 		.4byte	0x919
 2784 08bd 16       		.uleb128 0x16
 2785 08be 49050000 		.4byte	.LASF92
 2786 08c2 01       		.byte	0x1
 2787 08c3 E401     		.2byte	0x1e4
 2788 08c5 C8000000 		.4byte	0xc8
 2789 08c9 C9060000 		.4byte	.LLST10
 2790 08cd 16       		.uleb128 0x16
 2791 08ce 89000000 		.4byte	.LASF87
 2792 08d2 01       		.byte	0x1
 2793 08d3 E401     		.2byte	0x1e4
ARM GAS  /tmp/ccF2L4A0.s 			page 50


 2794 08d5 A2000000 		.4byte	0xa2
 2795 08d9 08070000 		.4byte	.LLST11
 2796 08dd 17       		.uleb128 0x17
 2797 08de 34010000 		.4byte	.LASF88
 2798 08e2 01       		.byte	0x1
 2799 08e3 E601     		.2byte	0x1e6
 2800 08e5 C8000000 		.4byte	0xc8
 2801 08e9 4D070000 		.4byte	.LLST12
 2802 08ed 17       		.uleb128 0x17
 2803 08ee EC030000 		.4byte	.LASF44
 2804 08f2 01       		.byte	0x1
 2805 08f3 E701     		.2byte	0x1e7
 2806 08f5 F7010000 		.4byte	0x1f7
 2807 08f9 8F070000 		.4byte	.LLST13
 2808 08fd 11       		.uleb128 0x11
 2809 08fe 1A000000 		.4byte	.LVL30
 2810 0902 07020000 		.4byte	0x207
 2811 0906 11       		.uleb128 0x11
 2812 0907 26000000 		.4byte	.LVL33
 2813 090b 07020000 		.4byte	0x207
 2814 090f 11       		.uleb128 0x11
 2815 0910 58000000 		.4byte	.LVL35
 2816 0914 07020000 		.4byte	0x207
 2817 0918 00       		.byte	0
 2818 0919 1D       		.uleb128 0x1d
 2819 091a F2020000 		.4byte	.LASF93
 2820 091e 01       		.byte	0x1
 2821 091f B901     		.2byte	0x1b9
 2822 0921 00000000 		.4byte	.LFB119
 2823 0925 10000000 		.4byte	.LFE119-.LFB119
 2824 0929 01       		.uleb128 0x1
 2825 092a 9C       		.byte	0x9c
 2826 092b 1D       		.uleb128 0x1d
 2827 092c 07010000 		.4byte	.LASF94
 2828 0930 01       		.byte	0x1
 2829 0931 AA01     		.2byte	0x1aa
 2830 0933 00000000 		.4byte	.LFB118
 2831 0937 20000000 		.4byte	.LFE118-.LFB118
 2832 093b 01       		.uleb128 0x1
 2833 093c 9C       		.byte	0x9c
 2834 093d 1D       		.uleb128 0x1d
 2835 093e 89010000 		.4byte	.LASF95
 2836 0942 01       		.byte	0x1
 2837 0943 7B01     		.2byte	0x17b
 2838 0945 00000000 		.4byte	.LFB117
 2839 0949 10000000 		.4byte	.LFE117-.LFB117
 2840 094d 01       		.uleb128 0x1
 2841 094e 9C       		.byte	0x9c
 2842 094f 1D       		.uleb128 0x1d
 2843 0950 75020000 		.4byte	.LASF96
 2844 0954 01       		.byte	0x1
 2845 0955 7001     		.2byte	0x170
 2846 0957 00000000 		.4byte	.LFB116
 2847 095b 10000000 		.4byte	.LFE116-.LFB116
 2848 095f 01       		.uleb128 0x1
 2849 0960 9C       		.byte	0x9c
 2850 0961 14       		.uleb128 0x14
ARM GAS  /tmp/ccF2L4A0.s 			page 51


 2851 0962 56050000 		.4byte	.LASF97
 2852 0966 01       		.byte	0x1
 2853 0967 5B01     		.2byte	0x15b
 2854 0969 00000000 		.4byte	.LFB115
 2855 096d 1C000000 		.4byte	.LFE115-.LFB115
 2856 0971 01       		.uleb128 0x1
 2857 0972 9C       		.byte	0x9c
 2858 0973 86090000 		.4byte	0x986
 2859 0977 15       		.uleb128 0x15
 2860 0978 3E010000 		.4byte	.LASF49
 2861 097c 01       		.byte	0x1
 2862 097d 5B01     		.2byte	0x15b
 2863 097f A8010000 		.4byte	0x1a8
 2864 0983 01       		.uleb128 0x1
 2865 0984 50       		.byte	0x50
 2866 0985 00       		.byte	0
 2867 0986 14       		.uleb128 0x14
 2868 0987 6F010000 		.4byte	.LASF98
 2869 098b 01       		.byte	0x1
 2870 098c 4601     		.2byte	0x146
 2871 098e 00000000 		.4byte	.LFB114
 2872 0992 1C000000 		.4byte	.LFE114-.LFB114
 2873 0996 01       		.uleb128 0x1
 2874 0997 9C       		.byte	0x9c
 2875 0998 AB090000 		.4byte	0x9ab
 2876 099c 15       		.uleb128 0x15
 2877 099d 3E010000 		.4byte	.LASF49
 2878 09a1 01       		.byte	0x1
 2879 09a2 4601     		.2byte	0x146
 2880 09a4 A8010000 		.4byte	0x1a8
 2881 09a8 01       		.uleb128 0x1
 2882 09a9 50       		.byte	0x50
 2883 09aa 00       		.byte	0
 2884 09ab 14       		.uleb128 0x14
 2885 09ac 0D030000 		.4byte	.LASF99
 2886 09b0 01       		.byte	0x1
 2887 09b1 3001     		.2byte	0x130
 2888 09b3 00000000 		.4byte	.LFB113
 2889 09b7 1C000000 		.4byte	.LFE113-.LFB113
 2890 09bb 01       		.uleb128 0x1
 2891 09bc 9C       		.byte	0x9c
 2892 09bd D0090000 		.4byte	0x9d0
 2893 09c1 15       		.uleb128 0x15
 2894 09c2 3E010000 		.4byte	.LASF49
 2895 09c6 01       		.byte	0x1
 2896 09c7 3001     		.2byte	0x130
 2897 09c9 A8010000 		.4byte	0x1a8
 2898 09cd 01       		.uleb128 0x1
 2899 09ce 50       		.byte	0x50
 2900 09cf 00       		.byte	0
 2901 09d0 14       		.uleb128 0x14
 2902 09d1 48040000 		.4byte	.LASF100
 2903 09d5 01       		.byte	0x1
 2904 09d6 2101     		.2byte	0x121
 2905 09d8 00000000 		.4byte	.LFB112
 2906 09dc 0C000000 		.4byte	.LFE112-.LFB112
 2907 09e0 01       		.uleb128 0x1
ARM GAS  /tmp/ccF2L4A0.s 			page 52


 2908 09e1 9C       		.byte	0x9c
 2909 09e2 F7090000 		.4byte	0x9f7
 2910 09e6 16       		.uleb128 0x16
 2911 09e7 0B050000 		.4byte	.LASF101
 2912 09eb 01       		.byte	0x1
 2913 09ec 2101     		.2byte	0x121
 2914 09ee C8000000 		.4byte	0xc8
 2915 09f2 DC070000 		.4byte	.LLST0
 2916 09f6 00       		.byte	0
 2917 09f7 20       		.uleb128 0x20
 2918 09f8 53030000 		.4byte	0x353
 2919 09fc 00000000 		.4byte	.LFB141
 2920 0a00 0C000000 		.4byte	.LFE141-.LFB141
 2921 0a04 01       		.uleb128 0x1
 2922 0a05 9C       		.byte	0x9c
 2923 0a06 20       		.uleb128 0x20
 2924 0a07 46030000 		.4byte	0x346
 2925 0a0b 00000000 		.4byte	.LFB142
 2926 0a0f 0C000000 		.4byte	.LFE142-.LFB142
 2927 0a13 01       		.uleb128 0x1
 2928 0a14 9C       		.byte	0x9c
 2929 0a15 21       		.uleb128 0x21
 2930 0a16 3A020000 		.4byte	0x23a
 2931 0a1a 00000000 		.4byte	.LFB150
 2932 0a1e 40000000 		.4byte	.LFE150-.LFB150
 2933 0a22 01       		.uleb128 0x1
 2934 0a23 9C       		.byte	0x9c
 2935 0a24 22       		.uleb128 0x22
 2936 0a25 4B020000 		.4byte	0x24b
 2937 0a29 FD070000 		.4byte	.LLST9
 2938 0a2d 23       		.uleb128 0x23
 2939 0a2e 1C000000 		.4byte	.LBB5
 2940 0a32 0E000000 		.4byte	.LBE5-.LBB5
 2941 0a36 24       		.uleb128 0x24
 2942 0a37 240A0000 		.4byte	0xa24
 2943 0a3b 00       		.byte	0
 2944 0a3c 00       		.byte	0
 2945 0a3d 00       		.byte	0
 2946              		.section	.debug_abbrev,"",%progbits
 2947              	.Ldebug_abbrev0:
 2948 0000 01       		.uleb128 0x1
 2949 0001 11       		.uleb128 0x11
 2950 0002 01       		.byte	0x1
 2951 0003 25       		.uleb128 0x25
 2952 0004 0E       		.uleb128 0xe
 2953 0005 13       		.uleb128 0x13
 2954 0006 0B       		.uleb128 0xb
 2955 0007 03       		.uleb128 0x3
 2956 0008 0E       		.uleb128 0xe
 2957 0009 1B       		.uleb128 0x1b
 2958 000a 0E       		.uleb128 0xe
 2959 000b 55       		.uleb128 0x55
 2960 000c 17       		.uleb128 0x17
 2961 000d 11       		.uleb128 0x11
 2962 000e 01       		.uleb128 0x1
 2963 000f 10       		.uleb128 0x10
 2964 0010 17       		.uleb128 0x17
ARM GAS  /tmp/ccF2L4A0.s 			page 53


 2965 0011 00       		.byte	0
 2966 0012 00       		.byte	0
 2967 0013 02       		.uleb128 0x2
 2968 0014 24       		.uleb128 0x24
 2969 0015 00       		.byte	0
 2970 0016 0B       		.uleb128 0xb
 2971 0017 0B       		.uleb128 0xb
 2972 0018 3E       		.uleb128 0x3e
 2973 0019 0B       		.uleb128 0xb
 2974 001a 03       		.uleb128 0x3
 2975 001b 0E       		.uleb128 0xe
 2976 001c 00       		.byte	0
 2977 001d 00       		.byte	0
 2978 001e 03       		.uleb128 0x3
 2979 001f 16       		.uleb128 0x16
 2980 0020 00       		.byte	0
 2981 0021 03       		.uleb128 0x3
 2982 0022 0E       		.uleb128 0xe
 2983 0023 3A       		.uleb128 0x3a
 2984 0024 0B       		.uleb128 0xb
 2985 0025 3B       		.uleb128 0x3b
 2986 0026 0B       		.uleb128 0xb
 2987 0027 49       		.uleb128 0x49
 2988 0028 13       		.uleb128 0x13
 2989 0029 00       		.byte	0
 2990 002a 00       		.byte	0
 2991 002b 04       		.uleb128 0x4
 2992 002c 24       		.uleb128 0x24
 2993 002d 00       		.byte	0
 2994 002e 0B       		.uleb128 0xb
 2995 002f 0B       		.uleb128 0xb
 2996 0030 3E       		.uleb128 0x3e
 2997 0031 0B       		.uleb128 0xb
 2998 0032 03       		.uleb128 0x3
 2999 0033 08       		.uleb128 0x8
 3000 0034 00       		.byte	0
 3001 0035 00       		.byte	0
 3002 0036 05       		.uleb128 0x5
 3003 0037 35       		.uleb128 0x35
 3004 0038 00       		.byte	0
 3005 0039 49       		.uleb128 0x49
 3006 003a 13       		.uleb128 0x13
 3007 003b 00       		.byte	0
 3008 003c 00       		.byte	0
 3009 003d 06       		.uleb128 0x6
 3010 003e 34       		.uleb128 0x34
 3011 003f 00       		.byte	0
 3012 0040 03       		.uleb128 0x3
 3013 0041 0E       		.uleb128 0xe
 3014 0042 3A       		.uleb128 0x3a
 3015 0043 0B       		.uleb128 0xb
 3016 0044 3B       		.uleb128 0x3b
 3017 0045 05       		.uleb128 0x5
 3018 0046 49       		.uleb128 0x49
 3019 0047 13       		.uleb128 0x13
 3020 0048 3F       		.uleb128 0x3f
 3021 0049 19       		.uleb128 0x19
ARM GAS  /tmp/ccF2L4A0.s 			page 54


 3022 004a 3C       		.uleb128 0x3c
 3023 004b 19       		.uleb128 0x19
 3024 004c 00       		.byte	0
 3025 004d 00       		.byte	0
 3026 004e 07       		.uleb128 0x7
 3027 004f 34       		.uleb128 0x34
 3028 0050 00       		.byte	0
 3029 0051 03       		.uleb128 0x3
 3030 0052 0E       		.uleb128 0xe
 3031 0053 3A       		.uleb128 0x3a
 3032 0054 0B       		.uleb128 0xb
 3033 0055 3B       		.uleb128 0x3b
 3034 0056 0B       		.uleb128 0xb
 3035 0057 49       		.uleb128 0x49
 3036 0058 13       		.uleb128 0x13
 3037 0059 3F       		.uleb128 0x3f
 3038 005a 19       		.uleb128 0x19
 3039 005b 3C       		.uleb128 0x3c
 3040 005c 19       		.uleb128 0x19
 3041 005d 00       		.byte	0
 3042 005e 00       		.byte	0
 3043 005f 08       		.uleb128 0x8
 3044 0060 13       		.uleb128 0x13
 3045 0061 01       		.byte	0x1
 3046 0062 0B       		.uleb128 0xb
 3047 0063 0B       		.uleb128 0xb
 3048 0064 3A       		.uleb128 0x3a
 3049 0065 0B       		.uleb128 0xb
 3050 0066 3B       		.uleb128 0x3b
 3051 0067 05       		.uleb128 0x5
 3052 0068 01       		.uleb128 0x1
 3053 0069 13       		.uleb128 0x13
 3054 006a 00       		.byte	0
 3055 006b 00       		.byte	0
 3056 006c 09       		.uleb128 0x9
 3057 006d 0D       		.uleb128 0xd
 3058 006e 00       		.byte	0
 3059 006f 03       		.uleb128 0x3
 3060 0070 08       		.uleb128 0x8
 3061 0071 3A       		.uleb128 0x3a
 3062 0072 0B       		.uleb128 0xb
 3063 0073 3B       		.uleb128 0x3b
 3064 0074 05       		.uleb128 0x5
 3065 0075 49       		.uleb128 0x49
 3066 0076 13       		.uleb128 0x13
 3067 0077 38       		.uleb128 0x38
 3068 0078 0B       		.uleb128 0xb
 3069 0079 00       		.byte	0
 3070 007a 00       		.byte	0
 3071 007b 0A       		.uleb128 0xa
 3072 007c 0D       		.uleb128 0xd
 3073 007d 00       		.byte	0
 3074 007e 03       		.uleb128 0x3
 3075 007f 0E       		.uleb128 0xe
 3076 0080 3A       		.uleb128 0x3a
 3077 0081 0B       		.uleb128 0xb
 3078 0082 3B       		.uleb128 0x3b
ARM GAS  /tmp/ccF2L4A0.s 			page 55


 3079 0083 05       		.uleb128 0x5
 3080 0084 49       		.uleb128 0x49
 3081 0085 13       		.uleb128 0x13
 3082 0086 38       		.uleb128 0x38
 3083 0087 0B       		.uleb128 0xb
 3084 0088 00       		.byte	0
 3085 0089 00       		.byte	0
 3086 008a 0B       		.uleb128 0xb
 3087 008b 16       		.uleb128 0x16
 3088 008c 00       		.byte	0
 3089 008d 03       		.uleb128 0x3
 3090 008e 0E       		.uleb128 0xe
 3091 008f 3A       		.uleb128 0x3a
 3092 0090 0B       		.uleb128 0xb
 3093 0091 3B       		.uleb128 0x3b
 3094 0092 05       		.uleb128 0x5
 3095 0093 49       		.uleb128 0x49
 3096 0094 13       		.uleb128 0x13
 3097 0095 00       		.byte	0
 3098 0096 00       		.byte	0
 3099 0097 0C       		.uleb128 0xc
 3100 0098 04       		.uleb128 0x4
 3101 0099 01       		.byte	0x1
 3102 009a 3E       		.uleb128 0x3e
 3103 009b 0B       		.uleb128 0xb
 3104 009c 0B       		.uleb128 0xb
 3105 009d 0B       		.uleb128 0xb
 3106 009e 49       		.uleb128 0x49
 3107 009f 13       		.uleb128 0x13
 3108 00a0 3A       		.uleb128 0x3a
 3109 00a1 0B       		.uleb128 0xb
 3110 00a2 3B       		.uleb128 0x3b
 3111 00a3 0B       		.uleb128 0xb
 3112 00a4 01       		.uleb128 0x1
 3113 00a5 13       		.uleb128 0x13
 3114 00a6 00       		.byte	0
 3115 00a7 00       		.byte	0
 3116 00a8 0D       		.uleb128 0xd
 3117 00a9 28       		.uleb128 0x28
 3118 00aa 00       		.byte	0
 3119 00ab 03       		.uleb128 0x3
 3120 00ac 0E       		.uleb128 0xe
 3121 00ad 1C       		.uleb128 0x1c
 3122 00ae 0B       		.uleb128 0xb
 3123 00af 00       		.byte	0
 3124 00b0 00       		.byte	0
 3125 00b1 0E       		.uleb128 0xe
 3126 00b2 28       		.uleb128 0x28
 3127 00b3 00       		.byte	0
 3128 00b4 03       		.uleb128 0x3
 3129 00b5 08       		.uleb128 0x8
 3130 00b6 1C       		.uleb128 0x1c
 3131 00b7 0B       		.uleb128 0xb
 3132 00b8 00       		.byte	0
 3133 00b9 00       		.byte	0
 3134 00ba 0F       		.uleb128 0xf
 3135 00bb 2E       		.uleb128 0x2e
ARM GAS  /tmp/ccF2L4A0.s 			page 56


 3136 00bc 01       		.byte	0x1
 3137 00bd 3F       		.uleb128 0x3f
 3138 00be 19       		.uleb128 0x19
 3139 00bf 03       		.uleb128 0x3
 3140 00c0 0E       		.uleb128 0xe
 3141 00c1 3A       		.uleb128 0x3a
 3142 00c2 0B       		.uleb128 0xb
 3143 00c3 3B       		.uleb128 0x3b
 3144 00c4 05       		.uleb128 0x5
 3145 00c5 27       		.uleb128 0x27
 3146 00c6 19       		.uleb128 0x19
 3147 00c7 49       		.uleb128 0x49
 3148 00c8 13       		.uleb128 0x13
 3149 00c9 11       		.uleb128 0x11
 3150 00ca 01       		.uleb128 0x1
 3151 00cb 12       		.uleb128 0x12
 3152 00cc 06       		.uleb128 0x6
 3153 00cd 40       		.uleb128 0x40
 3154 00ce 18       		.uleb128 0x18
 3155 00cf 9742     		.uleb128 0x2117
 3156 00d1 19       		.uleb128 0x19
 3157 00d2 01       		.uleb128 0x1
 3158 00d3 13       		.uleb128 0x13
 3159 00d4 00       		.byte	0
 3160 00d5 00       		.byte	0
 3161 00d6 10       		.uleb128 0x10
 3162 00d7 34       		.uleb128 0x34
 3163 00d8 00       		.byte	0
 3164 00d9 03       		.uleb128 0x3
 3165 00da 0E       		.uleb128 0xe
 3166 00db 3A       		.uleb128 0x3a
 3167 00dc 0B       		.uleb128 0xb
 3168 00dd 3B       		.uleb128 0x3b
 3169 00de 05       		.uleb128 0x5
 3170 00df 49       		.uleb128 0x49
 3171 00e0 13       		.uleb128 0x13
 3172 00e1 02       		.uleb128 0x2
 3173 00e2 18       		.uleb128 0x18
 3174 00e3 00       		.byte	0
 3175 00e4 00       		.byte	0
 3176 00e5 11       		.uleb128 0x11
 3177 00e6 898201   		.uleb128 0x4109
 3178 00e9 00       		.byte	0
 3179 00ea 11       		.uleb128 0x11
 3180 00eb 01       		.uleb128 0x1
 3181 00ec 31       		.uleb128 0x31
 3182 00ed 13       		.uleb128 0x13
 3183 00ee 00       		.byte	0
 3184 00ef 00       		.byte	0
 3185 00f0 12       		.uleb128 0x12
 3186 00f1 2E       		.uleb128 0x2e
 3187 00f2 01       		.byte	0x1
 3188 00f3 3F       		.uleb128 0x3f
 3189 00f4 19       		.uleb128 0x19
 3190 00f5 03       		.uleb128 0x3
 3191 00f6 0E       		.uleb128 0xe
 3192 00f7 3A       		.uleb128 0x3a
ARM GAS  /tmp/ccF2L4A0.s 			page 57


 3193 00f8 0B       		.uleb128 0xb
 3194 00f9 3B       		.uleb128 0x3b
 3195 00fa 05       		.uleb128 0x5
 3196 00fb 27       		.uleb128 0x27
 3197 00fc 19       		.uleb128 0x19
 3198 00fd 49       		.uleb128 0x49
 3199 00fe 13       		.uleb128 0x13
 3200 00ff 20       		.uleb128 0x20
 3201 0100 0B       		.uleb128 0xb
 3202 0101 01       		.uleb128 0x1
 3203 0102 13       		.uleb128 0x13
 3204 0103 00       		.byte	0
 3205 0104 00       		.byte	0
 3206 0105 13       		.uleb128 0x13
 3207 0106 34       		.uleb128 0x34
 3208 0107 00       		.byte	0
 3209 0108 03       		.uleb128 0x3
 3210 0109 0E       		.uleb128 0xe
 3211 010a 3A       		.uleb128 0x3a
 3212 010b 0B       		.uleb128 0xb
 3213 010c 3B       		.uleb128 0x3b
 3214 010d 05       		.uleb128 0x5
 3215 010e 49       		.uleb128 0x49
 3216 010f 13       		.uleb128 0x13
 3217 0110 00       		.byte	0
 3218 0111 00       		.byte	0
 3219 0112 14       		.uleb128 0x14
 3220 0113 2E       		.uleb128 0x2e
 3221 0114 01       		.byte	0x1
 3222 0115 3F       		.uleb128 0x3f
 3223 0116 19       		.uleb128 0x19
 3224 0117 03       		.uleb128 0x3
 3225 0118 0E       		.uleb128 0xe
 3226 0119 3A       		.uleb128 0x3a
 3227 011a 0B       		.uleb128 0xb
 3228 011b 3B       		.uleb128 0x3b
 3229 011c 05       		.uleb128 0x5
 3230 011d 27       		.uleb128 0x27
 3231 011e 19       		.uleb128 0x19
 3232 011f 11       		.uleb128 0x11
 3233 0120 01       		.uleb128 0x1
 3234 0121 12       		.uleb128 0x12
 3235 0122 06       		.uleb128 0x6
 3236 0123 40       		.uleb128 0x40
 3237 0124 18       		.uleb128 0x18
 3238 0125 9742     		.uleb128 0x2117
 3239 0127 19       		.uleb128 0x19
 3240 0128 01       		.uleb128 0x1
 3241 0129 13       		.uleb128 0x13
 3242 012a 00       		.byte	0
 3243 012b 00       		.byte	0
 3244 012c 15       		.uleb128 0x15
 3245 012d 05       		.uleb128 0x5
 3246 012e 00       		.byte	0
 3247 012f 03       		.uleb128 0x3
 3248 0130 0E       		.uleb128 0xe
 3249 0131 3A       		.uleb128 0x3a
ARM GAS  /tmp/ccF2L4A0.s 			page 58


 3250 0132 0B       		.uleb128 0xb
 3251 0133 3B       		.uleb128 0x3b
 3252 0134 05       		.uleb128 0x5
 3253 0135 49       		.uleb128 0x49
 3254 0136 13       		.uleb128 0x13
 3255 0137 02       		.uleb128 0x2
 3256 0138 18       		.uleb128 0x18
 3257 0139 00       		.byte	0
 3258 013a 00       		.byte	0
 3259 013b 16       		.uleb128 0x16
 3260 013c 05       		.uleb128 0x5
 3261 013d 00       		.byte	0
 3262 013e 03       		.uleb128 0x3
 3263 013f 0E       		.uleb128 0xe
 3264 0140 3A       		.uleb128 0x3a
 3265 0141 0B       		.uleb128 0xb
 3266 0142 3B       		.uleb128 0x3b
 3267 0143 05       		.uleb128 0x5
 3268 0144 49       		.uleb128 0x49
 3269 0145 13       		.uleb128 0x13
 3270 0146 02       		.uleb128 0x2
 3271 0147 17       		.uleb128 0x17
 3272 0148 00       		.byte	0
 3273 0149 00       		.byte	0
 3274 014a 17       		.uleb128 0x17
 3275 014b 34       		.uleb128 0x34
 3276 014c 00       		.byte	0
 3277 014d 03       		.uleb128 0x3
 3278 014e 0E       		.uleb128 0xe
 3279 014f 3A       		.uleb128 0x3a
 3280 0150 0B       		.uleb128 0xb
 3281 0151 3B       		.uleb128 0x3b
 3282 0152 05       		.uleb128 0x5
 3283 0153 49       		.uleb128 0x49
 3284 0154 13       		.uleb128 0x13
 3285 0155 02       		.uleb128 0x2
 3286 0156 17       		.uleb128 0x17
 3287 0157 00       		.byte	0
 3288 0158 00       		.byte	0
 3289 0159 18       		.uleb128 0x18
 3290 015a 2E       		.uleb128 0x2e
 3291 015b 00       		.byte	0
 3292 015c 3F       		.uleb128 0x3f
 3293 015d 19       		.uleb128 0x19
 3294 015e 03       		.uleb128 0x3
 3295 015f 0E       		.uleb128 0xe
 3296 0160 3A       		.uleb128 0x3a
 3297 0161 0B       		.uleb128 0xb
 3298 0162 3B       		.uleb128 0x3b
 3299 0163 05       		.uleb128 0x5
 3300 0164 27       		.uleb128 0x27
 3301 0165 19       		.uleb128 0x19
 3302 0166 49       		.uleb128 0x49
 3303 0167 13       		.uleb128 0x13
 3304 0168 11       		.uleb128 0x11
 3305 0169 01       		.uleb128 0x1
 3306 016a 12       		.uleb128 0x12
ARM GAS  /tmp/ccF2L4A0.s 			page 59


 3307 016b 06       		.uleb128 0x6
 3308 016c 40       		.uleb128 0x40
 3309 016d 18       		.uleb128 0x18
 3310 016e 9742     		.uleb128 0x2117
 3311 0170 19       		.uleb128 0x19
 3312 0171 00       		.byte	0
 3313 0172 00       		.byte	0
 3314 0173 19       		.uleb128 0x19
 3315 0174 2E       		.uleb128 0x2e
 3316 0175 00       		.byte	0
 3317 0176 3F       		.uleb128 0x3f
 3318 0177 19       		.uleb128 0x19
 3319 0178 03       		.uleb128 0x3
 3320 0179 0E       		.uleb128 0xe
 3321 017a 3A       		.uleb128 0x3a
 3322 017b 0B       		.uleb128 0xb
 3323 017c 3B       		.uleb128 0x3b
 3324 017d 05       		.uleb128 0x5
 3325 017e 27       		.uleb128 0x27
 3326 017f 19       		.uleb128 0x19
 3327 0180 49       		.uleb128 0x49
 3328 0181 13       		.uleb128 0x13
 3329 0182 00       		.byte	0
 3330 0183 00       		.byte	0
 3331 0184 1A       		.uleb128 0x1a
 3332 0185 2E       		.uleb128 0x2e
 3333 0186 00       		.byte	0
 3334 0187 3F       		.uleb128 0x3f
 3335 0188 19       		.uleb128 0x19
 3336 0189 03       		.uleb128 0x3
 3337 018a 0E       		.uleb128 0xe
 3338 018b 3A       		.uleb128 0x3a
 3339 018c 0B       		.uleb128 0xb
 3340 018d 3B       		.uleb128 0x3b
 3341 018e 05       		.uleb128 0x5
 3342 018f 27       		.uleb128 0x27
 3343 0190 19       		.uleb128 0x19
 3344 0191 49       		.uleb128 0x49
 3345 0192 13       		.uleb128 0x13
 3346 0193 20       		.uleb128 0x20
 3347 0194 0B       		.uleb128 0xb
 3348 0195 00       		.byte	0
 3349 0196 00       		.byte	0
 3350 0197 1B       		.uleb128 0x1b
 3351 0198 34       		.uleb128 0x34
 3352 0199 00       		.byte	0
 3353 019a 03       		.uleb128 0x3
 3354 019b 0E       		.uleb128 0xe
 3355 019c 3A       		.uleb128 0x3a
 3356 019d 0B       		.uleb128 0xb
 3357 019e 3B       		.uleb128 0x3b
 3358 019f 05       		.uleb128 0x5
 3359 01a0 49       		.uleb128 0x49
 3360 01a1 13       		.uleb128 0x13
 3361 01a2 1C       		.uleb128 0x1c
 3362 01a3 0B       		.uleb128 0xb
 3363 01a4 00       		.byte	0
ARM GAS  /tmp/ccF2L4A0.s 			page 60


 3364 01a5 00       		.byte	0
 3365 01a6 1C       		.uleb128 0x1c
 3366 01a7 898201   		.uleb128 0x4109
 3367 01aa 00       		.byte	0
 3368 01ab 11       		.uleb128 0x11
 3369 01ac 01       		.uleb128 0x1
 3370 01ad 9542     		.uleb128 0x2115
 3371 01af 19       		.uleb128 0x19
 3372 01b0 31       		.uleb128 0x31
 3373 01b1 13       		.uleb128 0x13
 3374 01b2 00       		.byte	0
 3375 01b3 00       		.byte	0
 3376 01b4 1D       		.uleb128 0x1d
 3377 01b5 2E       		.uleb128 0x2e
 3378 01b6 00       		.byte	0
 3379 01b7 3F       		.uleb128 0x3f
 3380 01b8 19       		.uleb128 0x19
 3381 01b9 03       		.uleb128 0x3
 3382 01ba 0E       		.uleb128 0xe
 3383 01bb 3A       		.uleb128 0x3a
 3384 01bc 0B       		.uleb128 0xb
 3385 01bd 3B       		.uleb128 0x3b
 3386 01be 05       		.uleb128 0x5
 3387 01bf 27       		.uleb128 0x27
 3388 01c0 19       		.uleb128 0x19
 3389 01c1 11       		.uleb128 0x11
 3390 01c2 01       		.uleb128 0x1
 3391 01c3 12       		.uleb128 0x12
 3392 01c4 06       		.uleb128 0x6
 3393 01c5 40       		.uleb128 0x40
 3394 01c6 18       		.uleb128 0x18
 3395 01c7 9742     		.uleb128 0x2117
 3396 01c9 19       		.uleb128 0x19
 3397 01ca 00       		.byte	0
 3398 01cb 00       		.byte	0
 3399 01cc 1E       		.uleb128 0x1e
 3400 01cd 2E       		.uleb128 0x2e
 3401 01ce 01       		.byte	0x1
 3402 01cf 3F       		.uleb128 0x3f
 3403 01d0 19       		.uleb128 0x19
 3404 01d1 03       		.uleb128 0x3
 3405 01d2 0E       		.uleb128 0xe
 3406 01d3 3A       		.uleb128 0x3a
 3407 01d4 0B       		.uleb128 0xb
 3408 01d5 3B       		.uleb128 0x3b
 3409 01d6 05       		.uleb128 0x5
 3410 01d7 27       		.uleb128 0x27
 3411 01d8 19       		.uleb128 0x19
 3412 01d9 49       		.uleb128 0x49
 3413 01da 13       		.uleb128 0x13
 3414 01db 01       		.uleb128 0x1
 3415 01dc 13       		.uleb128 0x13
 3416 01dd 00       		.byte	0
 3417 01de 00       		.byte	0
 3418 01df 1F       		.uleb128 0x1f
 3419 01e0 05       		.uleb128 0x5
 3420 01e1 00       		.byte	0
ARM GAS  /tmp/ccF2L4A0.s 			page 61


 3421 01e2 03       		.uleb128 0x3
 3422 01e3 0E       		.uleb128 0xe
 3423 01e4 3A       		.uleb128 0x3a
 3424 01e5 0B       		.uleb128 0xb
 3425 01e6 3B       		.uleb128 0x3b
 3426 01e7 05       		.uleb128 0x5
 3427 01e8 49       		.uleb128 0x49
 3428 01e9 13       		.uleb128 0x13
 3429 01ea 00       		.byte	0
 3430 01eb 00       		.byte	0
 3431 01ec 20       		.uleb128 0x20
 3432 01ed 2E       		.uleb128 0x2e
 3433 01ee 00       		.byte	0
 3434 01ef 31       		.uleb128 0x31
 3435 01f0 13       		.uleb128 0x13
 3436 01f1 11       		.uleb128 0x11
 3437 01f2 01       		.uleb128 0x1
 3438 01f3 12       		.uleb128 0x12
 3439 01f4 06       		.uleb128 0x6
 3440 01f5 40       		.uleb128 0x40
 3441 01f6 18       		.uleb128 0x18
 3442 01f7 9742     		.uleb128 0x2117
 3443 01f9 19       		.uleb128 0x19
 3444 01fa 00       		.byte	0
 3445 01fb 00       		.byte	0
 3446 01fc 21       		.uleb128 0x21
 3447 01fd 2E       		.uleb128 0x2e
 3448 01fe 01       		.byte	0x1
 3449 01ff 31       		.uleb128 0x31
 3450 0200 13       		.uleb128 0x13
 3451 0201 11       		.uleb128 0x11
 3452 0202 01       		.uleb128 0x1
 3453 0203 12       		.uleb128 0x12
 3454 0204 06       		.uleb128 0x6
 3455 0205 40       		.uleb128 0x40
 3456 0206 18       		.uleb128 0x18
 3457 0207 9742     		.uleb128 0x2117
 3458 0209 19       		.uleb128 0x19
 3459 020a 00       		.byte	0
 3460 020b 00       		.byte	0
 3461 020c 22       		.uleb128 0x22
 3462 020d 34       		.uleb128 0x34
 3463 020e 00       		.byte	0
 3464 020f 31       		.uleb128 0x31
 3465 0210 13       		.uleb128 0x13
 3466 0211 02       		.uleb128 0x2
 3467 0212 17       		.uleb128 0x17
 3468 0213 00       		.byte	0
 3469 0214 00       		.byte	0
 3470 0215 23       		.uleb128 0x23
 3471 0216 0B       		.uleb128 0xb
 3472 0217 01       		.byte	0x1
 3473 0218 11       		.uleb128 0x11
 3474 0219 01       		.uleb128 0x1
 3475 021a 12       		.uleb128 0x12
 3476 021b 06       		.uleb128 0x6
 3477 021c 00       		.byte	0
ARM GAS  /tmp/ccF2L4A0.s 			page 62


 3478 021d 00       		.byte	0
 3479 021e 24       		.uleb128 0x24
 3480 021f 34       		.uleb128 0x34
 3481 0220 00       		.byte	0
 3482 0221 31       		.uleb128 0x31
 3483 0222 13       		.uleb128 0x13
 3484 0223 00       		.byte	0
 3485 0224 00       		.byte	0
 3486 0225 00       		.byte	0
 3487              		.section	.debug_loc,"",%progbits
 3488              	.Ldebug_loc0:
 3489              	.LLST7:
 3490 0000 00000000 		.4byte	.LVL20
 3491 0004 0A000000 		.4byte	.LVL22
 3492 0008 0100     		.2byte	0x1
 3493 000a 50       		.byte	0x50
 3494 000b 0A000000 		.4byte	.LVL22
 3495 000f 14000000 		.4byte	.LFE148
 3496 0013 0400     		.2byte	0x4
 3497 0015 F3       		.byte	0xf3
 3498 0016 01       		.uleb128 0x1
 3499 0017 50       		.byte	0x50
 3500 0018 9F       		.byte	0x9f
 3501 0019 00000000 		.4byte	0
 3502 001d 00000000 		.4byte	0
 3503              	.LLST8:
 3504 0021 00000000 		.4byte	.LVL20
 3505 0025 04000000 		.4byte	.LVL21
 3506 0029 0200     		.2byte	0x2
 3507 002b 30       		.byte	0x30
 3508 002c 9F       		.byte	0x9f
 3509 002d 04000000 		.4byte	.LVL21
 3510 0031 0A000000 		.4byte	.LVL22
 3511 0035 0800     		.2byte	0x8
 3512 0037 73       		.byte	0x73
 3513 0038 00       		.sleb128 0
 3514 0039 70       		.byte	0x70
 3515 003a 00       		.sleb128 0
 3516 003b 1A       		.byte	0x1a
 3517 003c 30       		.byte	0x30
 3518 003d 2E       		.byte	0x2e
 3519 003e 9F       		.byte	0x9f
 3520 003f 0A000000 		.4byte	.LVL22
 3521 0043 14000000 		.4byte	.LFE148
 3522 0047 0900     		.2byte	0x9
 3523 0049 73       		.byte	0x73
 3524 004a 00       		.sleb128 0
 3525 004b F3       		.byte	0xf3
 3526 004c 01       		.uleb128 0x1
 3527 004d 50       		.byte	0x50
 3528 004e 1A       		.byte	0x1a
 3529 004f 30       		.byte	0x30
 3530 0050 2E       		.byte	0x2e
 3531 0051 9F       		.byte	0x9f
 3532 0052 00000000 		.4byte	0
 3533 0056 00000000 		.4byte	0
 3534              	.LLST6:
ARM GAS  /tmp/ccF2L4A0.s 			page 63


 3535 005a 00000000 		.4byte	.LVL16
 3536 005e 0A000000 		.4byte	.LVL17
 3537 0062 0100     		.2byte	0x1
 3538 0064 50       		.byte	0x50
 3539 0065 0A000000 		.4byte	.LVL17
 3540 0069 0E000000 		.4byte	.LVL18
 3541 006d 0400     		.2byte	0x4
 3542 006f F3       		.byte	0xf3
 3543 0070 01       		.uleb128 0x1
 3544 0071 50       		.byte	0x50
 3545 0072 9F       		.byte	0x9f
 3546 0073 0E000000 		.4byte	.LVL18
 3547 0077 10000000 		.4byte	.LVL19
 3548 007b 0100     		.2byte	0x1
 3549 007d 50       		.byte	0x50
 3550 007e 10000000 		.4byte	.LVL19
 3551 0082 18000000 		.4byte	.LFE147
 3552 0086 0400     		.2byte	0x4
 3553 0088 F3       		.byte	0xf3
 3554 0089 01       		.uleb128 0x1
 3555 008a 50       		.byte	0x50
 3556 008b 9F       		.byte	0x9f
 3557 008c 00000000 		.4byte	0
 3558 0090 00000000 		.4byte	0
 3559              	.LLST5:
 3560 0094 00000000 		.4byte	.LVL13
 3561 0098 04000000 		.4byte	.LVL14
 3562 009c 0200     		.2byte	0x2
 3563 009e 30       		.byte	0x30
 3564 009f 9F       		.byte	0x9f
 3565 00a0 04000000 		.4byte	.LVL14
 3566 00a4 06000000 		.4byte	.LVL15
 3567 00a8 0900     		.2byte	0x9
 3568 00aa 70       		.byte	0x70
 3569 00ab 00       		.sleb128 0
 3570 00ac 08       		.byte	0x8
 3571 00ad FF       		.byte	0xff
 3572 00ae 1A       		.byte	0x1a
 3573 00af 08       		.byte	0x8
 3574 00b0 AA       		.byte	0xaa
 3575 00b1 2E       		.byte	0x2e
 3576 00b2 9F       		.byte	0x9f
 3577 00b3 00000000 		.4byte	0
 3578 00b7 00000000 		.4byte	0
 3579              	.LLST4:
 3580 00bb 00000000 		.4byte	.LVL11
 3581 00bf 0E000000 		.4byte	.LVL12
 3582 00c3 0100     		.2byte	0x1
 3583 00c5 50       		.byte	0x50
 3584 00c6 0E000000 		.4byte	.LVL12
 3585 00ca 18000000 		.4byte	.LFE138
 3586 00ce 0400     		.2byte	0x4
 3587 00d0 F3       		.byte	0xf3
 3588 00d1 01       		.uleb128 0x1
 3589 00d2 50       		.byte	0x50
 3590 00d3 9F       		.byte	0x9f
 3591 00d4 00000000 		.4byte	0
ARM GAS  /tmp/ccF2L4A0.s 			page 64


 3592 00d8 00000000 		.4byte	0
 3593              	.LLST3:
 3594 00dc 00000000 		.4byte	.LVL9
 3595 00e0 0E000000 		.4byte	.LVL10
 3596 00e4 0100     		.2byte	0x1
 3597 00e6 50       		.byte	0x50
 3598 00e7 0E000000 		.4byte	.LVL10
 3599 00eb 18000000 		.4byte	.LFE137
 3600 00ef 0400     		.2byte	0x4
 3601 00f1 F3       		.byte	0xf3
 3602 00f2 01       		.uleb128 0x1
 3603 00f3 50       		.byte	0x50
 3604 00f4 9F       		.byte	0x9f
 3605 00f5 00000000 		.4byte	0
 3606 00f9 00000000 		.4byte	0
 3607              	.LLST46:
 3608 00fd 00000000 		.4byte	.LVL91
 3609 0101 0B000000 		.4byte	.LVL92-1
 3610 0105 0100     		.2byte	0x1
 3611 0107 50       		.byte	0x50
 3612 0108 0B000000 		.4byte	.LVL92-1
 3613 010c 28000000 		.4byte	.LFE136
 3614 0110 0400     		.2byte	0x4
 3615 0112 F3       		.byte	0xf3
 3616 0113 01       		.uleb128 0x1
 3617 0114 50       		.byte	0x50
 3618 0115 9F       		.byte	0x9f
 3619 0116 00000000 		.4byte	0
 3620 011a 00000000 		.4byte	0
 3621              	.LLST47:
 3622 011e 00000000 		.4byte	.LVL91
 3623 0122 0B000000 		.4byte	.LVL92-1
 3624 0126 0100     		.2byte	0x1
 3625 0128 51       		.byte	0x51
 3626 0129 0B000000 		.4byte	.LVL92-1
 3627 012d 28000000 		.4byte	.LFE136
 3628 0131 0400     		.2byte	0x4
 3629 0133 F3       		.byte	0xf3
 3630 0134 01       		.uleb128 0x1
 3631 0135 51       		.byte	0x51
 3632 0136 9F       		.byte	0x9f
 3633 0137 00000000 		.4byte	0
 3634 013b 00000000 		.4byte	0
 3635              	.LLST48:
 3636 013f 00000000 		.4byte	.LVL91
 3637 0143 0B000000 		.4byte	.LVL92-1
 3638 0147 0100     		.2byte	0x1
 3639 0149 52       		.byte	0x52
 3640 014a 0B000000 		.4byte	.LVL92-1
 3641 014e 28000000 		.4byte	.LFE136
 3642 0152 0400     		.2byte	0x4
 3643 0154 F3       		.byte	0xf3
 3644 0155 01       		.uleb128 0x1
 3645 0156 52       		.byte	0x52
 3646 0157 9F       		.byte	0x9f
 3647 0158 00000000 		.4byte	0
 3648 015c 00000000 		.4byte	0
ARM GAS  /tmp/ccF2L4A0.s 			page 65


 3649              	.LLST49:
 3650 0160 00000000 		.4byte	.LVL91
 3651 0164 16000000 		.4byte	.LVL93
 3652 0168 0300     		.2byte	0x3
 3653 016a 09       		.byte	0x9
 3654 016b FF       		.byte	0xff
 3655 016c 9F       		.byte	0x9f
 3656 016d 16000000 		.4byte	.LVL93
 3657 0171 1A000000 		.4byte	.LVL94
 3658 0175 0500     		.2byte	0x5
 3659 0177 73       		.byte	0x73
 3660 0178 00       		.sleb128 0
 3661 0179 3F       		.byte	0x3f
 3662 017a 1A       		.byte	0x1a
 3663 017b 9F       		.byte	0x9f
 3664 017c 00000000 		.4byte	0
 3665 0180 00000000 		.4byte	0
 3666              	.LLST50:
 3667 0184 00000000 		.4byte	.LVL91
 3668 0188 0C000000 		.4byte	.LVL92
 3669 018c 0200     		.2byte	0x2
 3670 018e 39       		.byte	0x39
 3671 018f 9F       		.byte	0x9f
 3672 0190 0C000000 		.4byte	.LVL92
 3673 0194 28000000 		.4byte	.LFE136
 3674 0198 0100     		.2byte	0x1
 3675 019a 50       		.byte	0x50
 3676 019b 00000000 		.4byte	0
 3677 019f 00000000 		.4byte	0
 3678              	.LLST44:
 3679 01a3 00000000 		.4byte	.LVL89
 3680 01a7 07000000 		.4byte	.LVL90-1
 3681 01ab 0100     		.2byte	0x1
 3682 01ad 50       		.byte	0x50
 3683 01ae 07000000 		.4byte	.LVL90-1
 3684 01b2 18000000 		.4byte	.LFE135
 3685 01b6 0400     		.2byte	0x4
 3686 01b8 F3       		.byte	0xf3
 3687 01b9 01       		.uleb128 0x1
 3688 01ba 50       		.byte	0x50
 3689 01bb 9F       		.byte	0x9f
 3690 01bc 00000000 		.4byte	0
 3691 01c0 00000000 		.4byte	0
 3692              	.LLST45:
 3693 01c4 00000000 		.4byte	.LVL89
 3694 01c8 08000000 		.4byte	.LVL90
 3695 01cc 0200     		.2byte	0x2
 3696 01ce 39       		.byte	0x39
 3697 01cf 9F       		.byte	0x9f
 3698 01d0 08000000 		.4byte	.LVL90
 3699 01d4 18000000 		.4byte	.LFE135
 3700 01d8 0100     		.2byte	0x1
 3701 01da 50       		.byte	0x50
 3702 01db 00000000 		.4byte	0
 3703 01df 00000000 		.4byte	0
 3704              	.LLST41:
 3705 01e3 00000000 		.4byte	.LVL85
ARM GAS  /tmp/ccF2L4A0.s 			page 66


 3706 01e7 09000000 		.4byte	.LVL86-1
 3707 01eb 0100     		.2byte	0x1
 3708 01ed 50       		.byte	0x50
 3709 01ee 09000000 		.4byte	.LVL86-1
 3710 01f2 12000000 		.4byte	.LVL88
 3711 01f6 0100     		.2byte	0x1
 3712 01f8 54       		.byte	0x54
 3713 01f9 12000000 		.4byte	.LVL88
 3714 01fd 30000000 		.4byte	.LFE134
 3715 0201 0400     		.2byte	0x4
 3716 0203 F3       		.byte	0xf3
 3717 0204 01       		.uleb128 0x1
 3718 0205 50       		.byte	0x50
 3719 0206 9F       		.byte	0x9f
 3720 0207 00000000 		.4byte	0
 3721 020b 00000000 		.4byte	0
 3722              	.LLST42:
 3723 020f 00000000 		.4byte	.LVL85
 3724 0213 09000000 		.4byte	.LVL86-1
 3725 0217 0100     		.2byte	0x1
 3726 0219 51       		.byte	0x51
 3727 021a 09000000 		.4byte	.LVL86-1
 3728 021e 30000000 		.4byte	.LFE134
 3729 0222 0400     		.2byte	0x4
 3730 0224 F3       		.byte	0xf3
 3731 0225 01       		.uleb128 0x1
 3732 0226 51       		.byte	0x51
 3733 0227 9F       		.byte	0x9f
 3734 0228 00000000 		.4byte	0
 3735 022c 00000000 		.4byte	0
 3736              	.LLST43:
 3737 0230 00000000 		.4byte	.LVL85
 3738 0234 0A000000 		.4byte	.LVL86
 3739 0238 0200     		.2byte	0x2
 3740 023a 39       		.byte	0x39
 3741 023b 9F       		.byte	0x9f
 3742 023c 0A000000 		.4byte	.LVL86
 3743 0240 30000000 		.4byte	.LFE134
 3744 0244 0100     		.2byte	0x1
 3745 0246 50       		.byte	0x50
 3746 0247 00000000 		.4byte	0
 3747 024b 00000000 		.4byte	0
 3748              	.LLST38:
 3749 024f 00000000 		.4byte	.LVL81
 3750 0253 09000000 		.4byte	.LVL82-1
 3751 0257 0100     		.2byte	0x1
 3752 0259 50       		.byte	0x50
 3753 025a 09000000 		.4byte	.LVL82-1
 3754 025e 12000000 		.4byte	.LVL84
 3755 0262 0100     		.2byte	0x1
 3756 0264 54       		.byte	0x54
 3757 0265 12000000 		.4byte	.LVL84
 3758 0269 30000000 		.4byte	.LFE133
 3759 026d 0400     		.2byte	0x4
 3760 026f F3       		.byte	0xf3
 3761 0270 01       		.uleb128 0x1
 3762 0271 50       		.byte	0x50
ARM GAS  /tmp/ccF2L4A0.s 			page 67


 3763 0272 9F       		.byte	0x9f
 3764 0273 00000000 		.4byte	0
 3765 0277 00000000 		.4byte	0
 3766              	.LLST39:
 3767 027b 00000000 		.4byte	.LVL81
 3768 027f 09000000 		.4byte	.LVL82-1
 3769 0283 0100     		.2byte	0x1
 3770 0285 51       		.byte	0x51
 3771 0286 09000000 		.4byte	.LVL82-1
 3772 028a 30000000 		.4byte	.LFE133
 3773 028e 0400     		.2byte	0x4
 3774 0290 F3       		.byte	0xf3
 3775 0291 01       		.uleb128 0x1
 3776 0292 51       		.byte	0x51
 3777 0293 9F       		.byte	0x9f
 3778 0294 00000000 		.4byte	0
 3779 0298 00000000 		.4byte	0
 3780              	.LLST40:
 3781 029c 00000000 		.4byte	.LVL81
 3782 02a0 0A000000 		.4byte	.LVL82
 3783 02a4 0200     		.2byte	0x2
 3784 02a6 39       		.byte	0x39
 3785 02a7 9F       		.byte	0x9f
 3786 02a8 0A000000 		.4byte	.LVL82
 3787 02ac 30000000 		.4byte	.LFE133
 3788 02b0 0100     		.2byte	0x1
 3789 02b2 50       		.byte	0x50
 3790 02b3 00000000 		.4byte	0
 3791 02b7 00000000 		.4byte	0
 3792              	.LLST1:
 3793 02bb 00000000 		.4byte	.LVL5
 3794 02bf 0A000000 		.4byte	.LVL8
 3795 02c3 0100     		.2byte	0x1
 3796 02c5 50       		.byte	0x50
 3797 02c6 0A000000 		.4byte	.LVL8
 3798 02ca 14000000 		.4byte	.LFE132
 3799 02ce 0400     		.2byte	0x4
 3800 02d0 F3       		.byte	0xf3
 3801 02d1 01       		.uleb128 0x1
 3802 02d2 50       		.byte	0x50
 3803 02d3 9F       		.byte	0x9f
 3804 02d4 00000000 		.4byte	0
 3805 02d8 00000000 		.4byte	0
 3806              	.LLST2:
 3807 02dc 00000000 		.4byte	.LVL5
 3808 02e0 04000000 		.4byte	.LVL6
 3809 02e4 0300     		.2byte	0x3
 3810 02e6 09       		.byte	0x9
 3811 02e7 FF       		.byte	0xff
 3812 02e8 9F       		.byte	0x9f
 3813 02e9 04000000 		.4byte	.LVL6
 3814 02ed 08000000 		.4byte	.LVL7
 3815 02f1 0600     		.2byte	0x6
 3816 02f3 73       		.byte	0x73
 3817 02f4 00       		.sleb128 0
 3818 02f5 08       		.byte	0x8
 3819 02f6 7F       		.byte	0x7f
ARM GAS  /tmp/ccF2L4A0.s 			page 68


 3820 02f7 1A       		.byte	0x1a
 3821 02f8 9F       		.byte	0x9f
 3822 02f9 00000000 		.4byte	0
 3823 02fd 00000000 		.4byte	0
 3824              	.LLST35:
 3825 0301 00000000 		.4byte	.LVL77
 3826 0305 09000000 		.4byte	.LVL78-1
 3827 0309 0100     		.2byte	0x1
 3828 030b 50       		.byte	0x50
 3829 030c 09000000 		.4byte	.LVL78-1
 3830 0310 12000000 		.4byte	.LVL80
 3831 0314 0100     		.2byte	0x1
 3832 0316 54       		.byte	0x54
 3833 0317 12000000 		.4byte	.LVL80
 3834 031b 30000000 		.4byte	.LFE131
 3835 031f 0400     		.2byte	0x4
 3836 0321 F3       		.byte	0xf3
 3837 0322 01       		.uleb128 0x1
 3838 0323 50       		.byte	0x50
 3839 0324 9F       		.byte	0x9f
 3840 0325 00000000 		.4byte	0
 3841 0329 00000000 		.4byte	0
 3842              	.LLST36:
 3843 032d 00000000 		.4byte	.LVL77
 3844 0331 09000000 		.4byte	.LVL78-1
 3845 0335 0100     		.2byte	0x1
 3846 0337 51       		.byte	0x51
 3847 0338 09000000 		.4byte	.LVL78-1
 3848 033c 30000000 		.4byte	.LFE131
 3849 0340 0400     		.2byte	0x4
 3850 0342 F3       		.byte	0xf3
 3851 0343 01       		.uleb128 0x1
 3852 0344 51       		.byte	0x51
 3853 0345 9F       		.byte	0x9f
 3854 0346 00000000 		.4byte	0
 3855 034a 00000000 		.4byte	0
 3856              	.LLST37:
 3857 034e 00000000 		.4byte	.LVL77
 3858 0352 0A000000 		.4byte	.LVL78
 3859 0356 0200     		.2byte	0x2
 3860 0358 39       		.byte	0x39
 3861 0359 9F       		.byte	0x9f
 3862 035a 0A000000 		.4byte	.LVL78
 3863 035e 30000000 		.4byte	.LFE131
 3864 0362 0100     		.2byte	0x1
 3865 0364 50       		.byte	0x50
 3866 0365 00000000 		.4byte	0
 3867 0369 00000000 		.4byte	0
 3868              	.LLST32:
 3869 036d 00000000 		.4byte	.LVL73
 3870 0371 09000000 		.4byte	.LVL74-1
 3871 0375 0100     		.2byte	0x1
 3872 0377 50       		.byte	0x50
 3873 0378 09000000 		.4byte	.LVL74-1
 3874 037c 12000000 		.4byte	.LVL76
 3875 0380 0100     		.2byte	0x1
 3876 0382 54       		.byte	0x54
ARM GAS  /tmp/ccF2L4A0.s 			page 69


 3877 0383 12000000 		.4byte	.LVL76
 3878 0387 30000000 		.4byte	.LFE130
 3879 038b 0400     		.2byte	0x4
 3880 038d F3       		.byte	0xf3
 3881 038e 01       		.uleb128 0x1
 3882 038f 50       		.byte	0x50
 3883 0390 9F       		.byte	0x9f
 3884 0391 00000000 		.4byte	0
 3885 0395 00000000 		.4byte	0
 3886              	.LLST33:
 3887 0399 00000000 		.4byte	.LVL73
 3888 039d 09000000 		.4byte	.LVL74-1
 3889 03a1 0100     		.2byte	0x1
 3890 03a3 51       		.byte	0x51
 3891 03a4 09000000 		.4byte	.LVL74-1
 3892 03a8 30000000 		.4byte	.LFE130
 3893 03ac 0400     		.2byte	0x4
 3894 03ae F3       		.byte	0xf3
 3895 03af 01       		.uleb128 0x1
 3896 03b0 51       		.byte	0x51
 3897 03b1 9F       		.byte	0x9f
 3898 03b2 00000000 		.4byte	0
 3899 03b6 00000000 		.4byte	0
 3900              	.LLST34:
 3901 03ba 00000000 		.4byte	.LVL73
 3902 03be 0A000000 		.4byte	.LVL74
 3903 03c2 0200     		.2byte	0x2
 3904 03c4 39       		.byte	0x39
 3905 03c5 9F       		.byte	0x9f
 3906 03c6 0A000000 		.4byte	.LVL74
 3907 03ca 30000000 		.4byte	.LFE130
 3908 03ce 0100     		.2byte	0x1
 3909 03d0 50       		.byte	0x50
 3910 03d1 00000000 		.4byte	0
 3911 03d5 00000000 		.4byte	0
 3912              	.LLST29:
 3913 03d9 00000000 		.4byte	.LVL68
 3914 03dd 09000000 		.4byte	.LVL69-1
 3915 03e1 0100     		.2byte	0x1
 3916 03e3 50       		.byte	0x50
 3917 03e4 09000000 		.4byte	.LVL69-1
 3918 03e8 36000000 		.4byte	.LVL72
 3919 03ec 0100     		.2byte	0x1
 3920 03ee 55       		.byte	0x55
 3921 03ef 36000000 		.4byte	.LVL72
 3922 03f3 3C000000 		.4byte	.LFE127
 3923 03f7 0400     		.2byte	0x4
 3924 03f9 F3       		.byte	0xf3
 3925 03fa 01       		.uleb128 0x1
 3926 03fb 50       		.byte	0x50
 3927 03fc 9F       		.byte	0x9f
 3928 03fd 00000000 		.4byte	0
 3929 0401 00000000 		.4byte	0
 3930              	.LLST30:
 3931 0405 00000000 		.4byte	.LVL68
 3932 0409 09000000 		.4byte	.LVL69-1
 3933 040d 0100     		.2byte	0x1
ARM GAS  /tmp/ccF2L4A0.s 			page 70


 3934 040f 51       		.byte	0x51
 3935 0410 09000000 		.4byte	.LVL69-1
 3936 0414 3C000000 		.4byte	.LFE127
 3937 0418 0400     		.2byte	0x4
 3938 041a F3       		.byte	0xf3
 3939 041b 01       		.uleb128 0x1
 3940 041c 51       		.byte	0x51
 3941 041d 9F       		.byte	0x9f
 3942 041e 00000000 		.4byte	0
 3943 0422 00000000 		.4byte	0
 3944              	.LLST31:
 3945 0426 00000000 		.4byte	.LVL68
 3946 042a 0A000000 		.4byte	.LVL69
 3947 042e 0200     		.2byte	0x2
 3948 0430 39       		.byte	0x39
 3949 0431 9F       		.byte	0x9f
 3950 0432 0A000000 		.4byte	.LVL69
 3951 0436 2B000000 		.4byte	.LVL71-1
 3952 043a 0100     		.2byte	0x1
 3953 043c 50       		.byte	0x50
 3954 043d 2C000000 		.4byte	.LVL71
 3955 0441 3C000000 		.4byte	.LFE127
 3956 0445 0100     		.2byte	0x1
 3957 0447 50       		.byte	0x50
 3958 0448 00000000 		.4byte	0
 3959 044c 00000000 		.4byte	0
 3960              	.LLST26:
 3961 0450 00000000 		.4byte	.LVL63
 3962 0454 09000000 		.4byte	.LVL64-1
 3963 0458 0100     		.2byte	0x1
 3964 045a 50       		.byte	0x50
 3965 045b 09000000 		.4byte	.LVL64-1
 3966 045f 3A000000 		.4byte	.LVL67
 3967 0463 0100     		.2byte	0x1
 3968 0465 55       		.byte	0x55
 3969 0466 3A000000 		.4byte	.LVL67
 3970 046a 40000000 		.4byte	.LFE126
 3971 046e 0400     		.2byte	0x4
 3972 0470 F3       		.byte	0xf3
 3973 0471 01       		.uleb128 0x1
 3974 0472 50       		.byte	0x50
 3975 0473 9F       		.byte	0x9f
 3976 0474 00000000 		.4byte	0
 3977 0478 00000000 		.4byte	0
 3978              	.LLST27:
 3979 047c 00000000 		.4byte	.LVL63
 3980 0480 09000000 		.4byte	.LVL64-1
 3981 0484 0100     		.2byte	0x1
 3982 0486 51       		.byte	0x51
 3983 0487 09000000 		.4byte	.LVL64-1
 3984 048b 40000000 		.4byte	.LFE126
 3985 048f 0400     		.2byte	0x4
 3986 0491 F3       		.byte	0xf3
 3987 0492 01       		.uleb128 0x1
 3988 0493 51       		.byte	0x51
 3989 0494 9F       		.byte	0x9f
 3990 0495 00000000 		.4byte	0
ARM GAS  /tmp/ccF2L4A0.s 			page 71


 3991 0499 00000000 		.4byte	0
 3992              	.LLST28:
 3993 049d 00000000 		.4byte	.LVL63
 3994 04a1 0A000000 		.4byte	.LVL64
 3995 04a5 0200     		.2byte	0x2
 3996 04a7 39       		.byte	0x39
 3997 04a8 9F       		.byte	0x9f
 3998 04a9 0A000000 		.4byte	.LVL64
 3999 04ad 2F000000 		.4byte	.LVL66-1
 4000 04b1 0100     		.2byte	0x1
 4001 04b3 50       		.byte	0x50
 4002 04b4 30000000 		.4byte	.LVL66
 4003 04b8 40000000 		.4byte	.LFE126
 4004 04bc 0100     		.2byte	0x1
 4005 04be 50       		.byte	0x50
 4006 04bf 00000000 		.4byte	0
 4007 04c3 00000000 		.4byte	0
 4008              	.LLST23:
 4009 04c7 00000000 		.4byte	.LVL58
 4010 04cb 09000000 		.4byte	.LVL59-1
 4011 04cf 0100     		.2byte	0x1
 4012 04d1 50       		.byte	0x50
 4013 04d2 09000000 		.4byte	.LVL59-1
 4014 04d6 3A000000 		.4byte	.LVL62
 4015 04da 0100     		.2byte	0x1
 4016 04dc 55       		.byte	0x55
 4017 04dd 3A000000 		.4byte	.LVL62
 4018 04e1 40000000 		.4byte	.LFE125
 4019 04e5 0400     		.2byte	0x4
 4020 04e7 F3       		.byte	0xf3
 4021 04e8 01       		.uleb128 0x1
 4022 04e9 50       		.byte	0x50
 4023 04ea 9F       		.byte	0x9f
 4024 04eb 00000000 		.4byte	0
 4025 04ef 00000000 		.4byte	0
 4026              	.LLST24:
 4027 04f3 00000000 		.4byte	.LVL58
 4028 04f7 09000000 		.4byte	.LVL59-1
 4029 04fb 0100     		.2byte	0x1
 4030 04fd 51       		.byte	0x51
 4031 04fe 09000000 		.4byte	.LVL59-1
 4032 0502 3A000000 		.4byte	.LVL62
 4033 0506 0100     		.2byte	0x1
 4034 0508 56       		.byte	0x56
 4035 0509 3A000000 		.4byte	.LVL62
 4036 050d 40000000 		.4byte	.LFE125
 4037 0511 0400     		.2byte	0x4
 4038 0513 F3       		.byte	0xf3
 4039 0514 01       		.uleb128 0x1
 4040 0515 51       		.byte	0x51
 4041 0516 9F       		.byte	0x9f
 4042 0517 00000000 		.4byte	0
 4043 051b 00000000 		.4byte	0
 4044              	.LLST25:
 4045 051f 00000000 		.4byte	.LVL58
 4046 0523 0A000000 		.4byte	.LVL59
 4047 0527 0200     		.2byte	0x2
ARM GAS  /tmp/ccF2L4A0.s 			page 72


 4048 0529 39       		.byte	0x39
 4049 052a 9F       		.byte	0x9f
 4050 052b 0A000000 		.4byte	.LVL59
 4051 052f 2F000000 		.4byte	.LVL61-1
 4052 0533 0100     		.2byte	0x1
 4053 0535 50       		.byte	0x50
 4054 0536 30000000 		.4byte	.LVL61
 4055 053a 40000000 		.4byte	.LFE125
 4056 053e 0100     		.2byte	0x1
 4057 0540 50       		.byte	0x50
 4058 0541 00000000 		.4byte	0
 4059 0545 00000000 		.4byte	0
 4060              	.LLST20:
 4061 0549 00000000 		.4byte	.LVL53
 4062 054d 0B000000 		.4byte	.LVL54-1
 4063 0551 0100     		.2byte	0x1
 4064 0553 50       		.byte	0x50
 4065 0554 0B000000 		.4byte	.LVL54-1
 4066 0558 3E000000 		.4byte	.LVL57
 4067 055c 0100     		.2byte	0x1
 4068 055e 55       		.byte	0x55
 4069 055f 3E000000 		.4byte	.LVL57
 4070 0563 44000000 		.4byte	.LFE124
 4071 0567 0400     		.2byte	0x4
 4072 0569 F3       		.byte	0xf3
 4073 056a 01       		.uleb128 0x1
 4074 056b 50       		.byte	0x50
 4075 056c 9F       		.byte	0x9f
 4076 056d 00000000 		.4byte	0
 4077 0571 00000000 		.4byte	0
 4078              	.LLST21:
 4079 0575 00000000 		.4byte	.LVL53
 4080 0579 0B000000 		.4byte	.LVL54-1
 4081 057d 0600     		.2byte	0x6
 4082 057f 52       		.byte	0x52
 4083 0580 93       		.byte	0x93
 4084 0581 04       		.uleb128 0x4
 4085 0582 53       		.byte	0x53
 4086 0583 93       		.byte	0x93
 4087 0584 04       		.uleb128 0x4
 4088 0585 0B000000 		.4byte	.LVL54-1
 4089 0589 44000000 		.4byte	.LFE124
 4090 058d 0600     		.2byte	0x6
 4091 058f F3       		.byte	0xf3
 4092 0590 03       		.uleb128 0x3
 4093 0591 F5       		.byte	0xf5
 4094 0592 02       		.uleb128 0x2
 4095 0593 25       		.uleb128 0x25
 4096 0594 9F       		.byte	0x9f
 4097 0595 00000000 		.4byte	0
 4098 0599 00000000 		.4byte	0
 4099              	.LLST22:
 4100 059d 00000000 		.4byte	.LVL53
 4101 05a1 0C000000 		.4byte	.LVL54
 4102 05a5 0200     		.2byte	0x2
 4103 05a7 39       		.byte	0x39
 4104 05a8 9F       		.byte	0x9f
ARM GAS  /tmp/ccF2L4A0.s 			page 73


 4105 05a9 0C000000 		.4byte	.LVL54
 4106 05ad 33000000 		.4byte	.LVL56-1
 4107 05b1 0100     		.2byte	0x1
 4108 05b3 50       		.byte	0x50
 4109 05b4 34000000 		.4byte	.LVL56
 4110 05b8 44000000 		.4byte	.LFE124
 4111 05bc 0100     		.2byte	0x1
 4112 05be 50       		.byte	0x50
 4113 05bf 00000000 		.4byte	0
 4114 05c3 00000000 		.4byte	0
 4115              	.LLST17:
 4116 05c7 00000000 		.4byte	.LVL45
 4117 05cb 07000000 		.4byte	.LVL46-1
 4118 05cf 0100     		.2byte	0x1
 4119 05d1 50       		.byte	0x50
 4120 05d2 07000000 		.4byte	.LVL46-1
 4121 05d6 5C000000 		.4byte	.LFE123
 4122 05da 0400     		.2byte	0x4
 4123 05dc F3       		.byte	0xf3
 4124 05dd 01       		.uleb128 0x1
 4125 05de 50       		.byte	0x50
 4126 05df 9F       		.byte	0x9f
 4127 05e0 00000000 		.4byte	0
 4128 05e4 00000000 		.4byte	0
 4129              	.LLST18:
 4130 05e8 00000000 		.4byte	.LVL45
 4131 05ec 1A000000 		.4byte	.LVL47
 4132 05f0 0200     		.2byte	0x2
 4133 05f2 30       		.byte	0x30
 4134 05f3 9F       		.byte	0x9f
 4135 05f4 1A000000 		.4byte	.LVL47
 4136 05f8 2E000000 		.4byte	.LVL49
 4137 05fc 0100     		.2byte	0x1
 4138 05fe 54       		.byte	0x54
 4139 05ff 4E000000 		.4byte	.LVL51
 4140 0603 54000000 		.4byte	.LVL52
 4141 0607 0200     		.2byte	0x2
 4142 0609 30       		.byte	0x30
 4143 060a 9F       		.byte	0x9f
 4144 060b 54000000 		.4byte	.LVL52
 4145 060f 5C000000 		.4byte	.LFE123
 4146 0613 0100     		.2byte	0x1
 4147 0615 54       		.byte	0x54
 4148 0616 00000000 		.4byte	0
 4149 061a 00000000 		.4byte	0
 4150              	.LLST19:
 4151 061e 00000000 		.4byte	.LVL45
 4152 0622 08000000 		.4byte	.LVL46
 4153 0626 0200     		.2byte	0x2
 4154 0628 39       		.byte	0x39
 4155 0629 9F       		.byte	0x9f
 4156 062a 08000000 		.4byte	.LVL46
 4157 062e 43000000 		.4byte	.LVL50-1
 4158 0632 0100     		.2byte	0x1
 4159 0634 50       		.byte	0x50
 4160 0635 44000000 		.4byte	.LVL50
 4161 0639 5C000000 		.4byte	.LFE123
ARM GAS  /tmp/ccF2L4A0.s 			page 74


 4162 063d 0100     		.2byte	0x1
 4163 063f 50       		.byte	0x50
 4164 0640 00000000 		.4byte	0
 4165 0644 00000000 		.4byte	0
 4166              	.LLST14:
 4167 0648 00000000 		.4byte	.LVL37
 4168 064c 07000000 		.4byte	.LVL38-1
 4169 0650 0100     		.2byte	0x1
 4170 0652 50       		.byte	0x50
 4171 0653 07000000 		.4byte	.LVL38-1
 4172 0657 5C000000 		.4byte	.LFE121
 4173 065b 0400     		.2byte	0x4
 4174 065d F3       		.byte	0xf3
 4175 065e 01       		.uleb128 0x1
 4176 065f 50       		.byte	0x50
 4177 0660 9F       		.byte	0x9f
 4178 0661 00000000 		.4byte	0
 4179 0665 00000000 		.4byte	0
 4180              	.LLST15:
 4181 0669 00000000 		.4byte	.LVL37
 4182 066d 1A000000 		.4byte	.LVL39
 4183 0671 0200     		.2byte	0x2
 4184 0673 30       		.byte	0x30
 4185 0674 9F       		.byte	0x9f
 4186 0675 1A000000 		.4byte	.LVL39
 4187 0679 2E000000 		.4byte	.LVL41
 4188 067d 0100     		.2byte	0x1
 4189 067f 54       		.byte	0x54
 4190 0680 4E000000 		.4byte	.LVL43
 4191 0684 54000000 		.4byte	.LVL44
 4192 0688 0200     		.2byte	0x2
 4193 068a 30       		.byte	0x30
 4194 068b 9F       		.byte	0x9f
 4195 068c 54000000 		.4byte	.LVL44
 4196 0690 5C000000 		.4byte	.LFE121
 4197 0694 0100     		.2byte	0x1
 4198 0696 54       		.byte	0x54
 4199 0697 00000000 		.4byte	0
 4200 069b 00000000 		.4byte	0
 4201              	.LLST16:
 4202 069f 00000000 		.4byte	.LVL37
 4203 06a3 08000000 		.4byte	.LVL38
 4204 06a7 0200     		.2byte	0x2
 4205 06a9 39       		.byte	0x39
 4206 06aa 9F       		.byte	0x9f
 4207 06ab 08000000 		.4byte	.LVL38
 4208 06af 43000000 		.4byte	.LVL42-1
 4209 06b3 0100     		.2byte	0x1
 4210 06b5 50       		.byte	0x50
 4211 06b6 44000000 		.4byte	.LVL42
 4212 06ba 5C000000 		.4byte	.LFE121
 4213 06be 0100     		.2byte	0x1
 4214 06c0 50       		.byte	0x50
 4215 06c1 00000000 		.4byte	0
 4216 06c5 00000000 		.4byte	0
 4217              	.LLST10:
 4218 06c9 00000000 		.4byte	.LVL28
ARM GAS  /tmp/ccF2L4A0.s 			page 75


 4219 06cd 19000000 		.4byte	.LVL30-1
 4220 06d1 0100     		.2byte	0x1
 4221 06d3 50       		.byte	0x50
 4222 06d4 19000000 		.4byte	.LVL30-1
 4223 06d8 20000000 		.4byte	.LVL31
 4224 06dc 0100     		.2byte	0x1
 4225 06de 56       		.byte	0x56
 4226 06df 20000000 		.4byte	.LVL31
 4227 06e3 25000000 		.4byte	.LVL33-1
 4228 06e7 0100     		.2byte	0x1
 4229 06e9 50       		.byte	0x50
 4230 06ea 25000000 		.4byte	.LVL33-1
 4231 06ee 6A000000 		.4byte	.LVL36
 4232 06f2 0100     		.2byte	0x1
 4233 06f4 56       		.byte	0x56
 4234 06f5 6A000000 		.4byte	.LVL36
 4235 06f9 74000000 		.4byte	.LFE120
 4236 06fd 0100     		.2byte	0x1
 4237 06ff 50       		.byte	0x50
 4238 0700 00000000 		.4byte	0
 4239 0704 00000000 		.4byte	0
 4240              	.LLST11:
 4241 0708 00000000 		.4byte	.LVL28
 4242 070c 19000000 		.4byte	.LVL30-1
 4243 0710 0100     		.2byte	0x1
 4244 0712 51       		.byte	0x51
 4245 0713 19000000 		.4byte	.LVL30-1
 4246 0717 20000000 		.4byte	.LVL31
 4247 071b 0400     		.2byte	0x4
 4248 071d F3       		.byte	0xf3
 4249 071e 01       		.uleb128 0x1
 4250 071f 51       		.byte	0x51
 4251 0720 9F       		.byte	0x9f
 4252 0721 20000000 		.4byte	.LVL31
 4253 0725 25000000 		.4byte	.LVL33-1
 4254 0729 0100     		.2byte	0x1
 4255 072b 51       		.byte	0x51
 4256 072c 25000000 		.4byte	.LVL33-1
 4257 0730 6A000000 		.4byte	.LVL36
 4258 0734 0400     		.2byte	0x4
 4259 0736 F3       		.byte	0xf3
 4260 0737 01       		.uleb128 0x1
 4261 0738 51       		.byte	0x51
 4262 0739 9F       		.byte	0x9f
 4263 073a 6A000000 		.4byte	.LVL36
 4264 073e 74000000 		.4byte	.LFE120
 4265 0742 0100     		.2byte	0x1
 4266 0744 51       		.byte	0x51
 4267 0745 00000000 		.4byte	0
 4268 0749 00000000 		.4byte	0
 4269              	.LLST12:
 4270 074d 00000000 		.4byte	.LVL28
 4271 0751 16000000 		.4byte	.LVL29
 4272 0755 0200     		.2byte	0x2
 4273 0757 30       		.byte	0x30
 4274 0758 9F       		.byte	0x9f
 4275 0759 16000000 		.4byte	.LVL29
ARM GAS  /tmp/ccF2L4A0.s 			page 76


 4276 075d 20000000 		.4byte	.LVL31
 4277 0761 0100     		.2byte	0x1
 4278 0763 54       		.byte	0x54
 4279 0764 20000000 		.4byte	.LVL31
 4280 0768 22000000 		.4byte	.LVL32
 4281 076c 0200     		.2byte	0x2
 4282 076e 30       		.byte	0x30
 4283 076f 9F       		.byte	0x9f
 4284 0770 22000000 		.4byte	.LVL32
 4285 0774 6A000000 		.4byte	.LVL36
 4286 0778 0100     		.2byte	0x1
 4287 077a 54       		.byte	0x54
 4288 077b 6A000000 		.4byte	.LVL36
 4289 077f 74000000 		.4byte	.LFE120
 4290 0783 0200     		.2byte	0x2
 4291 0785 30       		.byte	0x30
 4292 0786 9F       		.byte	0x9f
 4293 0787 00000000 		.4byte	0
 4294 078b 00000000 		.4byte	0
 4295              	.LLST13:
 4296 078f 00000000 		.4byte	.LVL28
 4297 0793 1A000000 		.4byte	.LVL30
 4298 0797 0200     		.2byte	0x2
 4299 0799 39       		.byte	0x39
 4300 079a 9F       		.byte	0x9f
 4301 079b 1A000000 		.4byte	.LVL30
 4302 079f 20000000 		.4byte	.LVL31
 4303 07a3 0100     		.2byte	0x1
 4304 07a5 50       		.byte	0x50
 4305 07a6 20000000 		.4byte	.LVL31
 4306 07aa 26000000 		.4byte	.LVL33
 4307 07ae 0200     		.2byte	0x2
 4308 07b0 39       		.byte	0x39
 4309 07b1 9F       		.byte	0x9f
 4310 07b2 26000000 		.4byte	.LVL33
 4311 07b6 44000000 		.4byte	.LVL34
 4312 07ba 0100     		.2byte	0x1
 4313 07bc 50       		.byte	0x50
 4314 07bd 58000000 		.4byte	.LVL35
 4315 07c1 6A000000 		.4byte	.LVL36
 4316 07c5 0100     		.2byte	0x1
 4317 07c7 50       		.byte	0x50
 4318 07c8 6A000000 		.4byte	.LVL36
 4319 07cc 74000000 		.4byte	.LFE120
 4320 07d0 0200     		.2byte	0x2
 4321 07d2 39       		.byte	0x39
 4322 07d3 9F       		.byte	0x9f
 4323 07d4 00000000 		.4byte	0
 4324 07d8 00000000 		.4byte	0
 4325              	.LLST0:
 4326 07dc 00000000 		.4byte	.LVL0
 4327 07e0 04000000 		.4byte	.LVL1
 4328 07e4 0100     		.2byte	0x1
 4329 07e6 50       		.byte	0x50
 4330 07e7 04000000 		.4byte	.LVL1
 4331 07eb 0C000000 		.4byte	.LFE112
 4332 07ef 0400     		.2byte	0x4
ARM GAS  /tmp/ccF2L4A0.s 			page 77


 4333 07f1 F3       		.byte	0xf3
 4334 07f2 01       		.uleb128 0x1
 4335 07f3 50       		.byte	0x50
 4336 07f4 9F       		.byte	0x9f
 4337 07f5 00000000 		.4byte	0
 4338 07f9 00000000 		.4byte	0
 4339              	.LLST9:
 4340 07fd 00000000 		.4byte	.LVL24
 4341 0801 34000000 		.4byte	.LVL25
 4342 0805 0200     		.2byte	0x2
 4343 0807 39       		.byte	0x39
 4344 0808 9F       		.byte	0x9f
 4345 0809 34000000 		.4byte	.LVL25
 4346 080d 36000000 		.4byte	.LVL26
 4347 0811 0100     		.2byte	0x1
 4348 0813 50       		.byte	0x50
 4349 0814 36000000 		.4byte	.LVL26
 4350 0818 40000000 		.4byte	.LFE150
 4351 081c 0200     		.2byte	0x2
 4352 081e 39       		.byte	0x39
 4353 081f 9F       		.byte	0x9f
 4354 0820 00000000 		.4byte	0
 4355 0824 00000000 		.4byte	0
 4356              		.section	.debug_aranges,"",%progbits
 4357 0000 3C010000 		.4byte	0x13c
 4358 0004 0200     		.2byte	0x2
 4359 0006 00000000 		.4byte	.Ldebug_info0
 4360 000a 04       		.byte	0x4
 4361 000b 00       		.byte	0
 4362 000c 0000     		.2byte	0
 4363 000e 0000     		.2byte	0
 4364 0010 00000000 		.4byte	.LFB112
 4365 0014 0C000000 		.4byte	.LFE112-.LFB112
 4366 0018 00000000 		.4byte	.LFB113
 4367 001c 1C000000 		.4byte	.LFE113-.LFB113
 4368 0020 00000000 		.4byte	.LFB114
 4369 0024 1C000000 		.4byte	.LFE114-.LFB114
 4370 0028 00000000 		.4byte	.LFB115
 4371 002c 1C000000 		.4byte	.LFE115-.LFB115
 4372 0030 00000000 		.4byte	.LFB116
 4373 0034 10000000 		.4byte	.LFE116-.LFB116
 4374 0038 00000000 		.4byte	.LFB117
 4375 003c 10000000 		.4byte	.LFE117-.LFB117
 4376 0040 00000000 		.4byte	.LFB118
 4377 0044 20000000 		.4byte	.LFE118-.LFB118
 4378 0048 00000000 		.4byte	.LFB119
 4379 004c 10000000 		.4byte	.LFE119-.LFB119
 4380 0050 00000000 		.4byte	.LFB128
 4381 0054 20000000 		.4byte	.LFE128-.LFB128
 4382 0058 00000000 		.4byte	.LFB129
 4383 005c 10000000 		.4byte	.LFE129-.LFB129
 4384 0060 00000000 		.4byte	.LFB132
 4385 0064 14000000 		.4byte	.LFE132-.LFB132
 4386 0068 00000000 		.4byte	.LFB137
 4387 006c 18000000 		.4byte	.LFE137-.LFB137
 4388 0070 00000000 		.4byte	.LFB138
 4389 0074 18000000 		.4byte	.LFE138-.LFB138
ARM GAS  /tmp/ccF2L4A0.s 			page 78


 4390 0078 00000000 		.4byte	.LFB140
 4391 007c 10000000 		.4byte	.LFE140-.LFB140
 4392 0080 00000000 		.4byte	.LFB141
 4393 0084 0C000000 		.4byte	.LFE141-.LFB141
 4394 0088 00000000 		.4byte	.LFB142
 4395 008c 0C000000 		.4byte	.LFE142-.LFB142
 4396 0090 00000000 		.4byte	.LFB145
 4397 0094 10000000 		.4byte	.LFE145-.LFB145
 4398 0098 00000000 		.4byte	.LFB146
 4399 009c 10000000 		.4byte	.LFE146-.LFB146
 4400 00a0 00000000 		.4byte	.LFB147
 4401 00a4 18000000 		.4byte	.LFE147-.LFB147
 4402 00a8 00000000 		.4byte	.LFB148
 4403 00ac 14000000 		.4byte	.LFE148-.LFB148
 4404 00b0 00000000 		.4byte	.LFB149
 4405 00b4 0C000000 		.4byte	.LFE149-.LFB149
 4406 00b8 00000000 		.4byte	.LFB150
 4407 00bc 40000000 		.4byte	.LFE150-.LFB150
 4408 00c0 00000000 		.4byte	.LFB151
 4409 00c4 24000000 		.4byte	.LFE151-.LFB151
 4410 00c8 00000000 		.4byte	.LFB120
 4411 00cc 74000000 		.4byte	.LFE120-.LFB120
 4412 00d0 00000000 		.4byte	.LFB121
 4413 00d4 5C000000 		.4byte	.LFE121-.LFB121
 4414 00d8 00000000 		.4byte	.LFB123
 4415 00dc 5C000000 		.4byte	.LFE123-.LFB123
 4416 00e0 00000000 		.4byte	.LFB124
 4417 00e4 44000000 		.4byte	.LFE124-.LFB124
 4418 00e8 00000000 		.4byte	.LFB125
 4419 00ec 40000000 		.4byte	.LFE125-.LFB125
 4420 00f0 00000000 		.4byte	.LFB126
 4421 00f4 40000000 		.4byte	.LFE126-.LFB126
 4422 00f8 00000000 		.4byte	.LFB127
 4423 00fc 3C000000 		.4byte	.LFE127-.LFB127
 4424 0100 00000000 		.4byte	.LFB130
 4425 0104 30000000 		.4byte	.LFE130-.LFB130
 4426 0108 00000000 		.4byte	.LFB131
 4427 010c 30000000 		.4byte	.LFE131-.LFB131
 4428 0110 00000000 		.4byte	.LFB133
 4429 0114 30000000 		.4byte	.LFE133-.LFB133
 4430 0118 00000000 		.4byte	.LFB134
 4431 011c 30000000 		.4byte	.LFE134-.LFB134
 4432 0120 00000000 		.4byte	.LFB135
 4433 0124 18000000 		.4byte	.LFE135-.LFB135
 4434 0128 00000000 		.4byte	.LFB136
 4435 012c 28000000 		.4byte	.LFE136-.LFB136
 4436 0130 00000000 		.4byte	.LFB139
 4437 0134 14000000 		.4byte	.LFE139-.LFB139
 4438 0138 00000000 		.4byte	0
 4439 013c 00000000 		.4byte	0
 4440              		.section	.debug_ranges,"",%progbits
 4441              	.Ldebug_ranges0:
 4442 0000 00000000 		.4byte	.LFB112
 4443 0004 0C000000 		.4byte	.LFE112
 4444 0008 00000000 		.4byte	.LFB113
 4445 000c 1C000000 		.4byte	.LFE113
 4446 0010 00000000 		.4byte	.LFB114
ARM GAS  /tmp/ccF2L4A0.s 			page 79


 4447 0014 1C000000 		.4byte	.LFE114
 4448 0018 00000000 		.4byte	.LFB115
 4449 001c 1C000000 		.4byte	.LFE115
 4450 0020 00000000 		.4byte	.LFB116
 4451 0024 10000000 		.4byte	.LFE116
 4452 0028 00000000 		.4byte	.LFB117
 4453 002c 10000000 		.4byte	.LFE117
 4454 0030 00000000 		.4byte	.LFB118
 4455 0034 20000000 		.4byte	.LFE118
 4456 0038 00000000 		.4byte	.LFB119
 4457 003c 10000000 		.4byte	.LFE119
 4458 0040 00000000 		.4byte	.LFB128
 4459 0044 20000000 		.4byte	.LFE128
 4460 0048 00000000 		.4byte	.LFB129
 4461 004c 10000000 		.4byte	.LFE129
 4462 0050 00000000 		.4byte	.LFB132
 4463 0054 14000000 		.4byte	.LFE132
 4464 0058 00000000 		.4byte	.LFB137
 4465 005c 18000000 		.4byte	.LFE137
 4466 0060 00000000 		.4byte	.LFB138
 4467 0064 18000000 		.4byte	.LFE138
 4468 0068 00000000 		.4byte	.LFB140
 4469 006c 10000000 		.4byte	.LFE140
 4470 0070 00000000 		.4byte	.LFB141
 4471 0074 0C000000 		.4byte	.LFE141
 4472 0078 00000000 		.4byte	.LFB142
 4473 007c 0C000000 		.4byte	.LFE142
 4474 0080 00000000 		.4byte	.LFB145
 4475 0084 10000000 		.4byte	.LFE145
 4476 0088 00000000 		.4byte	.LFB146
 4477 008c 10000000 		.4byte	.LFE146
 4478 0090 00000000 		.4byte	.LFB147
 4479 0094 18000000 		.4byte	.LFE147
 4480 0098 00000000 		.4byte	.LFB148
 4481 009c 14000000 		.4byte	.LFE148
 4482 00a0 00000000 		.4byte	.LFB149
 4483 00a4 0C000000 		.4byte	.LFE149
 4484 00a8 00000000 		.4byte	.LFB150
 4485 00ac 40000000 		.4byte	.LFE150
 4486 00b0 00000000 		.4byte	.LFB151
 4487 00b4 24000000 		.4byte	.LFE151
 4488 00b8 00000000 		.4byte	.LFB120
 4489 00bc 74000000 		.4byte	.LFE120
 4490 00c0 00000000 		.4byte	.LFB121
 4491 00c4 5C000000 		.4byte	.LFE121
 4492 00c8 00000000 		.4byte	.LFB123
 4493 00cc 5C000000 		.4byte	.LFE123
 4494 00d0 00000000 		.4byte	.LFB124
 4495 00d4 44000000 		.4byte	.LFE124
 4496 00d8 00000000 		.4byte	.LFB125
 4497 00dc 40000000 		.4byte	.LFE125
 4498 00e0 00000000 		.4byte	.LFB126
 4499 00e4 40000000 		.4byte	.LFE126
 4500 00e8 00000000 		.4byte	.LFB127
 4501 00ec 3C000000 		.4byte	.LFE127
 4502 00f0 00000000 		.4byte	.LFB130
 4503 00f4 30000000 		.4byte	.LFE130
ARM GAS  /tmp/ccF2L4A0.s 			page 80


 4504 00f8 00000000 		.4byte	.LFB131
 4505 00fc 30000000 		.4byte	.LFE131
 4506 0100 00000000 		.4byte	.LFB133
 4507 0104 30000000 		.4byte	.LFE133
 4508 0108 00000000 		.4byte	.LFB134
 4509 010c 30000000 		.4byte	.LFE134
 4510 0110 00000000 		.4byte	.LFB135
 4511 0114 18000000 		.4byte	.LFE135
 4512 0118 00000000 		.4byte	.LFB136
 4513 011c 28000000 		.4byte	.LFE136
 4514 0120 00000000 		.4byte	.LFB139
 4515 0124 14000000 		.4byte	.LFE139
 4516 0128 00000000 		.4byte	0
 4517 012c 00000000 		.4byte	0
 4518              		.section	.debug_line,"",%progbits
 4519              	.Ldebug_line0:
 4520 0000 12050000 		.section	.debug_str,"MS",%progbits,1
 4520      02007501 
 4520      00000201 
 4520      FB0E0D00 
 4520      01010101 
 4521              	.LASF47:
 4522 0000 464C4153 		.ascii	"FLASH_ITConfig\000"
 4522      485F4954 
 4522      436F6E66 
 4522      696700
 4523              	.LASF90:
 4524 000f 464C4153 		.ascii	"FLASH_EraseAllSectors\000"
 4524      485F4572 
 4524      61736541 
 4524      6C6C5365 
 4524      63746F72 
 4525              	.LASF69:
 4526 0025 4F425F52 		.ascii	"OB_RDP\000"
 4526      445000
 4527              	.LASF64:
 4528 002c 4F425F49 		.ascii	"OB_IWDG\000"
 4528      57444700 
 4529              	.LASF36:
 4530 0034 464C4153 		.ascii	"FLASH_ERROR_WRP\000"
 4530      485F4552 
 4530      524F525F 
 4530      57525000 
 4531              	.LASF18:
 4532 0044 75696E74 		.ascii	"uint64_t\000"
 4532      36345F74 
 4532      00
 4533              	.LASF86:
 4534 004d 464C4153 		.ascii	"FLASH_EraseAllBank2Sectors\000"
 4534      485F4572 
 4534      61736541 
 4534      6C6C4261 
 4534      6E6B3253 
 4535              	.LASF48:
 4536 0068 464C4153 		.ascii	"FLASH_IT\000"
 4536      485F4954 
 4536      00
ARM GAS  /tmp/ccF2L4A0.s 			page 81


 4537              	.LASF62:
 4538 0071 4F425F42 		.ascii	"OB_BOOT\000"
 4538      4F4F5400 
 4539              	.LASF55:
 4540 0079 464C4153 		.ascii	"FLASH_OB_GetWRP\000"
 4540      485F4F42 
 4540      5F476574 
 4540      57525000 
 4541              	.LASF87:
 4542 0089 566F6C74 		.ascii	"VoltageRange\000"
 4542      61676552 
 4542      616E6765 
 4542      00
 4543              	.LASF9:
 4544 0096 5F5F7569 		.ascii	"__uint32_t\000"
 4544      6E743332 
 4544      5F7400
 4545              	.LASF78:
 4546 00a1 464C4153 		.ascii	"FLASH_OB_Lock\000"
 4546      485F4F42 
 4546      5F4C6F63 
 4546      6B00
 4547              	.LASF81:
 4548 00af 41646472 		.ascii	"Address\000"
 4548      65737300 
 4549              	.LASF27:
 4550 00b7 466C6167 		.ascii	"FlagStatus\000"
 4550      53746174 
 4550      757300
 4551              	.LASF5:
 4552 00c2 5F5F7569 		.ascii	"__uint16_t\000"
 4552      6E743136 
 4552      5F7400
 4553              	.LASF76:
 4554 00cd 4F425F57 		.ascii	"OB_WRP\000"
 4554      525000
 4555              	.LASF45:
 4556 00d4 62697473 		.ascii	"bitstatus\000"
 4556      74617475 
 4556      7300
 4557              	.LASF63:
 4558 00de 464C4153 		.ascii	"FLASH_OB_UserConfig\000"
 4558      485F4F42 
 4558      5F557365 
 4558      72436F6E 
 4558      66696700 
 4559              	.LASF72:
 4560 00f2 464C4153 		.ascii	"FLASH_OB_PCROPConfig\000"
 4560      485F4F42 
 4560      5F504352 
 4560      4F50436F 
 4560      6E666967 
 4561              	.LASF94:
 4562 0107 464C4153 		.ascii	"FLASH_Unlock\000"
 4562      485F556E 
 4562      6C6F636B 
 4562      00
ARM GAS  /tmp/ccF2L4A0.s 			page 82


 4563              	.LASF14:
 4564 0114 75696E74 		.ascii	"uint8_t\000"
 4564      385F7400 
 4565              	.LASF40:
 4566 011c 464C4153 		.ascii	"FLASH_Status\000"
 4566      485F5374 
 4566      61747573 
 4566      00
 4567              	.LASF51:
 4568 0129 72656164 		.ascii	"readstatus\000"
 4568      73746174 
 4568      757300
 4569              	.LASF88:
 4570 0134 746D705F 		.ascii	"tmp_psize\000"
 4570      7073697A 
 4570      6500
 4571              	.LASF49:
 4572 013e 4E657753 		.ascii	"NewState\000"
 4572      74617465 
 4572      00
 4573              	.LASF28:
 4574 0147 44495341 		.ascii	"DISABLE\000"
 4574      424C4500 
 4575              	.LASF3:
 4576 014f 73686F72 		.ascii	"short int\000"
 4576      7420696E 
 4576      7400
 4577              	.LASF70:
 4578 0159 464C4153 		.ascii	"FLASH_OB_PCROP1Config\000"
 4578      485F4F42 
 4578      5F504352 
 4578      4F503143 
 4578      6F6E6669 
 4579              	.LASF98:
 4580 016f 464C4153 		.ascii	"FLASH_InstructionCacheCmd\000"
 4580      485F496E 
 4580      73747275 
 4580      6374696F 
 4580      6E436163 
 4581              	.LASF95:
 4582 0189 464C4153 		.ascii	"FLASH_DataCacheReset\000"
 4582      485F4461 
 4582      74614361 
 4582      63686552 
 4582      65736574 
 4583              	.LASF22:
 4584 019e 4F50544B 		.ascii	"OPTKEYR\000"
 4584      45595200 
 4585              	.LASF71:
 4586 01a6 4F425F50 		.ascii	"OB_PCROP\000"
 4586      43524F50 
 4586      00
 4587              	.LASF11:
 4588 01af 6C6F6E67 		.ascii	"long long int\000"
 4588      206C6F6E 
 4588      6720696E 
 4588      7400
ARM GAS  /tmp/ccF2L4A0.s 			page 83


 4589              	.LASF43:
 4590 01bd 464C4153 		.ascii	"FLASH_FLAG\000"
 4590      485F464C 
 4590      414700
 4591              	.LASF75:
 4592 01c8 464C4153 		.ascii	"FLASH_OB_WRP1Config\000"
 4592      485F4F42 
 4592      5F575250 
 4592      31436F6E 
 4592      66696700 
 4593              	.LASF103:
 4594 01dc 43686962 		.ascii	"ChibiOS_3.0.5/ext/stdperiph_stm32f4/src/stm32f4xx_f"
 4594      694F535F 
 4594      332E302E 
 4594      352F6578 
 4594      742F7374 
 4595 020f 6C617368 		.ascii	"lash.c\000"
 4595      2E6300
 4596              	.LASF91:
 4597 0216 464C4153 		.ascii	"FLASH_EraseSector\000"
 4597      485F4572 
 4597      61736553 
 4597      6563746F 
 4597      7200
 4598              	.LASF8:
 4599 0228 6C6F6E67 		.ascii	"long int\000"
 4599      20696E74 
 4599      00
 4600              	.LASF85:
 4601 0231 464C4153 		.ascii	"FLASH_ProgramDoubleWord\000"
 4601      485F5072 
 4601      6F677261 
 4601      6D446F75 
 4601      626C6557 
 4602              	.LASF38:
 4603 0249 464C4153 		.ascii	"FLASH_ERROR_OPERATION\000"
 4603      485F4552 
 4603      524F525F 
 4603      4F504552 
 4603      4154494F 
 4604              	.LASF4:
 4605 025f 5F5F7569 		.ascii	"__uint8_t\000"
 4605      6E74385F 
 4605      7400
 4606              	.LASF89:
 4607 0269 666C6173 		.ascii	"flashstatus\000"
 4607      68737461 
 4607      74757300 
 4608              	.LASF96:
 4609 0275 464C4153 		.ascii	"FLASH_InstructionCacheReset\000"
 4609      485F496E 
 4609      73747275 
 4609      6374696F 
 4609      6E436163 
 4610              	.LASF82:
 4611 0291 44617461 		.ascii	"Data\000"
 4611      00
ARM GAS  /tmp/ccF2L4A0.s 			page 84


 4612              	.LASF80:
 4613 0296 464C4153 		.ascii	"FLASH_ProgramByte\000"
 4613      485F5072 
 4613      6F677261 
 4613      6D427974 
 4613      6500
 4614              	.LASF24:
 4615 02a8 4F505443 		.ascii	"OPTCR1\000"
 4615      523100
 4616              	.LASF58:
 4617 02af 464C4153 		.ascii	"FLASH_OB_Launch\000"
 4617      485F4F42 
 4617      5F4C6175 
 4617      6E636800 
 4618              	.LASF61:
 4619 02bf 464C4153 		.ascii	"FLASH_OB_BootConfig\000"
 4619      485F4F42 
 4619      5F426F6F 
 4619      74436F6E 
 4619      66696700 
 4620              	.LASF57:
 4621 02d3 464C4153 		.ascii	"FLASH_OB_GetUser\000"
 4621      485F4F42 
 4621      5F476574 
 4621      55736572 
 4621      00
 4622              	.LASF2:
 4623 02e4 756E7369 		.ascii	"unsigned char\000"
 4623      676E6564 
 4623      20636861 
 4623      7200
 4624              	.LASF93:
 4625 02f2 464C4153 		.ascii	"FLASH_Lock\000"
 4625      485F4C6F 
 4625      636B00
 4626              	.LASF79:
 4627 02fd 464C4153 		.ascii	"FLASH_OB_Unlock\000"
 4627      485F4F42 
 4627      5F556E6C 
 4627      6F636B00 
 4628              	.LASF99:
 4629 030d 464C4153 		.ascii	"FLASH_PrefetchBufferCmd\000"
 4629      485F5072 
 4629      65666574 
 4629      63684275 
 4629      66666572 
 4630              	.LASF104:
 4631 0325 2F626C64 		.ascii	"/bldc\000"
 4631      6300
 4632              	.LASF1:
 4633 032b 7369676E 		.ascii	"signed char\000"
 4633      65642063 
 4633      68617200 
 4634              	.LASF42:
 4635 0337 464C4153 		.ascii	"FLASH_GetFlagStatus\000"
 4635      485F4765 
 4635      74466C61 
ARM GAS  /tmp/ccF2L4A0.s 			page 85


 4635      67537461 
 4635      74757300 
 4636              	.LASF0:
 4637 034b 6C6F6E67 		.ascii	"long long unsigned int\000"
 4637      206C6F6E 
 4637      6720756E 
 4637      7369676E 
 4637      65642069 
 4638              	.LASF53:
 4639 0362 464C4153 		.ascii	"FLASH_OB_GetPCROP\000"
 4639      485F4F42 
 4639      5F476574 
 4639      5043524F 
 4639      5000
 4640              	.LASF17:
 4641 0374 75696E74 		.ascii	"uint32_t\000"
 4641      33325F74 
 4641      00
 4642              	.LASF46:
 4643 037d 464C4153 		.ascii	"FLASH_ClearFlag\000"
 4643      485F436C 
 4643      65617246 
 4643      6C616700 
 4644              	.LASF13:
 4645 038d 756E7369 		.ascii	"unsigned int\000"
 4645      676E6564 
 4645      20696E74 
 4645      00
 4646              	.LASF39:
 4647 039a 464C4153 		.ascii	"FLASH_COMPLETE\000"
 4647      485F434F 
 4647      4D504C45 
 4647      544500
 4648              	.LASF31:
 4649 03a9 464C4153 		.ascii	"FLASH_BUSY\000"
 4649      485F4255 
 4649      535900
 4650              	.LASF26:
 4651 03b4 52455345 		.ascii	"RESET\000"
 4651      5400
 4652              	.LASF83:
 4653 03ba 464C4153 		.ascii	"FLASH_ProgramHalfWord\000"
 4653      485F5072 
 4653      6F677261 
 4653      6D48616C 
 4653      66576F72 
 4654              	.LASF6:
 4655 03d0 73686F72 		.ascii	"short unsigned int\000"
 4655      7420756E 
 4655      7369676E 
 4655      65642069 
 4655      6E7400
 4656              	.LASF74:
 4657 03e3 4F425F50 		.ascii	"OB_PcROP\000"
 4657      63524F50 
 4657      00
 4658              	.LASF44:
ARM GAS  /tmp/ccF2L4A0.s 			page 86


 4659 03ec 73746174 		.ascii	"status\000"
 4659      757300
 4660              	.LASF59:
 4661 03f3 464C4153 		.ascii	"FLASH_OB_BORConfig\000"
 4661      485F4F42 
 4661      5F424F52 
 4661      436F6E66 
 4661      696700
 4662              	.LASF54:
 4663 0406 464C4153 		.ascii	"FLASH_OB_GetWRP1\000"
 4663      485F4F42 
 4663      5F476574 
 4663      57525031 
 4663      00
 4664              	.LASF15:
 4665 0417 75696E74 		.ascii	"uint16_t\000"
 4665      31365F74 
 4665      00
 4666              	.LASF16:
 4667 0420 696E7433 		.ascii	"int32_t\000"
 4667      325F7400 
 4668              	.LASF105:
 4669 0428 464C4153 		.ascii	"FLASH_GetStatus\000"
 4669      485F4765 
 4669      74537461 
 4669      74757300 
 4670              	.LASF56:
 4671 0438 464C4153 		.ascii	"FLASH_OB_GetBOR\000"
 4671      485F4F42 
 4671      5F476574 
 4671      424F5200 
 4672              	.LASF100:
 4673 0448 464C4153 		.ascii	"FLASH_SetLatency\000"
 4673      485F5365 
 4673      744C6174 
 4673      656E6379 
 4673      00
 4674              	.LASF20:
 4675 0459 53797374 		.ascii	"SystemCoreClock\000"
 4675      656D436F 
 4675      7265436C 
 4675      6F636B00 
 4676              	.LASF12:
 4677 0469 5F5F7569 		.ascii	"__uint64_t\000"
 4677      6E743634 
 4677      5F7400
 4678              	.LASF10:
 4679 0474 6C6F6E67 		.ascii	"long unsigned int\000"
 4679      20756E73 
 4679      69676E65 
 4679      6420696E 
 4679      7400
 4680              	.LASF106:
 4681 0486 464C4153 		.ascii	"FLASH_EraseAllBank1Sectors\000"
 4681      485F4572 
 4681      61736541 
 4681      6C6C4261 
ARM GAS  /tmp/ccF2L4A0.s 			page 87


 4681      6E6B3153 
 4682              	.LASF35:
 4683 04a1 464C4153 		.ascii	"FLASH_ERROR_PGA\000"
 4683      485F4552 
 4683      524F525F 
 4683      50474100 
 4684              	.LASF30:
 4685 04b1 46756E63 		.ascii	"FunctionalState\000"
 4685      74696F6E 
 4685      616C5374 
 4685      61746500 
 4686              	.LASF52:
 4687 04c1 464C4153 		.ascii	"FLASH_OB_GetPCROP1\000"
 4687      485F4F42 
 4687      5F476574 
 4687      5043524F 
 4687      503100
 4688              	.LASF60:
 4689 04d4 4F425F42 		.ascii	"OB_BOR\000"
 4689      4F5200
 4690              	.LASF7:
 4691 04db 5F5F696E 		.ascii	"__int32_t\000"
 4691      7433325F 
 4691      7400
 4692              	.LASF77:
 4693 04e5 464C4153 		.ascii	"FLASH_OB_WRPConfig\000"
 4693      485F4F42 
 4693      5F575250 
 4693      436F6E66 
 4693      696700
 4694              	.LASF68:
 4695 04f8 464C4153 		.ascii	"FLASH_OB_RDPConfig\000"
 4695      485F4F42 
 4695      5F524450 
 4695      436F6E66 
 4695      696700
 4696              	.LASF101:
 4697 050b 464C4153 		.ascii	"FLASH_Latency\000"
 4697      485F4C61 
 4697      74656E63 
 4697      7900
 4698              	.LASF37:
 4699 0519 464C4153 		.ascii	"FLASH_ERROR_PROGRAM\000"
 4699      485F4552 
 4699      524F525F 
 4699      50524F47 
 4699      52414D00 
 4700              	.LASF67:
 4701 052d 6F707469 		.ascii	"optiontmp\000"
 4701      6F6E746D 
 4701      7000
 4702              	.LASF84:
 4703 0537 464C4153 		.ascii	"FLASH_ProgramWord\000"
 4703      485F5072 
 4703      6F677261 
 4703      6D576F72 
 4703      6400
ARM GAS  /tmp/ccF2L4A0.s 			page 88


 4704              	.LASF92:
 4705 0549 464C4153 		.ascii	"FLASH_Sector\000"
 4705      485F5365 
 4705      63746F72 
 4705      00
 4706              	.LASF97:
 4707 0556 464C4153 		.ascii	"FLASH_DataCacheCmd\000"
 4707      485F4461 
 4707      74614361 
 4707      63686543 
 4707      6D6400
 4708              	.LASF33:
 4709 0569 464C4153 		.ascii	"FLASH_ERROR_PGS\000"
 4709      485F4552 
 4709      524F525F 
 4709      50475300 
 4710              	.LASF25:
 4711 0579 464C4153 		.ascii	"FLASH_TypeDef\000"
 4711      485F5479 
 4711      70654465 
 4711      6600
 4712              	.LASF41:
 4713 0587 464C4153 		.ascii	"FLASH_WaitForLastOperation\000"
 4713      485F5761 
 4713      6974466F 
 4713      724C6173 
 4713      744F7065 
 4714              	.LASF19:
 4715 05a2 49544D5F 		.ascii	"ITM_RxBuffer\000"
 4715      52784275 
 4715      66666572 
 4715      00
 4716              	.LASF73:
 4717 05af 464C4153 		.ascii	"FLASH_OB_PCROPSelectionConfig\000"
 4717      485F4F42 
 4717      5F504352 
 4717      4F505365 
 4717      6C656374 
 4718              	.LASF65:
 4719 05cd 4F425F53 		.ascii	"OB_STOP\000"
 4719      544F5000 
 4720              	.LASF34:
 4721 05d5 464C4153 		.ascii	"FLASH_ERROR_PGP\000"
 4721      485F4552 
 4721      524F525F 
 4721      50475000 
 4722              	.LASF21:
 4723 05e5 4B455952 		.ascii	"KEYR\000"
 4723      00
 4724              	.LASF66:
 4725 05ea 4F425F53 		.ascii	"OB_STDBY\000"
 4725      54444259 
 4725      00
 4726              	.LASF23:
 4727 05f3 4F505443 		.ascii	"OPTCR\000"
 4727      5200
 4728              	.LASF29:
ARM GAS  /tmp/ccF2L4A0.s 			page 89


 4729 05f9 454E4142 		.ascii	"ENABLE\000"
 4729      4C4500
 4730              	.LASF50:
 4731 0600 464C4153 		.ascii	"FLASH_OB_GetRDP\000"
 4731      485F4F42 
 4731      5F476574 
 4731      52445000 
 4732              	.LASF102:
 4733 0610 474E5520 		.ascii	"GNU C99 7.3.1 20180622 (release) [ARM/embedded-7-br"
 4733      43393920 
 4733      372E332E 
 4733      31203230 
 4733      31383036 
 4734 0643 616E6368 		.ascii	"anch revision 261907] -mcpu=cortex-m4 -mfloat-abi=h"
 4734      20726576 
 4734      6973696F 
 4734      6E203236 
 4734      31393037 
 4735 0676 61726420 		.ascii	"ard -mfpu=fpv4-sp-d16 -mno-thumb-interwork -mthumb "
 4735      2D6D6670 
 4735      753D6670 
 4735      76342D73 
 4735      702D6431 
 4736 06a9 2D676764 		.ascii	"-ggdb -O2 -std=gnu99 -fomit-frame-pointer -falign-f"
 4736      62202D4F 
 4736      32202D73 
 4736      74643D67 
 4736      6E753939 
 4737 06dc 756E6374 		.ascii	"unctions=16 -ffunction-sections -fdata-sections -fn"
 4737      696F6E73 
 4737      3D313620 
 4737      2D666675 
 4737      6E637469 
 4738 070f 6F2D636F 		.ascii	"o-common -fsingle-precision-constant\000"
 4738      6D6D6F6E 
 4738      202D6673 
 4738      696E676C 
 4738      652D7072 
 4739              	.LASF32:
 4740 0734 464C4153 		.ascii	"FLASH_ERROR_RD\000"
 4740      485F4552 
 4740      524F525F 
 4740      524400
 4741              		.ident	"GCC: (GNU Tools for Arm Embedded Processors 7-2018-q3-update) 7.3.1 20180622 (release) [AR
ARM GAS  /tmp/ccF2L4A0.s 			page 90


DEFINED SYMBOLS
                            *ABS*:0000000000000000 stm32f4xx_flash.c
     /tmp/ccF2L4A0.s:18     .text.FLASH_SetLatency:0000000000000000 $t
     /tmp/ccF2L4A0.s:26     .text.FLASH_SetLatency:0000000000000000 FLASH_SetLatency
     /tmp/ccF2L4A0.s:45     .text.FLASH_SetLatency:0000000000000008 $d
     /tmp/ccF2L4A0.s:50     .text.FLASH_PrefetchBufferCmd:0000000000000000 $t
     /tmp/ccF2L4A0.s:58     .text.FLASH_PrefetchBufferCmd:0000000000000000 FLASH_PrefetchBufferCmd
     /tmp/ccF2L4A0.s:84     .text.FLASH_PrefetchBufferCmd:0000000000000018 $d
     /tmp/ccF2L4A0.s:89     .text.FLASH_InstructionCacheCmd:0000000000000000 $t
     /tmp/ccF2L4A0.s:97     .text.FLASH_InstructionCacheCmd:0000000000000000 FLASH_InstructionCacheCmd
     /tmp/ccF2L4A0.s:123    .text.FLASH_InstructionCacheCmd:0000000000000018 $d
     /tmp/ccF2L4A0.s:128    .text.FLASH_DataCacheCmd:0000000000000000 $t
     /tmp/ccF2L4A0.s:136    .text.FLASH_DataCacheCmd:0000000000000000 FLASH_DataCacheCmd
     /tmp/ccF2L4A0.s:162    .text.FLASH_DataCacheCmd:0000000000000018 $d
     /tmp/ccF2L4A0.s:167    .text.FLASH_InstructionCacheReset:0000000000000000 $t
     /tmp/ccF2L4A0.s:175    .text.FLASH_InstructionCacheReset:0000000000000000 FLASH_InstructionCacheReset
     /tmp/ccF2L4A0.s:192    .text.FLASH_InstructionCacheReset:000000000000000c $d
     /tmp/ccF2L4A0.s:197    .text.FLASH_DataCacheReset:0000000000000000 $t
     /tmp/ccF2L4A0.s:205    .text.FLASH_DataCacheReset:0000000000000000 FLASH_DataCacheReset
     /tmp/ccF2L4A0.s:222    .text.FLASH_DataCacheReset:000000000000000c $d
     /tmp/ccF2L4A0.s:227    .text.FLASH_Unlock:0000000000000000 $t
     /tmp/ccF2L4A0.s:235    .text.FLASH_Unlock:0000000000000000 FLASH_Unlock
     /tmp/ccF2L4A0.s:261    .text.FLASH_Unlock:0000000000000014 $d
     /tmp/ccF2L4A0.s:268    .text.FLASH_Lock:0000000000000000 $t
     /tmp/ccF2L4A0.s:276    .text.FLASH_Lock:0000000000000000 FLASH_Lock
     /tmp/ccF2L4A0.s:293    .text.FLASH_Lock:000000000000000c $d
     /tmp/ccF2L4A0.s:298    .text.FLASH_OB_Unlock:0000000000000000 $t
     /tmp/ccF2L4A0.s:306    .text.FLASH_OB_Unlock:0000000000000000 FLASH_OB_Unlock
     /tmp/ccF2L4A0.s:332    .text.FLASH_OB_Unlock:0000000000000014 $d
     /tmp/ccF2L4A0.s:339    .text.FLASH_OB_Lock:0000000000000000 $t
     /tmp/ccF2L4A0.s:347    .text.FLASH_OB_Lock:0000000000000000 FLASH_OB_Lock
     /tmp/ccF2L4A0.s:364    .text.FLASH_OB_Lock:000000000000000c $d
     /tmp/ccF2L4A0.s:369    .text.FLASH_OB_PCROPSelectionConfig:0000000000000000 $t
     /tmp/ccF2L4A0.s:377    .text.FLASH_OB_PCROPSelectionConfig:0000000000000000 FLASH_OB_PCROPSelectionConfig
     /tmp/ccF2L4A0.s:400    .text.FLASH_OB_PCROPSelectionConfig:0000000000000010 $d
     /tmp/ccF2L4A0.s:405    .text.FLASH_OB_BootConfig:0000000000000000 $t
     /tmp/ccF2L4A0.s:413    .text.FLASH_OB_BootConfig:0000000000000000 FLASH_OB_BootConfig
     /tmp/ccF2L4A0.s:436    .text.FLASH_OB_BootConfig:0000000000000014 $d
     /tmp/ccF2L4A0.s:441    .text.FLASH_OB_BORConfig:0000000000000000 $t
     /tmp/ccF2L4A0.s:449    .text.FLASH_OB_BORConfig:0000000000000000 FLASH_OB_BORConfig
     /tmp/ccF2L4A0.s:472    .text.FLASH_OB_BORConfig:0000000000000014 $d
     /tmp/ccF2L4A0.s:477    .text.FLASH_OB_GetUser:0000000000000000 $t
     /tmp/ccF2L4A0.s:485    .text.FLASH_OB_GetUser:0000000000000000 FLASH_OB_GetUser
     /tmp/ccF2L4A0.s:501    .text.FLASH_OB_GetUser:000000000000000c $d
     /tmp/ccF2L4A0.s:506    .text.FLASH_OB_GetWRP:0000000000000000 $t
     /tmp/ccF2L4A0.s:514    .text.FLASH_OB_GetWRP:0000000000000000 FLASH_OB_GetWRP
     /tmp/ccF2L4A0.s:529    .text.FLASH_OB_GetWRP:0000000000000008 $d
     /tmp/ccF2L4A0.s:534    .text.FLASH_OB_GetWRP1:0000000000000000 $t
     /tmp/ccF2L4A0.s:542    .text.FLASH_OB_GetWRP1:0000000000000000 FLASH_OB_GetWRP1
     /tmp/ccF2L4A0.s:557    .text.FLASH_OB_GetWRP1:0000000000000008 $d
     /tmp/ccF2L4A0.s:562    .text.FLASH_OB_GetPCROP:0000000000000000 $t
     /tmp/ccF2L4A0.s:570    .text.FLASH_OB_GetPCROP:0000000000000000 FLASH_OB_GetPCROP
     /tmp/ccF2L4A0.s:582    .text.FLASH_OB_GetPCROP:0000000000000008 $d
     /tmp/ccF2L4A0.s:587    .text.FLASH_OB_GetPCROP1:0000000000000000 $t
     /tmp/ccF2L4A0.s:595    .text.FLASH_OB_GetPCROP1:0000000000000000 FLASH_OB_GetPCROP1
     /tmp/ccF2L4A0.s:607    .text.FLASH_OB_GetPCROP1:0000000000000008 $d
     /tmp/ccF2L4A0.s:612    .text.FLASH_OB_GetRDP:0000000000000000 $t
ARM GAS  /tmp/ccF2L4A0.s 			page 91


     /tmp/ccF2L4A0.s:620    .text.FLASH_OB_GetRDP:0000000000000000 FLASH_OB_GetRDP
     /tmp/ccF2L4A0.s:641    .text.FLASH_OB_GetRDP:000000000000000c $d
     /tmp/ccF2L4A0.s:646    .text.FLASH_OB_GetBOR:0000000000000000 $t
     /tmp/ccF2L4A0.s:654    .text.FLASH_OB_GetBOR:0000000000000000 FLASH_OB_GetBOR
     /tmp/ccF2L4A0.s:670    .text.FLASH_OB_GetBOR:000000000000000c $d
     /tmp/ccF2L4A0.s:675    .text.FLASH_ITConfig:0000000000000000 $t
     /tmp/ccF2L4A0.s:683    .text.FLASH_ITConfig:0000000000000000 FLASH_ITConfig
     /tmp/ccF2L4A0.s:712    .text.FLASH_ITConfig:0000000000000014 $d
     /tmp/ccF2L4A0.s:717    .text.FLASH_GetFlagStatus:0000000000000000 $t
     /tmp/ccF2L4A0.s:725    .text.FLASH_GetFlagStatus:0000000000000000 FLASH_GetFlagStatus
     /tmp/ccF2L4A0.s:747    .text.FLASH_GetFlagStatus:0000000000000010 $d
     /tmp/ccF2L4A0.s:752    .text.FLASH_ClearFlag:0000000000000000 $t
     /tmp/ccF2L4A0.s:760    .text.FLASH_ClearFlag:0000000000000000 FLASH_ClearFlag
     /tmp/ccF2L4A0.s:776    .text.FLASH_ClearFlag:0000000000000008 $d
     /tmp/ccF2L4A0.s:781    .text.FLASH_GetStatus:0000000000000000 $t
     /tmp/ccF2L4A0.s:789    .text.FLASH_GetStatus:0000000000000000 FLASH_GetStatus
     /tmp/ccF2L4A0.s:848    .text.FLASH_GetStatus:000000000000003c $d
     /tmp/ccF2L4A0.s:853    .text.FLASH_WaitForLastOperation:0000000000000000 $t
     /tmp/ccF2L4A0.s:861    .text.FLASH_WaitForLastOperation:0000000000000000 FLASH_WaitForLastOperation
     /tmp/ccF2L4A0.s:895    .text.FLASH_EraseSector:0000000000000000 $t
     /tmp/ccF2L4A0.s:903    .text.FLASH_EraseSector:0000000000000000 FLASH_EraseSector
     /tmp/ccF2L4A0.s:996    .text.FLASH_EraseSector:0000000000000070 $d
     /tmp/ccF2L4A0.s:1001   .text.FLASH_EraseAllSectors:0000000000000000 $t
     /tmp/ccF2L4A0.s:1009   .text.FLASH_EraseAllSectors:0000000000000000 FLASH_EraseAllSectors
     /tmp/ccF2L4A0.s:1088   .text.FLASH_EraseAllSectors:0000000000000058 $d
     /tmp/ccF2L4A0.s:1093   .text.FLASH_EraseAllBank1Sectors:0000000000000000 $t
     /tmp/ccF2L4A0.s:1101   .text.FLASH_EraseAllBank1Sectors:0000000000000000 FLASH_EraseAllBank1Sectors
     /tmp/ccF2L4A0.s:1112   .text.FLASH_EraseAllBank2Sectors:0000000000000000 $t
     /tmp/ccF2L4A0.s:1120   .text.FLASH_EraseAllBank2Sectors:0000000000000000 FLASH_EraseAllBank2Sectors
     /tmp/ccF2L4A0.s:1200   .text.FLASH_EraseAllBank2Sectors:0000000000000058 $d
     /tmp/ccF2L4A0.s:1205   .text.FLASH_ProgramDoubleWord:0000000000000000 $t
     /tmp/ccF2L4A0.s:1213   .text.FLASH_ProgramDoubleWord:0000000000000000 FLASH_ProgramDoubleWord
     /tmp/ccF2L4A0.s:1270   .text.FLASH_ProgramDoubleWord:0000000000000040 $d
     /tmp/ccF2L4A0.s:1275   .text.FLASH_ProgramWord:0000000000000000 $t
     /tmp/ccF2L4A0.s:1283   .text.FLASH_ProgramWord:0000000000000000 FLASH_ProgramWord
     /tmp/ccF2L4A0.s:1337   .text.FLASH_ProgramWord:000000000000003c $d
     /tmp/ccF2L4A0.s:1342   .text.FLASH_ProgramHalfWord:0000000000000000 $t
     /tmp/ccF2L4A0.s:1350   .text.FLASH_ProgramHalfWord:0000000000000000 FLASH_ProgramHalfWord
     /tmp/ccF2L4A0.s:1404   .text.FLASH_ProgramHalfWord:000000000000003c $d
     /tmp/ccF2L4A0.s:1409   .text.FLASH_ProgramByte:0000000000000000 $t
     /tmp/ccF2L4A0.s:1417   .text.FLASH_ProgramByte:0000000000000000 FLASH_ProgramByte
     /tmp/ccF2L4A0.s:1470   .text.FLASH_ProgramByte:0000000000000038 $d
     /tmp/ccF2L4A0.s:1475   .text.FLASH_OB_WRPConfig:0000000000000000 $t
     /tmp/ccF2L4A0.s:1483   .text.FLASH_OB_WRPConfig:0000000000000000 FLASH_OB_WRPConfig
     /tmp/ccF2L4A0.s:1531   .text.FLASH_OB_WRPConfig:000000000000002c $d
     /tmp/ccF2L4A0.s:1536   .text.FLASH_OB_WRP1Config:0000000000000000 $t
     /tmp/ccF2L4A0.s:1544   .text.FLASH_OB_WRP1Config:0000000000000000 FLASH_OB_WRP1Config
     /tmp/ccF2L4A0.s:1592   .text.FLASH_OB_WRP1Config:000000000000002c $d
     /tmp/ccF2L4A0.s:1597   .text.FLASH_OB_PCROPConfig:0000000000000000 $t
     /tmp/ccF2L4A0.s:1605   .text.FLASH_OB_PCROPConfig:0000000000000000 FLASH_OB_PCROPConfig
     /tmp/ccF2L4A0.s:1653   .text.FLASH_OB_PCROPConfig:000000000000002c $d
     /tmp/ccF2L4A0.s:1658   .text.FLASH_OB_PCROP1Config:0000000000000000 $t
     /tmp/ccF2L4A0.s:1666   .text.FLASH_OB_PCROP1Config:0000000000000000 FLASH_OB_PCROP1Config
     /tmp/ccF2L4A0.s:1714   .text.FLASH_OB_PCROP1Config:000000000000002c $d
     /tmp/ccF2L4A0.s:1719   .text.FLASH_OB_RDPConfig:0000000000000000 $t
     /tmp/ccF2L4A0.s:1727   .text.FLASH_OB_RDPConfig:0000000000000000 FLASH_OB_RDPConfig
     /tmp/ccF2L4A0.s:1754   .text.FLASH_OB_RDPConfig:0000000000000014 $d
ARM GAS  /tmp/ccF2L4A0.s 			page 92


     /tmp/ccF2L4A0.s:1759   .text.FLASH_OB_UserConfig:0000000000000000 $t
     /tmp/ccF2L4A0.s:1767   .text.FLASH_OB_UserConfig:0000000000000000 FLASH_OB_UserConfig
     /tmp/ccF2L4A0.s:1809   .text.FLASH_OB_UserConfig:0000000000000024 $d
     /tmp/ccF2L4A0.s:1814   .text.FLASH_OB_Launch:0000000000000000 $t
     /tmp/ccF2L4A0.s:1822   .text.FLASH_OB_Launch:0000000000000000 FLASH_OB_Launch
     /tmp/ccF2L4A0.s:1841   .text.FLASH_OB_Launch:0000000000000010 $d

NO UNDEFINED SYMBOLS
