ARM GAS  /tmp/ccJYnsep.s 			page 1


   1              		.cpu cortex-m4
   2              		.eabi_attribute 27, 1
   3              		.eabi_attribute 28, 1
   4              		.eabi_attribute 20, 1
   5              		.eabi_attribute 21, 1
   6              		.eabi_attribute 23, 3
   7              		.eabi_attribute 24, 1
   8              		.eabi_attribute 25, 1
   9              		.eabi_attribute 26, 1
  10              		.eabi_attribute 30, 2
  11              		.eabi_attribute 34, 1
  12              		.eabi_attribute 18, 4
  13              		.file	"stm32f4.c"
  14              		.text
  15              	.Ltext0:
  16              		.cfi_sections	.debug_frame
  17              		.section	.text.stm32f4_flash_write,"ax",%progbits
  18              		.align	1
  19              		.p2align 4,,15
  20              		.syntax unified
  21              		.thumb
  22              		.thumb_func
  23              		.fpu fpv4-sp-d16
  24              		.type	stm32f4_flash_write, %function
  25              	stm32f4_flash_write:
  26              	.LFB270:
  27              		.file 1 "blackmagic/target/stm32f4.c"
  28              		.loc 1 427 0
  29              		.cfi_startproc
  30              		@ args = 0, pretend = 0, frame = 0
  31              		@ frame_needed = 0, uses_anonymous_args = 0
  32              	.LVL0:
  33 0000 2DE9F043 		push	{r4, r5, r6, r7, r8, r9, lr}
  34              		.cfi_def_cfa_offset 28
  35              		.cfi_offset 4, -28
  36              		.cfi_offset 5, -24
  37              		.cfi_offset 6, -20
  38              		.cfi_offset 7, -16
  39              		.cfi_offset 8, -12
  40              		.cfi_offset 9, -8
  41              		.cfi_offset 14, -4
  42              		.loc 1 434 0
  43 0004 90F83070 		ldrb	r7, [r0, #48]	@ zero_extendqisi2
  44              		.loc 1 432 0
  45 0008 8469     		ldr	r4, [r0, #24]
  46              		.loc 1 441 0
  47 000a 1E4E     		ldr	r6, .L11
  48              		.loc 1 427 0
  49 000c 0D46     		mov	r5, r1
  50              		.loc 1 429 0
  51 000e A1F50011 		sub	r1, r1, #2097152
  52              	.LVL1:
  53 0012 B1F1FC6F 		cmp	r1, #132120576
  54              		.loc 1 427 0
  55 0016 83B0     		sub	sp, sp, #12
  56              		.cfi_def_cfa_offset 40
  57              		.loc 1 427 0
ARM GAS  /tmp/ccJYnsep.s 			page 2


  58 0018 9046     		mov	r8, r2
  59              		.loc 1 436 0
  60 001a 4FEA0722 		lsl	r2, r7, #8
  61              	.LVL2:
  62              		.loc 1 427 0
  63 001e 9946     		mov	r9, r3
  64              		.loc 1 430 0
  65 0020 38BF     		it	cc
  66 0022 05F1FC65 		addcc	r5, r5, #132120576
  67              	.LVL3:
  68              		.loc 1 435 0
  69 0026 2046     		mov	r0, r4
  70              	.LVL4:
  71 0028 1749     		ldr	r1, .L11+4
  72 002a 42F00102 		orr	r2, r2, #1
  73 002e FFF7FEFF 		bl	target_mem_write32
  74              	.LVL5:
  75              		.loc 1 437 0
  76 0032 0097     		str	r7, [sp]
  77 0034 4B46     		mov	r3, r9
  78 0036 4246     		mov	r2, r8
  79 0038 2946     		mov	r1, r5
  80 003a 2046     		mov	r0, r4
  81 003c FFF7FEFF 		bl	cortexm_mem_write_sized
  82              	.LVL6:
  83 0040 04E0     		b	.L5
  84              	.LVL7:
  85              	.L3:
  86              		.loc 1 446 0
  87 0042 0120     		movs	r0, #1
  88 0044 FFF7FEFF 		bl	platform_delay
  89              	.LVL8:
  90              		.loc 1 447 0
  91 0048 EB03     		lsls	r3, r5, #15
  92 004a 11D5     		bpl	.L10
  93              	.LVL9:
  94              	.L5:
  95              		.loc 1 441 0
  96 004c 3146     		mov	r1, r6
  97 004e 2046     		mov	r0, r4
  98 0050 FFF7FEFF 		bl	target_mem_read32
  99              	.LVL10:
 100 0054 0546     		mov	r5, r0
 101              	.LVL11:
 102              		.loc 1 442 0
 103 0056 2046     		mov	r0, r4
 104              	.LVL12:
 105 0058 FFF7FEFF 		bl	target_check_error
 106              	.LVL13:
 107 005c 0028     		cmp	r0, #0
 108 005e F0D0     		beq	.L3
 109              		.loc 1 443 0
 110 0060 0A48     		ldr	r0, .L11+8
 111 0062 FFF7FEFF 		bl	commands_printf
 112              	.LVL14:
 113              		.loc 1 444 0
 114 0066 4FF0FF30 		mov	r0, #-1
ARM GAS  /tmp/ccJYnsep.s 			page 3


 115              	.L1:
 116              		.loc 1 454 0
 117 006a 03B0     		add	sp, sp, #12
 118              		.cfi_remember_state
 119              		.cfi_def_cfa_offset 28
 120              		@ sp needed
 121 006c BDE8F083 		pop	{r4, r5, r6, r7, r8, r9, pc}
 122              	.LVL15:
 123              	.L10:
 124              		.cfi_restore_state
 125              		.loc 1 449 0
 126 0070 15F0F200 		ands	r0, r5, #242
 127 0074 F9D0     		beq	.L1
 128              		.loc 1 450 0
 129 0076 0648     		ldr	r0, .L11+12
 130 0078 2946     		mov	r1, r5
 131 007a FFF7FEFF 		bl	commands_printf
 132              	.LVL16:
 133              		.loc 1 451 0
 134 007e 4FF0FF30 		mov	r0, #-1
 135 0082 F2E7     		b	.L1
 136              	.L12:
 137              		.align	2
 138              	.L11:
 139 0084 0C3C0240 		.word	1073888268
 140 0088 103C0240 		.word	1073888272
 141 008c 00000000 		.word	.LC0
 142 0090 24000000 		.word	.LC1
 143              		.cfi_endproc
 144              	.LFE270:
 145              		.size	stm32f4_flash_write, .-stm32f4_flash_write
 146              		.section	.text.stm32f7_detach,"ax",%progbits
 147              		.align	1
 148              		.p2align 4,,15
 149              		.syntax unified
 150              		.thumb
 151              		.thumb_func
 152              		.fpu fpv4-sp-d16
 153              		.type	stm32f7_detach, %function
 154              	stm32f7_detach:
 155              	.LFB265:
 156              		.loc 1 188 0
 157              		.cfi_startproc
 158              		@ args = 0, pretend = 0, frame = 0
 159              		@ frame_needed = 0, uses_anonymous_args = 0
 160              	.LVL17:
 161 0000 10B5     		push	{r4, lr}
 162              		.cfi_def_cfa_offset 8
 163              		.cfi_offset 4, -8
 164              		.cfi_offset 14, -4
 165              		.loc 1 189 0
 166 0002 426D     		ldr	r2, [r0, #84]
 167 0004 0449     		ldr	r1, .L15
 168              		.loc 1 188 0
 169 0006 0446     		mov	r4, r0
 170              		.loc 1 189 0
 171 0008 FFF7FEFF 		bl	target_mem_write32
ARM GAS  /tmp/ccJYnsep.s 			page 4


 172              	.LVL18:
 173              		.loc 1 190 0
 174 000c 2046     		mov	r0, r4
 175              		.loc 1 191 0
 176 000e BDE81040 		pop	{r4, lr}
 177              		.cfi_restore 14
 178              		.cfi_restore 4
 179              		.cfi_def_cfa_offset 0
 180              	.LVL19:
 181              		.loc 1 190 0
 182 0012 FFF7FEBF 		b	cortexm_detach
 183              	.LVL20:
 184              	.L16:
 185 0016 00BF     		.align	2
 186              	.L15:
 187 0018 042004E0 		.word	-536600572
 188              		.cfi_endproc
 189              	.LFE265:
 190              		.size	stm32f7_detach, .-stm32f7_detach
 191              		.section	.text.stm32f4_cmd_psize,"ax",%progbits
 192              		.align	1
 193              		.p2align 4,,15
 194              		.syntax unified
 195              		.thumb
 196              		.thumb_func
 197              		.fpu fpv4-sp-d16
 198              		.type	stm32f4_cmd_psize, %function
 199              	stm32f4_cmd_psize:
 200              	.LFB276:
 201              		.loc 1 699 0
 202              		.cfi_startproc
 203              		@ args = 0, pretend = 0, frame = 0
 204              		@ frame_needed = 0, uses_anonymous_args = 0
 205              	.LVL21:
 206              		.loc 1 700 0
 207 0000 0129     		cmp	r1, #1
 208              		.loc 1 699 0
 209 0002 38B5     		push	{r3, r4, r5, lr}
 210              		.cfi_def_cfa_offset 16
 211              		.cfi_offset 3, -16
 212              		.cfi_offset 4, -12
 213              		.cfi_offset 5, -8
 214              		.cfi_offset 14, -4
 215              		.loc 1 699 0
 216 0004 0446     		mov	r4, r0
 217              		.loc 1 700 0
 218 0006 23D0     		beq	.L41
 219              	.LVL22:
 220              	.LBB101:
 221              	.LBB102:
 222              	.LBB103:
 223              		.loc 1 713 0
 224 0008 5568     		ldr	r5, [r2, #4]
 225 000a 2649     		ldr	r1, .L44
 226              	.LVL23:
 227 000c 2846     		mov	r0, r5
 228              	.LVL24:
ARM GAS  /tmp/ccJYnsep.s 			page 5


 229 000e FFF7FEFF 		bl	strcmp
 230              	.LVL25:
 231 0012 60B9     		cbnz	r0, .L42
 232              	.L23:
 233              	.LVL26:
 234              	.LBB104:
 235              		.loc 1 725 0
 236 0014 E36D     		ldr	r3, [r4, #92]
 237              	.LVL27:
 238 0016 43B1     		cbz	r3, .L24
 239 0018 2349     		ldr	r1, .L44+4
 240              	.L26:
 241              		.loc 1 726 0
 242 001a 1A69     		ldr	r2, [r3, #16]
 243 001c 8A42     		cmp	r2, r1
 244              		.loc 1 727 0
 245 001e 08BF     		it	eq
 246 0020 83F83000 		strbeq	r0, [r3, #48]
 247              		.loc 1 725 0
 248 0024 5B6A     		ldr	r3, [r3, #36]
 249              	.LVL28:
 250 0026 002B     		cmp	r3, #0
 251 0028 F7D1     		bne	.L26
 252              	.L24:
 253              	.LBE104:
 254              	.LBE103:
 255              		.loc 1 731 0
 256 002a 0120     		movs	r0, #1
 257              	.LVL29:
 258              	.LBE102:
 259              	.LBE101:
 260              		.loc 1 732 0
 261 002c 38BD     		pop	{r3, r4, r5, pc}
 262              	.LVL30:
 263              	.L42:
 264              	.LBB113:
 265              	.LBB109:
 266              	.LBB105:
 267              		.loc 1 715 0
 268 002e 1F49     		ldr	r1, .L44+8
 269 0030 2846     		mov	r0, r5
 270 0032 FFF7FEFF 		bl	strcmp
 271              	.LVL31:
 272 0036 38B3     		cbz	r0, .L32
 273              		.loc 1 717 0
 274 0038 1D49     		ldr	r1, .L44+12
 275 003a 2846     		mov	r0, r5
 276 003c FFF7FEFF 		bl	strcmp
 277              	.LVL32:
 278 0040 30B3     		cbz	r0, .L33
 279              		.loc 1 719 0
 280 0042 2846     		mov	r0, r5
 281 0044 1B49     		ldr	r1, .L44+16
 282 0046 FFF7FEFF 		bl	strcmp
 283              	.LVL33:
 284 004a 28BB     		cbnz	r0, .L43
 285              		.loc 1 720 0
ARM GAS  /tmp/ccJYnsep.s 			page 6


 286 004c 0320     		movs	r0, #3
 287 004e E1E7     		b	.L23
 288              	.LVL34:
 289              	.L41:
 290              	.LBE105:
 291              	.LBE109:
 292              	.LBE113:
 293              	.LBB114:
 294              	.LBB115:
 295              		.loc 1 702 0
 296 0050 C36D     		ldr	r3, [r0, #92]
 297              	.LVL35:
 298 0052 FBB1     		cbz	r3, .L29
 299 0054 1449     		ldr	r1, .L44+4
 300              	.LVL36:
 301              	.LBE115:
 302              		.loc 1 701 0
 303 0056 0222     		movs	r2, #2
 304              	.LVL37:
 305              	.L21:
 306              	.LBB116:
 307              		.loc 1 703 0
 308 0058 1869     		ldr	r0, [r3, #16]
 309 005a 8842     		cmp	r0, r1
 310              		.loc 1 704 0
 311 005c 08BF     		it	eq
 312 005e 93F83020 		ldrbeq	r2, [r3, #48]	@ zero_extendqisi2
 313              	.LVL38:
 314              		.loc 1 702 0
 315 0062 5B6A     		ldr	r3, [r3, #36]
 316              	.LVL39:
 317 0064 002B     		cmp	r3, #0
 318 0066 F7D1     		bne	.L21
 319              	.LBE116:
 320              		.loc 1 707 0
 321 0068 032A     		cmp	r2, #3
 322 006a 0FD0     		beq	.L28
 323              		.loc 1 709 0
 324 006c 022A     		cmp	r2, #2
 325 006e 11D0     		beq	.L29
 326              		.loc 1 710 0
 327 0070 0E4B     		ldr	r3, .L44+8
 328              	.LVL40:
 329 0072 0C49     		ldr	r1, .L44
 330 0074 012A     		cmp	r2, #1
 331 0076 0CBF     		ite	eq
 332 0078 1A46     		moveq	r2, r3
 333 007a 0A46     		movne	r2, r1
 334              	.L19:
 335              		.loc 1 707 0 discriminator 3
 336 007c 2046     		mov	r0, r4
 337 007e 0E49     		ldr	r1, .L44+20
 338 0080 FFF7FEFF 		bl	tc_printf
 339              	.LVL41:
 340              	.LBE114:
 341              		.loc 1 731 0 discriminator 3
 342 0084 0120     		movs	r0, #1
ARM GAS  /tmp/ccJYnsep.s 			page 7


 343              		.loc 1 732 0 discriminator 3
 344 0086 38BD     		pop	{r3, r4, r5, pc}
 345              	.LVL42:
 346              	.L32:
 347              	.LBB117:
 348              	.LBB110:
 349              	.LBB106:
 350              		.loc 1 716 0
 351 0088 0120     		movs	r0, #1
 352 008a C3E7     		b	.L23
 353              	.LVL43:
 354              	.L28:
 355              	.LBE106:
 356              	.LBE110:
 357              	.LBE117:
 358              	.LBB118:
 359              		.loc 1 707 0
 360 008c 094A     		ldr	r2, .L44+16
 361 008e F5E7     		b	.L19
 362              	.LVL44:
 363              	.L33:
 364              	.LBE118:
 365              	.LBB119:
 366              	.LBB111:
 367              	.LBB107:
 368              		.loc 1 718 0
 369 0090 0220     		movs	r0, #2
 370 0092 BFE7     		b	.L23
 371              	.LVL45:
 372              	.L29:
 373              	.LBE107:
 374              	.LBE111:
 375              	.LBE119:
 376              	.LBB120:
 377              		.loc 1 709 0
 378 0094 064A     		ldr	r2, .L44+12
 379 0096 F1E7     		b	.L19
 380              	.LVL46:
 381              	.L43:
 382              	.LBE120:
 383              	.LBB121:
 384              	.LBB112:
 385              	.LBB108:
 386              		.loc 1 722 0
 387 0098 2046     		mov	r0, r4
 388 009a 0849     		ldr	r1, .L44+24
 389 009c FFF7FEFF 		bl	tc_printf
 390              	.LVL47:
 391              		.loc 1 723 0
 392 00a0 0020     		movs	r0, #0
 393              	.LBE108:
 394              	.LBE112:
 395              	.LBE121:
 396              		.loc 1 732 0
 397 00a2 38BD     		pop	{r3, r4, r5, pc}
 398              	.LVL48:
 399              	.L45:
ARM GAS  /tmp/ccJYnsep.s 			page 8


 400              		.align	2
 401              	.L44:
 402 00a4 08000000 		.word	.LC4
 403 00a8 00000000 		.word	stm32f4_flash_write
 404 00ac 0C000000 		.word	.LC5
 405 00b0 00000000 		.word	.LC2
 406 00b4 04000000 		.word	.LC3
 407 00b8 10000000 		.word	.LC6
 408 00bc 30000000 		.word	.LC7
 409              		.cfi_endproc
 410              	.LFE276:
 411              		.size	stm32f4_cmd_psize, .-stm32f4_cmd_psize
 412              		.section	.text.stm32f4_flash_unlock,"ax",%progbits
 413              		.align	1
 414              		.p2align 4,,15
 415              		.syntax unified
 416              		.thumb
 417              		.thumb_func
 418              		.fpu fpv4-sp-d16
 419              		.type	stm32f4_flash_unlock, %function
 420              	stm32f4_flash_unlock:
 421              	.LFB268:
 422              		.loc 1 370 0
 423              		.cfi_startproc
 424              		@ args = 0, pretend = 0, frame = 0
 425              		@ frame_needed = 0, uses_anonymous_args = 0
 426              	.LVL49:
 427 0000 10B5     		push	{r4, lr}
 428              		.cfi_def_cfa_offset 8
 429              		.cfi_offset 4, -8
 430              		.cfi_offset 14, -4
 431              		.loc 1 371 0
 432 0002 0949     		ldr	r1, .L50
 433              		.loc 1 370 0
 434 0004 0446     		mov	r4, r0
 435              		.loc 1 371 0
 436 0006 FFF7FEFF 		bl	target_mem_read32
 437              	.LVL50:
 438 000a 0028     		cmp	r0, #0
 439 000c 00DB     		blt	.L49
 440              		.loc 1 376 0
 441 000e 10BD     		pop	{r4, pc}
 442              	.LVL51:
 443              	.L49:
 444              	.LBB124:
 445              	.LBB125:
 446              		.loc 1 373 0
 447 0010 2046     		mov	r0, r4
 448 0012 064A     		ldr	r2, .L50+4
 449 0014 0649     		ldr	r1, .L50+8
 450 0016 FFF7FEFF 		bl	target_mem_write32
 451              	.LVL52:
 452              		.loc 1 374 0
 453 001a 2046     		mov	r0, r4
 454 001c 054A     		ldr	r2, .L50+12
 455 001e 0449     		ldr	r1, .L50+8
 456              	.LBE125:
ARM GAS  /tmp/ccJYnsep.s 			page 9


 457              	.LBE124:
 458              		.loc 1 376 0
 459 0020 BDE81040 		pop	{r4, lr}
 460              		.cfi_restore 14
 461              		.cfi_restore 4
 462              		.cfi_def_cfa_offset 0
 463              	.LVL53:
 464              	.LBB127:
 465              	.LBB126:
 466              		.loc 1 374 0
 467 0024 FFF7FEBF 		b	target_mem_write32
 468              	.LVL54:
 469              	.L51:
 470              		.align	2
 471              	.L50:
 472 0028 103C0240 		.word	1073888272
 473 002c 23016745 		.word	1164378403
 474 0030 043C0240 		.word	1073888260
 475 0034 AB89EFCD 		.word	-839939669
 476              	.LBE126:
 477              	.LBE127:
 478              		.cfi_endproc
 479              	.LFE268:
 480              		.size	stm32f4_flash_unlock, .-stm32f4_flash_unlock
 481              		.section	.text.stm32f4_flash_erase,"ax",%progbits
 482              		.align	1
 483              		.p2align 4,,15
 484              		.syntax unified
 485              		.thumb
 486              		.thumb_func
 487              		.fpu fpv4-sp-d16
 488              		.type	stm32f4_flash_erase, %function
 489              	stm32f4_flash_erase:
 490              	.LFB269:
 491              		.loc 1 380 0
 492              		.cfi_startproc
 493              		@ args = 0, pretend = 0, frame = 0
 494              		@ frame_needed = 0, uses_anonymous_args = 0
 495              	.LVL55:
 496 0000 2DE9F84F 		push	{r3, r4, r5, r6, r7, r8, r9, r10, fp, lr}
 497              		.cfi_def_cfa_offset 40
 498              		.cfi_offset 3, -40
 499              		.cfi_offset 4, -36
 500              		.cfi_offset 5, -32
 501              		.cfi_offset 6, -28
 502              		.cfi_offset 7, -24
 503              		.cfi_offset 8, -20
 504              		.cfi_offset 9, -16
 505              		.cfi_offset 10, -12
 506              		.cfi_offset 11, -8
 507              		.cfi_offset 14, -4
 508              		.loc 1 381 0
 509 0004 8469     		ldr	r4, [r0, #24]
 510              	.LVL56:
 511              		.loc 1 385 0
 512 0006 0368     		ldr	r3, [r0]
 513 0008 8568     		ldr	r5, [r0, #8]
ARM GAS  /tmp/ccJYnsep.s 			page 10


 514              		.loc 1 380 0
 515 000a 9046     		mov	r8, r2
 516              		.loc 1 385 0
 517 000c 90F83120 		ldrb	r2, [r0, #49]	@ zero_extendqisi2
 518              	.LVL57:
 519              		.loc 1 380 0
 520 0010 0746     		mov	r7, r0
 521              		.loc 1 386 0
 522 0012 2046     		mov	r0, r4
 523              	.LVL58:
 524              		.loc 1 385 0
 525 0014 C91A     		subs	r1, r1, r3
 526              	.LVL59:
 527 0016 B1FBF5F5 		udiv	r5, r1, r5
 528 001a 1544     		add	r5, r5, r2
 529              		.loc 1 386 0
 530 001c FFF7FEFF 		bl	stm32f4_flash_unlock
 531              	.LVL60:
 532              	.LBB128:
 533              		.loc 1 389 0
 534 0020 E36D     		ldr	r3, [r4, #92]
 535              	.LBE128:
 536              		.loc 1 385 0
 537 0022 EDB2     		uxtb	r5, r5
 538              	.LVL61:
 539              	.LBB129:
 540              		.loc 1 389 0
 541 0024 002B     		cmp	r3, #0
 542 0026 53D0     		beq	.L63
 543 0028 2B49     		ldr	r1, .L73
 544              	.LBE129:
 545              		.loc 1 388 0
 546 002a 0220     		movs	r0, #2
 547              	.LVL62:
 548              	.L55:
 549              	.LBB130:
 550              		.loc 1 390 0
 551 002c 1A69     		ldr	r2, [r3, #16]
 552 002e 8A42     		cmp	r2, r1
 553              		.loc 1 391 0
 554 0030 08BF     		it	eq
 555 0032 93F83000 		ldrbeq	r0, [r3, #48]	@ zero_extendqisi2
 556              	.LVL63:
 557              		.loc 1 389 0
 558 0036 5B6A     		ldr	r3, [r3, #36]
 559              	.LVL64:
 560 0038 002B     		cmp	r3, #0
 561 003a F7D1     		bne	.L55
 562 003c 274B     		ldr	r3, .L73+4
 563              	.LVL65:
 564 003e 43EA002B 		orr	fp, r3, r0, lsl #8
 565              	.L53:
 566 0042 BB68     		ldr	r3, [r7, #8]
 567              	.LBE130:
 568              	.LBB131:
 569              		.loc 1 398 0
 570 0044 DFF8A4A0 		ldr	r10, .L73+20
ARM GAS  /tmp/ccJYnsep.s 			page 11


 571              		.loc 1 403 0
 572 0048 254E     		ldr	r6, .L73+8
 573              	.L56:
 574              	.LBE131:
 575              		.loc 1 394 0
 576 004a 9845     		cmp	r8, r3
 577 004c 29D3     		bcc	.L71
 578              	.L62:
 579              	.LBB132:
 580              		.loc 1 396 0
 581 004e 4BEAC509 		orr	r9, fp, r5, lsl #3
 582              	.LVL66:
 583              		.loc 1 398 0
 584 0052 4A46     		mov	r2, r9
 585 0054 5146     		mov	r1, r10
 586 0056 2046     		mov	r0, r4
 587 0058 FFF7FEFF 		bl	target_mem_write32
 588              	.LVL67:
 589              		.loc 1 400 0
 590 005c 49F48032 		orr	r2, r9, #65536
 591 0060 5146     		mov	r1, r10
 592 0062 2046     		mov	r0, r4
 593 0064 FFF7FEFF 		bl	target_mem_write32
 594              	.LVL68:
 595              		.loc 1 403 0
 596 0068 05E0     		b	.L57
 597              	.LVL69:
 598              	.L60:
 599              		.loc 1 404 0
 600 006a FFF7FEFF 		bl	target_check_error
 601              	.LVL70:
 602 006e 40BB     		cbnz	r0, .L72
 603              		.loc 1 408 0
 604 0070 0120     		movs	r0, #1
 605 0072 FFF7FEFF 		bl	platform_delay
 606              	.LVL71:
 607              	.L57:
 608              		.loc 1 403 0
 609 0076 3146     		mov	r1, r6
 610 0078 2046     		mov	r0, r4
 611 007a FFF7FEFF 		bl	target_mem_read32
 612              	.LVL72:
 613 007e 10F4803F 		tst	r0, #65536
 614              		.loc 1 404 0
 615 0082 2046     		mov	r0, r4
 616              		.loc 1 403 0
 617 0084 F1D1     		bne	.L60
 618              	.LVL73:
 619              		.loc 1 410 0
 620 0086 BB68     		ldr	r3, [r7, #8]
 621              		.loc 1 412 0
 622 0088 97F83220 		ldrb	r2, [r7, #50]	@ zero_extendqisi2
 623              		.loc 1 411 0
 624 008c 0135     		adds	r5, r5, #1
 625              	.LVL74:
 626 008e EDB2     		uxtb	r5, r5
 627              		.loc 1 410 0
ARM GAS  /tmp/ccJYnsep.s 			page 12


 628 0090 A8EB0308 		sub	r8, r8, r3
 629              	.LVL75:
 630              		.loc 1 412 0
 631 0094 002A     		cmp	r2, #0
 632 0096 D8D0     		beq	.L56
 633              		.loc 1 413 0 discriminator 1
 634 0098 AA42     		cmp	r2, r5
 635 009a 08BF     		it	eq
 636 009c 1025     		moveq	r5, #16
 637              	.LVL76:
 638              	.LBE132:
 639              		.loc 1 394 0 discriminator 1
 640 009e 9845     		cmp	r8, r3
 641 00a0 D5D2     		bcs	.L62
 642              	.LVL77:
 643              	.L71:
 644              		.loc 1 417 0
 645 00a2 2046     		mov	r0, r4
 646 00a4 0E49     		ldr	r1, .L73+8
 647 00a6 FFF7FEFF 		bl	target_mem_read32
 648              	.LVL78:
 649              		.loc 1 418 0
 650 00aa 10F0F203 		ands	r3, r0, #242
 651              		.loc 1 422 0
 652 00ae 08BF     		it	eq
 653 00b0 1846     		moveq	r0, r3
 654              	.LVL79:
 655              		.loc 1 418 0
 656 00b2 0BD0     		beq	.L52
 657              		.loc 1 419 0
 658 00b4 0146     		mov	r1, r0
 659 00b6 0B48     		ldr	r0, .L73+12
 660 00b8 FFF7FEFF 		bl	commands_printf
 661              	.LVL80:
 662              		.loc 1 420 0
 663 00bc 4FF0FF30 		mov	r0, #-1
 664 00c0 04E0     		b	.L52
 665              	.LVL81:
 666              	.L72:
 667              	.LBB133:
 668              		.loc 1 405 0
 669 00c2 0948     		ldr	r0, .L73+16
 670 00c4 FFF7FEFF 		bl	commands_printf
 671              	.LVL82:
 672              		.loc 1 406 0
 673 00c8 4FF0FF30 		mov	r0, #-1
 674              	.LVL83:
 675              	.L52:
 676              	.LBE133:
 677              		.loc 1 423 0
 678 00cc BDE8F88F 		pop	{r3, r4, r5, r6, r7, r8, r9, r10, fp, pc}
 679              	.LVL84:
 680              	.L63:
 681              	.LBB134:
 682              		.loc 1 389 0
 683 00d0 DFF81CB0 		ldr	fp, .L73+24
 684 00d4 B5E7     		b	.L53
ARM GAS  /tmp/ccJYnsep.s 			page 13


 685              	.L74:
 686 00d6 00BF     		.align	2
 687              	.L73:
 688 00d8 00000000 		.word	stm32f4_flash_write
 689 00dc 02000003 		.word	50331650
 690 00e0 0C3C0240 		.word	1073888268
 691 00e4 24000000 		.word	.LC9
 692 00e8 00000000 		.word	.LC8
 693 00ec 103C0240 		.word	1073888272
 694 00f0 02020003 		.word	50332162
 695              	.LBE134:
 696              		.cfi_endproc
 697              	.LFE269:
 698              		.size	stm32f4_flash_erase, .-stm32f4_flash_erase
 699              		.section	.text.stm32f4_option_write,"ax",%progbits
 700              		.align	1
 701              		.p2align 4,,15
 702              		.syntax unified
 703              		.thumb
 704              		.thumb_func
 705              		.fpu fpv4-sp-d16
 706              		.type	stm32f4_option_write, %function
 707              	stm32f4_option_write:
 708              	.LFB273:
 709              		.loc 1 567 0
 710              		.cfi_startproc
 711              		@ args = 0, pretend = 0, frame = 0
 712              		@ frame_needed = 0, uses_anonymous_args = 0
 713              	.LVL85:
 714 0000 F8B5     		push	{r3, r4, r5, r6, r7, lr}
 715              		.cfi_def_cfa_offset 24
 716              		.cfi_offset 3, -24
 717              		.cfi_offset 4, -20
 718              		.cfi_offset 5, -16
 719              		.cfi_offset 6, -12
 720              		.cfi_offset 7, -8
 721              		.cfi_offset 14, -4
 722              		.loc 1 567 0
 723 0002 0446     		mov	r4, r0
 724 0004 0E46     		mov	r6, r1
 725 0006 1746     		mov	r7, r2
 726              		.loc 1 568 0
 727 0008 2C49     		ldr	r1, .L93
 728              	.LVL86:
 729 000a 2D4A     		ldr	r2, .L93+4
 730              	.LVL87:
 731              		.loc 1 570 0
 732 000c 2D4D     		ldr	r5, .L93+8
 733              		.loc 1 568 0
 734 000e FFF7FEFF 		bl	target_mem_write32
 735              	.LVL88:
 736              		.loc 1 569 0
 737 0012 2046     		mov	r0, r4
 738 0014 2C4A     		ldr	r2, .L93+12
 739 0016 2949     		ldr	r1, .L93
 740 0018 FFF7FEFF 		bl	target_mem_write32
 741              	.LVL89:
ARM GAS  /tmp/ccJYnsep.s 			page 14


 742              		.loc 1 570 0
 743 001c 02E0     		b	.L76
 744              	.LVL90:
 745              	.L78:
 746              		.loc 1 571 0
 747 001e FFF7FEFF 		bl	target_check_error
 748              	.LVL91:
 749 0022 A8BB     		cbnz	r0, .L77
 750              	.L76:
 751              		.loc 1 570 0
 752 0024 2946     		mov	r1, r5
 753 0026 2046     		mov	r0, r4
 754 0028 FFF7FEFF 		bl	target_mem_read32
 755              	.LVL92:
 756 002c 10F4803F 		tst	r0, #65536
 757              		.loc 1 571 0
 758 0030 2046     		mov	r0, r4
 759              		.loc 1 570 0
 760 0032 F4D1     		bne	.L78
 761              	.LVL93:
 762              	.LBB137:
 763              	.LBB138:
 764              		.loc 1 575 0
 765 0034 236D     		ldr	r3, [r4, #80]
 766 0036 40F21942 		movw	r2, #1049
 767 003a 9342     		cmp	r3, r2
 768 003c 08D0     		beq	.L79
 769 003e A3F23443 		subw	r3, r3, #1076
 770 0042 1E2B     		cmp	r3, #30
 771 0044 06D8     		bhi	.L81
 772 0046 214A     		ldr	r2, .L93+16
 773 0048 22FA03F3 		lsr	r3, r2, r3
 774 004c DB07     		lsls	r3, r3, #31
 775 004e 01D5     		bpl	.L81
 776              	.L79:
 777              		.loc 1 577 0
 778 0050 012F     		cmp	r7, #1
 779 0052 20D1     		bne	.L92
 780              	.LVL94:
 781              	.L81:
 782              		.loc 1 583 0
 783 0054 3268     		ldr	r2, [r6]
 784 0056 1E49     		ldr	r1, .L93+20
 785              		.loc 1 586 0
 786 0058 1A4D     		ldr	r5, .L93+8
 787              		.loc 1 583 0
 788 005a 2046     		mov	r0, r4
 789 005c FFF7FEFF 		bl	target_mem_write32
 790              	.LVL95:
 791              		.loc 1 584 0
 792 0060 3268     		ldr	r2, [r6]
 793 0062 1B49     		ldr	r1, .L93+20
 794 0064 42F00202 		orr	r2, r2, #2
 795 0068 2046     		mov	r0, r4
 796 006a FFF7FEFF 		bl	target_mem_write32
 797              	.LVL96:
 798 006e 02E0     		b	.L82
ARM GAS  /tmp/ccJYnsep.s 			page 15


 799              	.LVL97:
 800              	.L83:
 801              		.loc 1 587 0
 802 0070 FFF7FEFF 		bl	target_check_error
 803              	.LVL98:
 804 0074 68B9     		cbnz	r0, .L84
 805              	.L82:
 806              		.loc 1 586 0
 807 0076 2946     		mov	r1, r5
 808 0078 2046     		mov	r0, r4
 809 007a FFF7FEFF 		bl	target_mem_read32
 810              	.LVL99:
 811 007e 10F4803F 		tst	r0, #65536
 812              		.loc 1 587 0
 813 0082 2046     		mov	r0, r4
 814              		.loc 1 586 0
 815 0084 F4D1     		bne	.L83
 816              	.LVL100:
 817              		.loc 1 589 0
 818 0086 0122     		movs	r2, #1
 819 0088 1149     		ldr	r1, .L93+20
 820 008a FFF7FEFF 		bl	target_mem_write32
 821              	.LVL101:
 822              		.loc 1 590 0
 823 008e 0120     		movs	r0, #1
 824              	.LVL102:
 825              	.L77:
 826              	.LBE138:
 827              	.LBE137:
 828              		.loc 1 591 0
 829 0090 F8BD     		pop	{r3, r4, r5, r6, r7, pc}
 830              	.LVL103:
 831              	.L84:
 832              	.LBB141:
 833              	.LBB139:
 834              		.loc 1 588 0
 835 0092 0020     		movs	r0, #0
 836              	.LBE139:
 837              	.LBE141:
 838              		.loc 1 591 0
 839 0094 F8BD     		pop	{r3, r4, r5, r6, r7, pc}
 840              	.LVL104:
 841              	.L92:
 842              	.LBB142:
 843              	.LBB140:
 844              		.loc 1 579 0
 845 0096 7268     		ldr	r2, [r6, #4]
 846 0098 0E49     		ldr	r1, .L93+24
 847 009a 2046     		mov	r0, r4
 848              	.LVL105:
 849 009c FFF7FEFF 		bl	target_mem_write32
 850              	.LVL106:
 851              		.loc 1 580 0
 852 00a0 226D     		ldr	r2, [r4, #80]
 853 00a2 40F25243 		movw	r3, #1106
 854 00a6 9A42     		cmp	r2, r3
 855 00a8 D4D1     		bne	.L81
ARM GAS  /tmp/ccJYnsep.s 			page 16


 856 00aa 032F     		cmp	r7, #3
 857 00ac D2D1     		bne	.L81
 858              		.loc 1 581 0
 859 00ae B268     		ldr	r2, [r6, #8]
 860 00b0 0949     		ldr	r1, .L93+28
 861 00b2 2046     		mov	r0, r4
 862 00b4 FFF7FEFF 		bl	target_mem_write32
 863              	.LVL107:
 864 00b8 CCE7     		b	.L81
 865              	.L94:
 866 00ba 00BF     		.align	2
 867              	.L93:
 868 00bc 083C0240 		.word	1073888264
 869 00c0 3B2A1908 		.word	135866939
 870 00c4 0C3C0240 		.word	1073888268
 871 00c8 7F6E5D4C 		.word	1281191551
 872 00cc 01002060 		.word	1612709889
 873 00d0 143C0240 		.word	1073888276
 874 00d4 183C0240 		.word	1073888280
 875 00d8 1C3C0240 		.word	1073888284
 876              	.LBE140:
 877              	.LBE142:
 878              		.cfi_endproc
 879              	.LFE273:
 880              		.size	stm32f4_option_write, .-stm32f4_option_write
 881              		.section	.text.stm32f4_cmd_erase_mass,"ax",%progbits
 882              		.align	1
 883              		.p2align 4,,15
 884              		.syntax unified
 885              		.thumb
 886              		.thumb_func
 887              		.fpu fpv4-sp-d16
 888              		.type	stm32f4_cmd_erase_mass, %function
 889              	stm32f4_cmd_erase_mass:
 890              	.LFB271:
 891              		.loc 1 457 0
 892              		.cfi_startproc
 893              		@ args = 0, pretend = 0, frame = 0
 894              		@ frame_needed = 0, uses_anonymous_args = 0
 895              	.LVL108:
 896 0000 38B5     		push	{r3, r4, r5, lr}
 897              		.cfi_def_cfa_offset 16
 898              		.cfi_offset 3, -16
 899              		.cfi_offset 4, -12
 900              		.cfi_offset 5, -8
 901              		.cfi_offset 14, -4
 902              		.loc 1 463 0
 903 0002 2549     		ldr	r1, .L109
 904              		.loc 1 460 0
 905 0004 C56D     		ldr	r5, [r0, #92]
 906              	.LVL109:
 907              		.loc 1 457 0
 908 0006 0446     		mov	r4, r0
 909              		.loc 1 463 0
 910 0008 FFF7FEFF 		bl	tc_printf
 911              	.LVL110:
 912              		.loc 1 465 0
ARM GAS  /tmp/ccJYnsep.s 			page 17


 913 000c 2046     		mov	r0, r4
 914 000e FFF7FEFF 		bl	stm32f4_flash_unlock
 915              	.LVL111:
 916              		.loc 1 469 0
 917 0012 95F83200 		ldrb	r0, [r5, #50]	@ zero_extendqisi2
 918 0016 214B     		ldr	r3, .L109+4
 919 0018 2149     		ldr	r1, .L109+8
 920 001a 224D     		ldr	r5, .L109+12
 921              	.LVL112:
 922 001c 224A     		ldr	r2, .L109+16
 923 001e 0028     		cmp	r0, #0
 924              	.LVL113:
 925 0020 04BF     		itt	eq
 926 0022 0D46     		moveq	r5, r1
 927              		.loc 1 471 0
 928 0024 1A46     		moveq	r2, r3
 929              	.LVL114:
 930 0026 2046     		mov	r0, r4
 931 0028 2049     		ldr	r1, .L109+20
 932 002a FFF7FEFF 		bl	target_mem_write32
 933              	.LVL115:
 934              		.loc 1 472 0
 935 002e 2A46     		mov	r2, r5
 936 0030 2046     		mov	r0, r4
 937 0032 1E49     		ldr	r1, .L109+20
 938 0034 FFF7FEFF 		bl	target_mem_write32
 939              	.LVL116:
 940              		.loc 1 475 0
 941 0038 05E0     		b	.L97
 942              	.L99:
 943              		.loc 1 476 0
 944 003a FFF7FEFF 		bl	platform_delay
 945              	.LVL117:
 946              		.loc 1 478 0
 947 003e 2046     		mov	r0, r4
 948 0040 FFF7FEFF 		bl	target_check_error
 949              	.LVL118:
 950 0044 A0B9     		cbnz	r0, .L106
 951              	.L97:
 952              		.loc 1 475 0
 953 0046 1A49     		ldr	r1, .L109+24
 954 0048 2046     		mov	r0, r4
 955 004a FFF7FEFF 		bl	target_mem_read32
 956              	.LVL119:
 957 004e 10F48035 		ands	r5, r0, #65536
 958              		.loc 1 476 0
 959 0052 4FF00100 		mov	r0, #1
 960              		.loc 1 475 0
 961 0056 F0D1     		bne	.L99
 962              	.LVL120:
 963              	.LBB145:
 964              	.LBB146:
 965              		.loc 1 487 0
 966 0058 1549     		ldr	r1, .L109+24
 967 005a 2046     		mov	r0, r4
 968 005c FFF7FEFF 		bl	target_mem_read32
 969              	.LVL121:
ARM GAS  /tmp/ccJYnsep.s 			page 18


 970              		.loc 1 488 0
 971 0060 10F0F20F 		tst	r0, #242
 972 0064 0AD1     		bne	.L107
 973              		.loc 1 493 0
 974 0066 10F00105 		ands	r5, r0, #1
 975 006a 0ED0     		beq	.L108
 976              		.loc 1 498 0
 977 006c 0120     		movs	r0, #1
 978              	.LVL122:
 979              	.LBE146:
 980              	.LBE145:
 981              		.loc 1 499 0
 982 006e 38BD     		pop	{r3, r4, r5, pc}
 983              	.LVL123:
 984              	.L106:
 985              		.loc 1 480 0
 986 0070 2046     		mov	r0, r4
 987 0072 1049     		ldr	r1, .L109+28
 988 0074 FFF7FEFF 		bl	tc_printf
 989              	.LVL124:
 990              		.loc 1 481 0
 991 0078 0020     		movs	r0, #0
 992              		.loc 1 499 0
 993 007a 38BD     		pop	{r3, r4, r5, pc}
 994              	.LVL125:
 995              	.L107:
 996              	.LBB149:
 997              	.LBB147:
 998              		.loc 1 489 0
 999 007c 0246     		mov	r2, r0
 1000 007e 0E49     		ldr	r1, .L109+32
 1001 0080 2046     		mov	r0, r4
 1002              	.LVL126:
 1003 0082 FFF7FEFF 		bl	tc_printf
 1004              	.LVL127:
 1005              		.loc 1 490 0
 1006 0086 2846     		mov	r0, r5
 1007              	.LBE147:
 1008              	.LBE149:
 1009              		.loc 1 499 0
 1010 0088 38BD     		pop	{r3, r4, r5, pc}
 1011              	.LVL128:
 1012              	.L108:
 1013              	.LBB150:
 1014              	.LBB148:
 1015              		.loc 1 494 0
 1016 008a 0246     		mov	r2, r0
 1017 008c 0B49     		ldr	r1, .L109+36
 1018 008e 2046     		mov	r0, r4
 1019              	.LVL129:
 1020 0090 FFF7FEFF 		bl	tc_printf
 1021              	.LVL130:
 1022              		.loc 1 495 0
 1023 0094 2846     		mov	r0, r5
 1024              	.LBE148:
 1025              	.LBE150:
 1026              		.loc 1 499 0
ARM GAS  /tmp/ccJYnsep.s 			page 19


 1027 0096 38BD     		pop	{r3, r4, r5, pc}
 1028              	.LVL131:
 1029              	.L110:
 1030              		.align	2
 1031              	.L109:
 1032 0098 00000000 		.word	.LC10
 1033 009c 04000001 		.word	16777220
 1034 00a0 04000101 		.word	16842756
 1035 00a4 04800101 		.word	16875524
 1036 00a8 04800001 		.word	16809988
 1037 00ac 103C0240 		.word	1073888272
 1038 00b0 0C3C0240 		.word	1073888268
 1039 00b4 30000000 		.word	.LC11
 1040 00b8 40000000 		.word	.LC12
 1041 00bc 54000000 		.word	.LC13
 1042              		.cfi_endproc
 1043              	.LFE271:
 1044              		.size	stm32f4_cmd_erase_mass, .-stm32f4_cmd_erase_mass
 1045              		.section	.text.stm32f4_add_flash.part.4,"ax",%progbits
 1046              		.align	1
 1047              		.p2align 4,,15
 1048              		.syntax unified
 1049              		.thumb
 1050              		.thumb_func
 1051              		.fpu fpv4-sp-d16
 1052              		.type	stm32f4_add_flash.part.4, %function
 1053              	stm32f4_add_flash.part.4:
 1054              	.LFB281:
 1055              		.loc 1 133 0
 1056              		.cfi_startproc
 1057              		@ args = 8, pretend = 0, frame = 0
 1058              		@ frame_needed = 0, uses_anonymous_args = 0
 1059              	.LVL132:
 1060 0000 2DE9F84F 		push	{r3, r4, r5, r6, r7, r8, r9, r10, fp, lr}
 1061              		.cfi_def_cfa_offset 40
 1062              		.cfi_offset 3, -40
 1063              		.cfi_offset 4, -36
 1064              		.cfi_offset 5, -32
 1065              		.cfi_offset 6, -28
 1066              		.cfi_offset 7, -24
 1067              		.cfi_offset 8, -20
 1068              		.cfi_offset 9, -16
 1069              		.cfi_offset 10, -12
 1070              		.cfi_offset 11, -8
 1071              		.cfi_offset 14, -4
 1072              		.loc 1 133 0
 1073 0004 0546     		mov	r5, r0
 1074 0006 8B46     		mov	fp, r1
 1075              		.loc 1 138 0
 1076 0008 0120     		movs	r0, #1
 1077              	.LVL133:
 1078 000a 3421     		movs	r1, #52
 1079              	.LVL134:
 1080              		.loc 1 133 0
 1081 000c 9246     		mov	r10, r2
 1082 000e 9946     		mov	r9, r3
 1083 0010 DDE90A87 		ldrd	r8, r7, [sp, #40]
ARM GAS  /tmp/ccJYnsep.s 			page 20


 1084              		.loc 1 138 0
 1085 0014 FFF7FEFF 		bl	calloc
 1086              	.LVL135:
 1087              		.loc 1 144 0
 1088 0018 0E4E     		ldr	r6, .L113
 1089              		.loc 1 143 0
 1090 001a DFF83CC0 		ldr	ip, .L113+4
 1091              		.loc 1 140 0
 1092 001e C0F800B0 		str	fp, [r0]
 1093              		.loc 1 138 0
 1094 0022 0446     		mov	r4, r0
 1095              	.LVL136:
 1096              		.loc 1 149 0
 1097 0024 0223     		movs	r3, #2
 1098              		.loc 1 150 0
 1099 0026 2846     		mov	r0, r5
 1100              	.LVL137:
 1101              		.loc 1 146 0
 1102 0028 FF22     		movs	r2, #255
 1103              		.loc 1 145 0
 1104 002a 4FF48065 		mov	r5, #1024
 1105              	.LVL138:
 1106              		.loc 1 141 0
 1107 002e C4F804A0 		str	r10, [r4, #4]
 1108              		.loc 1 142 0
 1109 0032 C4F80890 		str	r9, [r4, #8]
 1110              		.loc 1 147 0
 1111 0036 84F83180 		strb	r8, [r4, #49]
 1112              		.loc 1 150 0
 1113 003a 2146     		mov	r1, r4
 1114              		.loc 1 148 0
 1115 003c 84F83270 		strb	r7, [r4, #50]
 1116              		.loc 1 144 0
 1117 0040 C4E903C6 		strd	ip, r6, [r4, #12]
 1118              		.loc 1 145 0
 1119 0044 2562     		str	r5, [r4, #32]
 1120              		.loc 1 146 0
 1121 0046 2277     		strb	r2, [r4, #28]
 1122              		.loc 1 149 0
 1123 0048 84F83030 		strb	r3, [r4, #48]
 1124              		.loc 1 151 0
 1125 004c BDE8F84F 		pop	{r3, r4, r5, r6, r7, r8, r9, r10, fp, lr}
 1126              		.cfi_restore 14
 1127              		.cfi_restore 11
 1128              		.cfi_restore 10
 1129              		.cfi_restore 9
 1130              		.cfi_restore 8
 1131              		.cfi_restore 7
 1132              		.cfi_restore 6
 1133              		.cfi_restore 5
 1134              		.cfi_restore 4
 1135              		.cfi_restore 3
 1136              		.cfi_def_cfa_offset 0
 1137              	.LVL139:
 1138              		.loc 1 150 0
 1139 0050 FFF7FEBF 		b	target_add_flash
 1140              	.LVL140:
ARM GAS  /tmp/ccJYnsep.s 			page 21


 1141              	.L114:
 1142              		.align	2
 1143              	.L113:
 1144 0054 00000000 		.word	stm32f4_flash_write
 1145 0058 00000000 		.word	stm32f4_flash_erase
 1146              		.cfi_endproc
 1147              	.LFE281:
 1148              		.size	stm32f4_add_flash.part.4, .-stm32f4_add_flash.part.4
 1149              		.section	.text.stm32f4_attach,"ax",%progbits
 1150              		.align	1
 1151              		.p2align 4,,15
 1152              		.syntax unified
 1153              		.thumb
 1154              		.thumb_func
 1155              		.fpu fpv4-sp-d16
 1156              		.type	stm32f4_attach, %function
 1157              	stm32f4_attach:
 1158              	.LFB267:
 1159              		.loc 1 237 0
 1160              		.cfi_startproc
 1161              		@ args = 0, pretend = 0, frame = 0
 1162              		@ frame_needed = 0, uses_anonymous_args = 0
 1163              	.LVL141:
 1164 0000 2DE9F04F 		push	{r4, r5, r6, r7, r8, r9, r10, fp, lr}
 1165              		.cfi_def_cfa_offset 36
 1166              		.cfi_offset 4, -36
 1167              		.cfi_offset 5, -32
 1168              		.cfi_offset 6, -28
 1169              		.cfi_offset 7, -24
 1170              		.cfi_offset 8, -20
 1171              		.cfi_offset 9, -16
 1172              		.cfi_offset 10, -12
 1173              		.cfi_offset 11, -8
 1174              		.cfi_offset 14, -4
 1175 0004 83B0     		sub	sp, sp, #12
 1176              		.cfi_def_cfa_offset 48
 1177              		.loc 1 237 0
 1178 0006 0446     		mov	r4, r0
 1179              		.loc 1 244 0
 1180 0008 FFF7FEFF 		bl	cortexm_attach
 1181              	.LVL142:
 1182 000c 0546     		mov	r5, r0
 1183 000e 0028     		cmp	r0, #0
 1184 0010 00F0CD80 		beq	.L153
 1185              	.LVL143:
 1186              	.LBB195:
 1187              	.LBB196:
 1188              		.loc 1 247 0
 1189 0014 236D     		ldr	r3, [r4, #80]
 1190 0016 6FF48262 		mvn	r2, #1040
 1191 001a 1344     		add	r3, r3, r2
 1192 001c 522B     		cmp	r3, #82
 1193 001e 00F28782 		bhi	.L149
 1194 0022 DFE813F0 		tbh	[pc, r3, lsl #1]
 1195              	.L118:
 1196 0026 3102     		.2byte	(.L117-.L118)/2
 1197 0028 8502     		.2byte	(.L149-.L118)/2
ARM GAS  /tmp/ccJYnsep.s 			page 22


 1198 002a C800     		.2byte	(.L119-.L118)/2
 1199 002c 8502     		.2byte	(.L149-.L118)/2
 1200 002e 8502     		.2byte	(.L149-.L118)/2
 1201 0030 8502     		.2byte	(.L149-.L118)/2
 1202 0032 8502     		.2byte	(.L149-.L118)/2
 1203 0034 8502     		.2byte	(.L149-.L118)/2
 1204 0036 5300     		.2byte	(.L120-.L118)/2
 1205 0038 8502     		.2byte	(.L149-.L118)/2
 1206 003a 8502     		.2byte	(.L149-.L118)/2
 1207 003c 8502     		.2byte	(.L149-.L118)/2
 1208 003e 8502     		.2byte	(.L149-.L118)/2
 1209 0040 8502     		.2byte	(.L149-.L118)/2
 1210 0042 8502     		.2byte	(.L149-.L118)/2
 1211 0044 8502     		.2byte	(.L149-.L118)/2
 1212 0046 3102     		.2byte	(.L117-.L118)/2
 1213 0048 8502     		.2byte	(.L149-.L118)/2
 1214 004a 3102     		.2byte	(.L117-.L118)/2
 1215 004c 8502     		.2byte	(.L149-.L118)/2
 1216 004e 8502     		.2byte	(.L149-.L118)/2
 1217 0050 8502     		.2byte	(.L149-.L118)/2
 1218 0052 8502     		.2byte	(.L149-.L118)/2
 1219 0054 8502     		.2byte	(.L149-.L118)/2
 1220 0056 8502     		.2byte	(.L149-.L118)/2
 1221 0058 8502     		.2byte	(.L149-.L118)/2
 1222 005a 8502     		.2byte	(.L149-.L118)/2
 1223 005c 8502     		.2byte	(.L149-.L118)/2
 1224 005e 8502     		.2byte	(.L149-.L118)/2
 1225 0060 8502     		.2byte	(.L149-.L118)/2
 1226 0062 8502     		.2byte	(.L149-.L118)/2
 1227 0064 8502     		.2byte	(.L149-.L118)/2
 1228 0066 3102     		.2byte	(.L117-.L118)/2
 1229 0068 8502     		.2byte	(.L149-.L118)/2
 1230 006a 3102     		.2byte	(.L117-.L118)/2
 1231 006c 5300     		.2byte	(.L120-.L118)/2
 1232 006e 8502     		.2byte	(.L149-.L118)/2
 1233 0070 8502     		.2byte	(.L149-.L118)/2
 1234 0072 8502     		.2byte	(.L149-.L118)/2
 1235 0074 8502     		.2byte	(.L149-.L118)/2
 1236 0076 8502     		.2byte	(.L149-.L118)/2
 1237 0078 8502     		.2byte	(.L149-.L118)/2
 1238 007a 8502     		.2byte	(.L149-.L118)/2
 1239 007c 8502     		.2byte	(.L149-.L118)/2
 1240 007e 8502     		.2byte	(.L149-.L118)/2
 1241 0080 8502     		.2byte	(.L149-.L118)/2
 1242 0082 8502     		.2byte	(.L149-.L118)/2
 1243 0084 8502     		.2byte	(.L149-.L118)/2
 1244 0086 3102     		.2byte	(.L117-.L118)/2
 1245 0088 8502     		.2byte	(.L149-.L118)/2
 1246 008a 8502     		.2byte	(.L149-.L118)/2
 1247 008c 8502     		.2byte	(.L149-.L118)/2
 1248 008e 8502     		.2byte	(.L149-.L118)/2
 1249 0090 8502     		.2byte	(.L149-.L118)/2
 1250 0092 8502     		.2byte	(.L149-.L118)/2
 1251 0094 8502     		.2byte	(.L149-.L118)/2
 1252 0096 FD00     		.2byte	(.L121-.L118)/2
 1253 0098 8502     		.2byte	(.L149-.L118)/2
 1254 009a 8502     		.2byte	(.L149-.L118)/2
ARM GAS  /tmp/ccJYnsep.s 			page 23


 1255 009c 8502     		.2byte	(.L149-.L118)/2
 1256 009e 8502     		.2byte	(.L149-.L118)/2
 1257 00a0 8502     		.2byte	(.L149-.L118)/2
 1258 00a2 8502     		.2byte	(.L149-.L118)/2
 1259 00a4 8502     		.2byte	(.L149-.L118)/2
 1260 00a6 5C01     		.2byte	(.L122-.L118)/2
 1261 00a8 9301     		.2byte	(.L123-.L118)/2
 1262 00aa 8502     		.2byte	(.L149-.L118)/2
 1263 00ac 8502     		.2byte	(.L149-.L118)/2
 1264 00ae 8502     		.2byte	(.L149-.L118)/2
 1265 00b0 8502     		.2byte	(.L149-.L118)/2
 1266 00b2 8502     		.2byte	(.L149-.L118)/2
 1267 00b4 8502     		.2byte	(.L149-.L118)/2
 1268 00b6 8502     		.2byte	(.L149-.L118)/2
 1269 00b8 8502     		.2byte	(.L149-.L118)/2
 1270 00ba 8502     		.2byte	(.L149-.L118)/2
 1271 00bc 8502     		.2byte	(.L149-.L118)/2
 1272 00be 8502     		.2byte	(.L149-.L118)/2
 1273 00c0 8502     		.2byte	(.L149-.L118)/2
 1274 00c2 8502     		.2byte	(.L149-.L118)/2
 1275 00c4 8502     		.2byte	(.L149-.L118)/2
 1276 00c6 8502     		.2byte	(.L149-.L118)/2
 1277 00c8 8502     		.2byte	(.L149-.L118)/2
 1278 00ca 3102     		.2byte	(.L117-.L118)/2
 1279              		.p2align 1
 1280              	.L120:
 1281              	.LVL144:
 1282              		.loc 1 292 0
 1283 00cc 2046     		mov	r0, r4
 1284 00ce FFF7FEFF 		bl	target_mem_map_free
 1285              	.LVL145:
 1286              		.loc 1 293 0
 1287 00d2 E449     		ldr	r1, .L182
 1288 00d4 2046     		mov	r0, r4
 1289 00d6 FFF7FEFF 		bl	target_mem_read32
 1290              	.LVL146:
 1291              		.loc 1 307 0
 1292 00da 4FF48032 		mov	r2, #65536
 1293              		.loc 1 293 0
 1294 00de 86B2     		uxth	r6, r0
 1295              	.LVL147:
 1296              		.loc 1 307 0
 1297 00e0 4FF08051 		mov	r1, #268435456
 1298 00e4 2046     		mov	r0, r4
 1299 00e6 FFF7FEFF 		bl	target_add_ram
 1300              	.LVL148:
 1301              		.loc 1 308 0
 1302 00ea 4FF4A022 		mov	r2, #327680
 1303 00ee 4FF00051 		mov	r1, #536870912
 1304 00f2 2046     		mov	r0, r4
 1305 00f4 FFF7FEFF 		bl	target_add_ram
 1306              	.LVL149:
 1307              		.loc 1 311 0
 1308 00f8 B6F5006F 		cmp	r6, #2048
 1309 00fc C0F0D481 		bcc	.L175
 1310              		.loc 1 322 0
 1311 0100 7602     		lsls	r6, r6, #9
ARM GAS  /tmp/ccJYnsep.s 			page 24


 1312              	.LVL150:
 1313 0102 2F46     		mov	r7, r5
 1314              		.loc 1 323 0
 1315 0104 4FF00C09 		mov	r9, #12
 1316              	.LVL151:
 1317              	.L127:
 1318              	.LBB197:
 1319              	.LBB198:
 1320              	.LBB199:
 1321 0108 4FF00008 		mov	r8, #0
 1322 010c CDE90089 		strd	r8, r9, [sp]
 1323 0110 4FF48043 		mov	r3, #16384
 1324 0114 4FF48032 		mov	r2, #65536
 1325 0118 4FF00061 		mov	r1, #134217728
 1326 011c 2046     		mov	r0, r4
 1327 011e FFF7FEFF 		bl	stm32f4_add_flash.part.4
 1328              	.LVL152:
 1329              	.LBE199:
 1330              	.LBE198:
 1331              		.loc 1 339 0
 1332 0122 A6F5003A 		sub	r10, r6, #131072
 1333              	.LVL153:
 1334              	.L144:
 1335              	.LBB204:
 1336              	.LBB205:
 1337 0126 0422     		movs	r2, #4
 1338 0128 4FF48033 		mov	r3, #65536
 1339 012c CDE90029 		strd	r2, r9, [sp]
 1340 0130 CD49     		ldr	r1, .L182+4
 1341 0132 1A46     		mov	r2, r3
 1342 0134 2046     		mov	r0, r4
 1343 0136 FFF7FEFF 		bl	stm32f4_add_flash.part.4
 1344              	.LVL154:
 1345              	.LBE205:
 1346              	.LBE204:
 1347              	.LBB207:
 1348              	.LBB208:
 1349              		.loc 1 137 0
 1350 013a BAF1000F 		cmp	r10, #0
 1351 013e 09D0     		beq	.L136
 1352 0140 0523     		movs	r3, #5
 1353 0142 CDE90039 		strd	r3, r9, [sp]
 1354 0146 5246     		mov	r2, r10
 1355 0148 4FF40033 		mov	r3, #131072
 1356 014c C749     		ldr	r1, .L182+8
 1357 014e 2046     		mov	r0, r4
 1358 0150 FFF7FEFF 		bl	stm32f4_add_flash.part.4
 1359              	.LVL155:
 1360              	.L136:
 1361              	.LBE208:
 1362              	.LBE207:
 1363              		.loc 1 353 0
 1364 0154 5FB3     		cbz	r7, .L153
 1365              	.LBB209:
 1366              		.loc 1 354 0
 1367 0156 B8F1000F 		cmp	r8, #0
 1368 015a 40F04C81 		bne	.L143
ARM GAS  /tmp/ccJYnsep.s 			page 25


 1369              	.LVL156:
 1370              	.L138:
 1371              		.loc 1 360 0
 1372 015e 06F10066 		add	r6, r6, #134217728
 1373              	.LVL157:
 1374              	.LBB210:
 1375              	.LBB211:
 1376 0162 1023     		movs	r3, #16
 1377 0164 3146     		mov	r1, r6
 1378 0166 0093     		str	r3, [sp]
 1379 0168 4FF48032 		mov	r2, #65536
 1380 016c 4FF48043 		mov	r3, #16384
 1381 0170 2046     		mov	r0, r4
 1382 0172 CDF80490 		str	r9, [sp, #4]
 1383 0176 FFF7FEFF 		bl	stm32f4_add_flash.part.4
 1384              	.LVL158:
 1385              	.LBE211:
 1386              	.LBE210:
 1387              	.LBB214:
 1388              	.LBB215:
 1389 017a 1422     		movs	r2, #20
 1390 017c 4FF48033 		mov	r3, #65536
 1391 0180 0092     		str	r2, [sp]
 1392 0182 CDF80490 		str	r9, [sp, #4]
 1393 0186 F118     		adds	r1, r6, r3
 1394 0188 1A46     		mov	r2, r3
 1395 018a 2046     		mov	r0, r4
 1396 018c FFF7FEFF 		bl	stm32f4_add_flash.part.4
 1397              	.LVL159:
 1398              	.LBE215:
 1399              	.LBE214:
 1400              	.LBB218:
 1401              	.LBB219:
 1402              		.loc 1 137 0
 1403 0190 BAF1000F 		cmp	r10, #0
 1404 0194 0BD0     		beq	.L153
 1405              	.LBE219:
 1406              	.LBE218:
 1407              		.loc 1 363 0
 1408 0196 06F50031 		add	r1, r6, #131072
 1409              	.LVL160:
 1410              	.L140:
 1411              	.LBB221:
 1412              	.LBB220:
 1413 019a 1523     		movs	r3, #21
 1414 019c 0093     		str	r3, [sp]
 1415 019e CDF80490 		str	r9, [sp, #4]
 1416 01a2 5246     		mov	r2, r10
 1417 01a4 2046     		mov	r0, r4
 1418 01a6 4FF40033 		mov	r3, #131072
 1419 01aa FFF7FEFF 		bl	stm32f4_add_flash.part.4
 1420              	.LVL161:
 1421              	.L153:
 1422              	.LBE220:
 1423              	.LBE221:
 1424              	.LBE209:
 1425              	.LBE197:
ARM GAS  /tmp/ccJYnsep.s 			page 26


 1426              	.LBE196:
 1427              	.LBE195:
 1428              		.loc 1 367 0
 1429 01ae 2846     		mov	r0, r5
 1430 01b0 03B0     		add	sp, sp, #12
 1431              		.cfi_remember_state
 1432              		.cfi_def_cfa_offset 36
 1433              		@ sp needed
 1434 01b2 BDE8F08F 		pop	{r4, r5, r6, r7, r8, r9, r10, fp, pc}
 1435              	.LVL162:
 1436              	.L119:
 1437              		.cfi_restore_state
 1438              	.LBB281:
 1439              	.LBB279:
 1440              		.loc 1 292 0
 1441 01b6 2046     		mov	r0, r4
 1442 01b8 FFF7FEFF 		bl	target_mem_map_free
 1443              	.LVL163:
 1444              		.loc 1 293 0
 1445 01bc A949     		ldr	r1, .L182
 1446 01be 2046     		mov	r0, r4
 1447 01c0 FFF7FEFF 		bl	target_mem_read32
 1448              	.LVL164:
 1449              		.loc 1 307 0
 1450 01c4 4FF48032 		mov	r2, #65536
 1451 01c8 4FF08051 		mov	r1, #268435456
 1452              		.loc 1 293 0
 1453 01cc 86B2     		uxth	r6, r0
 1454              	.LVL165:
 1455              		.loc 1 307 0
 1456 01ce 2046     		mov	r0, r4
 1457 01d0 FFF7FEFF 		bl	target_add_ram
 1458              	.LVL166:
 1459              		.loc 1 308 0
 1460 01d4 4FF4A022 		mov	r2, #327680
 1461 01d8 4FF00051 		mov	r1, #536870912
 1462 01dc 2046     		mov	r0, r4
 1463 01de FFF7FEFF 		bl	target_add_ram
 1464              	.LVL167:
 1465              	.L124:
 1466              		.loc 1 326 0
 1467 01e2 B602     		lsls	r6, r6, #10
 1468              	.LVL168:
 1469              	.LBB251:
 1470              		.loc 1 338 0
 1471 01e4 B6F5003F 		cmp	r6, #131072
 1472 01e8 00F2F781 		bhi	.L176
 1473              	.LVL169:
 1474              	.LBB236:
 1475              	.LBB200:
 1476 01ec 0027     		movs	r7, #0
 1477 01ee CDE90077 		strd	r7, r7, [sp]
 1478 01f2 4FF48043 		mov	r3, #16384
 1479 01f6 4FF48032 		mov	r2, #65536
 1480 01fa 4FF00061 		mov	r1, #134217728
 1481 01fe 2046     		mov	r0, r4
 1482 0200 FFF7FEFF 		bl	stm32f4_add_flash.part.4
ARM GAS  /tmp/ccJYnsep.s 			page 27


 1483              	.LVL170:
 1484              	.LBE200:
 1485              	.LBE236:
 1486              		.loc 1 349 0
 1487 0204 B6F5803F 		cmp	r6, #65536
 1488 0208 D1D9     		bls	.L153
 1489              	.LVL171:
 1490              	.LBB237:
 1491              	.LBB206:
 1492 020a 0422     		movs	r2, #4
 1493 020c 4FF48033 		mov	r3, #65536
 1494 0210 0092     		str	r2, [sp]
 1495 0212 0197     		str	r7, [sp, #4]
 1496 0214 2046     		mov	r0, r4
 1497 0216 1A46     		mov	r2, r3
 1498 0218 9349     		ldr	r1, .L182+4
 1499 021a FFF7FEFF 		bl	stm32f4_add_flash.part.4
 1500              	.LVL172:
 1501 021e C6E7     		b	.L153
 1502              	.LVL173:
 1503              	.L121:
 1504              	.LBE206:
 1505              	.LBE237:
 1506              	.LBE251:
 1507              		.loc 1 292 0
 1508 0220 2046     		mov	r0, r4
 1509 0222 FFF7FEFF 		bl	target_mem_map_free
 1510              	.LVL174:
 1511              		.loc 1 293 0
 1512 0226 9249     		ldr	r1, .L182+12
 1513              		.loc 1 326 0
 1514 0228 924E     		ldr	r6, .L182+16
 1515              		.loc 1 293 0
 1516 022a 2046     		mov	r0, r4
 1517 022c FFF7FEFF 		bl	target_mem_read32
 1518              	.LVL175:
 1519              		.loc 1 295 0
 1520 0230 9149     		ldr	r1, .L182+20
 1521              		.loc 1 293 0
 1522 0232 0746     		mov	r7, r0
 1523              	.LVL176:
 1524              		.loc 1 295 0
 1525 0234 2046     		mov	r0, r4
 1526              	.LVL177:
 1527 0236 FFF7FEFF 		bl	target_mem_read32
 1528              	.LVL178:
 1529              		.loc 1 296 0
 1530 023a 0122     		movs	r2, #1
 1531              		.loc 1 295 0
 1532 023c 6065     		str	r0, [r4, #84]
 1533              		.loc 1 296 0
 1534 023e 8E49     		ldr	r1, .L182+20
 1535 0240 2046     		mov	r0, r4
 1536 0242 FFF7FEFF 		bl	target_mem_write32
 1537              	.LVL179:
 1538              		.loc 1 297 0
 1539 0246 4FF48042 		mov	r2, #16384
ARM GAS  /tmp/ccJYnsep.s 			page 28


 1540 024a 0021     		movs	r1, #0
 1541 024c 2046     		mov	r0, r4
 1542 024e FFF7FEFF 		bl	target_add_ram
 1543              	.LVL180:
 1544              		.loc 1 298 0
 1545 0252 4FF40032 		mov	r2, #131072
 1546 0256 4FF00051 		mov	r1, #536870912
 1547 025a 2046     		mov	r0, r4
 1548 025c FFF7FEFF 		bl	target_add_ram
 1549              	.LVL181:
 1550              		.loc 1 299 0
 1551 0260 4FF4C022 		mov	r2, #393216
 1552 0264 8549     		ldr	r1, .L182+24
 1553 0266 2046     		mov	r0, r4
 1554 0268 FFF7FEFF 		bl	target_add_ram
 1555              	.LVL182:
 1556              		.loc 1 319 0
 1557 026c 4FF00009 		mov	r9, #0
 1558              		.loc 1 326 0
 1559 0270 06EA8726 		and	r6, r6, r7, lsl #10
 1560              	.LVL183:
 1561              	.L142:
 1562              	.LBB252:
 1563              	.LBB253:
 1564              	.LBB254:
 1565 0274 4FF00008 		mov	r8, #0
 1566 0278 4FF40043 		mov	r3, #32768
 1567 027c 4FF40032 		mov	r2, #131072
 1568 0280 4FF40011 		mov	r1, #2097152
 1569 0284 2046     		mov	r0, r4
 1570 0286 CDE90089 		strd	r8, r9, [sp]
 1571 028a FFF7FEFF 		bl	stm32f4_add_flash.part.4
 1572              	.LVL184:
 1573              	.LBE254:
 1574              	.LBE253:
 1575              	.LBB255:
 1576              	.LBB256:
 1577 028e 0427     		movs	r7, #4
 1578 0290 4FF40033 		mov	r3, #131072
 1579              	.LBE256:
 1580              	.LBE255:
 1581              		.loc 1 328 0
 1582 0294 A6F58026 		sub	r6, r6, #262144
 1583              	.LVL185:
 1584              	.LBB258:
 1585              	.LBB257:
 1586 0298 CDE90079 		strd	r7, r9, [sp]
 1587 029c 1A46     		mov	r2, r3
 1588 029e 4FF40811 		mov	r1, #2228224
 1589 02a2 2046     		mov	r0, r4
 1590 02a4 FFF7FEFF 		bl	stm32f4_add_flash.part.4
 1591              	.LVL186:
 1592              	.LBE257:
 1593              	.LBE258:
 1594              	.LBB259:
 1595              	.LBB260:
 1596              		.loc 1 137 0
ARM GAS  /tmp/ccJYnsep.s 			page 29


 1597 02a8 002E     		cmp	r6, #0
 1598 02aa 40F01781 		bne	.L177
 1599              	.LVL187:
 1600              	.LBE260:
 1601              	.LBE259:
 1602              	.LBB262:
 1603              	.LBB263:
 1604 02ae 2046     		mov	r0, r4
 1605 02b0 CDE90069 		strd	r6, r9, [sp]
 1606 02b4 4FF40043 		mov	r3, #32768
 1607 02b8 4FF40032 		mov	r2, #131072
 1608 02bc 4FF00061 		mov	r1, #134217728
 1609 02c0 FFF7FEFF 		bl	stm32f4_add_flash.part.4
 1610              	.LVL188:
 1611              	.LBE263:
 1612              	.LBE262:
 1613              	.LBB265:
 1614              	.LBB266:
 1615 02c4 4FF40033 		mov	r3, #131072
 1616 02c8 2046     		mov	r0, r4
 1617 02ca CDE90079 		strd	r7, r9, [sp]
 1618 02ce 1A46     		mov	r2, r3
 1619 02d0 6649     		ldr	r1, .L182+8
 1620 02d2 FFF7FEFF 		bl	stm32f4_add_flash.part.4
 1621              	.LVL189:
 1622              	.LBE266:
 1623              	.LBE265:
 1624              	.LBE252:
 1625              	.LBE279:
 1626              	.LBE281:
 1627              		.loc 1 367 0
 1628 02d6 2846     		mov	r0, r5
 1629 02d8 03B0     		add	sp, sp, #12
 1630              		.cfi_remember_state
 1631              		.cfi_def_cfa_offset 36
 1632              		@ sp needed
 1633 02da BDE8F08F 		pop	{r4, r5, r6, r7, r8, r9, r10, fp, pc}
 1634              	.LVL190:
 1635              	.L122:
 1636              		.cfi_restore_state
 1637              	.LBB282:
 1638              	.LBB280:
 1639              		.loc 1 292 0
 1640 02de 2046     		mov	r0, r4
 1641 02e0 FFF7FEFF 		bl	target_mem_map_free
 1642              	.LVL191:
 1643              		.loc 1 293 0
 1644 02e4 6249     		ldr	r1, .L182+12
 1645 02e6 2046     		mov	r0, r4
 1646 02e8 FFF7FEFF 		bl	target_mem_read32
 1647              	.LVL192:
 1648              		.loc 1 295 0
 1649 02ec 6249     		ldr	r1, .L182+20
 1650              		.loc 1 293 0
 1651 02ee 86B2     		uxth	r6, r0
 1652              	.LVL193:
 1653              		.loc 1 295 0
ARM GAS  /tmp/ccJYnsep.s 			page 30


 1654 02f0 2046     		mov	r0, r4
 1655 02f2 FFF7FEFF 		bl	target_mem_read32
 1656              	.LVL194:
 1657              		.loc 1 296 0
 1658 02f6 0122     		movs	r2, #1
 1659              		.loc 1 295 0
 1660 02f8 6065     		str	r0, [r4, #84]
 1661              		.loc 1 296 0
 1662 02fa 5F49     		ldr	r1, .L182+20
 1663 02fc 2046     		mov	r0, r4
 1664 02fe FFF7FEFF 		bl	target_mem_write32
 1665              	.LVL195:
 1666              		.loc 1 297 0
 1667 0302 4FF48042 		mov	r2, #16384
 1668 0306 0021     		movs	r1, #0
 1669 0308 2046     		mov	r0, r4
 1670 030a FFF7FEFF 		bl	target_add_ram
 1671              	.LVL196:
 1672              		.loc 1 298 0
 1673 030e 4FF40032 		mov	r2, #131072
 1674 0312 4FF00051 		mov	r1, #536870912
 1675 0316 2046     		mov	r0, r4
 1676 0318 FFF7FEFF 		bl	target_add_ram
 1677              	.LVL197:
 1678              		.loc 1 299 0
 1679 031c 4FF4C022 		mov	r2, #393216
 1680 0320 5649     		ldr	r1, .L182+24
 1681 0322 2046     		mov	r0, r4
 1682 0324 FFF7FEFF 		bl	target_add_ram
 1683              	.LVL198:
 1684              	.LBB273:
 1685              		.loc 1 302 0
 1686 0328 5549     		ldr	r1, .L182+28
 1687 032a 2046     		mov	r0, r4
 1688 032c FFF7FEFF 		bl	target_mem_read32
 1689              	.LVL199:
 1690              		.loc 1 303 0
 1691 0330 80F00050 		eor	r0, r0, #536870912
 1692              	.LVL200:
 1693 0334 C0F34077 		ubfx	r7, r0, #29, #1
 1694              	.LVL201:
 1695 0338 A846     		mov	r8, r5
 1696              	.LVL202:
 1697              	.L145:
 1698              	.LBE273:
 1699              		.loc 1 321 0
 1700 033a 002F     		cmp	r7, #0
 1701 033c 40F0BF80 		bne	.L178
 1702              		.loc 1 326 0
 1703 0340 B602     		lsls	r6, r6, #10
 1704              	.LVL203:
 1705              		.loc 1 319 0
 1706 0342 B946     		mov	r9, r7
 1707              		.loc 1 327 0
 1708 0344 B8F1000F 		cmp	r8, #0
 1709 0348 94D1     		bne	.L142
 1710 034a 2AE0     		b	.L129
ARM GAS  /tmp/ccJYnsep.s 			page 31


 1711              	.LVL204:
 1712              	.L123:
 1713              		.loc 1 292 0
 1714 034c 2046     		mov	r0, r4
 1715 034e FFF7FEFF 		bl	target_mem_map_free
 1716              	.LVL205:
 1717              		.loc 1 293 0
 1718 0352 4C49     		ldr	r1, .L182+32
 1719              		.loc 1 326 0
 1720 0354 474E     		ldr	r6, .L182+16
 1721              		.loc 1 293 0
 1722 0356 2046     		mov	r0, r4
 1723 0358 FFF7FEFF 		bl	target_mem_read32
 1724              	.LVL206:
 1725              		.loc 1 295 0
 1726 035c 4649     		ldr	r1, .L182+20
 1727              		.loc 1 293 0
 1728 035e 8046     		mov	r8, r0
 1729              	.LVL207:
 1730              		.loc 1 295 0
 1731 0360 2046     		mov	r0, r4
 1732              	.LVL208:
 1733 0362 FFF7FEFF 		bl	target_mem_read32
 1734              	.LVL209:
 1735              		.loc 1 296 0
 1736 0366 0122     		movs	r2, #1
 1737              		.loc 1 295 0
 1738 0368 6065     		str	r0, [r4, #84]
 1739              		.loc 1 296 0
 1740 036a 4349     		ldr	r1, .L182+20
 1741 036c 2046     		mov	r0, r4
 1742 036e FFF7FEFF 		bl	target_mem_write32
 1743              	.LVL210:
 1744              		.loc 1 297 0
 1745 0372 4FF48042 		mov	r2, #16384
 1746 0376 0021     		movs	r1, #0
 1747 0378 2046     		mov	r0, r4
 1748 037a FFF7FEFF 		bl	target_add_ram
 1749              	.LVL211:
 1750              		.loc 1 298 0
 1751 037e 4FF40032 		mov	r2, #131072
 1752 0382 4FF00051 		mov	r1, #536870912
 1753 0386 2046     		mov	r0, r4
 1754 0388 FFF7FEFF 		bl	target_add_ram
 1755              	.LVL212:
 1756              		.loc 1 299 0
 1757 038c 4FF4C022 		mov	r2, #393216
 1758 0390 3A49     		ldr	r1, .L182+24
 1759 0392 2046     		mov	r0, r4
 1760 0394 FFF7FEFF 		bl	target_add_ram
 1761              	.LVL213:
 1762              		.loc 1 326 0
 1763 0398 0027     		movs	r7, #0
 1764 039a 06EA8826 		and	r6, r6, r8, lsl #10
 1765              	.LVL214:
 1766              		.loc 1 319 0
 1767 039e B946     		mov	r9, r7
ARM GAS  /tmp/ccJYnsep.s 			page 32


 1768              		.loc 1 326 0
 1769 03a0 A846     		mov	r8, r5
 1770              	.LVL215:
 1771              	.L129:
 1772              	.LBB274:
 1773              		.loc 1 338 0
 1774 03a2 B6F5003F 		cmp	r6, #131072
 1775              		.loc 1 339 0
 1776 03a6 8CBF     		ite	hi
 1777 03a8 A6F5003A 		subhi	r10, r6, #131072
 1778              	.LVL216:
 1779              		.loc 1 337 0
 1780 03ac 4FF0000A 		movls	r10, #0
 1781              	.LVL217:
 1782              		.loc 1 340 0
 1783 03b0 B8F1000F 		cmp	r8, #0
 1784 03b4 00F0E380 		beq	.L132
 1785              	.LVL218:
 1786              	.LBB238:
 1787              	.LBB239:
 1788 03b8 4FF0000B 		mov	fp, #0
 1789 03bc CDE900B9 		strd	fp, r9, [sp]
 1790 03c0 4FF48043 		mov	r3, #16384
 1791 03c4 4FF48032 		mov	r2, #65536
 1792 03c8 4FF40011 		mov	r1, #2097152
 1793 03cc 2046     		mov	r0, r4
 1794 03ce FFF7FEFF 		bl	stm32f4_add_flash.part.4
 1795              	.LVL219:
 1796              	.LBE239:
 1797              	.LBE238:
 1798              		.loc 1 342 0
 1799 03d2 B6F5803F 		cmp	r6, #65536
 1800 03d6 00F2E580 		bhi	.L179
 1801              	.LVL220:
 1802              	.LBB240:
 1803              	.LBB201:
 1804 03da CDE900B9 		strd	fp, r9, [sp]
 1805 03de 4FF48043 		mov	r3, #16384
 1806 03e2 4FF48032 		mov	r2, #65536
 1807 03e6 4FF00061 		mov	r1, #134217728
 1808 03ea 2046     		mov	r0, r4
 1809 03ec FFF7FEFF 		bl	stm32f4_add_flash.part.4
 1810              	.LVL221:
 1811              	.LBE201:
 1812              	.LBE240:
 1813              		.loc 1 353 0
 1814 03f0 002F     		cmp	r7, #0
 1815 03f2 3FF4DCAE 		beq	.L153
 1816              	.L143:
 1817              	.LVL222:
 1818              	.LBB241:
 1819              	.LBB222:
 1820              	.LBB223:
 1821              	.LBB224:
 1822 03f6 0023     		movs	r3, #0
 1823 03f8 CDE90039 		strd	r3, r9, [sp]
 1824 03fc 4FF48032 		mov	r2, #65536
ARM GAS  /tmp/ccJYnsep.s 			page 33


 1825 0400 4FF48043 		mov	r3, #16384
 1826 0404 06F50011 		add	r1, r6, #2097152
 1827 0408 2046     		mov	r0, r4
 1828 040a FFF7FEFF 		bl	stm32f4_add_flash.part.4
 1829              	.LVL223:
 1830              	.LBE224:
 1831              	.LBE223:
 1832              	.LBB225:
 1833              	.LBB226:
 1834 040e 0422     		movs	r2, #4
 1835 0410 4FF48033 		mov	r3, #65536
 1836 0414 CDE90029 		strd	r2, r9, [sp]
 1837 0418 06F50411 		add	r1, r6, #2162688
 1838 041c 1A46     		mov	r2, r3
 1839 041e 2046     		mov	r0, r4
 1840 0420 06F10067 		add	r7, r6, #134217728
 1841 0424 FFF7FEFF 		bl	stm32f4_add_flash.part.4
 1842              	.LVL224:
 1843 0428 07F58038 		add	r8, r7, #65536
 1844              	.LBE226:
 1845              	.LBE225:
 1846              	.LBB227:
 1847              	.LBB228:
 1848              		.loc 1 137 0
 1849 042c BAF1000F 		cmp	r10, #0
 1850 0430 40F08080 		bne	.L180
 1851              	.LVL225:
 1852              	.LBE228:
 1853              	.LBE227:
 1854              	.LBE222:
 1855              	.LBB231:
 1856              	.LBB212:
 1857 0434 1023     		movs	r3, #16
 1858 0436 3946     		mov	r1, r7
 1859 0438 0093     		str	r3, [sp]
 1860 043a 2046     		mov	r0, r4
 1861 043c CDF80490 		str	r9, [sp, #4]
 1862 0440 4FF48043 		mov	r3, #16384
 1863 0444 4FF48032 		mov	r2, #65536
 1864 0448 FFF7FEFF 		bl	stm32f4_add_flash.part.4
 1865              	.LVL226:
 1866              	.LBE212:
 1867              	.LBE231:
 1868              	.LBB232:
 1869              	.LBB216:
 1870 044c 1422     		movs	r2, #20
 1871 044e 4FF48033 		mov	r3, #65536
 1872 0452 0092     		str	r2, [sp]
 1873 0454 CDF80490 		str	r9, [sp, #4]
 1874 0458 4146     		mov	r1, r8
 1875 045a 2046     		mov	r0, r4
 1876 045c 1A46     		mov	r2, r3
 1877 045e FFF7FEFF 		bl	stm32f4_add_flash.part.4
 1878              	.LVL227:
 1879 0462 A4E6     		b	.L153
 1880              	.L183:
 1881              		.align	2
ARM GAS  /tmp/ccJYnsep.s 			page 34


 1882              	.L182:
 1883 0464 227AFF1F 		.word	536836642
 1884 0468 00000108 		.word	134283264
 1885 046c 00000208 		.word	134348800
 1886 0470 42F4F01F 		.word	535884866
 1887 0474 00FCFF03 		.word	67107840
 1888 0478 042004E0 		.word	-536600572
 1889 047c 00000220 		.word	537001984
 1890 0480 143C0240 		.word	1073888276
 1891 0484 227AF01F 		.word	535853602
 1892              	.LVL228:
 1893              	.L117:
 1894              	.LBE216:
 1895              	.LBE232:
 1896              	.LBE241:
 1897              	.LBE274:
 1898              		.loc 1 292 0
 1899 0488 2046     		mov	r0, r4
 1900 048a FFF7FEFF 		bl	target_mem_map_free
 1901              	.LVL229:
 1902              		.loc 1 293 0
 1903 048e 5A49     		ldr	r1, .L184
 1904 0490 2046     		mov	r0, r4
 1905 0492 FFF7FEFF 		bl	target_mem_read32
 1906              	.LVL230:
 1907              		.loc 1 308 0
 1908 0496 4FF4A022 		mov	r2, #327680
 1909              		.loc 1 293 0
 1910 049a 86B2     		uxth	r6, r0
 1911              	.LVL231:
 1912              		.loc 1 308 0
 1913 049c 4FF00051 		mov	r1, #536870912
 1914 04a0 2046     		mov	r0, r4
 1915 04a2 FFF7FEFF 		bl	target_add_ram
 1916              	.LVL232:
 1917 04a6 9CE6     		b	.L124
 1918              	.LVL233:
 1919              	.L175:
 1920              	.LBB275:
 1921              		.loc 1 314 0
 1922 04a8 5449     		ldr	r1, .L184+4
 1923 04aa 2046     		mov	r0, r4
 1924 04ac FFF7FEFF 		bl	target_mem_read32
 1925              	.LVL234:
 1926              		.loc 1 315 0
 1927 04b0 80F08040 		eor	r0, r0, #1073741824
 1928              	.LVL235:
 1929 04b4 C0F38077 		ubfx	r7, r0, #30, #1
 1930              	.LVL236:
 1931 04b8 4FF00008 		mov	r8, #0
 1932 04bc 3DE7     		b	.L145
 1933              	.LVL237:
 1934              	.L178:
 1935              	.LBE275:
 1936              		.loc 1 323 0
 1937 04be B6F5806F 		cmp	r6, #1024
 1938 04c2 18BF     		it	ne
ARM GAS  /tmp/ccJYnsep.s 			page 35


 1939 04c4 4FF00C09 		movne	r9, #12
 1940              		.loc 1 322 0
 1941 04c8 4FEA4626 		lsl	r6, r6, #9
 1942              	.LVL238:
 1943              		.loc 1 323 0
 1944 04cc 08BF     		it	eq
 1945 04ce 4FF00809 		moveq	r9, #8
 1946              	.LVL239:
 1947              		.loc 1 327 0
 1948 04d2 B8F1000F 		cmp	r8, #0
 1949 04d6 7FF4CDAE 		bne	.L142
 1950 04da 62E7     		b	.L129
 1951              	.LVL240:
 1952              	.L177:
 1953              	.LBB276:
 1954              	.LBB268:
 1955              	.LBB261:
 1956 04dc 4FF0050A 		mov	r10, #5
 1957 04e0 3246     		mov	r2, r6
 1958 04e2 2046     		mov	r0, r4
 1959 04e4 CDE900A9 		strd	r10, r9, [sp]
 1960 04e8 4FF48023 		mov	r3, #262144
 1961 04ec 4FF41011 		mov	r1, #2359296
 1962 04f0 FFF7FEFF 		bl	stm32f4_add_flash.part.4
 1963              	.LVL241:
 1964              	.LBE261:
 1965              	.LBE268:
 1966              	.LBB269:
 1967              	.LBB264:
 1968 04f4 2046     		mov	r0, r4
 1969 04f6 CDE90089 		strd	r8, r9, [sp]
 1970 04fa 4FF40043 		mov	r3, #32768
 1971 04fe 4FF40032 		mov	r2, #131072
 1972 0502 4FF00061 		mov	r1, #134217728
 1973 0506 FFF7FEFF 		bl	stm32f4_add_flash.part.4
 1974              	.LVL242:
 1975              	.LBE264:
 1976              	.LBE269:
 1977              	.LBB270:
 1978              	.LBB267:
 1979 050a 4FF40033 		mov	r3, #131072
 1980 050e 1A46     		mov	r2, r3
 1981 0510 2046     		mov	r0, r4
 1982 0512 CDE90079 		strd	r7, r9, [sp]
 1983 0516 3A49     		ldr	r1, .L184+8
 1984 0518 FFF7FEFF 		bl	stm32f4_add_flash.part.4
 1985              	.LVL243:
 1986              	.LBE267:
 1987              	.LBE270:
 1988              	.LBB271:
 1989              	.LBB272:
 1990 051c CDE900A9 		strd	r10, r9, [sp]
 1991 0520 3246     		mov	r2, r6
 1992 0522 2046     		mov	r0, r4
 1993 0524 4FF48023 		mov	r3, #262144
 1994 0528 3649     		ldr	r1, .L184+12
 1995 052a FFF7FEFF 		bl	stm32f4_add_flash.part.4
ARM GAS  /tmp/ccJYnsep.s 			page 36


 1996              	.LVL244:
 1997 052e 3EE6     		b	.L153
 1998              	.LVL245:
 1999              	.L149:
 2000              	.LBE272:
 2001              	.LBE271:
 2002              	.LBE276:
 2003              		.loc 1 289 0
 2004 0530 0025     		movs	r5, #0
 2005 0532 3CE6     		b	.L153
 2006              	.LVL246:
 2007              	.L180:
 2008              	.LBB277:
 2009              	.LBB242:
 2010              	.LBB233:
 2011              	.LBB230:
 2012              	.LBB229:
 2013 0534 0523     		movs	r3, #5
 2014 0536 06F50811 		add	r1, r6, #2228224
 2015 053a 0093     		str	r3, [sp]
 2016 053c 5246     		mov	r2, r10
 2017 053e 4FF40033 		mov	r3, #131072
 2018 0542 2046     		mov	r0, r4
 2019 0544 CDF80490 		str	r9, [sp, #4]
 2020 0548 FFF7FEFF 		bl	stm32f4_add_flash.part.4
 2021              	.LVL247:
 2022              	.LBE229:
 2023              	.LBE230:
 2024              	.LBE233:
 2025              	.LBB234:
 2026              	.LBB213:
 2027 054c 1023     		movs	r3, #16
 2028 054e CDE90039 		strd	r3, r9, [sp]
 2029 0552 4FF48032 		mov	r2, #65536
 2030 0556 4FF48043 		mov	r3, #16384
 2031 055a 3946     		mov	r1, r7
 2032 055c 2046     		mov	r0, r4
 2033 055e FFF7FEFF 		bl	stm32f4_add_flash.part.4
 2034              	.LVL248:
 2035              	.LBE213:
 2036              	.LBE234:
 2037              	.LBB235:
 2038              	.LBB217:
 2039 0562 1422     		movs	r2, #20
 2040 0564 4FF48033 		mov	r3, #65536
 2041 0568 4146     		mov	r1, r8
 2042 056a 0092     		str	r2, [sp]
 2043 056c CDF80490 		str	r9, [sp, #4]
 2044 0570 1A46     		mov	r2, r3
 2045 0572 2046     		mov	r0, r4
 2046 0574 FFF7FEFF 		bl	stm32f4_add_flash.part.4
 2047              	.LVL249:
 2048              	.LBE217:
 2049              	.LBE235:
 2050              		.loc 1 363 0
 2051 0578 07F50031 		add	r1, r7, #131072
 2052              	.LVL250:
ARM GAS  /tmp/ccJYnsep.s 			page 37


 2053 057c 0DE6     		b	.L140
 2054              	.LVL251:
 2055              	.L132:
 2056              	.LBE242:
 2057              	.LBB243:
 2058              	.LBB202:
 2059 057e CDE90089 		strd	r8, r9, [sp]
 2060 0582 4FF48043 		mov	r3, #16384
 2061 0586 4FF48032 		mov	r2, #65536
 2062 058a 4FF00061 		mov	r1, #134217728
 2063 058e 2046     		mov	r0, r4
 2064 0590 FFF7FEFF 		bl	stm32f4_add_flash.part.4
 2065              	.LVL252:
 2066              	.LBE202:
 2067              	.LBE243:
 2068              		.loc 1 349 0
 2069 0594 B6F5803F 		cmp	r6, #65536
 2070 0598 3FF6C5AD 		bhi	.L144
 2071              		.loc 1 353 0
 2072 059c 002F     		cmp	r7, #0
 2073 059e 7FF4DEAD 		bne	.L138
 2074 05a2 04E6     		b	.L153
 2075              	.L179:
 2076              	.LVL253:
 2077              	.LBB244:
 2078              	.LBB245:
 2079 05a4 0422     		movs	r2, #4
 2080 05a6 4FF48033 		mov	r3, #65536
 2081 05aa CDE90029 		strd	r2, r9, [sp]
 2082 05ae 4FF40411 		mov	r1, #2162688
 2083 05b2 1A46     		mov	r2, r3
 2084 05b4 2046     		mov	r0, r4
 2085 05b6 FFF7FEFF 		bl	stm32f4_add_flash.part.4
 2086              	.LVL254:
 2087              	.LBE245:
 2088              	.LBE244:
 2089              	.LBB246:
 2090              	.LBB247:
 2091              		.loc 1 137 0
 2092 05ba BAF1000F 		cmp	r10, #0
 2093 05be 0FD1     		bne	.L181
 2094              	.L134:
 2095              	.LVL255:
 2096              	.LBE247:
 2097              	.LBE246:
 2098              	.LBB249:
 2099              	.LBB203:
 2100 05c0 0023     		movs	r3, #0
 2101 05c2 CDE90039 		strd	r3, r9, [sp]
 2102 05c6 4FF48032 		mov	r2, #65536
 2103 05ca 4FF48043 		mov	r3, #16384
 2104 05ce 4FF00061 		mov	r1, #134217728
 2105 05d2 2046     		mov	r0, r4
 2106 05d4 FFF7FEFF 		bl	stm32f4_add_flash.part.4
 2107              	.LVL256:
 2108 05d8 A5E5     		b	.L144
 2109              	.LVL257:
ARM GAS  /tmp/ccJYnsep.s 			page 38


 2110              	.L176:
 2111              	.LBE203:
 2112              	.LBE249:
 2113              		.loc 1 338 0
 2114 05da 0027     		movs	r7, #0
 2115              	.LBE277:
 2116              		.loc 1 319 0
 2117 05dc B946     		mov	r9, r7
 2118 05de 93E5     		b	.L127
 2119              	.LVL258:
 2120              	.L181:
 2121              	.LBB278:
 2122              	.LBB250:
 2123              	.LBB248:
 2124 05e0 0523     		movs	r3, #5
 2125 05e2 CDE90039 		strd	r3, r9, [sp]
 2126 05e6 5246     		mov	r2, r10
 2127 05e8 4FF40033 		mov	r3, #131072
 2128 05ec 4FF40811 		mov	r1, #2228224
 2129 05f0 2046     		mov	r0, r4
 2130 05f2 FFF7FEFF 		bl	stm32f4_add_flash.part.4
 2131              	.LVL259:
 2132 05f6 E3E7     		b	.L134
 2133              	.L185:
 2134              		.align	2
 2135              	.L184:
 2136 05f8 227AFF1F 		.word	536836642
 2137 05fc 143C0240 		.word	1073888276
 2138 0600 00000208 		.word	134348800
 2139 0604 00000408 		.word	134479872
 2140              	.LBE248:
 2141              	.LBE250:
 2142              	.LBE278:
 2143              	.LBE280:
 2144              	.LBE282:
 2145              		.cfi_endproc
 2146              	.LFE267:
 2147              		.size	stm32f4_attach, .-stm32f4_attach
 2148              		.section	.text.stm32f4_get_chip_name,"ax",%progbits
 2149              		.align	1
 2150              		.p2align 4,,15
 2151              		.global	stm32f4_get_chip_name
 2152              		.syntax unified
 2153              		.thumb
 2154              		.thumb_func
 2155              		.fpu fpv4-sp-d16
 2156              		.type	stm32f4_get_chip_name, %function
 2157              	stm32f4_get_chip_name:
 2158              	.LFB264:
 2159              		.loc 1 154 0
 2160              		.cfi_startproc
 2161              		@ args = 0, pretend = 0, frame = 0
 2162              		@ frame_needed = 0, uses_anonymous_args = 0
 2163              		@ link register save eliminated.
 2164              	.LVL260:
 2165 0000 6FF48263 		mvn	r3, #1040
 2166 0004 1844     		add	r0, r0, r3
ARM GAS  /tmp/ccJYnsep.s 			page 39


 2167              	.LVL261:
 2168 0006 5228     		cmp	r0, #82
 2169 0008 9ABF     		itte	ls
 2170 000a 024B     		ldrls	r3, .L189
 2171 000c 53F82000 		ldrls	r0, [r3, r0, lsl #2]
 2172              	.LVL262:
 2173              		.loc 1 154 0
 2174 0010 0020     		movhi	r0, #0
 2175              		.loc 1 185 0
 2176 0012 7047     		bx	lr
 2177              	.L190:
 2178              		.align	2
 2179              	.L189:
 2180 0014 00000000 		.word	.LANCHOR0
 2181              		.cfi_endproc
 2182              	.LFE264:
 2183              		.size	stm32f4_get_chip_name, .-stm32f4_get_chip_name
 2184              		.section	.text.stm32f4_probe,"ax",%progbits
 2185              		.align	1
 2186              		.p2align 4,,15
 2187              		.global	stm32f4_probe
 2188              		.syntax unified
 2189              		.thumb
 2190              		.thumb_func
 2191              		.fpu fpv4-sp-d16
 2192              		.type	stm32f4_probe, %function
 2193              	stm32f4_probe:
 2194              	.LFB266:
 2195              		.loc 1 194 0
 2196              		.cfi_startproc
 2197              		@ args = 0, pretend = 0, frame = 0
 2198              		@ frame_needed = 0, uses_anonymous_args = 0
 2199              	.LVL263:
 2200 0000 38B5     		push	{r3, r4, r5, lr}
 2201              		.cfi_def_cfa_offset 16
 2202              		.cfi_offset 3, -16
 2203              		.cfi_offset 4, -12
 2204              		.cfi_offset 5, -8
 2205              		.cfi_offset 14, -4
 2206              		.loc 1 194 0
 2207 0002 0546     		mov	r5, r0
 2208              		.loc 1 195 0
 2209 0004 FFF7FEFF 		bl	cortexm_ap
 2210              	.LVL264:
 2211              		.loc 1 198 0
 2212 0008 4368     		ldr	r3, [r0, #4]
 2213 000a DC89     		ldrh	r4, [r3, #14]
 2214 000c C4F30B04 		ubfx	r4, r4, #0, #12
 2215              	.LVL265:
 2216              		.loc 1 199 0
 2217 0010 002C     		cmp	r4, #0
 2218 0012 43D0     		beq	.L203
 2219              		.loc 1 202 0
 2220 0014 40F21143 		movw	r3, #1041
 2221 0018 9C42     		cmp	r4, r3
 2222 001a 49D0     		beq	.L204
 2223              	.LVL266:
ARM GAS  /tmp/ccJYnsep.s 			page 40


 2224              	.L193:
 2225              		.loc 1 210 0
 2226 001c 6FF48263 		mvn	r3, #1040
 2227 0020 E318     		adds	r3, r4, r3
 2228 0022 522B     		cmp	r3, #82
 2229 0024 5AD8     		bhi	.L200
 2230 0026 DFE803F0 		tbb	[pc, r3]
 2231              	.L197:
 2232 002a 55       		.byte	(.L196-.L197)/2
 2233 002b 59       		.byte	(.L200-.L197)/2
 2234 002c 55       		.byte	(.L196-.L197)/2
 2235 002d 59       		.byte	(.L200-.L197)/2
 2236 002e 59       		.byte	(.L200-.L197)/2
 2237 002f 59       		.byte	(.L200-.L197)/2
 2238 0030 59       		.byte	(.L200-.L197)/2
 2239 0031 59       		.byte	(.L200-.L197)/2
 2240 0032 55       		.byte	(.L196-.L197)/2
 2241 0033 59       		.byte	(.L200-.L197)/2
 2242 0034 59       		.byte	(.L200-.L197)/2
 2243 0035 59       		.byte	(.L200-.L197)/2
 2244 0036 59       		.byte	(.L200-.L197)/2
 2245 0037 59       		.byte	(.L200-.L197)/2
 2246 0038 59       		.byte	(.L200-.L197)/2
 2247 0039 59       		.byte	(.L200-.L197)/2
 2248 003a 55       		.byte	(.L196-.L197)/2
 2249 003b 59       		.byte	(.L200-.L197)/2
 2250 003c 55       		.byte	(.L196-.L197)/2
 2251 003d 59       		.byte	(.L200-.L197)/2
 2252 003e 59       		.byte	(.L200-.L197)/2
 2253 003f 59       		.byte	(.L200-.L197)/2
 2254 0040 59       		.byte	(.L200-.L197)/2
 2255 0041 59       		.byte	(.L200-.L197)/2
 2256 0042 59       		.byte	(.L200-.L197)/2
 2257 0043 59       		.byte	(.L200-.L197)/2
 2258 0044 59       		.byte	(.L200-.L197)/2
 2259 0045 59       		.byte	(.L200-.L197)/2
 2260 0046 59       		.byte	(.L200-.L197)/2
 2261 0047 59       		.byte	(.L200-.L197)/2
 2262 0048 59       		.byte	(.L200-.L197)/2
 2263 0049 59       		.byte	(.L200-.L197)/2
 2264 004a 55       		.byte	(.L196-.L197)/2
 2265 004b 59       		.byte	(.L200-.L197)/2
 2266 004c 55       		.byte	(.L196-.L197)/2
 2267 004d 55       		.byte	(.L196-.L197)/2
 2268 004e 59       		.byte	(.L200-.L197)/2
 2269 004f 59       		.byte	(.L200-.L197)/2
 2270 0050 59       		.byte	(.L200-.L197)/2
 2271 0051 59       		.byte	(.L200-.L197)/2
 2272 0052 59       		.byte	(.L200-.L197)/2
 2273 0053 59       		.byte	(.L200-.L197)/2
 2274 0054 59       		.byte	(.L200-.L197)/2
 2275 0055 59       		.byte	(.L200-.L197)/2
 2276 0056 59       		.byte	(.L200-.L197)/2
 2277 0057 59       		.byte	(.L200-.L197)/2
 2278 0058 59       		.byte	(.L200-.L197)/2
 2279 0059 59       		.byte	(.L200-.L197)/2
 2280 005a 55       		.byte	(.L196-.L197)/2
ARM GAS  /tmp/ccJYnsep.s 			page 41


 2281 005b 59       		.byte	(.L200-.L197)/2
 2282 005c 59       		.byte	(.L200-.L197)/2
 2283 005d 59       		.byte	(.L200-.L197)/2
 2284 005e 59       		.byte	(.L200-.L197)/2
 2285 005f 59       		.byte	(.L200-.L197)/2
 2286 0060 59       		.byte	(.L200-.L197)/2
 2287 0061 59       		.byte	(.L200-.L197)/2
 2288 0062 2A       		.byte	(.L198-.L197)/2
 2289 0063 59       		.byte	(.L200-.L197)/2
 2290 0064 59       		.byte	(.L200-.L197)/2
 2291 0065 59       		.byte	(.L200-.L197)/2
 2292 0066 59       		.byte	(.L200-.L197)/2
 2293 0067 59       		.byte	(.L200-.L197)/2
 2294 0068 59       		.byte	(.L200-.L197)/2
 2295 0069 59       		.byte	(.L200-.L197)/2
 2296 006a 2A       		.byte	(.L198-.L197)/2
 2297 006b 2A       		.byte	(.L198-.L197)/2
 2298 006c 59       		.byte	(.L200-.L197)/2
 2299 006d 59       		.byte	(.L200-.L197)/2
 2300 006e 59       		.byte	(.L200-.L197)/2
 2301 006f 59       		.byte	(.L200-.L197)/2
 2302 0070 59       		.byte	(.L200-.L197)/2
 2303 0071 59       		.byte	(.L200-.L197)/2
 2304 0072 59       		.byte	(.L200-.L197)/2
 2305 0073 59       		.byte	(.L200-.L197)/2
 2306 0074 59       		.byte	(.L200-.L197)/2
 2307 0075 59       		.byte	(.L200-.L197)/2
 2308 0076 59       		.byte	(.L200-.L197)/2
 2309 0077 59       		.byte	(.L200-.L197)/2
 2310 0078 59       		.byte	(.L200-.L197)/2
 2311 0079 59       		.byte	(.L200-.L197)/2
 2312 007a 59       		.byte	(.L200-.L197)/2
 2313 007b 59       		.byte	(.L200-.L197)/2
 2314 007c 55       		.byte	(.L196-.L197)/2
 2315 007d 00       		.p2align 1
 2316              	.L198:
 2317 007e 184A     		ldr	r2, .L205
 2318              		.loc 1 214 0
 2319 0080 1849     		ldr	r1, .L205+4
 2320 0082 52F82320 		ldr	r2, [r2, r3, lsl #2]
 2321 0086 E960     		str	r1, [r5, #12]
 2322              	.LVL267:
 2323              	.L194:
 2324              		.loc 1 228 0
 2325 0088 174B     		ldr	r3, .L205+8
 2326              		.loc 1 226 0
 2327 008a 2C65     		str	r4, [r5, #80]
 2328              		.loc 1 229 0
 2329 008c 2846     		mov	r0, r5
 2330              		.loc 1 227 0
 2331 008e 2A66     		str	r2, [r5, #96]
 2332              		.loc 1 228 0
 2333 0090 AB60     		str	r3, [r5, #8]
 2334              		.loc 1 229 0
 2335 0092 1649     		ldr	r1, .L205+12
 2336 0094 FFF7FEFF 		bl	target_add_commands
 2337              	.LVL268:
ARM GAS  /tmp/ccJYnsep.s 			page 42


 2338              		.loc 1 230 0
 2339 0098 0120     		movs	r0, #1
 2340              		.loc 1 234 0
 2341 009a 38BD     		pop	{r3, r4, r5, pc}
 2342              	.LVL269:
 2343              	.L203:
 2344              		.loc 1 200 0
 2345 009c 1449     		ldr	r1, .L205+16
 2346 009e 2846     		mov	r0, r5
 2347              	.LVL270:
 2348 00a0 FFF7FEFF 		bl	target_mem_read32
 2349              	.LVL271:
 2350              		.loc 1 202 0
 2351 00a4 40F21143 		movw	r3, #1041
 2352              		.loc 1 200 0
 2353 00a8 C0F30B04 		ubfx	r4, r0, #0, #12
 2354              	.LVL272:
 2355              		.loc 1 202 0
 2356 00ac 9C42     		cmp	r4, r3
 2357 00ae B5D1     		bne	.L193
 2358              	.L204:
 2359              	.LBB283:
 2360              		.loc 1 206 0
 2361 00b0 1049     		ldr	r1, .L205+20
 2362 00b2 2846     		mov	r0, r5
 2363 00b4 FFF7FEFF 		bl	target_mem_read32
 2364              	.LVL273:
 2365              		.loc 1 207 0
 2366 00b8 4FF6F073 		movw	r3, #65520
 2367 00bc 1840     		ands	r0, r0, r3
 2368              	.LVL274:
 2369 00be 0E49     		ldr	r1, .L205+24
 2370 00c0 0E4A     		ldr	r2, .L205+28
 2371 00c2 4CF24023 		movw	r3, #49728
 2372 00c6 9842     		cmp	r0, r3
 2373 00c8 40F21343 		movw	r3, #1043
 2374 00cc 04BF     		itt	eq
 2375 00ce 0A46     		moveq	r2, r1
 2376 00d0 1C46     		moveq	r4, r3
 2377              	.LVL275:
 2378 00d2 D9E7     		b	.L194
 2379              	.LVL276:
 2380              	.L196:
 2381 00d4 024A     		ldr	r2, .L205
 2382 00d6 52F82320 		ldr	r2, [r2, r3, lsl #2]
 2383 00da D5E7     		b	.L194
 2384              	.L200:
 2385              	.LBE283:
 2386              		.loc 1 232 0
 2387 00dc 0020     		movs	r0, #0
 2388              		.loc 1 234 0
 2389 00de 38BD     		pop	{r3, r4, r5, pc}
 2390              	.LVL277:
 2391              	.L206:
 2392              		.align	2
 2393              	.L205:
 2394 00e0 00000000 		.word	.LANCHOR0
ARM GAS  /tmp/ccJYnsep.s 			page 43


 2395 00e4 00000000 		.word	stm32f7_detach
 2396 00e8 00000000 		.word	stm32f4_attach
 2397 00ec 00000000 		.word	.LANCHOR1
 2398 00f0 002004E0 		.word	-536600576
 2399 00f4 00ED00E0 		.word	-536810240
 2400 00f8 00000000 		.word	.LC14
 2401 00fc 0C000000 		.word	.LC15
 2402              		.cfi_endproc
 2403              	.LFE266:
 2404              		.size	stm32f4_probe, .-stm32f4_probe
 2405              		.section	.text.optcr_mask,"ax",%progbits
 2406              		.align	1
 2407              		.p2align 4,,15
 2408              		.global	optcr_mask
 2409              		.syntax unified
 2410              		.thumb
 2411              		.thumb_func
 2412              		.fpu fpv4-sp-d16
 2413              		.type	optcr_mask, %function
 2414              	optcr_mask:
 2415              	.LFB272:
 2416              		.loc 1 524 0
 2417              		.cfi_startproc
 2418              		@ args = 0, pretend = 0, frame = 0
 2419              		@ frame_needed = 0, uses_anonymous_args = 0
 2420              		@ link register save eliminated.
 2421              	.LVL278:
 2422              		.loc 1 525 0
 2423 0000 036D     		ldr	r3, [r0, #80]
 2424 0002 6FF48262 		mvn	r2, #1040
 2425 0006 1344     		add	r3, r3, r2
 2426 0008 522B     		cmp	r3, #82
 2427 000a 6BD8     		bhi	.L220
 2428 000c DFE803F0 		tbb	[pc, r3]
 2429              	.L210:
 2430 0010 2A       		.byte	(.L209-.L210)/2
 2431 0011 6A       		.byte	(.L220-.L210)/2
 2432 0012 2A       		.byte	(.L209-.L210)/2
 2433 0013 6A       		.byte	(.L220-.L210)/2
 2434 0014 6A       		.byte	(.L220-.L210)/2
 2435 0015 6A       		.byte	(.L220-.L210)/2
 2436 0016 6A       		.byte	(.L220-.L210)/2
 2437 0017 6A       		.byte	(.L220-.L210)/2
 2438 0018 60       		.byte	(.L211-.L210)/2
 2439 0019 6A       		.byte	(.L220-.L210)/2
 2440 001a 6A       		.byte	(.L220-.L210)/2
 2441 001b 6A       		.byte	(.L220-.L210)/2
 2442 001c 6A       		.byte	(.L220-.L210)/2
 2443 001d 6A       		.byte	(.L220-.L210)/2
 2444 001e 6A       		.byte	(.L220-.L210)/2
 2445 001f 6A       		.byte	(.L220-.L210)/2
 2446 0020 46       		.byte	(.L212-.L210)/2
 2447 0021 6A       		.byte	(.L220-.L210)/2
 2448 0022 4E       		.byte	(.L213-.L210)/2
 2449 0023 6A       		.byte	(.L220-.L210)/2
 2450 0024 6A       		.byte	(.L220-.L210)/2
 2451 0025 6A       		.byte	(.L220-.L210)/2
ARM GAS  /tmp/ccJYnsep.s 			page 44


 2452 0026 6A       		.byte	(.L220-.L210)/2
 2453 0027 6A       		.byte	(.L220-.L210)/2
 2454 0028 6A       		.byte	(.L220-.L210)/2
 2455 0029 6A       		.byte	(.L220-.L210)/2
 2456 002a 6A       		.byte	(.L220-.L210)/2
 2457 002b 6A       		.byte	(.L220-.L210)/2
 2458 002c 6A       		.byte	(.L220-.L210)/2
 2459 002d 6A       		.byte	(.L220-.L210)/2
 2460 002e 6A       		.byte	(.L220-.L210)/2
 2461 002f 6A       		.byte	(.L220-.L210)/2
 2462 0030 46       		.byte	(.L212-.L210)/2
 2463 0031 6A       		.byte	(.L220-.L210)/2
 2464 0032 46       		.byte	(.L212-.L210)/2
 2465 0033 60       		.byte	(.L211-.L210)/2
 2466 0034 6A       		.byte	(.L220-.L210)/2
 2467 0035 6A       		.byte	(.L220-.L210)/2
 2468 0036 6A       		.byte	(.L220-.L210)/2
 2469 0037 6A       		.byte	(.L220-.L210)/2
 2470 0038 6A       		.byte	(.L220-.L210)/2
 2471 0039 6A       		.byte	(.L220-.L210)/2
 2472 003a 6A       		.byte	(.L220-.L210)/2
 2473 003b 6A       		.byte	(.L220-.L210)/2
 2474 003c 6A       		.byte	(.L220-.L210)/2
 2475 003d 6A       		.byte	(.L220-.L210)/2
 2476 003e 6A       		.byte	(.L220-.L210)/2
 2477 003f 6A       		.byte	(.L220-.L210)/2
 2478 0040 3E       		.byte	(.L214-.L210)/2
 2479 0041 6A       		.byte	(.L220-.L210)/2
 2480 0042 6A       		.byte	(.L220-.L210)/2
 2481 0043 6A       		.byte	(.L220-.L210)/2
 2482 0044 6A       		.byte	(.L220-.L210)/2
 2483 0045 6A       		.byte	(.L220-.L210)/2
 2484 0046 6A       		.byte	(.L220-.L210)/2
 2485 0047 6A       		.byte	(.L220-.L210)/2
 2486 0048 38       		.byte	(.L215-.L210)/2
 2487 0049 6A       		.byte	(.L220-.L210)/2
 2488 004a 6A       		.byte	(.L220-.L210)/2
 2489 004b 6A       		.byte	(.L220-.L210)/2
 2490 004c 6A       		.byte	(.L220-.L210)/2
 2491 004d 6A       		.byte	(.L220-.L210)/2
 2492 004e 6A       		.byte	(.L220-.L210)/2
 2493 004f 6A       		.byte	(.L220-.L210)/2
 2494 0050 30       		.byte	(.L221-.L210)/2
 2495 0051 32       		.byte	(.L217-.L210)/2
 2496 0052 6A       		.byte	(.L220-.L210)/2
 2497 0053 6A       		.byte	(.L220-.L210)/2
 2498 0054 6A       		.byte	(.L220-.L210)/2
 2499 0055 6A       		.byte	(.L220-.L210)/2
 2500 0056 6A       		.byte	(.L220-.L210)/2
 2501 0057 54       		.byte	(.L218-.L210)/2
 2502 0058 6A       		.byte	(.L220-.L210)/2
 2503 0059 6A       		.byte	(.L220-.L210)/2
 2504 005a 6A       		.byte	(.L220-.L210)/2
 2505 005b 6A       		.byte	(.L220-.L210)/2
 2506 005c 6A       		.byte	(.L220-.L210)/2
 2507 005d 6A       		.byte	(.L220-.L210)/2
 2508 005e 6A       		.byte	(.L220-.L210)/2
ARM GAS  /tmp/ccJYnsep.s 			page 45


 2509 005f 6A       		.byte	(.L220-.L210)/2
 2510 0060 6A       		.byte	(.L220-.L210)/2
 2511 0061 6A       		.byte	(.L220-.L210)/2
 2512 0062 5A       		.byte	(.L219-.L210)/2
 2513 0063 00       		.p2align 1
 2514              	.L209:
 2515              		.loc 1 528 0
 2516 0064 0B68     		ldr	r3, [r1]
 2517 0066 23F07043 		bic	r3, r3, #-268435456
 2518 006a 23F01003 		bic	r3, r3, #16
 2519 006e 0B60     		str	r3, [r1]
 2520              	.L221:
 2521              		.loc 1 563 0
 2522 0070 0120     		movs	r0, #1
 2523              	.LVL279:
 2524              		.loc 1 529 0
 2525 0072 7047     		bx	lr
 2526              	.LVL280:
 2527              	.L217:
 2528              		.loc 1 553 0
 2529 0074 8B68     		ldr	r3, [r1, #8]
 2530 0076 23F00043 		bic	r3, r3, #-2147483648
 2531 007a 23F0FF03 		bic	r3, r3, #255
 2532 007e 8B60     		str	r3, [r1, #8]
 2533              	.L215:
 2534              		.loc 1 556 0
 2535 0080 0B68     		ldr	r3, [r1]
 2536 0082 23F07C53 		bic	r3, r3, #1056964608
 2537 0086 0B60     		str	r3, [r1]
 2538              		.loc 1 563 0
 2539 0088 0120     		movs	r0, #1
 2540              	.LVL281:
 2541              		.loc 1 557 0
 2542 008a 7047     		bx	lr
 2543              	.LVL282:
 2544              	.L214:
 2545              		.loc 1 547 0
 2546 008c 0B68     		ldr	r3, [r1]
 2547 008e 23F0E043 		bic	r3, r3, #1879048192
 2548 0092 23F01003 		bic	r3, r3, #16
 2549 0096 0B60     		str	r3, [r1]
 2550              		.loc 1 563 0
 2551 0098 0120     		movs	r0, #1
 2552              	.LVL283:
 2553              		.loc 1 548 0
 2554 009a 7047     		bx	lr
 2555              	.LVL284:
 2556              	.L212:
 2557              		.loc 1 541 0
 2558 009c 0B68     		ldr	r3, [r1]
 2559 009e 23F0FE43 		bic	r3, r3, #2130706432
 2560 00a2 23F01003 		bic	r3, r3, #16
 2561 00a6 0B60     		str	r3, [r1]
 2562              		.loc 1 563 0
 2563 00a8 0120     		movs	r0, #1
 2564              	.LVL285:
 2565              		.loc 1 542 0
ARM GAS  /tmp/ccJYnsep.s 			page 46


 2566 00aa 7047     		bx	lr
 2567              	.LVL286:
 2568              	.L213:
 2569              		.loc 1 536 0
 2570 00ac 0A68     		ldr	r2, [r1]
 2571 00ae 0E4B     		ldr	r3, .L222
 2572 00b0 1340     		ands	r3, r3, r2
 2573 00b2 0B60     		str	r3, [r1]
 2574              		.loc 1 563 0
 2575 00b4 0120     		movs	r0, #1
 2576              	.LVL287:
 2577              		.loc 1 537 0
 2578 00b6 7047     		bx	lr
 2579              	.LVL288:
 2580              	.L218:
 2581              		.loc 1 544 0
 2582 00b8 0A68     		ldr	r2, [r1]
 2583 00ba 0C4B     		ldr	r3, .L222+4
 2584 00bc 1340     		ands	r3, r3, r2
 2585 00be 0B60     		str	r3, [r1]
 2586              		.loc 1 563 0
 2587 00c0 0120     		movs	r0, #1
 2588              	.LVL289:
 2589              		.loc 1 545 0
 2590 00c2 7047     		bx	lr
 2591              	.LVL290:
 2592              	.L219:
 2593              		.loc 1 550 0
 2594 00c4 0B68     		ldr	r3, [r1]
 2595 00c6 23F01003 		bic	r3, r3, #16
 2596 00ca 0B60     		str	r3, [r1]
 2597              		.loc 1 563 0
 2598 00cc 0120     		movs	r0, #1
 2599              	.LVL291:
 2600              		.loc 1 551 0
 2601 00ce 7047     		bx	lr
 2602              	.LVL292:
 2603              	.L211:
 2604              		.loc 1 533 0
 2605 00d0 D1E90020 		ldrd	r2, r0, [r1]
 2606              	.LVL293:
 2607 00d4 064B     		ldr	r3, .L222+8
 2608              		.loc 1 532 0
 2609 00d6 22F04052 		bic	r2, r2, #805306368
 2610              		.loc 1 533 0
 2611 00da 0340     		ands	r3, r3, r0
 2612 00dc C1E90023 		strd	r2, r3, [r1]
 2613              		.loc 1 563 0
 2614 00e0 0120     		movs	r0, #1
 2615              		.loc 1 534 0
 2616 00e2 7047     		bx	lr
 2617              	.LVL294:
 2618              	.L220:
 2619              		.loc 1 561 0
 2620 00e4 0020     		movs	r0, #0
 2621              	.LVL295:
 2622              		.loc 1 564 0
ARM GAS  /tmp/ccJYnsep.s 			page 47


 2623 00e6 7047     		bx	lr
 2624              	.L223:
 2625              		.align	2
 2626              	.L222:
 2627 00e8 EFFF3F80 		.word	-2143289361
 2628 00ec EFFF1F80 		.word	-2145386513
 2629 00f0 0000FF0F 		.word	268369920
 2630              		.cfi_endproc
 2631              	.LFE272:
 2632              		.size	optcr_mask, .-optcr_mask
 2633              		.section	.text.stm32f4_cmd_option,"ax",%progbits
 2634              		.align	1
 2635              		.p2align 4,,15
 2636              		.syntax unified
 2637              		.thumb
 2638              		.thumb_func
 2639              		.fpu fpv4-sp-d16
 2640              		.type	stm32f4_cmd_option, %function
 2641              	stm32f4_cmd_option:
 2642              	.LFB275:
 2643              		.loc 1 625 0
 2644              		.cfi_startproc
 2645              		@ args = 0, pretend = 0, frame = 16
 2646              		@ frame_needed = 0, uses_anonymous_args = 0
 2647              	.LVL296:
 2648 0000 2DE9F04F 		push	{r4, r5, r6, r7, r8, r9, r10, fp, lr}
 2649              		.cfi_def_cfa_offset 36
 2650              		.cfi_offset 4, -36
 2651              		.cfi_offset 5, -32
 2652              		.cfi_offset 6, -28
 2653              		.cfi_offset 7, -24
 2654              		.cfi_offset 8, -20
 2655              		.cfi_offset 9, -16
 2656              		.cfi_offset 10, -12
 2657              		.cfi_offset 11, -8
 2658              		.cfi_offset 14, -4
 2659              		.loc 1 629 0
 2660 0004 066D     		ldr	r6, [r0, #80]
 2661 0006 40F24943 		movw	r3, #1097
 2662 000a 9E42     		cmp	r6, r3
 2663              		.loc 1 625 0
 2664 000c 85B0     		sub	sp, sp, #20
 2665              		.cfi_def_cfa_offset 56
 2666              		.loc 1 625 0
 2667 000e 0446     		mov	r4, r0
 2668 0010 8846     		mov	r8, r1
 2669 0012 9146     		mov	r9, r2
 2670              		.loc 1 629 0
 2671 0014 69D0     		beq	.L226
 2672 0016 6AD9     		bls	.L261
 2673 0018 40F25143 		movw	r3, #1105
 2674 001c 9E42     		cmp	r6, r3
 2675 001e 64D0     		beq	.L226
 2676 0020 40F25243 		movw	r3, #1106
 2677 0024 9E42     		cmp	r6, r3
 2678 0026 40F09580 		bne	.L225
 2679 002a 0327     		movs	r7, #3
ARM GAS  /tmp/ccJYnsep.s 			page 48


 2680              	.L229:
 2681              	.LVL297:
 2682              		.loc 1 638 0
 2683 002c DFF8E4A2 		ldr	r10, .L271+80
 2684              		.loc 1 636 0
 2685 0030 A44D     		ldr	r5, .L271
 2686              	.LVL298:
 2687              	.L228:
 2688              		.loc 1 644 0
 2689 0032 B8F1020F 		cmp	r8, #2
 2690 0036 6AD0     		beq	.L262
 2691              	.L230:
 2692              		.loc 1 647 0
 2693 0038 B8F1010F 		cmp	r8, #1
 2694 003c 08DD     		ble	.L242
 2695 003e A249     		ldr	r1, .L271+4
 2696              	.LVL299:
 2697 0040 D9F80400 		ldr	r0, [r9, #4]
 2698              	.LVL300:
 2699 0044 FFF7FEFF 		bl	strcmp
 2700              	.LVL301:
 2701 0048 0646     		mov	r6, r0
 2702 004a 0028     		cmp	r0, #0
 2703 004c 00F0E880 		beq	.L263
 2704              	.L242:
 2705              		.loc 1 663 0
 2706 0050 9E49     		ldr	r1, .L271+8
 2707 0052 2046     		mov	r0, r4
 2708 0054 FFF7FEFF 		bl	tc_printf
 2709              	.LVL302:
 2710              		.loc 1 664 0
 2711 0058 9D49     		ldr	r1, .L271+12
 2712 005a 2046     		mov	r0, r4
 2713 005c FFF7FEFF 		bl	tc_printf
 2714              	.LVL303:
 2715              		.loc 1 665 0
 2716 0060 012F     		cmp	r7, #1
 2717 0062 40F0AA80 		bne	.L264
 2718              	.L246:
 2719              		.loc 1 669 0
 2720 0066 9B49     		ldr	r1, .L271+16
 2721 0068 2046     		mov	r0, r4
 2722 006a FFF7FEFF 		bl	tc_printf
 2723              	.LVL304:
 2724 006e 01AE     		add	r6, sp, #4
 2725              	.LVL305:
 2726              	.L240:
 2727              		.loc 1 672 0
 2728 0070 5146     		mov	r1, r10
 2729 0072 2046     		mov	r0, r4
 2730 0074 FFF7FEFF 		bl	target_mem_read32
 2731              	.LVL306:
 2732              		.loc 1 673 0
 2733 0078 2946     		mov	r1, r5
 2734              		.loc 1 672 0
 2735 007a 0304     		lsls	r3, r0, #16
 2736              		.loc 1 673 0
ARM GAS  /tmp/ccJYnsep.s 			page 49


 2737 007c 2046     		mov	r0, r4
 2738              		.loc 1 672 0
 2739 007e 0193     		str	r3, [sp, #4]
 2740              		.loc 1 673 0
 2741 0080 FFF7FEFF 		bl	target_mem_read32
 2742              	.LVL307:
 2743 0084 019B     		ldr	r3, [sp, #4]
 2744 0086 80B2     		uxth	r0, r0
 2745 0088 0343     		orrs	r3, r3, r0
 2746              		.loc 1 674 0
 2747 008a 012F     		cmp	r7, #1
 2748              		.loc 1 673 0
 2749 008c 0193     		str	r3, [sp, #4]
 2750              		.loc 1 674 0
 2751 008e 00F08A80 		beq	.L248
 2752              		.loc 1 675 0
 2753 0092 914B     		ldr	r3, .L271+20
 2754 0094 9D42     		cmp	r5, r3
 2755 0096 00F09C80 		beq	.L265
 2756              		.loc 1 680 0
 2757 009a 05F11801 		add	r1, r5, #24
 2758 009e 2046     		mov	r0, r4
 2759 00a0 FFF7FEFF 		bl	target_mem_read32
 2760              	.LVL308:
 2761              		.loc 1 681 0
 2762 00a4 05F11001 		add	r1, r5, #16
 2763              		.loc 1 680 0
 2764 00a8 0304     		lsls	r3, r0, #16
 2765              		.loc 1 681 0
 2766 00aa 2046     		mov	r0, r4
 2767              		.loc 1 680 0
 2768 00ac 0293     		str	r3, [sp, #8]
 2769              		.loc 1 681 0
 2770 00ae FFF7FEFF 		bl	target_mem_read32
 2771              	.LVL309:
 2772 00b2 029B     		ldr	r3, [sp, #8]
 2773 00b4 80B2     		uxth	r0, r0
 2774 00b6 0343     		orrs	r3, r3, r0
 2775 00b8 0293     		str	r3, [sp, #8]
 2776              	.L250:
 2777              		.loc 1 684 0
 2778 00ba 032F     		cmp	r7, #3
 2779 00bc 4FD0     		beq	.L266
 2780              		.loc 1 688 0
 2781 00be 3146     		mov	r1, r6
 2782 00c0 2046     		mov	r0, r4
 2783 00c2 FFF7FEFF 		bl	optcr_mask
 2784              	.LVL310:
 2785              		.loc 1 689 0
 2786 00c6 019A     		ldr	r2, [sp, #4]
 2787 00c8 8449     		ldr	r1, .L271+24
 2788 00ca 2046     		mov	r0, r4
 2789 00cc FFF7FEFF 		bl	tc_printf
 2790              	.LVL311:
 2791              		.loc 1 691 0
 2792 00d0 029A     		ldr	r2, [sp, #8]
 2793 00d2 8349     		ldr	r1, .L271+28
ARM GAS  /tmp/ccJYnsep.s 			page 50


 2794 00d4 2046     		mov	r0, r4
 2795 00d6 FFF7FEFF 		bl	tc_printf
 2796              	.LVL312:
 2797              	.L254:
 2798              		.loc 1 694 0
 2799 00da 2046     		mov	r0, r4
 2800 00dc 7D49     		ldr	r1, .L271+16
 2801 00de FFF7FEFF 		bl	tc_printf
 2802              	.LVL313:
 2803              		.loc 1 696 0
 2804 00e2 0120     		movs	r0, #1
 2805 00e4 05B0     		add	sp, sp, #20
 2806              		.cfi_remember_state
 2807              		.cfi_def_cfa_offset 36
 2808              		@ sp needed
 2809 00e6 BDE8F08F 		pop	{r4, r5, r6, r7, r8, r9, r10, fp, pc}
 2810              	.LVL314:
 2811              	.L226:
 2812              		.cfi_restore_state
 2813              		.loc 1 629 0
 2814 00ea 0227     		movs	r7, #2
 2815 00ec 9EE7     		b	.L229
 2816              	.L261:
 2817 00ee 40F21943 		movw	r3, #1049
 2818 00f2 9E42     		cmp	r6, r3
 2819 00f4 03D0     		beq	.L255
 2820 00f6 40F23443 		movw	r3, #1076
 2821 00fa 9E42     		cmp	r6, r3
 2822 00fc 2AD1     		bne	.L225
 2823              	.L255:
 2824              		.loc 1 644 0
 2825 00fe B8F1020F 		cmp	r8, #2
 2826              		.loc 1 629 0
 2827 0102 DFF814A2 		ldr	r10, .L271+84
 2828              		.loc 1 626 0
 2829 0106 744D     		ldr	r5, .L271+20
 2830              		.loc 1 641 0
 2831 0108 4FF00207 		mov	r7, #2
 2832              	.LVL315:
 2833              		.loc 1 644 0
 2834 010c 94D1     		bne	.L230
 2835              	.L262:
 2836              		.loc 1 644 0 is_stmt 0 discriminator 1
 2837 010e D9F804B0 		ldr	fp, [r9, #4]
 2838 0112 7449     		ldr	r1, .L271+32
 2839              	.LVL316:
 2840 0114 5846     		mov	r0, fp
 2841              	.LVL317:
 2842 0116 FFF7FEFF 		bl	strcmp
 2843              	.LVL318:
 2844 011a 0028     		cmp	r0, #0
 2845 011c 65D0     		beq	.L267
 2846              		.loc 1 647 0 is_stmt 1 discriminator 1
 2847 011e 5846     		mov	r0, fp
 2848 0120 6949     		ldr	r1, .L271+4
 2849 0122 FFF7FEFF 		bl	strcmp
 2850              	.LVL319:
ARM GAS  /tmp/ccJYnsep.s 			page 51


 2851 0126 0246     		mov	r2, r0
 2852 0128 0028     		cmp	r0, #0
 2853 012a 91D1     		bne	.L242
 2854              		.loc 1 648 0
 2855 012c D9F80800 		ldr	r0, [r9, #8]
 2856 0130 1146     		mov	r1, r2
 2857 0132 FFF7FEFF 		bl	strtoul
 2858              	.LVL320:
 2859              		.loc 1 649 0
 2860 0136 4FF00108 		mov	r8, #1
 2861              	.LVL321:
 2862              		.loc 1 648 0
 2863 013a 0190     		str	r0, [sp, #4]
 2864              	.LVL322:
 2865              	.L243:
 2866              		.loc 1 658 0
 2867 013c 01AE     		add	r6, sp, #4
 2868 013e 3146     		mov	r1, r6
 2869 0140 2046     		mov	r0, r4
 2870 0142 FFF7FEFF 		bl	optcr_mask
 2871              	.LVL323:
 2872 0146 0028     		cmp	r0, #0
 2873 0148 4AD0     		beq	.L244
 2874              		.loc 1 659 0
 2875 014a 4246     		mov	r2, r8
 2876 014c 2046     		mov	r0, r4
 2877 014e FFF7FEFF 		bl	stm32f4_option_write
 2878              	.LVL324:
 2879 0152 8DE7     		b	.L240
 2880              	.LVL325:
 2881              	.L225:
 2882              		.loc 1 629 0
 2883 0154 DFF8C0A1 		ldr	r10, .L271+84
 2884              		.loc 1 626 0
 2885 0158 5F4D     		ldr	r5, .L271+20
 2886              		.loc 1 627 0
 2887 015a 0127     		movs	r7, #1
 2888 015c 69E7     		b	.L228
 2889              	.LVL326:
 2890              	.L266:
 2891              		.loc 1 685 0
 2892 015e 05F12801 		add	r1, r5, #40
 2893 0162 2046     		mov	r0, r4
 2894 0164 FFF7FEFF 		bl	target_mem_read32
 2895              	.LVL327:
 2896              		.loc 1 686 0
 2897 0168 05F12001 		add	r1, r5, #32
 2898              		.loc 1 685 0
 2899 016c 0304     		lsls	r3, r0, #16
 2900              		.loc 1 686 0
 2901 016e 2046     		mov	r0, r4
 2902              		.loc 1 685 0
 2903 0170 0393     		str	r3, [sp, #12]
 2904              		.loc 1 686 0
 2905 0172 FFF7FEFF 		bl	target_mem_read32
 2906              	.LVL328:
 2907 0176 039B     		ldr	r3, [sp, #12]
ARM GAS  /tmp/ccJYnsep.s 			page 52


 2908 0178 80B2     		uxth	r0, r0
 2909 017a 0343     		orrs	r3, r3, r0
 2910              		.loc 1 688 0
 2911 017c 3146     		mov	r1, r6
 2912 017e 2046     		mov	r0, r4
 2913              		.loc 1 686 0
 2914 0180 0393     		str	r3, [sp, #12]
 2915              		.loc 1 688 0
 2916 0182 FFF7FEFF 		bl	optcr_mask
 2917              	.LVL329:
 2918              		.loc 1 689 0
 2919 0186 019A     		ldr	r2, [sp, #4]
 2920 0188 5449     		ldr	r1, .L271+24
 2921 018a 2046     		mov	r0, r4
 2922 018c FFF7FEFF 		bl	tc_printf
 2923              	.LVL330:
 2924              		.loc 1 691 0
 2925 0190 029A     		ldr	r2, [sp, #8]
 2926 0192 5349     		ldr	r1, .L271+28
 2927 0194 2046     		mov	r0, r4
 2928 0196 FFF7FEFF 		bl	tc_printf
 2929              	.LVL331:
 2930              		.loc 1 693 0
 2931 019a 039A     		ldr	r2, [sp, #12]
 2932 019c 5249     		ldr	r1, .L271+36
 2933 019e 2046     		mov	r0, r4
 2934 01a0 FFF7FEFF 		bl	tc_printf
 2935              	.LVL332:
 2936 01a4 99E7     		b	.L254
 2937              	.L248:
 2938              		.loc 1 688 0
 2939 01a6 3146     		mov	r1, r6
 2940 01a8 2046     		mov	r0, r4
 2941 01aa FFF7FEFF 		bl	optcr_mask
 2942              	.LVL333:
 2943              		.loc 1 689 0
 2944 01ae 019A     		ldr	r2, [sp, #4]
 2945 01b0 4A49     		ldr	r1, .L271+24
 2946 01b2 2046     		mov	r0, r4
 2947 01b4 FFF7FEFF 		bl	tc_printf
 2948              	.LVL334:
 2949 01b8 8FE7     		b	.L254
 2950              	.LVL335:
 2951              	.L264:
 2952              		.loc 1 666 0
 2953 01ba 4C49     		ldr	r1, .L271+40
 2954 01bc 2046     		mov	r0, r4
 2955 01be FFF7FEFF 		bl	tc_printf
 2956              	.LVL336:
 2957              		.loc 1 667 0
 2958 01c2 032F     		cmp	r7, #3
 2959 01c4 7FF44FAF 		bne	.L246
 2960              		.loc 1 668 0
 2961 01c8 4949     		ldr	r1, .L271+44
 2962 01ca 2046     		mov	r0, r4
 2963 01cc FFF7FEFF 		bl	tc_printf
 2964              	.LVL337:
ARM GAS  /tmp/ccJYnsep.s 			page 53


 2965 01d0 49E7     		b	.L246
 2966              	.LVL338:
 2967              	.L265:
 2968              		.loc 1 676 0
 2969 01d2 4849     		ldr	r1, .L271+48
 2970 01d4 2046     		mov	r0, r4
 2971 01d6 FFF7FEFF 		bl	target_mem_read32
 2972              	.LVL339:
 2973              		.loc 1 678 0
 2974 01da 0004     		lsls	r0, r0, #16
 2975 01dc 0290     		str	r0, [sp, #8]
 2976 01de 6CE7     		b	.L250
 2977              	.LVL340:
 2978              	.L244:
 2979              		.loc 1 661 0
 2980 01e0 4549     		ldr	r1, .L271+52
 2981 01e2 2046     		mov	r0, r4
 2982 01e4 FFF7FEFF 		bl	tc_printf
 2983              	.LVL341:
 2984 01e8 42E7     		b	.L240
 2985              	.LVL342:
 2986              	.L267:
 2987              	.LBB286:
 2988              	.LBB287:
 2989              		.loc 1 596 0
 2990 01ea 40F24943 		movw	r3, #1097
 2991 01ee 9E42     		cmp	r6, r3
 2992 01f0 52D0     		beq	.L233
 2993 01f2 3ED9     		bls	.L268
 2994 01f4 40F25243 		movw	r3, #1106
 2995 01f8 9E42     		cmp	r6, r3
 2996 01fa 2CD0     		beq	.L236
 2997 01fc 40F26343 		movw	r3, #1123
 2998 0200 9E42     		cmp	r6, r3
 2999 0202 59D0     		beq	.L237
 3000 0204 40F25143 		movw	r3, #1105
 3001 0208 9E42     		cmp	r6, r3
 3002 020a 50D0     		beq	.L269
 3003              	.L232:
 3004              		.loc 1 619 0
 3005 020c 3B4B     		ldr	r3, .L271+56
 3006 020e 04AE     		add	r6, sp, #16
 3007              	.L259:
 3008 0210 46F80C3D 		str	r3, [r6, #-12]!
 3009              		.loc 1 620 0
 3010 0214 0122     		movs	r2, #1
 3011 0216 3146     		mov	r1, r6
 3012 0218 2046     		mov	r0, r4
 3013 021a FFF7FEFF 		bl	stm32f4_option_write
 3014              	.LVL343:
 3015 021e 27E7     		b	.L240
 3016              	.LVL344:
 3017              	.L263:
 3018              	.LBE287:
 3019              	.LBE286:
 3020              		.loc 1 648 0
 3021 0220 3246     		mov	r2, r6
ARM GAS  /tmp/ccJYnsep.s 			page 54


 3022 0222 3146     		mov	r1, r6
 3023 0224 D9F80800 		ldr	r0, [r9, #8]
 3024 0228 FFF7FEFF 		bl	strtoul
 3025              	.LVL345:
 3026              		.loc 1 651 0
 3027 022c 3246     		mov	r2, r6
 3028              		.loc 1 648 0
 3029 022e 0190     		str	r0, [sp, #4]
 3030              	.LVL346:
 3031              		.loc 1 651 0
 3032 0230 3146     		mov	r1, r6
 3033 0232 D9F80C00 		ldr	r0, [r9, #12]
 3034 0236 FFF7FEFF 		bl	strtoul
 3035              	.LVL347:
 3036              		.loc 1 654 0
 3037 023a B8F1030F 		cmp	r8, #3
 3038              		.loc 1 651 0
 3039 023e 0290     		str	r0, [sp, #8]
 3040              	.LVL348:
 3041              		.loc 1 654 0
 3042 0240 3DD0     		beq	.L270
 3043              		.loc 1 655 0
 3044 0242 D9F81000 		ldr	r0, [r9, #16]
 3045 0246 3246     		mov	r2, r6
 3046 0248 3146     		mov	r1, r6
 3047 024a FFF7FEFF 		bl	strtoul
 3048              	.LVL349:
 3049              		.loc 1 656 0
 3050 024e 4FF00308 		mov	r8, #3
 3051              	.LVL350:
 3052              		.loc 1 655 0
 3053 0252 0390     		str	r0, [sp, #12]
 3054              	.LVL351:
 3055 0254 72E7     		b	.L243
 3056              	.LVL352:
 3057              	.L236:
 3058              	.LBB289:
 3059              	.LBB288:
 3060              		.loc 1 606 0
 3061 0256 01AE     		add	r6, sp, #4
 3062              		.loc 1 603 0
 3063 0258 DFF8ACC0 		ldr	ip, .L271+68
 3064              		.loc 1 604 0
 3065 025c 284B     		ldr	r3, .L271+60
 3066              		.loc 1 605 0
 3067 025e 0390     		str	r0, [sp, #12]
 3068              		.loc 1 606 0
 3069 0260 3146     		mov	r1, r6
 3070 0262 0322     		movs	r2, #3
 3071 0264 2046     		mov	r0, r4
 3072              		.loc 1 603 0
 3073 0266 CDF804C0 		str	ip, [sp, #4]
 3074              		.loc 1 604 0
 3075 026a 0293     		str	r3, [sp, #8]
 3076              		.loc 1 606 0
 3077 026c FFF7FEFF 		bl	stm32f4_option_write
 3078              	.LVL353:
ARM GAS  /tmp/ccJYnsep.s 			page 55


 3079 0270 FEE6     		b	.L240
 3080              	.L268:
 3081              		.loc 1 596 0
 3082 0272 40F21943 		movw	r3, #1049
 3083 0276 9E42     		cmp	r6, r3
 3084 0278 03D0     		beq	.L235
 3085 027a 40F23443 		movw	r3, #1076
 3086 027e 9E42     		cmp	r6, r3
 3087 0280 C4D1     		bne	.L232
 3088              	.L235:
 3089              		.loc 1 601 0
 3090 0282 01AE     		add	r6, sp, #4
 3091              		.loc 1 599 0
 3092 0284 1D4A     		ldr	r2, .L271+56
 3093              		.loc 1 600 0
 3094 0286 1F4B     		ldr	r3, .L271+64
 3095              		.loc 1 599 0
 3096 0288 0192     		str	r2, [sp, #4]
 3097              		.loc 1 601 0
 3098 028a 3146     		mov	r1, r6
 3099 028c 0222     		movs	r2, #2
 3100 028e 2046     		mov	r0, r4
 3101              		.loc 1 600 0
 3102 0290 0293     		str	r3, [sp, #8]
 3103              		.loc 1 601 0
 3104 0292 FFF7FEFF 		bl	stm32f4_option_write
 3105              	.LVL354:
 3106 0296 EBE6     		b	.L240
 3107              	.L233:
 3108              		.loc 1 610 0
 3109 0298 01AE     		add	r6, sp, #4
 3110              		.loc 1 608 0
 3111 029a 1B48     		ldr	r0, .L271+68
 3112              		.loc 1 610 0
 3113 029c 4246     		mov	r2, r8
 3114 029e 3146     		mov	r1, r6
 3115              	.LVL355:
 3116              	.L260:
 3117              		.loc 1 613 0
 3118 02a0 174B     		ldr	r3, .L271+60
 3119              		.loc 1 612 0
 3120 02a2 0190     		str	r0, [sp, #4]
 3121              		.loc 1 614 0
 3122 02a4 2046     		mov	r0, r4
 3123              		.loc 1 613 0
 3124 02a6 0293     		str	r3, [sp, #8]
 3125              		.loc 1 614 0
 3126 02a8 FFF7FEFF 		bl	stm32f4_option_write
 3127              	.LVL356:
 3128 02ac E0E6     		b	.L240
 3129              	.L269:
 3130 02ae 01AE     		add	r6, sp, #4
 3131 02b0 4246     		mov	r2, r8
 3132 02b2 3146     		mov	r1, r6
 3133              		.loc 1 612 0
 3134 02b4 1548     		ldr	r0, .L271+72
 3135 02b6 F3E7     		b	.L260
ARM GAS  /tmp/ccJYnsep.s 			page 56


 3136              	.L237:
 3137              		.loc 1 616 0
 3138 02b8 04AE     		add	r6, sp, #16
 3139 02ba 154B     		ldr	r3, .L271+76
 3140 02bc A8E7     		b	.L259
 3141              	.LVL357:
 3142              	.L270:
 3143              	.LBE288:
 3144              	.LBE289:
 3145              		.loc 1 652 0
 3146 02be 4FF00208 		mov	r8, #2
 3147              	.LVL358:
 3148 02c2 3BE7     		b	.L243
 3149              	.L272:
 3150              		.align	2
 3151              	.L271:
 3152 02c4 0000FF1F 		.word	536805376
 3153 02c8 08000000 		.word	.LC17
 3154 02cc 18000000 		.word	.LC19
 3155 02d0 38000000 		.word	.LC20
 3156 02d4 74000000 		.word	.LC23
 3157 02d8 00C0FF1F 		.word	536854528
 3158 02dc 78000000 		.word	.LC24
 3159 02e0 88000000 		.word	.LC25
 3160 02e4 00000000 		.word	.LC16
 3161 02e8 9C000000 		.word	.LC26
 3162 02ec 5C000000 		.word	.LC21
 3163 02f0 68000000 		.word	.LC22
 3164 02f4 08C0FE1F 		.word	536789000
 3165 02f8 10000000 		.word	.LC18
 3166 02fc EDAAFF0F 		.word	268413677
 3167 0300 80004000 		.word	4194432
 3168 0304 0000FF0F 		.word	268369920
 3169 0308 FDAAFFC0 		.word	-1056986371
 3170 030c FDAAFFFF 		.word	-21763
 3171 0310 FDAAFF7F 		.word	2147461885
 3172 0314 0800FF1F 		.word	536805384
 3173 0318 08C0FF1F 		.word	536854536
 3174              		.cfi_endproc
 3175              	.LFE275:
 3176              		.size	stm32f4_cmd_option, .-stm32f4_cmd_option
 3177              		.global	stm32f4_cmd_list
 3178              		.section	.rodata.CSWTCH.16,"a",%progbits
 3179              		.align	2
 3180              		.set	.LANCHOR0,. + 0
 3181              		.type	CSWTCH.16, %object
 3182              		.size	CSWTCH.16, 332
 3183              	CSWTCH.16:
 3184 0000 0C000000 		.word	.LC15
 3185 0004 00000000 		.word	0
 3186 0008 00000000 		.word	.LC14
 3187 000c 00000000 		.word	0
 3188 0010 00000000 		.word	0
 3189 0014 00000000 		.word	0
 3190 0018 00000000 		.word	0
 3191 001c 00000000 		.word	0
 3192 0020 00000000 		.word	.LC27
ARM GAS  /tmp/ccJYnsep.s 			page 57


 3193 0024 00000000 		.word	0
 3194 0028 00000000 		.word	0
 3195 002c 00000000 		.word	0
 3196 0030 00000000 		.word	0
 3197 0034 00000000 		.word	0
 3198 0038 00000000 		.word	0
 3199 003c 00000000 		.word	0
 3200 0040 0C000000 		.word	.LC28
 3201 0044 00000000 		.word	0
 3202 0048 18000000 		.word	.LC29
 3203 004c 00000000 		.word	0
 3204 0050 00000000 		.word	0
 3205 0054 00000000 		.word	0
 3206 0058 00000000 		.word	0
 3207 005c 00000000 		.word	0
 3208 0060 00000000 		.word	0
 3209 0064 00000000 		.word	0
 3210 0068 00000000 		.word	0
 3211 006c 00000000 		.word	0
 3212 0070 00000000 		.word	0
 3213 0074 00000000 		.word	0
 3214 0078 00000000 		.word	0
 3215 007c 00000000 		.word	0
 3216 0080 24000000 		.word	.LC30
 3217 0084 00000000 		.word	0
 3218 0088 30000000 		.word	.LC31
 3219 008c 3C000000 		.word	.LC32
 3220 0090 00000000 		.word	0
 3221 0094 00000000 		.word	0
 3222 0098 00000000 		.word	0
 3223 009c 00000000 		.word	0
 3224 00a0 00000000 		.word	0
 3225 00a4 00000000 		.word	0
 3226 00a8 00000000 		.word	0
 3227 00ac 00000000 		.word	0
 3228 00b0 00000000 		.word	0
 3229 00b4 00000000 		.word	0
 3230 00b8 00000000 		.word	0
 3231 00bc 00000000 		.word	0
 3232 00c0 48000000 		.word	.LC33
 3233 00c4 00000000 		.word	0
 3234 00c8 00000000 		.word	0
 3235 00cc 00000000 		.word	0
 3236 00d0 00000000 		.word	0
 3237 00d4 00000000 		.word	0
 3238 00d8 00000000 		.word	0
 3239 00dc 00000000 		.word	0
 3240 00e0 54000000 		.word	.LC34
 3241 00e4 00000000 		.word	0
 3242 00e8 00000000 		.word	0
 3243 00ec 00000000 		.word	0
 3244 00f0 00000000 		.word	0
 3245 00f4 00000000 		.word	0
 3246 00f8 00000000 		.word	0
 3247 00fc 00000000 		.word	0
 3248 0100 60000000 		.word	.LC35
 3249 0104 6C000000 		.word	.LC36
ARM GAS  /tmp/ccJYnsep.s 			page 58


 3250 0108 00000000 		.word	0
 3251 010c 00000000 		.word	0
 3252 0110 00000000 		.word	0
 3253 0114 00000000 		.word	0
 3254 0118 00000000 		.word	0
 3255 011c 00000000 		.word	0
 3256 0120 00000000 		.word	0
 3257 0124 00000000 		.word	0
 3258 0128 00000000 		.word	0
 3259 012c 00000000 		.word	0
 3260 0130 00000000 		.word	0
 3261 0134 00000000 		.word	0
 3262 0138 00000000 		.word	0
 3263 013c 00000000 		.word	0
 3264 0140 00000000 		.word	0
 3265 0144 00000000 		.word	0
 3266 0148 78000000 		.word	.LC37
 3267              		.section	.rodata.stm32f4_cmd_erase_mass.str1.4,"aMS",%progbits,1
 3268              		.align	2
 3269              	.LC10:
 3270 0000 45726173 		.ascii	"Erasing flash... This may take a few seconds.  \000"
 3270      696E6720 
 3270      666C6173 
 3270      682E2E2E 
 3270      20546869 
 3271              	.LC11:
 3272 0030 54617267 		.ascii	"Target Error\000"
 3272      65742045 
 3272      72726F72 
 3272      00
 3273 003d 000000   		.space	3
 3274              	.LC12:
 3275 0040 53746174 		.ascii	"Status Error, %02X\000"
 3275      75732045 
 3275      72726F72 
 3275      2C202530 
 3275      325800
 3276 0053 00       		.space	1
 3277              	.LC13:
 3278 0054 454F5020 		.ascii	"EOP not set\000"
 3278      6E6F7420 
 3278      73657400 
 3279              		.section	.rodata.stm32f4_cmd_list,"a",%progbits
 3280              		.align	2
 3281              		.set	.LANCHOR1,. + 0
 3282              		.type	stm32f4_cmd_list, %object
 3283              		.size	stm32f4_cmd_list, 48
 3284              	stm32f4_cmd_list:
 3285 0000 84000000 		.word	.LC38
 3286 0004 00000000 		.word	stm32f4_cmd_erase_mass
 3287 0008 90000000 		.word	.LC39
 3288 000c AC000000 		.word	.LC40
 3289 0010 00000000 		.word	stm32f4_cmd_option
 3290 0014 B4000000 		.word	.LC41
 3291 0018 CC000000 		.word	.LC42
 3292 001c 00000000 		.word	stm32f4_cmd_psize
 3293 0020 D4000000 		.word	.LC43
ARM GAS  /tmp/ccJYnsep.s 			page 59


 3294 0024 00000000 		.word	0
 3295 0028 00000000 		.word	0
 3296 002c 00000000 		.word	0
 3297              		.section	.rodata.stm32f4_cmd_option.str1.4,"aMS",%progbits,1
 3298              		.align	2
 3299              	.LC16:
 3300 0000 65726173 		.ascii	"erase\000"
 3300      6500
 3301 0006 0000     		.space	2
 3302              	.LC17:
 3303 0008 77726974 		.ascii	"write\000"
 3303      6500
 3304 000e 0000     		.space	2
 3305              	.LC18:
 3306 0010 6572726F 		.ascii	"error\012\000"
 3306      720A00
 3307 0017 00       		.space	1
 3308              	.LC19:
 3309 0018 75736167 		.ascii	"usage: monitor option erase\012\000"
 3309      653A206D 
 3309      6F6E6974 
 3309      6F72206F 
 3309      7074696F 
 3310 0035 000000   		.space	3
 3311              	.LC20:
 3312 0038 75736167 		.ascii	"usage: monitor option write <OPTCR>\000"
 3312      653A206D 
 3312      6F6E6974 
 3312      6F72206F 
 3312      7074696F 
 3313              	.LC21:
 3314 005c 203C4F50 		.ascii	" <OPTCR1>\000"
 3314      54435231 
 3314      3E00
 3315 0066 0000     		.space	2
 3316              	.LC22:
 3317 0068 203C4F50 		.ascii	" <OPTCR2>\000"
 3317      54435232 
 3317      3E00
 3318 0072 0000     		.space	2
 3319              	.LC23:
 3320 0074 0A00     		.ascii	"\012\000"
 3321 0076 0000     		.space	2
 3322              	.LC24:
 3323 0078 4F505443 		.ascii	"OPTCR: 0x%08X \000"
 3323      523A2030 
 3323      78253038 
 3323      582000
 3324 0087 00       		.space	1
 3325              	.LC25:
 3326 0088 4F505443 		.ascii	"OPTCR1: 0x%08lx \000"
 3326      52313A20 
 3326      30782530 
 3326      386C7820 
 3326      00
 3327 0099 000000   		.space	3
 3328              	.LC26:
ARM GAS  /tmp/ccJYnsep.s 			page 60


 3329 009c 4F505443 		.ascii	"OPTCR2: 0x%08lx\000"
 3329      52323A20 
 3329      30782530 
 3329      386C7800 
 3330              		.section	.rodata.stm32f4_cmd_psize.str1.4,"aMS",%progbits,1
 3331              		.align	2
 3332              	.LC2:
 3333 0000 78333200 		.ascii	"x32\000"
 3334              	.LC3:
 3335 0004 78363400 		.ascii	"x64\000"
 3336              	.LC4:
 3337 0008 783800   		.ascii	"x8\000"
 3338 000b 00       		.space	1
 3339              	.LC5:
 3340 000c 78313600 		.ascii	"x16\000"
 3341              	.LC6:
 3342 0010 466C6173 		.ascii	"Flash write parallelism: %s\012\000"
 3342      68207772 
 3342      69746520 
 3342      70617261 
 3342      6C6C656C 
 3343 002d 000000   		.space	3
 3344              	.LC7:
 3345 0030 75736167 		.ascii	"usage: monitor psize (x8|x16|x32|x32)\012\000"
 3345      653A206D 
 3345      6F6E6974 
 3345      6F722070 
 3345      73697A65 
 3346              		.section	.rodata.stm32f4_flash_erase.str1.4,"aMS",%progbits,1
 3347              		.align	2
 3348              	.LC8:
 3349 0000 73746D33 		.ascii	"stm32f4 flash erase: comm error\012\000"
 3349      32663420 
 3349      666C6173 
 3349      68206572 
 3349      6173653A 
 3350 0021 000000   		.space	3
 3351              	.LC9:
 3352 0024 73746D33 		.ascii	"stm32f4 flash erase: sr error: 0x%lu\012\000"
 3352      32663420 
 3352      666C6173 
 3352      68206572 
 3352      6173653A 
 3353              		.section	.rodata.stm32f4_flash_write.str1.4,"aMS",%progbits,1
 3354              		.align	2
 3355              	.LC0:
 3356 0000 73746D33 		.ascii	"stm32f4 flash write: comm error\012\000"
 3356      32663420 
 3356      666C6173 
 3356      68207772 
 3356      6974653A 
 3357 0021 000000   		.space	3
 3358              	.LC1:
 3359 0024 73746D33 		.ascii	"stm32f4 flash write error 0x%lx\012\000"
 3359      32663420 
 3359      666C6173 
 3359      68207772 
ARM GAS  /tmp/ccJYnsep.s 			page 61


 3359      69746520 
 3360              		.section	.rodata.stm32f4_probe.str1.4,"aMS",%progbits,1
 3361              		.align	2
 3362              	.LC14:
 3363 0000 53544D33 		.ascii	"STM32F40x\000"
 3363      32463430 
 3363      7800
 3364 000a 0000     		.space	2
 3365              	.LC15:
 3366 000c 53544D33 		.ascii	"STM32F2\000"
 3366      32463200 
 3367              		.section	.rodata.str1.4,"aMS",%progbits,1
 3368              		.align	2
 3369              	.LC27:
 3370 0000 53544D33 		.ascii	"STM32F42x\000"
 3370      32463432 
 3370      7800
 3371 000a 0000     		.space	2
 3372              	.LC28:
 3373 000c 53544D33 		.ascii	"STM32F446\000"
 3373      32463434 
 3373      3600
 3374 0016 0000     		.space	2
 3375              	.LC29:
 3376 0018 53544D33 		.ascii	"STM32F401C\000"
 3376      32463430 
 3376      314300
 3377 0023 00       		.space	1
 3378              	.LC30:
 3379 0024 53544D33 		.ascii	"STM32F411\000"
 3379      32463431 
 3379      3100
 3380 002e 0000     		.space	2
 3381              	.LC31:
 3382 0030 53544D33 		.ascii	"STM32F401E\000"
 3382      32463430 
 3382      314500
 3383 003b 00       		.space	1
 3384              	.LC32:
 3385 003c 53544D33 		.ascii	"STM32F47x\000"
 3385      32463437 
 3385      7800
 3386 0046 0000     		.space	2
 3387              	.LC33:
 3388 0048 53544D33 		.ascii	"STM32F412\000"
 3388      32463431 
 3388      3200
 3389 0052 0000     		.space	2
 3390              	.LC34:
 3391 0054 53544D33 		.ascii	"STM32F74x\000"
 3391      32463734 
 3391      7800
 3392 005e 0000     		.space	2
 3393              	.LC35:
 3394 0060 53544D33 		.ascii	"STM32F76x\000"
 3394      32463736 
 3394      7800
ARM GAS  /tmp/ccJYnsep.s 			page 62


 3395 006a 0000     		.space	2
 3396              	.LC36:
 3397 006c 53544D33 		.ascii	"STM32F72x\000"
 3397      32463732 
 3397      7800
 3398 0076 0000     		.space	2
 3399              	.LC37:
 3400 0078 53544D33 		.ascii	"STM32F413\000"
 3400      32463431 
 3400      3300
 3401 0082 0000     		.space	2
 3402              	.LC38:
 3403 0084 65726173 		.ascii	"erase_mass\000"
 3403      655F6D61 
 3403      737300
 3404 008f 00       		.space	1
 3405              	.LC39:
 3406 0090 45726173 		.ascii	"Erase entire flash memory\000"
 3406      6520656E 
 3406      74697265 
 3406      20666C61 
 3406      7368206D 
 3407 00aa 0000     		.space	2
 3408              	.LC40:
 3409 00ac 6F707469 		.ascii	"option\000"
 3409      6F6E00
 3410 00b3 00       		.space	1
 3411              	.LC41:
 3412 00b4 4D616E69 		.ascii	"Manipulate option bytes\000"
 3412      70756C61 
 3412      7465206F 
 3412      7074696F 
 3412      6E206279 
 3413              	.LC42:
 3414 00cc 7073697A 		.ascii	"psize\000"
 3414      6500
 3415 00d2 0000     		.space	2
 3416              	.LC43:
 3417 00d4 436F6E66 		.ascii	"Configure flash write parallelism: (x8|x16|x32(defa"
 3417      69677572 
 3417      6520666C 
 3417      61736820 
 3417      77726974 
 3418 0107 756C7429 		.ascii	"ult)|x64)\000"
 3418      7C783634 
 3418      2900
 3419              		.text
 3420              	.Letext0:
 3421              		.file 2 "/usr/arm-none-eabi/include/machine/_default_types.h"
 3422              		.file 3 "/usr/arm-none-eabi/include/sys/_stdint.h"
 3423              		.file 4 "/usr/lib/gcc/arm-none-eabi/7.3.1/include/stddef.h"
 3424              		.file 5 "/usr/arm-none-eabi/include/sys/lock.h"
 3425              		.file 6 "/usr/arm-none-eabi/include/sys/_types.h"
 3426              		.file 7 "/usr/arm-none-eabi/include/sys/reent.h"
 3427              		.file 8 "/usr/arm-none-eabi/include/stdlib.h"
 3428              		.file 9 "/usr/lib/gcc/arm-none-eabi/7.3.1/include/stdarg.h"
 3429              		.file 10 "<built-in>"
ARM GAS  /tmp/ccJYnsep.s 			page 63


 3430              		.file 11 "/usr/arm-none-eabi/include/stdio.h"
 3431              		.file 12 "/usr/arm-none-eabi/include/sys/types.h"
 3432              		.file 13 "ChibiOS_3.0.5/os/rt/ports/ARMCMx/compilers/GCC/chtypes.h"
 3433              		.file 14 "ChibiOS_3.0.5/os/rt/include/chsystypes.h"
 3434              		.file 15 "ChibiOS_3.0.5/os/rt/include/chschd.h"
 3435              		.file 16 "ChibiOS_3.0.5/os/ext/CMSIS/include/core_cm4.h"
 3436              		.file 17 "ChibiOS_3.0.5/os/ext/CMSIS/ST/system_stm32f4xx.h"
 3437              		.file 18 "ChibiOS_3.0.5/os/ext/CMSIS/ST/stm32f407xx.h"
 3438              		.file 19 "ChibiOS_3.0.5/os/rt/ports/ARMCMx/chcore.h"
 3439              		.file 20 "ChibiOS_3.0.5/os/rt/ports/ARMCMx/chcore_v7m.h"
 3440              		.file 21 "ChibiOS_3.0.5/os/rt/include/chtm.h"
 3441              		.file 22 "ChibiOS_3.0.5/os/rt/include/chsem.h"
 3442              		.file 23 "ChibiOS_3.0.5/os/rt/include/chmtx.h"
 3443              		.file 24 "ChibiOS_3.0.5/os/rt/include/chregistry.h"
 3444              		.file 25 "ChibiOS_3.0.5/os/rt/include/chevents.h"
 3445              		.file 26 "ChibiOS_3.0.5/os/rt/include/chqueues.h"
 3446              		.file 27 "./datatypes.h"
 3447              		.file 28 "./conf_general.h"
 3448              		.file 29 "ChibiOS_3.0.5/os/hal/ports/STM32/STM32F4xx/stm32_dma.h"
 3449              		.file 30 "ChibiOS_3.0.5/os/hal/ports/STM32/LLD/GPIOv2/pal_lld.h"
 3450              		.file 31 "ChibiOS_3.0.5/os/hal/include/can.h"
 3451              		.file 32 "ChibiOS_3.0.5/os/hal/ports/STM32/LLD/can_lld.h"
 3452              		.file 33 "ChibiOS_3.0.5/os/hal/include/i2c.h"
 3453              		.file 34 "ChibiOS_3.0.5/os/hal/ports/STM32/LLD/I2Cv1/i2c_lld.h"
 3454              		.file 35 "ChibiOS_3.0.5/os/hal/include/icu.h"
 3455              		.file 36 "ChibiOS_3.0.5/os/hal/ports/STM32/LLD/TIMv1/icu_lld.h"
 3456              		.file 37 "ChibiOS_3.0.5/os/hal/ports/STM32/LLD/TIMv1/stm32_tim.h"
 3457              		.file 38 "ChibiOS_3.0.5/os/hal/include/serial.h"
 3458              		.file 39 "ChibiOS_3.0.5/os/hal/ports/STM32/LLD/USARTv1/serial_lld.h"
 3459              		.file 40 "ChibiOS_3.0.5/os/hal/include/spi.h"
 3460              		.file 41 "ChibiOS_3.0.5/os/hal/ports/STM32/LLD/SPIv1/spi_lld.h"
 3461              		.file 42 "ChibiOS_3.0.5/os/hal/include/usb.h"
 3462              		.file 43 "ChibiOS_3.0.5/os/hal/ports/STM32/LLD/OTGv1/usb_lld.h"
 3463              		.file 44 "ChibiOS_3.0.5/os/hal/ports/STM32/LLD/OTGv1/stm32_otg.h"
 3464              		.file 45 "./commands.h"
 3465              		.file 46 "blackmagic/platform.h"
 3466              		.file 47 "blackmagic/target.h"
 3467              		.file 48 "blackmagic/target/target_internal.h"
 3468              		.file 49 "blackmagic/target/jtag_scan.h"
 3469              		.file 50 "blackmagic/target/adiv5.h"
 3470              		.file 51 "blackmagic/target/cortexm.h"
 3471              		.file 52 "/usr/arm-none-eabi/include/string.h"
 3472              		.file 53 "blackmagic/platform_support.h"
 3473              		.section	.debug_info,"",%progbits
 3474              	.Ldebug_info0:
 3475 0000 B25C0000 		.4byte	0x5cb2
 3476 0004 0400     		.2byte	0x4
 3477 0006 00000000 		.4byte	.Ldebug_abbrev0
 3478 000a 04       		.byte	0x4
 3479 000b 01       		.uleb128 0x1
 3480 000c B40B0000 		.4byte	.LASF854
 3481 0010 0C       		.byte	0xc
 3482 0011 70130000 		.4byte	.LASF855
 3483 0015 D5220000 		.4byte	.LASF856
 3484 0019 20030000 		.4byte	.Ldebug_ranges0+0x320
 3485 001d 00000000 		.4byte	0
 3486 0021 00000000 		.4byte	.Ldebug_line0
ARM GAS  /tmp/ccJYnsep.s 			page 64


 3487 0025 02       		.uleb128 0x2
 3488 0026 01       		.byte	0x1
 3489 0027 06       		.byte	0x6
 3490 0028 50150000 		.4byte	.LASF0
 3491 002c 03       		.uleb128 0x3
 3492 002d F8000000 		.4byte	.LASF3
 3493 0031 02       		.byte	0x2
 3494 0032 2B       		.byte	0x2b
 3495 0033 37000000 		.4byte	0x37
 3496 0037 02       		.uleb128 0x2
 3497 0038 01       		.byte	0x1
 3498 0039 08       		.byte	0x8
 3499 003a 36090000 		.4byte	.LASF1
 3500 003e 02       		.uleb128 0x2
 3501 003f 02       		.byte	0x2
 3502 0040 05       		.byte	0x5
 3503 0041 74230000 		.4byte	.LASF2
 3504 0045 03       		.uleb128 0x3
 3505 0046 73070000 		.4byte	.LASF4
 3506 004a 02       		.byte	0x2
 3507 004b 39       		.byte	0x39
 3508 004c 50000000 		.4byte	0x50
 3509 0050 02       		.uleb128 0x2
 3510 0051 02       		.byte	0x2
 3511 0052 07       		.byte	0x7
 3512 0053 37150000 		.4byte	.LASF5
 3513 0057 03       		.uleb128 0x3
 3514 0058 021D0000 		.4byte	.LASF6
 3515 005c 02       		.byte	0x2
 3516 005d 4D       		.byte	0x4d
 3517 005e 62000000 		.4byte	0x62
 3518 0062 02       		.uleb128 0x2
 3519 0063 04       		.byte	0x4
 3520 0064 05       		.byte	0x5
 3521 0065 2A170000 		.4byte	.LASF7
 3522 0069 03       		.uleb128 0x3
 3523 006a 0C1D0000 		.4byte	.LASF8
 3524 006e 02       		.byte	0x2
 3525 006f 4F       		.byte	0x4f
 3526 0070 74000000 		.4byte	0x74
 3527 0074 02       		.uleb128 0x2
 3528 0075 04       		.byte	0x4
 3529 0076 07       		.byte	0x7
 3530 0077 E6180000 		.4byte	.LASF9
 3531 007b 02       		.uleb128 0x2
 3532 007c 08       		.byte	0x8
 3533 007d 05       		.byte	0x5
 3534 007e 33210000 		.4byte	.LASF10
 3535 0082 03       		.uleb128 0x3
 3536 0083 40110000 		.4byte	.LASF11
 3537 0087 02       		.byte	0x2
 3538 0088 69       		.byte	0x69
 3539 0089 8D000000 		.4byte	0x8d
 3540 008d 02       		.uleb128 0x2
 3541 008e 08       		.byte	0x8
 3542 008f 07       		.byte	0x7
 3543 0090 CF1E0000 		.4byte	.LASF12
ARM GAS  /tmp/ccJYnsep.s 			page 65


 3544 0094 04       		.uleb128 0x4
 3545 0095 04       		.byte	0x4
 3546 0096 05       		.byte	0x5
 3547 0097 696E7400 		.ascii	"int\000"
 3548 009b 02       		.uleb128 0x2
 3549 009c 04       		.byte	0x4
 3550 009d 07       		.byte	0x7
 3551 009e 12230000 		.4byte	.LASF13
 3552 00a2 03       		.uleb128 0x3
 3553 00a3 5B0E0000 		.4byte	.LASF14
 3554 00a7 03       		.byte	0x3
 3555 00a8 18       		.byte	0x18
 3556 00a9 2C000000 		.4byte	0x2c
 3557 00ad 05       		.uleb128 0x5
 3558 00ae A2000000 		.4byte	0xa2
 3559 00b2 03       		.uleb128 0x3
 3560 00b3 F1010000 		.4byte	.LASF15
 3561 00b7 03       		.byte	0x3
 3562 00b8 24       		.byte	0x24
 3563 00b9 45000000 		.4byte	0x45
 3564 00bd 03       		.uleb128 0x3
 3565 00be B3030000 		.4byte	.LASF16
 3566 00c2 03       		.byte	0x3
 3567 00c3 2C       		.byte	0x2c
 3568 00c4 57000000 		.4byte	0x57
 3569 00c8 06       		.uleb128 0x6
 3570 00c9 BD000000 		.4byte	0xbd
 3571 00cd 03       		.uleb128 0x3
 3572 00ce 45180000 		.4byte	.LASF17
 3573 00d2 03       		.byte	0x3
 3574 00d3 30       		.byte	0x30
 3575 00d4 69000000 		.4byte	0x69
 3576 00d8 06       		.uleb128 0x6
 3577 00d9 CD000000 		.4byte	0xcd
 3578 00dd 03       		.uleb128 0x3
 3579 00de BA0A0000 		.4byte	.LASF18
 3580 00e2 03       		.byte	0x3
 3581 00e3 3C       		.byte	0x3c
 3582 00e4 82000000 		.4byte	0x82
 3583 00e8 03       		.uleb128 0x3
 3584 00e9 340E0000 		.4byte	.LASF19
 3585 00ed 04       		.byte	0x4
 3586 00ee D8       		.byte	0xd8
 3587 00ef 9B000000 		.4byte	0x9b
 3588 00f3 06       		.uleb128 0x6
 3589 00f4 E8000000 		.4byte	0xe8
 3590 00f8 03       		.uleb128 0x3
 3591 00f9 35070000 		.4byte	.LASF20
 3592 00fd 05       		.byte	0x5
 3593 00fe 22       		.byte	0x22
 3594 00ff 03010000 		.4byte	0x103
 3595 0103 07       		.uleb128 0x7
 3596 0104 04       		.byte	0x4
 3597 0105 09010000 		.4byte	0x109
 3598 0109 08       		.uleb128 0x8
 3599 010a 5A050000 		.4byte	.LASF128
 3600 010e 03       		.uleb128 0x3
ARM GAS  /tmp/ccJYnsep.s 			page 66


 3601 010f F70D0000 		.4byte	.LASF21
 3602 0113 06       		.byte	0x6
 3603 0114 2C       		.byte	0x2c
 3604 0115 62000000 		.4byte	0x62
 3605 0119 03       		.uleb128 0x3
 3606 011a C30A0000 		.4byte	.LASF22
 3607 011e 06       		.byte	0x6
 3608 011f 58       		.byte	0x58
 3609 0120 69000000 		.4byte	0x69
 3610 0124 03       		.uleb128 0x3
 3611 0125 4D1C0000 		.4byte	.LASF23
 3612 0129 06       		.byte	0x6
 3613 012a 72       		.byte	0x72
 3614 012b 62000000 		.4byte	0x62
 3615 012f 09       		.uleb128 0x9
 3616 0130 E60F0000 		.4byte	.LASF24
 3617 0134 04       		.byte	0x4
 3618 0135 6501     		.2byte	0x165
 3619 0137 9B000000 		.4byte	0x9b
 3620 013b 0A       		.uleb128 0xa
 3621 013c 04       		.byte	0x4
 3622 013d 06       		.byte	0x6
 3623 013e A6       		.byte	0xa6
 3624 013f 5A010000 		.4byte	0x15a
 3625 0143 0B       		.uleb128 0xb
 3626 0144 BA160000 		.4byte	.LASF25
 3627 0148 06       		.byte	0x6
 3628 0149 A8       		.byte	0xa8
 3629 014a 2F010000 		.4byte	0x12f
 3630 014e 0B       		.uleb128 0xb
 3631 014f 850F0000 		.4byte	.LASF26
 3632 0153 06       		.byte	0x6
 3633 0154 A9       		.byte	0xa9
 3634 0155 5A010000 		.4byte	0x15a
 3635 0159 00       		.byte	0
 3636 015a 0C       		.uleb128 0xc
 3637 015b 37000000 		.4byte	0x37
 3638 015f 6A010000 		.4byte	0x16a
 3639 0163 0D       		.uleb128 0xd
 3640 0164 9B000000 		.4byte	0x9b
 3641 0168 03       		.byte	0x3
 3642 0169 00       		.byte	0
 3643 016a 0E       		.uleb128 0xe
 3644 016b 08       		.byte	0x8
 3645 016c 06       		.byte	0x6
 3646 016d A3       		.byte	0xa3
 3647 016e 8B010000 		.4byte	0x18b
 3648 0172 0F       		.uleb128 0xf
 3649 0173 530E0000 		.4byte	.LASF27
 3650 0177 06       		.byte	0x6
 3651 0178 A5       		.byte	0xa5
 3652 0179 94000000 		.4byte	0x94
 3653 017d 00       		.byte	0
 3654 017e 0F       		.uleb128 0xf
 3655 017f 441D0000 		.4byte	.LASF28
 3656 0183 06       		.byte	0x6
 3657 0184 AA       		.byte	0xaa
ARM GAS  /tmp/ccJYnsep.s 			page 67


 3658 0185 3B010000 		.4byte	0x13b
 3659 0189 04       		.byte	0x4
 3660 018a 00       		.byte	0
 3661 018b 03       		.uleb128 0x3
 3662 018c AD1C0000 		.4byte	.LASF29
 3663 0190 06       		.byte	0x6
 3664 0191 AB       		.byte	0xab
 3665 0192 6A010000 		.4byte	0x16a
 3666 0196 03       		.uleb128 0x3
 3667 0197 BA200000 		.4byte	.LASF30
 3668 019b 06       		.byte	0x6
 3669 019c AF       		.byte	0xaf
 3670 019d F8000000 		.4byte	0xf8
 3671 01a1 10       		.uleb128 0x10
 3672 01a2 04       		.byte	0x4
 3673 01a3 07       		.uleb128 0x7
 3674 01a4 04       		.byte	0x4
 3675 01a5 A9010000 		.4byte	0x1a9
 3676 01a9 02       		.uleb128 0x2
 3677 01aa 01       		.byte	0x1
 3678 01ab 08       		.byte	0x8
 3679 01ac AF190000 		.4byte	.LASF31
 3680 01b0 05       		.uleb128 0x5
 3681 01b1 A9010000 		.4byte	0x1a9
 3682 01b5 03       		.uleb128 0x3
 3683 01b6 E5130000 		.4byte	.LASF32
 3684 01ba 07       		.byte	0x7
 3685 01bb 16       		.byte	0x16
 3686 01bc 74000000 		.4byte	0x74
 3687 01c0 11       		.uleb128 0x11
 3688 01c1 541A0000 		.4byte	.LASF37
 3689 01c5 18       		.byte	0x18
 3690 01c6 07       		.byte	0x7
 3691 01c7 2F       		.byte	0x2f
 3692 01c8 13020000 		.4byte	0x213
 3693 01cc 0F       		.uleb128 0xf
 3694 01cd 4B110000 		.4byte	.LASF33
 3695 01d1 07       		.byte	0x7
 3696 01d2 31       		.byte	0x31
 3697 01d3 13020000 		.4byte	0x213
 3698 01d7 00       		.byte	0
 3699 01d8 12       		.uleb128 0x12
 3700 01d9 5F6B00   		.ascii	"_k\000"
 3701 01dc 07       		.byte	0x7
 3702 01dd 32       		.byte	0x32
 3703 01de 94000000 		.4byte	0x94
 3704 01e2 04       		.byte	0x4
 3705 01e3 0F       		.uleb128 0xf
 3706 01e4 6F180000 		.4byte	.LASF34
 3707 01e8 07       		.byte	0x7
 3708 01e9 32       		.byte	0x32
 3709 01ea 94000000 		.4byte	0x94
 3710 01ee 08       		.byte	0x8
 3711 01ef 0F       		.uleb128 0xf
 3712 01f0 B2220000 		.4byte	.LASF35
 3713 01f4 07       		.byte	0x7
 3714 01f5 32       		.byte	0x32
ARM GAS  /tmp/ccJYnsep.s 			page 68


 3715 01f6 94000000 		.4byte	0x94
 3716 01fa 0C       		.byte	0xc
 3717 01fb 0F       		.uleb128 0xf
 3718 01fc AE090000 		.4byte	.LASF36
 3719 0200 07       		.byte	0x7
 3720 0201 32       		.byte	0x32
 3721 0202 94000000 		.4byte	0x94
 3722 0206 10       		.byte	0x10
 3723 0207 12       		.uleb128 0x12
 3724 0208 5F7800   		.ascii	"_x\000"
 3725 020b 07       		.byte	0x7
 3726 020c 33       		.byte	0x33
 3727 020d 19020000 		.4byte	0x219
 3728 0211 14       		.byte	0x14
 3729 0212 00       		.byte	0
 3730 0213 07       		.uleb128 0x7
 3731 0214 04       		.byte	0x4
 3732 0215 C0010000 		.4byte	0x1c0
 3733 0219 0C       		.uleb128 0xc
 3734 021a B5010000 		.4byte	0x1b5
 3735 021e 29020000 		.4byte	0x229
 3736 0222 0D       		.uleb128 0xd
 3737 0223 9B000000 		.4byte	0x9b
 3738 0227 00       		.byte	0
 3739 0228 00       		.byte	0
 3740 0229 11       		.uleb128 0x11
 3741 022a 92060000 		.4byte	.LASF38
 3742 022e 24       		.byte	0x24
 3743 022f 07       		.byte	0x7
 3744 0230 37       		.byte	0x37
 3745 0231 A2020000 		.4byte	0x2a2
 3746 0235 0F       		.uleb128 0xf
 3747 0236 83120000 		.4byte	.LASF39
 3748 023a 07       		.byte	0x7
 3749 023b 39       		.byte	0x39
 3750 023c 94000000 		.4byte	0x94
 3751 0240 00       		.byte	0
 3752 0241 0F       		.uleb128 0xf
 3753 0242 CC220000 		.4byte	.LASF40
 3754 0246 07       		.byte	0x7
 3755 0247 3A       		.byte	0x3a
 3756 0248 94000000 		.4byte	0x94
 3757 024c 04       		.byte	0x4
 3758 024d 0F       		.uleb128 0xf
 3759 024e AF0F0000 		.4byte	.LASF41
 3760 0252 07       		.byte	0x7
 3761 0253 3B       		.byte	0x3b
 3762 0254 94000000 		.4byte	0x94
 3763 0258 08       		.byte	0x8
 3764 0259 0F       		.uleb128 0xf
 3765 025a 7F100000 		.4byte	.LASF42
 3766 025e 07       		.byte	0x7
 3767 025f 3C       		.byte	0x3c
 3768 0260 94000000 		.4byte	0x94
 3769 0264 0C       		.byte	0xc
 3770 0265 0F       		.uleb128 0xf
 3771 0266 83010000 		.4byte	.LASF43
ARM GAS  /tmp/ccJYnsep.s 			page 69


 3772 026a 07       		.byte	0x7
 3773 026b 3D       		.byte	0x3d
 3774 026c 94000000 		.4byte	0x94
 3775 0270 10       		.byte	0x10
 3776 0271 0F       		.uleb128 0xf
 3777 0272 1D0B0000 		.4byte	.LASF44
 3778 0276 07       		.byte	0x7
 3779 0277 3E       		.byte	0x3e
 3780 0278 94000000 		.4byte	0x94
 3781 027c 14       		.byte	0x14
 3782 027d 0F       		.uleb128 0xf
 3783 027e A7080000 		.4byte	.LASF45
 3784 0282 07       		.byte	0x7
 3785 0283 3F       		.byte	0x3f
 3786 0284 94000000 		.4byte	0x94
 3787 0288 18       		.byte	0x18
 3788 0289 0F       		.uleb128 0xf
 3789 028a 13070000 		.4byte	.LASF46
 3790 028e 07       		.byte	0x7
 3791 028f 40       		.byte	0x40
 3792 0290 94000000 		.4byte	0x94
 3793 0294 1C       		.byte	0x1c
 3794 0295 0F       		.uleb128 0xf
 3795 0296 B1080000 		.4byte	.LASF47
 3796 029a 07       		.byte	0x7
 3797 029b 41       		.byte	0x41
 3798 029c 94000000 		.4byte	0x94
 3799 02a0 20       		.byte	0x20
 3800 02a1 00       		.byte	0
 3801 02a2 13       		.uleb128 0x13
 3802 02a3 9A120000 		.4byte	.LASF48
 3803 02a7 0801     		.2byte	0x108
 3804 02a9 07       		.byte	0x7
 3805 02aa 4A       		.byte	0x4a
 3806 02ab E2020000 		.4byte	0x2e2
 3807 02af 0F       		.uleb128 0xf
 3808 02b0 AE100000 		.4byte	.LASF49
 3809 02b4 07       		.byte	0x7
 3810 02b5 4B       		.byte	0x4b
 3811 02b6 E2020000 		.4byte	0x2e2
 3812 02ba 00       		.byte	0
 3813 02bb 0F       		.uleb128 0xf
 3814 02bc 7C080000 		.4byte	.LASF50
 3815 02c0 07       		.byte	0x7
 3816 02c1 4C       		.byte	0x4c
 3817 02c2 E2020000 		.4byte	0x2e2
 3818 02c6 80       		.byte	0x80
 3819 02c7 14       		.uleb128 0x14
 3820 02c8 8C010000 		.4byte	.LASF51
 3821 02cc 07       		.byte	0x7
 3822 02cd 4E       		.byte	0x4e
 3823 02ce B5010000 		.4byte	0x1b5
 3824 02d2 0001     		.2byte	0x100
 3825 02d4 14       		.uleb128 0x14
 3826 02d5 621D0000 		.4byte	.LASF52
 3827 02d9 07       		.byte	0x7
 3828 02da 51       		.byte	0x51
ARM GAS  /tmp/ccJYnsep.s 			page 70


 3829 02db B5010000 		.4byte	0x1b5
 3830 02df 0401     		.2byte	0x104
 3831 02e1 00       		.byte	0
 3832 02e2 0C       		.uleb128 0xc
 3833 02e3 A1010000 		.4byte	0x1a1
 3834 02e7 F2020000 		.4byte	0x2f2
 3835 02eb 0D       		.uleb128 0xd
 3836 02ec 9B000000 		.4byte	0x9b
 3837 02f0 1F       		.byte	0x1f
 3838 02f1 00       		.byte	0
 3839 02f2 13       		.uleb128 0x13
 3840 02f3 1E010000 		.4byte	.LASF53
 3841 02f7 9001     		.2byte	0x190
 3842 02f9 07       		.byte	0x7
 3843 02fa 5D       		.byte	0x5d
 3844 02fb 30030000 		.4byte	0x330
 3845 02ff 0F       		.uleb128 0xf
 3846 0300 4B110000 		.4byte	.LASF33
 3847 0304 07       		.byte	0x7
 3848 0305 5E       		.byte	0x5e
 3849 0306 30030000 		.4byte	0x330
 3850 030a 00       		.byte	0
 3851 030b 0F       		.uleb128 0xf
 3852 030c BB010000 		.4byte	.LASF54
 3853 0310 07       		.byte	0x7
 3854 0311 5F       		.byte	0x5f
 3855 0312 94000000 		.4byte	0x94
 3856 0316 04       		.byte	0x4
 3857 0317 0F       		.uleb128 0xf
 3858 0318 8B1C0000 		.4byte	.LASF55
 3859 031c 07       		.byte	0x7
 3860 031d 61       		.byte	0x61
 3861 031e 36030000 		.4byte	0x336
 3862 0322 08       		.byte	0x8
 3863 0323 0F       		.uleb128 0xf
 3864 0324 9A120000 		.4byte	.LASF48
 3865 0328 07       		.byte	0x7
 3866 0329 62       		.byte	0x62
 3867 032a A2020000 		.4byte	0x2a2
 3868 032e 88       		.byte	0x88
 3869 032f 00       		.byte	0
 3870 0330 07       		.uleb128 0x7
 3871 0331 04       		.byte	0x4
 3872 0332 F2020000 		.4byte	0x2f2
 3873 0336 0C       		.uleb128 0xc
 3874 0337 46030000 		.4byte	0x346
 3875 033b 46030000 		.4byte	0x346
 3876 033f 0D       		.uleb128 0xd
 3877 0340 9B000000 		.4byte	0x9b
 3878 0344 1F       		.byte	0x1f
 3879 0345 00       		.byte	0
 3880 0346 07       		.uleb128 0x7
 3881 0347 04       		.byte	0x4
 3882 0348 4C030000 		.4byte	0x34c
 3883 034c 15       		.uleb128 0x15
 3884 034d 11       		.uleb128 0x11
 3885 034e 3C160000 		.4byte	.LASF56
ARM GAS  /tmp/ccJYnsep.s 			page 71


 3886 0352 08       		.byte	0x8
 3887 0353 07       		.byte	0x7
 3888 0354 75       		.byte	0x75
 3889 0355 72030000 		.4byte	0x372
 3890 0359 0F       		.uleb128 0xf
 3891 035a D6050000 		.4byte	.LASF57
 3892 035e 07       		.byte	0x7
 3893 035f 76       		.byte	0x76
 3894 0360 72030000 		.4byte	0x372
 3895 0364 00       		.byte	0
 3896 0365 0F       		.uleb128 0xf
 3897 0366 0D0A0000 		.4byte	.LASF58
 3898 036a 07       		.byte	0x7
 3899 036b 77       		.byte	0x77
 3900 036c 94000000 		.4byte	0x94
 3901 0370 04       		.byte	0x4
 3902 0371 00       		.byte	0
 3903 0372 07       		.uleb128 0x7
 3904 0373 04       		.byte	0x4
 3905 0374 37000000 		.4byte	0x37
 3906 0378 11       		.uleb128 0x11
 3907 0379 761C0000 		.4byte	.LASF59
 3908 037d 68       		.byte	0x68
 3909 037e 07       		.byte	0x7
 3910 037f B5       		.byte	0xb5
 3911 0380 A2040000 		.4byte	0x4a2
 3912 0384 12       		.uleb128 0x12
 3913 0385 5F7000   		.ascii	"_p\000"
 3914 0388 07       		.byte	0x7
 3915 0389 B6       		.byte	0xb6
 3916 038a 72030000 		.4byte	0x372
 3917 038e 00       		.byte	0
 3918 038f 12       		.uleb128 0x12
 3919 0390 5F7200   		.ascii	"_r\000"
 3920 0393 07       		.byte	0x7
 3921 0394 B7       		.byte	0xb7
 3922 0395 94000000 		.4byte	0x94
 3923 0399 04       		.byte	0x4
 3924 039a 12       		.uleb128 0x12
 3925 039b 5F7700   		.ascii	"_w\000"
 3926 039e 07       		.byte	0x7
 3927 039f B8       		.byte	0xb8
 3928 03a0 94000000 		.4byte	0x94
 3929 03a4 08       		.byte	0x8
 3930 03a5 0F       		.uleb128 0xf
 3931 03a6 17020000 		.4byte	.LASF60
 3932 03aa 07       		.byte	0x7
 3933 03ab B9       		.byte	0xb9
 3934 03ac 3E000000 		.4byte	0x3e
 3935 03b0 0C       		.byte	0xc
 3936 03b1 0F       		.uleb128 0xf
 3937 03b2 551C0000 		.4byte	.LASF61
 3938 03b6 07       		.byte	0x7
 3939 03b7 BA       		.byte	0xba
 3940 03b8 3E000000 		.4byte	0x3e
 3941 03bc 0E       		.byte	0xe
 3942 03bd 12       		.uleb128 0x12
ARM GAS  /tmp/ccJYnsep.s 			page 72


 3943 03be 5F626600 		.ascii	"_bf\000"
 3944 03c2 07       		.byte	0x7
 3945 03c3 BB       		.byte	0xbb
 3946 03c4 4D030000 		.4byte	0x34d
 3947 03c8 10       		.byte	0x10
 3948 03c9 0F       		.uleb128 0xf
 3949 03ca 50040000 		.4byte	.LASF62
 3950 03ce 07       		.byte	0x7
 3951 03cf BC       		.byte	0xbc
 3952 03d0 94000000 		.4byte	0x94
 3953 03d4 18       		.byte	0x18
 3954 03d5 0F       		.uleb128 0xf
 3955 03d6 AA110000 		.4byte	.LASF63
 3956 03da 07       		.byte	0x7
 3957 03db C3       		.byte	0xc3
 3958 03dc A1010000 		.4byte	0x1a1
 3959 03e0 1C       		.byte	0x1c
 3960 03e1 0F       		.uleb128 0xf
 3961 03e2 8C230000 		.4byte	.LASF64
 3962 03e6 07       		.byte	0x7
 3963 03e7 C5       		.byte	0xc5
 3964 03e8 FD050000 		.4byte	0x5fd
 3965 03ec 20       		.byte	0x20
 3966 03ed 0F       		.uleb128 0xf
 3967 03ee 730A0000 		.4byte	.LASF65
 3968 03f2 07       		.byte	0x7
 3969 03f3 C7       		.byte	0xc7
 3970 03f4 2C060000 		.4byte	0x62c
 3971 03f8 24       		.byte	0x24
 3972 03f9 0F       		.uleb128 0xf
 3973 03fa 10150000 		.4byte	.LASF66
 3974 03fe 07       		.byte	0x7
 3975 03ff CA       		.byte	0xca
 3976 0400 50060000 		.4byte	0x650
 3977 0404 28       		.byte	0x28
 3978 0405 0F       		.uleb128 0xf
 3979 0406 94190000 		.4byte	.LASF67
 3980 040a 07       		.byte	0x7
 3981 040b CB       		.byte	0xcb
 3982 040c 6A060000 		.4byte	0x66a
 3983 0410 2C       		.byte	0x2c
 3984 0411 12       		.uleb128 0x12
 3985 0412 5F756200 		.ascii	"_ub\000"
 3986 0416 07       		.byte	0x7
 3987 0417 CE       		.byte	0xce
 3988 0418 4D030000 		.4byte	0x34d
 3989 041c 30       		.byte	0x30
 3990 041d 12       		.uleb128 0x12
 3991 041e 5F757000 		.ascii	"_up\000"
 3992 0422 07       		.byte	0x7
 3993 0423 CF       		.byte	0xcf
 3994 0424 72030000 		.4byte	0x372
 3995 0428 38       		.byte	0x38
 3996 0429 12       		.uleb128 0x12
 3997 042a 5F757200 		.ascii	"_ur\000"
 3998 042e 07       		.byte	0x7
 3999 042f D0       		.byte	0xd0
ARM GAS  /tmp/ccJYnsep.s 			page 73


 4000 0430 94000000 		.4byte	0x94
 4001 0434 3C       		.byte	0x3c
 4002 0435 0F       		.uleb128 0xf
 4003 0436 C01B0000 		.4byte	.LASF68
 4004 043a 07       		.byte	0x7
 4005 043b D3       		.byte	0xd3
 4006 043c 70060000 		.4byte	0x670
 4007 0440 40       		.byte	0x40
 4008 0441 0F       		.uleb128 0xf
 4009 0442 BB020000 		.4byte	.LASF69
 4010 0446 07       		.byte	0x7
 4011 0447 D4       		.byte	0xd4
 4012 0448 80060000 		.4byte	0x680
 4013 044c 43       		.byte	0x43
 4014 044d 12       		.uleb128 0x12
 4015 044e 5F6C6200 		.ascii	"_lb\000"
 4016 0452 07       		.byte	0x7
 4017 0453 D7       		.byte	0xd7
 4018 0454 4D030000 		.4byte	0x34d
 4019 0458 44       		.byte	0x44
 4020 0459 0F       		.uleb128 0xf
 4021 045a AE1B0000 		.4byte	.LASF70
 4022 045e 07       		.byte	0x7
 4023 045f DA       		.byte	0xda
 4024 0460 94000000 		.4byte	0x94
 4025 0464 4C       		.byte	0x4c
 4026 0465 0F       		.uleb128 0xf
 4027 0466 F9150000 		.4byte	.LASF71
 4028 046a 07       		.byte	0x7
 4029 046b DB       		.byte	0xdb
 4030 046c 0E010000 		.4byte	0x10e
 4031 0470 50       		.byte	0x50
 4032 0471 0F       		.uleb128 0xf
 4033 0472 D0040000 		.4byte	.LASF72
 4034 0476 07       		.byte	0x7
 4035 0477 DE       		.byte	0xde
 4036 0478 C0040000 		.4byte	0x4c0
 4037 047c 54       		.byte	0x54
 4038 047d 0F       		.uleb128 0xf
 4039 047e B5020000 		.4byte	.LASF73
 4040 0482 07       		.byte	0x7
 4041 0483 E2       		.byte	0xe2
 4042 0484 96010000 		.4byte	0x196
 4043 0488 58       		.byte	0x58
 4044 0489 0F       		.uleb128 0xf
 4045 048a 15010000 		.4byte	.LASF74
 4046 048e 07       		.byte	0x7
 4047 048f E4       		.byte	0xe4
 4048 0490 8B010000 		.4byte	0x18b
 4049 0494 5C       		.byte	0x5c
 4050 0495 0F       		.uleb128 0xf
 4051 0496 56210000 		.4byte	.LASF75
 4052 049a 07       		.byte	0x7
 4053 049b E5       		.byte	0xe5
 4054 049c 94000000 		.4byte	0x94
 4055 04a0 64       		.byte	0x64
 4056 04a1 00       		.byte	0
ARM GAS  /tmp/ccJYnsep.s 			page 74


 4057 04a2 16       		.uleb128 0x16
 4058 04a3 94000000 		.4byte	0x94
 4059 04a7 C0040000 		.4byte	0x4c0
 4060 04ab 17       		.uleb128 0x17
 4061 04ac C0040000 		.4byte	0x4c0
 4062 04b0 17       		.uleb128 0x17
 4063 04b1 A1010000 		.4byte	0x1a1
 4064 04b5 17       		.uleb128 0x17
 4065 04b6 A3010000 		.4byte	0x1a3
 4066 04ba 17       		.uleb128 0x17
 4067 04bb 94000000 		.4byte	0x94
 4068 04bf 00       		.byte	0
 4069 04c0 07       		.uleb128 0x7
 4070 04c1 04       		.byte	0x4
 4071 04c2 CB040000 		.4byte	0x4cb
 4072 04c6 05       		.uleb128 0x5
 4073 04c7 C0040000 		.4byte	0x4c0
 4074 04cb 18       		.uleb128 0x18
 4075 04cc 70050000 		.4byte	.LASF76
 4076 04d0 2804     		.2byte	0x428
 4077 04d2 07       		.byte	0x7
 4078 04d3 6002     		.2byte	0x260
 4079 04d5 FD050000 		.4byte	0x5fd
 4080 04d9 19       		.uleb128 0x19
 4081 04da 64100000 		.4byte	.LASF77
 4082 04de 07       		.byte	0x7
 4083 04df 6202     		.2byte	0x262
 4084 04e1 94000000 		.4byte	0x94
 4085 04e5 00       		.byte	0
 4086 04e6 19       		.uleb128 0x19
 4087 04e7 550D0000 		.4byte	.LASF78
 4088 04eb 07       		.byte	0x7
 4089 04ec 6702     		.2byte	0x267
 4090 04ee D7060000 		.4byte	0x6d7
 4091 04f2 04       		.byte	0x4
 4092 04f3 19       		.uleb128 0x19
 4093 04f4 44090000 		.4byte	.LASF79
 4094 04f8 07       		.byte	0x7
 4095 04f9 6702     		.2byte	0x267
 4096 04fb D7060000 		.4byte	0x6d7
 4097 04ff 08       		.byte	0x8
 4098 0500 19       		.uleb128 0x19
 4099 0501 4D080000 		.4byte	.LASF80
 4100 0505 07       		.byte	0x7
 4101 0506 6702     		.2byte	0x267
 4102 0508 D7060000 		.4byte	0x6d7
 4103 050c 0C       		.byte	0xc
 4104 050d 19       		.uleb128 0x19
 4105 050e B6010000 		.4byte	.LASF81
 4106 0512 07       		.byte	0x7
 4107 0513 6902     		.2byte	0x269
 4108 0515 94000000 		.4byte	0x94
 4109 0519 10       		.byte	0x10
 4110 051a 19       		.uleb128 0x19
 4111 051b 92170000 		.4byte	.LASF82
 4112 051f 07       		.byte	0x7
 4113 0520 6A02     		.2byte	0x26a
ARM GAS  /tmp/ccJYnsep.s 			page 75


 4114 0522 B9080000 		.4byte	0x8b9
 4115 0526 14       		.byte	0x14
 4116 0527 19       		.uleb128 0x19
 4117 0528 29200000 		.4byte	.LASF83
 4118 052c 07       		.byte	0x7
 4119 052d 6D02     		.2byte	0x26d
 4120 052f 94000000 		.4byte	0x94
 4121 0533 30       		.byte	0x30
 4122 0534 19       		.uleb128 0x19
 4123 0535 8F210000 		.4byte	.LASF84
 4124 0539 07       		.byte	0x7
 4125 053a 6E02     		.2byte	0x26e
 4126 053c CE080000 		.4byte	0x8ce
 4127 0540 34       		.byte	0x34
 4128 0541 19       		.uleb128 0x19
 4129 0542 5C200000 		.4byte	.LASF85
 4130 0546 07       		.byte	0x7
 4131 0547 7002     		.2byte	0x270
 4132 0549 94000000 		.4byte	0x94
 4133 054d 38       		.byte	0x38
 4134 054e 19       		.uleb128 0x19
 4135 054f F61B0000 		.4byte	.LASF86
 4136 0553 07       		.byte	0x7
 4137 0554 7202     		.2byte	0x272
 4138 0556 DF080000 		.4byte	0x8df
 4139 055a 3C       		.byte	0x3c
 4140 055b 19       		.uleb128 0x19
 4141 055c 55080000 		.4byte	.LASF87
 4142 0560 07       		.byte	0x7
 4143 0561 7502     		.2byte	0x275
 4144 0563 13020000 		.4byte	0x213
 4145 0567 40       		.byte	0x40
 4146 0568 19       		.uleb128 0x19
 4147 0569 3E080000 		.4byte	.LASF88
 4148 056d 07       		.byte	0x7
 4149 056e 7602     		.2byte	0x276
 4150 0570 94000000 		.4byte	0x94
 4151 0574 44       		.byte	0x44
 4152 0575 19       		.uleb128 0x19
 4153 0576 AE1D0000 		.4byte	.LASF89
 4154 057a 07       		.byte	0x7
 4155 057b 7702     		.2byte	0x277
 4156 057d 13020000 		.4byte	0x213
 4157 0581 48       		.byte	0x48
 4158 0582 19       		.uleb128 0x19
 4159 0583 B4150000 		.4byte	.LASF90
 4160 0587 07       		.byte	0x7
 4161 0588 7802     		.2byte	0x278
 4162 058a E5080000 		.4byte	0x8e5
 4163 058e 4C       		.byte	0x4c
 4164 058f 19       		.uleb128 0x19
 4165 0590 56020000 		.4byte	.LASF91
 4166 0594 07       		.byte	0x7
 4167 0595 7B02     		.2byte	0x27b
 4168 0597 94000000 		.4byte	0x94
 4169 059b 50       		.byte	0x50
 4170 059c 19       		.uleb128 0x19
ARM GAS  /tmp/ccJYnsep.s 			page 76


 4171 059d DF0E0000 		.4byte	.LASF92
 4172 05a1 07       		.byte	0x7
 4173 05a2 7C02     		.2byte	0x27c
 4174 05a4 A3010000 		.4byte	0x1a3
 4175 05a8 54       		.byte	0x54
 4176 05a9 19       		.uleb128 0x19
 4177 05aa ED0F0000 		.4byte	.LASF93
 4178 05ae 07       		.byte	0x7
 4179 05af 9F02     		.2byte	0x29f
 4180 05b1 97080000 		.4byte	0x897
 4181 05b5 58       		.byte	0x58
 4182 05b6 1A       		.uleb128 0x1a
 4183 05b7 1E010000 		.4byte	.LASF53
 4184 05bb 07       		.byte	0x7
 4185 05bc A302     		.2byte	0x2a3
 4186 05be 30030000 		.4byte	0x330
 4187 05c2 4801     		.2byte	0x148
 4188 05c4 1A       		.uleb128 0x1a
 4189 05c5 8F1A0000 		.4byte	.LASF94
 4190 05c9 07       		.byte	0x7
 4191 05ca A402     		.2byte	0x2a4
 4192 05cc F2020000 		.4byte	0x2f2
 4193 05d0 4C01     		.2byte	0x14c
 4194 05d2 1A       		.uleb128 0x1a
 4195 05d3 7A020000 		.4byte	.LASF95
 4196 05d7 07       		.byte	0x7
 4197 05d8 A802     		.2byte	0x2a8
 4198 05da F6080000 		.4byte	0x8f6
 4199 05de DC02     		.2byte	0x2dc
 4200 05e0 1A       		.uleb128 0x1a
 4201 05e1 DA1B0000 		.4byte	.LASF96
 4202 05e5 07       		.byte	0x7
 4203 05e6 AD02     		.2byte	0x2ad
 4204 05e8 9C060000 		.4byte	0x69c
 4205 05ec E002     		.2byte	0x2e0
 4206 05ee 1A       		.uleb128 0x1a
 4207 05ef C8050000 		.4byte	.LASF97
 4208 05f3 07       		.byte	0x7
 4209 05f4 AF02     		.2byte	0x2af
 4210 05f6 02090000 		.4byte	0x902
 4211 05fa EC02     		.2byte	0x2ec
 4212 05fc 00       		.byte	0
 4213 05fd 07       		.uleb128 0x7
 4214 05fe 04       		.byte	0x4
 4215 05ff A2040000 		.4byte	0x4a2
 4216 0603 16       		.uleb128 0x16
 4217 0604 94000000 		.4byte	0x94
 4218 0608 21060000 		.4byte	0x621
 4219 060c 17       		.uleb128 0x17
 4220 060d C0040000 		.4byte	0x4c0
 4221 0611 17       		.uleb128 0x17
 4222 0612 A1010000 		.4byte	0x1a1
 4223 0616 17       		.uleb128 0x17
 4224 0617 21060000 		.4byte	0x621
 4225 061b 17       		.uleb128 0x17
 4226 061c 94000000 		.4byte	0x94
 4227 0620 00       		.byte	0
ARM GAS  /tmp/ccJYnsep.s 			page 77


 4228 0621 07       		.uleb128 0x7
 4229 0622 04       		.byte	0x4
 4230 0623 B0010000 		.4byte	0x1b0
 4231 0627 06       		.uleb128 0x6
 4232 0628 21060000 		.4byte	0x621
 4233 062c 07       		.uleb128 0x7
 4234 062d 04       		.byte	0x4
 4235 062e 03060000 		.4byte	0x603
 4236 0632 16       		.uleb128 0x16
 4237 0633 24010000 		.4byte	0x124
 4238 0637 50060000 		.4byte	0x650
 4239 063b 17       		.uleb128 0x17
 4240 063c C0040000 		.4byte	0x4c0
 4241 0640 17       		.uleb128 0x17
 4242 0641 A1010000 		.4byte	0x1a1
 4243 0645 17       		.uleb128 0x17
 4244 0646 24010000 		.4byte	0x124
 4245 064a 17       		.uleb128 0x17
 4246 064b 94000000 		.4byte	0x94
 4247 064f 00       		.byte	0
 4248 0650 07       		.uleb128 0x7
 4249 0651 04       		.byte	0x4
 4250 0652 32060000 		.4byte	0x632
 4251 0656 16       		.uleb128 0x16
 4252 0657 94000000 		.4byte	0x94
 4253 065b 6A060000 		.4byte	0x66a
 4254 065f 17       		.uleb128 0x17
 4255 0660 C0040000 		.4byte	0x4c0
 4256 0664 17       		.uleb128 0x17
 4257 0665 A1010000 		.4byte	0x1a1
 4258 0669 00       		.byte	0
 4259 066a 07       		.uleb128 0x7
 4260 066b 04       		.byte	0x4
 4261 066c 56060000 		.4byte	0x656
 4262 0670 0C       		.uleb128 0xc
 4263 0671 37000000 		.4byte	0x37
 4264 0675 80060000 		.4byte	0x680
 4265 0679 0D       		.uleb128 0xd
 4266 067a 9B000000 		.4byte	0x9b
 4267 067e 02       		.byte	0x2
 4268 067f 00       		.byte	0
 4269 0680 0C       		.uleb128 0xc
 4270 0681 37000000 		.4byte	0x37
 4271 0685 90060000 		.4byte	0x690
 4272 0689 0D       		.uleb128 0xd
 4273 068a 9B000000 		.4byte	0x9b
 4274 068e 00       		.byte	0
 4275 068f 00       		.byte	0
 4276 0690 09       		.uleb128 0x9
 4277 0691 8C220000 		.4byte	.LASF98
 4278 0695 07       		.byte	0x7
 4279 0696 1F01     		.2byte	0x11f
 4280 0698 78030000 		.4byte	0x378
 4281 069c 1B       		.uleb128 0x1b
 4282 069d CD190000 		.4byte	.LASF99
 4283 06a1 0C       		.byte	0xc
 4284 06a2 07       		.byte	0x7
ARM GAS  /tmp/ccJYnsep.s 			page 78


 4285 06a3 2301     		.2byte	0x123
 4286 06a5 D1060000 		.4byte	0x6d1
 4287 06a9 19       		.uleb128 0x19
 4288 06aa 4B110000 		.4byte	.LASF33
 4289 06ae 07       		.byte	0x7
 4290 06af 2501     		.2byte	0x125
 4291 06b1 D1060000 		.4byte	0x6d1
 4292 06b5 00       		.byte	0
 4293 06b6 19       		.uleb128 0x19
 4294 06b7 20100000 		.4byte	.LASF100
 4295 06bb 07       		.byte	0x7
 4296 06bc 2601     		.2byte	0x126
 4297 06be 94000000 		.4byte	0x94
 4298 06c2 04       		.byte	0x4
 4299 06c3 19       		.uleb128 0x19
 4300 06c4 8C170000 		.4byte	.LASF101
 4301 06c8 07       		.byte	0x7
 4302 06c9 2701     		.2byte	0x127
 4303 06cb D7060000 		.4byte	0x6d7
 4304 06cf 08       		.byte	0x8
 4305 06d0 00       		.byte	0
 4306 06d1 07       		.uleb128 0x7
 4307 06d2 04       		.byte	0x4
 4308 06d3 9C060000 		.4byte	0x69c
 4309 06d7 07       		.uleb128 0x7
 4310 06d8 04       		.byte	0x4
 4311 06d9 90060000 		.4byte	0x690
 4312 06dd 1B       		.uleb128 0x1b
 4313 06de D9230000 		.4byte	.LASF102
 4314 06e2 0E       		.byte	0xe
 4315 06e3 07       		.byte	0x7
 4316 06e4 3F01     		.2byte	0x13f
 4317 06e6 12070000 		.4byte	0x712
 4318 06ea 19       		.uleb128 0x19
 4319 06eb 04150000 		.4byte	.LASF103
 4320 06ef 07       		.byte	0x7
 4321 06f0 4001     		.2byte	0x140
 4322 06f2 12070000 		.4byte	0x712
 4323 06f6 00       		.byte	0
 4324 06f7 19       		.uleb128 0x19
 4325 06f8 8B0B0000 		.4byte	.LASF104
 4326 06fc 07       		.byte	0x7
 4327 06fd 4101     		.2byte	0x141
 4328 06ff 12070000 		.4byte	0x712
 4329 0703 06       		.byte	0x6
 4330 0704 19       		.uleb128 0x19
 4331 0705 EF030000 		.4byte	.LASF105
 4332 0709 07       		.byte	0x7
 4333 070a 4201     		.2byte	0x142
 4334 070c 50000000 		.4byte	0x50
 4335 0710 0C       		.byte	0xc
 4336 0711 00       		.byte	0
 4337 0712 0C       		.uleb128 0xc
 4338 0713 50000000 		.4byte	0x50
 4339 0717 22070000 		.4byte	0x722
 4340 071b 0D       		.uleb128 0xd
 4341 071c 9B000000 		.4byte	0x9b
ARM GAS  /tmp/ccJYnsep.s 			page 79


 4342 0720 02       		.byte	0x2
 4343 0721 00       		.byte	0
 4344 0722 1C       		.uleb128 0x1c
 4345 0723 D0       		.byte	0xd0
 4346 0724 07       		.byte	0x7
 4347 0725 8002     		.2byte	0x280
 4348 0727 23080000 		.4byte	0x823
 4349 072b 19       		.uleb128 0x19
 4350 072c 8D070000 		.4byte	.LASF106
 4351 0730 07       		.byte	0x7
 4352 0731 8202     		.2byte	0x282
 4353 0733 9B000000 		.4byte	0x9b
 4354 0737 00       		.byte	0
 4355 0738 19       		.uleb128 0x19
 4356 0739 A9140000 		.4byte	.LASF107
 4357 073d 07       		.byte	0x7
 4358 073e 8302     		.2byte	0x283
 4359 0740 A3010000 		.4byte	0x1a3
 4360 0744 04       		.byte	0x4
 4361 0745 19       		.uleb128 0x19
 4362 0746 93160000 		.4byte	.LASF108
 4363 074a 07       		.byte	0x7
 4364 074b 8402     		.2byte	0x284
 4365 074d 23080000 		.4byte	0x823
 4366 0751 08       		.byte	0x8
 4367 0752 19       		.uleb128 0x19
 4368 0753 3B0E0000 		.4byte	.LASF109
 4369 0757 07       		.byte	0x7
 4370 0758 8502     		.2byte	0x285
 4371 075a 29020000 		.4byte	0x229
 4372 075e 24       		.byte	0x24
 4373 075f 19       		.uleb128 0x19
 4374 0760 251F0000 		.4byte	.LASF110
 4375 0764 07       		.byte	0x7
 4376 0765 8602     		.2byte	0x286
 4377 0767 94000000 		.4byte	0x94
 4378 076b 48       		.byte	0x48
 4379 076c 19       		.uleb128 0x19
 4380 076d E3170000 		.4byte	.LASF111
 4381 0771 07       		.byte	0x7
 4382 0772 8702     		.2byte	0x287
 4383 0774 8D000000 		.4byte	0x8d
 4384 0778 50       		.byte	0x50
 4385 0779 19       		.uleb128 0x19
 4386 077a 1F230000 		.4byte	.LASF112
 4387 077e 07       		.byte	0x7
 4388 077f 8802     		.2byte	0x288
 4389 0781 DD060000 		.4byte	0x6dd
 4390 0785 58       		.byte	0x58
 4391 0786 19       		.uleb128 0x19
 4392 0787 CD1B0000 		.4byte	.LASF113
 4393 078b 07       		.byte	0x7
 4394 078c 8902     		.2byte	0x289
 4395 078e 8B010000 		.4byte	0x18b
 4396 0792 68       		.byte	0x68
 4397 0793 19       		.uleb128 0x19
 4398 0794 E4050000 		.4byte	.LASF114
ARM GAS  /tmp/ccJYnsep.s 			page 80


 4399 0798 07       		.byte	0x7
 4400 0799 8A02     		.2byte	0x28a
 4401 079b 8B010000 		.4byte	0x18b
 4402 079f 70       		.byte	0x70
 4403 07a0 19       		.uleb128 0x19
 4404 07a1 4D170000 		.4byte	.LASF115
 4405 07a5 07       		.byte	0x7
 4406 07a6 8B02     		.2byte	0x28b
 4407 07a8 8B010000 		.4byte	0x18b
 4408 07ac 78       		.byte	0x78
 4409 07ad 19       		.uleb128 0x19
 4410 07ae 57160000 		.4byte	.LASF116
 4411 07b2 07       		.byte	0x7
 4412 07b3 8C02     		.2byte	0x28c
 4413 07b5 33080000 		.4byte	0x833
 4414 07b9 80       		.byte	0x80
 4415 07ba 19       		.uleb128 0x19
 4416 07bb 65110000 		.4byte	.LASF117
 4417 07bf 07       		.byte	0x7
 4418 07c0 8D02     		.2byte	0x28d
 4419 07c2 43080000 		.4byte	0x843
 4420 07c6 88       		.byte	0x88
 4421 07c7 19       		.uleb128 0x19
 4422 07c8 E01A0000 		.4byte	.LASF118
 4423 07cc 07       		.byte	0x7
 4424 07cd 8E02     		.2byte	0x28e
 4425 07cf 94000000 		.4byte	0x94
 4426 07d3 A0       		.byte	0xa0
 4427 07d4 19       		.uleb128 0x19
 4428 07d5 D80C0000 		.4byte	.LASF119
 4429 07d9 07       		.byte	0x7
 4430 07da 8F02     		.2byte	0x28f
 4431 07dc 8B010000 		.4byte	0x18b
 4432 07e0 A4       		.byte	0xa4
 4433 07e1 19       		.uleb128 0x19
 4434 07e2 8C0F0000 		.4byte	.LASF120
 4435 07e6 07       		.byte	0x7
 4436 07e7 9002     		.2byte	0x290
 4437 07e9 8B010000 		.4byte	0x18b
 4438 07ed AC       		.byte	0xac
 4439 07ee 19       		.uleb128 0x19
 4440 07ef 9D090000 		.4byte	.LASF121
 4441 07f3 07       		.byte	0x7
 4442 07f4 9102     		.2byte	0x291
 4443 07f6 8B010000 		.4byte	0x18b
 4444 07fa B4       		.byte	0xb4
 4445 07fb 19       		.uleb128 0x19
 4446 07fc 0D130000 		.4byte	.LASF122
 4447 0800 07       		.byte	0x7
 4448 0801 9202     		.2byte	0x292
 4449 0803 8B010000 		.4byte	0x18b
 4450 0807 BC       		.byte	0xbc
 4451 0808 19       		.uleb128 0x19
 4452 0809 CD160000 		.4byte	.LASF123
 4453 080d 07       		.byte	0x7
 4454 080e 9302     		.2byte	0x293
 4455 0810 8B010000 		.4byte	0x18b
ARM GAS  /tmp/ccJYnsep.s 			page 81


 4456 0814 C4       		.byte	0xc4
 4457 0815 19       		.uleb128 0x19
 4458 0816 B81C0000 		.4byte	.LASF124
 4459 081a 07       		.byte	0x7
 4460 081b 9402     		.2byte	0x294
 4461 081d 94000000 		.4byte	0x94
 4462 0821 CC       		.byte	0xcc
 4463 0822 00       		.byte	0
 4464 0823 0C       		.uleb128 0xc
 4465 0824 A9010000 		.4byte	0x1a9
 4466 0828 33080000 		.4byte	0x833
 4467 082c 0D       		.uleb128 0xd
 4468 082d 9B000000 		.4byte	0x9b
 4469 0831 19       		.byte	0x19
 4470 0832 00       		.byte	0
 4471 0833 0C       		.uleb128 0xc
 4472 0834 A9010000 		.4byte	0x1a9
 4473 0838 43080000 		.4byte	0x843
 4474 083c 0D       		.uleb128 0xd
 4475 083d 9B000000 		.4byte	0x9b
 4476 0841 07       		.byte	0x7
 4477 0842 00       		.byte	0
 4478 0843 0C       		.uleb128 0xc
 4479 0844 A9010000 		.4byte	0x1a9
 4480 0848 53080000 		.4byte	0x853
 4481 084c 0D       		.uleb128 0xd
 4482 084d 9B000000 		.4byte	0x9b
 4483 0851 17       		.byte	0x17
 4484 0852 00       		.byte	0
 4485 0853 1C       		.uleb128 0x1c
 4486 0854 F0       		.byte	0xf0
 4487 0855 07       		.byte	0x7
 4488 0856 9902     		.2byte	0x299
 4489 0858 77080000 		.4byte	0x877
 4490 085c 19       		.uleb128 0x19
 4491 085d C9170000 		.4byte	.LASF125
 4492 0861 07       		.byte	0x7
 4493 0862 9C02     		.2byte	0x29c
 4494 0864 77080000 		.4byte	0x877
 4495 0868 00       		.byte	0
 4496 0869 19       		.uleb128 0x19
 4497 086a 5C0D0000 		.4byte	.LASF126
 4498 086e 07       		.byte	0x7
 4499 086f 9D02     		.2byte	0x29d
 4500 0871 87080000 		.4byte	0x887
 4501 0875 78       		.byte	0x78
 4502 0876 00       		.byte	0
 4503 0877 0C       		.uleb128 0xc
 4504 0878 72030000 		.4byte	0x372
 4505 087c 87080000 		.4byte	0x887
 4506 0880 0D       		.uleb128 0xd
 4507 0881 9B000000 		.4byte	0x9b
 4508 0885 1D       		.byte	0x1d
 4509 0886 00       		.byte	0
 4510 0887 0C       		.uleb128 0xc
 4511 0888 9B000000 		.4byte	0x9b
 4512 088c 97080000 		.4byte	0x897
ARM GAS  /tmp/ccJYnsep.s 			page 82


 4513 0890 0D       		.uleb128 0xd
 4514 0891 9B000000 		.4byte	0x9b
 4515 0895 1D       		.byte	0x1d
 4516 0896 00       		.byte	0
 4517 0897 1D       		.uleb128 0x1d
 4518 0898 F0       		.byte	0xf0
 4519 0899 07       		.byte	0x7
 4520 089a 7E02     		.2byte	0x27e
 4521 089c B9080000 		.4byte	0x8b9
 4522 08a0 1E       		.uleb128 0x1e
 4523 08a1 70050000 		.4byte	.LASF76
 4524 08a5 07       		.byte	0x7
 4525 08a6 9502     		.2byte	0x295
 4526 08a8 22070000 		.4byte	0x722
 4527 08ac 1E       		.uleb128 0x1e
 4528 08ad D7020000 		.4byte	.LASF127
 4529 08b1 07       		.byte	0x7
 4530 08b2 9E02     		.2byte	0x29e
 4531 08b4 53080000 		.4byte	0x853
 4532 08b8 00       		.byte	0
 4533 08b9 0C       		.uleb128 0xc
 4534 08ba A9010000 		.4byte	0x1a9
 4535 08be C9080000 		.4byte	0x8c9
 4536 08c2 0D       		.uleb128 0xd
 4537 08c3 9B000000 		.4byte	0x9b
 4538 08c7 18       		.byte	0x18
 4539 08c8 00       		.byte	0
 4540 08c9 08       		.uleb128 0x8
 4541 08ca E21B0000 		.4byte	.LASF129
 4542 08ce 07       		.uleb128 0x7
 4543 08cf 04       		.byte	0x4
 4544 08d0 C9080000 		.4byte	0x8c9
 4545 08d4 1F       		.uleb128 0x1f
 4546 08d5 DF080000 		.4byte	0x8df
 4547 08d9 17       		.uleb128 0x17
 4548 08da C0040000 		.4byte	0x4c0
 4549 08de 00       		.byte	0
 4550 08df 07       		.uleb128 0x7
 4551 08e0 04       		.byte	0x4
 4552 08e1 D4080000 		.4byte	0x8d4
 4553 08e5 07       		.uleb128 0x7
 4554 08e6 04       		.byte	0x4
 4555 08e7 13020000 		.4byte	0x213
 4556 08eb 1F       		.uleb128 0x1f
 4557 08ec F6080000 		.4byte	0x8f6
 4558 08f0 17       		.uleb128 0x17
 4559 08f1 94000000 		.4byte	0x94
 4560 08f5 00       		.byte	0
 4561 08f6 07       		.uleb128 0x7
 4562 08f7 04       		.byte	0x4
 4563 08f8 FC080000 		.4byte	0x8fc
 4564 08fc 07       		.uleb128 0x7
 4565 08fd 04       		.byte	0x4
 4566 08fe EB080000 		.4byte	0x8eb
 4567 0902 0C       		.uleb128 0xc
 4568 0903 90060000 		.4byte	0x690
 4569 0907 12090000 		.4byte	0x912
ARM GAS  /tmp/ccJYnsep.s 			page 83


 4570 090b 0D       		.uleb128 0xd
 4571 090c 9B000000 		.4byte	0x9b
 4572 0910 02       		.byte	0x2
 4573 0911 00       		.byte	0
 4574 0912 20       		.uleb128 0x20
 4575 0913 931B0000 		.4byte	.LASF130
 4576 0917 07       		.byte	0x7
 4577 0918 2E03     		.2byte	0x32e
 4578 091a C0040000 		.4byte	0x4c0
 4579 091e 20       		.uleb128 0x20
 4580 091f 06200000 		.4byte	.LASF131
 4581 0923 07       		.byte	0x7
 4582 0924 2F03     		.2byte	0x32f
 4583 0926 C6040000 		.4byte	0x4c6
 4584 092a 07       		.uleb128 0x7
 4585 092b 04       		.byte	0x4
 4586 092c 30090000 		.4byte	0x930
 4587 0930 21       		.uleb128 0x21
 4588 0931 22       		.uleb128 0x22
 4589 0932 A1180000 		.4byte	.LASF132
 4590 0936 08       		.byte	0x8
 4591 0937 63       		.byte	0x63
 4592 0938 A3010000 		.4byte	0x1a3
 4593 093c 03       		.uleb128 0x3
 4594 093d 98080000 		.4byte	.LASF133
 4595 0941 09       		.byte	0x9
 4596 0942 28       		.byte	0x28
 4597 0943 47090000 		.4byte	0x947
 4598 0947 11       		.uleb128 0x11
 4599 0948 13240000 		.4byte	.LASF134
 4600 094c 04       		.byte	0x4
 4601 094d 0A       		.byte	0xa
 4602 094e 00       		.byte	0
 4603 094f 5E090000 		.4byte	0x95e
 4604 0953 23       		.uleb128 0x23
 4605 0954 88200000 		.4byte	.LASF135
 4606 0958 A1010000 		.4byte	0x1a1
 4607 095c 00       		.byte	0
 4608 095d 00       		.byte	0
 4609 095e 03       		.uleb128 0x3
 4610 095f 4D0D0000 		.4byte	.LASF136
 4611 0963 0B       		.byte	0xb
 4612 0964 2E       		.byte	0x2e
 4613 0965 3C090000 		.4byte	0x93c
 4614 0969 03       		.uleb128 0x3
 4615 096a 7A1E0000 		.4byte	.LASF137
 4616 096e 0C       		.byte	0xc
 4617 096f CD       		.byte	0xcd
 4618 0970 19010000 		.4byte	0x119
 4619 0974 03       		.uleb128 0x3
 4620 0975 B30D0000 		.4byte	.LASF138
 4621 0979 0D       		.byte	0xd
 4622 097a 45       		.byte	0x45
 4623 097b CD000000 		.4byte	0xcd
 4624 097f 03       		.uleb128 0x3
 4625 0980 BB120000 		.4byte	.LASF139
 4626 0984 0D       		.byte	0xd
ARM GAS  /tmp/ccJYnsep.s 			page 84


 4627 0985 48       		.byte	0x48
 4628 0986 A2000000 		.4byte	0xa2
 4629 098a 03       		.uleb128 0x3
 4630 098b FD1F0000 		.4byte	.LASF140
 4631 098f 0D       		.byte	0xd
 4632 0990 49       		.byte	0x49
 4633 0991 A2000000 		.4byte	0xa2
 4634 0995 03       		.uleb128 0x3
 4635 0996 53120000 		.4byte	.LASF141
 4636 099a 0D       		.byte	0xd
 4637 099b 4A       		.byte	0x4a
 4638 099c A2000000 		.4byte	0xa2
 4639 09a0 03       		.uleb128 0x3
 4640 09a1 9F140000 		.4byte	.LASF142
 4641 09a5 0D       		.byte	0xd
 4642 09a6 4B       		.byte	0x4b
 4643 09a7 A2000000 		.4byte	0xa2
 4644 09ab 03       		.uleb128 0x3
 4645 09ac 65060000 		.4byte	.LASF143
 4646 09b0 0D       		.byte	0xd
 4647 09b1 4C       		.byte	0x4c
 4648 09b2 CD000000 		.4byte	0xcd
 4649 09b6 03       		.uleb128 0x3
 4650 09b7 92000000 		.4byte	.LASF144
 4651 09bb 0D       		.byte	0xd
 4652 09bc 4D       		.byte	0x4d
 4653 09bd BD000000 		.4byte	0xbd
 4654 09c1 03       		.uleb128 0x3
 4655 09c2 95180000 		.4byte	.LASF145
 4656 09c6 0D       		.byte	0xd
 4657 09c7 4F       		.byte	0x4f
 4658 09c8 CD000000 		.4byte	0xcd
 4659 09cc 03       		.uleb128 0x3
 4660 09cd 97210000 		.4byte	.LASF146
 4661 09d1 0D       		.byte	0xd
 4662 09d2 50       		.byte	0x50
 4663 09d3 CD000000 		.4byte	0xcd
 4664 09d7 03       		.uleb128 0x3
 4665 09d8 121B0000 		.4byte	.LASF147
 4666 09dc 0D       		.byte	0xd
 4667 09dd 51       		.byte	0x51
 4668 09de BD000000 		.4byte	0xbd
 4669 09e2 03       		.uleb128 0x3
 4670 09e3 C7030000 		.4byte	.LASF148
 4671 09e7 0E       		.byte	0xe
 4672 09e8 33       		.byte	0x33
 4673 09e9 CD000000 		.4byte	0xcd
 4674 09ed 06       		.uleb128 0x6
 4675 09ee E2090000 		.4byte	0x9e2
 4676 09f2 03       		.uleb128 0x3
 4677 09f3 5B030000 		.4byte	.LASF149
 4678 09f7 0E       		.byte	0xe
 4679 09f8 3F       		.byte	0x3f
 4680 09f9 FD090000 		.4byte	0x9fd
 4681 09fd 11       		.uleb128 0x11
 4682 09fe 76090000 		.4byte	.LASF150
 4683 0a02 50       		.byte	0x50
ARM GAS  /tmp/ccJYnsep.s 			page 85


 4684 0a03 0F       		.byte	0xf
 4685 0a04 C2       		.byte	0xc2
 4686 0a05 1B0B0000 		.4byte	0xb1b
 4687 0a09 0F       		.uleb128 0xf
 4688 0a0a FB110000 		.4byte	.LASF151
 4689 0a0e 0F       		.byte	0xf
 4690 0a0f C3       		.byte	0xc3
 4691 0a10 260B0000 		.4byte	0xb26
 4692 0a14 00       		.byte	0
 4693 0a15 0F       		.uleb128 0xf
 4694 0a16 860E0000 		.4byte	.LASF152
 4695 0a1a 0F       		.byte	0xf
 4696 0a1b C5       		.byte	0xc5
 4697 0a1c 260B0000 		.4byte	0xb26
 4698 0a20 04       		.byte	0x4
 4699 0a21 0F       		.uleb128 0xf
 4700 0a22 11110000 		.4byte	.LASF153
 4701 0a26 0F       		.byte	0xf
 4702 0a27 C7       		.byte	0xc7
 4703 0a28 AB090000 		.4byte	0x9ab
 4704 0a2c 08       		.byte	0x8
 4705 0a2d 0F       		.uleb128 0xf
 4706 0a2e 380A0000 		.4byte	.LASF154
 4707 0a32 0F       		.byte	0xf
 4708 0a33 C8       		.byte	0xc8
 4709 0a34 EF110000 		.4byte	0x11ef
 4710 0a38 0C       		.byte	0xc
 4711 0a39 0F       		.uleb128 0xf
 4712 0a3a 84020000 		.4byte	.LASF155
 4713 0a3e 0F       		.byte	0xf
 4714 0a3f CA       		.byte	0xca
 4715 0a40 260B0000 		.4byte	0xb26
 4716 0a44 10       		.byte	0x10
 4717 0a45 0F       		.uleb128 0xf
 4718 0a46 32220000 		.4byte	.LASF156
 4719 0a4a 0F       		.byte	0xf
 4720 0a4b CB       		.byte	0xcb
 4721 0a4c 260B0000 		.4byte	0xb26
 4722 0a50 14       		.byte	0x14
 4723 0a51 0F       		.uleb128 0xf
 4724 0a52 55200000 		.4byte	.LASF157
 4725 0a56 0F       		.byte	0xf
 4726 0a57 D2       		.byte	0xd2
 4727 0a58 21060000 		.4byte	0x621
 4728 0a5c 18       		.byte	0x18
 4729 0a5d 0F       		.uleb128 0xf
 4730 0a5e 071B0000 		.4byte	.LASF158
 4731 0a62 0F       		.byte	0xf
 4732 0a63 D8       		.byte	0xd8
 4733 0a64 34140000 		.4byte	0x1434
 4734 0a68 1C       		.byte	0x1c
 4735 0a69 0F       		.uleb128 0xf
 4736 0a6a 24240000 		.4byte	.LASF159
 4737 0a6e 0F       		.byte	0xf
 4738 0a6f DD       		.byte	0xdd
 4739 0a70 8A090000 		.4byte	0x98a
 4740 0a74 20       		.byte	0x20
ARM GAS  /tmp/ccJYnsep.s 			page 86


 4741 0a75 0F       		.uleb128 0xf
 4742 0a76 9F1F0000 		.4byte	.LASF160
 4743 0a7a 0F       		.byte	0xf
 4744 0a7b E1       		.byte	0xe1
 4745 0a7c 7F090000 		.4byte	0x97f
 4746 0a80 21       		.byte	0x21
 4747 0a81 0F       		.uleb128 0xf
 4748 0a82 03170000 		.4byte	.LASF161
 4749 0a86 0F       		.byte	0xf
 4750 0a87 E6       		.byte	0xe6
 4751 0a88 95090000 		.4byte	0x995
 4752 0a8c 22       		.byte	0x22
 4753 0a8d 0F       		.uleb128 0xf
 4754 0a8e 5C150000 		.4byte	.LASF162
 4755 0a92 0F       		.byte	0xf
 4756 0a93 EC       		.byte	0xec
 4757 0a94 A0090000 		.4byte	0x9a0
 4758 0a98 23       		.byte	0x23
 4759 0a99 0F       		.uleb128 0xf
 4760 0a9a 66150000 		.4byte	.LASF163
 4761 0a9e 0F       		.byte	0xf
 4762 0a9f F3       		.byte	0xf3
 4763 0aa0 ED090000 		.4byte	0x9ed
 4764 0aa4 24       		.byte	0x24
 4765 0aa5 24       		.uleb128 0x24
 4766 0aa6 705F7500 		.ascii	"p_u\000"
 4767 0aaa 0F       		.byte	0xf
 4768 0aab 3101     		.2byte	0x131
 4769 0aad 6F130000 		.4byte	0x136f
 4770 0ab1 28       		.byte	0x28
 4771 0ab2 19       		.uleb128 0x19
 4772 0ab3 F6040000 		.4byte	.LASF164
 4773 0ab7 0F       		.byte	0xf
 4774 0ab8 3601     		.2byte	0x136
 4775 0aba 2C0B0000 		.4byte	0xb2c
 4776 0abe 2C       		.byte	0x2c
 4777 0abf 19       		.uleb128 0x19
 4778 0ac0 C6150000 		.4byte	.LASF165
 4779 0ac4 0F       		.byte	0xf
 4780 0ac5 3C01     		.2byte	0x13c
 4781 0ac7 500B0000 		.4byte	0xb50
 4782 0acb 30       		.byte	0x30
 4783 0acc 19       		.uleb128 0x19
 4784 0acd 87070000 		.4byte	.LASF166
 4785 0ad1 0F       		.byte	0xf
 4786 0ad2 4001     		.2byte	0x140
 4787 0ad4 B6090000 		.4byte	0x9b6
 4788 0ad8 38       		.byte	0x38
 4789 0ad9 19       		.uleb128 0x19
 4790 0ada B31D0000 		.4byte	.LASF167
 4791 0ade 0F       		.byte	0xf
 4792 0adf 4601     		.2byte	0x146
 4793 0ae1 C1090000 		.4byte	0x9c1
 4794 0ae5 3C       		.byte	0x3c
 4795 0ae6 19       		.uleb128 0x19
 4796 0ae7 D71F0000 		.4byte	.LASF168
 4797 0aeb 0F       		.byte	0xf
ARM GAS  /tmp/ccJYnsep.s 			page 87


 4798 0aec 4D01     		.2byte	0x14d
 4799 0aee 2E140000 		.4byte	0x142e
 4800 0af2 40       		.byte	0x40
 4801 0af3 19       		.uleb128 0x19
 4802 0af4 5B1C0000 		.4byte	.LASF169
 4803 0af8 0F       		.byte	0xf
 4804 0af9 5101     		.2byte	0x151
 4805 0afb AB090000 		.4byte	0x9ab
 4806 0aff 44       		.byte	0x44
 4807 0b00 19       		.uleb128 0x19
 4808 0b01 5B120000 		.4byte	.LASF170
 4809 0b05 0F       		.byte	0xf
 4810 0b06 5801     		.2byte	0x158
 4811 0b08 A1010000 		.4byte	0x1a1
 4812 0b0c 48       		.byte	0x48
 4813 0b0d 19       		.uleb128 0x19
 4814 0b0e 04070000 		.4byte	.LASF171
 4815 0b12 0F       		.byte	0xf
 4816 0b13 6201     		.2byte	0x162
 4817 0b15 94000000 		.4byte	0x94
 4818 0b19 4C       		.byte	0x4c
 4819 0b1a 00       		.byte	0
 4820 0b1b 03       		.uleb128 0x3
 4821 0b1c 6F220000 		.4byte	.LASF172
 4822 0b20 0E       		.byte	0xe
 4823 0b21 44       		.byte	0x44
 4824 0b22 260B0000 		.4byte	0xb26
 4825 0b26 07       		.uleb128 0x7
 4826 0b27 04       		.byte	0x4
 4827 0b28 F2090000 		.4byte	0x9f2
 4828 0b2c 03       		.uleb128 0x3
 4829 0b2d 2C050000 		.4byte	.LASF173
 4830 0b31 0E       		.byte	0xe
 4831 0b32 49       		.byte	0x49
 4832 0b33 370B0000 		.4byte	0xb37
 4833 0b37 11       		.uleb128 0x11
 4834 0b38 2C240000 		.4byte	.LASF174
 4835 0b3c 04       		.byte	0x4
 4836 0b3d 0F       		.byte	0xf
 4837 0b3e B0       		.byte	0xb0
 4838 0b3f 500B0000 		.4byte	0xb50
 4839 0b43 0F       		.uleb128 0xf
 4840 0b44 FB110000 		.4byte	.LASF151
 4841 0b48 0F       		.byte	0xf
 4842 0b49 B1       		.byte	0xb1
 4843 0b4a 260B0000 		.4byte	0xb26
 4844 0b4e 00       		.byte	0
 4845 0b4f 00       		.byte	0
 4846 0b50 03       		.uleb128 0x3
 4847 0b51 F3160000 		.4byte	.LASF175
 4848 0b55 0E       		.byte	0xe
 4849 0b56 50       		.byte	0x50
 4850 0b57 5B0B0000 		.4byte	0xb5b
 4851 0b5b 11       		.uleb128 0x11
 4852 0b5c 69020000 		.4byte	.LASF176
 4853 0b60 08       		.byte	0x8
 4854 0b61 0F       		.byte	0xf
ARM GAS  /tmp/ccJYnsep.s 			page 88


 4855 0b62 B7       		.byte	0xb7
 4856 0b63 800B0000 		.4byte	0xb80
 4857 0b67 0F       		.uleb128 0xf
 4858 0b68 FB110000 		.4byte	.LASF151
 4859 0b6c 0F       		.byte	0xf
 4860 0b6d B8       		.byte	0xb8
 4861 0b6e 260B0000 		.4byte	0xb26
 4862 0b72 00       		.byte	0
 4863 0b73 0F       		.uleb128 0xf
 4864 0b74 860E0000 		.4byte	.LASF152
 4865 0b78 0F       		.byte	0xf
 4866 0b79 B9       		.byte	0xb9
 4867 0b7a 260B0000 		.4byte	0xb26
 4868 0b7e 04       		.byte	0x4
 4869 0b7f 00       		.byte	0
 4870 0b80 03       		.uleb128 0x3
 4871 0b81 69090000 		.4byte	.LASF177
 4872 0b85 0E       		.byte	0xe
 4873 0b86 57       		.byte	0x57
 4874 0b87 8B0B0000 		.4byte	0xb8b
 4875 0b8b 1B       		.uleb128 0x1b
 4876 0b8c EE1C0000 		.4byte	.LASF178
 4877 0b90 1C       		.byte	0x1c
 4878 0b91 0F       		.byte	0xf
 4879 0b92 9001     		.2byte	0x190
 4880 0b94 E70B0000 		.4byte	0xbe7
 4881 0b98 19       		.uleb128 0x19
 4882 0b99 C5190000 		.4byte	.LASF179
 4883 0b9d 0F       		.byte	0xf
 4884 0b9e 9101     		.2byte	0x191
 4885 0ba0 500B0000 		.4byte	0xb50
 4886 0ba4 00       		.byte	0
 4887 0ba5 19       		.uleb128 0x19
 4888 0ba6 6C1E0000 		.4byte	.LASF180
 4889 0baa 0F       		.byte	0xf
 4890 0bab 9201     		.2byte	0x192
 4891 0bad AB090000 		.4byte	0x9ab
 4892 0bb1 08       		.byte	0x8
 4893 0bb2 19       		.uleb128 0x19
 4894 0bb3 980D0000 		.4byte	.LASF181
 4895 0bb7 0F       		.byte	0xf
 4896 0bb8 9401     		.2byte	0x194
 4897 0bba EF110000 		.4byte	0x11ef
 4898 0bbe 0C       		.byte	0xc
 4899 0bbf 19       		.uleb128 0x19
 4900 0bc0 04140000 		.4byte	.LASF182
 4901 0bc4 0F       		.byte	0xf
 4902 0bc5 9701     		.2byte	0x197
 4903 0bc7 260B0000 		.4byte	0xb26
 4904 0bcb 10       		.byte	0x10
 4905 0bcc 19       		.uleb128 0x19
 4906 0bcd 7E0E0000 		.4byte	.LASF183
 4907 0bd1 0F       		.byte	0xf
 4908 0bd2 9801     		.2byte	0x198
 4909 0bd4 260B0000 		.4byte	0xb26
 4910 0bd8 14       		.byte	0x14
 4911 0bd9 19       		.uleb128 0x19
ARM GAS  /tmp/ccJYnsep.s 			page 89


 4912 0bda 5A100000 		.4byte	.LASF184
 4913 0bde 0F       		.byte	0xf
 4914 0bdf 9B01     		.2byte	0x19b
 4915 0be1 260B0000 		.4byte	0xb26
 4916 0be5 18       		.byte	0x18
 4917 0be6 00       		.byte	0
 4918 0be7 03       		.uleb128 0x3
 4919 0be8 251C0000 		.4byte	.LASF185
 4920 0bec 0E       		.byte	0xe
 4921 0bed 5C       		.byte	0x5c
 4922 0bee F20B0000 		.4byte	0xbf2
 4923 0bf2 07       		.uleb128 0x7
 4924 0bf3 04       		.byte	0x4
 4925 0bf4 F80B0000 		.4byte	0xbf8
 4926 0bf8 1F       		.uleb128 0x1f
 4927 0bf9 030C0000 		.4byte	0xc03
 4928 0bfd 17       		.uleb128 0x17
 4929 0bfe A1010000 		.4byte	0x1a1
 4930 0c02 00       		.byte	0
 4931 0c03 03       		.uleb128 0x3
 4932 0c04 880D0000 		.4byte	.LASF186
 4933 0c08 0E       		.byte	0xe
 4934 0c09 61       		.byte	0x61
 4935 0c0a 0E0C0000 		.4byte	0xc0e
 4936 0c0e 1B       		.uleb128 0x1b
 4937 0c0f 8E1F0000 		.4byte	.LASF187
 4938 0c13 14       		.byte	0x14
 4939 0c14 0F       		.byte	0xf
 4940 0c15 6B01     		.2byte	0x16b
 4941 0c17 5D0C0000 		.4byte	0xc5d
 4942 0c1b 19       		.uleb128 0x19
 4943 0c1c 9E0D0000 		.4byte	.LASF188
 4944 0c20 0F       		.byte	0xf
 4945 0c21 6C01     		.2byte	0x16c
 4946 0c23 3A140000 		.4byte	0x143a
 4947 0c27 00       		.byte	0
 4948 0c28 19       		.uleb128 0x19
 4949 0c29 1E090000 		.4byte	.LASF189
 4950 0c2d 0F       		.byte	0xf
 4951 0c2e 6D01     		.2byte	0x16d
 4952 0c30 3A140000 		.4byte	0x143a
 4953 0c34 04       		.byte	0x4
 4954 0c35 19       		.uleb128 0x19
 4955 0c36 FB140000 		.4byte	.LASF190
 4956 0c3a 0F       		.byte	0xf
 4957 0c3b 6E01     		.2byte	0x16e
 4958 0c3d E2090000 		.4byte	0x9e2
 4959 0c41 08       		.byte	0x8
 4960 0c42 19       		.uleb128 0x19
 4961 0c43 6A1F0000 		.4byte	.LASF191
 4962 0c47 0F       		.byte	0xf
 4963 0c48 6F01     		.2byte	0x16f
 4964 0c4a E70B0000 		.4byte	0xbe7
 4965 0c4e 0C       		.byte	0xc
 4966 0c4f 19       		.uleb128 0x19
 4967 0c50 3E0A0000 		.4byte	.LASF192
 4968 0c54 0F       		.byte	0xf
ARM GAS  /tmp/ccJYnsep.s 			page 90


 4969 0c55 7101     		.2byte	0x171
 4970 0c57 A1010000 		.4byte	0x1a1
 4971 0c5b 10       		.byte	0x10
 4972 0c5c 00       		.byte	0
 4973 0c5d 03       		.uleb128 0x3
 4974 0c5e C3200000 		.4byte	.LASF193
 4975 0c62 0E       		.byte	0xe
 4976 0c63 66       		.byte	0x66
 4977 0c64 680C0000 		.4byte	0xc68
 4978 0c68 1B       		.uleb128 0x1b
 4979 0c69 80030000 		.4byte	.LASF194
 4980 0c6d 10       		.byte	0x10
 4981 0c6e 0F       		.byte	0xf
 4982 0c6f 7B01     		.2byte	0x17b
 4983 0c71 AA0C0000 		.4byte	0xcaa
 4984 0c75 19       		.uleb128 0x19
 4985 0c76 9E0D0000 		.4byte	.LASF188
 4986 0c7a 0F       		.byte	0xf
 4987 0c7b 7C01     		.2byte	0x17c
 4988 0c7d 3A140000 		.4byte	0x143a
 4989 0c81 00       		.byte	0
 4990 0c82 19       		.uleb128 0x19
 4991 0c83 1E090000 		.4byte	.LASF189
 4992 0c87 0F       		.byte	0xf
 4993 0c88 7E01     		.2byte	0x17e
 4994 0c8a 3A140000 		.4byte	0x143a
 4995 0c8e 04       		.byte	0x4
 4996 0c8f 19       		.uleb128 0x19
 4997 0c90 FB140000 		.4byte	.LASF190
 4998 0c94 0F       		.byte	0xf
 4999 0c95 8001     		.2byte	0x180
 5000 0c97 E2090000 		.4byte	0x9e2
 5001 0c9b 08       		.byte	0x8
 5002 0c9c 19       		.uleb128 0x19
 5003 0c9d 70010000 		.4byte	.LASF195
 5004 0ca1 0F       		.byte	0xf
 5005 0ca2 8201     		.2byte	0x182
 5006 0ca4 ED090000 		.4byte	0x9ed
 5007 0ca8 0C       		.byte	0xc
 5008 0ca9 00       		.byte	0
 5009 0caa 03       		.uleb128 0x3
 5010 0cab 130A0000 		.4byte	.LASF196
 5011 0caf 0E       		.byte	0xe
 5012 0cb0 6B       		.byte	0x6b
 5013 0cb1 B50C0000 		.4byte	0xcb5
 5014 0cb5 1B       		.uleb128 0x1b
 5015 0cb6 241D0000 		.4byte	.LASF197
 5016 0cba 04       		.byte	0x4
 5017 0cbb 0F       		.byte	0xf
 5018 0cbc A201     		.2byte	0x1a2
 5019 0cbe D00C0000 		.4byte	0xcd0
 5020 0cc2 19       		.uleb128 0x19
 5021 0cc3 ED130000 		.4byte	.LASF198
 5022 0cc7 0F       		.byte	0xf
 5023 0cc8 AA01     		.2byte	0x1aa
 5024 0cca 27060000 		.4byte	0x627
 5025 0cce 00       		.byte	0
ARM GAS  /tmp/ccJYnsep.s 			page 91


 5026 0ccf 00       		.byte	0
 5027 0cd0 03       		.uleb128 0x3
 5028 0cd1 EC000000 		.4byte	.LASF199
 5029 0cd5 0E       		.byte	0xe
 5030 0cd6 70       		.byte	0x70
 5031 0cd7 DB0C0000 		.4byte	0xcdb
 5032 0cdb 18       		.uleb128 0x18
 5033 0cdc 71160000 		.4byte	.LASF200
 5034 0ce0 6802     		.2byte	0x268
 5035 0ce2 0F       		.byte	0xf
 5036 0ce3 C201     		.2byte	0x1c2
 5037 0ce5 370D0000 		.4byte	0xd37
 5038 0ce9 19       		.uleb128 0x19
 5039 0cea 26050000 		.4byte	.LASF201
 5040 0cee 0F       		.byte	0xf
 5041 0cef C601     		.2byte	0x1c6
 5042 0cf1 800B0000 		.4byte	0xb80
 5043 0cf5 00       		.byte	0
 5044 0cf6 19       		.uleb128 0x19
 5045 0cf7 D6040000 		.4byte	.LASF202
 5046 0cfb 0F       		.byte	0xf
 5047 0cfc CA01     		.2byte	0x1ca
 5048 0cfe 5D0C0000 		.4byte	0xc5d
 5049 0d02 1C       		.byte	0x1c
 5050 0d03 24       		.uleb128 0x24
 5051 0d04 64626700 		.ascii	"dbg\000"
 5052 0d08 0F       		.byte	0xf
 5053 0d09 CE01     		.2byte	0x1ce
 5054 0d0b AA0C0000 		.4byte	0xcaa
 5055 0d0f 2C       		.byte	0x2c
 5056 0d10 19       		.uleb128 0x19
 5057 0d11 33170000 		.4byte	.LASF203
 5058 0d15 0F       		.byte	0xf
 5059 0d16 D201     		.2byte	0x1d2
 5060 0d18 F2090000 		.4byte	0x9f2
 5061 0d1c 30       		.byte	0x30
 5062 0d1d 24       		.uleb128 0x24
 5063 0d1e 746D00   		.ascii	"tm\000"
 5064 0d21 0F       		.byte	0xf
 5065 0d22 D701     		.2byte	0x1d7
 5066 0d24 64130000 		.4byte	0x1364
 5067 0d28 80       		.byte	0x80
 5068 0d29 19       		.uleb128 0x19
 5069 0d2a 3C1F0000 		.4byte	.LASF204
 5070 0d2e 0F       		.byte	0xf
 5071 0d2f E301     		.2byte	0x1e3
 5072 0d31 40140000 		.4byte	0x1440
 5073 0d35 88       		.byte	0x88
 5074 0d36 00       		.byte	0
 5075 0d37 0C       		.uleb128 0xc
 5076 0d38 CD000000 		.4byte	0xcd
 5077 0d3c 470D0000 		.4byte	0xd47
 5078 0d40 0D       		.uleb128 0xd
 5079 0d41 9B000000 		.4byte	0x9b
 5080 0d45 07       		.byte	0x7
 5081 0d46 00       		.byte	0
 5082 0d47 20       		.uleb128 0x20
ARM GAS  /tmp/ccJYnsep.s 			page 92


 5083 0d48 B41E0000 		.4byte	.LASF205
 5084 0d4c 10       		.byte	0x10
 5085 0d4d A706     		.2byte	0x6a7
 5086 0d4f C8000000 		.4byte	0xc8
 5087 0d53 22       		.uleb128 0x22
 5088 0d54 01160000 		.4byte	.LASF206
 5089 0d58 11       		.byte	0x11
 5090 0d59 4C       		.byte	0x4c
 5091 0d5a CD000000 		.4byte	0xcd
 5092 0d5e 0E       		.uleb128 0xe
 5093 0d5f 10       		.byte	0x10
 5094 0d60 12       		.byte	0x12
 5095 0d61 E9       		.byte	0xe9
 5096 0d62 970D0000 		.4byte	0xd97
 5097 0d66 12       		.uleb128 0x12
 5098 0d67 54495200 		.ascii	"TIR\000"
 5099 0d6b 12       		.byte	0x12
 5100 0d6c EB       		.byte	0xeb
 5101 0d6d D8000000 		.4byte	0xd8
 5102 0d71 00       		.byte	0
 5103 0d72 0F       		.uleb128 0xf
 5104 0d73 B6100000 		.4byte	.LASF207
 5105 0d77 12       		.byte	0x12
 5106 0d78 EC       		.byte	0xec
 5107 0d79 D8000000 		.4byte	0xd8
 5108 0d7d 04       		.byte	0x4
 5109 0d7e 0F       		.uleb128 0xf
 5110 0d7f 25170000 		.4byte	.LASF208
 5111 0d83 12       		.byte	0x12
 5112 0d84 ED       		.byte	0xed
 5113 0d85 D8000000 		.4byte	0xd8
 5114 0d89 08       		.byte	0x8
 5115 0d8a 0F       		.uleb128 0xf
 5116 0d8b 6D150000 		.4byte	.LASF209
 5117 0d8f 12       		.byte	0x12
 5118 0d90 EE       		.byte	0xee
 5119 0d91 D8000000 		.4byte	0xd8
 5120 0d95 0C       		.byte	0xc
 5121 0d96 00       		.byte	0
 5122 0d97 03       		.uleb128 0x3
 5123 0d98 10050000 		.4byte	.LASF210
 5124 0d9c 12       		.byte	0x12
 5125 0d9d EF       		.byte	0xef
 5126 0d9e 5E0D0000 		.4byte	0xd5e
 5127 0da2 0E       		.uleb128 0xe
 5128 0da3 10       		.byte	0x10
 5129 0da4 12       		.byte	0x12
 5130 0da5 F5       		.byte	0xf5
 5131 0da6 DB0D0000 		.4byte	0xddb
 5132 0daa 12       		.uleb128 0x12
 5133 0dab 52495200 		.ascii	"RIR\000"
 5134 0daf 12       		.byte	0x12
 5135 0db0 F7       		.byte	0xf7
 5136 0db1 D8000000 		.4byte	0xd8
 5137 0db5 00       		.byte	0
 5138 0db6 0F       		.uleb128 0xf
 5139 0db7 D41C0000 		.4byte	.LASF211
ARM GAS  /tmp/ccJYnsep.s 			page 93


 5140 0dbb 12       		.byte	0x12
 5141 0dbc F8       		.byte	0xf8
 5142 0dbd D8000000 		.4byte	0xd8
 5143 0dc1 04       		.byte	0x4
 5144 0dc2 0F       		.uleb128 0xf
 5145 0dc3 87180000 		.4byte	.LASF212
 5146 0dc7 12       		.byte	0x12
 5147 0dc8 F9       		.byte	0xf9
 5148 0dc9 D8000000 		.4byte	0xd8
 5149 0dcd 08       		.byte	0x8
 5150 0dce 0F       		.uleb128 0xf
 5151 0dcf 61160000 		.4byte	.LASF213
 5152 0dd3 12       		.byte	0x12
 5153 0dd4 FA       		.byte	0xfa
 5154 0dd5 D8000000 		.4byte	0xd8
 5155 0dd9 0C       		.byte	0xc
 5156 0dda 00       		.byte	0
 5157 0ddb 03       		.uleb128 0x3
 5158 0ddc 2E1C0000 		.4byte	.LASF214
 5159 0de0 12       		.byte	0x12
 5160 0de1 FB       		.byte	0xfb
 5161 0de2 A20D0000 		.4byte	0xda2
 5162 0de6 1C       		.uleb128 0x1c
 5163 0de7 08       		.byte	0x8
 5164 0de8 12       		.byte	0x12
 5165 0de9 0101     		.2byte	0x101
 5166 0deb 0A0E0000 		.4byte	0xe0a
 5167 0def 24       		.uleb128 0x24
 5168 0df0 46523100 		.ascii	"FR1\000"
 5169 0df4 12       		.byte	0x12
 5170 0df5 0301     		.2byte	0x103
 5171 0df7 D8000000 		.4byte	0xd8
 5172 0dfb 00       		.byte	0
 5173 0dfc 24       		.uleb128 0x24
 5174 0dfd 46523200 		.ascii	"FR2\000"
 5175 0e01 12       		.byte	0x12
 5176 0e02 0401     		.2byte	0x104
 5177 0e04 D8000000 		.4byte	0xd8
 5178 0e08 04       		.byte	0x4
 5179 0e09 00       		.byte	0
 5180 0e0a 09       		.uleb128 0x9
 5181 0e0b C4100000 		.4byte	.LASF215
 5182 0e0f 12       		.byte	0x12
 5183 0e10 0501     		.2byte	0x105
 5184 0e12 E60D0000 		.4byte	0xde6
 5185 0e16 25       		.uleb128 0x25
 5186 0e17 2003     		.2byte	0x320
 5187 0e19 12       		.byte	0x12
 5188 0e1a 0B01     		.2byte	0x10b
 5189 0e1c 4C0F0000 		.4byte	0xf4c
 5190 0e20 24       		.uleb128 0x24
 5191 0e21 4D435200 		.ascii	"MCR\000"
 5192 0e25 12       		.byte	0x12
 5193 0e26 0D01     		.2byte	0x10d
 5194 0e28 D8000000 		.4byte	0xd8
 5195 0e2c 00       		.byte	0
 5196 0e2d 24       		.uleb128 0x24
ARM GAS  /tmp/ccJYnsep.s 			page 94


 5197 0e2e 4D535200 		.ascii	"MSR\000"
 5198 0e32 12       		.byte	0x12
 5199 0e33 0E01     		.2byte	0x10e
 5200 0e35 D8000000 		.4byte	0xd8
 5201 0e39 04       		.byte	0x4
 5202 0e3a 24       		.uleb128 0x24
 5203 0e3b 54535200 		.ascii	"TSR\000"
 5204 0e3f 12       		.byte	0x12
 5205 0e40 0F01     		.2byte	0x10f
 5206 0e42 D8000000 		.4byte	0xd8
 5207 0e46 08       		.byte	0x8
 5208 0e47 19       		.uleb128 0x19
 5209 0e48 360F0000 		.4byte	.LASF216
 5210 0e4c 12       		.byte	0x12
 5211 0e4d 1001     		.2byte	0x110
 5212 0e4f D8000000 		.4byte	0xd8
 5213 0e53 0C       		.byte	0xc
 5214 0e54 19       		.uleb128 0x19
 5215 0e55 B1180000 		.4byte	.LASF217
 5216 0e59 12       		.byte	0x12
 5217 0e5a 1101     		.2byte	0x111
 5218 0e5c D8000000 		.4byte	0xd8
 5219 0e60 10       		.byte	0x10
 5220 0e61 24       		.uleb128 0x24
 5221 0e62 49455200 		.ascii	"IER\000"
 5222 0e66 12       		.byte	0x12
 5223 0e67 1201     		.2byte	0x112
 5224 0e69 D8000000 		.4byte	0xd8
 5225 0e6d 14       		.byte	0x14
 5226 0e6e 24       		.uleb128 0x24
 5227 0e6f 45535200 		.ascii	"ESR\000"
 5228 0e73 12       		.byte	0x12
 5229 0e74 1301     		.2byte	0x113
 5230 0e76 D8000000 		.4byte	0xd8
 5231 0e7a 18       		.byte	0x18
 5232 0e7b 24       		.uleb128 0x24
 5233 0e7c 42545200 		.ascii	"BTR\000"
 5234 0e80 12       		.byte	0x12
 5235 0e81 1401     		.2byte	0x114
 5236 0e83 D8000000 		.4byte	0xd8
 5237 0e87 1C       		.byte	0x1c
 5238 0e88 19       		.uleb128 0x19
 5239 0e89 CE1D0000 		.4byte	.LASF218
 5240 0e8d 12       		.byte	0x12
 5241 0e8e 1501     		.2byte	0x115
 5242 0e90 4C0F0000 		.4byte	0xf4c
 5243 0e94 20       		.byte	0x20
 5244 0e95 1A       		.uleb128 0x1a
 5245 0e96 DC110000 		.4byte	.LASF219
 5246 0e9a 12       		.byte	0x12
 5247 0e9b 1601     		.2byte	0x116
 5248 0e9d 5C0F0000 		.4byte	0xf5c
 5249 0ea1 8001     		.2byte	0x180
 5250 0ea3 1A       		.uleb128 0x1a
 5251 0ea4 D7210000 		.4byte	.LASF220
 5252 0ea8 12       		.byte	0x12
 5253 0ea9 1701     		.2byte	0x117
ARM GAS  /tmp/ccJYnsep.s 			page 95


 5254 0eab 6C0F0000 		.4byte	0xf6c
 5255 0eaf B001     		.2byte	0x1b0
 5256 0eb1 1A       		.uleb128 0x1a
 5257 0eb2 D81D0000 		.4byte	.LASF221
 5258 0eb6 12       		.byte	0x12
 5259 0eb7 1801     		.2byte	0x118
 5260 0eb9 7C0F0000 		.4byte	0xf7c
 5261 0ebd D001     		.2byte	0x1d0
 5262 0ebf 26       		.uleb128 0x26
 5263 0ec0 464D5200 		.ascii	"FMR\000"
 5264 0ec4 12       		.byte	0x12
 5265 0ec5 1901     		.2byte	0x119
 5266 0ec7 D8000000 		.4byte	0xd8
 5267 0ecb 0002     		.2byte	0x200
 5268 0ecd 1A       		.uleb128 0x1a
 5269 0ece DE0A0000 		.4byte	.LASF222
 5270 0ed2 12       		.byte	0x12
 5271 0ed3 1A01     		.2byte	0x11a
 5272 0ed5 D8000000 		.4byte	0xd8
 5273 0ed9 0402     		.2byte	0x204
 5274 0edb 1A       		.uleb128 0x1a
 5275 0edc E21D0000 		.4byte	.LASF223
 5276 0ee0 12       		.byte	0x12
 5277 0ee1 1B01     		.2byte	0x11b
 5278 0ee3 CD000000 		.4byte	0xcd
 5279 0ee7 0802     		.2byte	0x208
 5280 0ee9 1A       		.uleb128 0x1a
 5281 0eea F81F0000 		.4byte	.LASF224
 5282 0eee 12       		.byte	0x12
 5283 0eef 1C01     		.2byte	0x11c
 5284 0ef1 D8000000 		.4byte	0xd8
 5285 0ef5 0C02     		.2byte	0x20c
 5286 0ef7 1A       		.uleb128 0x1a
 5287 0ef8 EC1D0000 		.4byte	.LASF225
 5288 0efc 12       		.byte	0x12
 5289 0efd 1D01     		.2byte	0x11d
 5290 0eff CD000000 		.4byte	0xcd
 5291 0f03 1002     		.2byte	0x210
 5292 0f05 1A       		.uleb128 0x1a
 5293 0f06 AB180000 		.4byte	.LASF226
 5294 0f0a 12       		.byte	0x12
 5295 0f0b 1E01     		.2byte	0x11e
 5296 0f0d D8000000 		.4byte	0xd8
 5297 0f11 1402     		.2byte	0x214
 5298 0f13 1A       		.uleb128 0x1a
 5299 0f14 F61D0000 		.4byte	.LASF227
 5300 0f18 12       		.byte	0x12
 5301 0f19 1F01     		.2byte	0x11f
 5302 0f1b CD000000 		.4byte	0xcd
 5303 0f1f 1802     		.2byte	0x218
 5304 0f21 1A       		.uleb128 0x1a
 5305 0f22 12040000 		.4byte	.LASF228
 5306 0f26 12       		.byte	0x12
 5307 0f27 2001     		.2byte	0x120
 5308 0f29 D8000000 		.4byte	0xd8
 5309 0f2d 1C02     		.2byte	0x21c
 5310 0f2f 1A       		.uleb128 0x1a
ARM GAS  /tmp/ccJYnsep.s 			page 96


 5311 0f30 001E0000 		.4byte	.LASF229
 5312 0f34 12       		.byte	0x12
 5313 0f35 2101     		.2byte	0x121
 5314 0f37 370D0000 		.4byte	0xd37
 5315 0f3b 2002     		.2byte	0x220
 5316 0f3d 1A       		.uleb128 0x1a
 5317 0f3e B8050000 		.4byte	.LASF230
 5318 0f42 12       		.byte	0x12
 5319 0f43 2201     		.2byte	0x122
 5320 0f45 8C0F0000 		.4byte	0xf8c
 5321 0f49 4002     		.2byte	0x240
 5322 0f4b 00       		.byte	0
 5323 0f4c 0C       		.uleb128 0xc
 5324 0f4d CD000000 		.4byte	0xcd
 5325 0f51 5C0F0000 		.4byte	0xf5c
 5326 0f55 0D       		.uleb128 0xd
 5327 0f56 9B000000 		.4byte	0x9b
 5328 0f5a 57       		.byte	0x57
 5329 0f5b 00       		.byte	0
 5330 0f5c 0C       		.uleb128 0xc
 5331 0f5d 970D0000 		.4byte	0xd97
 5332 0f61 6C0F0000 		.4byte	0xf6c
 5333 0f65 0D       		.uleb128 0xd
 5334 0f66 9B000000 		.4byte	0x9b
 5335 0f6a 02       		.byte	0x2
 5336 0f6b 00       		.byte	0
 5337 0f6c 0C       		.uleb128 0xc
 5338 0f6d DB0D0000 		.4byte	0xddb
 5339 0f71 7C0F0000 		.4byte	0xf7c
 5340 0f75 0D       		.uleb128 0xd
 5341 0f76 9B000000 		.4byte	0x9b
 5342 0f7a 01       		.byte	0x1
 5343 0f7b 00       		.byte	0
 5344 0f7c 0C       		.uleb128 0xc
 5345 0f7d CD000000 		.4byte	0xcd
 5346 0f81 8C0F0000 		.4byte	0xf8c
 5347 0f85 0D       		.uleb128 0xd
 5348 0f86 9B000000 		.4byte	0x9b
 5349 0f8a 0B       		.byte	0xb
 5350 0f8b 00       		.byte	0
 5351 0f8c 0C       		.uleb128 0xc
 5352 0f8d 0A0E0000 		.4byte	0xe0a
 5353 0f91 9C0F0000 		.4byte	0xf9c
 5354 0f95 0D       		.uleb128 0xd
 5355 0f96 9B000000 		.4byte	0x9b
 5356 0f9a 1B       		.byte	0x1b
 5357 0f9b 00       		.byte	0
 5358 0f9c 09       		.uleb128 0x9
 5359 0f9d EB0D0000 		.4byte	.LASF231
 5360 0fa1 12       		.byte	0x12
 5361 0fa2 2301     		.2byte	0x123
 5362 0fa4 160E0000 		.4byte	0xe16
 5363 0fa8 1C       		.uleb128 0x1c
 5364 0fa9 18       		.byte	0x18
 5365 0faa 12       		.byte	0x12
 5366 0fab 6B01     		.2byte	0x16b
 5367 0fad FF0F0000 		.4byte	0xfff
ARM GAS  /tmp/ccJYnsep.s 			page 97


 5368 0fb1 24       		.uleb128 0x24
 5369 0fb2 435200   		.ascii	"CR\000"
 5370 0fb5 12       		.byte	0x12
 5371 0fb6 6D01     		.2byte	0x16d
 5372 0fb8 D8000000 		.4byte	0xd8
 5373 0fbc 00       		.byte	0
 5374 0fbd 19       		.uleb128 0x19
 5375 0fbe 181F0000 		.4byte	.LASF232
 5376 0fc2 12       		.byte	0x12
 5377 0fc3 6E01     		.2byte	0x16e
 5378 0fc5 D8000000 		.4byte	0xd8
 5379 0fc9 04       		.byte	0x4
 5380 0fca 24       		.uleb128 0x24
 5381 0fcb 50415200 		.ascii	"PAR\000"
 5382 0fcf 12       		.byte	0x12
 5383 0fd0 6F01     		.2byte	0x16f
 5384 0fd2 D8000000 		.4byte	0xd8
 5385 0fd6 08       		.byte	0x8
 5386 0fd7 19       		.uleb128 0x19
 5387 0fd8 F4030000 		.4byte	.LASF233
 5388 0fdc 12       		.byte	0x12
 5389 0fdd 7001     		.2byte	0x170
 5390 0fdf D8000000 		.4byte	0xd8
 5391 0fe3 0C       		.byte	0xc
 5392 0fe4 19       		.uleb128 0x19
 5393 0fe5 AA070000 		.4byte	.LASF234
 5394 0fe9 12       		.byte	0x12
 5395 0fea 7101     		.2byte	0x171
 5396 0fec D8000000 		.4byte	0xd8
 5397 0ff0 10       		.byte	0x10
 5398 0ff1 24       		.uleb128 0x24
 5399 0ff2 46435200 		.ascii	"FCR\000"
 5400 0ff6 12       		.byte	0x12
 5401 0ff7 7201     		.2byte	0x172
 5402 0ff9 D8000000 		.4byte	0xd8
 5403 0ffd 14       		.byte	0x14
 5404 0ffe 00       		.byte	0
 5405 0fff 09       		.uleb128 0x9
 5406 1000 C1070000 		.4byte	.LASF235
 5407 1004 12       		.byte	0x12
 5408 1005 7301     		.2byte	0x173
 5409 1007 A80F0000 		.4byte	0xfa8
 5410 100b 0C       		.uleb128 0xc
 5411 100c D8000000 		.4byte	0xd8
 5412 1010 1B100000 		.4byte	0x101b
 5413 1014 0D       		.uleb128 0xd
 5414 1015 9B000000 		.4byte	0x9b
 5415 1019 01       		.byte	0x1
 5416 101a 00       		.byte	0
 5417 101b 06       		.uleb128 0x6
 5418 101c 0B100000 		.4byte	0x100b
 5419 1020 0C       		.uleb128 0xc
 5420 1021 D8000000 		.4byte	0xd8
 5421 1025 30100000 		.4byte	0x1030
 5422 1029 0D       		.uleb128 0xd
 5423 102a 9B000000 		.4byte	0x9b
 5424 102e 03       		.byte	0x3
ARM GAS  /tmp/ccJYnsep.s 			page 98


 5425 102f 00       		.byte	0
 5426 1030 06       		.uleb128 0x6
 5427 1031 20100000 		.4byte	0x1020
 5428 1035 1C       		.uleb128 0x1c
 5429 1036 28       		.byte	0x28
 5430 1037 12       		.byte	0x12
 5431 1038 3F02     		.2byte	0x23f
 5432 103a C0100000 		.4byte	0x10c0
 5433 103e 24       		.uleb128 0x24
 5434 103f 43523100 		.ascii	"CR1\000"
 5435 1043 12       		.byte	0x12
 5436 1044 4102     		.2byte	0x241
 5437 1046 D8000000 		.4byte	0xd8
 5438 104a 00       		.byte	0
 5439 104b 24       		.uleb128 0x24
 5440 104c 43523200 		.ascii	"CR2\000"
 5441 1050 12       		.byte	0x12
 5442 1051 4202     		.2byte	0x242
 5443 1053 D8000000 		.4byte	0xd8
 5444 1057 04       		.byte	0x4
 5445 1058 19       		.uleb128 0x19
 5446 1059 3C240000 		.4byte	.LASF236
 5447 105d 12       		.byte	0x12
 5448 105e 4302     		.2byte	0x243
 5449 1060 D8000000 		.4byte	0xd8
 5450 1064 08       		.byte	0x8
 5451 1065 19       		.uleb128 0x19
 5452 1066 41240000 		.4byte	.LASF237
 5453 106a 12       		.byte	0x12
 5454 106b 4402     		.2byte	0x244
 5455 106d D8000000 		.4byte	0xd8
 5456 1071 0C       		.byte	0xc
 5457 1072 24       		.uleb128 0x24
 5458 1073 445200   		.ascii	"DR\000"
 5459 1076 12       		.byte	0x12
 5460 1077 4502     		.2byte	0x245
 5461 1079 D8000000 		.4byte	0xd8
 5462 107d 10       		.byte	0x10
 5463 107e 24       		.uleb128 0x24
 5464 107f 53523100 		.ascii	"SR1\000"
 5465 1083 12       		.byte	0x12
 5466 1084 4602     		.2byte	0x246
 5467 1086 D8000000 		.4byte	0xd8
 5468 108a 14       		.byte	0x14
 5469 108b 24       		.uleb128 0x24
 5470 108c 53523200 		.ascii	"SR2\000"
 5471 1090 12       		.byte	0x12
 5472 1091 4702     		.2byte	0x247
 5473 1093 D8000000 		.4byte	0xd8
 5474 1097 18       		.byte	0x18
 5475 1098 24       		.uleb128 0x24
 5476 1099 43435200 		.ascii	"CCR\000"
 5477 109d 12       		.byte	0x12
 5478 109e 4802     		.2byte	0x248
 5479 10a0 D8000000 		.4byte	0xd8
 5480 10a4 1C       		.byte	0x1c
 5481 10a5 19       		.uleb128 0x19
ARM GAS  /tmp/ccJYnsep.s 			page 99


 5482 10a6 E7040000 		.4byte	.LASF238
 5483 10aa 12       		.byte	0x12
 5484 10ab 4902     		.2byte	0x249
 5485 10ad D8000000 		.4byte	0xd8
 5486 10b1 20       		.byte	0x20
 5487 10b2 19       		.uleb128 0x19
 5488 10b3 FB220000 		.4byte	.LASF239
 5489 10b7 12       		.byte	0x12
 5490 10b8 4A02     		.2byte	0x24a
 5491 10ba D8000000 		.4byte	0xd8
 5492 10be 24       		.byte	0x24
 5493 10bf 00       		.byte	0
 5494 10c0 09       		.uleb128 0x9
 5495 10c1 63120000 		.4byte	.LASF240
 5496 10c5 12       		.byte	0x12
 5497 10c6 4B02     		.2byte	0x24b
 5498 10c8 35100000 		.4byte	0x1035
 5499 10cc 1C       		.uleb128 0x1c
 5500 10cd 24       		.byte	0x24
 5501 10ce 12       		.byte	0x12
 5502 10cf DB02     		.2byte	0x2db
 5503 10d1 49110000 		.4byte	0x1149
 5504 10d5 24       		.uleb128 0x24
 5505 10d6 43523100 		.ascii	"CR1\000"
 5506 10da 12       		.byte	0x12
 5507 10db DD02     		.2byte	0x2dd
 5508 10dd D8000000 		.4byte	0xd8
 5509 10e1 00       		.byte	0
 5510 10e2 24       		.uleb128 0x24
 5511 10e3 43523200 		.ascii	"CR2\000"
 5512 10e7 12       		.byte	0x12
 5513 10e8 DE02     		.2byte	0x2de
 5514 10ea D8000000 		.4byte	0xd8
 5515 10ee 04       		.byte	0x4
 5516 10ef 24       		.uleb128 0x24
 5517 10f0 535200   		.ascii	"SR\000"
 5518 10f3 12       		.byte	0x12
 5519 10f4 DF02     		.2byte	0x2df
 5520 10f6 D8000000 		.4byte	0xd8
 5521 10fa 08       		.byte	0x8
 5522 10fb 24       		.uleb128 0x24
 5523 10fc 445200   		.ascii	"DR\000"
 5524 10ff 12       		.byte	0x12
 5525 1100 E002     		.2byte	0x2e0
 5526 1102 D8000000 		.4byte	0xd8
 5527 1106 0C       		.byte	0xc
 5528 1107 19       		.uleb128 0x19
 5529 1108 4D070000 		.4byte	.LASF241
 5530 110c 12       		.byte	0x12
 5531 110d E102     		.2byte	0x2e1
 5532 110f D8000000 		.4byte	0xd8
 5533 1113 10       		.byte	0x10
 5534 1114 19       		.uleb128 0x19
 5535 1115 7E0B0000 		.4byte	.LASF242
 5536 1119 12       		.byte	0x12
 5537 111a E202     		.2byte	0x2e2
 5538 111c D8000000 		.4byte	0xd8
ARM GAS  /tmp/ccJYnsep.s 			page 100


 5539 1120 14       		.byte	0x14
 5540 1121 19       		.uleb128 0x19
 5541 1122 7A0A0000 		.4byte	.LASF243
 5542 1126 12       		.byte	0x12
 5543 1127 E302     		.2byte	0x2e3
 5544 1129 D8000000 		.4byte	0xd8
 5545 112d 18       		.byte	0x18
 5546 112e 19       		.uleb128 0x19
 5547 112f 06210000 		.4byte	.LASF244
 5548 1133 12       		.byte	0x12
 5549 1134 E402     		.2byte	0x2e4
 5550 1136 D8000000 		.4byte	0xd8
 5551 113a 1C       		.byte	0x1c
 5552 113b 19       		.uleb128 0x19
 5553 113c 22070000 		.4byte	.LASF245
 5554 1140 12       		.byte	0x12
 5555 1141 E502     		.2byte	0x2e5
 5556 1143 D8000000 		.4byte	0xd8
 5557 1147 20       		.byte	0x20
 5558 1148 00       		.byte	0
 5559 1149 09       		.uleb128 0x9
 5560 114a 5E1F0000 		.4byte	.LASF246
 5561 114e 12       		.byte	0x12
 5562 114f E602     		.2byte	0x2e6
 5563 1151 CC100000 		.4byte	0x10cc
 5564 1155 1C       		.uleb128 0x1c
 5565 1156 1C       		.byte	0x1c
 5566 1157 12       		.byte	0x12
 5567 1158 0903     		.2byte	0x309
 5568 115a B8110000 		.4byte	0x11b8
 5569 115e 24       		.uleb128 0x24
 5570 115f 535200   		.ascii	"SR\000"
 5571 1162 12       		.byte	0x12
 5572 1163 0B03     		.2byte	0x30b
 5573 1165 D8000000 		.4byte	0xd8
 5574 1169 00       		.byte	0
 5575 116a 24       		.uleb128 0x24
 5576 116b 445200   		.ascii	"DR\000"
 5577 116e 12       		.byte	0x12
 5578 116f 0C03     		.2byte	0x30c
 5579 1171 D8000000 		.4byte	0xd8
 5580 1175 04       		.byte	0x4
 5581 1176 24       		.uleb128 0x24
 5582 1177 42525200 		.ascii	"BRR\000"
 5583 117b 12       		.byte	0x12
 5584 117c 0D03     		.2byte	0x30d
 5585 117e D8000000 		.4byte	0xd8
 5586 1182 08       		.byte	0x8
 5587 1183 24       		.uleb128 0x24
 5588 1184 43523100 		.ascii	"CR1\000"
 5589 1188 12       		.byte	0x12
 5590 1189 0E03     		.2byte	0x30e
 5591 118b D8000000 		.4byte	0xd8
 5592 118f 0C       		.byte	0xc
 5593 1190 24       		.uleb128 0x24
 5594 1191 43523200 		.ascii	"CR2\000"
 5595 1195 12       		.byte	0x12
ARM GAS  /tmp/ccJYnsep.s 			page 101


 5596 1196 0F03     		.2byte	0x30f
 5597 1198 D8000000 		.4byte	0xd8
 5598 119c 10       		.byte	0x10
 5599 119d 24       		.uleb128 0x24
 5600 119e 43523300 		.ascii	"CR3\000"
 5601 11a2 12       		.byte	0x12
 5602 11a3 1003     		.2byte	0x310
 5603 11a5 D8000000 		.4byte	0xd8
 5604 11a9 14       		.byte	0x14
 5605 11aa 19       		.uleb128 0x19
 5606 11ab 5E0F0000 		.4byte	.LASF247
 5607 11af 12       		.byte	0x12
 5608 11b0 1103     		.2byte	0x311
 5609 11b2 D8000000 		.4byte	0xd8
 5610 11b6 18       		.byte	0x18
 5611 11b7 00       		.byte	0
 5612 11b8 09       		.uleb128 0x9
 5613 11b9 AE230000 		.4byte	.LASF248
 5614 11bd 12       		.byte	0x12
 5615 11be 1203     		.2byte	0x312
 5616 11c0 55110000 		.4byte	0x1155
 5617 11c4 0C       		.uleb128 0xc
 5618 11c5 D8000000 		.4byte	0xd8
 5619 11c9 D4110000 		.4byte	0x11d4
 5620 11cd 0D       		.uleb128 0xd
 5621 11ce 9B000000 		.4byte	0x9b
 5622 11d2 0E       		.byte	0xe
 5623 11d3 00       		.byte	0
 5624 11d4 06       		.uleb128 0x6
 5625 11d5 C4110000 		.4byte	0x11c4
 5626 11d9 03       		.uleb128 0x3
 5627 11da 8C180000 		.4byte	.LASF249
 5628 11de 13       		.byte	0x13
 5629 11df 65       		.byte	0x65
 5630 11e0 A1010000 		.4byte	0x1a1
 5631 11e4 03       		.uleb128 0x3
 5632 11e5 D6080000 		.4byte	.LASF250
 5633 11e9 13       		.byte	0x13
 5634 11ea 6D       		.byte	0x6d
 5635 11eb DD000000 		.4byte	0xdd
 5636 11ef 11       		.uleb128 0x11
 5637 11f0 B3120000 		.4byte	.LASF251
 5638 11f4 04       		.byte	0x4
 5639 11f5 13       		.byte	0x13
 5640 11f6 89       		.byte	0x89
 5641 11f7 08120000 		.4byte	0x1208
 5642 11fb 12       		.uleb128 0x12
 5643 11fc 72313300 		.ascii	"r13\000"
 5644 1200 13       		.byte	0x13
 5645 1201 8A       		.byte	0x8a
 5646 1202 49130000 		.4byte	0x1349
 5647 1206 00       		.byte	0
 5648 1207 00       		.byte	0
 5649 1208 11       		.uleb128 0x11
 5650 1209 09000000 		.4byte	.LASF252
 5651 120d 64       		.byte	0x64
 5652 120e 14       		.byte	0x14
ARM GAS  /tmp/ccJYnsep.s 			page 102


 5653 120f F4       		.byte	0xf4
 5654 1210 49130000 		.4byte	0x1349
 5655 1214 12       		.uleb128 0x12
 5656 1215 73313600 		.ascii	"s16\000"
 5657 1219 14       		.byte	0x14
 5658 121a F6       		.byte	0xf6
 5659 121b D9110000 		.4byte	0x11d9
 5660 121f 00       		.byte	0
 5661 1220 12       		.uleb128 0x12
 5662 1221 73313700 		.ascii	"s17\000"
 5663 1225 14       		.byte	0x14
 5664 1226 F7       		.byte	0xf7
 5665 1227 D9110000 		.4byte	0x11d9
 5666 122b 04       		.byte	0x4
 5667 122c 12       		.uleb128 0x12
 5668 122d 73313800 		.ascii	"s18\000"
 5669 1231 14       		.byte	0x14
 5670 1232 F8       		.byte	0xf8
 5671 1233 D9110000 		.4byte	0x11d9
 5672 1237 08       		.byte	0x8
 5673 1238 12       		.uleb128 0x12
 5674 1239 73313900 		.ascii	"s19\000"
 5675 123d 14       		.byte	0x14
 5676 123e F9       		.byte	0xf9
 5677 123f D9110000 		.4byte	0x11d9
 5678 1243 0C       		.byte	0xc
 5679 1244 12       		.uleb128 0x12
 5680 1245 73323000 		.ascii	"s20\000"
 5681 1249 14       		.byte	0x14
 5682 124a FA       		.byte	0xfa
 5683 124b D9110000 		.4byte	0x11d9
 5684 124f 10       		.byte	0x10
 5685 1250 12       		.uleb128 0x12
 5686 1251 73323100 		.ascii	"s21\000"
 5687 1255 14       		.byte	0x14
 5688 1256 FB       		.byte	0xfb
 5689 1257 D9110000 		.4byte	0x11d9
 5690 125b 14       		.byte	0x14
 5691 125c 12       		.uleb128 0x12
 5692 125d 73323200 		.ascii	"s22\000"
 5693 1261 14       		.byte	0x14
 5694 1262 FC       		.byte	0xfc
 5695 1263 D9110000 		.4byte	0x11d9
 5696 1267 18       		.byte	0x18
 5697 1268 12       		.uleb128 0x12
 5698 1269 73323300 		.ascii	"s23\000"
 5699 126d 14       		.byte	0x14
 5700 126e FD       		.byte	0xfd
 5701 126f D9110000 		.4byte	0x11d9
 5702 1273 1C       		.byte	0x1c
 5703 1274 12       		.uleb128 0x12
 5704 1275 73323400 		.ascii	"s24\000"
 5705 1279 14       		.byte	0x14
 5706 127a FE       		.byte	0xfe
 5707 127b D9110000 		.4byte	0x11d9
 5708 127f 20       		.byte	0x20
 5709 1280 12       		.uleb128 0x12
ARM GAS  /tmp/ccJYnsep.s 			page 103


 5710 1281 73323500 		.ascii	"s25\000"
 5711 1285 14       		.byte	0x14
 5712 1286 FF       		.byte	0xff
 5713 1287 D9110000 		.4byte	0x11d9
 5714 128b 24       		.byte	0x24
 5715 128c 24       		.uleb128 0x24
 5716 128d 73323600 		.ascii	"s26\000"
 5717 1291 14       		.byte	0x14
 5718 1292 0001     		.2byte	0x100
 5719 1294 D9110000 		.4byte	0x11d9
 5720 1298 28       		.byte	0x28
 5721 1299 24       		.uleb128 0x24
 5722 129a 73323700 		.ascii	"s27\000"
 5723 129e 14       		.byte	0x14
 5724 129f 0101     		.2byte	0x101
 5725 12a1 D9110000 		.4byte	0x11d9
 5726 12a5 2C       		.byte	0x2c
 5727 12a6 24       		.uleb128 0x24
 5728 12a7 73323800 		.ascii	"s28\000"
 5729 12ab 14       		.byte	0x14
 5730 12ac 0201     		.2byte	0x102
 5731 12ae D9110000 		.4byte	0x11d9
 5732 12b2 30       		.byte	0x30
 5733 12b3 24       		.uleb128 0x24
 5734 12b4 73323900 		.ascii	"s29\000"
 5735 12b8 14       		.byte	0x14
 5736 12b9 0301     		.2byte	0x103
 5737 12bb D9110000 		.4byte	0x11d9
 5738 12bf 34       		.byte	0x34
 5739 12c0 24       		.uleb128 0x24
 5740 12c1 73333000 		.ascii	"s30\000"
 5741 12c5 14       		.byte	0x14
 5742 12c6 0401     		.2byte	0x104
 5743 12c8 D9110000 		.4byte	0x11d9
 5744 12cc 38       		.byte	0x38
 5745 12cd 24       		.uleb128 0x24
 5746 12ce 73333100 		.ascii	"s31\000"
 5747 12d2 14       		.byte	0x14
 5748 12d3 0501     		.2byte	0x105
 5749 12d5 D9110000 		.4byte	0x11d9
 5750 12d9 3C       		.byte	0x3c
 5751 12da 24       		.uleb128 0x24
 5752 12db 723400   		.ascii	"r4\000"
 5753 12de 14       		.byte	0x14
 5754 12df 0701     		.2byte	0x107
 5755 12e1 D9110000 		.4byte	0x11d9
 5756 12e5 40       		.byte	0x40
 5757 12e6 24       		.uleb128 0x24
 5758 12e7 723500   		.ascii	"r5\000"
 5759 12ea 14       		.byte	0x14
 5760 12eb 0801     		.2byte	0x108
 5761 12ed D9110000 		.4byte	0x11d9
 5762 12f1 44       		.byte	0x44
 5763 12f2 24       		.uleb128 0x24
 5764 12f3 723600   		.ascii	"r6\000"
 5765 12f6 14       		.byte	0x14
 5766 12f7 0901     		.2byte	0x109
ARM GAS  /tmp/ccJYnsep.s 			page 104


 5767 12f9 D9110000 		.4byte	0x11d9
 5768 12fd 48       		.byte	0x48
 5769 12fe 24       		.uleb128 0x24
 5770 12ff 723700   		.ascii	"r7\000"
 5771 1302 14       		.byte	0x14
 5772 1303 0A01     		.2byte	0x10a
 5773 1305 D9110000 		.4byte	0x11d9
 5774 1309 4C       		.byte	0x4c
 5775 130a 24       		.uleb128 0x24
 5776 130b 723800   		.ascii	"r8\000"
 5777 130e 14       		.byte	0x14
 5778 130f 0B01     		.2byte	0x10b
 5779 1311 D9110000 		.4byte	0x11d9
 5780 1315 50       		.byte	0x50
 5781 1316 24       		.uleb128 0x24
 5782 1317 723900   		.ascii	"r9\000"
 5783 131a 14       		.byte	0x14
 5784 131b 0C01     		.2byte	0x10c
 5785 131d D9110000 		.4byte	0x11d9
 5786 1321 54       		.byte	0x54
 5787 1322 24       		.uleb128 0x24
 5788 1323 72313000 		.ascii	"r10\000"
 5789 1327 14       		.byte	0x14
 5790 1328 0D01     		.2byte	0x10d
 5791 132a D9110000 		.4byte	0x11d9
 5792 132e 58       		.byte	0x58
 5793 132f 24       		.uleb128 0x24
 5794 1330 72313100 		.ascii	"r11\000"
 5795 1334 14       		.byte	0x14
 5796 1335 0E01     		.2byte	0x10e
 5797 1337 D9110000 		.4byte	0x11d9
 5798 133b 5C       		.byte	0x5c
 5799 133c 24       		.uleb128 0x24
 5800 133d 6C7200   		.ascii	"lr\000"
 5801 1340 14       		.byte	0x14
 5802 1341 0F01     		.2byte	0x10f
 5803 1343 D9110000 		.4byte	0x11d9
 5804 1347 60       		.byte	0x60
 5805 1348 00       		.byte	0
 5806 1349 07       		.uleb128 0x7
 5807 134a 04       		.byte	0x4
 5808 134b 08120000 		.4byte	0x1208
 5809 134f 0E       		.uleb128 0xe
 5810 1350 04       		.byte	0x4
 5811 1351 15       		.byte	0x15
 5812 1352 38       		.byte	0x38
 5813 1353 64130000 		.4byte	0x1364
 5814 1357 0F       		.uleb128 0xf
 5815 1358 E61E0000 		.4byte	.LASF253
 5816 135c 15       		.byte	0x15
 5817 135d 3C       		.byte	0x3c
 5818 135e 74090000 		.4byte	0x974
 5819 1362 00       		.byte	0
 5820 1363 00       		.byte	0
 5821 1364 03       		.uleb128 0x3
 5822 1365 3B050000 		.4byte	.LASF254
 5823 1369 15       		.byte	0x15
ARM GAS  /tmp/ccJYnsep.s 			page 105


 5824 136a 3D       		.byte	0x3d
 5825 136b 4F130000 		.4byte	0x134f
 5826 136f 0A       		.uleb128 0xa
 5827 1370 04       		.byte	0x4
 5828 1371 0F       		.byte	0xf
 5829 1372 FA       		.byte	0xfa
 5830 1373 CC130000 		.4byte	0x13cc
 5831 1377 1E       		.uleb128 0x1e
 5832 1378 A7100000 		.4byte	.LASF255
 5833 137c 0F       		.byte	0xf
 5834 137d 0101     		.2byte	0x101
 5835 137f B6090000 		.4byte	0x9b6
 5836 1383 1E       		.uleb128 0x1e
 5837 1384 C00E0000 		.4byte	.LASF256
 5838 1388 0F       		.byte	0xf
 5839 1389 0801     		.2byte	0x108
 5840 138b B6090000 		.4byte	0x9b6
 5841 138f 1E       		.uleb128 0x1e
 5842 1390 461C0000 		.4byte	.LASF257
 5843 1394 0F       		.byte	0xf
 5844 1395 0F01     		.2byte	0x10f
 5845 1397 A1010000 		.4byte	0x1a1
 5846 139b 1E       		.uleb128 0x1e
 5847 139c BB170000 		.4byte	.LASF258
 5848 13a0 0F       		.byte	0xf
 5849 13a1 1601     		.2byte	0x116
 5850 13a3 CC130000 		.4byte	0x13cc
 5851 13a7 1E       		.uleb128 0x1e
 5852 13a8 02010000 		.4byte	.LASF259
 5853 13ac 0F       		.byte	0xf
 5854 13ad 1E01     		.2byte	0x11e
 5855 13af F7130000 		.4byte	0x13f7
 5856 13b3 1E       		.uleb128 0x1e
 5857 13b4 6F1C0000 		.4byte	.LASF260
 5858 13b8 0F       		.byte	0xf
 5859 13b9 2701     		.2byte	0x127
 5860 13bb 2E140000 		.4byte	0x142e
 5861 13bf 1E       		.uleb128 0x1e
 5862 13c0 AD1F0000 		.4byte	.LASF261
 5863 13c4 0F       		.byte	0xf
 5864 13c5 2F01     		.2byte	0x12f
 5865 13c7 C1090000 		.4byte	0x9c1
 5866 13cb 00       		.byte	0
 5867 13cc 07       		.uleb128 0x7
 5868 13cd 04       		.byte	0x4
 5869 13ce 1B0B0000 		.4byte	0xb1b
 5870 13d2 11       		.uleb128 0x11
 5871 13d3 C0160000 		.4byte	.LASF262
 5872 13d7 0C       		.byte	0xc
 5873 13d8 16       		.byte	0x16
 5874 13d9 34       		.byte	0x34
 5875 13da F7130000 		.4byte	0x13f7
 5876 13de 0F       		.uleb128 0xf
 5877 13df FE200000 		.4byte	.LASF263
 5878 13e3 16       		.byte	0x16
 5879 13e4 35       		.byte	0x35
 5880 13e5 500B0000 		.4byte	0xb50
ARM GAS  /tmp/ccJYnsep.s 			page 106


 5881 13e9 00       		.byte	0
 5882 13ea 0F       		.uleb128 0xf
 5883 13eb 63090000 		.4byte	.LASF264
 5884 13ef 16       		.byte	0x16
 5885 13f0 37       		.byte	0x37
 5886 13f1 D7090000 		.4byte	0x9d7
 5887 13f5 08       		.byte	0x8
 5888 13f6 00       		.byte	0
 5889 13f7 07       		.uleb128 0x7
 5890 13f8 04       		.byte	0x4
 5891 13f9 D2130000 		.4byte	0x13d2
 5892 13fd 11       		.uleb128 0x11
 5893 13fe 910B0000 		.4byte	.LASF265
 5894 1402 10       		.byte	0x10
 5895 1403 17       		.byte	0x17
 5896 1404 39       		.byte	0x39
 5897 1405 2E140000 		.4byte	0x142e
 5898 1409 0F       		.uleb128 0xf
 5899 140a A7130000 		.4byte	.LASF266
 5900 140e 17       		.byte	0x17
 5901 140f 3A       		.byte	0x3a
 5902 1410 500B0000 		.4byte	0xb50
 5903 1414 00       		.byte	0
 5904 1415 0F       		.uleb128 0xf
 5905 1416 F1150000 		.4byte	.LASF267
 5906 141a 17       		.byte	0x17
 5907 141b 3C       		.byte	0x3c
 5908 141c 260B0000 		.4byte	0xb26
 5909 1420 08       		.byte	0x8
 5910 1421 0F       		.uleb128 0xf
 5911 1422 A8010000 		.4byte	.LASF268
 5912 1426 17       		.byte	0x17
 5913 1427 3E       		.byte	0x3e
 5914 1428 72150000 		.4byte	0x1572
 5915 142c 0C       		.byte	0xc
 5916 142d 00       		.byte	0
 5917 142e 07       		.uleb128 0x7
 5918 142f 04       		.byte	0x4
 5919 1430 FD130000 		.4byte	0x13fd
 5920 1434 07       		.uleb128 0x7
 5921 1435 04       		.byte	0x4
 5922 1436 E4110000 		.4byte	0x11e4
 5923 143a 07       		.uleb128 0x7
 5924 143b 04       		.byte	0x4
 5925 143c 030C0000 		.4byte	0xc03
 5926 1440 0C       		.uleb128 0xc
 5927 1441 E4110000 		.4byte	0x11e4
 5928 1445 50140000 		.4byte	0x1450
 5929 1449 0D       		.uleb128 0xd
 5930 144a 9B000000 		.4byte	0x9b
 5931 144e 3B       		.byte	0x3b
 5932 144f 00       		.byte	0
 5933 1450 27       		.uleb128 0x27
 5934 1451 636800   		.ascii	"ch\000"
 5935 1454 0F       		.byte	0xf
 5936 1455 0902     		.2byte	0x209
 5937 1457 D00C0000 		.4byte	0xcd0
ARM GAS  /tmp/ccJYnsep.s 			page 107


 5938 145b 0E       		.uleb128 0xe
 5939 145c 16       		.byte	0x16
 5940 145d 18       		.byte	0x18
 5941 145e 34       		.byte	0x34
 5942 145f 3C150000 		.4byte	0x153c
 5943 1463 0F       		.uleb128 0xf
 5944 1464 1E210000 		.4byte	.LASF269
 5945 1468 18       		.byte	0x18
 5946 1469 35       		.byte	0x35
 5947 146a 3C150000 		.4byte	0x153c
 5948 146e 00       		.byte	0
 5949 146f 0F       		.uleb128 0xf
 5950 1470 6C230000 		.4byte	.LASF270
 5951 1474 18       		.byte	0x18
 5952 1475 36       		.byte	0x36
 5953 1476 A2000000 		.4byte	0xa2
 5954 147a 04       		.byte	0x4
 5955 147b 0F       		.uleb128 0xf
 5956 147c FC020000 		.4byte	.LASF271
 5957 1480 18       		.byte	0x18
 5958 1481 37       		.byte	0x37
 5959 1482 A2000000 		.4byte	0xa2
 5960 1486 05       		.byte	0x5
 5961 1487 0F       		.uleb128 0xf
 5962 1488 1E160000 		.4byte	.LASF272
 5963 148c 18       		.byte	0x18
 5964 148d 38       		.byte	0x38
 5965 148e B2000000 		.4byte	0xb2
 5966 1492 06       		.byte	0x6
 5967 1493 0F       		.uleb128 0xf
 5968 1494 1E000000 		.4byte	.LASF273
 5969 1498 18       		.byte	0x18
 5970 1499 39       		.byte	0x39
 5971 149a A2000000 		.4byte	0xa2
 5972 149e 08       		.byte	0x8
 5973 149f 0F       		.uleb128 0xf
 5974 14a0 B6140000 		.4byte	.LASF274
 5975 14a4 18       		.byte	0x18
 5976 14a5 3A       		.byte	0x3a
 5977 14a6 A2000000 		.4byte	0xa2
 5978 14aa 09       		.byte	0x9
 5979 14ab 0F       		.uleb128 0xf
 5980 14ac ED220000 		.4byte	.LASF275
 5981 14b0 18       		.byte	0x18
 5982 14b1 3B       		.byte	0x3b
 5983 14b2 A2000000 		.4byte	0xa2
 5984 14b6 0A       		.byte	0xa
 5985 14b7 0F       		.uleb128 0xf
 5986 14b8 4A210000 		.4byte	.LASF276
 5987 14bc 18       		.byte	0x18
 5988 14bd 3C       		.byte	0x3c
 5989 14be A2000000 		.4byte	0xa2
 5990 14c2 0B       		.byte	0xb
 5991 14c3 0F       		.uleb128 0xf
 5992 14c4 9A200000 		.4byte	.LASF277
 5993 14c8 18       		.byte	0x18
 5994 14c9 3D       		.byte	0x3d
ARM GAS  /tmp/ccJYnsep.s 			page 108


 5995 14ca A2000000 		.4byte	0xa2
 5996 14ce 0C       		.byte	0xc
 5997 14cf 0F       		.uleb128 0xf
 5998 14d0 F00C0000 		.4byte	.LASF278
 5999 14d4 18       		.byte	0x18
 6000 14d5 3E       		.byte	0x3e
 6001 14d6 A2000000 		.4byte	0xa2
 6002 14da 0D       		.byte	0xd
 6003 14db 0F       		.uleb128 0xf
 6004 14dc 77050000 		.4byte	.LASF279
 6005 14e0 18       		.byte	0x18
 6006 14e1 3F       		.byte	0x3f
 6007 14e2 A2000000 		.4byte	0xa2
 6008 14e6 0E       		.byte	0xe
 6009 14e7 0F       		.uleb128 0xf
 6010 14e8 8D0E0000 		.4byte	.LASF280
 6011 14ec 18       		.byte	0x18
 6012 14ed 40       		.byte	0x40
 6013 14ee A2000000 		.4byte	0xa2
 6014 14f2 0F       		.byte	0xf
 6015 14f3 0F       		.uleb128 0xf
 6016 14f4 27100000 		.4byte	.LASF281
 6017 14f8 18       		.byte	0x18
 6018 14f9 41       		.byte	0x41
 6019 14fa A2000000 		.4byte	0xa2
 6020 14fe 10       		.byte	0x10
 6021 14ff 0F       		.uleb128 0xf
 6022 1500 E4150000 		.4byte	.LASF282
 6023 1504 18       		.byte	0x18
 6024 1505 43       		.byte	0x43
 6025 1506 A2000000 		.4byte	0xa2
 6026 150a 11       		.byte	0x11
 6027 150b 0F       		.uleb128 0xf
 6028 150c A8020000 		.4byte	.LASF283
 6029 1510 18       		.byte	0x18
 6030 1511 44       		.byte	0x44
 6031 1512 A2000000 		.4byte	0xa2
 6032 1516 12       		.byte	0x12
 6033 1517 0F       		.uleb128 0xf
 6034 1518 D8150000 		.4byte	.LASF284
 6035 151c 18       		.byte	0x18
 6036 151d 45       		.byte	0x45
 6037 151e A2000000 		.4byte	0xa2
 6038 1522 13       		.byte	0x13
 6039 1523 0F       		.uleb128 0xf
 6040 1524 9F1B0000 		.4byte	.LASF285
 6041 1528 18       		.byte	0x18
 6042 1529 46       		.byte	0x46
 6043 152a A2000000 		.4byte	0xa2
 6044 152e 14       		.byte	0x14
 6045 152f 0F       		.uleb128 0xf
 6046 1530 E0000000 		.4byte	.LASF286
 6047 1534 18       		.byte	0x18
 6048 1535 48       		.byte	0x48
 6049 1536 A2000000 		.4byte	0xa2
 6050 153a 15       		.byte	0x15
 6051 153b 00       		.byte	0
ARM GAS  /tmp/ccJYnsep.s 			page 109


 6052 153c 0C       		.uleb128 0xc
 6053 153d A9010000 		.4byte	0x1a9
 6054 1541 4C150000 		.4byte	0x154c
 6055 1545 0D       		.uleb128 0xd
 6056 1546 9B000000 		.4byte	0x9b
 6057 154a 03       		.byte	0x3
 6058 154b 00       		.byte	0
 6059 154c 03       		.uleb128 0x3
 6060 154d 2D140000 		.4byte	.LASF287
 6061 1551 18       		.byte	0x18
 6062 1552 49       		.byte	0x49
 6063 1553 5B140000 		.4byte	0x145b
 6064 1557 05       		.uleb128 0x5
 6065 1558 4C150000 		.4byte	0x154c
 6066 155c 22       		.uleb128 0x22
 6067 155d CC0A0000 		.4byte	.LASF288
 6068 1561 18       		.byte	0x18
 6069 1562 6E       		.byte	0x6e
 6070 1563 57150000 		.4byte	0x1557
 6071 1567 03       		.uleb128 0x3
 6072 1568 A61D0000 		.4byte	.LASF289
 6073 156c 17       		.byte	0x17
 6074 156d 34       		.byte	0x34
 6075 156e FD130000 		.4byte	0x13fd
 6076 1572 07       		.uleb128 0x7
 6077 1573 04       		.byte	0x4
 6078 1574 67150000 		.4byte	0x1567
 6079 1578 03       		.uleb128 0x3
 6080 1579 270B0000 		.4byte	.LASF290
 6081 157d 19       		.byte	0x19
 6082 157e 34       		.byte	0x34
 6083 157f 83150000 		.4byte	0x1583
 6084 1583 11       		.uleb128 0x11
 6085 1584 4C090000 		.4byte	.LASF291
 6086 1588 14       		.byte	0x14
 6087 1589 19       		.byte	0x19
 6088 158a 39       		.byte	0x39
 6089 158b CC150000 		.4byte	0x15cc
 6090 158f 0F       		.uleb128 0xf
 6091 1590 44020000 		.4byte	.LASF292
 6092 1594 19       		.byte	0x19
 6093 1595 3A       		.byte	0x3a
 6094 1596 CC150000 		.4byte	0x15cc
 6095 159a 00       		.byte	0
 6096 159b 0F       		.uleb128 0xf
 6097 159c 401E0000 		.4byte	.LASF293
 6098 15a0 19       		.byte	0x19
 6099 15a1 3D       		.byte	0x3d
 6100 15a2 260B0000 		.4byte	0xb26
 6101 15a6 04       		.byte	0x4
 6102 15a7 0F       		.uleb128 0xf
 6103 15a8 64030000 		.4byte	.LASF294
 6104 15ac 19       		.byte	0x19
 6105 15ad 3F       		.byte	0x3f
 6106 15ae C1090000 		.4byte	0x9c1
 6107 15b2 08       		.byte	0x8
 6108 15b3 0F       		.uleb128 0xf
ARM GAS  /tmp/ccJYnsep.s 			page 110


 6109 15b4 B41F0000 		.4byte	.LASF295
 6110 15b8 19       		.byte	0x19
 6111 15b9 41       		.byte	0x41
 6112 15ba CC090000 		.4byte	0x9cc
 6113 15be 0C       		.byte	0xc
 6114 15bf 0F       		.uleb128 0xf
 6115 15c0 AC0E0000 		.4byte	.LASF296
 6116 15c4 19       		.byte	0x19
 6117 15c5 43       		.byte	0x43
 6118 15c6 CC090000 		.4byte	0x9cc
 6119 15ca 10       		.byte	0x10
 6120 15cb 00       		.byte	0
 6121 15cc 07       		.uleb128 0x7
 6122 15cd 04       		.byte	0x4
 6123 15ce 78150000 		.4byte	0x1578
 6124 15d2 11       		.uleb128 0x11
 6125 15d3 CA1F0000 		.4byte	.LASF297
 6126 15d7 04       		.byte	0x4
 6127 15d8 19       		.byte	0x19
 6128 15d9 4A       		.byte	0x4a
 6129 15da EB150000 		.4byte	0x15eb
 6130 15de 0F       		.uleb128 0xf
 6131 15df 1D1F0000 		.4byte	.LASF298
 6132 15e3 19       		.byte	0x19
 6133 15e4 4B       		.byte	0x4b
 6134 15e5 CC150000 		.4byte	0x15cc
 6135 15e9 00       		.byte	0
 6136 15ea 00       		.byte	0
 6137 15eb 03       		.uleb128 0x3
 6138 15ec E3140000 		.4byte	.LASF299
 6139 15f0 19       		.byte	0x19
 6140 15f1 4E       		.byte	0x4e
 6141 15f2 D2150000 		.4byte	0x15d2
 6142 15f6 03       		.uleb128 0x3
 6143 15f7 F10E0000 		.4byte	.LASF300
 6144 15fb 1A       		.byte	0x1a
 6145 15fc 3F       		.byte	0x3f
 6146 15fd 01160000 		.4byte	0x1601
 6147 1601 11       		.uleb128 0x11
 6148 1602 26110000 		.4byte	.LASF301
 6149 1606 24       		.byte	0x24
 6150 1607 1A       		.byte	0x1a
 6151 1608 4D       		.byte	0x4d
 6152 1609 6E160000 		.4byte	0x166e
 6153 160d 0F       		.uleb128 0xf
 6154 160e 06050000 		.4byte	.LASF302
 6155 1612 1A       		.byte	0x1a
 6156 1613 4E       		.byte	0x4e
 6157 1614 500B0000 		.4byte	0xb50
 6158 1618 00       		.byte	0
 6159 1619 0F       		.uleb128 0xf
 6160 161a 6B170000 		.4byte	.LASF303
 6161 161e 1A       		.byte	0x1a
 6162 161f 4F       		.byte	0x4f
 6163 1620 F3000000 		.4byte	0xf3
 6164 1624 08       		.byte	0x8
 6165 1625 0F       		.uleb128 0xf
ARM GAS  /tmp/ccJYnsep.s 			page 111


 6166 1626 F2110000 		.4byte	.LASF304
 6167 162a 1A       		.byte	0x1a
 6168 162b 50       		.byte	0x50
 6169 162c 90160000 		.4byte	0x1690
 6170 1630 0C       		.byte	0xc
 6171 1631 0F       		.uleb128 0xf
 6172 1632 4A040000 		.4byte	.LASF305
 6173 1636 1A       		.byte	0x1a
 6174 1637 51       		.byte	0x51
 6175 1638 90160000 		.4byte	0x1690
 6176 163c 10       		.byte	0x10
 6177 163d 0F       		.uleb128 0xf
 6178 163e 14190000 		.4byte	.LASF306
 6179 1642 1A       		.byte	0x1a
 6180 1643 53       		.byte	0x53
 6181 1644 90160000 		.4byte	0x1690
 6182 1648 14       		.byte	0x14
 6183 1649 0F       		.uleb128 0xf
 6184 164a C1170000 		.4byte	.LASF307
 6185 164e 1A       		.byte	0x1a
 6186 164f 54       		.byte	0x54
 6187 1650 90160000 		.4byte	0x1690
 6188 1654 18       		.byte	0x18
 6189 1655 0F       		.uleb128 0xf
 6190 1656 661C0000 		.4byte	.LASF308
 6191 165a 1A       		.byte	0x1a
 6192 165b 55       		.byte	0x55
 6193 165c 6E160000 		.4byte	0x166e
 6194 1660 1C       		.byte	0x1c
 6195 1661 0F       		.uleb128 0xf
 6196 1662 F0190000 		.4byte	.LASF309
 6197 1666 1A       		.byte	0x1a
 6198 1667 56       		.byte	0x56
 6199 1668 A1010000 		.4byte	0x1a1
 6200 166c 20       		.byte	0x20
 6201 166d 00       		.byte	0
 6202 166e 03       		.uleb128 0x3
 6203 166f 39040000 		.4byte	.LASF310
 6204 1673 1A       		.byte	0x1a
 6205 1674 42       		.byte	0x42
 6206 1675 79160000 		.4byte	0x1679
 6207 1679 07       		.uleb128 0x7
 6208 167a 04       		.byte	0x4
 6209 167b 7F160000 		.4byte	0x167f
 6210 167f 1F       		.uleb128 0x1f
 6211 1680 8A160000 		.4byte	0x168a
 6212 1684 17       		.uleb128 0x17
 6213 1685 8A160000 		.4byte	0x168a
 6214 1689 00       		.byte	0
 6215 168a 07       		.uleb128 0x7
 6216 168b 04       		.byte	0x4
 6217 168c F6150000 		.4byte	0x15f6
 6218 1690 07       		.uleb128 0x7
 6219 1691 04       		.byte	0x4
 6220 1692 A2000000 		.4byte	0xa2
 6221 1696 03       		.uleb128 0x3
 6222 1697 4C050000 		.4byte	.LASF311
ARM GAS  /tmp/ccJYnsep.s 			page 112


 6223 169b 1A       		.byte	0x1a
 6224 169c 64       		.byte	0x64
 6225 169d F6150000 		.4byte	0x15f6
 6226 16a1 03       		.uleb128 0x3
 6227 16a2 CA230000 		.4byte	.LASF312
 6228 16a6 1A       		.byte	0x1a
 6229 16a7 71       		.byte	0x71
 6230 16a8 F6150000 		.4byte	0x15f6
 6231 16ac 16       		.uleb128 0x16
 6232 16ad E8000000 		.4byte	0xe8
 6233 16b1 C5160000 		.4byte	0x16c5
 6234 16b5 17       		.uleb128 0x17
 6235 16b6 A1010000 		.4byte	0x1a1
 6236 16ba 17       		.uleb128 0x17
 6237 16bb C5160000 		.4byte	0x16c5
 6238 16bf 17       		.uleb128 0x17
 6239 16c0 E8000000 		.4byte	0xe8
 6240 16c4 00       		.byte	0
 6241 16c5 07       		.uleb128 0x7
 6242 16c6 04       		.byte	0x4
 6243 16c7 AD000000 		.4byte	0xad
 6244 16cb 07       		.uleb128 0x7
 6245 16cc 04       		.byte	0x4
 6246 16cd AC160000 		.4byte	0x16ac
 6247 16d1 16       		.uleb128 0x16
 6248 16d2 E8000000 		.4byte	0xe8
 6249 16d6 EA160000 		.4byte	0x16ea
 6250 16da 17       		.uleb128 0x17
 6251 16db A1010000 		.4byte	0x1a1
 6252 16df 17       		.uleb128 0x17
 6253 16e0 90160000 		.4byte	0x1690
 6254 16e4 17       		.uleb128 0x17
 6255 16e5 E8000000 		.4byte	0xe8
 6256 16e9 00       		.byte	0
 6257 16ea 07       		.uleb128 0x7
 6258 16eb 04       		.byte	0x4
 6259 16ec D1160000 		.4byte	0x16d1
 6260 16f0 16       		.uleb128 0x16
 6261 16f1 B6090000 		.4byte	0x9b6
 6262 16f5 04170000 		.4byte	0x1704
 6263 16f9 17       		.uleb128 0x17
 6264 16fa A1010000 		.4byte	0x1a1
 6265 16fe 17       		.uleb128 0x17
 6266 16ff A2000000 		.4byte	0xa2
 6267 1703 00       		.byte	0
 6268 1704 07       		.uleb128 0x7
 6269 1705 04       		.byte	0x4
 6270 1706 F0160000 		.4byte	0x16f0
 6271 170a 16       		.uleb128 0x16
 6272 170b B6090000 		.4byte	0x9b6
 6273 170f 19170000 		.4byte	0x1719
 6274 1713 17       		.uleb128 0x17
 6275 1714 A1010000 		.4byte	0x1a1
 6276 1718 00       		.byte	0
 6277 1719 07       		.uleb128 0x7
 6278 171a 04       		.byte	0x4
 6279 171b 0A170000 		.4byte	0x170a
ARM GAS  /tmp/ccJYnsep.s 			page 113


 6280 171f 02       		.uleb128 0x2
 6281 1720 04       		.byte	0x4
 6282 1721 04       		.byte	0x4
 6283 1722 C9090000 		.4byte	.LASF313
 6284 1726 02       		.uleb128 0x2
 6285 1727 01       		.byte	0x1
 6286 1728 02       		.byte	0x2
 6287 1729 09010000 		.4byte	.LASF314
 6288 172d 0C       		.uleb128 0xc
 6289 172e A2000000 		.4byte	0xa2
 6290 1732 3D170000 		.4byte	0x173d
 6291 1736 0D       		.uleb128 0xd
 6292 1737 9B000000 		.4byte	0x9b
 6293 173b 07       		.byte	0x7
 6294 173c 00       		.byte	0
 6295 173d 02       		.uleb128 0x2
 6296 173e 08       		.byte	0x8
 6297 173f 04       		.byte	0x4
 6298 1740 841C0000 		.4byte	.LASF315
 6299 1744 1C       		.uleb128 0x1c
 6300 1745 18       		.byte	0x18
 6301 1746 1B       		.byte	0x1b
 6302 1747 3D05     		.2byte	0x53d
 6303 1749 82170000 		.4byte	0x1782
 6304 174d 19       		.uleb128 0x19
 6305 174e 29160000 		.4byte	.LASF316
 6306 1752 1B       		.byte	0x1b
 6307 1753 3E05     		.2byte	0x53e
 6308 1755 CD000000 		.4byte	0xcd
 6309 1759 00       		.byte	0
 6310 175a 19       		.uleb128 0x19
 6311 175b DD0F0000 		.4byte	.LASF317
 6312 175f 1B       		.byte	0x1b
 6313 1760 3F05     		.2byte	0x53f
 6314 1762 DD000000 		.4byte	0xdd
 6315 1766 04       		.byte	0x4
 6316 1767 19       		.uleb128 0x19
 6317 1768 59190000 		.4byte	.LASF318
 6318 176c 1B       		.byte	0x1b
 6319 176d 4105     		.2byte	0x541
 6320 176f CD000000 		.4byte	0xcd
 6321 1773 0C       		.byte	0xc
 6322 1774 19       		.uleb128 0x19
 6323 1775 FE090000 		.4byte	.LASF319
 6324 1779 1B       		.byte	0x1b
 6325 177a 4205     		.2byte	0x542
 6326 177c DD000000 		.4byte	0xdd
 6327 1780 10       		.byte	0x10
 6328 1781 00       		.byte	0
 6329 1782 09       		.uleb128 0x9
 6330 1783 A0160000 		.4byte	.LASF320
 6331 1787 1B       		.byte	0x1b
 6332 1788 4305     		.2byte	0x543
 6333 178a 44170000 		.4byte	0x1744
 6334 178e 06       		.uleb128 0x6
 6335 178f 82170000 		.4byte	0x1782
 6336 1793 20       		.uleb128 0x20
ARM GAS  /tmp/ccJYnsep.s 			page 114


 6337 1794 4E180000 		.4byte	.LASF321
 6338 1798 1C       		.byte	0x1c
 6339 1799 6201     		.2byte	0x162
 6340 179b 26170000 		.4byte	0x1726
 6341 179f 20       		.uleb128 0x20
 6342 17a0 3B0F0000 		.4byte	.LASF322
 6343 17a4 1C       		.byte	0x1c
 6344 17a5 6301     		.2byte	0x163
 6345 17a7 8E170000 		.4byte	0x178e
 6346 17ab 0E       		.uleb128 0xe
 6347 17ac 0C       		.byte	0xc
 6348 17ad 1D       		.byte	0x1d
 6349 17ae DA       		.byte	0xda
 6350 17af F0170000 		.4byte	0x17f0
 6351 17b3 0F       		.uleb128 0xf
 6352 17b4 34230000 		.4byte	.LASF323
 6353 17b8 1D       		.byte	0x1d
 6354 17b9 DB       		.byte	0xdb
 6355 17ba F0170000 		.4byte	0x17f0
 6356 17be 00       		.byte	0
 6357 17bf 0F       		.uleb128 0xf
 6358 17c0 89100000 		.4byte	.LASF324
 6359 17c4 1D       		.byte	0x1d
 6360 17c5 DC       		.byte	0xdc
 6361 17c6 F6170000 		.4byte	0x17f6
 6362 17ca 04       		.byte	0x4
 6363 17cb 0F       		.uleb128 0xf
 6364 17cc 43040000 		.4byte	.LASF325
 6365 17d0 1D       		.byte	0x1d
 6366 17d1 DD       		.byte	0xdd
 6367 17d2 A2000000 		.4byte	0xa2
 6368 17d6 08       		.byte	0x8
 6369 17d7 0F       		.uleb128 0xf
 6370 17d8 9C1D0000 		.4byte	.LASF326
 6371 17dc 1D       		.byte	0x1d
 6372 17dd DF       		.byte	0xdf
 6373 17de A2000000 		.4byte	0xa2
 6374 17e2 09       		.byte	0x9
 6375 17e3 0F       		.uleb128 0xf
 6376 17e4 97030000 		.4byte	.LASF327
 6377 17e8 1D       		.byte	0x1d
 6378 17e9 E0       		.byte	0xe0
 6379 17ea A2000000 		.4byte	0xa2
 6380 17ee 0A       		.byte	0xa
 6381 17ef 00       		.byte	0
 6382 17f0 07       		.uleb128 0x7
 6383 17f1 04       		.byte	0x4
 6384 17f2 FF0F0000 		.4byte	0xfff
 6385 17f6 07       		.uleb128 0x7
 6386 17f7 04       		.byte	0x4
 6387 17f8 D8000000 		.4byte	0xd8
 6388 17fc 03       		.uleb128 0x3
 6389 17fd E9120000 		.4byte	.LASF328
 6390 1801 1D       		.byte	0x1d
 6391 1802 E1       		.byte	0xe1
 6392 1803 AB170000 		.4byte	0x17ab
 6393 1807 05       		.uleb128 0x5
ARM GAS  /tmp/ccJYnsep.s 			page 115


 6394 1808 FC170000 		.4byte	0x17fc
 6395 180c 0C       		.uleb128 0xc
 6396 180d 07180000 		.4byte	0x1807
 6397 1811 1C180000 		.4byte	0x181c
 6398 1815 0D       		.uleb128 0xd
 6399 1816 9B000000 		.4byte	0x9b
 6400 181a 0F       		.byte	0xf
 6401 181b 00       		.byte	0
 6402 181c 05       		.uleb128 0x5
 6403 181d 0C180000 		.4byte	0x180c
 6404 1821 20       		.uleb128 0x20
 6405 1822 C61A0000 		.4byte	.LASF329
 6406 1826 1D       		.byte	0x1d
 6407 1827 BB01     		.2byte	0x1bb
 6408 1829 1C180000 		.4byte	0x181c
 6409 182d 16       		.uleb128 0x16
 6410 182e B6090000 		.4byte	0x9b6
 6411 1832 46180000 		.4byte	0x1846
 6412 1836 17       		.uleb128 0x17
 6413 1837 A1010000 		.4byte	0x1a1
 6414 183b 17       		.uleb128 0x17
 6415 183c A2000000 		.4byte	0xa2
 6416 1840 17       		.uleb128 0x17
 6417 1841 E2090000 		.4byte	0x9e2
 6418 1845 00       		.byte	0
 6419 1846 07       		.uleb128 0x7
 6420 1847 04       		.byte	0x4
 6421 1848 2D180000 		.4byte	0x182d
 6422 184c 16       		.uleb128 0x16
 6423 184d B6090000 		.4byte	0x9b6
 6424 1851 60180000 		.4byte	0x1860
 6425 1855 17       		.uleb128 0x17
 6426 1856 A1010000 		.4byte	0x1a1
 6427 185a 17       		.uleb128 0x17
 6428 185b E2090000 		.4byte	0x9e2
 6429 185f 00       		.byte	0
 6430 1860 07       		.uleb128 0x7
 6431 1861 04       		.byte	0x4
 6432 1862 4C180000 		.4byte	0x184c
 6433 1866 16       		.uleb128 0x16
 6434 1867 E8000000 		.4byte	0xe8
 6435 186b 84180000 		.4byte	0x1884
 6436 186f 17       		.uleb128 0x17
 6437 1870 A1010000 		.4byte	0x1a1
 6438 1874 17       		.uleb128 0x17
 6439 1875 C5160000 		.4byte	0x16c5
 6440 1879 17       		.uleb128 0x17
 6441 187a E8000000 		.4byte	0xe8
 6442 187e 17       		.uleb128 0x17
 6443 187f E2090000 		.4byte	0x9e2
 6444 1883 00       		.byte	0
 6445 1884 07       		.uleb128 0x7
 6446 1885 04       		.byte	0x4
 6447 1886 66180000 		.4byte	0x1866
 6448 188a 16       		.uleb128 0x16
 6449 188b E8000000 		.4byte	0xe8
 6450 188f A8180000 		.4byte	0x18a8
ARM GAS  /tmp/ccJYnsep.s 			page 116


 6451 1893 17       		.uleb128 0x17
 6452 1894 A1010000 		.4byte	0x1a1
 6453 1898 17       		.uleb128 0x17
 6454 1899 90160000 		.4byte	0x1690
 6455 189d 17       		.uleb128 0x17
 6456 189e E8000000 		.4byte	0xe8
 6457 18a2 17       		.uleb128 0x17
 6458 18a3 E2090000 		.4byte	0x9e2
 6459 18a7 00       		.byte	0
 6460 18a8 07       		.uleb128 0x7
 6461 18a9 04       		.byte	0x4
 6462 18aa 8A180000 		.4byte	0x188a
 6463 18ae 0E       		.uleb128 0xe
 6464 18af 04       		.byte	0x4
 6465 18b0 1E       		.byte	0x1e
 6466 18b1 B3       		.byte	0xb3
 6467 18b2 CF180000 		.4byte	0x18cf
 6468 18b6 12       		.uleb128 0x12
 6469 18b7 73657400 		.ascii	"set\000"
 6470 18bb 1E       		.byte	0x1e
 6471 18bc B4       		.byte	0xb4
 6472 18bd B2000000 		.4byte	0xb2
 6473 18c1 00       		.byte	0
 6474 18c2 0F       		.uleb128 0xf
 6475 18c3 E00D0000 		.4byte	.LASF330
 6476 18c7 1E       		.byte	0x1e
 6477 18c8 B5       		.byte	0xb5
 6478 18c9 B2000000 		.4byte	0xb2
 6479 18cd 02       		.byte	0x2
 6480 18ce 00       		.byte	0
 6481 18cf 0A       		.uleb128 0xa
 6482 18d0 04       		.byte	0x4
 6483 18d1 1E       		.byte	0x1e
 6484 18d2 B1       		.byte	0xb1
 6485 18d3 EA180000 		.4byte	0x18ea
 6486 18d7 28       		.uleb128 0x28
 6487 18d8 5700     		.ascii	"W\000"
 6488 18da 1E       		.byte	0x1e
 6489 18db B2       		.byte	0xb2
 6490 18dc CD000000 		.4byte	0xcd
 6491 18e0 28       		.uleb128 0x28
 6492 18e1 4800     		.ascii	"H\000"
 6493 18e3 1E       		.byte	0x1e
 6494 18e4 B6       		.byte	0xb6
 6495 18e5 AE180000 		.4byte	0x18ae
 6496 18e9 00       		.byte	0
 6497 18ea 06       		.uleb128 0x6
 6498 18eb CF180000 		.4byte	0x18cf
 6499 18ef 0E       		.uleb128 0xe
 6500 18f0 2C       		.byte	0x2c
 6501 18f1 1E       		.byte	0x1e
 6502 18f2 A9       		.byte	0xa9
 6503 18f3 7C190000 		.4byte	0x197c
 6504 18f7 0F       		.uleb128 0xf
 6505 18f8 C31D0000 		.4byte	.LASF331
 6506 18fc 1E       		.byte	0x1e
 6507 18fd AB       		.byte	0xab
ARM GAS  /tmp/ccJYnsep.s 			page 117


 6508 18fe D8000000 		.4byte	0xd8
 6509 1902 00       		.byte	0
 6510 1903 0F       		.uleb128 0xf
 6511 1904 34030000 		.4byte	.LASF332
 6512 1908 1E       		.byte	0x1e
 6513 1909 AC       		.byte	0xac
 6514 190a D8000000 		.4byte	0xd8
 6515 190e 04       		.byte	0x4
 6516 190f 0F       		.uleb128 0xf
 6517 1910 750F0000 		.4byte	.LASF333
 6518 1914 1E       		.byte	0x1e
 6519 1915 AD       		.byte	0xad
 6520 1916 D8000000 		.4byte	0xd8
 6521 191a 08       		.byte	0x8
 6522 191b 0F       		.uleb128 0xf
 6523 191c FC1C0000 		.4byte	.LASF334
 6524 1920 1E       		.byte	0x1e
 6525 1921 AE       		.byte	0xae
 6526 1922 D8000000 		.4byte	0xd8
 6527 1926 0C       		.byte	0xc
 6528 1927 12       		.uleb128 0x12
 6529 1928 49445200 		.ascii	"IDR\000"
 6530 192c 1E       		.byte	0x1e
 6531 192d AF       		.byte	0xaf
 6532 192e D8000000 		.4byte	0xd8
 6533 1932 10       		.byte	0x10
 6534 1933 12       		.uleb128 0x12
 6535 1934 4F445200 		.ascii	"ODR\000"
 6536 1938 1E       		.byte	0x1e
 6537 1939 B0       		.byte	0xb0
 6538 193a D8000000 		.4byte	0xd8
 6539 193e 14       		.byte	0x14
 6540 193f 0F       		.uleb128 0xf
 6541 1940 E4120000 		.4byte	.LASF335
 6542 1944 1E       		.byte	0x1e
 6543 1945 B7       		.byte	0xb7
 6544 1946 EA180000 		.4byte	0x18ea
 6545 194a 18       		.byte	0x18
 6546 194b 0F       		.uleb128 0xf
 6547 194c 13180000 		.4byte	.LASF336
 6548 1950 1E       		.byte	0x1e
 6549 1951 B8       		.byte	0xb8
 6550 1952 D8000000 		.4byte	0xd8
 6551 1956 1C       		.byte	0x1c
 6552 1957 0F       		.uleb128 0xf
 6553 1958 721B0000 		.4byte	.LASF337
 6554 195c 1E       		.byte	0x1e
 6555 195d B9       		.byte	0xb9
 6556 195e D8000000 		.4byte	0xd8
 6557 1962 20       		.byte	0x20
 6558 1963 0F       		.uleb128 0xf
 6559 1964 6D1B0000 		.4byte	.LASF338
 6560 1968 1E       		.byte	0x1e
 6561 1969 BA       		.byte	0xba
 6562 196a D8000000 		.4byte	0xd8
 6563 196e 24       		.byte	0x24
 6564 196f 12       		.uleb128 0x12
ARM GAS  /tmp/ccJYnsep.s 			page 118


 6565 1970 42525200 		.ascii	"BRR\000"
 6566 1974 1E       		.byte	0x1e
 6567 1975 BB       		.byte	0xbb
 6568 1976 D8000000 		.4byte	0xd8
 6569 197a 28       		.byte	0x28
 6570 197b 00       		.byte	0
 6571 197c 03       		.uleb128 0x3
 6572 197d 9A100000 		.4byte	.LASF339
 6573 1981 1E       		.byte	0x1e
 6574 1982 BC       		.byte	0xbc
 6575 1983 EF180000 		.4byte	0x18ef
 6576 1987 0E       		.uleb128 0xe
 6577 1988 1C       		.byte	0x1c
 6578 1989 1E       		.byte	0x1e
 6579 198a C1       		.byte	0xc1
 6580 198b E4190000 		.4byte	0x19e4
 6581 198f 0F       		.uleb128 0xf
 6582 1990 E7200000 		.4byte	.LASF340
 6583 1994 1E       		.byte	0x1e
 6584 1995 C3       		.byte	0xc3
 6585 1996 CD000000 		.4byte	0xcd
 6586 199a 00       		.byte	0
 6587 199b 0F       		.uleb128 0xf
 6588 199c 18030000 		.4byte	.LASF341
 6589 19a0 1E       		.byte	0x1e
 6590 19a1 C5       		.byte	0xc5
 6591 19a2 CD000000 		.4byte	0xcd
 6592 19a6 04       		.byte	0x4
 6593 19a7 0F       		.uleb128 0xf
 6594 19a8 23020000 		.4byte	.LASF342
 6595 19ac 1E       		.byte	0x1e
 6596 19ad C7       		.byte	0xc7
 6597 19ae CD000000 		.4byte	0xcd
 6598 19b2 08       		.byte	0x8
 6599 19b3 0F       		.uleb128 0xf
 6600 19b4 42200000 		.4byte	.LASF343
 6601 19b8 1E       		.byte	0x1e
 6602 19b9 C9       		.byte	0xc9
 6603 19ba CD000000 		.4byte	0xcd
 6604 19be 0C       		.byte	0xc
 6605 19bf 12       		.uleb128 0x12
 6606 19c0 6F647200 		.ascii	"odr\000"
 6607 19c4 1E       		.byte	0x1e
 6608 19c5 CB       		.byte	0xcb
 6609 19c6 CD000000 		.4byte	0xcd
 6610 19ca 10       		.byte	0x10
 6611 19cb 0F       		.uleb128 0xf
 6612 19cc 781D0000 		.4byte	.LASF344
 6613 19d0 1E       		.byte	0x1e
 6614 19d1 CD       		.byte	0xcd
 6615 19d2 CD000000 		.4byte	0xcd
 6616 19d6 14       		.byte	0x14
 6617 19d7 0F       		.uleb128 0xf
 6618 19d8 6A1D0000 		.4byte	.LASF345
 6619 19dc 1E       		.byte	0x1e
 6620 19dd CF       		.byte	0xcf
 6621 19de CD000000 		.4byte	0xcd
ARM GAS  /tmp/ccJYnsep.s 			page 119


 6622 19e2 18       		.byte	0x18
 6623 19e3 00       		.byte	0
 6624 19e4 03       		.uleb128 0x3
 6625 19e5 9E1A0000 		.4byte	.LASF346
 6626 19e9 1E       		.byte	0x1e
 6627 19ea D0       		.byte	0xd0
 6628 19eb 87190000 		.4byte	0x1987
 6629 19ef 0E       		.uleb128 0xe
 6630 19f0 FC       		.byte	0xfc
 6631 19f1 1E       		.byte	0x1e
 6632 19f2 D9       		.byte	0xd9
 6633 19f3 641A0000 		.4byte	0x1a64
 6634 19f7 0F       		.uleb128 0xf
 6635 19f8 39110000 		.4byte	.LASF347
 6636 19fc 1E       		.byte	0x1e
 6637 19fd DC       		.byte	0xdc
 6638 19fe E4190000 		.4byte	0x19e4
 6639 1a02 00       		.byte	0
 6640 1a03 0F       		.uleb128 0xf
 6641 1a04 F5020000 		.4byte	.LASF348
 6642 1a08 1E       		.byte	0x1e
 6643 1a09 E0       		.byte	0xe0
 6644 1a0a E4190000 		.4byte	0x19e4
 6645 1a0e 1C       		.byte	0x1c
 6646 1a0f 0F       		.uleb128 0xf
 6647 1a10 AF010000 		.4byte	.LASF349
 6648 1a14 1E       		.byte	0x1e
 6649 1a15 E4       		.byte	0xe4
 6650 1a16 E4190000 		.4byte	0x19e4
 6651 1a1a 38       		.byte	0x38
 6652 1a1b 0F       		.uleb128 0xf
 6653 1a1c C90E0000 		.4byte	.LASF350
 6654 1a20 1E       		.byte	0x1e
 6655 1a21 E8       		.byte	0xe8
 6656 1a22 E4190000 		.4byte	0x19e4
 6657 1a26 54       		.byte	0x54
 6658 1a27 0F       		.uleb128 0xf
 6659 1a28 BE190000 		.4byte	.LASF351
 6660 1a2c 1E       		.byte	0x1e
 6661 1a2d EC       		.byte	0xec
 6662 1a2e E4190000 		.4byte	0x19e4
 6663 1a32 70       		.byte	0x70
 6664 1a33 0F       		.uleb128 0xf
 6665 1a34 1D240000 		.4byte	.LASF352
 6666 1a38 1E       		.byte	0x1e
 6667 1a39 F0       		.byte	0xf0
 6668 1a3a E4190000 		.4byte	0x19e4
 6669 1a3e 8C       		.byte	0x8c
 6670 1a3f 0F       		.uleb128 0xf
 6671 1a40 AD0B0000 		.4byte	.LASF353
 6672 1a44 1E       		.byte	0x1e
 6673 1a45 F4       		.byte	0xf4
 6674 1a46 E4190000 		.4byte	0x19e4
 6675 1a4a A8       		.byte	0xa8
 6676 1a4b 0F       		.uleb128 0xf
 6677 1a4c 75170000 		.4byte	.LASF354
 6678 1a50 1E       		.byte	0x1e
ARM GAS  /tmp/ccJYnsep.s 			page 120


 6679 1a51 F8       		.byte	0xf8
 6680 1a52 E4190000 		.4byte	0x19e4
 6681 1a56 C4       		.byte	0xc4
 6682 1a57 0F       		.uleb128 0xf
 6683 1a58 3A220000 		.4byte	.LASF355
 6684 1a5c 1E       		.byte	0x1e
 6685 1a5d FC       		.byte	0xfc
 6686 1a5e E4190000 		.4byte	0x19e4
 6687 1a62 E0       		.byte	0xe0
 6688 1a63 00       		.byte	0
 6689 1a64 03       		.uleb128 0x3
 6690 1a65 E30A0000 		.4byte	.LASF356
 6691 1a69 1E       		.byte	0x1e
 6692 1a6a FE       		.byte	0xfe
 6693 1a6b EF190000 		.4byte	0x19ef
 6694 1a6f 05       		.uleb128 0x5
 6695 1a70 641A0000 		.4byte	0x1a64
 6696 1a74 09       		.uleb128 0x9
 6697 1a75 7C170000 		.4byte	.LASF357
 6698 1a79 1E       		.byte	0x1e
 6699 1a7a 1B01     		.2byte	0x11b
 6700 1a7c 801A0000 		.4byte	0x1a80
 6701 1a80 07       		.uleb128 0x7
 6702 1a81 04       		.byte	0x4
 6703 1a82 7C190000 		.4byte	0x197c
 6704 1a86 20       		.uleb128 0x20
 6705 1a87 2D1E0000 		.4byte	.LASF358
 6706 1a8b 1E       		.byte	0x1e
 6707 1a8c DA01     		.2byte	0x1da
 6708 1a8e 6F1A0000 		.4byte	0x1a6f
 6709 1a92 29       		.uleb128 0x29
 6710 1a93 07       		.byte	0x7
 6711 1a94 01       		.byte	0x1
 6712 1a95 37000000 		.4byte	0x37
 6713 1a99 1F       		.byte	0x1f
 6714 1a9a 5F       		.byte	0x5f
 6715 1a9b BE1A0000 		.4byte	0x1abe
 6716 1a9f 2A       		.uleb128 0x2a
 6717 1aa0 6B0E0000 		.4byte	.LASF359
 6718 1aa4 00       		.byte	0
 6719 1aa5 2A       		.uleb128 0x2a
 6720 1aa6 D7000000 		.4byte	.LASF360
 6721 1aaa 01       		.byte	0x1
 6722 1aab 2A       		.uleb128 0x2a
 6723 1aac 4A000000 		.4byte	.LASF361
 6724 1ab0 02       		.byte	0x2
 6725 1ab1 2A       		.uleb128 0x2a
 6726 1ab2 C3180000 		.4byte	.LASF362
 6727 1ab6 03       		.byte	0x3
 6728 1ab7 2A       		.uleb128 0x2a
 6729 1ab8 E9090000 		.4byte	.LASF363
 6730 1abc 04       		.byte	0x4
 6731 1abd 00       		.byte	0
 6732 1abe 03       		.uleb128 0x3
 6733 1abf AD050000 		.4byte	.LASF364
 6734 1ac3 1F       		.byte	0x1f
 6735 1ac4 65       		.byte	0x65
ARM GAS  /tmp/ccJYnsep.s 			page 121


 6736 1ac5 921A0000 		.4byte	0x1a92
 6737 1ac9 0E       		.uleb128 0xe
 6738 1aca 08       		.byte	0x8
 6739 1acb 20       		.byte	0x20
 6740 1acc F4       		.byte	0xf4
 6741 1acd EB1A0000 		.4byte	0x1aeb
 6742 1ad1 12       		.uleb128 0x12
 6743 1ad2 6D637200 		.ascii	"mcr\000"
 6744 1ad6 20       		.byte	0x20
 6745 1ad7 FA       		.byte	0xfa
 6746 1ad8 CD000000 		.4byte	0xcd
 6747 1adc 00       		.byte	0
 6748 1add 24       		.uleb128 0x24
 6749 1ade 62747200 		.ascii	"btr\000"
 6750 1ae2 20       		.byte	0x20
 6751 1ae3 0001     		.2byte	0x100
 6752 1ae5 CD000000 		.4byte	0xcd
 6753 1ae9 04       		.byte	0x4
 6754 1aea 00       		.byte	0
 6755 1aeb 09       		.uleb128 0x9
 6756 1aec B4190000 		.4byte	.LASF365
 6757 1af0 20       		.byte	0x20
 6758 1af1 0101     		.2byte	0x101
 6759 1af3 C91A0000 		.4byte	0x1ac9
 6760 1af7 05       		.uleb128 0x5
 6761 1af8 EB1A0000 		.4byte	0x1aeb
 6762 1afc 1C       		.uleb128 0x1c
 6763 1afd 30       		.byte	0x30
 6764 1afe 20       		.byte	0x20
 6765 1aff 0601     		.2byte	0x106
 6766 1b01 881B0000 		.4byte	0x1b88
 6767 1b05 19       		.uleb128 0x19
 6768 1b06 18160000 		.4byte	.LASF366
 6769 1b0a 20       		.byte	0x20
 6770 1b0b 0A01     		.2byte	0x10a
 6771 1b0d BE1A0000 		.4byte	0x1abe
 6772 1b11 00       		.byte	0
 6773 1b12 19       		.uleb128 0x19
 6774 1b13 C61B0000 		.4byte	.LASF367
 6775 1b17 20       		.byte	0x20
 6776 1b18 0E01     		.2byte	0x10e
 6777 1b1a 881B0000 		.4byte	0x1b88
 6778 1b1e 04       		.byte	0x4
 6779 1b1f 19       		.uleb128 0x19
 6780 1b20 5B090000 		.4byte	.LASF368
 6781 1b24 20       		.byte	0x20
 6782 1b25 1201     		.2byte	0x112
 6783 1b27 500B0000 		.4byte	0xb50
 6784 1b2b 08       		.byte	0x8
 6785 1b2c 19       		.uleb128 0x19
 6786 1b2d 1C1E0000 		.4byte	.LASF369
 6787 1b31 20       		.byte	0x20
 6788 1b32 1601     		.2byte	0x116
 6789 1b34 500B0000 		.4byte	0xb50
 6790 1b38 10       		.byte	0x10
 6791 1b39 19       		.uleb128 0x19
 6792 1b3a 6B190000 		.4byte	.LASF370
ARM GAS  /tmp/ccJYnsep.s 			page 122


 6793 1b3e 20       		.byte	0x20
 6794 1b3f 2301     		.2byte	0x123
 6795 1b41 EB150000 		.4byte	0x15eb
 6796 1b45 18       		.byte	0x18
 6797 1b46 19       		.uleb128 0x19
 6798 1b47 9F0B0000 		.4byte	.LASF371
 6799 1b4b 20       		.byte	0x20
 6800 1b4c 2A01     		.2byte	0x12a
 6801 1b4e EB150000 		.4byte	0x15eb
 6802 1b52 1C       		.byte	0x1c
 6803 1b53 19       		.uleb128 0x19
 6804 1b54 440F0000 		.4byte	.LASF372
 6805 1b58 20       		.byte	0x20
 6806 1b59 3001     		.2byte	0x130
 6807 1b5b EB150000 		.4byte	0x15eb
 6808 1b5f 20       		.byte	0x20
 6809 1b60 19       		.uleb128 0x19
 6810 1b61 74030000 		.4byte	.LASF373
 6811 1b65 20       		.byte	0x20
 6812 1b66 3501     		.2byte	0x135
 6813 1b68 EB150000 		.4byte	0x15eb
 6814 1b6c 24       		.byte	0x24
 6815 1b6d 19       		.uleb128 0x19
 6816 1b6e 11090000 		.4byte	.LASF374
 6817 1b72 20       		.byte	0x20
 6818 1b73 3901     		.2byte	0x139
 6819 1b75 EB150000 		.4byte	0x15eb
 6820 1b79 28       		.byte	0x28
 6821 1b7a 24       		.uleb128 0x24
 6822 1b7b 63616E00 		.ascii	"can\000"
 6823 1b7f 20       		.byte	0x20
 6824 1b80 3F01     		.2byte	0x13f
 6825 1b82 8E1B0000 		.4byte	0x1b8e
 6826 1b86 2C       		.byte	0x2c
 6827 1b87 00       		.byte	0
 6828 1b88 07       		.uleb128 0x7
 6829 1b89 04       		.byte	0x4
 6830 1b8a F71A0000 		.4byte	0x1af7
 6831 1b8e 07       		.uleb128 0x7
 6832 1b8f 04       		.byte	0x4
 6833 1b90 9C0F0000 		.4byte	0xf9c
 6834 1b94 09       		.uleb128 0x9
 6835 1b95 D1030000 		.4byte	.LASF375
 6836 1b99 20       		.byte	0x20
 6837 1b9a 4001     		.2byte	0x140
 6838 1b9c FC1A0000 		.4byte	0x1afc
 6839 1ba0 20       		.uleb128 0x20
 6840 1ba1 F21F0000 		.4byte	.LASF376
 6841 1ba5 20       		.byte	0x20
 6842 1ba6 4B01     		.2byte	0x14b
 6843 1ba8 941B0000 		.4byte	0x1b94
 6844 1bac 20       		.uleb128 0x20
 6845 1bad 930A0000 		.4byte	.LASF377
 6846 1bb1 20       		.byte	0x20
 6847 1bb2 4F01     		.2byte	0x14f
 6848 1bb4 941B0000 		.4byte	0x1b94
 6849 1bb8 29       		.uleb128 0x29
ARM GAS  /tmp/ccJYnsep.s 			page 123


 6850 1bb9 07       		.byte	0x7
 6851 1bba 01       		.byte	0x1
 6852 1bbb 37000000 		.4byte	0x37
 6853 1bbf 21       		.byte	0x21
 6854 1bc0 4C       		.byte	0x4c
 6855 1bc1 EA1B0000 		.4byte	0x1bea
 6856 1bc5 2A       		.uleb128 0x2a
 6857 1bc6 0F060000 		.4byte	.LASF378
 6858 1bca 00       		.byte	0
 6859 1bcb 2A       		.uleb128 0x2a
 6860 1bcc 280F0000 		.4byte	.LASF379
 6861 1bd0 01       		.byte	0x1
 6862 1bd1 2A       		.uleb128 0x2a
 6863 1bd2 E9060000 		.4byte	.LASF380
 6864 1bd6 02       		.byte	0x2
 6865 1bd7 2A       		.uleb128 0x2a
 6866 1bd8 73040000 		.4byte	.LASF381
 6867 1bdc 03       		.byte	0x3
 6868 1bdd 2A       		.uleb128 0x2a
 6869 1bde 4D030000 		.4byte	.LASF382
 6870 1be2 04       		.byte	0x4
 6871 1be3 2A       		.uleb128 0x2a
 6872 1be4 AF130000 		.4byte	.LASF383
 6873 1be8 05       		.byte	0x5
 6874 1be9 00       		.byte	0
 6875 1bea 03       		.uleb128 0x3
 6876 1beb 9F110000 		.4byte	.LASF384
 6877 1bef 21       		.byte	0x21
 6878 1bf0 53       		.byte	0x53
 6879 1bf1 B81B0000 		.4byte	0x1bb8
 6880 1bf5 09       		.uleb128 0x9
 6881 1bf6 43170000 		.4byte	.LASF385
 6882 1bfa 22       		.byte	0x22
 6883 1bfb 6A01     		.2byte	0x16a
 6884 1bfd B2000000 		.4byte	0xb2
 6885 1c01 09       		.uleb128 0x9
 6886 1c02 01040000 		.4byte	.LASF386
 6887 1c06 22       		.byte	0x22
 6888 1c07 6F01     		.2byte	0x16f
 6889 1c09 CD000000 		.4byte	0xcd
 6890 1c0d 2B       		.uleb128 0x2b
 6891 1c0e 07       		.byte	0x7
 6892 1c0f 01       		.byte	0x1
 6893 1c10 37000000 		.4byte	0x37
 6894 1c14 22       		.byte	0x22
 6895 1c15 7401     		.2byte	0x174
 6896 1c17 2E1C0000 		.4byte	0x1c2e
 6897 1c1b 2A       		.uleb128 0x2a
 6898 1c1c 81040000 		.4byte	.LASF387
 6899 1c20 01       		.byte	0x1
 6900 1c21 2A       		.uleb128 0x2a
 6901 1c22 98000000 		.4byte	.LASF388
 6902 1c26 02       		.byte	0x2
 6903 1c27 2A       		.uleb128 0x2a
 6904 1c28 80090000 		.4byte	.LASF389
 6905 1c2c 03       		.byte	0x3
 6906 1c2d 00       		.byte	0
ARM GAS  /tmp/ccJYnsep.s 			page 124


 6907 1c2e 09       		.uleb128 0x9
 6908 1c2f 4D230000 		.4byte	.LASF390
 6909 1c33 22       		.byte	0x22
 6910 1c34 7801     		.2byte	0x178
 6911 1c36 0D1C0000 		.4byte	0x1c0d
 6912 1c3a 2B       		.uleb128 0x2b
 6913 1c3b 07       		.byte	0x7
 6914 1c3c 01       		.byte	0x1
 6915 1c3d 37000000 		.4byte	0x37
 6916 1c41 22       		.byte	0x22
 6917 1c42 7D01     		.2byte	0x17d
 6918 1c44 5B1C0000 		.4byte	0x1c5b
 6919 1c48 2A       		.uleb128 0x2a
 6920 1c49 61050000 		.4byte	.LASF391
 6921 1c4d 01       		.byte	0x1
 6922 1c4e 2A       		.uleb128 0x2a
 6923 1c4f DB220000 		.4byte	.LASF392
 6924 1c53 02       		.byte	0x2
 6925 1c54 2A       		.uleb128 0x2a
 6926 1c55 990A0000 		.4byte	.LASF393
 6927 1c59 03       		.byte	0x3
 6928 1c5a 00       		.byte	0
 6929 1c5b 09       		.uleb128 0x9
 6930 1c5c A6060000 		.4byte	.LASF394
 6931 1c60 22       		.byte	0x22
 6932 1c61 8101     		.2byte	0x181
 6933 1c63 3A1C0000 		.4byte	0x1c3a
 6934 1c67 1C       		.uleb128 0x1c
 6935 1c68 0C       		.byte	0xc
 6936 1c69 22       		.byte	0x22
 6937 1c6a 8601     		.2byte	0x186
 6938 1c6c 981C0000 		.4byte	0x1c98
 6939 1c70 19       		.uleb128 0x19
 6940 1c71 DC050000 		.4byte	.LASF395
 6941 1c75 22       		.byte	0x22
 6942 1c76 8801     		.2byte	0x188
 6943 1c78 2E1C0000 		.4byte	0x1c2e
 6944 1c7c 00       		.byte	0
 6945 1c7d 19       		.uleb128 0x19
 6946 1c7e BB030000 		.4byte	.LASF396
 6947 1c82 22       		.byte	0x22
 6948 1c83 8901     		.2byte	0x189
 6949 1c85 CD000000 		.4byte	0xcd
 6950 1c89 04       		.byte	0x4
 6951 1c8a 19       		.uleb128 0x19
 6952 1c8b ED230000 		.4byte	.LASF397
 6953 1c8f 22       		.byte	0x22
 6954 1c90 8C01     		.2byte	0x18c
 6955 1c92 5B1C0000 		.4byte	0x1c5b
 6956 1c96 08       		.byte	0x8
 6957 1c97 00       		.byte	0
 6958 1c98 09       		.uleb128 0x9
 6959 1c99 E7010000 		.4byte	.LASF398
 6960 1c9d 22       		.byte	0x22
 6961 1c9e 8E01     		.2byte	0x18e
 6962 1ca0 671C0000 		.4byte	0x1c67
 6963 1ca4 05       		.uleb128 0x5
ARM GAS  /tmp/ccJYnsep.s 			page 125


 6964 1ca5 981C0000 		.4byte	0x1c98
 6965 1ca9 09       		.uleb128 0x9
 6966 1caa 63040000 		.4byte	.LASF399
 6967 1cae 22       		.byte	0x22
 6968 1caf 9301     		.2byte	0x193
 6969 1cb1 B51C0000 		.4byte	0x1cb5
 6970 1cb5 1B       		.uleb128 0x1b
 6971 1cb6 63040000 		.4byte	.LASF399
 6972 1cba 38       		.byte	0x38
 6973 1cbb 22       		.byte	0x22
 6974 1cbc 9801     		.2byte	0x198
 6975 1cbe 521D0000 		.4byte	0x1d52
 6976 1cc2 19       		.uleb128 0x19
 6977 1cc3 18160000 		.4byte	.LASF366
 6978 1cc7 22       		.byte	0x22
 6979 1cc8 9C01     		.2byte	0x19c
 6980 1cca EA1B0000 		.4byte	0x1bea
 6981 1cce 00       		.byte	0
 6982 1ccf 19       		.uleb128 0x19
 6983 1cd0 C61B0000 		.4byte	.LASF367
 6984 1cd4 22       		.byte	0x22
 6985 1cd5 A001     		.2byte	0x1a0
 6986 1cd7 521D0000 		.4byte	0x1d52
 6987 1cdb 04       		.byte	0x4
 6988 1cdc 19       		.uleb128 0x19
 6989 1cdd 5B010000 		.4byte	.LASF400
 6990 1ce1 22       		.byte	0x22
 6991 1ce2 A401     		.2byte	0x1a4
 6992 1ce4 011C0000 		.4byte	0x1c01
 6993 1ce8 08       		.byte	0x8
 6994 1ce9 19       		.uleb128 0x19
 6995 1cea BB0D0000 		.4byte	.LASF401
 6996 1cee 22       		.byte	0x22
 6997 1cef A901     		.2byte	0x1a9
 6998 1cf1 67150000 		.4byte	0x1567
 6999 1cf5 0C       		.byte	0xc
 7000 1cf6 19       		.uleb128 0x19
 7001 1cf7 BE060000 		.4byte	.LASF402
 7002 1cfb 22       		.byte	0x22
 7003 1cfc B201     		.2byte	0x1b2
 7004 1cfe 1B0B0000 		.4byte	0xb1b
 7005 1d02 1C       		.byte	0x1c
 7006 1d03 19       		.uleb128 0x19
 7007 1d04 310F0000 		.4byte	.LASF403
 7008 1d08 22       		.byte	0x22
 7009 1d09 B601     		.2byte	0x1b6
 7010 1d0b F51B0000 		.4byte	0x1bf5
 7011 1d0f 20       		.byte	0x20
 7012 1d10 19       		.uleb128 0x19
 7013 1d11 34080000 		.4byte	.LASF404
 7014 1d15 22       		.byte	0x22
 7015 1d16 BA01     		.2byte	0x1ba
 7016 1d18 CD000000 		.4byte	0xcd
 7017 1d1c 24       		.byte	0x24
 7018 1d1d 19       		.uleb128 0x19
 7019 1d1e 8E080000 		.4byte	.LASF405
 7020 1d22 22       		.byte	0x22
ARM GAS  /tmp/ccJYnsep.s 			page 126


 7021 1d23 BE01     		.2byte	0x1be
 7022 1d25 CD000000 		.4byte	0xcd
 7023 1d29 28       		.byte	0x28
 7024 1d2a 19       		.uleb128 0x19
 7025 1d2b 0F010000 		.4byte	.LASF406
 7026 1d2f 22       		.byte	0x22
 7027 1d30 C201     		.2byte	0x1c2
 7028 1d32 581D0000 		.4byte	0x1d58
 7029 1d36 2C       		.byte	0x2c
 7030 1d37 19       		.uleb128 0x19
 7031 1d38 FA010000 		.4byte	.LASF407
 7032 1d3c 22       		.byte	0x22
 7033 1d3d C601     		.2byte	0x1c6
 7034 1d3f 581D0000 		.4byte	0x1d58
 7035 1d43 30       		.byte	0x30
 7036 1d44 24       		.uleb128 0x24
 7037 1d45 69326300 		.ascii	"i2c\000"
 7038 1d49 22       		.byte	0x22
 7039 1d4a CA01     		.2byte	0x1ca
 7040 1d4c 5E1D0000 		.4byte	0x1d5e
 7041 1d50 34       		.byte	0x34
 7042 1d51 00       		.byte	0
 7043 1d52 07       		.uleb128 0x7
 7044 1d53 04       		.byte	0x4
 7045 1d54 A41C0000 		.4byte	0x1ca4
 7046 1d58 07       		.uleb128 0x7
 7047 1d59 04       		.byte	0x4
 7048 1d5a 07180000 		.4byte	0x1807
 7049 1d5e 07       		.uleb128 0x7
 7050 1d5f 04       		.byte	0x4
 7051 1d60 C0100000 		.4byte	0x10c0
 7052 1d64 20       		.uleb128 0x20
 7053 1d65 02120000 		.4byte	.LASF408
 7054 1d69 22       		.byte	0x22
 7055 1d6a E401     		.2byte	0x1e4
 7056 1d6c A91C0000 		.4byte	0x1ca9
 7057 1d70 29       		.uleb128 0x29
 7058 1d71 07       		.byte	0x7
 7059 1d72 01       		.byte	0x1
 7060 1d73 37000000 		.4byte	0x37
 7061 1d77 23       		.byte	0x23
 7062 1d78 31       		.byte	0x31
 7063 1d79 9C1D0000 		.4byte	0x1d9c
 7064 1d7d 2A       		.uleb128 0x2a
 7065 1d7e 64220000 		.4byte	.LASF409
 7066 1d82 00       		.byte	0
 7067 1d83 2A       		.uleb128 0x2a
 7068 1d84 6F1D0000 		.4byte	.LASF410
 7069 1d88 01       		.byte	0x1
 7070 1d89 2A       		.uleb128 0x2a
 7071 1d8a DD040000 		.4byte	.LASF411
 7072 1d8e 02       		.byte	0x2
 7073 1d8f 2A       		.uleb128 0x2a
 7074 1d90 4A140000 		.4byte	.LASF412
 7075 1d94 03       		.byte	0x3
 7076 1d95 2A       		.uleb128 0x2a
 7077 1d96 131C0000 		.4byte	.LASF413
ARM GAS  /tmp/ccJYnsep.s 			page 127


 7078 1d9a 04       		.byte	0x4
 7079 1d9b 00       		.byte	0
 7080 1d9c 03       		.uleb128 0x3
 7081 1d9d 531F0000 		.4byte	.LASF414
 7082 1da1 23       		.byte	0x23
 7083 1da2 37       		.byte	0x37
 7084 1da3 701D0000 		.4byte	0x1d70
 7085 1da7 03       		.uleb128 0x3
 7086 1da8 33190000 		.4byte	.LASF415
 7087 1dac 23       		.byte	0x23
 7088 1dad 3C       		.byte	0x3c
 7089 1dae B21D0000 		.4byte	0x1db2
 7090 1db2 1B       		.uleb128 0x1b
 7091 1db3 33190000 		.4byte	.LASF415
 7092 1db7 18       		.byte	0x18
 7093 1db8 24       		.byte	0x24
 7094 1db9 3101     		.2byte	0x131
 7095 1dbb 0E1E0000 		.4byte	0x1e0e
 7096 1dbf 19       		.uleb128 0x19
 7097 1dc0 18160000 		.4byte	.LASF366
 7098 1dc4 24       		.byte	0x24
 7099 1dc5 3501     		.2byte	0x135
 7100 1dc7 9C1D0000 		.4byte	0x1d9c
 7101 1dcb 00       		.byte	0
 7102 1dcc 19       		.uleb128 0x19
 7103 1dcd C61B0000 		.4byte	.LASF367
 7104 1dd1 24       		.byte	0x24
 7105 1dd2 3901     		.2byte	0x139
 7106 1dd4 13200000 		.4byte	0x2013
 7107 1dd8 04       		.byte	0x4
 7108 1dd9 19       		.uleb128 0x19
 7109 1dda DA0D0000 		.4byte	.LASF416
 7110 1dde 24       		.byte	0x24
 7111 1ddf 4101     		.2byte	0x141
 7112 1de1 CD000000 		.4byte	0xcd
 7113 1de5 08       		.byte	0x8
 7114 1de6 24       		.uleb128 0x24
 7115 1de7 74696D00 		.ascii	"tim\000"
 7116 1deb 24       		.byte	0x24
 7117 1dec 4501     		.2byte	0x145
 7118 1dee 19200000 		.4byte	0x2019
 7119 1df2 0C       		.byte	0xc
 7120 1df3 19       		.uleb128 0x19
 7121 1df4 1E1D0000 		.4byte	.LASF417
 7122 1df8 24       		.byte	0x24
 7123 1df9 4901     		.2byte	0x149
 7124 1dfb F6170000 		.4byte	0x17f6
 7125 1dff 10       		.byte	0x10
 7126 1e00 19       		.uleb128 0x19
 7127 1e01 00050000 		.4byte	.LASF418
 7128 1e05 24       		.byte	0x24
 7129 1e06 4D01     		.2byte	0x14d
 7130 1e08 F6170000 		.4byte	0x17f6
 7131 1e0c 14       		.byte	0x14
 7132 1e0d 00       		.byte	0
 7133 1e0e 03       		.uleb128 0x3
 7134 1e0f 641A0000 		.4byte	.LASF419
ARM GAS  /tmp/ccJYnsep.s 			page 128


 7135 1e13 23       		.byte	0x23
 7136 1e14 43       		.byte	0x43
 7137 1e15 191E0000 		.4byte	0x1e19
 7138 1e19 07       		.uleb128 0x7
 7139 1e1a 04       		.byte	0x4
 7140 1e1b 1F1E0000 		.4byte	0x1e1f
 7141 1e1f 1F       		.uleb128 0x1f
 7142 1e20 2A1E0000 		.4byte	0x1e2a
 7143 1e24 17       		.uleb128 0x17
 7144 1e25 2A1E0000 		.4byte	0x1e2a
 7145 1e29 00       		.byte	0
 7146 1e2a 07       		.uleb128 0x7
 7147 1e2b 04       		.byte	0x4
 7148 1e2c A71D0000 		.4byte	0x1da7
 7149 1e30 1C       		.uleb128 0x1c
 7150 1e31 60       		.byte	0x60
 7151 1e32 25       		.byte	0x25
 7152 1e33 9E01     		.2byte	0x19e
 7153 1e35 3C1F0000 		.4byte	0x1f3c
 7154 1e39 24       		.uleb128 0x24
 7155 1e3a 43523100 		.ascii	"CR1\000"
 7156 1e3e 25       		.byte	0x25
 7157 1e3f 9F01     		.2byte	0x19f
 7158 1e41 D8000000 		.4byte	0xd8
 7159 1e45 00       		.byte	0
 7160 1e46 24       		.uleb128 0x24
 7161 1e47 43523200 		.ascii	"CR2\000"
 7162 1e4b 25       		.byte	0x25
 7163 1e4c A001     		.2byte	0x1a0
 7164 1e4e D8000000 		.4byte	0xd8
 7165 1e52 04       		.byte	0x4
 7166 1e53 19       		.uleb128 0x19
 7167 1e54 721F0000 		.4byte	.LASF420
 7168 1e58 25       		.byte	0x25
 7169 1e59 A101     		.2byte	0x1a1
 7170 1e5b D8000000 		.4byte	0xd8
 7171 1e5f 08       		.byte	0x8
 7172 1e60 19       		.uleb128 0x19
 7173 1e61 220A0000 		.4byte	.LASF421
 7174 1e65 25       		.byte	0x25
 7175 1e66 A201     		.2byte	0x1a2
 7176 1e68 D8000000 		.4byte	0xd8
 7177 1e6c 0C       		.byte	0xc
 7178 1e6d 24       		.uleb128 0x24
 7179 1e6e 535200   		.ascii	"SR\000"
 7180 1e71 25       		.byte	0x25
 7181 1e72 A301     		.2byte	0x1a3
 7182 1e74 D8000000 		.4byte	0xd8
 7183 1e78 10       		.byte	0x10
 7184 1e79 24       		.uleb128 0x24
 7185 1e7a 45475200 		.ascii	"EGR\000"
 7186 1e7e 25       		.byte	0x25
 7187 1e7f A401     		.2byte	0x1a4
 7188 1e81 D8000000 		.4byte	0xd8
 7189 1e85 14       		.byte	0x14
 7190 1e86 19       		.uleb128 0x19
 7191 1e87 00230000 		.4byte	.LASF422
ARM GAS  /tmp/ccJYnsep.s 			page 129


 7192 1e8b 25       		.byte	0x25
 7193 1e8c A501     		.2byte	0x1a5
 7194 1e8e D8000000 		.4byte	0xd8
 7195 1e92 18       		.byte	0x18
 7196 1e93 19       		.uleb128 0x19
 7197 1e94 06230000 		.4byte	.LASF423
 7198 1e98 25       		.byte	0x25
 7199 1e99 A601     		.2byte	0x1a6
 7200 1e9b D8000000 		.4byte	0xd8
 7201 1e9f 1C       		.byte	0x1c
 7202 1ea0 19       		.uleb128 0x19
 7203 1ea1 1D070000 		.4byte	.LASF424
 7204 1ea5 25       		.byte	0x25
 7205 1ea6 A701     		.2byte	0x1a7
 7206 1ea8 D8000000 		.4byte	0xd8
 7207 1eac 20       		.byte	0x20
 7208 1ead 24       		.uleb128 0x24
 7209 1eae 434E5400 		.ascii	"CNT\000"
 7210 1eb2 25       		.byte	0x25
 7211 1eb3 A801     		.2byte	0x1a8
 7212 1eb5 D8000000 		.4byte	0xd8
 7213 1eb9 24       		.byte	0x24
 7214 1eba 24       		.uleb128 0x24
 7215 1ebb 50534300 		.ascii	"PSC\000"
 7216 1ebf 25       		.byte	0x25
 7217 1ec0 A901     		.2byte	0x1a9
 7218 1ec2 D8000000 		.4byte	0xd8
 7219 1ec6 28       		.byte	0x28
 7220 1ec7 24       		.uleb128 0x24
 7221 1ec8 41525200 		.ascii	"ARR\000"
 7222 1ecc 25       		.byte	0x25
 7223 1ecd AA01     		.2byte	0x1aa
 7224 1ecf D8000000 		.4byte	0xd8
 7225 1ed3 2C       		.byte	0x2c
 7226 1ed4 24       		.uleb128 0x24
 7227 1ed5 52435200 		.ascii	"RCR\000"
 7228 1ed9 25       		.byte	0x25
 7229 1eda AB01     		.2byte	0x1ab
 7230 1edc D8000000 		.4byte	0xd8
 7231 1ee0 30       		.byte	0x30
 7232 1ee1 24       		.uleb128 0x24
 7233 1ee2 43435200 		.ascii	"CCR\000"
 7234 1ee6 25       		.byte	0x25
 7235 1ee7 AC01     		.2byte	0x1ac
 7236 1ee9 30100000 		.4byte	0x1030
 7237 1eed 34       		.byte	0x34
 7238 1eee 19       		.uleb128 0x19
 7239 1eef CB010000 		.4byte	.LASF425
 7240 1ef3 25       		.byte	0x25
 7241 1ef4 AD01     		.2byte	0x1ad
 7242 1ef6 D8000000 		.4byte	0xd8
 7243 1efa 44       		.byte	0x44
 7244 1efb 24       		.uleb128 0x24
 7245 1efc 44435200 		.ascii	"DCR\000"
 7246 1f00 25       		.byte	0x25
 7247 1f01 AE01     		.2byte	0x1ae
 7248 1f03 D8000000 		.4byte	0xd8
ARM GAS  /tmp/ccJYnsep.s 			page 130


 7249 1f07 48       		.byte	0x48
 7250 1f08 19       		.uleb128 0x19
 7251 1f09 66160000 		.4byte	.LASF426
 7252 1f0d 25       		.byte	0x25
 7253 1f0e AF01     		.2byte	0x1af
 7254 1f10 D8000000 		.4byte	0xd8
 7255 1f14 4C       		.byte	0x4c
 7256 1f15 24       		.uleb128 0x24
 7257 1f16 4F5200   		.ascii	"OR\000"
 7258 1f19 25       		.byte	0x25
 7259 1f1a B001     		.2byte	0x1b0
 7260 1f1c D8000000 		.4byte	0xd8
 7261 1f20 50       		.byte	0x50
 7262 1f21 19       		.uleb128 0x19
 7263 1f22 0C230000 		.4byte	.LASF427
 7264 1f26 25       		.byte	0x25
 7265 1f27 B101     		.2byte	0x1b1
 7266 1f29 D8000000 		.4byte	0xd8
 7267 1f2d 54       		.byte	0x54
 7268 1f2e 19       		.uleb128 0x19
 7269 1f2f E60D0000 		.4byte	.LASF428
 7270 1f33 25       		.byte	0x25
 7271 1f34 B201     		.2byte	0x1b2
 7272 1f36 1B100000 		.4byte	0x101b
 7273 1f3a 58       		.byte	0x58
 7274 1f3b 00       		.byte	0
 7275 1f3c 09       		.uleb128 0x9
 7276 1f3d 531E0000 		.4byte	.LASF429
 7277 1f41 25       		.byte	0x25
 7278 1f42 B301     		.2byte	0x1b3
 7279 1f44 301E0000 		.4byte	0x1e30
 7280 1f48 29       		.uleb128 0x29
 7281 1f49 07       		.byte	0x7
 7282 1f4a 01       		.byte	0x1
 7283 1f4b 37000000 		.4byte	0x37
 7284 1f4f 24       		.byte	0x24
 7285 1f50 EE       		.byte	0xee
 7286 1f51 621F0000 		.4byte	0x1f62
 7287 1f55 2A       		.uleb128 0x2a
 7288 1f56 5D080000 		.4byte	.LASF430
 7289 1f5a 00       		.byte	0
 7290 1f5b 2A       		.uleb128 0x2a
 7291 1f5c B11A0000 		.4byte	.LASF431
 7292 1f60 01       		.byte	0x1
 7293 1f61 00       		.byte	0
 7294 1f62 03       		.uleb128 0x3
 7295 1f63 6D210000 		.4byte	.LASF432
 7296 1f67 24       		.byte	0x24
 7297 1f68 F1       		.byte	0xf1
 7298 1f69 481F0000 		.4byte	0x1f48
 7299 1f6d 03       		.uleb128 0x3
 7300 1f6e ED1A0000 		.4byte	.LASF433
 7301 1f72 24       		.byte	0x24
 7302 1f73 F6       		.byte	0xf6
 7303 1f74 CD000000 		.4byte	0xcd
 7304 1f78 29       		.uleb128 0x29
 7305 1f79 07       		.byte	0x7
ARM GAS  /tmp/ccJYnsep.s 			page 131


 7306 1f7a 01       		.byte	0x1
 7307 1f7b 37000000 		.4byte	0x37
 7308 1f7f 24       		.byte	0x24
 7309 1f80 FB       		.byte	0xfb
 7310 1f81 921F0000 		.4byte	0x1f92
 7311 1f85 2A       		.uleb128 0x2a
 7312 1f86 1E1A0000 		.4byte	.LASF434
 7313 1f8a 00       		.byte	0
 7314 1f8b 2A       		.uleb128 0x2a
 7315 1f8c C11E0000 		.4byte	.LASF435
 7316 1f90 01       		.byte	0x1
 7317 1f91 00       		.byte	0
 7318 1f92 03       		.uleb128 0x3
 7319 1f93 A0050000 		.4byte	.LASF436
 7320 1f97 24       		.byte	0x24
 7321 1f98 FE       		.byte	0xfe
 7322 1f99 781F0000 		.4byte	0x1f78
 7323 1f9d 1C       		.uleb128 0x1c
 7324 1f9e 1C       		.byte	0x1c
 7325 1f9f 24       		.byte	0x24
 7326 1fa0 0901     		.2byte	0x109
 7327 1fa2 02200000 		.4byte	0x2002
 7328 1fa6 19       		.uleb128 0x19
 7329 1fa7 48080000 		.4byte	.LASF437
 7330 1fab 24       		.byte	0x24
 7331 1fac 0D01     		.2byte	0x10d
 7332 1fae 621F0000 		.4byte	0x1f62
 7333 1fb2 00       		.byte	0
 7334 1fb3 19       		.uleb128 0x19
 7335 1fb4 93220000 		.4byte	.LASF438
 7336 1fb8 24       		.byte	0x24
 7337 1fb9 1301     		.2byte	0x113
 7338 1fbb 6D1F0000 		.4byte	0x1f6d
 7339 1fbf 04       		.byte	0x4
 7340 1fc0 19       		.uleb128 0x19
 7341 1fc1 BA130000 		.4byte	.LASF439
 7342 1fc5 24       		.byte	0x24
 7343 1fc6 1701     		.2byte	0x117
 7344 1fc8 0E1E0000 		.4byte	0x1e0e
 7345 1fcc 08       		.byte	0x8
 7346 1fcd 19       		.uleb128 0x19
 7347 1fce 83110000 		.4byte	.LASF440
 7348 1fd2 24       		.byte	0x24
 7349 1fd3 1B01     		.2byte	0x11b
 7350 1fd5 0E1E0000 		.4byte	0x1e0e
 7351 1fd9 0C       		.byte	0xc
 7352 1fda 19       		.uleb128 0x19
 7353 1fdb AE0A0000 		.4byte	.LASF441
 7354 1fdf 24       		.byte	0x24
 7355 1fe0 1F01     		.2byte	0x11f
 7356 1fe2 0E1E0000 		.4byte	0x1e0e
 7357 1fe6 10       		.byte	0x10
 7358 1fe7 19       		.uleb128 0x19
 7359 1fe8 34120000 		.4byte	.LASF442
 7360 1fec 24       		.byte	0x24
 7361 1fed 2501     		.2byte	0x125
 7362 1fef 921F0000 		.4byte	0x1f92
ARM GAS  /tmp/ccJYnsep.s 			page 132


 7363 1ff3 14       		.byte	0x14
 7364 1ff4 19       		.uleb128 0x19
 7365 1ff5 650D0000 		.4byte	.LASF443
 7366 1ff9 24       		.byte	0x24
 7367 1ffa 2B01     		.2byte	0x12b
 7368 1ffc CD000000 		.4byte	0xcd
 7369 2000 18       		.byte	0x18
 7370 2001 00       		.byte	0
 7371 2002 09       		.uleb128 0x9
 7372 2003 3D190000 		.4byte	.LASF444
 7373 2007 24       		.byte	0x24
 7374 2008 2C01     		.2byte	0x12c
 7375 200a 9D1F0000 		.4byte	0x1f9d
 7376 200e 05       		.uleb128 0x5
 7377 200f 02200000 		.4byte	0x2002
 7378 2013 07       		.uleb128 0x7
 7379 2014 04       		.byte	0x4
 7380 2015 0E200000 		.4byte	0x200e
 7381 2019 07       		.uleb128 0x7
 7382 201a 04       		.byte	0x4
 7383 201b 3C1F0000 		.4byte	0x1f3c
 7384 201f 20       		.uleb128 0x20
 7385 2020 9B0F0000 		.4byte	.LASF445
 7386 2024 24       		.byte	0x24
 7387 2025 8A01     		.2byte	0x18a
 7388 2027 A71D0000 		.4byte	0x1da7
 7389 202b 20       		.uleb128 0x20
 7390 202c B90F0000 		.4byte	.LASF446
 7391 2030 24       		.byte	0x24
 7392 2031 9601     		.2byte	0x196
 7393 2033 A71D0000 		.4byte	0x1da7
 7394 2037 29       		.uleb128 0x29
 7395 2038 07       		.byte	0x7
 7396 2039 01       		.byte	0x1
 7397 203a 37000000 		.4byte	0x37
 7398 203e 26       		.byte	0x26
 7399 203f 55       		.byte	0x55
 7400 2040 57200000 		.4byte	0x2057
 7401 2044 2A       		.uleb128 0x2a
 7402 2045 28060000 		.4byte	.LASF447
 7403 2049 00       		.byte	0
 7404 204a 2A       		.uleb128 0x2a
 7405 204b 1A0E0000 		.4byte	.LASF448
 7406 204f 01       		.byte	0x1
 7407 2050 2A       		.uleb128 0x2a
 7408 2051 52240000 		.4byte	.LASF449
 7409 2055 02       		.byte	0x2
 7410 2056 00       		.byte	0
 7411 2057 03       		.uleb128 0x3
 7412 2058 3B180000 		.4byte	.LASF450
 7413 205c 26       		.byte	0x26
 7414 205d 59       		.byte	0x59
 7415 205e 37200000 		.4byte	0x2037
 7416 2062 03       		.uleb128 0x3
 7417 2063 67200000 		.4byte	.LASF451
 7418 2067 26       		.byte	0x26
 7419 2068 5E       		.byte	0x5e
ARM GAS  /tmp/ccJYnsep.s 			page 133


 7420 2069 6D200000 		.4byte	0x206d
 7421 206d 13       		.uleb128 0x13
 7422 206e 67200000 		.4byte	.LASF451
 7423 2072 5801     		.2byte	0x158
 7424 2074 26       		.byte	0x26
 7425 2075 78       		.byte	0x78
 7426 2076 DA200000 		.4byte	0x20da
 7427 207a 12       		.uleb128 0x12
 7428 207b 766D7400 		.ascii	"vmt\000"
 7429 207f 26       		.byte	0x26
 7430 2080 7A       		.byte	0x7a
 7431 2081 94210000 		.4byte	0x2194
 7432 2085 00       		.byte	0
 7433 2086 0F       		.uleb128 0xf
 7434 2087 3B000000 		.4byte	.LASF452
 7435 208b 26       		.byte	0x26
 7436 208c 7B       		.byte	0x7b
 7437 208d EB150000 		.4byte	0x15eb
 7438 2091 04       		.byte	0x4
 7439 2092 0F       		.uleb128 0xf
 7440 2093 18160000 		.4byte	.LASF366
 7441 2097 26       		.byte	0x26
 7442 2098 7B       		.byte	0x7b
 7443 2099 57200000 		.4byte	0x2057
 7444 209d 08       		.byte	0x8
 7445 209e 0F       		.uleb128 0xf
 7446 209f EE170000 		.4byte	.LASF453
 7447 20a3 26       		.byte	0x26
 7448 20a4 7B       		.byte	0x7b
 7449 20a5 96160000 		.4byte	0x1696
 7450 20a9 0C       		.byte	0xc
 7451 20aa 0F       		.uleb128 0xf
 7452 20ab 4C120000 		.4byte	.LASF454
 7453 20af 26       		.byte	0x26
 7454 20b0 7B       		.byte	0x7b
 7455 20b1 A1160000 		.4byte	0x16a1
 7456 20b5 30       		.byte	0x30
 7457 20b6 12       		.uleb128 0x12
 7458 20b7 696200   		.ascii	"ib\000"
 7459 20ba 26       		.byte	0x26
 7460 20bb 7B       		.byte	0x7b
 7461 20bc 9A210000 		.4byte	0x219a
 7462 20c0 54       		.byte	0x54
 7463 20c1 12       		.uleb128 0x12
 7464 20c2 6F6200   		.ascii	"ob\000"
 7465 20c5 26       		.byte	0x26
 7466 20c6 7B       		.byte	0x7b
 7467 20c7 9A210000 		.4byte	0x219a
 7468 20cb D4       		.byte	0xd4
 7469 20cc 14       		.uleb128 0x14
 7470 20cd EA190000 		.4byte	.LASF455
 7471 20d1 26       		.byte	0x26
 7472 20d2 7B       		.byte	0x7b
 7473 20d3 AA210000 		.4byte	0x21aa
 7474 20d7 5401     		.2byte	0x154
 7475 20d9 00       		.byte	0
 7476 20da 27       		.uleb128 0x27
ARM GAS  /tmp/ccJYnsep.s 			page 134


 7477 20db 53443100 		.ascii	"SD1\000"
 7478 20df 27       		.byte	0x27
 7479 20e0 0F01     		.2byte	0x10f
 7480 20e2 62200000 		.4byte	0x2062
 7481 20e6 27       		.uleb128 0x27
 7482 20e7 53443200 		.ascii	"SD2\000"
 7483 20eb 27       		.byte	0x27
 7484 20ec 1201     		.2byte	0x112
 7485 20ee 62200000 		.4byte	0x2062
 7486 20f2 27       		.uleb128 0x27
 7487 20f3 53443300 		.ascii	"SD3\000"
 7488 20f7 27       		.byte	0x27
 7489 20f8 1501     		.2byte	0x115
 7490 20fa 62200000 		.4byte	0x2062
 7491 20fe 27       		.uleb128 0x27
 7492 20ff 53443400 		.ascii	"SD4\000"
 7493 2103 27       		.byte	0x27
 7494 2104 1801     		.2byte	0x118
 7495 2106 62200000 		.4byte	0x2062
 7496 210a 27       		.uleb128 0x27
 7497 210b 53443500 		.ascii	"SD5\000"
 7498 210f 27       		.byte	0x27
 7499 2110 1B01     		.2byte	0x11b
 7500 2112 62200000 		.4byte	0x2062
 7501 2116 27       		.uleb128 0x27
 7502 2117 53443600 		.ascii	"SD6\000"
 7503 211b 27       		.byte	0x27
 7504 211c 1E01     		.2byte	0x11e
 7505 211e 62200000 		.4byte	0x2062
 7506 2122 11       		.uleb128 0x11
 7507 2123 BF0F0000 		.4byte	.LASF456
 7508 2127 20       		.byte	0x20
 7509 2128 26       		.byte	0x26
 7510 2129 6D       		.byte	0x6d
 7511 212a 8F210000 		.4byte	0x218f
 7512 212e 0F       		.uleb128 0xf
 7513 212f D0170000 		.4byte	.LASF457
 7514 2133 26       		.byte	0x26
 7515 2134 6E       		.byte	0x6e
 7516 2135 CB160000 		.4byte	0x16cb
 7517 2139 00       		.byte	0
 7518 213a 0F       		.uleb128 0xf
 7519 213b C0010000 		.4byte	.LASF458
 7520 213f 26       		.byte	0x26
 7521 2140 6E       		.byte	0x6e
 7522 2141 EA160000 		.4byte	0x16ea
 7523 2145 04       		.byte	0x4
 7524 2146 12       		.uleb128 0x12
 7525 2147 70757400 		.ascii	"put\000"
 7526 214b 26       		.byte	0x26
 7527 214c 6E       		.byte	0x6e
 7528 214d 04170000 		.4byte	0x1704
 7529 2151 08       		.byte	0x8
 7530 2152 12       		.uleb128 0x12
 7531 2153 67657400 		.ascii	"get\000"
 7532 2157 26       		.byte	0x26
 7533 2158 6E       		.byte	0x6e
ARM GAS  /tmp/ccJYnsep.s 			page 135


 7534 2159 19170000 		.4byte	0x1719
 7535 215d 0C       		.byte	0xc
 7536 215e 0F       		.uleb128 0xf
 7537 215f 91140000 		.4byte	.LASF459
 7538 2163 26       		.byte	0x26
 7539 2164 6E       		.byte	0x6e
 7540 2165 46180000 		.4byte	0x1846
 7541 2169 10       		.byte	0x10
 7542 216a 0F       		.uleb128 0xf
 7543 216b 9D170000 		.4byte	.LASF460
 7544 216f 26       		.byte	0x26
 7545 2170 6E       		.byte	0x6e
 7546 2171 60180000 		.4byte	0x1860
 7547 2175 14       		.byte	0x14
 7548 2176 0F       		.uleb128 0xf
 7549 2177 2C210000 		.4byte	.LASF461
 7550 217b 26       		.byte	0x26
 7551 217c 6E       		.byte	0x6e
 7552 217d 84180000 		.4byte	0x1884
 7553 2181 18       		.byte	0x18
 7554 2182 0F       		.uleb128 0xf
 7555 2183 CD130000 		.4byte	.LASF462
 7556 2187 26       		.byte	0x26
 7557 2188 6E       		.byte	0x6e
 7558 2189 A8180000 		.4byte	0x18a8
 7559 218d 1C       		.byte	0x1c
 7560 218e 00       		.byte	0
 7561 218f 05       		.uleb128 0x5
 7562 2190 22210000 		.4byte	0x2122
 7563 2194 07       		.uleb128 0x7
 7564 2195 04       		.byte	0x4
 7565 2196 8F210000 		.4byte	0x218f
 7566 219a 0C       		.uleb128 0xc
 7567 219b A2000000 		.4byte	0xa2
 7568 219f AA210000 		.4byte	0x21aa
 7569 21a3 0D       		.uleb128 0xd
 7570 21a4 9B000000 		.4byte	0x9b
 7571 21a8 7F       		.byte	0x7f
 7572 21a9 00       		.byte	0
 7573 21aa 07       		.uleb128 0x7
 7574 21ab 04       		.byte	0x4
 7575 21ac B8110000 		.4byte	0x11b8
 7576 21b0 29       		.uleb128 0x29
 7577 21b1 07       		.byte	0x7
 7578 21b2 01       		.byte	0x1
 7579 21b3 37000000 		.4byte	0x37
 7580 21b7 28       		.byte	0x28
 7581 21b8 46       		.byte	0x46
 7582 21b9 DC210000 		.4byte	0x21dc
 7583 21bd 2A       		.uleb128 0x2a
 7584 21be D6060000 		.4byte	.LASF463
 7585 21c2 00       		.byte	0
 7586 21c3 2A       		.uleb128 0x2a
 7587 21c4 C1020000 		.4byte	.LASF464
 7588 21c8 01       		.byte	0x1
 7589 21c9 2A       		.uleb128 0x2a
 7590 21ca A4210000 		.4byte	.LASF465
ARM GAS  /tmp/ccJYnsep.s 			page 136


 7591 21ce 02       		.byte	0x2
 7592 21cf 2A       		.uleb128 0x2a
 7593 21d0 E7110000 		.4byte	.LASF466
 7594 21d4 03       		.byte	0x3
 7595 21d5 2A       		.uleb128 0x2a
 7596 21d6 F7130000 		.4byte	.LASF467
 7597 21da 04       		.byte	0x4
 7598 21db 00       		.byte	0
 7599 21dc 03       		.uleb128 0x3
 7600 21dd 3B030000 		.4byte	.LASF468
 7601 21e1 28       		.byte	0x28
 7602 21e2 4C       		.byte	0x4c
 7603 21e3 B0210000 		.4byte	0x21b0
 7604 21e7 09       		.uleb128 0x9
 7605 21e8 F4200000 		.4byte	.LASF469
 7606 21ec 29       		.byte	0x29
 7607 21ed 9601     		.2byte	0x196
 7608 21ef F3210000 		.4byte	0x21f3
 7609 21f3 1B       		.uleb128 0x1b
 7610 21f4 F4200000 		.4byte	.LASF469
 7611 21f8 30       		.byte	0x30
 7612 21f9 29       		.byte	0x29
 7613 21fa BA01     		.2byte	0x1ba
 7614 21fc 76220000 		.4byte	0x2276
 7615 2200 19       		.uleb128 0x19
 7616 2201 18160000 		.4byte	.LASF366
 7617 2205 29       		.byte	0x29
 7618 2206 BE01     		.2byte	0x1be
 7619 2208 DC210000 		.4byte	0x21dc
 7620 220c 00       		.byte	0
 7621 220d 19       		.uleb128 0x19
 7622 220e C61B0000 		.4byte	.LASF367
 7623 2212 29       		.byte	0x29
 7624 2213 C201     		.2byte	0x1c2
 7625 2215 E8220000 		.4byte	0x22e8
 7626 2219 04       		.byte	0x4
 7627 221a 19       		.uleb128 0x19
 7628 221b BE060000 		.4byte	.LASF402
 7629 221f 29       		.byte	0x29
 7630 2220 C701     		.2byte	0x1c7
 7631 2222 1B0B0000 		.4byte	0xb1b
 7632 2226 08       		.byte	0x8
 7633 2227 19       		.uleb128 0x19
 7634 2228 BB0D0000 		.4byte	.LASF401
 7635 222c 29       		.byte	0x29
 7636 222d CD01     		.2byte	0x1cd
 7637 222f 67150000 		.4byte	0x1567
 7638 2233 0C       		.byte	0xc
 7639 2234 24       		.uleb128 0x24
 7640 2235 73706900 		.ascii	"spi\000"
 7641 2239 29       		.byte	0x29
 7642 223a D601     		.2byte	0x1d6
 7643 223c EE220000 		.4byte	0x22ee
 7644 2240 1C       		.byte	0x1c
 7645 2241 19       		.uleb128 0x19
 7646 2242 0F010000 		.4byte	.LASF406
 7647 2246 29       		.byte	0x29
ARM GAS  /tmp/ccJYnsep.s 			page 137


 7648 2247 DA01     		.2byte	0x1da
 7649 2249 581D0000 		.4byte	0x1d58
 7650 224d 20       		.byte	0x20
 7651 224e 19       		.uleb128 0x19
 7652 224f FA010000 		.4byte	.LASF407
 7653 2253 29       		.byte	0x29
 7654 2254 DE01     		.2byte	0x1de
 7655 2256 581D0000 		.4byte	0x1d58
 7656 225a 24       		.byte	0x24
 7657 225b 19       		.uleb128 0x19
 7658 225c 34080000 		.4byte	.LASF404
 7659 2260 29       		.byte	0x29
 7660 2261 E201     		.2byte	0x1e2
 7661 2263 CD000000 		.4byte	0xcd
 7662 2267 28       		.byte	0x28
 7663 2268 19       		.uleb128 0x19
 7664 2269 8E080000 		.4byte	.LASF405
 7665 226d 29       		.byte	0x29
 7666 226e E601     		.2byte	0x1e6
 7667 2270 CD000000 		.4byte	0xcd
 7668 2274 2C       		.byte	0x2c
 7669 2275 00       		.byte	0
 7670 2276 09       		.uleb128 0x9
 7671 2277 62010000 		.4byte	.LASF470
 7672 227b 29       		.byte	0x29
 7673 227c 9E01     		.2byte	0x19e
 7674 227e 82220000 		.4byte	0x2282
 7675 2282 07       		.uleb128 0x7
 7676 2283 04       		.byte	0x4
 7677 2284 88220000 		.4byte	0x2288
 7678 2288 1F       		.uleb128 0x1f
 7679 2289 93220000 		.4byte	0x2293
 7680 228d 17       		.uleb128 0x17
 7681 228e 93220000 		.4byte	0x2293
 7682 2292 00       		.byte	0
 7683 2293 07       		.uleb128 0x7
 7684 2294 04       		.byte	0x4
 7685 2295 E7210000 		.4byte	0x21e7
 7686 2299 1C       		.uleb128 0x1c
 7687 229a 0C       		.byte	0xc
 7688 229b 29       		.byte	0x29
 7689 229c A301     		.2byte	0x1a3
 7690 229e D7220000 		.4byte	0x22d7
 7691 22a2 19       		.uleb128 0x19
 7692 22a3 26090000 		.4byte	.LASF471
 7693 22a7 29       		.byte	0x29
 7694 22a8 A701     		.2byte	0x1a7
 7695 22aa 76220000 		.4byte	0x2276
 7696 22ae 00       		.byte	0
 7697 22af 19       		.uleb128 0x19
 7698 22b0 5D220000 		.4byte	.LASF472
 7699 22b4 29       		.byte	0x29
 7700 22b5 AC01     		.2byte	0x1ac
 7701 22b7 741A0000 		.4byte	0x1a74
 7702 22bb 04       		.byte	0x4
 7703 22bc 19       		.uleb128 0x19
 7704 22bd 88080000 		.4byte	.LASF473
ARM GAS  /tmp/ccJYnsep.s 			page 138


 7705 22c1 29       		.byte	0x29
 7706 22c2 B001     		.2byte	0x1b0
 7707 22c4 B2000000 		.4byte	0xb2
 7708 22c8 08       		.byte	0x8
 7709 22c9 24       		.uleb128 0x24
 7710 22ca 63723100 		.ascii	"cr1\000"
 7711 22ce 29       		.byte	0x29
 7712 22cf B401     		.2byte	0x1b4
 7713 22d1 B2000000 		.4byte	0xb2
 7714 22d5 0A       		.byte	0xa
 7715 22d6 00       		.byte	0
 7716 22d7 09       		.uleb128 0x9
 7717 22d8 1F200000 		.4byte	.LASF474
 7718 22dc 29       		.byte	0x29
 7719 22dd B501     		.2byte	0x1b5
 7720 22df 99220000 		.4byte	0x2299
 7721 22e3 05       		.uleb128 0x5
 7722 22e4 D7220000 		.4byte	0x22d7
 7723 22e8 07       		.uleb128 0x7
 7724 22e9 04       		.byte	0x4
 7725 22ea E3220000 		.4byte	0x22e3
 7726 22ee 07       		.uleb128 0x7
 7727 22ef 04       		.byte	0x4
 7728 22f0 49110000 		.4byte	0x1149
 7729 22f4 20       		.uleb128 0x20
 7730 22f5 041F0000 		.4byte	.LASF475
 7731 22f9 29       		.byte	0x29
 7732 22fa F201     		.2byte	0x1f2
 7733 22fc E7210000 		.4byte	0x21e7
 7734 2300 20       		.uleb128 0x20
 7735 2301 A2170000 		.4byte	.LASF476
 7736 2305 29       		.byte	0x29
 7737 2306 FA01     		.2byte	0x1fa
 7738 2308 E7210000 		.4byte	0x21e7
 7739 230c 03       		.uleb128 0x3
 7740 230d 08120000 		.4byte	.LASF477
 7741 2311 2A       		.byte	0x2a
 7742 2312 FA       		.byte	0xfa
 7743 2313 17230000 		.4byte	0x2317
 7744 2317 18       		.uleb128 0x18
 7745 2318 08120000 		.4byte	.LASF477
 7746 231c 8802     		.2byte	0x288
 7747 231e 2B       		.byte	0x2b
 7748 231f 7701     		.2byte	0x177
 7749 2321 43240000 		.4byte	0x2443
 7750 2325 19       		.uleb128 0x19
 7751 2326 18160000 		.4byte	.LASF366
 7752 232a 2B       		.byte	0x2b
 7753 232b 7B01     		.2byte	0x17b
 7754 232d 81240000 		.4byte	0x2481
 7755 2331 00       		.byte	0
 7756 2332 19       		.uleb128 0x19
 7757 2333 C61B0000 		.4byte	.LASF367
 7758 2337 2B       		.byte	0x2b
 7759 2338 7F01     		.2byte	0x17f
 7760 233a A42D0000 		.4byte	0x2da4
 7761 233e 04       		.byte	0x4
ARM GAS  /tmp/ccJYnsep.s 			page 139


 7762 233f 19       		.uleb128 0x19
 7763 2340 48200000 		.4byte	.LASF478
 7764 2344 2B       		.byte	0x2b
 7765 2345 8301     		.2byte	0x183
 7766 2347 B2000000 		.4byte	0xb2
 7767 234b 08       		.byte	0x8
 7768 234c 19       		.uleb128 0x19
 7769 234d 82220000 		.4byte	.LASF479
 7770 2351 2B       		.byte	0x2b
 7771 2352 8701     		.2byte	0x187
 7772 2354 B2000000 		.4byte	0xb2
 7773 2358 0A       		.byte	0xa
 7774 2359 24       		.uleb128 0x24
 7775 235a 65706300 		.ascii	"epc\000"
 7776 235e 2B       		.byte	0x2b
 7777 235f 8B01     		.2byte	0x18b
 7778 2361 AA2D0000 		.4byte	0x2daa
 7779 2365 0C       		.byte	0xc
 7780 2366 19       		.uleb128 0x19
 7781 2367 4C020000 		.4byte	.LASF480
 7782 236b 2B       		.byte	0x2b
 7783 236c 9201     		.2byte	0x192
 7784 236e C02D0000 		.4byte	0x2dc0
 7785 2372 1C       		.byte	0x1c
 7786 2373 19       		.uleb128 0x19
 7787 2374 420D0000 		.4byte	.LASF481
 7788 2378 2B       		.byte	0x2b
 7789 2379 9901     		.2byte	0x199
 7790 237b C02D0000 		.4byte	0x2dc0
 7791 237f 28       		.byte	0x28
 7792 2380 19       		.uleb128 0x19
 7793 2381 76100000 		.4byte	.LASF482
 7794 2385 2B       		.byte	0x2b
 7795 2386 9D01     		.2byte	0x19d
 7796 2388 C6240000 		.4byte	0x24c6
 7797 238c 34       		.byte	0x34
 7798 238d 19       		.uleb128 0x19
 7799 238e 2C1B0000 		.4byte	.LASF483
 7800 2392 2B       		.byte	0x2b
 7801 2393 A101     		.2byte	0x1a1
 7802 2395 90160000 		.4byte	0x1690
 7803 2399 38       		.byte	0x38
 7804 239a 19       		.uleb128 0x19
 7805 239b 3E170000 		.4byte	.LASF484
 7806 239f 2B       		.byte	0x2b
 7807 23a0 A501     		.2byte	0x1a5
 7808 23a2 E8000000 		.4byte	0xe8
 7809 23a6 3C       		.byte	0x3c
 7810 23a7 19       		.uleb128 0x19
 7811 23a8 931D0000 		.4byte	.LASF485
 7812 23ac 2B       		.byte	0x2b
 7813 23ad A901     		.2byte	0x1a9
 7814 23af 46250000 		.4byte	0x2546
 7815 23b3 40       		.byte	0x40
 7816 23b4 19       		.uleb128 0x19
 7817 23b5 D0060000 		.4byte	.LASF486
 7818 23b9 2B       		.byte	0x2b
ARM GAS  /tmp/ccJYnsep.s 			page 140


 7819 23ba AD01     		.2byte	0x1ad
 7820 23bc 2D170000 		.4byte	0x172d
 7821 23c0 44       		.byte	0x44
 7822 23c1 19       		.uleb128 0x19
 7823 23c2 99150000 		.4byte	.LASF487
 7824 23c6 2B       		.byte	0x2b
 7825 23c7 B101     		.2byte	0x1b1
 7826 23c9 B2000000 		.4byte	0xb2
 7827 23cd 4C       		.byte	0x4c
 7828 23ce 19       		.uleb128 0x19
 7829 23cf BE150000 		.4byte	.LASF488
 7830 23d3 2B       		.byte	0x2b
 7831 23d4 B501     		.2byte	0x1b5
 7832 23d6 A2000000 		.4byte	0xa2
 7833 23da 4E       		.byte	0x4e
 7834 23db 19       		.uleb128 0x19
 7835 23dc 811A0000 		.4byte	.LASF489
 7836 23e0 2B       		.byte	0x2b
 7837 23e1 B901     		.2byte	0x1b9
 7838 23e3 A2000000 		.4byte	0xa2
 7839 23e7 4F       		.byte	0x4f
 7840 23e8 24       		.uleb128 0x24
 7841 23e9 6F746700 		.ascii	"otg\000"
 7842 23ed 2B       		.byte	0x2b
 7843 23ee C101     		.2byte	0x1c1
 7844 23f0 D02D0000 		.4byte	0x2dd0
 7845 23f4 50       		.byte	0x50
 7846 23f5 19       		.uleb128 0x19
 7847 23f6 B60E0000 		.4byte	.LASF490
 7848 23fa 2B       		.byte	0x2b
 7849 23fb C501     		.2byte	0x1c5
 7850 23fd D62D0000 		.4byte	0x2dd6
 7851 2401 54       		.byte	0x54
 7852 2402 19       		.uleb128 0x19
 7853 2403 731E0000 		.4byte	.LASF491
 7854 2407 2B       		.byte	0x2b
 7855 2408 C901     		.2byte	0x1c9
 7856 240a CD000000 		.4byte	0xcd
 7857 240e 58       		.byte	0x58
 7858 240f 19       		.uleb128 0x19
 7859 2410 D00D0000 		.4byte	.LASF492
 7860 2414 2B       		.byte	0x2b
 7861 2415 CD01     		.2byte	0x1cd
 7862 2417 CD000000 		.4byte	0xcd
 7863 241b 5C       		.byte	0x5c
 7864 241c 19       		.uleb128 0x19
 7865 241d AF070000 		.4byte	.LASF493
 7866 2421 2B       		.byte	0x2b
 7867 2422 D101     		.2byte	0x1d1
 7868 2424 1B0B0000 		.4byte	0xb1b
 7869 2428 60       		.byte	0x60
 7870 2429 24       		.uleb128 0x24
 7871 242a 747200   		.ascii	"tr\000"
 7872 242d 2B       		.byte	0x2b
 7873 242e D601     		.2byte	0x1d6
 7874 2430 1B0B0000 		.4byte	0xb1b
 7875 2434 64       		.byte	0x64
ARM GAS  /tmp/ccJYnsep.s 			page 141


 7876 2435 19       		.uleb128 0x19
 7877 2436 DB140000 		.4byte	.LASF494
 7878 243a 2B       		.byte	0x2b
 7879 243b DA01     		.2byte	0x1da
 7880 243d DC2D0000 		.4byte	0x2ddc
 7881 2441 68       		.byte	0x68
 7882 2442 00       		.byte	0
 7883 2443 03       		.uleb128 0x3
 7884 2444 7B010000 		.4byte	.LASF495
 7885 2448 2A       		.byte	0x2a
 7886 2449 FF       		.byte	0xff
 7887 244a A2000000 		.4byte	0xa2
 7888 244e 2B       		.uleb128 0x2b
 7889 244f 07       		.byte	0x7
 7890 2450 01       		.byte	0x1
 7891 2451 37000000 		.4byte	0x37
 7892 2455 2A       		.byte	0x2a
 7893 2456 0401     		.2byte	0x104
 7894 2458 81240000 		.4byte	0x2481
 7895 245c 2A       		.uleb128 0x2a
 7896 245d 29230000 		.4byte	.LASF496
 7897 2461 00       		.byte	0
 7898 2462 2A       		.uleb128 0x2a
 7899 2463 00000000 		.4byte	.LASF497
 7900 2467 01       		.byte	0x1
 7901 2468 2A       		.uleb128 0x2a
 7902 2469 C3130000 		.4byte	.LASF498
 7903 246d 02       		.byte	0x2
 7904 246e 2A       		.uleb128 0x2a
 7905 246f B6180000 		.4byte	.LASF499
 7906 2473 03       		.byte	0x3
 7907 2474 2A       		.uleb128 0x2a
 7908 2475 D4070000 		.4byte	.LASF500
 7909 2479 04       		.byte	0x4
 7910 247a 2A       		.uleb128 0x2a
 7911 247b D9200000 		.4byte	.LASF501
 7912 247f 05       		.byte	0x5
 7913 2480 00       		.byte	0
 7914 2481 09       		.uleb128 0x9
 7915 2482 74200000 		.4byte	.LASF502
 7916 2486 2A       		.byte	0x2a
 7917 2487 0B01     		.2byte	0x10b
 7918 2489 4E240000 		.4byte	0x244e
 7919 248d 2B       		.uleb128 0x2b
 7920 248e 07       		.byte	0x7
 7921 248f 01       		.byte	0x1
 7922 2490 37000000 		.4byte	0x37
 7923 2494 2A       		.byte	0x2a
 7924 2495 1901     		.2byte	0x119
 7925 2497 C6240000 		.4byte	0x24c6
 7926 249b 2A       		.uleb128 0x2a
 7927 249c 4C1D0000 		.4byte	.LASF503
 7928 24a0 00       		.byte	0
 7929 24a1 2A       		.uleb128 0x2a
 7930 24a2 6B100000 		.4byte	.LASF504
 7931 24a6 01       		.byte	0x1
 7932 24a7 2A       		.uleb128 0x2a
ARM GAS  /tmp/ccJYnsep.s 			page 142


 7933 24a8 181B0000 		.4byte	.LASF505
 7934 24ac 02       		.byte	0x2
 7935 24ad 2A       		.uleb128 0x2a
 7936 24ae 43160000 		.4byte	.LASF506
 7937 24b2 03       		.byte	0x3
 7938 24b3 2A       		.uleb128 0x2a
 7939 24b4 72150000 		.4byte	.LASF507
 7940 24b8 04       		.byte	0x4
 7941 24b9 2A       		.uleb128 0x2a
 7942 24ba 51110000 		.4byte	.LASF508
 7943 24be 05       		.byte	0x5
 7944 24bf 2A       		.uleb128 0x2a
 7945 24c0 CF0F0000 		.4byte	.LASF509
 7946 24c4 06       		.byte	0x6
 7947 24c5 00       		.byte	0
 7948 24c6 09       		.uleb128 0x9
 7949 24c7 C5110000 		.4byte	.LASF510
 7950 24cb 2A       		.byte	0x2a
 7951 24cc 2101     		.2byte	0x121
 7952 24ce 8D240000 		.4byte	0x248d
 7953 24d2 2B       		.uleb128 0x2b
 7954 24d3 07       		.byte	0x7
 7955 24d4 01       		.byte	0x1
 7956 24d5 37000000 		.4byte	0x37
 7957 24d9 2A       		.byte	0x2a
 7958 24da 2601     		.2byte	0x126
 7959 24dc 05250000 		.4byte	0x2505
 7960 24e0 2A       		.uleb128 0x2a
 7961 24e1 DE1C0000 		.4byte	.LASF511
 7962 24e5 00       		.byte	0
 7963 24e6 2A       		.uleb128 0x2a
 7964 24e7 47190000 		.4byte	.LASF512
 7965 24eb 01       		.byte	0x1
 7966 24ec 2A       		.uleb128 0x2a
 7967 24ed 6A140000 		.4byte	.LASF513
 7968 24f1 02       		.byte	0x2
 7969 24f2 2A       		.uleb128 0x2a
 7970 24f3 16150000 		.4byte	.LASF514
 7971 24f7 03       		.byte	0x3
 7972 24f8 2A       		.uleb128 0x2a
 7973 24f9 19220000 		.4byte	.LASF515
 7974 24fd 04       		.byte	0x4
 7975 24fe 2A       		.uleb128 0x2a
 7976 24ff 0C140000 		.4byte	.LASF516
 7977 2503 05       		.byte	0x5
 7978 2504 00       		.byte	0
 7979 2505 09       		.uleb128 0x9
 7980 2506 89190000 		.4byte	.LASF517
 7981 250a 2A       		.byte	0x2a
 7982 250b 2D01     		.2byte	0x12d
 7983 250d D2240000 		.4byte	0x24d2
 7984 2511 1C       		.uleb128 0x1c
 7985 2512 08       		.byte	0x8
 7986 2513 2A       		.byte	0x2a
 7987 2514 3201     		.2byte	0x132
 7988 2516 35250000 		.4byte	0x2535
 7989 251a 19       		.uleb128 0x19
ARM GAS  /tmp/ccJYnsep.s 			page 143


 7990 251b F8230000 		.4byte	.LASF518
 7991 251f 2A       		.byte	0x2a
 7992 2520 3601     		.2byte	0x136
 7993 2522 E8000000 		.4byte	0xe8
 7994 2526 00       		.byte	0
 7995 2527 19       		.uleb128 0x19
 7996 2528 59040000 		.4byte	.LASF519
 7997 252c 2A       		.byte	0x2a
 7998 252d 3A01     		.2byte	0x13a
 7999 252f C5160000 		.4byte	0x16c5
 8000 2533 04       		.byte	0x4
 8001 2534 00       		.byte	0
 8002 2535 09       		.uleb128 0x9
 8003 2536 A6150000 		.4byte	.LASF520
 8004 253a 2A       		.byte	0x2a
 8005 253b 3B01     		.2byte	0x13b
 8006 253d 11250000 		.4byte	0x2511
 8007 2541 05       		.uleb128 0x5
 8008 2542 35250000 		.4byte	0x2535
 8009 2546 09       		.uleb128 0x9
 8010 2547 7E230000 		.4byte	.LASF521
 8011 254b 2A       		.byte	0x2a
 8012 254c 4301     		.2byte	0x143
 8013 254e 52250000 		.4byte	0x2552
 8014 2552 07       		.uleb128 0x7
 8015 2553 04       		.byte	0x4
 8016 2554 58250000 		.4byte	0x2558
 8017 2558 1F       		.uleb128 0x1f
 8018 2559 63250000 		.4byte	0x2563
 8019 255d 17       		.uleb128 0x17
 8020 255e 63250000 		.4byte	0x2563
 8021 2562 00       		.byte	0
 8022 2563 07       		.uleb128 0x7
 8023 2564 04       		.byte	0x4
 8024 2565 0C230000 		.4byte	0x230c
 8025 2569 09       		.uleb128 0x9
 8026 256a C0040000 		.4byte	.LASF522
 8027 256e 2A       		.byte	0x2a
 8028 256f 4C01     		.2byte	0x14c
 8029 2571 75250000 		.4byte	0x2575
 8030 2575 07       		.uleb128 0x7
 8031 2576 04       		.byte	0x4
 8032 2577 7B250000 		.4byte	0x257b
 8033 257b 1F       		.uleb128 0x1f
 8034 257c 8B250000 		.4byte	0x258b
 8035 2580 17       		.uleb128 0x17
 8036 2581 63250000 		.4byte	0x2563
 8037 2585 17       		.uleb128 0x17
 8038 2586 43240000 		.4byte	0x2443
 8039 258a 00       		.byte	0
 8040 258b 09       		.uleb128 0x9
 8041 258c 010B0000 		.4byte	.LASF523
 8042 2590 2A       		.byte	0x2a
 8043 2591 5501     		.2byte	0x155
 8044 2593 97250000 		.4byte	0x2597
 8045 2597 07       		.uleb128 0x7
 8046 2598 04       		.byte	0x4
ARM GAS  /tmp/ccJYnsep.s 			page 144


 8047 2599 9D250000 		.4byte	0x259d
 8048 259d 1F       		.uleb128 0x1f
 8049 259e AD250000 		.4byte	0x25ad
 8050 25a2 17       		.uleb128 0x17
 8051 25a3 63250000 		.4byte	0x2563
 8052 25a7 17       		.uleb128 0x17
 8053 25a8 05250000 		.4byte	0x2505
 8054 25ac 00       		.byte	0
 8055 25ad 09       		.uleb128 0x9
 8056 25ae 77180000 		.4byte	.LASF524
 8057 25b2 2A       		.byte	0x2a
 8058 25b3 6101     		.2byte	0x161
 8059 25b5 B9250000 		.4byte	0x25b9
 8060 25b9 07       		.uleb128 0x7
 8061 25ba 04       		.byte	0x4
 8062 25bb BF250000 		.4byte	0x25bf
 8063 25bf 16       		.uleb128 0x16
 8064 25c0 26170000 		.4byte	0x1726
 8065 25c4 CE250000 		.4byte	0x25ce
 8066 25c8 17       		.uleb128 0x17
 8067 25c9 63250000 		.4byte	0x2563
 8068 25cd 00       		.byte	0
 8069 25ce 09       		.uleb128 0x9
 8070 25cf 37100000 		.4byte	.LASF525
 8071 25d3 2A       		.byte	0x2a
 8072 25d4 6601     		.2byte	0x166
 8073 25d6 DA250000 		.4byte	0x25da
 8074 25da 07       		.uleb128 0x7
 8075 25db 04       		.byte	0x4
 8076 25dc E0250000 		.4byte	0x25e0
 8077 25e0 16       		.uleb128 0x16
 8078 25e1 FE250000 		.4byte	0x25fe
 8079 25e5 FE250000 		.4byte	0x25fe
 8080 25e9 17       		.uleb128 0x17
 8081 25ea 63250000 		.4byte	0x2563
 8082 25ee 17       		.uleb128 0x17
 8083 25ef A2000000 		.4byte	0xa2
 8084 25f3 17       		.uleb128 0x17
 8085 25f4 A2000000 		.4byte	0xa2
 8086 25f8 17       		.uleb128 0x17
 8087 25f9 B2000000 		.4byte	0xb2
 8088 25fd 00       		.byte	0
 8089 25fe 07       		.uleb128 0x7
 8090 25ff 04       		.byte	0x4
 8091 2600 41250000 		.4byte	0x2541
 8092 2604 0E       		.uleb128 0xe
 8093 2605 20       		.byte	0x20
 8094 2606 2C       		.byte	0x2c
 8095 2607 35       		.byte	0x35
 8096 2608 6D260000 		.4byte	0x266d
 8097 260c 0F       		.uleb128 0xf
 8098 260d 46030000 		.4byte	.LASF526
 8099 2611 2C       		.byte	0x2c
 8100 2612 36       		.byte	0x36
 8101 2613 D8000000 		.4byte	0xd8
 8102 2617 00       		.byte	0
 8103 2618 0F       		.uleb128 0xf
ARM GAS  /tmp/ccJYnsep.s 			page 145


 8104 2619 2D0E0000 		.4byte	.LASF527
 8105 261d 2C       		.byte	0x2c
 8106 261e 38       		.byte	0x38
 8107 261f D8000000 		.4byte	0xd8
 8108 2623 04       		.byte	0x4
 8109 2624 0F       		.uleb128 0xf
 8110 2625 9C020000 		.4byte	.LASF528
 8111 2629 2C       		.byte	0x2c
 8112 262a 39       		.byte	0x39
 8113 262b D8000000 		.4byte	0xd8
 8114 262f 08       		.byte	0x8
 8115 2630 0F       		.uleb128 0xf
 8116 2631 B71B0000 		.4byte	.LASF529
 8117 2635 2C       		.byte	0x2c
 8118 2636 3A       		.byte	0x3a
 8119 2637 D8000000 		.4byte	0xd8
 8120 263b 0C       		.byte	0xc
 8121 263c 0F       		.uleb128 0xf
 8122 263d 56140000 		.4byte	.LASF530
 8123 2641 2C       		.byte	0x2c
 8124 2642 3C       		.byte	0x3c
 8125 2643 D8000000 		.4byte	0xd8
 8126 2647 10       		.byte	0x10
 8127 2648 0F       		.uleb128 0xf
 8128 2649 630E0000 		.4byte	.LASF531
 8129 264d 2C       		.byte	0x2c
 8130 264e 3E       		.byte	0x3e
 8131 264f D8000000 		.4byte	0xd8
 8132 2653 14       		.byte	0x14
 8133 2654 0F       		.uleb128 0xf
 8134 2655 760E0000 		.4byte	.LASF532
 8135 2659 2C       		.byte	0x2c
 8136 265a 3F       		.byte	0x3f
 8137 265b D8000000 		.4byte	0xd8
 8138 265f 18       		.byte	0x18
 8139 2660 0F       		.uleb128 0xf
 8140 2661 F9030000 		.4byte	.LASF533
 8141 2665 2C       		.byte	0x2c
 8142 2666 40       		.byte	0x40
 8143 2667 D8000000 		.4byte	0xd8
 8144 266b 1C       		.byte	0x1c
 8145 266c 00       		.byte	0
 8146 266d 03       		.uleb128 0x3
 8147 266e 581B0000 		.4byte	.LASF534
 8148 2672 2C       		.byte	0x2c
 8149 2673 41       		.byte	0x41
 8150 2674 04260000 		.4byte	0x2604
 8151 2678 0E       		.uleb128 0xe
 8152 2679 20       		.byte	0x20
 8153 267a 2C       		.byte	0x2c
 8154 267b 46       		.byte	0x46
 8155 267c E1260000 		.4byte	0x26e1
 8156 2680 0F       		.uleb128 0xf
 8157 2681 A40E0000 		.4byte	.LASF535
 8158 2685 2C       		.byte	0x2c
 8159 2686 47       		.byte	0x47
 8160 2687 D8000000 		.4byte	0xd8
ARM GAS  /tmp/ccJYnsep.s 			page 146


 8161 268b 00       		.byte	0
 8162 268c 0F       		.uleb128 0xf
 8163 268d FE0D0000 		.4byte	.LASF536
 8164 2691 2C       		.byte	0x2c
 8165 2692 49       		.byte	0x49
 8166 2693 D8000000 		.4byte	0xd8
 8167 2697 04       		.byte	0x4
 8168 2698 0F       		.uleb128 0xf
 8169 2699 4B1F0000 		.4byte	.LASF537
 8170 269d 2C       		.byte	0x2c
 8171 269e 4A       		.byte	0x4a
 8172 269f D8000000 		.4byte	0xd8
 8173 26a3 08       		.byte	0x8
 8174 26a4 0F       		.uleb128 0xf
 8175 26a5 2D120000 		.4byte	.LASF538
 8176 26a9 2C       		.byte	0x2c
 8177 26aa 4C       		.byte	0x4c
 8178 26ab D8000000 		.4byte	0xd8
 8179 26af 0C       		.byte	0xc
 8180 26b0 0F       		.uleb128 0xf
 8181 26b1 DE160000 		.4byte	.LASF539
 8182 26b5 2C       		.byte	0x2c
 8183 26b6 4D       		.byte	0x4d
 8184 26b7 D8000000 		.4byte	0xd8
 8185 26bb 10       		.byte	0x10
 8186 26bc 0F       		.uleb128 0xf
 8187 26bd 630E0000 		.4byte	.LASF531
 8188 26c1 2C       		.byte	0x2c
 8189 26c2 4F       		.byte	0x4f
 8190 26c3 D8000000 		.4byte	0xd8
 8191 26c7 14       		.byte	0x14
 8192 26c8 0F       		.uleb128 0xf
 8193 26c9 E1060000 		.4byte	.LASF540
 8194 26cd 2C       		.byte	0x2c
 8195 26ce 50       		.byte	0x50
 8196 26cf D8000000 		.4byte	0xd8
 8197 26d3 18       		.byte	0x18
 8198 26d4 0F       		.uleb128 0xf
 8199 26d5 341F0000 		.4byte	.LASF541
 8200 26d9 2C       		.byte	0x2c
 8201 26da 52       		.byte	0x52
 8202 26db D8000000 		.4byte	0xd8
 8203 26df 1C       		.byte	0x1c
 8204 26e0 00       		.byte	0
 8205 26e1 03       		.uleb128 0x3
 8206 26e2 1C080000 		.4byte	.LASF542
 8207 26e6 2C       		.byte	0x2c
 8208 26e7 53       		.byte	0x53
 8209 26e8 78260000 		.4byte	0x2678
 8210 26ec 0E       		.uleb128 0xe
 8211 26ed 20       		.byte	0x20
 8212 26ee 2C       		.byte	0x2c
 8213 26ef 58       		.byte	0x58
 8214 26f0 55270000 		.4byte	0x2755
 8215 26f4 0F       		.uleb128 0xf
 8216 26f5 2F150000 		.4byte	.LASF543
 8217 26f9 2C       		.byte	0x2c
ARM GAS  /tmp/ccJYnsep.s 			page 147


 8218 26fa 59       		.byte	0x59
 8219 26fb D8000000 		.4byte	0xd8
 8220 26ff 00       		.byte	0
 8221 2700 0F       		.uleb128 0xf
 8222 2701 FE0D0000 		.4byte	.LASF536
 8223 2705 2C       		.byte	0x2c
 8224 2706 5B       		.byte	0x5b
 8225 2707 D8000000 		.4byte	0xd8
 8226 270b 04       		.byte	0x4
 8227 270c 0F       		.uleb128 0xf
 8228 270d 0B180000 		.4byte	.LASF544
 8229 2711 2C       		.byte	0x2c
 8230 2712 5C       		.byte	0x5c
 8231 2713 D8000000 		.4byte	0xd8
 8232 2717 08       		.byte	0x8
 8233 2718 0F       		.uleb128 0xf
 8234 2719 2D120000 		.4byte	.LASF538
 8235 271d 2C       		.byte	0x2c
 8236 271e 5E       		.byte	0x5e
 8237 271f D8000000 		.4byte	0xd8
 8238 2723 0C       		.byte	0xc
 8239 2724 0F       		.uleb128 0xf
 8240 2725 7F200000 		.4byte	.LASF545
 8241 2729 2C       		.byte	0x2c
 8242 272a 5F       		.byte	0x5f
 8243 272b D8000000 		.4byte	0xd8
 8244 272f 10       		.byte	0x10
 8245 2730 0F       		.uleb128 0xf
 8246 2731 630E0000 		.4byte	.LASF531
 8247 2735 2C       		.byte	0x2c
 8248 2736 61       		.byte	0x61
 8249 2737 D8000000 		.4byte	0xd8
 8250 273b 14       		.byte	0x14
 8251 273c 0F       		.uleb128 0xf
 8252 273d 760E0000 		.4byte	.LASF532
 8253 2741 2C       		.byte	0x2c
 8254 2742 62       		.byte	0x62
 8255 2743 D8000000 		.4byte	0xd8
 8256 2747 18       		.byte	0x18
 8257 2748 0F       		.uleb128 0xf
 8258 2749 341F0000 		.4byte	.LASF541
 8259 274d 2C       		.byte	0x2c
 8260 274e 63       		.byte	0x63
 8261 274f D8000000 		.4byte	0xd8
 8262 2753 1C       		.byte	0x1c
 8263 2754 00       		.byte	0
 8264 2755 03       		.uleb128 0x3
 8265 2756 12170000 		.4byte	.LASF546
 8266 275a 2C       		.byte	0x2c
 8267 275b 64       		.byte	0x64
 8268 275c EC260000 		.4byte	0x26ec
 8269 2760 2C       		.uleb128 0x2c
 8270 2761 00100100 		.4byte	0x11000
 8271 2765 2C       		.byte	0x2c
 8272 2766 69       		.byte	0x69
 8273 2767 3D2A0000 		.4byte	0x2a3d
 8274 276b 0F       		.uleb128 0xf
ARM GAS  /tmp/ccJYnsep.s 			page 148


 8275 276c AB040000 		.4byte	.LASF547
 8276 2770 2C       		.byte	0x2c
 8277 2771 6A       		.byte	0x6a
 8278 2772 D8000000 		.4byte	0xd8
 8279 2776 00       		.byte	0
 8280 2777 0F       		.uleb128 0xf
 8281 2778 1C0D0000 		.4byte	.LASF548
 8282 277c 2C       		.byte	0x2c
 8283 277d 6B       		.byte	0x6b
 8284 277e D8000000 		.4byte	0xd8
 8285 2782 04       		.byte	0x4
 8286 2783 0F       		.uleb128 0xf
 8287 2784 2D070000 		.4byte	.LASF549
 8288 2788 2C       		.byte	0x2c
 8289 2789 6C       		.byte	0x6c
 8290 278a D8000000 		.4byte	0xd8
 8291 278e 08       		.byte	0x8
 8292 278f 0F       		.uleb128 0xf
 8293 2790 A6230000 		.4byte	.LASF550
 8294 2794 2C       		.byte	0x2c
 8295 2795 6D       		.byte	0x6d
 8296 2796 D8000000 		.4byte	0xd8
 8297 279a 0C       		.byte	0xc
 8298 279b 0F       		.uleb128 0xf
 8299 279c DD130000 		.4byte	.LASF551
 8300 27a0 2C       		.byte	0x2c
 8301 27a1 6E       		.byte	0x6e
 8302 27a2 D8000000 		.4byte	0xd8
 8303 27a6 10       		.byte	0x10
 8304 27a7 0F       		.uleb128 0xf
 8305 27a8 9E030000 		.4byte	.LASF552
 8306 27ac 2C       		.byte	0x2c
 8307 27ad 6F       		.byte	0x6f
 8308 27ae D8000000 		.4byte	0xd8
 8309 27b2 14       		.byte	0x14
 8310 27b3 0F       		.uleb128 0xf
 8311 27b4 5C1A0000 		.4byte	.LASF553
 8312 27b8 2C       		.byte	0x2c
 8313 27b9 70       		.byte	0x70
 8314 27ba D8000000 		.4byte	0xd8
 8315 27be 18       		.byte	0x18
 8316 27bf 0F       		.uleb128 0xf
 8317 27c0 A2070000 		.4byte	.LASF554
 8318 27c4 2C       		.byte	0x2c
 8319 27c5 71       		.byte	0x71
 8320 27c6 D8000000 		.4byte	0xd8
 8321 27ca 1C       		.byte	0x1c
 8322 27cb 0F       		.uleb128 0xf
 8323 27cc 9A070000 		.4byte	.LASF555
 8324 27d0 2C       		.byte	0x2c
 8325 27d1 73       		.byte	0x73
 8326 27d2 D8000000 		.4byte	0xd8
 8327 27d6 20       		.byte	0x20
 8328 27d7 0F       		.uleb128 0xf
 8329 27d8 D3190000 		.4byte	.LASF556
 8330 27dc 2C       		.byte	0x2c
 8331 27dd 75       		.byte	0x75
ARM GAS  /tmp/ccJYnsep.s 			page 149


 8332 27de D8000000 		.4byte	0xd8
 8333 27e2 24       		.byte	0x24
 8334 27e3 0F       		.uleb128 0xf
 8335 27e4 C8000000 		.4byte	.LASF557
 8336 27e8 2C       		.byte	0x2c
 8337 27e9 76       		.byte	0x76
 8338 27ea D8000000 		.4byte	0xd8
 8339 27ee 28       		.byte	0x28
 8340 27ef 0F       		.uleb128 0xf
 8341 27f0 721A0000 		.4byte	.LASF558
 8342 27f4 2C       		.byte	0x2c
 8343 27f5 78       		.byte	0x78
 8344 27f6 D8000000 		.4byte	0xd8
 8345 27fa 2C       		.byte	0x2c
 8346 27fb 0F       		.uleb128 0xf
 8347 27fc 7D0F0000 		.4byte	.LASF559
 8348 2800 2C       		.byte	0x2c
 8349 2801 7A       		.byte	0x7a
 8350 2802 D8000000 		.4byte	0xd8
 8351 2806 30       		.byte	0x30
 8352 2807 0F       		.uleb128 0xf
 8353 2808 4B220000 		.4byte	.LASF560
 8354 280c 2C       		.byte	0x2c
 8355 280d 7B       		.byte	0x7b
 8356 280e D8000000 		.4byte	0xd8
 8357 2812 34       		.byte	0x34
 8358 2813 0F       		.uleb128 0xf
 8359 2814 C5010000 		.4byte	.LASF561
 8360 2818 2C       		.byte	0x2c
 8361 2819 7C       		.byte	0x7c
 8362 281a D8000000 		.4byte	0xd8
 8363 281e 38       		.byte	0x38
 8364 281f 12       		.uleb128 0x12
 8365 2820 43494400 		.ascii	"CID\000"
 8366 2824 2C       		.byte	0x2c
 8367 2825 7D       		.byte	0x7d
 8368 2826 D8000000 		.4byte	0xd8
 8369 282a 3C       		.byte	0x3c
 8370 282b 0F       		.uleb128 0xf
 8371 282c F6100000 		.4byte	.LASF562
 8372 2830 2C       		.byte	0x2c
 8373 2831 7E       		.byte	0x7e
 8374 2832 4D2A0000 		.4byte	0x2a4d
 8375 2836 40       		.byte	0x40
 8376 2837 14       		.uleb128 0x14
 8377 2838 41210000 		.4byte	.LASF563
 8378 283c 2C       		.byte	0x2c
 8379 283d 7F       		.byte	0x7f
 8380 283e D8000000 		.4byte	0xd8
 8381 2842 0001     		.2byte	0x100
 8382 2844 14       		.uleb128 0x14
 8383 2845 3C020000 		.4byte	.LASF564
 8384 2849 2C       		.byte	0x2c
 8385 284a 81       		.byte	0x81
 8386 284b D4110000 		.4byte	0x11d4
 8387 284f 0401     		.2byte	0x104
 8388 2851 14       		.uleb128 0x14
ARM GAS  /tmp/ccJYnsep.s 			page 150


 8389 2852 F2140000 		.4byte	.LASF565
 8390 2856 2C       		.byte	0x2c
 8391 2857 83       		.byte	0x83
 8392 2858 622A0000 		.4byte	0x2a62
 8393 285c 4001     		.2byte	0x140
 8394 285e 14       		.uleb128 0x14
 8395 285f 87170000 		.4byte	.LASF566
 8396 2863 2C       		.byte	0x2c
 8397 2864 84       		.byte	0x84
 8398 2865 D8000000 		.4byte	0xd8
 8399 2869 0004     		.2byte	0x400
 8400 286b 14       		.uleb128 0x14
 8401 286c 24230000 		.4byte	.LASF567
 8402 2870 2C       		.byte	0x2c
 8403 2871 85       		.byte	0x85
 8404 2872 D8000000 		.4byte	0xd8
 8405 2876 0404     		.2byte	0x404
 8406 2878 14       		.uleb128 0x14
 8407 2879 24040000 		.4byte	.LASF568
 8408 287d 2C       		.byte	0x2c
 8409 287e 86       		.byte	0x86
 8410 287f D8000000 		.4byte	0xd8
 8411 2883 0804     		.2byte	0x408
 8412 2885 14       		.uleb128 0x14
 8413 2886 6A0D0000 		.4byte	.LASF569
 8414 288a 2C       		.byte	0x2c
 8415 288b 88       		.byte	0x88
 8416 288c D8000000 		.4byte	0xd8
 8417 2890 0C04     		.2byte	0x40c
 8418 2892 14       		.uleb128 0x14
 8419 2893 10030000 		.4byte	.LASF570
 8420 2897 2C       		.byte	0x2c
 8421 2898 89       		.byte	0x89
 8422 2899 D8000000 		.4byte	0xd8
 8423 289d 1004     		.2byte	0x410
 8424 289f 14       		.uleb128 0x14
 8425 28a0 0C040000 		.4byte	.LASF571
 8426 28a4 2C       		.byte	0x2c
 8427 28a5 8B       		.byte	0x8b
 8428 28a6 D8000000 		.4byte	0xd8
 8429 28aa 1404     		.2byte	0x414
 8430 28ac 14       		.uleb128 0x14
 8431 28ad 390D0000 		.4byte	.LASF572
 8432 28b1 2C       		.byte	0x2c
 8433 28b2 8D       		.byte	0x8d
 8434 28b3 D8000000 		.4byte	0xd8
 8435 28b7 1804     		.2byte	0x418
 8436 28b9 14       		.uleb128 0x14
 8437 28ba A41C0000 		.4byte	.LASF573
 8438 28be 2C       		.byte	0x2c
 8439 28bf 8F       		.byte	0x8f
 8440 28c0 772A0000 		.4byte	0x2a77
 8441 28c4 1C04     		.2byte	0x41c
 8442 28c6 14       		.uleb128 0x14
 8443 28c7 8C020000 		.4byte	.LASF574
 8444 28cb 2C       		.byte	0x2c
 8445 28cc 90       		.byte	0x90
ARM GAS  /tmp/ccJYnsep.s 			page 151


 8446 28cd D8000000 		.4byte	0xd8
 8447 28d1 4004     		.2byte	0x440
 8448 28d3 14       		.uleb128 0x14
 8449 28d4 241E0000 		.4byte	.LASF575
 8450 28d8 2C       		.byte	0x2c
 8451 28d9 92       		.byte	0x92
 8452 28da 8C2A0000 		.4byte	0x2a8c
 8453 28de 4404     		.2byte	0x444
 8454 28e0 2D       		.uleb128 0x2d
 8455 28e1 686300   		.ascii	"hc\000"
 8456 28e4 2C       		.byte	0x2c
 8457 28e5 93       		.byte	0x93
 8458 28e6 912A0000 		.4byte	0x2a91
 8459 28ea 0005     		.2byte	0x500
 8460 28ec 14       		.uleb128 0x14
 8461 28ed 49010000 		.4byte	.LASF576
 8462 28f1 2C       		.byte	0x2c
 8463 28f2 94       		.byte	0x94
 8464 28f3 B12A0000 		.4byte	0x2ab1
 8465 28f7 0007     		.2byte	0x700
 8466 28f9 14       		.uleb128 0x14
 8467 28fa BE1D0000 		.4byte	.LASF577
 8468 28fe 2C       		.byte	0x2c
 8469 28ff 95       		.byte	0x95
 8470 2900 D8000000 		.4byte	0xd8
 8471 2904 0008     		.2byte	0x800
 8472 2906 14       		.uleb128 0x14
 8473 2907 06220000 		.4byte	.LASF578
 8474 290b 2C       		.byte	0x2c
 8475 290c 96       		.byte	0x96
 8476 290d D8000000 		.4byte	0xd8
 8477 2911 0408     		.2byte	0x804
 8478 2913 14       		.uleb128 0x14
 8479 2914 D5120000 		.4byte	.LASF579
 8480 2918 2C       		.byte	0x2c
 8481 2919 97       		.byte	0x97
 8482 291a D8000000 		.4byte	0xd8
 8483 291e 0808     		.2byte	0x808
 8484 2920 14       		.uleb128 0x14
 8485 2921 8C040000 		.4byte	.LASF580
 8486 2925 2C       		.byte	0x2c
 8487 2926 98       		.byte	0x98
 8488 2927 D8000000 		.4byte	0xd8
 8489 292b 0C08     		.2byte	0x80c
 8490 292d 14       		.uleb128 0x14
 8491 292e 140D0000 		.4byte	.LASF581
 8492 2932 2C       		.byte	0x2c
 8493 2933 99       		.byte	0x99
 8494 2934 D8000000 		.4byte	0xd8
 8495 2938 1008     		.2byte	0x810
 8496 293a 14       		.uleb128 0x14
 8497 293b 861F0000 		.4byte	.LASF582
 8498 293f 2C       		.byte	0x2c
 8499 2940 9B       		.byte	0x9b
 8500 2941 D8000000 		.4byte	0xd8
 8501 2945 1408     		.2byte	0x814
 8502 2947 14       		.uleb128 0x14
ARM GAS  /tmp/ccJYnsep.s 			page 152


 8503 2948 19200000 		.4byte	.LASF583
 8504 294c 2C       		.byte	0x2c
 8505 294d 9D       		.byte	0x9d
 8506 294e D8000000 		.4byte	0xd8
 8507 2952 1808     		.2byte	0x818
 8508 2954 14       		.uleb128 0x14
 8509 2955 3B1D0000 		.4byte	.LASF584
 8510 2959 2C       		.byte	0x2c
 8511 295a 9F       		.byte	0x9f
 8512 295b D8000000 		.4byte	0xd8
 8513 295f 1C08     		.2byte	0x81c
 8514 2961 14       		.uleb128 0x14
 8515 2962 CD050000 		.4byte	.LASF585
 8516 2966 2C       		.byte	0x2c
 8517 2967 A1       		.byte	0xa1
 8518 2968 D8000000 		.4byte	0xd8
 8519 296c 2008     		.2byte	0x820
 8520 296e 14       		.uleb128 0x14
 8521 296f ED040000 		.4byte	.LASF586
 8522 2973 2C       		.byte	0x2c
 8523 2974 A2       		.byte	0xa2
 8524 2975 D8000000 		.4byte	0xd8
 8525 2979 2408     		.2byte	0x824
 8526 297b 14       		.uleb128 0x14
 8527 297c 52010000 		.4byte	.LASF587
 8528 2980 2C       		.byte	0x2c
 8529 2981 A3       		.byte	0xa3
 8530 2982 D8000000 		.4byte	0xd8
 8531 2986 2808     		.2byte	0x828
 8532 2988 14       		.uleb128 0x14
 8533 2989 C5060000 		.4byte	.LASF588
 8534 298d 2C       		.byte	0x2c
 8535 298e A5       		.byte	0xa5
 8536 298f D8000000 		.4byte	0xd8
 8537 2993 2C08     		.2byte	0x82c
 8538 2995 14       		.uleb128 0x14
 8539 2996 78060000 		.4byte	.LASF589
 8540 299a 2C       		.byte	0x2c
 8541 299b A7       		.byte	0xa7
 8542 299c D8000000 		.4byte	0xd8
 8543 29a0 3008     		.2byte	0x830
 8544 29a2 14       		.uleb128 0x14
 8545 29a3 990E0000 		.4byte	.LASF590
 8546 29a7 2C       		.byte	0x2c
 8547 29a8 A8       		.byte	0xa8
 8548 29a9 D8000000 		.4byte	0xd8
 8549 29ad 3408     		.2byte	0x834
 8550 29af 14       		.uleb128 0x14
 8551 29b0 9D060000 		.4byte	.LASF591
 8552 29b4 2C       		.byte	0x2c
 8553 29b5 AA       		.byte	0xaa
 8554 29b6 D8000000 		.4byte	0xd8
 8555 29ba 3808     		.2byte	0x838
 8556 29bc 14       		.uleb128 0x14
 8557 29bd B5060000 		.4byte	.LASF592
 8558 29c1 2C       		.byte	0x2c
 8559 29c2 AB       		.byte	0xab
ARM GAS  /tmp/ccJYnsep.s 			page 153


 8560 29c3 D8000000 		.4byte	0xd8
 8561 29c7 3C08     		.2byte	0x83c
 8562 29c9 14       		.uleb128 0x14
 8563 29ca 44070000 		.4byte	.LASF593
 8564 29ce 2C       		.byte	0x2c
 8565 29cf AC       		.byte	0xac
 8566 29d0 C62A0000 		.4byte	0x2ac6
 8567 29d4 4008     		.2byte	0x840
 8568 29d6 14       		.uleb128 0x14
 8569 29d7 4A0E0000 		.4byte	.LASF594
 8570 29db 2C       		.byte	0x2c
 8571 29dc AD       		.byte	0xad
 8572 29dd C62A0000 		.4byte	0x2ac6
 8573 29e1 8008     		.2byte	0x880
 8574 29e3 14       		.uleb128 0x14
 8575 29e4 12120000 		.4byte	.LASF595
 8576 29e8 2C       		.byte	0x2c
 8577 29e9 AE       		.byte	0xae
 8578 29ea C62A0000 		.4byte	0x2ac6
 8579 29ee C008     		.2byte	0x8c0
 8580 29f0 2D       		.uleb128 0x2d
 8581 29f1 696500   		.ascii	"ie\000"
 8582 29f4 2C       		.byte	0x2c
 8583 29f5 AF       		.byte	0xaf
 8584 29f6 CB2A0000 		.4byte	0x2acb
 8585 29fa 0009     		.2byte	0x900
 8586 29fc 2D       		.uleb128 0x2d
 8587 29fd 6F6500   		.ascii	"oe\000"
 8588 2a00 2C       		.byte	0x2c
 8589 2a01 B0       		.byte	0xb0
 8590 2a02 DB2A0000 		.4byte	0x2adb
 8591 2a06 000B     		.2byte	0xb00
 8592 2a08 14       		.uleb128 0x14
 8593 2a09 750B0000 		.4byte	.LASF596
 8594 2a0d 2C       		.byte	0x2c
 8595 2a0e B1       		.byte	0xb1
 8596 2a0f B12A0000 		.4byte	0x2ab1
 8597 2a13 000D     		.2byte	0xd00
 8598 2a15 14       		.uleb128 0x14
 8599 2a16 11220000 		.4byte	.LASF597
 8600 2a1a 2C       		.byte	0x2c
 8601 2a1b B2       		.byte	0xb2
 8602 2a1c D8000000 		.4byte	0xd8
 8603 2a20 000E     		.2byte	0xe00
 8604 2a22 14       		.uleb128 0x14
 8605 2a23 F20F0000 		.4byte	.LASF598
 8606 2a27 2C       		.byte	0x2c
 8607 2a28 B4       		.byte	0xb4
 8608 2a29 FB2A0000 		.4byte	0x2afb
 8609 2a2d 040E     		.2byte	0xe04
 8610 2a2f 14       		.uleb128 0x14
 8611 2a30 D2210000 		.4byte	.LASF599
 8612 2a34 2C       		.byte	0x2c
 8613 2a35 B5       		.byte	0xb5
 8614 2a36 172B0000 		.4byte	0x2b17
 8615 2a3a 0010     		.2byte	0x1000
 8616 2a3c 00       		.byte	0
ARM GAS  /tmp/ccJYnsep.s 			page 154


 8617 2a3d 0C       		.uleb128 0xc
 8618 2a3e D8000000 		.4byte	0xd8
 8619 2a42 4D2A0000 		.4byte	0x2a4d
 8620 2a46 0D       		.uleb128 0xd
 8621 2a47 9B000000 		.4byte	0x9b
 8622 2a4b 2F       		.byte	0x2f
 8623 2a4c 00       		.byte	0
 8624 2a4d 06       		.uleb128 0x6
 8625 2a4e 3D2A0000 		.4byte	0x2a3d
 8626 2a52 0C       		.uleb128 0xc
 8627 2a53 D8000000 		.4byte	0xd8
 8628 2a57 622A0000 		.4byte	0x2a62
 8629 2a5b 0D       		.uleb128 0xd
 8630 2a5c 9B000000 		.4byte	0x9b
 8631 2a60 AF       		.byte	0xaf
 8632 2a61 00       		.byte	0
 8633 2a62 06       		.uleb128 0x6
 8634 2a63 522A0000 		.4byte	0x2a52
 8635 2a67 0C       		.uleb128 0xc
 8636 2a68 D8000000 		.4byte	0xd8
 8637 2a6c 772A0000 		.4byte	0x2a77
 8638 2a70 0D       		.uleb128 0xd
 8639 2a71 9B000000 		.4byte	0x9b
 8640 2a75 08       		.byte	0x8
 8641 2a76 00       		.byte	0
 8642 2a77 06       		.uleb128 0x6
 8643 2a78 672A0000 		.4byte	0x2a67
 8644 2a7c 0C       		.uleb128 0xc
 8645 2a7d D8000000 		.4byte	0xd8
 8646 2a81 8C2A0000 		.4byte	0x2a8c
 8647 2a85 0D       		.uleb128 0xd
 8648 2a86 9B000000 		.4byte	0x9b
 8649 2a8a 2E       		.byte	0x2e
 8650 2a8b 00       		.byte	0
 8651 2a8c 06       		.uleb128 0x6
 8652 2a8d 7C2A0000 		.4byte	0x2a7c
 8653 2a91 0C       		.uleb128 0xc
 8654 2a92 6D260000 		.4byte	0x266d
 8655 2a96 A12A0000 		.4byte	0x2aa1
 8656 2a9a 0D       		.uleb128 0xd
 8657 2a9b 9B000000 		.4byte	0x9b
 8658 2a9f 0F       		.byte	0xf
 8659 2aa0 00       		.byte	0
 8660 2aa1 0C       		.uleb128 0xc
 8661 2aa2 D8000000 		.4byte	0xd8
 8662 2aa6 B12A0000 		.4byte	0x2ab1
 8663 2aaa 0D       		.uleb128 0xd
 8664 2aab 9B000000 		.4byte	0x9b
 8665 2aaf 3F       		.byte	0x3f
 8666 2ab0 00       		.byte	0
 8667 2ab1 06       		.uleb128 0x6
 8668 2ab2 A12A0000 		.4byte	0x2aa1
 8669 2ab6 0C       		.uleb128 0xc
 8670 2ab7 D8000000 		.4byte	0xd8
 8671 2abb C62A0000 		.4byte	0x2ac6
 8672 2abf 0D       		.uleb128 0xd
 8673 2ac0 9B000000 		.4byte	0x9b
ARM GAS  /tmp/ccJYnsep.s 			page 155


 8674 2ac4 0F       		.byte	0xf
 8675 2ac5 00       		.byte	0
 8676 2ac6 06       		.uleb128 0x6
 8677 2ac7 B62A0000 		.4byte	0x2ab6
 8678 2acb 0C       		.uleb128 0xc
 8679 2acc E1260000 		.4byte	0x26e1
 8680 2ad0 DB2A0000 		.4byte	0x2adb
 8681 2ad4 0D       		.uleb128 0xd
 8682 2ad5 9B000000 		.4byte	0x9b
 8683 2ad9 0F       		.byte	0xf
 8684 2ada 00       		.byte	0
 8685 2adb 0C       		.uleb128 0xc
 8686 2adc 55270000 		.4byte	0x2755
 8687 2ae0 EB2A0000 		.4byte	0x2aeb
 8688 2ae4 0D       		.uleb128 0xd
 8689 2ae5 9B000000 		.4byte	0x9b
 8690 2ae9 0F       		.byte	0xf
 8691 2aea 00       		.byte	0
 8692 2aeb 0C       		.uleb128 0xc
 8693 2aec D8000000 		.4byte	0xd8
 8694 2af0 FB2A0000 		.4byte	0x2afb
 8695 2af4 0D       		.uleb128 0xd
 8696 2af5 9B000000 		.4byte	0x9b
 8697 2af9 7E       		.byte	0x7e
 8698 2afa 00       		.byte	0
 8699 2afb 06       		.uleb128 0x6
 8700 2afc EB2A0000 		.4byte	0x2aeb
 8701 2b00 0C       		.uleb128 0xc
 8702 2b01 D8000000 		.4byte	0xd8
 8703 2b05 172B0000 		.4byte	0x2b17
 8704 2b09 0D       		.uleb128 0xd
 8705 2b0a 9B000000 		.4byte	0x9b
 8706 2b0e 0F       		.byte	0xf
 8707 2b0f 2E       		.uleb128 0x2e
 8708 2b10 9B000000 		.4byte	0x9b
 8709 2b14 FF03     		.2byte	0x3ff
 8710 2b16 00       		.byte	0
 8711 2b17 06       		.uleb128 0x6
 8712 2b18 002B0000 		.4byte	0x2b00
 8713 2b1c 03       		.uleb128 0x3
 8714 2b1d E1230000 		.4byte	.LASF600
 8715 2b21 2C       		.byte	0x2c
 8716 2b22 B6       		.byte	0xb6
 8717 2b23 60270000 		.4byte	0x2760
 8718 2b27 0E       		.uleb128 0xe
 8719 2b28 0C       		.byte	0xc
 8720 2b29 2B       		.byte	0x2b
 8721 2b2a C6       		.byte	0xc6
 8722 2b2b 542B0000 		.4byte	0x2b54
 8723 2b2f 0F       		.uleb128 0xf
 8724 2b30 E1080000 		.4byte	.LASF601
 8725 2b34 2B       		.byte	0x2b
 8726 2b35 C7       		.byte	0xc7
 8727 2b36 CD000000 		.4byte	0xcd
 8728 2b3a 00       		.byte	0
 8729 2b3b 0F       		.uleb128 0xf
 8730 2b3c 380B0000 		.4byte	.LASF602
ARM GAS  /tmp/ccJYnsep.s 			page 156


 8731 2b40 2B       		.byte	0x2b
 8732 2b41 C8       		.byte	0xc8
 8733 2b42 CD000000 		.4byte	0xcd
 8734 2b46 04       		.byte	0x4
 8735 2b47 0F       		.uleb128 0xf
 8736 2b48 FB0F0000 		.4byte	.LASF603
 8737 2b4c 2B       		.byte	0x2b
 8738 2b4d C9       		.byte	0xc9
 8739 2b4e CD000000 		.4byte	0xcd
 8740 2b52 08       		.byte	0x8
 8741 2b53 00       		.byte	0
 8742 2b54 03       		.uleb128 0x3
 8743 2b55 620B0000 		.4byte	.LASF604
 8744 2b59 2B       		.byte	0x2b
 8745 2b5a CA       		.byte	0xca
 8746 2b5b 272B0000 		.4byte	0x2b27
 8747 2b5f 05       		.uleb128 0x5
 8748 2b60 542B0000 		.4byte	0x2b54
 8749 2b64 0E       		.uleb128 0xe
 8750 2b65 04       		.byte	0x4
 8751 2b66 2B       		.byte	0x2b
 8752 2b67 DD       		.byte	0xdd
 8753 2b68 792B0000 		.4byte	0x2b79
 8754 2b6c 0F       		.uleb128 0xf
 8755 2b6d 0B220000 		.4byte	.LASF605
 8756 2b71 2B       		.byte	0x2b
 8757 2b72 E1       		.byte	0xe1
 8758 2b73 C5160000 		.4byte	0x16c5
 8759 2b77 00       		.byte	0
 8760 2b78 00       		.byte	0
 8761 2b79 0E       		.uleb128 0xe
 8762 2b7a 04       		.byte	0x4
 8763 2b7b 2B       		.byte	0x2b
 8764 2b7c E3       		.byte	0xe3
 8765 2b7d 8E2B0000 		.4byte	0x2b8e
 8766 2b81 0F       		.uleb128 0xf
 8767 2b82 5B090000 		.4byte	.LASF368
 8768 2b86 2B       		.byte	0x2b
 8769 2b87 E7       		.byte	0xe7
 8770 2b88 8E2B0000 		.4byte	0x2b8e
 8771 2b8c 00       		.byte	0
 8772 2b8d 00       		.byte	0
 8773 2b8e 07       		.uleb128 0x7
 8774 2b8f 04       		.byte	0x4
 8775 2b90 A1160000 		.4byte	0x16a1
 8776 2b94 0A       		.uleb128 0xa
 8777 2b95 04       		.byte	0x4
 8778 2b96 2B       		.byte	0x2b
 8779 2b97 DC       		.byte	0xdc
 8780 2b98 B32B0000 		.4byte	0x2bb3
 8781 2b9c 0B       		.uleb128 0xb
 8782 2b9d 4C1E0000 		.4byte	.LASF606
 8783 2ba1 2B       		.byte	0x2b
 8784 2ba2 E2       		.byte	0xe2
 8785 2ba3 642B0000 		.4byte	0x2b64
 8786 2ba7 0B       		.uleb128 0xb
 8787 2ba8 8D1D0000 		.4byte	.LASF607
ARM GAS  /tmp/ccJYnsep.s 			page 157


 8788 2bac 2B       		.byte	0x2b
 8789 2bad E8       		.byte	0xe8
 8790 2bae 792B0000 		.4byte	0x2b79
 8791 2bb2 00       		.byte	0
 8792 2bb3 0E       		.uleb128 0xe
 8793 2bb4 14       		.byte	0x14
 8794 2bb5 2B       		.byte	0x2b
 8795 2bb6 CF       		.byte	0xcf
 8796 2bb7 F82B0000 		.4byte	0x2bf8
 8797 2bbb 0F       		.uleb128 0xf
 8798 2bbc 7E070000 		.4byte	.LASF608
 8799 2bc0 2B       		.byte	0x2b
 8800 2bc1 D3       		.byte	0xd3
 8801 2bc2 26170000 		.4byte	0x1726
 8802 2bc6 00       		.byte	0
 8803 2bc7 0F       		.uleb128 0xf
 8804 2bc8 2F130000 		.4byte	.LASF609
 8805 2bcc 2B       		.byte	0x2b
 8806 2bcd D7       		.byte	0xd7
 8807 2bce E8000000 		.4byte	0xe8
 8808 2bd2 04       		.byte	0x4
 8809 2bd3 0F       		.uleb128 0xf
 8810 2bd4 77210000 		.4byte	.LASF610
 8811 2bd8 2B       		.byte	0x2b
 8812 2bd9 DB       		.byte	0xdb
 8813 2bda E8000000 		.4byte	0xe8
 8814 2bde 08       		.byte	0x8
 8815 2bdf 0F       		.uleb128 0xf
 8816 2be0 48080000 		.4byte	.LASF437
 8817 2be4 2B       		.byte	0x2b
 8818 2be5 E9       		.byte	0xe9
 8819 2be6 942B0000 		.4byte	0x2b94
 8820 2bea 0C       		.byte	0xc
 8821 2beb 0F       		.uleb128 0xf
 8822 2bec 18100000 		.4byte	.LASF611
 8823 2bf0 2B       		.byte	0x2b
 8824 2bf1 ED       		.byte	0xed
 8825 2bf2 E8000000 		.4byte	0xe8
 8826 2bf6 10       		.byte	0x10
 8827 2bf7 00       		.byte	0
 8828 2bf8 03       		.uleb128 0x3
 8829 2bf9 FE100000 		.4byte	.LASF612
 8830 2bfd 2B       		.byte	0x2b
 8831 2bfe EE       		.byte	0xee
 8832 2bff B32B0000 		.4byte	0x2bb3
 8833 2c03 1C       		.uleb128 0x1c
 8834 2c04 04       		.byte	0x4
 8835 2c05 2B       		.byte	0x2b
 8836 2c06 0101     		.2byte	0x101
 8837 2c08 1A2C0000 		.4byte	0x2c1a
 8838 2c0c 19       		.uleb128 0x19
 8839 2c0d 850B0000 		.4byte	.LASF613
 8840 2c11 2B       		.byte	0x2b
 8841 2c12 0501     		.2byte	0x105
 8842 2c14 90160000 		.4byte	0x1690
 8843 2c18 00       		.byte	0
 8844 2c19 00       		.byte	0
ARM GAS  /tmp/ccJYnsep.s 			page 158


 8845 2c1a 1C       		.uleb128 0x1c
 8846 2c1b 04       		.byte	0x4
 8847 2c1c 2B       		.byte	0x2b
 8848 2c1d 0701     		.2byte	0x107
 8849 2c1f 312C0000 		.4byte	0x2c31
 8850 2c23 19       		.uleb128 0x19
 8851 2c24 1C1E0000 		.4byte	.LASF369
 8852 2c28 2B       		.byte	0x2b
 8853 2c29 0B01     		.2byte	0x10b
 8854 2c2b 312C0000 		.4byte	0x2c31
 8855 2c2f 00       		.byte	0
 8856 2c30 00       		.byte	0
 8857 2c31 07       		.uleb128 0x7
 8858 2c32 04       		.byte	0x4
 8859 2c33 96160000 		.4byte	0x1696
 8860 2c37 1D       		.uleb128 0x1d
 8861 2c38 04       		.byte	0x4
 8862 2c39 2B       		.byte	0x2b
 8863 2c3a 0001     		.2byte	0x100
 8864 2c3c 592C0000 		.4byte	0x2c59
 8865 2c40 1E       		.uleb128 0x1e
 8866 2c41 4C1E0000 		.4byte	.LASF606
 8867 2c45 2B       		.byte	0x2b
 8868 2c46 0601     		.2byte	0x106
 8869 2c48 032C0000 		.4byte	0x2c03
 8870 2c4c 1E       		.uleb128 0x1e
 8871 2c4d 8D1D0000 		.4byte	.LASF607
 8872 2c51 2B       		.byte	0x2b
 8873 2c52 0C01     		.2byte	0x10c
 8874 2c54 1A2C0000 		.4byte	0x2c1a
 8875 2c58 00       		.byte	0
 8876 2c59 0E       		.uleb128 0xe
 8877 2c5a 14       		.byte	0x14
 8878 2c5b 2B       		.byte	0x2b
 8879 2c5c F3       		.byte	0xf3
 8880 2c5d A02C0000 		.4byte	0x2ca0
 8881 2c61 0F       		.uleb128 0xf
 8882 2c62 89050000 		.4byte	.LASF614
 8883 2c66 2B       		.byte	0x2b
 8884 2c67 F7       		.byte	0xf7
 8885 2c68 26170000 		.4byte	0x1726
 8886 2c6c 00       		.byte	0
 8887 2c6d 0F       		.uleb128 0xf
 8888 2c6e 43140000 		.4byte	.LASF615
 8889 2c72 2B       		.byte	0x2b
 8890 2c73 FB       		.byte	0xfb
 8891 2c74 E8000000 		.4byte	0xe8
 8892 2c78 04       		.byte	0x4
 8893 2c79 0F       		.uleb128 0xf
 8894 2c7a 2E080000 		.4byte	.LASF616
 8895 2c7e 2B       		.byte	0x2b
 8896 2c7f FF       		.byte	0xff
 8897 2c80 E8000000 		.4byte	0xe8
 8898 2c84 08       		.byte	0x8
 8899 2c85 19       		.uleb128 0x19
 8900 2c86 48080000 		.4byte	.LASF437
 8901 2c8a 2B       		.byte	0x2b
ARM GAS  /tmp/ccJYnsep.s 			page 159


 8902 2c8b 0D01     		.2byte	0x10d
 8903 2c8d 372C0000 		.4byte	0x2c37
 8904 2c91 0C       		.byte	0xc
 8905 2c92 19       		.uleb128 0x19
 8906 2c93 18100000 		.4byte	.LASF611
 8907 2c97 2B       		.byte	0x2b
 8908 2c98 1101     		.2byte	0x111
 8909 2c9a E8000000 		.4byte	0xe8
 8910 2c9e 10       		.byte	0x10
 8911 2c9f 00       		.byte	0
 8912 2ca0 09       		.uleb128 0x9
 8913 2ca1 901C0000 		.4byte	.LASF617
 8914 2ca5 2B       		.byte	0x2b
 8915 2ca6 1201     		.2byte	0x112
 8916 2ca8 592C0000 		.4byte	0x2c59
 8917 2cac 1C       		.uleb128 0x1c
 8918 2cad 24       		.byte	0x24
 8919 2cae 2B       		.byte	0x2b
 8920 2caf 1801     		.2byte	0x118
 8921 2cb1 382D0000 		.4byte	0x2d38
 8922 2cb5 19       		.uleb128 0x19
 8923 2cb6 0A170000 		.4byte	.LASF618
 8924 2cba 2B       		.byte	0x2b
 8925 2cbb 1C01     		.2byte	0x11c
 8926 2cbd CD000000 		.4byte	0xcd
 8927 2cc1 00       		.byte	0
 8928 2cc2 19       		.uleb128 0x19
 8929 2cc3 2D090000 		.4byte	.LASF619
 8930 2cc7 2B       		.byte	0x2b
 8931 2cc8 2701     		.2byte	0x127
 8932 2cca 69250000 		.4byte	0x2569
 8933 2cce 04       		.byte	0x4
 8934 2ccf 19       		.uleb128 0x19
 8935 2cd0 F5170000 		.4byte	.LASF620
 8936 2cd4 2B       		.byte	0x2b
 8937 2cd5 2D01     		.2byte	0x12d
 8938 2cd7 69250000 		.4byte	0x2569
 8939 2cdb 08       		.byte	0x8
 8940 2cdc 19       		.uleb128 0x19
 8941 2cdd 320D0000 		.4byte	.LASF621
 8942 2ce1 2B       		.byte	0x2b
 8943 2ce2 3301     		.2byte	0x133
 8944 2ce4 69250000 		.4byte	0x2569
 8945 2ce8 0C       		.byte	0xc
 8946 2ce9 19       		.uleb128 0x19
 8947 2cea 08240000 		.4byte	.LASF622
 8948 2cee 2B       		.byte	0x2b
 8949 2cef 3901     		.2byte	0x139
 8950 2cf1 B2000000 		.4byte	0xb2
 8951 2cf5 10       		.byte	0x10
 8952 2cf6 19       		.uleb128 0x19
 8953 2cf7 8E100000 		.4byte	.LASF623
 8954 2cfb 2B       		.byte	0x2b
 8955 2cfc 3F01     		.2byte	0x13f
 8956 2cfe B2000000 		.4byte	0xb2
 8957 2d02 12       		.byte	0x12
 8958 2d03 19       		.uleb128 0x19
ARM GAS  /tmp/ccJYnsep.s 			page 160


 8959 2d04 B8220000 		.4byte	.LASF624
 8960 2d08 2B       		.byte	0x2b
 8961 2d09 4401     		.2byte	0x144
 8962 2d0b 382D0000 		.4byte	0x2d38
 8963 2d0f 14       		.byte	0x14
 8964 2d10 19       		.uleb128 0x19
 8965 2d11 E70E0000 		.4byte	.LASF625
 8966 2d15 2B       		.byte	0x2b
 8967 2d16 4901     		.2byte	0x149
 8968 2d18 3E2D0000 		.4byte	0x2d3e
 8969 2d1c 18       		.byte	0x18
 8970 2d1d 19       		.uleb128 0x19
 8971 2d1e 8C120000 		.4byte	.LASF626
 8972 2d22 2B       		.byte	0x2b
 8973 2d23 5001     		.2byte	0x150
 8974 2d25 B2000000 		.4byte	0xb2
 8975 2d29 1C       		.byte	0x1c
 8976 2d2a 19       		.uleb128 0x19
 8977 2d2b 41220000 		.4byte	.LASF627
 8978 2d2f 2B       		.byte	0x2b
 8979 2d30 5601     		.2byte	0x156
 8980 2d32 90160000 		.4byte	0x1690
 8981 2d36 20       		.byte	0x20
 8982 2d37 00       		.byte	0
 8983 2d38 07       		.uleb128 0x7
 8984 2d39 04       		.byte	0x4
 8985 2d3a F82B0000 		.4byte	0x2bf8
 8986 2d3e 07       		.uleb128 0x7
 8987 2d3f 04       		.byte	0x4
 8988 2d40 A02C0000 		.4byte	0x2ca0
 8989 2d44 09       		.uleb128 0x9
 8990 2d45 0A1E0000 		.4byte	.LASF628
 8991 2d49 2B       		.byte	0x2b
 8992 2d4a 5701     		.2byte	0x157
 8993 2d4c AC2C0000 		.4byte	0x2cac
 8994 2d50 05       		.uleb128 0x5
 8995 2d51 442D0000 		.4byte	0x2d44
 8996 2d55 1C       		.uleb128 0x1c
 8997 2d56 10       		.byte	0x10
 8998 2d57 2B       		.byte	0x2b
 8999 2d58 5C01     		.2byte	0x15c
 9000 2d5a 932D0000 		.4byte	0x2d93
 9001 2d5e 19       		.uleb128 0x19
 9002 2d5f 95040000 		.4byte	.LASF629
 9003 2d63 2B       		.byte	0x2b
 9004 2d64 6101     		.2byte	0x161
 9005 2d66 8B250000 		.4byte	0x258b
 9006 2d6a 00       		.byte	0
 9007 2d6b 19       		.uleb128 0x19
 9008 2d6c 7D210000 		.4byte	.LASF630
 9009 2d70 2B       		.byte	0x2b
 9010 2d71 6601     		.2byte	0x166
 9011 2d73 CE250000 		.4byte	0x25ce
 9012 2d77 04       		.byte	0x4
 9013 2d78 19       		.uleb128 0x19
 9014 2d79 FC120000 		.4byte	.LASF631
 9015 2d7d 2B       		.byte	0x2b
ARM GAS  /tmp/ccJYnsep.s 			page 161


 9016 2d7e 6C01     		.2byte	0x16c
 9017 2d80 AD250000 		.4byte	0x25ad
 9018 2d84 08       		.byte	0x8
 9019 2d85 19       		.uleb128 0x19
 9020 2d86 06020000 		.4byte	.LASF632
 9021 2d8a 2B       		.byte	0x2b
 9022 2d8b 7001     		.2byte	0x170
 9023 2d8d 46250000 		.4byte	0x2546
 9024 2d91 0C       		.byte	0xc
 9025 2d92 00       		.byte	0
 9026 2d93 09       		.uleb128 0x9
 9027 2d94 1B120000 		.4byte	.LASF633
 9028 2d98 2B       		.byte	0x2b
 9029 2d99 7201     		.2byte	0x172
 9030 2d9b 552D0000 		.4byte	0x2d55
 9031 2d9f 05       		.uleb128 0x5
 9032 2da0 932D0000 		.4byte	0x2d93
 9033 2da4 07       		.uleb128 0x7
 9034 2da5 04       		.byte	0x4
 9035 2da6 9F2D0000 		.4byte	0x2d9f
 9036 2daa 0C       		.uleb128 0xc
 9037 2dab BA2D0000 		.4byte	0x2dba
 9038 2daf BA2D0000 		.4byte	0x2dba
 9039 2db3 0D       		.uleb128 0xd
 9040 2db4 9B000000 		.4byte	0x9b
 9041 2db8 03       		.byte	0x3
 9042 2db9 00       		.byte	0
 9043 2dba 07       		.uleb128 0x7
 9044 2dbb 04       		.byte	0x4
 9045 2dbc 502D0000 		.4byte	0x2d50
 9046 2dc0 0C       		.uleb128 0xc
 9047 2dc1 A1010000 		.4byte	0x1a1
 9048 2dc5 D02D0000 		.4byte	0x2dd0
 9049 2dc9 0D       		.uleb128 0xd
 9050 2dca 9B000000 		.4byte	0x9b
 9051 2dce 02       		.byte	0x2
 9052 2dcf 00       		.byte	0
 9053 2dd0 07       		.uleb128 0x7
 9054 2dd1 04       		.byte	0x4
 9055 2dd2 1C2B0000 		.4byte	0x2b1c
 9056 2dd6 07       		.uleb128 0x7
 9057 2dd7 04       		.byte	0x4
 9058 2dd8 5F2B0000 		.4byte	0x2b5f
 9059 2ddc 0C       		.uleb128 0xc
 9060 2ddd E4110000 		.4byte	0x11e4
 9061 2de1 EC2D0000 		.4byte	0x2dec
 9062 2de5 0D       		.uleb128 0xd
 9063 2de6 9B000000 		.4byte	0x9b
 9064 2dea 43       		.byte	0x43
 9065 2deb 00       		.byte	0
 9066 2dec 20       		.uleb128 0x20
 9067 2ded D1000000 		.4byte	.LASF634
 9068 2df1 2B       		.byte	0x2b
 9069 2df2 0602     		.2byte	0x206
 9070 2df4 0C230000 		.4byte	0x230c
 9071 2df8 0C       		.uleb128 0xc
 9072 2df9 A2000000 		.4byte	0xa2
ARM GAS  /tmp/ccJYnsep.s 			page 162


 9073 2dfd 032E0000 		.4byte	0x2e03
 9074 2e01 2F       		.uleb128 0x2f
 9075 2e02 00       		.byte	0
 9076 2e03 22       		.uleb128 0x22
 9077 2e04 C2140000 		.4byte	.LASF635
 9078 2e08 2D       		.byte	0x2d
 9079 2e09 1A       		.byte	0x1a
 9080 2e0a F82D0000 		.4byte	0x2df8
 9081 2e0e 22       		.uleb128 0x22
 9082 2e0f 810A0000 		.4byte	.LASF636
 9083 2e13 2D       		.byte	0x2d
 9084 2e14 1B       		.byte	0x1b
 9085 2e15 67150000 		.4byte	0x1567
 9086 2e19 22       		.uleb128 0x22
 9087 2e1a F2210000 		.4byte	.LASF637
 9088 2e1e 2E       		.byte	0x2e
 9089 2e1f 1D       		.byte	0x1d
 9090 2e20 801A0000 		.4byte	0x1a80
 9091 2e24 22       		.uleb128 0x22
 9092 2e25 C11C0000 		.4byte	.LASF638
 9093 2e29 2E       		.byte	0x2e
 9094 2e2a 1E       		.byte	0x1e
 9095 2e2b 94000000 		.4byte	0x94
 9096 2e2f 22       		.uleb128 0x22
 9097 2e30 ED0A0000 		.4byte	.LASF639
 9098 2e34 2E       		.byte	0x2e
 9099 2e35 1F       		.byte	0x1f
 9100 2e36 801A0000 		.4byte	0x1a80
 9101 2e3a 22       		.uleb128 0x22
 9102 2e3b 1C130000 		.4byte	.LASF640
 9103 2e3f 2E       		.byte	0x2e
 9104 2e40 20       		.byte	0x20
 9105 2e41 94000000 		.4byte	0x94
 9106 2e45 03       		.uleb128 0x3
 9107 2e46 310A0000 		.4byte	.LASF641
 9108 2e4a 2F       		.byte	0x2f
 9109 2e4b 1E       		.byte	0x1e
 9110 2e4c 502E0000 		.4byte	0x2e50
 9111 2e50 11       		.uleb128 0x11
 9112 2e51 D50A0000 		.4byte	.LASF642
 9113 2e55 74       		.byte	0x74
 9114 2e56 30       		.byte	0x30
 9115 2e57 4B       		.byte	0x4b
 9116 2e58 B82F0000 		.4byte	0x2fb8
 9117 2e5c 0F       		.uleb128 0xf
 9118 2e5d BB100000 		.4byte	.LASF643
 9119 2e61 30       		.byte	0x30
 9120 2e62 4C       		.byte	0x4c
 9121 2e63 26170000 		.4byte	0x1726
 9122 2e67 00       		.byte	0
 9123 2e68 12       		.uleb128 0x12
 9124 2e69 746300   		.ascii	"tc\000"
 9125 2e6c 30       		.byte	0x30
 9126 2e6d 4D       		.byte	0x4d
 9127 2e6e EC310000 		.4byte	0x31ec
 9128 2e72 04       		.byte	0x4
 9129 2e73 0F       		.uleb128 0xf
ARM GAS  /tmp/ccJYnsep.s 			page 163


 9130 2e74 D1150000 		.4byte	.LASF644
 9131 2e78 30       		.byte	0x30
 9132 2e79 50       		.byte	0x50
 9133 2e7a BB350000 		.4byte	0x35bb
 9134 2e7e 08       		.byte	0x8
 9135 2e7f 0F       		.uleb128 0xf
 9136 2e80 66210000 		.4byte	.LASF645
 9137 2e84 30       		.byte	0x30
 9138 2e85 51       		.byte	0x51
 9139 2e86 CC350000 		.4byte	0x35cc
 9140 2e8a 0C       		.byte	0xc
 9141 2e8b 0F       		.uleb128 0xf
 9142 2e8c FC0E0000 		.4byte	.LASF646
 9143 2e90 30       		.byte	0x30
 9144 2e91 52       		.byte	0x52
 9145 2e92 BB350000 		.4byte	0x35bb
 9146 2e96 10       		.byte	0x10
 9147 2e97 0F       		.uleb128 0xf
 9148 2e98 96140000 		.4byte	.LASF647
 9149 2e9c 30       		.byte	0x30
 9150 2e9d 55       		.byte	0x55
 9151 2e9e EC350000 		.4byte	0x35ec
 9152 2ea2 14       		.byte	0x14
 9153 2ea3 0F       		.uleb128 0xf
 9154 2ea4 270A0000 		.4byte	.LASF648
 9155 2ea8 30       		.byte	0x30
 9156 2ea9 57       		.byte	0x57
 9157 2eaa 0C360000 		.4byte	0x360c
 9158 2eae 18       		.byte	0x18
 9159 2eaf 0F       		.uleb128 0xf
 9160 2eb0 32020000 		.4byte	.LASF649
 9161 2eb4 30       		.byte	0x30
 9162 2eb5 5B       		.byte	0x5b
 9163 2eb6 E8000000 		.4byte	0xe8
 9164 2eba 1C       		.byte	0x1c
 9165 2ebb 0F       		.uleb128 0xf
 9166 2ebc 4A150000 		.4byte	.LASF650
 9167 2ec0 30       		.byte	0x30
 9168 2ec1 5C       		.byte	0x5c
 9169 2ec2 21060000 		.4byte	0x621
 9170 2ec6 20       		.byte	0x20
 9171 2ec7 0F       		.uleb128 0xf
 9172 2ec8 DA120000 		.4byte	.LASF651
 9173 2ecc 30       		.byte	0x30
 9174 2ecd 5D       		.byte	0x5d
 9175 2ece 22360000 		.4byte	0x3622
 9176 2ed2 24       		.byte	0x24
 9177 2ed3 0F       		.uleb128 0xf
 9178 2ed4 42060000 		.4byte	.LASF652
 9179 2ed8 30       		.byte	0x30
 9180 2ed9 5E       		.byte	0x5e
 9181 2eda 38360000 		.4byte	0x3638
 9182 2ede 28       		.byte	0x28
 9183 2edf 0F       		.uleb128 0xf
 9184 2ee0 D5140000 		.4byte	.LASF653
 9185 2ee4 30       		.byte	0x30
 9186 2ee5 61       		.byte	0x61
ARM GAS  /tmp/ccJYnsep.s 			page 164


 9187 2ee6 CC350000 		.4byte	0x35cc
 9188 2eea 2C       		.byte	0x2c
 9189 2eeb 0F       		.uleb128 0xf
 9190 2eec 2C180000 		.4byte	.LASF654
 9191 2ef0 30       		.byte	0x30
 9192 2ef1 62       		.byte	0x62
 9193 2ef2 CC350000 		.4byte	0x35cc
 9194 2ef6 30       		.byte	0x30
 9195 2ef7 0F       		.uleb128 0xf
 9196 2ef8 C0210000 		.4byte	.LASF655
 9197 2efc 30       		.byte	0x30
 9198 2efd 63       		.byte	0x63
 9199 2efe CC350000 		.4byte	0x35cc
 9200 2f02 34       		.byte	0x34
 9201 2f03 0F       		.uleb128 0xf
 9202 2f04 FD080000 		.4byte	.LASF656
 9203 2f08 30       		.byte	0x30
 9204 2f09 64       		.byte	0x64
 9205 2f0a 58360000 		.4byte	0x3658
 9206 2f0e 38       		.byte	0x38
 9207 2f0f 0F       		.uleb128 0xf
 9208 2f10 46240000 		.4byte	.LASF657
 9209 2f14 30       		.byte	0x30
 9210 2f15 65       		.byte	0x65
 9211 2f16 6E360000 		.4byte	0x366e
 9212 2f1a 3C       		.byte	0x3c
 9213 2f1b 0F       		.uleb128 0xf
 9214 2f1c DB190000 		.4byte	.LASF658
 9215 2f20 30       		.byte	0x30
 9216 2f21 68       		.byte	0x68
 9217 2f22 88360000 		.4byte	0x3688
 9218 2f26 40       		.byte	0x40
 9219 2f27 0F       		.uleb128 0xf
 9220 2f28 81060000 		.4byte	.LASF659
 9221 2f2c 30       		.byte	0x30
 9222 2f2d 69       		.byte	0x69
 9223 2f2e 88360000 		.4byte	0x3688
 9224 2f32 44       		.byte	0x44
 9225 2f33 0F       		.uleb128 0xf
 9226 2f34 2A220000 		.4byte	.LASF660
 9227 2f38 30       		.byte	0x30
 9228 2f39 6A       		.byte	0x6a
 9229 2f3a 96350000 		.4byte	0x3596
 9230 2f3e 48       		.byte	0x48
 9231 2f3f 0F       		.uleb128 0xf
 9232 2f40 450A0000 		.4byte	.LASF661
 9233 2f44 30       		.byte	0x30
 9234 2f45 6D       		.byte	0x6d
 9235 2f46 9B000000 		.4byte	0x9b
 9236 2f4a 4C       		.byte	0x4c
 9237 2f4b 0F       		.uleb128 0xf
 9238 2f4c 11160000 		.4byte	.LASF662
 9239 2f50 30       		.byte	0x30
 9240 2f51 6E       		.byte	0x6e
 9241 2f52 CD000000 		.4byte	0xcd
 9242 2f56 50       		.byte	0x50
 9243 2f57 0F       		.uleb128 0xf
ARM GAS  /tmp/ccJYnsep.s 			page 165


 9244 2f58 EE080000 		.4byte	.LASF663
 9245 2f5c 30       		.byte	0x30
 9246 2f5d 6F       		.byte	0x6f
 9247 2f5e CD000000 		.4byte	0xcd
 9248 2f62 54       		.byte	0x54
 9249 2f63 12       		.uleb128 0x12
 9250 2f64 72616D00 		.ascii	"ram\000"
 9251 2f68 30       		.byte	0x30
 9252 2f69 71       		.byte	0x71
 9253 2f6a 8A330000 		.4byte	0x338a
 9254 2f6e 58       		.byte	0x58
 9255 2f6f 0F       		.uleb128 0xf
 9256 2f70 97060000 		.4byte	.LASF664
 9257 2f74 30       		.byte	0x30
 9258 2f75 72       		.byte	0x72
 9259 2f76 BA330000 		.4byte	0x33ba
 9260 2f7a 5C       		.byte	0x5c
 9261 2f7b 0F       		.uleb128 0xf
 9262 2f7c 53070000 		.4byte	.LASF665
 9263 2f80 30       		.byte	0x30
 9264 2f81 75       		.byte	0x75
 9265 2f82 21060000 		.4byte	0x621
 9266 2f86 60       		.byte	0x60
 9267 2f87 0F       		.uleb128 0xf
 9268 2f88 D3110000 		.4byte	.LASF666
 9269 2f8c 30       		.byte	0x30
 9270 2f8d 76       		.byte	0x76
 9271 2f8e 47350000 		.4byte	0x3547
 9272 2f92 64       		.byte	0x64
 9273 2f93 0F       		.uleb128 0xf
 9274 2f94 1E020000 		.4byte	.LASF667
 9275 2f98 30       		.byte	0x30
 9276 2f99 78       		.byte	0x78
 9277 2f9a 8E360000 		.4byte	0x368e
 9278 2f9e 68       		.byte	0x68
 9279 2f9f 0F       		.uleb128 0xf
 9280 2fa0 D5010000 		.4byte	.LASF668
 9281 2fa4 30       		.byte	0x30
 9282 2fa5 7A       		.byte	0x7a
 9283 2fa6 A1010000 		.4byte	0x1a1
 9284 2faa 6C       		.byte	0x6c
 9285 2fab 0F       		.uleb128 0xf
 9286 2fac 2F110000 		.4byte	.LASF669
 9287 2fb0 30       		.byte	0x30
 9288 2fb1 7B       		.byte	0x7b
 9289 2fb2 F20B0000 		.4byte	0xbf2
 9290 2fb6 70       		.byte	0x70
 9291 2fb7 00       		.byte	0
 9292 2fb8 03       		.uleb128 0x3
 9293 2fb9 BC080000 		.4byte	.LASF670
 9294 2fbd 2F       		.byte	0x2f
 9295 2fbe 1F       		.byte	0x1f
 9296 2fbf CD000000 		.4byte	0xcd
 9297 2fc3 30       		.uleb128 0x30
 9298 2fc4 95010000 		.4byte	.LASF678
 9299 2fc8 07       		.byte	0x7
 9300 2fc9 01       		.byte	0x1
ARM GAS  /tmp/ccJYnsep.s 			page 166


 9301 2fca 37000000 		.4byte	0x37
 9302 2fce 2F       		.byte	0x2f
 9303 2fcf 41       		.byte	0x41
 9304 2fd0 FF2F0000 		.4byte	0x2fff
 9305 2fd4 2A       		.uleb128 0x2a
 9306 2fd5 92230000 		.4byte	.LASF671
 9307 2fd9 00       		.byte	0
 9308 2fda 2A       		.uleb128 0x2a
 9309 2fdb 2C1A0000 		.4byte	.LASF672
 9310 2fdf 01       		.byte	0x1
 9311 2fe0 2A       		.uleb128 0x2a
 9312 2fe1 35010000 		.4byte	.LASF673
 9313 2fe5 02       		.byte	0x2
 9314 2fe6 2A       		.uleb128 0x2a
 9315 2fe7 730D0000 		.4byte	.LASF674
 9316 2feb 03       		.byte	0x3
 9317 2fec 2A       		.uleb128 0x2a
 9318 2fed FD0C0000 		.4byte	.LASF675
 9319 2ff1 04       		.byte	0x4
 9320 2ff2 2A       		.uleb128 0x2a
 9321 2ff3 DF100000 		.4byte	.LASF676
 9322 2ff7 05       		.byte	0x5
 9323 2ff8 2A       		.uleb128 0x2a
 9324 2ff9 341B0000 		.4byte	.LASF677
 9325 2ffd 06       		.byte	0x6
 9326 2ffe 00       		.byte	0
 9327 2fff 30       		.uleb128 0x30
 9328 3000 461B0000 		.4byte	.LASF679
 9329 3004 07       		.byte	0x7
 9330 3005 01       		.byte	0x1
 9331 3006 37000000 		.4byte	0x37
 9332 300a 2F       		.byte	0x2f
 9333 300b 51       		.byte	0x51
 9334 300c 2F300000 		.4byte	0x302f
 9335 3010 2A       		.uleb128 0x2a
 9336 3011 71110000 		.4byte	.LASF680
 9337 3015 00       		.byte	0
 9338 3016 2A       		.uleb128 0x2a
 9339 3017 3B230000 		.4byte	.LASF681
 9340 301b 01       		.byte	0x1
 9341 301c 2A       		.uleb128 0x2a
 9342 301d 001C0000 		.4byte	.LASF682
 9343 3021 02       		.byte	0x2
 9344 3022 2A       		.uleb128 0x2a
 9345 3023 29000000 		.4byte	.LASF683
 9346 3027 03       		.byte	0x3
 9347 3028 2A       		.uleb128 0x2a
 9348 3029 6F120000 		.4byte	.LASF684
 9349 302d 04       		.byte	0x4
 9350 302e 00       		.byte	0
 9351 302f 30       		.uleb128 0x30
 9352 3030 17040000 		.4byte	.LASF685
 9353 3034 07       		.byte	0x7
 9354 3035 01       		.byte	0x1
 9355 3036 37000000 		.4byte	0x37
 9356 303a 2F       		.byte	0x2f
 9357 303b 60       		.byte	0x60
ARM GAS  /tmp/ccJYnsep.s 			page 167


 9358 303c B3300000 		.4byte	0x30b3
 9359 3040 2A       		.uleb128 0x2a
 9360 3041 5D140000 		.4byte	.LASF686
 9361 3045 01       		.byte	0x1
 9362 3046 2A       		.uleb128 0x2a
 9363 3047 92050000 		.4byte	.LASF687
 9364 304b 02       		.byte	0x2
 9365 304c 2A       		.uleb128 0x2a
 9366 304d 85000000 		.4byte	.LASF688
 9367 3051 04       		.byte	0x4
 9368 3052 2A       		.uleb128 0x2a
 9369 3053 9E040000 		.4byte	.LASF689
 9370 3057 09       		.byte	0x9
 9371 3058 2A       		.uleb128 0x2a
 9372 3059 C8080000 		.4byte	.LASF690
 9373 305d 0D       		.byte	0xd
 9374 305e 2A       		.uleb128 0x2a
 9375 305f 18110000 		.4byte	.LASF691
 9376 3063 0E       		.byte	0xe
 9377 3064 2A       		.uleb128 0x2a
 9378 3065 A60D0000 		.4byte	.LASF692
 9379 3069 10       		.byte	0x10
 9380 306a 2A       		.uleb128 0x2a
 9381 306b 0A1F0000 		.4byte	.LASF693
 9382 306f 11       		.byte	0x11
 9383 3070 2A       		.uleb128 0x2a
 9384 3071 E4210000 		.4byte	.LASF694
 9385 3075 13       		.byte	0x13
 9386 3076 2A       		.uleb128 0x2a
 9387 3077 36130000 		.4byte	.LASF695
 9388 307b 14       		.byte	0x14
 9389 307c 2A       		.uleb128 0x2a
 9390 307d 240D0000 		.4byte	.LASF696
 9391 3081 15       		.byte	0x15
 9392 3082 2A       		.uleb128 0x2a
 9393 3083 7D150000 		.4byte	.LASF697
 9394 3087 16       		.byte	0x16
 9395 3088 2A       		.uleb128 0x2a
 9396 3089 BA000000 		.4byte	.LASF698
 9397 308d 18       		.byte	0x18
 9398 308e 2A       		.uleb128 0x2a
 9399 308f 01060000 		.4byte	.LASF699
 9400 3093 17       		.byte	0x17
 9401 3094 2A       		.uleb128 0x2a
 9402 3095 DC090000 		.4byte	.LASF700
 9403 3099 1B       		.byte	0x1b
 9404 309a 2A       		.uleb128 0x2a
 9405 309b 8B150000 		.4byte	.LASF701
 9406 309f 1C       		.byte	0x1c
 9407 30a0 2A       		.uleb128 0x2a
 9408 30a1 AD170000 		.4byte	.LASF702
 9409 30a5 1D       		.byte	0x1d
 9410 30a6 2A       		.uleb128 0x2a
 9411 30a7 CF090000 		.4byte	.LASF703
 9412 30ab 1E       		.byte	0x1e
 9413 30ac 2A       		.uleb128 0x2a
 9414 30ad 0A1A0000 		.4byte	.LASF704
ARM GAS  /tmp/ccJYnsep.s 			page 168


 9415 30b1 24       		.byte	0x24
 9416 30b2 00       		.byte	0
 9417 30b3 30       		.uleb128 0x30
 9418 30b4 C3120000 		.4byte	.LASF705
 9419 30b8 07       		.byte	0x7
 9420 30b9 02       		.byte	0x2
 9421 30ba 50000000 		.4byte	0x50
 9422 30be 2F       		.byte	0x2f
 9423 30bf 76       		.byte	0x76
 9424 30c0 EB300000 		.4byte	0x30eb
 9425 30c4 2A       		.uleb128 0x2a
 9426 30c5 5B170000 		.4byte	.LASF706
 9427 30c9 00       		.byte	0
 9428 30ca 2A       		.uleb128 0x2a
 9429 30cb 4A100000 		.4byte	.LASF707
 9430 30cf 01       		.byte	0x1
 9431 30d0 2A       		.uleb128 0x2a
 9432 30d1 AC160000 		.4byte	.LASF708
 9433 30d5 02       		.byte	0x2
 9434 30d6 2A       		.uleb128 0x2a
 9435 30d7 FB170000 		.4byte	.LASF709
 9436 30db 08       		.byte	0x8
 9437 30dc 31       		.uleb128 0x31
 9438 30dd 09100000 		.4byte	.LASF710
 9439 30e1 0002     		.2byte	0x200
 9440 30e3 31       		.uleb128 0x31
 9441 30e4 8C130000 		.4byte	.LASF711
 9442 30e8 0004     		.2byte	0x400
 9443 30ea 00       		.byte	0
 9444 30eb 30       		.uleb128 0x30
 9445 30ec 821B0000 		.4byte	.LASF712
 9446 30f0 07       		.byte	0x7
 9447 30f1 01       		.byte	0x1
 9448 30f2 37000000 		.4byte	0x37
 9449 30f6 2F       		.byte	0x2f
 9450 30f7 7F       		.byte	0x7f
 9451 30f8 0F310000 		.4byte	0x310f
 9452 30fc 2A       		.uleb128 0x2a
 9453 30fd 57000000 		.4byte	.LASF713
 9454 3101 00       		.byte	0
 9455 3102 2A       		.uleb128 0x2a
 9456 3103 F71A0000 		.4byte	.LASF714
 9457 3107 01       		.byte	0x1
 9458 3108 2A       		.uleb128 0x2a
 9459 3109 7D1D0000 		.4byte	.LASF715
 9460 310d 02       		.byte	0x2
 9461 310e 00       		.byte	0
 9462 310f 11       		.uleb128 0x11
 9463 3110 630F0000 		.4byte	.LASF716
 9464 3114 3C       		.byte	0x3c
 9465 3115 2F       		.byte	0x2f
 9466 3116 85       		.byte	0x85
 9467 3117 DC310000 		.4byte	0x31dc
 9468 311b 0F       		.uleb128 0xf
 9469 311c 0B080000 		.4byte	.LASF717
 9470 3120 2F       		.byte	0x2f
 9471 3121 86       		.byte	0x86
ARM GAS  /tmp/ccJYnsep.s 			page 169


 9472 3122 F8310000 		.4byte	0x31f8
 9473 3126 00       		.byte	0
 9474 3127 0F       		.uleb128 0xf
 9475 3128 171D0000 		.4byte	.LASF718
 9476 312c 2F       		.byte	0x2f
 9477 312d 87       		.byte	0x87
 9478 312e 13320000 		.4byte	0x3213
 9479 3132 04       		.byte	0x4
 9480 3133 0F       		.uleb128 0xf
 9481 3134 9A0B0000 		.4byte	.LASF719
 9482 3138 2F       		.byte	0x2f
 9483 3139 8A       		.byte	0x8a
 9484 313a 3C320000 		.4byte	0x323c
 9485 313e 08       		.byte	0x8
 9486 313f 0F       		.uleb128 0xf
 9487 3140 ED160000 		.4byte	.LASF720
 9488 3144 2F       		.byte	0x2f
 9489 3145 8D       		.byte	0x8d
 9490 3146 56320000 		.4byte	0x3256
 9491 314a 0C       		.byte	0xc
 9492 314b 0F       		.uleb128 0xf
 9493 314c C0010000 		.4byte	.LASF458
 9494 3150 2F       		.byte	0x2f
 9495 3151 8E       		.byte	0x8e
 9496 3152 7A320000 		.4byte	0x327a
 9497 3156 10       		.byte	0x10
 9498 3157 0F       		.uleb128 0xf
 9499 3158 D0170000 		.4byte	.LASF457
 9500 315c 2F       		.byte	0x2f
 9501 315d 90       		.byte	0x90
 9502 315e 7A320000 		.4byte	0x327a
 9503 3162 14       		.byte	0x14
 9504 3163 0F       		.uleb128 0xf
 9505 3164 E7160000 		.4byte	.LASF721
 9506 3168 2F       		.byte	0x2f
 9507 3169 92       		.byte	0x92
 9508 316a 9E320000 		.4byte	0x329e
 9509 316e 18       		.byte	0x18
 9510 316f 0F       		.uleb128 0xf
 9511 3170 8C160000 		.4byte	.LASF722
 9512 3174 2F       		.byte	0x2f
 9513 3175 94       		.byte	0x94
 9514 3176 C7320000 		.4byte	0x32c7
 9515 317a 1C       		.byte	0x1c
 9516 317b 0F       		.uleb128 0xf
 9517 317c 3D070000 		.4byte	.LASF723
 9518 3180 2F       		.byte	0x2f
 9519 3181 97       		.byte	0x97
 9520 3182 E6320000 		.4byte	0x32e6
 9521 3186 20       		.byte	0x20
 9522 3187 0F       		.uleb128 0xf
 9523 3188 D0010000 		.4byte	.LASF724
 9524 318c 2F       		.byte	0x2f
 9525 318d 99       		.byte	0x99
 9526 318e 0A330000 		.4byte	0x330a
 9527 3192 24       		.byte	0x24
 9528 3193 0F       		.uleb128 0xf
ARM GAS  /tmp/ccJYnsep.s 			page 170


 9529 3194 6E030000 		.4byte	.LASF725
 9530 3198 2F       		.byte	0x2f
 9531 3199 9B       		.byte	0x9b
 9532 319a 29330000 		.4byte	0x3329
 9533 319e 28       		.byte	0x28
 9534 319f 0F       		.uleb128 0xf
 9535 31a0 A6030000 		.4byte	.LASF726
 9536 31a4 2F       		.byte	0x2f
 9537 31a5 9C       		.byte	0x9c
 9538 31a6 48330000 		.4byte	0x3348
 9539 31aa 2C       		.byte	0x2c
 9540 31ab 0F       		.uleb128 0xf
 9541 31ac 060A0000 		.4byte	.LASF727
 9542 31b0 2F       		.byte	0x2f
 9543 31b1 9E       		.byte	0x9e
 9544 31b2 56320000 		.4byte	0x3256
 9545 31b6 30       		.byte	0x30
 9546 31b7 0F       		.uleb128 0xf
 9547 31b8 28150000 		.4byte	.LASF728
 9548 31bc 2F       		.byte	0x2f
 9549 31bd 9F       		.byte	0x9f
 9550 31be E6320000 		.4byte	0x32e6
 9551 31c2 34       		.byte	0x34
 9552 31c3 0F       		.uleb128 0xf
 9553 31c4 ED200000 		.4byte	.LASF729
 9554 31c8 2F       		.byte	0x2f
 9555 31c9 A1       		.byte	0xa1
 9556 31ca 2F300000 		.4byte	0x302f
 9557 31ce 38       		.byte	0x38
 9558 31cf 0F       		.uleb128 0xf
 9559 31d0 60230000 		.4byte	.LASF730
 9560 31d4 2F       		.byte	0x2f
 9561 31d5 A2       		.byte	0xa2
 9562 31d6 26170000 		.4byte	0x1726
 9563 31da 39       		.byte	0x39
 9564 31db 00       		.byte	0
 9565 31dc 1F       		.uleb128 0x1f
 9566 31dd EC310000 		.4byte	0x31ec
 9567 31e1 17       		.uleb128 0x17
 9568 31e2 EC310000 		.4byte	0x31ec
 9569 31e6 17       		.uleb128 0x17
 9570 31e7 F2310000 		.4byte	0x31f2
 9571 31eb 00       		.byte	0
 9572 31ec 07       		.uleb128 0x7
 9573 31ed 04       		.byte	0x4
 9574 31ee 0F310000 		.4byte	0x310f
 9575 31f2 07       		.uleb128 0x7
 9576 31f3 04       		.byte	0x4
 9577 31f4 452E0000 		.4byte	0x2e45
 9578 31f8 07       		.uleb128 0x7
 9579 31f9 04       		.byte	0x4
 9580 31fa DC310000 		.4byte	0x31dc
 9581 31fe 1F       		.uleb128 0x1f
 9582 31ff 13320000 		.4byte	0x3213
 9583 3203 17       		.uleb128 0x17
 9584 3204 EC310000 		.4byte	0x31ec
 9585 3208 17       		.uleb128 0x17
ARM GAS  /tmp/ccJYnsep.s 			page 171


 9586 3209 21060000 		.4byte	0x621
 9587 320d 17       		.uleb128 0x17
 9588 320e 5E090000 		.4byte	0x95e
 9589 3212 00       		.byte	0
 9590 3213 07       		.uleb128 0x7
 9591 3214 04       		.byte	0x4
 9592 3215 FE310000 		.4byte	0x31fe
 9593 3219 16       		.uleb128 0x16
 9594 321a 94000000 		.4byte	0x94
 9595 321e 3C320000 		.4byte	0x323c
 9596 3222 17       		.uleb128 0x17
 9597 3223 EC310000 		.4byte	0x31ec
 9598 3227 17       		.uleb128 0x17
 9599 3228 B82F0000 		.4byte	0x2fb8
 9600 322c 17       		.uleb128 0x17
 9601 322d E8000000 		.4byte	0xe8
 9602 3231 17       		.uleb128 0x17
 9603 3232 B3300000 		.4byte	0x30b3
 9604 3236 17       		.uleb128 0x17
 9605 3237 69090000 		.4byte	0x969
 9606 323b 00       		.byte	0
 9607 323c 07       		.uleb128 0x7
 9608 323d 04       		.byte	0x4
 9609 323e 19320000 		.4byte	0x3219
 9610 3242 16       		.uleb128 0x16
 9611 3243 94000000 		.4byte	0x94
 9612 3247 56320000 		.4byte	0x3256
 9613 324b 17       		.uleb128 0x17
 9614 324c EC310000 		.4byte	0x31ec
 9615 3250 17       		.uleb128 0x17
 9616 3251 94000000 		.4byte	0x94
 9617 3255 00       		.byte	0
 9618 3256 07       		.uleb128 0x7
 9619 3257 04       		.byte	0x4
 9620 3258 42320000 		.4byte	0x3242
 9621 325c 16       		.uleb128 0x16
 9622 325d 94000000 		.4byte	0x94
 9623 3261 7A320000 		.4byte	0x327a
 9624 3265 17       		.uleb128 0x17
 9625 3266 EC310000 		.4byte	0x31ec
 9626 326a 17       		.uleb128 0x17
 9627 326b 94000000 		.4byte	0x94
 9628 326f 17       		.uleb128 0x17
 9629 3270 B82F0000 		.4byte	0x2fb8
 9630 3274 17       		.uleb128 0x17
 9631 3275 9B000000 		.4byte	0x9b
 9632 3279 00       		.byte	0
 9633 327a 07       		.uleb128 0x7
 9634 327b 04       		.byte	0x4
 9635 327c 5C320000 		.4byte	0x325c
 9636 3280 16       		.uleb128 0x16
 9637 3281 62000000 		.4byte	0x62
 9638 3285 9E320000 		.4byte	0x329e
 9639 3289 17       		.uleb128 0x17
 9640 328a EC310000 		.4byte	0x31ec
 9641 328e 17       		.uleb128 0x17
 9642 328f 94000000 		.4byte	0x94
ARM GAS  /tmp/ccJYnsep.s 			page 172


 9643 3293 17       		.uleb128 0x17
 9644 3294 62000000 		.4byte	0x62
 9645 3298 17       		.uleb128 0x17
 9646 3299 EB300000 		.4byte	0x30eb
 9647 329d 00       		.byte	0
 9648 329e 07       		.uleb128 0x7
 9649 329f 04       		.byte	0x4
 9650 32a0 80320000 		.4byte	0x3280
 9651 32a4 16       		.uleb128 0x16
 9652 32a5 94000000 		.4byte	0x94
 9653 32a9 C7320000 		.4byte	0x32c7
 9654 32ad 17       		.uleb128 0x17
 9655 32ae EC310000 		.4byte	0x31ec
 9656 32b2 17       		.uleb128 0x17
 9657 32b3 B82F0000 		.4byte	0x2fb8
 9658 32b7 17       		.uleb128 0x17
 9659 32b8 E8000000 		.4byte	0xe8
 9660 32bc 17       		.uleb128 0x17
 9661 32bd B82F0000 		.4byte	0x2fb8
 9662 32c1 17       		.uleb128 0x17
 9663 32c2 E8000000 		.4byte	0xe8
 9664 32c6 00       		.byte	0
 9665 32c7 07       		.uleb128 0x7
 9666 32c8 04       		.byte	0x4
 9667 32c9 A4320000 		.4byte	0x32a4
 9668 32cd 16       		.uleb128 0x16
 9669 32ce 94000000 		.4byte	0x94
 9670 32d2 E6320000 		.4byte	0x32e6
 9671 32d6 17       		.uleb128 0x17
 9672 32d7 EC310000 		.4byte	0x31ec
 9673 32db 17       		.uleb128 0x17
 9674 32dc B82F0000 		.4byte	0x2fb8
 9675 32e0 17       		.uleb128 0x17
 9676 32e1 E8000000 		.4byte	0xe8
 9677 32e5 00       		.byte	0
 9678 32e6 07       		.uleb128 0x7
 9679 32e7 04       		.byte	0x4
 9680 32e8 CD320000 		.4byte	0x32cd
 9681 32ec 16       		.uleb128 0x16
 9682 32ed 94000000 		.4byte	0x94
 9683 32f1 0A330000 		.4byte	0x330a
 9684 32f5 17       		.uleb128 0x17
 9685 32f6 EC310000 		.4byte	0x31ec
 9686 32fa 17       		.uleb128 0x17
 9687 32fb B82F0000 		.4byte	0x2fb8
 9688 32ff 17       		.uleb128 0x17
 9689 3300 E8000000 		.4byte	0xe8
 9690 3304 17       		.uleb128 0x17
 9691 3305 B82F0000 		.4byte	0x2fb8
 9692 3309 00       		.byte	0
 9693 330a 07       		.uleb128 0x7
 9694 330b 04       		.byte	0x4
 9695 330c EC320000 		.4byte	0x32ec
 9696 3310 16       		.uleb128 0x16
 9697 3311 94000000 		.4byte	0x94
 9698 3315 29330000 		.4byte	0x3329
 9699 3319 17       		.uleb128 0x17
ARM GAS  /tmp/ccJYnsep.s 			page 173


 9700 331a EC310000 		.4byte	0x31ec
 9701 331e 17       		.uleb128 0x17
 9702 331f 94000000 		.4byte	0x94
 9703 3323 17       		.uleb128 0x17
 9704 3324 B82F0000 		.4byte	0x2fb8
 9705 3328 00       		.byte	0
 9706 3329 07       		.uleb128 0x7
 9707 332a 04       		.byte	0x4
 9708 332b 10330000 		.4byte	0x3310
 9709 332f 16       		.uleb128 0x16
 9710 3330 94000000 		.4byte	0x94
 9711 3334 48330000 		.4byte	0x3348
 9712 3338 17       		.uleb128 0x17
 9713 3339 EC310000 		.4byte	0x31ec
 9714 333d 17       		.uleb128 0x17
 9715 333e B82F0000 		.4byte	0x2fb8
 9716 3342 17       		.uleb128 0x17
 9717 3343 B82F0000 		.4byte	0x2fb8
 9718 3347 00       		.byte	0
 9719 3348 07       		.uleb128 0x7
 9720 3349 04       		.byte	0x4
 9721 334a 2F330000 		.4byte	0x332f
 9722 334e 22       		.uleb128 0x22
 9723 334f 670A0000 		.4byte	.LASF731
 9724 3353 30       		.byte	0x30
 9725 3354 18       		.byte	0x18
 9726 3355 F2310000 		.4byte	0x31f2
 9727 3359 11       		.uleb128 0x11
 9728 335a A8120000 		.4byte	.LASF732
 9729 335e 0C       		.byte	0xc
 9730 335f 30       		.byte	0x30
 9731 3360 1B       		.byte	0x1b
 9732 3361 8A330000 		.4byte	0x338a
 9733 3365 0F       		.uleb128 0xf
 9734 3366 3C120000 		.4byte	.LASF733
 9735 336a 30       		.byte	0x30
 9736 336b 1C       		.byte	0x1c
 9737 336c B82F0000 		.4byte	0x2fb8
 9738 3370 00       		.byte	0
 9739 3371 0F       		.uleb128 0xf
 9740 3372 2B020000 		.4byte	.LASF734
 9741 3376 30       		.byte	0x30
 9742 3377 1D       		.byte	0x1d
 9743 3378 E8000000 		.4byte	0xe8
 9744 337c 04       		.byte	0x4
 9745 337d 0F       		.uleb128 0xf
 9746 337e 1E020000 		.4byte	.LASF667
 9747 3382 30       		.byte	0x30
 9748 3383 1E       		.byte	0x1e
 9749 3384 8A330000 		.4byte	0x338a
 9750 3388 08       		.byte	0x8
 9751 3389 00       		.byte	0
 9752 338a 07       		.uleb128 0x7
 9753 338b 04       		.byte	0x4
 9754 338c 59330000 		.4byte	0x3359
 9755 3390 03       		.uleb128 0x3
 9756 3391 1C190000 		.4byte	.LASF735
ARM GAS  /tmp/ccJYnsep.s 			page 174


 9757 3395 30       		.byte	0x30
 9758 3396 22       		.byte	0x22
 9759 3397 9B330000 		.4byte	0x339b
 9760 339b 07       		.uleb128 0x7
 9761 339c 04       		.byte	0x4
 9762 339d A1330000 		.4byte	0x33a1
 9763 33a1 16       		.uleb128 0x16
 9764 33a2 94000000 		.4byte	0x94
 9765 33a6 BA330000 		.4byte	0x33ba
 9766 33aa 17       		.uleb128 0x17
 9767 33ab BA330000 		.4byte	0x33ba
 9768 33af 17       		.uleb128 0x17
 9769 33b0 B82F0000 		.4byte	0x2fb8
 9770 33b4 17       		.uleb128 0x17
 9771 33b5 E8000000 		.4byte	0xe8
 9772 33b9 00       		.byte	0
 9773 33ba 07       		.uleb128 0x7
 9774 33bb 04       		.byte	0x4
 9775 33bc C0330000 		.4byte	0x33c0
 9776 33c0 11       		.uleb128 0x11
 9777 33c1 CA020000 		.4byte	.LASF736
 9778 33c5 30       		.byte	0x30
 9779 33c6 30       		.byte	0x30
 9780 33c7 26       		.byte	0x26
 9781 33c8 5B340000 		.4byte	0x345b
 9782 33cc 0F       		.uleb128 0xf
 9783 33cd 3C120000 		.4byte	.LASF733
 9784 33d1 30       		.byte	0x30
 9785 33d2 27       		.byte	0x27
 9786 33d3 B82F0000 		.4byte	0x2fb8
 9787 33d7 00       		.byte	0
 9788 33d8 0F       		.uleb128 0xf
 9789 33d9 2B020000 		.4byte	.LASF734
 9790 33dd 30       		.byte	0x30
 9791 33de 28       		.byte	0x28
 9792 33df E8000000 		.4byte	0xe8
 9793 33e3 04       		.byte	0x4
 9794 33e4 0F       		.uleb128 0xf
 9795 33e5 42120000 		.4byte	.LASF737
 9796 33e9 30       		.byte	0x30
 9797 33ea 29       		.byte	0x29
 9798 33eb E8000000 		.4byte	0xe8
 9799 33ef 08       		.byte	0x8
 9800 33f0 0F       		.uleb128 0xf
 9801 33f1 7E1C0000 		.4byte	.LASF738
 9802 33f5 30       		.byte	0x30
 9803 33f6 2A       		.byte	0x2a
 9804 33f7 90330000 		.4byte	0x3390
 9805 33fb 0C       		.byte	0xc
 9806 33fc 0F       		.uleb128 0xf
 9807 33fd D0170000 		.4byte	.LASF457
 9808 3401 30       		.byte	0x30
 9809 3402 2B       		.byte	0x2b
 9810 3403 5B340000 		.4byte	0x345b
 9811 3407 10       		.byte	0x10
 9812 3408 0F       		.uleb128 0xf
 9813 3409 5A070000 		.4byte	.LASF739
ARM GAS  /tmp/ccJYnsep.s 			page 175


 9814 340d 30       		.byte	0x30
 9815 340e 2C       		.byte	0x2c
 9816 340f 8A340000 		.4byte	0x348a
 9817 3413 14       		.byte	0x14
 9818 3414 12       		.uleb128 0x12
 9819 3415 7400     		.ascii	"t\000"
 9820 3417 30       		.byte	0x30
 9821 3418 2D       		.byte	0x2d
 9822 3419 F2310000 		.4byte	0x31f2
 9823 341d 18       		.byte	0x18
 9824 341e 0F       		.uleb128 0xf
 9825 341f B3000000 		.4byte	.LASF740
 9826 3423 30       		.byte	0x30
 9827 3424 2E       		.byte	0x2e
 9828 3425 A2000000 		.4byte	0xa2
 9829 3429 1C       		.byte	0x1c
 9830 342a 0F       		.uleb128 0xf
 9831 342b ED1B0000 		.4byte	.LASF741
 9832 342f 30       		.byte	0x30
 9833 3430 2F       		.byte	0x2f
 9834 3431 E8000000 		.4byte	0xe8
 9835 3435 20       		.byte	0x20
 9836 3436 0F       		.uleb128 0xf
 9837 3437 1E020000 		.4byte	.LASF667
 9838 343b 30       		.byte	0x30
 9839 343c 30       		.byte	0x30
 9840 343d BA330000 		.4byte	0x33ba
 9841 3441 24       		.byte	0x24
 9842 3442 0F       		.uleb128 0xf
 9843 3443 73080000 		.4byte	.LASF742
 9844 3447 30       		.byte	0x30
 9845 3448 31       		.byte	0x31
 9846 3449 B82F0000 		.4byte	0x2fb8
 9847 344d 28       		.byte	0x28
 9848 344e 12       		.uleb128 0x12
 9849 344f 62756600 		.ascii	"buf\000"
 9850 3453 30       		.byte	0x30
 9851 3454 32       		.byte	0x32
 9852 3455 A1010000 		.4byte	0x1a1
 9853 3459 2C       		.byte	0x2c
 9854 345a 00       		.byte	0
 9855 345b 03       		.uleb128 0x3
 9856 345c E11F0000 		.4byte	.LASF743
 9857 3460 30       		.byte	0x30
 9858 3461 23       		.byte	0x23
 9859 3462 66340000 		.4byte	0x3466
 9860 3466 07       		.uleb128 0x7
 9861 3467 04       		.byte	0x4
 9862 3468 6C340000 		.4byte	0x346c
 9863 346c 16       		.uleb128 0x16
 9864 346d 94000000 		.4byte	0x94
 9865 3471 8A340000 		.4byte	0x348a
 9866 3475 17       		.uleb128 0x17
 9867 3476 BA330000 		.4byte	0x33ba
 9868 347a 17       		.uleb128 0x17
 9869 347b B82F0000 		.4byte	0x2fb8
 9870 347f 17       		.uleb128 0x17
ARM GAS  /tmp/ccJYnsep.s 			page 176


 9871 3480 2A090000 		.4byte	0x92a
 9872 3484 17       		.uleb128 0x17
 9873 3485 E8000000 		.4byte	0xe8
 9874 3489 00       		.byte	0
 9875 348a 03       		.uleb128 0x3
 9876 348b 0E210000 		.4byte	.LASF744
 9877 348f 30       		.byte	0x30
 9878 3490 25       		.byte	0x25
 9879 3491 95340000 		.4byte	0x3495
 9880 3495 07       		.uleb128 0x7
 9881 3496 04       		.byte	0x4
 9882 3497 9B340000 		.4byte	0x349b
 9883 349b 16       		.uleb128 0x16
 9884 349c 94000000 		.4byte	0x94
 9885 34a0 AA340000 		.4byte	0x34aa
 9886 34a4 17       		.uleb128 0x17
 9887 34a5 BA330000 		.4byte	0x33ba
 9888 34a9 00       		.byte	0
 9889 34aa 03       		.uleb128 0x3
 9890 34ab A81E0000 		.4byte	.LASF745
 9891 34af 30       		.byte	0x30
 9892 34b0 35       		.byte	0x35
 9893 34b1 B5340000 		.4byte	0x34b5
 9894 34b5 07       		.uleb128 0x7
 9895 34b6 04       		.byte	0x4
 9896 34b7 BB340000 		.4byte	0x34bb
 9897 34bb 16       		.uleb128 0x16
 9898 34bc 26170000 		.4byte	0x1726
 9899 34c0 D4340000 		.4byte	0x34d4
 9900 34c4 17       		.uleb128 0x17
 9901 34c5 F2310000 		.4byte	0x31f2
 9902 34c9 17       		.uleb128 0x17
 9903 34ca 94000000 		.4byte	0x94
 9904 34ce 17       		.uleb128 0x17
 9905 34cf D4340000 		.4byte	0x34d4
 9906 34d3 00       		.byte	0
 9907 34d4 07       		.uleb128 0x7
 9908 34d5 04       		.byte	0x4
 9909 34d6 21060000 		.4byte	0x621
 9910 34da 11       		.uleb128 0x11
 9911 34db 07090000 		.4byte	.LASF746
 9912 34df 0C       		.byte	0xc
 9913 34e0 30       		.byte	0x30
 9914 34e1 37       		.byte	0x37
 9915 34e2 0B350000 		.4byte	0x350b
 9916 34e6 12       		.uleb128 0x12
 9917 34e7 636D6400 		.ascii	"cmd\000"
 9918 34eb 30       		.byte	0x30
 9919 34ec 38       		.byte	0x38
 9920 34ed 21060000 		.4byte	0x621
 9921 34f1 00       		.byte	0
 9922 34f2 0F       		.uleb128 0xf
 9923 34f3 5E210000 		.4byte	.LASF747
 9924 34f7 30       		.byte	0x30
 9925 34f8 39       		.byte	0x39
 9926 34f9 AA340000 		.4byte	0x34aa
 9927 34fd 04       		.byte	0x4
ARM GAS  /tmp/ccJYnsep.s 			page 177


 9928 34fe 0F       		.uleb128 0xf
 9929 34ff A8170000 		.4byte	.LASF748
 9930 3503 30       		.byte	0x30
 9931 3504 3A       		.byte	0x3a
 9932 3505 21060000 		.4byte	0x621
 9933 3509 08       		.byte	0x8
 9934 350a 00       		.byte	0
 9935 350b 05       		.uleb128 0x5
 9936 350c DA340000 		.4byte	0x34da
 9937 3510 11       		.uleb128 0x11
 9938 3511 7B160000 		.4byte	.LASF749
 9939 3515 0C       		.byte	0xc
 9940 3516 30       		.byte	0x30
 9941 3517 3D       		.byte	0x3d
 9942 3518 41350000 		.4byte	0x3541
 9943 351c 0F       		.uleb128 0xf
 9944 351d 77000000 		.4byte	.LASF750
 9945 3521 30       		.byte	0x30
 9946 3522 3E       		.byte	0x3e
 9947 3523 21060000 		.4byte	0x621
 9948 3527 00       		.byte	0
 9949 3528 0F       		.uleb128 0xf
 9950 3529 CD210000 		.4byte	.LASF751
 9951 352d 30       		.byte	0x30
 9952 352e 3F       		.byte	0x3f
 9953 352f 41350000 		.4byte	0x3541
 9954 3533 04       		.byte	0x4
 9955 3534 0F       		.uleb128 0xf
 9956 3535 1E020000 		.4byte	.LASF667
 9957 3539 30       		.byte	0x30
 9958 353a 40       		.byte	0x40
 9959 353b 47350000 		.4byte	0x3547
 9960 353f 08       		.byte	0x8
 9961 3540 00       		.byte	0
 9962 3541 07       		.uleb128 0x7
 9963 3542 04       		.byte	0x4
 9964 3543 0B350000 		.4byte	0x350b
 9965 3547 07       		.uleb128 0x7
 9966 3548 04       		.byte	0x4
 9967 3549 10350000 		.4byte	0x3510
 9968 354d 11       		.uleb128 0x11
 9969 354e 4D060000 		.4byte	.LASF752
 9970 3552 20       		.byte	0x20
 9971 3553 30       		.byte	0x30
 9972 3554 43       		.byte	0x43
 9973 3555 96350000 		.4byte	0x3596
 9974 3559 0F       		.uleb128 0xf
 9975 355a 1E020000 		.4byte	.LASF667
 9976 355e 30       		.byte	0x30
 9977 355f 44       		.byte	0x44
 9978 3560 96350000 		.4byte	0x3596
 9979 3564 00       		.byte	0
 9980 3565 0F       		.uleb128 0xf
 9981 3566 28070000 		.4byte	.LASF753
 9982 356a 30       		.byte	0x30
 9983 356b 45       		.byte	0x45
 9984 356c FF2F0000 		.4byte	0x2fff
ARM GAS  /tmp/ccJYnsep.s 			page 178


 9985 3570 04       		.byte	0x4
 9986 3571 0F       		.uleb128 0xf
 9987 3572 310F0000 		.4byte	.LASF403
 9988 3576 30       		.byte	0x30
 9989 3577 46       		.byte	0x46
 9990 3578 B82F0000 		.4byte	0x2fb8
 9991 357c 08       		.byte	0x8
 9992 357d 0F       		.uleb128 0xf
 9993 357e C10D0000 		.4byte	.LASF754
 9994 3582 30       		.byte	0x30
 9995 3583 47       		.byte	0x47
 9996 3584 E8000000 		.4byte	0xe8
 9997 3588 0C       		.byte	0xc
 9998 3589 0F       		.uleb128 0xf
 9999 358a 41000000 		.4byte	.LASF755
 10000 358e 30       		.byte	0x30
 10001 358f 48       		.byte	0x48
 10002 3590 9C350000 		.4byte	0x359c
 10003 3594 10       		.byte	0x10
 10004 3595 00       		.byte	0
 10005 3596 07       		.uleb128 0x7
 10006 3597 04       		.byte	0x4
 10007 3598 4D350000 		.4byte	0x354d
 10008 359c 0C       		.uleb128 0xc
 10009 359d CD000000 		.4byte	0xcd
 10010 35a1 AC350000 		.4byte	0x35ac
 10011 35a5 0D       		.uleb128 0xd
 10012 35a6 9B000000 		.4byte	0x9b
 10013 35aa 03       		.byte	0x3
 10014 35ab 00       		.byte	0
 10015 35ac 16       		.uleb128 0x16
 10016 35ad 26170000 		.4byte	0x1726
 10017 35b1 BB350000 		.4byte	0x35bb
 10018 35b5 17       		.uleb128 0x17
 10019 35b6 F2310000 		.4byte	0x31f2
 10020 35ba 00       		.byte	0
 10021 35bb 07       		.uleb128 0x7
 10022 35bc 04       		.byte	0x4
 10023 35bd AC350000 		.4byte	0x35ac
 10024 35c1 1F       		.uleb128 0x1f
 10025 35c2 CC350000 		.4byte	0x35cc
 10026 35c6 17       		.uleb128 0x17
 10027 35c7 F2310000 		.4byte	0x31f2
 10028 35cb 00       		.byte	0
 10029 35cc 07       		.uleb128 0x7
 10030 35cd 04       		.byte	0x4
 10031 35ce C1350000 		.4byte	0x35c1
 10032 35d2 1F       		.uleb128 0x1f
 10033 35d3 EC350000 		.4byte	0x35ec
 10034 35d7 17       		.uleb128 0x17
 10035 35d8 F2310000 		.4byte	0x31f2
 10036 35dc 17       		.uleb128 0x17
 10037 35dd A1010000 		.4byte	0x1a1
 10038 35e1 17       		.uleb128 0x17
 10039 35e2 B82F0000 		.4byte	0x2fb8
 10040 35e6 17       		.uleb128 0x17
 10041 35e7 E8000000 		.4byte	0xe8
ARM GAS  /tmp/ccJYnsep.s 			page 179


 10042 35eb 00       		.byte	0
 10043 35ec 07       		.uleb128 0x7
 10044 35ed 04       		.byte	0x4
 10045 35ee D2350000 		.4byte	0x35d2
 10046 35f2 1F       		.uleb128 0x1f
 10047 35f3 0C360000 		.4byte	0x360c
 10048 35f7 17       		.uleb128 0x17
 10049 35f8 F2310000 		.4byte	0x31f2
 10050 35fc 17       		.uleb128 0x17
 10051 35fd B82F0000 		.4byte	0x2fb8
 10052 3601 17       		.uleb128 0x17
 10053 3602 2A090000 		.4byte	0x92a
 10054 3606 17       		.uleb128 0x17
 10055 3607 E8000000 		.4byte	0xe8
 10056 360b 00       		.byte	0
 10057 360c 07       		.uleb128 0x7
 10058 360d 04       		.byte	0x4
 10059 360e F2350000 		.4byte	0x35f2
 10060 3612 1F       		.uleb128 0x1f
 10061 3613 22360000 		.4byte	0x3622
 10062 3617 17       		.uleb128 0x17
 10063 3618 F2310000 		.4byte	0x31f2
 10064 361c 17       		.uleb128 0x17
 10065 361d A1010000 		.4byte	0x1a1
 10066 3621 00       		.byte	0
 10067 3622 07       		.uleb128 0x7
 10068 3623 04       		.byte	0x4
 10069 3624 12360000 		.4byte	0x3612
 10070 3628 1F       		.uleb128 0x1f
 10071 3629 38360000 		.4byte	0x3638
 10072 362d 17       		.uleb128 0x17
 10073 362e F2310000 		.4byte	0x31f2
 10074 3632 17       		.uleb128 0x17
 10075 3633 2A090000 		.4byte	0x92a
 10076 3637 00       		.byte	0
 10077 3638 07       		.uleb128 0x7
 10078 3639 04       		.byte	0x4
 10079 363a 28360000 		.4byte	0x3628
 10080 363e 16       		.uleb128 0x16
 10081 363f C32F0000 		.4byte	0x2fc3
 10082 3643 52360000 		.4byte	0x3652
 10083 3647 17       		.uleb128 0x17
 10084 3648 F2310000 		.4byte	0x31f2
 10085 364c 17       		.uleb128 0x17
 10086 364d 52360000 		.4byte	0x3652
 10087 3651 00       		.byte	0
 10088 3652 07       		.uleb128 0x7
 10089 3653 04       		.byte	0x4
 10090 3654 B82F0000 		.4byte	0x2fb8
 10091 3658 07       		.uleb128 0x7
 10092 3659 04       		.byte	0x4
 10093 365a 3E360000 		.4byte	0x363e
 10094 365e 1F       		.uleb128 0x1f
 10095 365f 6E360000 		.4byte	0x366e
 10096 3663 17       		.uleb128 0x17
 10097 3664 F2310000 		.4byte	0x31f2
 10098 3668 17       		.uleb128 0x17
ARM GAS  /tmp/ccJYnsep.s 			page 180


 10099 3669 26170000 		.4byte	0x1726
 10100 366d 00       		.byte	0
 10101 366e 07       		.uleb128 0x7
 10102 366f 04       		.byte	0x4
 10103 3670 5E360000 		.4byte	0x365e
 10104 3674 16       		.uleb128 0x16
 10105 3675 94000000 		.4byte	0x94
 10106 3679 88360000 		.4byte	0x3688
 10107 367d 17       		.uleb128 0x17
 10108 367e F2310000 		.4byte	0x31f2
 10109 3682 17       		.uleb128 0x17
 10110 3683 96350000 		.4byte	0x3596
 10111 3687 00       		.byte	0
 10112 3688 07       		.uleb128 0x7
 10113 3689 04       		.byte	0x4
 10114 368a 74360000 		.4byte	0x3674
 10115 368e 07       		.uleb128 0x7
 10116 368f 04       		.byte	0x4
 10117 3690 502E0000 		.4byte	0x2e50
 10118 3694 0A       		.uleb128 0xa
 10119 3695 01       		.byte	0x1
 10120 3696 31       		.byte	0x31
 10121 3697 1C       		.byte	0x1c
 10122 3698 B3360000 		.4byte	0x36b3
 10123 369c 28       		.uleb128 0x28
 10124 369d 64657600 		.ascii	"dev\000"
 10125 36a1 31       		.byte	0x31
 10126 36a2 1D       		.byte	0x1d
 10127 36a3 A2000000 		.4byte	0xa2
 10128 36a7 0B       		.uleb128 0xb
 10129 36a8 32060000 		.4byte	.LASF756
 10130 36ac 31       		.byte	0x31
 10131 36ad 1E       		.byte	0x1e
 10132 36ae A2000000 		.4byte	0xa2
 10133 36b2 00       		.byte	0
 10134 36b3 11       		.uleb128 0x11
 10135 36b4 220E0000 		.4byte	.LASF757
 10136 36b8 14       		.byte	0x14
 10137 36b9 31       		.byte	0x31
 10138 36ba 1B       		.byte	0x1b
 10139 36bb 1A370000 		.4byte	0x371a
 10140 36bf 32       		.uleb128 0x32
 10141 36c0 94360000 		.4byte	0x3694
 10142 36c4 00       		.byte	0
 10143 36c5 0F       		.uleb128 0xf
 10144 36c6 37140000 		.4byte	.LASF758
 10145 36ca 31       		.byte	0x31
 10146 36cb 20       		.byte	0x20
 10147 36cc A2000000 		.4byte	0xa2
 10148 36d0 01       		.byte	0x1
 10149 36d1 0F       		.uleb128 0xf
 10150 36d2 1E1C0000 		.4byte	.LASF759
 10151 36d6 31       		.byte	0x31
 10152 36d7 22       		.byte	0x22
 10153 36d8 A2000000 		.4byte	0xa2
 10154 36dc 02       		.byte	0x2
 10155 36dd 0F       		.uleb128 0xf
ARM GAS  /tmp/ccJYnsep.s 			page 181


 10156 36de DB180000 		.4byte	.LASF760
 10157 36e2 31       		.byte	0x31
 10158 36e3 23       		.byte	0x23
 10159 36e4 A2000000 		.4byte	0xa2
 10160 36e8 03       		.byte	0x3
 10161 36e9 0F       		.uleb128 0xf
 10162 36ea 04030000 		.4byte	.LASF761
 10163 36ee 31       		.byte	0x31
 10164 36ef 24       		.byte	0x24
 10165 36f0 A2000000 		.4byte	0xa2
 10166 36f4 04       		.byte	0x4
 10167 36f5 0F       		.uleb128 0xf
 10168 36f6 11160000 		.4byte	.LASF662
 10169 36fa 31       		.byte	0x31
 10170 36fb 26       		.byte	0x26
 10171 36fc CD000000 		.4byte	0xcd
 10172 3700 08       		.byte	0x8
 10173 3701 0F       		.uleb128 0xf
 10174 3702 2D190000 		.4byte	.LASF762
 10175 3706 31       		.byte	0x31
 10176 3707 27       		.byte	0x27
 10177 3708 21060000 		.4byte	0x621
 10178 370c 0C       		.byte	0xc
 10179 370d 0F       		.uleb128 0xf
 10180 370e 00080000 		.4byte	.LASF763
 10181 3712 31       		.byte	0x31
 10182 3713 29       		.byte	0x29
 10183 3714 CD000000 		.4byte	0xcd
 10184 3718 10       		.byte	0x10
 10185 3719 00       		.byte	0
 10186 371a 03       		.uleb128 0x3
 10187 371b C1220000 		.4byte	.LASF764
 10188 371f 31       		.byte	0x31
 10189 3720 2B       		.byte	0x2b
 10190 3721 B3360000 		.4byte	0x36b3
 10191 3725 0C       		.uleb128 0xc
 10192 3726 B3360000 		.4byte	0x36b3
 10193 372a 35370000 		.4byte	0x3735
 10194 372e 0D       		.uleb128 0xd
 10195 372f 9B000000 		.4byte	0x9b
 10196 3733 20       		.byte	0x20
 10197 3734 00       		.byte	0
 10198 3735 22       		.uleb128 0x22
 10199 3736 E60C0000 		.4byte	.LASF765
 10200 373a 31       		.byte	0x31
 10201 373b 2D       		.byte	0x2d
 10202 373c 25370000 		.4byte	0x3725
 10203 3740 22       		.uleb128 0x22
 10204 3741 26010000 		.4byte	.LASF766
 10205 3745 31       		.byte	0x31
 10206 3746 2E       		.byte	0x2e
 10207 3747 94000000 		.4byte	0x94
 10208 374b 30       		.uleb128 0x30
 10209 374c 981A0000 		.4byte	.LASF767
 10210 3750 07       		.byte	0x7
 10211 3751 01       		.byte	0x1
 10212 3752 37000000 		.4byte	0x37
ARM GAS  /tmp/ccJYnsep.s 			page 182


 10213 3756 32       		.byte	0x32
 10214 3757 71       		.byte	0x71
 10215 3758 75370000 		.4byte	0x3775
 10216 375c 2A       		.uleb128 0x2a
 10217 375d 92090000 		.4byte	.LASF768
 10218 3761 00       		.byte	0
 10219 3762 2A       		.uleb128 0x2a
 10220 3763 0E0B0000 		.4byte	.LASF769
 10221 3767 01       		.byte	0x1
 10222 3768 2A       		.uleb128 0x2a
 10223 3769 080F0000 		.4byte	.LASF770
 10224 376d 02       		.byte	0x2
 10225 376e 2A       		.uleb128 0x2a
 10226 376f 85140000 		.4byte	.LASF771
 10227 3773 03       		.byte	0x3
 10228 3774 00       		.byte	0
 10229 3775 0A       		.uleb128 0xa
 10230 3776 04       		.byte	0x4
 10231 3777 32       		.byte	0x32
 10232 3778 86       		.byte	0x86
 10233 3779 94370000 		.4byte	0x3794
 10234 377d 28       		.uleb128 0x28
 10235 377e 64657600 		.ascii	"dev\000"
 10236 3782 32       		.byte	0x32
 10237 3783 87       		.byte	0x87
 10238 3784 94370000 		.4byte	0x3794
 10239 3788 0B       		.uleb128 0xb
 10240 3789 7B1A0000 		.4byte	.LASF772
 10241 378d 32       		.byte	0x32
 10242 378e 88       		.byte	0x88
 10243 378f A2000000 		.4byte	0xa2
 10244 3793 00       		.byte	0
 10245 3794 07       		.uleb128 0x7
 10246 3795 04       		.byte	0x4
 10247 3796 1A370000 		.4byte	0x371a
 10248 379a 11       		.uleb128 0x11
 10249 379b 3E1A0000 		.4byte	.LASF773
 10250 379f 24       		.byte	0x24
 10251 37a0 32       		.byte	0x32
 10252 37a1 79       		.byte	0x79
 10253 37a2 0D380000 		.4byte	0x380d
 10254 37a6 0F       		.uleb128 0xf
 10255 37a7 AC000000 		.4byte	.LASF774
 10256 37ab 32       		.byte	0x32
 10257 37ac 7A       		.byte	0x7a
 10258 37ad 94000000 		.4byte	0x94
 10259 37b1 00       		.byte	0
 10260 37b2 0F       		.uleb128 0xf
 10261 37b3 11160000 		.4byte	.LASF662
 10262 37b7 32       		.byte	0x32
 10263 37b8 7C       		.byte	0x7c
 10264 37b9 CD000000 		.4byte	0xcd
 10265 37bd 04       		.byte	0x4
 10266 37be 0F       		.uleb128 0xf
 10267 37bf 0D020000 		.4byte	.LASF775
 10268 37c3 32       		.byte	0x32
 10269 37c4 7D       		.byte	0x7d
ARM GAS  /tmp/ccJYnsep.s 			page 183


 10270 37c5 CD000000 		.4byte	0xcd
 10271 37c9 08       		.byte	0x8
 10272 37ca 0F       		.uleb128 0xf
 10273 37cb BC110000 		.4byte	.LASF776
 10274 37cf 32       		.byte	0x32
 10275 37d0 7E       		.byte	0x7e
 10276 37d1 CD000000 		.4byte	0xcd
 10277 37d5 0C       		.byte	0xc
 10278 37d6 0F       		.uleb128 0xf
 10279 37d7 00240000 		.4byte	.LASF777
 10280 37db 32       		.byte	0x32
 10281 37dc 80       		.byte	0x80
 10282 37dd 27380000 		.4byte	0x3827
 10283 37e1 10       		.byte	0x10
 10284 37e2 0F       		.uleb128 0xf
 10285 37e3 A71F0000 		.4byte	.LASF778
 10286 37e7 32       		.byte	0x32
 10287 37e8 81       		.byte	0x81
 10288 37e9 3C380000 		.4byte	0x383c
 10289 37ed 14       		.byte	0x14
 10290 37ee 0F       		.uleb128 0xf
 10291 37ef 771B0000 		.4byte	.LASF779
 10292 37f3 32       		.byte	0x32
 10293 37f4 82       		.byte	0x82
 10294 37f5 60380000 		.4byte	0x3860
 10295 37f9 18       		.byte	0x18
 10296 37fa 0F       		.uleb128 0xf
 10297 37fb 6D040000 		.4byte	.LASF780
 10298 37ff 32       		.byte	0x32
 10299 3800 84       		.byte	0x84
 10300 3801 76380000 		.4byte	0x3876
 10301 3805 1C       		.byte	0x1c
 10302 3806 32       		.uleb128 0x32
 10303 3807 75370000 		.4byte	0x3775
 10304 380b 20       		.byte	0x20
 10305 380c 00       		.byte	0
 10306 380d 16       		.uleb128 0x16
 10307 380e CD000000 		.4byte	0xcd
 10308 3812 21380000 		.4byte	0x3821
 10309 3816 17       		.uleb128 0x17
 10310 3817 21380000 		.4byte	0x3821
 10311 381b 17       		.uleb128 0x17
 10312 381c B2000000 		.4byte	0xb2
 10313 3820 00       		.byte	0
 10314 3821 07       		.uleb128 0x7
 10315 3822 04       		.byte	0x4
 10316 3823 9A370000 		.4byte	0x379a
 10317 3827 07       		.uleb128 0x7
 10318 3828 04       		.byte	0x4
 10319 3829 0D380000 		.4byte	0x380d
 10320 382d 16       		.uleb128 0x16
 10321 382e CD000000 		.4byte	0xcd
 10322 3832 3C380000 		.4byte	0x383c
 10323 3836 17       		.uleb128 0x17
 10324 3837 21380000 		.4byte	0x3821
 10325 383b 00       		.byte	0
 10326 383c 07       		.uleb128 0x7
ARM GAS  /tmp/ccJYnsep.s 			page 184


 10327 383d 04       		.byte	0x4
 10328 383e 2D380000 		.4byte	0x382d
 10329 3842 16       		.uleb128 0x16
 10330 3843 CD000000 		.4byte	0xcd
 10331 3847 60380000 		.4byte	0x3860
 10332 384b 17       		.uleb128 0x17
 10333 384c 21380000 		.4byte	0x3821
 10334 3850 17       		.uleb128 0x17
 10335 3851 A2000000 		.4byte	0xa2
 10336 3855 17       		.uleb128 0x17
 10337 3856 B2000000 		.4byte	0xb2
 10338 385a 17       		.uleb128 0x17
 10339 385b CD000000 		.4byte	0xcd
 10340 385f 00       		.byte	0
 10341 3860 07       		.uleb128 0x7
 10342 3861 04       		.byte	0x4
 10343 3862 42380000 		.4byte	0x3842
 10344 3866 1F       		.uleb128 0x1f
 10345 3867 76380000 		.4byte	0x3876
 10346 386b 17       		.uleb128 0x17
 10347 386c 21380000 		.4byte	0x3821
 10348 3870 17       		.uleb128 0x17
 10349 3871 CD000000 		.4byte	0xcd
 10350 3875 00       		.byte	0
 10351 3876 07       		.uleb128 0x7
 10352 3877 04       		.byte	0x4
 10353 3878 66380000 		.4byte	0x3866
 10354 387c 03       		.uleb128 0x3
 10355 387d 491A0000 		.4byte	.LASF781
 10356 3881 32       		.byte	0x32
 10357 3882 8A       		.byte	0x8a
 10358 3883 9A370000 		.4byte	0x379a
 10359 3887 11       		.uleb128 0x11
 10360 3888 B3090000 		.4byte	.LASF782
 10361 388c 1C       		.byte	0x1c
 10362 388d 32       		.byte	0x32
 10363 388e A1       		.byte	0xa1
 10364 388f E7380000 		.4byte	0x38e7
 10365 3893 0F       		.uleb128 0xf
 10366 3894 AC000000 		.4byte	.LASF774
 10367 3898 32       		.byte	0x32
 10368 3899 A2       		.byte	0xa2
 10369 389a 94000000 		.4byte	0x94
 10370 389e 00       		.byte	0
 10371 389f 12       		.uleb128 0x12
 10372 38a0 647000   		.ascii	"dp\000"
 10373 38a3 32       		.byte	0x32
 10374 38a4 A4       		.byte	0xa4
 10375 38a5 E7380000 		.4byte	0x38e7
 10376 38a9 04       		.byte	0x4
 10377 38aa 0F       		.uleb128 0xf
 10378 38ab 00020000 		.4byte	.LASF783
 10379 38af 32       		.byte	0x32
 10380 38b0 A5       		.byte	0xa5
 10381 38b1 A2000000 		.4byte	0xa2
 10382 38b5 08       		.byte	0x8
 10383 38b6 12       		.uleb128 0x12
ARM GAS  /tmp/ccJYnsep.s 			page 185


 10384 38b7 69647200 		.ascii	"idr\000"
 10385 38bb 32       		.byte	0x32
 10386 38bc A7       		.byte	0xa7
 10387 38bd CD000000 		.4byte	0xcd
 10388 38c1 0C       		.byte	0xc
 10389 38c2 12       		.uleb128 0x12
 10390 38c3 63666700 		.ascii	"cfg\000"
 10391 38c7 32       		.byte	0x32
 10392 38c8 A8       		.byte	0xa8
 10393 38c9 CD000000 		.4byte	0xcd
 10394 38cd 10       		.byte	0x10
 10395 38ce 0F       		.uleb128 0xf
 10396 38cf C91D0000 		.4byte	.LASF784
 10397 38d3 32       		.byte	0x32
 10398 38d4 A9       		.byte	0xa9
 10399 38d5 CD000000 		.4byte	0xcd
 10400 38d9 14       		.byte	0x14
 10401 38da 12       		.uleb128 0x12
 10402 38db 63737700 		.ascii	"csw\000"
 10403 38df 32       		.byte	0x32
 10404 38e0 AA       		.byte	0xaa
 10405 38e1 CD000000 		.4byte	0xcd
 10406 38e5 18       		.byte	0x18
 10407 38e6 00       		.byte	0
 10408 38e7 07       		.uleb128 0x7
 10409 38e8 04       		.byte	0x4
 10410 38e9 7C380000 		.4byte	0x387c
 10411 38ed 03       		.uleb128 0x3
 10412 38ee BE090000 		.4byte	.LASF785
 10413 38f2 32       		.byte	0x32
 10414 38f3 AB       		.byte	0xab
 10415 38f4 87380000 		.4byte	0x3887
 10416 38f8 22       		.uleb128 0x22
 10417 38f9 050E0000 		.4byte	.LASF786
 10418 38fd 33       		.byte	0x33
 10419 38fe 19       		.byte	0x19
 10420 38ff 62000000 		.4byte	0x62
 10421 3903 0C       		.uleb128 0xc
 10422 3904 0B350000 		.4byte	0x350b
 10423 3908 13390000 		.4byte	0x3913
 10424 390c 0D       		.uleb128 0xd
 10425 390d 9B000000 		.4byte	0x9b
 10426 3911 03       		.byte	0x3
 10427 3912 00       		.byte	0
 10428 3913 05       		.uleb128 0x5
 10429 3914 03390000 		.4byte	0x3903
 10430 3918 33       		.uleb128 0x33
 10431 3919 78190000 		.4byte	.LASF787
 10432 391d 01       		.byte	0x1
 10433 391e 2C       		.byte	0x2c
 10434 391f 13390000 		.4byte	0x3913
 10435 3923 05       		.uleb128 0x5
 10436 3924 03       		.byte	0x3
 10437 3925 00000000 		.4byte	stm32f4_cmd_list
 10438 3929 11       		.uleb128 0x11
 10439 392a 500F0000 		.4byte	.LASF788
 10440 392e 34       		.byte	0x34
ARM GAS  /tmp/ccJYnsep.s 			page 186


 10441 392f 01       		.byte	0x1
 10442 3930 6D       		.byte	0x6d
 10443 3931 64390000 		.4byte	0x3964
 10444 3935 12       		.uleb128 0x12
 10445 3936 6600     		.ascii	"f\000"
 10446 3938 01       		.byte	0x1
 10447 3939 6E       		.byte	0x6e
 10448 393a C0330000 		.4byte	0x33c0
 10449 393e 00       		.byte	0
 10450 393f 0F       		.uleb128 0xf
 10451 3940 6B160000 		.4byte	.LASF789
 10452 3944 01       		.byte	0x1
 10453 3945 6F       		.byte	0x6f
 10454 3946 4B370000 		.4byte	0x374b
 10455 394a 30       		.byte	0x30
 10456 394b 0F       		.uleb128 0xf
 10457 394c 9B130000 		.4byte	.LASF790
 10458 3950 01       		.byte	0x1
 10459 3951 70       		.byte	0x70
 10460 3952 A2000000 		.4byte	0xa2
 10461 3956 31       		.byte	0x31
 10462 3957 0F       		.uleb128 0xf
 10463 3958 5E020000 		.4byte	.LASF791
 10464 395c 01       		.byte	0x1
 10465 395d 71       		.byte	0x71
 10466 395e A2000000 		.4byte	0xa2
 10467 3962 32       		.byte	0x32
 10468 3963 00       		.byte	0
 10469 3964 30       		.uleb128 0x30
 10470 3965 BC230000 		.4byte	.LASF792
 10471 3969 07       		.byte	0x7
 10472 396a 02       		.byte	0x2
 10473 396b 50000000 		.4byte	0x50
 10474 396f 01       		.byte	0x1
 10475 3970 74       		.byte	0x74
 10476 3971 D8390000 		.4byte	0x39d8
 10477 3975 31       		.uleb128 0x31
 10478 3976 D6170000 		.4byte	.LASF793
 10479 397a 1104     		.2byte	0x411
 10480 397c 31       		.uleb128 0x31
 10481 397d 5F1E0000 		.4byte	.LASF794
 10482 3981 1304     		.2byte	0x413
 10483 3983 31       		.uleb128 0x31
 10484 3984 BD1F0000 		.4byte	.LASF795
 10485 3988 1904     		.2byte	0x419
 10486 398a 31       		.uleb128 0x31
 10487 398b AD200000 		.4byte	.LASF796
 10488 398f 2104     		.2byte	0x421
 10489 3991 31       		.uleb128 0x31
 10490 3992 F8180000 		.4byte	.LASF797
 10491 3996 2304     		.2byte	0x423
 10492 3998 31       		.uleb128 0x31
 10493 3999 8E1E0000 		.4byte	.LASF798
 10494 399d 3104     		.2byte	0x431
 10495 399f 31       		.uleb128 0x31
 10496 39a0 06190000 		.4byte	.LASF799
 10497 39a4 3304     		.2byte	0x433
ARM GAS  /tmp/ccJYnsep.s 			page 187


 10498 39a6 31       		.uleb128 0x31
 10499 39a7 DA010000 		.4byte	.LASF800
 10500 39ab 3404     		.2byte	0x434
 10501 39ad 31       		.uleb128 0x31
 10502 39ae 9B1E0000 		.4byte	.LASF801
 10503 39b2 4104     		.2byte	0x441
 10504 39b4 31       		.uleb128 0x31
 10505 39b5 58060000 		.4byte	.LASF802
 10506 39b9 4904     		.2byte	0x449
 10507 39bb 31       		.uleb128 0x31
 10508 39bc B4070000 		.4byte	.LASF803
 10509 39c0 5104     		.2byte	0x451
 10510 39c2 31       		.uleb128 0x31
 10511 39c3 B3040000 		.4byte	.LASF804
 10512 39c7 5204     		.2byte	0x452
 10513 39c9 31       		.uleb128 0x31
 10514 39ca 811E0000 		.4byte	.LASF805
 10515 39ce 5804     		.2byte	0x458
 10516 39d0 31       		.uleb128 0x31
 10517 39d1 8D200000 		.4byte	.LASF806
 10518 39d5 6304     		.2byte	0x463
 10519 39d7 00       		.byte	0
 10520 39d8 34       		.uleb128 0x34
 10521 39d9 AE210000 		.4byte	.LASF811
 10522 39dd 01       		.byte	0x1
 10523 39de BA02     		.2byte	0x2ba
 10524 39e0 26170000 		.4byte	0x1726
 10525 39e4 01       		.byte	0x1
 10526 39e5 443A0000 		.4byte	0x3a44
 10527 39e9 35       		.uleb128 0x35
 10528 39ea 7400     		.ascii	"t\000"
 10529 39ec 01       		.byte	0x1
 10530 39ed BA02     		.2byte	0x2ba
 10531 39ef F2310000 		.4byte	0x31f2
 10532 39f3 36       		.uleb128 0x36
 10533 39f4 3D060000 		.4byte	.LASF807
 10534 39f8 01       		.byte	0x1
 10535 39f9 BA02     		.2byte	0x2ba
 10536 39fb 94000000 		.4byte	0x94
 10537 39ff 36       		.uleb128 0x36
 10538 3a00 D91C0000 		.4byte	.LASF808
 10539 3a04 01       		.byte	0x1
 10540 3a05 BA02     		.2byte	0x2ba
 10541 3a07 443A0000 		.4byte	0x3a44
 10542 3a0b 37       		.uleb128 0x37
 10543 3a0c 293A0000 		.4byte	0x3a29
 10544 3a10 38       		.uleb128 0x38
 10545 3a11 6B160000 		.4byte	.LASF789
 10546 3a15 01       		.byte	0x1
 10547 3a16 BD02     		.2byte	0x2bd
 10548 3a18 4B370000 		.4byte	0x374b
 10549 3a1c 39       		.uleb128 0x39
 10550 3a1d 3A       		.uleb128 0x3a
 10551 3a1e 6600     		.ascii	"f\000"
 10552 3a20 01       		.byte	0x1
 10553 3a21 BE02     		.2byte	0x2be
 10554 3a23 BA330000 		.4byte	0x33ba
ARM GAS  /tmp/ccJYnsep.s 			page 188


 10555 3a27 00       		.byte	0
 10556 3a28 00       		.byte	0
 10557 3a29 39       		.uleb128 0x39
 10558 3a2a 38       		.uleb128 0x38
 10559 3a2b 6B160000 		.4byte	.LASF789
 10560 3a2f 01       		.byte	0x1
 10561 3a30 C802     		.2byte	0x2c8
 10562 3a32 4B370000 		.4byte	0x374b
 10563 3a36 39       		.uleb128 0x39
 10564 3a37 3A       		.uleb128 0x3a
 10565 3a38 6600     		.ascii	"f\000"
 10566 3a3a 01       		.byte	0x1
 10567 3a3b D502     		.2byte	0x2d5
 10568 3a3d BA330000 		.4byte	0x33ba
 10569 3a41 00       		.byte	0
 10570 3a42 00       		.byte	0
 10571 3a43 00       		.byte	0
 10572 3a44 07       		.uleb128 0x7
 10573 3a45 04       		.byte	0x4
 10574 3a46 A3010000 		.4byte	0x1a3
 10575 3a4a 3B       		.uleb128 0x3b
 10576 3a4b 45130000 		.4byte	.LASF815
 10577 3a4f 01       		.byte	0x1
 10578 3a50 7002     		.2byte	0x270
 10579 3a52 26170000 		.4byte	0x1726
 10580 3a56 00000000 		.4byte	.LFB275
 10581 3a5a 1C030000 		.4byte	.LFE275-.LFB275
 10582 3a5e 01       		.uleb128 0x1
 10583 3a5f 9C       		.byte	0x9c
 10584 3a60 C33E0000 		.4byte	0x3ec3
 10585 3a64 3C       		.uleb128 0x3c
 10586 3a65 7400     		.ascii	"t\000"
 10587 3a67 01       		.byte	0x1
 10588 3a68 7002     		.2byte	0x270
 10589 3a6a F2310000 		.4byte	0x31f2
 10590 3a6e 00000000 		.4byte	.LLST154
 10591 3a72 3D       		.uleb128 0x3d
 10592 3a73 3D060000 		.4byte	.LASF807
 10593 3a77 01       		.byte	0x1
 10594 3a78 7002     		.2byte	0x270
 10595 3a7a 94000000 		.4byte	0x94
 10596 3a7e 4A000000 		.4byte	.LLST155
 10597 3a82 3D       		.uleb128 0x3d
 10598 3a83 D91C0000 		.4byte	.LASF808
 10599 3a87 01       		.byte	0x1
 10600 3a88 7002     		.2byte	0x270
 10601 3a8a 443A0000 		.4byte	0x3a44
 10602 3a8e 14010000 		.4byte	.LLST156
 10603 3a92 3E       		.uleb128 0x3e
 10604 3a93 3C120000 		.4byte	.LASF733
 10605 3a97 01       		.byte	0x1
 10606 3a98 7202     		.2byte	0x272
 10607 3a9a CD000000 		.4byte	0xcd
 10608 3a9e 5E010000 		.4byte	.LLST157
 10609 3aa2 3F       		.uleb128 0x3f
 10610 3aa3 76616C00 		.ascii	"val\000"
 10611 3aa7 01       		.byte	0x1
ARM GAS  /tmp/ccJYnsep.s 			page 189


 10612 3aa8 7202     		.2byte	0x272
 10613 3aaa C33E0000 		.4byte	0x3ec3
 10614 3aae 02       		.uleb128 0x2
 10615 3aaf 91       		.byte	0x91
 10616 3ab0 4C       		.sleb128 -52
 10617 3ab1 3E       		.uleb128 0x3e
 10618 3ab2 A0150000 		.4byte	.LASF809
 10619 3ab6 01       		.byte	0x1
 10620 3ab7 7302     		.2byte	0x273
 10621 3ab9 94000000 		.4byte	0x94
 10622 3abd C7010000 		.4byte	.LLST158
 10623 3ac1 3E       		.uleb128 0x3e
 10624 3ac2 B2110000 		.4byte	.LASF810
 10625 3ac6 01       		.byte	0x1
 10626 3ac7 7302     		.2byte	0x273
 10627 3ac9 94000000 		.4byte	0x94
 10628 3acd 5D020000 		.4byte	.LLST159
 10629 3ad1 40       		.uleb128 0x40
 10630 3ad2 D33E0000 		.4byte	0x3ed3
 10631 3ad6 EA010000 		.4byte	.LBB286
 10632 3ada 08030000 		.4byte	.Ldebug_ranges0+0x308
 10633 3ade 01       		.byte	0x1
 10634 3adf 8502     		.2byte	0x285
 10635 3ae1 6A3B0000 		.4byte	0x3b6a
 10636 3ae5 41       		.uleb128 0x41
 10637 3ae6 E43E0000 		.4byte	0x3ee4
 10638 3aea AA020000 		.4byte	.LLST160
 10639 3aee 42       		.uleb128 0x42
 10640 3aef 08030000 		.4byte	.Ldebug_ranges0+0x308
 10641 3af3 43       		.uleb128 0x43
 10642 3af4 EE3E0000 		.4byte	0x3eee
 10643 3af8 02       		.uleb128 0x2
 10644 3af9 91       		.byte	0x91
 10645 3afa 4C       		.sleb128 -52
 10646 3afb 44       		.uleb128 0x44
 10647 3afc 1E020000 		.4byte	.LVL343
 10648 3b00 FB3E0000 		.4byte	0x3efb
 10649 3b04 1A3B0000 		.4byte	0x3b1a
 10650 3b08 45       		.uleb128 0x45
 10651 3b09 01       		.uleb128 0x1
 10652 3b0a 50       		.byte	0x50
 10653 3b0b 02       		.uleb128 0x2
 10654 3b0c 74       		.byte	0x74
 10655 3b0d 00       		.sleb128 0
 10656 3b0e 45       		.uleb128 0x45
 10657 3b0f 01       		.uleb128 0x1
 10658 3b10 51       		.byte	0x51
 10659 3b11 02       		.uleb128 0x2
 10660 3b12 76       		.byte	0x76
 10661 3b13 00       		.sleb128 0
 10662 3b14 45       		.uleb128 0x45
 10663 3b15 01       		.uleb128 0x1
 10664 3b16 52       		.byte	0x52
 10665 3b17 01       		.uleb128 0x1
 10666 3b18 31       		.byte	0x31
 10667 3b19 00       		.byte	0
 10668 3b1a 44       		.uleb128 0x44
ARM GAS  /tmp/ccJYnsep.s 			page 190


 10669 3b1b 70020000 		.4byte	.LVL353
 10670 3b1f FB3E0000 		.4byte	0x3efb
 10671 3b23 393B0000 		.4byte	0x3b39
 10672 3b27 45       		.uleb128 0x45
 10673 3b28 01       		.uleb128 0x1
 10674 3b29 50       		.byte	0x50
 10675 3b2a 02       		.uleb128 0x2
 10676 3b2b 74       		.byte	0x74
 10677 3b2c 00       		.sleb128 0
 10678 3b2d 45       		.uleb128 0x45
 10679 3b2e 01       		.uleb128 0x1
 10680 3b2f 51       		.byte	0x51
 10681 3b30 02       		.uleb128 0x2
 10682 3b31 76       		.byte	0x76
 10683 3b32 00       		.sleb128 0
 10684 3b33 45       		.uleb128 0x45
 10685 3b34 01       		.uleb128 0x1
 10686 3b35 52       		.byte	0x52
 10687 3b36 01       		.uleb128 0x1
 10688 3b37 33       		.byte	0x33
 10689 3b38 00       		.byte	0
 10690 3b39 44       		.uleb128 0x44
 10691 3b3a 96020000 		.4byte	.LVL354
 10692 3b3e FB3E0000 		.4byte	0x3efb
 10693 3b42 583B0000 		.4byte	0x3b58
 10694 3b46 45       		.uleb128 0x45
 10695 3b47 01       		.uleb128 0x1
 10696 3b48 50       		.byte	0x50
 10697 3b49 02       		.uleb128 0x2
 10698 3b4a 74       		.byte	0x74
 10699 3b4b 00       		.sleb128 0
 10700 3b4c 45       		.uleb128 0x45
 10701 3b4d 01       		.uleb128 0x1
 10702 3b4e 51       		.byte	0x51
 10703 3b4f 02       		.uleb128 0x2
 10704 3b50 76       		.byte	0x76
 10705 3b51 00       		.sleb128 0
 10706 3b52 45       		.uleb128 0x45
 10707 3b53 01       		.uleb128 0x1
 10708 3b54 52       		.byte	0x52
 10709 3b55 01       		.uleb128 0x1
 10710 3b56 32       		.byte	0x32
 10711 3b57 00       		.byte	0
 10712 3b58 46       		.uleb128 0x46
 10713 3b59 AC020000 		.4byte	.LVL356
 10714 3b5d FB3E0000 		.4byte	0x3efb
 10715 3b61 45       		.uleb128 0x45
 10716 3b62 01       		.uleb128 0x1
 10717 3b63 50       		.byte	0x50
 10718 3b64 02       		.uleb128 0x2
 10719 3b65 74       		.byte	0x74
 10720 3b66 00       		.sleb128 0
 10721 3b67 00       		.byte	0
 10722 3b68 00       		.byte	0
 10723 3b69 00       		.byte	0
 10724 3b6a 44       		.uleb128 0x44
 10725 3b6b 48000000 		.4byte	.LVL301
ARM GAS  /tmp/ccJYnsep.s 			page 191


 10726 3b6f FA5B0000 		.4byte	0x5bfa
 10727 3b73 813B0000 		.4byte	0x3b81
 10728 3b77 45       		.uleb128 0x45
 10729 3b78 01       		.uleb128 0x1
 10730 3b79 51       		.byte	0x51
 10731 3b7a 05       		.uleb128 0x5
 10732 3b7b 03       		.byte	0x3
 10733 3b7c 08000000 		.4byte	.LC17
 10734 3b80 00       		.byte	0
 10735 3b81 44       		.uleb128 0x44
 10736 3b82 58000000 		.4byte	.LVL302
 10737 3b86 055C0000 		.4byte	0x5c05
 10738 3b8a 9E3B0000 		.4byte	0x3b9e
 10739 3b8e 45       		.uleb128 0x45
 10740 3b8f 01       		.uleb128 0x1
 10741 3b90 50       		.byte	0x50
 10742 3b91 02       		.uleb128 0x2
 10743 3b92 74       		.byte	0x74
 10744 3b93 00       		.sleb128 0
 10745 3b94 45       		.uleb128 0x45
 10746 3b95 01       		.uleb128 0x1
 10747 3b96 51       		.byte	0x51
 10748 3b97 05       		.uleb128 0x5
 10749 3b98 03       		.byte	0x3
 10750 3b99 18000000 		.4byte	.LC19
 10751 3b9d 00       		.byte	0
 10752 3b9e 44       		.uleb128 0x44
 10753 3b9f 60000000 		.4byte	.LVL303
 10754 3ba3 055C0000 		.4byte	0x5c05
 10755 3ba7 BB3B0000 		.4byte	0x3bbb
 10756 3bab 45       		.uleb128 0x45
 10757 3bac 01       		.uleb128 0x1
 10758 3bad 50       		.byte	0x50
 10759 3bae 02       		.uleb128 0x2
 10760 3baf 74       		.byte	0x74
 10761 3bb0 00       		.sleb128 0
 10762 3bb1 45       		.uleb128 0x45
 10763 3bb2 01       		.uleb128 0x1
 10764 3bb3 51       		.byte	0x51
 10765 3bb4 05       		.uleb128 0x5
 10766 3bb5 03       		.byte	0x3
 10767 3bb6 38000000 		.4byte	.LC20
 10768 3bba 00       		.byte	0
 10769 3bbb 44       		.uleb128 0x44
 10770 3bbc 6E000000 		.4byte	.LVL304
 10771 3bc0 055C0000 		.4byte	0x5c05
 10772 3bc4 D83B0000 		.4byte	0x3bd8
 10773 3bc8 45       		.uleb128 0x45
 10774 3bc9 01       		.uleb128 0x1
 10775 3bca 50       		.byte	0x50
 10776 3bcb 02       		.uleb128 0x2
 10777 3bcc 74       		.byte	0x74
 10778 3bcd 00       		.sleb128 0
 10779 3bce 45       		.uleb128 0x45
 10780 3bcf 01       		.uleb128 0x1
 10781 3bd0 51       		.byte	0x51
 10782 3bd1 05       		.uleb128 0x5
ARM GAS  /tmp/ccJYnsep.s 			page 192


 10783 3bd2 03       		.byte	0x3
 10784 3bd3 74000000 		.4byte	.LC23
 10785 3bd7 00       		.byte	0
 10786 3bd8 44       		.uleb128 0x44
 10787 3bd9 78000000 		.4byte	.LVL306
 10788 3bdd 105C0000 		.4byte	0x5c10
 10789 3be1 F23B0000 		.4byte	0x3bf2
 10790 3be5 45       		.uleb128 0x45
 10791 3be6 01       		.uleb128 0x1
 10792 3be7 50       		.byte	0x50
 10793 3be8 02       		.uleb128 0x2
 10794 3be9 74       		.byte	0x74
 10795 3bea 00       		.sleb128 0
 10796 3beb 45       		.uleb128 0x45
 10797 3bec 01       		.uleb128 0x1
 10798 3bed 51       		.byte	0x51
 10799 3bee 02       		.uleb128 0x2
 10800 3bef 7A       		.byte	0x7a
 10801 3bf0 00       		.sleb128 0
 10802 3bf1 00       		.byte	0
 10803 3bf2 44       		.uleb128 0x44
 10804 3bf3 84000000 		.4byte	.LVL307
 10805 3bf7 105C0000 		.4byte	0x5c10
 10806 3bfb 0C3C0000 		.4byte	0x3c0c
 10807 3bff 45       		.uleb128 0x45
 10808 3c00 01       		.uleb128 0x1
 10809 3c01 50       		.byte	0x50
 10810 3c02 02       		.uleb128 0x2
 10811 3c03 74       		.byte	0x74
 10812 3c04 00       		.sleb128 0
 10813 3c05 45       		.uleb128 0x45
 10814 3c06 01       		.uleb128 0x1
 10815 3c07 51       		.byte	0x51
 10816 3c08 02       		.uleb128 0x2
 10817 3c09 75       		.byte	0x75
 10818 3c0a 00       		.sleb128 0
 10819 3c0b 00       		.byte	0
 10820 3c0c 44       		.uleb128 0x44
 10821 3c0d A4000000 		.4byte	.LVL308
 10822 3c11 105C0000 		.4byte	0x5c10
 10823 3c15 263C0000 		.4byte	0x3c26
 10824 3c19 45       		.uleb128 0x45
 10825 3c1a 01       		.uleb128 0x1
 10826 3c1b 50       		.byte	0x50
 10827 3c1c 02       		.uleb128 0x2
 10828 3c1d 74       		.byte	0x74
 10829 3c1e 00       		.sleb128 0
 10830 3c1f 45       		.uleb128 0x45
 10831 3c20 01       		.uleb128 0x1
 10832 3c21 51       		.byte	0x51
 10833 3c22 02       		.uleb128 0x2
 10834 3c23 75       		.byte	0x75
 10835 3c24 18       		.sleb128 24
 10836 3c25 00       		.byte	0
 10837 3c26 44       		.uleb128 0x44
 10838 3c27 B2000000 		.4byte	.LVL309
 10839 3c2b 105C0000 		.4byte	0x5c10
ARM GAS  /tmp/ccJYnsep.s 			page 193


 10840 3c2f 403C0000 		.4byte	0x3c40
 10841 3c33 45       		.uleb128 0x45
 10842 3c34 01       		.uleb128 0x1
 10843 3c35 50       		.byte	0x50
 10844 3c36 02       		.uleb128 0x2
 10845 3c37 74       		.byte	0x74
 10846 3c38 00       		.sleb128 0
 10847 3c39 45       		.uleb128 0x45
 10848 3c3a 01       		.uleb128 0x1
 10849 3c3b 51       		.byte	0x51
 10850 3c3c 02       		.uleb128 0x2
 10851 3c3d 75       		.byte	0x75
 10852 3c3e 10       		.sleb128 16
 10853 3c3f 00       		.byte	0
 10854 3c40 44       		.uleb128 0x44
 10855 3c41 C6000000 		.4byte	.LVL310
 10856 3c45 353F0000 		.4byte	0x3f35
 10857 3c49 5A3C0000 		.4byte	0x3c5a
 10858 3c4d 45       		.uleb128 0x45
 10859 3c4e 01       		.uleb128 0x1
 10860 3c4f 50       		.byte	0x50
 10861 3c50 02       		.uleb128 0x2
 10862 3c51 74       		.byte	0x74
 10863 3c52 00       		.sleb128 0
 10864 3c53 45       		.uleb128 0x45
 10865 3c54 01       		.uleb128 0x1
 10866 3c55 51       		.byte	0x51
 10867 3c56 02       		.uleb128 0x2
 10868 3c57 71       		.byte	0x71
 10869 3c58 00       		.sleb128 0
 10870 3c59 00       		.byte	0
 10871 3c5a 44       		.uleb128 0x44
 10872 3c5b D0000000 		.4byte	.LVL311
 10873 3c5f 055C0000 		.4byte	0x5c05
 10874 3c63 773C0000 		.4byte	0x3c77
 10875 3c67 45       		.uleb128 0x45
 10876 3c68 01       		.uleb128 0x1
 10877 3c69 50       		.byte	0x50
 10878 3c6a 02       		.uleb128 0x2
 10879 3c6b 74       		.byte	0x74
 10880 3c6c 00       		.sleb128 0
 10881 3c6d 45       		.uleb128 0x45
 10882 3c6e 01       		.uleb128 0x1
 10883 3c6f 51       		.byte	0x51
 10884 3c70 05       		.uleb128 0x5
 10885 3c71 03       		.byte	0x3
 10886 3c72 78000000 		.4byte	.LC24
 10887 3c76 00       		.byte	0
 10888 3c77 44       		.uleb128 0x44
 10889 3c78 DA000000 		.4byte	.LVL312
 10890 3c7c 055C0000 		.4byte	0x5c05
 10891 3c80 943C0000 		.4byte	0x3c94
 10892 3c84 45       		.uleb128 0x45
 10893 3c85 01       		.uleb128 0x1
 10894 3c86 50       		.byte	0x50
 10895 3c87 02       		.uleb128 0x2
 10896 3c88 74       		.byte	0x74
ARM GAS  /tmp/ccJYnsep.s 			page 194


 10897 3c89 00       		.sleb128 0
 10898 3c8a 45       		.uleb128 0x45
 10899 3c8b 01       		.uleb128 0x1
 10900 3c8c 51       		.byte	0x51
 10901 3c8d 05       		.uleb128 0x5
 10902 3c8e 03       		.byte	0x3
 10903 3c8f 88000000 		.4byte	.LC25
 10904 3c93 00       		.byte	0
 10905 3c94 44       		.uleb128 0x44
 10906 3c95 E2000000 		.4byte	.LVL313
 10907 3c99 055C0000 		.4byte	0x5c05
 10908 3c9d B13C0000 		.4byte	0x3cb1
 10909 3ca1 45       		.uleb128 0x45
 10910 3ca2 01       		.uleb128 0x1
 10911 3ca3 50       		.byte	0x50
 10912 3ca4 02       		.uleb128 0x2
 10913 3ca5 74       		.byte	0x74
 10914 3ca6 00       		.sleb128 0
 10915 3ca7 45       		.uleb128 0x45
 10916 3ca8 01       		.uleb128 0x1
 10917 3ca9 51       		.byte	0x51
 10918 3caa 05       		.uleb128 0x5
 10919 3cab 03       		.byte	0x3
 10920 3cac 74000000 		.4byte	.LC23
 10921 3cb0 00       		.byte	0
 10922 3cb1 44       		.uleb128 0x44
 10923 3cb2 1A010000 		.4byte	.LVL318
 10924 3cb6 FA5B0000 		.4byte	0x5bfa
 10925 3cba CE3C0000 		.4byte	0x3cce
 10926 3cbe 45       		.uleb128 0x45
 10927 3cbf 01       		.uleb128 0x1
 10928 3cc0 50       		.byte	0x50
 10929 3cc1 02       		.uleb128 0x2
 10930 3cc2 7B       		.byte	0x7b
 10931 3cc3 00       		.sleb128 0
 10932 3cc4 45       		.uleb128 0x45
 10933 3cc5 01       		.uleb128 0x1
 10934 3cc6 51       		.byte	0x51
 10935 3cc7 05       		.uleb128 0x5
 10936 3cc8 03       		.byte	0x3
 10937 3cc9 00000000 		.4byte	.LC16
 10938 3ccd 00       		.byte	0
 10939 3cce 44       		.uleb128 0x44
 10940 3ccf 26010000 		.4byte	.LVL319
 10941 3cd3 FA5B0000 		.4byte	0x5bfa
 10942 3cd7 EB3C0000 		.4byte	0x3ceb
 10943 3cdb 45       		.uleb128 0x45
 10944 3cdc 01       		.uleb128 0x1
 10945 3cdd 50       		.byte	0x50
 10946 3cde 02       		.uleb128 0x2
 10947 3cdf 7B       		.byte	0x7b
 10948 3ce0 00       		.sleb128 0
 10949 3ce1 45       		.uleb128 0x45
 10950 3ce2 01       		.uleb128 0x1
 10951 3ce3 51       		.byte	0x51
 10952 3ce4 05       		.uleb128 0x5
 10953 3ce5 03       		.byte	0x3
ARM GAS  /tmp/ccJYnsep.s 			page 195


 10954 3ce6 08000000 		.4byte	.LC17
 10955 3cea 00       		.byte	0
 10956 3ceb 47       		.uleb128 0x47
 10957 3cec 36010000 		.4byte	.LVL320
 10958 3cf0 1B5C0000 		.4byte	0x5c1b
 10959 3cf4 44       		.uleb128 0x44
 10960 3cf5 46010000 		.4byte	.LVL323
 10961 3cf9 353F0000 		.4byte	0x3f35
 10962 3cfd 0E3D0000 		.4byte	0x3d0e
 10963 3d01 45       		.uleb128 0x45
 10964 3d02 01       		.uleb128 0x1
 10965 3d03 50       		.byte	0x50
 10966 3d04 02       		.uleb128 0x2
 10967 3d05 74       		.byte	0x74
 10968 3d06 00       		.sleb128 0
 10969 3d07 45       		.uleb128 0x45
 10970 3d08 01       		.uleb128 0x1
 10971 3d09 51       		.byte	0x51
 10972 3d0a 02       		.uleb128 0x2
 10973 3d0b 71       		.byte	0x71
 10974 3d0c 00       		.sleb128 0
 10975 3d0d 00       		.byte	0
 10976 3d0e 44       		.uleb128 0x44
 10977 3d0f 52010000 		.4byte	.LVL324
 10978 3d13 FB3E0000 		.4byte	0x3efb
 10979 3d17 283D0000 		.4byte	0x3d28
 10980 3d1b 45       		.uleb128 0x45
 10981 3d1c 01       		.uleb128 0x1
 10982 3d1d 50       		.byte	0x50
 10983 3d1e 02       		.uleb128 0x2
 10984 3d1f 74       		.byte	0x74
 10985 3d20 00       		.sleb128 0
 10986 3d21 45       		.uleb128 0x45
 10987 3d22 01       		.uleb128 0x1
 10988 3d23 52       		.byte	0x52
 10989 3d24 02       		.uleb128 0x2
 10990 3d25 78       		.byte	0x78
 10991 3d26 00       		.sleb128 0
 10992 3d27 00       		.byte	0
 10993 3d28 44       		.uleb128 0x44
 10994 3d29 68010000 		.4byte	.LVL327
 10995 3d2d 105C0000 		.4byte	0x5c10
 10996 3d31 423D0000 		.4byte	0x3d42
 10997 3d35 45       		.uleb128 0x45
 10998 3d36 01       		.uleb128 0x1
 10999 3d37 50       		.byte	0x50
 11000 3d38 02       		.uleb128 0x2
 11001 3d39 74       		.byte	0x74
 11002 3d3a 00       		.sleb128 0
 11003 3d3b 45       		.uleb128 0x45
 11004 3d3c 01       		.uleb128 0x1
 11005 3d3d 51       		.byte	0x51
 11006 3d3e 02       		.uleb128 0x2
 11007 3d3f 75       		.byte	0x75
 11008 3d40 28       		.sleb128 40
 11009 3d41 00       		.byte	0
 11010 3d42 44       		.uleb128 0x44
ARM GAS  /tmp/ccJYnsep.s 			page 196


 11011 3d43 76010000 		.4byte	.LVL328
 11012 3d47 105C0000 		.4byte	0x5c10
 11013 3d4b 5C3D0000 		.4byte	0x3d5c
 11014 3d4f 45       		.uleb128 0x45
 11015 3d50 01       		.uleb128 0x1
 11016 3d51 50       		.byte	0x50
 11017 3d52 02       		.uleb128 0x2
 11018 3d53 74       		.byte	0x74
 11019 3d54 00       		.sleb128 0
 11020 3d55 45       		.uleb128 0x45
 11021 3d56 01       		.uleb128 0x1
 11022 3d57 51       		.byte	0x51
 11023 3d58 02       		.uleb128 0x2
 11024 3d59 75       		.byte	0x75
 11025 3d5a 20       		.sleb128 32
 11026 3d5b 00       		.byte	0
 11027 3d5c 44       		.uleb128 0x44
 11028 3d5d 86010000 		.4byte	.LVL329
 11029 3d61 353F0000 		.4byte	0x3f35
 11030 3d65 763D0000 		.4byte	0x3d76
 11031 3d69 45       		.uleb128 0x45
 11032 3d6a 01       		.uleb128 0x1
 11033 3d6b 50       		.byte	0x50
 11034 3d6c 02       		.uleb128 0x2
 11035 3d6d 74       		.byte	0x74
 11036 3d6e 00       		.sleb128 0
 11037 3d6f 45       		.uleb128 0x45
 11038 3d70 01       		.uleb128 0x1
 11039 3d71 51       		.byte	0x51
 11040 3d72 02       		.uleb128 0x2
 11041 3d73 71       		.byte	0x71
 11042 3d74 00       		.sleb128 0
 11043 3d75 00       		.byte	0
 11044 3d76 44       		.uleb128 0x44
 11045 3d77 90010000 		.4byte	.LVL330
 11046 3d7b 055C0000 		.4byte	0x5c05
 11047 3d7f 933D0000 		.4byte	0x3d93
 11048 3d83 45       		.uleb128 0x45
 11049 3d84 01       		.uleb128 0x1
 11050 3d85 50       		.byte	0x50
 11051 3d86 02       		.uleb128 0x2
 11052 3d87 74       		.byte	0x74
 11053 3d88 00       		.sleb128 0
 11054 3d89 45       		.uleb128 0x45
 11055 3d8a 01       		.uleb128 0x1
 11056 3d8b 51       		.byte	0x51
 11057 3d8c 05       		.uleb128 0x5
 11058 3d8d 03       		.byte	0x3
 11059 3d8e 78000000 		.4byte	.LC24
 11060 3d92 00       		.byte	0
 11061 3d93 44       		.uleb128 0x44
 11062 3d94 9A010000 		.4byte	.LVL331
 11063 3d98 055C0000 		.4byte	0x5c05
 11064 3d9c B03D0000 		.4byte	0x3db0
 11065 3da0 45       		.uleb128 0x45
 11066 3da1 01       		.uleb128 0x1
 11067 3da2 50       		.byte	0x50
ARM GAS  /tmp/ccJYnsep.s 			page 197


 11068 3da3 02       		.uleb128 0x2
 11069 3da4 74       		.byte	0x74
 11070 3da5 00       		.sleb128 0
 11071 3da6 45       		.uleb128 0x45
 11072 3da7 01       		.uleb128 0x1
 11073 3da8 51       		.byte	0x51
 11074 3da9 05       		.uleb128 0x5
 11075 3daa 03       		.byte	0x3
 11076 3dab 88000000 		.4byte	.LC25
 11077 3daf 00       		.byte	0
 11078 3db0 44       		.uleb128 0x44
 11079 3db1 A4010000 		.4byte	.LVL332
 11080 3db5 055C0000 		.4byte	0x5c05
 11081 3db9 CD3D0000 		.4byte	0x3dcd
 11082 3dbd 45       		.uleb128 0x45
 11083 3dbe 01       		.uleb128 0x1
 11084 3dbf 50       		.byte	0x50
 11085 3dc0 02       		.uleb128 0x2
 11086 3dc1 74       		.byte	0x74
 11087 3dc2 00       		.sleb128 0
 11088 3dc3 45       		.uleb128 0x45
 11089 3dc4 01       		.uleb128 0x1
 11090 3dc5 51       		.byte	0x51
 11091 3dc6 05       		.uleb128 0x5
 11092 3dc7 03       		.byte	0x3
 11093 3dc8 9C000000 		.4byte	.LC26
 11094 3dcc 00       		.byte	0
 11095 3dcd 44       		.uleb128 0x44
 11096 3dce AE010000 		.4byte	.LVL333
 11097 3dd2 353F0000 		.4byte	0x3f35
 11098 3dd6 E73D0000 		.4byte	0x3de7
 11099 3dda 45       		.uleb128 0x45
 11100 3ddb 01       		.uleb128 0x1
 11101 3ddc 50       		.byte	0x50
 11102 3ddd 02       		.uleb128 0x2
 11103 3dde 74       		.byte	0x74
 11104 3ddf 00       		.sleb128 0
 11105 3de0 45       		.uleb128 0x45
 11106 3de1 01       		.uleb128 0x1
 11107 3de2 51       		.byte	0x51
 11108 3de3 02       		.uleb128 0x2
 11109 3de4 71       		.byte	0x71
 11110 3de5 00       		.sleb128 0
 11111 3de6 00       		.byte	0
 11112 3de7 44       		.uleb128 0x44
 11113 3de8 B8010000 		.4byte	.LVL334
 11114 3dec 055C0000 		.4byte	0x5c05
 11115 3df0 043E0000 		.4byte	0x3e04
 11116 3df4 45       		.uleb128 0x45
 11117 3df5 01       		.uleb128 0x1
 11118 3df6 50       		.byte	0x50
 11119 3df7 02       		.uleb128 0x2
 11120 3df8 74       		.byte	0x74
 11121 3df9 00       		.sleb128 0
 11122 3dfa 45       		.uleb128 0x45
 11123 3dfb 01       		.uleb128 0x1
 11124 3dfc 51       		.byte	0x51
ARM GAS  /tmp/ccJYnsep.s 			page 198


 11125 3dfd 05       		.uleb128 0x5
 11126 3dfe 03       		.byte	0x3
 11127 3dff 78000000 		.4byte	.LC24
 11128 3e03 00       		.byte	0
 11129 3e04 44       		.uleb128 0x44
 11130 3e05 C2010000 		.4byte	.LVL336
 11131 3e09 055C0000 		.4byte	0x5c05
 11132 3e0d 213E0000 		.4byte	0x3e21
 11133 3e11 45       		.uleb128 0x45
 11134 3e12 01       		.uleb128 0x1
 11135 3e13 50       		.byte	0x50
 11136 3e14 02       		.uleb128 0x2
 11137 3e15 74       		.byte	0x74
 11138 3e16 00       		.sleb128 0
 11139 3e17 45       		.uleb128 0x45
 11140 3e18 01       		.uleb128 0x1
 11141 3e19 51       		.byte	0x51
 11142 3e1a 05       		.uleb128 0x5
 11143 3e1b 03       		.byte	0x3
 11144 3e1c 5C000000 		.4byte	.LC21
 11145 3e20 00       		.byte	0
 11146 3e21 44       		.uleb128 0x44
 11147 3e22 D0010000 		.4byte	.LVL337
 11148 3e26 055C0000 		.4byte	0x5c05
 11149 3e2a 3E3E0000 		.4byte	0x3e3e
 11150 3e2e 45       		.uleb128 0x45
 11151 3e2f 01       		.uleb128 0x1
 11152 3e30 50       		.byte	0x50
 11153 3e31 02       		.uleb128 0x2
 11154 3e32 74       		.byte	0x74
 11155 3e33 00       		.sleb128 0
 11156 3e34 45       		.uleb128 0x45
 11157 3e35 01       		.uleb128 0x1
 11158 3e36 51       		.byte	0x51
 11159 3e37 05       		.uleb128 0x5
 11160 3e38 03       		.byte	0x3
 11161 3e39 68000000 		.4byte	.LC22
 11162 3e3d 00       		.byte	0
 11163 3e3e 44       		.uleb128 0x44
 11164 3e3f DA010000 		.4byte	.LVL339
 11165 3e43 105C0000 		.4byte	0x5c10
 11166 3e47 5B3E0000 		.4byte	0x3e5b
 11167 3e4b 45       		.uleb128 0x45
 11168 3e4c 01       		.uleb128 0x1
 11169 3e4d 50       		.byte	0x50
 11170 3e4e 02       		.uleb128 0x2
 11171 3e4f 74       		.byte	0x74
 11172 3e50 00       		.sleb128 0
 11173 3e51 45       		.uleb128 0x45
 11174 3e52 01       		.uleb128 0x1
 11175 3e53 51       		.byte	0x51
 11176 3e54 05       		.uleb128 0x5
 11177 3e55 0C       		.byte	0xc
 11178 3e56 08C0FE1F 		.4byte	0x1ffec008
 11179 3e5a 00       		.byte	0
 11180 3e5b 44       		.uleb128 0x44
 11181 3e5c E8010000 		.4byte	.LVL341
ARM GAS  /tmp/ccJYnsep.s 			page 199


 11182 3e60 055C0000 		.4byte	0x5c05
 11183 3e64 783E0000 		.4byte	0x3e78
 11184 3e68 45       		.uleb128 0x45
 11185 3e69 01       		.uleb128 0x1
 11186 3e6a 50       		.byte	0x50
 11187 3e6b 02       		.uleb128 0x2
 11188 3e6c 74       		.byte	0x74
 11189 3e6d 00       		.sleb128 0
 11190 3e6e 45       		.uleb128 0x45
 11191 3e6f 01       		.uleb128 0x1
 11192 3e70 51       		.byte	0x51
 11193 3e71 05       		.uleb128 0x5
 11194 3e72 03       		.byte	0x3
 11195 3e73 10000000 		.4byte	.LC18
 11196 3e77 00       		.byte	0
 11197 3e78 44       		.uleb128 0x44
 11198 3e79 2C020000 		.4byte	.LVL345
 11199 3e7d 1B5C0000 		.4byte	0x5c1b
 11200 3e81 923E0000 		.4byte	0x3e92
 11201 3e85 45       		.uleb128 0x45
 11202 3e86 01       		.uleb128 0x1
 11203 3e87 51       		.byte	0x51
 11204 3e88 02       		.uleb128 0x2
 11205 3e89 76       		.byte	0x76
 11206 3e8a 00       		.sleb128 0
 11207 3e8b 45       		.uleb128 0x45
 11208 3e8c 01       		.uleb128 0x1
 11209 3e8d 52       		.byte	0x52
 11210 3e8e 02       		.uleb128 0x2
 11211 3e8f 76       		.byte	0x76
 11212 3e90 00       		.sleb128 0
 11213 3e91 00       		.byte	0
 11214 3e92 44       		.uleb128 0x44
 11215 3e93 3A020000 		.4byte	.LVL347
 11216 3e97 1B5C0000 		.4byte	0x5c1b
 11217 3e9b AC3E0000 		.4byte	0x3eac
 11218 3e9f 45       		.uleb128 0x45
 11219 3ea0 01       		.uleb128 0x1
 11220 3ea1 51       		.byte	0x51
 11221 3ea2 02       		.uleb128 0x2
 11222 3ea3 76       		.byte	0x76
 11223 3ea4 00       		.sleb128 0
 11224 3ea5 45       		.uleb128 0x45
 11225 3ea6 01       		.uleb128 0x1
 11226 3ea7 52       		.byte	0x52
 11227 3ea8 02       		.uleb128 0x2
 11228 3ea9 76       		.byte	0x76
 11229 3eaa 00       		.sleb128 0
 11230 3eab 00       		.byte	0
 11231 3eac 46       		.uleb128 0x46
 11232 3ead 4E020000 		.4byte	.LVL349
 11233 3eb1 1B5C0000 		.4byte	0x5c1b
 11234 3eb5 45       		.uleb128 0x45
 11235 3eb6 01       		.uleb128 0x1
 11236 3eb7 51       		.byte	0x51
 11237 3eb8 02       		.uleb128 0x2
 11238 3eb9 76       		.byte	0x76
ARM GAS  /tmp/ccJYnsep.s 			page 200


 11239 3eba 00       		.sleb128 0
 11240 3ebb 45       		.uleb128 0x45
 11241 3ebc 01       		.uleb128 0x1
 11242 3ebd 52       		.byte	0x52
 11243 3ebe 02       		.uleb128 0x2
 11244 3ebf 76       		.byte	0x76
 11245 3ec0 00       		.sleb128 0
 11246 3ec1 00       		.byte	0
 11247 3ec2 00       		.byte	0
 11248 3ec3 0C       		.uleb128 0xc
 11249 3ec4 CD000000 		.4byte	0xcd
 11250 3ec8 D33E0000 		.4byte	0x3ed3
 11251 3ecc 0D       		.uleb128 0xd
 11252 3ecd 9B000000 		.4byte	0x9b
 11253 3ed1 02       		.byte	0x2
 11254 3ed2 00       		.byte	0
 11255 3ed3 34       		.uleb128 0x34
 11256 3ed4 450B0000 		.4byte	.LASF812
 11257 3ed8 01       		.byte	0x1
 11258 3ed9 5102     		.2byte	0x251
 11259 3edb 26170000 		.4byte	0x1726
 11260 3edf 01       		.byte	0x1
 11261 3ee0 FB3E0000 		.4byte	0x3efb
 11262 3ee4 35       		.uleb128 0x35
 11263 3ee5 7400     		.ascii	"t\000"
 11264 3ee7 01       		.byte	0x1
 11265 3ee8 5102     		.2byte	0x251
 11266 3eea F2310000 		.4byte	0x31f2
 11267 3eee 3A       		.uleb128 0x3a
 11268 3eef 76616C00 		.ascii	"val\000"
 11269 3ef3 01       		.byte	0x1
 11270 3ef4 5302     		.2byte	0x253
 11271 3ef6 C33E0000 		.4byte	0x3ec3
 11272 3efa 00       		.byte	0
 11273 3efb 34       		.uleb128 0x34
 11274 3efc 130F0000 		.4byte	.LASF813
 11275 3f00 01       		.byte	0x1
 11276 3f01 3602     		.2byte	0x236
 11277 3f03 26170000 		.4byte	0x1726
 11278 3f07 01       		.byte	0x1
 11279 3f08 2F3F0000 		.4byte	0x3f2f
 11280 3f0c 35       		.uleb128 0x35
 11281 3f0d 7400     		.ascii	"t\000"
 11282 3f0f 01       		.byte	0x1
 11283 3f10 3602     		.2byte	0x236
 11284 3f12 F2310000 		.4byte	0x31f2
 11285 3f16 35       		.uleb128 0x35
 11286 3f17 76616C00 		.ascii	"val\000"
 11287 3f1b 01       		.byte	0x1
 11288 3f1c 3602     		.2byte	0x236
 11289 3f1e 2F3F0000 		.4byte	0x3f2f
 11290 3f22 36       		.uleb128 0x36
 11291 3f23 A0150000 		.4byte	.LASF809
 11292 3f27 01       		.byte	0x1
 11293 3f28 3602     		.2byte	0x236
 11294 3f2a 94000000 		.4byte	0x94
 11295 3f2e 00       		.byte	0
ARM GAS  /tmp/ccJYnsep.s 			page 201


 11296 3f2f 07       		.uleb128 0x7
 11297 3f30 04       		.byte	0x4
 11298 3f31 CD000000 		.4byte	0xcd
 11299 3f35 48       		.uleb128 0x48
 11300 3f36 6D060000 		.4byte	.LASF832
 11301 3f3a 01       		.byte	0x1
 11302 3f3b 0B02     		.2byte	0x20b
 11303 3f3d 26170000 		.4byte	0x1726
 11304 3f41 00000000 		.4byte	.LFB272
 11305 3f45 F4000000 		.4byte	.LFE272-.LFB272
 11306 3f49 01       		.uleb128 0x1
 11307 3f4a 9C       		.byte	0x9c
 11308 3f4b 6C3F0000 		.4byte	0x3f6c
 11309 3f4f 3C       		.uleb128 0x3c
 11310 3f50 7400     		.ascii	"t\000"
 11311 3f52 01       		.byte	0x1
 11312 3f53 0B02     		.2byte	0x20b
 11313 3f55 F2310000 		.4byte	0x31f2
 11314 3f59 C8020000 		.4byte	.LLST153
 11315 3f5d 49       		.uleb128 0x49
 11316 3f5e 76616C00 		.ascii	"val\000"
 11317 3f62 01       		.byte	0x1
 11318 3f63 0B02     		.2byte	0x20b
 11319 3f65 2F3F0000 		.4byte	0x3f2f
 11320 3f69 01       		.uleb128 0x1
 11321 3f6a 51       		.byte	0x51
 11322 3f6b 00       		.byte	0
 11323 3f6c 34       		.uleb128 0x34
 11324 3f6d ED1E0000 		.4byte	.LASF814
 11325 3f71 01       		.byte	0x1
 11326 3f72 C801     		.2byte	0x1c8
 11327 3f74 26170000 		.4byte	0x1726
 11328 3f78 01       		.byte	0x1
 11329 3f79 B33F0000 		.4byte	0x3fb3
 11330 3f7d 35       		.uleb128 0x35
 11331 3f7e 7400     		.ascii	"t\000"
 11332 3f80 01       		.byte	0x1
 11333 3f81 C801     		.2byte	0x1c8
 11334 3f83 F2310000 		.4byte	0x31f2
 11335 3f87 3A       		.uleb128 0x3a
 11336 3f88 6600     		.ascii	"f\000"
 11337 3f8a 01       		.byte	0x1
 11338 3f8b CC01     		.2byte	0x1cc
 11339 3f8d BA330000 		.4byte	0x33ba
 11340 3f91 3A       		.uleb128 0x3a
 11341 3f92 736600   		.ascii	"sf\000"
 11342 3f95 01       		.byte	0x1
 11343 3f96 CD01     		.2byte	0x1cd
 11344 3f98 B33F0000 		.4byte	0x3fb3
 11345 3f9c 3A       		.uleb128 0x3a
 11346 3f9d 637200   		.ascii	"cr\000"
 11347 3fa0 01       		.byte	0x1
 11348 3fa1 D401     		.2byte	0x1d4
 11349 3fa3 CD000000 		.4byte	0xcd
 11350 3fa7 3A       		.uleb128 0x3a
 11351 3fa8 737200   		.ascii	"sr\000"
 11352 3fab 01       		.byte	0x1
ARM GAS  /tmp/ccJYnsep.s 			page 202


 11353 3fac E701     		.2byte	0x1e7
 11354 3fae CD000000 		.4byte	0xcd
 11355 3fb2 00       		.byte	0
 11356 3fb3 07       		.uleb128 0x7
 11357 3fb4 04       		.byte	0x4
 11358 3fb5 29390000 		.4byte	0x3929
 11359 3fb9 3B       		.uleb128 0x3b
 11360 3fba 18180000 		.4byte	.LASF816
 11361 3fbe 01       		.byte	0x1
 11362 3fbf A901     		.2byte	0x1a9
 11363 3fc1 94000000 		.4byte	0x94
 11364 3fc5 00000000 		.4byte	.LFB270
 11365 3fc9 94000000 		.4byte	.LFE270-.LFB270
 11366 3fcd 01       		.uleb128 0x1
 11367 3fce 9C       		.byte	0x9c
 11368 3fcf 00410000 		.4byte	0x4100
 11369 3fd3 3C       		.uleb128 0x3c
 11370 3fd4 6600     		.ascii	"f\000"
 11371 3fd6 01       		.byte	0x1
 11372 3fd7 A901     		.2byte	0x1a9
 11373 3fd9 BA330000 		.4byte	0x33ba
 11374 3fdd B1030000 		.4byte	.LLST0
 11375 3fe1 3D       		.uleb128 0x3d
 11376 3fe2 84050000 		.4byte	.LASF817
 11377 3fe6 01       		.byte	0x1
 11378 3fe7 AA01     		.2byte	0x1aa
 11379 3fe9 B82F0000 		.4byte	0x2fb8
 11380 3fed D2030000 		.4byte	.LLST1
 11381 3ff1 3C       		.uleb128 0x3c
 11382 3ff2 73726300 		.ascii	"src\000"
 11383 3ff6 01       		.byte	0x1
 11384 3ff7 AA01     		.2byte	0x1aa
 11385 3ff9 2A090000 		.4byte	0x92a
 11386 3ffd 1C040000 		.4byte	.LLST2
 11387 4001 3C       		.uleb128 0x3c
 11388 4002 6C656E00 		.ascii	"len\000"
 11389 4006 01       		.byte	0x1
 11390 4007 AA01     		.2byte	0x1aa
 11391 4009 E8000000 		.4byte	0xe8
 11392 400d 3A040000 		.4byte	.LLST3
 11393 4011 3F       		.uleb128 0x3f
 11394 4012 7400     		.ascii	"t\000"
 11395 4014 01       		.byte	0x1
 11396 4015 B001     		.2byte	0x1b0
 11397 4017 F2310000 		.4byte	0x31f2
 11398 401b 01       		.uleb128 0x1
 11399 401c 54       		.byte	0x54
 11400 401d 4A       		.uleb128 0x4a
 11401 401e 737200   		.ascii	"sr\000"
 11402 4021 01       		.byte	0x1
 11403 4022 B101     		.2byte	0x1b1
 11404 4024 CD000000 		.4byte	0xcd
 11405 4028 58040000 		.4byte	.LLST4
 11406 402c 4B       		.uleb128 0x4b
 11407 402d 6B160000 		.4byte	.LASF789
 11408 4031 01       		.byte	0x1
 11409 4032 B201     		.2byte	0x1b2
ARM GAS  /tmp/ccJYnsep.s 			page 203


 11410 4034 4B370000 		.4byte	0x374b
 11411 4038 01       		.uleb128 0x1
 11412 4039 57       		.byte	0x57
 11413 403a 44       		.uleb128 0x44
 11414 403b 32000000 		.4byte	.LVL5
 11415 403f 265C0000 		.4byte	0x5c26
 11416 4043 61400000 		.4byte	0x4061
 11417 4047 45       		.uleb128 0x45
 11418 4048 01       		.uleb128 0x1
 11419 4049 50       		.byte	0x50
 11420 404a 02       		.uleb128 0x2
 11421 404b 74       		.byte	0x74
 11422 404c 00       		.sleb128 0
 11423 404d 45       		.uleb128 0x45
 11424 404e 01       		.uleb128 0x1
 11425 404f 51       		.byte	0x51
 11426 4050 05       		.uleb128 0x5
 11427 4051 0C       		.byte	0xc
 11428 4052 103C0240 		.4byte	0x40023c10
 11429 4056 45       		.uleb128 0x45
 11430 4057 01       		.uleb128 0x1
 11431 4058 52       		.byte	0x52
 11432 4059 06       		.uleb128 0x6
 11433 405a 77       		.byte	0x77
 11434 405b 00       		.sleb128 0
 11435 405c 38       		.byte	0x38
 11436 405d 24       		.byte	0x24
 11437 405e 31       		.byte	0x31
 11438 405f 21       		.byte	0x21
 11439 4060 00       		.byte	0
 11440 4061 44       		.uleb128 0x44
 11441 4062 40000000 		.4byte	.LVL6
 11442 4066 315C0000 		.4byte	0x5c31
 11443 406a 8E400000 		.4byte	0x408e
 11444 406e 45       		.uleb128 0x45
 11445 406f 01       		.uleb128 0x1
 11446 4070 50       		.byte	0x50
 11447 4071 02       		.uleb128 0x2
 11448 4072 74       		.byte	0x74
 11449 4073 00       		.sleb128 0
 11450 4074 45       		.uleb128 0x45
 11451 4075 01       		.uleb128 0x1
 11452 4076 51       		.byte	0x51
 11453 4077 02       		.uleb128 0x2
 11454 4078 75       		.byte	0x75
 11455 4079 00       		.sleb128 0
 11456 407a 45       		.uleb128 0x45
 11457 407b 01       		.uleb128 0x1
 11458 407c 52       		.byte	0x52
 11459 407d 02       		.uleb128 0x2
 11460 407e 78       		.byte	0x78
 11461 407f 00       		.sleb128 0
 11462 4080 45       		.uleb128 0x45
 11463 4081 01       		.uleb128 0x1
 11464 4082 53       		.byte	0x53
 11465 4083 02       		.uleb128 0x2
 11466 4084 79       		.byte	0x79
ARM GAS  /tmp/ccJYnsep.s 			page 204


 11467 4085 00       		.sleb128 0
 11468 4086 45       		.uleb128 0x45
 11469 4087 02       		.uleb128 0x2
 11470 4088 7D       		.byte	0x7d
 11471 4089 00       		.sleb128 0
 11472 408a 02       		.uleb128 0x2
 11473 408b 77       		.byte	0x77
 11474 408c 00       		.sleb128 0
 11475 408d 00       		.byte	0
 11476 408e 44       		.uleb128 0x44
 11477 408f 48000000 		.4byte	.LVL8
 11478 4093 3C5C0000 		.4byte	0x5c3c
 11479 4097 A1400000 		.4byte	0x40a1
 11480 409b 45       		.uleb128 0x45
 11481 409c 01       		.uleb128 0x1
 11482 409d 50       		.byte	0x50
 11483 409e 01       		.uleb128 0x1
 11484 409f 31       		.byte	0x31
 11485 40a0 00       		.byte	0
 11486 40a1 44       		.uleb128 0x44
 11487 40a2 54000000 		.4byte	.LVL10
 11488 40a6 105C0000 		.4byte	0x5c10
 11489 40aa BB400000 		.4byte	0x40bb
 11490 40ae 45       		.uleb128 0x45
 11491 40af 01       		.uleb128 0x1
 11492 40b0 50       		.byte	0x50
 11493 40b1 02       		.uleb128 0x2
 11494 40b2 74       		.byte	0x74
 11495 40b3 00       		.sleb128 0
 11496 40b4 45       		.uleb128 0x45
 11497 40b5 01       		.uleb128 0x1
 11498 40b6 51       		.byte	0x51
 11499 40b7 02       		.uleb128 0x2
 11500 40b8 76       		.byte	0x76
 11501 40b9 00       		.sleb128 0
 11502 40ba 00       		.byte	0
 11503 40bb 44       		.uleb128 0x44
 11504 40bc 5C000000 		.4byte	.LVL13
 11505 40c0 475C0000 		.4byte	0x5c47
 11506 40c4 CF400000 		.4byte	0x40cf
 11507 40c8 45       		.uleb128 0x45
 11508 40c9 01       		.uleb128 0x1
 11509 40ca 50       		.byte	0x50
 11510 40cb 02       		.uleb128 0x2
 11511 40cc 74       		.byte	0x74
 11512 40cd 00       		.sleb128 0
 11513 40ce 00       		.byte	0
 11514 40cf 44       		.uleb128 0x44
 11515 40d0 66000000 		.4byte	.LVL14
 11516 40d4 525C0000 		.4byte	0x5c52
 11517 40d8 E6400000 		.4byte	0x40e6
 11518 40dc 45       		.uleb128 0x45
 11519 40dd 01       		.uleb128 0x1
 11520 40de 50       		.byte	0x50
 11521 40df 05       		.uleb128 0x5
 11522 40e0 03       		.byte	0x3
 11523 40e1 00000000 		.4byte	.LC0
ARM GAS  /tmp/ccJYnsep.s 			page 205


 11524 40e5 00       		.byte	0
 11525 40e6 46       		.uleb128 0x46
 11526 40e7 7E000000 		.4byte	.LVL16
 11527 40eb 525C0000 		.4byte	0x5c52
 11528 40ef 45       		.uleb128 0x45
 11529 40f0 01       		.uleb128 0x1
 11530 40f1 50       		.byte	0x50
 11531 40f2 05       		.uleb128 0x5
 11532 40f3 03       		.byte	0x3
 11533 40f4 24000000 		.4byte	.LC1
 11534 40f8 45       		.uleb128 0x45
 11535 40f9 01       		.uleb128 0x1
 11536 40fa 51       		.byte	0x51
 11537 40fb 02       		.uleb128 0x2
 11538 40fc 75       		.byte	0x75
 11539 40fd 00       		.sleb128 0
 11540 40fe 00       		.byte	0
 11541 40ff 00       		.byte	0
 11542 4100 3B       		.uleb128 0x3b
 11543 4101 5F070000 		.4byte	.LASF818
 11544 4105 01       		.byte	0x1
 11545 4106 7A01     		.2byte	0x17a
 11546 4108 94000000 		.4byte	0x94
 11547 410c 00000000 		.4byte	.LFB269
 11548 4110 F4000000 		.4byte	.LFE269-.LFB269
 11549 4114 01       		.uleb128 0x1
 11550 4115 9C       		.byte	0x9c
 11551 4116 95420000 		.4byte	0x4295
 11552 411a 3C       		.uleb128 0x3c
 11553 411b 6600     		.ascii	"f\000"
 11554 411d 01       		.byte	0x1
 11555 411e 7A01     		.2byte	0x17a
 11556 4120 BA330000 		.4byte	0x33ba
 11557 4124 81040000 		.4byte	.LLST18
 11558 4128 3D       		.uleb128 0x3d
 11559 4129 310F0000 		.4byte	.LASF403
 11560 412d 01       		.byte	0x1
 11561 412e 7A01     		.2byte	0x17a
 11562 4130 B82F0000 		.4byte	0x2fb8
 11563 4134 9F040000 		.4byte	.LLST19
 11564 4138 3C       		.uleb128 0x3c
 11565 4139 6C656E00 		.ascii	"len\000"
 11566 413d 01       		.byte	0x1
 11567 413e 7B01     		.2byte	0x17b
 11568 4140 E8000000 		.4byte	0xe8
 11569 4144 C0040000 		.4byte	.LLST20
 11570 4148 4A       		.uleb128 0x4a
 11571 4149 7400     		.ascii	"t\000"
 11572 414b 01       		.byte	0x1
 11573 414c 7D01     		.2byte	0x17d
 11574 414e F2310000 		.4byte	0x31f2
 11575 4152 DE040000 		.4byte	.LLST21
 11576 4156 4A       		.uleb128 0x4a
 11577 4157 736600   		.ascii	"sf\000"
 11578 415a 01       		.byte	0x1
 11579 415b 7E01     		.2byte	0x17e
 11580 415d B33F0000 		.4byte	0x3fb3
ARM GAS  /tmp/ccJYnsep.s 			page 206


 11581 4161 1D050000 		.4byte	.LLST22
 11582 4165 4A       		.uleb128 0x4a
 11583 4166 737200   		.ascii	"sr\000"
 11584 4169 01       		.byte	0x1
 11585 416a 7F01     		.2byte	0x17f
 11586 416c CD000000 		.4byte	0xcd
 11587 4170 3B050000 		.4byte	.LLST23
 11588 4174 3E       		.uleb128 0x3e
 11589 4175 D91A0000 		.4byte	.LASF819
 11590 4179 01       		.byte	0x1
 11591 417a 8101     		.2byte	0x181
 11592 417c A2000000 		.4byte	0xa2
 11593 4180 4E050000 		.4byte	.LLST24
 11594 4184 3E       		.uleb128 0x3e
 11595 4185 6B160000 		.4byte	.LASF789
 11596 4189 01       		.byte	0x1
 11597 418a 8401     		.2byte	0x184
 11598 418c 4B370000 		.4byte	0x374b
 11599 4190 6C050000 		.4byte	.LLST25
 11600 4194 4C       		.uleb128 0x4c
 11601 4195 B0000000 		.4byte	.Ldebug_ranges0+0xb0
 11602 4199 AD410000 		.4byte	0x41ad
 11603 419d 4A       		.uleb128 0x4a
 11604 419e 663200   		.ascii	"f2\000"
 11605 41a1 01       		.byte	0x1
 11606 41a2 8501     		.2byte	0x185
 11607 41a4 BA330000 		.4byte	0x33ba
 11608 41a8 97050000 		.4byte	.LLST26
 11609 41ac 00       		.byte	0
 11610 41ad 4C       		.uleb128 0x4c
 11611 41ae D8000000 		.4byte	.Ldebug_ranges0+0xd8
 11612 41b2 53420000 		.4byte	0x4253
 11613 41b6 4A       		.uleb128 0x4a
 11614 41b7 637200   		.ascii	"cr\000"
 11615 41ba 01       		.byte	0x1
 11616 41bb 8B01     		.2byte	0x18b
 11617 41bd CD000000 		.4byte	0xcd
 11618 41c1 B5050000 		.4byte	.LLST27
 11619 41c5 44       		.uleb128 0x44
 11620 41c6 5C000000 		.4byte	.LVL67
 11621 41ca 265C0000 		.4byte	0x5c26
 11622 41ce E5410000 		.4byte	0x41e5
 11623 41d2 45       		.uleb128 0x45
 11624 41d3 01       		.uleb128 0x1
 11625 41d4 50       		.byte	0x50
 11626 41d5 02       		.uleb128 0x2
 11627 41d6 74       		.byte	0x74
 11628 41d7 00       		.sleb128 0
 11629 41d8 45       		.uleb128 0x45
 11630 41d9 01       		.uleb128 0x1
 11631 41da 51       		.byte	0x51
 11632 41db 02       		.uleb128 0x2
 11633 41dc 7A       		.byte	0x7a
 11634 41dd 00       		.sleb128 0
 11635 41de 45       		.uleb128 0x45
 11636 41df 01       		.uleb128 0x1
 11637 41e0 52       		.byte	0x52
ARM GAS  /tmp/ccJYnsep.s 			page 207


 11638 41e1 02       		.uleb128 0x2
 11639 41e2 79       		.byte	0x79
 11640 41e3 00       		.sleb128 0
 11641 41e4 00       		.byte	0
 11642 41e5 44       		.uleb128 0x44
 11643 41e6 68000000 		.4byte	.LVL68
 11644 41ea 265C0000 		.4byte	0x5c26
 11645 41ee 09420000 		.4byte	0x4209
 11646 41f2 45       		.uleb128 0x45
 11647 41f3 01       		.uleb128 0x1
 11648 41f4 50       		.byte	0x50
 11649 41f5 02       		.uleb128 0x2
 11650 41f6 74       		.byte	0x74
 11651 41f7 00       		.sleb128 0
 11652 41f8 45       		.uleb128 0x45
 11653 41f9 01       		.uleb128 0x1
 11654 41fa 51       		.byte	0x51
 11655 41fb 02       		.uleb128 0x2
 11656 41fc 7A       		.byte	0x7a
 11657 41fd 00       		.sleb128 0
 11658 41fe 45       		.uleb128 0x45
 11659 41ff 01       		.uleb128 0x1
 11660 4200 52       		.byte	0x52
 11661 4201 06       		.uleb128 0x6
 11662 4202 79       		.byte	0x79
 11663 4203 00       		.sleb128 0
 11664 4204 40       		.byte	0x40
 11665 4205 3C       		.byte	0x3c
 11666 4206 24       		.byte	0x24
 11667 4207 21       		.byte	0x21
 11668 4208 00       		.byte	0
 11669 4209 47       		.uleb128 0x47
 11670 420a 6E000000 		.4byte	.LVL70
 11671 420e 475C0000 		.4byte	0x5c47
 11672 4212 44       		.uleb128 0x44
 11673 4213 76000000 		.4byte	.LVL71
 11674 4217 3C5C0000 		.4byte	0x5c3c
 11675 421b 25420000 		.4byte	0x4225
 11676 421f 45       		.uleb128 0x45
 11677 4220 01       		.uleb128 0x1
 11678 4221 50       		.byte	0x50
 11679 4222 01       		.uleb128 0x1
 11680 4223 31       		.byte	0x31
 11681 4224 00       		.byte	0
 11682 4225 44       		.uleb128 0x44
 11683 4226 7E000000 		.4byte	.LVL72
 11684 422a 105C0000 		.4byte	0x5c10
 11685 422e 3F420000 		.4byte	0x423f
 11686 4232 45       		.uleb128 0x45
 11687 4233 01       		.uleb128 0x1
 11688 4234 50       		.byte	0x50
 11689 4235 02       		.uleb128 0x2
 11690 4236 74       		.byte	0x74
 11691 4237 00       		.sleb128 0
 11692 4238 45       		.uleb128 0x45
 11693 4239 01       		.uleb128 0x1
 11694 423a 51       		.byte	0x51
ARM GAS  /tmp/ccJYnsep.s 			page 208


 11695 423b 02       		.uleb128 0x2
 11696 423c 76       		.byte	0x76
 11697 423d 00       		.sleb128 0
 11698 423e 00       		.byte	0
 11699 423f 46       		.uleb128 0x46
 11700 4240 C8000000 		.4byte	.LVL82
 11701 4244 525C0000 		.4byte	0x5c52
 11702 4248 45       		.uleb128 0x45
 11703 4249 01       		.uleb128 0x1
 11704 424a 50       		.byte	0x50
 11705 424b 05       		.uleb128 0x5
 11706 424c 03       		.byte	0x3
 11707 424d 00000000 		.4byte	.LC8
 11708 4251 00       		.byte	0
 11709 4252 00       		.byte	0
 11710 4253 44       		.uleb128 0x44
 11711 4254 20000000 		.4byte	.LVL60
 11712 4258 95420000 		.4byte	0x4295
 11713 425c 67420000 		.4byte	0x4267
 11714 4260 45       		.uleb128 0x45
 11715 4261 01       		.uleb128 0x1
 11716 4262 50       		.byte	0x50
 11717 4263 02       		.uleb128 0x2
 11718 4264 74       		.byte	0x74
 11719 4265 00       		.sleb128 0
 11720 4266 00       		.byte	0
 11721 4267 44       		.uleb128 0x44
 11722 4268 AA000000 		.4byte	.LVL78
 11723 426c 105C0000 		.4byte	0x5c10
 11724 4270 81420000 		.4byte	0x4281
 11725 4274 45       		.uleb128 0x45
 11726 4275 01       		.uleb128 0x1
 11727 4276 50       		.byte	0x50
 11728 4277 02       		.uleb128 0x2
 11729 4278 74       		.byte	0x74
 11730 4279 00       		.sleb128 0
 11731 427a 45       		.uleb128 0x45
 11732 427b 01       		.uleb128 0x1
 11733 427c 51       		.byte	0x51
 11734 427d 02       		.uleb128 0x2
 11735 427e 76       		.byte	0x76
 11736 427f 00       		.sleb128 0
 11737 4280 00       		.byte	0
 11738 4281 46       		.uleb128 0x46
 11739 4282 BC000000 		.4byte	.LVL80
 11740 4286 525C0000 		.4byte	0x5c52
 11741 428a 45       		.uleb128 0x45
 11742 428b 01       		.uleb128 0x1
 11743 428c 50       		.byte	0x50
 11744 428d 05       		.uleb128 0x5
 11745 428e 03       		.byte	0x3
 11746 428f 24000000 		.4byte	.LC9
 11747 4293 00       		.byte	0
 11748 4294 00       		.byte	0
 11749 4295 4D       		.uleb128 0x4d
 11750 4296 1F030000 		.4byte	.LASF835
 11751 429a 01       		.byte	0x1
ARM GAS  /tmp/ccJYnsep.s 			page 209


 11752 429b 7101     		.2byte	0x171
 11753 429d 01       		.byte	0x1
 11754 429e AD420000 		.4byte	0x42ad
 11755 42a2 35       		.uleb128 0x35
 11756 42a3 7400     		.ascii	"t\000"
 11757 42a5 01       		.byte	0x1
 11758 42a6 7101     		.2byte	0x171
 11759 42a8 F2310000 		.4byte	0x31f2
 11760 42ac 00       		.byte	0
 11761 42ad 4E       		.uleb128 0x4e
 11762 42ae D00E0000 		.4byte	.LASF820
 11763 42b2 01       		.byte	0x1
 11764 42b3 EC       		.byte	0xec
 11765 42b4 26170000 		.4byte	0x1726
 11766 42b8 01       		.byte	0x1
 11767 42b9 8E430000 		.4byte	0x438e
 11768 42bd 4F       		.uleb128 0x4f
 11769 42be 7400     		.ascii	"t\000"
 11770 42c0 01       		.byte	0x1
 11771 42c1 EC       		.byte	0xec
 11772 42c2 F2310000 		.4byte	0x31f2
 11773 42c6 50       		.uleb128 0x50
 11774 42c7 53220000 		.4byte	.LASF821
 11775 42cb 01       		.byte	0x1
 11776 42cc EE       		.byte	0xee
 11777 42cd 26170000 		.4byte	0x1726
 11778 42d1 50       		.uleb128 0x50
 11779 42d2 91020000 		.4byte	.LASF822
 11780 42d6 01       		.byte	0x1
 11781 42d7 EF       		.byte	0xef
 11782 42d8 26170000 		.4byte	0x1726
 11783 42dc 50       		.uleb128 0x50
 11784 42dd A2020000 		.4byte	.LASF823
 11785 42e1 01       		.byte	0x1
 11786 42e2 F0       		.byte	0xf0
 11787 42e3 26170000 		.4byte	0x1726
 11788 42e7 50       		.uleb128 0x50
 11789 42e8 A10F0000 		.4byte	.LASF824
 11790 42ec 01       		.byte	0x1
 11791 42ed F1       		.byte	0xf1
 11792 42ee 26170000 		.4byte	0x1726
 11793 42f2 50       		.uleb128 0x50
 11794 42f3 F2050000 		.4byte	.LASF825
 11795 42f7 01       		.byte	0x1
 11796 42f8 F2       		.byte	0xf2
 11797 42f9 CD000000 		.4byte	0xcd
 11798 42fd 38       		.uleb128 0x38
 11799 42fe CD180000 		.4byte	.LASF826
 11800 4302 01       		.byte	0x1
 11801 4303 2301     		.2byte	0x123
 11802 4305 26170000 		.4byte	0x1726
 11803 4309 38       		.uleb128 0x38
 11804 430a D3130000 		.4byte	.LASF827
 11805 430e 01       		.byte	0x1
 11806 430f 2501     		.2byte	0x125
 11807 4311 CD000000 		.4byte	0xcd
 11808 4315 38       		.uleb128 0x38
ARM GAS  /tmp/ccJYnsep.s 			page 210


 11809 4316 0A150000 		.4byte	.LASF828
 11810 431a 01       		.byte	0x1
 11811 431b 3F01     		.2byte	0x13f
 11812 431d 94000000 		.4byte	0x94
 11813 4321 38       		.uleb128 0x38
 11814 4322 15000000 		.4byte	.LASF829
 11815 4326 01       		.byte	0x1
 11816 4327 4001     		.2byte	0x140
 11817 4329 CD000000 		.4byte	0xcd
 11818 432d 37       		.uleb128 0x37
 11819 432e 3F430000 		.4byte	0x433f
 11820 4332 38       		.uleb128 0x38
 11821 4333 7F140000 		.4byte	.LASF830
 11822 4337 01       		.byte	0x1
 11823 4338 2D01     		.2byte	0x12d
 11824 433a CD000000 		.4byte	0xcd
 11825 433e 00       		.byte	0
 11826 433f 37       		.uleb128 0x37
 11827 4340 51430000 		.4byte	0x4351
 11828 4344 38       		.uleb128 0x38
 11829 4345 7F140000 		.4byte	.LASF830
 11830 4349 01       		.byte	0x1
 11831 434a 3901     		.2byte	0x139
 11832 434c CD000000 		.4byte	0xcd
 11833 4350 00       		.byte	0
 11834 4351 37       		.uleb128 0x37
 11835 4352 63430000 		.4byte	0x4363
 11836 4356 38       		.uleb128 0x38
 11837 4357 A5200000 		.4byte	.LASF831
 11838 435b 01       		.byte	0x1
 11839 435c 4801     		.2byte	0x148
 11840 435e CD000000 		.4byte	0xcd
 11841 4362 00       		.byte	0
 11842 4363 39       		.uleb128 0x39
 11843 4364 38       		.uleb128 0x38
 11844 4365 A5200000 		.4byte	.LASF831
 11845 4369 01       		.byte	0x1
 11846 436a 5101     		.2byte	0x151
 11847 436c CD000000 		.4byte	0xcd
 11848 4370 39       		.uleb128 0x39
 11849 4371 3A       		.uleb128 0x3a
 11850 4372 626B3200 		.ascii	"bk2\000"
 11851 4376 01       		.byte	0x1
 11852 4377 6801     		.2byte	0x168
 11853 4379 CD000000 		.4byte	0xcd
 11854 437d 39       		.uleb128 0x39
 11855 437e 3A       		.uleb128 0x3a
 11856 437f 626B3100 		.ascii	"bk1\000"
 11857 4383 01       		.byte	0x1
 11858 4384 6301     		.2byte	0x163
 11859 4386 CD000000 		.4byte	0xcd
 11860 438a 00       		.byte	0
 11861 438b 00       		.byte	0
 11862 438c 00       		.byte	0
 11863 438d 00       		.byte	0
 11864 438e 51       		.uleb128 0x51
 11865 438f 1A060000 		.4byte	.LASF833
ARM GAS  /tmp/ccJYnsep.s 			page 211


 11866 4393 01       		.byte	0x1
 11867 4394 C1       		.byte	0xc1
 11868 4395 26170000 		.4byte	0x1726
 11869 4399 00000000 		.4byte	.LFB266
 11870 439d 00010000 		.4byte	.LFE266-.LFB266
 11871 43a1 01       		.uleb128 0x1
 11872 43a2 9C       		.byte	0x9c
 11873 43a3 54440000 		.4byte	0x4454
 11874 43a7 52       		.uleb128 0x52
 11875 43a8 7400     		.ascii	"t\000"
 11876 43aa 01       		.byte	0x1
 11877 43ab C1       		.byte	0xc1
 11878 43ac F2310000 		.4byte	0x31f2
 11879 43b0 D3050000 		.4byte	.LLST149
 11880 43b4 53       		.uleb128 0x53
 11881 43b5 617000   		.ascii	"ap\000"
 11882 43b8 01       		.byte	0x1
 11883 43b9 C3       		.byte	0xc3
 11884 43ba 54440000 		.4byte	0x4454
 11885 43be FF050000 		.4byte	.LLST150
 11886 43c2 54       		.uleb128 0x54
 11887 43c3 11160000 		.4byte	.LASF662
 11888 43c7 01       		.byte	0x1
 11889 43c8 C4       		.byte	0xc4
 11890 43c9 CD000000 		.4byte	0xcd
 11891 43cd 1D060000 		.4byte	.LLST151
 11892 43d1 55       		.uleb128 0x55
 11893 43d2 B0000000 		.4byte	.LBB283
 11894 43d6 2C000000 		.4byte	.LBE283-.LBB283
 11895 43da 08440000 		.4byte	0x4408
 11896 43de 54       		.uleb128 0x54
 11897 43df 9D220000 		.4byte	.LASF834
 11898 43e3 01       		.byte	0x1
 11899 43e4 CE       		.byte	0xce
 11900 43e5 CD000000 		.4byte	0xcd
 11901 43e9 46060000 		.4byte	.LLST152
 11902 43ed 46       		.uleb128 0x46
 11903 43ee B8000000 		.4byte	.LVL273
 11904 43f2 105C0000 		.4byte	0x5c10
 11905 43f6 45       		.uleb128 0x45
 11906 43f7 01       		.uleb128 0x1
 11907 43f8 50       		.byte	0x50
 11908 43f9 02       		.uleb128 0x2
 11909 43fa 75       		.byte	0x75
 11910 43fb 00       		.sleb128 0
 11911 43fc 45       		.uleb128 0x45
 11912 43fd 01       		.uleb128 0x1
 11913 43fe 51       		.byte	0x51
 11914 43ff 06       		.uleb128 0x6
 11915 4400 11       		.byte	0x11
 11916 4401 80DA8380 		.sleb128 -536810240
 11916      7E
 11917 4406 00       		.byte	0
 11918 4407 00       		.byte	0
 11919 4408 44       		.uleb128 0x44
 11920 4409 08000000 		.4byte	.LVL264
 11921 440d 5D5C0000 		.4byte	0x5c5d
ARM GAS  /tmp/ccJYnsep.s 			page 212


 11922 4411 1C440000 		.4byte	0x441c
 11923 4415 45       		.uleb128 0x45
 11924 4416 01       		.uleb128 0x1
 11925 4417 50       		.byte	0x50
 11926 4418 02       		.uleb128 0x2
 11927 4419 75       		.byte	0x75
 11928 441a 00       		.sleb128 0
 11929 441b 00       		.byte	0
 11930 441c 44       		.uleb128 0x44
 11931 441d 98000000 		.4byte	.LVL268
 11932 4421 685C0000 		.4byte	0x5c68
 11933 4425 39440000 		.4byte	0x4439
 11934 4429 45       		.uleb128 0x45
 11935 442a 01       		.uleb128 0x1
 11936 442b 50       		.byte	0x50
 11937 442c 02       		.uleb128 0x2
 11938 442d 75       		.byte	0x75
 11939 442e 00       		.sleb128 0
 11940 442f 45       		.uleb128 0x45
 11941 4430 01       		.uleb128 0x1
 11942 4431 51       		.byte	0x51
 11943 4432 05       		.uleb128 0x5
 11944 4433 03       		.byte	0x3
 11945 4434 00000000 		.4byte	.LANCHOR1
 11946 4438 00       		.byte	0
 11947 4439 46       		.uleb128 0x46
 11948 443a A4000000 		.4byte	.LVL271
 11949 443e 105C0000 		.4byte	0x5c10
 11950 4442 45       		.uleb128 0x45
 11951 4443 01       		.uleb128 0x1
 11952 4444 50       		.byte	0x50
 11953 4445 02       		.uleb128 0x2
 11954 4446 75       		.byte	0x75
 11955 4447 00       		.sleb128 0
 11956 4448 45       		.uleb128 0x45
 11957 4449 01       		.uleb128 0x1
 11958 444a 51       		.byte	0x51
 11959 444b 06       		.uleb128 0x6
 11960 444c 11       		.byte	0x11
 11961 444d 80C09080 		.sleb128 -536600576
 11961      7E
 11962 4452 00       		.byte	0
 11963 4453 00       		.byte	0
 11964 4454 07       		.uleb128 0x7
 11965 4455 04       		.byte	0x4
 11966 4456 ED380000 		.4byte	0x38ed
 11967 445a 56       		.uleb128 0x56
 11968 445b 2A040000 		.4byte	.LASF857
 11969 445f 01       		.byte	0x1
 11970 4460 BB       		.byte	0xbb
 11971 4461 00000000 		.4byte	.LFB265
 11972 4465 1C000000 		.4byte	.LFE265-.LFB265
 11973 4469 01       		.uleb128 0x1
 11974 446a 9C       		.byte	0x9c
 11975 446b AC440000 		.4byte	0x44ac
 11976 446f 52       		.uleb128 0x52
 11977 4470 7400     		.ascii	"t\000"
ARM GAS  /tmp/ccJYnsep.s 			page 213


 11978 4472 01       		.byte	0x1
 11979 4473 BB       		.byte	0xbb
 11980 4474 F2310000 		.4byte	0x31f2
 11981 4478 59060000 		.4byte	.LLST5
 11982 447c 44       		.uleb128 0x44
 11983 447d 0C000000 		.4byte	.LVL18
 11984 4481 265C0000 		.4byte	0x5c26
 11985 4485 9A440000 		.4byte	0x449a
 11986 4489 45       		.uleb128 0x45
 11987 448a 01       		.uleb128 0x1
 11988 448b 50       		.byte	0x50
 11989 448c 02       		.uleb128 0x2
 11990 448d 74       		.byte	0x74
 11991 448e 00       		.sleb128 0
 11992 448f 45       		.uleb128 0x45
 11993 4490 01       		.uleb128 0x1
 11994 4491 51       		.byte	0x51
 11995 4492 06       		.uleb128 0x6
 11996 4493 11       		.byte	0x11
 11997 4494 84C09080 		.sleb128 -536600572
 11997      7E
 11998 4499 00       		.byte	0
 11999 449a 57       		.uleb128 0x57
 12000 449b 16000000 		.4byte	.LVL20
 12001 449f 735C0000 		.4byte	0x5c73
 12002 44a3 45       		.uleb128 0x45
 12003 44a4 01       		.uleb128 0x1
 12004 44a5 50       		.byte	0x50
 12005 44a6 03       		.uleb128 0x3
 12006 44a7 F3       		.byte	0xf3
 12007 44a8 01       		.uleb128 0x1
 12008 44a9 50       		.byte	0x50
 12009 44aa 00       		.byte	0
 12010 44ab 00       		.byte	0
 12011 44ac 58       		.uleb128 0x58
 12012 44ad DF020000 		.4byte	.LASF858
 12013 44b1 01       		.byte	0x1
 12014 44b2 99       		.byte	0x99
 12015 44b3 A3010000 		.4byte	0x1a3
 12016 44b7 01       		.byte	0x1
 12017 44b8 C8440000 		.4byte	0x44c8
 12018 44bc 59       		.uleb128 0x59
 12019 44bd 11160000 		.4byte	.LASF662
 12020 44c1 01       		.byte	0x1
 12021 44c2 99       		.byte	0x99
 12022 44c3 CD000000 		.4byte	0xcd
 12023 44c7 00       		.byte	0
 12024 44c8 5A       		.uleb128 0x5a
 12025 44c9 8D110000 		.4byte	.LASF836
 12026 44cd 01       		.byte	0x1
 12027 44ce 85       		.byte	0x85
 12028 44cf 01       		.byte	0x1
 12029 44d0 28450000 		.4byte	0x4528
 12030 44d4 4F       		.uleb128 0x4f
 12031 44d5 7400     		.ascii	"t\000"
 12032 44d7 01       		.byte	0x1
 12033 44d8 85       		.byte	0x85
ARM GAS  /tmp/ccJYnsep.s 			page 214


 12034 44d9 F2310000 		.4byte	0x31f2
 12035 44dd 59       		.uleb128 0x59
 12036 44de 310F0000 		.4byte	.LASF403
 12037 44e2 01       		.byte	0x1
 12038 44e3 86       		.byte	0x86
 12039 44e4 CD000000 		.4byte	0xcd
 12040 44e8 59       		.uleb128 0x59
 12041 44e9 2B020000 		.4byte	.LASF734
 12042 44ed 01       		.byte	0x1
 12043 44ee 86       		.byte	0x86
 12044 44ef E8000000 		.4byte	0xe8
 12045 44f3 59       		.uleb128 0x59
 12046 44f4 42120000 		.4byte	.LASF737
 12047 44f8 01       		.byte	0x1
 12048 44f9 86       		.byte	0x86
 12049 44fa E8000000 		.4byte	0xe8
 12050 44fe 59       		.uleb128 0x59
 12051 44ff 9B130000 		.4byte	.LASF790
 12052 4503 01       		.byte	0x1
 12053 4504 87       		.byte	0x87
 12054 4505 9B000000 		.4byte	0x9b
 12055 4509 59       		.uleb128 0x59
 12056 450a 0A150000 		.4byte	.LASF828
 12057 450e 01       		.byte	0x1
 12058 450f 87       		.byte	0x87
 12059 4510 94000000 		.4byte	0x94
 12060 4514 5B       		.uleb128 0x5b
 12061 4515 736600   		.ascii	"sf\000"
 12062 4518 01       		.byte	0x1
 12063 4519 8A       		.byte	0x8a
 12064 451a B33F0000 		.4byte	0x3fb3
 12065 451e 5B       		.uleb128 0x5b
 12066 451f 6600     		.ascii	"f\000"
 12067 4521 01       		.byte	0x1
 12068 4522 8B       		.byte	0x8b
 12069 4523 BA330000 		.4byte	0x33ba
 12070 4527 00       		.byte	0
 12071 4528 5C       		.uleb128 0x5c
 12072 4529 D8390000 		.4byte	0x39d8
 12073 452d 00000000 		.4byte	.LFB276
 12074 4531 C0000000 		.4byte	.LFE276-.LFB276
 12075 4535 01       		.uleb128 0x1
 12076 4536 9C       		.byte	0x9c
 12077 4537 76460000 		.4byte	0x4676
 12078 453b 41       		.uleb128 0x41
 12079 453c E9390000 		.4byte	0x39e9
 12080 4540 90060000 		.4byte	.LLST6
 12081 4544 41       		.uleb128 0x41
 12082 4545 F3390000 		.4byte	0x39f3
 12083 4549 D2060000 		.4byte	.LLST7
 12084 454d 41       		.uleb128 0x41
 12085 454e FF390000 		.4byte	0x39ff
 12086 4552 0C070000 		.4byte	.LLST8
 12087 4556 5D       		.uleb128 0x5d
 12088 4557 D8390000 		.4byte	0x39d8
 12089 455b 00000000 		.4byte	.Ldebug_ranges0+0
 12090 455f 3A460000 		.4byte	0x463a
ARM GAS  /tmp/ccJYnsep.s 			page 215


 12091 4563 41       		.uleb128 0x41
 12092 4564 F3390000 		.4byte	0x39f3
 12093 4568 46070000 		.4byte	.LLST9
 12094 456c 41       		.uleb128 0x41
 12095 456d FF390000 		.4byte	0x39ff
 12096 4571 91070000 		.4byte	.LLST10
 12097 4575 41       		.uleb128 0x41
 12098 4576 E9390000 		.4byte	0x39e9
 12099 457a DC070000 		.4byte	.LLST11
 12100 457e 5E       		.uleb128 0x5e
 12101 457f 293A0000 		.4byte	0x3a29
 12102 4583 30000000 		.4byte	.Ldebug_ranges0+0x30
 12103 4587 5F       		.uleb128 0x5f
 12104 4588 2A3A0000 		.4byte	0x3a2a
 12105 458c 29080000 		.4byte	.LLST12
 12106 4590 60       		.uleb128 0x60
 12107 4591 363A0000 		.4byte	0x3a36
 12108 4595 14000000 		.4byte	.LBB104
 12109 4599 16000000 		.4byte	.LBE104-.LBB104
 12110 459d AB450000 		.4byte	0x45ab
 12111 45a1 5F       		.uleb128 0x5f
 12112 45a2 373A0000 		.4byte	0x3a37
 12113 45a6 3C080000 		.4byte	.LLST13
 12114 45aa 00       		.byte	0
 12115 45ab 44       		.uleb128 0x44
 12116 45ac 12000000 		.4byte	.LVL25
 12117 45b0 FA5B0000 		.4byte	0x5bfa
 12118 45b4 C8450000 		.4byte	0x45c8
 12119 45b8 45       		.uleb128 0x45
 12120 45b9 01       		.uleb128 0x1
 12121 45ba 50       		.byte	0x50
 12122 45bb 02       		.uleb128 0x2
 12123 45bc 75       		.byte	0x75
 12124 45bd 00       		.sleb128 0
 12125 45be 45       		.uleb128 0x45
 12126 45bf 01       		.uleb128 0x1
 12127 45c0 51       		.byte	0x51
 12128 45c1 05       		.uleb128 0x5
 12129 45c2 03       		.byte	0x3
 12130 45c3 08000000 		.4byte	.LC4
 12131 45c7 00       		.byte	0
 12132 45c8 44       		.uleb128 0x44
 12133 45c9 36000000 		.4byte	.LVL31
 12134 45cd FA5B0000 		.4byte	0x5bfa
 12135 45d1 E5450000 		.4byte	0x45e5
 12136 45d5 45       		.uleb128 0x45
 12137 45d6 01       		.uleb128 0x1
 12138 45d7 50       		.byte	0x50
 12139 45d8 02       		.uleb128 0x2
 12140 45d9 75       		.byte	0x75
 12141 45da 00       		.sleb128 0
 12142 45db 45       		.uleb128 0x45
 12143 45dc 01       		.uleb128 0x1
 12144 45dd 51       		.byte	0x51
 12145 45de 05       		.uleb128 0x5
 12146 45df 03       		.byte	0x3
 12147 45e0 0C000000 		.4byte	.LC5
ARM GAS  /tmp/ccJYnsep.s 			page 216


 12148 45e4 00       		.byte	0
 12149 45e5 44       		.uleb128 0x44
 12150 45e6 40000000 		.4byte	.LVL32
 12151 45ea FA5B0000 		.4byte	0x5bfa
 12152 45ee 02460000 		.4byte	0x4602
 12153 45f2 45       		.uleb128 0x45
 12154 45f3 01       		.uleb128 0x1
 12155 45f4 50       		.byte	0x50
 12156 45f5 02       		.uleb128 0x2
 12157 45f6 75       		.byte	0x75
 12158 45f7 00       		.sleb128 0
 12159 45f8 45       		.uleb128 0x45
 12160 45f9 01       		.uleb128 0x1
 12161 45fa 51       		.byte	0x51
 12162 45fb 05       		.uleb128 0x5
 12163 45fc 03       		.byte	0x3
 12164 45fd 00000000 		.4byte	.LC2
 12165 4601 00       		.byte	0
 12166 4602 44       		.uleb128 0x44
 12167 4603 4A000000 		.4byte	.LVL33
 12168 4607 FA5B0000 		.4byte	0x5bfa
 12169 460b 1F460000 		.4byte	0x461f
 12170 460f 45       		.uleb128 0x45
 12171 4610 01       		.uleb128 0x1
 12172 4611 50       		.byte	0x50
 12173 4612 02       		.uleb128 0x2
 12174 4613 75       		.byte	0x75
 12175 4614 00       		.sleb128 0
 12176 4615 45       		.uleb128 0x45
 12177 4616 01       		.uleb128 0x1
 12178 4617 51       		.byte	0x51
 12179 4618 05       		.uleb128 0x5
 12180 4619 03       		.byte	0x3
 12181 461a 04000000 		.4byte	.LC3
 12182 461e 00       		.byte	0
 12183 461f 46       		.uleb128 0x46
 12184 4620 A0000000 		.4byte	.LVL47
 12185 4624 055C0000 		.4byte	0x5c05
 12186 4628 45       		.uleb128 0x45
 12187 4629 01       		.uleb128 0x1
 12188 462a 50       		.byte	0x50
 12189 462b 02       		.uleb128 0x2
 12190 462c 74       		.byte	0x74
 12191 462d 00       		.sleb128 0
 12192 462e 45       		.uleb128 0x45
 12193 462f 01       		.uleb128 0x1
 12194 4630 51       		.byte	0x51
 12195 4631 05       		.uleb128 0x5
 12196 4632 03       		.byte	0x3
 12197 4633 30000000 		.4byte	.LC7
 12198 4637 00       		.byte	0
 12199 4638 00       		.byte	0
 12200 4639 00       		.byte	0
 12201 463a 42       		.uleb128 0x42
 12202 463b 60000000 		.4byte	.Ldebug_ranges0+0x60
 12203 463f 5F       		.uleb128 0x5f
 12204 4640 103A0000 		.4byte	0x3a10
ARM GAS  /tmp/ccJYnsep.s 			page 217


 12205 4644 4F080000 		.4byte	.LLST14
 12206 4648 4C       		.uleb128 0x4c
 12207 4649 80000000 		.4byte	.Ldebug_ranges0+0x80
 12208 464d 5B460000 		.4byte	0x465b
 12209 4651 5F       		.uleb128 0x5f
 12210 4652 1D3A0000 		.4byte	0x3a1d
 12211 4656 6E080000 		.4byte	.LLST15
 12212 465a 00       		.byte	0
 12213 465b 46       		.uleb128 0x46
 12214 465c 84000000 		.4byte	.LVL41
 12215 4660 055C0000 		.4byte	0x5c05
 12216 4664 45       		.uleb128 0x45
 12217 4665 01       		.uleb128 0x1
 12218 4666 50       		.byte	0x50
 12219 4667 02       		.uleb128 0x2
 12220 4668 74       		.byte	0x74
 12221 4669 00       		.sleb128 0
 12222 466a 45       		.uleb128 0x45
 12223 466b 01       		.uleb128 0x1
 12224 466c 51       		.byte	0x51
 12225 466d 05       		.uleb128 0x5
 12226 466e 03       		.byte	0x3
 12227 466f 10000000 		.4byte	.LC6
 12228 4673 00       		.byte	0
 12229 4674 00       		.byte	0
 12230 4675 00       		.byte	0
 12231 4676 5C       		.uleb128 0x5c
 12232 4677 95420000 		.4byte	0x4295
 12233 467b 00000000 		.4byte	.LFB268
 12234 467f 38000000 		.4byte	.LFE268-.LFB268
 12235 4683 01       		.uleb128 0x1
 12236 4684 9C       		.byte	0x9c
 12237 4685 0D470000 		.4byte	0x470d
 12238 4689 41       		.uleb128 0x41
 12239 468a A2420000 		.4byte	0x42a2
 12240 468e 97080000 		.4byte	.LLST16
 12241 4692 5D       		.uleb128 0x5d
 12242 4693 95420000 		.4byte	0x4295
 12243 4697 98000000 		.4byte	.Ldebug_ranges0+0x98
 12244 469b F3460000 		.4byte	0x46f3
 12245 469f 41       		.uleb128 0x41
 12246 46a0 A2420000 		.4byte	0x42a2
 12247 46a4 CE080000 		.4byte	.LLST17
 12248 46a8 44       		.uleb128 0x44
 12249 46a9 1A000000 		.4byte	.LVL52
 12250 46ad 265C0000 		.4byte	0x5c26
 12251 46b1 CE460000 		.4byte	0x46ce
 12252 46b5 45       		.uleb128 0x45
 12253 46b6 01       		.uleb128 0x1
 12254 46b7 50       		.byte	0x50
 12255 46b8 02       		.uleb128 0x2
 12256 46b9 74       		.byte	0x74
 12257 46ba 00       		.sleb128 0
 12258 46bb 45       		.uleb128 0x45
 12259 46bc 01       		.uleb128 0x1
 12260 46bd 51       		.byte	0x51
 12261 46be 05       		.uleb128 0x5
ARM GAS  /tmp/ccJYnsep.s 			page 218


 12262 46bf 0C       		.byte	0xc
 12263 46c0 043C0240 		.4byte	0x40023c04
 12264 46c4 45       		.uleb128 0x45
 12265 46c5 01       		.uleb128 0x1
 12266 46c6 52       		.byte	0x52
 12267 46c7 05       		.uleb128 0x5
 12268 46c8 0C       		.byte	0xc
 12269 46c9 23016745 		.4byte	0x45670123
 12270 46cd 00       		.byte	0
 12271 46ce 57       		.uleb128 0x57
 12272 46cf 28000000 		.4byte	.LVL54
 12273 46d3 265C0000 		.4byte	0x5c26
 12274 46d7 45       		.uleb128 0x45
 12275 46d8 01       		.uleb128 0x1
 12276 46d9 50       		.byte	0x50
 12277 46da 03       		.uleb128 0x3
 12278 46db F3       		.byte	0xf3
 12279 46dc 01       		.uleb128 0x1
 12280 46dd 50       		.byte	0x50
 12281 46de 45       		.uleb128 0x45
 12282 46df 01       		.uleb128 0x1
 12283 46e0 51       		.byte	0x51
 12284 46e1 05       		.uleb128 0x5
 12285 46e2 0C       		.byte	0xc
 12286 46e3 043C0240 		.4byte	0x40023c04
 12287 46e7 45       		.uleb128 0x45
 12288 46e8 01       		.uleb128 0x1
 12289 46e9 52       		.byte	0x52
 12290 46ea 06       		.uleb128 0x6
 12291 46eb 11       		.byte	0x11
 12292 46ec AB93BEEF 		.sleb128 -839939669
 12292      7C
 12293 46f1 00       		.byte	0
 12294 46f2 00       		.byte	0
 12295 46f3 46       		.uleb128 0x46
 12296 46f4 0A000000 		.4byte	.LVL50
 12297 46f8 105C0000 		.4byte	0x5c10
 12298 46fc 45       		.uleb128 0x45
 12299 46fd 01       		.uleb128 0x1
 12300 46fe 50       		.byte	0x50
 12301 46ff 02       		.uleb128 0x2
 12302 4700 74       		.byte	0x74
 12303 4701 00       		.sleb128 0
 12304 4702 45       		.uleb128 0x45
 12305 4703 01       		.uleb128 0x1
 12306 4704 51       		.byte	0x51
 12307 4705 05       		.uleb128 0x5
 12308 4706 0C       		.byte	0xc
 12309 4707 103C0240 		.4byte	0x40023c10
 12310 470b 00       		.byte	0
 12311 470c 00       		.byte	0
 12312 470d 5C       		.uleb128 0x5c
 12313 470e FB3E0000 		.4byte	0x3efb
 12314 4712 00000000 		.4byte	.LFB273
 12315 4716 DC000000 		.4byte	.LFE273-.LFB273
 12316 471a 01       		.uleb128 0x1
 12317 471b 9C       		.byte	0x9c
ARM GAS  /tmp/ccJYnsep.s 			page 219


 12318 471c 85480000 		.4byte	0x4885
 12319 4720 41       		.uleb128 0x41
 12320 4721 0C3F0000 		.4byte	0x3f0c
 12321 4725 FA080000 		.4byte	.LLST28
 12322 4729 41       		.uleb128 0x41
 12323 472a 163F0000 		.4byte	0x3f16
 12324 472e 86090000 		.4byte	.LLST29
 12325 4732 41       		.uleb128 0x41
 12326 4733 223F0000 		.4byte	0x3f22
 12327 4737 A4090000 		.4byte	.LLST30
 12328 473b 5D       		.uleb128 0x5d
 12329 473c FB3E0000 		.4byte	0x3efb
 12330 4740 F8000000 		.4byte	.Ldebug_ranges0+0xf8
 12331 4744 19480000 		.4byte	0x4819
 12332 4748 41       		.uleb128 0x41
 12333 4749 223F0000 		.4byte	0x3f22
 12334 474d C2090000 		.4byte	.LLST31
 12335 4751 41       		.uleb128 0x41
 12336 4752 163F0000 		.4byte	0x3f16
 12337 4756 E0090000 		.4byte	.LLST32
 12338 475a 41       		.uleb128 0x41
 12339 475b 0C3F0000 		.4byte	0x3f0c
 12340 475f FE090000 		.4byte	.LLST33
 12341 4763 44       		.uleb128 0x44
 12342 4764 60000000 		.4byte	.LVL95
 12343 4768 265C0000 		.4byte	0x5c26
 12344 476c 80470000 		.4byte	0x4780
 12345 4770 45       		.uleb128 0x45
 12346 4771 01       		.uleb128 0x1
 12347 4772 50       		.byte	0x50
 12348 4773 02       		.uleb128 0x2
 12349 4774 74       		.byte	0x74
 12350 4775 00       		.sleb128 0
 12351 4776 45       		.uleb128 0x45
 12352 4777 01       		.uleb128 0x1
 12353 4778 51       		.byte	0x51
 12354 4779 05       		.uleb128 0x5
 12355 477a 0C       		.byte	0xc
 12356 477b 143C0240 		.4byte	0x40023c14
 12357 477f 00       		.byte	0
 12358 4780 44       		.uleb128 0x44
 12359 4781 6E000000 		.4byte	.LVL96
 12360 4785 265C0000 		.4byte	0x5c26
 12361 4789 9D470000 		.4byte	0x479d
 12362 478d 45       		.uleb128 0x45
 12363 478e 01       		.uleb128 0x1
 12364 478f 50       		.byte	0x50
 12365 4790 02       		.uleb128 0x2
 12366 4791 74       		.byte	0x74
 12367 4792 00       		.sleb128 0
 12368 4793 45       		.uleb128 0x45
 12369 4794 01       		.uleb128 0x1
 12370 4795 51       		.byte	0x51
 12371 4796 05       		.uleb128 0x5
 12372 4797 0C       		.byte	0xc
 12373 4798 143C0240 		.4byte	0x40023c14
 12374 479c 00       		.byte	0
ARM GAS  /tmp/ccJYnsep.s 			page 220


 12375 479d 47       		.uleb128 0x47
 12376 479e 74000000 		.4byte	.LVL98
 12377 47a2 475C0000 		.4byte	0x5c47
 12378 47a6 44       		.uleb128 0x44
 12379 47a7 7E000000 		.4byte	.LVL99
 12380 47ab 105C0000 		.4byte	0x5c10
 12381 47af C0470000 		.4byte	0x47c0
 12382 47b3 45       		.uleb128 0x45
 12383 47b4 01       		.uleb128 0x1
 12384 47b5 50       		.byte	0x50
 12385 47b6 02       		.uleb128 0x2
 12386 47b7 74       		.byte	0x74
 12387 47b8 00       		.sleb128 0
 12388 47b9 45       		.uleb128 0x45
 12389 47ba 01       		.uleb128 0x1
 12390 47bb 51       		.byte	0x51
 12391 47bc 02       		.uleb128 0x2
 12392 47bd 75       		.byte	0x75
 12393 47be 00       		.sleb128 0
 12394 47bf 00       		.byte	0
 12395 47c0 44       		.uleb128 0x44
 12396 47c1 8E000000 		.4byte	.LVL101
 12397 47c5 265C0000 		.4byte	0x5c26
 12398 47c9 E2470000 		.4byte	0x47e2
 12399 47cd 45       		.uleb128 0x45
 12400 47ce 01       		.uleb128 0x1
 12401 47cf 50       		.byte	0x50
 12402 47d0 02       		.uleb128 0x2
 12403 47d1 74       		.byte	0x74
 12404 47d2 00       		.sleb128 0
 12405 47d3 45       		.uleb128 0x45
 12406 47d4 01       		.uleb128 0x1
 12407 47d5 51       		.byte	0x51
 12408 47d6 05       		.uleb128 0x5
 12409 47d7 0C       		.byte	0xc
 12410 47d8 143C0240 		.4byte	0x40023c14
 12411 47dc 45       		.uleb128 0x45
 12412 47dd 01       		.uleb128 0x1
 12413 47de 52       		.byte	0x52
 12414 47df 01       		.uleb128 0x1
 12415 47e0 31       		.byte	0x31
 12416 47e1 00       		.byte	0
 12417 47e2 44       		.uleb128 0x44
 12418 47e3 A0000000 		.4byte	.LVL106
 12419 47e7 265C0000 		.4byte	0x5c26
 12420 47eb FF470000 		.4byte	0x47ff
 12421 47ef 45       		.uleb128 0x45
 12422 47f0 01       		.uleb128 0x1
 12423 47f1 50       		.byte	0x50
 12424 47f2 02       		.uleb128 0x2
 12425 47f3 74       		.byte	0x74
 12426 47f4 00       		.sleb128 0
 12427 47f5 45       		.uleb128 0x45
 12428 47f6 01       		.uleb128 0x1
 12429 47f7 51       		.byte	0x51
 12430 47f8 05       		.uleb128 0x5
 12431 47f9 0C       		.byte	0xc
ARM GAS  /tmp/ccJYnsep.s 			page 221


 12432 47fa 183C0240 		.4byte	0x40023c18
 12433 47fe 00       		.byte	0
 12434 47ff 46       		.uleb128 0x46
 12435 4800 B8000000 		.4byte	.LVL107
 12436 4804 265C0000 		.4byte	0x5c26
 12437 4808 45       		.uleb128 0x45
 12438 4809 01       		.uleb128 0x1
 12439 480a 50       		.byte	0x50
 12440 480b 02       		.uleb128 0x2
 12441 480c 74       		.byte	0x74
 12442 480d 00       		.sleb128 0
 12443 480e 45       		.uleb128 0x45
 12444 480f 01       		.uleb128 0x1
 12445 4810 51       		.byte	0x51
 12446 4811 05       		.uleb128 0x5
 12447 4812 0C       		.byte	0xc
 12448 4813 1C3C0240 		.4byte	0x40023c1c
 12449 4817 00       		.byte	0
 12450 4818 00       		.byte	0
 12451 4819 44       		.uleb128 0x44
 12452 481a 12000000 		.4byte	.LVL88
 12453 481e 265C0000 		.4byte	0x5c26
 12454 4822 3F480000 		.4byte	0x483f
 12455 4826 45       		.uleb128 0x45
 12456 4827 01       		.uleb128 0x1
 12457 4828 50       		.byte	0x50
 12458 4829 02       		.uleb128 0x2
 12459 482a 74       		.byte	0x74
 12460 482b 00       		.sleb128 0
 12461 482c 45       		.uleb128 0x45
 12462 482d 01       		.uleb128 0x1
 12463 482e 51       		.byte	0x51
 12464 482f 05       		.uleb128 0x5
 12465 4830 0C       		.byte	0xc
 12466 4831 083C0240 		.4byte	0x40023c08
 12467 4835 45       		.uleb128 0x45
 12468 4836 01       		.uleb128 0x1
 12469 4837 52       		.byte	0x52
 12470 4838 05       		.uleb128 0x5
 12471 4839 0C       		.byte	0xc
 12472 483a 3B2A1908 		.4byte	0x8192a3b
 12473 483e 00       		.byte	0
 12474 483f 44       		.uleb128 0x44
 12475 4840 1C000000 		.4byte	.LVL89
 12476 4844 265C0000 		.4byte	0x5c26
 12477 4848 65480000 		.4byte	0x4865
 12478 484c 45       		.uleb128 0x45
 12479 484d 01       		.uleb128 0x1
 12480 484e 50       		.byte	0x50
 12481 484f 02       		.uleb128 0x2
 12482 4850 74       		.byte	0x74
 12483 4851 00       		.sleb128 0
 12484 4852 45       		.uleb128 0x45
 12485 4853 01       		.uleb128 0x1
 12486 4854 51       		.byte	0x51
 12487 4855 05       		.uleb128 0x5
 12488 4856 0C       		.byte	0xc
ARM GAS  /tmp/ccJYnsep.s 			page 222


 12489 4857 083C0240 		.4byte	0x40023c08
 12490 485b 45       		.uleb128 0x45
 12491 485c 01       		.uleb128 0x1
 12492 485d 52       		.byte	0x52
 12493 485e 05       		.uleb128 0x5
 12494 485f 0C       		.byte	0xc
 12495 4860 7F6E5D4C 		.4byte	0x4c5d6e7f
 12496 4864 00       		.byte	0
 12497 4865 47       		.uleb128 0x47
 12498 4866 22000000 		.4byte	.LVL91
 12499 486a 475C0000 		.4byte	0x5c47
 12500 486e 46       		.uleb128 0x46
 12501 486f 2C000000 		.4byte	.LVL92
 12502 4873 105C0000 		.4byte	0x5c10
 12503 4877 45       		.uleb128 0x45
 12504 4878 01       		.uleb128 0x1
 12505 4879 50       		.byte	0x50
 12506 487a 02       		.uleb128 0x2
 12507 487b 74       		.byte	0x74
 12508 487c 00       		.sleb128 0
 12509 487d 45       		.uleb128 0x45
 12510 487e 01       		.uleb128 0x1
 12511 487f 51       		.byte	0x51
 12512 4880 02       		.uleb128 0x2
 12513 4881 75       		.byte	0x75
 12514 4882 00       		.sleb128 0
 12515 4883 00       		.byte	0
 12516 4884 00       		.byte	0
 12517 4885 5C       		.uleb128 0x5c
 12518 4886 6C3F0000 		.4byte	0x3f6c
 12519 488a 00000000 		.4byte	.LFB271
 12520 488e C0000000 		.4byte	.LFE271-.LFB271
 12521 4892 01       		.uleb128 0x1
 12522 4893 9C       		.byte	0x9c
 12523 4894 0E4A0000 		.4byte	0x4a0e
 12524 4898 41       		.uleb128 0x41
 12525 4899 7D3F0000 		.4byte	0x3f7d
 12526 489d 690A0000 		.4byte	.LLST34
 12527 48a1 5F       		.uleb128 0x5f
 12528 48a2 873F0000 		.4byte	0x3f87
 12529 48a6 950A0000 		.4byte	.LLST35
 12530 48aa 5F       		.uleb128 0x5f
 12531 48ab 913F0000 		.4byte	0x3f91
 12532 48af 950A0000 		.4byte	.LLST35
 12533 48b3 5F       		.uleb128 0x5f
 12534 48b4 9C3F0000 		.4byte	0x3f9c
 12535 48b8 A80A0000 		.4byte	.LLST37
 12536 48bc 61       		.uleb128 0x61
 12537 48bd A73F0000 		.4byte	0x3fa7
 12538 48c1 5D       		.uleb128 0x5d
 12539 48c2 6C3F0000 		.4byte	0x3f6c
 12540 48c6 18010000 		.4byte	.Ldebug_ranges0+0x118
 12541 48ca 49490000 		.4byte	0x4949
 12542 48ce 41       		.uleb128 0x41
 12543 48cf 7D3F0000 		.4byte	0x3f7d
 12544 48d3 C00A0000 		.4byte	.LLST38
 12545 48d7 42       		.uleb128 0x42
ARM GAS  /tmp/ccJYnsep.s 			page 223


 12546 48d8 18010000 		.4byte	.Ldebug_ranges0+0x118
 12547 48dc 61       		.uleb128 0x61
 12548 48dd A1480000 		.4byte	0x48a1
 12549 48e1 61       		.uleb128 0x61
 12550 48e2 AA480000 		.4byte	0x48aa
 12551 48e6 61       		.uleb128 0x61
 12552 48e7 B3480000 		.4byte	0x48b3
 12553 48eb 5F       		.uleb128 0x5f
 12554 48ec BC480000 		.4byte	0x48bc
 12555 48f0 EC0A0000 		.4byte	.LLST39
 12556 48f4 44       		.uleb128 0x44
 12557 48f5 60000000 		.4byte	.LVL121
 12558 48f9 105C0000 		.4byte	0x5c10
 12559 48fd 11490000 		.4byte	0x4911
 12560 4901 45       		.uleb128 0x45
 12561 4902 01       		.uleb128 0x1
 12562 4903 50       		.byte	0x50
 12563 4904 02       		.uleb128 0x2
 12564 4905 74       		.byte	0x74
 12565 4906 00       		.sleb128 0
 12566 4907 45       		.uleb128 0x45
 12567 4908 01       		.uleb128 0x1
 12568 4909 51       		.byte	0x51
 12569 490a 05       		.uleb128 0x5
 12570 490b 0C       		.byte	0xc
 12571 490c 0C3C0240 		.4byte	0x40023c0c
 12572 4910 00       		.byte	0
 12573 4911 44       		.uleb128 0x44
 12574 4912 86000000 		.4byte	.LVL127
 12575 4916 055C0000 		.4byte	0x5c05
 12576 491a 2E490000 		.4byte	0x492e
 12577 491e 45       		.uleb128 0x45
 12578 491f 01       		.uleb128 0x1
 12579 4920 50       		.byte	0x50
 12580 4921 02       		.uleb128 0x2
 12581 4922 74       		.byte	0x74
 12582 4923 00       		.sleb128 0
 12583 4924 45       		.uleb128 0x45
 12584 4925 01       		.uleb128 0x1
 12585 4926 51       		.byte	0x51
 12586 4927 05       		.uleb128 0x5
 12587 4928 03       		.byte	0x3
 12588 4929 40000000 		.4byte	.LC12
 12589 492d 00       		.byte	0
 12590 492e 46       		.uleb128 0x46
 12591 492f 94000000 		.4byte	.LVL130
 12592 4933 055C0000 		.4byte	0x5c05
 12593 4937 45       		.uleb128 0x45
 12594 4938 01       		.uleb128 0x1
 12595 4939 50       		.byte	0x50
 12596 493a 02       		.uleb128 0x2
 12597 493b 74       		.byte	0x74
 12598 493c 00       		.sleb128 0
 12599 493d 45       		.uleb128 0x45
 12600 493e 01       		.uleb128 0x1
 12601 493f 51       		.byte	0x51
 12602 4940 05       		.uleb128 0x5
ARM GAS  /tmp/ccJYnsep.s 			page 224


 12603 4941 03       		.byte	0x3
 12604 4942 54000000 		.4byte	.LC13
 12605 4946 00       		.byte	0
 12606 4947 00       		.byte	0
 12607 4948 00       		.byte	0
 12608 4949 44       		.uleb128 0x44
 12609 494a 0C000000 		.4byte	.LVL110
 12610 494e 055C0000 		.4byte	0x5c05
 12611 4952 66490000 		.4byte	0x4966
 12612 4956 45       		.uleb128 0x45
 12613 4957 01       		.uleb128 0x1
 12614 4958 50       		.byte	0x50
 12615 4959 02       		.uleb128 0x2
 12616 495a 74       		.byte	0x74
 12617 495b 00       		.sleb128 0
 12618 495c 45       		.uleb128 0x45
 12619 495d 01       		.uleb128 0x1
 12620 495e 51       		.byte	0x51
 12621 495f 05       		.uleb128 0x5
 12622 4960 03       		.byte	0x3
 12623 4961 00000000 		.4byte	.LC10
 12624 4965 00       		.byte	0
 12625 4966 44       		.uleb128 0x44
 12626 4967 12000000 		.4byte	.LVL111
 12627 496b 95420000 		.4byte	0x4295
 12628 496f 7A490000 		.4byte	0x497a
 12629 4973 45       		.uleb128 0x45
 12630 4974 01       		.uleb128 0x1
 12631 4975 50       		.byte	0x50
 12632 4976 02       		.uleb128 0x2
 12633 4977 74       		.byte	0x74
 12634 4978 00       		.sleb128 0
 12635 4979 00       		.byte	0
 12636 497a 44       		.uleb128 0x44
 12637 497b 2E000000 		.4byte	.LVL115
 12638 497f 265C0000 		.4byte	0x5c26
 12639 4983 97490000 		.4byte	0x4997
 12640 4987 45       		.uleb128 0x45
 12641 4988 01       		.uleb128 0x1
 12642 4989 50       		.byte	0x50
 12643 498a 02       		.uleb128 0x2
 12644 498b 74       		.byte	0x74
 12645 498c 00       		.sleb128 0
 12646 498d 45       		.uleb128 0x45
 12647 498e 01       		.uleb128 0x1
 12648 498f 51       		.byte	0x51
 12649 4990 05       		.uleb128 0x5
 12650 4991 0C       		.byte	0xc
 12651 4992 103C0240 		.4byte	0x40023c10
 12652 4996 00       		.byte	0
 12653 4997 44       		.uleb128 0x44
 12654 4998 38000000 		.4byte	.LVL116
 12655 499c 265C0000 		.4byte	0x5c26
 12656 49a0 BA490000 		.4byte	0x49ba
 12657 49a4 45       		.uleb128 0x45
 12658 49a5 01       		.uleb128 0x1
 12659 49a6 50       		.byte	0x50
ARM GAS  /tmp/ccJYnsep.s 			page 225


 12660 49a7 02       		.uleb128 0x2
 12661 49a8 74       		.byte	0x74
 12662 49a9 00       		.sleb128 0
 12663 49aa 45       		.uleb128 0x45
 12664 49ab 01       		.uleb128 0x1
 12665 49ac 51       		.byte	0x51
 12666 49ad 05       		.uleb128 0x5
 12667 49ae 0C       		.byte	0xc
 12668 49af 103C0240 		.4byte	0x40023c10
 12669 49b3 45       		.uleb128 0x45
 12670 49b4 01       		.uleb128 0x1
 12671 49b5 52       		.byte	0x52
 12672 49b6 02       		.uleb128 0x2
 12673 49b7 75       		.byte	0x75
 12674 49b8 00       		.sleb128 0
 12675 49b9 00       		.byte	0
 12676 49ba 47       		.uleb128 0x47
 12677 49bb 3E000000 		.4byte	.LVL117
 12678 49bf 3C5C0000 		.4byte	0x5c3c
 12679 49c3 44       		.uleb128 0x44
 12680 49c4 44000000 		.4byte	.LVL118
 12681 49c8 475C0000 		.4byte	0x5c47
 12682 49cc D7490000 		.4byte	0x49d7
 12683 49d0 45       		.uleb128 0x45
 12684 49d1 01       		.uleb128 0x1
 12685 49d2 50       		.byte	0x50
 12686 49d3 02       		.uleb128 0x2
 12687 49d4 74       		.byte	0x74
 12688 49d5 00       		.sleb128 0
 12689 49d6 00       		.byte	0
 12690 49d7 44       		.uleb128 0x44
 12691 49d8 4E000000 		.4byte	.LVL119
 12692 49dc 105C0000 		.4byte	0x5c10
 12693 49e0 F4490000 		.4byte	0x49f4
 12694 49e4 45       		.uleb128 0x45
 12695 49e5 01       		.uleb128 0x1
 12696 49e6 50       		.byte	0x50
 12697 49e7 02       		.uleb128 0x2
 12698 49e8 74       		.byte	0x74
 12699 49e9 00       		.sleb128 0
 12700 49ea 45       		.uleb128 0x45
 12701 49eb 01       		.uleb128 0x1
 12702 49ec 51       		.byte	0x51
 12703 49ed 05       		.uleb128 0x5
 12704 49ee 0C       		.byte	0xc
 12705 49ef 0C3C0240 		.4byte	0x40023c0c
 12706 49f3 00       		.byte	0
 12707 49f4 46       		.uleb128 0x46
 12708 49f5 78000000 		.4byte	.LVL124
 12709 49f9 055C0000 		.4byte	0x5c05
 12710 49fd 45       		.uleb128 0x45
 12711 49fe 01       		.uleb128 0x1
 12712 49ff 50       		.byte	0x50
 12713 4a00 02       		.uleb128 0x2
 12714 4a01 74       		.byte	0x74
 12715 4a02 00       		.sleb128 0
 12716 4a03 45       		.uleb128 0x45
ARM GAS  /tmp/ccJYnsep.s 			page 226


 12717 4a04 01       		.uleb128 0x1
 12718 4a05 51       		.byte	0x51
 12719 4a06 05       		.uleb128 0x5
 12720 4a07 03       		.byte	0x3
 12721 4a08 30000000 		.4byte	.LC11
 12722 4a0c 00       		.byte	0
 12723 4a0d 00       		.byte	0
 12724 4a0e 5C       		.uleb128 0x5c
 12725 4a0f C8440000 		.4byte	0x44c8
 12726 4a13 00000000 		.4byte	.LFB281
 12727 4a17 5C000000 		.4byte	.LFE281-.LFB281
 12728 4a1b 01       		.uleb128 0x1
 12729 4a1c 9C       		.byte	0x9c
 12730 4a1d 944A0000 		.4byte	0x4a94
 12731 4a21 41       		.uleb128 0x41
 12732 4a22 D4440000 		.4byte	0x44d4
 12733 4a26 2B0B0000 		.4byte	.LLST40
 12734 4a2a 41       		.uleb128 0x41
 12735 4a2b DD440000 		.4byte	0x44dd
 12736 4a2f 620B0000 		.4byte	.LLST41
 12737 4a33 41       		.uleb128 0x41
 12738 4a34 E8440000 		.4byte	0x44e8
 12739 4a38 9A0B0000 		.4byte	.LLST42
 12740 4a3c 41       		.uleb128 0x41
 12741 4a3d F3440000 		.4byte	0x44f3
 12742 4a41 D20B0000 		.4byte	.LLST43
 12743 4a45 41       		.uleb128 0x41
 12744 4a46 FE440000 		.4byte	0x44fe
 12745 4a4a 0A0C0000 		.4byte	.LLST44
 12746 4a4e 41       		.uleb128 0x41
 12747 4a4f 09450000 		.4byte	0x4509
 12748 4a53 2A0C0000 		.4byte	.LLST45
 12749 4a57 5F       		.uleb128 0x5f
 12750 4a58 14450000 		.4byte	0x4514
 12751 4a5c 4A0C0000 		.4byte	.LLST46
 12752 4a60 5F       		.uleb128 0x5f
 12753 4a61 1E450000 		.4byte	0x451e
 12754 4a65 4A0C0000 		.4byte	.LLST46
 12755 4a69 44       		.uleb128 0x44
 12756 4a6a 18000000 		.4byte	.LVL135
 12757 4a6e 7E5C0000 		.4byte	0x5c7e
 12758 4a72 824A0000 		.4byte	0x4a82
 12759 4a76 45       		.uleb128 0x45
 12760 4a77 01       		.uleb128 0x1
 12761 4a78 50       		.byte	0x50
 12762 4a79 01       		.uleb128 0x1
 12763 4a7a 31       		.byte	0x31
 12764 4a7b 45       		.uleb128 0x45
 12765 4a7c 01       		.uleb128 0x1
 12766 4a7d 51       		.byte	0x51
 12767 4a7e 02       		.uleb128 0x2
 12768 4a7f 08       		.byte	0x8
 12769 4a80 34       		.byte	0x34
 12770 4a81 00       		.byte	0
 12771 4a82 57       		.uleb128 0x57
 12772 4a83 54000000 		.4byte	.LVL140
 12773 4a87 895C0000 		.4byte	0x5c89
ARM GAS  /tmp/ccJYnsep.s 			page 227


 12774 4a8b 45       		.uleb128 0x45
 12775 4a8c 01       		.uleb128 0x1
 12776 4a8d 50       		.byte	0x50
 12777 4a8e 03       		.uleb128 0x3
 12778 4a8f F3       		.byte	0xf3
 12779 4a90 01       		.uleb128 0x1
 12780 4a91 50       		.byte	0x50
 12781 4a92 00       		.byte	0
 12782 4a93 00       		.byte	0
 12783 4a94 5C       		.uleb128 0x5c
 12784 4a95 AD420000 		.4byte	0x42ad
 12785 4a99 00000000 		.4byte	.LFB267
 12786 4a9d 08060000 		.4byte	.LFE267-.LFB267
 12787 4aa1 01       		.uleb128 0x1
 12788 4aa2 9C       		.byte	0x9c
 12789 4aa3 DD5B0000 		.4byte	0x5bdd
 12790 4aa7 41       		.uleb128 0x41
 12791 4aa8 BD420000 		.4byte	0x42bd
 12792 4aac 730C0000 		.4byte	.LLST48
 12793 4ab0 62       		.uleb128 0x62
 12794 4ab1 C6420000 		.4byte	0x42c6
 12795 4ab5 00       		.byte	0
 12796 4ab6 62       		.uleb128 0x62
 12797 4ab7 D1420000 		.4byte	0x42d1
 12798 4abb 00       		.byte	0
 12799 4abc 62       		.uleb128 0x62
 12800 4abd DC420000 		.4byte	0x42dc
 12801 4ac1 00       		.byte	0
 12802 4ac2 62       		.uleb128 0x62
 12803 4ac3 E7420000 		.4byte	0x42e7
 12804 4ac7 00       		.byte	0
 12805 4ac8 63       		.uleb128 0x63
 12806 4ac9 F2420000 		.4byte	0x42f2
 12807 4acd 227AFF1F 		.4byte	0x1fff7a22
 12808 4ad1 61       		.uleb128 0x61
 12809 4ad2 FD420000 		.4byte	0x42fd
 12810 4ad6 61       		.uleb128 0x61
 12811 4ad7 09430000 		.4byte	0x4309
 12812 4adb 61       		.uleb128 0x61
 12813 4adc 15430000 		.4byte	0x4315
 12814 4ae0 61       		.uleb128 0x61
 12815 4ae1 21430000 		.4byte	0x4321
 12816 4ae5 5D       		.uleb128 0x5d
 12817 4ae6 AD420000 		.4byte	0x42ad
 12818 4aea 38010000 		.4byte	.Ldebug_ranges0+0x138
 12819 4aee CC5B0000 		.4byte	0x5bcc
 12820 4af2 41       		.uleb128 0x41
 12821 4af3 BD420000 		.4byte	0x42bd
 12822 4af7 910C0000 		.4byte	.LLST49
 12823 4afb 42       		.uleb128 0x42
 12824 4afc 38010000 		.4byte	.Ldebug_ranges0+0x138
 12825 4b00 61       		.uleb128 0x61
 12826 4b01 B04A0000 		.4byte	0x4ab0
 12827 4b05 61       		.uleb128 0x61
 12828 4b06 B64A0000 		.4byte	0x4ab6
 12829 4b0a 61       		.uleb128 0x61
 12830 4b0b BC4A0000 		.4byte	0x4abc
ARM GAS  /tmp/ccJYnsep.s 			page 228


 12831 4b0f 61       		.uleb128 0x61
 12832 4b10 C24A0000 		.4byte	0x4ac2
 12833 4b14 61       		.uleb128 0x61
 12834 4b15 C84A0000 		.4byte	0x4ac8
 12835 4b19 5F       		.uleb128 0x5f
 12836 4b1a D14A0000 		.4byte	0x4ad1
 12837 4b1e AF0C0000 		.4byte	.LLST50
 12838 4b22 5F       		.uleb128 0x5f
 12839 4b23 D64A0000 		.4byte	0x4ad6
 12840 4b27 2D0D0000 		.4byte	.LLST51
 12841 4b2b 5F       		.uleb128 0x5f
 12842 4b2c DB4A0000 		.4byte	0x4adb
 12843 4b30 A50D0000 		.4byte	.LLST52
 12844 4b34 5F       		.uleb128 0x5f
 12845 4b35 E04A0000 		.4byte	0x4ae0
 12846 4b39 F50D0000 		.4byte	.LLST53
 12847 4b3d 5D       		.uleb128 0x5d
 12848 4b3e 63430000 		.4byte	0x4363
 12849 4b42 58010000 		.4byte	.Ldebug_ranges0+0x158
 12850 4b46 EC530000 		.4byte	0x53ec
 12851 4b4a 5F       		.uleb128 0x5f
 12852 4b4b 64430000 		.4byte	0x4364
 12853 4b4f 780E0000 		.4byte	.LLST54
 12854 4b53 40       		.uleb128 0x40
 12855 4b54 C8440000 		.4byte	0x44c8
 12856 4b58 08010000 		.4byte	.LBB198
 12857 4b5c 88010000 		.4byte	.Ldebug_ranges0+0x188
 12858 4b60 01       		.byte	0x1
 12859 4b61 5C01     		.2byte	0x15c
 12860 4b63 BD4C0000 		.4byte	0x4cbd
 12861 4b67 41       		.uleb128 0x41
 12862 4b68 09450000 		.4byte	0x4509
 12863 4b6c DC0E0000 		.4byte	.LLST55
 12864 4b70 41       		.uleb128 0x41
 12865 4b71 FE440000 		.4byte	0x44fe
 12866 4b75 F00E0000 		.4byte	.LLST56
 12867 4b79 41       		.uleb128 0x41
 12868 4b7a F3440000 		.4byte	0x44f3
 12869 4b7e 280F0000 		.4byte	.LLST57
 12870 4b82 41       		.uleb128 0x41
 12871 4b83 E8440000 		.4byte	0x44e8
 12872 4b87 680F0000 		.4byte	.LLST58
 12873 4b8b 41       		.uleb128 0x41
 12874 4b8c DD440000 		.4byte	0x44dd
 12875 4b90 A80F0000 		.4byte	.LLST59
 12876 4b94 41       		.uleb128 0x41
 12877 4b95 D4440000 		.4byte	0x44d4
 12878 4b99 E80F0000 		.4byte	.LLST60
 12879 4b9d 42       		.uleb128 0x42
 12880 4b9e 88010000 		.4byte	.Ldebug_ranges0+0x188
 12881 4ba2 61       		.uleb128 0x61
 12882 4ba3 14450000 		.4byte	0x4514
 12883 4ba7 61       		.uleb128 0x61
 12884 4ba8 1E450000 		.4byte	0x451e
 12885 4bac 44       		.uleb128 0x44
 12886 4bad 22010000 		.4byte	.LVL152
 12887 4bb1 0E4A0000 		.4byte	0x4a0e
ARM GAS  /tmp/ccJYnsep.s 			page 229


 12888 4bb5 E34B0000 		.4byte	0x4be3
 12889 4bb9 45       		.uleb128 0x45
 12890 4bba 01       		.uleb128 0x1
 12891 4bbb 50       		.byte	0x50
 12892 4bbc 02       		.uleb128 0x2
 12893 4bbd 74       		.byte	0x74
 12894 4bbe 00       		.sleb128 0
 12895 4bbf 45       		.uleb128 0x45
 12896 4bc0 01       		.uleb128 0x1
 12897 4bc1 51       		.byte	0x51
 12898 4bc2 03       		.uleb128 0x3
 12899 4bc3 40       		.byte	0x40
 12900 4bc4 47       		.byte	0x47
 12901 4bc5 24       		.byte	0x24
 12902 4bc6 45       		.uleb128 0x45
 12903 4bc7 01       		.uleb128 0x1
 12904 4bc8 52       		.byte	0x52
 12905 4bc9 03       		.uleb128 0x3
 12906 4bca 40       		.byte	0x40
 12907 4bcb 3C       		.byte	0x3c
 12908 4bcc 24       		.byte	0x24
 12909 4bcd 45       		.uleb128 0x45
 12910 4bce 01       		.uleb128 0x1
 12911 4bcf 53       		.byte	0x53
 12912 4bd0 03       		.uleb128 0x3
 12913 4bd1 0A       		.byte	0xa
 12914 4bd2 0040     		.2byte	0x4000
 12915 4bd4 45       		.uleb128 0x45
 12916 4bd5 02       		.uleb128 0x2
 12917 4bd6 7D       		.byte	0x7d
 12918 4bd7 00       		.sleb128 0
 12919 4bd8 02       		.uleb128 0x2
 12920 4bd9 78       		.byte	0x78
 12921 4bda 00       		.sleb128 0
 12922 4bdb 45       		.uleb128 0x45
 12923 4bdc 02       		.uleb128 0x2
 12924 4bdd 7D       		.byte	0x7d
 12925 4bde 04       		.sleb128 4
 12926 4bdf 02       		.uleb128 0x2
 12927 4be0 79       		.byte	0x79
 12928 4be1 00       		.sleb128 0
 12929 4be2 00       		.byte	0
 12930 4be3 44       		.uleb128 0x44
 12931 4be4 04020000 		.4byte	.LVL170
 12932 4be8 0E4A0000 		.4byte	0x4a0e
 12933 4bec 1A4C0000 		.4byte	0x4c1a
 12934 4bf0 45       		.uleb128 0x45
 12935 4bf1 01       		.uleb128 0x1
 12936 4bf2 50       		.byte	0x50
 12937 4bf3 02       		.uleb128 0x2
 12938 4bf4 74       		.byte	0x74
 12939 4bf5 00       		.sleb128 0
 12940 4bf6 45       		.uleb128 0x45
 12941 4bf7 01       		.uleb128 0x1
 12942 4bf8 51       		.byte	0x51
 12943 4bf9 03       		.uleb128 0x3
 12944 4bfa 40       		.byte	0x40
ARM GAS  /tmp/ccJYnsep.s 			page 230


 12945 4bfb 47       		.byte	0x47
 12946 4bfc 24       		.byte	0x24
 12947 4bfd 45       		.uleb128 0x45
 12948 4bfe 01       		.uleb128 0x1
 12949 4bff 52       		.byte	0x52
 12950 4c00 03       		.uleb128 0x3
 12951 4c01 40       		.byte	0x40
 12952 4c02 3C       		.byte	0x3c
 12953 4c03 24       		.byte	0x24
 12954 4c04 45       		.uleb128 0x45
 12955 4c05 01       		.uleb128 0x1
 12956 4c06 53       		.byte	0x53
 12957 4c07 03       		.uleb128 0x3
 12958 4c08 0A       		.byte	0xa
 12959 4c09 0040     		.2byte	0x4000
 12960 4c0b 45       		.uleb128 0x45
 12961 4c0c 02       		.uleb128 0x2
 12962 4c0d 7D       		.byte	0x7d
 12963 4c0e 00       		.sleb128 0
 12964 4c0f 02       		.uleb128 0x2
 12965 4c10 77       		.byte	0x77
 12966 4c11 00       		.sleb128 0
 12967 4c12 45       		.uleb128 0x45
 12968 4c13 02       		.uleb128 0x2
 12969 4c14 7D       		.byte	0x7d
 12970 4c15 04       		.sleb128 4
 12971 4c16 02       		.uleb128 0x2
 12972 4c17 77       		.byte	0x77
 12973 4c18 00       		.sleb128 0
 12974 4c19 00       		.byte	0
 12975 4c1a 44       		.uleb128 0x44
 12976 4c1b F0030000 		.4byte	.LVL221
 12977 4c1f 0E4A0000 		.4byte	0x4a0e
 12978 4c23 514C0000 		.4byte	0x4c51
 12979 4c27 45       		.uleb128 0x45
 12980 4c28 01       		.uleb128 0x1
 12981 4c29 50       		.byte	0x50
 12982 4c2a 02       		.uleb128 0x2
 12983 4c2b 74       		.byte	0x74
 12984 4c2c 00       		.sleb128 0
 12985 4c2d 45       		.uleb128 0x45
 12986 4c2e 01       		.uleb128 0x1
 12987 4c2f 51       		.byte	0x51
 12988 4c30 03       		.uleb128 0x3
 12989 4c31 40       		.byte	0x40
 12990 4c32 47       		.byte	0x47
 12991 4c33 24       		.byte	0x24
 12992 4c34 45       		.uleb128 0x45
 12993 4c35 01       		.uleb128 0x1
 12994 4c36 52       		.byte	0x52
 12995 4c37 03       		.uleb128 0x3
 12996 4c38 40       		.byte	0x40
 12997 4c39 3C       		.byte	0x3c
 12998 4c3a 24       		.byte	0x24
 12999 4c3b 45       		.uleb128 0x45
 13000 4c3c 01       		.uleb128 0x1
 13001 4c3d 53       		.byte	0x53
ARM GAS  /tmp/ccJYnsep.s 			page 231


 13002 4c3e 03       		.uleb128 0x3
 13003 4c3f 0A       		.byte	0xa
 13004 4c40 0040     		.2byte	0x4000
 13005 4c42 45       		.uleb128 0x45
 13006 4c43 02       		.uleb128 0x2
 13007 4c44 7D       		.byte	0x7d
 13008 4c45 00       		.sleb128 0
 13009 4c46 02       		.uleb128 0x2
 13010 4c47 7B       		.byte	0x7b
 13011 4c48 00       		.sleb128 0
 13012 4c49 45       		.uleb128 0x45
 13013 4c4a 02       		.uleb128 0x2
 13014 4c4b 7D       		.byte	0x7d
 13015 4c4c 04       		.sleb128 4
 13016 4c4d 02       		.uleb128 0x2
 13017 4c4e 79       		.byte	0x79
 13018 4c4f 00       		.sleb128 0
 13019 4c50 00       		.byte	0
 13020 4c51 44       		.uleb128 0x44
 13021 4c52 94050000 		.4byte	.LVL252
 13022 4c56 0E4A0000 		.4byte	0x4a0e
 13023 4c5a 884C0000 		.4byte	0x4c88
 13024 4c5e 45       		.uleb128 0x45
 13025 4c5f 01       		.uleb128 0x1
 13026 4c60 50       		.byte	0x50
 13027 4c61 02       		.uleb128 0x2
 13028 4c62 74       		.byte	0x74
 13029 4c63 00       		.sleb128 0
 13030 4c64 45       		.uleb128 0x45
 13031 4c65 01       		.uleb128 0x1
 13032 4c66 51       		.byte	0x51
 13033 4c67 03       		.uleb128 0x3
 13034 4c68 40       		.byte	0x40
 13035 4c69 47       		.byte	0x47
 13036 4c6a 24       		.byte	0x24
 13037 4c6b 45       		.uleb128 0x45
 13038 4c6c 01       		.uleb128 0x1
 13039 4c6d 52       		.byte	0x52
 13040 4c6e 03       		.uleb128 0x3
 13041 4c6f 40       		.byte	0x40
 13042 4c70 3C       		.byte	0x3c
 13043 4c71 24       		.byte	0x24
 13044 4c72 45       		.uleb128 0x45
 13045 4c73 01       		.uleb128 0x1
 13046 4c74 53       		.byte	0x53
 13047 4c75 03       		.uleb128 0x3
 13048 4c76 0A       		.byte	0xa
 13049 4c77 0040     		.2byte	0x4000
 13050 4c79 45       		.uleb128 0x45
 13051 4c7a 02       		.uleb128 0x2
 13052 4c7b 7D       		.byte	0x7d
 13053 4c7c 00       		.sleb128 0
 13054 4c7d 02       		.uleb128 0x2
 13055 4c7e 78       		.byte	0x78
 13056 4c7f 00       		.sleb128 0
 13057 4c80 45       		.uleb128 0x45
 13058 4c81 02       		.uleb128 0x2
ARM GAS  /tmp/ccJYnsep.s 			page 232


 13059 4c82 7D       		.byte	0x7d
 13060 4c83 04       		.sleb128 4
 13061 4c84 02       		.uleb128 0x2
 13062 4c85 79       		.byte	0x79
 13063 4c86 00       		.sleb128 0
 13064 4c87 00       		.byte	0
 13065 4c88 46       		.uleb128 0x46
 13066 4c89 D8050000 		.4byte	.LVL256
 13067 4c8d 0E4A0000 		.4byte	0x4a0e
 13068 4c91 45       		.uleb128 0x45
 13069 4c92 01       		.uleb128 0x1
 13070 4c93 50       		.byte	0x50
 13071 4c94 02       		.uleb128 0x2
 13072 4c95 74       		.byte	0x74
 13073 4c96 00       		.sleb128 0
 13074 4c97 45       		.uleb128 0x45
 13075 4c98 01       		.uleb128 0x1
 13076 4c99 51       		.byte	0x51
 13077 4c9a 03       		.uleb128 0x3
 13078 4c9b 40       		.byte	0x40
 13079 4c9c 47       		.byte	0x47
 13080 4c9d 24       		.byte	0x24
 13081 4c9e 45       		.uleb128 0x45
 13082 4c9f 01       		.uleb128 0x1
 13083 4ca0 52       		.byte	0x52
 13084 4ca1 03       		.uleb128 0x3
 13085 4ca2 40       		.byte	0x40
 13086 4ca3 3C       		.byte	0x3c
 13087 4ca4 24       		.byte	0x24
 13088 4ca5 45       		.uleb128 0x45
 13089 4ca6 01       		.uleb128 0x1
 13090 4ca7 53       		.byte	0x53
 13091 4ca8 03       		.uleb128 0x3
 13092 4ca9 0A       		.byte	0xa
 13093 4caa 0040     		.2byte	0x4000
 13094 4cac 45       		.uleb128 0x45
 13095 4cad 02       		.uleb128 0x2
 13096 4cae 7D       		.byte	0x7d
 13097 4caf 00       		.sleb128 0
 13098 4cb0 02       		.uleb128 0x2
 13099 4cb1 7B       		.byte	0x7b
 13100 4cb2 00       		.sleb128 0
 13101 4cb3 45       		.uleb128 0x45
 13102 4cb4 02       		.uleb128 0x2
 13103 4cb5 7D       		.byte	0x7d
 13104 4cb6 04       		.sleb128 4
 13105 4cb7 02       		.uleb128 0x2
 13106 4cb8 79       		.byte	0x79
 13107 4cb9 00       		.sleb128 0
 13108 4cba 00       		.byte	0
 13109 4cbb 00       		.byte	0
 13110 4cbc 00       		.byte	0
 13111 4cbd 40       		.uleb128 0x40
 13112 4cbe C8440000 		.4byte	0x44c8
 13113 4cc2 26010000 		.4byte	.LBB204
 13114 4cc6 B8010000 		.4byte	.Ldebug_ranges0+0x1b8
 13115 4cca 01       		.byte	0x1
ARM GAS  /tmp/ccJYnsep.s 			page 233


 13116 4ccb 5E01     		.2byte	0x15e
 13117 4ccd 844D0000 		.4byte	0x4d84
 13118 4cd1 41       		.uleb128 0x41
 13119 4cd2 09450000 		.4byte	0x4509
 13120 4cd6 1C100000 		.4byte	.LLST61
 13121 4cda 41       		.uleb128 0x41
 13122 4cdb FE440000 		.4byte	0x44fe
 13123 4cdf 30100000 		.4byte	.LLST62
 13124 4ce3 41       		.uleb128 0x41
 13125 4ce4 F3440000 		.4byte	0x44f3
 13126 4ce8 50100000 		.4byte	.LLST63
 13127 4cec 41       		.uleb128 0x41
 13128 4ced E8440000 		.4byte	0x44e8
 13129 4cf1 50100000 		.4byte	.LLST63
 13130 4cf5 41       		.uleb128 0x41
 13131 4cf6 DD440000 		.4byte	0x44dd
 13132 4cfa 74100000 		.4byte	.LLST65
 13133 4cfe 41       		.uleb128 0x41
 13134 4cff D4440000 		.4byte	0x44d4
 13135 4d03 9C100000 		.4byte	.LLST66
 13136 4d07 42       		.uleb128 0x42
 13137 4d08 B8010000 		.4byte	.Ldebug_ranges0+0x1b8
 13138 4d0c 61       		.uleb128 0x61
 13139 4d0d 14450000 		.4byte	0x4514
 13140 4d11 61       		.uleb128 0x61
 13141 4d12 1E450000 		.4byte	0x451e
 13142 4d16 44       		.uleb128 0x44
 13143 4d17 3A010000 		.4byte	.LVL154
 13144 4d1b 0E4A0000 		.4byte	0x4a0e
 13145 4d1f 4E4D0000 		.4byte	0x4d4e
 13146 4d23 45       		.uleb128 0x45
 13147 4d24 01       		.uleb128 0x1
 13148 4d25 50       		.byte	0x50
 13149 4d26 02       		.uleb128 0x2
 13150 4d27 74       		.byte	0x74
 13151 4d28 00       		.sleb128 0
 13152 4d29 45       		.uleb128 0x45
 13153 4d2a 01       		.uleb128 0x1
 13154 4d2b 51       		.byte	0x51
 13155 4d2c 05       		.uleb128 0x5
 13156 4d2d 0C       		.byte	0xc
 13157 4d2e 00000108 		.4byte	0x8010000
 13158 4d32 45       		.uleb128 0x45
 13159 4d33 01       		.uleb128 0x1
 13160 4d34 52       		.byte	0x52
 13161 4d35 03       		.uleb128 0x3
 13162 4d36 40       		.byte	0x40
 13163 4d37 3C       		.byte	0x3c
 13164 4d38 24       		.byte	0x24
 13165 4d39 45       		.uleb128 0x45
 13166 4d3a 01       		.uleb128 0x1
 13167 4d3b 53       		.byte	0x53
 13168 4d3c 03       		.uleb128 0x3
 13169 4d3d 40       		.byte	0x40
 13170 4d3e 3C       		.byte	0x3c
 13171 4d3f 24       		.byte	0x24
 13172 4d40 45       		.uleb128 0x45
ARM GAS  /tmp/ccJYnsep.s 			page 234


 13173 4d41 02       		.uleb128 0x2
 13174 4d42 7D       		.byte	0x7d
 13175 4d43 00       		.sleb128 0
 13176 4d44 01       		.uleb128 0x1
 13177 4d45 34       		.byte	0x34
 13178 4d46 45       		.uleb128 0x45
 13179 4d47 02       		.uleb128 0x2
 13180 4d48 7D       		.byte	0x7d
 13181 4d49 04       		.sleb128 4
 13182 4d4a 02       		.uleb128 0x2
 13183 4d4b 79       		.byte	0x79
 13184 4d4c 00       		.sleb128 0
 13185 4d4d 00       		.byte	0
 13186 4d4e 46       		.uleb128 0x46
 13187 4d4f 1E020000 		.4byte	.LVL172
 13188 4d53 0E4A0000 		.4byte	0x4a0e
 13189 4d57 45       		.uleb128 0x45
 13190 4d58 01       		.uleb128 0x1
 13191 4d59 50       		.byte	0x50
 13192 4d5a 02       		.uleb128 0x2
 13193 4d5b 74       		.byte	0x74
 13194 4d5c 00       		.sleb128 0
 13195 4d5d 45       		.uleb128 0x45
 13196 4d5e 01       		.uleb128 0x1
 13197 4d5f 51       		.byte	0x51
 13198 4d60 05       		.uleb128 0x5
 13199 4d61 0C       		.byte	0xc
 13200 4d62 00000108 		.4byte	0x8010000
 13201 4d66 45       		.uleb128 0x45
 13202 4d67 01       		.uleb128 0x1
 13203 4d68 52       		.byte	0x52
 13204 4d69 03       		.uleb128 0x3
 13205 4d6a 40       		.byte	0x40
 13206 4d6b 3C       		.byte	0x3c
 13207 4d6c 24       		.byte	0x24
 13208 4d6d 45       		.uleb128 0x45
 13209 4d6e 01       		.uleb128 0x1
 13210 4d6f 53       		.byte	0x53
 13211 4d70 03       		.uleb128 0x3
 13212 4d71 40       		.byte	0x40
 13213 4d72 3C       		.byte	0x3c
 13214 4d73 24       		.byte	0x24
 13215 4d74 45       		.uleb128 0x45
 13216 4d75 02       		.uleb128 0x2
 13217 4d76 7D       		.byte	0x7d
 13218 4d77 00       		.sleb128 0
 13219 4d78 01       		.uleb128 0x1
 13220 4d79 34       		.byte	0x34
 13221 4d7a 45       		.uleb128 0x45
 13222 4d7b 02       		.uleb128 0x2
 13223 4d7c 7D       		.byte	0x7d
 13224 4d7d 04       		.sleb128 4
 13225 4d7e 02       		.uleb128 0x2
 13226 4d7f 77       		.byte	0x77
 13227 4d80 00       		.sleb128 0
 13228 4d81 00       		.byte	0
 13229 4d82 00       		.byte	0
ARM GAS  /tmp/ccJYnsep.s 			page 235


 13230 4d83 00       		.byte	0
 13231 4d84 64       		.uleb128 0x64
 13232 4d85 C8440000 		.4byte	0x44c8
 13233 4d89 3A010000 		.4byte	.LBB207
 13234 4d8d 1A000000 		.4byte	.LBE207-.LBB207
 13235 4d91 01       		.byte	0x1
 13236 4d92 5F01     		.2byte	0x15f
 13237 4d94 164E0000 		.4byte	0x4e16
 13238 4d98 41       		.uleb128 0x41
 13239 4d99 09450000 		.4byte	0x4509
 13240 4d9d BA100000 		.4byte	.LLST67
 13241 4da1 41       		.uleb128 0x41
 13242 4da2 FE440000 		.4byte	0x44fe
 13243 4da6 CE100000 		.4byte	.LLST68
 13244 4daa 41       		.uleb128 0x41
 13245 4dab F3440000 		.4byte	0x44f3
 13246 4daf EE100000 		.4byte	.LLST69
 13247 4db3 41       		.uleb128 0x41
 13248 4db4 E8440000 		.4byte	0x44e8
 13249 4db8 12110000 		.4byte	.LLST70
 13250 4dbc 41       		.uleb128 0x41
 13251 4dbd DD440000 		.4byte	0x44dd
 13252 4dc1 31110000 		.4byte	.LLST71
 13253 4dc5 41       		.uleb128 0x41
 13254 4dc6 D4440000 		.4byte	0x44d4
 13255 4dca 59110000 		.4byte	.LLST72
 13256 4dce 65       		.uleb128 0x65
 13257 4dcf 3A010000 		.4byte	.LBB208
 13258 4dd3 1A000000 		.4byte	.LBE208-.LBB208
 13259 4dd7 61       		.uleb128 0x61
 13260 4dd8 14450000 		.4byte	0x4514
 13261 4ddc 61       		.uleb128 0x61
 13262 4ddd 1E450000 		.4byte	0x451e
 13263 4de1 46       		.uleb128 0x46
 13264 4de2 54010000 		.4byte	.LVL155
 13265 4de6 0E4A0000 		.4byte	0x4a0e
 13266 4dea 45       		.uleb128 0x45
 13267 4deb 01       		.uleb128 0x1
 13268 4dec 50       		.byte	0x50
 13269 4ded 02       		.uleb128 0x2
 13270 4dee 74       		.byte	0x74
 13271 4def 00       		.sleb128 0
 13272 4df0 45       		.uleb128 0x45
 13273 4df1 01       		.uleb128 0x1
 13274 4df2 51       		.byte	0x51
 13275 4df3 05       		.uleb128 0x5
 13276 4df4 0C       		.byte	0xc
 13277 4df5 00000208 		.4byte	0x8020000
 13278 4df9 45       		.uleb128 0x45
 13279 4dfa 01       		.uleb128 0x1
 13280 4dfb 52       		.byte	0x52
 13281 4dfc 02       		.uleb128 0x2
 13282 4dfd 7A       		.byte	0x7a
 13283 4dfe 00       		.sleb128 0
 13284 4dff 45       		.uleb128 0x45
 13285 4e00 01       		.uleb128 0x1
 13286 4e01 53       		.byte	0x53
ARM GAS  /tmp/ccJYnsep.s 			page 236


 13287 4e02 03       		.uleb128 0x3
 13288 4e03 40       		.byte	0x40
 13289 4e04 3D       		.byte	0x3d
 13290 4e05 24       		.byte	0x24
 13291 4e06 45       		.uleb128 0x45
 13292 4e07 02       		.uleb128 0x2
 13293 4e08 7D       		.byte	0x7d
 13294 4e09 00       		.sleb128 0
 13295 4e0a 01       		.uleb128 0x1
 13296 4e0b 35       		.byte	0x35
 13297 4e0c 45       		.uleb128 0x45
 13298 4e0d 02       		.uleb128 0x2
 13299 4e0e 7D       		.byte	0x7d
 13300 4e0f 04       		.sleb128 4
 13301 4e10 02       		.uleb128 0x2
 13302 4e11 79       		.byte	0x79
 13303 4e12 00       		.sleb128 0
 13304 4e13 00       		.byte	0
 13305 4e14 00       		.byte	0
 13306 4e15 00       		.byte	0
 13307 4e16 5D       		.uleb128 0x5d
 13308 4e17 70430000 		.4byte	0x4370
 13309 4e1b D0010000 		.4byte	.Ldebug_ranges0+0x1d0
 13310 4e1f 4B520000 		.4byte	0x524b
 13311 4e23 5F       		.uleb128 0x5f
 13312 4e24 71430000 		.4byte	0x4371
 13313 4e28 77110000 		.4byte	.LLST73
 13314 4e2c 40       		.uleb128 0x40
 13315 4e2d C8440000 		.4byte	0x44c8
 13316 4e31 62010000 		.4byte	.LBB210
 13317 4e35 F0010000 		.4byte	.Ldebug_ranges0+0x1f0
 13318 4e39 01       		.byte	0x1
 13319 4e3a 6901     		.2byte	0x169
 13320 4e3c 1E4F0000 		.4byte	0x4f1e
 13321 4e40 66       		.uleb128 0x66
 13322 4e41 09450000 		.4byte	0x4509
 13323 4e45 41       		.uleb128 0x41
 13324 4e46 FE440000 		.4byte	0x44fe
 13325 4e4a BD110000 		.4byte	.LLST74
 13326 4e4e 41       		.uleb128 0x41
 13327 4e4f F3440000 		.4byte	0x44f3
 13328 4e53 E9110000 		.4byte	.LLST75
 13329 4e57 41       		.uleb128 0x41
 13330 4e58 E8440000 		.4byte	0x44e8
 13331 4e5c 1B120000 		.4byte	.LLST76
 13332 4e60 41       		.uleb128 0x41
 13333 4e61 DD440000 		.4byte	0x44dd
 13334 4e65 4D120000 		.4byte	.LLST77
 13335 4e69 41       		.uleb128 0x41
 13336 4e6a D4440000 		.4byte	0x44d4
 13337 4e6e 93120000 		.4byte	.LLST78
 13338 4e72 42       		.uleb128 0x42
 13339 4e73 F0010000 		.4byte	.Ldebug_ranges0+0x1f0
 13340 4e77 61       		.uleb128 0x61
 13341 4e78 14450000 		.4byte	0x4514
 13342 4e7c 61       		.uleb128 0x61
 13343 4e7d 1E450000 		.4byte	0x451e
ARM GAS  /tmp/ccJYnsep.s 			page 237


 13344 4e81 44       		.uleb128 0x44
 13345 4e82 7A010000 		.4byte	.LVL158
 13346 4e86 0E4A0000 		.4byte	0x4a0e
 13347 4e8a B64E0000 		.4byte	0x4eb6
 13348 4e8e 45       		.uleb128 0x45
 13349 4e8f 01       		.uleb128 0x1
 13350 4e90 50       		.byte	0x50
 13351 4e91 02       		.uleb128 0x2
 13352 4e92 74       		.byte	0x74
 13353 4e93 00       		.sleb128 0
 13354 4e94 45       		.uleb128 0x45
 13355 4e95 01       		.uleb128 0x1
 13356 4e96 51       		.byte	0x51
 13357 4e97 02       		.uleb128 0x2
 13358 4e98 76       		.byte	0x76
 13359 4e99 00       		.sleb128 0
 13360 4e9a 45       		.uleb128 0x45
 13361 4e9b 01       		.uleb128 0x1
 13362 4e9c 52       		.byte	0x52
 13363 4e9d 03       		.uleb128 0x3
 13364 4e9e 40       		.byte	0x40
 13365 4e9f 3C       		.byte	0x3c
 13366 4ea0 24       		.byte	0x24
 13367 4ea1 45       		.uleb128 0x45
 13368 4ea2 01       		.uleb128 0x1
 13369 4ea3 53       		.byte	0x53
 13370 4ea4 03       		.uleb128 0x3
 13371 4ea5 0A       		.byte	0xa
 13372 4ea6 0040     		.2byte	0x4000
 13373 4ea8 45       		.uleb128 0x45
 13374 4ea9 02       		.uleb128 0x2
 13375 4eaa 7D       		.byte	0x7d
 13376 4eab 00       		.sleb128 0
 13377 4eac 01       		.uleb128 0x1
 13378 4ead 40       		.byte	0x40
 13379 4eae 45       		.uleb128 0x45
 13380 4eaf 02       		.uleb128 0x2
 13381 4eb0 7D       		.byte	0x7d
 13382 4eb1 04       		.sleb128 4
 13383 4eb2 02       		.uleb128 0x2
 13384 4eb3 79       		.byte	0x79
 13385 4eb4 00       		.sleb128 0
 13386 4eb5 00       		.byte	0
 13387 4eb6 44       		.uleb128 0x44
 13388 4eb7 4C040000 		.4byte	.LVL226
 13389 4ebb 0E4A0000 		.4byte	0x4a0e
 13390 4ebf EB4E0000 		.4byte	0x4eeb
 13391 4ec3 45       		.uleb128 0x45
 13392 4ec4 01       		.uleb128 0x1
 13393 4ec5 50       		.byte	0x50
 13394 4ec6 02       		.uleb128 0x2
 13395 4ec7 74       		.byte	0x74
 13396 4ec8 00       		.sleb128 0
 13397 4ec9 45       		.uleb128 0x45
 13398 4eca 01       		.uleb128 0x1
 13399 4ecb 51       		.byte	0x51
 13400 4ecc 02       		.uleb128 0x2
ARM GAS  /tmp/ccJYnsep.s 			page 238


 13401 4ecd 77       		.byte	0x77
 13402 4ece 00       		.sleb128 0
 13403 4ecf 45       		.uleb128 0x45
 13404 4ed0 01       		.uleb128 0x1
 13405 4ed1 52       		.byte	0x52
 13406 4ed2 03       		.uleb128 0x3
 13407 4ed3 40       		.byte	0x40
 13408 4ed4 3C       		.byte	0x3c
 13409 4ed5 24       		.byte	0x24
 13410 4ed6 45       		.uleb128 0x45
 13411 4ed7 01       		.uleb128 0x1
 13412 4ed8 53       		.byte	0x53
 13413 4ed9 03       		.uleb128 0x3
 13414 4eda 0A       		.byte	0xa
 13415 4edb 0040     		.2byte	0x4000
 13416 4edd 45       		.uleb128 0x45
 13417 4ede 02       		.uleb128 0x2
 13418 4edf 7D       		.byte	0x7d
 13419 4ee0 00       		.sleb128 0
 13420 4ee1 01       		.uleb128 0x1
 13421 4ee2 40       		.byte	0x40
 13422 4ee3 45       		.uleb128 0x45
 13423 4ee4 02       		.uleb128 0x2
 13424 4ee5 7D       		.byte	0x7d
 13425 4ee6 04       		.sleb128 4
 13426 4ee7 02       		.uleb128 0x2
 13427 4ee8 79       		.byte	0x79
 13428 4ee9 00       		.sleb128 0
 13429 4eea 00       		.byte	0
 13430 4eeb 46       		.uleb128 0x46
 13431 4eec 62050000 		.4byte	.LVL248
 13432 4ef0 0E4A0000 		.4byte	0x4a0e
 13433 4ef4 45       		.uleb128 0x45
 13434 4ef5 01       		.uleb128 0x1
 13435 4ef6 50       		.byte	0x50
 13436 4ef7 02       		.uleb128 0x2
 13437 4ef8 74       		.byte	0x74
 13438 4ef9 00       		.sleb128 0
 13439 4efa 45       		.uleb128 0x45
 13440 4efb 01       		.uleb128 0x1
 13441 4efc 51       		.byte	0x51
 13442 4efd 02       		.uleb128 0x2
 13443 4efe 77       		.byte	0x77
 13444 4eff 00       		.sleb128 0
 13445 4f00 45       		.uleb128 0x45
 13446 4f01 01       		.uleb128 0x1
 13447 4f02 52       		.byte	0x52
 13448 4f03 03       		.uleb128 0x3
 13449 4f04 40       		.byte	0x40
 13450 4f05 3C       		.byte	0x3c
 13451 4f06 24       		.byte	0x24
 13452 4f07 45       		.uleb128 0x45
 13453 4f08 01       		.uleb128 0x1
 13454 4f09 53       		.byte	0x53
 13455 4f0a 03       		.uleb128 0x3
 13456 4f0b 0A       		.byte	0xa
 13457 4f0c 0040     		.2byte	0x4000
ARM GAS  /tmp/ccJYnsep.s 			page 239


 13458 4f0e 45       		.uleb128 0x45
 13459 4f0f 02       		.uleb128 0x2
 13460 4f10 7D       		.byte	0x7d
 13461 4f11 00       		.sleb128 0
 13462 4f12 01       		.uleb128 0x1
 13463 4f13 40       		.byte	0x40
 13464 4f14 45       		.uleb128 0x45
 13465 4f15 02       		.uleb128 0x2
 13466 4f16 7D       		.byte	0x7d
 13467 4f17 04       		.sleb128 4
 13468 4f18 02       		.uleb128 0x2
 13469 4f19 79       		.byte	0x79
 13470 4f1a 00       		.sleb128 0
 13471 4f1b 00       		.byte	0
 13472 4f1c 00       		.byte	0
 13473 4f1d 00       		.byte	0
 13474 4f1e 40       		.uleb128 0x40
 13475 4f1f C8440000 		.4byte	0x44c8
 13476 4f23 7A010000 		.4byte	.LBB214
 13477 4f27 10020000 		.4byte	.Ldebug_ranges0+0x210
 13478 4f2b 01       		.byte	0x1
 13479 4f2c 6A01     		.2byte	0x16a
 13480 4f2e 12500000 		.4byte	0x5012
 13481 4f32 66       		.uleb128 0x66
 13482 4f33 09450000 		.4byte	0x4509
 13483 4f37 41       		.uleb128 0x41
 13484 4f38 FE440000 		.4byte	0x44fe
 13485 4f3c BC120000 		.4byte	.LLST79
 13486 4f40 41       		.uleb128 0x41
 13487 4f41 F3440000 		.4byte	0x44f3
 13488 4f45 E8120000 		.4byte	.LLST80
 13489 4f49 41       		.uleb128 0x41
 13490 4f4a E8440000 		.4byte	0x44e8
 13491 4f4e E8120000 		.4byte	.LLST80
 13492 4f52 41       		.uleb128 0x41
 13493 4f53 DD440000 		.4byte	0x44dd
 13494 4f57 1A130000 		.4byte	.LLST82
 13495 4f5b 41       		.uleb128 0x41
 13496 4f5c D4440000 		.4byte	0x44d4
 13497 4f60 53130000 		.4byte	.LLST83
 13498 4f64 42       		.uleb128 0x42
 13499 4f65 10020000 		.4byte	.Ldebug_ranges0+0x210
 13500 4f69 61       		.uleb128 0x61
 13501 4f6a 14450000 		.4byte	0x4514
 13502 4f6e 61       		.uleb128 0x61
 13503 4f6f 1E450000 		.4byte	0x451e
 13504 4f73 44       		.uleb128 0x44
 13505 4f74 90010000 		.4byte	.LVL159
 13506 4f78 0E4A0000 		.4byte	0x4a0e
 13507 4f7c AA4F0000 		.4byte	0x4faa
 13508 4f80 45       		.uleb128 0x45
 13509 4f81 01       		.uleb128 0x1
 13510 4f82 50       		.byte	0x50
 13511 4f83 02       		.uleb128 0x2
 13512 4f84 74       		.byte	0x74
 13513 4f85 00       		.sleb128 0
 13514 4f86 45       		.uleb128 0x45
ARM GAS  /tmp/ccJYnsep.s 			page 240


 13515 4f87 01       		.uleb128 0x1
 13516 4f88 51       		.byte	0x51
 13517 4f89 04       		.uleb128 0x4
 13518 4f8a 76       		.byte	0x76
 13519 4f8b 808004   		.sleb128 65536
 13520 4f8e 45       		.uleb128 0x45
 13521 4f8f 01       		.uleb128 0x1
 13522 4f90 52       		.byte	0x52
 13523 4f91 03       		.uleb128 0x3
 13524 4f92 40       		.byte	0x40
 13525 4f93 3C       		.byte	0x3c
 13526 4f94 24       		.byte	0x24
 13527 4f95 45       		.uleb128 0x45
 13528 4f96 01       		.uleb128 0x1
 13529 4f97 53       		.byte	0x53
 13530 4f98 03       		.uleb128 0x3
 13531 4f99 40       		.byte	0x40
 13532 4f9a 3C       		.byte	0x3c
 13533 4f9b 24       		.byte	0x24
 13534 4f9c 45       		.uleb128 0x45
 13535 4f9d 02       		.uleb128 0x2
 13536 4f9e 7D       		.byte	0x7d
 13537 4f9f 00       		.sleb128 0
 13538 4fa0 01       		.uleb128 0x1
 13539 4fa1 44       		.byte	0x44
 13540 4fa2 45       		.uleb128 0x45
 13541 4fa3 02       		.uleb128 0x2
 13542 4fa4 7D       		.byte	0x7d
 13543 4fa5 04       		.sleb128 4
 13544 4fa6 02       		.uleb128 0x2
 13545 4fa7 79       		.byte	0x79
 13546 4fa8 00       		.sleb128 0
 13547 4fa9 00       		.byte	0
 13548 4faa 44       		.uleb128 0x44
 13549 4fab 62040000 		.4byte	.LVL227
 13550 4faf 0E4A0000 		.4byte	0x4a0e
 13551 4fb3 DF4F0000 		.4byte	0x4fdf
 13552 4fb7 45       		.uleb128 0x45
 13553 4fb8 01       		.uleb128 0x1
 13554 4fb9 50       		.byte	0x50
 13555 4fba 02       		.uleb128 0x2
 13556 4fbb 74       		.byte	0x74
 13557 4fbc 00       		.sleb128 0
 13558 4fbd 45       		.uleb128 0x45
 13559 4fbe 01       		.uleb128 0x1
 13560 4fbf 51       		.byte	0x51
 13561 4fc0 02       		.uleb128 0x2
 13562 4fc1 78       		.byte	0x78
 13563 4fc2 00       		.sleb128 0
 13564 4fc3 45       		.uleb128 0x45
 13565 4fc4 01       		.uleb128 0x1
 13566 4fc5 52       		.byte	0x52
 13567 4fc6 03       		.uleb128 0x3
 13568 4fc7 40       		.byte	0x40
 13569 4fc8 3C       		.byte	0x3c
 13570 4fc9 24       		.byte	0x24
 13571 4fca 45       		.uleb128 0x45
ARM GAS  /tmp/ccJYnsep.s 			page 241


 13572 4fcb 01       		.uleb128 0x1
 13573 4fcc 53       		.byte	0x53
 13574 4fcd 03       		.uleb128 0x3
 13575 4fce 40       		.byte	0x40
 13576 4fcf 3C       		.byte	0x3c
 13577 4fd0 24       		.byte	0x24
 13578 4fd1 45       		.uleb128 0x45
 13579 4fd2 02       		.uleb128 0x2
 13580 4fd3 7D       		.byte	0x7d
 13581 4fd4 00       		.sleb128 0
 13582 4fd5 01       		.uleb128 0x1
 13583 4fd6 44       		.byte	0x44
 13584 4fd7 45       		.uleb128 0x45
 13585 4fd8 02       		.uleb128 0x2
 13586 4fd9 7D       		.byte	0x7d
 13587 4fda 04       		.sleb128 4
 13588 4fdb 02       		.uleb128 0x2
 13589 4fdc 79       		.byte	0x79
 13590 4fdd 00       		.sleb128 0
 13591 4fde 00       		.byte	0
 13592 4fdf 46       		.uleb128 0x46
 13593 4fe0 78050000 		.4byte	.LVL249
 13594 4fe4 0E4A0000 		.4byte	0x4a0e
 13595 4fe8 45       		.uleb128 0x45
 13596 4fe9 01       		.uleb128 0x1
 13597 4fea 50       		.byte	0x50
 13598 4feb 02       		.uleb128 0x2
 13599 4fec 74       		.byte	0x74
 13600 4fed 00       		.sleb128 0
 13601 4fee 45       		.uleb128 0x45
 13602 4fef 01       		.uleb128 0x1
 13603 4ff0 51       		.byte	0x51
 13604 4ff1 02       		.uleb128 0x2
 13605 4ff2 78       		.byte	0x78
 13606 4ff3 00       		.sleb128 0
 13607 4ff4 45       		.uleb128 0x45
 13608 4ff5 01       		.uleb128 0x1
 13609 4ff6 52       		.byte	0x52
 13610 4ff7 03       		.uleb128 0x3
 13611 4ff8 40       		.byte	0x40
 13612 4ff9 3C       		.byte	0x3c
 13613 4ffa 24       		.byte	0x24
 13614 4ffb 45       		.uleb128 0x45
 13615 4ffc 01       		.uleb128 0x1
 13616 4ffd 53       		.byte	0x53
 13617 4ffe 03       		.uleb128 0x3
 13618 4fff 40       		.byte	0x40
 13619 5000 3C       		.byte	0x3c
 13620 5001 24       		.byte	0x24
 13621 5002 45       		.uleb128 0x45
 13622 5003 02       		.uleb128 0x2
 13623 5004 7D       		.byte	0x7d
 13624 5005 00       		.sleb128 0
 13625 5006 01       		.uleb128 0x1
 13626 5007 44       		.byte	0x44
 13627 5008 45       		.uleb128 0x45
 13628 5009 02       		.uleb128 0x2
ARM GAS  /tmp/ccJYnsep.s 			page 242


 13629 500a 7D       		.byte	0x7d
 13630 500b 04       		.sleb128 4
 13631 500c 02       		.uleb128 0x2
 13632 500d 79       		.byte	0x79
 13633 500e 00       		.sleb128 0
 13634 500f 00       		.byte	0
 13635 5010 00       		.byte	0
 13636 5011 00       		.byte	0
 13637 5012 40       		.uleb128 0x40
 13638 5013 C8440000 		.4byte	0x44c8
 13639 5017 90010000 		.4byte	.LBB218
 13640 501b 30020000 		.4byte	.Ldebug_ranges0+0x230
 13641 501f 01       		.byte	0x1
 13642 5020 6B01     		.2byte	0x16b
 13643 5022 93500000 		.4byte	0x5093
 13644 5026 66       		.uleb128 0x66
 13645 5027 09450000 		.4byte	0x4509
 13646 502b 41       		.uleb128 0x41
 13647 502c FE440000 		.4byte	0x44fe
 13648 5030 7C130000 		.4byte	.LLST84
 13649 5034 41       		.uleb128 0x41
 13650 5035 F3440000 		.4byte	0x44f3
 13651 5039 A8130000 		.4byte	.LLST85
 13652 503d 41       		.uleb128 0x41
 13653 503e E8440000 		.4byte	0x44e8
 13654 5042 DA130000 		.4byte	.LLST86
 13655 5046 41       		.uleb128 0x41
 13656 5047 DD440000 		.4byte	0x44dd
 13657 504b 04140000 		.4byte	.LLST87
 13658 504f 41       		.uleb128 0x41
 13659 5050 D4440000 		.4byte	0x44d4
 13660 5054 42140000 		.4byte	.LLST88
 13661 5058 42       		.uleb128 0x42
 13662 5059 30020000 		.4byte	.Ldebug_ranges0+0x230
 13663 505d 61       		.uleb128 0x61
 13664 505e 14450000 		.4byte	0x4514
 13665 5062 61       		.uleb128 0x61
 13666 5063 1E450000 		.4byte	0x451e
 13667 5067 46       		.uleb128 0x46
 13668 5068 AE010000 		.4byte	.LVL161
 13669 506c 0E4A0000 		.4byte	0x4a0e
 13670 5070 45       		.uleb128 0x45
 13671 5071 01       		.uleb128 0x1
 13672 5072 50       		.byte	0x50
 13673 5073 02       		.uleb128 0x2
 13674 5074 74       		.byte	0x74
 13675 5075 00       		.sleb128 0
 13676 5076 45       		.uleb128 0x45
 13677 5077 01       		.uleb128 0x1
 13678 5078 52       		.byte	0x52
 13679 5079 02       		.uleb128 0x2
 13680 507a 7A       		.byte	0x7a
 13681 507b 00       		.sleb128 0
 13682 507c 45       		.uleb128 0x45
 13683 507d 01       		.uleb128 0x1
 13684 507e 53       		.byte	0x53
 13685 507f 03       		.uleb128 0x3
ARM GAS  /tmp/ccJYnsep.s 			page 243


 13686 5080 40       		.byte	0x40
 13687 5081 3D       		.byte	0x3d
 13688 5082 24       		.byte	0x24
 13689 5083 45       		.uleb128 0x45
 13690 5084 02       		.uleb128 0x2
 13691 5085 7D       		.byte	0x7d
 13692 5086 00       		.sleb128 0
 13693 5087 01       		.uleb128 0x1
 13694 5088 45       		.byte	0x45
 13695 5089 45       		.uleb128 0x45
 13696 508a 02       		.uleb128 0x2
 13697 508b 7D       		.byte	0x7d
 13698 508c 04       		.sleb128 4
 13699 508d 02       		.uleb128 0x2
 13700 508e 79       		.byte	0x79
 13701 508f 00       		.sleb128 0
 13702 5090 00       		.byte	0
 13703 5091 00       		.byte	0
 13704 5092 00       		.byte	0
 13705 5093 5E       		.uleb128 0x5e
 13706 5094 7D430000 		.4byte	0x437d
 13707 5098 48020000 		.4byte	.Ldebug_ranges0+0x248
 13708 509c 5F       		.uleb128 0x5f
 13709 509d 7E430000 		.4byte	0x437e
 13710 50a1 6B140000 		.4byte	.LLST89
 13711 50a5 64       		.uleb128 0x64
 13712 50a6 C8440000 		.4byte	0x44c8
 13713 50aa F6030000 		.4byte	.LBB223
 13714 50ae 18000000 		.4byte	.LBE223-.LBB223
 13715 50b2 01       		.byte	0x1
 13716 50b3 6401     		.2byte	0x164
 13717 50b5 34510000 		.4byte	0x5134
 13718 50b9 66       		.uleb128 0x66
 13719 50ba 09450000 		.4byte	0x4509
 13720 50be 41       		.uleb128 0x41
 13721 50bf FE440000 		.4byte	0x44fe
 13722 50c3 93140000 		.4byte	.LLST90
 13723 50c7 41       		.uleb128 0x41
 13724 50c8 F3440000 		.4byte	0x44f3
 13725 50cc A7140000 		.4byte	.LLST91
 13726 50d0 41       		.uleb128 0x41
 13727 50d1 E8440000 		.4byte	0x44e8
 13728 50d5 BD140000 		.4byte	.LLST92
 13729 50d9 41       		.uleb128 0x41
 13730 50da DD440000 		.4byte	0x44dd
 13731 50de D3140000 		.4byte	.LLST93
 13732 50e2 41       		.uleb128 0x41
 13733 50e3 D4440000 		.4byte	0x44d4
 13734 50e7 EB140000 		.4byte	.LLST94
 13735 50eb 65       		.uleb128 0x65
 13736 50ec F6030000 		.4byte	.LBB224
 13737 50f0 18000000 		.4byte	.LBE224-.LBB224
 13738 50f4 61       		.uleb128 0x61
 13739 50f5 14450000 		.4byte	0x4514
 13740 50f9 61       		.uleb128 0x61
 13741 50fa 1E450000 		.4byte	0x451e
 13742 50fe 46       		.uleb128 0x46
ARM GAS  /tmp/ccJYnsep.s 			page 244


 13743 50ff 0E040000 		.4byte	.LVL223
 13744 5103 0E4A0000 		.4byte	0x4a0e
 13745 5107 45       		.uleb128 0x45
 13746 5108 01       		.uleb128 0x1
 13747 5109 50       		.byte	0x50
 13748 510a 02       		.uleb128 0x2
 13749 510b 74       		.byte	0x74
 13750 510c 00       		.sleb128 0
 13751 510d 45       		.uleb128 0x45
 13752 510e 01       		.uleb128 0x1
 13753 510f 51       		.byte	0x51
 13754 5110 05       		.uleb128 0x5
 13755 5111 76       		.byte	0x76
 13756 5112 80808001 		.sleb128 2097152
 13757 5116 45       		.uleb128 0x45
 13758 5117 01       		.uleb128 0x1
 13759 5118 52       		.byte	0x52
 13760 5119 03       		.uleb128 0x3
 13761 511a 40       		.byte	0x40
 13762 511b 3C       		.byte	0x3c
 13763 511c 24       		.byte	0x24
 13764 511d 45       		.uleb128 0x45
 13765 511e 01       		.uleb128 0x1
 13766 511f 53       		.byte	0x53
 13767 5120 03       		.uleb128 0x3
 13768 5121 0A       		.byte	0xa
 13769 5122 0040     		.2byte	0x4000
 13770 5124 45       		.uleb128 0x45
 13771 5125 02       		.uleb128 0x2
 13772 5126 7D       		.byte	0x7d
 13773 5127 00       		.sleb128 0
 13774 5128 01       		.uleb128 0x1
 13775 5129 30       		.byte	0x30
 13776 512a 45       		.uleb128 0x45
 13777 512b 02       		.uleb128 0x2
 13778 512c 7D       		.byte	0x7d
 13779 512d 04       		.sleb128 4
 13780 512e 02       		.uleb128 0x2
 13781 512f 79       		.byte	0x79
 13782 5130 00       		.sleb128 0
 13783 5131 00       		.byte	0
 13784 5132 00       		.byte	0
 13785 5133 00       		.byte	0
 13786 5134 64       		.uleb128 0x64
 13787 5135 C8440000 		.4byte	0x44c8
 13788 5139 0E040000 		.4byte	.LBB225
 13789 513d 1E000000 		.4byte	.LBE225-.LBB225
 13790 5141 01       		.byte	0x1
 13791 5142 6501     		.2byte	0x165
 13792 5144 C3510000 		.4byte	0x51c3
 13793 5148 66       		.uleb128 0x66
 13794 5149 09450000 		.4byte	0x4509
 13795 514d 41       		.uleb128 0x41
 13796 514e FE440000 		.4byte	0x44fe
 13797 5152 FE140000 		.4byte	.LLST95
 13798 5156 41       		.uleb128 0x41
 13799 5157 F3440000 		.4byte	0x44f3
ARM GAS  /tmp/ccJYnsep.s 			page 245


 13800 515b 12150000 		.4byte	.LLST96
 13801 515f 41       		.uleb128 0x41
 13802 5160 E8440000 		.4byte	0x44e8
 13803 5164 12150000 		.4byte	.LLST96
 13804 5168 41       		.uleb128 0x41
 13805 5169 DD440000 		.4byte	0x44dd
 13806 516d 28150000 		.4byte	.LLST98
 13807 5171 41       		.uleb128 0x41
 13808 5172 D4440000 		.4byte	0x44d4
 13809 5176 40150000 		.4byte	.LLST99
 13810 517a 65       		.uleb128 0x65
 13811 517b 0E040000 		.4byte	.LBB226
 13812 517f 1E000000 		.4byte	.LBE226-.LBB226
 13813 5183 61       		.uleb128 0x61
 13814 5184 14450000 		.4byte	0x4514
 13815 5188 61       		.uleb128 0x61
 13816 5189 1E450000 		.4byte	0x451e
 13817 518d 46       		.uleb128 0x46
 13818 518e 28040000 		.4byte	.LVL224
 13819 5192 0E4A0000 		.4byte	0x4a0e
 13820 5196 45       		.uleb128 0x45
 13821 5197 01       		.uleb128 0x1
 13822 5198 50       		.byte	0x50
 13823 5199 02       		.uleb128 0x2
 13824 519a 74       		.byte	0x74
 13825 519b 00       		.sleb128 0
 13826 519c 45       		.uleb128 0x45
 13827 519d 01       		.uleb128 0x1
 13828 519e 51       		.byte	0x51
 13829 519f 05       		.uleb128 0x5
 13830 51a0 76       		.byte	0x76
 13831 51a1 80808401 		.sleb128 2162688
 13832 51a5 45       		.uleb128 0x45
 13833 51a6 01       		.uleb128 0x1
 13834 51a7 52       		.byte	0x52
 13835 51a8 03       		.uleb128 0x3
 13836 51a9 40       		.byte	0x40
 13837 51aa 3C       		.byte	0x3c
 13838 51ab 24       		.byte	0x24
 13839 51ac 45       		.uleb128 0x45
 13840 51ad 01       		.uleb128 0x1
 13841 51ae 53       		.byte	0x53
 13842 51af 03       		.uleb128 0x3
 13843 51b0 40       		.byte	0x40
 13844 51b1 3C       		.byte	0x3c
 13845 51b2 24       		.byte	0x24
 13846 51b3 45       		.uleb128 0x45
 13847 51b4 02       		.uleb128 0x2
 13848 51b5 7D       		.byte	0x7d
 13849 51b6 00       		.sleb128 0
 13850 51b7 01       		.uleb128 0x1
 13851 51b8 34       		.byte	0x34
 13852 51b9 45       		.uleb128 0x45
 13853 51ba 02       		.uleb128 0x2
 13854 51bb 7D       		.byte	0x7d
 13855 51bc 04       		.sleb128 4
 13856 51bd 02       		.uleb128 0x2
ARM GAS  /tmp/ccJYnsep.s 			page 246


 13857 51be 79       		.byte	0x79
 13858 51bf 00       		.sleb128 0
 13859 51c0 00       		.byte	0
 13860 51c1 00       		.byte	0
 13861 51c2 00       		.byte	0
 13862 51c3 67       		.uleb128 0x67
 13863 51c4 C8440000 		.4byte	0x44c8
 13864 51c8 2C040000 		.4byte	.LBB227
 13865 51cc 60020000 		.4byte	.Ldebug_ranges0+0x260
 13866 51d0 01       		.byte	0x1
 13867 51d1 6601     		.2byte	0x166
 13868 51d3 66       		.uleb128 0x66
 13869 51d4 09450000 		.4byte	0x4509
 13870 51d8 41       		.uleb128 0x41
 13871 51d9 FE440000 		.4byte	0x44fe
 13872 51dd 53150000 		.4byte	.LLST100
 13873 51e1 41       		.uleb128 0x41
 13874 51e2 F3440000 		.4byte	0x44f3
 13875 51e6 73150000 		.4byte	.LLST101
 13876 51ea 41       		.uleb128 0x41
 13877 51eb E8440000 		.4byte	0x44e8
 13878 51ef 97150000 		.4byte	.LLST102
 13879 51f3 41       		.uleb128 0x41
 13880 51f4 DD440000 		.4byte	0x44dd
 13881 51f8 B5150000 		.4byte	.LLST103
 13882 51fc 41       		.uleb128 0x41
 13883 51fd D4440000 		.4byte	0x44d4
 13884 5201 DD150000 		.4byte	.LLST104
 13885 5205 42       		.uleb128 0x42
 13886 5206 60020000 		.4byte	.Ldebug_ranges0+0x260
 13887 520a 61       		.uleb128 0x61
 13888 520b 14450000 		.4byte	0x4514
 13889 520f 61       		.uleb128 0x61
 13890 5210 1E450000 		.4byte	0x451e
 13891 5214 46       		.uleb128 0x46
 13892 5215 4C050000 		.4byte	.LVL247
 13893 5219 0E4A0000 		.4byte	0x4a0e
 13894 521d 45       		.uleb128 0x45
 13895 521e 01       		.uleb128 0x1
 13896 521f 50       		.byte	0x50
 13897 5220 02       		.uleb128 0x2
 13898 5221 74       		.byte	0x74
 13899 5222 00       		.sleb128 0
 13900 5223 45       		.uleb128 0x45
 13901 5224 01       		.uleb128 0x1
 13902 5225 51       		.byte	0x51
 13903 5226 05       		.uleb128 0x5
 13904 5227 76       		.byte	0x76
 13905 5228 80808801 		.sleb128 2228224
 13906 522c 45       		.uleb128 0x45
 13907 522d 01       		.uleb128 0x1
 13908 522e 52       		.byte	0x52
 13909 522f 02       		.uleb128 0x2
 13910 5230 7A       		.byte	0x7a
 13911 5231 00       		.sleb128 0
 13912 5232 45       		.uleb128 0x45
 13913 5233 01       		.uleb128 0x1
ARM GAS  /tmp/ccJYnsep.s 			page 247


 13914 5234 53       		.byte	0x53
 13915 5235 03       		.uleb128 0x3
 13916 5236 40       		.byte	0x40
 13917 5237 3D       		.byte	0x3d
 13918 5238 24       		.byte	0x24
 13919 5239 45       		.uleb128 0x45
 13920 523a 02       		.uleb128 0x2
 13921 523b 7D       		.byte	0x7d
 13922 523c 00       		.sleb128 0
 13923 523d 01       		.uleb128 0x1
 13924 523e 35       		.byte	0x35
 13925 523f 45       		.uleb128 0x45
 13926 5240 02       		.uleb128 0x2
 13927 5241 7D       		.byte	0x7d
 13928 5242 04       		.sleb128 4
 13929 5243 02       		.uleb128 0x2
 13930 5244 79       		.byte	0x79
 13931 5245 00       		.sleb128 0
 13932 5246 00       		.byte	0
 13933 5247 00       		.byte	0
 13934 5248 00       		.byte	0
 13935 5249 00       		.byte	0
 13936 524a 00       		.byte	0
 13937 524b 64       		.uleb128 0x64
 13938 524c C8440000 		.4byte	0x44c8
 13939 5250 B8030000 		.4byte	.LBB238
 13940 5254 1A000000 		.4byte	.LBE238-.LBB238
 13941 5258 01       		.byte	0x1
 13942 5259 5501     		.2byte	0x155
 13943 525b D9520000 		.4byte	0x52d9
 13944 525f 66       		.uleb128 0x66
 13945 5260 09450000 		.4byte	0x4509
 13946 5264 41       		.uleb128 0x41
 13947 5265 FE440000 		.4byte	0x44fe
 13948 5269 FB150000 		.4byte	.LLST105
 13949 526d 41       		.uleb128 0x41
 13950 526e F3440000 		.4byte	0x44f3
 13951 5272 0F160000 		.4byte	.LLST106
 13952 5276 41       		.uleb128 0x41
 13953 5277 E8440000 		.4byte	0x44e8
 13954 527b 25160000 		.4byte	.LLST107
 13955 527f 41       		.uleb128 0x41
 13956 5280 DD440000 		.4byte	0x44dd
 13957 5284 3B160000 		.4byte	.LLST108
 13958 5288 41       		.uleb128 0x41
 13959 5289 D4440000 		.4byte	0x44d4
 13960 528d 51160000 		.4byte	.LLST109
 13961 5291 65       		.uleb128 0x65
 13962 5292 B8030000 		.4byte	.LBB239
 13963 5296 1A000000 		.4byte	.LBE239-.LBB239
 13964 529a 61       		.uleb128 0x61
 13965 529b 14450000 		.4byte	0x4514
 13966 529f 61       		.uleb128 0x61
 13967 52a0 1E450000 		.4byte	0x451e
 13968 52a4 46       		.uleb128 0x46
 13969 52a5 D2030000 		.4byte	.LVL219
 13970 52a9 0E4A0000 		.4byte	0x4a0e
ARM GAS  /tmp/ccJYnsep.s 			page 248


 13971 52ad 45       		.uleb128 0x45
 13972 52ae 01       		.uleb128 0x1
 13973 52af 50       		.byte	0x50
 13974 52b0 02       		.uleb128 0x2
 13975 52b1 74       		.byte	0x74
 13976 52b2 00       		.sleb128 0
 13977 52b3 45       		.uleb128 0x45
 13978 52b4 01       		.uleb128 0x1
 13979 52b5 51       		.byte	0x51
 13980 52b6 03       		.uleb128 0x3
 13981 52b7 40       		.byte	0x40
 13982 52b8 41       		.byte	0x41
 13983 52b9 24       		.byte	0x24
 13984 52ba 45       		.uleb128 0x45
 13985 52bb 01       		.uleb128 0x1
 13986 52bc 52       		.byte	0x52
 13987 52bd 03       		.uleb128 0x3
 13988 52be 40       		.byte	0x40
 13989 52bf 3C       		.byte	0x3c
 13990 52c0 24       		.byte	0x24
 13991 52c1 45       		.uleb128 0x45
 13992 52c2 01       		.uleb128 0x1
 13993 52c3 53       		.byte	0x53
 13994 52c4 03       		.uleb128 0x3
 13995 52c5 0A       		.byte	0xa
 13996 52c6 0040     		.2byte	0x4000
 13997 52c8 45       		.uleb128 0x45
 13998 52c9 02       		.uleb128 0x2
 13999 52ca 7D       		.byte	0x7d
 14000 52cb 00       		.sleb128 0
 14001 52cc 02       		.uleb128 0x2
 14002 52cd 7B       		.byte	0x7b
 14003 52ce 00       		.sleb128 0
 14004 52cf 45       		.uleb128 0x45
 14005 52d0 02       		.uleb128 0x2
 14006 52d1 7D       		.byte	0x7d
 14007 52d2 04       		.sleb128 4
 14008 52d3 02       		.uleb128 0x2
 14009 52d4 79       		.byte	0x79
 14010 52d5 00       		.sleb128 0
 14011 52d6 00       		.byte	0
 14012 52d7 00       		.byte	0
 14013 52d8 00       		.byte	0
 14014 52d9 64       		.uleb128 0x64
 14015 52da C8440000 		.4byte	0x44c8
 14016 52de A4050000 		.4byte	.LBB244
 14017 52e2 16000000 		.4byte	.LBE244-.LBB244
 14018 52e6 01       		.byte	0x1
 14019 52e7 5801     		.2byte	0x158
 14020 52e9 67530000 		.4byte	0x5367
 14021 52ed 66       		.uleb128 0x66
 14022 52ee 09450000 		.4byte	0x4509
 14023 52f2 41       		.uleb128 0x41
 14024 52f3 FE440000 		.4byte	0x44fe
 14025 52f7 64160000 		.4byte	.LLST110
 14026 52fb 41       		.uleb128 0x41
 14027 52fc F3440000 		.4byte	0x44f3
ARM GAS  /tmp/ccJYnsep.s 			page 249


 14028 5300 78160000 		.4byte	.LLST111
 14029 5304 41       		.uleb128 0x41
 14030 5305 E8440000 		.4byte	0x44e8
 14031 5309 78160000 		.4byte	.LLST111
 14032 530d 41       		.uleb128 0x41
 14033 530e DD440000 		.4byte	0x44dd
 14034 5312 8E160000 		.4byte	.LLST113
 14035 5316 41       		.uleb128 0x41
 14036 5317 D4440000 		.4byte	0x44d4
 14037 531b A5160000 		.4byte	.LLST114
 14038 531f 65       		.uleb128 0x65
 14039 5320 A4050000 		.4byte	.LBB245
 14040 5324 16000000 		.4byte	.LBE245-.LBB245
 14041 5328 61       		.uleb128 0x61
 14042 5329 14450000 		.4byte	0x4514
 14043 532d 61       		.uleb128 0x61
 14044 532e 1E450000 		.4byte	0x451e
 14045 5332 46       		.uleb128 0x46
 14046 5333 BA050000 		.4byte	.LVL254
 14047 5337 0E4A0000 		.4byte	0x4a0e
 14048 533b 45       		.uleb128 0x45
 14049 533c 01       		.uleb128 0x1
 14050 533d 50       		.byte	0x50
 14051 533e 02       		.uleb128 0x2
 14052 533f 74       		.byte	0x74
 14053 5340 00       		.sleb128 0
 14054 5341 45       		.uleb128 0x45
 14055 5342 01       		.uleb128 0x1
 14056 5343 51       		.byte	0x51
 14057 5344 04       		.uleb128 0x4
 14058 5345 08       		.byte	0x8
 14059 5346 84       		.byte	0x84
 14060 5347 3E       		.byte	0x3e
 14061 5348 24       		.byte	0x24
 14062 5349 45       		.uleb128 0x45
 14063 534a 01       		.uleb128 0x1
 14064 534b 52       		.byte	0x52
 14065 534c 03       		.uleb128 0x3
 14066 534d 40       		.byte	0x40
 14067 534e 3C       		.byte	0x3c
 14068 534f 24       		.byte	0x24
 14069 5350 45       		.uleb128 0x45
 14070 5351 01       		.uleb128 0x1
 14071 5352 53       		.byte	0x53
 14072 5353 03       		.uleb128 0x3
 14073 5354 40       		.byte	0x40
 14074 5355 3C       		.byte	0x3c
 14075 5356 24       		.byte	0x24
 14076 5357 45       		.uleb128 0x45
 14077 5358 02       		.uleb128 0x2
 14078 5359 7D       		.byte	0x7d
 14079 535a 00       		.sleb128 0
 14080 535b 01       		.uleb128 0x1
 14081 535c 34       		.byte	0x34
 14082 535d 45       		.uleb128 0x45
 14083 535e 02       		.uleb128 0x2
 14084 535f 7D       		.byte	0x7d
ARM GAS  /tmp/ccJYnsep.s 			page 250


 14085 5360 04       		.sleb128 4
 14086 5361 02       		.uleb128 0x2
 14087 5362 79       		.byte	0x79
 14088 5363 00       		.sleb128 0
 14089 5364 00       		.byte	0
 14090 5365 00       		.byte	0
 14091 5366 00       		.byte	0
 14092 5367 67       		.uleb128 0x67
 14093 5368 C8440000 		.4byte	0x44c8
 14094 536c BA050000 		.4byte	.LBB246
 14095 5370 78020000 		.4byte	.Ldebug_ranges0+0x278
 14096 5374 01       		.byte	0x1
 14097 5375 5901     		.2byte	0x159
 14098 5377 66       		.uleb128 0x66
 14099 5378 09450000 		.4byte	0x4509
 14100 537c 41       		.uleb128 0x41
 14101 537d FE440000 		.4byte	0x44fe
 14102 5381 B8160000 		.4byte	.LLST115
 14103 5385 41       		.uleb128 0x41
 14104 5386 F3440000 		.4byte	0x44f3
 14105 538a D8160000 		.4byte	.LLST116
 14106 538e 41       		.uleb128 0x41
 14107 538f E8440000 		.4byte	0x44e8
 14108 5393 FC160000 		.4byte	.LLST117
 14109 5397 41       		.uleb128 0x41
 14110 5398 DD440000 		.4byte	0x44dd
 14111 539c 1A170000 		.4byte	.LLST118
 14112 53a0 41       		.uleb128 0x41
 14113 53a1 D4440000 		.4byte	0x44d4
 14114 53a5 3E170000 		.4byte	.LLST119
 14115 53a9 42       		.uleb128 0x42
 14116 53aa 78020000 		.4byte	.Ldebug_ranges0+0x278
 14117 53ae 61       		.uleb128 0x61
 14118 53af 14450000 		.4byte	0x4514
 14119 53b3 61       		.uleb128 0x61
 14120 53b4 1E450000 		.4byte	0x451e
 14121 53b8 46       		.uleb128 0x46
 14122 53b9 F6050000 		.4byte	.LVL259
 14123 53bd 0E4A0000 		.4byte	0x4a0e
 14124 53c1 45       		.uleb128 0x45
 14125 53c2 01       		.uleb128 0x1
 14126 53c3 50       		.byte	0x50
 14127 53c4 02       		.uleb128 0x2
 14128 53c5 74       		.byte	0x74
 14129 53c6 00       		.sleb128 0
 14130 53c7 45       		.uleb128 0x45
 14131 53c8 01       		.uleb128 0x1
 14132 53c9 51       		.byte	0x51
 14133 53ca 03       		.uleb128 0x3
 14134 53cb 41       		.byte	0x41
 14135 53cc 41       		.byte	0x41
 14136 53cd 24       		.byte	0x24
 14137 53ce 45       		.uleb128 0x45
 14138 53cf 01       		.uleb128 0x1
 14139 53d0 52       		.byte	0x52
 14140 53d1 02       		.uleb128 0x2
 14141 53d2 7A       		.byte	0x7a
ARM GAS  /tmp/ccJYnsep.s 			page 251


 14142 53d3 00       		.sleb128 0
 14143 53d4 45       		.uleb128 0x45
 14144 53d5 01       		.uleb128 0x1
 14145 53d6 53       		.byte	0x53
 14146 53d7 03       		.uleb128 0x3
 14147 53d8 40       		.byte	0x40
 14148 53d9 3D       		.byte	0x3d
 14149 53da 24       		.byte	0x24
 14150 53db 45       		.uleb128 0x45
 14151 53dc 02       		.uleb128 0x2
 14152 53dd 7D       		.byte	0x7d
 14153 53de 00       		.sleb128 0
 14154 53df 01       		.uleb128 0x1
 14155 53e0 35       		.byte	0x35
 14156 53e1 45       		.uleb128 0x45
 14157 53e2 02       		.uleb128 0x2
 14158 53e3 7D       		.byte	0x7d
 14159 53e4 04       		.sleb128 4
 14160 53e5 02       		.uleb128 0x2
 14161 53e6 79       		.byte	0x79
 14162 53e7 00       		.sleb128 0
 14163 53e8 00       		.byte	0
 14164 53e9 00       		.byte	0
 14165 53ea 00       		.byte	0
 14166 53eb 00       		.byte	0
 14167 53ec 5D       		.uleb128 0x5d
 14168 53ed 51430000 		.4byte	0x4351
 14169 53f1 90020000 		.4byte	.Ldebug_ranges0+0x290
 14170 53f5 A1570000 		.4byte	0x57a1
 14171 53f9 5F       		.uleb128 0x5f
 14172 53fa 56430000 		.4byte	0x4356
 14173 53fe 5C170000 		.4byte	.LLST120
 14174 5402 64       		.uleb128 0x64
 14175 5403 C8440000 		.4byte	0x44c8
 14176 5407 74020000 		.4byte	.LBB253
 14177 540b 1A000000 		.4byte	.LBE253-.LBB253
 14178 540f 01       		.byte	0x1
 14179 5410 4A01     		.2byte	0x14a
 14180 5412 7C540000 		.4byte	0x547c
 14181 5416 66       		.uleb128 0x66
 14182 5417 09450000 		.4byte	0x4509
 14183 541b 66       		.uleb128 0x66
 14184 541c FE440000 		.4byte	0x44fe
 14185 5420 66       		.uleb128 0x66
 14186 5421 F3440000 		.4byte	0x44f3
 14187 5425 66       		.uleb128 0x66
 14188 5426 E8440000 		.4byte	0x44e8
 14189 542a 66       		.uleb128 0x66
 14190 542b DD440000 		.4byte	0x44dd
 14191 542f 66       		.uleb128 0x66
 14192 5430 D4440000 		.4byte	0x44d4
 14193 5434 65       		.uleb128 0x65
 14194 5435 74020000 		.4byte	.LBB254
 14195 5439 1A000000 		.4byte	.LBE254-.LBB254
 14196 543d 61       		.uleb128 0x61
 14197 543e 14450000 		.4byte	0x4514
 14198 5442 61       		.uleb128 0x61
ARM GAS  /tmp/ccJYnsep.s 			page 252


 14199 5443 1E450000 		.4byte	0x451e
 14200 5447 46       		.uleb128 0x46
 14201 5448 8E020000 		.4byte	.LVL184
 14202 544c 0E4A0000 		.4byte	0x4a0e
 14203 5450 45       		.uleb128 0x45
 14204 5451 01       		.uleb128 0x1
 14205 5452 50       		.byte	0x50
 14206 5453 02       		.uleb128 0x2
 14207 5454 74       		.byte	0x74
 14208 5455 00       		.sleb128 0
 14209 5456 45       		.uleb128 0x45
 14210 5457 01       		.uleb128 0x1
 14211 5458 51       		.byte	0x51
 14212 5459 03       		.uleb128 0x3
 14213 545a 40       		.byte	0x40
 14214 545b 41       		.byte	0x41
 14215 545c 24       		.byte	0x24
 14216 545d 45       		.uleb128 0x45
 14217 545e 01       		.uleb128 0x1
 14218 545f 52       		.byte	0x52
 14219 5460 03       		.uleb128 0x3
 14220 5461 40       		.byte	0x40
 14221 5462 3D       		.byte	0x3d
 14222 5463 24       		.byte	0x24
 14223 5464 45       		.uleb128 0x45
 14224 5465 01       		.uleb128 0x1
 14225 5466 53       		.byte	0x53
 14226 5467 03       		.uleb128 0x3
 14227 5468 0A       		.byte	0xa
 14228 5469 0080     		.2byte	0x8000
 14229 546b 45       		.uleb128 0x45
 14230 546c 02       		.uleb128 0x2
 14231 546d 7D       		.byte	0x7d
 14232 546e 00       		.sleb128 0
 14233 546f 02       		.uleb128 0x2
 14234 5470 78       		.byte	0x78
 14235 5471 00       		.sleb128 0
 14236 5472 45       		.uleb128 0x45
 14237 5473 02       		.uleb128 0x2
 14238 5474 7D       		.byte	0x7d
 14239 5475 04       		.sleb128 4
 14240 5476 02       		.uleb128 0x2
 14241 5477 79       		.byte	0x79
 14242 5478 00       		.sleb128 0
 14243 5479 00       		.byte	0
 14244 547a 00       		.byte	0
 14245 547b 00       		.byte	0
 14246 547c 40       		.uleb128 0x40
 14247 547d C8440000 		.4byte	0x44c8
 14248 5481 8E020000 		.4byte	.LBB255
 14249 5485 A8020000 		.4byte	.Ldebug_ranges0+0x2a8
 14250 5489 01       		.byte	0x1
 14251 548a 4B01     		.2byte	0x14b
 14252 548c 06550000 		.4byte	0x5506
 14253 5490 66       		.uleb128 0x66
 14254 5491 09450000 		.4byte	0x4509
 14255 5495 41       		.uleb128 0x41
ARM GAS  /tmp/ccJYnsep.s 			page 253


 14256 5496 FE440000 		.4byte	0x44fe
 14257 549a 7A170000 		.4byte	.LLST121
 14258 549e 41       		.uleb128 0x41
 14259 549f F3440000 		.4byte	0x44f3
 14260 54a3 8E170000 		.4byte	.LLST122
 14261 54a7 41       		.uleb128 0x41
 14262 54a8 E8440000 		.4byte	0x44e8
 14263 54ac 8E170000 		.4byte	.LLST122
 14264 54b0 41       		.uleb128 0x41
 14265 54b1 DD440000 		.4byte	0x44dd
 14266 54b5 A4170000 		.4byte	.LLST124
 14267 54b9 41       		.uleb128 0x41
 14268 54ba D4440000 		.4byte	0x44d4
 14269 54be BA170000 		.4byte	.LLST125
 14270 54c2 42       		.uleb128 0x42
 14271 54c3 A8020000 		.4byte	.Ldebug_ranges0+0x2a8
 14272 54c7 61       		.uleb128 0x61
 14273 54c8 14450000 		.4byte	0x4514
 14274 54cc 61       		.uleb128 0x61
 14275 54cd 1E450000 		.4byte	0x451e
 14276 54d1 46       		.uleb128 0x46
 14277 54d2 A8020000 		.4byte	.LVL186
 14278 54d6 0E4A0000 		.4byte	0x4a0e
 14279 54da 45       		.uleb128 0x45
 14280 54db 01       		.uleb128 0x1
 14281 54dc 50       		.byte	0x50
 14282 54dd 02       		.uleb128 0x2
 14283 54de 74       		.byte	0x74
 14284 54df 00       		.sleb128 0
 14285 54e0 45       		.uleb128 0x45
 14286 54e1 01       		.uleb128 0x1
 14287 54e2 51       		.byte	0x51
 14288 54e3 03       		.uleb128 0x3
 14289 54e4 41       		.byte	0x41
 14290 54e5 41       		.byte	0x41
 14291 54e6 24       		.byte	0x24
 14292 54e7 45       		.uleb128 0x45
 14293 54e8 01       		.uleb128 0x1
 14294 54e9 52       		.byte	0x52
 14295 54ea 03       		.uleb128 0x3
 14296 54eb 40       		.byte	0x40
 14297 54ec 3D       		.byte	0x3d
 14298 54ed 24       		.byte	0x24
 14299 54ee 45       		.uleb128 0x45
 14300 54ef 01       		.uleb128 0x1
 14301 54f0 53       		.byte	0x53
 14302 54f1 03       		.uleb128 0x3
 14303 54f2 40       		.byte	0x40
 14304 54f3 3D       		.byte	0x3d
 14305 54f4 24       		.byte	0x24
 14306 54f5 45       		.uleb128 0x45
 14307 54f6 02       		.uleb128 0x2
 14308 54f7 7D       		.byte	0x7d
 14309 54f8 00       		.sleb128 0
 14310 54f9 02       		.uleb128 0x2
 14311 54fa 77       		.byte	0x77
 14312 54fb 00       		.sleb128 0
ARM GAS  /tmp/ccJYnsep.s 			page 254


 14313 54fc 45       		.uleb128 0x45
 14314 54fd 02       		.uleb128 0x2
 14315 54fe 7D       		.byte	0x7d
 14316 54ff 04       		.sleb128 4
 14317 5500 02       		.uleb128 0x2
 14318 5501 79       		.byte	0x79
 14319 5502 00       		.sleb128 0
 14320 5503 00       		.byte	0
 14321 5504 00       		.byte	0
 14322 5505 00       		.byte	0
 14323 5506 40       		.uleb128 0x40
 14324 5507 C8440000 		.4byte	0x44c8
 14325 550b A8020000 		.4byte	.LBB259
 14326 550f C0020000 		.4byte	.Ldebug_ranges0+0x2c0
 14327 5513 01       		.byte	0x1
 14328 5514 4C01     		.2byte	0x14c
 14329 5516 8F550000 		.4byte	0x558f
 14330 551a 66       		.uleb128 0x66
 14331 551b 09450000 		.4byte	0x4509
 14332 551f 41       		.uleb128 0x41
 14333 5520 FE440000 		.4byte	0x44fe
 14334 5524 CD170000 		.4byte	.LLST126
 14335 5528 41       		.uleb128 0x41
 14336 5529 F3440000 		.4byte	0x44f3
 14337 552d ED170000 		.4byte	.LLST127
 14338 5531 41       		.uleb128 0x41
 14339 5532 E8440000 		.4byte	0x44e8
 14340 5536 11180000 		.4byte	.LLST128
 14341 553a 41       		.uleb128 0x41
 14342 553b DD440000 		.4byte	0x44dd
 14343 553f 2F180000 		.4byte	.LLST129
 14344 5543 41       		.uleb128 0x41
 14345 5544 D4440000 		.4byte	0x44d4
 14346 5548 53180000 		.4byte	.LLST130
 14347 554c 42       		.uleb128 0x42
 14348 554d C0020000 		.4byte	.Ldebug_ranges0+0x2c0
 14349 5551 61       		.uleb128 0x61
 14350 5552 14450000 		.4byte	0x4514
 14351 5556 61       		.uleb128 0x61
 14352 5557 1E450000 		.4byte	0x451e
 14353 555b 46       		.uleb128 0x46
 14354 555c F4040000 		.4byte	.LVL241
 14355 5560 0E4A0000 		.4byte	0x4a0e
 14356 5564 45       		.uleb128 0x45
 14357 5565 01       		.uleb128 0x1
 14358 5566 50       		.byte	0x50
 14359 5567 02       		.uleb128 0x2
 14360 5568 74       		.byte	0x74
 14361 5569 00       		.sleb128 0
 14362 556a 45       		.uleb128 0x45
 14363 556b 01       		.uleb128 0x1
 14364 556c 51       		.byte	0x51
 14365 556d 03       		.uleb128 0x3
 14366 556e 42       		.byte	0x42
 14367 556f 41       		.byte	0x41
 14368 5570 24       		.byte	0x24
 14369 5571 45       		.uleb128 0x45
ARM GAS  /tmp/ccJYnsep.s 			page 255


 14370 5572 01       		.uleb128 0x1
 14371 5573 52       		.byte	0x52
 14372 5574 02       		.uleb128 0x2
 14373 5575 76       		.byte	0x76
 14374 5576 00       		.sleb128 0
 14375 5577 45       		.uleb128 0x45
 14376 5578 01       		.uleb128 0x1
 14377 5579 53       		.byte	0x53
 14378 557a 03       		.uleb128 0x3
 14379 557b 40       		.byte	0x40
 14380 557c 3E       		.byte	0x3e
 14381 557d 24       		.byte	0x24
 14382 557e 45       		.uleb128 0x45
 14383 557f 02       		.uleb128 0x2
 14384 5580 7D       		.byte	0x7d
 14385 5581 00       		.sleb128 0
 14386 5582 02       		.uleb128 0x2
 14387 5583 7A       		.byte	0x7a
 14388 5584 00       		.sleb128 0
 14389 5585 45       		.uleb128 0x45
 14390 5586 02       		.uleb128 0x2
 14391 5587 7D       		.byte	0x7d
 14392 5588 04       		.sleb128 4
 14393 5589 02       		.uleb128 0x2
 14394 558a 79       		.byte	0x79
 14395 558b 00       		.sleb128 0
 14396 558c 00       		.byte	0
 14397 558d 00       		.byte	0
 14398 558e 00       		.byte	0
 14399 558f 40       		.uleb128 0x40
 14400 5590 C8440000 		.4byte	0x44c8
 14401 5594 AE020000 		.4byte	.LBB262
 14402 5598 D8020000 		.4byte	.Ldebug_ranges0+0x2d8
 14403 559c 01       		.byte	0x1
 14404 559d 4D01     		.2byte	0x14d
 14405 559f 50560000 		.4byte	0x5650
 14406 55a3 66       		.uleb128 0x66
 14407 55a4 09450000 		.4byte	0x4509
 14408 55a8 41       		.uleb128 0x41
 14409 55a9 FE440000 		.4byte	0x44fe
 14410 55ad 71180000 		.4byte	.LLST131
 14411 55b1 41       		.uleb128 0x41
 14412 55b2 F3440000 		.4byte	0x44f3
 14413 55b6 91180000 		.4byte	.LLST132
 14414 55ba 41       		.uleb128 0x41
 14415 55bb E8440000 		.4byte	0x44e8
 14416 55bf B5180000 		.4byte	.LLST133
 14417 55c3 41       		.uleb128 0x41
 14418 55c4 DD440000 		.4byte	0x44dd
 14419 55c8 D9180000 		.4byte	.LLST134
 14420 55cc 41       		.uleb128 0x41
 14421 55cd D4440000 		.4byte	0x44d4
 14422 55d1 FD180000 		.4byte	.LLST135
 14423 55d5 42       		.uleb128 0x42
 14424 55d6 D8020000 		.4byte	.Ldebug_ranges0+0x2d8
 14425 55da 61       		.uleb128 0x61
 14426 55db 14450000 		.4byte	0x4514
ARM GAS  /tmp/ccJYnsep.s 			page 256


 14427 55df 61       		.uleb128 0x61
 14428 55e0 1E450000 		.4byte	0x451e
 14429 55e4 44       		.uleb128 0x44
 14430 55e5 C4020000 		.4byte	.LVL188
 14431 55e9 0E4A0000 		.4byte	0x4a0e
 14432 55ed 1B560000 		.4byte	0x561b
 14433 55f1 45       		.uleb128 0x45
 14434 55f2 01       		.uleb128 0x1
 14435 55f3 50       		.byte	0x50
 14436 55f4 02       		.uleb128 0x2
 14437 55f5 74       		.byte	0x74
 14438 55f6 00       		.sleb128 0
 14439 55f7 45       		.uleb128 0x45
 14440 55f8 01       		.uleb128 0x1
 14441 55f9 51       		.byte	0x51
 14442 55fa 03       		.uleb128 0x3
 14443 55fb 40       		.byte	0x40
 14444 55fc 47       		.byte	0x47
 14445 55fd 24       		.byte	0x24
 14446 55fe 45       		.uleb128 0x45
 14447 55ff 01       		.uleb128 0x1
 14448 5600 52       		.byte	0x52
 14449 5601 03       		.uleb128 0x3
 14450 5602 40       		.byte	0x40
 14451 5603 3D       		.byte	0x3d
 14452 5604 24       		.byte	0x24
 14453 5605 45       		.uleb128 0x45
 14454 5606 01       		.uleb128 0x1
 14455 5607 53       		.byte	0x53
 14456 5608 03       		.uleb128 0x3
 14457 5609 0A       		.byte	0xa
 14458 560a 0080     		.2byte	0x8000
 14459 560c 45       		.uleb128 0x45
 14460 560d 02       		.uleb128 0x2
 14461 560e 7D       		.byte	0x7d
 14462 560f 00       		.sleb128 0
 14463 5610 02       		.uleb128 0x2
 14464 5611 76       		.byte	0x76
 14465 5612 00       		.sleb128 0
 14466 5613 45       		.uleb128 0x45
 14467 5614 02       		.uleb128 0x2
 14468 5615 7D       		.byte	0x7d
 14469 5616 04       		.sleb128 4
 14470 5617 02       		.uleb128 0x2
 14471 5618 79       		.byte	0x79
 14472 5619 00       		.sleb128 0
 14473 561a 00       		.byte	0
 14474 561b 46       		.uleb128 0x46
 14475 561c 0A050000 		.4byte	.LVL242
 14476 5620 0E4A0000 		.4byte	0x4a0e
 14477 5624 45       		.uleb128 0x45
 14478 5625 01       		.uleb128 0x1
 14479 5626 50       		.byte	0x50
 14480 5627 02       		.uleb128 0x2
 14481 5628 74       		.byte	0x74
 14482 5629 00       		.sleb128 0
 14483 562a 45       		.uleb128 0x45
ARM GAS  /tmp/ccJYnsep.s 			page 257


 14484 562b 01       		.uleb128 0x1
 14485 562c 51       		.byte	0x51
 14486 562d 03       		.uleb128 0x3
 14487 562e 40       		.byte	0x40
 14488 562f 47       		.byte	0x47
 14489 5630 24       		.byte	0x24
 14490 5631 45       		.uleb128 0x45
 14491 5632 01       		.uleb128 0x1
 14492 5633 52       		.byte	0x52
 14493 5634 03       		.uleb128 0x3
 14494 5635 40       		.byte	0x40
 14495 5636 3D       		.byte	0x3d
 14496 5637 24       		.byte	0x24
 14497 5638 45       		.uleb128 0x45
 14498 5639 01       		.uleb128 0x1
 14499 563a 53       		.byte	0x53
 14500 563b 03       		.uleb128 0x3
 14501 563c 0A       		.byte	0xa
 14502 563d 0080     		.2byte	0x8000
 14503 563f 45       		.uleb128 0x45
 14504 5640 02       		.uleb128 0x2
 14505 5641 7D       		.byte	0x7d
 14506 5642 00       		.sleb128 0
 14507 5643 02       		.uleb128 0x2
 14508 5644 78       		.byte	0x78
 14509 5645 00       		.sleb128 0
 14510 5646 45       		.uleb128 0x45
 14511 5647 02       		.uleb128 0x2
 14512 5648 7D       		.byte	0x7d
 14513 5649 04       		.sleb128 4
 14514 564a 02       		.uleb128 0x2
 14515 564b 79       		.byte	0x79
 14516 564c 00       		.sleb128 0
 14517 564d 00       		.byte	0
 14518 564e 00       		.byte	0
 14519 564f 00       		.byte	0
 14520 5650 40       		.uleb128 0x40
 14521 5651 C8440000 		.4byte	0x44c8
 14522 5655 C4020000 		.4byte	.LBB265
 14523 5659 F0020000 		.4byte	.Ldebug_ranges0+0x2f0
 14524 565d 01       		.byte	0x1
 14525 565e 4E01     		.2byte	0x14e
 14526 5660 15570000 		.4byte	0x5715
 14527 5664 66       		.uleb128 0x66
 14528 5665 09450000 		.4byte	0x4509
 14529 5669 41       		.uleb128 0x41
 14530 566a FE440000 		.4byte	0x44fe
 14531 566e 1B190000 		.4byte	.LLST136
 14532 5672 41       		.uleb128 0x41
 14533 5673 F3440000 		.4byte	0x44f3
 14534 5677 3B190000 		.4byte	.LLST137
 14535 567b 41       		.uleb128 0x41
 14536 567c E8440000 		.4byte	0x44e8
 14537 5680 3B190000 		.4byte	.LLST137
 14538 5684 41       		.uleb128 0x41
 14539 5685 DD440000 		.4byte	0x44dd
 14540 5689 5F190000 		.4byte	.LLST139
ARM GAS  /tmp/ccJYnsep.s 			page 258


 14541 568d 41       		.uleb128 0x41
 14542 568e D4440000 		.4byte	0x44d4
 14543 5692 87190000 		.4byte	.LLST140
 14544 5696 42       		.uleb128 0x42
 14545 5697 F0020000 		.4byte	.Ldebug_ranges0+0x2f0
 14546 569b 61       		.uleb128 0x61
 14547 569c 14450000 		.4byte	0x4514
 14548 56a0 61       		.uleb128 0x61
 14549 56a1 1E450000 		.4byte	0x451e
 14550 56a5 44       		.uleb128 0x44
 14551 56a6 D6020000 		.4byte	.LVL189
 14552 56aa 0E4A0000 		.4byte	0x4a0e
 14553 56ae DE560000 		.4byte	0x56de
 14554 56b2 45       		.uleb128 0x45
 14555 56b3 01       		.uleb128 0x1
 14556 56b4 50       		.byte	0x50
 14557 56b5 02       		.uleb128 0x2
 14558 56b6 74       		.byte	0x74
 14559 56b7 00       		.sleb128 0
 14560 56b8 45       		.uleb128 0x45
 14561 56b9 01       		.uleb128 0x1
 14562 56ba 51       		.byte	0x51
 14563 56bb 05       		.uleb128 0x5
 14564 56bc 0C       		.byte	0xc
 14565 56bd 00000208 		.4byte	0x8020000
 14566 56c1 45       		.uleb128 0x45
 14567 56c2 01       		.uleb128 0x1
 14568 56c3 52       		.byte	0x52
 14569 56c4 03       		.uleb128 0x3
 14570 56c5 40       		.byte	0x40
 14571 56c6 3D       		.byte	0x3d
 14572 56c7 24       		.byte	0x24
 14573 56c8 45       		.uleb128 0x45
 14574 56c9 01       		.uleb128 0x1
 14575 56ca 53       		.byte	0x53
 14576 56cb 03       		.uleb128 0x3
 14577 56cc 40       		.byte	0x40
 14578 56cd 3D       		.byte	0x3d
 14579 56ce 24       		.byte	0x24
 14580 56cf 45       		.uleb128 0x45
 14581 56d0 02       		.uleb128 0x2
 14582 56d1 7D       		.byte	0x7d
 14583 56d2 00       		.sleb128 0
 14584 56d3 02       		.uleb128 0x2
 14585 56d4 77       		.byte	0x77
 14586 56d5 00       		.sleb128 0
 14587 56d6 45       		.uleb128 0x45
 14588 56d7 02       		.uleb128 0x2
 14589 56d8 7D       		.byte	0x7d
 14590 56d9 04       		.sleb128 4
 14591 56da 02       		.uleb128 0x2
 14592 56db 79       		.byte	0x79
 14593 56dc 00       		.sleb128 0
 14594 56dd 00       		.byte	0
 14595 56de 46       		.uleb128 0x46
 14596 56df 1C050000 		.4byte	.LVL243
 14597 56e3 0E4A0000 		.4byte	0x4a0e
ARM GAS  /tmp/ccJYnsep.s 			page 259


 14598 56e7 45       		.uleb128 0x45
 14599 56e8 01       		.uleb128 0x1
 14600 56e9 50       		.byte	0x50
 14601 56ea 02       		.uleb128 0x2
 14602 56eb 74       		.byte	0x74
 14603 56ec 00       		.sleb128 0
 14604 56ed 45       		.uleb128 0x45
 14605 56ee 01       		.uleb128 0x1
 14606 56ef 51       		.byte	0x51
 14607 56f0 05       		.uleb128 0x5
 14608 56f1 0C       		.byte	0xc
 14609 56f2 00000208 		.4byte	0x8020000
 14610 56f6 45       		.uleb128 0x45
 14611 56f7 01       		.uleb128 0x1
 14612 56f8 52       		.byte	0x52
 14613 56f9 03       		.uleb128 0x3
 14614 56fa 40       		.byte	0x40
 14615 56fb 3D       		.byte	0x3d
 14616 56fc 24       		.byte	0x24
 14617 56fd 45       		.uleb128 0x45
 14618 56fe 01       		.uleb128 0x1
 14619 56ff 53       		.byte	0x53
 14620 5700 03       		.uleb128 0x3
 14621 5701 40       		.byte	0x40
 14622 5702 3D       		.byte	0x3d
 14623 5703 24       		.byte	0x24
 14624 5704 45       		.uleb128 0x45
 14625 5705 02       		.uleb128 0x2
 14626 5706 7D       		.byte	0x7d
 14627 5707 00       		.sleb128 0
 14628 5708 02       		.uleb128 0x2
 14629 5709 77       		.byte	0x77
 14630 570a 00       		.sleb128 0
 14631 570b 45       		.uleb128 0x45
 14632 570c 02       		.uleb128 0x2
 14633 570d 7D       		.byte	0x7d
 14634 570e 04       		.sleb128 4
 14635 570f 02       		.uleb128 0x2
 14636 5710 79       		.byte	0x79
 14637 5711 00       		.sleb128 0
 14638 5712 00       		.byte	0
 14639 5713 00       		.byte	0
 14640 5714 00       		.byte	0
 14641 5715 68       		.uleb128 0x68
 14642 5716 C8440000 		.4byte	0x44c8
 14643 571a 1C050000 		.4byte	.LBB271
 14644 571e 14000000 		.4byte	.LBE271-.LBB271
 14645 5722 01       		.byte	0x1
 14646 5723 4F01     		.2byte	0x14f
 14647 5725 66       		.uleb128 0x66
 14648 5726 09450000 		.4byte	0x4509
 14649 572a 41       		.uleb128 0x41
 14650 572b FE440000 		.4byte	0x44fe
 14651 572f A5190000 		.4byte	.LLST141
 14652 5733 41       		.uleb128 0x41
 14653 5734 F3440000 		.4byte	0x44f3
 14654 5738 C5190000 		.4byte	.LLST142
ARM GAS  /tmp/ccJYnsep.s 			page 260


 14655 573c 41       		.uleb128 0x41
 14656 573d E8440000 		.4byte	0x44e8
 14657 5741 E9190000 		.4byte	.LLST143
 14658 5745 41       		.uleb128 0x41
 14659 5746 DD440000 		.4byte	0x44dd
 14660 574a 081A0000 		.4byte	.LLST144
 14661 574e 41       		.uleb128 0x41
 14662 574f D4440000 		.4byte	0x44d4
 14663 5753 301A0000 		.4byte	.LLST145
 14664 5757 65       		.uleb128 0x65
 14665 5758 1C050000 		.4byte	.LBB272
 14666 575c 14000000 		.4byte	.LBE272-.LBB272
 14667 5760 61       		.uleb128 0x61
 14668 5761 14450000 		.4byte	0x4514
 14669 5765 61       		.uleb128 0x61
 14670 5766 1E450000 		.4byte	0x451e
 14671 576a 46       		.uleb128 0x46
 14672 576b 2E050000 		.4byte	.LVL244
 14673 576f 0E4A0000 		.4byte	0x4a0e
 14674 5773 45       		.uleb128 0x45
 14675 5774 01       		.uleb128 0x1
 14676 5775 50       		.byte	0x50
 14677 5776 02       		.uleb128 0x2
 14678 5777 74       		.byte	0x74
 14679 5778 00       		.sleb128 0
 14680 5779 45       		.uleb128 0x45
 14681 577a 01       		.uleb128 0x1
 14682 577b 51       		.byte	0x51
 14683 577c 05       		.uleb128 0x5
 14684 577d 0C       		.byte	0xc
 14685 577e 00000408 		.4byte	0x8040000
 14686 5782 45       		.uleb128 0x45
 14687 5783 01       		.uleb128 0x1
 14688 5784 52       		.byte	0x52
 14689 5785 02       		.uleb128 0x2
 14690 5786 76       		.byte	0x76
 14691 5787 00       		.sleb128 0
 14692 5788 45       		.uleb128 0x45
 14693 5789 01       		.uleb128 0x1
 14694 578a 53       		.byte	0x53
 14695 578b 03       		.uleb128 0x3
 14696 578c 40       		.byte	0x40
 14697 578d 3E       		.byte	0x3e
 14698 578e 24       		.byte	0x24
 14699 578f 45       		.uleb128 0x45
 14700 5790 02       		.uleb128 0x2
 14701 5791 7D       		.byte	0x7d
 14702 5792 00       		.sleb128 0
 14703 5793 02       		.uleb128 0x2
 14704 5794 7A       		.byte	0x7a
 14705 5795 00       		.sleb128 0
 14706 5796 45       		.uleb128 0x45
 14707 5797 02       		.uleb128 0x2
 14708 5798 7D       		.byte	0x7d
 14709 5799 04       		.sleb128 4
 14710 579a 02       		.uleb128 0x2
 14711 579b 79       		.byte	0x79
ARM GAS  /tmp/ccJYnsep.s 			page 261


 14712 579c 00       		.sleb128 0
 14713 579d 00       		.byte	0
 14714 579e 00       		.byte	0
 14715 579f 00       		.byte	0
 14716 57a0 00       		.byte	0
 14717 57a1 60       		.uleb128 0x60
 14718 57a2 2D430000 		.4byte	0x432d
 14719 57a6 28030000 		.4byte	.LBB273
 14720 57aa 12000000 		.4byte	.LBE273-.LBB273
 14721 57ae D5570000 		.4byte	0x57d5
 14722 57b2 5F       		.uleb128 0x5f
 14723 57b3 32430000 		.4byte	0x4332
 14724 57b7 4E1A0000 		.4byte	.LLST146
 14725 57bb 46       		.uleb128 0x46
 14726 57bc 30030000 		.4byte	.LVL199
 14727 57c0 105C0000 		.4byte	0x5c10
 14728 57c4 45       		.uleb128 0x45
 14729 57c5 01       		.uleb128 0x1
 14730 57c6 50       		.byte	0x50
 14731 57c7 02       		.uleb128 0x2
 14732 57c8 74       		.byte	0x74
 14733 57c9 00       		.sleb128 0
 14734 57ca 45       		.uleb128 0x45
 14735 57cb 01       		.uleb128 0x1
 14736 57cc 51       		.byte	0x51
 14737 57cd 05       		.uleb128 0x5
 14738 57ce 0C       		.byte	0xc
 14739 57cf 143C0240 		.4byte	0x40023c14
 14740 57d3 00       		.byte	0
 14741 57d4 00       		.byte	0
 14742 57d5 60       		.uleb128 0x60
 14743 57d6 3F430000 		.4byte	0x433f
 14744 57da A8040000 		.4byte	.LBB275
 14745 57de 16000000 		.4byte	.LBE275-.LBB275
 14746 57e2 09580000 		.4byte	0x5809
 14747 57e6 5F       		.uleb128 0x5f
 14748 57e7 44430000 		.4byte	0x4344
 14749 57eb 721A0000 		.4byte	.LLST147
 14750 57ef 46       		.uleb128 0x46
 14751 57f0 B0040000 		.4byte	.LVL234
 14752 57f4 105C0000 		.4byte	0x5c10
 14753 57f8 45       		.uleb128 0x45
 14754 57f9 01       		.uleb128 0x1
 14755 57fa 50       		.byte	0x50
 14756 57fb 02       		.uleb128 0x2
 14757 57fc 74       		.byte	0x74
 14758 57fd 00       		.sleb128 0
 14759 57fe 45       		.uleb128 0x45
 14760 57ff 01       		.uleb128 0x1
 14761 5800 51       		.byte	0x51
 14762 5801 05       		.uleb128 0x5
 14763 5802 0C       		.byte	0xc
 14764 5803 143C0240 		.4byte	0x40023c14
 14765 5807 00       		.byte	0
 14766 5808 00       		.byte	0
 14767 5809 44       		.uleb128 0x44
 14768 580a D2000000 		.4byte	.LVL145
ARM GAS  /tmp/ccJYnsep.s 			page 262


 14769 580e 945C0000 		.4byte	0x5c94
 14770 5812 1D580000 		.4byte	0x581d
 14771 5816 45       		.uleb128 0x45
 14772 5817 01       		.uleb128 0x1
 14773 5818 50       		.byte	0x50
 14774 5819 02       		.uleb128 0x2
 14775 581a 74       		.byte	0x74
 14776 581b 00       		.sleb128 0
 14777 581c 00       		.byte	0
 14778 581d 44       		.uleb128 0x44
 14779 581e DA000000 		.4byte	.LVL146
 14780 5822 105C0000 		.4byte	0x5c10
 14781 5826 3A580000 		.4byte	0x583a
 14782 582a 45       		.uleb128 0x45
 14783 582b 01       		.uleb128 0x1
 14784 582c 50       		.byte	0x50
 14785 582d 02       		.uleb128 0x2
 14786 582e 74       		.byte	0x74
 14787 582f 00       		.sleb128 0
 14788 5830 45       		.uleb128 0x45
 14789 5831 01       		.uleb128 0x1
 14790 5832 51       		.byte	0x51
 14791 5833 05       		.uleb128 0x5
 14792 5834 0C       		.byte	0xc
 14793 5835 227AFF1F 		.4byte	0x1fff7a22
 14794 5839 00       		.byte	0
 14795 583a 44       		.uleb128 0x44
 14796 583b EA000000 		.4byte	.LVL148
 14797 583f 9F5C0000 		.4byte	0x5c9f
 14798 5843 5C580000 		.4byte	0x585c
 14799 5847 45       		.uleb128 0x45
 14800 5848 01       		.uleb128 0x1
 14801 5849 50       		.byte	0x50
 14802 584a 02       		.uleb128 0x2
 14803 584b 74       		.byte	0x74
 14804 584c 00       		.sleb128 0
 14805 584d 45       		.uleb128 0x45
 14806 584e 01       		.uleb128 0x1
 14807 584f 51       		.byte	0x51
 14808 5850 03       		.uleb128 0x3
 14809 5851 40       		.byte	0x40
 14810 5852 48       		.byte	0x48
 14811 5853 24       		.byte	0x24
 14812 5854 45       		.uleb128 0x45
 14813 5855 01       		.uleb128 0x1
 14814 5856 52       		.byte	0x52
 14815 5857 03       		.uleb128 0x3
 14816 5858 40       		.byte	0x40
 14817 5859 3C       		.byte	0x3c
 14818 585a 24       		.byte	0x24
 14819 585b 00       		.byte	0
 14820 585c 44       		.uleb128 0x44
 14821 585d F8000000 		.4byte	.LVL149
 14822 5861 9F5C0000 		.4byte	0x5c9f
 14823 5865 7E580000 		.4byte	0x587e
 14824 5869 45       		.uleb128 0x45
 14825 586a 01       		.uleb128 0x1
ARM GAS  /tmp/ccJYnsep.s 			page 263


 14826 586b 50       		.byte	0x50
 14827 586c 02       		.uleb128 0x2
 14828 586d 74       		.byte	0x74
 14829 586e 00       		.sleb128 0
 14830 586f 45       		.uleb128 0x45
 14831 5870 01       		.uleb128 0x1
 14832 5871 51       		.byte	0x51
 14833 5872 03       		.uleb128 0x3
 14834 5873 40       		.byte	0x40
 14835 5874 49       		.byte	0x49
 14836 5875 24       		.byte	0x24
 14837 5876 45       		.uleb128 0x45
 14838 5877 01       		.uleb128 0x1
 14839 5878 52       		.byte	0x52
 14840 5879 03       		.uleb128 0x3
 14841 587a 44       		.byte	0x44
 14842 587b 3E       		.byte	0x3e
 14843 587c 24       		.byte	0x24
 14844 587d 00       		.byte	0
 14845 587e 44       		.uleb128 0x44
 14846 587f BC010000 		.4byte	.LVL163
 14847 5883 945C0000 		.4byte	0x5c94
 14848 5887 92580000 		.4byte	0x5892
 14849 588b 45       		.uleb128 0x45
 14850 588c 01       		.uleb128 0x1
 14851 588d 50       		.byte	0x50
 14852 588e 02       		.uleb128 0x2
 14853 588f 74       		.byte	0x74
 14854 5890 00       		.sleb128 0
 14855 5891 00       		.byte	0
 14856 5892 44       		.uleb128 0x44
 14857 5893 C4010000 		.4byte	.LVL164
 14858 5897 105C0000 		.4byte	0x5c10
 14859 589b AF580000 		.4byte	0x58af
 14860 589f 45       		.uleb128 0x45
 14861 58a0 01       		.uleb128 0x1
 14862 58a1 50       		.byte	0x50
 14863 58a2 02       		.uleb128 0x2
 14864 58a3 74       		.byte	0x74
 14865 58a4 00       		.sleb128 0
 14866 58a5 45       		.uleb128 0x45
 14867 58a6 01       		.uleb128 0x1
 14868 58a7 51       		.byte	0x51
 14869 58a8 05       		.uleb128 0x5
 14870 58a9 0C       		.byte	0xc
 14871 58aa 227AFF1F 		.4byte	0x1fff7a22
 14872 58ae 00       		.byte	0
 14873 58af 44       		.uleb128 0x44
 14874 58b0 D4010000 		.4byte	.LVL166
 14875 58b4 9F5C0000 		.4byte	0x5c9f
 14876 58b8 D1580000 		.4byte	0x58d1
 14877 58bc 45       		.uleb128 0x45
 14878 58bd 01       		.uleb128 0x1
 14879 58be 50       		.byte	0x50
 14880 58bf 02       		.uleb128 0x2
 14881 58c0 74       		.byte	0x74
 14882 58c1 00       		.sleb128 0
ARM GAS  /tmp/ccJYnsep.s 			page 264


 14883 58c2 45       		.uleb128 0x45
 14884 58c3 01       		.uleb128 0x1
 14885 58c4 51       		.byte	0x51
 14886 58c5 03       		.uleb128 0x3
 14887 58c6 40       		.byte	0x40
 14888 58c7 48       		.byte	0x48
 14889 58c8 24       		.byte	0x24
 14890 58c9 45       		.uleb128 0x45
 14891 58ca 01       		.uleb128 0x1
 14892 58cb 52       		.byte	0x52
 14893 58cc 03       		.uleb128 0x3
 14894 58cd 40       		.byte	0x40
 14895 58ce 3C       		.byte	0x3c
 14896 58cf 24       		.byte	0x24
 14897 58d0 00       		.byte	0
 14898 58d1 44       		.uleb128 0x44
 14899 58d2 E2010000 		.4byte	.LVL167
 14900 58d6 9F5C0000 		.4byte	0x5c9f
 14901 58da F3580000 		.4byte	0x58f3
 14902 58de 45       		.uleb128 0x45
 14903 58df 01       		.uleb128 0x1
 14904 58e0 50       		.byte	0x50
 14905 58e1 02       		.uleb128 0x2
 14906 58e2 74       		.byte	0x74
 14907 58e3 00       		.sleb128 0
 14908 58e4 45       		.uleb128 0x45
 14909 58e5 01       		.uleb128 0x1
 14910 58e6 51       		.byte	0x51
 14911 58e7 03       		.uleb128 0x3
 14912 58e8 40       		.byte	0x40
 14913 58e9 49       		.byte	0x49
 14914 58ea 24       		.byte	0x24
 14915 58eb 45       		.uleb128 0x45
 14916 58ec 01       		.uleb128 0x1
 14917 58ed 52       		.byte	0x52
 14918 58ee 03       		.uleb128 0x3
 14919 58ef 44       		.byte	0x44
 14920 58f0 3E       		.byte	0x3e
 14921 58f1 24       		.byte	0x24
 14922 58f2 00       		.byte	0
 14923 58f3 44       		.uleb128 0x44
 14924 58f4 26020000 		.4byte	.LVL174
 14925 58f8 945C0000 		.4byte	0x5c94
 14926 58fc 07590000 		.4byte	0x5907
 14927 5900 45       		.uleb128 0x45
 14928 5901 01       		.uleb128 0x1
 14929 5902 50       		.byte	0x50
 14930 5903 02       		.uleb128 0x2
 14931 5904 74       		.byte	0x74
 14932 5905 00       		.sleb128 0
 14933 5906 00       		.byte	0
 14934 5907 44       		.uleb128 0x44
 14935 5908 30020000 		.4byte	.LVL175
 14936 590c 105C0000 		.4byte	0x5c10
 14937 5910 24590000 		.4byte	0x5924
 14938 5914 45       		.uleb128 0x45
 14939 5915 01       		.uleb128 0x1
ARM GAS  /tmp/ccJYnsep.s 			page 265


 14940 5916 50       		.byte	0x50
 14941 5917 02       		.uleb128 0x2
 14942 5918 74       		.byte	0x74
 14943 5919 00       		.sleb128 0
 14944 591a 45       		.uleb128 0x45
 14945 591b 01       		.uleb128 0x1
 14946 591c 51       		.byte	0x51
 14947 591d 05       		.uleb128 0x5
 14948 591e 0C       		.byte	0xc
 14949 591f 42F4F01F 		.4byte	0x1ff0f442
 14950 5923 00       		.byte	0
 14951 5924 44       		.uleb128 0x44
 14952 5925 3A020000 		.4byte	.LVL178
 14953 5929 105C0000 		.4byte	0x5c10
 14954 592d 42590000 		.4byte	0x5942
 14955 5931 45       		.uleb128 0x45
 14956 5932 01       		.uleb128 0x1
 14957 5933 50       		.byte	0x50
 14958 5934 02       		.uleb128 0x2
 14959 5935 74       		.byte	0x74
 14960 5936 00       		.sleb128 0
 14961 5937 45       		.uleb128 0x45
 14962 5938 01       		.uleb128 0x1
 14963 5939 51       		.byte	0x51
 14964 593a 06       		.uleb128 0x6
 14965 593b 11       		.byte	0x11
 14966 593c 84C09080 		.sleb128 -536600572
 14966      7E
 14967 5941 00       		.byte	0
 14968 5942 44       		.uleb128 0x44
 14969 5943 46020000 		.4byte	.LVL179
 14970 5947 265C0000 		.4byte	0x5c26
 14971 594b 65590000 		.4byte	0x5965
 14972 594f 45       		.uleb128 0x45
 14973 5950 01       		.uleb128 0x1
 14974 5951 50       		.byte	0x50
 14975 5952 02       		.uleb128 0x2
 14976 5953 74       		.byte	0x74
 14977 5954 00       		.sleb128 0
 14978 5955 45       		.uleb128 0x45
 14979 5956 01       		.uleb128 0x1
 14980 5957 51       		.byte	0x51
 14981 5958 06       		.uleb128 0x6
 14982 5959 11       		.byte	0x11
 14983 595a 84C09080 		.sleb128 -536600572
 14983      7E
 14984 595f 45       		.uleb128 0x45
 14985 5960 01       		.uleb128 0x1
 14986 5961 52       		.byte	0x52
 14987 5962 01       		.uleb128 0x1
 14988 5963 31       		.byte	0x31
 14989 5964 00       		.byte	0
 14990 5965 44       		.uleb128 0x44
 14991 5966 52020000 		.4byte	.LVL180
 14992 596a 9F5C0000 		.4byte	0x5c9f
 14993 596e 85590000 		.4byte	0x5985
 14994 5972 45       		.uleb128 0x45
ARM GAS  /tmp/ccJYnsep.s 			page 266


 14995 5973 01       		.uleb128 0x1
 14996 5974 50       		.byte	0x50
 14997 5975 02       		.uleb128 0x2
 14998 5976 74       		.byte	0x74
 14999 5977 00       		.sleb128 0
 15000 5978 45       		.uleb128 0x45
 15001 5979 01       		.uleb128 0x1
 15002 597a 51       		.byte	0x51
 15003 597b 01       		.uleb128 0x1
 15004 597c 30       		.byte	0x30
 15005 597d 45       		.uleb128 0x45
 15006 597e 01       		.uleb128 0x1
 15007 597f 52       		.byte	0x52
 15008 5980 03       		.uleb128 0x3
 15009 5981 0A       		.byte	0xa
 15010 5982 0040     		.2byte	0x4000
 15011 5984 00       		.byte	0
 15012 5985 44       		.uleb128 0x44
 15013 5986 60020000 		.4byte	.LVL181
 15014 598a 9F5C0000 		.4byte	0x5c9f
 15015 598e A7590000 		.4byte	0x59a7
 15016 5992 45       		.uleb128 0x45
 15017 5993 01       		.uleb128 0x1
 15018 5994 50       		.byte	0x50
 15019 5995 02       		.uleb128 0x2
 15020 5996 74       		.byte	0x74
 15021 5997 00       		.sleb128 0
 15022 5998 45       		.uleb128 0x45
 15023 5999 01       		.uleb128 0x1
 15024 599a 51       		.byte	0x51
 15025 599b 03       		.uleb128 0x3
 15026 599c 40       		.byte	0x40
 15027 599d 49       		.byte	0x49
 15028 599e 24       		.byte	0x24
 15029 599f 45       		.uleb128 0x45
 15030 59a0 01       		.uleb128 0x1
 15031 59a1 52       		.byte	0x52
 15032 59a2 03       		.uleb128 0x3
 15033 59a3 40       		.byte	0x40
 15034 59a4 3D       		.byte	0x3d
 15035 59a5 24       		.byte	0x24
 15036 59a6 00       		.byte	0
 15037 59a7 44       		.uleb128 0x44
 15038 59a8 6C020000 		.4byte	.LVL182
 15039 59ac 9F5C0000 		.4byte	0x5c9f
 15040 59b0 CB590000 		.4byte	0x59cb
 15041 59b4 45       		.uleb128 0x45
 15042 59b5 01       		.uleb128 0x1
 15043 59b6 50       		.byte	0x50
 15044 59b7 02       		.uleb128 0x2
 15045 59b8 74       		.byte	0x74
 15046 59b9 00       		.sleb128 0
 15047 59ba 45       		.uleb128 0x45
 15048 59bb 01       		.uleb128 0x1
 15049 59bc 51       		.byte	0x51
 15050 59bd 05       		.uleb128 0x5
 15051 59be 0C       		.byte	0xc
ARM GAS  /tmp/ccJYnsep.s 			page 267


 15052 59bf 00000220 		.4byte	0x20020000
 15053 59c3 45       		.uleb128 0x45
 15054 59c4 01       		.uleb128 0x1
 15055 59c5 52       		.byte	0x52
 15056 59c6 03       		.uleb128 0x3
 15057 59c7 48       		.byte	0x48
 15058 59c8 3E       		.byte	0x3e
 15059 59c9 24       		.byte	0x24
 15060 59ca 00       		.byte	0
 15061 59cb 44       		.uleb128 0x44
 15062 59cc E4020000 		.4byte	.LVL191
 15063 59d0 945C0000 		.4byte	0x5c94
 15064 59d4 DF590000 		.4byte	0x59df
 15065 59d8 45       		.uleb128 0x45
 15066 59d9 01       		.uleb128 0x1
 15067 59da 50       		.byte	0x50
 15068 59db 02       		.uleb128 0x2
 15069 59dc 74       		.byte	0x74
 15070 59dd 00       		.sleb128 0
 15071 59de 00       		.byte	0
 15072 59df 44       		.uleb128 0x44
 15073 59e0 EC020000 		.4byte	.LVL192
 15074 59e4 105C0000 		.4byte	0x5c10
 15075 59e8 FC590000 		.4byte	0x59fc
 15076 59ec 45       		.uleb128 0x45
 15077 59ed 01       		.uleb128 0x1
 15078 59ee 50       		.byte	0x50
 15079 59ef 02       		.uleb128 0x2
 15080 59f0 74       		.byte	0x74
 15081 59f1 00       		.sleb128 0
 15082 59f2 45       		.uleb128 0x45
 15083 59f3 01       		.uleb128 0x1
 15084 59f4 51       		.byte	0x51
 15085 59f5 05       		.uleb128 0x5
 15086 59f6 0C       		.byte	0xc
 15087 59f7 42F4F01F 		.4byte	0x1ff0f442
 15088 59fb 00       		.byte	0
 15089 59fc 44       		.uleb128 0x44
 15090 59fd F6020000 		.4byte	.LVL194
 15091 5a01 105C0000 		.4byte	0x5c10
 15092 5a05 1A5A0000 		.4byte	0x5a1a
 15093 5a09 45       		.uleb128 0x45
 15094 5a0a 01       		.uleb128 0x1
 15095 5a0b 50       		.byte	0x50
 15096 5a0c 02       		.uleb128 0x2
 15097 5a0d 74       		.byte	0x74
 15098 5a0e 00       		.sleb128 0
 15099 5a0f 45       		.uleb128 0x45
 15100 5a10 01       		.uleb128 0x1
 15101 5a11 51       		.byte	0x51
 15102 5a12 06       		.uleb128 0x6
 15103 5a13 11       		.byte	0x11
 15104 5a14 84C09080 		.sleb128 -536600572
 15104      7E
 15105 5a19 00       		.byte	0
 15106 5a1a 44       		.uleb128 0x44
 15107 5a1b 02030000 		.4byte	.LVL195
ARM GAS  /tmp/ccJYnsep.s 			page 268


 15108 5a1f 265C0000 		.4byte	0x5c26
 15109 5a23 3D5A0000 		.4byte	0x5a3d
 15110 5a27 45       		.uleb128 0x45
 15111 5a28 01       		.uleb128 0x1
 15112 5a29 50       		.byte	0x50
 15113 5a2a 02       		.uleb128 0x2
 15114 5a2b 74       		.byte	0x74
 15115 5a2c 00       		.sleb128 0
 15116 5a2d 45       		.uleb128 0x45
 15117 5a2e 01       		.uleb128 0x1
 15118 5a2f 51       		.byte	0x51
 15119 5a30 06       		.uleb128 0x6
 15120 5a31 11       		.byte	0x11
 15121 5a32 84C09080 		.sleb128 -536600572
 15121      7E
 15122 5a37 45       		.uleb128 0x45
 15123 5a38 01       		.uleb128 0x1
 15124 5a39 52       		.byte	0x52
 15125 5a3a 01       		.uleb128 0x1
 15126 5a3b 31       		.byte	0x31
 15127 5a3c 00       		.byte	0
 15128 5a3d 44       		.uleb128 0x44
 15129 5a3e 0E030000 		.4byte	.LVL196
 15130 5a42 9F5C0000 		.4byte	0x5c9f
 15131 5a46 5D5A0000 		.4byte	0x5a5d
 15132 5a4a 45       		.uleb128 0x45
 15133 5a4b 01       		.uleb128 0x1
 15134 5a4c 50       		.byte	0x50
 15135 5a4d 02       		.uleb128 0x2
 15136 5a4e 74       		.byte	0x74
 15137 5a4f 00       		.sleb128 0
 15138 5a50 45       		.uleb128 0x45
 15139 5a51 01       		.uleb128 0x1
 15140 5a52 51       		.byte	0x51
 15141 5a53 01       		.uleb128 0x1
 15142 5a54 30       		.byte	0x30
 15143 5a55 45       		.uleb128 0x45
 15144 5a56 01       		.uleb128 0x1
 15145 5a57 52       		.byte	0x52
 15146 5a58 03       		.uleb128 0x3
 15147 5a59 0A       		.byte	0xa
 15148 5a5a 0040     		.2byte	0x4000
 15149 5a5c 00       		.byte	0
 15150 5a5d 44       		.uleb128 0x44
 15151 5a5e 1C030000 		.4byte	.LVL197
 15152 5a62 9F5C0000 		.4byte	0x5c9f
 15153 5a66 7F5A0000 		.4byte	0x5a7f
 15154 5a6a 45       		.uleb128 0x45
 15155 5a6b 01       		.uleb128 0x1
 15156 5a6c 50       		.byte	0x50
 15157 5a6d 02       		.uleb128 0x2
 15158 5a6e 74       		.byte	0x74
 15159 5a6f 00       		.sleb128 0
 15160 5a70 45       		.uleb128 0x45
 15161 5a71 01       		.uleb128 0x1
 15162 5a72 51       		.byte	0x51
 15163 5a73 03       		.uleb128 0x3
ARM GAS  /tmp/ccJYnsep.s 			page 269


 15164 5a74 40       		.byte	0x40
 15165 5a75 49       		.byte	0x49
 15166 5a76 24       		.byte	0x24
 15167 5a77 45       		.uleb128 0x45
 15168 5a78 01       		.uleb128 0x1
 15169 5a79 52       		.byte	0x52
 15170 5a7a 03       		.uleb128 0x3
 15171 5a7b 40       		.byte	0x40
 15172 5a7c 3D       		.byte	0x3d
 15173 5a7d 24       		.byte	0x24
 15174 5a7e 00       		.byte	0
 15175 5a7f 44       		.uleb128 0x44
 15176 5a80 28030000 		.4byte	.LVL198
 15177 5a84 9F5C0000 		.4byte	0x5c9f
 15178 5a88 A35A0000 		.4byte	0x5aa3
 15179 5a8c 45       		.uleb128 0x45
 15180 5a8d 01       		.uleb128 0x1
 15181 5a8e 50       		.byte	0x50
 15182 5a8f 02       		.uleb128 0x2
 15183 5a90 74       		.byte	0x74
 15184 5a91 00       		.sleb128 0
 15185 5a92 45       		.uleb128 0x45
 15186 5a93 01       		.uleb128 0x1
 15187 5a94 51       		.byte	0x51
 15188 5a95 05       		.uleb128 0x5
 15189 5a96 0C       		.byte	0xc
 15190 5a97 00000220 		.4byte	0x20020000
 15191 5a9b 45       		.uleb128 0x45
 15192 5a9c 01       		.uleb128 0x1
 15193 5a9d 52       		.byte	0x52
 15194 5a9e 03       		.uleb128 0x3
 15195 5a9f 48       		.byte	0x48
 15196 5aa0 3E       		.byte	0x3e
 15197 5aa1 24       		.byte	0x24
 15198 5aa2 00       		.byte	0
 15199 5aa3 44       		.uleb128 0x44
 15200 5aa4 52030000 		.4byte	.LVL205
 15201 5aa8 945C0000 		.4byte	0x5c94
 15202 5aac B75A0000 		.4byte	0x5ab7
 15203 5ab0 45       		.uleb128 0x45
 15204 5ab1 01       		.uleb128 0x1
 15205 5ab2 50       		.byte	0x50
 15206 5ab3 02       		.uleb128 0x2
 15207 5ab4 74       		.byte	0x74
 15208 5ab5 00       		.sleb128 0
 15209 5ab6 00       		.byte	0
 15210 5ab7 44       		.uleb128 0x44
 15211 5ab8 5C030000 		.4byte	.LVL206
 15212 5abc 105C0000 		.4byte	0x5c10
 15213 5ac0 D45A0000 		.4byte	0x5ad4
 15214 5ac4 45       		.uleb128 0x45
 15215 5ac5 01       		.uleb128 0x1
 15216 5ac6 50       		.byte	0x50
 15217 5ac7 02       		.uleb128 0x2
 15218 5ac8 74       		.byte	0x74
 15219 5ac9 00       		.sleb128 0
 15220 5aca 45       		.uleb128 0x45
ARM GAS  /tmp/ccJYnsep.s 			page 270


 15221 5acb 01       		.uleb128 0x1
 15222 5acc 51       		.byte	0x51
 15223 5acd 05       		.uleb128 0x5
 15224 5ace 0C       		.byte	0xc
 15225 5acf 227AF01F 		.4byte	0x1ff07a22
 15226 5ad3 00       		.byte	0
 15227 5ad4 44       		.uleb128 0x44
 15228 5ad5 66030000 		.4byte	.LVL209
 15229 5ad9 105C0000 		.4byte	0x5c10
 15230 5add F25A0000 		.4byte	0x5af2
 15231 5ae1 45       		.uleb128 0x45
 15232 5ae2 01       		.uleb128 0x1
 15233 5ae3 50       		.byte	0x50
 15234 5ae4 02       		.uleb128 0x2
 15235 5ae5 74       		.byte	0x74
 15236 5ae6 00       		.sleb128 0
 15237 5ae7 45       		.uleb128 0x45
 15238 5ae8 01       		.uleb128 0x1
 15239 5ae9 51       		.byte	0x51
 15240 5aea 06       		.uleb128 0x6
 15241 5aeb 11       		.byte	0x11
 15242 5aec 84C09080 		.sleb128 -536600572
 15242      7E
 15243 5af1 00       		.byte	0
 15244 5af2 44       		.uleb128 0x44
 15245 5af3 72030000 		.4byte	.LVL210
 15246 5af7 265C0000 		.4byte	0x5c26
 15247 5afb 155B0000 		.4byte	0x5b15
 15248 5aff 45       		.uleb128 0x45
 15249 5b00 01       		.uleb128 0x1
 15250 5b01 50       		.byte	0x50
 15251 5b02 02       		.uleb128 0x2
 15252 5b03 74       		.byte	0x74
 15253 5b04 00       		.sleb128 0
 15254 5b05 45       		.uleb128 0x45
 15255 5b06 01       		.uleb128 0x1
 15256 5b07 51       		.byte	0x51
 15257 5b08 06       		.uleb128 0x6
 15258 5b09 11       		.byte	0x11
 15259 5b0a 84C09080 		.sleb128 -536600572
 15259      7E
 15260 5b0f 45       		.uleb128 0x45
 15261 5b10 01       		.uleb128 0x1
 15262 5b11 52       		.byte	0x52
 15263 5b12 01       		.uleb128 0x1
 15264 5b13 31       		.byte	0x31
 15265 5b14 00       		.byte	0
 15266 5b15 44       		.uleb128 0x44
 15267 5b16 7E030000 		.4byte	.LVL211
 15268 5b1a 9F5C0000 		.4byte	0x5c9f
 15269 5b1e 355B0000 		.4byte	0x5b35
 15270 5b22 45       		.uleb128 0x45
 15271 5b23 01       		.uleb128 0x1
 15272 5b24 50       		.byte	0x50
 15273 5b25 02       		.uleb128 0x2
 15274 5b26 74       		.byte	0x74
 15275 5b27 00       		.sleb128 0
ARM GAS  /tmp/ccJYnsep.s 			page 271


 15276 5b28 45       		.uleb128 0x45
 15277 5b29 01       		.uleb128 0x1
 15278 5b2a 51       		.byte	0x51
 15279 5b2b 01       		.uleb128 0x1
 15280 5b2c 30       		.byte	0x30
 15281 5b2d 45       		.uleb128 0x45
 15282 5b2e 01       		.uleb128 0x1
 15283 5b2f 52       		.byte	0x52
 15284 5b30 03       		.uleb128 0x3
 15285 5b31 0A       		.byte	0xa
 15286 5b32 0040     		.2byte	0x4000
 15287 5b34 00       		.byte	0
 15288 5b35 44       		.uleb128 0x44
 15289 5b36 8C030000 		.4byte	.LVL212
 15290 5b3a 9F5C0000 		.4byte	0x5c9f
 15291 5b3e 575B0000 		.4byte	0x5b57
 15292 5b42 45       		.uleb128 0x45
 15293 5b43 01       		.uleb128 0x1
 15294 5b44 50       		.byte	0x50
 15295 5b45 02       		.uleb128 0x2
 15296 5b46 74       		.byte	0x74
 15297 5b47 00       		.sleb128 0
 15298 5b48 45       		.uleb128 0x45
 15299 5b49 01       		.uleb128 0x1
 15300 5b4a 51       		.byte	0x51
 15301 5b4b 03       		.uleb128 0x3
 15302 5b4c 40       		.byte	0x40
 15303 5b4d 49       		.byte	0x49
 15304 5b4e 24       		.byte	0x24
 15305 5b4f 45       		.uleb128 0x45
 15306 5b50 01       		.uleb128 0x1
 15307 5b51 52       		.byte	0x52
 15308 5b52 03       		.uleb128 0x3
 15309 5b53 40       		.byte	0x40
 15310 5b54 3D       		.byte	0x3d
 15311 5b55 24       		.byte	0x24
 15312 5b56 00       		.byte	0
 15313 5b57 44       		.uleb128 0x44
 15314 5b58 98030000 		.4byte	.LVL213
 15315 5b5c 9F5C0000 		.4byte	0x5c9f
 15316 5b60 7B5B0000 		.4byte	0x5b7b
 15317 5b64 45       		.uleb128 0x45
 15318 5b65 01       		.uleb128 0x1
 15319 5b66 50       		.byte	0x50
 15320 5b67 02       		.uleb128 0x2
 15321 5b68 74       		.byte	0x74
 15322 5b69 00       		.sleb128 0
 15323 5b6a 45       		.uleb128 0x45
 15324 5b6b 01       		.uleb128 0x1
 15325 5b6c 51       		.byte	0x51
 15326 5b6d 05       		.uleb128 0x5
 15327 5b6e 0C       		.byte	0xc
 15328 5b6f 00000220 		.4byte	0x20020000
 15329 5b73 45       		.uleb128 0x45
 15330 5b74 01       		.uleb128 0x1
 15331 5b75 52       		.byte	0x52
 15332 5b76 03       		.uleb128 0x3
ARM GAS  /tmp/ccJYnsep.s 			page 272


 15333 5b77 48       		.byte	0x48
 15334 5b78 3E       		.byte	0x3e
 15335 5b79 24       		.byte	0x24
 15336 5b7a 00       		.byte	0
 15337 5b7b 44       		.uleb128 0x44
 15338 5b7c 8E040000 		.4byte	.LVL229
 15339 5b80 945C0000 		.4byte	0x5c94
 15340 5b84 8F5B0000 		.4byte	0x5b8f
 15341 5b88 45       		.uleb128 0x45
 15342 5b89 01       		.uleb128 0x1
 15343 5b8a 50       		.byte	0x50
 15344 5b8b 02       		.uleb128 0x2
 15345 5b8c 74       		.byte	0x74
 15346 5b8d 00       		.sleb128 0
 15347 5b8e 00       		.byte	0
 15348 5b8f 44       		.uleb128 0x44
 15349 5b90 96040000 		.4byte	.LVL230
 15350 5b94 105C0000 		.4byte	0x5c10
 15351 5b98 AC5B0000 		.4byte	0x5bac
 15352 5b9c 45       		.uleb128 0x45
 15353 5b9d 01       		.uleb128 0x1
 15354 5b9e 50       		.byte	0x50
 15355 5b9f 02       		.uleb128 0x2
 15356 5ba0 74       		.byte	0x74
 15357 5ba1 00       		.sleb128 0
 15358 5ba2 45       		.uleb128 0x45
 15359 5ba3 01       		.uleb128 0x1
 15360 5ba4 51       		.byte	0x51
 15361 5ba5 05       		.uleb128 0x5
 15362 5ba6 0C       		.byte	0xc
 15363 5ba7 227AFF1F 		.4byte	0x1fff7a22
 15364 5bab 00       		.byte	0
 15365 5bac 46       		.uleb128 0x46
 15366 5bad A6040000 		.4byte	.LVL232
 15367 5bb1 9F5C0000 		.4byte	0x5c9f
 15368 5bb5 45       		.uleb128 0x45
 15369 5bb6 01       		.uleb128 0x1
 15370 5bb7 50       		.byte	0x50
 15371 5bb8 02       		.uleb128 0x2
 15372 5bb9 74       		.byte	0x74
 15373 5bba 00       		.sleb128 0
 15374 5bbb 45       		.uleb128 0x45
 15375 5bbc 01       		.uleb128 0x1
 15376 5bbd 51       		.byte	0x51
 15377 5bbe 03       		.uleb128 0x3
 15378 5bbf 40       		.byte	0x40
 15379 5bc0 49       		.byte	0x49
 15380 5bc1 24       		.byte	0x24
 15381 5bc2 45       		.uleb128 0x45
 15382 5bc3 01       		.uleb128 0x1
 15383 5bc4 52       		.byte	0x52
 15384 5bc5 03       		.uleb128 0x3
 15385 5bc6 44       		.byte	0x44
 15386 5bc7 3E       		.byte	0x3e
 15387 5bc8 24       		.byte	0x24
 15388 5bc9 00       		.byte	0
 15389 5bca 00       		.byte	0
ARM GAS  /tmp/ccJYnsep.s 			page 273


 15390 5bcb 00       		.byte	0
 15391 5bcc 46       		.uleb128 0x46
 15392 5bcd 0C000000 		.4byte	.LVL142
 15393 5bd1 AA5C0000 		.4byte	0x5caa
 15394 5bd5 45       		.uleb128 0x45
 15395 5bd6 01       		.uleb128 0x1
 15396 5bd7 50       		.byte	0x50
 15397 5bd8 02       		.uleb128 0x2
 15398 5bd9 74       		.byte	0x74
 15399 5bda 00       		.sleb128 0
 15400 5bdb 00       		.byte	0
 15401 5bdc 00       		.byte	0
 15402 5bdd 5C       		.uleb128 0x5c
 15403 5bde AC440000 		.4byte	0x44ac
 15404 5be2 00000000 		.4byte	.LFB264
 15405 5be6 18000000 		.4byte	.LFE264-.LFB264
 15406 5bea 01       		.uleb128 0x1
 15407 5beb 9C       		.byte	0x9c
 15408 5bec FA5B0000 		.4byte	0x5bfa
 15409 5bf0 41       		.uleb128 0x41
 15410 5bf1 BC440000 		.4byte	0x44bc
 15411 5bf5 961A0000 		.4byte	.LLST148
 15412 5bf9 00       		.byte	0
 15413 5bfa 69       		.uleb128 0x69
 15414 5bfb 59230000 		.4byte	.LASF837
 15415 5bff 59230000 		.4byte	.LASF837
 15416 5c03 34       		.byte	0x34
 15417 5c04 24       		.byte	0x24
 15418 5c05 69       		.uleb128 0x69
 15419 5c06 C60D0000 		.4byte	.LASF838
 15420 5c0a C60D0000 		.4byte	.LASF838
 15421 5c0e 30       		.byte	0x30
 15422 5c0f 8D       		.byte	0x8d
 15423 5c10 69       		.uleb128 0x69
 15424 5c11 EE070000 		.4byte	.LASF839
 15425 5c15 EE070000 		.4byte	.LASF839
 15426 5c19 30       		.byte	0x30
 15427 5c1a 84       		.byte	0x84
 15428 5c1b 69       		.uleb128 0x69
 15429 5c1c 25120000 		.4byte	.LASF840
 15430 5c20 25120000 		.4byte	.LASF840
 15431 5c24 08       		.byte	0x8
 15432 5c25 AA       		.byte	0xaa
 15433 5c26 69       		.uleb128 0x69
 15434 5c27 F7190000 		.4byte	.LASF841
 15435 5c2b F7190000 		.4byte	.LASF841
 15436 5c2f 30       		.byte	0x30
 15437 5c30 87       		.byte	0x87
 15438 5c31 69       		.uleb128 0x69
 15439 5c32 58130000 		.4byte	.LASF842
 15440 5c36 58130000 		.4byte	.LASF842
 15441 5c3a 33       		.byte	0x33
 15442 5c3b B5       		.byte	0xb5
 15443 5c3c 69       		.uleb128 0x69
 15444 5c3d DF070000 		.4byte	.LASF843
 15445 5c41 DF070000 		.4byte	.LASF843
 15446 5c45 35       		.byte	0x35
ARM GAS  /tmp/ccJYnsep.s 			page 274


 15447 5c46 24       		.byte	0x24
 15448 5c47 69       		.uleb128 0x69
 15449 5c48 540A0000 		.4byte	.LASF844
 15450 5c4c 540A0000 		.4byte	.LASF844
 15451 5c50 30       		.byte	0x30
 15452 5c51 8A       		.byte	0x8a
 15453 5c52 69       		.uleb128 0x69
 15454 5c53 67000000 		.4byte	.LASF845
 15455 5c57 67000000 		.4byte	.LASF845
 15456 5c5b 2D       		.byte	0x2d
 15457 5c5c 26       		.byte	0x26
 15458 5c5d 69       		.uleb128 0x69
 15459 5c5e F3090000 		.4byte	.LASF846
 15460 5c62 F3090000 		.4byte	.LASF846
 15461 5c66 33       		.byte	0x33
 15462 5c67 AC       		.byte	0xac
 15463 5c68 69       		.uleb128 0x69
 15464 5c69 9B190000 		.4byte	.LASF847
 15465 5c6d 9B190000 		.4byte	.LASF847
 15466 5c71 30       		.byte	0x30
 15467 5c72 7F       		.byte	0x7f
 15468 5c73 69       		.uleb128 0x69
 15469 5c74 1E140000 		.4byte	.LASF848
 15470 5c78 1E140000 		.4byte	.LASF848
 15471 5c7c 33       		.byte	0x33
 15472 5c7d AF       		.byte	0xaf
 15473 5c7e 69       		.uleb128 0x69
 15474 5c7f 341D0000 		.4byte	.LASF849
 15475 5c83 341D0000 		.4byte	.LASF849
 15476 5c87 08       		.byte	0x8
 15477 5c88 5A       		.byte	0x5a
 15478 5c89 69       		.uleb128 0x69
 15479 5c8a F3060000 		.4byte	.LASF850
 15480 5c8e F3060000 		.4byte	.LASF850
 15481 5c92 30       		.byte	0x30
 15482 5c93 81       		.byte	0x81
 15483 5c94 69       		.uleb128 0x69
 15484 5c95 DB030000 		.4byte	.LASF851
 15485 5c99 DB030000 		.4byte	.LASF851
 15486 5c9d 30       		.byte	0x30
 15487 5c9e 7E       		.byte	0x7e
 15488 5c9f 69       		.uleb128 0x69
 15489 5ca0 A3220000 		.4byte	.LASF852
 15490 5ca4 A3220000 		.4byte	.LASF852
 15491 5ca8 30       		.byte	0x30
 15492 5ca9 80       		.byte	0x80
 15493 5caa 69       		.uleb128 0x69
 15494 5cab 771F0000 		.4byte	.LASF853
 15495 5caf 771F0000 		.4byte	.LASF853
 15496 5cb3 33       		.byte	0x33
 15497 5cb4 AE       		.byte	0xae
 15498 5cb5 00       		.byte	0
 15499              		.section	.debug_abbrev,"",%progbits
 15500              	.Ldebug_abbrev0:
 15501 0000 01       		.uleb128 0x1
 15502 0001 11       		.uleb128 0x11
 15503 0002 01       		.byte	0x1
ARM GAS  /tmp/ccJYnsep.s 			page 275


 15504 0003 25       		.uleb128 0x25
 15505 0004 0E       		.uleb128 0xe
 15506 0005 13       		.uleb128 0x13
 15507 0006 0B       		.uleb128 0xb
 15508 0007 03       		.uleb128 0x3
 15509 0008 0E       		.uleb128 0xe
 15510 0009 1B       		.uleb128 0x1b
 15511 000a 0E       		.uleb128 0xe
 15512 000b 55       		.uleb128 0x55
 15513 000c 17       		.uleb128 0x17
 15514 000d 11       		.uleb128 0x11
 15515 000e 01       		.uleb128 0x1
 15516 000f 10       		.uleb128 0x10
 15517 0010 17       		.uleb128 0x17
 15518 0011 00       		.byte	0
 15519 0012 00       		.byte	0
 15520 0013 02       		.uleb128 0x2
 15521 0014 24       		.uleb128 0x24
 15522 0015 00       		.byte	0
 15523 0016 0B       		.uleb128 0xb
 15524 0017 0B       		.uleb128 0xb
 15525 0018 3E       		.uleb128 0x3e
 15526 0019 0B       		.uleb128 0xb
 15527 001a 03       		.uleb128 0x3
 15528 001b 0E       		.uleb128 0xe
 15529 001c 00       		.byte	0
 15530 001d 00       		.byte	0
 15531 001e 03       		.uleb128 0x3
 15532 001f 16       		.uleb128 0x16
 15533 0020 00       		.byte	0
 15534 0021 03       		.uleb128 0x3
 15535 0022 0E       		.uleb128 0xe
 15536 0023 3A       		.uleb128 0x3a
 15537 0024 0B       		.uleb128 0xb
 15538 0025 3B       		.uleb128 0x3b
 15539 0026 0B       		.uleb128 0xb
 15540 0027 49       		.uleb128 0x49
 15541 0028 13       		.uleb128 0x13
 15542 0029 00       		.byte	0
 15543 002a 00       		.byte	0
 15544 002b 04       		.uleb128 0x4
 15545 002c 24       		.uleb128 0x24
 15546 002d 00       		.byte	0
 15547 002e 0B       		.uleb128 0xb
 15548 002f 0B       		.uleb128 0xb
 15549 0030 3E       		.uleb128 0x3e
 15550 0031 0B       		.uleb128 0xb
 15551 0032 03       		.uleb128 0x3
 15552 0033 08       		.uleb128 0x8
 15553 0034 00       		.byte	0
 15554 0035 00       		.byte	0
 15555 0036 05       		.uleb128 0x5
 15556 0037 26       		.uleb128 0x26
 15557 0038 00       		.byte	0
 15558 0039 49       		.uleb128 0x49
 15559 003a 13       		.uleb128 0x13
 15560 003b 00       		.byte	0
ARM GAS  /tmp/ccJYnsep.s 			page 276


 15561 003c 00       		.byte	0
 15562 003d 06       		.uleb128 0x6
 15563 003e 35       		.uleb128 0x35
 15564 003f 00       		.byte	0
 15565 0040 49       		.uleb128 0x49
 15566 0041 13       		.uleb128 0x13
 15567 0042 00       		.byte	0
 15568 0043 00       		.byte	0
 15569 0044 07       		.uleb128 0x7
 15570 0045 0F       		.uleb128 0xf
 15571 0046 00       		.byte	0
 15572 0047 0B       		.uleb128 0xb
 15573 0048 0B       		.uleb128 0xb
 15574 0049 49       		.uleb128 0x49
 15575 004a 13       		.uleb128 0x13
 15576 004b 00       		.byte	0
 15577 004c 00       		.byte	0
 15578 004d 08       		.uleb128 0x8
 15579 004e 13       		.uleb128 0x13
 15580 004f 00       		.byte	0
 15581 0050 03       		.uleb128 0x3
 15582 0051 0E       		.uleb128 0xe
 15583 0052 3C       		.uleb128 0x3c
 15584 0053 19       		.uleb128 0x19
 15585 0054 00       		.byte	0
 15586 0055 00       		.byte	0
 15587 0056 09       		.uleb128 0x9
 15588 0057 16       		.uleb128 0x16
 15589 0058 00       		.byte	0
 15590 0059 03       		.uleb128 0x3
 15591 005a 0E       		.uleb128 0xe
 15592 005b 3A       		.uleb128 0x3a
 15593 005c 0B       		.uleb128 0xb
 15594 005d 3B       		.uleb128 0x3b
 15595 005e 05       		.uleb128 0x5
 15596 005f 49       		.uleb128 0x49
 15597 0060 13       		.uleb128 0x13
 15598 0061 00       		.byte	0
 15599 0062 00       		.byte	0
 15600 0063 0A       		.uleb128 0xa
 15601 0064 17       		.uleb128 0x17
 15602 0065 01       		.byte	0x1
 15603 0066 0B       		.uleb128 0xb
 15604 0067 0B       		.uleb128 0xb
 15605 0068 3A       		.uleb128 0x3a
 15606 0069 0B       		.uleb128 0xb
 15607 006a 3B       		.uleb128 0x3b
 15608 006b 0B       		.uleb128 0xb
 15609 006c 01       		.uleb128 0x1
 15610 006d 13       		.uleb128 0x13
 15611 006e 00       		.byte	0
 15612 006f 00       		.byte	0
 15613 0070 0B       		.uleb128 0xb
 15614 0071 0D       		.uleb128 0xd
 15615 0072 00       		.byte	0
 15616 0073 03       		.uleb128 0x3
 15617 0074 0E       		.uleb128 0xe
ARM GAS  /tmp/ccJYnsep.s 			page 277


 15618 0075 3A       		.uleb128 0x3a
 15619 0076 0B       		.uleb128 0xb
 15620 0077 3B       		.uleb128 0x3b
 15621 0078 0B       		.uleb128 0xb
 15622 0079 49       		.uleb128 0x49
 15623 007a 13       		.uleb128 0x13
 15624 007b 00       		.byte	0
 15625 007c 00       		.byte	0
 15626 007d 0C       		.uleb128 0xc
 15627 007e 01       		.uleb128 0x1
 15628 007f 01       		.byte	0x1
 15629 0080 49       		.uleb128 0x49
 15630 0081 13       		.uleb128 0x13
 15631 0082 01       		.uleb128 0x1
 15632 0083 13       		.uleb128 0x13
 15633 0084 00       		.byte	0
 15634 0085 00       		.byte	0
 15635 0086 0D       		.uleb128 0xd
 15636 0087 21       		.uleb128 0x21
 15637 0088 00       		.byte	0
 15638 0089 49       		.uleb128 0x49
 15639 008a 13       		.uleb128 0x13
 15640 008b 2F       		.uleb128 0x2f
 15641 008c 0B       		.uleb128 0xb
 15642 008d 00       		.byte	0
 15643 008e 00       		.byte	0
 15644 008f 0E       		.uleb128 0xe
 15645 0090 13       		.uleb128 0x13
 15646 0091 01       		.byte	0x1
 15647 0092 0B       		.uleb128 0xb
 15648 0093 0B       		.uleb128 0xb
 15649 0094 3A       		.uleb128 0x3a
 15650 0095 0B       		.uleb128 0xb
 15651 0096 3B       		.uleb128 0x3b
 15652 0097 0B       		.uleb128 0xb
 15653 0098 01       		.uleb128 0x1
 15654 0099 13       		.uleb128 0x13
 15655 009a 00       		.byte	0
 15656 009b 00       		.byte	0
 15657 009c 0F       		.uleb128 0xf
 15658 009d 0D       		.uleb128 0xd
 15659 009e 00       		.byte	0
 15660 009f 03       		.uleb128 0x3
 15661 00a0 0E       		.uleb128 0xe
 15662 00a1 3A       		.uleb128 0x3a
 15663 00a2 0B       		.uleb128 0xb
 15664 00a3 3B       		.uleb128 0x3b
 15665 00a4 0B       		.uleb128 0xb
 15666 00a5 49       		.uleb128 0x49
 15667 00a6 13       		.uleb128 0x13
 15668 00a7 38       		.uleb128 0x38
 15669 00a8 0B       		.uleb128 0xb
 15670 00a9 00       		.byte	0
 15671 00aa 00       		.byte	0
 15672 00ab 10       		.uleb128 0x10
 15673 00ac 0F       		.uleb128 0xf
 15674 00ad 00       		.byte	0
ARM GAS  /tmp/ccJYnsep.s 			page 278


 15675 00ae 0B       		.uleb128 0xb
 15676 00af 0B       		.uleb128 0xb
 15677 00b0 00       		.byte	0
 15678 00b1 00       		.byte	0
 15679 00b2 11       		.uleb128 0x11
 15680 00b3 13       		.uleb128 0x13
 15681 00b4 01       		.byte	0x1
 15682 00b5 03       		.uleb128 0x3
 15683 00b6 0E       		.uleb128 0xe
 15684 00b7 0B       		.uleb128 0xb
 15685 00b8 0B       		.uleb128 0xb
 15686 00b9 3A       		.uleb128 0x3a
 15687 00ba 0B       		.uleb128 0xb
 15688 00bb 3B       		.uleb128 0x3b
 15689 00bc 0B       		.uleb128 0xb
 15690 00bd 01       		.uleb128 0x1
 15691 00be 13       		.uleb128 0x13
 15692 00bf 00       		.byte	0
 15693 00c0 00       		.byte	0
 15694 00c1 12       		.uleb128 0x12
 15695 00c2 0D       		.uleb128 0xd
 15696 00c3 00       		.byte	0
 15697 00c4 03       		.uleb128 0x3
 15698 00c5 08       		.uleb128 0x8
 15699 00c6 3A       		.uleb128 0x3a
 15700 00c7 0B       		.uleb128 0xb
 15701 00c8 3B       		.uleb128 0x3b
 15702 00c9 0B       		.uleb128 0xb
 15703 00ca 49       		.uleb128 0x49
 15704 00cb 13       		.uleb128 0x13
 15705 00cc 38       		.uleb128 0x38
 15706 00cd 0B       		.uleb128 0xb
 15707 00ce 00       		.byte	0
 15708 00cf 00       		.byte	0
 15709 00d0 13       		.uleb128 0x13
 15710 00d1 13       		.uleb128 0x13
 15711 00d2 01       		.byte	0x1
 15712 00d3 03       		.uleb128 0x3
 15713 00d4 0E       		.uleb128 0xe
 15714 00d5 0B       		.uleb128 0xb
 15715 00d6 05       		.uleb128 0x5
 15716 00d7 3A       		.uleb128 0x3a
 15717 00d8 0B       		.uleb128 0xb
 15718 00d9 3B       		.uleb128 0x3b
 15719 00da 0B       		.uleb128 0xb
 15720 00db 01       		.uleb128 0x1
 15721 00dc 13       		.uleb128 0x13
 15722 00dd 00       		.byte	0
 15723 00de 00       		.byte	0
 15724 00df 14       		.uleb128 0x14
 15725 00e0 0D       		.uleb128 0xd
 15726 00e1 00       		.byte	0
 15727 00e2 03       		.uleb128 0x3
 15728 00e3 0E       		.uleb128 0xe
 15729 00e4 3A       		.uleb128 0x3a
 15730 00e5 0B       		.uleb128 0xb
 15731 00e6 3B       		.uleb128 0x3b
ARM GAS  /tmp/ccJYnsep.s 			page 279


 15732 00e7 0B       		.uleb128 0xb
 15733 00e8 49       		.uleb128 0x49
 15734 00e9 13       		.uleb128 0x13
 15735 00ea 38       		.uleb128 0x38
 15736 00eb 05       		.uleb128 0x5
 15737 00ec 00       		.byte	0
 15738 00ed 00       		.byte	0
 15739 00ee 15       		.uleb128 0x15
 15740 00ef 15       		.uleb128 0x15
 15741 00f0 00       		.byte	0
 15742 00f1 27       		.uleb128 0x27
 15743 00f2 19       		.uleb128 0x19
 15744 00f3 00       		.byte	0
 15745 00f4 00       		.byte	0
 15746 00f5 16       		.uleb128 0x16
 15747 00f6 15       		.uleb128 0x15
 15748 00f7 01       		.byte	0x1
 15749 00f8 27       		.uleb128 0x27
 15750 00f9 19       		.uleb128 0x19
 15751 00fa 49       		.uleb128 0x49
 15752 00fb 13       		.uleb128 0x13
 15753 00fc 01       		.uleb128 0x1
 15754 00fd 13       		.uleb128 0x13
 15755 00fe 00       		.byte	0
 15756 00ff 00       		.byte	0
 15757 0100 17       		.uleb128 0x17
 15758 0101 05       		.uleb128 0x5
 15759 0102 00       		.byte	0
 15760 0103 49       		.uleb128 0x49
 15761 0104 13       		.uleb128 0x13
 15762 0105 00       		.byte	0
 15763 0106 00       		.byte	0
 15764 0107 18       		.uleb128 0x18
 15765 0108 13       		.uleb128 0x13
 15766 0109 01       		.byte	0x1
 15767 010a 03       		.uleb128 0x3
 15768 010b 0E       		.uleb128 0xe
 15769 010c 0B       		.uleb128 0xb
 15770 010d 05       		.uleb128 0x5
 15771 010e 3A       		.uleb128 0x3a
 15772 010f 0B       		.uleb128 0xb
 15773 0110 3B       		.uleb128 0x3b
 15774 0111 05       		.uleb128 0x5
 15775 0112 01       		.uleb128 0x1
 15776 0113 13       		.uleb128 0x13
 15777 0114 00       		.byte	0
 15778 0115 00       		.byte	0
 15779 0116 19       		.uleb128 0x19
 15780 0117 0D       		.uleb128 0xd
 15781 0118 00       		.byte	0
 15782 0119 03       		.uleb128 0x3
 15783 011a 0E       		.uleb128 0xe
 15784 011b 3A       		.uleb128 0x3a
 15785 011c 0B       		.uleb128 0xb
 15786 011d 3B       		.uleb128 0x3b
 15787 011e 05       		.uleb128 0x5
 15788 011f 49       		.uleb128 0x49
ARM GAS  /tmp/ccJYnsep.s 			page 280


 15789 0120 13       		.uleb128 0x13
 15790 0121 38       		.uleb128 0x38
 15791 0122 0B       		.uleb128 0xb
 15792 0123 00       		.byte	0
 15793 0124 00       		.byte	0
 15794 0125 1A       		.uleb128 0x1a
 15795 0126 0D       		.uleb128 0xd
 15796 0127 00       		.byte	0
 15797 0128 03       		.uleb128 0x3
 15798 0129 0E       		.uleb128 0xe
 15799 012a 3A       		.uleb128 0x3a
 15800 012b 0B       		.uleb128 0xb
 15801 012c 3B       		.uleb128 0x3b
 15802 012d 05       		.uleb128 0x5
 15803 012e 49       		.uleb128 0x49
 15804 012f 13       		.uleb128 0x13
 15805 0130 38       		.uleb128 0x38
 15806 0131 05       		.uleb128 0x5
 15807 0132 00       		.byte	0
 15808 0133 00       		.byte	0
 15809 0134 1B       		.uleb128 0x1b
 15810 0135 13       		.uleb128 0x13
 15811 0136 01       		.byte	0x1
 15812 0137 03       		.uleb128 0x3
 15813 0138 0E       		.uleb128 0xe
 15814 0139 0B       		.uleb128 0xb
 15815 013a 0B       		.uleb128 0xb
 15816 013b 3A       		.uleb128 0x3a
 15817 013c 0B       		.uleb128 0xb
 15818 013d 3B       		.uleb128 0x3b
 15819 013e 05       		.uleb128 0x5
 15820 013f 01       		.uleb128 0x1
 15821 0140 13       		.uleb128 0x13
 15822 0141 00       		.byte	0
 15823 0142 00       		.byte	0
 15824 0143 1C       		.uleb128 0x1c
 15825 0144 13       		.uleb128 0x13
 15826 0145 01       		.byte	0x1
 15827 0146 0B       		.uleb128 0xb
 15828 0147 0B       		.uleb128 0xb
 15829 0148 3A       		.uleb128 0x3a
 15830 0149 0B       		.uleb128 0xb
 15831 014a 3B       		.uleb128 0x3b
 15832 014b 05       		.uleb128 0x5
 15833 014c 01       		.uleb128 0x1
 15834 014d 13       		.uleb128 0x13
 15835 014e 00       		.byte	0
 15836 014f 00       		.byte	0
 15837 0150 1D       		.uleb128 0x1d
 15838 0151 17       		.uleb128 0x17
 15839 0152 01       		.byte	0x1
 15840 0153 0B       		.uleb128 0xb
 15841 0154 0B       		.uleb128 0xb
 15842 0155 3A       		.uleb128 0x3a
 15843 0156 0B       		.uleb128 0xb
 15844 0157 3B       		.uleb128 0x3b
 15845 0158 05       		.uleb128 0x5
ARM GAS  /tmp/ccJYnsep.s 			page 281


 15846 0159 01       		.uleb128 0x1
 15847 015a 13       		.uleb128 0x13
 15848 015b 00       		.byte	0
 15849 015c 00       		.byte	0
 15850 015d 1E       		.uleb128 0x1e
 15851 015e 0D       		.uleb128 0xd
 15852 015f 00       		.byte	0
 15853 0160 03       		.uleb128 0x3
 15854 0161 0E       		.uleb128 0xe
 15855 0162 3A       		.uleb128 0x3a
 15856 0163 0B       		.uleb128 0xb
 15857 0164 3B       		.uleb128 0x3b
 15858 0165 05       		.uleb128 0x5
 15859 0166 49       		.uleb128 0x49
 15860 0167 13       		.uleb128 0x13
 15861 0168 00       		.byte	0
 15862 0169 00       		.byte	0
 15863 016a 1F       		.uleb128 0x1f
 15864 016b 15       		.uleb128 0x15
 15865 016c 01       		.byte	0x1
 15866 016d 27       		.uleb128 0x27
 15867 016e 19       		.uleb128 0x19
 15868 016f 01       		.uleb128 0x1
 15869 0170 13       		.uleb128 0x13
 15870 0171 00       		.byte	0
 15871 0172 00       		.byte	0
 15872 0173 20       		.uleb128 0x20
 15873 0174 34       		.uleb128 0x34
 15874 0175 00       		.byte	0
 15875 0176 03       		.uleb128 0x3
 15876 0177 0E       		.uleb128 0xe
 15877 0178 3A       		.uleb128 0x3a
 15878 0179 0B       		.uleb128 0xb
 15879 017a 3B       		.uleb128 0x3b
 15880 017b 05       		.uleb128 0x5
 15881 017c 49       		.uleb128 0x49
 15882 017d 13       		.uleb128 0x13
 15883 017e 3F       		.uleb128 0x3f
 15884 017f 19       		.uleb128 0x19
 15885 0180 3C       		.uleb128 0x3c
 15886 0181 19       		.uleb128 0x19
 15887 0182 00       		.byte	0
 15888 0183 00       		.byte	0
 15889 0184 21       		.uleb128 0x21
 15890 0185 26       		.uleb128 0x26
 15891 0186 00       		.byte	0
 15892 0187 00       		.byte	0
 15893 0188 00       		.byte	0
 15894 0189 22       		.uleb128 0x22
 15895 018a 34       		.uleb128 0x34
 15896 018b 00       		.byte	0
 15897 018c 03       		.uleb128 0x3
 15898 018d 0E       		.uleb128 0xe
 15899 018e 3A       		.uleb128 0x3a
 15900 018f 0B       		.uleb128 0xb
 15901 0190 3B       		.uleb128 0x3b
 15902 0191 0B       		.uleb128 0xb
ARM GAS  /tmp/ccJYnsep.s 			page 282


 15903 0192 49       		.uleb128 0x49
 15904 0193 13       		.uleb128 0x13
 15905 0194 3F       		.uleb128 0x3f
 15906 0195 19       		.uleb128 0x19
 15907 0196 3C       		.uleb128 0x3c
 15908 0197 19       		.uleb128 0x19
 15909 0198 00       		.byte	0
 15910 0199 00       		.byte	0
 15911 019a 23       		.uleb128 0x23
 15912 019b 0D       		.uleb128 0xd
 15913 019c 00       		.byte	0
 15914 019d 03       		.uleb128 0x3
 15915 019e 0E       		.uleb128 0xe
 15916 019f 49       		.uleb128 0x49
 15917 01a0 13       		.uleb128 0x13
 15918 01a1 38       		.uleb128 0x38
 15919 01a2 0B       		.uleb128 0xb
 15920 01a3 34       		.uleb128 0x34
 15921 01a4 19       		.uleb128 0x19
 15922 01a5 00       		.byte	0
 15923 01a6 00       		.byte	0
 15924 01a7 24       		.uleb128 0x24
 15925 01a8 0D       		.uleb128 0xd
 15926 01a9 00       		.byte	0
 15927 01aa 03       		.uleb128 0x3
 15928 01ab 08       		.uleb128 0x8
 15929 01ac 3A       		.uleb128 0x3a
 15930 01ad 0B       		.uleb128 0xb
 15931 01ae 3B       		.uleb128 0x3b
 15932 01af 05       		.uleb128 0x5
 15933 01b0 49       		.uleb128 0x49
 15934 01b1 13       		.uleb128 0x13
 15935 01b2 38       		.uleb128 0x38
 15936 01b3 0B       		.uleb128 0xb
 15937 01b4 00       		.byte	0
 15938 01b5 00       		.byte	0
 15939 01b6 25       		.uleb128 0x25
 15940 01b7 13       		.uleb128 0x13
 15941 01b8 01       		.byte	0x1
 15942 01b9 0B       		.uleb128 0xb
 15943 01ba 05       		.uleb128 0x5
 15944 01bb 3A       		.uleb128 0x3a
 15945 01bc 0B       		.uleb128 0xb
 15946 01bd 3B       		.uleb128 0x3b
 15947 01be 05       		.uleb128 0x5
 15948 01bf 01       		.uleb128 0x1
 15949 01c0 13       		.uleb128 0x13
 15950 01c1 00       		.byte	0
 15951 01c2 00       		.byte	0
 15952 01c3 26       		.uleb128 0x26
 15953 01c4 0D       		.uleb128 0xd
 15954 01c5 00       		.byte	0
 15955 01c6 03       		.uleb128 0x3
 15956 01c7 08       		.uleb128 0x8
 15957 01c8 3A       		.uleb128 0x3a
 15958 01c9 0B       		.uleb128 0xb
 15959 01ca 3B       		.uleb128 0x3b
ARM GAS  /tmp/ccJYnsep.s 			page 283


 15960 01cb 05       		.uleb128 0x5
 15961 01cc 49       		.uleb128 0x49
 15962 01cd 13       		.uleb128 0x13
 15963 01ce 38       		.uleb128 0x38
 15964 01cf 05       		.uleb128 0x5
 15965 01d0 00       		.byte	0
 15966 01d1 00       		.byte	0
 15967 01d2 27       		.uleb128 0x27
 15968 01d3 34       		.uleb128 0x34
 15969 01d4 00       		.byte	0
 15970 01d5 03       		.uleb128 0x3
 15971 01d6 08       		.uleb128 0x8
 15972 01d7 3A       		.uleb128 0x3a
 15973 01d8 0B       		.uleb128 0xb
 15974 01d9 3B       		.uleb128 0x3b
 15975 01da 05       		.uleb128 0x5
 15976 01db 49       		.uleb128 0x49
 15977 01dc 13       		.uleb128 0x13
 15978 01dd 3F       		.uleb128 0x3f
 15979 01de 19       		.uleb128 0x19
 15980 01df 3C       		.uleb128 0x3c
 15981 01e0 19       		.uleb128 0x19
 15982 01e1 00       		.byte	0
 15983 01e2 00       		.byte	0
 15984 01e3 28       		.uleb128 0x28
 15985 01e4 0D       		.uleb128 0xd
 15986 01e5 00       		.byte	0
 15987 01e6 03       		.uleb128 0x3
 15988 01e7 08       		.uleb128 0x8
 15989 01e8 3A       		.uleb128 0x3a
 15990 01e9 0B       		.uleb128 0xb
 15991 01ea 3B       		.uleb128 0x3b
 15992 01eb 0B       		.uleb128 0xb
 15993 01ec 49       		.uleb128 0x49
 15994 01ed 13       		.uleb128 0x13
 15995 01ee 00       		.byte	0
 15996 01ef 00       		.byte	0
 15997 01f0 29       		.uleb128 0x29
 15998 01f1 04       		.uleb128 0x4
 15999 01f2 01       		.byte	0x1
 16000 01f3 3E       		.uleb128 0x3e
 16001 01f4 0B       		.uleb128 0xb
 16002 01f5 0B       		.uleb128 0xb
 16003 01f6 0B       		.uleb128 0xb
 16004 01f7 49       		.uleb128 0x49
 16005 01f8 13       		.uleb128 0x13
 16006 01f9 3A       		.uleb128 0x3a
 16007 01fa 0B       		.uleb128 0xb
 16008 01fb 3B       		.uleb128 0x3b
 16009 01fc 0B       		.uleb128 0xb
 16010 01fd 01       		.uleb128 0x1
 16011 01fe 13       		.uleb128 0x13
 16012 01ff 00       		.byte	0
 16013 0200 00       		.byte	0
 16014 0201 2A       		.uleb128 0x2a
 16015 0202 28       		.uleb128 0x28
 16016 0203 00       		.byte	0
ARM GAS  /tmp/ccJYnsep.s 			page 284


 16017 0204 03       		.uleb128 0x3
 16018 0205 0E       		.uleb128 0xe
 16019 0206 1C       		.uleb128 0x1c
 16020 0207 0B       		.uleb128 0xb
 16021 0208 00       		.byte	0
 16022 0209 00       		.byte	0
 16023 020a 2B       		.uleb128 0x2b
 16024 020b 04       		.uleb128 0x4
 16025 020c 01       		.byte	0x1
 16026 020d 3E       		.uleb128 0x3e
 16027 020e 0B       		.uleb128 0xb
 16028 020f 0B       		.uleb128 0xb
 16029 0210 0B       		.uleb128 0xb
 16030 0211 49       		.uleb128 0x49
 16031 0212 13       		.uleb128 0x13
 16032 0213 3A       		.uleb128 0x3a
 16033 0214 0B       		.uleb128 0xb
 16034 0215 3B       		.uleb128 0x3b
 16035 0216 05       		.uleb128 0x5
 16036 0217 01       		.uleb128 0x1
 16037 0218 13       		.uleb128 0x13
 16038 0219 00       		.byte	0
 16039 021a 00       		.byte	0
 16040 021b 2C       		.uleb128 0x2c
 16041 021c 13       		.uleb128 0x13
 16042 021d 01       		.byte	0x1
 16043 021e 0B       		.uleb128 0xb
 16044 021f 06       		.uleb128 0x6
 16045 0220 3A       		.uleb128 0x3a
 16046 0221 0B       		.uleb128 0xb
 16047 0222 3B       		.uleb128 0x3b
 16048 0223 0B       		.uleb128 0xb
 16049 0224 01       		.uleb128 0x1
 16050 0225 13       		.uleb128 0x13
 16051 0226 00       		.byte	0
 16052 0227 00       		.byte	0
 16053 0228 2D       		.uleb128 0x2d
 16054 0229 0D       		.uleb128 0xd
 16055 022a 00       		.byte	0
 16056 022b 03       		.uleb128 0x3
 16057 022c 08       		.uleb128 0x8
 16058 022d 3A       		.uleb128 0x3a
 16059 022e 0B       		.uleb128 0xb
 16060 022f 3B       		.uleb128 0x3b
 16061 0230 0B       		.uleb128 0xb
 16062 0231 49       		.uleb128 0x49
 16063 0232 13       		.uleb128 0x13
 16064 0233 38       		.uleb128 0x38
 16065 0234 05       		.uleb128 0x5
 16066 0235 00       		.byte	0
 16067 0236 00       		.byte	0
 16068 0237 2E       		.uleb128 0x2e
 16069 0238 21       		.uleb128 0x21
 16070 0239 00       		.byte	0
 16071 023a 49       		.uleb128 0x49
 16072 023b 13       		.uleb128 0x13
 16073 023c 2F       		.uleb128 0x2f
ARM GAS  /tmp/ccJYnsep.s 			page 285


 16074 023d 05       		.uleb128 0x5
 16075 023e 00       		.byte	0
 16076 023f 00       		.byte	0
 16077 0240 2F       		.uleb128 0x2f
 16078 0241 21       		.uleb128 0x21
 16079 0242 00       		.byte	0
 16080 0243 00       		.byte	0
 16081 0244 00       		.byte	0
 16082 0245 30       		.uleb128 0x30
 16083 0246 04       		.uleb128 0x4
 16084 0247 01       		.byte	0x1
 16085 0248 03       		.uleb128 0x3
 16086 0249 0E       		.uleb128 0xe
 16087 024a 3E       		.uleb128 0x3e
 16088 024b 0B       		.uleb128 0xb
 16089 024c 0B       		.uleb128 0xb
 16090 024d 0B       		.uleb128 0xb
 16091 024e 49       		.uleb128 0x49
 16092 024f 13       		.uleb128 0x13
 16093 0250 3A       		.uleb128 0x3a
 16094 0251 0B       		.uleb128 0xb
 16095 0252 3B       		.uleb128 0x3b
 16096 0253 0B       		.uleb128 0xb
 16097 0254 01       		.uleb128 0x1
 16098 0255 13       		.uleb128 0x13
 16099 0256 00       		.byte	0
 16100 0257 00       		.byte	0
 16101 0258 31       		.uleb128 0x31
 16102 0259 28       		.uleb128 0x28
 16103 025a 00       		.byte	0
 16104 025b 03       		.uleb128 0x3
 16105 025c 0E       		.uleb128 0xe
 16106 025d 1C       		.uleb128 0x1c
 16107 025e 05       		.uleb128 0x5
 16108 025f 00       		.byte	0
 16109 0260 00       		.byte	0
 16110 0261 32       		.uleb128 0x32
 16111 0262 0D       		.uleb128 0xd
 16112 0263 00       		.byte	0
 16113 0264 49       		.uleb128 0x49
 16114 0265 13       		.uleb128 0x13
 16115 0266 38       		.uleb128 0x38
 16116 0267 0B       		.uleb128 0xb
 16117 0268 00       		.byte	0
 16118 0269 00       		.byte	0
 16119 026a 33       		.uleb128 0x33
 16120 026b 34       		.uleb128 0x34
 16121 026c 00       		.byte	0
 16122 026d 03       		.uleb128 0x3
 16123 026e 0E       		.uleb128 0xe
 16124 026f 3A       		.uleb128 0x3a
 16125 0270 0B       		.uleb128 0xb
 16126 0271 3B       		.uleb128 0x3b
 16127 0272 0B       		.uleb128 0xb
 16128 0273 49       		.uleb128 0x49
 16129 0274 13       		.uleb128 0x13
 16130 0275 3F       		.uleb128 0x3f
ARM GAS  /tmp/ccJYnsep.s 			page 286


 16131 0276 19       		.uleb128 0x19
 16132 0277 02       		.uleb128 0x2
 16133 0278 18       		.uleb128 0x18
 16134 0279 00       		.byte	0
 16135 027a 00       		.byte	0
 16136 027b 34       		.uleb128 0x34
 16137 027c 2E       		.uleb128 0x2e
 16138 027d 01       		.byte	0x1
 16139 027e 03       		.uleb128 0x3
 16140 027f 0E       		.uleb128 0xe
 16141 0280 3A       		.uleb128 0x3a
 16142 0281 0B       		.uleb128 0xb
 16143 0282 3B       		.uleb128 0x3b
 16144 0283 05       		.uleb128 0x5
 16145 0284 27       		.uleb128 0x27
 16146 0285 19       		.uleb128 0x19
 16147 0286 49       		.uleb128 0x49
 16148 0287 13       		.uleb128 0x13
 16149 0288 20       		.uleb128 0x20
 16150 0289 0B       		.uleb128 0xb
 16151 028a 01       		.uleb128 0x1
 16152 028b 13       		.uleb128 0x13
 16153 028c 00       		.byte	0
 16154 028d 00       		.byte	0
 16155 028e 35       		.uleb128 0x35
 16156 028f 05       		.uleb128 0x5
 16157 0290 00       		.byte	0
 16158 0291 03       		.uleb128 0x3
 16159 0292 08       		.uleb128 0x8
 16160 0293 3A       		.uleb128 0x3a
 16161 0294 0B       		.uleb128 0xb
 16162 0295 3B       		.uleb128 0x3b
 16163 0296 05       		.uleb128 0x5
 16164 0297 49       		.uleb128 0x49
 16165 0298 13       		.uleb128 0x13
 16166 0299 00       		.byte	0
 16167 029a 00       		.byte	0
 16168 029b 36       		.uleb128 0x36
 16169 029c 05       		.uleb128 0x5
 16170 029d 00       		.byte	0
 16171 029e 03       		.uleb128 0x3
 16172 029f 0E       		.uleb128 0xe
 16173 02a0 3A       		.uleb128 0x3a
 16174 02a1 0B       		.uleb128 0xb
 16175 02a2 3B       		.uleb128 0x3b
 16176 02a3 05       		.uleb128 0x5
 16177 02a4 49       		.uleb128 0x49
 16178 02a5 13       		.uleb128 0x13
 16179 02a6 00       		.byte	0
 16180 02a7 00       		.byte	0
 16181 02a8 37       		.uleb128 0x37
 16182 02a9 0B       		.uleb128 0xb
 16183 02aa 01       		.byte	0x1
 16184 02ab 01       		.uleb128 0x1
 16185 02ac 13       		.uleb128 0x13
 16186 02ad 00       		.byte	0
 16187 02ae 00       		.byte	0
ARM GAS  /tmp/ccJYnsep.s 			page 287


 16188 02af 38       		.uleb128 0x38
 16189 02b0 34       		.uleb128 0x34
 16190 02b1 00       		.byte	0
 16191 02b2 03       		.uleb128 0x3
 16192 02b3 0E       		.uleb128 0xe
 16193 02b4 3A       		.uleb128 0x3a
 16194 02b5 0B       		.uleb128 0xb
 16195 02b6 3B       		.uleb128 0x3b
 16196 02b7 05       		.uleb128 0x5
 16197 02b8 49       		.uleb128 0x49
 16198 02b9 13       		.uleb128 0x13
 16199 02ba 00       		.byte	0
 16200 02bb 00       		.byte	0
 16201 02bc 39       		.uleb128 0x39
 16202 02bd 0B       		.uleb128 0xb
 16203 02be 01       		.byte	0x1
 16204 02bf 00       		.byte	0
 16205 02c0 00       		.byte	0
 16206 02c1 3A       		.uleb128 0x3a
 16207 02c2 34       		.uleb128 0x34
 16208 02c3 00       		.byte	0
 16209 02c4 03       		.uleb128 0x3
 16210 02c5 08       		.uleb128 0x8
 16211 02c6 3A       		.uleb128 0x3a
 16212 02c7 0B       		.uleb128 0xb
 16213 02c8 3B       		.uleb128 0x3b
 16214 02c9 05       		.uleb128 0x5
 16215 02ca 49       		.uleb128 0x49
 16216 02cb 13       		.uleb128 0x13
 16217 02cc 00       		.byte	0
 16218 02cd 00       		.byte	0
 16219 02ce 3B       		.uleb128 0x3b
 16220 02cf 2E       		.uleb128 0x2e
 16221 02d0 01       		.byte	0x1
 16222 02d1 03       		.uleb128 0x3
 16223 02d2 0E       		.uleb128 0xe
 16224 02d3 3A       		.uleb128 0x3a
 16225 02d4 0B       		.uleb128 0xb
 16226 02d5 3B       		.uleb128 0x3b
 16227 02d6 05       		.uleb128 0x5
 16228 02d7 27       		.uleb128 0x27
 16229 02d8 19       		.uleb128 0x19
 16230 02d9 49       		.uleb128 0x49
 16231 02da 13       		.uleb128 0x13
 16232 02db 11       		.uleb128 0x11
 16233 02dc 01       		.uleb128 0x1
 16234 02dd 12       		.uleb128 0x12
 16235 02de 06       		.uleb128 0x6
 16236 02df 40       		.uleb128 0x40
 16237 02e0 18       		.uleb128 0x18
 16238 02e1 9742     		.uleb128 0x2117
 16239 02e3 19       		.uleb128 0x19
 16240 02e4 01       		.uleb128 0x1
 16241 02e5 13       		.uleb128 0x13
 16242 02e6 00       		.byte	0
 16243 02e7 00       		.byte	0
 16244 02e8 3C       		.uleb128 0x3c
ARM GAS  /tmp/ccJYnsep.s 			page 288


 16245 02e9 05       		.uleb128 0x5
 16246 02ea 00       		.byte	0
 16247 02eb 03       		.uleb128 0x3
 16248 02ec 08       		.uleb128 0x8
 16249 02ed 3A       		.uleb128 0x3a
 16250 02ee 0B       		.uleb128 0xb
 16251 02ef 3B       		.uleb128 0x3b
 16252 02f0 05       		.uleb128 0x5
 16253 02f1 49       		.uleb128 0x49
 16254 02f2 13       		.uleb128 0x13
 16255 02f3 02       		.uleb128 0x2
 16256 02f4 17       		.uleb128 0x17
 16257 02f5 00       		.byte	0
 16258 02f6 00       		.byte	0
 16259 02f7 3D       		.uleb128 0x3d
 16260 02f8 05       		.uleb128 0x5
 16261 02f9 00       		.byte	0
 16262 02fa 03       		.uleb128 0x3
 16263 02fb 0E       		.uleb128 0xe
 16264 02fc 3A       		.uleb128 0x3a
 16265 02fd 0B       		.uleb128 0xb
 16266 02fe 3B       		.uleb128 0x3b
 16267 02ff 05       		.uleb128 0x5
 16268 0300 49       		.uleb128 0x49
 16269 0301 13       		.uleb128 0x13
 16270 0302 02       		.uleb128 0x2
 16271 0303 17       		.uleb128 0x17
 16272 0304 00       		.byte	0
 16273 0305 00       		.byte	0
 16274 0306 3E       		.uleb128 0x3e
 16275 0307 34       		.uleb128 0x34
 16276 0308 00       		.byte	0
 16277 0309 03       		.uleb128 0x3
 16278 030a 0E       		.uleb128 0xe
 16279 030b 3A       		.uleb128 0x3a
 16280 030c 0B       		.uleb128 0xb
 16281 030d 3B       		.uleb128 0x3b
 16282 030e 05       		.uleb128 0x5
 16283 030f 49       		.uleb128 0x49
 16284 0310 13       		.uleb128 0x13
 16285 0311 02       		.uleb128 0x2
 16286 0312 17       		.uleb128 0x17
 16287 0313 00       		.byte	0
 16288 0314 00       		.byte	0
 16289 0315 3F       		.uleb128 0x3f
 16290 0316 34       		.uleb128 0x34
 16291 0317 00       		.byte	0
 16292 0318 03       		.uleb128 0x3
 16293 0319 08       		.uleb128 0x8
 16294 031a 3A       		.uleb128 0x3a
 16295 031b 0B       		.uleb128 0xb
 16296 031c 3B       		.uleb128 0x3b
 16297 031d 05       		.uleb128 0x5
 16298 031e 49       		.uleb128 0x49
 16299 031f 13       		.uleb128 0x13
 16300 0320 02       		.uleb128 0x2
 16301 0321 18       		.uleb128 0x18
ARM GAS  /tmp/ccJYnsep.s 			page 289


 16302 0322 00       		.byte	0
 16303 0323 00       		.byte	0
 16304 0324 40       		.uleb128 0x40
 16305 0325 1D       		.uleb128 0x1d
 16306 0326 01       		.byte	0x1
 16307 0327 31       		.uleb128 0x31
 16308 0328 13       		.uleb128 0x13
 16309 0329 52       		.uleb128 0x52
 16310 032a 01       		.uleb128 0x1
 16311 032b 55       		.uleb128 0x55
 16312 032c 17       		.uleb128 0x17
 16313 032d 58       		.uleb128 0x58
 16314 032e 0B       		.uleb128 0xb
 16315 032f 59       		.uleb128 0x59
 16316 0330 05       		.uleb128 0x5
 16317 0331 01       		.uleb128 0x1
 16318 0332 13       		.uleb128 0x13
 16319 0333 00       		.byte	0
 16320 0334 00       		.byte	0
 16321 0335 41       		.uleb128 0x41
 16322 0336 05       		.uleb128 0x5
 16323 0337 00       		.byte	0
 16324 0338 31       		.uleb128 0x31
 16325 0339 13       		.uleb128 0x13
 16326 033a 02       		.uleb128 0x2
 16327 033b 17       		.uleb128 0x17
 16328 033c 00       		.byte	0
 16329 033d 00       		.byte	0
 16330 033e 42       		.uleb128 0x42
 16331 033f 0B       		.uleb128 0xb
 16332 0340 01       		.byte	0x1
 16333 0341 55       		.uleb128 0x55
 16334 0342 17       		.uleb128 0x17
 16335 0343 00       		.byte	0
 16336 0344 00       		.byte	0
 16337 0345 43       		.uleb128 0x43
 16338 0346 34       		.uleb128 0x34
 16339 0347 00       		.byte	0
 16340 0348 31       		.uleb128 0x31
 16341 0349 13       		.uleb128 0x13
 16342 034a 02       		.uleb128 0x2
 16343 034b 18       		.uleb128 0x18
 16344 034c 00       		.byte	0
 16345 034d 00       		.byte	0
 16346 034e 44       		.uleb128 0x44
 16347 034f 898201   		.uleb128 0x4109
 16348 0352 01       		.byte	0x1
 16349 0353 11       		.uleb128 0x11
 16350 0354 01       		.uleb128 0x1
 16351 0355 31       		.uleb128 0x31
 16352 0356 13       		.uleb128 0x13
 16353 0357 01       		.uleb128 0x1
 16354 0358 13       		.uleb128 0x13
 16355 0359 00       		.byte	0
 16356 035a 00       		.byte	0
 16357 035b 45       		.uleb128 0x45
 16358 035c 8A8201   		.uleb128 0x410a
ARM GAS  /tmp/ccJYnsep.s 			page 290


 16359 035f 00       		.byte	0
 16360 0360 02       		.uleb128 0x2
 16361 0361 18       		.uleb128 0x18
 16362 0362 9142     		.uleb128 0x2111
 16363 0364 18       		.uleb128 0x18
 16364 0365 00       		.byte	0
 16365 0366 00       		.byte	0
 16366 0367 46       		.uleb128 0x46
 16367 0368 898201   		.uleb128 0x4109
 16368 036b 01       		.byte	0x1
 16369 036c 11       		.uleb128 0x11
 16370 036d 01       		.uleb128 0x1
 16371 036e 31       		.uleb128 0x31
 16372 036f 13       		.uleb128 0x13
 16373 0370 00       		.byte	0
 16374 0371 00       		.byte	0
 16375 0372 47       		.uleb128 0x47
 16376 0373 898201   		.uleb128 0x4109
 16377 0376 00       		.byte	0
 16378 0377 11       		.uleb128 0x11
 16379 0378 01       		.uleb128 0x1
 16380 0379 31       		.uleb128 0x31
 16381 037a 13       		.uleb128 0x13
 16382 037b 00       		.byte	0
 16383 037c 00       		.byte	0
 16384 037d 48       		.uleb128 0x48
 16385 037e 2E       		.uleb128 0x2e
 16386 037f 01       		.byte	0x1
 16387 0380 3F       		.uleb128 0x3f
 16388 0381 19       		.uleb128 0x19
 16389 0382 03       		.uleb128 0x3
 16390 0383 0E       		.uleb128 0xe
 16391 0384 3A       		.uleb128 0x3a
 16392 0385 0B       		.uleb128 0xb
 16393 0386 3B       		.uleb128 0x3b
 16394 0387 05       		.uleb128 0x5
 16395 0388 27       		.uleb128 0x27
 16396 0389 19       		.uleb128 0x19
 16397 038a 49       		.uleb128 0x49
 16398 038b 13       		.uleb128 0x13
 16399 038c 11       		.uleb128 0x11
 16400 038d 01       		.uleb128 0x1
 16401 038e 12       		.uleb128 0x12
 16402 038f 06       		.uleb128 0x6
 16403 0390 40       		.uleb128 0x40
 16404 0391 18       		.uleb128 0x18
 16405 0392 9742     		.uleb128 0x2117
 16406 0394 19       		.uleb128 0x19
 16407 0395 01       		.uleb128 0x1
 16408 0396 13       		.uleb128 0x13
 16409 0397 00       		.byte	0
 16410 0398 00       		.byte	0
 16411 0399 49       		.uleb128 0x49
 16412 039a 05       		.uleb128 0x5
 16413 039b 00       		.byte	0
 16414 039c 03       		.uleb128 0x3
 16415 039d 08       		.uleb128 0x8
ARM GAS  /tmp/ccJYnsep.s 			page 291


 16416 039e 3A       		.uleb128 0x3a
 16417 039f 0B       		.uleb128 0xb
 16418 03a0 3B       		.uleb128 0x3b
 16419 03a1 05       		.uleb128 0x5
 16420 03a2 49       		.uleb128 0x49
 16421 03a3 13       		.uleb128 0x13
 16422 03a4 02       		.uleb128 0x2
 16423 03a5 18       		.uleb128 0x18
 16424 03a6 00       		.byte	0
 16425 03a7 00       		.byte	0
 16426 03a8 4A       		.uleb128 0x4a
 16427 03a9 34       		.uleb128 0x34
 16428 03aa 00       		.byte	0
 16429 03ab 03       		.uleb128 0x3
 16430 03ac 08       		.uleb128 0x8
 16431 03ad 3A       		.uleb128 0x3a
 16432 03ae 0B       		.uleb128 0xb
 16433 03af 3B       		.uleb128 0x3b
 16434 03b0 05       		.uleb128 0x5
 16435 03b1 49       		.uleb128 0x49
 16436 03b2 13       		.uleb128 0x13
 16437 03b3 02       		.uleb128 0x2
 16438 03b4 17       		.uleb128 0x17
 16439 03b5 00       		.byte	0
 16440 03b6 00       		.byte	0
 16441 03b7 4B       		.uleb128 0x4b
 16442 03b8 34       		.uleb128 0x34
 16443 03b9 00       		.byte	0
 16444 03ba 03       		.uleb128 0x3
 16445 03bb 0E       		.uleb128 0xe
 16446 03bc 3A       		.uleb128 0x3a
 16447 03bd 0B       		.uleb128 0xb
 16448 03be 3B       		.uleb128 0x3b
 16449 03bf 05       		.uleb128 0x5
 16450 03c0 49       		.uleb128 0x49
 16451 03c1 13       		.uleb128 0x13
 16452 03c2 02       		.uleb128 0x2
 16453 03c3 18       		.uleb128 0x18
 16454 03c4 00       		.byte	0
 16455 03c5 00       		.byte	0
 16456 03c6 4C       		.uleb128 0x4c
 16457 03c7 0B       		.uleb128 0xb
 16458 03c8 01       		.byte	0x1
 16459 03c9 55       		.uleb128 0x55
 16460 03ca 17       		.uleb128 0x17
 16461 03cb 01       		.uleb128 0x1
 16462 03cc 13       		.uleb128 0x13
 16463 03cd 00       		.byte	0
 16464 03ce 00       		.byte	0
 16465 03cf 4D       		.uleb128 0x4d
 16466 03d0 2E       		.uleb128 0x2e
 16467 03d1 01       		.byte	0x1
 16468 03d2 03       		.uleb128 0x3
 16469 03d3 0E       		.uleb128 0xe
 16470 03d4 3A       		.uleb128 0x3a
 16471 03d5 0B       		.uleb128 0xb
 16472 03d6 3B       		.uleb128 0x3b
ARM GAS  /tmp/ccJYnsep.s 			page 292


 16473 03d7 05       		.uleb128 0x5
 16474 03d8 27       		.uleb128 0x27
 16475 03d9 19       		.uleb128 0x19
 16476 03da 20       		.uleb128 0x20
 16477 03db 0B       		.uleb128 0xb
 16478 03dc 01       		.uleb128 0x1
 16479 03dd 13       		.uleb128 0x13
 16480 03de 00       		.byte	0
 16481 03df 00       		.byte	0
 16482 03e0 4E       		.uleb128 0x4e
 16483 03e1 2E       		.uleb128 0x2e
 16484 03e2 01       		.byte	0x1
 16485 03e3 03       		.uleb128 0x3
 16486 03e4 0E       		.uleb128 0xe
 16487 03e5 3A       		.uleb128 0x3a
 16488 03e6 0B       		.uleb128 0xb
 16489 03e7 3B       		.uleb128 0x3b
 16490 03e8 0B       		.uleb128 0xb
 16491 03e9 27       		.uleb128 0x27
 16492 03ea 19       		.uleb128 0x19
 16493 03eb 49       		.uleb128 0x49
 16494 03ec 13       		.uleb128 0x13
 16495 03ed 20       		.uleb128 0x20
 16496 03ee 0B       		.uleb128 0xb
 16497 03ef 01       		.uleb128 0x1
 16498 03f0 13       		.uleb128 0x13
 16499 03f1 00       		.byte	0
 16500 03f2 00       		.byte	0
 16501 03f3 4F       		.uleb128 0x4f
 16502 03f4 05       		.uleb128 0x5
 16503 03f5 00       		.byte	0
 16504 03f6 03       		.uleb128 0x3
 16505 03f7 08       		.uleb128 0x8
 16506 03f8 3A       		.uleb128 0x3a
 16507 03f9 0B       		.uleb128 0xb
 16508 03fa 3B       		.uleb128 0x3b
 16509 03fb 0B       		.uleb128 0xb
 16510 03fc 49       		.uleb128 0x49
 16511 03fd 13       		.uleb128 0x13
 16512 03fe 00       		.byte	0
 16513 03ff 00       		.byte	0
 16514 0400 50       		.uleb128 0x50
 16515 0401 34       		.uleb128 0x34
 16516 0402 00       		.byte	0
 16517 0403 03       		.uleb128 0x3
 16518 0404 0E       		.uleb128 0xe
 16519 0405 3A       		.uleb128 0x3a
 16520 0406 0B       		.uleb128 0xb
 16521 0407 3B       		.uleb128 0x3b
 16522 0408 0B       		.uleb128 0xb
 16523 0409 49       		.uleb128 0x49
 16524 040a 13       		.uleb128 0x13
 16525 040b 00       		.byte	0
 16526 040c 00       		.byte	0
 16527 040d 51       		.uleb128 0x51
 16528 040e 2E       		.uleb128 0x2e
 16529 040f 01       		.byte	0x1
ARM GAS  /tmp/ccJYnsep.s 			page 293


 16530 0410 3F       		.uleb128 0x3f
 16531 0411 19       		.uleb128 0x19
 16532 0412 03       		.uleb128 0x3
 16533 0413 0E       		.uleb128 0xe
 16534 0414 3A       		.uleb128 0x3a
 16535 0415 0B       		.uleb128 0xb
 16536 0416 3B       		.uleb128 0x3b
 16537 0417 0B       		.uleb128 0xb
 16538 0418 27       		.uleb128 0x27
 16539 0419 19       		.uleb128 0x19
 16540 041a 49       		.uleb128 0x49
 16541 041b 13       		.uleb128 0x13
 16542 041c 11       		.uleb128 0x11
 16543 041d 01       		.uleb128 0x1
 16544 041e 12       		.uleb128 0x12
 16545 041f 06       		.uleb128 0x6
 16546 0420 40       		.uleb128 0x40
 16547 0421 18       		.uleb128 0x18
 16548 0422 9742     		.uleb128 0x2117
 16549 0424 19       		.uleb128 0x19
 16550 0425 01       		.uleb128 0x1
 16551 0426 13       		.uleb128 0x13
 16552 0427 00       		.byte	0
 16553 0428 00       		.byte	0
 16554 0429 52       		.uleb128 0x52
 16555 042a 05       		.uleb128 0x5
 16556 042b 00       		.byte	0
 16557 042c 03       		.uleb128 0x3
 16558 042d 08       		.uleb128 0x8
 16559 042e 3A       		.uleb128 0x3a
 16560 042f 0B       		.uleb128 0xb
 16561 0430 3B       		.uleb128 0x3b
 16562 0431 0B       		.uleb128 0xb
 16563 0432 49       		.uleb128 0x49
 16564 0433 13       		.uleb128 0x13
 16565 0434 02       		.uleb128 0x2
 16566 0435 17       		.uleb128 0x17
 16567 0436 00       		.byte	0
 16568 0437 00       		.byte	0
 16569 0438 53       		.uleb128 0x53
 16570 0439 34       		.uleb128 0x34
 16571 043a 00       		.byte	0
 16572 043b 03       		.uleb128 0x3
 16573 043c 08       		.uleb128 0x8
 16574 043d 3A       		.uleb128 0x3a
 16575 043e 0B       		.uleb128 0xb
 16576 043f 3B       		.uleb128 0x3b
 16577 0440 0B       		.uleb128 0xb
 16578 0441 49       		.uleb128 0x49
 16579 0442 13       		.uleb128 0x13
 16580 0443 02       		.uleb128 0x2
 16581 0444 17       		.uleb128 0x17
 16582 0445 00       		.byte	0
 16583 0446 00       		.byte	0
 16584 0447 54       		.uleb128 0x54
 16585 0448 34       		.uleb128 0x34
 16586 0449 00       		.byte	0
ARM GAS  /tmp/ccJYnsep.s 			page 294


 16587 044a 03       		.uleb128 0x3
 16588 044b 0E       		.uleb128 0xe
 16589 044c 3A       		.uleb128 0x3a
 16590 044d 0B       		.uleb128 0xb
 16591 044e 3B       		.uleb128 0x3b
 16592 044f 0B       		.uleb128 0xb
 16593 0450 49       		.uleb128 0x49
 16594 0451 13       		.uleb128 0x13
 16595 0452 02       		.uleb128 0x2
 16596 0453 17       		.uleb128 0x17
 16597 0454 00       		.byte	0
 16598 0455 00       		.byte	0
 16599 0456 55       		.uleb128 0x55
 16600 0457 0B       		.uleb128 0xb
 16601 0458 01       		.byte	0x1
 16602 0459 11       		.uleb128 0x11
 16603 045a 01       		.uleb128 0x1
 16604 045b 12       		.uleb128 0x12
 16605 045c 06       		.uleb128 0x6
 16606 045d 01       		.uleb128 0x1
 16607 045e 13       		.uleb128 0x13
 16608 045f 00       		.byte	0
 16609 0460 00       		.byte	0
 16610 0461 56       		.uleb128 0x56
 16611 0462 2E       		.uleb128 0x2e
 16612 0463 01       		.byte	0x1
 16613 0464 03       		.uleb128 0x3
 16614 0465 0E       		.uleb128 0xe
 16615 0466 3A       		.uleb128 0x3a
 16616 0467 0B       		.uleb128 0xb
 16617 0468 3B       		.uleb128 0x3b
 16618 0469 0B       		.uleb128 0xb
 16619 046a 27       		.uleb128 0x27
 16620 046b 19       		.uleb128 0x19
 16621 046c 11       		.uleb128 0x11
 16622 046d 01       		.uleb128 0x1
 16623 046e 12       		.uleb128 0x12
 16624 046f 06       		.uleb128 0x6
 16625 0470 40       		.uleb128 0x40
 16626 0471 18       		.uleb128 0x18
 16627 0472 9742     		.uleb128 0x2117
 16628 0474 19       		.uleb128 0x19
 16629 0475 01       		.uleb128 0x1
 16630 0476 13       		.uleb128 0x13
 16631 0477 00       		.byte	0
 16632 0478 00       		.byte	0
 16633 0479 57       		.uleb128 0x57
 16634 047a 898201   		.uleb128 0x4109
 16635 047d 01       		.byte	0x1
 16636 047e 11       		.uleb128 0x11
 16637 047f 01       		.uleb128 0x1
 16638 0480 9542     		.uleb128 0x2115
 16639 0482 19       		.uleb128 0x19
 16640 0483 31       		.uleb128 0x31
 16641 0484 13       		.uleb128 0x13
 16642 0485 00       		.byte	0
 16643 0486 00       		.byte	0
ARM GAS  /tmp/ccJYnsep.s 			page 295


 16644 0487 58       		.uleb128 0x58
 16645 0488 2E       		.uleb128 0x2e
 16646 0489 01       		.byte	0x1
 16647 048a 3F       		.uleb128 0x3f
 16648 048b 19       		.uleb128 0x19
 16649 048c 03       		.uleb128 0x3
 16650 048d 0E       		.uleb128 0xe
 16651 048e 3A       		.uleb128 0x3a
 16652 048f 0B       		.uleb128 0xb
 16653 0490 3B       		.uleb128 0x3b
 16654 0491 0B       		.uleb128 0xb
 16655 0492 27       		.uleb128 0x27
 16656 0493 19       		.uleb128 0x19
 16657 0494 49       		.uleb128 0x49
 16658 0495 13       		.uleb128 0x13
 16659 0496 20       		.uleb128 0x20
 16660 0497 0B       		.uleb128 0xb
 16661 0498 01       		.uleb128 0x1
 16662 0499 13       		.uleb128 0x13
 16663 049a 00       		.byte	0
 16664 049b 00       		.byte	0
 16665 049c 59       		.uleb128 0x59
 16666 049d 05       		.uleb128 0x5
 16667 049e 00       		.byte	0
 16668 049f 03       		.uleb128 0x3
 16669 04a0 0E       		.uleb128 0xe
 16670 04a1 3A       		.uleb128 0x3a
 16671 04a2 0B       		.uleb128 0xb
 16672 04a3 3B       		.uleb128 0x3b
 16673 04a4 0B       		.uleb128 0xb
 16674 04a5 49       		.uleb128 0x49
 16675 04a6 13       		.uleb128 0x13
 16676 04a7 00       		.byte	0
 16677 04a8 00       		.byte	0
 16678 04a9 5A       		.uleb128 0x5a
 16679 04aa 2E       		.uleb128 0x2e
 16680 04ab 01       		.byte	0x1
 16681 04ac 03       		.uleb128 0x3
 16682 04ad 0E       		.uleb128 0xe
 16683 04ae 3A       		.uleb128 0x3a
 16684 04af 0B       		.uleb128 0xb
 16685 04b0 3B       		.uleb128 0x3b
 16686 04b1 0B       		.uleb128 0xb
 16687 04b2 27       		.uleb128 0x27
 16688 04b3 19       		.uleb128 0x19
 16689 04b4 20       		.uleb128 0x20
 16690 04b5 0B       		.uleb128 0xb
 16691 04b6 01       		.uleb128 0x1
 16692 04b7 13       		.uleb128 0x13
 16693 04b8 00       		.byte	0
 16694 04b9 00       		.byte	0
 16695 04ba 5B       		.uleb128 0x5b
 16696 04bb 34       		.uleb128 0x34
 16697 04bc 00       		.byte	0
 16698 04bd 03       		.uleb128 0x3
 16699 04be 08       		.uleb128 0x8
 16700 04bf 3A       		.uleb128 0x3a
ARM GAS  /tmp/ccJYnsep.s 			page 296


 16701 04c0 0B       		.uleb128 0xb
 16702 04c1 3B       		.uleb128 0x3b
 16703 04c2 0B       		.uleb128 0xb
 16704 04c3 49       		.uleb128 0x49
 16705 04c4 13       		.uleb128 0x13
 16706 04c5 00       		.byte	0
 16707 04c6 00       		.byte	0
 16708 04c7 5C       		.uleb128 0x5c
 16709 04c8 2E       		.uleb128 0x2e
 16710 04c9 01       		.byte	0x1
 16711 04ca 31       		.uleb128 0x31
 16712 04cb 13       		.uleb128 0x13
 16713 04cc 11       		.uleb128 0x11
 16714 04cd 01       		.uleb128 0x1
 16715 04ce 12       		.uleb128 0x12
 16716 04cf 06       		.uleb128 0x6
 16717 04d0 40       		.uleb128 0x40
 16718 04d1 18       		.uleb128 0x18
 16719 04d2 9742     		.uleb128 0x2117
 16720 04d4 19       		.uleb128 0x19
 16721 04d5 01       		.uleb128 0x1
 16722 04d6 13       		.uleb128 0x13
 16723 04d7 00       		.byte	0
 16724 04d8 00       		.byte	0
 16725 04d9 5D       		.uleb128 0x5d
 16726 04da 0B       		.uleb128 0xb
 16727 04db 01       		.byte	0x1
 16728 04dc 31       		.uleb128 0x31
 16729 04dd 13       		.uleb128 0x13
 16730 04de 55       		.uleb128 0x55
 16731 04df 17       		.uleb128 0x17
 16732 04e0 01       		.uleb128 0x1
 16733 04e1 13       		.uleb128 0x13
 16734 04e2 00       		.byte	0
 16735 04e3 00       		.byte	0
 16736 04e4 5E       		.uleb128 0x5e
 16737 04e5 0B       		.uleb128 0xb
 16738 04e6 01       		.byte	0x1
 16739 04e7 31       		.uleb128 0x31
 16740 04e8 13       		.uleb128 0x13
 16741 04e9 55       		.uleb128 0x55
 16742 04ea 17       		.uleb128 0x17
 16743 04eb 00       		.byte	0
 16744 04ec 00       		.byte	0
 16745 04ed 5F       		.uleb128 0x5f
 16746 04ee 34       		.uleb128 0x34
 16747 04ef 00       		.byte	0
 16748 04f0 31       		.uleb128 0x31
 16749 04f1 13       		.uleb128 0x13
 16750 04f2 02       		.uleb128 0x2
 16751 04f3 17       		.uleb128 0x17
 16752 04f4 00       		.byte	0
 16753 04f5 00       		.byte	0
 16754 04f6 60       		.uleb128 0x60
 16755 04f7 0B       		.uleb128 0xb
 16756 04f8 01       		.byte	0x1
 16757 04f9 31       		.uleb128 0x31
ARM GAS  /tmp/ccJYnsep.s 			page 297


 16758 04fa 13       		.uleb128 0x13
 16759 04fb 11       		.uleb128 0x11
 16760 04fc 01       		.uleb128 0x1
 16761 04fd 12       		.uleb128 0x12
 16762 04fe 06       		.uleb128 0x6
 16763 04ff 01       		.uleb128 0x1
 16764 0500 13       		.uleb128 0x13
 16765 0501 00       		.byte	0
 16766 0502 00       		.byte	0
 16767 0503 61       		.uleb128 0x61
 16768 0504 34       		.uleb128 0x34
 16769 0505 00       		.byte	0
 16770 0506 31       		.uleb128 0x31
 16771 0507 13       		.uleb128 0x13
 16772 0508 00       		.byte	0
 16773 0509 00       		.byte	0
 16774 050a 62       		.uleb128 0x62
 16775 050b 34       		.uleb128 0x34
 16776 050c 00       		.byte	0
 16777 050d 31       		.uleb128 0x31
 16778 050e 13       		.uleb128 0x13
 16779 050f 1C       		.uleb128 0x1c
 16780 0510 0B       		.uleb128 0xb
 16781 0511 00       		.byte	0
 16782 0512 00       		.byte	0
 16783 0513 63       		.uleb128 0x63
 16784 0514 34       		.uleb128 0x34
 16785 0515 00       		.byte	0
 16786 0516 31       		.uleb128 0x31
 16787 0517 13       		.uleb128 0x13
 16788 0518 1C       		.uleb128 0x1c
 16789 0519 06       		.uleb128 0x6
 16790 051a 00       		.byte	0
 16791 051b 00       		.byte	0
 16792 051c 64       		.uleb128 0x64
 16793 051d 1D       		.uleb128 0x1d
 16794 051e 01       		.byte	0x1
 16795 051f 31       		.uleb128 0x31
 16796 0520 13       		.uleb128 0x13
 16797 0521 11       		.uleb128 0x11
 16798 0522 01       		.uleb128 0x1
 16799 0523 12       		.uleb128 0x12
 16800 0524 06       		.uleb128 0x6
 16801 0525 58       		.uleb128 0x58
 16802 0526 0B       		.uleb128 0xb
 16803 0527 59       		.uleb128 0x59
 16804 0528 05       		.uleb128 0x5
 16805 0529 01       		.uleb128 0x1
 16806 052a 13       		.uleb128 0x13
 16807 052b 00       		.byte	0
 16808 052c 00       		.byte	0
 16809 052d 65       		.uleb128 0x65
 16810 052e 0B       		.uleb128 0xb
 16811 052f 01       		.byte	0x1
 16812 0530 11       		.uleb128 0x11
 16813 0531 01       		.uleb128 0x1
 16814 0532 12       		.uleb128 0x12
ARM GAS  /tmp/ccJYnsep.s 			page 298


 16815 0533 06       		.uleb128 0x6
 16816 0534 00       		.byte	0
 16817 0535 00       		.byte	0
 16818 0536 66       		.uleb128 0x66
 16819 0537 05       		.uleb128 0x5
 16820 0538 00       		.byte	0
 16821 0539 31       		.uleb128 0x31
 16822 053a 13       		.uleb128 0x13
 16823 053b 00       		.byte	0
 16824 053c 00       		.byte	0
 16825 053d 67       		.uleb128 0x67
 16826 053e 1D       		.uleb128 0x1d
 16827 053f 01       		.byte	0x1
 16828 0540 31       		.uleb128 0x31
 16829 0541 13       		.uleb128 0x13
 16830 0542 52       		.uleb128 0x52
 16831 0543 01       		.uleb128 0x1
 16832 0544 55       		.uleb128 0x55
 16833 0545 17       		.uleb128 0x17
 16834 0546 58       		.uleb128 0x58
 16835 0547 0B       		.uleb128 0xb
 16836 0548 59       		.uleb128 0x59
 16837 0549 05       		.uleb128 0x5
 16838 054a 00       		.byte	0
 16839 054b 00       		.byte	0
 16840 054c 68       		.uleb128 0x68
 16841 054d 1D       		.uleb128 0x1d
 16842 054e 01       		.byte	0x1
 16843 054f 31       		.uleb128 0x31
 16844 0550 13       		.uleb128 0x13
 16845 0551 11       		.uleb128 0x11
 16846 0552 01       		.uleb128 0x1
 16847 0553 12       		.uleb128 0x12
 16848 0554 06       		.uleb128 0x6
 16849 0555 58       		.uleb128 0x58
 16850 0556 0B       		.uleb128 0xb
 16851 0557 59       		.uleb128 0x59
 16852 0558 05       		.uleb128 0x5
 16853 0559 00       		.byte	0
 16854 055a 00       		.byte	0
 16855 055b 69       		.uleb128 0x69
 16856 055c 2E       		.uleb128 0x2e
 16857 055d 00       		.byte	0
 16858 055e 3F       		.uleb128 0x3f
 16859 055f 19       		.uleb128 0x19
 16860 0560 3C       		.uleb128 0x3c
 16861 0561 19       		.uleb128 0x19
 16862 0562 6E       		.uleb128 0x6e
 16863 0563 0E       		.uleb128 0xe
 16864 0564 03       		.uleb128 0x3
 16865 0565 0E       		.uleb128 0xe
 16866 0566 3A       		.uleb128 0x3a
 16867 0567 0B       		.uleb128 0xb
 16868 0568 3B       		.uleb128 0x3b
 16869 0569 0B       		.uleb128 0xb
 16870 056a 00       		.byte	0
 16871 056b 00       		.byte	0
ARM GAS  /tmp/ccJYnsep.s 			page 299


 16872 056c 00       		.byte	0
 16873              		.section	.debug_loc,"",%progbits
 16874              	.Ldebug_loc0:
 16875              	.LLST154:
 16876 0000 00000000 		.4byte	.LVL296
 16877 0004 44000000 		.4byte	.LVL300
 16878 0008 0100     		.2byte	0x1
 16879 000a 50       		.byte	0x50
 16880 000b 44000000 		.4byte	.LVL300
 16881 000f EA000000 		.4byte	.LVL314
 16882 0013 0100     		.2byte	0x1
 16883 0015 54       		.byte	0x54
 16884 0016 EA000000 		.4byte	.LVL314
 16885 001a 16010000 		.4byte	.LVL317
 16886 001e 0100     		.2byte	0x1
 16887 0020 50       		.byte	0x50
 16888 0021 16010000 		.4byte	.LVL317
 16889 0025 54010000 		.4byte	.LVL325
 16890 0029 0100     		.2byte	0x1
 16891 002b 54       		.byte	0x54
 16892 002c 54010000 		.4byte	.LVL325
 16893 0030 5E010000 		.4byte	.LVL326
 16894 0034 0100     		.2byte	0x1
 16895 0036 50       		.byte	0x50
 16896 0037 5E010000 		.4byte	.LVL326
 16897 003b 1C030000 		.4byte	.LFE275
 16898 003f 0100     		.2byte	0x1
 16899 0041 54       		.byte	0x54
 16900 0042 00000000 		.4byte	0
 16901 0046 00000000 		.4byte	0
 16902              	.LLST155:
 16903 004a 00000000 		.4byte	.LVL296
 16904 004e 40000000 		.4byte	.LVL299
 16905 0052 0100     		.2byte	0x1
 16906 0054 51       		.byte	0x51
 16907 0055 40000000 		.4byte	.LVL299
 16908 0059 70000000 		.4byte	.LVL305
 16909 005d 0100     		.2byte	0x1
 16910 005f 58       		.byte	0x58
 16911 0060 70000000 		.4byte	.LVL305
 16912 0064 EA000000 		.4byte	.LVL314
 16913 0068 0400     		.2byte	0x4
 16914 006a F3       		.byte	0xf3
 16915 006b 01       		.uleb128 0x1
 16916 006c 51       		.byte	0x51
 16917 006d 9F       		.byte	0x9f
 16918 006e EA000000 		.4byte	.LVL314
 16919 0072 14010000 		.4byte	.LVL316
 16920 0076 0100     		.2byte	0x1
 16921 0078 51       		.byte	0x51
 16922 0079 14010000 		.4byte	.LVL316
 16923 007d 3A010000 		.4byte	.LVL321
 16924 0081 0100     		.2byte	0x1
 16925 0083 58       		.byte	0x58
 16926 0084 3A010000 		.4byte	.LVL321
 16927 0088 54010000 		.4byte	.LVL325
 16928 008c 0400     		.2byte	0x4
ARM GAS  /tmp/ccJYnsep.s 			page 300


 16929 008e F3       		.byte	0xf3
 16930 008f 01       		.uleb128 0x1
 16931 0090 51       		.byte	0x51
 16932 0091 9F       		.byte	0x9f
 16933 0092 54010000 		.4byte	.LVL325
 16934 0096 5E010000 		.4byte	.LVL326
 16935 009a 0100     		.2byte	0x1
 16936 009c 51       		.byte	0x51
 16937 009d 5E010000 		.4byte	.LVL326
 16938 00a1 BA010000 		.4byte	.LVL335
 16939 00a5 0400     		.2byte	0x4
 16940 00a7 F3       		.byte	0xf3
 16941 00a8 01       		.uleb128 0x1
 16942 00a9 51       		.byte	0x51
 16943 00aa 9F       		.byte	0x9f
 16944 00ab BA010000 		.4byte	.LVL335
 16945 00af D2010000 		.4byte	.LVL338
 16946 00b3 0100     		.2byte	0x1
 16947 00b5 58       		.byte	0x58
 16948 00b6 D2010000 		.4byte	.LVL338
 16949 00ba EA010000 		.4byte	.LVL342
 16950 00be 0400     		.2byte	0x4
 16951 00c0 F3       		.byte	0xf3
 16952 00c1 01       		.uleb128 0x1
 16953 00c2 51       		.byte	0x51
 16954 00c3 9F       		.byte	0x9f
 16955 00c4 EA010000 		.4byte	.LVL342
 16956 00c8 52020000 		.4byte	.LVL350
 16957 00cc 0100     		.2byte	0x1
 16958 00ce 58       		.byte	0x58
 16959 00cf 52020000 		.4byte	.LVL350
 16960 00d3 56020000 		.4byte	.LVL352
 16961 00d7 0400     		.2byte	0x4
 16962 00d9 F3       		.byte	0xf3
 16963 00da 01       		.uleb128 0x1
 16964 00db 51       		.byte	0x51
 16965 00dc 9F       		.byte	0x9f
 16966 00dd 56020000 		.4byte	.LVL352
 16967 00e1 A0020000 		.4byte	.LVL355
 16968 00e5 0100     		.2byte	0x1
 16969 00e7 58       		.byte	0x58
 16970 00e8 A0020000 		.4byte	.LVL355
 16971 00ec AB020000 		.4byte	.LVL356-1
 16972 00f0 0100     		.2byte	0x1
 16973 00f2 52       		.byte	0x52
 16974 00f3 AB020000 		.4byte	.LVL356-1
 16975 00f7 C2020000 		.4byte	.LVL358
 16976 00fb 0100     		.2byte	0x1
 16977 00fd 58       		.byte	0x58
 16978 00fe C2020000 		.4byte	.LVL358
 16979 0102 1C030000 		.4byte	.LFE275
 16980 0106 0400     		.2byte	0x4
 16981 0108 F3       		.byte	0xf3
 16982 0109 01       		.uleb128 0x1
 16983 010a 51       		.byte	0x51
 16984 010b 9F       		.byte	0x9f
 16985 010c 00000000 		.4byte	0
ARM GAS  /tmp/ccJYnsep.s 			page 301


 16986 0110 00000000 		.4byte	0
 16987              	.LLST156:
 16988 0114 00000000 		.4byte	.LVL296
 16989 0118 47000000 		.4byte	.LVL301-1
 16990 011c 0100     		.2byte	0x1
 16991 011e 52       		.byte	0x52
 16992 011f 47000000 		.4byte	.LVL301-1
 16993 0123 EA000000 		.4byte	.LVL314
 16994 0127 0100     		.2byte	0x1
 16995 0129 59       		.byte	0x59
 16996 012a EA000000 		.4byte	.LVL314
 16997 012e 19010000 		.4byte	.LVL318-1
 16998 0132 0100     		.2byte	0x1
 16999 0134 52       		.byte	0x52
 17000 0135 19010000 		.4byte	.LVL318-1
 17001 0139 54010000 		.4byte	.LVL325
 17002 013d 0100     		.2byte	0x1
 17003 013f 59       		.byte	0x59
 17004 0140 54010000 		.4byte	.LVL325
 17005 0144 5E010000 		.4byte	.LVL326
 17006 0148 0100     		.2byte	0x1
 17007 014a 52       		.byte	0x52
 17008 014b 5E010000 		.4byte	.LVL326
 17009 014f 1C030000 		.4byte	.LFE275
 17010 0153 0100     		.2byte	0x1
 17011 0155 59       		.byte	0x59
 17012 0156 00000000 		.4byte	0
 17013 015a 00000000 		.4byte	0
 17014              	.LLST157:
 17015 015e 00000000 		.4byte	.LVL296
 17016 0162 2C000000 		.4byte	.LVL297
 17017 0166 0600     		.2byte	0x6
 17018 0168 0C       		.byte	0xc
 17019 0169 00C0FF1F 		.4byte	0x1fffc000
 17020 016d 9F       		.byte	0x9f
 17021 016e 2C000000 		.4byte	.LVL297
 17022 0172 32000000 		.4byte	.LVL298
 17023 0176 0600     		.2byte	0x6
 17024 0178 0C       		.byte	0xc
 17025 0179 0000FF1F 		.4byte	0x1fff0000
 17026 017d 9F       		.byte	0x9f
 17027 017e 32000000 		.4byte	.LVL298
 17028 0182 EA000000 		.4byte	.LVL314
 17029 0186 0100     		.2byte	0x1
 17030 0188 55       		.byte	0x55
 17031 0189 EA000000 		.4byte	.LVL314
 17032 018d 0C010000 		.4byte	.LVL315
 17033 0191 0600     		.2byte	0x6
 17034 0193 0C       		.byte	0xc
 17035 0194 00C0FF1F 		.4byte	0x1fffc000
 17036 0198 9F       		.byte	0x9f
 17037 0199 0C010000 		.4byte	.LVL315
 17038 019d 54010000 		.4byte	.LVL325
 17039 01a1 0100     		.2byte	0x1
 17040 01a3 55       		.byte	0x55
 17041 01a4 54010000 		.4byte	.LVL325
 17042 01a8 5E010000 		.4byte	.LVL326
ARM GAS  /tmp/ccJYnsep.s 			page 302


 17043 01ac 0600     		.2byte	0x6
 17044 01ae 0C       		.byte	0xc
 17045 01af 00C0FF1F 		.4byte	0x1fffc000
 17046 01b3 9F       		.byte	0x9f
 17047 01b4 5E010000 		.4byte	.LVL326
 17048 01b8 1C030000 		.4byte	.LFE275
 17049 01bc 0100     		.2byte	0x1
 17050 01be 55       		.byte	0x55
 17051 01bf 00000000 		.4byte	0
 17052 01c3 00000000 		.4byte	0
 17053              	.LLST158:
 17054 01c7 00000000 		.4byte	.LVL296
 17055 01cb 70000000 		.4byte	.LVL305
 17056 01cf 0200     		.2byte	0x2
 17057 01d1 30       		.byte	0x30
 17058 01d2 9F       		.byte	0x9f
 17059 01d3 EA000000 		.4byte	.LVL314
 17060 01d7 3C010000 		.4byte	.LVL322
 17061 01db 0200     		.2byte	0x2
 17062 01dd 30       		.byte	0x30
 17063 01de 9F       		.byte	0x9f
 17064 01df 3C010000 		.4byte	.LVL322
 17065 01e3 54010000 		.4byte	.LVL325
 17066 01e7 0100     		.2byte	0x1
 17067 01e9 58       		.byte	0x58
 17068 01ea 54010000 		.4byte	.LVL325
 17069 01ee 5E010000 		.4byte	.LVL326
 17070 01f2 0200     		.2byte	0x2
 17071 01f4 30       		.byte	0x30
 17072 01f5 9F       		.byte	0x9f
 17073 01f6 BA010000 		.4byte	.LVL335
 17074 01fa D2010000 		.4byte	.LVL338
 17075 01fe 0200     		.2byte	0x2
 17076 0200 30       		.byte	0x30
 17077 0201 9F       		.byte	0x9f
 17078 0202 E0010000 		.4byte	.LVL340
 17079 0206 EA010000 		.4byte	.LVL342
 17080 020a 0100     		.2byte	0x1
 17081 020c 58       		.byte	0x58
 17082 020d EA010000 		.4byte	.LVL342
 17083 0211 30020000 		.4byte	.LVL346
 17084 0215 0200     		.2byte	0x2
 17085 0217 30       		.byte	0x30
 17086 0218 9F       		.byte	0x9f
 17087 0219 30020000 		.4byte	.LVL346
 17088 021d 40020000 		.4byte	.LVL348
 17089 0221 0200     		.2byte	0x2
 17090 0223 31       		.byte	0x31
 17091 0224 9F       		.byte	0x9f
 17092 0225 40020000 		.4byte	.LVL348
 17093 0229 54020000 		.4byte	.LVL351
 17094 022d 0200     		.2byte	0x2
 17095 022f 32       		.byte	0x32
 17096 0230 9F       		.byte	0x9f
 17097 0231 54020000 		.4byte	.LVL351
 17098 0235 56020000 		.4byte	.LVL352
 17099 0239 0200     		.2byte	0x2
ARM GAS  /tmp/ccJYnsep.s 			page 303


 17100 023b 33       		.byte	0x33
 17101 023c 9F       		.byte	0x9f
 17102 023d 56020000 		.4byte	.LVL352
 17103 0241 BE020000 		.4byte	.LVL357
 17104 0245 0200     		.2byte	0x2
 17105 0247 30       		.byte	0x30
 17106 0248 9F       		.byte	0x9f
 17107 0249 BE020000 		.4byte	.LVL357
 17108 024d 1C030000 		.4byte	.LFE275
 17109 0251 0200     		.2byte	0x2
 17110 0253 32       		.byte	0x32
 17111 0254 9F       		.byte	0x9f
 17112 0255 00000000 		.4byte	0
 17113 0259 00000000 		.4byte	0
 17114              	.LLST159:
 17115 025d 00000000 		.4byte	.LVL296
 17116 0261 2C000000 		.4byte	.LVL297
 17117 0265 0200     		.2byte	0x2
 17118 0267 31       		.byte	0x31
 17119 0268 9F       		.byte	0x9f
 17120 0269 32000000 		.4byte	.LVL298
 17121 026d EA000000 		.4byte	.LVL314
 17122 0271 0100     		.2byte	0x1
 17123 0273 57       		.byte	0x57
 17124 0274 EA000000 		.4byte	.LVL314
 17125 0278 0C010000 		.4byte	.LVL315
 17126 027c 0200     		.2byte	0x2
 17127 027e 31       		.byte	0x31
 17128 027f 9F       		.byte	0x9f
 17129 0280 0C010000 		.4byte	.LVL315
 17130 0284 54010000 		.4byte	.LVL325
 17131 0288 0100     		.2byte	0x1
 17132 028a 57       		.byte	0x57
 17133 028b 54010000 		.4byte	.LVL325
 17134 028f 5E010000 		.4byte	.LVL326
 17135 0293 0200     		.2byte	0x2
 17136 0295 31       		.byte	0x31
 17137 0296 9F       		.byte	0x9f
 17138 0297 5E010000 		.4byte	.LVL326
 17139 029b 1C030000 		.4byte	.LFE275
 17140 029f 0100     		.2byte	0x1
 17141 02a1 57       		.byte	0x57
 17142 02a2 00000000 		.4byte	0
 17143 02a6 00000000 		.4byte	0
 17144              	.LLST160:
 17145 02aa EA010000 		.4byte	.LVL342
 17146 02ae 20020000 		.4byte	.LVL344
 17147 02b2 0100     		.2byte	0x1
 17148 02b4 54       		.byte	0x54
 17149 02b5 56020000 		.4byte	.LVL352
 17150 02b9 BE020000 		.4byte	.LVL357
 17151 02bd 0100     		.2byte	0x1
 17152 02bf 54       		.byte	0x54
 17153 02c0 00000000 		.4byte	0
 17154 02c4 00000000 		.4byte	0
 17155              	.LLST153:
 17156 02c8 00000000 		.4byte	.LVL278
ARM GAS  /tmp/ccJYnsep.s 			page 304


 17157 02cc 72000000 		.4byte	.LVL279
 17158 02d0 0100     		.2byte	0x1
 17159 02d2 50       		.byte	0x50
 17160 02d3 72000000 		.4byte	.LVL279
 17161 02d7 74000000 		.4byte	.LVL280
 17162 02db 0400     		.2byte	0x4
 17163 02dd F3       		.byte	0xf3
 17164 02de 01       		.uleb128 0x1
 17165 02df 50       		.byte	0x50
 17166 02e0 9F       		.byte	0x9f
 17167 02e1 74000000 		.4byte	.LVL280
 17168 02e5 8A000000 		.4byte	.LVL281
 17169 02e9 0100     		.2byte	0x1
 17170 02eb 50       		.byte	0x50
 17171 02ec 8A000000 		.4byte	.LVL281
 17172 02f0 8C000000 		.4byte	.LVL282
 17173 02f4 0400     		.2byte	0x4
 17174 02f6 F3       		.byte	0xf3
 17175 02f7 01       		.uleb128 0x1
 17176 02f8 50       		.byte	0x50
 17177 02f9 9F       		.byte	0x9f
 17178 02fa 8C000000 		.4byte	.LVL282
 17179 02fe 9A000000 		.4byte	.LVL283
 17180 0302 0100     		.2byte	0x1
 17181 0304 50       		.byte	0x50
 17182 0305 9A000000 		.4byte	.LVL283
 17183 0309 9C000000 		.4byte	.LVL284
 17184 030d 0400     		.2byte	0x4
 17185 030f F3       		.byte	0xf3
 17186 0310 01       		.uleb128 0x1
 17187 0311 50       		.byte	0x50
 17188 0312 9F       		.byte	0x9f
 17189 0313 9C000000 		.4byte	.LVL284
 17190 0317 AA000000 		.4byte	.LVL285
 17191 031b 0100     		.2byte	0x1
 17192 031d 50       		.byte	0x50
 17193 031e AA000000 		.4byte	.LVL285
 17194 0322 AC000000 		.4byte	.LVL286
 17195 0326 0400     		.2byte	0x4
 17196 0328 F3       		.byte	0xf3
 17197 0329 01       		.uleb128 0x1
 17198 032a 50       		.byte	0x50
 17199 032b 9F       		.byte	0x9f
 17200 032c AC000000 		.4byte	.LVL286
 17201 0330 B6000000 		.4byte	.LVL287
 17202 0334 0100     		.2byte	0x1
 17203 0336 50       		.byte	0x50
 17204 0337 B6000000 		.4byte	.LVL287
 17205 033b B8000000 		.4byte	.LVL288
 17206 033f 0400     		.2byte	0x4
 17207 0341 F3       		.byte	0xf3
 17208 0342 01       		.uleb128 0x1
 17209 0343 50       		.byte	0x50
 17210 0344 9F       		.byte	0x9f
 17211 0345 B8000000 		.4byte	.LVL288
 17212 0349 C2000000 		.4byte	.LVL289
 17213 034d 0100     		.2byte	0x1
ARM GAS  /tmp/ccJYnsep.s 			page 305


 17214 034f 50       		.byte	0x50
 17215 0350 C2000000 		.4byte	.LVL289
 17216 0354 C4000000 		.4byte	.LVL290
 17217 0358 0400     		.2byte	0x4
 17218 035a F3       		.byte	0xf3
 17219 035b 01       		.uleb128 0x1
 17220 035c 50       		.byte	0x50
 17221 035d 9F       		.byte	0x9f
 17222 035e C4000000 		.4byte	.LVL290
 17223 0362 CE000000 		.4byte	.LVL291
 17224 0366 0100     		.2byte	0x1
 17225 0368 50       		.byte	0x50
 17226 0369 CE000000 		.4byte	.LVL291
 17227 036d D0000000 		.4byte	.LVL292
 17228 0371 0400     		.2byte	0x4
 17229 0373 F3       		.byte	0xf3
 17230 0374 01       		.uleb128 0x1
 17231 0375 50       		.byte	0x50
 17232 0376 9F       		.byte	0x9f
 17233 0377 D0000000 		.4byte	.LVL292
 17234 037b D4000000 		.4byte	.LVL293
 17235 037f 0100     		.2byte	0x1
 17236 0381 50       		.byte	0x50
 17237 0382 D4000000 		.4byte	.LVL293
 17238 0386 E4000000 		.4byte	.LVL294
 17239 038a 0400     		.2byte	0x4
 17240 038c F3       		.byte	0xf3
 17241 038d 01       		.uleb128 0x1
 17242 038e 50       		.byte	0x50
 17243 038f 9F       		.byte	0x9f
 17244 0390 E4000000 		.4byte	.LVL294
 17245 0394 E6000000 		.4byte	.LVL295
 17246 0398 0100     		.2byte	0x1
 17247 039a 50       		.byte	0x50
 17248 039b E6000000 		.4byte	.LVL295
 17249 039f F4000000 		.4byte	.LFE272
 17250 03a3 0400     		.2byte	0x4
 17251 03a5 F3       		.byte	0xf3
 17252 03a6 01       		.uleb128 0x1
 17253 03a7 50       		.byte	0x50
 17254 03a8 9F       		.byte	0x9f
 17255 03a9 00000000 		.4byte	0
 17256 03ad 00000000 		.4byte	0
 17257              	.LLST0:
 17258 03b1 00000000 		.4byte	.LVL0
 17259 03b5 28000000 		.4byte	.LVL4
 17260 03b9 0100     		.2byte	0x1
 17261 03bb 50       		.byte	0x50
 17262 03bc 28000000 		.4byte	.LVL4
 17263 03c0 94000000 		.4byte	.LFE270
 17264 03c4 0400     		.2byte	0x4
 17265 03c6 F3       		.byte	0xf3
 17266 03c7 01       		.uleb128 0x1
 17267 03c8 50       		.byte	0x50
 17268 03c9 9F       		.byte	0x9f
 17269 03ca 00000000 		.4byte	0
 17270 03ce 00000000 		.4byte	0
ARM GAS  /tmp/ccJYnsep.s 			page 306


 17271              	.LLST1:
 17272 03d2 00000000 		.4byte	.LVL0
 17273 03d6 12000000 		.4byte	.LVL1
 17274 03da 0100     		.2byte	0x1
 17275 03dc 51       		.byte	0x51
 17276 03dd 12000000 		.4byte	.LVL1
 17277 03e1 42000000 		.4byte	.LVL7
 17278 03e5 0100     		.2byte	0x1
 17279 03e7 55       		.byte	0x55
 17280 03e8 42000000 		.4byte	.LVL7
 17281 03ec 94000000 		.4byte	.LFE270
 17282 03f0 2200     		.2byte	0x22
 17283 03f2 F3       		.byte	0xf3
 17284 03f3 01       		.uleb128 0x1
 17285 03f4 51       		.byte	0x51
 17286 03f5 23       		.byte	0x23
 17287 03f6 8080803F 		.uleb128 0x7e00000
 17288 03fa F3       		.byte	0xf3
 17289 03fb 01       		.uleb128 0x1
 17290 03fc 51       		.byte	0x51
 17291 03fd F3       		.byte	0xf3
 17292 03fe 01       		.uleb128 0x1
 17293 03ff 51       		.byte	0x51
 17294 0400 40       		.byte	0x40
 17295 0401 41       		.byte	0x41
 17296 0402 24       		.byte	0x24
 17297 0403 1C       		.byte	0x1c
 17298 0404 40       		.byte	0x40
 17299 0405 4B       		.byte	0x4b
 17300 0406 24       		.byte	0x24
 17301 0407 22       		.byte	0x22
 17302 0408 0C       		.byte	0xc
 17303 0409 0000E087 		.4byte	0x87e00000
 17304 040d 2D       		.byte	0x2d
 17305 040e 28       		.byte	0x28
 17306 040f 0100     		.2byte	0x1
 17307 0411 16       		.byte	0x16
 17308 0412 13       		.byte	0x13
 17309 0413 9F       		.byte	0x9f
 17310 0414 00000000 		.4byte	0
 17311 0418 00000000 		.4byte	0
 17312              	.LLST2:
 17313 041c 00000000 		.4byte	.LVL0
 17314 0420 1E000000 		.4byte	.LVL2
 17315 0424 0100     		.2byte	0x1
 17316 0426 52       		.byte	0x52
 17317 0427 1E000000 		.4byte	.LVL2
 17318 042b 94000000 		.4byte	.LFE270
 17319 042f 0100     		.2byte	0x1
 17320 0431 58       		.byte	0x58
 17321 0432 00000000 		.4byte	0
 17322 0436 00000000 		.4byte	0
 17323              	.LLST3:
 17324 043a 00000000 		.4byte	.LVL0
 17325 043e 31000000 		.4byte	.LVL5-1
 17326 0442 0100     		.2byte	0x1
 17327 0444 53       		.byte	0x53
ARM GAS  /tmp/ccJYnsep.s 			page 307


 17328 0445 31000000 		.4byte	.LVL5-1
 17329 0449 94000000 		.4byte	.LFE270
 17330 044d 0100     		.2byte	0x1
 17331 044f 59       		.byte	0x59
 17332 0450 00000000 		.4byte	0
 17333 0454 00000000 		.4byte	0
 17334              	.LLST4:
 17335 0458 42000000 		.4byte	.LVL7
 17336 045c 4C000000 		.4byte	.LVL9
 17337 0460 0100     		.2byte	0x1
 17338 0462 55       		.byte	0x55
 17339 0463 56000000 		.4byte	.LVL11
 17340 0467 58000000 		.4byte	.LVL12
 17341 046b 0100     		.2byte	0x1
 17342 046d 50       		.byte	0x50
 17343 046e 58000000 		.4byte	.LVL12
 17344 0472 94000000 		.4byte	.LFE270
 17345 0476 0100     		.2byte	0x1
 17346 0478 55       		.byte	0x55
 17347 0479 00000000 		.4byte	0
 17348 047d 00000000 		.4byte	0
 17349              	.LLST18:
 17350 0481 00000000 		.4byte	.LVL55
 17351 0485 14000000 		.4byte	.LVL58
 17352 0489 0100     		.2byte	0x1
 17353 048b 50       		.byte	0x50
 17354 048c 14000000 		.4byte	.LVL58
 17355 0490 F4000000 		.4byte	.LFE269
 17356 0494 0100     		.2byte	0x1
 17357 0496 57       		.byte	0x57
 17358 0497 00000000 		.4byte	0
 17359 049b 00000000 		.4byte	0
 17360              	.LLST19:
 17361 049f 00000000 		.4byte	.LVL55
 17362 04a3 16000000 		.4byte	.LVL59
 17363 04a7 0100     		.2byte	0x1
 17364 04a9 51       		.byte	0x51
 17365 04aa 16000000 		.4byte	.LVL59
 17366 04ae F4000000 		.4byte	.LFE269
 17367 04b2 0400     		.2byte	0x4
 17368 04b4 F3       		.byte	0xf3
 17369 04b5 01       		.uleb128 0x1
 17370 04b6 51       		.byte	0x51
 17371 04b7 9F       		.byte	0x9f
 17372 04b8 00000000 		.4byte	0
 17373 04bc 00000000 		.4byte	0
 17374              	.LLST20:
 17375 04c0 00000000 		.4byte	.LVL55
 17376 04c4 10000000 		.4byte	.LVL57
 17377 04c8 0100     		.2byte	0x1
 17378 04ca 52       		.byte	0x52
 17379 04cb 10000000 		.4byte	.LVL57
 17380 04cf F4000000 		.4byte	.LFE269
 17381 04d3 0100     		.2byte	0x1
 17382 04d5 58       		.byte	0x58
 17383 04d6 00000000 		.4byte	0
 17384 04da 00000000 		.4byte	0
ARM GAS  /tmp/ccJYnsep.s 			page 308


 17385              	.LLST21:
 17386 04de 06000000 		.4byte	.LVL56
 17387 04e2 6A000000 		.4byte	.LVL69
 17388 04e6 0100     		.2byte	0x1
 17389 04e8 54       		.byte	0x54
 17390 04e9 6A000000 		.4byte	.LVL69
 17391 04ed 6D000000 		.4byte	.LVL70-1
 17392 04f1 0100     		.2byte	0x1
 17393 04f3 50       		.byte	0x50
 17394 04f4 6D000000 		.4byte	.LVL70-1
 17395 04f8 86000000 		.4byte	.LVL73
 17396 04fc 0100     		.2byte	0x1
 17397 04fe 54       		.byte	0x54
 17398 04ff 86000000 		.4byte	.LVL73
 17399 0503 A2000000 		.4byte	.LVL77
 17400 0507 0100     		.2byte	0x1
 17401 0509 50       		.byte	0x50
 17402 050a A2000000 		.4byte	.LVL77
 17403 050e F4000000 		.4byte	.LFE269
 17404 0512 0100     		.2byte	0x1
 17405 0514 54       		.byte	0x54
 17406 0515 00000000 		.4byte	0
 17407 0519 00000000 		.4byte	0
 17408              	.LLST22:
 17409 051d 06000000 		.4byte	.LVL56
 17410 0521 14000000 		.4byte	.LVL58
 17411 0525 0100     		.2byte	0x1
 17412 0527 50       		.byte	0x50
 17413 0528 14000000 		.4byte	.LVL58
 17414 052c F4000000 		.4byte	.LFE269
 17415 0530 0100     		.2byte	0x1
 17416 0532 57       		.byte	0x57
 17417 0533 00000000 		.4byte	0
 17418 0537 00000000 		.4byte	0
 17419              	.LLST23:
 17420 053b AA000000 		.4byte	.LVL78
 17421 053f B2000000 		.4byte	.LVL79
 17422 0543 0100     		.2byte	0x1
 17423 0545 50       		.byte	0x50
 17424 0546 00000000 		.4byte	0
 17425 054a 00000000 		.4byte	0
 17426              	.LLST24:
 17427 054e 24000000 		.4byte	.LVL61
 17428 0552 8E000000 		.4byte	.LVL74
 17429 0556 0100     		.2byte	0x1
 17430 0558 55       		.byte	0x55
 17431 0559 94000000 		.4byte	.LVL75
 17432 055d F4000000 		.4byte	.LFE269
 17433 0561 0100     		.2byte	0x1
 17434 0563 55       		.byte	0x55
 17435 0564 00000000 		.4byte	0
 17436 0568 00000000 		.4byte	0
 17437              	.LLST25:
 17438 056c 24000000 		.4byte	.LVL61
 17439 0570 2C000000 		.4byte	.LVL62
 17440 0574 0200     		.2byte	0x2
 17441 0576 32       		.byte	0x32
ARM GAS  /tmp/ccJYnsep.s 			page 309


 17442 0577 9F       		.byte	0x9f
 17443 0578 36000000 		.4byte	.LVL63
 17444 057c 38000000 		.4byte	.LVL64
 17445 0580 0100     		.2byte	0x1
 17446 0582 50       		.byte	0x50
 17447 0583 D0000000 		.4byte	.LVL84
 17448 0587 F4000000 		.4byte	.LFE269
 17449 058b 0200     		.2byte	0x2
 17450 058d 32       		.byte	0x32
 17451 058e 9F       		.byte	0x9f
 17452 058f 00000000 		.4byte	0
 17453 0593 00000000 		.4byte	0
 17454              	.LLST26:
 17455 0597 24000000 		.4byte	.LVL61
 17456 059b 3E000000 		.4byte	.LVL65
 17457 059f 0100     		.2byte	0x1
 17458 05a1 53       		.byte	0x53
 17459 05a2 D0000000 		.4byte	.LVL84
 17460 05a6 F4000000 		.4byte	.LFE269
 17461 05aa 0100     		.2byte	0x1
 17462 05ac 53       		.byte	0x53
 17463 05ad 00000000 		.4byte	0
 17464 05b1 00000000 		.4byte	0
 17465              	.LLST27:
 17466 05b5 52000000 		.4byte	.LVL66
 17467 05b9 A2000000 		.4byte	.LVL77
 17468 05bd 0100     		.2byte	0x1
 17469 05bf 59       		.byte	0x59
 17470 05c0 C2000000 		.4byte	.LVL81
 17471 05c4 CC000000 		.4byte	.LVL83
 17472 05c8 0100     		.2byte	0x1
 17473 05ca 59       		.byte	0x59
 17474 05cb 00000000 		.4byte	0
 17475 05cf 00000000 		.4byte	0
 17476              	.LLST149:
 17477 05d3 00000000 		.4byte	.LVL263
 17478 05d7 07000000 		.4byte	.LVL264-1
 17479 05db 0100     		.2byte	0x1
 17480 05dd 50       		.byte	0x50
 17481 05de 07000000 		.4byte	.LVL264-1
 17482 05e2 E0000000 		.4byte	.LVL277
 17483 05e6 0100     		.2byte	0x1
 17484 05e8 55       		.byte	0x55
 17485 05e9 E0000000 		.4byte	.LVL277
 17486 05ed 00010000 		.4byte	.LFE266
 17487 05f1 0400     		.2byte	0x4
 17488 05f3 F3       		.byte	0xf3
 17489 05f4 01       		.uleb128 0x1
 17490 05f5 50       		.byte	0x50
 17491 05f6 9F       		.byte	0x9f
 17492 05f7 00000000 		.4byte	0
 17493 05fb 00000000 		.4byte	0
 17494              	.LLST150:
 17495 05ff 08000000 		.4byte	.LVL264
 17496 0603 1C000000 		.4byte	.LVL266
 17497 0607 0100     		.2byte	0x1
 17498 0609 50       		.byte	0x50
ARM GAS  /tmp/ccJYnsep.s 			page 310


 17499 060a 9C000000 		.4byte	.LVL269
 17500 060e A0000000 		.4byte	.LVL270
 17501 0612 0100     		.2byte	0x1
 17502 0614 50       		.byte	0x50
 17503 0615 00000000 		.4byte	0
 17504 0619 00000000 		.4byte	0
 17505              	.LLST151:
 17506 061d 10000000 		.4byte	.LVL265
 17507 0621 88000000 		.4byte	.LVL267
 17508 0625 0100     		.2byte	0x1
 17509 0627 54       		.byte	0x54
 17510 0628 9C000000 		.4byte	.LVL269
 17511 062c D2000000 		.4byte	.LVL275
 17512 0630 0100     		.2byte	0x1
 17513 0632 54       		.byte	0x54
 17514 0633 D4000000 		.4byte	.LVL276
 17515 0637 E0000000 		.4byte	.LVL277
 17516 063b 0100     		.2byte	0x1
 17517 063d 54       		.byte	0x54
 17518 063e 00000000 		.4byte	0
 17519 0642 00000000 		.4byte	0
 17520              	.LLST152:
 17521 0646 B8000000 		.4byte	.LVL273
 17522 064a BE000000 		.4byte	.LVL274
 17523 064e 0100     		.2byte	0x1
 17524 0650 50       		.byte	0x50
 17525 0651 00000000 		.4byte	0
 17526 0655 00000000 		.4byte	0
 17527              	.LLST5:
 17528 0659 00000000 		.4byte	.LVL17
 17529 065d 0B000000 		.4byte	.LVL18-1
 17530 0661 0100     		.2byte	0x1
 17531 0663 50       		.byte	0x50
 17532 0664 0B000000 		.4byte	.LVL18-1
 17533 0668 12000000 		.4byte	.LVL19
 17534 066c 0100     		.2byte	0x1
 17535 066e 54       		.byte	0x54
 17536 066f 12000000 		.4byte	.LVL19
 17537 0673 15000000 		.4byte	.LVL20-1
 17538 0677 0100     		.2byte	0x1
 17539 0679 50       		.byte	0x50
 17540 067a 15000000 		.4byte	.LVL20-1
 17541 067e 1C000000 		.4byte	.LFE265
 17542 0682 0400     		.2byte	0x4
 17543 0684 F3       		.byte	0xf3
 17544 0685 01       		.uleb128 0x1
 17545 0686 50       		.byte	0x50
 17546 0687 9F       		.byte	0x9f
 17547 0688 00000000 		.4byte	0
 17548 068c 00000000 		.4byte	0
 17549              	.LLST6:
 17550 0690 00000000 		.4byte	.LVL21
 17551 0694 0E000000 		.4byte	.LVL24
 17552 0698 0100     		.2byte	0x1
 17553 069a 50       		.byte	0x50
 17554 069b 0E000000 		.4byte	.LVL24
 17555 069f 50000000 		.4byte	.LVL34
ARM GAS  /tmp/ccJYnsep.s 			page 311


 17556 06a3 0100     		.2byte	0x1
 17557 06a5 54       		.byte	0x54
 17558 06a6 50000000 		.4byte	.LVL34
 17559 06aa 58000000 		.4byte	.LVL37
 17560 06ae 0100     		.2byte	0x1
 17561 06b0 50       		.byte	0x50
 17562 06b1 58000000 		.4byte	.LVL37
 17563 06b5 A4000000 		.4byte	.LVL48
 17564 06b9 0100     		.2byte	0x1
 17565 06bb 54       		.byte	0x54
 17566 06bc A4000000 		.4byte	.LVL48
 17567 06c0 C0000000 		.4byte	.LFE276
 17568 06c4 0400     		.2byte	0x4
 17569 06c6 F3       		.byte	0xf3
 17570 06c7 01       		.uleb128 0x1
 17571 06c8 50       		.byte	0x50
 17572 06c9 9F       		.byte	0x9f
 17573 06ca 00000000 		.4byte	0
 17574 06ce 00000000 		.4byte	0
 17575              	.LLST7:
 17576 06d2 00000000 		.4byte	.LVL21
 17577 06d6 0C000000 		.4byte	.LVL23
 17578 06da 0100     		.2byte	0x1
 17579 06dc 51       		.byte	0x51
 17580 06dd 0C000000 		.4byte	.LVL23
 17581 06e1 50000000 		.4byte	.LVL34
 17582 06e5 0400     		.2byte	0x4
 17583 06e7 F3       		.byte	0xf3
 17584 06e8 01       		.uleb128 0x1
 17585 06e9 51       		.byte	0x51
 17586 06ea 9F       		.byte	0x9f
 17587 06eb 50000000 		.4byte	.LVL34
 17588 06ef 56000000 		.4byte	.LVL36
 17589 06f3 0100     		.2byte	0x1
 17590 06f5 51       		.byte	0x51
 17591 06f6 56000000 		.4byte	.LVL36
 17592 06fa C0000000 		.4byte	.LFE276
 17593 06fe 0400     		.2byte	0x4
 17594 0700 F3       		.byte	0xf3
 17595 0701 01       		.uleb128 0x1
 17596 0702 51       		.byte	0x51
 17597 0703 9F       		.byte	0x9f
 17598 0704 00000000 		.4byte	0
 17599 0708 00000000 		.4byte	0
 17600              	.LLST8:
 17601 070c 00000000 		.4byte	.LVL21
 17602 0710 11000000 		.4byte	.LVL25-1
 17603 0714 0100     		.2byte	0x1
 17604 0716 52       		.byte	0x52
 17605 0717 11000000 		.4byte	.LVL25-1
 17606 071b 50000000 		.4byte	.LVL34
 17607 071f 0400     		.2byte	0x4
 17608 0721 F3       		.byte	0xf3
 17609 0722 01       		.uleb128 0x1
 17610 0723 52       		.byte	0x52
 17611 0724 9F       		.byte	0x9f
 17612 0725 50000000 		.4byte	.LVL34
ARM GAS  /tmp/ccJYnsep.s 			page 312


 17613 0729 58000000 		.4byte	.LVL37
 17614 072d 0100     		.2byte	0x1
 17615 072f 52       		.byte	0x52
 17616 0730 58000000 		.4byte	.LVL37
 17617 0734 C0000000 		.4byte	.LFE276
 17618 0738 0400     		.2byte	0x4
 17619 073a F3       		.byte	0xf3
 17620 073b 01       		.uleb128 0x1
 17621 073c 52       		.byte	0x52
 17622 073d 9F       		.byte	0x9f
 17623 073e 00000000 		.4byte	0
 17624 0742 00000000 		.4byte	0
 17625              	.LLST9:
 17626 0746 08000000 		.4byte	.LVL22
 17627 074a 0C000000 		.4byte	.LVL23
 17628 074e 0100     		.2byte	0x1
 17629 0750 51       		.byte	0x51
 17630 0751 0C000000 		.4byte	.LVL23
 17631 0755 50000000 		.4byte	.LVL34
 17632 0759 0400     		.2byte	0x4
 17633 075b F3       		.byte	0xf3
 17634 075c 01       		.uleb128 0x1
 17635 075d 51       		.byte	0x51
 17636 075e 9F       		.byte	0x9f
 17637 075f 88000000 		.4byte	.LVL42
 17638 0763 8C000000 		.4byte	.LVL43
 17639 0767 0400     		.2byte	0x4
 17640 0769 F3       		.byte	0xf3
 17641 076a 01       		.uleb128 0x1
 17642 076b 51       		.byte	0x51
 17643 076c 9F       		.byte	0x9f
 17644 076d 90000000 		.4byte	.LVL44
 17645 0771 94000000 		.4byte	.LVL45
 17646 0775 0400     		.2byte	0x4
 17647 0777 F3       		.byte	0xf3
 17648 0778 01       		.uleb128 0x1
 17649 0779 51       		.byte	0x51
 17650 077a 9F       		.byte	0x9f
 17651 077b 98000000 		.4byte	.LVL46
 17652 077f C0000000 		.4byte	.LFE276
 17653 0783 0400     		.2byte	0x4
 17654 0785 F3       		.byte	0xf3
 17655 0786 01       		.uleb128 0x1
 17656 0787 51       		.byte	0x51
 17657 0788 9F       		.byte	0x9f
 17658 0789 00000000 		.4byte	0
 17659 078d 00000000 		.4byte	0
 17660              	.LLST10:
 17661 0791 08000000 		.4byte	.LVL22
 17662 0795 11000000 		.4byte	.LVL25-1
 17663 0799 0100     		.2byte	0x1
 17664 079b 52       		.byte	0x52
 17665 079c 11000000 		.4byte	.LVL25-1
 17666 07a0 50000000 		.4byte	.LVL34
 17667 07a4 0400     		.2byte	0x4
 17668 07a6 F3       		.byte	0xf3
 17669 07a7 01       		.uleb128 0x1
ARM GAS  /tmp/ccJYnsep.s 			page 313


 17670 07a8 52       		.byte	0x52
 17671 07a9 9F       		.byte	0x9f
 17672 07aa 88000000 		.4byte	.LVL42
 17673 07ae 8C000000 		.4byte	.LVL43
 17674 07b2 0400     		.2byte	0x4
 17675 07b4 F3       		.byte	0xf3
 17676 07b5 01       		.uleb128 0x1
 17677 07b6 52       		.byte	0x52
 17678 07b7 9F       		.byte	0x9f
 17679 07b8 90000000 		.4byte	.LVL44
 17680 07bc 94000000 		.4byte	.LVL45
 17681 07c0 0400     		.2byte	0x4
 17682 07c2 F3       		.byte	0xf3
 17683 07c3 01       		.uleb128 0x1
 17684 07c4 52       		.byte	0x52
 17685 07c5 9F       		.byte	0x9f
 17686 07c6 98000000 		.4byte	.LVL46
 17687 07ca C0000000 		.4byte	.LFE276
 17688 07ce 0400     		.2byte	0x4
 17689 07d0 F3       		.byte	0xf3
 17690 07d1 01       		.uleb128 0x1
 17691 07d2 52       		.byte	0x52
 17692 07d3 9F       		.byte	0x9f
 17693 07d4 00000000 		.4byte	0
 17694 07d8 00000000 		.4byte	0
 17695              	.LLST11:
 17696 07dc 08000000 		.4byte	.LVL22
 17697 07e0 0E000000 		.4byte	.LVL24
 17698 07e4 0100     		.2byte	0x1
 17699 07e6 50       		.byte	0x50
 17700 07e7 0E000000 		.4byte	.LVL24
 17701 07eb 50000000 		.4byte	.LVL34
 17702 07ef 0100     		.2byte	0x1
 17703 07f1 54       		.byte	0x54
 17704 07f2 88000000 		.4byte	.LVL42
 17705 07f6 8C000000 		.4byte	.LVL43
 17706 07fa 0100     		.2byte	0x1
 17707 07fc 54       		.byte	0x54
 17708 07fd 90000000 		.4byte	.LVL44
 17709 0801 94000000 		.4byte	.LVL45
 17710 0805 0100     		.2byte	0x1
 17711 0807 54       		.byte	0x54
 17712 0808 98000000 		.4byte	.LVL46
 17713 080c A4000000 		.4byte	.LVL48
 17714 0810 0100     		.2byte	0x1
 17715 0812 54       		.byte	0x54
 17716 0813 A4000000 		.4byte	.LVL48
 17717 0817 C0000000 		.4byte	.LFE276
 17718 081b 0400     		.2byte	0x4
 17719 081d F3       		.byte	0xf3
 17720 081e 01       		.uleb128 0x1
 17721 081f 50       		.byte	0x50
 17722 0820 9F       		.byte	0x9f
 17723 0821 00000000 		.4byte	0
 17724 0825 00000000 		.4byte	0
 17725              	.LLST12:
 17726 0829 14000000 		.4byte	.LVL26
ARM GAS  /tmp/ccJYnsep.s 			page 314


 17727 082d 2C000000 		.4byte	.LVL29
 17728 0831 0100     		.2byte	0x1
 17729 0833 50       		.byte	0x50
 17730 0834 00000000 		.4byte	0
 17731 0838 00000000 		.4byte	0
 17732              	.LLST13:
 17733 083c 16000000 		.4byte	.LVL27
 17734 0840 2E000000 		.4byte	.LVL30
 17735 0844 0100     		.2byte	0x1
 17736 0846 53       		.byte	0x53
 17737 0847 00000000 		.4byte	0
 17738 084b 00000000 		.4byte	0
 17739              	.LLST14:
 17740 084f 50000000 		.4byte	.LVL34
 17741 0853 58000000 		.4byte	.LVL37
 17742 0857 0200     		.2byte	0x2
 17743 0859 32       		.byte	0x32
 17744 085a 9F       		.byte	0x9f
 17745 085b 62000000 		.4byte	.LVL38
 17746 085f 64000000 		.4byte	.LVL39
 17747 0863 0100     		.2byte	0x1
 17748 0865 52       		.byte	0x52
 17749 0866 00000000 		.4byte	0
 17750 086a 00000000 		.4byte	0
 17751              	.LLST15:
 17752 086e 52000000 		.4byte	.LVL35
 17753 0872 72000000 		.4byte	.LVL40
 17754 0876 0100     		.2byte	0x1
 17755 0878 53       		.byte	0x53
 17756 0879 8C000000 		.4byte	.LVL43
 17757 087d 90000000 		.4byte	.LVL44
 17758 0881 0100     		.2byte	0x1
 17759 0883 53       		.byte	0x53
 17760 0884 94000000 		.4byte	.LVL45
 17761 0888 98000000 		.4byte	.LVL46
 17762 088c 0100     		.2byte	0x1
 17763 088e 53       		.byte	0x53
 17764 088f 00000000 		.4byte	0
 17765 0893 00000000 		.4byte	0
 17766              	.LLST16:
 17767 0897 00000000 		.4byte	.LVL49
 17768 089b 09000000 		.4byte	.LVL50-1
 17769 089f 0100     		.2byte	0x1
 17770 08a1 50       		.byte	0x50
 17771 08a2 09000000 		.4byte	.LVL50-1
 17772 08a6 24000000 		.4byte	.LVL53
 17773 08aa 0100     		.2byte	0x1
 17774 08ac 54       		.byte	0x54
 17775 08ad 24000000 		.4byte	.LVL53
 17776 08b1 27000000 		.4byte	.LVL54-1
 17777 08b5 0100     		.2byte	0x1
 17778 08b7 50       		.byte	0x50
 17779 08b8 27000000 		.4byte	.LVL54-1
 17780 08bc 38000000 		.4byte	.LFE268
 17781 08c0 0400     		.2byte	0x4
 17782 08c2 F3       		.byte	0xf3
 17783 08c3 01       		.uleb128 0x1
ARM GAS  /tmp/ccJYnsep.s 			page 315


 17784 08c4 50       		.byte	0x50
 17785 08c5 9F       		.byte	0x9f
 17786 08c6 00000000 		.4byte	0
 17787 08ca 00000000 		.4byte	0
 17788              	.LLST17:
 17789 08ce 10000000 		.4byte	.LVL51
 17790 08d2 24000000 		.4byte	.LVL53
 17791 08d6 0100     		.2byte	0x1
 17792 08d8 54       		.byte	0x54
 17793 08d9 24000000 		.4byte	.LVL53
 17794 08dd 27000000 		.4byte	.LVL54-1
 17795 08e1 0100     		.2byte	0x1
 17796 08e3 50       		.byte	0x50
 17797 08e4 27000000 		.4byte	.LVL54-1
 17798 08e8 38000000 		.4byte	.LFE268
 17799 08ec 0400     		.2byte	0x4
 17800 08ee F3       		.byte	0xf3
 17801 08ef 01       		.uleb128 0x1
 17802 08f0 50       		.byte	0x50
 17803 08f1 9F       		.byte	0x9f
 17804 08f2 00000000 		.4byte	0
 17805 08f6 00000000 		.4byte	0
 17806              	.LLST28:
 17807 08fa 00000000 		.4byte	.LVL85
 17808 08fe 11000000 		.4byte	.LVL88-1
 17809 0902 0100     		.2byte	0x1
 17810 0904 50       		.byte	0x50
 17811 0905 11000000 		.4byte	.LVL88-1
 17812 0909 1E000000 		.4byte	.LVL90
 17813 090d 0100     		.2byte	0x1
 17814 090f 54       		.byte	0x54
 17815 0910 1E000000 		.4byte	.LVL90
 17816 0914 21000000 		.4byte	.LVL91-1
 17817 0918 0100     		.2byte	0x1
 17818 091a 50       		.byte	0x50
 17819 091b 21000000 		.4byte	.LVL91-1
 17820 091f 34000000 		.4byte	.LVL93
 17821 0923 0100     		.2byte	0x1
 17822 0925 54       		.byte	0x54
 17823 0926 34000000 		.4byte	.LVL93
 17824 092a 54000000 		.4byte	.LVL94
 17825 092e 0100     		.2byte	0x1
 17826 0930 50       		.byte	0x50
 17827 0931 54000000 		.4byte	.LVL94
 17828 0935 70000000 		.4byte	.LVL97
 17829 0939 0100     		.2byte	0x1
 17830 093b 54       		.byte	0x54
 17831 093c 70000000 		.4byte	.LVL97
 17832 0940 73000000 		.4byte	.LVL98-1
 17833 0944 0100     		.2byte	0x1
 17834 0946 50       		.byte	0x50
 17835 0947 73000000 		.4byte	.LVL98-1
 17836 094b 86000000 		.4byte	.LVL100
 17837 094f 0100     		.2byte	0x1
 17838 0951 54       		.byte	0x54
 17839 0952 86000000 		.4byte	.LVL100
 17840 0956 8D000000 		.4byte	.LVL101-1
ARM GAS  /tmp/ccJYnsep.s 			page 316


 17841 095a 0100     		.2byte	0x1
 17842 095c 50       		.byte	0x50
 17843 095d 8D000000 		.4byte	.LVL101-1
 17844 0961 96000000 		.4byte	.LVL104
 17845 0965 0100     		.2byte	0x1
 17846 0967 54       		.byte	0x54
 17847 0968 96000000 		.4byte	.LVL104
 17848 096c 9C000000 		.4byte	.LVL105
 17849 0970 0100     		.2byte	0x1
 17850 0972 50       		.byte	0x50
 17851 0973 9C000000 		.4byte	.LVL105
 17852 0977 DC000000 		.4byte	.LFE273
 17853 097b 0100     		.2byte	0x1
 17854 097d 54       		.byte	0x54
 17855 097e 00000000 		.4byte	0
 17856 0982 00000000 		.4byte	0
 17857              	.LLST29:
 17858 0986 00000000 		.4byte	.LVL85
 17859 098a 0A000000 		.4byte	.LVL86
 17860 098e 0100     		.2byte	0x1
 17861 0990 51       		.byte	0x51
 17862 0991 0A000000 		.4byte	.LVL86
 17863 0995 DC000000 		.4byte	.LFE273
 17864 0999 0100     		.2byte	0x1
 17865 099b 56       		.byte	0x56
 17866 099c 00000000 		.4byte	0
 17867 09a0 00000000 		.4byte	0
 17868              	.LLST30:
 17869 09a4 00000000 		.4byte	.LVL85
 17870 09a8 0C000000 		.4byte	.LVL87
 17871 09ac 0100     		.2byte	0x1
 17872 09ae 52       		.byte	0x52
 17873 09af 0C000000 		.4byte	.LVL87
 17874 09b3 DC000000 		.4byte	.LFE273
 17875 09b7 0100     		.2byte	0x1
 17876 09b9 57       		.byte	0x57
 17877 09ba 00000000 		.4byte	0
 17878 09be 00000000 		.4byte	0
 17879              	.LLST31:
 17880 09c2 34000000 		.4byte	.LVL93
 17881 09c6 90000000 		.4byte	.LVL102
 17882 09ca 0100     		.2byte	0x1
 17883 09cc 57       		.byte	0x57
 17884 09cd 92000000 		.4byte	.LVL103
 17885 09d1 DC000000 		.4byte	.LFE273
 17886 09d5 0100     		.2byte	0x1
 17887 09d7 57       		.byte	0x57
 17888 09d8 00000000 		.4byte	0
 17889 09dc 00000000 		.4byte	0
 17890              	.LLST32:
 17891 09e0 34000000 		.4byte	.LVL93
 17892 09e4 90000000 		.4byte	.LVL102
 17893 09e8 0100     		.2byte	0x1
 17894 09ea 56       		.byte	0x56
 17895 09eb 92000000 		.4byte	.LVL103
 17896 09ef DC000000 		.4byte	.LFE273
 17897 09f3 0100     		.2byte	0x1
ARM GAS  /tmp/ccJYnsep.s 			page 317


 17898 09f5 56       		.byte	0x56
 17899 09f6 00000000 		.4byte	0
 17900 09fa 00000000 		.4byte	0
 17901              	.LLST33:
 17902 09fe 34000000 		.4byte	.LVL93
 17903 0a02 54000000 		.4byte	.LVL94
 17904 0a06 0100     		.2byte	0x1
 17905 0a08 50       		.byte	0x50
 17906 0a09 54000000 		.4byte	.LVL94
 17907 0a0d 70000000 		.4byte	.LVL97
 17908 0a11 0100     		.2byte	0x1
 17909 0a13 54       		.byte	0x54
 17910 0a14 70000000 		.4byte	.LVL97
 17911 0a18 73000000 		.4byte	.LVL98-1
 17912 0a1c 0100     		.2byte	0x1
 17913 0a1e 50       		.byte	0x50
 17914 0a1f 73000000 		.4byte	.LVL98-1
 17915 0a23 86000000 		.4byte	.LVL100
 17916 0a27 0100     		.2byte	0x1
 17917 0a29 54       		.byte	0x54
 17918 0a2a 86000000 		.4byte	.LVL100
 17919 0a2e 8D000000 		.4byte	.LVL101-1
 17920 0a32 0100     		.2byte	0x1
 17921 0a34 50       		.byte	0x50
 17922 0a35 8D000000 		.4byte	.LVL101-1
 17923 0a39 90000000 		.4byte	.LVL102
 17924 0a3d 0100     		.2byte	0x1
 17925 0a3f 54       		.byte	0x54
 17926 0a40 92000000 		.4byte	.LVL103
 17927 0a44 96000000 		.4byte	.LVL104
 17928 0a48 0100     		.2byte	0x1
 17929 0a4a 54       		.byte	0x54
 17930 0a4b 96000000 		.4byte	.LVL104
 17931 0a4f 9C000000 		.4byte	.LVL105
 17932 0a53 0100     		.2byte	0x1
 17933 0a55 50       		.byte	0x50
 17934 0a56 9C000000 		.4byte	.LVL105
 17935 0a5a DC000000 		.4byte	.LFE273
 17936 0a5e 0100     		.2byte	0x1
 17937 0a60 54       		.byte	0x54
 17938 0a61 00000000 		.4byte	0
 17939 0a65 00000000 		.4byte	0
 17940              	.LLST34:
 17941 0a69 00000000 		.4byte	.LVL108
 17942 0a6d 0B000000 		.4byte	.LVL110-1
 17943 0a71 0100     		.2byte	0x1
 17944 0a73 50       		.byte	0x50
 17945 0a74 0B000000 		.4byte	.LVL110-1
 17946 0a78 98000000 		.4byte	.LVL131
 17947 0a7c 0100     		.2byte	0x1
 17948 0a7e 54       		.byte	0x54
 17949 0a7f 98000000 		.4byte	.LVL131
 17950 0a83 C0000000 		.4byte	.LFE271
 17951 0a87 0400     		.2byte	0x4
 17952 0a89 F3       		.byte	0xf3
 17953 0a8a 01       		.uleb128 0x1
 17954 0a8b 50       		.byte	0x50
ARM GAS  /tmp/ccJYnsep.s 			page 318


 17955 0a8c 9F       		.byte	0x9f
 17956 0a8d 00000000 		.4byte	0
 17957 0a91 00000000 		.4byte	0
 17958              	.LLST35:
 17959 0a95 06000000 		.4byte	.LVL109
 17960 0a99 1C000000 		.4byte	.LVL112
 17961 0a9d 0100     		.2byte	0x1
 17962 0a9f 55       		.byte	0x55
 17963 0aa0 00000000 		.4byte	0
 17964 0aa4 00000000 		.4byte	0
 17965              	.LLST37:
 17966 0aa8 12000000 		.4byte	.LVL111
 17967 0aac 20000000 		.4byte	.LVL113
 17968 0ab0 0600     		.2byte	0x6
 17969 0ab2 0C       		.byte	0xc
 17970 0ab3 04000001 		.4byte	0x1000004
 17971 0ab7 9F       		.byte	0x9f
 17972 0ab8 00000000 		.4byte	0
 17973 0abc 00000000 		.4byte	0
 17974              	.LLST38:
 17975 0ac0 58000000 		.4byte	.LVL120
 17976 0ac4 70000000 		.4byte	.LVL123
 17977 0ac8 0100     		.2byte	0x1
 17978 0aca 54       		.byte	0x54
 17979 0acb 7C000000 		.4byte	.LVL125
 17980 0acf 98000000 		.4byte	.LVL131
 17981 0ad3 0100     		.2byte	0x1
 17982 0ad5 54       		.byte	0x54
 17983 0ad6 98000000 		.4byte	.LVL131
 17984 0ada C0000000 		.4byte	.LFE271
 17985 0ade 0400     		.2byte	0x4
 17986 0ae0 F3       		.byte	0xf3
 17987 0ae1 01       		.uleb128 0x1
 17988 0ae2 50       		.byte	0x50
 17989 0ae3 9F       		.byte	0x9f
 17990 0ae4 00000000 		.4byte	0
 17991 0ae8 00000000 		.4byte	0
 17992              	.LLST39:
 17993 0aec 60000000 		.4byte	.LVL121
 17994 0af0 6E000000 		.4byte	.LVL122
 17995 0af4 0100     		.2byte	0x1
 17996 0af6 50       		.byte	0x50
 17997 0af7 7C000000 		.4byte	.LVL125
 17998 0afb 82000000 		.4byte	.LVL126
 17999 0aff 0100     		.2byte	0x1
 18000 0b01 50       		.byte	0x50
 18001 0b02 82000000 		.4byte	.LVL126
 18002 0b06 85000000 		.4byte	.LVL127-1
 18003 0b0a 0100     		.2byte	0x1
 18004 0b0c 52       		.byte	0x52
 18005 0b0d 8A000000 		.4byte	.LVL128
 18006 0b11 90000000 		.4byte	.LVL129
 18007 0b15 0100     		.2byte	0x1
 18008 0b17 50       		.byte	0x50
 18009 0b18 90000000 		.4byte	.LVL129
 18010 0b1c 93000000 		.4byte	.LVL130-1
 18011 0b20 0100     		.2byte	0x1
ARM GAS  /tmp/ccJYnsep.s 			page 319


 18012 0b22 52       		.byte	0x52
 18013 0b23 00000000 		.4byte	0
 18014 0b27 00000000 		.4byte	0
 18015              	.LLST40:
 18016 0b2b 00000000 		.4byte	.LVL132
 18017 0b2f 0A000000 		.4byte	.LVL133
 18018 0b33 0100     		.2byte	0x1
 18019 0b35 50       		.byte	0x50
 18020 0b36 0A000000 		.4byte	.LVL133
 18021 0b3a 2E000000 		.4byte	.LVL138
 18022 0b3e 0100     		.2byte	0x1
 18023 0b40 55       		.byte	0x55
 18024 0b41 2E000000 		.4byte	.LVL138
 18025 0b45 53000000 		.4byte	.LVL140-1
 18026 0b49 0100     		.2byte	0x1
 18027 0b4b 50       		.byte	0x50
 18028 0b4c 53000000 		.4byte	.LVL140-1
 18029 0b50 5C000000 		.4byte	.LFE281
 18030 0b54 0400     		.2byte	0x4
 18031 0b56 F3       		.byte	0xf3
 18032 0b57 01       		.uleb128 0x1
 18033 0b58 50       		.byte	0x50
 18034 0b59 9F       		.byte	0x9f
 18035 0b5a 00000000 		.4byte	0
 18036 0b5e 00000000 		.4byte	0
 18037              	.LLST41:
 18038 0b62 00000000 		.4byte	.LVL132
 18039 0b66 0C000000 		.4byte	.LVL134
 18040 0b6a 0100     		.2byte	0x1
 18041 0b6c 51       		.byte	0x51
 18042 0b6d 0C000000 		.4byte	.LVL134
 18043 0b71 50000000 		.4byte	.LVL139
 18044 0b75 0100     		.2byte	0x1
 18045 0b77 5B       		.byte	0x5b
 18046 0b78 50000000 		.4byte	.LVL139
 18047 0b7c 53000000 		.4byte	.LVL140-1
 18048 0b80 0200     		.2byte	0x2
 18049 0b82 71       		.byte	0x71
 18050 0b83 00       		.sleb128 0
 18051 0b84 53000000 		.4byte	.LVL140-1
 18052 0b88 5C000000 		.4byte	.LFE281
 18053 0b8c 0400     		.2byte	0x4
 18054 0b8e F3       		.byte	0xf3
 18055 0b8f 01       		.uleb128 0x1
 18056 0b90 51       		.byte	0x51
 18057 0b91 9F       		.byte	0x9f
 18058 0b92 00000000 		.4byte	0
 18059 0b96 00000000 		.4byte	0
 18060              	.LLST42:
 18061 0b9a 00000000 		.4byte	.LVL132
 18062 0b9e 17000000 		.4byte	.LVL135-1
 18063 0ba2 0100     		.2byte	0x1
 18064 0ba4 52       		.byte	0x52
 18065 0ba5 17000000 		.4byte	.LVL135-1
 18066 0ba9 50000000 		.4byte	.LVL139
 18067 0bad 0100     		.2byte	0x1
 18068 0baf 5A       		.byte	0x5a
ARM GAS  /tmp/ccJYnsep.s 			page 320


 18069 0bb0 50000000 		.4byte	.LVL139
 18070 0bb4 53000000 		.4byte	.LVL140-1
 18071 0bb8 0200     		.2byte	0x2
 18072 0bba 71       		.byte	0x71
 18073 0bbb 04       		.sleb128 4
 18074 0bbc 53000000 		.4byte	.LVL140-1
 18075 0bc0 5C000000 		.4byte	.LFE281
 18076 0bc4 0400     		.2byte	0x4
 18077 0bc6 F3       		.byte	0xf3
 18078 0bc7 01       		.uleb128 0x1
 18079 0bc8 52       		.byte	0x52
 18080 0bc9 9F       		.byte	0x9f
 18081 0bca 00000000 		.4byte	0
 18082 0bce 00000000 		.4byte	0
 18083              	.LLST43:
 18084 0bd2 00000000 		.4byte	.LVL132
 18085 0bd6 17000000 		.4byte	.LVL135-1
 18086 0bda 0100     		.2byte	0x1
 18087 0bdc 53       		.byte	0x53
 18088 0bdd 17000000 		.4byte	.LVL135-1
 18089 0be1 50000000 		.4byte	.LVL139
 18090 0be5 0100     		.2byte	0x1
 18091 0be7 59       		.byte	0x59
 18092 0be8 50000000 		.4byte	.LVL139
 18093 0bec 53000000 		.4byte	.LVL140-1
 18094 0bf0 0200     		.2byte	0x2
 18095 0bf2 71       		.byte	0x71
 18096 0bf3 08       		.sleb128 8
 18097 0bf4 53000000 		.4byte	.LVL140-1
 18098 0bf8 5C000000 		.4byte	.LFE281
 18099 0bfc 0400     		.2byte	0x4
 18100 0bfe F3       		.byte	0xf3
 18101 0bff 01       		.uleb128 0x1
 18102 0c00 53       		.byte	0x53
 18103 0c01 9F       		.byte	0x9f
 18104 0c02 00000000 		.4byte	0
 18105 0c06 00000000 		.4byte	0
 18106              	.LLST44:
 18107 0c0a 00000000 		.4byte	.LVL132
 18108 0c0e 50000000 		.4byte	.LVL139
 18109 0c12 0200     		.2byte	0x2
 18110 0c14 91       		.byte	0x91
 18111 0c15 00       		.sleb128 0
 18112 0c16 50000000 		.4byte	.LVL139
 18113 0c1a 5C000000 		.4byte	.LFE281
 18114 0c1e 0200     		.2byte	0x2
 18115 0c20 7D       		.byte	0x7d
 18116 0c21 00       		.sleb128 0
 18117 0c22 00000000 		.4byte	0
 18118 0c26 00000000 		.4byte	0
 18119              	.LLST45:
 18120 0c2a 00000000 		.4byte	.LVL132
 18121 0c2e 50000000 		.4byte	.LVL139
 18122 0c32 0200     		.2byte	0x2
 18123 0c34 91       		.byte	0x91
 18124 0c35 04       		.sleb128 4
 18125 0c36 50000000 		.4byte	.LVL139
ARM GAS  /tmp/ccJYnsep.s 			page 321


 18126 0c3a 5C000000 		.4byte	.LFE281
 18127 0c3e 0200     		.2byte	0x2
 18128 0c40 7D       		.byte	0x7d
 18129 0c41 04       		.sleb128 4
 18130 0c42 00000000 		.4byte	0
 18131 0c46 00000000 		.4byte	0
 18132              	.LLST46:
 18133 0c4a 24000000 		.4byte	.LVL136
 18134 0c4e 28000000 		.4byte	.LVL137
 18135 0c52 0100     		.2byte	0x1
 18136 0c54 50       		.byte	0x50
 18137 0c55 28000000 		.4byte	.LVL137
 18138 0c59 50000000 		.4byte	.LVL139
 18139 0c5d 0100     		.2byte	0x1
 18140 0c5f 54       		.byte	0x54
 18141 0c60 50000000 		.4byte	.LVL139
 18142 0c64 53000000 		.4byte	.LVL140-1
 18143 0c68 0100     		.2byte	0x1
 18144 0c6a 51       		.byte	0x51
 18145 0c6b 00000000 		.4byte	0
 18146 0c6f 00000000 		.4byte	0
 18147              	.LLST48:
 18148 0c73 00000000 		.4byte	.LVL141
 18149 0c77 0B000000 		.4byte	.LVL142-1
 18150 0c7b 0100     		.2byte	0x1
 18151 0c7d 50       		.byte	0x50
 18152 0c7e 0B000000 		.4byte	.LVL142-1
 18153 0c82 08060000 		.4byte	.LFE267
 18154 0c86 0100     		.2byte	0x1
 18155 0c88 54       		.byte	0x54
 18156 0c89 00000000 		.4byte	0
 18157 0c8d 00000000 		.4byte	0
 18158              	.LLST49:
 18159 0c91 14000000 		.4byte	.LVL143
 18160 0c95 AE010000 		.4byte	.LVL161
 18161 0c99 0100     		.2byte	0x1
 18162 0c9b 54       		.byte	0x54
 18163 0c9c B6010000 		.4byte	.LVL162
 18164 0ca0 08060000 		.4byte	.LFE267
 18165 0ca4 0100     		.2byte	0x1
 18166 0ca6 54       		.byte	0x54
 18167 0ca7 00000000 		.4byte	0
 18168 0cab 00000000 		.4byte	0
 18169              	.LLST50:
 18170 0caf CC000000 		.4byte	.LVL144
 18171 0cb3 F8000000 		.4byte	.LVL149
 18172 0cb7 0200     		.2byte	0x2
 18173 0cb9 30       		.byte	0x30
 18174 0cba 9F       		.byte	0x9f
 18175 0cbb F8000000 		.4byte	.LVL149
 18176 0cbf 08010000 		.4byte	.LVL151
 18177 0cc3 0200     		.2byte	0x2
 18178 0cc5 31       		.byte	0x31
 18179 0cc6 9F       		.byte	0x9f
 18180 0cc7 B6010000 		.4byte	.LVL162
 18181 0ccb 74020000 		.4byte	.LVL183
 18182 0ccf 0200     		.2byte	0x2
ARM GAS  /tmp/ccJYnsep.s 			page 322


 18183 0cd1 30       		.byte	0x30
 18184 0cd2 9F       		.byte	0x9f
 18185 0cd3 DE020000 		.4byte	.LVL190
 18186 0cd7 38030000 		.4byte	.LVL201
 18187 0cdb 0200     		.2byte	0x2
 18188 0cdd 30       		.byte	0x30
 18189 0cde 9F       		.byte	0x9f
 18190 0cdf 38030000 		.4byte	.LVL201
 18191 0ce3 4C030000 		.4byte	.LVL204
 18192 0ce7 0100     		.2byte	0x1
 18193 0ce9 57       		.byte	0x57
 18194 0cea 4C030000 		.4byte	.LVL204
 18195 0cee A2030000 		.4byte	.LVL215
 18196 0cf2 0200     		.2byte	0x2
 18197 0cf4 30       		.byte	0x30
 18198 0cf5 9F       		.byte	0x9f
 18199 0cf6 88040000 		.4byte	.LVL228
 18200 0cfa A8040000 		.4byte	.LVL233
 18201 0cfe 0200     		.2byte	0x2
 18202 0d00 30       		.byte	0x30
 18203 0d01 9F       		.byte	0x9f
 18204 0d02 A8040000 		.4byte	.LVL233
 18205 0d06 B8040000 		.4byte	.LVL236
 18206 0d0a 0200     		.2byte	0x2
 18207 0d0c 31       		.byte	0x31
 18208 0d0d 9F       		.byte	0x9f
 18209 0d0e B8040000 		.4byte	.LVL236
 18210 0d12 DC040000 		.4byte	.LVL240
 18211 0d16 0100     		.2byte	0x1
 18212 0d18 57       		.byte	0x57
 18213 0d19 DA050000 		.4byte	.LVL257
 18214 0d1d E0050000 		.4byte	.LVL258
 18215 0d21 0200     		.2byte	0x2
 18216 0d23 30       		.byte	0x30
 18217 0d24 9F       		.byte	0x9f
 18218 0d25 00000000 		.4byte	0
 18219 0d29 00000000 		.4byte	0
 18220              	.LLST51:
 18221 0d2d E0000000 		.4byte	.LVL147
 18222 0d31 02010000 		.4byte	.LVL150
 18223 0d35 0100     		.2byte	0x1
 18224 0d37 56       		.byte	0x56
 18225 0d38 CE010000 		.4byte	.LVL165
 18226 0d3c E4010000 		.4byte	.LVL168
 18227 0d40 0100     		.2byte	0x1
 18228 0d42 56       		.byte	0x56
 18229 0d43 34020000 		.4byte	.LVL176
 18230 0d47 36020000 		.4byte	.LVL177
 18231 0d4b 0700     		.2byte	0x7
 18232 0d4d 70       		.byte	0x70
 18233 0d4e 00       		.sleb128 0
 18234 0d4f 0A       		.byte	0xa
 18235 0d50 FFFF     		.2byte	0xffff
 18236 0d52 1A       		.byte	0x1a
 18237 0d53 9F       		.byte	0x9f
 18238 0d54 36020000 		.4byte	.LVL177
 18239 0d58 74020000 		.4byte	.LVL183
ARM GAS  /tmp/ccJYnsep.s 			page 323


 18240 0d5c 0700     		.2byte	0x7
 18241 0d5e 77       		.byte	0x77
 18242 0d5f 00       		.sleb128 0
 18243 0d60 0A       		.byte	0xa
 18244 0d61 FFFF     		.2byte	0xffff
 18245 0d63 1A       		.byte	0x1a
 18246 0d64 9F       		.byte	0x9f
 18247 0d65 F0020000 		.4byte	.LVL193
 18248 0d69 42030000 		.4byte	.LVL203
 18249 0d6d 0100     		.2byte	0x1
 18250 0d6f 56       		.byte	0x56
 18251 0d70 60030000 		.4byte	.LVL207
 18252 0d74 62030000 		.4byte	.LVL208
 18253 0d78 0700     		.2byte	0x7
 18254 0d7a 70       		.byte	0x70
 18255 0d7b 00       		.sleb128 0
 18256 0d7c 0A       		.byte	0xa
 18257 0d7d FFFF     		.2byte	0xffff
 18258 0d7f 1A       		.byte	0x1a
 18259 0d80 9F       		.byte	0x9f
 18260 0d81 62030000 		.4byte	.LVL208
 18261 0d85 A2030000 		.4byte	.LVL215
 18262 0d89 0700     		.2byte	0x7
 18263 0d8b 78       		.byte	0x78
 18264 0d8c 00       		.sleb128 0
 18265 0d8d 0A       		.byte	0xa
 18266 0d8e FFFF     		.2byte	0xffff
 18267 0d90 1A       		.byte	0x1a
 18268 0d91 9F       		.byte	0x9f
 18269 0d92 9C040000 		.4byte	.LVL231
 18270 0d96 CC040000 		.4byte	.LVL238
 18271 0d9a 0100     		.2byte	0x1
 18272 0d9c 56       		.byte	0x56
 18273 0d9d 00000000 		.4byte	0
 18274 0da1 00000000 		.4byte	0
 18275              	.LLST52:
 18276 0da5 02010000 		.4byte	.LVL150
 18277 0da9 08010000 		.4byte	.LVL151
 18278 0dad 0200     		.2byte	0x2
 18279 0daf 3C       		.byte	0x3c
 18280 0db0 9F       		.byte	0x9f
 18281 0db1 E4010000 		.4byte	.LVL168
 18282 0db5 20020000 		.4byte	.LVL173
 18283 0db9 0200     		.2byte	0x2
 18284 0dbb 30       		.byte	0x30
 18285 0dbc 9F       		.byte	0x9f
 18286 0dbd 3A030000 		.4byte	.LVL202
 18287 0dc1 4C030000 		.4byte	.LVL204
 18288 0dc5 0200     		.2byte	0x2
 18289 0dc7 30       		.byte	0x30
 18290 0dc8 9F       		.byte	0x9f
 18291 0dc9 9E030000 		.4byte	.LVL214
 18292 0dcd A2030000 		.4byte	.LVL215
 18293 0dd1 0200     		.2byte	0x2
 18294 0dd3 30       		.byte	0x30
 18295 0dd4 9F       		.byte	0x9f
 18296 0dd5 BE040000 		.4byte	.LVL237
ARM GAS  /tmp/ccJYnsep.s 			page 324


 18297 0dd9 D2040000 		.4byte	.LVL239
 18298 0ddd 0200     		.2byte	0x2
 18299 0ddf 30       		.byte	0x30
 18300 0de0 9F       		.byte	0x9f
 18301 0de1 DA050000 		.4byte	.LVL257
 18302 0de5 E0050000 		.4byte	.LVL258
 18303 0de9 0200     		.2byte	0x2
 18304 0deb 30       		.byte	0x30
 18305 0dec 9F       		.byte	0x9f
 18306 0ded 00000000 		.4byte	0
 18307 0df1 00000000 		.4byte	0
 18308              	.LLST53:
 18309 0df5 02010000 		.4byte	.LVL150
 18310 0df9 62010000 		.4byte	.LVL157
 18311 0dfd 0100     		.2byte	0x1
 18312 0dff 56       		.byte	0x56
 18313 0e00 62010000 		.4byte	.LVL157
 18314 0e04 9A010000 		.4byte	.LVL160
 18315 0e08 0600     		.2byte	0x6
 18316 0e0a 76       		.byte	0x76
 18317 0e0b 80808040 		.sleb128 -134217728
 18318 0e0f 9F       		.byte	0x9f
 18319 0e10 E4010000 		.4byte	.LVL168
 18320 0e14 20020000 		.4byte	.LVL173
 18321 0e18 0100     		.2byte	0x1
 18322 0e1a 56       		.byte	0x56
 18323 0e1b 74020000 		.4byte	.LVL183
 18324 0e1f 98020000 		.4byte	.LVL185
 18325 0e23 0100     		.2byte	0x1
 18326 0e25 56       		.byte	0x56
 18327 0e26 98020000 		.4byte	.LVL185
 18328 0e2a DE020000 		.4byte	.LVL190
 18329 0e2e 0500     		.2byte	0x5
 18330 0e30 76       		.byte	0x76
 18331 0e31 808010   		.sleb128 262144
 18332 0e34 9F       		.byte	0x9f
 18333 0e35 42030000 		.4byte	.LVL203
 18334 0e39 4C030000 		.4byte	.LVL204
 18335 0e3d 0100     		.2byte	0x1
 18336 0e3f 56       		.byte	0x56
 18337 0e40 9E030000 		.4byte	.LVL214
 18338 0e44 88040000 		.4byte	.LVL228
 18339 0e48 0100     		.2byte	0x1
 18340 0e4a 56       		.byte	0x56
 18341 0e4b CC040000 		.4byte	.LVL238
 18342 0e4f DC040000 		.4byte	.LVL240
 18343 0e53 0100     		.2byte	0x1
 18344 0e55 56       		.byte	0x56
 18345 0e56 DC040000 		.4byte	.LVL240
 18346 0e5a 30050000 		.4byte	.LVL245
 18347 0e5e 0500     		.2byte	0x5
 18348 0e60 76       		.byte	0x76
 18349 0e61 808010   		.sleb128 262144
 18350 0e64 9F       		.byte	0x9f
 18351 0e65 34050000 		.4byte	.LVL246
 18352 0e69 08060000 		.4byte	.LFE267
 18353 0e6d 0100     		.2byte	0x1
ARM GAS  /tmp/ccJYnsep.s 			page 325


 18354 0e6f 56       		.byte	0x56
 18355 0e70 00000000 		.4byte	0
 18356 0e74 00000000 		.4byte	0
 18357              	.LLST54:
 18358 0e78 02010000 		.4byte	.LVL150
 18359 0e7c 26010000 		.4byte	.LVL153
 18360 0e80 0200     		.2byte	0x2
 18361 0e82 30       		.byte	0x30
 18362 0e83 9F       		.byte	0x9f
 18363 0e84 26010000 		.4byte	.LVL153
 18364 0e88 AE010000 		.4byte	.LVL161
 18365 0e8c 0100     		.2byte	0x1
 18366 0e8e 5A       		.byte	0x5a
 18367 0e8f E4010000 		.4byte	.LVL168
 18368 0e93 20020000 		.4byte	.LVL173
 18369 0e97 0200     		.2byte	0x2
 18370 0e99 30       		.byte	0x30
 18371 0e9a 9F       		.byte	0x9f
 18372 0e9b A2030000 		.4byte	.LVL215
 18373 0e9f AC030000 		.4byte	.LVL216
 18374 0ea3 0200     		.2byte	0x2
 18375 0ea5 30       		.byte	0x30
 18376 0ea6 9F       		.byte	0x9f
 18377 0ea7 AC030000 		.4byte	.LVL216
 18378 0eab 88040000 		.4byte	.LVL228
 18379 0eaf 0100     		.2byte	0x1
 18380 0eb1 5A       		.byte	0x5a
 18381 0eb2 34050000 		.4byte	.LVL246
 18382 0eb6 DA050000 		.4byte	.LVL257
 18383 0eba 0100     		.2byte	0x1
 18384 0ebc 5A       		.byte	0x5a
 18385 0ebd DA050000 		.4byte	.LVL257
 18386 0ec1 E0050000 		.4byte	.LVL258
 18387 0ec5 0200     		.2byte	0x2
 18388 0ec7 30       		.byte	0x30
 18389 0ec8 9F       		.byte	0x9f
 18390 0ec9 E0050000 		.4byte	.LVL258
 18391 0ecd 08060000 		.4byte	.LFE267
 18392 0ed1 0100     		.2byte	0x1
 18393 0ed3 5A       		.byte	0x5a
 18394 0ed4 00000000 		.4byte	0
 18395 0ed8 00000000 		.4byte	0
 18396              	.LLST55:
 18397 0edc EC010000 		.4byte	.LVL169
 18398 0ee0 04020000 		.4byte	.LVL170
 18399 0ee4 0200     		.2byte	0x2
 18400 0ee6 30       		.byte	0x30
 18401 0ee7 9F       		.byte	0x9f
 18402 0ee8 00000000 		.4byte	0
 18403 0eec 00000000 		.4byte	0
 18404              	.LLST56:
 18405 0ef0 EC010000 		.4byte	.LVL169
 18406 0ef4 04020000 		.4byte	.LVL170
 18407 0ef8 0200     		.2byte	0x2
 18408 0efa 30       		.byte	0x30
 18409 0efb 9F       		.byte	0x9f
 18410 0efc DA030000 		.4byte	.LVL220
ARM GAS  /tmp/ccJYnsep.s 			page 326


 18411 0f00 F0030000 		.4byte	.LVL221
 18412 0f04 0200     		.2byte	0x2
 18413 0f06 30       		.byte	0x30
 18414 0f07 9F       		.byte	0x9f
 18415 0f08 7E050000 		.4byte	.LVL251
 18416 0f0c 94050000 		.4byte	.LVL252
 18417 0f10 0200     		.2byte	0x2
 18418 0f12 30       		.byte	0x30
 18419 0f13 9F       		.byte	0x9f
 18420 0f14 C0050000 		.4byte	.LVL255
 18421 0f18 D8050000 		.4byte	.LVL256
 18422 0f1c 0200     		.2byte	0x2
 18423 0f1e 30       		.byte	0x30
 18424 0f1f 9F       		.byte	0x9f
 18425 0f20 00000000 		.4byte	0
 18426 0f24 00000000 		.4byte	0
 18427              	.LLST57:
 18428 0f28 EC010000 		.4byte	.LVL169
 18429 0f2c 04020000 		.4byte	.LVL170
 18430 0f30 0400     		.2byte	0x4
 18431 0f32 0A       		.byte	0xa
 18432 0f33 0040     		.2byte	0x4000
 18433 0f35 9F       		.byte	0x9f
 18434 0f36 DA030000 		.4byte	.LVL220
 18435 0f3a F0030000 		.4byte	.LVL221
 18436 0f3e 0400     		.2byte	0x4
 18437 0f40 0A       		.byte	0xa
 18438 0f41 0040     		.2byte	0x4000
 18439 0f43 9F       		.byte	0x9f
 18440 0f44 7E050000 		.4byte	.LVL251
 18441 0f48 94050000 		.4byte	.LVL252
 18442 0f4c 0400     		.2byte	0x4
 18443 0f4e 0A       		.byte	0xa
 18444 0f4f 0040     		.2byte	0x4000
 18445 0f51 9F       		.byte	0x9f
 18446 0f52 C0050000 		.4byte	.LVL255
 18447 0f56 D8050000 		.4byte	.LVL256
 18448 0f5a 0400     		.2byte	0x4
 18449 0f5c 0A       		.byte	0xa
 18450 0f5d 0040     		.2byte	0x4000
 18451 0f5f 9F       		.byte	0x9f
 18452 0f60 00000000 		.4byte	0
 18453 0f64 00000000 		.4byte	0
 18454              	.LLST58:
 18455 0f68 EC010000 		.4byte	.LVL169
 18456 0f6c 04020000 		.4byte	.LVL170
 18457 0f70 0400     		.2byte	0x4
 18458 0f72 40       		.byte	0x40
 18459 0f73 3C       		.byte	0x3c
 18460 0f74 24       		.byte	0x24
 18461 0f75 9F       		.byte	0x9f
 18462 0f76 DA030000 		.4byte	.LVL220
 18463 0f7a F0030000 		.4byte	.LVL221
 18464 0f7e 0400     		.2byte	0x4
 18465 0f80 40       		.byte	0x40
 18466 0f81 3C       		.byte	0x3c
 18467 0f82 24       		.byte	0x24
ARM GAS  /tmp/ccJYnsep.s 			page 327


 18468 0f83 9F       		.byte	0x9f
 18469 0f84 7E050000 		.4byte	.LVL251
 18470 0f88 94050000 		.4byte	.LVL252
 18471 0f8c 0400     		.2byte	0x4
 18472 0f8e 40       		.byte	0x40
 18473 0f8f 3C       		.byte	0x3c
 18474 0f90 24       		.byte	0x24
 18475 0f91 9F       		.byte	0x9f
 18476 0f92 C0050000 		.4byte	.LVL255
 18477 0f96 D8050000 		.4byte	.LVL256
 18478 0f9a 0400     		.2byte	0x4
 18479 0f9c 40       		.byte	0x40
 18480 0f9d 3C       		.byte	0x3c
 18481 0f9e 24       		.byte	0x24
 18482 0f9f 9F       		.byte	0x9f
 18483 0fa0 00000000 		.4byte	0
 18484 0fa4 00000000 		.4byte	0
 18485              	.LLST59:
 18486 0fa8 EC010000 		.4byte	.LVL169
 18487 0fac 04020000 		.4byte	.LVL170
 18488 0fb0 0400     		.2byte	0x4
 18489 0fb2 40       		.byte	0x40
 18490 0fb3 47       		.byte	0x47
 18491 0fb4 24       		.byte	0x24
 18492 0fb5 9F       		.byte	0x9f
 18493 0fb6 DA030000 		.4byte	.LVL220
 18494 0fba F0030000 		.4byte	.LVL221
 18495 0fbe 0400     		.2byte	0x4
 18496 0fc0 40       		.byte	0x40
 18497 0fc1 47       		.byte	0x47
 18498 0fc2 24       		.byte	0x24
 18499 0fc3 9F       		.byte	0x9f
 18500 0fc4 7E050000 		.4byte	.LVL251
 18501 0fc8 94050000 		.4byte	.LVL252
 18502 0fcc 0400     		.2byte	0x4
 18503 0fce 40       		.byte	0x40
 18504 0fcf 47       		.byte	0x47
 18505 0fd0 24       		.byte	0x24
 18506 0fd1 9F       		.byte	0x9f
 18507 0fd2 C0050000 		.4byte	.LVL255
 18508 0fd6 D8050000 		.4byte	.LVL256
 18509 0fda 0400     		.2byte	0x4
 18510 0fdc 40       		.byte	0x40
 18511 0fdd 47       		.byte	0x47
 18512 0fde 24       		.byte	0x24
 18513 0fdf 9F       		.byte	0x9f
 18514 0fe0 00000000 		.4byte	0
 18515 0fe4 00000000 		.4byte	0
 18516              	.LLST60:
 18517 0fe8 EC010000 		.4byte	.LVL169
 18518 0fec 04020000 		.4byte	.LVL170
 18519 0ff0 0100     		.2byte	0x1
 18520 0ff2 54       		.byte	0x54
 18521 0ff3 DA030000 		.4byte	.LVL220
 18522 0ff7 F0030000 		.4byte	.LVL221
 18523 0ffb 0100     		.2byte	0x1
 18524 0ffd 54       		.byte	0x54
ARM GAS  /tmp/ccJYnsep.s 			page 328


 18525 0ffe 7E050000 		.4byte	.LVL251
 18526 1002 94050000 		.4byte	.LVL252
 18527 1006 0100     		.2byte	0x1
 18528 1008 54       		.byte	0x54
 18529 1009 C0050000 		.4byte	.LVL255
 18530 100d D8050000 		.4byte	.LVL256
 18531 1011 0100     		.2byte	0x1
 18532 1013 54       		.byte	0x54
 18533 1014 00000000 		.4byte	0
 18534 1018 00000000 		.4byte	0
 18535              	.LLST61:
 18536 101c 0A020000 		.4byte	.LVL171
 18537 1020 1E020000 		.4byte	.LVL172
 18538 1024 0200     		.2byte	0x2
 18539 1026 30       		.byte	0x30
 18540 1027 9F       		.byte	0x9f
 18541 1028 00000000 		.4byte	0
 18542 102c 00000000 		.4byte	0
 18543              	.LLST62:
 18544 1030 26010000 		.4byte	.LVL153
 18545 1034 3A010000 		.4byte	.LVL154
 18546 1038 0200     		.2byte	0x2
 18547 103a 34       		.byte	0x34
 18548 103b 9F       		.byte	0x9f
 18549 103c 0A020000 		.4byte	.LVL171
 18550 1040 1E020000 		.4byte	.LVL172
 18551 1044 0200     		.2byte	0x2
 18552 1046 34       		.byte	0x34
 18553 1047 9F       		.byte	0x9f
 18554 1048 00000000 		.4byte	0
 18555 104c 00000000 		.4byte	0
 18556              	.LLST63:
 18557 1050 26010000 		.4byte	.LVL153
 18558 1054 3A010000 		.4byte	.LVL154
 18559 1058 0400     		.2byte	0x4
 18560 105a 40       		.byte	0x40
 18561 105b 3C       		.byte	0x3c
 18562 105c 24       		.byte	0x24
 18563 105d 9F       		.byte	0x9f
 18564 105e 0A020000 		.4byte	.LVL171
 18565 1062 1E020000 		.4byte	.LVL172
 18566 1066 0400     		.2byte	0x4
 18567 1068 40       		.byte	0x40
 18568 1069 3C       		.byte	0x3c
 18569 106a 24       		.byte	0x24
 18570 106b 9F       		.byte	0x9f
 18571 106c 00000000 		.4byte	0
 18572 1070 00000000 		.4byte	0
 18573              	.LLST65:
 18574 1074 26010000 		.4byte	.LVL153
 18575 1078 3A010000 		.4byte	.LVL154
 18576 107c 0600     		.2byte	0x6
 18577 107e 0C       		.byte	0xc
 18578 107f 00000108 		.4byte	0x8010000
 18579 1083 9F       		.byte	0x9f
 18580 1084 0A020000 		.4byte	.LVL171
 18581 1088 1E020000 		.4byte	.LVL172
ARM GAS  /tmp/ccJYnsep.s 			page 329


 18582 108c 0600     		.2byte	0x6
 18583 108e 0C       		.byte	0xc
 18584 108f 00000108 		.4byte	0x8010000
 18585 1093 9F       		.byte	0x9f
 18586 1094 00000000 		.4byte	0
 18587 1098 00000000 		.4byte	0
 18588              	.LLST66:
 18589 109c 26010000 		.4byte	.LVL153
 18590 10a0 3A010000 		.4byte	.LVL154
 18591 10a4 0100     		.2byte	0x1
 18592 10a6 54       		.byte	0x54
 18593 10a7 0A020000 		.4byte	.LVL171
 18594 10ab 1E020000 		.4byte	.LVL172
 18595 10af 0100     		.2byte	0x1
 18596 10b1 54       		.byte	0x54
 18597 10b2 00000000 		.4byte	0
 18598 10b6 00000000 		.4byte	0
 18599              	.LLST67:
 18600 10ba 1E020000 		.4byte	.LVL172
 18601 10be 20020000 		.4byte	.LVL173
 18602 10c2 0200     		.2byte	0x2
 18603 10c4 30       		.byte	0x30
 18604 10c5 9F       		.byte	0x9f
 18605 10c6 00000000 		.4byte	0
 18606 10ca 00000000 		.4byte	0
 18607              	.LLST68:
 18608 10ce 3A010000 		.4byte	.LVL154
 18609 10d2 5E010000 		.4byte	.LVL156
 18610 10d6 0200     		.2byte	0x2
 18611 10d8 35       		.byte	0x35
 18612 10d9 9F       		.byte	0x9f
 18613 10da 1E020000 		.4byte	.LVL172
 18614 10de 20020000 		.4byte	.LVL173
 18615 10e2 0200     		.2byte	0x2
 18616 10e4 35       		.byte	0x35
 18617 10e5 9F       		.byte	0x9f
 18618 10e6 00000000 		.4byte	0
 18619 10ea 00000000 		.4byte	0
 18620              	.LLST69:
 18621 10ee 3A010000 		.4byte	.LVL154
 18622 10f2 5E010000 		.4byte	.LVL156
 18623 10f6 0400     		.2byte	0x4
 18624 10f8 40       		.byte	0x40
 18625 10f9 3D       		.byte	0x3d
 18626 10fa 24       		.byte	0x24
 18627 10fb 9F       		.byte	0x9f
 18628 10fc 1E020000 		.4byte	.LVL172
 18629 1100 20020000 		.4byte	.LVL173
 18630 1104 0400     		.2byte	0x4
 18631 1106 40       		.byte	0x40
 18632 1107 3D       		.byte	0x3d
 18633 1108 24       		.byte	0x24
 18634 1109 9F       		.byte	0x9f
 18635 110a 00000000 		.4byte	0
 18636 110e 00000000 		.4byte	0
 18637              	.LLST70:
 18638 1112 3A010000 		.4byte	.LVL154
ARM GAS  /tmp/ccJYnsep.s 			page 330


 18639 1116 5E010000 		.4byte	.LVL156
 18640 111a 0100     		.2byte	0x1
 18641 111c 5A       		.byte	0x5a
 18642 111d 1E020000 		.4byte	.LVL172
 18643 1121 20020000 		.4byte	.LVL173
 18644 1125 0200     		.2byte	0x2
 18645 1127 30       		.byte	0x30
 18646 1128 9F       		.byte	0x9f
 18647 1129 00000000 		.4byte	0
 18648 112d 00000000 		.4byte	0
 18649              	.LLST71:
 18650 1131 3A010000 		.4byte	.LVL154
 18651 1135 5E010000 		.4byte	.LVL156
 18652 1139 0600     		.2byte	0x6
 18653 113b 0C       		.byte	0xc
 18654 113c 00000208 		.4byte	0x8020000
 18655 1140 9F       		.byte	0x9f
 18656 1141 1E020000 		.4byte	.LVL172
 18657 1145 20020000 		.4byte	.LVL173
 18658 1149 0600     		.2byte	0x6
 18659 114b 0C       		.byte	0xc
 18660 114c 00000208 		.4byte	0x8020000
 18661 1150 9F       		.byte	0x9f
 18662 1151 00000000 		.4byte	0
 18663 1155 00000000 		.4byte	0
 18664              	.LLST72:
 18665 1159 3A010000 		.4byte	.LVL154
 18666 115d 5E010000 		.4byte	.LVL156
 18667 1161 0100     		.2byte	0x1
 18668 1163 54       		.byte	0x54
 18669 1164 1E020000 		.4byte	.LVL172
 18670 1168 20020000 		.4byte	.LVL173
 18671 116c 0100     		.2byte	0x1
 18672 116e 54       		.byte	0x54
 18673 116f 00000000 		.4byte	0
 18674 1173 00000000 		.4byte	0
 18675              	.LLST73:
 18676 1177 5E010000 		.4byte	.LVL156
 18677 117b 62010000 		.4byte	.LVL157
 18678 117f 0700     		.2byte	0x7
 18679 1181 76       		.byte	0x76
 18680 1182 808080C0 		.sleb128 134217728
 18680      00
 18681 1187 9F       		.byte	0x9f
 18682 1188 62010000 		.4byte	.LVL157
 18683 118c 9A010000 		.4byte	.LVL160
 18684 1190 0100     		.2byte	0x1
 18685 1192 56       		.byte	0x56
 18686 1193 34040000 		.4byte	.LVL225
 18687 1197 88040000 		.4byte	.LVL228
 18688 119b 0700     		.2byte	0x7
 18689 119d 76       		.byte	0x76
 18690 119e 808080C0 		.sleb128 134217728
 18690      00
 18691 11a3 9F       		.byte	0x9f
 18692 11a4 4C050000 		.4byte	.LVL247
 18693 11a8 7E050000 		.4byte	.LVL251
ARM GAS  /tmp/ccJYnsep.s 			page 331


 18694 11ac 0700     		.2byte	0x7
 18695 11ae 76       		.byte	0x76
 18696 11af 808080C0 		.sleb128 134217728
 18696      00
 18697 11b4 9F       		.byte	0x9f
 18698 11b5 00000000 		.4byte	0
 18699 11b9 00000000 		.4byte	0
 18700              	.LLST74:
 18701 11bd 5E010000 		.4byte	.LVL156
 18702 11c1 7A010000 		.4byte	.LVL158
 18703 11c5 0200     		.2byte	0x2
 18704 11c7 40       		.byte	0x40
 18705 11c8 9F       		.byte	0x9f
 18706 11c9 34040000 		.4byte	.LVL225
 18707 11cd 4C040000 		.4byte	.LVL226
 18708 11d1 0200     		.2byte	0x2
 18709 11d3 40       		.byte	0x40
 18710 11d4 9F       		.byte	0x9f
 18711 11d5 4C050000 		.4byte	.LVL247
 18712 11d9 62050000 		.4byte	.LVL248
 18713 11dd 0200     		.2byte	0x2
 18714 11df 40       		.byte	0x40
 18715 11e0 9F       		.byte	0x9f
 18716 11e1 00000000 		.4byte	0
 18717 11e5 00000000 		.4byte	0
 18718              	.LLST75:
 18719 11e9 5E010000 		.4byte	.LVL156
 18720 11ed 7A010000 		.4byte	.LVL158
 18721 11f1 0400     		.2byte	0x4
 18722 11f3 0A       		.byte	0xa
 18723 11f4 0040     		.2byte	0x4000
 18724 11f6 9F       		.byte	0x9f
 18725 11f7 34040000 		.4byte	.LVL225
 18726 11fb 4C040000 		.4byte	.LVL226
 18727 11ff 0400     		.2byte	0x4
 18728 1201 0A       		.byte	0xa
 18729 1202 0040     		.2byte	0x4000
 18730 1204 9F       		.byte	0x9f
 18731 1205 4C050000 		.4byte	.LVL247
 18732 1209 62050000 		.4byte	.LVL248
 18733 120d 0400     		.2byte	0x4
 18734 120f 0A       		.byte	0xa
 18735 1210 0040     		.2byte	0x4000
 18736 1212 9F       		.byte	0x9f
 18737 1213 00000000 		.4byte	0
 18738 1217 00000000 		.4byte	0
 18739              	.LLST76:
 18740 121b 5E010000 		.4byte	.LVL156
 18741 121f 7A010000 		.4byte	.LVL158
 18742 1223 0400     		.2byte	0x4
 18743 1225 40       		.byte	0x40
 18744 1226 3C       		.byte	0x3c
 18745 1227 24       		.byte	0x24
 18746 1228 9F       		.byte	0x9f
 18747 1229 34040000 		.4byte	.LVL225
 18748 122d 4C040000 		.4byte	.LVL226
 18749 1231 0400     		.2byte	0x4
ARM GAS  /tmp/ccJYnsep.s 			page 332


 18750 1233 40       		.byte	0x40
 18751 1234 3C       		.byte	0x3c
 18752 1235 24       		.byte	0x24
 18753 1236 9F       		.byte	0x9f
 18754 1237 4C050000 		.4byte	.LVL247
 18755 123b 62050000 		.4byte	.LVL248
 18756 123f 0400     		.2byte	0x4
 18757 1241 40       		.byte	0x40
 18758 1242 3C       		.byte	0x3c
 18759 1243 24       		.byte	0x24
 18760 1244 9F       		.byte	0x9f
 18761 1245 00000000 		.4byte	0
 18762 1249 00000000 		.4byte	0
 18763              	.LLST77:
 18764 124d 5E010000 		.4byte	.LVL156
 18765 1251 62010000 		.4byte	.LVL157
 18766 1255 0700     		.2byte	0x7
 18767 1257 76       		.byte	0x76
 18768 1258 808080C0 		.sleb128 134217728
 18768      00
 18769 125d 9F       		.byte	0x9f
 18770 125e 62010000 		.4byte	.LVL157
 18771 1262 7A010000 		.4byte	.LVL158
 18772 1266 0100     		.2byte	0x1
 18773 1268 56       		.byte	0x56
 18774 1269 34040000 		.4byte	.LVL225
 18775 126d 4C040000 		.4byte	.LVL226
 18776 1271 0700     		.2byte	0x7
 18777 1273 76       		.byte	0x76
 18778 1274 808080C0 		.sleb128 134217728
 18778      00
 18779 1279 9F       		.byte	0x9f
 18780 127a 4C050000 		.4byte	.LVL247
 18781 127e 62050000 		.4byte	.LVL248
 18782 1282 0700     		.2byte	0x7
 18783 1284 76       		.byte	0x76
 18784 1285 808080C0 		.sleb128 134217728
 18784      00
 18785 128a 9F       		.byte	0x9f
 18786 128b 00000000 		.4byte	0
 18787 128f 00000000 		.4byte	0
 18788              	.LLST78:
 18789 1293 5E010000 		.4byte	.LVL156
 18790 1297 7A010000 		.4byte	.LVL158
 18791 129b 0100     		.2byte	0x1
 18792 129d 54       		.byte	0x54
 18793 129e 34040000 		.4byte	.LVL225
 18794 12a2 4C040000 		.4byte	.LVL226
 18795 12a6 0100     		.2byte	0x1
 18796 12a8 54       		.byte	0x54
 18797 12a9 4C050000 		.4byte	.LVL247
 18798 12ad 62050000 		.4byte	.LVL248
 18799 12b1 0100     		.2byte	0x1
 18800 12b3 54       		.byte	0x54
 18801 12b4 00000000 		.4byte	0
 18802 12b8 00000000 		.4byte	0
 18803              	.LLST79:
ARM GAS  /tmp/ccJYnsep.s 			page 333


 18804 12bc 7A010000 		.4byte	.LVL158
 18805 12c0 90010000 		.4byte	.LVL159
 18806 12c4 0200     		.2byte	0x2
 18807 12c6 44       		.byte	0x44
 18808 12c7 9F       		.byte	0x9f
 18809 12c8 4C040000 		.4byte	.LVL226
 18810 12cc 62040000 		.4byte	.LVL227
 18811 12d0 0200     		.2byte	0x2
 18812 12d2 44       		.byte	0x44
 18813 12d3 9F       		.byte	0x9f
 18814 12d4 62050000 		.4byte	.LVL248
 18815 12d8 78050000 		.4byte	.LVL249
 18816 12dc 0200     		.2byte	0x2
 18817 12de 44       		.byte	0x44
 18818 12df 9F       		.byte	0x9f
 18819 12e0 00000000 		.4byte	0
 18820 12e4 00000000 		.4byte	0
 18821              	.LLST80:
 18822 12e8 7A010000 		.4byte	.LVL158
 18823 12ec 90010000 		.4byte	.LVL159
 18824 12f0 0400     		.2byte	0x4
 18825 12f2 40       		.byte	0x40
 18826 12f3 3C       		.byte	0x3c
 18827 12f4 24       		.byte	0x24
 18828 12f5 9F       		.byte	0x9f
 18829 12f6 4C040000 		.4byte	.LVL226
 18830 12fa 62040000 		.4byte	.LVL227
 18831 12fe 0400     		.2byte	0x4
 18832 1300 40       		.byte	0x40
 18833 1301 3C       		.byte	0x3c
 18834 1302 24       		.byte	0x24
 18835 1303 9F       		.byte	0x9f
 18836 1304 62050000 		.4byte	.LVL248
 18837 1308 78050000 		.4byte	.LVL249
 18838 130c 0400     		.2byte	0x4
 18839 130e 40       		.byte	0x40
 18840 130f 3C       		.byte	0x3c
 18841 1310 24       		.byte	0x24
 18842 1311 9F       		.byte	0x9f
 18843 1312 00000000 		.4byte	0
 18844 1316 00000000 		.4byte	0
 18845              	.LLST82:
 18846 131a 7A010000 		.4byte	.LVL158
 18847 131e 90010000 		.4byte	.LVL159
 18848 1322 0500     		.2byte	0x5
 18849 1324 76       		.byte	0x76
 18850 1325 808004   		.sleb128 65536
 18851 1328 9F       		.byte	0x9f
 18852 1329 4C040000 		.4byte	.LVL226
 18853 132d 62040000 		.4byte	.LVL227
 18854 1331 0700     		.2byte	0x7
 18855 1333 76       		.byte	0x76
 18856 1334 808084C0 		.sleb128 134283264
 18856      00
 18857 1339 9F       		.byte	0x9f
 18858 133a 62050000 		.4byte	.LVL248
 18859 133e 78050000 		.4byte	.LVL249
ARM GAS  /tmp/ccJYnsep.s 			page 334


 18860 1342 0700     		.2byte	0x7
 18861 1344 76       		.byte	0x76
 18862 1345 808084C0 		.sleb128 134283264
 18862      00
 18863 134a 9F       		.byte	0x9f
 18864 134b 00000000 		.4byte	0
 18865 134f 00000000 		.4byte	0
 18866              	.LLST83:
 18867 1353 7A010000 		.4byte	.LVL158
 18868 1357 90010000 		.4byte	.LVL159
 18869 135b 0100     		.2byte	0x1
 18870 135d 54       		.byte	0x54
 18871 135e 4C040000 		.4byte	.LVL226
 18872 1362 62040000 		.4byte	.LVL227
 18873 1366 0100     		.2byte	0x1
 18874 1368 54       		.byte	0x54
 18875 1369 62050000 		.4byte	.LVL248
 18876 136d 78050000 		.4byte	.LVL249
 18877 1371 0100     		.2byte	0x1
 18878 1373 54       		.byte	0x54
 18879 1374 00000000 		.4byte	0
 18880 1378 00000000 		.4byte	0
 18881              	.LLST84:
 18882 137c 90010000 		.4byte	.LVL159
 18883 1380 AE010000 		.4byte	.LVL161
 18884 1384 0200     		.2byte	0x2
 18885 1386 45       		.byte	0x45
 18886 1387 9F       		.byte	0x9f
 18887 1388 62040000 		.4byte	.LVL227
 18888 138c 88040000 		.4byte	.LVL228
 18889 1390 0200     		.2byte	0x2
 18890 1392 45       		.byte	0x45
 18891 1393 9F       		.byte	0x9f
 18892 1394 7C050000 		.4byte	.LVL250
 18893 1398 7E050000 		.4byte	.LVL251
 18894 139c 0200     		.2byte	0x2
 18895 139e 45       		.byte	0x45
 18896 139f 9F       		.byte	0x9f
 18897 13a0 00000000 		.4byte	0
 18898 13a4 00000000 		.4byte	0
 18899              	.LLST85:
 18900 13a8 90010000 		.4byte	.LVL159
 18901 13ac AE010000 		.4byte	.LVL161
 18902 13b0 0400     		.2byte	0x4
 18903 13b2 40       		.byte	0x40
 18904 13b3 3D       		.byte	0x3d
 18905 13b4 24       		.byte	0x24
 18906 13b5 9F       		.byte	0x9f
 18907 13b6 62040000 		.4byte	.LVL227
 18908 13ba 88040000 		.4byte	.LVL228
 18909 13be 0400     		.2byte	0x4
 18910 13c0 40       		.byte	0x40
 18911 13c1 3D       		.byte	0x3d
 18912 13c2 24       		.byte	0x24
 18913 13c3 9F       		.byte	0x9f
 18914 13c4 7C050000 		.4byte	.LVL250
 18915 13c8 7E050000 		.4byte	.LVL251
ARM GAS  /tmp/ccJYnsep.s 			page 335


 18916 13cc 0400     		.2byte	0x4
 18917 13ce 40       		.byte	0x40
 18918 13cf 3D       		.byte	0x3d
 18919 13d0 24       		.byte	0x24
 18920 13d1 9F       		.byte	0x9f
 18921 13d2 00000000 		.4byte	0
 18922 13d6 00000000 		.4byte	0
 18923              	.LLST86:
 18924 13da 90010000 		.4byte	.LVL159
 18925 13de AE010000 		.4byte	.LVL161
 18926 13e2 0100     		.2byte	0x1
 18927 13e4 5A       		.byte	0x5a
 18928 13e5 62040000 		.4byte	.LVL227
 18929 13e9 88040000 		.4byte	.LVL228
 18930 13ed 0200     		.2byte	0x2
 18931 13ef 30       		.byte	0x30
 18932 13f0 9F       		.byte	0x9f
 18933 13f1 7C050000 		.4byte	.LVL250
 18934 13f5 7E050000 		.4byte	.LVL251
 18935 13f9 0100     		.2byte	0x1
 18936 13fb 5A       		.byte	0x5a
 18937 13fc 00000000 		.4byte	0
 18938 1400 00000000 		.4byte	0
 18939              	.LLST87:
 18940 1404 90010000 		.4byte	.LVL159
 18941 1408 9A010000 		.4byte	.LVL160
 18942 140c 0500     		.2byte	0x5
 18943 140e 76       		.byte	0x76
 18944 140f 808008   		.sleb128 131072
 18945 1412 9F       		.byte	0x9f
 18946 1413 9A010000 		.4byte	.LVL160
 18947 1417 AD010000 		.4byte	.LVL161-1
 18948 141b 0100     		.2byte	0x1
 18949 141d 51       		.byte	0x51
 18950 141e 62040000 		.4byte	.LVL227
 18951 1422 88040000 		.4byte	.LVL228
 18952 1426 0700     		.2byte	0x7
 18953 1428 76       		.byte	0x76
 18954 1429 808088C0 		.sleb128 134348800
 18954      00
 18955 142e 9F       		.byte	0x9f
 18956 142f 7C050000 		.4byte	.LVL250
 18957 1433 7E050000 		.4byte	.LVL251
 18958 1437 0100     		.2byte	0x1
 18959 1439 51       		.byte	0x51
 18960 143a 00000000 		.4byte	0
 18961 143e 00000000 		.4byte	0
 18962              	.LLST88:
 18963 1442 90010000 		.4byte	.LVL159
 18964 1446 AE010000 		.4byte	.LVL161
 18965 144a 0100     		.2byte	0x1
 18966 144c 54       		.byte	0x54
 18967 144d 62040000 		.4byte	.LVL227
 18968 1451 88040000 		.4byte	.LVL228
 18969 1455 0100     		.2byte	0x1
 18970 1457 54       		.byte	0x54
 18971 1458 7C050000 		.4byte	.LVL250
ARM GAS  /tmp/ccJYnsep.s 			page 336


 18972 145c 7E050000 		.4byte	.LVL251
 18973 1460 0100     		.2byte	0x1
 18974 1462 54       		.byte	0x54
 18975 1463 00000000 		.4byte	0
 18976 1467 00000000 		.4byte	0
 18977              	.LLST89:
 18978 146b F6030000 		.4byte	.LVL222
 18979 146f 88040000 		.4byte	.LVL228
 18980 1473 0600     		.2byte	0x6
 18981 1475 76       		.byte	0x76
 18982 1476 80808001 		.sleb128 2097152
 18983 147a 9F       		.byte	0x9f
 18984 147b 34050000 		.4byte	.LVL246
 18985 147f 7E050000 		.4byte	.LVL251
 18986 1483 0600     		.2byte	0x6
 18987 1485 76       		.byte	0x76
 18988 1486 80808001 		.sleb128 2097152
 18989 148a 9F       		.byte	0x9f
 18990 148b 00000000 		.4byte	0
 18991 148f 00000000 		.4byte	0
 18992              	.LLST90:
 18993 1493 F6030000 		.4byte	.LVL222
 18994 1497 0E040000 		.4byte	.LVL223
 18995 149b 0200     		.2byte	0x2
 18996 149d 30       		.byte	0x30
 18997 149e 9F       		.byte	0x9f
 18998 149f 00000000 		.4byte	0
 18999 14a3 00000000 		.4byte	0
 19000              	.LLST91:
 19001 14a7 F6030000 		.4byte	.LVL222
 19002 14ab 0E040000 		.4byte	.LVL223
 19003 14af 0400     		.2byte	0x4
 19004 14b1 0A       		.byte	0xa
 19005 14b2 0040     		.2byte	0x4000
 19006 14b4 9F       		.byte	0x9f
 19007 14b5 00000000 		.4byte	0
 19008 14b9 00000000 		.4byte	0
 19009              	.LLST92:
 19010 14bd F6030000 		.4byte	.LVL222
 19011 14c1 0E040000 		.4byte	.LVL223
 19012 14c5 0400     		.2byte	0x4
 19013 14c7 40       		.byte	0x40
 19014 14c8 3C       		.byte	0x3c
 19015 14c9 24       		.byte	0x24
 19016 14ca 9F       		.byte	0x9f
 19017 14cb 00000000 		.4byte	0
 19018 14cf 00000000 		.4byte	0
 19019              	.LLST93:
 19020 14d3 F6030000 		.4byte	.LVL222
 19021 14d7 0E040000 		.4byte	.LVL223
 19022 14db 0600     		.2byte	0x6
 19023 14dd 76       		.byte	0x76
 19024 14de 80808001 		.sleb128 2097152
 19025 14e2 9F       		.byte	0x9f
 19026 14e3 00000000 		.4byte	0
 19027 14e7 00000000 		.4byte	0
 19028              	.LLST94:
ARM GAS  /tmp/ccJYnsep.s 			page 337


 19029 14eb F6030000 		.4byte	.LVL222
 19030 14ef 0E040000 		.4byte	.LVL223
 19031 14f3 0100     		.2byte	0x1
 19032 14f5 54       		.byte	0x54
 19033 14f6 00000000 		.4byte	0
 19034 14fa 00000000 		.4byte	0
 19035              	.LLST95:
 19036 14fe 0E040000 		.4byte	.LVL223
 19037 1502 28040000 		.4byte	.LVL224
 19038 1506 0200     		.2byte	0x2
 19039 1508 34       		.byte	0x34
 19040 1509 9F       		.byte	0x9f
 19041 150a 00000000 		.4byte	0
 19042 150e 00000000 		.4byte	0
 19043              	.LLST96:
 19044 1512 0E040000 		.4byte	.LVL223
 19045 1516 28040000 		.4byte	.LVL224
 19046 151a 0400     		.2byte	0x4
 19047 151c 40       		.byte	0x40
 19048 151d 3C       		.byte	0x3c
 19049 151e 24       		.byte	0x24
 19050 151f 9F       		.byte	0x9f
 19051 1520 00000000 		.4byte	0
 19052 1524 00000000 		.4byte	0
 19053              	.LLST98:
 19054 1528 0E040000 		.4byte	.LVL223
 19055 152c 28040000 		.4byte	.LVL224
 19056 1530 0600     		.2byte	0x6
 19057 1532 76       		.byte	0x76
 19058 1533 80808401 		.sleb128 2162688
 19059 1537 9F       		.byte	0x9f
 19060 1538 00000000 		.4byte	0
 19061 153c 00000000 		.4byte	0
 19062              	.LLST99:
 19063 1540 0E040000 		.4byte	.LVL223
 19064 1544 28040000 		.4byte	.LVL224
 19065 1548 0100     		.2byte	0x1
 19066 154a 54       		.byte	0x54
 19067 154b 00000000 		.4byte	0
 19068 154f 00000000 		.4byte	0
 19069              	.LLST100:
 19070 1553 28040000 		.4byte	.LVL224
 19071 1557 88040000 		.4byte	.LVL228
 19072 155b 0200     		.2byte	0x2
 19073 155d 35       		.byte	0x35
 19074 155e 9F       		.byte	0x9f
 19075 155f 34050000 		.4byte	.LVL246
 19076 1563 7E050000 		.4byte	.LVL251
 19077 1567 0200     		.2byte	0x2
 19078 1569 35       		.byte	0x35
 19079 156a 9F       		.byte	0x9f
 19080 156b 00000000 		.4byte	0
 19081 156f 00000000 		.4byte	0
 19082              	.LLST101:
 19083 1573 28040000 		.4byte	.LVL224
 19084 1577 88040000 		.4byte	.LVL228
 19085 157b 0400     		.2byte	0x4
ARM GAS  /tmp/ccJYnsep.s 			page 338


 19086 157d 40       		.byte	0x40
 19087 157e 3D       		.byte	0x3d
 19088 157f 24       		.byte	0x24
 19089 1580 9F       		.byte	0x9f
 19090 1581 34050000 		.4byte	.LVL246
 19091 1585 7E050000 		.4byte	.LVL251
 19092 1589 0400     		.2byte	0x4
 19093 158b 40       		.byte	0x40
 19094 158c 3D       		.byte	0x3d
 19095 158d 24       		.byte	0x24
 19096 158e 9F       		.byte	0x9f
 19097 158f 00000000 		.4byte	0
 19098 1593 00000000 		.4byte	0
 19099              	.LLST102:
 19100 1597 28040000 		.4byte	.LVL224
 19101 159b 88040000 		.4byte	.LVL228
 19102 159f 0100     		.2byte	0x1
 19103 15a1 5A       		.byte	0x5a
 19104 15a2 34050000 		.4byte	.LVL246
 19105 15a6 7E050000 		.4byte	.LVL251
 19106 15aa 0100     		.2byte	0x1
 19107 15ac 5A       		.byte	0x5a
 19108 15ad 00000000 		.4byte	0
 19109 15b1 00000000 		.4byte	0
 19110              	.LLST103:
 19111 15b5 28040000 		.4byte	.LVL224
 19112 15b9 88040000 		.4byte	.LVL228
 19113 15bd 0600     		.2byte	0x6
 19114 15bf 76       		.byte	0x76
 19115 15c0 80808801 		.sleb128 2228224
 19116 15c4 9F       		.byte	0x9f
 19117 15c5 34050000 		.4byte	.LVL246
 19118 15c9 7E050000 		.4byte	.LVL251
 19119 15cd 0600     		.2byte	0x6
 19120 15cf 76       		.byte	0x76
 19121 15d0 80808801 		.sleb128 2228224
 19122 15d4 9F       		.byte	0x9f
 19123 15d5 00000000 		.4byte	0
 19124 15d9 00000000 		.4byte	0
 19125              	.LLST104:
 19126 15dd 28040000 		.4byte	.LVL224
 19127 15e1 88040000 		.4byte	.LVL228
 19128 15e5 0100     		.2byte	0x1
 19129 15e7 54       		.byte	0x54
 19130 15e8 34050000 		.4byte	.LVL246
 19131 15ec 7E050000 		.4byte	.LVL251
 19132 15f0 0100     		.2byte	0x1
 19133 15f2 54       		.byte	0x54
 19134 15f3 00000000 		.4byte	0
 19135 15f7 00000000 		.4byte	0
 19136              	.LLST105:
 19137 15fb B8030000 		.4byte	.LVL218
 19138 15ff D2030000 		.4byte	.LVL219
 19139 1603 0200     		.2byte	0x2
 19140 1605 30       		.byte	0x30
 19141 1606 9F       		.byte	0x9f
 19142 1607 00000000 		.4byte	0
ARM GAS  /tmp/ccJYnsep.s 			page 339


 19143 160b 00000000 		.4byte	0
 19144              	.LLST106:
 19145 160f B8030000 		.4byte	.LVL218
 19146 1613 D2030000 		.4byte	.LVL219
 19147 1617 0400     		.2byte	0x4
 19148 1619 0A       		.byte	0xa
 19149 161a 0040     		.2byte	0x4000
 19150 161c 9F       		.byte	0x9f
 19151 161d 00000000 		.4byte	0
 19152 1621 00000000 		.4byte	0
 19153              	.LLST107:
 19154 1625 B8030000 		.4byte	.LVL218
 19155 1629 D2030000 		.4byte	.LVL219
 19156 162d 0400     		.2byte	0x4
 19157 162f 40       		.byte	0x40
 19158 1630 3C       		.byte	0x3c
 19159 1631 24       		.byte	0x24
 19160 1632 9F       		.byte	0x9f
 19161 1633 00000000 		.4byte	0
 19162 1637 00000000 		.4byte	0
 19163              	.LLST108:
 19164 163b B8030000 		.4byte	.LVL218
 19165 163f D2030000 		.4byte	.LVL219
 19166 1643 0400     		.2byte	0x4
 19167 1645 40       		.byte	0x40
 19168 1646 41       		.byte	0x41
 19169 1647 24       		.byte	0x24
 19170 1648 9F       		.byte	0x9f
 19171 1649 00000000 		.4byte	0
 19172 164d 00000000 		.4byte	0
 19173              	.LLST109:
 19174 1651 B8030000 		.4byte	.LVL218
 19175 1655 D2030000 		.4byte	.LVL219
 19176 1659 0100     		.2byte	0x1
 19177 165b 54       		.byte	0x54
 19178 165c 00000000 		.4byte	0
 19179 1660 00000000 		.4byte	0
 19180              	.LLST110:
 19181 1664 A4050000 		.4byte	.LVL253
 19182 1668 BA050000 		.4byte	.LVL254
 19183 166c 0200     		.2byte	0x2
 19184 166e 34       		.byte	0x34
 19185 166f 9F       		.byte	0x9f
 19186 1670 00000000 		.4byte	0
 19187 1674 00000000 		.4byte	0
 19188              	.LLST111:
 19189 1678 A4050000 		.4byte	.LVL253
 19190 167c BA050000 		.4byte	.LVL254
 19191 1680 0400     		.2byte	0x4
 19192 1682 40       		.byte	0x40
 19193 1683 3C       		.byte	0x3c
 19194 1684 24       		.byte	0x24
 19195 1685 9F       		.byte	0x9f
 19196 1686 00000000 		.4byte	0
 19197 168a 00000000 		.4byte	0
 19198              	.LLST113:
 19199 168e A4050000 		.4byte	.LVL253
ARM GAS  /tmp/ccJYnsep.s 			page 340


 19200 1692 BA050000 		.4byte	.LVL254
 19201 1696 0500     		.2byte	0x5
 19202 1698 08       		.byte	0x8
 19203 1699 84       		.byte	0x84
 19204 169a 3E       		.byte	0x3e
 19205 169b 24       		.byte	0x24
 19206 169c 9F       		.byte	0x9f
 19207 169d 00000000 		.4byte	0
 19208 16a1 00000000 		.4byte	0
 19209              	.LLST114:
 19210 16a5 A4050000 		.4byte	.LVL253
 19211 16a9 BA050000 		.4byte	.LVL254
 19212 16ad 0100     		.2byte	0x1
 19213 16af 54       		.byte	0x54
 19214 16b0 00000000 		.4byte	0
 19215 16b4 00000000 		.4byte	0
 19216              	.LLST115:
 19217 16b8 BA050000 		.4byte	.LVL254
 19218 16bc DA050000 		.4byte	.LVL257
 19219 16c0 0200     		.2byte	0x2
 19220 16c2 35       		.byte	0x35
 19221 16c3 9F       		.byte	0x9f
 19222 16c4 E0050000 		.4byte	.LVL258
 19223 16c8 08060000 		.4byte	.LFE267
 19224 16cc 0200     		.2byte	0x2
 19225 16ce 35       		.byte	0x35
 19226 16cf 9F       		.byte	0x9f
 19227 16d0 00000000 		.4byte	0
 19228 16d4 00000000 		.4byte	0
 19229              	.LLST116:
 19230 16d8 BA050000 		.4byte	.LVL254
 19231 16dc DA050000 		.4byte	.LVL257
 19232 16e0 0400     		.2byte	0x4
 19233 16e2 40       		.byte	0x40
 19234 16e3 3D       		.byte	0x3d
 19235 16e4 24       		.byte	0x24
 19236 16e5 9F       		.byte	0x9f
 19237 16e6 E0050000 		.4byte	.LVL258
 19238 16ea 08060000 		.4byte	.LFE267
 19239 16ee 0400     		.2byte	0x4
 19240 16f0 40       		.byte	0x40
 19241 16f1 3D       		.byte	0x3d
 19242 16f2 24       		.byte	0x24
 19243 16f3 9F       		.byte	0x9f
 19244 16f4 00000000 		.4byte	0
 19245 16f8 00000000 		.4byte	0
 19246              	.LLST117:
 19247 16fc BA050000 		.4byte	.LVL254
 19248 1700 DA050000 		.4byte	.LVL257
 19249 1704 0100     		.2byte	0x1
 19250 1706 5A       		.byte	0x5a
 19251 1707 E0050000 		.4byte	.LVL258
 19252 170b 08060000 		.4byte	.LFE267
 19253 170f 0100     		.2byte	0x1
 19254 1711 5A       		.byte	0x5a
 19255 1712 00000000 		.4byte	0
 19256 1716 00000000 		.4byte	0
ARM GAS  /tmp/ccJYnsep.s 			page 341


 19257              	.LLST118:
 19258 171a BA050000 		.4byte	.LVL254
 19259 171e DA050000 		.4byte	.LVL257
 19260 1722 0400     		.2byte	0x4
 19261 1724 41       		.byte	0x41
 19262 1725 41       		.byte	0x41
 19263 1726 24       		.byte	0x24
 19264 1727 9F       		.byte	0x9f
 19265 1728 E0050000 		.4byte	.LVL258
 19266 172c 08060000 		.4byte	.LFE267
 19267 1730 0400     		.2byte	0x4
 19268 1732 41       		.byte	0x41
 19269 1733 41       		.byte	0x41
 19270 1734 24       		.byte	0x24
 19271 1735 9F       		.byte	0x9f
 19272 1736 00000000 		.4byte	0
 19273 173a 00000000 		.4byte	0
 19274              	.LLST119:
 19275 173e BA050000 		.4byte	.LVL254
 19276 1742 DA050000 		.4byte	.LVL257
 19277 1746 0100     		.2byte	0x1
 19278 1748 54       		.byte	0x54
 19279 1749 E0050000 		.4byte	.LVL258
 19280 174d 08060000 		.4byte	.LFE267
 19281 1751 0100     		.2byte	0x1
 19282 1753 54       		.byte	0x54
 19283 1754 00000000 		.4byte	0
 19284 1758 00000000 		.4byte	0
 19285              	.LLST120:
 19286 175c 98020000 		.4byte	.LVL185
 19287 1760 DE020000 		.4byte	.LVL190
 19288 1764 0100     		.2byte	0x1
 19289 1766 56       		.byte	0x56
 19290 1767 DC040000 		.4byte	.LVL240
 19291 176b 30050000 		.4byte	.LVL245
 19292 176f 0100     		.2byte	0x1
 19293 1771 56       		.byte	0x56
 19294 1772 00000000 		.4byte	0
 19295 1776 00000000 		.4byte	0
 19296              	.LLST121:
 19297 177a 98020000 		.4byte	.LVL185
 19298 177e A8020000 		.4byte	.LVL186
 19299 1782 0200     		.2byte	0x2
 19300 1784 34       		.byte	0x34
 19301 1785 9F       		.byte	0x9f
 19302 1786 00000000 		.4byte	0
 19303 178a 00000000 		.4byte	0
 19304              	.LLST122:
 19305 178e 98020000 		.4byte	.LVL185
 19306 1792 A8020000 		.4byte	.LVL186
 19307 1796 0400     		.2byte	0x4
 19308 1798 40       		.byte	0x40
 19309 1799 3D       		.byte	0x3d
 19310 179a 24       		.byte	0x24
 19311 179b 9F       		.byte	0x9f
 19312 179c 00000000 		.4byte	0
 19313 17a0 00000000 		.4byte	0
ARM GAS  /tmp/ccJYnsep.s 			page 342


 19314              	.LLST124:
 19315 17a4 98020000 		.4byte	.LVL185
 19316 17a8 A8020000 		.4byte	.LVL186
 19317 17ac 0400     		.2byte	0x4
 19318 17ae 41       		.byte	0x41
 19319 17af 41       		.byte	0x41
 19320 17b0 24       		.byte	0x24
 19321 17b1 9F       		.byte	0x9f
 19322 17b2 00000000 		.4byte	0
 19323 17b6 00000000 		.4byte	0
 19324              	.LLST125:
 19325 17ba 98020000 		.4byte	.LVL185
 19326 17be A8020000 		.4byte	.LVL186
 19327 17c2 0100     		.2byte	0x1
 19328 17c4 54       		.byte	0x54
 19329 17c5 00000000 		.4byte	0
 19330 17c9 00000000 		.4byte	0
 19331              	.LLST126:
 19332 17cd A8020000 		.4byte	.LVL186
 19333 17d1 AE020000 		.4byte	.LVL187
 19334 17d5 0200     		.2byte	0x2
 19335 17d7 35       		.byte	0x35
 19336 17d8 9F       		.byte	0x9f
 19337 17d9 DC040000 		.4byte	.LVL240
 19338 17dd F4040000 		.4byte	.LVL241
 19339 17e1 0200     		.2byte	0x2
 19340 17e3 35       		.byte	0x35
 19341 17e4 9F       		.byte	0x9f
 19342 17e5 00000000 		.4byte	0
 19343 17e9 00000000 		.4byte	0
 19344              	.LLST127:
 19345 17ed A8020000 		.4byte	.LVL186
 19346 17f1 AE020000 		.4byte	.LVL187
 19347 17f5 0400     		.2byte	0x4
 19348 17f7 40       		.byte	0x40
 19349 17f8 3E       		.byte	0x3e
 19350 17f9 24       		.byte	0x24
 19351 17fa 9F       		.byte	0x9f
 19352 17fb DC040000 		.4byte	.LVL240
 19353 17ff F4040000 		.4byte	.LVL241
 19354 1803 0400     		.2byte	0x4
 19355 1805 40       		.byte	0x40
 19356 1806 3E       		.byte	0x3e
 19357 1807 24       		.byte	0x24
 19358 1808 9F       		.byte	0x9f
 19359 1809 00000000 		.4byte	0
 19360 180d 00000000 		.4byte	0
 19361              	.LLST128:
 19362 1811 A8020000 		.4byte	.LVL186
 19363 1815 AE020000 		.4byte	.LVL187
 19364 1819 0100     		.2byte	0x1
 19365 181b 56       		.byte	0x56
 19366 181c DC040000 		.4byte	.LVL240
 19367 1820 F4040000 		.4byte	.LVL241
 19368 1824 0100     		.2byte	0x1
 19369 1826 56       		.byte	0x56
 19370 1827 00000000 		.4byte	0
ARM GAS  /tmp/ccJYnsep.s 			page 343


 19371 182b 00000000 		.4byte	0
 19372              	.LLST129:
 19373 182f A8020000 		.4byte	.LVL186
 19374 1833 AE020000 		.4byte	.LVL187
 19375 1837 0400     		.2byte	0x4
 19376 1839 42       		.byte	0x42
 19377 183a 41       		.byte	0x41
 19378 183b 24       		.byte	0x24
 19379 183c 9F       		.byte	0x9f
 19380 183d DC040000 		.4byte	.LVL240
 19381 1841 F4040000 		.4byte	.LVL241
 19382 1845 0400     		.2byte	0x4
 19383 1847 42       		.byte	0x42
 19384 1848 41       		.byte	0x41
 19385 1849 24       		.byte	0x24
 19386 184a 9F       		.byte	0x9f
 19387 184b 00000000 		.4byte	0
 19388 184f 00000000 		.4byte	0
 19389              	.LLST130:
 19390 1853 A8020000 		.4byte	.LVL186
 19391 1857 AE020000 		.4byte	.LVL187
 19392 185b 0100     		.2byte	0x1
 19393 185d 54       		.byte	0x54
 19394 185e DC040000 		.4byte	.LVL240
 19395 1862 F4040000 		.4byte	.LVL241
 19396 1866 0100     		.2byte	0x1
 19397 1868 54       		.byte	0x54
 19398 1869 00000000 		.4byte	0
 19399 186d 00000000 		.4byte	0
 19400              	.LLST131:
 19401 1871 AE020000 		.4byte	.LVL187
 19402 1875 C4020000 		.4byte	.LVL188
 19403 1879 0200     		.2byte	0x2
 19404 187b 30       		.byte	0x30
 19405 187c 9F       		.byte	0x9f
 19406 187d F4040000 		.4byte	.LVL241
 19407 1881 0A050000 		.4byte	.LVL242
 19408 1885 0200     		.2byte	0x2
 19409 1887 30       		.byte	0x30
 19410 1888 9F       		.byte	0x9f
 19411 1889 00000000 		.4byte	0
 19412 188d 00000000 		.4byte	0
 19413              	.LLST132:
 19414 1891 AE020000 		.4byte	.LVL187
 19415 1895 C4020000 		.4byte	.LVL188
 19416 1899 0400     		.2byte	0x4
 19417 189b 0A       		.byte	0xa
 19418 189c 0080     		.2byte	0x8000
 19419 189e 9F       		.byte	0x9f
 19420 189f F4040000 		.4byte	.LVL241
 19421 18a3 0A050000 		.4byte	.LVL242
 19422 18a7 0400     		.2byte	0x4
 19423 18a9 0A       		.byte	0xa
 19424 18aa 0080     		.2byte	0x8000
 19425 18ac 9F       		.byte	0x9f
 19426 18ad 00000000 		.4byte	0
 19427 18b1 00000000 		.4byte	0
ARM GAS  /tmp/ccJYnsep.s 			page 344


 19428              	.LLST133:
 19429 18b5 AE020000 		.4byte	.LVL187
 19430 18b9 C4020000 		.4byte	.LVL188
 19431 18bd 0400     		.2byte	0x4
 19432 18bf 40       		.byte	0x40
 19433 18c0 3D       		.byte	0x3d
 19434 18c1 24       		.byte	0x24
 19435 18c2 9F       		.byte	0x9f
 19436 18c3 F4040000 		.4byte	.LVL241
 19437 18c7 0A050000 		.4byte	.LVL242
 19438 18cb 0400     		.2byte	0x4
 19439 18cd 40       		.byte	0x40
 19440 18ce 3D       		.byte	0x3d
 19441 18cf 24       		.byte	0x24
 19442 18d0 9F       		.byte	0x9f
 19443 18d1 00000000 		.4byte	0
 19444 18d5 00000000 		.4byte	0
 19445              	.LLST134:
 19446 18d9 AE020000 		.4byte	.LVL187
 19447 18dd C4020000 		.4byte	.LVL188
 19448 18e1 0400     		.2byte	0x4
 19449 18e3 40       		.byte	0x40
 19450 18e4 47       		.byte	0x47
 19451 18e5 24       		.byte	0x24
 19452 18e6 9F       		.byte	0x9f
 19453 18e7 F4040000 		.4byte	.LVL241
 19454 18eb 0A050000 		.4byte	.LVL242
 19455 18ef 0400     		.2byte	0x4
 19456 18f1 40       		.byte	0x40
 19457 18f2 47       		.byte	0x47
 19458 18f3 24       		.byte	0x24
 19459 18f4 9F       		.byte	0x9f
 19460 18f5 00000000 		.4byte	0
 19461 18f9 00000000 		.4byte	0
 19462              	.LLST135:
 19463 18fd AE020000 		.4byte	.LVL187
 19464 1901 C4020000 		.4byte	.LVL188
 19465 1905 0100     		.2byte	0x1
 19466 1907 54       		.byte	0x54
 19467 1908 F4040000 		.4byte	.LVL241
 19468 190c 0A050000 		.4byte	.LVL242
 19469 1910 0100     		.2byte	0x1
 19470 1912 54       		.byte	0x54
 19471 1913 00000000 		.4byte	0
 19472 1917 00000000 		.4byte	0
 19473              	.LLST136:
 19474 191b C4020000 		.4byte	.LVL188
 19475 191f D6020000 		.4byte	.LVL189
 19476 1923 0200     		.2byte	0x2
 19477 1925 34       		.byte	0x34
 19478 1926 9F       		.byte	0x9f
 19479 1927 0A050000 		.4byte	.LVL242
 19480 192b 1C050000 		.4byte	.LVL243
 19481 192f 0200     		.2byte	0x2
 19482 1931 34       		.byte	0x34
 19483 1932 9F       		.byte	0x9f
 19484 1933 00000000 		.4byte	0
ARM GAS  /tmp/ccJYnsep.s 			page 345


 19485 1937 00000000 		.4byte	0
 19486              	.LLST137:
 19487 193b C4020000 		.4byte	.LVL188
 19488 193f D6020000 		.4byte	.LVL189
 19489 1943 0400     		.2byte	0x4
 19490 1945 40       		.byte	0x40
 19491 1946 3D       		.byte	0x3d
 19492 1947 24       		.byte	0x24
 19493 1948 9F       		.byte	0x9f
 19494 1949 0A050000 		.4byte	.LVL242
 19495 194d 1C050000 		.4byte	.LVL243
 19496 1951 0400     		.2byte	0x4
 19497 1953 40       		.byte	0x40
 19498 1954 3D       		.byte	0x3d
 19499 1955 24       		.byte	0x24
 19500 1956 9F       		.byte	0x9f
 19501 1957 00000000 		.4byte	0
 19502 195b 00000000 		.4byte	0
 19503              	.LLST139:
 19504 195f C4020000 		.4byte	.LVL188
 19505 1963 D6020000 		.4byte	.LVL189
 19506 1967 0600     		.2byte	0x6
 19507 1969 0C       		.byte	0xc
 19508 196a 00000208 		.4byte	0x8020000
 19509 196e 9F       		.byte	0x9f
 19510 196f 0A050000 		.4byte	.LVL242
 19511 1973 1C050000 		.4byte	.LVL243
 19512 1977 0600     		.2byte	0x6
 19513 1979 0C       		.byte	0xc
 19514 197a 00000208 		.4byte	0x8020000
 19515 197e 9F       		.byte	0x9f
 19516 197f 00000000 		.4byte	0
 19517 1983 00000000 		.4byte	0
 19518              	.LLST140:
 19519 1987 C4020000 		.4byte	.LVL188
 19520 198b D6020000 		.4byte	.LVL189
 19521 198f 0100     		.2byte	0x1
 19522 1991 54       		.byte	0x54
 19523 1992 0A050000 		.4byte	.LVL242
 19524 1996 1C050000 		.4byte	.LVL243
 19525 199a 0100     		.2byte	0x1
 19526 199c 54       		.byte	0x54
 19527 199d 00000000 		.4byte	0
 19528 19a1 00000000 		.4byte	0
 19529              	.LLST141:
 19530 19a5 D6020000 		.4byte	.LVL189
 19531 19a9 DE020000 		.4byte	.LVL190
 19532 19ad 0200     		.2byte	0x2
 19533 19af 35       		.byte	0x35
 19534 19b0 9F       		.byte	0x9f
 19535 19b1 1C050000 		.4byte	.LVL243
 19536 19b5 30050000 		.4byte	.LVL245
 19537 19b9 0200     		.2byte	0x2
 19538 19bb 35       		.byte	0x35
 19539 19bc 9F       		.byte	0x9f
 19540 19bd 00000000 		.4byte	0
 19541 19c1 00000000 		.4byte	0
ARM GAS  /tmp/ccJYnsep.s 			page 346


 19542              	.LLST142:
 19543 19c5 D6020000 		.4byte	.LVL189
 19544 19c9 DE020000 		.4byte	.LVL190
 19545 19cd 0400     		.2byte	0x4
 19546 19cf 40       		.byte	0x40
 19547 19d0 3E       		.byte	0x3e
 19548 19d1 24       		.byte	0x24
 19549 19d2 9F       		.byte	0x9f
 19550 19d3 1C050000 		.4byte	.LVL243
 19551 19d7 30050000 		.4byte	.LVL245
 19552 19db 0400     		.2byte	0x4
 19553 19dd 40       		.byte	0x40
 19554 19de 3E       		.byte	0x3e
 19555 19df 24       		.byte	0x24
 19556 19e0 9F       		.byte	0x9f
 19557 19e1 00000000 		.4byte	0
 19558 19e5 00000000 		.4byte	0
 19559              	.LLST143:
 19560 19e9 D6020000 		.4byte	.LVL189
 19561 19ed DE020000 		.4byte	.LVL190
 19562 19f1 0200     		.2byte	0x2
 19563 19f3 30       		.byte	0x30
 19564 19f4 9F       		.byte	0x9f
 19565 19f5 1C050000 		.4byte	.LVL243
 19566 19f9 30050000 		.4byte	.LVL245
 19567 19fd 0100     		.2byte	0x1
 19568 19ff 56       		.byte	0x56
 19569 1a00 00000000 		.4byte	0
 19570 1a04 00000000 		.4byte	0
 19571              	.LLST144:
 19572 1a08 D6020000 		.4byte	.LVL189
 19573 1a0c DE020000 		.4byte	.LVL190
 19574 1a10 0600     		.2byte	0x6
 19575 1a12 0C       		.byte	0xc
 19576 1a13 00000408 		.4byte	0x8040000
 19577 1a17 9F       		.byte	0x9f
 19578 1a18 1C050000 		.4byte	.LVL243
 19579 1a1c 30050000 		.4byte	.LVL245
 19580 1a20 0600     		.2byte	0x6
 19581 1a22 0C       		.byte	0xc
 19582 1a23 00000408 		.4byte	0x8040000
 19583 1a27 9F       		.byte	0x9f
 19584 1a28 00000000 		.4byte	0
 19585 1a2c 00000000 		.4byte	0
 19586              	.LLST145:
 19587 1a30 D6020000 		.4byte	.LVL189
 19588 1a34 DE020000 		.4byte	.LVL190
 19589 1a38 0100     		.2byte	0x1
 19590 1a3a 54       		.byte	0x54
 19591 1a3b 1C050000 		.4byte	.LVL243
 19592 1a3f 30050000 		.4byte	.LVL245
 19593 1a43 0100     		.2byte	0x1
 19594 1a45 54       		.byte	0x54
 19595 1a46 00000000 		.4byte	0
 19596 1a4a 00000000 		.4byte	0
 19597              	.LLST146:
 19598 1a4e 30030000 		.4byte	.LVL199
ARM GAS  /tmp/ccJYnsep.s 			page 347


 19599 1a52 34030000 		.4byte	.LVL200
 19600 1a56 0100     		.2byte	0x1
 19601 1a58 50       		.byte	0x50
 19602 1a59 34030000 		.4byte	.LVL200
 19603 1a5d 3A030000 		.4byte	.LVL202
 19604 1a61 0700     		.2byte	0x7
 19605 1a63 70       		.byte	0x70
 19606 1a64 00       		.sleb128 0
 19607 1a65 40       		.byte	0x40
 19608 1a66 49       		.byte	0x49
 19609 1a67 24       		.byte	0x24
 19610 1a68 27       		.byte	0x27
 19611 1a69 9F       		.byte	0x9f
 19612 1a6a 00000000 		.4byte	0
 19613 1a6e 00000000 		.4byte	0
 19614              	.LLST147:
 19615 1a72 B0040000 		.4byte	.LVL234
 19616 1a76 B4040000 		.4byte	.LVL235
 19617 1a7a 0100     		.2byte	0x1
 19618 1a7c 50       		.byte	0x50
 19619 1a7d B4040000 		.4byte	.LVL235
 19620 1a81 BE040000 		.4byte	.LVL237
 19621 1a85 0700     		.2byte	0x7
 19622 1a87 70       		.byte	0x70
 19623 1a88 00       		.sleb128 0
 19624 1a89 40       		.byte	0x40
 19625 1a8a 4A       		.byte	0x4a
 19626 1a8b 24       		.byte	0x24
 19627 1a8c 27       		.byte	0x27
 19628 1a8d 9F       		.byte	0x9f
 19629 1a8e 00000000 		.4byte	0
 19630 1a92 00000000 		.4byte	0
 19631              	.LLST148:
 19632 1a96 00000000 		.4byte	.LVL260
 19633 1a9a 06000000 		.4byte	.LVL261
 19634 1a9e 0100     		.2byte	0x1
 19635 1aa0 50       		.byte	0x50
 19636 1aa1 06000000 		.4byte	.LVL261
 19637 1aa5 10000000 		.4byte	.LVL262
 19638 1aa9 0400     		.2byte	0x4
 19639 1aab 70       		.byte	0x70
 19640 1aac 9108     		.sleb128 1041
 19641 1aae 9F       		.byte	0x9f
 19642 1aaf 10000000 		.4byte	.LVL262
 19643 1ab3 18000000 		.4byte	.LFE264
 19644 1ab7 0400     		.2byte	0x4
 19645 1ab9 F3       		.byte	0xf3
 19646 1aba 01       		.uleb128 0x1
 19647 1abb 50       		.byte	0x50
 19648 1abc 9F       		.byte	0x9f
 19649 1abd 00000000 		.4byte	0
 19650 1ac1 00000000 		.4byte	0
 19651              		.section	.debug_aranges,"",%progbits
 19652 0000 7C000000 		.4byte	0x7c
 19653 0004 0200     		.2byte	0x2
 19654 0006 00000000 		.4byte	.Ldebug_info0
 19655 000a 04       		.byte	0x4
ARM GAS  /tmp/ccJYnsep.s 			page 348


 19656 000b 00       		.byte	0
 19657 000c 0000     		.2byte	0
 19658 000e 0000     		.2byte	0
 19659 0010 00000000 		.4byte	.LFB270
 19660 0014 94000000 		.4byte	.LFE270-.LFB270
 19661 0018 00000000 		.4byte	.LFB265
 19662 001c 1C000000 		.4byte	.LFE265-.LFB265
 19663 0020 00000000 		.4byte	.LFB276
 19664 0024 C0000000 		.4byte	.LFE276-.LFB276
 19665 0028 00000000 		.4byte	.LFB268
 19666 002c 38000000 		.4byte	.LFE268-.LFB268
 19667 0030 00000000 		.4byte	.LFB269
 19668 0034 F4000000 		.4byte	.LFE269-.LFB269
 19669 0038 00000000 		.4byte	.LFB273
 19670 003c DC000000 		.4byte	.LFE273-.LFB273
 19671 0040 00000000 		.4byte	.LFB271
 19672 0044 C0000000 		.4byte	.LFE271-.LFB271
 19673 0048 00000000 		.4byte	.LFB281
 19674 004c 5C000000 		.4byte	.LFE281-.LFB281
 19675 0050 00000000 		.4byte	.LFB267
 19676 0054 08060000 		.4byte	.LFE267-.LFB267
 19677 0058 00000000 		.4byte	.LFB264
 19678 005c 18000000 		.4byte	.LFE264-.LFB264
 19679 0060 00000000 		.4byte	.LFB266
 19680 0064 00010000 		.4byte	.LFE266-.LFB266
 19681 0068 00000000 		.4byte	.LFB272
 19682 006c F4000000 		.4byte	.LFE272-.LFB272
 19683 0070 00000000 		.4byte	.LFB275
 19684 0074 1C030000 		.4byte	.LFE275-.LFB275
 19685 0078 00000000 		.4byte	0
 19686 007c 00000000 		.4byte	0
 19687              		.section	.debug_ranges,"",%progbits
 19688              	.Ldebug_ranges0:
 19689 0000 08000000 		.4byte	.LBB101
 19690 0004 2C000000 		.4byte	.LBE101
 19691 0008 2E000000 		.4byte	.LBB113
 19692 000c 50000000 		.4byte	.LBE113
 19693 0010 88000000 		.4byte	.LBB117
 19694 0014 8C000000 		.4byte	.LBE117
 19695 0018 90000000 		.4byte	.LBB119
 19696 001c 94000000 		.4byte	.LBE119
 19697 0020 98000000 		.4byte	.LBB121
 19698 0024 A2000000 		.4byte	.LBE121
 19699 0028 00000000 		.4byte	0
 19700 002c 00000000 		.4byte	0
 19701 0030 08000000 		.4byte	.LBB103
 19702 0034 2A000000 		.4byte	.LBE103
 19703 0038 2E000000 		.4byte	.LBB105
 19704 003c 50000000 		.4byte	.LBE105
 19705 0040 88000000 		.4byte	.LBB106
 19706 0044 8C000000 		.4byte	.LBE106
 19707 0048 90000000 		.4byte	.LBB107
 19708 004c 94000000 		.4byte	.LBE107
 19709 0050 98000000 		.4byte	.LBB108
 19710 0054 A2000000 		.4byte	.LBE108
 19711 0058 00000000 		.4byte	0
 19712 005c 00000000 		.4byte	0
ARM GAS  /tmp/ccJYnsep.s 			page 349


 19713 0060 50000000 		.4byte	.LBB114
 19714 0064 84000000 		.4byte	.LBE114
 19715 0068 8C000000 		.4byte	.LBB118
 19716 006c 90000000 		.4byte	.LBE118
 19717 0070 94000000 		.4byte	.LBB120
 19718 0074 98000000 		.4byte	.LBE120
 19719 0078 00000000 		.4byte	0
 19720 007c 00000000 		.4byte	0
 19721 0080 50000000 		.4byte	.LBB115
 19722 0084 56000000 		.4byte	.LBE115
 19723 0088 58000000 		.4byte	.LBB116
 19724 008c 68000000 		.4byte	.LBE116
 19725 0090 00000000 		.4byte	0
 19726 0094 00000000 		.4byte	0
 19727 0098 10000000 		.4byte	.LBB124
 19728 009c 20000000 		.4byte	.LBE124
 19729 00a0 24000000 		.4byte	.LBB127
 19730 00a4 38000000 		.4byte	.LBE127
 19731 00a8 00000000 		.4byte	0
 19732 00ac 00000000 		.4byte	0
 19733 00b0 20000000 		.4byte	.LBB128
 19734 00b4 22000000 		.4byte	.LBE128
 19735 00b8 24000000 		.4byte	.LBB129
 19736 00bc 2A000000 		.4byte	.LBE129
 19737 00c0 2C000000 		.4byte	.LBB130
 19738 00c4 44000000 		.4byte	.LBE130
 19739 00c8 D0000000 		.4byte	.LBB134
 19740 00cc F4000000 		.4byte	.LBE134
 19741 00d0 00000000 		.4byte	0
 19742 00d4 00000000 		.4byte	0
 19743 00d8 44000000 		.4byte	.LBB131
 19744 00dc 4A000000 		.4byte	.LBE131
 19745 00e0 4E000000 		.4byte	.LBB132
 19746 00e4 9E000000 		.4byte	.LBE132
 19747 00e8 C2000000 		.4byte	.LBB133
 19748 00ec CC000000 		.4byte	.LBE133
 19749 00f0 00000000 		.4byte	0
 19750 00f4 00000000 		.4byte	0
 19751 00f8 34000000 		.4byte	.LBB137
 19752 00fc 90000000 		.4byte	.LBE137
 19753 0100 92000000 		.4byte	.LBB141
 19754 0104 94000000 		.4byte	.LBE141
 19755 0108 96000000 		.4byte	.LBB142
 19756 010c DC000000 		.4byte	.LBE142
 19757 0110 00000000 		.4byte	0
 19758 0114 00000000 		.4byte	0
 19759 0118 58000000 		.4byte	.LBB145
 19760 011c 6E000000 		.4byte	.LBE145
 19761 0120 7C000000 		.4byte	.LBB149
 19762 0124 88000000 		.4byte	.LBE149
 19763 0128 8A000000 		.4byte	.LBB150
 19764 012c 96000000 		.4byte	.LBE150
 19765 0130 00000000 		.4byte	0
 19766 0134 00000000 		.4byte	0
 19767 0138 14000000 		.4byte	.LBB195
 19768 013c AE010000 		.4byte	.LBE195
 19769 0140 B6010000 		.4byte	.LBB281
ARM GAS  /tmp/ccJYnsep.s 			page 350


 19770 0144 D6020000 		.4byte	.LBE281
 19771 0148 DE020000 		.4byte	.LBB282
 19772 014c 08060000 		.4byte	.LBE282
 19773 0150 00000000 		.4byte	0
 19774 0154 00000000 		.4byte	0
 19775 0158 08010000 		.4byte	.LBB197
 19776 015c AE010000 		.4byte	.LBE197
 19777 0160 E4010000 		.4byte	.LBB251
 19778 0164 20020000 		.4byte	.LBE251
 19779 0168 A2030000 		.4byte	.LBB274
 19780 016c 88040000 		.4byte	.LBE274
 19781 0170 34050000 		.4byte	.LBB277
 19782 0174 DC050000 		.4byte	.LBE277
 19783 0178 E0050000 		.4byte	.LBB278
 19784 017c 08060000 		.4byte	.LBE278
 19785 0180 00000000 		.4byte	0
 19786 0184 00000000 		.4byte	0
 19787 0188 08010000 		.4byte	.LBB198
 19788 018c 22010000 		.4byte	.LBE198
 19789 0190 EC010000 		.4byte	.LBB236
 19790 0194 04020000 		.4byte	.LBE236
 19791 0198 DA030000 		.4byte	.LBB240
 19792 019c F0030000 		.4byte	.LBE240
 19793 01a0 7E050000 		.4byte	.LBB243
 19794 01a4 94050000 		.4byte	.LBE243
 19795 01a8 C0050000 		.4byte	.LBB249
 19796 01ac DA050000 		.4byte	.LBE249
 19797 01b0 00000000 		.4byte	0
 19798 01b4 00000000 		.4byte	0
 19799 01b8 26010000 		.4byte	.LBB204
 19800 01bc 3A010000 		.4byte	.LBE204
 19801 01c0 0A020000 		.4byte	.LBB237
 19802 01c4 20020000 		.4byte	.LBE237
 19803 01c8 00000000 		.4byte	0
 19804 01cc 00000000 		.4byte	0
 19805 01d0 56010000 		.4byte	.LBB209
 19806 01d4 AE010000 		.4byte	.LBE209
 19807 01d8 F6030000 		.4byte	.LBB241
 19808 01dc 88040000 		.4byte	.LBE241
 19809 01e0 34050000 		.4byte	.LBB242
 19810 01e4 7E050000 		.4byte	.LBE242
 19811 01e8 00000000 		.4byte	0
 19812 01ec 00000000 		.4byte	0
 19813 01f0 62010000 		.4byte	.LBB210
 19814 01f4 7A010000 		.4byte	.LBE210
 19815 01f8 34040000 		.4byte	.LBB231
 19816 01fc 4C040000 		.4byte	.LBE231
 19817 0200 4C050000 		.4byte	.LBB234
 19818 0204 62050000 		.4byte	.LBE234
 19819 0208 00000000 		.4byte	0
 19820 020c 00000000 		.4byte	0
 19821 0210 7A010000 		.4byte	.LBB214
 19822 0214 90010000 		.4byte	.LBE214
 19823 0218 4C040000 		.4byte	.LBB232
 19824 021c 88040000 		.4byte	.LBE232
 19825 0220 62050000 		.4byte	.LBB235
 19826 0224 78050000 		.4byte	.LBE235
ARM GAS  /tmp/ccJYnsep.s 			page 351


 19827 0228 00000000 		.4byte	0
 19828 022c 00000000 		.4byte	0
 19829 0230 90010000 		.4byte	.LBB218
 19830 0234 96010000 		.4byte	.LBE218
 19831 0238 9A010000 		.4byte	.LBB221
 19832 023c AE010000 		.4byte	.LBE221
 19833 0240 00000000 		.4byte	0
 19834 0244 00000000 		.4byte	0
 19835 0248 F6030000 		.4byte	.LBB222
 19836 024c 34040000 		.4byte	.LBE222
 19837 0250 34050000 		.4byte	.LBB233
 19838 0254 4C050000 		.4byte	.LBE233
 19839 0258 00000000 		.4byte	0
 19840 025c 00000000 		.4byte	0
 19841 0260 2C040000 		.4byte	.LBB227
 19842 0264 34040000 		.4byte	.LBE227
 19843 0268 34050000 		.4byte	.LBB230
 19844 026c 4C050000 		.4byte	.LBE230
 19845 0270 00000000 		.4byte	0
 19846 0274 00000000 		.4byte	0
 19847 0278 BA050000 		.4byte	.LBB246
 19848 027c C0050000 		.4byte	.LBE246
 19849 0280 E0050000 		.4byte	.LBB250
 19850 0284 08060000 		.4byte	.LBE250
 19851 0288 00000000 		.4byte	0
 19852 028c 00000000 		.4byte	0
 19853 0290 74020000 		.4byte	.LBB252
 19854 0294 D6020000 		.4byte	.LBE252
 19855 0298 DC040000 		.4byte	.LBB276
 19856 029c 30050000 		.4byte	.LBE276
 19857 02a0 00000000 		.4byte	0
 19858 02a4 00000000 		.4byte	0
 19859 02a8 8E020000 		.4byte	.LBB255
 19860 02ac 94020000 		.4byte	.LBE255
 19861 02b0 98020000 		.4byte	.LBB258
 19862 02b4 A8020000 		.4byte	.LBE258
 19863 02b8 00000000 		.4byte	0
 19864 02bc 00000000 		.4byte	0
 19865 02c0 A8020000 		.4byte	.LBB259
 19866 02c4 AE020000 		.4byte	.LBE259
 19867 02c8 DC040000 		.4byte	.LBB268
 19868 02cc F4040000 		.4byte	.LBE268
 19869 02d0 00000000 		.4byte	0
 19870 02d4 00000000 		.4byte	0
 19871 02d8 AE020000 		.4byte	.LBB262
 19872 02dc C4020000 		.4byte	.LBE262
 19873 02e0 F4040000 		.4byte	.LBB269
 19874 02e4 0A050000 		.4byte	.LBE269
 19875 02e8 00000000 		.4byte	0
 19876 02ec 00000000 		.4byte	0
 19877 02f0 C4020000 		.4byte	.LBB265
 19878 02f4 D6020000 		.4byte	.LBE265
 19879 02f8 0A050000 		.4byte	.LBB270
 19880 02fc 1C050000 		.4byte	.LBE270
 19881 0300 00000000 		.4byte	0
 19882 0304 00000000 		.4byte	0
 19883 0308 EA010000 		.4byte	.LBB286
ARM GAS  /tmp/ccJYnsep.s 			page 352


 19884 030c 20020000 		.4byte	.LBE286
 19885 0310 56020000 		.4byte	.LBB289
 19886 0314 BE020000 		.4byte	.LBE289
 19887 0318 00000000 		.4byte	0
 19888 031c 00000000 		.4byte	0
 19889 0320 00000000 		.4byte	.LFB270
 19890 0324 94000000 		.4byte	.LFE270
 19891 0328 00000000 		.4byte	.LFB265
 19892 032c 1C000000 		.4byte	.LFE265
 19893 0330 00000000 		.4byte	.LFB276
 19894 0334 C0000000 		.4byte	.LFE276
 19895 0338 00000000 		.4byte	.LFB268
 19896 033c 38000000 		.4byte	.LFE268
 19897 0340 00000000 		.4byte	.LFB269
 19898 0344 F4000000 		.4byte	.LFE269
 19899 0348 00000000 		.4byte	.LFB273
 19900 034c DC000000 		.4byte	.LFE273
 19901 0350 00000000 		.4byte	.LFB271
 19902 0354 C0000000 		.4byte	.LFE271
 19903 0358 00000000 		.4byte	.LFB281
 19904 035c 5C000000 		.4byte	.LFE281
 19905 0360 00000000 		.4byte	.LFB267
 19906 0364 08060000 		.4byte	.LFE267
 19907 0368 00000000 		.4byte	.LFB264
 19908 036c 18000000 		.4byte	.LFE264
 19909 0370 00000000 		.4byte	.LFB266
 19910 0374 00010000 		.4byte	.LFE266
 19911 0378 00000000 		.4byte	.LFB272
 19912 037c F4000000 		.4byte	.LFE272
 19913 0380 00000000 		.4byte	.LFB275
 19914 0384 1C030000 		.4byte	.LFE275
 19915 0388 00000000 		.4byte	0
 19916 038c 00000000 		.4byte	0
 19917              		.section	.debug_line,"",%progbits
 19918              	.Ldebug_line0:
 19919 0000 70090000 		.section	.debug_str,"MS",%progbits,1
 19919      02009F05 
 19919      00000201 
 19919      FB0E0D00 
 19919      01010101 
 19920              	.LASF497:
 19921 0000 5553425F 		.ascii	"USB_STOP\000"
 19921      53544F50 
 19921      00
 19922              	.LASF252:
 19923 0009 706F7274 		.ascii	"port_intctx\000"
 19923      5F696E74 
 19923      63747800 
 19924              	.LASF829:
 19925 0015 62616E6B 		.ascii	"banksize\000"
 19925      73697A65 
 19925      00
 19926              	.LASF273:
 19927 001e 63685F70 		.ascii	"ch_ptrsize\000"
 19927      74727369 
 19927      7A6500
 19928              	.LASF683:
ARM GAS  /tmp/ccJYnsep.s 			page 353


 19929 0029 54415247 		.ascii	"TARGET_WATCH_READ\000"
 19929      45545F57 
 19929      41544348 
 19929      5F524541 
 19929      4400
 19930              	.LASF452:
 19931 003b 6576656E 		.ascii	"event\000"
 19931      7400
 19932              	.LASF755:
 19933 0041 72657365 		.ascii	"reserved\000"
 19933      72766564 
 19933      00
 19934              	.LASF361:
 19935 004a 43414E5F 		.ascii	"CAN_STARTING\000"
 19935      53544152 
 19935      54494E47 
 19935      00
 19936              	.LASF713:
 19937 0057 54415247 		.ascii	"TARGET_SEEK_SET\000"
 19937      45545F53 
 19937      45454B5F 
 19937      53455400 
 19938              	.LASF845:
 19939 0067 636F6D6D 		.ascii	"commands_printf\000"
 19939      616E6473 
 19939      5F707269 
 19939      6E746600 
 19940              	.LASF750:
 19941 0077 73706563 		.ascii	"specific_name\000"
 19941      69666963 
 19941      5F6E616D 
 19941      6500
 19942              	.LASF688:
 19943 0085 54415247 		.ascii	"TARGET_EINTR\000"
 19943      45545F45 
 19943      494E5452 
 19943      00
 19944              	.LASF144:
 19945 0092 6D73675F 		.ascii	"msg_t\000"
 19945      7400
 19946              	.LASF388:
 19947 0098 4F504D4F 		.ascii	"OPMODE_SMBUS_DEVICE\000"
 19947      44455F53 
 19947      4D425553 
 19947      5F444556 
 19947      49434500 
 19948              	.LASF774:
 19949 00ac 72656663 		.ascii	"refcnt\000"
 19949      6E7400
 19950              	.LASF740:
 19951 00b3 65726173 		.ascii	"erased\000"
 19951      656400
 19952              	.LASF698:
 19953 00ba 54415247 		.ascii	"TARGET_EMFILE\000"
 19953      45545F45 
 19953      4D46494C 
 19953      4500
ARM GAS  /tmp/ccJYnsep.s 			page 354


 19954              	.LASF557:
 19955 00c8 44494550 		.ascii	"DIEPTXF0\000"
 19955      54584630 
 19955      00
 19956              	.LASF634:
 19957 00d1 55534244 		.ascii	"USBD1\000"
 19957      3100
 19958              	.LASF360:
 19959 00d7 43414E5F 		.ascii	"CAN_STOP\000"
 19959      53544F50 
 19959      00
 19960              	.LASF286:
 19961 00e0 63665F6F 		.ascii	"cf_off_time\000"
 19961      66665F74 
 19961      696D6500 
 19962              	.LASF199:
 19963 00ec 63685F73 		.ascii	"ch_system_t\000"
 19963      79737465 
 19963      6D5F7400 
 19964              	.LASF3:
 19965 00f8 5F5F7569 		.ascii	"__uint8_t\000"
 19965      6E74385F 
 19965      7400
 19966              	.LASF259:
 19967 0102 77747365 		.ascii	"wtsemp\000"
 19967      6D7000
 19968              	.LASF314:
 19969 0109 5F426F6F 		.ascii	"_Bool\000"
 19969      6C00
 19970              	.LASF406:
 19971 010f 646D6172 		.ascii	"dmarx\000"
 19971      7800
 19972              	.LASF74:
 19973 0115 5F6D6273 		.ascii	"_mbstate\000"
 19973      74617465 
 19973      00
 19974              	.LASF53:
 19975 011e 5F617465 		.ascii	"_atexit\000"
 19975      78697400 
 19976              	.LASF766:
 19977 0126 6A746167 		.ascii	"jtag_dev_count\000"
 19977      5F646576 
 19977      5F636F75 
 19977      6E7400
 19978              	.LASF673:
 19979 0135 54415247 		.ascii	"TARGET_HALT_REQUEST\000"
 19979      45545F48 
 19979      414C545F 
 19979      52455155 
 19979      45535400 
 19980              	.LASF576:
 19981 0149 72657376 		.ascii	"resvd700\000"
 19981      64373030 
 19981      00
 19982              	.LASF587:
 19983 0152 44564255 		.ascii	"DVBUSDIS\000"
 19983      53444953 
ARM GAS  /tmp/ccJYnsep.s 			page 355


 19983      00
 19984              	.LASF400:
 19985 015b 6572726F 		.ascii	"errors\000"
 19985      727300
 19986              	.LASF470:
 19987 0162 73706963 		.ascii	"spicallback_t\000"
 19987      616C6C62 
 19987      61636B5F 
 19987      7400
 19988              	.LASF195:
 19989 0170 76745F73 		.ascii	"vt_systime\000"
 19989      79737469 
 19989      6D6500
 19990              	.LASF495:
 19991 017b 75736265 		.ascii	"usbep_t\000"
 19991      705F7400 
 19992              	.LASF43:
 19993 0183 5F5F746D 		.ascii	"__tm_mon\000"
 19993      5F6D6F6E 
 19993      00
 19994              	.LASF51:
 19995 018c 5F666E74 		.ascii	"_fntypes\000"
 19995      79706573 
 19995      00
 19996              	.LASF678:
 19997 0195 74617267 		.ascii	"target_halt_reason\000"
 19997      65745F68 
 19997      616C745F 
 19997      72656173 
 19997      6F6E00
 19998              	.LASF268:
 19999 01a8 6D5F6E65 		.ascii	"m_next\000"
 19999      787400
 20000              	.LASF349:
 20001 01af 50434461 		.ascii	"PCData\000"
 20001      746100
 20002              	.LASF81:
 20003 01b6 5F696E63 		.ascii	"_inc\000"
 20003      00
 20004              	.LASF54:
 20005 01bb 5F696E64 		.ascii	"_ind\000"
 20005      00
 20006              	.LASF458:
 20007 01c0 72656164 		.ascii	"read\000"
 20007      00
 20008              	.LASF561:
 20009 01c5 47434346 		.ascii	"GCCFG\000"
 20009      4700
 20010              	.LASF425:
 20011 01cb 42445452 		.ascii	"BDTR\000"
 20011      00
 20012              	.LASF724:
 20013 01d0 73746174 		.ascii	"stat\000"
 20013      00
 20014              	.LASF668:
 20015 01d5 70726976 		.ascii	"priv\000"
 20015      00
ARM GAS  /tmp/ccJYnsep.s 			page 356


 20016              	.LASF800:
 20017 01da 49445F53 		.ascii	"ID_STM32F46X\000"
 20017      544D3332 
 20017      46343658 
 20017      00
 20018              	.LASF398:
 20019 01e7 49324343 		.ascii	"I2CConfig\000"
 20019      6F6E6669 
 20019      6700
 20020              	.LASF15:
 20021 01f1 75696E74 		.ascii	"uint16_t\000"
 20021      31365F74 
 20021      00
 20022              	.LASF407:
 20023 01fa 646D6174 		.ascii	"dmatx\000"
 20023      7800
 20024              	.LASF783:
 20025 0200 61707365 		.ascii	"apsel\000"
 20025      6C00
 20026              	.LASF632:
 20027 0206 736F665F 		.ascii	"sof_cb\000"
 20027      636200
 20028              	.LASF775:
 20029 020d 64705F69 		.ascii	"dp_idcode\000"
 20029      64636F64 
 20029      6500
 20030              	.LASF60:
 20031 0217 5F666C61 		.ascii	"_flags\000"
 20031      677300
 20032              	.LASF667:
 20033 021e 6E657874 		.ascii	"next\000"
 20033      00
 20034              	.LASF342:
 20035 0223 6F737065 		.ascii	"ospeedr\000"
 20035      65647200 
 20036              	.LASF734:
 20037 022b 6C656E67 		.ascii	"length\000"
 20037      746800
 20038              	.LASF649:
 20039 0232 72656773 		.ascii	"regs_size\000"
 20039      5F73697A 
 20039      6500
 20040              	.LASF564:
 20041 023c 44494550 		.ascii	"DIEPTXF\000"
 20041      54584600 
 20042              	.LASF292:
 20043 0244 656C5F6E 		.ascii	"el_next\000"
 20043      65787400 
 20044              	.LASF480:
 20045 024c 696E5F70 		.ascii	"in_params\000"
 20045      6172616D 
 20045      7300
 20046              	.LASF91:
 20047 0256 5F637674 		.ascii	"_cvtlen\000"
 20047      6C656E00 
 20048              	.LASF791:
 20049 025e 62616E6B 		.ascii	"bank_split\000"
ARM GAS  /tmp/ccJYnsep.s 			page 357


 20049      5F73706C 
 20049      697400
 20050              	.LASF176:
 20051 0269 63685F74 		.ascii	"ch_threads_queue\000"
 20051      68726561 
 20051      64735F71 
 20051      75657565 
 20051      00
 20052              	.LASF95:
 20053 027a 5F736967 		.ascii	"_sig_func\000"
 20053      5F66756E 
 20053      6300
 20054              	.LASF155:
 20055 0284 705F6E65 		.ascii	"p_newer\000"
 20055      77657200 
 20056              	.LASF574:
 20057 028c 48505254 		.ascii	"HPRT\000"
 20057      00
 20058              	.LASF822:
 20059 0291 6861735F 		.ascii	"has_ccmram\000"
 20059      63636D72 
 20059      616D00
 20060              	.LASF528:
 20061 029c 4843494E 		.ascii	"HCINT\000"
 20061      5400
 20062              	.LASF823:
 20063 02a2 69735F66 		.ascii	"is_f7\000"
 20063      3700
 20064              	.LASF283:
 20065 02a8 63665F6F 		.ascii	"cf_off_flags\000"
 20065      66665F66 
 20065      6C616773 
 20065      00
 20066              	.LASF73:
 20067 02b5 5F6C6F63 		.ascii	"_lock\000"
 20067      6B00
 20068              	.LASF69:
 20069 02bb 5F6E6275 		.ascii	"_nbuf\000"
 20069      6600
 20070              	.LASF464:
 20071 02c1 5350495F 		.ascii	"SPI_STOP\000"
 20071      53544F50 
 20071      00
 20072              	.LASF736:
 20073 02ca 74617267 		.ascii	"target_flash\000"
 20073      65745F66 
 20073      6C617368 
 20073      00
 20074              	.LASF127:
 20075 02d7 5F756E75 		.ascii	"_unused\000"
 20075      73656400 
 20076              	.LASF858:
 20077 02df 73746D33 		.ascii	"stm32f4_get_chip_name\000"
 20077      3266345F 
 20077      6765745F 
 20077      63686970 
 20077      5F6E616D 
ARM GAS  /tmp/ccJYnsep.s 			page 358


 20078              	.LASF348:
 20079 02f5 50424461 		.ascii	"PBData\000"
 20079      746100
 20080              	.LASF271:
 20081 02fc 63685F73 		.ascii	"ch_size\000"
 20081      697A6500 
 20082              	.LASF761:
 20083 0304 69725F70 		.ascii	"ir_postscan\000"
 20083      6F737473 
 20083      63616E00 
 20084              	.LASF570:
 20085 0310 48505458 		.ascii	"HPTXSTS\000"
 20085      53545300 
 20086              	.LASF341:
 20087 0318 6F747970 		.ascii	"otyper\000"
 20087      657200
 20088              	.LASF835:
 20089 031f 73746D33 		.ascii	"stm32f4_flash_unlock\000"
 20089      3266345F 
 20089      666C6173 
 20089      685F756E 
 20089      6C6F636B 
 20090              	.LASF332:
 20091 0334 4F545950 		.ascii	"OTYPER\000"
 20091      455200
 20092              	.LASF468:
 20093 033b 73706973 		.ascii	"spistate_t\000"
 20093      74617465 
 20093      5F7400
 20094              	.LASF526:
 20095 0346 48434348 		.ascii	"HCCHAR\000"
 20095      415200
 20096              	.LASF382:
 20097 034d 4932435F 		.ascii	"I2C_ACTIVE_RX\000"
 20097      41435449 
 20097      56455F52 
 20097      5800
 20098              	.LASF149:
 20099 035b 74687265 		.ascii	"thread_t\000"
 20099      61645F74 
 20099      00
 20100              	.LASF294:
 20101 0364 656C5F65 		.ascii	"el_events\000"
 20101      76656E74 
 20101      7300
 20102              	.LASF725:
 20103 036e 66737461 		.ascii	"fstat\000"
 20103      7400
 20104              	.LASF373:
 20105 0374 736C6565 		.ascii	"sleep_event\000"
 20105      705F6576 
 20105      656E7400 
 20106              	.LASF194:
 20107 0380 63685F76 		.ascii	"ch_virtual_timers_list\000"
 20107      69727475 
 20107      616C5F74 
 20107      696D6572 
ARM GAS  /tmp/ccJYnsep.s 			page 359


 20107      735F6C69 
 20108              	.LASF327:
 20109 0397 76656374 		.ascii	"vector\000"
 20109      6F7200
 20110              	.LASF552:
 20111 039e 47494E54 		.ascii	"GINTSTS\000"
 20111      53545300 
 20112              	.LASF726:
 20113 03a6 67657474 		.ascii	"gettimeofday\000"
 20113      696D656F 
 20113      66646179 
 20113      00
 20114              	.LASF16:
 20115 03b3 696E7433 		.ascii	"int32_t\000"
 20115      325F7400 
 20116              	.LASF396:
 20117 03bb 636C6F63 		.ascii	"clock_speed\000"
 20117      6B5F7370 
 20117      65656400 
 20118              	.LASF148:
 20119 03c7 73797374 		.ascii	"systime_t\000"
 20119      696D655F 
 20119      7400
 20120              	.LASF375:
 20121 03d1 43414E44 		.ascii	"CANDriver\000"
 20121      72697665 
 20121      7200
 20122              	.LASF851:
 20123 03db 74617267 		.ascii	"target_mem_map_free\000"
 20123      65745F6D 
 20123      656D5F6D 
 20123      61705F66 
 20123      72656500 
 20124              	.LASF105:
 20125 03ef 5F616464 		.ascii	"_add\000"
 20125      00
 20126              	.LASF233:
 20127 03f4 4D304152 		.ascii	"M0AR\000"
 20127      00
 20128              	.LASF533:
 20129 03f9 72657376 		.ascii	"resvd1c\000"
 20129      64316300 
 20130              	.LASF386:
 20131 0401 69326366 		.ascii	"i2cflags_t\000"
 20131      6C616773 
 20131      5F7400
 20132              	.LASF571:
 20133 040c 4841494E 		.ascii	"HAINT\000"
 20133      5400
 20134              	.LASF228:
 20135 0412 46413152 		.ascii	"FA1R\000"
 20135      00
 20136              	.LASF685:
 20137 0417 74617267 		.ascii	"target_errno\000"
 20137      65745F65 
 20137      72726E6F 
 20137      00
ARM GAS  /tmp/ccJYnsep.s 			page 360


 20138              	.LASF568:
 20139 0424 48464E55 		.ascii	"HFNUM\000"
 20139      4D00
 20140              	.LASF857:
 20141 042a 73746D33 		.ascii	"stm32f7_detach\000"
 20141      3266375F 
 20141      64657461 
 20141      636800
 20142              	.LASF310:
 20143 0439 716E6F74 		.ascii	"qnotify_t\000"
 20143      6966795F 
 20143      7400
 20144              	.LASF325:
 20145 0443 69736869 		.ascii	"ishift\000"
 20145      667400
 20146              	.LASF305:
 20147 044a 715F746F 		.ascii	"q_top\000"
 20147      7000
 20148              	.LASF62:
 20149 0450 5F6C6266 		.ascii	"_lbfsize\000"
 20149      73697A65 
 20149      00
 20150              	.LASF519:
 20151 0459 75645F73 		.ascii	"ud_string\000"
 20151      7472696E 
 20151      6700
 20152              	.LASF399:
 20153 0463 49324344 		.ascii	"I2CDriver\000"
 20153      72697665 
 20153      7200
 20154              	.LASF780:
 20155 046d 61626F72 		.ascii	"abort\000"
 20155      7400
 20156              	.LASF381:
 20157 0473 4932435F 		.ascii	"I2C_ACTIVE_TX\000"
 20157      41435449 
 20157      56455F54 
 20157      5800
 20158              	.LASF387:
 20159 0481 4F504D4F 		.ascii	"OPMODE_I2C\000"
 20159      44455F49 
 20159      324300
 20160              	.LASF580:
 20161 048c 72657376 		.ascii	"resvd80C\000"
 20161      64383043 
 20161      00
 20162              	.LASF629:
 20163 0495 6576656E 		.ascii	"event_cb\000"
 20163      745F6362 
 20163      00
 20164              	.LASF689:
 20165 049e 54415247 		.ascii	"TARGET_EBADF\000"
 20165      45545F45 
 20165      42414446 
 20165      00
 20166              	.LASF547:
 20167 04ab 474F5447 		.ascii	"GOTGCTL\000"
ARM GAS  /tmp/ccJYnsep.s 			page 361


 20167      43544C00 
 20168              	.LASF804:
 20169 04b3 49445F53 		.ascii	"ID_STM32F72X\000"
 20169      544D3332 
 20169      46373258 
 20169      00
 20170              	.LASF522:
 20171 04c0 75736265 		.ascii	"usbepcallback_t\000"
 20171      7063616C 
 20171      6C626163 
 20171      6B5F7400 
 20172              	.LASF72:
 20173 04d0 5F646174 		.ascii	"_data\000"
 20173      6100
 20174              	.LASF202:
 20175 04d6 76746C69 		.ascii	"vtlist\000"
 20175      737400
 20176              	.LASF411:
 20177 04dd 4943555F 		.ascii	"ICU_READY\000"
 20177      52454144 
 20177      5900
 20178              	.LASF238:
 20179 04e7 54524953 		.ascii	"TRISE\000"
 20179      4500
 20180              	.LASF586:
 20181 04ed 72657376 		.ascii	"resvd824\000"
 20181      64383234 
 20181      00
 20182              	.LASF164:
 20183 04f6 705F7761 		.ascii	"p_waiting\000"
 20183      6974696E 
 20183      6700
 20184              	.LASF418:
 20185 0500 70636372 		.ascii	"pccrp\000"
 20185      7000
 20186              	.LASF302:
 20187 0506 715F7761 		.ascii	"q_waiting\000"
 20187      6974696E 
 20187      6700
 20188              	.LASF210:
 20189 0510 43414E5F 		.ascii	"CAN_TxMailBox_TypeDef\000"
 20189      54784D61 
 20189      696C426F 
 20189      785F5479 
 20189      70654465 
 20190              	.LASF201:
 20191 0526 726C6973 		.ascii	"rlist\000"
 20191      7400
 20192              	.LASF173:
 20193 052c 74687265 		.ascii	"threads_list_t\000"
 20193      6164735F 
 20193      6C697374 
 20193      5F7400
 20194              	.LASF254:
 20195 053b 746D5F63 		.ascii	"tm_calibration_t\000"
 20195      616C6962 
 20195      72617469 
ARM GAS  /tmp/ccJYnsep.s 			page 362


 20195      6F6E5F74 
 20195      00
 20196              	.LASF311:
 20197 054c 696E7075 		.ascii	"input_queue_t\000"
 20197      745F7175 
 20197      6575655F 
 20197      7400
 20198              	.LASF128:
 20199 055a 5F5F6C6F 		.ascii	"__lock\000"
 20199      636B00
 20200              	.LASF391:
 20201 0561 5354445F 		.ascii	"STD_DUTY_CYCLE\000"
 20201      44555459 
 20201      5F435943 
 20201      4C4500
 20202              	.LASF76:
 20203 0570 5F726565 		.ascii	"_reent\000"
 20203      6E7400
 20204              	.LASF279:
 20205 0577 63665F6F 		.ascii	"cf_off_older\000"
 20205      66665F6F 
 20205      6C646572 
 20205      00
 20206              	.LASF817:
 20207 0584 64657374 		.ascii	"dest\000"
 20207      00
 20208              	.LASF614:
 20209 0589 72787175 		.ascii	"rxqueued\000"
 20209      65756564 
 20209      00
 20210              	.LASF687:
 20211 0592 54415247 		.ascii	"TARGET_ENOENT\000"
 20211      45545F45 
 20211      4E4F454E 
 20211      5400
 20212              	.LASF436:
 20213 05a0 69637563 		.ascii	"icuchannel_t\000"
 20213      68616E6E 
 20213      656C5F74 
 20213      00
 20214              	.LASF364:
 20215 05ad 63616E73 		.ascii	"canstate_t\000"
 20215      74617465 
 20215      5F7400
 20216              	.LASF230:
 20217 05b8 7346696C 		.ascii	"sFilterRegister\000"
 20217      74657252 
 20217      65676973 
 20217      74657200 
 20218              	.LASF97:
 20219 05c8 5F5F7366 		.ascii	"__sf\000"
 20219      00
 20220              	.LASF585:
 20221 05cd 72657376 		.ascii	"resvd820\000"
 20221      64383230 
 20221      00
 20222              	.LASF57:
ARM GAS  /tmp/ccJYnsep.s 			page 363


 20223 05d6 5F626173 		.ascii	"_base\000"
 20223      6500
 20224              	.LASF395:
 20225 05dc 6F705F6D 		.ascii	"op_mode\000"
 20225      6F646500 
 20226              	.LASF114:
 20227 05e4 5F6D6274 		.ascii	"_mbtowc_state\000"
 20227      6F77635F 
 20227      73746174 
 20227      6500
 20228              	.LASF825:
 20229 05f2 666C6173 		.ascii	"flashsize_base\000"
 20229      6873697A 
 20229      655F6261 
 20229      736500
 20230              	.LASF699:
 20231 0601 54415247 		.ascii	"TARGET_ENFILE\000"
 20231      45545F45 
 20231      4E46494C 
 20231      4500
 20232              	.LASF378:
 20233 060f 4932435F 		.ascii	"I2C_UNINIT\000"
 20233      554E494E 
 20233      495400
 20234              	.LASF833:
 20235 061a 73746D33 		.ascii	"stm32f4_probe\000"
 20235      3266345F 
 20235      70726F62 
 20235      6500
 20236              	.LASF447:
 20237 0628 53445F55 		.ascii	"SD_UNINIT\000"
 20237      4E494E49 
 20237      5400
 20238              	.LASF756:
 20239 0632 64725F70 		.ascii	"dr_prescan\000"
 20239      72657363 
 20239      616E00
 20240              	.LASF807:
 20241 063d 61726763 		.ascii	"argc\000"
 20241      00
 20242              	.LASF652:
 20243 0642 72656773 		.ascii	"regs_write\000"
 20243      5F777269 
 20243      746500
 20244              	.LASF752:
 20245 064d 62726561 		.ascii	"breakwatch\000"
 20245      6B776174 
 20245      636800
 20246              	.LASF802:
 20247 0658 49445F53 		.ascii	"ID_STM32F74X\000"
 20247      544D3332 
 20247      46373458 
 20247      00
 20248              	.LASF143:
 20249 0665 74707269 		.ascii	"tprio_t\000"
 20249      6F5F7400 
 20250              	.LASF832:
ARM GAS  /tmp/ccJYnsep.s 			page 364


 20251 066d 6F707463 		.ascii	"optcr_mask\000"
 20251      725F6D61 
 20251      736B00
 20252              	.LASF589:
 20253 0678 72657376 		.ascii	"resvd830\000"
 20253      64383330 
 20253      00
 20254              	.LASF659:
 20255 0681 62726561 		.ascii	"breakwatch_clear\000"
 20255      6B776174 
 20255      63685F63 
 20255      6C656172 
 20255      00
 20256              	.LASF38:
 20257 0692 5F5F746D 		.ascii	"__tm\000"
 20257      00
 20258              	.LASF664:
 20259 0697 666C6173 		.ascii	"flash\000"
 20259      6800
 20260              	.LASF591:
 20261 069d 72657376 		.ascii	"resvd838\000"
 20261      64383338 
 20261      00
 20262              	.LASF394:
 20263 06a6 69326364 		.ascii	"i2cdutycycle_t\000"
 20263      75747963 
 20263      79636C65 
 20263      5F7400
 20264              	.LASF592:
 20265 06b5 72657376 		.ascii	"resvd83C\000"
 20265      64383343 
 20265      00
 20266              	.LASF402:
 20267 06be 74687265 		.ascii	"thread\000"
 20267      616400
 20268              	.LASF588:
 20269 06c5 44564255 		.ascii	"DVBUSPULSE\000"
 20269      5350554C 
 20269      534500
 20270              	.LASF486:
 20271 06d0 73657475 		.ascii	"setup\000"
 20271      7000
 20272              	.LASF463:
 20273 06d6 5350495F 		.ascii	"SPI_UNINIT\000"
 20273      554E494E 
 20273      495400
 20274              	.LASF540:
 20275 06e1 44545846 		.ascii	"DTXFSTS\000"
 20275      53545300 
 20276              	.LASF380:
 20277 06e9 4932435F 		.ascii	"I2C_READY\000"
 20277      52454144 
 20277      5900
 20278              	.LASF850:
 20279 06f3 74617267 		.ascii	"target_add_flash\000"
 20279      65745F61 
 20279      64645F66 
ARM GAS  /tmp/ccJYnsep.s 			page 365


 20279      6C617368 
 20279      00
 20280              	.LASF171:
 20281 0704 6D6F746F 		.ascii	"motor_selected\000"
 20281      725F7365 
 20281      6C656374 
 20281      656400
 20282              	.LASF46:
 20283 0713 5F5F746D 		.ascii	"__tm_yday\000"
 20283      5F796461 
 20283      7900
 20284              	.LASF424:
 20285 071d 43434552 		.ascii	"CCER\000"
 20285      00
 20286              	.LASF245:
 20287 0722 49325350 		.ascii	"I2SPR\000"
 20287      5200
 20288              	.LASF753:
 20289 0728 74797065 		.ascii	"type\000"
 20289      00
 20290              	.LASF549:
 20291 072d 47414842 		.ascii	"GAHBCFG\000"
 20291      43464700 
 20292              	.LASF20:
 20293 0735 5F4C4F43 		.ascii	"_LOCK_T\000"
 20293      4B5F5400 
 20294              	.LASF723:
 20295 073d 756E6C69 		.ascii	"unlink\000"
 20295      6E6B00
 20296              	.LASF593:
 20297 0744 72657376 		.ascii	"resvd840\000"
 20297      64383430 
 20297      00
 20298              	.LASF241:
 20299 074d 43524350 		.ascii	"CRCPR\000"
 20299      5200
 20300              	.LASF665:
 20301 0753 64726976 		.ascii	"driver\000"
 20301      657200
 20302              	.LASF739:
 20303 075a 646F6E65 		.ascii	"done\000"
 20303      00
 20304              	.LASF818:
 20305 075f 73746D33 		.ascii	"stm32f4_flash_erase\000"
 20305      3266345F 
 20305      666C6173 
 20305      685F6572 
 20305      61736500 
 20306              	.LASF4:
 20307 0773 5F5F7569 		.ascii	"__uint16_t\000"
 20307      6E743136 
 20307      5F7400
 20308              	.LASF608:
 20309 077e 74787175 		.ascii	"txqueued\000"
 20309      65756564 
 20309      00
 20310              	.LASF166:
ARM GAS  /tmp/ccJYnsep.s 			page 366


 20311 0787 705F6D73 		.ascii	"p_msg\000"
 20311      6700
 20312              	.LASF106:
 20313 078d 5F756E75 		.ascii	"_unused_rand\000"
 20313      7365645F 
 20313      72616E64 
 20313      00
 20314              	.LASF555:
 20315 079a 47525853 		.ascii	"GRXSTSP\000"
 20315      54535000 
 20316              	.LASF554:
 20317 07a2 47525853 		.ascii	"GRXSTSR\000"
 20317      54535200 
 20318              	.LASF234:
 20319 07aa 4D314152 		.ascii	"M1AR\000"
 20319      00
 20320              	.LASF493:
 20321 07af 77616974 		.ascii	"wait\000"
 20321      00
 20322              	.LASF803:
 20323 07b4 49445F53 		.ascii	"ID_STM32F76X\000"
 20323      544D3332 
 20323      46373658 
 20323      00
 20324              	.LASF235:
 20325 07c1 444D415F 		.ascii	"DMA_Stream_TypeDef\000"
 20325      53747265 
 20325      616D5F54 
 20325      79706544 
 20325      656600
 20326              	.LASF500:
 20327 07d4 5553425F 		.ascii	"USB_ACTIVE\000"
 20327      41435449 
 20327      564500
 20328              	.LASF843:
 20329 07df 706C6174 		.ascii	"platform_delay\000"
 20329      666F726D 
 20329      5F64656C 
 20329      617900
 20330              	.LASF839:
 20331 07ee 74617267 		.ascii	"target_mem_read32\000"
 20331      65745F6D 
 20331      656D5F72 
 20331      65616433 
 20331      3200
 20332              	.LASF763:
 20333 0800 63757272 		.ascii	"current_ir\000"
 20333      656E745F 
 20333      697200
 20334              	.LASF717:
 20335 080b 64657374 		.ascii	"destroy_callback\000"
 20335      726F795F 
 20335      63616C6C 
 20335      6261636B 
 20335      00
 20336              	.LASF542:
 20337 081c 73746D33 		.ascii	"stm32_otg_in_ep_t\000"
ARM GAS  /tmp/ccJYnsep.s 			page 367


 20337      325F6F74 
 20337      675F696E 
 20337      5F65705F 
 20337      7400
 20338              	.LASF616:
 20339 082e 7278636E 		.ascii	"rxcnt\000"
 20339      7400
 20340              	.LASF404:
 20341 0834 7278646D 		.ascii	"rxdmamode\000"
 20341      616D6F64 
 20341      6500
 20342              	.LASF88:
 20343 083e 5F726573 		.ascii	"_result_k\000"
 20343      756C745F 
 20343      6B00
 20344              	.LASF437:
 20345 0848 6D6F6465 		.ascii	"mode\000"
 20345      00
 20346              	.LASF80:
 20347 084d 5F737464 		.ascii	"_stderr\000"
 20347      65727200 
 20348              	.LASF87:
 20349 0855 5F726573 		.ascii	"_result\000"
 20349      756C7400 
 20350              	.LASF430:
 20351 085d 4943555F 		.ascii	"ICU_INPUT_ACTIVE_HIGH\000"
 20351      494E5055 
 20351      545F4143 
 20351      54495645 
 20351      5F484947 
 20352              	.LASF742:
 20353 0873 6275665F 		.ascii	"buf_addr\000"
 20353      61646472 
 20353      00
 20354              	.LASF50:
 20355 087c 5F64736F 		.ascii	"_dso_handle\000"
 20355      5F68616E 
 20355      646C6500 
 20356              	.LASF473:
 20357 0888 73737061 		.ascii	"sspad\000"
 20357      6400
 20358              	.LASF405:
 20359 088e 7478646D 		.ascii	"txdmamode\000"
 20359      616D6F64 
 20359      6500
 20360              	.LASF133:
 20361 0898 5F5F676E 		.ascii	"__gnuc_va_list\000"
 20361      75635F76 
 20361      615F6C69 
 20361      737400
 20362              	.LASF45:
 20363 08a7 5F5F746D 		.ascii	"__tm_wday\000"
 20363      5F776461 
 20363      7900
 20364              	.LASF47:
 20365 08b1 5F5F746D 		.ascii	"__tm_isdst\000"
 20365      5F697364 
ARM GAS  /tmp/ccJYnsep.s 			page 368


 20365      737400
 20366              	.LASF670:
 20367 08bc 74617267 		.ascii	"target_addr\000"
 20367      65745F61 
 20367      64647200 
 20368              	.LASF690:
 20369 08c8 54415247 		.ascii	"TARGET_EACCES\000"
 20369      45545F45 
 20369      41434345 
 20369      5300
 20370              	.LASF250:
 20371 08d6 73746B61 		.ascii	"stkalign_t\000"
 20371      6C69676E 
 20371      5F7400
 20372              	.LASF601:
 20373 08e1 72785F66 		.ascii	"rx_fifo_size\000"
 20373      69666F5F 
 20373      73697A65 
 20373      00
 20374              	.LASF663:
 20375 08ee 74617267 		.ascii	"target_storage\000"
 20375      65745F73 
 20375      746F7261 
 20375      676500
 20376              	.LASF656:
 20377 08fd 68616C74 		.ascii	"halt_poll\000"
 20377      5F706F6C 
 20377      6C00
 20378              	.LASF746:
 20379 0907 636F6D6D 		.ascii	"command_s\000"
 20379      616E645F 
 20379      7300
 20380              	.LASF374:
 20381 0911 77616B65 		.ascii	"wakeup_event\000"
 20381      75705F65 
 20381      76656E74 
 20381      00
 20382              	.LASF189:
 20383 091e 76745F70 		.ascii	"vt_prev\000"
 20383      72657600 
 20384              	.LASF471:
 20385 0926 656E645F 		.ascii	"end_cb\000"
 20385      636200
 20386              	.LASF619:
 20387 092d 73657475 		.ascii	"setup_cb\000"
 20387      705F6362 
 20387      00
 20388              	.LASF1:
 20389 0936 756E7369 		.ascii	"unsigned char\000"
 20389      676E6564 
 20389      20636861 
 20389      7200
 20390              	.LASF79:
 20391 0944 5F737464 		.ascii	"_stdout\000"
 20391      6F757400 
 20392              	.LASF291:
 20393 094c 6576656E 		.ascii	"event_listener\000"
ARM GAS  /tmp/ccJYnsep.s 			page 369


 20393      745F6C69 
 20393      7374656E 
 20393      657200
 20394              	.LASF368:
 20395 095b 74787175 		.ascii	"txqueue\000"
 20395      65756500 
 20396              	.LASF264:
 20397 0963 735F636E 		.ascii	"s_cnt\000"
 20397      7400
 20398              	.LASF177:
 20399 0969 72656164 		.ascii	"ready_list_t\000"
 20399      795F6C69 
 20399      73745F74 
 20399      00
 20400              	.LASF150:
 20401 0976 63685F74 		.ascii	"ch_thread\000"
 20401      68726561 
 20401      6400
 20402              	.LASF389:
 20403 0980 4F504D4F 		.ascii	"OPMODE_SMBUS_HOST\000"
 20403      44455F53 
 20403      4D425553 
 20403      5F484F53 
 20403      5400
 20404              	.LASF768:
 20405 0992 414C4947 		.ascii	"ALIGN_BYTE\000"
 20405      4E5F4259 
 20405      544500
 20406              	.LASF121:
 20407 099d 5F6D6273 		.ascii	"_mbsrtowcs_state\000"
 20407      72746F77 
 20407      63735F73 
 20407      74617465 
 20407      00
 20408              	.LASF36:
 20409 09ae 5F776473 		.ascii	"_wds\000"
 20409      00
 20410              	.LASF782:
 20411 09b3 41444976 		.ascii	"ADIv5_AP_s\000"
 20411      355F4150 
 20411      5F7300
 20412              	.LASF785:
 20413 09be 41444976 		.ascii	"ADIv5_AP_t\000"
 20413      355F4150 
 20413      5F7400
 20414              	.LASF313:
 20415 09c9 666C6F61 		.ascii	"float\000"
 20415      7400
 20416              	.LASF703:
 20417 09cf 54415247 		.ascii	"TARGET_EROFS\000"
 20417      45545F45 
 20417      524F4653 
 20417      00
 20418              	.LASF700:
 20419 09dc 54415247 		.ascii	"TARGET_EFBIG\000"
 20419      45545F45 
 20419      46424947 
ARM GAS  /tmp/ccJYnsep.s 			page 370


 20419      00
 20420              	.LASF363:
 20421 09e9 43414E5F 		.ascii	"CAN_SLEEP\000"
 20421      534C4545 
 20421      5000
 20422              	.LASF846:
 20423 09f3 636F7274 		.ascii	"cortexm_ap\000"
 20423      65786D5F 
 20423      617000
 20424              	.LASF319:
 20425 09fe 72756E74 		.ascii	"runtime\000"
 20425      696D6500 
 20426              	.LASF727:
 20427 0a06 69736174 		.ascii	"isatty\000"
 20427      747900
 20428              	.LASF58:
 20429 0a0d 5F73697A 		.ascii	"_size\000"
 20429      6500
 20430              	.LASF196:
 20431 0a13 73797374 		.ascii	"system_debug_t\000"
 20431      656D5F64 
 20431      65627567 
 20431      5F7400
 20432              	.LASF421:
 20433 0a22 44494552 		.ascii	"DIER\000"
 20433      00
 20434              	.LASF648:
 20435 0a27 6D656D5F 		.ascii	"mem_write\000"
 20435      77726974 
 20435      6500
 20436              	.LASF641:
 20437 0a31 74617267 		.ascii	"target\000"
 20437      657400
 20438              	.LASF154:
 20439 0a38 705F6374 		.ascii	"p_ctx\000"
 20439      7800
 20440              	.LASF192:
 20441 0a3e 76745F70 		.ascii	"vt_par\000"
 20441      617200
 20442              	.LASF661:
 20443 0a45 74617267 		.ascii	"target_options\000"
 20443      65745F6F 
 20443      7074696F 
 20443      6E7300
 20444              	.LASF844:
 20445 0a54 74617267 		.ascii	"target_check_error\000"
 20445      65745F63 
 20445      6865636B 
 20445      5F657272 
 20445      6F7200
 20446              	.LASF731:
 20447 0a67 74617267 		.ascii	"target_list\000"
 20447      65745F6C 
 20447      69737400 
 20448              	.LASF65:
 20449 0a73 5F777269 		.ascii	"_write\000"
 20449      746500
ARM GAS  /tmp/ccJYnsep.s 			page 371


 20450              	.LASF243:
 20451 0a7a 54584352 		.ascii	"TXCRCR\000"
 20451      435200
 20452              	.LASF636:
 20453 0a81 73656E64 		.ascii	"send_buffer_mutex\000"
 20453      5F627566 
 20453      6665725F 
 20453      6D757465 
 20453      7800
 20454              	.LASF377:
 20455 0a93 43414E44 		.ascii	"CAND2\000"
 20455      3200
 20456              	.LASF393:
 20457 0a99 46415354 		.ascii	"FAST_DUTY_CYCLE_16_9\000"
 20457      5F445554 
 20457      595F4359 
 20457      434C455F 
 20457      31365F39 
 20458              	.LASF441:
 20459 0aae 6F766572 		.ascii	"overflow_cb\000"
 20459      666C6F77 
 20459      5F636200 
 20460              	.LASF18:
 20461 0aba 75696E74 		.ascii	"uint64_t\000"
 20461      36345F74 
 20461      00
 20462              	.LASF22:
 20463 0ac3 5F5F6D6F 		.ascii	"__mode_t\000"
 20463      64655F74 
 20463      00
 20464              	.LASF288:
 20465 0acc 63685F64 		.ascii	"ch_debug\000"
 20465      65627567 
 20465      00
 20466              	.LASF642:
 20467 0ad5 74617267 		.ascii	"target_s\000"
 20467      65745F73 
 20467      00
 20468              	.LASF222:
 20469 0ade 464D3152 		.ascii	"FM1R\000"
 20469      00
 20470              	.LASF356:
 20471 0ae3 50414C43 		.ascii	"PALConfig\000"
 20471      6F6E6669 
 20471      6700
 20472              	.LASF639:
 20473 0aed 706C6174 		.ascii	"platform_swclk_port\000"
 20473      666F726D 
 20473      5F737763 
 20473      6C6B5F70 
 20473      6F727400 
 20474              	.LASF523:
 20475 0b01 75736265 		.ascii	"usbeventcb_t\000"
 20475      76656E74 
 20475      63625F74 
 20475      00
 20476              	.LASF769:
ARM GAS  /tmp/ccJYnsep.s 			page 372


 20477 0b0e 414C4947 		.ascii	"ALIGN_HALFWORD\000"
 20477      4E5F4841 
 20477      4C46574F 
 20477      524400
 20478              	.LASF44:
 20479 0b1d 5F5F746D 		.ascii	"__tm_year\000"
 20479      5F796561 
 20479      7200
 20480              	.LASF290:
 20481 0b27 6576656E 		.ascii	"event_listener_t\000"
 20481      745F6C69 
 20481      7374656E 
 20481      65725F74 
 20481      00
 20482              	.LASF602:
 20483 0b38 6F74675F 		.ascii	"otg_ram_size\000"
 20483      72616D5F 
 20483      73697A65 
 20483      00
 20484              	.LASF812:
 20485 0b45 73746D33 		.ascii	"stm32f4_option_write_default\000"
 20485      3266345F 
 20485      6F707469 
 20485      6F6E5F77 
 20485      72697465 
 20486              	.LASF604:
 20487 0b62 73746D33 		.ascii	"stm32_otg_params_t\000"
 20487      325F6F74 
 20487      675F7061 
 20487      72616D73 
 20487      5F7400
 20488              	.LASF596:
 20489 0b75 72657376 		.ascii	"resvdD00\000"
 20489      64443030 
 20489      00
 20490              	.LASF242:
 20491 0b7e 52584352 		.ascii	"RXCRCR\000"
 20491      435200
 20492              	.LASF613:
 20493 0b85 72786275 		.ascii	"rxbuf\000"
 20493      6600
 20494              	.LASF104:
 20495 0b8b 5F6D756C 		.ascii	"_mult\000"
 20495      7400
 20496              	.LASF265:
 20497 0b91 63685F6D 		.ascii	"ch_mutex\000"
 20497      75746578 
 20497      00
 20498              	.LASF719:
 20499 0b9a 6F70656E 		.ascii	"open\000"
 20499      00
 20500              	.LASF371:
 20501 0b9f 7478656D 		.ascii	"txempty_event\000"
 20501      7074795F 
 20501      6576656E 
 20501      7400
 20502              	.LASF353:
ARM GAS  /tmp/ccJYnsep.s 			page 373


 20503 0bad 50474461 		.ascii	"PGData\000"
 20503      746100
 20504              	.LASF854:
 20505 0bb4 474E5520 		.ascii	"GNU C99 7.3.1 20180622 (release) [ARM/embedded-7-br"
 20505      43393920 
 20505      372E332E 
 20505      31203230 
 20505      31383036 
 20506 0be7 616E6368 		.ascii	"anch revision 261907] -mcpu=cortex-m4 -mfloat-abi=h"
 20506      20726576 
 20506      6973696F 
 20506      6E203236 
 20506      31393037 
 20507 0c1a 61726420 		.ascii	"ard -mfpu=fpv4-sp-d16 -mno-thumb-interwork -mthumb "
 20507      2D6D6670 
 20507      753D6670 
 20507      76342D73 
 20507      702D6431 
 20508 0c4d 2D676764 		.ascii	"-ggdb -O2 -std=gnu99 -fomit-frame-pointer -falign-f"
 20508      62202D4F 
 20508      32202D73 
 20508      74643D67 
 20508      6E753939 
 20509 0c80 756E6374 		.ascii	"unctions=16 -ffunction-sections -fdata-sections -fn"
 20509      696F6E73 
 20509      3D313620 
 20509      2D666675 
 20509      6E637469 
 20510 0cb3 6F2D636F 		.ascii	"o-common -fsingle-precision-constant\000"
 20510      6D6D6F6E 
 20510      202D6673 
 20510      696E676C 
 20510      652D7072 
 20511              	.LASF119:
 20512 0cd8 5F6D6272 		.ascii	"_mbrlen_state\000"
 20512      6C656E5F 
 20512      73746174 
 20512      6500
 20513              	.LASF765:
 20514 0ce6 6A746167 		.ascii	"jtag_devs\000"
 20514      5F646576 
 20514      7300
 20515              	.LASF278:
 20516 0cf0 63665F6F 		.ascii	"cf_off_newer\000"
 20516      66665F6E 
 20516      65776572 
 20516      00
 20517              	.LASF675:
 20518 0cfd 54415247 		.ascii	"TARGET_HALT_BREAKPOINT\000"
 20518      45545F48 
 20518      414C545F 
 20518      42524541 
 20518      4B504F49 
 20519              	.LASF581:
 20520 0d14 44494550 		.ascii	"DIEPMSK\000"
 20520      4D534B00 
 20521              	.LASF548:
ARM GAS  /tmp/ccJYnsep.s 			page 374


 20522 0d1c 474F5447 		.ascii	"GOTGINT\000"
 20522      494E5400 
 20523              	.LASF696:
 20524 0d24 54415247 		.ascii	"TARGET_EISDIR\000"
 20524      45545F45 
 20524      49534449 
 20524      5200
 20525              	.LASF621:
 20526 0d32 6F75745F 		.ascii	"out_cb\000"
 20526      636200
 20527              	.LASF572:
 20528 0d39 4841494E 		.ascii	"HAINTMSK\000"
 20528      544D534B 
 20528      00
 20529              	.LASF481:
 20530 0d42 6F75745F 		.ascii	"out_params\000"
 20530      70617261 
 20530      6D7300
 20531              	.LASF136:
 20532 0d4d 76615F6C 		.ascii	"va_list\000"
 20532      69737400 
 20533              	.LASF78:
 20534 0d55 5F737464 		.ascii	"_stdin\000"
 20534      696E00
 20535              	.LASF126:
 20536 0d5c 5F6E6D61 		.ascii	"_nmalloc\000"
 20536      6C6C6F63 
 20536      00
 20537              	.LASF443:
 20538 0d65 64696572 		.ascii	"dier\000"
 20538      00
 20539              	.LASF569:
 20540 0d6a 72657376 		.ascii	"resvd40C\000"
 20540      64343043 
 20540      00
 20541              	.LASF674:
 20542 0d73 54415247 		.ascii	"TARGET_HALT_STEPPING\000"
 20542      45545F48 
 20542      414C545F 
 20542      53544550 
 20542      50494E47 
 20543              	.LASF186:
 20544 0d88 76697274 		.ascii	"virtual_timer_t\000"
 20544      75616C5F 
 20544      74696D65 
 20544      725F7400 
 20545              	.LASF181:
 20546 0d98 725F6374 		.ascii	"r_ctx\000"
 20546      7800
 20547              	.LASF188:
 20548 0d9e 76745F6E 		.ascii	"vt_next\000"
 20548      65787400 
 20549              	.LASF692:
 20550 0da6 54415247 		.ascii	"TARGET_EBUSY\000"
 20550      45545F45 
 20550      42555359 
 20550      00
ARM GAS  /tmp/ccJYnsep.s 			page 375


 20551              	.LASF138:
 20552 0db3 7274636E 		.ascii	"rtcnt_t\000"
 20552      745F7400 
 20553              	.LASF401:
 20554 0dbb 6D757465 		.ascii	"mutex\000"
 20554      7800
 20555              	.LASF754:
 20556 0dc1 73697A65 		.ascii	"size\000"
 20556      00
 20557              	.LASF838:
 20558 0dc6 74635F70 		.ascii	"tc_printf\000"
 20558      72696E74 
 20558      6600
 20559              	.LASF492:
 20560 0dd0 74787065 		.ascii	"txpending\000"
 20560      6E64696E 
 20560      6700
 20561              	.LASF416:
 20562 0dda 636C6F63 		.ascii	"clock\000"
 20562      6B00
 20563              	.LASF330:
 20564 0de0 636C6561 		.ascii	"clear\000"
 20564      7200
 20565              	.LASF428:
 20566 0de6 43435852 		.ascii	"CCXR\000"
 20566      00
 20567              	.LASF231:
 20568 0deb 43414E5F 		.ascii	"CAN_TypeDef\000"
 20568      54797065 
 20568      44656600 
 20569              	.LASF21:
 20570 0df7 5F6F6666 		.ascii	"_off_t\000"
 20570      5F7400
 20571              	.LASF536:
 20572 0dfe 72657376 		.ascii	"resvd4\000"
 20572      643400
 20573              	.LASF786:
 20574 0e05 636F7274 		.ascii	"cortexm_wait_timeout\000"
 20574      65786D5F 
 20574      77616974 
 20574      5F74696D 
 20574      656F7574 
 20575              	.LASF448:
 20576 0e1a 53445F53 		.ascii	"SD_STOP\000"
 20576      544F5000 
 20577              	.LASF757:
 20578 0e22 6A746167 		.ascii	"jtag_dev_s\000"
 20578      5F646576 
 20578      5F7300
 20579              	.LASF527:
 20580 0e2d 72657376 		.ascii	"resvd8\000"
 20580      643800
 20581              	.LASF19:
 20582 0e34 73697A65 		.ascii	"size_t\000"
 20582      5F7400
 20583              	.LASF109:
 20584 0e3b 5F6C6F63 		.ascii	"_localtime_buf\000"
ARM GAS  /tmp/ccJYnsep.s 			page 376


 20584      616C7469 
 20584      6D655F62 
 20584      756600
 20585              	.LASF594:
 20586 0e4a 72657376 		.ascii	"resvd880\000"
 20586      64383830 
 20586      00
 20587              	.LASF27:
 20588 0e53 5F5F636F 		.ascii	"__count\000"
 20588      756E7400 
 20589              	.LASF14:
 20590 0e5b 75696E74 		.ascii	"uint8_t\000"
 20590      385F7400 
 20591              	.LASF531:
 20592 0e63 72657376 		.ascii	"resvd14\000"
 20592      64313400 
 20593              	.LASF359:
 20594 0e6b 43414E5F 		.ascii	"CAN_UNINIT\000"
 20594      554E494E 
 20594      495400
 20595              	.LASF532:
 20596 0e76 72657376 		.ascii	"resvd18\000"
 20596      64313800 
 20597              	.LASF183:
 20598 0e7e 725F6F6C 		.ascii	"r_older\000"
 20598      64657200 
 20599              	.LASF152:
 20600 0e86 705F7072 		.ascii	"p_prev\000"
 20600      657600
 20601              	.LASF280:
 20602 0e8d 63665F6F 		.ascii	"cf_off_name\000"
 20602      66665F6E 
 20602      616D6500 
 20603              	.LASF590:
 20604 0e99 44494550 		.ascii	"DIEPEMPMSK\000"
 20604      454D504D 
 20604      534B00
 20605              	.LASF535:
 20606 0ea4 44494550 		.ascii	"DIEPCTL\000"
 20606      43544C00 
 20607              	.LASF296:
 20608 0eac 656C5F77 		.ascii	"el_wflags\000"
 20608      666C6167 
 20608      7300
 20609              	.LASF490:
 20610 0eb6 6F746770 		.ascii	"otgparams\000"
 20610      6172616D 
 20610      7300
 20611              	.LASF256:
 20612 0ec0 65786974 		.ascii	"exitcode\000"
 20612      636F6465 
 20612      00
 20613              	.LASF350:
 20614 0ec9 50444461 		.ascii	"PDData\000"
 20614      746100
 20615              	.LASF820:
 20616 0ed0 73746D33 		.ascii	"stm32f4_attach\000"
ARM GAS  /tmp/ccJYnsep.s 			page 377


 20616      3266345F 
 20616      61747461 
 20616      636800
 20617              	.LASF92:
 20618 0edf 5F637674 		.ascii	"_cvtbuf\000"
 20618      62756600 
 20619              	.LASF625:
 20620 0ee7 6F75745F 		.ascii	"out_state\000"
 20620      73746174 
 20620      6500
 20621              	.LASF300:
 20622 0ef1 696F5F71 		.ascii	"io_queue_t\000"
 20622      75657565 
 20622      5F7400
 20623              	.LASF646:
 20624 0efc 63686563 		.ascii	"check_error\000"
 20624      6B5F6572 
 20624      726F7200 
 20625              	.LASF770:
 20626 0f08 414C4947 		.ascii	"ALIGN_WORD\000"
 20626      4E5F574F 
 20626      524400
 20627              	.LASF813:
 20628 0f13 73746D33 		.ascii	"stm32f4_option_write\000"
 20628      3266345F 
 20628      6F707469 
 20628      6F6E5F77 
 20628      72697465 
 20629              	.LASF379:
 20630 0f28 4932435F 		.ascii	"I2C_STOP\000"
 20630      53544F50 
 20630      00
 20631              	.LASF403:
 20632 0f31 61646472 		.ascii	"addr\000"
 20632      00
 20633              	.LASF216:
 20634 0f36 52463052 		.ascii	"RF0R\000"
 20634      00
 20635              	.LASF322:
 20636 0f3b 675F6261 		.ascii	"g_backup\000"
 20636      636B7570 
 20636      00
 20637              	.LASF372:
 20638 0f44 6572726F 		.ascii	"error_event\000"
 20638      725F6576 
 20638      656E7400 
 20639              	.LASF788:
 20640 0f50 73746D33 		.ascii	"stm32f4_flash\000"
 20640      3266345F 
 20640      666C6173 
 20640      6800
 20641              	.LASF247:
 20642 0f5e 47545052 		.ascii	"GTPR\000"
 20642      00
 20643              	.LASF716:
 20644 0f63 74617267 		.ascii	"target_controller\000"
 20644      65745F63 
ARM GAS  /tmp/ccJYnsep.s 			page 378


 20644      6F6E7472 
 20644      6F6C6C65 
 20644      7200
 20645              	.LASF333:
 20646 0f75 4F535045 		.ascii	"OSPEEDR\000"
 20646      45445200 
 20647              	.LASF559:
 20648 0f7d 72657376 		.ascii	"resvd30\000"
 20648      64333000 
 20649              	.LASF26:
 20650 0f85 5F5F7763 		.ascii	"__wchb\000"
 20650      686200
 20651              	.LASF120:
 20652 0f8c 5F6D6272 		.ascii	"_mbrtowc_state\000"
 20652      746F7763 
 20652      5F737461 
 20652      746500
 20653              	.LASF445:
 20654 0f9b 49435544 		.ascii	"ICUD4\000"
 20654      3400
 20655              	.LASF824:
 20656 0fa1 6C617267 		.ascii	"large_sectors\000"
 20656      655F7365 
 20656      63746F72 
 20656      7300
 20657              	.LASF41:
 20658 0faf 5F5F746D 		.ascii	"__tm_hour\000"
 20658      5F686F75 
 20658      7200
 20659              	.LASF446:
 20660 0fb9 49435544 		.ascii	"ICUD9\000"
 20660      3900
 20661              	.LASF456:
 20662 0fbf 53657269 		.ascii	"SerialDriverVMT\000"
 20662      616C4472 
 20662      69766572 
 20662      564D5400 
 20663              	.LASF509:
 20664 0fcf 5553425F 		.ascii	"USB_EP0_ERROR\000"
 20664      4550305F 
 20664      4552524F 
 20664      5200
 20665              	.LASF317:
 20666 0fdd 6F646F6D 		.ascii	"odometer\000"
 20666      65746572 
 20666      00
 20667              	.LASF24:
 20668 0fe6 77696E74 		.ascii	"wint_t\000"
 20668      5F7400
 20669              	.LASF93:
 20670 0fed 5F6E6577 		.ascii	"_new\000"
 20670      00
 20671              	.LASF598:
 20672 0ff2 72657376 		.ascii	"resvdE04\000"
 20672      64453034 
 20672      00
 20673              	.LASF603:
ARM GAS  /tmp/ccJYnsep.s 			page 379


 20674 0ffb 6E756D5F 		.ascii	"num_endpoints\000"
 20674      656E6470 
 20674      6F696E74 
 20674      7300
 20675              	.LASF710:
 20676 1009 54415247 		.ascii	"TARGET_O_CREAT\000"
 20676      45545F4F 
 20676      5F435245 
 20676      415400
 20677              	.LASF611:
 20678 1018 746F7473 		.ascii	"totsize\000"
 20678      697A6500 
 20679              	.LASF100:
 20680 1020 5F6E696F 		.ascii	"_niobs\000"
 20680      627300
 20681              	.LASF281:
 20682 1027 63665F6F 		.ascii	"cf_off_stklimit\000"
 20682      66665F73 
 20682      746B6C69 
 20682      6D697400 
 20683              	.LASF525:
 20684 1037 75736267 		.ascii	"usbgetdescriptor_t\000"
 20684      65746465 
 20684      73637269 
 20684      70746F72 
 20684      5F7400
 20685              	.LASF707:
 20686 104a 54415247 		.ascii	"TARGET_O_WRONLY\000"
 20686      45545F4F 
 20686      5F57524F 
 20686      4E4C5900 
 20687              	.LASF184:
 20688 105a 725F6375 		.ascii	"r_current\000"
 20688      7272656E 
 20688      7400
 20689              	.LASF77:
 20690 1064 5F657272 		.ascii	"_errno\000"
 20690      6E6F00
 20691              	.LASF504:
 20692 106b 5553425F 		.ascii	"USB_EP0_TX\000"
 20692      4550305F 
 20692      545800
 20693              	.LASF482:
 20694 1076 65703073 		.ascii	"ep0state\000"
 20694      74617465 
 20694      00
 20695              	.LASF42:
 20696 107f 5F5F746D 		.ascii	"__tm_mday\000"
 20696      5F6D6461 
 20696      7900
 20697              	.LASF324:
 20698 1089 69666372 		.ascii	"ifcr\000"
 20698      00
 20699              	.LASF623:
 20700 108e 6F75745F 		.ascii	"out_maxsize\000"
 20700      6D617873 
 20700      697A6500 
ARM GAS  /tmp/ccJYnsep.s 			page 380


 20701              	.LASF339:
 20702 109a 73746D33 		.ascii	"stm32_gpio_t\000"
 20702      325F6770 
 20702      696F5F74 
 20702      00
 20703              	.LASF255:
 20704 10a7 7264796D 		.ascii	"rdymsg\000"
 20704      736700
 20705              	.LASF49:
 20706 10ae 5F666E61 		.ascii	"_fnargs\000"
 20706      72677300 
 20707              	.LASF207:
 20708 10b6 54445452 		.ascii	"TDTR\000"
 20708      00
 20709              	.LASF643:
 20710 10bb 61747461 		.ascii	"attached\000"
 20710      63686564 
 20710      00
 20711              	.LASF215:
 20712 10c4 43414E5F 		.ascii	"CAN_FilterRegister_TypeDef\000"
 20712      46696C74 
 20712      65725265 
 20712      67697374 
 20712      65725F54 
 20713              	.LASF676:
 20714 10df 54415247 		.ascii	"TARGET_HALT_WATCHPOINT\000"
 20714      45545F48 
 20714      414C545F 
 20714      57415443 
 20714      48504F49 
 20715              	.LASF562:
 20716 10f6 72657376 		.ascii	"resvd58\000"
 20716      64353800 
 20717              	.LASF612:
 20718 10fe 55534249 		.ascii	"USBInEndpointState\000"
 20718      6E456E64 
 20718      706F696E 
 20718      74537461 
 20718      746500
 20719              	.LASF153:
 20720 1111 705F7072 		.ascii	"p_prio\000"
 20720      696F00
 20721              	.LASF691:
 20722 1118 54415247 		.ascii	"TARGET_EFAULT\000"
 20722      45545F45 
 20722      4641554C 
 20722      5400
 20723              	.LASF301:
 20724 1126 696F5F71 		.ascii	"io_queue\000"
 20724      75657565 
 20724      00
 20725              	.LASF669:
 20726 112f 70726976 		.ascii	"priv_free\000"
 20726      5F667265 
 20726      6500
 20727              	.LASF347:
 20728 1139 50414461 		.ascii	"PAData\000"
ARM GAS  /tmp/ccJYnsep.s 			page 381


 20728      746100
 20729              	.LASF11:
 20730 1140 5F5F7569 		.ascii	"__uint64_t\000"
 20730      6E743634 
 20730      5F7400
 20731              	.LASF33:
 20732 114b 5F6E6578 		.ascii	"_next\000"
 20732      7400
 20733              	.LASF508:
 20734 1151 5553425F 		.ascii	"USB_EP0_SENDING_STS\000"
 20734      4550305F 
 20734      53454E44 
 20734      494E475F 
 20734      53545300 
 20735              	.LASF117:
 20736 1165 5F736967 		.ascii	"_signal_buf\000"
 20736      6E616C5F 
 20736      62756600 
 20737              	.LASF680:
 20738 1171 54415247 		.ascii	"TARGET_BREAK_SOFT\000"
 20738      45545F42 
 20738      5245414B 
 20738      5F534F46 
 20738      5400
 20739              	.LASF440:
 20740 1183 70657269 		.ascii	"period_cb\000"
 20740      6F645F63 
 20740      6200
 20741              	.LASF836:
 20742 118d 73746D33 		.ascii	"stm32f4_add_flash\000"
 20742      3266345F 
 20742      6164645F 
 20742      666C6173 
 20742      6800
 20743              	.LASF384:
 20744 119f 69326373 		.ascii	"i2cstate_t\000"
 20744      74617465 
 20744      5F7400
 20745              	.LASF63:
 20746 11aa 5F636F6F 		.ascii	"_cookie\000"
 20746      6B696500 
 20747              	.LASF810:
 20748 11b2 72656164 		.ascii	"readcount\000"
 20748      636F756E 
 20748      7400
 20749              	.LASF776:
 20750 11bc 74617267 		.ascii	"targetid\000"
 20750      65746964 
 20750      00
 20751              	.LASF510:
 20752 11c5 75736265 		.ascii	"usbep0state_t\000"
 20752      70307374 
 20752      6174655F 
 20752      7400
 20753              	.LASF666:
 20754 11d3 636F6D6D 		.ascii	"commands\000"
 20754      616E6473 
ARM GAS  /tmp/ccJYnsep.s 			page 382


 20754      00
 20755              	.LASF219:
 20756 11dc 7354784D 		.ascii	"sTxMailBox\000"
 20756      61696C42 
 20756      6F7800
 20757              	.LASF466:
 20758 11e7 5350495F 		.ascii	"SPI_ACTIVE\000"
 20758      41435449 
 20758      564500
 20759              	.LASF304:
 20760 11f2 715F6275 		.ascii	"q_buffer\000"
 20760      66666572 
 20760      00
 20761              	.LASF151:
 20762 11fb 705F6E65 		.ascii	"p_next\000"
 20762      787400
 20763              	.LASF408:
 20764 1202 49324344 		.ascii	"I2CD2\000"
 20764      3200
 20765              	.LASF477:
 20766 1208 55534244 		.ascii	"USBDriver\000"
 20766      72697665 
 20766      7200
 20767              	.LASF595:
 20768 1212 72657376 		.ascii	"resvd8C0\000"
 20768      64384330 
 20768      00
 20769              	.LASF633:
 20770 121b 55534243 		.ascii	"USBConfig\000"
 20770      6F6E6669 
 20770      6700
 20771              	.LASF840:
 20772 1225 73747274 		.ascii	"strtoul\000"
 20772      6F756C00 
 20773              	.LASF538:
 20774 122d 72657376 		.ascii	"resvdC\000"
 20774      644300
 20775              	.LASF442:
 20776 1234 6368616E 		.ascii	"channel\000"
 20776      6E656C00 
 20777              	.LASF733:
 20778 123c 73746172 		.ascii	"start\000"
 20778      7400
 20779              	.LASF737:
 20780 1242 626C6F63 		.ascii	"blocksize\000"
 20780      6B73697A 
 20780      6500
 20781              	.LASF454:
 20782 124c 6F717565 		.ascii	"oqueue\000"
 20782      756500
 20783              	.LASF141:
 20784 1253 74726566 		.ascii	"trefs_t\000"
 20784      735F7400 
 20785              	.LASF170:
 20786 125b 705F6D70 		.ascii	"p_mpool\000"
 20786      6F6F6C00 
 20787              	.LASF240:
ARM GAS  /tmp/ccJYnsep.s 			page 383


 20788 1263 4932435F 		.ascii	"I2C_TypeDef\000"
 20788      54797065 
 20788      44656600 
 20789              	.LASF684:
 20790 126f 54415247 		.ascii	"TARGET_WATCH_ACCESS\000"
 20790      45545F57 
 20790      41544348 
 20790      5F414343 
 20790      45535300 
 20791              	.LASF39:
 20792 1283 5F5F746D 		.ascii	"__tm_sec\000"
 20792      5F736563 
 20792      00
 20793              	.LASF626:
 20794 128c 696E5F6D 		.ascii	"in_multiplier\000"
 20794      756C7469 
 20794      706C6965 
 20794      7200
 20795              	.LASF48:
 20796 129a 5F6F6E5F 		.ascii	"_on_exit_args\000"
 20796      65786974 
 20796      5F617267 
 20796      7300
 20797              	.LASF732:
 20798 12a8 74617267 		.ascii	"target_ram\000"
 20798      65745F72 
 20798      616D00
 20799              	.LASF251:
 20800 12b3 636F6E74 		.ascii	"context\000"
 20800      65787400 
 20801              	.LASF139:
 20802 12bb 746D6F64 		.ascii	"tmode_t\000"
 20802      655F7400 
 20803              	.LASF705:
 20804 12c3 74617267 		.ascii	"target_open_flags\000"
 20804      65745F6F 
 20804      70656E5F 
 20804      666C6167 
 20804      7300
 20805              	.LASF579:
 20806 12d5 44535453 		.ascii	"DSTS\000"
 20806      00
 20807              	.LASF651:
 20808 12da 72656773 		.ascii	"regs_read\000"
 20808      5F726561 
 20808      6400
 20809              	.LASF335:
 20810 12e4 42535252 		.ascii	"BSRR\000"
 20810      00
 20811              	.LASF328:
 20812 12e9 73746D33 		.ascii	"stm32_dma_stream_t\000"
 20812      325F646D 
 20812      615F7374 
 20812      7265616D 
 20812      5F7400
 20813              	.LASF631:
 20814 12fc 72657175 		.ascii	"requests_hook_cb\000"
ARM GAS  /tmp/ccJYnsep.s 			page 384


 20814      65737473 
 20814      5F686F6F 
 20814      6B5F6362 
 20814      00
 20815              	.LASF122:
 20816 130d 5F776372 		.ascii	"_wcrtomb_state\000"
 20816      746F6D62 
 20816      5F737461 
 20816      746500
 20817              	.LASF640:
 20818 131c 706C6174 		.ascii	"platform_swclk_pin\000"
 20818      666F726D 
 20818      5F737763 
 20818      6C6B5F70 
 20818      696E00
 20819              	.LASF609:
 20820 132f 74787369 		.ascii	"txsize\000"
 20820      7A6500
 20821              	.LASF695:
 20822 1336 54415247 		.ascii	"TARGET_ENOTDIR\000"
 20822      45545F45 
 20822      4E4F5444 
 20822      495200
 20823              	.LASF815:
 20824 1345 73746D33 		.ascii	"stm32f4_cmd_option\000"
 20824      3266345F 
 20824      636D645F 
 20824      6F707469 
 20824      6F6E00
 20825              	.LASF842:
 20826 1358 636F7274 		.ascii	"cortexm_mem_write_sized\000"
 20826      65786D5F 
 20826      6D656D5F 
 20826      77726974 
 20826      655F7369 
 20827              	.LASF855:
 20828 1370 626C6163 		.ascii	"blackmagic/target/stm32f4.c\000"
 20828      6B6D6167 
 20828      69632F74 
 20828      61726765 
 20828      742F7374 
 20829              	.LASF711:
 20830 138c 54415247 		.ascii	"TARGET_O_TRUNC\000"
 20830      45545F4F 
 20830      5F545255 
 20830      4E4300
 20831              	.LASF790:
 20832 139b 62617365 		.ascii	"base_sector\000"
 20832      5F736563 
 20832      746F7200 
 20833              	.LASF266:
 20834 13a7 6D5F7175 		.ascii	"m_queue\000"
 20834      65756500 
 20835              	.LASF383:
 20836 13af 4932435F 		.ascii	"I2C_LOCKED\000"
 20836      4C4F434B 
 20836      454400
ARM GAS  /tmp/ccJYnsep.s 			page 385


 20837              	.LASF439:
 20838 13ba 77696474 		.ascii	"width_cb\000"
 20838      685F6362 
 20838      00
 20839              	.LASF498:
 20840 13c3 5553425F 		.ascii	"USB_READY\000"
 20840      52454144 
 20840      5900
 20841              	.LASF462:
 20842 13cd 72656164 		.ascii	"readt\000"
 20842      7400
 20843              	.LASF827:
 20844 13d3 666C6173 		.ascii	"flashsize\000"
 20844      6873697A 
 20844      6500
 20845              	.LASF551:
 20846 13dd 47525354 		.ascii	"GRSTCTL\000"
 20846      43544C00 
 20847              	.LASF32:
 20848 13e5 5F5F554C 		.ascii	"__ULong\000"
 20848      6F6E6700 
 20849              	.LASF198:
 20850 13ed 70616E69 		.ascii	"panic_msg\000"
 20850      635F6D73 
 20850      6700
 20851              	.LASF467:
 20852 13f7 5350495F 		.ascii	"SPI_COMPLETE\000"
 20852      434F4D50 
 20852      4C455445 
 20852      00
 20853              	.LASF182:
 20854 1404 725F6E65 		.ascii	"r_newer\000"
 20854      77657200 
 20855              	.LASF516:
 20856 140c 5553425F 		.ascii	"USB_EVENT_STALLED\000"
 20856      4556454E 
 20856      545F5354 
 20856      414C4C45 
 20856      4400
 20857              	.LASF848:
 20858 141e 636F7274 		.ascii	"cortexm_detach\000"
 20858      65786D5F 
 20858      64657461 
 20858      636800
 20859              	.LASF287:
 20860 142d 63686465 		.ascii	"chdebug_t\000"
 20860      6275675F 
 20860      7400
 20861              	.LASF758:
 20862 1437 64725F70 		.ascii	"dr_postscan\000"
 20862      6F737473 
 20862      63616E00 
 20863              	.LASF615:
 20864 1443 72787369 		.ascii	"rxsize\000"
 20864      7A6500
 20865              	.LASF412:
 20866 144a 4943555F 		.ascii	"ICU_WAITING\000"
ARM GAS  /tmp/ccJYnsep.s 			page 386


 20866      57414954 
 20866      494E4700 
 20867              	.LASF530:
 20868 1456 48435453 		.ascii	"HCTSIZ\000"
 20868      495A00
 20869              	.LASF686:
 20870 145d 54415247 		.ascii	"TARGET_EPERM\000"
 20870      45545F45 
 20870      5045524D 
 20870      00
 20871              	.LASF513:
 20872 146a 5553425F 		.ascii	"USB_EVENT_CONFIGURED\000"
 20872      4556454E 
 20872      545F434F 
 20872      4E464947 
 20872      55524544 
 20873              	.LASF830:
 20874 147f 6F707463 		.ascii	"optcr\000"
 20874      7200
 20875              	.LASF771:
 20876 1485 414C4947 		.ascii	"ALIGN_DWORD\000"
 20876      4E5F4457 
 20876      4F524400 
 20877              	.LASF459:
 20878 1491 70757474 		.ascii	"putt\000"
 20878      00
 20879              	.LASF647:
 20880 1496 6D656D5F 		.ascii	"mem_read\000"
 20880      72656164 
 20880      00
 20881              	.LASF142:
 20882 149f 74736C69 		.ascii	"tslices_t\000"
 20882      6365735F 
 20882      7400
 20883              	.LASF107:
 20884 14a9 5F737472 		.ascii	"_strtok_last\000"
 20884      746F6B5F 
 20884      6C617374 
 20884      00
 20885              	.LASF274:
 20886 14b6 63685F74 		.ascii	"ch_timesize\000"
 20886      696D6573 
 20886      697A6500 
 20887              	.LASF635:
 20888 14c2 73656E64 		.ascii	"send_buffer_global\000"
 20888      5F627566 
 20888      6665725F 
 20888      676C6F62 
 20888      616C00
 20889              	.LASF653:
 20890 14d5 72657365 		.ascii	"reset\000"
 20890      7400
 20891              	.LASF494:
 20892 14db 77615F70 		.ascii	"wa_pump\000"
 20892      756D7000 
 20893              	.LASF299:
 20894 14e3 6576656E 		.ascii	"event_source_t\000"
ARM GAS  /tmp/ccJYnsep.s 			page 387


 20894      745F736F 
 20894      75726365 
 20894      5F7400
 20895              	.LASF565:
 20896 14f2 72657376 		.ascii	"resvd140\000"
 20896      64313430 
 20896      00
 20897              	.LASF190:
 20898 14fb 76745F64 		.ascii	"vt_delta\000"
 20898      656C7461 
 20898      00
 20899              	.LASF103:
 20900 1504 5F736565 		.ascii	"_seed\000"
 20900      6400
 20901              	.LASF828:
 20902 150a 73706C69 		.ascii	"split\000"
 20902      7400
 20903              	.LASF66:
 20904 1510 5F736565 		.ascii	"_seek\000"
 20904      6B00
 20905              	.LASF514:
 20906 1516 5553425F 		.ascii	"USB_EVENT_SUSPEND\000"
 20906      4556454E 
 20906      545F5355 
 20906      5350454E 
 20906      4400
 20907              	.LASF728:
 20908 1528 73797374 		.ascii	"system\000"
 20908      656D00
 20909              	.LASF543:
 20910 152f 444F4550 		.ascii	"DOEPCTL\000"
 20910      43544C00 
 20911              	.LASF5:
 20912 1537 73686F72 		.ascii	"short unsigned int\000"
 20912      7420756E 
 20912      7369676E 
 20912      65642069 
 20912      6E7400
 20913              	.LASF650:
 20914 154a 74646573 		.ascii	"tdesc\000"
 20914      6300
 20915              	.LASF0:
 20916 1550 7369676E 		.ascii	"signed char\000"
 20916      65642063 
 20916      68617200 
 20917              	.LASF162:
 20918 155c 705F7072 		.ascii	"p_preempt\000"
 20918      65656D70 
 20918      7400
 20919              	.LASF163:
 20920 1566 705F7469 		.ascii	"p_time\000"
 20920      6D6500
 20921              	.LASF209:
 20922 156d 54444852 		.ascii	"TDHR\000"
 20922      00
 20923              	.LASF507:
 20924 1572 5553425F 		.ascii	"USB_EP0_RX\000"
ARM GAS  /tmp/ccJYnsep.s 			page 388


 20924      4550305F 
 20924      525800
 20925              	.LASF697:
 20926 157d 54415247 		.ascii	"TARGET_EINVAL\000"
 20926      45545F45 
 20926      494E5641 
 20926      4C00
 20927              	.LASF701:
 20928 158b 54415247 		.ascii	"TARGET_ENOSPC\000"
 20928      45545F45 
 20928      4E4F5350 
 20928      4300
 20929              	.LASF487:
 20930 1599 73746174 		.ascii	"status\000"
 20930      757300
 20931              	.LASF809:
 20932 15a0 636F756E 		.ascii	"count\000"
 20932      7400
 20933              	.LASF520:
 20934 15a6 55534244 		.ascii	"USBDescriptor\000"
 20934      65736372 
 20934      6970746F 
 20934      7200
 20935              	.LASF90:
 20936 15b4 5F667265 		.ascii	"_freelist\000"
 20936      656C6973 
 20936      7400
 20937              	.LASF488:
 20938 15be 61646472 		.ascii	"address\000"
 20938      65737300 
 20939              	.LASF165:
 20940 15c6 705F6D73 		.ascii	"p_msgqueue\000"
 20940      67717565 
 20940      756500
 20941              	.LASF644:
 20942 15d1 61747461 		.ascii	"attach\000"
 20942      636800
 20943              	.LASF284:
 20944 15d8 63665F6F 		.ascii	"cf_off_refs\000"
 20944      66665F72 
 20944      65667300 
 20945              	.LASF282:
 20946 15e4 63665F6F 		.ascii	"cf_off_state\000"
 20946      66665F73 
 20946      74617465 
 20946      00
 20947              	.LASF267:
 20948 15f1 6D5F6F77 		.ascii	"m_owner\000"
 20948      6E657200 
 20949              	.LASF71:
 20950 15f9 5F6F6666 		.ascii	"_offset\000"
 20950      73657400 
 20951              	.LASF206:
 20952 1601 53797374 		.ascii	"SystemCoreClock\000"
 20952      656D436F 
 20952      7265436C 
 20952      6F636B00 
ARM GAS  /tmp/ccJYnsep.s 			page 389


 20953              	.LASF662:
 20954 1611 6964636F 		.ascii	"idcode\000"
 20954      646500
 20955              	.LASF366:
 20956 1618 73746174 		.ascii	"state\000"
 20956      6500
 20957              	.LASF272:
 20958 161e 63685F76 		.ascii	"ch_version\000"
 20958      65727369 
 20958      6F6E00
 20959              	.LASF316:
 20960 1629 6F646F6D 		.ascii	"odometer_init_flag\000"
 20960      65746572 
 20960      5F696E69 
 20960      745F666C 
 20960      616700
 20961              	.LASF56:
 20962 163c 5F5F7362 		.ascii	"__sbuf\000"
 20962      756600
 20963              	.LASF506:
 20964 1643 5553425F 		.ascii	"USB_EP0_WAITING_STS\000"
 20964      4550305F 
 20964      57414954 
 20964      494E475F 
 20964      53545300 
 20965              	.LASF116:
 20966 1657 5F6C3634 		.ascii	"_l64a_buf\000"
 20966      615F6275 
 20966      6600
 20967              	.LASF213:
 20968 1661 52444852 		.ascii	"RDHR\000"
 20968      00
 20969              	.LASF426:
 20970 1666 444D4152 		.ascii	"DMAR\000"
 20970      00
 20971              	.LASF789:
 20972 166b 7073697A 		.ascii	"psize\000"
 20972      6500
 20973              	.LASF200:
 20974 1671 63685F73 		.ascii	"ch_system\000"
 20974      79737465 
 20974      6D00
 20975              	.LASF749:
 20976 167b 74617267 		.ascii	"target_command_s\000"
 20976      65745F63 
 20976      6F6D6D61 
 20976      6E645F73 
 20976      00
 20977              	.LASF722:
 20978 168c 72656E61 		.ascii	"rename\000"
 20978      6D6500
 20979              	.LASF108:
 20980 1693 5F617363 		.ascii	"_asctime_buf\000"
 20980      74696D65 
 20980      5F627566 
 20980      00
 20981              	.LASF320:
ARM GAS  /tmp/ccJYnsep.s 			page 390


 20982 16a0 6261636B 		.ascii	"backup_data\000"
 20982      75705F64 
 20982      61746100 
 20983              	.LASF708:
 20984 16ac 54415247 		.ascii	"TARGET_O_RDWR\000"
 20984      45545F4F 
 20984      5F524457 
 20984      5200
 20985              	.LASF25:
 20986 16ba 5F5F7763 		.ascii	"__wch\000"
 20986      6800
 20987              	.LASF262:
 20988 16c0 63685F73 		.ascii	"ch_semaphore\000"
 20988      656D6170 
 20988      686F7265 
 20988      00
 20989              	.LASF123:
 20990 16cd 5F776373 		.ascii	"_wcsrtombs_state\000"
 20990      72746F6D 
 20990      62735F73 
 20990      74617465 
 20990      00
 20991              	.LASF539:
 20992 16de 44494550 		.ascii	"DIEPTSIZ\000"
 20992      5453495A 
 20992      00
 20993              	.LASF721:
 20994 16e7 6C736565 		.ascii	"lseek\000"
 20994      6B00
 20995              	.LASF720:
 20996 16ed 636C6F73 		.ascii	"close\000"
 20996      6500
 20997              	.LASF175:
 20998 16f3 74687265 		.ascii	"threads_queue_t\000"
 20998      6164735F 
 20998      71756575 
 20998      655F7400 
 20999              	.LASF161:
 21000 1703 705F7265 		.ascii	"p_refs\000"
 21000      667300
 21001              	.LASF618:
 21002 170a 65705F6D 		.ascii	"ep_mode\000"
 21002      6F646500 
 21003              	.LASF546:
 21004 1712 73746D33 		.ascii	"stm32_otg_out_ep_t\000"
 21004      325F6F74 
 21004      675F6F75 
 21004      745F6570 
 21004      5F7400
 21005              	.LASF208:
 21006 1725 54444C52 		.ascii	"TDLR\000"
 21006      00
 21007              	.LASF7:
 21008 172a 6C6F6E67 		.ascii	"long int\000"
 21008      20696E74 
 21008      00
 21009              	.LASF203:
ARM GAS  /tmp/ccJYnsep.s 			page 391


 21010 1733 6D61696E 		.ascii	"mainthread\000"
 21010      74687265 
 21010      616400
 21011              	.LASF484:
 21012 173e 6570306E 		.ascii	"ep0n\000"
 21012      00
 21013              	.LASF385:
 21014 1743 69326361 		.ascii	"i2caddr_t\000"
 21014      6464725F 
 21014      7400
 21015              	.LASF115:
 21016 174d 5F776374 		.ascii	"_wctomb_state\000"
 21016      6F6D625F 
 21016      73746174 
 21016      6500
 21017              	.LASF706:
 21018 175b 54415247 		.ascii	"TARGET_O_RDONLY\000"
 21018      45545F4F 
 21018      5F52444F 
 21018      4E4C5900 
 21019              	.LASF303:
 21020 176b 715F636F 		.ascii	"q_counter\000"
 21020      756E7465 
 21020      7200
 21021              	.LASF354:
 21022 1775 50484461 		.ascii	"PHData\000"
 21022      746100
 21023              	.LASF357:
 21024 177c 696F706F 		.ascii	"ioportid_t\000"
 21024      72746964 
 21024      5F7400
 21025              	.LASF566:
 21026 1787 48434647 		.ascii	"HCFG\000"
 21026      00
 21027              	.LASF101:
 21028 178c 5F696F62 		.ascii	"_iobs\000"
 21028      7300
 21029              	.LASF82:
 21030 1792 5F656D65 		.ascii	"_emergency\000"
 21030      7267656E 
 21030      637900
 21031              	.LASF460:
 21032 179d 67657474 		.ascii	"gett\000"
 21032      00
 21033              	.LASF476:
 21034 17a2 53504944 		.ascii	"SPID3\000"
 21034      3300
 21035              	.LASF748:
 21036 17a8 68656C70 		.ascii	"help\000"
 21036      00
 21037              	.LASF702:
 21038 17ad 54415247 		.ascii	"TARGET_ESPIPE\000"
 21038      45545F45 
 21038      53504950 
 21038      4500
 21039              	.LASF258:
 21040 17bb 77747472 		.ascii	"wttrp\000"
ARM GAS  /tmp/ccJYnsep.s 			page 392


 21040      7000
 21041              	.LASF307:
 21042 17c1 715F7264 		.ascii	"q_rdptr\000"
 21042      70747200 
 21043              	.LASF125:
 21044 17c9 5F6E6578 		.ascii	"_nextf\000"
 21044      746600
 21045              	.LASF457:
 21046 17d0 77726974 		.ascii	"write\000"
 21046      6500
 21047              	.LASF793:
 21048 17d6 49445F53 		.ascii	"ID_STM32F20X\000"
 21048      544D3332 
 21048      46323058 
 21048      00
 21049              	.LASF111:
 21050 17e3 5F72616E 		.ascii	"_rand_next\000"
 21050      645F6E65 
 21050      787400
 21051              	.LASF453:
 21052 17ee 69717565 		.ascii	"iqueue\000"
 21052      756500
 21053              	.LASF620:
 21054 17f5 696E5F63 		.ascii	"in_cb\000"
 21054      6200
 21055              	.LASF709:
 21056 17fb 54415247 		.ascii	"TARGET_O_APPEND\000"
 21056      45545F4F 
 21056      5F415050 
 21056      454E4400 
 21057              	.LASF544:
 21058 180b 444F4550 		.ascii	"DOEPINT\000"
 21058      494E5400 
 21059              	.LASF336:
 21060 1813 4C434B52 		.ascii	"LCKR\000"
 21060      00
 21061              	.LASF816:
 21062 1818 73746D33 		.ascii	"stm32f4_flash_write\000"
 21062      3266345F 
 21062      666C6173 
 21062      685F7772 
 21062      69746500 
 21063              	.LASF654:
 21064 182c 65787465 		.ascii	"extended_reset\000"
 21064      6E646564 
 21064      5F726573 
 21064      657400
 21065              	.LASF450:
 21066 183b 73647374 		.ascii	"sdstate_t\000"
 21066      6174655F 
 21066      7400
 21067              	.LASF17:
 21068 1845 75696E74 		.ascii	"uint32_t\000"
 21068      33325F74 
 21068      00
 21069              	.LASF321:
 21070 184e 636F6E66 		.ascii	"conf_general_permanent_nrf_found\000"
ARM GAS  /tmp/ccJYnsep.s 			page 393


 21070      5F67656E 
 21070      6572616C 
 21070      5F706572 
 21070      6D616E65 
 21071              	.LASF34:
 21072 186f 5F6D6178 		.ascii	"_maxwds\000"
 21072      77647300 
 21073              	.LASF524:
 21074 1877 75736272 		.ascii	"usbreqhandler_t\000"
 21074      65716861 
 21074      6E646C65 
 21074      725F7400 
 21075              	.LASF212:
 21076 1887 52444C52 		.ascii	"RDLR\000"
 21076      00
 21077              	.LASF249:
 21078 188c 72656761 		.ascii	"regarm_t\000"
 21078      726D5F74 
 21078      00
 21079              	.LASF145:
 21080 1895 6576656E 		.ascii	"eventmask_t\000"
 21080      746D6173 
 21080      6B5F7400 
 21081              	.LASF132:
 21082 18a1 7375626F 		.ascii	"suboptarg\000"
 21082      70746172 
 21082      6700
 21083              	.LASF226:
 21084 18ab 46464131 		.ascii	"FFA1R\000"
 21084      5200
 21085              	.LASF217:
 21086 18b1 52463152 		.ascii	"RF1R\000"
 21086      00
 21087              	.LASF499:
 21088 18b6 5553425F 		.ascii	"USB_SELECTED\000"
 21088      53454C45 
 21088      43544544 
 21088      00
 21089              	.LASF362:
 21090 18c3 43414E5F 		.ascii	"CAN_READY\000"
 21090      52454144 
 21090      5900
 21091              	.LASF826:
 21092 18cd 7573655F 		.ascii	"use_dual_bank\000"
 21092      6475616C 
 21092      5F62616E 
 21092      6B00
 21093              	.LASF760:
 21094 18db 69725F70 		.ascii	"ir_prescan\000"
 21094      72657363 
 21094      616E00
 21095              	.LASF9:
 21096 18e6 6C6F6E67 		.ascii	"long unsigned int\000"
 21096      20756E73 
 21096      69676E65 
 21096      6420696E 
 21096      7400
ARM GAS  /tmp/ccJYnsep.s 			page 394


 21097              	.LASF797:
 21098 18f8 49445F53 		.ascii	"ID_STM32F401C\000"
 21098      544D3332 
 21098      46343031 
 21098      4300
 21099              	.LASF799:
 21100 1906 49445F53 		.ascii	"ID_STM32F401E\000"
 21100      544D3332 
 21100      46343031 
 21100      4500
 21101              	.LASF306:
 21102 1914 715F7772 		.ascii	"q_wrptr\000"
 21102      70747200 
 21103              	.LASF735:
 21104 191c 666C6173 		.ascii	"flash_erase_func\000"
 21104      685F6572 
 21104      6173655F 
 21104      66756E63 
 21104      00
 21105              	.LASF762:
 21106 192d 64657363 		.ascii	"descr\000"
 21106      7200
 21107              	.LASF415:
 21108 1933 49435544 		.ascii	"ICUDriver\000"
 21108      72697665 
 21108      7200
 21109              	.LASF444:
 21110 193d 49435543 		.ascii	"ICUConfig\000"
 21110      6F6E6669 
 21110      6700
 21111              	.LASF512:
 21112 1947 5553425F 		.ascii	"USB_EVENT_ADDRESS\000"
 21112      4556454E 
 21112      545F4144 
 21112      44524553 
 21112      5300
 21113              	.LASF318:
 21114 1959 72756E74 		.ascii	"runtime_init_flag\000"
 21114      696D655F 
 21114      696E6974 
 21114      5F666C61 
 21114      6700
 21115              	.LASF370:
 21116 196b 72786675 		.ascii	"rxfull_event\000"
 21116      6C6C5F65 
 21116      76656E74 
 21116      00
 21117              	.LASF787:
 21118 1978 73746D33 		.ascii	"stm32f4_cmd_list\000"
 21118      3266345F 
 21118      636D645F 
 21118      6C697374 
 21118      00
 21119              	.LASF517:
 21120 1989 75736265 		.ascii	"usbevent_t\000"
 21120      76656E74 
 21120      5F7400
ARM GAS  /tmp/ccJYnsep.s 			page 395


 21121              	.LASF67:
 21122 1994 5F636C6F 		.ascii	"_close\000"
 21122      736500
 21123              	.LASF847:
 21124 199b 74617267 		.ascii	"target_add_commands\000"
 21124      65745F61 
 21124      64645F63 
 21124      6F6D6D61 
 21124      6E647300 
 21125              	.LASF31:
 21126 19af 63686172 		.ascii	"char\000"
 21126      00
 21127              	.LASF365:
 21128 19b4 43414E43 		.ascii	"CANConfig\000"
 21128      6F6E6669 
 21128      6700
 21129              	.LASF351:
 21130 19be 50454461 		.ascii	"PEData\000"
 21130      746100
 21131              	.LASF179:
 21132 19c5 725F7175 		.ascii	"r_queue\000"
 21132      65756500 
 21133              	.LASF99:
 21134 19cd 5F676C75 		.ascii	"_glue\000"
 21134      6500
 21135              	.LASF556:
 21136 19d3 47525846 		.ascii	"GRXFSIZ\000"
 21136      53495A00 
 21137              	.LASF658:
 21138 19db 62726561 		.ascii	"breakwatch_set\000"
 21138      6B776174 
 21138      63685F73 
 21138      657400
 21139              	.LASF455:
 21140 19ea 75736172 		.ascii	"usart\000"
 21140      7400
 21141              	.LASF309:
 21142 19f0 715F6C69 		.ascii	"q_link\000"
 21142      6E6B00
 21143              	.LASF841:
 21144 19f7 74617267 		.ascii	"target_mem_write32\000"
 21144      65745F6D 
 21144      656D5F77 
 21144      72697465 
 21144      333200
 21145              	.LASF704:
 21146 1a0a 54415247 		.ascii	"TARGET_ENAMETOOLONG\000"
 21146      45545F45 
 21146      4E414D45 
 21146      544F4F4C 
 21146      4F4E4700 
 21147              	.LASF434:
 21148 1a1e 4943555F 		.ascii	"ICU_CHANNEL_1\000"
 21148      4348414E 
 21148      4E454C5F 
 21148      3100
 21149              	.LASF672:
ARM GAS  /tmp/ccJYnsep.s 			page 396


 21150 1a2c 54415247 		.ascii	"TARGET_HALT_ERROR\000"
 21150      45545F48 
 21150      414C545F 
 21150      4552524F 
 21150      5200
 21151              	.LASF773:
 21152 1a3e 41444976 		.ascii	"ADIv5_DP_s\000"
 21152      355F4450 
 21152      5F7300
 21153              	.LASF781:
 21154 1a49 41444976 		.ascii	"ADIv5_DP_t\000"
 21154      355F4450 
 21154      5F7400
 21155              	.LASF37:
 21156 1a54 5F426967 		.ascii	"_Bigint\000"
 21156      696E7400 
 21157              	.LASF553:
 21158 1a5c 47494E54 		.ascii	"GINTMSK\000"
 21158      4D534B00 
 21159              	.LASF419:
 21160 1a64 69637563 		.ascii	"icucallback_t\000"
 21160      616C6C62 
 21160      61636B5F 
 21160      7400
 21161              	.LASF558:
 21162 1a72 484E5054 		.ascii	"HNPTXSTS\000"
 21162      58535453 
 21162      00
 21163              	.LASF772:
 21164 1a7b 6661756C 		.ascii	"fault\000"
 21164      7400
 21165              	.LASF489:
 21166 1a81 636F6E66 		.ascii	"configuration\000"
 21166      69677572 
 21166      6174696F 
 21166      6E00
 21167              	.LASF94:
 21168 1a8f 5F617465 		.ascii	"_atexit0\000"
 21168      78697430 
 21168      00
 21169              	.LASF767:
 21170 1a98 616C6967 		.ascii	"align\000"
 21170      6E00
 21171              	.LASF346:
 21172 1a9e 73746D33 		.ascii	"stm32_gpio_setup_t\000"
 21172      325F6770 
 21172      696F5F73 
 21172      65747570 
 21172      5F7400
 21173              	.LASF431:
 21174 1ab1 4943555F 		.ascii	"ICU_INPUT_ACTIVE_LOW\000"
 21174      494E5055 
 21174      545F4143 
 21174      54495645 
 21174      5F4C4F57 
 21175              	.LASF329:
 21176 1ac6 5F73746D 		.ascii	"_stm32_dma_streams\000"
ARM GAS  /tmp/ccJYnsep.s 			page 397


 21176      33325F64 
 21176      6D615F73 
 21176      74726561 
 21176      6D7300
 21177              	.LASF819:
 21178 1ad9 73656374 		.ascii	"sector\000"
 21178      6F7200
 21179              	.LASF118:
 21180 1ae0 5F676574 		.ascii	"_getdate_err\000"
 21180      64617465 
 21180      5F657272 
 21180      00
 21181              	.LASF433:
 21182 1aed 69637566 		.ascii	"icufreq_t\000"
 21182      7265715F 
 21182      7400
 21183              	.LASF714:
 21184 1af7 54415247 		.ascii	"TARGET_SEEK_CUR\000"
 21184      45545F53 
 21184      45454B5F 
 21184      43555200 
 21185              	.LASF158:
 21186 1b07 705F7374 		.ascii	"p_stklimit\000"
 21186      6B6C696D 
 21186      697400
 21187              	.LASF147:
 21188 1b12 636E745F 		.ascii	"cnt_t\000"
 21188      7400
 21189              	.LASF505:
 21190 1b18 5553425F 		.ascii	"USB_EP0_WAITING_TX0\000"
 21190      4550305F 
 21190      57414954 
 21190      494E475F 
 21190      54583000 
 21191              	.LASF483:
 21192 1b2c 6570306E 		.ascii	"ep0next\000"
 21192      65787400 
 21193              	.LASF677:
 21194 1b34 54415247 		.ascii	"TARGET_HALT_FAULT\000"
 21194      45545F48 
 21194      414C545F 
 21194      4641554C 
 21194      5400
 21195              	.LASF679:
 21196 1b46 74617267 		.ascii	"target_breakwatch\000"
 21196      65745F62 
 21196      7265616B 
 21196      77617463 
 21196      6800
 21197              	.LASF534:
 21198 1b58 73746D33 		.ascii	"stm32_otg_host_chn_t\000"
 21198      325F6F74 
 21198      675F686F 
 21198      73745F63 
 21198      686E5F74 
 21199              	.LASF338:
 21200 1b6d 41465248 		.ascii	"AFRH\000"
ARM GAS  /tmp/ccJYnsep.s 			page 398


 21200      00
 21201              	.LASF337:
 21202 1b72 4146524C 		.ascii	"AFRL\000"
 21202      00
 21203              	.LASF779:
 21204 1b77 6C6F775F 		.ascii	"low_access\000"
 21204      61636365 
 21204      737300
 21205              	.LASF712:
 21206 1b82 74617267 		.ascii	"target_seek_flag\000"
 21206      65745F73 
 21206      65656B5F 
 21206      666C6167 
 21206      00
 21207              	.LASF130:
 21208 1b93 5F696D70 		.ascii	"_impure_ptr\000"
 21208      7572655F 
 21208      70747200 
 21209              	.LASF285:
 21210 1b9f 63665F6F 		.ascii	"cf_off_preempt\000"
 21210      66665F70 
 21210      7265656D 
 21210      707400
 21211              	.LASF70:
 21212 1bae 5F626C6B 		.ascii	"_blksize\000"
 21212      73697A65 
 21212      00
 21213              	.LASF529:
 21214 1bb7 4843494E 		.ascii	"HCINTMSK\000"
 21214      544D534B 
 21214      00
 21215              	.LASF68:
 21216 1bc0 5F756275 		.ascii	"_ubuf\000"
 21216      6600
 21217              	.LASF367:
 21218 1bc6 636F6E66 		.ascii	"config\000"
 21218      696700
 21219              	.LASF113:
 21220 1bcd 5F6D626C 		.ascii	"_mblen_state\000"
 21220      656E5F73 
 21220      74617465 
 21220      00
 21221              	.LASF96:
 21222 1bda 5F5F7367 		.ascii	"__sglue\000"
 21222      6C756500 
 21223              	.LASF129:
 21224 1be2 5F5F6C6F 		.ascii	"__locale_t\000"
 21224      63616C65 
 21224      5F7400
 21225              	.LASF741:
 21226 1bed 6275665F 		.ascii	"buf_size\000"
 21226      73697A65 
 21226      00
 21227              	.LASF86:
 21228 1bf6 5F5F636C 		.ascii	"__cleanup\000"
 21228      65616E75 
 21228      7000
ARM GAS  /tmp/ccJYnsep.s 			page 399


 21229              	.LASF682:
 21230 1c00 54415247 		.ascii	"TARGET_WATCH_WRITE\000"
 21230      45545F57 
 21230      41544348 
 21230      5F575249 
 21230      544500
 21231              	.LASF413:
 21232 1c13 4943555F 		.ascii	"ICU_ACTIVE\000"
 21232      41435449 
 21232      564500
 21233              	.LASF759:
 21234 1c1e 69725F6C 		.ascii	"ir_len\000"
 21234      656E00
 21235              	.LASF185:
 21236 1c25 76746675 		.ascii	"vtfunc_t\000"
 21236      6E635F74 
 21236      00
 21237              	.LASF214:
 21238 1c2e 43414E5F 		.ascii	"CAN_FIFOMailBox_TypeDef\000"
 21238      4649464F 
 21238      4D61696C 
 21238      426F785F 
 21238      54797065 
 21239              	.LASF257:
 21240 1c46 77746F62 		.ascii	"wtobjp\000"
 21240      6A7000
 21241              	.LASF23:
 21242 1c4d 5F66706F 		.ascii	"_fpos_t\000"
 21242      735F7400 
 21243              	.LASF61:
 21244 1c55 5F66696C 		.ascii	"_file\000"
 21244      6500
 21245              	.LASF169:
 21246 1c5b 705F7265 		.ascii	"p_realprio\000"
 21246      616C7072 
 21246      696F00
 21247              	.LASF308:
 21248 1c66 715F6E6F 		.ascii	"q_notify\000"
 21248      74696679 
 21248      00
 21249              	.LASF260:
 21250 1c6f 77746D74 		.ascii	"wtmtxp\000"
 21250      787000
 21251              	.LASF59:
 21252 1c76 5F5F7346 		.ascii	"__sFILE\000"
 21252      494C4500 
 21253              	.LASF738:
 21254 1c7e 65726173 		.ascii	"erase\000"
 21254      6500
 21255              	.LASF315:
 21256 1c84 646F7562 		.ascii	"double\000"
 21256      6C6500
 21257              	.LASF55:
 21258 1c8b 5F666E73 		.ascii	"_fns\000"
 21258      00
 21259              	.LASF617:
 21260 1c90 5553424F 		.ascii	"USBOutEndpointState\000"
ARM GAS  /tmp/ccJYnsep.s 			page 400


 21260      7574456E 
 21260      64706F69 
 21260      6E745374 
 21260      61746500 
 21261              	.LASF573:
 21262 1ca4 72657376 		.ascii	"resvd41C\000"
 21262      64343143 
 21262      00
 21263              	.LASF29:
 21264 1cad 5F6D6273 		.ascii	"_mbstate_t\000"
 21264      74617465 
 21264      5F7400
 21265              	.LASF124:
 21266 1cb8 5F685F65 		.ascii	"_h_errno\000"
 21266      72726E6F 
 21266      00
 21267              	.LASF638:
 21268 1cc1 706C6174 		.ascii	"platform_swdio_pin\000"
 21268      666F726D 
 21268      5F737764 
 21268      696F5F70 
 21268      696E00
 21269              	.LASF211:
 21270 1cd4 52445452 		.ascii	"RDTR\000"
 21270      00
 21271              	.LASF808:
 21272 1cd9 61726776 		.ascii	"argv\000"
 21272      00
 21273              	.LASF511:
 21274 1cde 5553425F 		.ascii	"USB_EVENT_RESET\000"
 21274      4556454E 
 21274      545F5245 
 21274      53455400 
 21275              	.LASF178:
 21276 1cee 63685F72 		.ascii	"ch_ready_list\000"
 21276      65616479 
 21276      5F6C6973 
 21276      7400
 21277              	.LASF334:
 21278 1cfc 50555044 		.ascii	"PUPDR\000"
 21278      5200
 21279              	.LASF6:
 21280 1d02 5F5F696E 		.ascii	"__int32_t\000"
 21280      7433325F 
 21280      7400
 21281              	.LASF8:
 21282 1d0c 5F5F7569 		.ascii	"__uint32_t\000"
 21282      6E743332 
 21282      5F7400
 21283              	.LASF718:
 21284 1d17 7072696E 		.ascii	"printf\000"
 21284      746600
 21285              	.LASF417:
 21286 1d1e 77636372 		.ascii	"wccrp\000"
 21286      7000
 21287              	.LASF197:
 21288 1d24 63685F73 		.ascii	"ch_system_debug\000"
ARM GAS  /tmp/ccJYnsep.s 			page 401


 21288      79737465 
 21288      6D5F6465 
 21288      62756700 
 21289              	.LASF849:
 21290 1d34 63616C6C 		.ascii	"calloc\000"
 21290      6F6300
 21291              	.LASF584:
 21292 1d3b 4441494E 		.ascii	"DAINTMSK\000"
 21292      544D534B 
 21292      00
 21293              	.LASF28:
 21294 1d44 5F5F7661 		.ascii	"__value\000"
 21294      6C756500 
 21295              	.LASF503:
 21296 1d4c 5553425F 		.ascii	"USB_EP0_WAITING_SETUP\000"
 21296      4550305F 
 21296      57414954 
 21296      494E475F 
 21296      53455455 
 21297              	.LASF52:
 21298 1d62 5F69735F 		.ascii	"_is_cxa\000"
 21298      63786100 
 21299              	.LASF345:
 21300 1d6a 61667268 		.ascii	"afrh\000"
 21300      00
 21301              	.LASF410:
 21302 1d6f 4943555F 		.ascii	"ICU_STOP\000"
 21302      53544F50 
 21302      00
 21303              	.LASF344:
 21304 1d78 6166726C 		.ascii	"afrl\000"
 21304      00
 21305              	.LASF715:
 21306 1d7d 54415247 		.ascii	"TARGET_SEEK_END\000"
 21306      45545F53 
 21306      45454B5F 
 21306      454E4400 
 21307              	.LASF607:
 21308 1d8d 71756575 		.ascii	"queue\000"
 21308      6500
 21309              	.LASF485:
 21310 1d93 65703065 		.ascii	"ep0endcb\000"
 21310      6E646362 
 21310      00
 21311              	.LASF326:
 21312 1d9c 73656C66 		.ascii	"selfindex\000"
 21312      696E6465 
 21312      7800
 21313              	.LASF289:
 21314 1da6 6D757465 		.ascii	"mutex_t\000"
 21314      785F7400 
 21315              	.LASF89:
 21316 1dae 5F703573 		.ascii	"_p5s\000"
 21316      00
 21317              	.LASF167:
 21318 1db3 705F6570 		.ascii	"p_epending\000"
 21318      656E6469 
ARM GAS  /tmp/ccJYnsep.s 			page 402


 21318      6E6700
 21319              	.LASF577:
 21320 1dbe 44434647 		.ascii	"DCFG\000"
 21320      00
 21321              	.LASF331:
 21322 1dc3 4D4F4445 		.ascii	"MODER\000"
 21322      5200
 21323              	.LASF784:
 21324 1dc9 62617365 		.ascii	"base\000"
 21324      00
 21325              	.LASF218:
 21326 1dce 52455345 		.ascii	"RESERVED0\000"
 21326      52564544 
 21326      3000
 21327              	.LASF221:
 21328 1dd8 52455345 		.ascii	"RESERVED1\000"
 21328      52564544 
 21328      3100
 21329              	.LASF223:
 21330 1de2 52455345 		.ascii	"RESERVED2\000"
 21330      52564544 
 21330      3200
 21331              	.LASF225:
 21332 1dec 52455345 		.ascii	"RESERVED3\000"
 21332      52564544 
 21332      3300
 21333              	.LASF227:
 21334 1df6 52455345 		.ascii	"RESERVED4\000"
 21334      52564544 
 21334      3400
 21335              	.LASF229:
 21336 1e00 52455345 		.ascii	"RESERVED5\000"
 21336      52564544 
 21336      3500
 21337              	.LASF628:
 21338 1e0a 55534245 		.ascii	"USBEndpointConfig\000"
 21338      6E64706F 
 21338      696E7443 
 21338      6F6E6669 
 21338      6700
 21339              	.LASF369:
 21340 1e1c 72787175 		.ascii	"rxqueue\000"
 21340      65756500 
 21341              	.LASF575:
 21342 1e24 72657376 		.ascii	"resvd444\000"
 21342      64343434 
 21342      00
 21343              	.LASF358:
 21344 1e2d 70616C5F 		.ascii	"pal_default_config\000"
 21344      64656661 
 21344      756C745F 
 21344      636F6E66 
 21344      696700
 21345              	.LASF293:
 21346 1e40 656C5F6C 		.ascii	"el_listener\000"
 21346      69737465 
 21346      6E657200 
ARM GAS  /tmp/ccJYnsep.s 			page 403


 21347              	.LASF606:
 21348 1e4c 6C696E65 		.ascii	"linear\000"
 21348      617200
 21349              	.LASF429:
 21350 1e53 73746D33 		.ascii	"stm32_tim_t\000"
 21350      325F7469 
 21350      6D5F7400 
 21351              	.LASF794:
 21352 1e5f 49445F53 		.ascii	"ID_STM32F40X\000"
 21352      544D3332 
 21352      46343058 
 21352      00
 21353              	.LASF180:
 21354 1e6c 725F7072 		.ascii	"r_prio\000"
 21354      696F00
 21355              	.LASF491:
 21356 1e73 706D6E65 		.ascii	"pmnext\000"
 21356      787400
 21357              	.LASF137:
 21358 1e7a 6D6F6465 		.ascii	"mode_t\000"
 21358      5F7400
 21359              	.LASF805:
 21360 1e81 49445F53 		.ascii	"ID_STM32F410\000"
 21360      544D3332 
 21360      46343130 
 21360      00
 21361              	.LASF798:
 21362 1e8e 49445F53 		.ascii	"ID_STM32F411\000"
 21362      544D3332 
 21362      46343131 
 21362      00
 21363              	.LASF801:
 21364 1e9b 49445F53 		.ascii	"ID_STM32F412\000"
 21364      544D3332 
 21364      46343132 
 21364      00
 21365              	.LASF745:
 21366 1ea8 636D645F 		.ascii	"cmd_handler\000"
 21366      68616E64 
 21366      6C657200 
 21367              	.LASF205:
 21368 1eb4 49544D5F 		.ascii	"ITM_RxBuffer\000"
 21368      52784275 
 21368      66666572 
 21368      00
 21369              	.LASF435:
 21370 1ec1 4943555F 		.ascii	"ICU_CHANNEL_2\000"
 21370      4348414E 
 21370      4E454C5F 
 21370      3200
 21371              	.LASF12:
 21372 1ecf 6C6F6E67 		.ascii	"long long unsigned int\000"
 21372      206C6F6E 
 21372      6720756E 
 21372      7369676E 
 21372      65642069 
 21373              	.LASF253:
ARM GAS  /tmp/ccJYnsep.s 			page 404


 21374 1ee6 6F666673 		.ascii	"offset\000"
 21374      657400
 21375              	.LASF814:
 21376 1eed 73746D33 		.ascii	"stm32f4_cmd_erase_mass\000"
 21376      3266345F 
 21376      636D645F 
 21376      65726173 
 21376      655F6D61 
 21377              	.LASF475:
 21378 1f04 53504944 		.ascii	"SPID1\000"
 21378      3100
 21379              	.LASF693:
 21380 1f0a 54415247 		.ascii	"TARGET_EEXIST\000"
 21380      45545F45 
 21380      45584953 
 21380      5400
 21381              	.LASF232:
 21382 1f18 4E445452 		.ascii	"NDTR\000"
 21382      00
 21383              	.LASF298:
 21384 1f1d 65735F6E 		.ascii	"es_next\000"
 21384      65787400 
 21385              	.LASF110:
 21386 1f25 5F67616D 		.ascii	"_gamma_signgam\000"
 21386      6D615F73 
 21386      69676E67 
 21386      616D00
 21387              	.LASF541:
 21388 1f34 72657376 		.ascii	"resvd1C\000"
 21388      64314300 
 21389              	.LASF204:
 21390 1f3c 69646C65 		.ascii	"idle_thread_wa\000"
 21390      5F746872 
 21390      6561645F 
 21390      776100
 21391              	.LASF537:
 21392 1f4b 44494550 		.ascii	"DIEPINT\000"
 21392      494E5400 
 21393              	.LASF414:
 21394 1f53 69637573 		.ascii	"icustate_t\000"
 21394      74617465 
 21394      5F7400
 21395              	.LASF246:
 21396 1f5e 5350495F 		.ascii	"SPI_TypeDef\000"
 21396      54797065 
 21396      44656600 
 21397              	.LASF191:
 21398 1f6a 76745F66 		.ascii	"vt_func\000"
 21398      756E6300 
 21399              	.LASF420:
 21400 1f72 534D4352 		.ascii	"SMCR\000"
 21400      00
 21401              	.LASF853:
 21402 1f77 636F7274 		.ascii	"cortexm_attach\000"
 21402      65786D5F 
 21402      61747461 
 21402      636800
ARM GAS  /tmp/ccJYnsep.s 			page 405


 21403              	.LASF582:
 21404 1f86 444F4550 		.ascii	"DOEPMSK\000"
 21404      4D534B00 
 21405              	.LASF187:
 21406 1f8e 63685F76 		.ascii	"ch_virtual_timer\000"
 21406      69727475 
 21406      616C5F74 
 21406      696D6572 
 21406      00
 21407              	.LASF160:
 21408 1f9f 705F666C 		.ascii	"p_flags\000"
 21408      61677300 
 21409              	.LASF778:
 21410 1fa7 6572726F 		.ascii	"error\000"
 21410      7200
 21411              	.LASF261:
 21412 1fad 65776D61 		.ascii	"ewmask\000"
 21412      736B00
 21413              	.LASF295:
 21414 1fb4 656C5F66 		.ascii	"el_flags\000"
 21414      6C616773 
 21414      00
 21415              	.LASF795:
 21416 1fbd 49445F53 		.ascii	"ID_STM32F42X\000"
 21416      544D3332 
 21416      46343258 
 21416      00
 21417              	.LASF297:
 21418 1fca 6576656E 		.ascii	"event_source\000"
 21418      745F736F 
 21418      75726365 
 21418      00
 21419              	.LASF168:
 21420 1fd7 705F6D74 		.ascii	"p_mtxlist\000"
 21420      786C6973 
 21420      7400
 21421              	.LASF743:
 21422 1fe1 666C6173 		.ascii	"flash_write_func\000"
 21422      685F7772 
 21422      6974655F 
 21422      66756E63 
 21422      00
 21423              	.LASF376:
 21424 1ff2 43414E44 		.ascii	"CAND1\000"
 21424      3100
 21425              	.LASF224:
 21426 1ff8 46533152 		.ascii	"FS1R\000"
 21426      00
 21427              	.LASF140:
 21428 1ffd 74737461 		.ascii	"tstate_t\000"
 21428      74655F74 
 21428      00
 21429              	.LASF131:
 21430 2006 5F676C6F 		.ascii	"_global_impure_ptr\000"
 21430      62616C5F 
 21430      696D7075 
 21430      72655F70 
ARM GAS  /tmp/ccJYnsep.s 			page 406


 21430      747200
 21431              	.LASF583:
 21432 2019 4441494E 		.ascii	"DAINT\000"
 21432      5400
 21433              	.LASF474:
 21434 201f 53504943 		.ascii	"SPIConfig\000"
 21434      6F6E6669 
 21434      6700
 21435              	.LASF83:
 21436 2029 5F756E73 		.ascii	"_unspecified_locale_info\000"
 21436      70656369 
 21436      66696564 
 21436      5F6C6F63 
 21436      616C655F 
 21437              	.LASF343:
 21438 2042 70757064 		.ascii	"pupdr\000"
 21438      7200
 21439              	.LASF478:
 21440 2048 7472616E 		.ascii	"transmitting\000"
 21440      736D6974 
 21440      74696E67 
 21440      00
 21441              	.LASF157:
 21442 2055 705F6E61 		.ascii	"p_name\000"
 21442      6D6500
 21443              	.LASF85:
 21444 205c 5F5F7364 		.ascii	"__sdidinit\000"
 21444      6964696E 
 21444      697400
 21445              	.LASF451:
 21446 2067 53657269 		.ascii	"SerialDriver\000"
 21446      616C4472 
 21446      69766572 
 21446      00
 21447              	.LASF502:
 21448 2074 75736273 		.ascii	"usbstate_t\000"
 21448      74617465 
 21448      5F7400
 21449              	.LASF545:
 21450 207f 444F4550 		.ascii	"DOEPTSIZ\000"
 21450      5453495A 
 21450      00
 21451              	.LASF135:
 21452 2088 5F5F6170 		.ascii	"__ap\000"
 21452      00
 21453              	.LASF806:
 21454 208d 49445F53 		.ascii	"ID_STM32F413\000"
 21454      544D3332 
 21454      46343133 
 21454      00
 21455              	.LASF277:
 21456 209a 63665F6F 		.ascii	"cf_off_ctx\000"
 21456      66665F63 
 21456      747800
 21457              	.LASF831:
 21458 20a5 72656D61 		.ascii	"remains\000"
 21458      696E7300 
ARM GAS  /tmp/ccJYnsep.s 			page 407


 21459              	.LASF796:
 21460 20ad 49445F53 		.ascii	"ID_STM32F446\000"
 21460      544D3332 
 21460      46343436 
 21460      00
 21461              	.LASF30:
 21462 20ba 5F666C6F 		.ascii	"_flock_t\000"
 21462      636B5F74 
 21462      00
 21463              	.LASF193:
 21464 20c3 76697274 		.ascii	"virtual_timers_list_t\000"
 21464      75616C5F 
 21464      74696D65 
 21464      72735F6C 
 21464      6973745F 
 21465              	.LASF501:
 21466 20d9 5553425F 		.ascii	"USB_SUSPENDED\000"
 21466      53555350 
 21466      454E4445 
 21466      4400
 21467              	.LASF340:
 21468 20e7 6D6F6465 		.ascii	"moder\000"
 21468      7200
 21469              	.LASF729:
 21470 20ed 6572726E 		.ascii	"errno_\000"
 21470      6F5F00
 21471              	.LASF469:
 21472 20f4 53504944 		.ascii	"SPIDriver\000"
 21472      72697665 
 21472      7200
 21473              	.LASF263:
 21474 20fe 735F7175 		.ascii	"s_queue\000"
 21474      65756500 
 21475              	.LASF244:
 21476 2106 49325343 		.ascii	"I2SCFGR\000"
 21476      46475200 
 21477              	.LASF744:
 21478 210e 666C6173 		.ascii	"flash_done_func\000"
 21478      685F646F 
 21478      6E655F66 
 21478      756E6300 
 21479              	.LASF269:
 21480 211e 63685F69 		.ascii	"ch_identifier\000"
 21480      64656E74 
 21480      69666965 
 21480      7200
 21481              	.LASF461:
 21482 212c 77726974 		.ascii	"writet\000"
 21482      657400
 21483              	.LASF10:
 21484 2133 6C6F6E67 		.ascii	"long long int\000"
 21484      206C6F6E 
 21484      6720696E 
 21484      7400
 21485              	.LASF563:
 21486 2141 48505458 		.ascii	"HPTXFSIZ\000"
 21486      4653495A 
ARM GAS  /tmp/ccJYnsep.s 			page 408


 21486      00
 21487              	.LASF276:
 21488 214a 63665F6F 		.ascii	"cf_off_prio\000"
 21488      66665F70 
 21488      72696F00 
 21489              	.LASF75:
 21490 2156 5F666C61 		.ascii	"_flags2\000"
 21490      67733200 
 21491              	.LASF747:
 21492 215e 68616E64 		.ascii	"handler\000"
 21492      6C657200 
 21493              	.LASF645:
 21494 2166 64657461 		.ascii	"detach\000"
 21494      636800
 21495              	.LASF432:
 21496 216d 6963756D 		.ascii	"icumode_t\000"
 21496      6F64655F 
 21496      7400
 21497              	.LASF610:
 21498 2177 7478636E 		.ascii	"txcnt\000"
 21498      7400
 21499              	.LASF630:
 21500 217d 6765745F 		.ascii	"get_descriptor_cb\000"
 21500      64657363 
 21500      72697074 
 21500      6F725F63 
 21500      6200
 21501              	.LASF84:
 21502 218f 5F6C6F63 		.ascii	"_locale\000"
 21502      616C6500 
 21503              	.LASF146:
 21504 2197 6576656E 		.ascii	"eventflags_t\000"
 21504      74666C61 
 21504      67735F74 
 21504      00
 21505              	.LASF465:
 21506 21a4 5350495F 		.ascii	"SPI_READY\000"
 21506      52454144 
 21506      5900
 21507              	.LASF811:
 21508 21ae 73746D33 		.ascii	"stm32f4_cmd_psize\000"
 21508      3266345F 
 21508      636D645F 
 21508      7073697A 
 21508      6500
 21509              	.LASF655:
 21510 21c0 68616C74 		.ascii	"halt_request\000"
 21510      5F726571 
 21510      75657374 
 21510      00
 21511              	.LASF751:
 21512 21cd 636D6473 		.ascii	"cmds\000"
 21512      00
 21513              	.LASF599:
 21514 21d2 4649464F 		.ascii	"FIFO\000"
 21514      00
 21515              	.LASF220:
ARM GAS  /tmp/ccJYnsep.s 			page 409


 21516 21d7 73464946 		.ascii	"sFIFOMailBox\000"
 21516      4F4D6169 
 21516      6C426F78 
 21516      00
 21517              	.LASF694:
 21518 21e4 54415247 		.ascii	"TARGET_ENODEV\000"
 21518      45545F45 
 21518      4E4F4445 
 21518      5600
 21519              	.LASF637:
 21520 21f2 706C6174 		.ascii	"platform_swdio_port\000"
 21520      666F726D 
 21520      5F737764 
 21520      696F5F70 
 21520      6F727400 
 21521              	.LASF578:
 21522 2206 4443544C 		.ascii	"DCTL\000"
 21522      00
 21523              	.LASF605:
 21524 220b 74786275 		.ascii	"txbuf\000"
 21524      6600
 21525              	.LASF597:
 21526 2211 50434743 		.ascii	"PCGCCTL\000"
 21526      43544C00 
 21527              	.LASF515:
 21528 2219 5553425F 		.ascii	"USB_EVENT_WAKEUP\000"
 21528      4556454E 
 21528      545F5741 
 21528      4B455550 
 21528      00
 21529              	.LASF660:
 21530 222a 62775F6C 		.ascii	"bw_list\000"
 21530      69737400 
 21531              	.LASF156:
 21532 2232 705F6F6C 		.ascii	"p_older\000"
 21532      64657200 
 21533              	.LASF355:
 21534 223a 50494461 		.ascii	"PIData\000"
 21534      746100
 21535              	.LASF627:
 21536 2241 73657475 		.ascii	"setup_buf\000"
 21536      705F6275 
 21536      6600
 21537              	.LASF560:
 21538 224b 72657376 		.ascii	"resvd34\000"
 21538      64333400 
 21539              	.LASF821:
 21540 2253 6475616C 		.ascii	"dual_bank\000"
 21540      5F62616E 
 21540      6B00
 21541              	.LASF472:
 21542 225d 7373706F 		.ascii	"ssport\000"
 21542      727400
 21543              	.LASF409:
 21544 2264 4943555F 		.ascii	"ICU_UNINIT\000"
 21544      554E494E 
 21544      495400
ARM GAS  /tmp/ccJYnsep.s 			page 410


 21545              	.LASF172:
 21546 226f 74687265 		.ascii	"thread_reference_t\000"
 21546      61645F72 
 21546      65666572 
 21546      656E6365 
 21546      5F7400
 21547              	.LASF479:
 21548 2282 72656365 		.ascii	"receiving\000"
 21548      6976696E 
 21548      6700
 21549              	.LASF98:
 21550 228c 5F5F4649 		.ascii	"__FILE\000"
 21550      4C4500
 21551              	.LASF438:
 21552 2293 66726571 		.ascii	"frequency\000"
 21552      75656E63 
 21552      7900
 21553              	.LASF834:
 21554 229d 63707569 		.ascii	"cpuid\000"
 21554      6400
 21555              	.LASF852:
 21556 22a3 74617267 		.ascii	"target_add_ram\000"
 21556      65745F61 
 21556      64645F72 
 21556      616D00
 21557              	.LASF35:
 21558 22b2 5F736967 		.ascii	"_sign\000"
 21558      6E00
 21559              	.LASF624:
 21560 22b8 696E5F73 		.ascii	"in_state\000"
 21560      74617465 
 21560      00
 21561              	.LASF764:
 21562 22c1 6A746167 		.ascii	"jtag_dev_t\000"
 21562      5F646576 
 21562      5F7400
 21563              	.LASF40:
 21564 22cc 5F5F746D 		.ascii	"__tm_min\000"
 21564      5F6D696E 
 21564      00
 21565              	.LASF856:
 21566 22d5 2F626C64 		.ascii	"/bldc\000"
 21566      6300
 21567              	.LASF392:
 21568 22db 46415354 		.ascii	"FAST_DUTY_CYCLE_2\000"
 21568      5F445554 
 21568      595F4359 
 21568      434C455F 
 21568      3200
 21569              	.LASF275:
 21570 22ed 63685F74 		.ascii	"ch_threadsize\000"
 21570      68726561 
 21570      6473697A 
 21570      6500
 21571              	.LASF239:
 21572 22fb 464C5452 		.ascii	"FLTR\000"
 21572      00
ARM GAS  /tmp/ccJYnsep.s 			page 411


 21573              	.LASF422:
 21574 2300 43434D52 		.ascii	"CCMR1\000"
 21574      3100
 21575              	.LASF423:
 21576 2306 43434D52 		.ascii	"CCMR2\000"
 21576      3200
 21577              	.LASF427:
 21578 230c 43434D52 		.ascii	"CCMR3\000"
 21578      3300
 21579              	.LASF13:
 21580 2312 756E7369 		.ascii	"unsigned int\000"
 21580      676E6564 
 21580      20696E74 
 21580      00
 21581              	.LASF112:
 21582 231f 5F723438 		.ascii	"_r48\000"
 21582      00
 21583              	.LASF567:
 21584 2324 48464952 		.ascii	"HFIR\000"
 21584      00
 21585              	.LASF496:
 21586 2329 5553425F 		.ascii	"USB_UNINIT\000"
 21586      554E494E 
 21586      495400
 21587              	.LASF323:
 21588 2334 73747265 		.ascii	"stream\000"
 21588      616D00
 21589              	.LASF681:
 21590 233b 54415247 		.ascii	"TARGET_BREAK_HARD\000"
 21590      45545F42 
 21590      5245414B 
 21590      5F484152 
 21590      4400
 21591              	.LASF390:
 21592 234d 6932636F 		.ascii	"i2copmode_t\000"
 21592      706D6F64 
 21592      655F7400 
 21593              	.LASF837:
 21594 2359 73747263 		.ascii	"strcmp\000"
 21594      6D7000
 21595              	.LASF730:
 21596 2360 696E7465 		.ascii	"interrupted\000"
 21596      72727570 
 21596      74656400 
 21597              	.LASF270:
 21598 236c 63685F7A 		.ascii	"ch_zero\000"
 21598      65726F00 
 21599              	.LASF2:
 21600 2374 73686F72 		.ascii	"short int\000"
 21600      7420696E 
 21600      7400
 21601              	.LASF521:
 21602 237e 75736263 		.ascii	"usbcallback_t\000"
 21602      616C6C62 
 21602      61636B5F 
 21602      7400
 21603              	.LASF64:
ARM GAS  /tmp/ccJYnsep.s 			page 412


 21604 238c 5F726561 		.ascii	"_read\000"
 21604      6400
 21605              	.LASF671:
 21606 2392 54415247 		.ascii	"TARGET_HALT_RUNNING\000"
 21606      45545F48 
 21606      414C545F 
 21606      52554E4E 
 21606      494E4700 
 21607              	.LASF550:
 21608 23a6 47555342 		.ascii	"GUSBCFG\000"
 21608      43464700 
 21609              	.LASF248:
 21610 23ae 55534152 		.ascii	"USART_TypeDef\000"
 21610      545F5479 
 21610      70654465 
 21610      6600
 21611              	.LASF792:
 21612 23bc 4944535F 		.ascii	"IDS_STM32F247\000"
 21612      53544D33 
 21612      32463234 
 21612      3700
 21613              	.LASF312:
 21614 23ca 6F757470 		.ascii	"output_queue_t\000"
 21614      75745F71 
 21614      75657565 
 21614      5F7400
 21615              	.LASF102:
 21616 23d9 5F72616E 		.ascii	"_rand48\000"
 21616      64343800 
 21617              	.LASF600:
 21618 23e1 73746D33 		.ascii	"stm32_otg_t\000"
 21618      325F6F74 
 21618      675F7400 
 21619              	.LASF397:
 21620 23ed 64757479 		.ascii	"duty_cycle\000"
 21620      5F637963 
 21620      6C6500
 21621              	.LASF518:
 21622 23f8 75645F73 		.ascii	"ud_size\000"
 21622      697A6500 
 21623              	.LASF777:
 21624 2400 64705F72 		.ascii	"dp_read\000"
 21624      65616400 
 21625              	.LASF622:
 21626 2408 696E5F6D 		.ascii	"in_maxsize\000"
 21626      61787369 
 21626      7A6500
 21627              	.LASF134:
 21628 2413 5F5F7661 		.ascii	"__va_list\000"
 21628      5F6C6973 
 21628      7400
 21629              	.LASF352:
 21630 241d 50464461 		.ascii	"PFData\000"
 21630      746100
 21631              	.LASF159:
 21632 2424 705F7374 		.ascii	"p_state\000"
 21632      61746500 
ARM GAS  /tmp/ccJYnsep.s 			page 413


 21633              	.LASF174:
 21634 242c 63685F74 		.ascii	"ch_threads_list\000"
 21634      68726561 
 21634      64735F6C 
 21634      69737400 
 21635              	.LASF236:
 21636 243c 4F415231 		.ascii	"OAR1\000"
 21636      00
 21637              	.LASF237:
 21638 2441 4F415232 		.ascii	"OAR2\000"
 21638      00
 21639              	.LASF657:
 21640 2446 68616C74 		.ascii	"halt_resume\000"
 21640      5F726573 
 21640      756D6500 
 21641              	.LASF449:
 21642 2452 53445F52 		.ascii	"SD_READY\000"
 21642      45414459 
 21642      00
 21643              		.ident	"GCC: (GNU Tools for Arm Embedded Processors 7-2018-q3-update) 7.3.1 20180622 (release) [AR
ARM GAS  /tmp/ccJYnsep.s 			page 414


DEFINED SYMBOLS
                            *ABS*:0000000000000000 stm32f4.c
     /tmp/ccJYnsep.s:18     .text.stm32f4_flash_write:0000000000000000 $t
     /tmp/ccJYnsep.s:25     .text.stm32f4_flash_write:0000000000000000 stm32f4_flash_write
     /tmp/ccJYnsep.s:139    .text.stm32f4_flash_write:0000000000000084 $d
     /tmp/ccJYnsep.s:147    .text.stm32f7_detach:0000000000000000 $t
     /tmp/ccJYnsep.s:154    .text.stm32f7_detach:0000000000000000 stm32f7_detach
     /tmp/ccJYnsep.s:187    .text.stm32f7_detach:0000000000000018 $d
     /tmp/ccJYnsep.s:192    .text.stm32f4_cmd_psize:0000000000000000 $t
     /tmp/ccJYnsep.s:199    .text.stm32f4_cmd_psize:0000000000000000 stm32f4_cmd_psize
     /tmp/ccJYnsep.s:402    .text.stm32f4_cmd_psize:00000000000000a4 $d
     /tmp/ccJYnsep.s:413    .text.stm32f4_flash_unlock:0000000000000000 $t
     /tmp/ccJYnsep.s:420    .text.stm32f4_flash_unlock:0000000000000000 stm32f4_flash_unlock
     /tmp/ccJYnsep.s:472    .text.stm32f4_flash_unlock:0000000000000028 $d
     /tmp/ccJYnsep.s:482    .text.stm32f4_flash_erase:0000000000000000 $t
     /tmp/ccJYnsep.s:489    .text.stm32f4_flash_erase:0000000000000000 stm32f4_flash_erase
     /tmp/ccJYnsep.s:688    .text.stm32f4_flash_erase:00000000000000d8 $d
     /tmp/ccJYnsep.s:700    .text.stm32f4_option_write:0000000000000000 $t
     /tmp/ccJYnsep.s:707    .text.stm32f4_option_write:0000000000000000 stm32f4_option_write
     /tmp/ccJYnsep.s:868    .text.stm32f4_option_write:00000000000000bc $d
     /tmp/ccJYnsep.s:882    .text.stm32f4_cmd_erase_mass:0000000000000000 $t
     /tmp/ccJYnsep.s:889    .text.stm32f4_cmd_erase_mass:0000000000000000 stm32f4_cmd_erase_mass
     /tmp/ccJYnsep.s:1032   .text.stm32f4_cmd_erase_mass:0000000000000098 $d
     /tmp/ccJYnsep.s:1046   .text.stm32f4_add_flash.part.4:0000000000000000 $t
     /tmp/ccJYnsep.s:1053   .text.stm32f4_add_flash.part.4:0000000000000000 stm32f4_add_flash.part.4
     /tmp/ccJYnsep.s:1144   .text.stm32f4_add_flash.part.4:0000000000000054 $d
     /tmp/ccJYnsep.s:1150   .text.stm32f4_attach:0000000000000000 $t
     /tmp/ccJYnsep.s:1157   .text.stm32f4_attach:0000000000000000 stm32f4_attach
     /tmp/ccJYnsep.s:1196   .text.stm32f4_attach:0000000000000026 $d
     /tmp/ccJYnsep.s:1279   .text.stm32f4_attach:00000000000000cc $t
     /tmp/ccJYnsep.s:1883   .text.stm32f4_attach:0000000000000464 $d
     /tmp/ccJYnsep.s:1899   .text.stm32f4_attach:0000000000000488 $t
     /tmp/ccJYnsep.s:2136   .text.stm32f4_attach:00000000000005f8 $d
     /tmp/ccJYnsep.s:2149   .text.stm32f4_get_chip_name:0000000000000000 $t
     /tmp/ccJYnsep.s:2157   .text.stm32f4_get_chip_name:0000000000000000 stm32f4_get_chip_name
     /tmp/ccJYnsep.s:2180   .text.stm32f4_get_chip_name:0000000000000014 $d
     /tmp/ccJYnsep.s:2185   .text.stm32f4_probe:0000000000000000 $t
     /tmp/ccJYnsep.s:2193   .text.stm32f4_probe:0000000000000000 stm32f4_probe
     /tmp/ccJYnsep.s:2232   .text.stm32f4_probe:000000000000002a $d
     /tmp/ccJYnsep.s:2394   .text.stm32f4_probe:00000000000000e0 $d
     /tmp/ccJYnsep.s:2406   .text.optcr_mask:0000000000000000 $t
     /tmp/ccJYnsep.s:2414   .text.optcr_mask:0000000000000000 optcr_mask
     /tmp/ccJYnsep.s:2430   .text.optcr_mask:0000000000000010 $d
     /tmp/ccJYnsep.s:2627   .text.optcr_mask:00000000000000e8 $d
     /tmp/ccJYnsep.s:2634   .text.stm32f4_cmd_option:0000000000000000 $t
     /tmp/ccJYnsep.s:2641   .text.stm32f4_cmd_option:0000000000000000 stm32f4_cmd_option
     /tmp/ccJYnsep.s:3152   .text.stm32f4_cmd_option:00000000000002c4 $d
     /tmp/ccJYnsep.s:3284   .rodata.stm32f4_cmd_list:0000000000000000 stm32f4_cmd_list
     /tmp/ccJYnsep.s:3179   .rodata.CSWTCH.16:0000000000000000 $d
     /tmp/ccJYnsep.s:3183   .rodata.CSWTCH.16:0000000000000000 CSWTCH.16
     /tmp/ccJYnsep.s:3268   .rodata.stm32f4_cmd_erase_mass.str1.4:0000000000000000 $d
     /tmp/ccJYnsep.s:3280   .rodata.stm32f4_cmd_list:0000000000000000 $d
     /tmp/ccJYnsep.s:3298   .rodata.stm32f4_cmd_option.str1.4:0000000000000000 $d
     /tmp/ccJYnsep.s:3331   .rodata.stm32f4_cmd_psize.str1.4:0000000000000000 $d
     /tmp/ccJYnsep.s:3347   .rodata.stm32f4_flash_erase.str1.4:0000000000000000 $d
     /tmp/ccJYnsep.s:3354   .rodata.stm32f4_flash_write.str1.4:0000000000000000 $d
     /tmp/ccJYnsep.s:3361   .rodata.stm32f4_probe.str1.4:0000000000000000 $d
ARM GAS  /tmp/ccJYnsep.s 			page 415


     /tmp/ccJYnsep.s:3368   .rodata.str1.4:0000000000000000 $d
     /tmp/ccJYnsep.s:2315   .text.stm32f4_probe:000000000000007d $d
     /tmp/ccJYnsep.s:2315   .text.stm32f4_probe:000000000000007e $t
     /tmp/ccJYnsep.s:2513   .text.optcr_mask:0000000000000063 $d
     /tmp/ccJYnsep.s:2513   .text.optcr_mask:0000000000000064 $t

UNDEFINED SYMBOLS
target_mem_write32
cortexm_mem_write_sized
platform_delay
target_mem_read32
target_check_error
commands_printf
cortexm_detach
strcmp
tc_printf
calloc
target_add_flash
cortexm_attach
target_mem_map_free
target_add_ram
cortexm_ap
target_add_commands
strtoul
