ARM GAS  /tmp/cc2SsK4b.s 			page 1


   1              		.cpu cortex-m4
   2              		.eabi_attribute 27, 1
   3              		.eabi_attribute 28, 1
   4              		.eabi_attribute 20, 1
   5              		.eabi_attribute 21, 1
   6              		.eabi_attribute 23, 3
   7              		.eabi_attribute 24, 1
   8              		.eabi_attribute 25, 1
   9              		.eabi_attribute 26, 1
  10              		.eabi_attribute 30, 2
  11              		.eabi_attribute 34, 1
  12              		.eabi_attribute 18, 4
  13              		.file	"stm32f4xx_rcc.c"
  14              		.text
  15              	.Ltext0:
  16              		.cfi_sections	.debug_frame
  17              		.section	.text.RCC_DeInit,"ax",%progbits
  18              		.align	1
  19              		.p2align 4,,15
  20              		.global	RCC_DeInit
  21              		.syntax unified
  22              		.thumb
  23              		.thumb_func
  24              		.fpu fpv4-sp-d16
  25              		.type	RCC_DeInit, %function
  26              	RCC_DeInit:
  27              	.LFB112:
  28              		.file 1 "ChibiOS_3.0.5/ext/stdperiph_stm32f4/src/stm32f4xx_rcc.c"
  29              		.loc 1 242 0
  30              		.cfi_startproc
  31              		@ args = 0, pretend = 0, frame = 0
  32              		@ frame_needed = 0, uses_anonymous_args = 0
  33              		@ link register save eliminated.
  34              		.loc 1 244 0
  35 0000 0D4B     		ldr	r3, .L4
  36              		.loc 1 257 0
  37 0002 0E48     		ldr	r0, .L4+4
  38              		.loc 1 244 0
  39 0004 1A68     		ldr	r2, [r3]
  40              		.loc 1 247 0
  41 0006 0021     		movs	r1, #0
  42              		.loc 1 244 0
  43 0008 42F00102 		orr	r2, r2, #1
  44              		.loc 1 242 0
  45 000c 10B4     		push	{r4}
  46              		.cfi_def_cfa_offset 4
  47              		.cfi_offset 4, -4
  48              		.loc 1 244 0
  49 000e 1A60     		str	r2, [r3]
  50              		.loc 1 247 0
  51 0010 9960     		str	r1, [r3, #8]
  52              		.loc 1 250 0
  53 0012 1A68     		ldr	r2, [r3]
  54              		.loc 1 253 0
  55 0014 0A4C     		ldr	r4, .L4+8
  56              		.loc 1 250 0
  57 0016 22F0A852 		bic	r2, r2, #352321536
ARM GAS  /tmp/cc2SsK4b.s 			page 2


  58 001a 22F41022 		bic	r2, r2, #589824
  59 001e 1A60     		str	r2, [r3]
  60              		.loc 1 253 0
  61 0020 5C60     		str	r4, [r3, #4]
  62              		.loc 1 257 0
  63 0022 C3F88400 		str	r0, [r3, #132]
  64              		.loc 1 266 0
  65 0026 1A68     		ldr	r2, [r3]
  66              		.loc 1 270 0
  67 0028 5DF8044B 		ldr	r4, [sp], #4
  68              		.cfi_restore 4
  69              		.cfi_def_cfa_offset 0
  70              		.loc 1 266 0
  71 002c 22F48022 		bic	r2, r2, #262144
  72 0030 1A60     		str	r2, [r3]
  73              		.loc 1 269 0
  74 0032 D960     		str	r1, [r3, #12]
  75              		.loc 1 270 0
  76 0034 7047     		bx	lr
  77              	.L5:
  78 0036 00BF     		.align	2
  79              	.L4:
  80 0038 00380240 		.word	1073887232
  81 003c 00300020 		.word	536883200
  82 0040 10300024 		.word	603992080
  83              		.cfi_endproc
  84              	.LFE112:
  85              		.size	RCC_DeInit, .-RCC_DeInit
  86              		.section	.text.RCC_HSEConfig,"ax",%progbits
  87              		.align	1
  88              		.p2align 4,,15
  89              		.global	RCC_HSEConfig
  90              		.syntax unified
  91              		.thumb
  92              		.thumb_func
  93              		.fpu fpv4-sp-d16
  94              		.type	RCC_HSEConfig, %function
  95              	RCC_HSEConfig:
  96              	.LFB113:
  97              		.loc 1 293 0
  98              		.cfi_startproc
  99              		@ args = 0, pretend = 0, frame = 0
 100              		@ frame_needed = 0, uses_anonymous_args = 0
 101              		@ link register save eliminated.
 102              	.LVL0:
 103              		.loc 1 298 0
 104 0000 024B     		ldr	r3, .L7
 105 0002 0022     		movs	r2, #0
 106 0004 1A70     		strb	r2, [r3]
 107              		.loc 1 301 0
 108 0006 1870     		strb	r0, [r3]
 109              		.loc 1 302 0
 110 0008 7047     		bx	lr
 111              	.L8:
 112 000a 00BF     		.align	2
 113              	.L7:
 114 000c 02380240 		.word	1073887234
ARM GAS  /tmp/cc2SsK4b.s 			page 3


 115              		.cfi_endproc
 116              	.LFE113:
 117              		.size	RCC_HSEConfig, .-RCC_HSEConfig
 118              		.section	.text.RCC_WaitForHSEStartUp,"ax",%progbits
 119              		.align	1
 120              		.p2align 4,,15
 121              		.global	RCC_WaitForHSEStartUp
 122              		.syntax unified
 123              		.thumb
 124              		.thumb_func
 125              		.fpu fpv4-sp-d16
 126              		.type	RCC_WaitForHSEStartUp, %function
 127              	RCC_WaitForHSEStartUp:
 128              	.LFB114:
 129              		.loc 1 317 0
 130              		.cfi_startproc
 131              		@ args = 0, pretend = 0, frame = 8
 132              		@ frame_needed = 0, uses_anonymous_args = 0
 133              		@ link register save eliminated.
 134 0000 82B0     		sub	sp, sp, #8
 135              		.cfi_def_cfa_offset 8
 136              		.loc 1 318 0
 137 0002 0023     		movs	r3, #0
 138              	.LBB6:
 139              	.LBB7:
 140              		.loc 1 2746 0
 141 0004 094A     		ldr	r2, .L15
 142              	.LBE7:
 143              	.LBE6:
 144              		.loc 1 318 0
 145 0006 0193     		str	r3, [sp, #4]
 146              	.LVL1:
 147              	.L12:
 148              	.LBB10:
 149              	.LBB8:
 150              		.loc 1 2746 0 discriminator 2
 151 0008 1368     		ldr	r3, [r2]
 152              	.LVL2:
 153              		.loc 1 2759 0 discriminator 2
 154 000a 13F4003F 		tst	r3, #131072
 155              	.LBE8:
 156              	.LBE10:
 157              		.loc 1 325 0 discriminator 2
 158 000e 019B     		ldr	r3, [sp, #4]
 159              	.LVL3:
 160 0010 03F10103 		add	r3, r3, #1
 161 0014 0193     		str	r3, [sp, #4]
 162              		.loc 1 326 0 discriminator 2
 163 0016 019B     		ldr	r3, [sp, #4]
 164              	.LBB11:
 165              	.LBB9:
 166              		.loc 1 2759 0 discriminator 2
 167 0018 02D1     		bne	.L11
 168              	.LBE9:
 169              	.LBE11:
 170              		.loc 1 326 0
 171 001a B3F5A04F 		cmp	r3, #20480
ARM GAS  /tmp/cc2SsK4b.s 			page 4


 172 001e F3D1     		bne	.L12
 173              	.L11:
 174              	.LVL4:
 175              	.LBB12:
 176              	.LBB13:
 177              		.loc 1 2746 0
 178 0020 024B     		ldr	r3, .L15
 179 0022 1868     		ldr	r0, [r3]
 180              	.LVL5:
 181              	.LBE13:
 182              	.LBE12:
 183              		.loc 1 337 0
 184 0024 C0F34040 		ubfx	r0, r0, #17, #1
 185              	.LVL6:
 186 0028 02B0     		add	sp, sp, #8
 187              		.cfi_def_cfa_offset 0
 188              		@ sp needed
 189 002a 7047     		bx	lr
 190              	.L16:
 191              		.align	2
 192              	.L15:
 193 002c 00380240 		.word	1073887232
 194              		.cfi_endproc
 195              	.LFE114:
 196              		.size	RCC_WaitForHSEStartUp, .-RCC_WaitForHSEStartUp
 197              		.section	.text.RCC_AdjustHSICalibrationValue,"ax",%progbits
 198              		.align	1
 199              		.p2align 4,,15
 200              		.global	RCC_AdjustHSICalibrationValue
 201              		.syntax unified
 202              		.thumb
 203              		.thumb_func
 204              		.fpu fpv4-sp-d16
 205              		.type	RCC_AdjustHSICalibrationValue, %function
 206              	RCC_AdjustHSICalibrationValue:
 207              	.LFB115:
 208              		.loc 1 348 0
 209              		.cfi_startproc
 210              		@ args = 0, pretend = 0, frame = 0
 211              		@ frame_needed = 0, uses_anonymous_args = 0
 212              		@ link register save eliminated.
 213              	.LVL7:
 214              		.loc 1 353 0
 215 0000 034A     		ldr	r2, .L18
 216 0002 1368     		ldr	r3, [r2]
 217              	.LVL8:
 218              		.loc 1 356 0
 219 0004 23F0F803 		bic	r3, r3, #248
 220              	.LVL9:
 221              		.loc 1 359 0
 222 0008 43EAC000 		orr	r0, r3, r0, lsl #3
 223              	.LVL10:
 224              		.loc 1 362 0
 225 000c 1060     		str	r0, [r2]
 226              		.loc 1 363 0
 227 000e 7047     		bx	lr
 228              	.L19:
ARM GAS  /tmp/cc2SsK4b.s 			page 5


 229              		.align	2
 230              	.L18:
 231 0010 00380240 		.word	1073887232
 232              		.cfi_endproc
 233              	.LFE115:
 234              		.size	RCC_AdjustHSICalibrationValue, .-RCC_AdjustHSICalibrationValue
 235              		.section	.text.RCC_HSICmd,"ax",%progbits
 236              		.align	1
 237              		.p2align 4,,15
 238              		.global	RCC_HSICmd
 239              		.syntax unified
 240              		.thumb
 241              		.thumb_func
 242              		.fpu fpv4-sp-d16
 243              		.type	RCC_HSICmd, %function
 244              	RCC_HSICmd:
 245              	.LFB116:
 246              		.loc 1 384 0
 247              		.cfi_startproc
 248              		@ args = 0, pretend = 0, frame = 0
 249              		@ frame_needed = 0, uses_anonymous_args = 0
 250              		@ link register save eliminated.
 251              	.LVL11:
 252              		.loc 1 388 0
 253 0000 014B     		ldr	r3, .L21
 254 0002 1860     		str	r0, [r3]
 255              		.loc 1 389 0
 256 0004 7047     		bx	lr
 257              	.L22:
 258 0006 00BF     		.align	2
 259              	.L21:
 260 0008 00004742 		.word	1111949312
 261              		.cfi_endproc
 262              	.LFE116:
 263              		.size	RCC_HSICmd, .-RCC_HSICmd
 264              		.section	.text.RCC_LSEConfig,"ax",%progbits
 265              		.align	1
 266              		.p2align 4,,15
 267              		.global	RCC_LSEConfig
 268              		.syntax unified
 269              		.thumb
 270              		.thumb_func
 271              		.fpu fpv4-sp-d16
 272              		.type	RCC_LSEConfig, %function
 273              	RCC_LSEConfig:
 274              	.LFB117:
 275              		.loc 1 409 0
 276              		.cfi_startproc
 277              		@ args = 0, pretend = 0, frame = 0
 278              		@ frame_needed = 0, uses_anonymous_args = 0
 279              		@ link register save eliminated.
 280              	.LVL12:
 281              		.loc 1 415 0
 282 0000 064B     		ldr	r3, .L28
 283 0002 0022     		movs	r2, #0
 284              		.loc 1 421 0
 285 0004 0128     		cmp	r0, #1
ARM GAS  /tmp/cc2SsK4b.s 			page 6


 286              		.loc 1 415 0
 287 0006 1A70     		strb	r2, [r3]
 288              		.loc 1 418 0
 289 0008 1A70     		strb	r2, [r3]
 290              		.loc 1 421 0
 291 000a 05D0     		beq	.L25
 292 000c 0428     		cmp	r0, #4
 293 000e 02D1     		bne	.L27
 294              		.loc 1 429 0
 295 0010 0522     		movs	r2, #5
 296 0012 1A70     		strb	r2, [r3]
 297              		.loc 1 434 0
 298 0014 7047     		bx	lr
 299              	.L27:
 300 0016 7047     		bx	lr
 301              	.L25:
 302              		.loc 1 425 0
 303 0018 1870     		strb	r0, [r3]
 304              		.loc 1 426 0
 305 001a 7047     		bx	lr
 306              	.L29:
 307              		.align	2
 308              	.L28:
 309 001c 70380240 		.word	1073887344
 310              		.cfi_endproc
 311              	.LFE117:
 312              		.size	RCC_LSEConfig, .-RCC_LSEConfig
 313              		.section	.text.RCC_LSICmd,"ax",%progbits
 314              		.align	1
 315              		.p2align 4,,15
 316              		.global	RCC_LSICmd
 317              		.syntax unified
 318              		.thumb
 319              		.thumb_func
 320              		.fpu fpv4-sp-d16
 321              		.type	RCC_LSICmd, %function
 322              	RCC_LSICmd:
 323              	.LFB118:
 324              		.loc 1 449 0
 325              		.cfi_startproc
 326              		@ args = 0, pretend = 0, frame = 0
 327              		@ frame_needed = 0, uses_anonymous_args = 0
 328              		@ link register save eliminated.
 329              	.LVL13:
 330              		.loc 1 453 0
 331 0000 014B     		ldr	r3, .L31
 332 0002 1860     		str	r0, [r3]
 333              		.loc 1 454 0
 334 0004 7047     		bx	lr
 335              	.L32:
 336 0006 00BF     		.align	2
 337              	.L31:
 338 0008 800E4742 		.word	1111953024
 339              		.cfi_endproc
 340              	.LFE118:
 341              		.size	RCC_LSICmd, .-RCC_LSICmd
 342              		.section	.text.RCC_PLLConfig,"ax",%progbits
ARM GAS  /tmp/cc2SsK4b.s 			page 7


 343              		.align	1
 344              		.p2align 4,,15
 345              		.global	RCC_PLLConfig
 346              		.syntax unified
 347              		.thumb
 348              		.thumb_func
 349              		.fpu fpv4-sp-d16
 350              		.type	RCC_PLLConfig, %function
 351              	RCC_PLLConfig:
 352              	.LFB119:
 353              		.loc 1 548 0
 354              		.cfi_startproc
 355              		@ args = 4, pretend = 0, frame = 0
 356              		@ frame_needed = 0, uses_anonymous_args = 0
 357              		@ link register save eliminated.
 358              	.LVL14:
 359 0000 30B4     		push	{r4, r5}
 360              		.cfi_def_cfa_offset 8
 361              		.cfi_offset 4, -8
 362              		.cfi_offset 5, -4
 363              		.loc 1 548 0
 364 0002 029C     		ldr	r4, [sp, #8]
 365              		.loc 1 556 0
 366 0004 064D     		ldr	r5, .L35
 367 0006 40EA0460 		orr	r0, r0, r4, lsl #24
 368              	.LVL15:
 369 000a 5B08     		lsrs	r3, r3, #1
 370              	.LVL16:
 371 000c 0843     		orrs	r0, r0, r1
 372 000e 013B     		subs	r3, r3, #1
 373 0010 40EA8210 		orr	r0, r0, r2, lsl #6
 374 0014 40EA0340 		orr	r0, r0, r3, lsl #16
 375 0018 6860     		str	r0, [r5, #4]
 376              	.LVL17:
 377              		.loc 1 558 0
 378 001a 30BC     		pop	{r4, r5}
 379              		.cfi_restore 5
 380              		.cfi_restore 4
 381              		.cfi_def_cfa_offset 0
 382 001c 7047     		bx	lr
 383              	.L36:
 384 001e 00BF     		.align	2
 385              	.L35:
 386 0020 00380240 		.word	1073887232
 387              		.cfi_endproc
 388              	.LFE119:
 389              		.size	RCC_PLLConfig, .-RCC_PLLConfig
 390              		.section	.text.RCC_PLLCmd,"ax",%progbits
 391              		.align	1
 392              		.p2align 4,,15
 393              		.global	RCC_PLLCmd
 394              		.syntax unified
 395              		.thumb
 396              		.thumb_func
 397              		.fpu fpv4-sp-d16
 398              		.type	RCC_PLLCmd, %function
 399              	RCC_PLLCmd:
ARM GAS  /tmp/cc2SsK4b.s 			page 8


 400              	.LFB120:
 401              		.loc 1 572 0
 402              		.cfi_startproc
 403              		@ args = 0, pretend = 0, frame = 0
 404              		@ frame_needed = 0, uses_anonymous_args = 0
 405              		@ link register save eliminated.
 406              	.LVL18:
 407              		.loc 1 575 0
 408 0000 014B     		ldr	r3, .L38
 409 0002 1860     		str	r0, [r3]
 410              		.loc 1 576 0
 411 0004 7047     		bx	lr
 412              	.L39:
 413 0006 00BF     		.align	2
 414              	.L38:
 415 0008 60004742 		.word	1111949408
 416              		.cfi_endproc
 417              	.LFE120:
 418              		.size	RCC_PLLCmd, .-RCC_PLLCmd
 419              		.section	.text.RCC_PLLI2SConfig,"ax",%progbits
 420              		.align	1
 421              		.p2align 4,,15
 422              		.global	RCC_PLLI2SConfig
 423              		.syntax unified
 424              		.thumb
 425              		.thumb_func
 426              		.fpu fpv4-sp-d16
 427              		.type	RCC_PLLI2SConfig, %function
 428              	RCC_PLLI2SConfig:
 429              	.LFB121:
 430              		.loc 1 602 0
 431              		.cfi_startproc
 432              		@ args = 0, pretend = 0, frame = 0
 433              		@ frame_needed = 0, uses_anonymous_args = 0
 434              		@ link register save eliminated.
 435              	.LVL19:
 436              		.loc 1 607 0
 437 0000 0907     		lsls	r1, r1, #28
 438              	.LVL20:
 439 0002 034B     		ldr	r3, .L41
 440 0004 41EA8011 		orr	r1, r1, r0, lsl #6
 441 0008 C3F88410 		str	r1, [r3, #132]
 442              		.loc 1 608 0
 443 000c 7047     		bx	lr
 444              	.L42:
 445 000e 00BF     		.align	2
 446              	.L41:
 447 0010 00380240 		.word	1073887232
 448              		.cfi_endproc
 449              	.LFE121:
 450              		.size	RCC_PLLI2SConfig, .-RCC_PLLI2SConfig
 451              		.section	.text.RCC_PLLI2SCmd,"ax",%progbits
 452              		.align	1
 453              		.p2align 4,,15
 454              		.global	RCC_PLLI2SCmd
 455              		.syntax unified
 456              		.thumb
ARM GAS  /tmp/cc2SsK4b.s 			page 9


 457              		.thumb_func
 458              		.fpu fpv4-sp-d16
 459              		.type	RCC_PLLI2SCmd, %function
 460              	RCC_PLLI2SCmd:
 461              	.LFB122:
 462              		.loc 1 741 0
 463              		.cfi_startproc
 464              		@ args = 0, pretend = 0, frame = 0
 465              		@ frame_needed = 0, uses_anonymous_args = 0
 466              		@ link register save eliminated.
 467              	.LVL21:
 468              		.loc 1 744 0
 469 0000 014B     		ldr	r3, .L44
 470 0002 1860     		str	r0, [r3]
 471              		.loc 1 745 0
 472 0004 7047     		bx	lr
 473              	.L45:
 474 0006 00BF     		.align	2
 475              	.L44:
 476 0008 68004742 		.word	1111949416
 477              		.cfi_endproc
 478              	.LFE122:
 479              		.size	RCC_PLLI2SCmd, .-RCC_PLLI2SCmd
 480              		.section	.text.RCC_PLLSAICmd,"ax",%progbits
 481              		.align	1
 482              		.p2align 4,,15
 483              		.global	RCC_PLLSAICmd
 484              		.syntax unified
 485              		.thumb
 486              		.thumb_func
 487              		.fpu fpv4-sp-d16
 488              		.type	RCC_PLLSAICmd, %function
 489              	RCC_PLLSAICmd:
 490              	.LFB123:
 491              		.loc 1 870 0
 492              		.cfi_startproc
 493              		@ args = 0, pretend = 0, frame = 0
 494              		@ frame_needed = 0, uses_anonymous_args = 0
 495              		@ link register save eliminated.
 496              	.LVL22:
 497              		.loc 1 873 0
 498 0000 014B     		ldr	r3, .L47
 499 0002 1860     		str	r0, [r3]
 500              		.loc 1 874 0
 501 0004 7047     		bx	lr
 502              	.L48:
 503 0006 00BF     		.align	2
 504              	.L47:
 505 0008 70004742 		.word	1111949424
 506              		.cfi_endproc
 507              	.LFE123:
 508              		.size	RCC_PLLSAICmd, .-RCC_PLLSAICmd
 509              		.section	.text.RCC_ClockSecuritySystemCmd,"ax",%progbits
 510              		.align	1
 511              		.p2align 4,,15
 512              		.global	RCC_ClockSecuritySystemCmd
 513              		.syntax unified
ARM GAS  /tmp/cc2SsK4b.s 			page 10


 514              		.thumb
 515              		.thumb_func
 516              		.fpu fpv4-sp-d16
 517              		.type	RCC_ClockSecuritySystemCmd, %function
 518              	RCC_ClockSecuritySystemCmd:
 519              	.LFB124:
 520              		.loc 1 888 0
 521              		.cfi_startproc
 522              		@ args = 0, pretend = 0, frame = 0
 523              		@ frame_needed = 0, uses_anonymous_args = 0
 524              		@ link register save eliminated.
 525              	.LVL23:
 526              		.loc 1 891 0
 527 0000 014B     		ldr	r3, .L50
 528 0002 1860     		str	r0, [r3]
 529              		.loc 1 892 0
 530 0004 7047     		bx	lr
 531              	.L51:
 532 0006 00BF     		.align	2
 533              	.L50:
 534 0008 4C004742 		.word	1111949388
 535              		.cfi_endproc
 536              	.LFE124:
 537              		.size	RCC_ClockSecuritySystemCmd, .-RCC_ClockSecuritySystemCmd
 538              		.section	.text.RCC_MCO1Config,"ax",%progbits
 539              		.align	1
 540              		.p2align 4,,15
 541              		.global	RCC_MCO1Config
 542              		.syntax unified
 543              		.thumb
 544              		.thumb_func
 545              		.fpu fpv4-sp-d16
 546              		.type	RCC_MCO1Config, %function
 547              	RCC_MCO1Config:
 548              	.LFB125:
 549              		.loc 1 913 0
 550              		.cfi_startproc
 551              		@ args = 0, pretend = 0, frame = 0
 552              		@ frame_needed = 0, uses_anonymous_args = 0
 553              		@ link register save eliminated.
 554              	.LVL24:
 555              		.loc 1 920 0
 556 0000 034A     		ldr	r2, .L53
 557 0002 9368     		ldr	r3, [r2, #8]
 558              	.LVL25:
 559              		.loc 1 923 0
 560 0004 23F0EC63 		bic	r3, r3, #123731968
 561              	.LVL26:
 562 0008 1943     		orrs	r1, r1, r3
 563              	.LVL27:
 564              		.loc 1 926 0
 565 000a 0143     		orrs	r1, r1, r0
 566              	.LVL28:
 567              		.loc 1 929 0
 568 000c 9160     		str	r1, [r2, #8]
 569              		.loc 1 934 0
 570 000e 7047     		bx	lr
ARM GAS  /tmp/cc2SsK4b.s 			page 11


 571              	.L54:
 572              		.align	2
 573              	.L53:
 574 0010 00380240 		.word	1073887232
 575              		.cfi_endproc
 576              	.LFE125:
 577              		.size	RCC_MCO1Config, .-RCC_MCO1Config
 578              		.section	.text.RCC_MCO2Config,"ax",%progbits
 579              		.align	1
 580              		.p2align 4,,15
 581              		.global	RCC_MCO2Config
 582              		.syntax unified
 583              		.thumb
 584              		.thumb_func
 585              		.fpu fpv4-sp-d16
 586              		.type	RCC_MCO2Config, %function
 587              	RCC_MCO2Config:
 588              	.LFB126:
 589              		.loc 1 958 0
 590              		.cfi_startproc
 591              		@ args = 0, pretend = 0, frame = 0
 592              		@ frame_needed = 0, uses_anonymous_args = 0
 593              		@ link register save eliminated.
 594              	.LVL29:
 595              		.loc 1 965 0
 596 0000 034A     		ldr	r2, .L56
 597 0002 9368     		ldr	r3, [r2, #8]
 598              	.LVL30:
 599              		.loc 1 968 0
 600 0004 23F07843 		bic	r3, r3, #-134217728
 601              	.LVL31:
 602 0008 1943     		orrs	r1, r1, r3
 603              	.LVL32:
 604              		.loc 1 971 0
 605 000a 0143     		orrs	r1, r1, r0
 606              	.LVL33:
 607              		.loc 1 974 0
 608 000c 9160     		str	r1, [r2, #8]
 609              		.loc 1 979 0
 610 000e 7047     		bx	lr
 611              	.L57:
 612              		.align	2
 613              	.L56:
 614 0010 00380240 		.word	1073887232
 615              		.cfi_endproc
 616              	.LFE126:
 617              		.size	RCC_MCO2Config, .-RCC_MCO2Config
 618              		.section	.text.RCC_SYSCLKConfig,"ax",%progbits
 619              		.align	1
 620              		.p2align 4,,15
 621              		.global	RCC_SYSCLKConfig
 622              		.syntax unified
 623              		.thumb
 624              		.thumb_func
 625              		.fpu fpv4-sp-d16
 626              		.type	RCC_SYSCLKConfig, %function
 627              	RCC_SYSCLKConfig:
ARM GAS  /tmp/cc2SsK4b.s 			page 12


 628              	.LFB127:
 629              		.loc 1 1158 0
 630              		.cfi_startproc
 631              		@ args = 0, pretend = 0, frame = 0
 632              		@ frame_needed = 0, uses_anonymous_args = 0
 633              		@ link register save eliminated.
 634              	.LVL34:
 635              		.loc 1 1164 0
 636 0000 034A     		ldr	r2, .L59
 637 0002 9368     		ldr	r3, [r2, #8]
 638              	.LVL35:
 639              		.loc 1 1167 0
 640 0004 23F00303 		bic	r3, r3, #3
 641              	.LVL36:
 642              		.loc 1 1170 0
 643 0008 1843     		orrs	r0, r0, r3
 644              	.LVL37:
 645              		.loc 1 1173 0
 646 000a 9060     		str	r0, [r2, #8]
 647              		.loc 1 1174 0
 648 000c 7047     		bx	lr
 649              	.L60:
 650 000e 00BF     		.align	2
 651              	.L59:
 652 0010 00380240 		.word	1073887232
 653              		.cfi_endproc
 654              	.LFE127:
 655              		.size	RCC_SYSCLKConfig, .-RCC_SYSCLKConfig
 656              		.section	.text.RCC_GetSYSCLKSource,"ax",%progbits
 657              		.align	1
 658              		.p2align 4,,15
 659              		.global	RCC_GetSYSCLKSource
 660              		.syntax unified
 661              		.thumb
 662              		.thumb_func
 663              		.fpu fpv4-sp-d16
 664              		.type	RCC_GetSYSCLKSource, %function
 665              	RCC_GetSYSCLKSource:
 666              	.LFB128:
 667              		.loc 1 1187 0
 668              		.cfi_startproc
 669              		@ args = 0, pretend = 0, frame = 0
 670              		@ frame_needed = 0, uses_anonymous_args = 0
 671              		@ link register save eliminated.
 672              		.loc 1 1188 0
 673 0000 024B     		ldr	r3, .L62
 674 0002 9868     		ldr	r0, [r3, #8]
 675              		.loc 1 1189 0
 676 0004 00F00C00 		and	r0, r0, #12
 677 0008 7047     		bx	lr
 678              	.L63:
 679 000a 00BF     		.align	2
 680              	.L62:
 681 000c 00380240 		.word	1073887232
 682              		.cfi_endproc
 683              	.LFE128:
 684              		.size	RCC_GetSYSCLKSource, .-RCC_GetSYSCLKSource
ARM GAS  /tmp/cc2SsK4b.s 			page 13


 685              		.section	.text.RCC_HCLKConfig,"ax",%progbits
 686              		.align	1
 687              		.p2align 4,,15
 688              		.global	RCC_HCLKConfig
 689              		.syntax unified
 690              		.thumb
 691              		.thumb_func
 692              		.fpu fpv4-sp-d16
 693              		.type	RCC_HCLKConfig, %function
 694              	RCC_HCLKConfig:
 695              	.LFB129:
 696              		.loc 1 1212 0
 697              		.cfi_startproc
 698              		@ args = 0, pretend = 0, frame = 0
 699              		@ frame_needed = 0, uses_anonymous_args = 0
 700              		@ link register save eliminated.
 701              	.LVL38:
 702              		.loc 1 1218 0
 703 0000 034A     		ldr	r2, .L65
 704 0002 9368     		ldr	r3, [r2, #8]
 705              	.LVL39:
 706              		.loc 1 1221 0
 707 0004 23F0F003 		bic	r3, r3, #240
 708              	.LVL40:
 709              		.loc 1 1224 0
 710 0008 1843     		orrs	r0, r0, r3
 711              	.LVL41:
 712              		.loc 1 1227 0
 713 000a 9060     		str	r0, [r2, #8]
 714              		.loc 1 1228 0
 715 000c 7047     		bx	lr
 716              	.L66:
 717 000e 00BF     		.align	2
 718              	.L65:
 719 0010 00380240 		.word	1073887232
 720              		.cfi_endproc
 721              	.LFE129:
 722              		.size	RCC_HCLKConfig, .-RCC_HCLKConfig
 723              		.section	.text.RCC_PCLK1Config,"ax",%progbits
 724              		.align	1
 725              		.p2align 4,,15
 726              		.global	RCC_PCLK1Config
 727              		.syntax unified
 728              		.thumb
 729              		.thumb_func
 730              		.fpu fpv4-sp-d16
 731              		.type	RCC_PCLK1Config, %function
 732              	RCC_PCLK1Config:
 733              	.LFB130:
 734              		.loc 1 1243 0
 735              		.cfi_startproc
 736              		@ args = 0, pretend = 0, frame = 0
 737              		@ frame_needed = 0, uses_anonymous_args = 0
 738              		@ link register save eliminated.
 739              	.LVL42:
 740              		.loc 1 1249 0
 741 0000 034A     		ldr	r2, .L68
ARM GAS  /tmp/cc2SsK4b.s 			page 14


 742 0002 9368     		ldr	r3, [r2, #8]
 743              	.LVL43:
 744              		.loc 1 1252 0
 745 0004 23F4E053 		bic	r3, r3, #7168
 746              	.LVL44:
 747              		.loc 1 1255 0
 748 0008 1843     		orrs	r0, r0, r3
 749              	.LVL45:
 750              		.loc 1 1258 0
 751 000a 9060     		str	r0, [r2, #8]
 752              		.loc 1 1259 0
 753 000c 7047     		bx	lr
 754              	.L69:
 755 000e 00BF     		.align	2
 756              	.L68:
 757 0010 00380240 		.word	1073887232
 758              		.cfi_endproc
 759              	.LFE130:
 760              		.size	RCC_PCLK1Config, .-RCC_PCLK1Config
 761              		.section	.text.RCC_PCLK2Config,"ax",%progbits
 762              		.align	1
 763              		.p2align 4,,15
 764              		.global	RCC_PCLK2Config
 765              		.syntax unified
 766              		.thumb
 767              		.thumb_func
 768              		.fpu fpv4-sp-d16
 769              		.type	RCC_PCLK2Config, %function
 770              	RCC_PCLK2Config:
 771              	.LFB131:
 772              		.loc 1 1274 0
 773              		.cfi_startproc
 774              		@ args = 0, pretend = 0, frame = 0
 775              		@ frame_needed = 0, uses_anonymous_args = 0
 776              		@ link register save eliminated.
 777              	.LVL46:
 778              		.loc 1 1280 0
 779 0000 034A     		ldr	r2, .L71
 780 0002 9368     		ldr	r3, [r2, #8]
 781              	.LVL47:
 782              		.loc 1 1283 0
 783 0004 23F46043 		bic	r3, r3, #57344
 784              	.LVL48:
 785              		.loc 1 1286 0
 786 0008 43EAC000 		orr	r0, r3, r0, lsl #3
 787              	.LVL49:
 788              		.loc 1 1289 0
 789 000c 9060     		str	r0, [r2, #8]
 790              		.loc 1 1290 0
 791 000e 7047     		bx	lr
 792              	.L72:
 793              		.align	2
 794              	.L71:
 795 0010 00380240 		.word	1073887232
 796              		.cfi_endproc
 797              	.LFE131:
 798              		.size	RCC_PCLK2Config, .-RCC_PCLK2Config
ARM GAS  /tmp/cc2SsK4b.s 			page 15


 799              		.section	.text.RCC_GetClocksFreq,"ax",%progbits
 800              		.align	1
 801              		.p2align 4,,15
 802              		.global	RCC_GetClocksFreq
 803              		.syntax unified
 804              		.thumb
 805              		.thumb_func
 806              		.fpu fpv4-sp-d16
 807              		.type	RCC_GetClocksFreq, %function
 808              	RCC_GetClocksFreq:
 809              	.LFB132:
 810              		.loc 1 1326 0
 811              		.cfi_startproc
 812              		@ args = 0, pretend = 0, frame = 0
 813              		@ frame_needed = 0, uses_anonymous_args = 0
 814              		@ link register save eliminated.
 815              	.LVL50:
 816              		.loc 1 1333 0
 817 0000 1F4A     		ldr	r2, .L81
 818 0002 9368     		ldr	r3, [r2, #8]
 819              	.LVL51:
 820 0004 03F00C03 		and	r3, r3, #12
 821              	.LVL52:
 822              		.loc 1 1335 0
 823 0008 042B     		cmp	r3, #4
 824              		.loc 1 1326 0
 825 000a 10B4     		push	{r4}
 826              		.cfi_def_cfa_offset 4
 827              		.cfi_offset 4, -4
 828              		.loc 1 1335 0
 829 000c 34D0     		beq	.L75
 830 000e 082B     		cmp	r3, #8
 831 0010 19D0     		beq	.L76
 832              		.loc 1 1338 0
 833 0012 1C4B     		ldr	r3, .L81+4
 834              	.LVL53:
 835 0014 0360     		str	r3, [r0]
 836              	.LVL54:
 837              	.L77:
 838              		.loc 1 1397 0
 839 0016 1A4A     		ldr	r2, .L81
 840              		.loc 1 1399 0
 841 0018 1B49     		ldr	r1, .L81+8
 842              		.loc 1 1397 0
 843 001a 9468     		ldr	r4, [r2, #8]
 844              	.LVL55:
 845              		.loc 1 1398 0
 846 001c C4F30314 		ubfx	r4, r4, #4, #4
 847              	.LVL56:
 848              		.loc 1 1399 0
 849 0020 0C5D     		ldrb	r4, [r1, r4]	@ zero_extendqisi2
 850              	.LVL57:
 851              		.loc 1 1401 0
 852 0022 E340     		lsrs	r3, r3, r4
 853 0024 4360     		str	r3, [r0, #4]
 854              		.loc 1 1404 0
 855 0026 9468     		ldr	r4, [r2, #8]
ARM GAS  /tmp/cc2SsK4b.s 			page 16


 856              	.LVL58:
 857              		.loc 1 1405 0
 858 0028 C4F38224 		ubfx	r4, r4, #10, #3
 859              	.LVL59:
 860              		.loc 1 1406 0
 861 002c 0C5D     		ldrb	r4, [r1, r4]	@ zero_extendqisi2
 862              	.LVL60:
 863              		.loc 1 1408 0
 864 002e 23FA04F4 		lsr	r4, r3, r4
 865              	.LVL61:
 866 0032 8460     		str	r4, [r0, #8]
 867              		.loc 1 1411 0
 868 0034 9268     		ldr	r2, [r2, #8]
 869              	.LVL62:
 870              		.loc 1 1416 0
 871 0036 5DF8044B 		ldr	r4, [sp], #4
 872              		.cfi_remember_state
 873              		.cfi_restore 4
 874              		.cfi_def_cfa_offset 0
 875              		.loc 1 1412 0
 876 003a C2F34232 		ubfx	r2, r2, #13, #3
 877              	.LVL63:
 878              		.loc 1 1413 0
 879 003e 8A5C     		ldrb	r2, [r1, r2]	@ zero_extendqisi2
 880              	.LVL64:
 881              		.loc 1 1415 0
 882 0040 D340     		lsrs	r3, r3, r2
 883 0042 C360     		str	r3, [r0, #12]
 884              		.loc 1 1416 0
 885 0044 7047     		bx	lr
 886              	.LVL65:
 887              	.L76:
 888              		.cfi_restore_state
 889              		.loc 1 1348 0
 890 0046 5468     		ldr	r4, [r2, #4]
 891              	.LVL66:
 892              		.loc 1 1349 0
 893 0048 5168     		ldr	r1, [r2, #4]
 894              		.loc 1 1354 0
 895 004a 5268     		ldr	r2, [r2, #4]
 896              		.loc 1 1351 0
 897 004c 6302     		lsls	r3, r4, #9
 898              	.LVL67:
 899              		.loc 1 1359 0
 900 004e C2F38812 		ubfx	r2, r2, #6, #9
 901              		.loc 1 1349 0
 902 0052 01F03F01 		and	r1, r1, #63
 903              	.LVL68:
 904              		.loc 1 1354 0
 905 0056 4CBF     		ite	mi
 906 0058 0C4B     		ldrmi	r3, .L81+12
 907              		.loc 1 1359 0
 908 005a 0A4B     		ldrpl	r3, .L81+4
 909 005c B3FBF1F3 		udiv	r3, r3, r1
 910 0060 03FB02F3 		mul	r3, r3, r2
 911              	.LVL69:
 912              		.loc 1 1362 0
ARM GAS  /tmp/cc2SsK4b.s 			page 17


 913 0064 064A     		ldr	r2, .L81
 914 0066 5268     		ldr	r2, [r2, #4]
 915              	.LVL70:
 916 0068 C2F30142 		ubfx	r2, r2, #16, #2
 917              	.LVL71:
 918 006c 0132     		adds	r2, r2, #1
 919 006e 5200     		lsls	r2, r2, #1
 920              		.loc 1 1363 0
 921 0070 B3FBF2F3 		udiv	r3, r3, r2
 922              	.LVL72:
 923 0074 0360     		str	r3, [r0]
 924              		.loc 1 1364 0
 925 0076 CEE7     		b	.L77
 926              	.LVL73:
 927              	.L75:
 928              		.loc 1 1341 0
 929 0078 044B     		ldr	r3, .L81+12
 930              	.LVL74:
 931 007a 0360     		str	r3, [r0]
 932              		.loc 1 1342 0
 933 007c CBE7     		b	.L77
 934              	.L82:
 935 007e 00BF     		.align	2
 936              	.L81:
 937 0080 00380240 		.word	1073887232
 938 0084 0024F400 		.word	16000000
 939 0088 00000000 		.word	.LANCHOR0
 940 008c 00127A00 		.word	8000000
 941              		.cfi_endproc
 942              	.LFE132:
 943              		.size	RCC_GetClocksFreq, .-RCC_GetClocksFreq
 944              		.section	.text.RCC_RTCCLKConfig,"ax",%progbits
 945              		.align	1
 946              		.p2align 4,,15
 947              		.global	RCC_RTCCLKConfig
 948              		.syntax unified
 949              		.thumb
 950              		.thumb_func
 951              		.fpu fpv4-sp-d16
 952              		.type	RCC_RTCCLKConfig, %function
 953              	RCC_RTCCLKConfig:
 954              	.LFB133:
 955              		.loc 1 1479 0
 956              		.cfi_startproc
 957              		@ args = 0, pretend = 0, frame = 0
 958              		@ frame_needed = 0, uses_anonymous_args = 0
 959              		@ link register save eliminated.
 960              	.LVL75:
 961              		.loc 1 1485 0
 962 0000 00F44073 		and	r3, r0, #768
 963 0004 B3F5407F 		cmp	r3, #768
 964 0008 09D1     		bne	.L84
 965              		.loc 1 1487 0
 966 000a 0849     		ldr	r1, .L85
 967 000c 8A68     		ldr	r2, [r1, #8]
 968              	.LVL76:
 969              		.loc 1 1493 0
ARM GAS  /tmp/cc2SsK4b.s 			page 18


 970 000e 20F07043 		bic	r3, r0, #-268435456
 971              		.loc 1 1490 0
 972 0012 22F4F812 		bic	r2, r2, #2031616
 973              	.LVL77:
 974              		.loc 1 1493 0
 975 0016 23F44073 		bic	r3, r3, #768
 976 001a 1343     		orrs	r3, r3, r2
 977              	.LVL78:
 978              		.loc 1 1496 0
 979 001c 8B60     		str	r3, [r1, #8]
 980              	.LVL79:
 981              	.L84:
 982              		.loc 1 1500 0
 983 001e 034B     		ldr	r3, .L85
 984 0020 1A6F     		ldr	r2, [r3, #112]
 985 0022 C0F30B00 		ubfx	r0, r0, #0, #12
 986              	.LVL80:
 987 0026 1043     		orrs	r0, r0, r2
 988 0028 1867     		str	r0, [r3, #112]
 989              		.loc 1 1501 0
 990 002a 7047     		bx	lr
 991              	.L86:
 992              		.align	2
 993              	.L85:
 994 002c 00380240 		.word	1073887232
 995              		.cfi_endproc
 996              	.LFE133:
 997              		.size	RCC_RTCCLKConfig, .-RCC_RTCCLKConfig
 998              		.section	.text.RCC_RTCCLKCmd,"ax",%progbits
 999              		.align	1
 1000              		.p2align 4,,15
 1001              		.global	RCC_RTCCLKCmd
 1002              		.syntax unified
 1003              		.thumb
 1004              		.thumb_func
 1005              		.fpu fpv4-sp-d16
 1006              		.type	RCC_RTCCLKCmd, %function
 1007              	RCC_RTCCLKCmd:
 1008              	.LFB134:
 1009              		.loc 1 1511 0
 1010              		.cfi_startproc
 1011              		@ args = 0, pretend = 0, frame = 0
 1012              		@ frame_needed = 0, uses_anonymous_args = 0
 1013              		@ link register save eliminated.
 1014              	.LVL81:
 1015              		.loc 1 1515 0
 1016 0000 014B     		ldr	r3, .L88
 1017 0002 1860     		str	r0, [r3]
 1018              		.loc 1 1516 0
 1019 0004 7047     		bx	lr
 1020              	.L89:
 1021 0006 00BF     		.align	2
 1022              	.L88:
 1023 0008 3C0E4742 		.word	1111952956
 1024              		.cfi_endproc
 1025              	.LFE134:
 1026              		.size	RCC_RTCCLKCmd, .-RCC_RTCCLKCmd
ARM GAS  /tmp/cc2SsK4b.s 			page 19


 1027              		.section	.text.RCC_BackupResetCmd,"ax",%progbits
 1028              		.align	1
 1029              		.p2align 4,,15
 1030              		.global	RCC_BackupResetCmd
 1031              		.syntax unified
 1032              		.thumb
 1033              		.thumb_func
 1034              		.fpu fpv4-sp-d16
 1035              		.type	RCC_BackupResetCmd, %function
 1036              	RCC_BackupResetCmd:
 1037              	.LFB135:
 1038              		.loc 1 1528 0
 1039              		.cfi_startproc
 1040              		@ args = 0, pretend = 0, frame = 0
 1041              		@ frame_needed = 0, uses_anonymous_args = 0
 1042              		@ link register save eliminated.
 1043              	.LVL82:
 1044              		.loc 1 1531 0
 1045 0000 014B     		ldr	r3, .L91
 1046 0002 1860     		str	r0, [r3]
 1047              		.loc 1 1532 0
 1048 0004 7047     		bx	lr
 1049              	.L92:
 1050 0006 00BF     		.align	2
 1051              	.L91:
 1052 0008 400E4742 		.word	1111952960
 1053              		.cfi_endproc
 1054              	.LFE135:
 1055              		.size	RCC_BackupResetCmd, .-RCC_BackupResetCmd
 1056              		.section	.text.RCC_I2SCLKConfig,"ax",%progbits
 1057              		.align	1
 1058              		.p2align 4,,15
 1059              		.global	RCC_I2SCLKConfig
 1060              		.syntax unified
 1061              		.thumb
 1062              		.thumb_func
 1063              		.fpu fpv4-sp-d16
 1064              		.type	RCC_I2SCLKConfig, %function
 1065              	RCC_I2SCLKConfig:
 1066              	.LFB136:
 1067              		.loc 1 1651 0
 1068              		.cfi_startproc
 1069              		@ args = 0, pretend = 0, frame = 0
 1070              		@ frame_needed = 0, uses_anonymous_args = 0
 1071              		@ link register save eliminated.
 1072              	.LVL83:
 1073              		.loc 1 1655 0
 1074 0000 014B     		ldr	r3, .L94
 1075 0002 1860     		str	r0, [r3]
 1076              		.loc 1 1656 0
 1077 0004 7047     		bx	lr
 1078              	.L95:
 1079 0006 00BF     		.align	2
 1080              	.L94:
 1081 0008 5C014742 		.word	1111949660
 1082              		.cfi_endproc
 1083              	.LFE136:
ARM GAS  /tmp/cc2SsK4b.s 			page 20


 1084              		.size	RCC_I2SCLKConfig, .-RCC_I2SCLKConfig
 1085              		.section	.text.RCC_TIMCLKPresConfig,"ax",%progbits
 1086              		.align	1
 1087              		.p2align 4,,15
 1088              		.global	RCC_TIMCLKPresConfig
 1089              		.syntax unified
 1090              		.thumb
 1091              		.thumb_func
 1092              		.fpu fpv4-sp-d16
 1093              		.type	RCC_TIMCLKPresConfig, %function
 1094              	RCC_TIMCLKPresConfig:
 1095              	.LFB137:
 1096              		.loc 1 1752 0
 1097              		.cfi_startproc
 1098              		@ args = 0, pretend = 0, frame = 0
 1099              		@ frame_needed = 0, uses_anonymous_args = 0
 1100              		@ link register save eliminated.
 1101              	.LVL84:
 1102              		.loc 1 1756 0
 1103 0000 014B     		ldr	r3, .L97
 1104 0002 1860     		str	r0, [r3]
 1105              		.loc 1 1757 0
 1106 0004 7047     		bx	lr
 1107              	.L98:
 1108 0006 00BF     		.align	2
 1109              	.L97:
 1110 0008 E0114742 		.word	1111953888
 1111              		.cfi_endproc
 1112              	.LFE137:
 1113              		.size	RCC_TIMCLKPresConfig, .-RCC_TIMCLKPresConfig
 1114              		.section	.text.RCC_AHB1PeriphClockCmd,"ax",%progbits
 1115              		.align	1
 1116              		.p2align 4,,15
 1117              		.global	RCC_AHB1PeriphClockCmd
 1118              		.syntax unified
 1119              		.thumb
 1120              		.thumb_func
 1121              		.fpu fpv4-sp-d16
 1122              		.type	RCC_AHB1PeriphClockCmd, %function
 1123              	RCC_AHB1PeriphClockCmd:
 1124              	.LFB138:
 1125              		.loc 1 1794 0
 1126              		.cfi_startproc
 1127              		@ args = 0, pretend = 0, frame = 0
 1128              		@ frame_needed = 0, uses_anonymous_args = 0
 1129              		@ link register save eliminated.
 1130              	.LVL85:
 1131              		.loc 1 1801 0
 1132 0000 044A     		ldr	r2, .L103
 1133 0002 136B     		ldr	r3, [r2, #48]
 1134              		.loc 1 1799 0
 1135 0004 19B9     		cbnz	r1, .L102
 1136              		.loc 1 1805 0
 1137 0006 23EA0000 		bic	r0, r3, r0
 1138              	.LVL86:
 1139 000a 1063     		str	r0, [r2, #48]
 1140              		.loc 1 1807 0
ARM GAS  /tmp/cc2SsK4b.s 			page 21


 1141 000c 7047     		bx	lr
 1142              	.LVL87:
 1143              	.L102:
 1144              		.loc 1 1801 0
 1145 000e 1843     		orrs	r0, r0, r3
 1146              	.LVL88:
 1147 0010 1063     		str	r0, [r2, #48]
 1148 0012 7047     		bx	lr
 1149              	.L104:
 1150              		.align	2
 1151              	.L103:
 1152 0014 00380240 		.word	1073887232
 1153              		.cfi_endproc
 1154              	.LFE138:
 1155              		.size	RCC_AHB1PeriphClockCmd, .-RCC_AHB1PeriphClockCmd
 1156              		.section	.text.RCC_AHB2PeriphClockCmd,"ax",%progbits
 1157              		.align	1
 1158              		.p2align 4,,15
 1159              		.global	RCC_AHB2PeriphClockCmd
 1160              		.syntax unified
 1161              		.thumb
 1162              		.thumb_func
 1163              		.fpu fpv4-sp-d16
 1164              		.type	RCC_AHB2PeriphClockCmd, %function
 1165              	RCC_AHB2PeriphClockCmd:
 1166              	.LFB139:
 1167              		.loc 1 1826 0
 1168              		.cfi_startproc
 1169              		@ args = 0, pretend = 0, frame = 0
 1170              		@ frame_needed = 0, uses_anonymous_args = 0
 1171              		@ link register save eliminated.
 1172              	.LVL89:
 1173              		.loc 1 1833 0
 1174 0000 044A     		ldr	r2, .L109
 1175 0002 536B     		ldr	r3, [r2, #52]
 1176              		.loc 1 1831 0
 1177 0004 19B9     		cbnz	r1, .L108
 1178              		.loc 1 1837 0
 1179 0006 23EA0000 		bic	r0, r3, r0
 1180              	.LVL90:
 1181 000a 5063     		str	r0, [r2, #52]
 1182              		.loc 1 1839 0
 1183 000c 7047     		bx	lr
 1184              	.LVL91:
 1185              	.L108:
 1186              		.loc 1 1833 0
 1187 000e 1843     		orrs	r0, r0, r3
 1188              	.LVL92:
 1189 0010 5063     		str	r0, [r2, #52]
 1190 0012 7047     		bx	lr
 1191              	.L110:
 1192              		.align	2
 1193              	.L109:
 1194 0014 00380240 		.word	1073887232
 1195              		.cfi_endproc
 1196              	.LFE139:
 1197              		.size	RCC_AHB2PeriphClockCmd, .-RCC_AHB2PeriphClockCmd
ARM GAS  /tmp/cc2SsK4b.s 			page 22


 1198              		.section	.text.RCC_AHB3PeriphClockCmd,"ax",%progbits
 1199              		.align	1
 1200              		.p2align 4,,15
 1201              		.global	RCC_AHB3PeriphClockCmd
 1202              		.syntax unified
 1203              		.thumb
 1204              		.thumb_func
 1205              		.fpu fpv4-sp-d16
 1206              		.type	RCC_AHB3PeriphClockCmd, %function
 1207              	RCC_AHB3PeriphClockCmd:
 1208              	.LFB140:
 1209              		.loc 1 1856 0
 1210              		.cfi_startproc
 1211              		@ args = 0, pretend = 0, frame = 0
 1212              		@ frame_needed = 0, uses_anonymous_args = 0
 1213              		@ link register save eliminated.
 1214              	.LVL93:
 1215              		.loc 1 1863 0
 1216 0000 044A     		ldr	r2, .L115
 1217 0002 936B     		ldr	r3, [r2, #56]
 1218              		.loc 1 1861 0
 1219 0004 19B9     		cbnz	r1, .L114
 1220              		.loc 1 1867 0
 1221 0006 23EA0000 		bic	r0, r3, r0
 1222              	.LVL94:
 1223 000a 9063     		str	r0, [r2, #56]
 1224              		.loc 1 1869 0
 1225 000c 7047     		bx	lr
 1226              	.LVL95:
 1227              	.L114:
 1228              		.loc 1 1863 0
 1229 000e 1843     		orrs	r0, r0, r3
 1230              	.LVL96:
 1231 0010 9063     		str	r0, [r2, #56]
 1232 0012 7047     		bx	lr
 1233              	.L116:
 1234              		.align	2
 1235              	.L115:
 1236 0014 00380240 		.word	1073887232
 1237              		.cfi_endproc
 1238              	.LFE140:
 1239              		.size	RCC_AHB3PeriphClockCmd, .-RCC_AHB3PeriphClockCmd
 1240              		.section	.text.RCC_APB1PeriphClockCmd,"ax",%progbits
 1241              		.align	1
 1242              		.p2align 4,,15
 1243              		.global	RCC_APB1PeriphClockCmd
 1244              		.syntax unified
 1245              		.thumb
 1246              		.thumb_func
 1247              		.fpu fpv4-sp-d16
 1248              		.type	RCC_APB1PeriphClockCmd, %function
 1249              	RCC_APB1PeriphClockCmd:
 1250              	.LFB141:
 1251              		.loc 1 1913 0
 1252              		.cfi_startproc
 1253              		@ args = 0, pretend = 0, frame = 0
 1254              		@ frame_needed = 0, uses_anonymous_args = 0
ARM GAS  /tmp/cc2SsK4b.s 			page 23


 1255              		@ link register save eliminated.
 1256              	.LVL97:
 1257              		.loc 1 1920 0
 1258 0000 044A     		ldr	r2, .L121
 1259 0002 136C     		ldr	r3, [r2, #64]
 1260              		.loc 1 1918 0
 1261 0004 19B9     		cbnz	r1, .L120
 1262              		.loc 1 1924 0
 1263 0006 23EA0000 		bic	r0, r3, r0
 1264              	.LVL98:
 1265 000a 1064     		str	r0, [r2, #64]
 1266              		.loc 1 1926 0
 1267 000c 7047     		bx	lr
 1268              	.LVL99:
 1269              	.L120:
 1270              		.loc 1 1920 0
 1271 000e 1843     		orrs	r0, r0, r3
 1272              	.LVL100:
 1273 0010 1064     		str	r0, [r2, #64]
 1274 0012 7047     		bx	lr
 1275              	.L122:
 1276              		.align	2
 1277              	.L121:
 1278 0014 00380240 		.word	1073887232
 1279              		.cfi_endproc
 1280              	.LFE141:
 1281              		.size	RCC_APB1PeriphClockCmd, .-RCC_APB1PeriphClockCmd
 1282              		.section	.text.RCC_APB2PeriphClockCmd,"ax",%progbits
 1283              		.align	1
 1284              		.p2align 4,,15
 1285              		.global	RCC_APB2PeriphClockCmd
 1286              		.syntax unified
 1287              		.thumb
 1288              		.thumb_func
 1289              		.fpu fpv4-sp-d16
 1290              		.type	RCC_APB2PeriphClockCmd, %function
 1291              	RCC_APB2PeriphClockCmd:
 1292              	.LFB142:
 1293              		.loc 1 1960 0
 1294              		.cfi_startproc
 1295              		@ args = 0, pretend = 0, frame = 0
 1296              		@ frame_needed = 0, uses_anonymous_args = 0
 1297              		@ link register save eliminated.
 1298              	.LVL101:
 1299              		.loc 1 1967 0
 1300 0000 044A     		ldr	r2, .L127
 1301 0002 536C     		ldr	r3, [r2, #68]
 1302              		.loc 1 1965 0
 1303 0004 19B9     		cbnz	r1, .L126
 1304              		.loc 1 1971 0
 1305 0006 23EA0000 		bic	r0, r3, r0
 1306              	.LVL102:
 1307 000a 5064     		str	r0, [r2, #68]
 1308              		.loc 1 1973 0
 1309 000c 7047     		bx	lr
 1310              	.LVL103:
 1311              	.L126:
ARM GAS  /tmp/cc2SsK4b.s 			page 24


 1312              		.loc 1 1967 0
 1313 000e 1843     		orrs	r0, r0, r3
 1314              	.LVL104:
 1315 0010 5064     		str	r0, [r2, #68]
 1316 0012 7047     		bx	lr
 1317              	.L128:
 1318              		.align	2
 1319              	.L127:
 1320 0014 00380240 		.word	1073887232
 1321              		.cfi_endproc
 1322              	.LFE142:
 1323              		.size	RCC_APB2PeriphClockCmd, .-RCC_APB2PeriphClockCmd
 1324              		.section	.text.RCC_AHB1PeriphResetCmd,"ax",%progbits
 1325              		.align	1
 1326              		.p2align 4,,15
 1327              		.global	RCC_AHB1PeriphResetCmd
 1328              		.syntax unified
 1329              		.thumb
 1330              		.thumb_func
 1331              		.fpu fpv4-sp-d16
 1332              		.type	RCC_AHB1PeriphResetCmd, %function
 1333              	RCC_AHB1PeriphResetCmd:
 1334              	.LFB143:
 1335              		.loc 1 2003 0
 1336              		.cfi_startproc
 1337              		@ args = 0, pretend = 0, frame = 0
 1338              		@ frame_needed = 0, uses_anonymous_args = 0
 1339              		@ link register save eliminated.
 1340              	.LVL105:
 1341              		.loc 1 2010 0
 1342 0000 044A     		ldr	r2, .L133
 1343 0002 1369     		ldr	r3, [r2, #16]
 1344              		.loc 1 2008 0
 1345 0004 19B9     		cbnz	r1, .L132
 1346              		.loc 1 2014 0
 1347 0006 23EA0000 		bic	r0, r3, r0
 1348              	.LVL106:
 1349 000a 1061     		str	r0, [r2, #16]
 1350              		.loc 1 2016 0
 1351 000c 7047     		bx	lr
 1352              	.LVL107:
 1353              	.L132:
 1354              		.loc 1 2010 0
 1355 000e 1843     		orrs	r0, r0, r3
 1356              	.LVL108:
 1357 0010 1061     		str	r0, [r2, #16]
 1358 0012 7047     		bx	lr
 1359              	.L134:
 1360              		.align	2
 1361              	.L133:
 1362 0014 00380240 		.word	1073887232
 1363              		.cfi_endproc
 1364              	.LFE143:
 1365              		.size	RCC_AHB1PeriphResetCmd, .-RCC_AHB1PeriphResetCmd
 1366              		.section	.text.RCC_AHB2PeriphResetCmd,"ax",%progbits
 1367              		.align	1
 1368              		.p2align 4,,15
ARM GAS  /tmp/cc2SsK4b.s 			page 25


 1369              		.global	RCC_AHB2PeriphResetCmd
 1370              		.syntax unified
 1371              		.thumb
 1372              		.thumb_func
 1373              		.fpu fpv4-sp-d16
 1374              		.type	RCC_AHB2PeriphResetCmd, %function
 1375              	RCC_AHB2PeriphResetCmd:
 1376              	.LFB144:
 1377              		.loc 1 2032 0
 1378              		.cfi_startproc
 1379              		@ args = 0, pretend = 0, frame = 0
 1380              		@ frame_needed = 0, uses_anonymous_args = 0
 1381              		@ link register save eliminated.
 1382              	.LVL109:
 1383              		.loc 1 2039 0
 1384 0000 044A     		ldr	r2, .L139
 1385 0002 5369     		ldr	r3, [r2, #20]
 1386              		.loc 1 2037 0
 1387 0004 19B9     		cbnz	r1, .L138
 1388              		.loc 1 2043 0
 1389 0006 23EA0000 		bic	r0, r3, r0
 1390              	.LVL110:
 1391 000a 5061     		str	r0, [r2, #20]
 1392              		.loc 1 2045 0
 1393 000c 7047     		bx	lr
 1394              	.LVL111:
 1395              	.L138:
 1396              		.loc 1 2039 0
 1397 000e 1843     		orrs	r0, r0, r3
 1398              	.LVL112:
 1399 0010 5061     		str	r0, [r2, #20]
 1400 0012 7047     		bx	lr
 1401              	.L140:
 1402              		.align	2
 1403              	.L139:
 1404 0014 00380240 		.word	1073887232
 1405              		.cfi_endproc
 1406              	.LFE144:
 1407              		.size	RCC_AHB2PeriphResetCmd, .-RCC_AHB2PeriphResetCmd
 1408              		.section	.text.RCC_AHB3PeriphResetCmd,"ax",%progbits
 1409              		.align	1
 1410              		.p2align 4,,15
 1411              		.global	RCC_AHB3PeriphResetCmd
 1412              		.syntax unified
 1413              		.thumb
 1414              		.thumb_func
 1415              		.fpu fpv4-sp-d16
 1416              		.type	RCC_AHB3PeriphResetCmd, %function
 1417              	RCC_AHB3PeriphResetCmd:
 1418              	.LFB145:
 1419              		.loc 1 2059 0
 1420              		.cfi_startproc
 1421              		@ args = 0, pretend = 0, frame = 0
 1422              		@ frame_needed = 0, uses_anonymous_args = 0
 1423              		@ link register save eliminated.
 1424              	.LVL113:
 1425              		.loc 1 2066 0
ARM GAS  /tmp/cc2SsK4b.s 			page 26


 1426 0000 044A     		ldr	r2, .L145
 1427 0002 9369     		ldr	r3, [r2, #24]
 1428              		.loc 1 2064 0
 1429 0004 19B9     		cbnz	r1, .L144
 1430              		.loc 1 2070 0
 1431 0006 23EA0000 		bic	r0, r3, r0
 1432              	.LVL114:
 1433 000a 9061     		str	r0, [r2, #24]
 1434              		.loc 1 2072 0
 1435 000c 7047     		bx	lr
 1436              	.LVL115:
 1437              	.L144:
 1438              		.loc 1 2066 0
 1439 000e 1843     		orrs	r0, r0, r3
 1440              	.LVL116:
 1441 0010 9061     		str	r0, [r2, #24]
 1442 0012 7047     		bx	lr
 1443              	.L146:
 1444              		.align	2
 1445              	.L145:
 1446 0014 00380240 		.word	1073887232
 1447              		.cfi_endproc
 1448              	.LFE145:
 1449              		.size	RCC_AHB3PeriphResetCmd, .-RCC_AHB3PeriphResetCmd
 1450              		.section	.text.RCC_APB1PeriphResetCmd,"ax",%progbits
 1451              		.align	1
 1452              		.p2align 4,,15
 1453              		.global	RCC_APB1PeriphResetCmd
 1454              		.syntax unified
 1455              		.thumb
 1456              		.thumb_func
 1457              		.fpu fpv4-sp-d16
 1458              		.type	RCC_APB1PeriphResetCmd, %function
 1459              	RCC_APB1PeriphResetCmd:
 1460              	.LFB146:
 1461              		.loc 1 2113 0
 1462              		.cfi_startproc
 1463              		@ args = 0, pretend = 0, frame = 0
 1464              		@ frame_needed = 0, uses_anonymous_args = 0
 1465              		@ link register save eliminated.
 1466              	.LVL117:
 1467              		.loc 1 2119 0
 1468 0000 044A     		ldr	r2, .L151
 1469 0002 136A     		ldr	r3, [r2, #32]
 1470              		.loc 1 2117 0
 1471 0004 19B9     		cbnz	r1, .L150
 1472              		.loc 1 2123 0
 1473 0006 23EA0000 		bic	r0, r3, r0
 1474              	.LVL118:
 1475 000a 1062     		str	r0, [r2, #32]
 1476              		.loc 1 2125 0
 1477 000c 7047     		bx	lr
 1478              	.LVL119:
 1479              	.L150:
 1480              		.loc 1 2119 0
 1481 000e 1843     		orrs	r0, r0, r3
 1482              	.LVL120:
ARM GAS  /tmp/cc2SsK4b.s 			page 27


 1483 0010 1062     		str	r0, [r2, #32]
 1484 0012 7047     		bx	lr
 1485              	.L152:
 1486              		.align	2
 1487              	.L151:
 1488 0014 00380240 		.word	1073887232
 1489              		.cfi_endproc
 1490              	.LFE146:
 1491              		.size	RCC_APB1PeriphResetCmd, .-RCC_APB1PeriphResetCmd
 1492              		.section	.text.RCC_APB2PeriphResetCmd,"ax",%progbits
 1493              		.align	1
 1494              		.p2align 4,,15
 1495              		.global	RCC_APB2PeriphResetCmd
 1496              		.syntax unified
 1497              		.thumb
 1498              		.thumb_func
 1499              		.fpu fpv4-sp-d16
 1500              		.type	RCC_APB2PeriphResetCmd, %function
 1501              	RCC_APB2PeriphResetCmd:
 1502              	.LFB147:
 1503              		.loc 1 2156 0
 1504              		.cfi_startproc
 1505              		@ args = 0, pretend = 0, frame = 0
 1506              		@ frame_needed = 0, uses_anonymous_args = 0
 1507              		@ link register save eliminated.
 1508              	.LVL121:
 1509              		.loc 1 2162 0
 1510 0000 044A     		ldr	r2, .L157
 1511 0002 536A     		ldr	r3, [r2, #36]
 1512              		.loc 1 2160 0
 1513 0004 19B9     		cbnz	r1, .L156
 1514              		.loc 1 2166 0
 1515 0006 23EA0000 		bic	r0, r3, r0
 1516              	.LVL122:
 1517 000a 5062     		str	r0, [r2, #36]
 1518              		.loc 1 2168 0
 1519 000c 7047     		bx	lr
 1520              	.LVL123:
 1521              	.L156:
 1522              		.loc 1 2162 0
 1523 000e 1843     		orrs	r0, r0, r3
 1524              	.LVL124:
 1525 0010 5062     		str	r0, [r2, #36]
 1526 0012 7047     		bx	lr
 1527              	.L158:
 1528              		.align	2
 1529              	.L157:
 1530 0014 00380240 		.word	1073887232
 1531              		.cfi_endproc
 1532              	.LFE147:
 1533              		.size	RCC_APB2PeriphResetCmd, .-RCC_APB2PeriphResetCmd
 1534              		.section	.text.RCC_AHB1PeriphClockLPModeCmd,"ax",%progbits
 1535              		.align	1
 1536              		.p2align 4,,15
 1537              		.global	RCC_AHB1PeriphClockLPModeCmd
 1538              		.syntax unified
 1539              		.thumb
ARM GAS  /tmp/cc2SsK4b.s 			page 28


 1540              		.thumb_func
 1541              		.fpu fpv4-sp-d16
 1542              		.type	RCC_AHB1PeriphClockLPModeCmd, %function
 1543              	RCC_AHB1PeriphClockLPModeCmd:
 1544              	.LFB148:
 1545              		.loc 1 2205 0
 1546              		.cfi_startproc
 1547              		@ args = 0, pretend = 0, frame = 0
 1548              		@ frame_needed = 0, uses_anonymous_args = 0
 1549              		@ link register save eliminated.
 1550              	.LVL125:
 1551              		.loc 1 2211 0
 1552 0000 044A     		ldr	r2, .L163
 1553 0002 136D     		ldr	r3, [r2, #80]
 1554              		.loc 1 2209 0
 1555 0004 19B9     		cbnz	r1, .L162
 1556              		.loc 1 2215 0
 1557 0006 23EA0000 		bic	r0, r3, r0
 1558              	.LVL126:
 1559 000a 1065     		str	r0, [r2, #80]
 1560              		.loc 1 2217 0
 1561 000c 7047     		bx	lr
 1562              	.LVL127:
 1563              	.L162:
 1564              		.loc 1 2211 0
 1565 000e 1843     		orrs	r0, r0, r3
 1566              	.LVL128:
 1567 0010 1065     		str	r0, [r2, #80]
 1568 0012 7047     		bx	lr
 1569              	.L164:
 1570              		.align	2
 1571              	.L163:
 1572 0014 00380240 		.word	1073887232
 1573              		.cfi_endproc
 1574              	.LFE148:
 1575              		.size	RCC_AHB1PeriphClockLPModeCmd, .-RCC_AHB1PeriphClockLPModeCmd
 1576              		.section	.text.RCC_AHB2PeriphClockLPModeCmd,"ax",%progbits
 1577              		.align	1
 1578              		.p2align 4,,15
 1579              		.global	RCC_AHB2PeriphClockLPModeCmd
 1580              		.syntax unified
 1581              		.thumb
 1582              		.thumb_func
 1583              		.fpu fpv4-sp-d16
 1584              		.type	RCC_AHB2PeriphClockLPModeCmd, %function
 1585              	RCC_AHB2PeriphClockLPModeCmd:
 1586              	.LFB149:
 1587              		.loc 1 2237 0
 1588              		.cfi_startproc
 1589              		@ args = 0, pretend = 0, frame = 0
 1590              		@ frame_needed = 0, uses_anonymous_args = 0
 1591              		@ link register save eliminated.
 1592              	.LVL129:
 1593              		.loc 1 2243 0
 1594 0000 044A     		ldr	r2, .L169
 1595 0002 536D     		ldr	r3, [r2, #84]
 1596              		.loc 1 2241 0
ARM GAS  /tmp/cc2SsK4b.s 			page 29


 1597 0004 19B9     		cbnz	r1, .L168
 1598              		.loc 1 2247 0
 1599 0006 23EA0000 		bic	r0, r3, r0
 1600              	.LVL130:
 1601 000a 5065     		str	r0, [r2, #84]
 1602              		.loc 1 2249 0
 1603 000c 7047     		bx	lr
 1604              	.LVL131:
 1605              	.L168:
 1606              		.loc 1 2243 0
 1607 000e 1843     		orrs	r0, r0, r3
 1608              	.LVL132:
 1609 0010 5065     		str	r0, [r2, #84]
 1610 0012 7047     		bx	lr
 1611              	.L170:
 1612              		.align	2
 1613              	.L169:
 1614 0014 00380240 		.word	1073887232
 1615              		.cfi_endproc
 1616              	.LFE149:
 1617              		.size	RCC_AHB2PeriphClockLPModeCmd, .-RCC_AHB2PeriphClockLPModeCmd
 1618              		.section	.text.RCC_AHB3PeriphClockLPModeCmd,"ax",%progbits
 1619              		.align	1
 1620              		.p2align 4,,15
 1621              		.global	RCC_AHB3PeriphClockLPModeCmd
 1622              		.syntax unified
 1623              		.thumb
 1624              		.thumb_func
 1625              		.fpu fpv4-sp-d16
 1626              		.type	RCC_AHB3PeriphClockLPModeCmd, %function
 1627              	RCC_AHB3PeriphClockLPModeCmd:
 1628              	.LFB150:
 1629              		.loc 1 2267 0
 1630              		.cfi_startproc
 1631              		@ args = 0, pretend = 0, frame = 0
 1632              		@ frame_needed = 0, uses_anonymous_args = 0
 1633              		@ link register save eliminated.
 1634              	.LVL133:
 1635              		.loc 1 2273 0
 1636 0000 044A     		ldr	r2, .L175
 1637 0002 936D     		ldr	r3, [r2, #88]
 1638              		.loc 1 2271 0
 1639 0004 19B9     		cbnz	r1, .L174
 1640              		.loc 1 2277 0
 1641 0006 23EA0000 		bic	r0, r3, r0
 1642              	.LVL134:
 1643 000a 9065     		str	r0, [r2, #88]
 1644              		.loc 1 2279 0
 1645 000c 7047     		bx	lr
 1646              	.LVL135:
 1647              	.L174:
 1648              		.loc 1 2273 0
 1649 000e 1843     		orrs	r0, r0, r3
 1650              	.LVL136:
 1651 0010 9065     		str	r0, [r2, #88]
 1652 0012 7047     		bx	lr
 1653              	.L176:
ARM GAS  /tmp/cc2SsK4b.s 			page 30


 1654              		.align	2
 1655              	.L175:
 1656 0014 00380240 		.word	1073887232
 1657              		.cfi_endproc
 1658              	.LFE150:
 1659              		.size	RCC_AHB3PeriphClockLPModeCmd, .-RCC_AHB3PeriphClockLPModeCmd
 1660              		.section	.text.RCC_APB1PeriphClockLPModeCmd,"ax",%progbits
 1661              		.align	1
 1662              		.p2align 4,,15
 1663              		.global	RCC_APB1PeriphClockLPModeCmd
 1664              		.syntax unified
 1665              		.thumb
 1666              		.thumb_func
 1667              		.fpu fpv4-sp-d16
 1668              		.type	RCC_APB1PeriphClockLPModeCmd, %function
 1669              	RCC_APB1PeriphClockLPModeCmd:
 1670              	.LFB151:
 1671              		.loc 1 2324 0
 1672              		.cfi_startproc
 1673              		@ args = 0, pretend = 0, frame = 0
 1674              		@ frame_needed = 0, uses_anonymous_args = 0
 1675              		@ link register save eliminated.
 1676              	.LVL137:
 1677              		.loc 1 2330 0
 1678 0000 044A     		ldr	r2, .L181
 1679 0002 136E     		ldr	r3, [r2, #96]
 1680              		.loc 1 2328 0
 1681 0004 19B9     		cbnz	r1, .L180
 1682              		.loc 1 2334 0
 1683 0006 23EA0000 		bic	r0, r3, r0
 1684              	.LVL138:
 1685 000a 1066     		str	r0, [r2, #96]
 1686              		.loc 1 2336 0
 1687 000c 7047     		bx	lr
 1688              	.LVL139:
 1689              	.L180:
 1690              		.loc 1 2330 0
 1691 000e 1843     		orrs	r0, r0, r3
 1692              	.LVL140:
 1693 0010 1066     		str	r0, [r2, #96]
 1694 0012 7047     		bx	lr
 1695              	.L182:
 1696              		.align	2
 1697              	.L181:
 1698 0014 00380240 		.word	1073887232
 1699              		.cfi_endproc
 1700              	.LFE151:
 1701              		.size	RCC_APB1PeriphClockLPModeCmd, .-RCC_APB1PeriphClockLPModeCmd
 1702              		.section	.text.RCC_APB2PeriphClockLPModeCmd,"ax",%progbits
 1703              		.align	1
 1704              		.p2align 4,,15
 1705              		.global	RCC_APB2PeriphClockLPModeCmd
 1706              		.syntax unified
 1707              		.thumb
 1708              		.thumb_func
 1709              		.fpu fpv4-sp-d16
 1710              		.type	RCC_APB2PeriphClockLPModeCmd, %function
ARM GAS  /tmp/cc2SsK4b.s 			page 31


 1711              	RCC_APB2PeriphClockLPModeCmd:
 1712              	.LFB152:
 1713              		.loc 1 2371 0
 1714              		.cfi_startproc
 1715              		@ args = 0, pretend = 0, frame = 0
 1716              		@ frame_needed = 0, uses_anonymous_args = 0
 1717              		@ link register save eliminated.
 1718              	.LVL141:
 1719              		.loc 1 2377 0
 1720 0000 044A     		ldr	r2, .L187
 1721 0002 536E     		ldr	r3, [r2, #100]
 1722              		.loc 1 2375 0
 1723 0004 19B9     		cbnz	r1, .L186
 1724              		.loc 1 2381 0
 1725 0006 23EA0000 		bic	r0, r3, r0
 1726              	.LVL142:
 1727 000a 5066     		str	r0, [r2, #100]
 1728              		.loc 1 2383 0
 1729 000c 7047     		bx	lr
 1730              	.LVL143:
 1731              	.L186:
 1732              		.loc 1 2377 0
 1733 000e 1843     		orrs	r0, r0, r3
 1734              	.LVL144:
 1735 0010 5066     		str	r0, [r2, #100]
 1736 0012 7047     		bx	lr
 1737              	.L188:
 1738              		.align	2
 1739              	.L187:
 1740 0014 00380240 		.word	1073887232
 1741              		.cfi_endproc
 1742              	.LFE152:
 1743              		.size	RCC_APB2PeriphClockLPModeCmd, .-RCC_APB2PeriphClockLPModeCmd
 1744              		.section	.text.RCC_LSEModeConfig,"ax",%progbits
 1745              		.align	1
 1746              		.p2align 4,,15
 1747              		.global	RCC_LSEModeConfig
 1748              		.syntax unified
 1749              		.thumb
 1750              		.thumb_func
 1751              		.fpu fpv4-sp-d16
 1752              		.type	RCC_LSEModeConfig, %function
 1753              	RCC_LSEModeConfig:
 1754              	.LFB153:
 1755              		.loc 1 2395 0
 1756              		.cfi_startproc
 1757              		@ args = 0, pretend = 0, frame = 0
 1758              		@ frame_needed = 0, uses_anonymous_args = 0
 1759              		@ link register save eliminated.
 1760              	.LVL145:
 1761              		.loc 1 2401 0
 1762 0000 044A     		ldr	r2, .L192
 1763 0002 136F     		ldr	r3, [r2, #112]
 1764              		.loc 1 2399 0
 1765 0004 0128     		cmp	r0, #1
 1766              		.loc 1 2401 0
 1767 0006 0CBF     		ite	eq
ARM GAS  /tmp/cc2SsK4b.s 			page 32


 1768 0008 43F00803 		orreq	r3, r3, #8
 1769              		.loc 1 2405 0
 1770 000c 23F00803 		bicne	r3, r3, #8
 1771 0010 1367     		str	r3, [r2, #112]
 1772              		.loc 1 2407 0
 1773 0012 7047     		bx	lr
 1774              	.L193:
 1775              		.align	2
 1776              	.L192:
 1777 0014 00380240 		.word	1073887232
 1778              		.cfi_endproc
 1779              	.LFE153:
 1780              		.size	RCC_LSEModeConfig, .-RCC_LSEModeConfig
 1781              		.section	.text.RCC_ITConfig,"ax",%progbits
 1782              		.align	1
 1783              		.p2align 4,,15
 1784              		.global	RCC_ITConfig
 1785              		.syntax unified
 1786              		.thumb
 1787              		.thumb_func
 1788              		.fpu fpv4-sp-d16
 1789              		.type	RCC_ITConfig, %function
 1790              	RCC_ITConfig:
 1791              	.LFB154:
 1792              		.loc 1 2697 0
 1793              		.cfi_startproc
 1794              		@ args = 0, pretend = 0, frame = 0
 1795              		@ frame_needed = 0, uses_anonymous_args = 0
 1796              		@ link register save eliminated.
 1797              	.LVL146:
 1798              		.loc 1 2704 0
 1799 0000 044A     		ldr	r2, .L198
 1800 0002 1378     		ldrb	r3, [r2]	@ zero_extendqisi2
 1801              		.loc 1 2701 0
 1802 0004 19B9     		cbnz	r1, .L197
 1803              		.loc 1 2709 0
 1804 0006 23EA0000 		bic	r0, r3, r0
 1805              	.LVL147:
 1806 000a 1070     		strb	r0, [r2]
 1807              		.loc 1 2711 0
 1808 000c 7047     		bx	lr
 1809              	.LVL148:
 1810              	.L197:
 1811              		.loc 1 2704 0
 1812 000e 1843     		orrs	r0, r0, r3
 1813              	.LVL149:
 1814 0010 1070     		strb	r0, [r2]
 1815 0012 7047     		bx	lr
 1816              	.L199:
 1817              		.align	2
 1818              	.L198:
 1819 0014 0D380240 		.word	1073887245
 1820              		.cfi_endproc
 1821              	.LFE154:
 1822              		.size	RCC_ITConfig, .-RCC_ITConfig
 1823              		.section	.text.RCC_GetFlagStatus,"ax",%progbits
 1824              		.align	1
ARM GAS  /tmp/cc2SsK4b.s 			page 33


 1825              		.p2align 4,,15
 1826              		.global	RCC_GetFlagStatus
 1827              		.syntax unified
 1828              		.thumb
 1829              		.thumb_func
 1830              		.fpu fpv4-sp-d16
 1831              		.type	RCC_GetFlagStatus, %function
 1832              	RCC_GetFlagStatus:
 1833              	.LFB155:
 1834              		.loc 1 2734 0
 1835              		.cfi_startproc
 1836              		@ args = 0, pretend = 0, frame = 0
 1837              		@ frame_needed = 0, uses_anonymous_args = 0
 1838              		@ link register save eliminated.
 1839              	.LVL150:
 1840              		.loc 1 2743 0
 1841 0000 4309     		lsrs	r3, r0, #5
 1842              	.LVL151:
 1843              		.loc 1 2744 0
 1844 0002 012B     		cmp	r3, #1
 1845 0004 0BD0     		beq	.L204
 1846              		.loc 1 2748 0
 1847 0006 022B     		cmp	r3, #2
 1848              		.loc 1 2750 0
 1849 0008 094B     		ldr	r3, .L205
 1850              	.LVL152:
 1851 000a 0CBF     		ite	eq
 1852 000c 1B6F     		ldreq	r3, [r3, #112]
 1853              	.LVL153:
 1854              		.loc 1 2754 0
 1855 000e 5B6F     		ldrne	r3, [r3, #116]
 1856              	.LVL154:
 1857              		.loc 1 2758 0
 1858 0010 00F01F00 		and	r0, r0, #31
 1859              	.LVL155:
 1860              		.loc 1 2759 0
 1861 0014 23FA00F0 		lsr	r0, r3, r0
 1862              		.loc 1 2769 0
 1863 0018 00F00100 		and	r0, r0, #1
 1864 001c 7047     		bx	lr
 1865              	.LVL156:
 1866              	.L204:
 1867              		.loc 1 2746 0
 1868 001e 044B     		ldr	r3, .L205
 1869              	.LVL157:
 1870 0020 1B68     		ldr	r3, [r3]
 1871              	.LVL158:
 1872              		.loc 1 2758 0
 1873 0022 00F01F00 		and	r0, r0, #31
 1874              	.LVL159:
 1875              		.loc 1 2759 0
 1876 0026 23FA00F0 		lsr	r0, r3, r0
 1877              		.loc 1 2769 0
 1878 002a 00F00100 		and	r0, r0, #1
 1879 002e 7047     		bx	lr
 1880              	.L206:
 1881              		.align	2
ARM GAS  /tmp/cc2SsK4b.s 			page 34


 1882              	.L205:
 1883 0030 00380240 		.word	1073887232
 1884              		.cfi_endproc
 1885              	.LFE155:
 1886              		.size	RCC_GetFlagStatus, .-RCC_GetFlagStatus
 1887              		.section	.text.RCC_ClearFlag,"ax",%progbits
 1888              		.align	1
 1889              		.p2align 4,,15
 1890              		.global	RCC_ClearFlag
 1891              		.syntax unified
 1892              		.thumb
 1893              		.thumb_func
 1894              		.fpu fpv4-sp-d16
 1895              		.type	RCC_ClearFlag, %function
 1896              	RCC_ClearFlag:
 1897              	.LFB156:
 1898              		.loc 1 2779 0
 1899              		.cfi_startproc
 1900              		@ args = 0, pretend = 0, frame = 0
 1901              		@ frame_needed = 0, uses_anonymous_args = 0
 1902              		@ link register save eliminated.
 1903              		.loc 1 2781 0
 1904 0000 024A     		ldr	r2, .L208
 1905 0002 536F     		ldr	r3, [r2, #116]
 1906 0004 43F08073 		orr	r3, r3, #16777216
 1907 0008 5367     		str	r3, [r2, #116]
 1908              		.loc 1 2782 0
 1909 000a 7047     		bx	lr
 1910              	.L209:
 1911              		.align	2
 1912              	.L208:
 1913 000c 00380240 		.word	1073887232
 1914              		.cfi_endproc
 1915              	.LFE156:
 1916              		.size	RCC_ClearFlag, .-RCC_ClearFlag
 1917              		.section	.text.RCC_GetITStatus,"ax",%progbits
 1918              		.align	1
 1919              		.p2align 4,,15
 1920              		.global	RCC_GetITStatus
 1921              		.syntax unified
 1922              		.thumb
 1923              		.thumb_func
 1924              		.fpu fpv4-sp-d16
 1925              		.type	RCC_GetITStatus, %function
 1926              	RCC_GetITStatus:
 1927              	.LFB157:
 1928              		.loc 1 2799 0
 1929              		.cfi_startproc
 1930              		@ args = 0, pretend = 0, frame = 0
 1931              		@ frame_needed = 0, uses_anonymous_args = 0
 1932              		@ link register save eliminated.
 1933              	.LVL160:
 1934              		.loc 1 2806 0
 1935 0000 034B     		ldr	r3, .L211
 1936 0002 DB68     		ldr	r3, [r3, #12]
 1937              	.LVL161:
 1938 0004 1842     		tst	r0, r3
ARM GAS  /tmp/cc2SsK4b.s 			page 35


 1939              		.loc 1 2816 0
 1940 0006 14BF     		ite	ne
 1941 0008 0120     		movne	r0, #1
 1942              	.LVL162:
 1943 000a 0020     		moveq	r0, #0
 1944 000c 7047     		bx	lr
 1945              	.L212:
 1946 000e 00BF     		.align	2
 1947              	.L211:
 1948 0010 00380240 		.word	1073887232
 1949              		.cfi_endproc
 1950              	.LFE157:
 1951              		.size	RCC_GetITStatus, .-RCC_GetITStatus
 1952              		.section	.text.RCC_ClearITPendingBit,"ax",%progbits
 1953              		.align	1
 1954              		.p2align 4,,15
 1955              		.global	RCC_ClearITPendingBit
 1956              		.syntax unified
 1957              		.thumb
 1958              		.thumb_func
 1959              		.fpu fpv4-sp-d16
 1960              		.type	RCC_ClearITPendingBit, %function
 1961              	RCC_ClearITPendingBit:
 1962              	.LFB158:
 1963              		.loc 1 2833 0
 1964              		.cfi_startproc
 1965              		@ args = 0, pretend = 0, frame = 0
 1966              		@ frame_needed = 0, uses_anonymous_args = 0
 1967              		@ link register save eliminated.
 1968              	.LVL163:
 1969              		.loc 1 2839 0
 1970 0000 014B     		ldr	r3, .L214
 1971 0002 1870     		strb	r0, [r3]
 1972              		.loc 1 2840 0
 1973 0004 7047     		bx	lr
 1974              	.L215:
 1975 0006 00BF     		.align	2
 1976              	.L214:
 1977 0008 0E380240 		.word	1073887246
 1978              		.cfi_endproc
 1979              	.LFE158:
 1980              		.size	RCC_ClearITPendingBit, .-RCC_ClearITPendingBit
 1981              		.section	.data.APBAHBPrescTable,"aw",%progbits
 1982              		.align	2
 1983              		.set	.LANCHOR0,. + 0
 1984              		.type	APBAHBPrescTable, %object
 1985              		.size	APBAHBPrescTable, 16
 1986              	APBAHBPrescTable:
 1987 0000 00       		.byte	0
 1988 0001 00       		.byte	0
 1989 0002 00       		.byte	0
 1990 0003 00       		.byte	0
 1991 0004 01       		.byte	1
 1992 0005 02       		.byte	2
 1993 0006 03       		.byte	3
 1994 0007 04       		.byte	4
 1995 0008 01       		.byte	1
ARM GAS  /tmp/cc2SsK4b.s 			page 36


 1996 0009 02       		.byte	2
 1997 000a 03       		.byte	3
 1998 000b 04       		.byte	4
 1999 000c 06       		.byte	6
 2000 000d 07       		.byte	7
 2001 000e 08       		.byte	8
 2002 000f 09       		.byte	9
 2003              		.text
 2004              	.Letext0:
 2005              		.file 2 "/usr/arm-none-eabi/include/machine/_default_types.h"
 2006              		.file 3 "/usr/arm-none-eabi/include/sys/_stdint.h"
 2007              		.file 4 "ChibiOS_3.0.5/os/ext/CMSIS/include/core_cm4.h"
 2008              		.file 5 "ChibiOS_3.0.5/os/ext/CMSIS/ST/system_stm32f4xx.h"
 2009              		.file 6 "ChibiOS_3.0.5/os/ext/CMSIS/ST/stm32f407xx.h"
 2010              		.file 7 "ChibiOS_3.0.5/os/ext/CMSIS/ST/stm32f4xx.h"
 2011              		.file 8 "ChibiOS_3.0.5/ext/stdperiph_stm32f4/inc/stm32f4xx_rcc.h"