ARM GAS  /tmp/ccJYnsep.s 			page 1


   1              		.cpu cortex-m4
   2              		.eabi_attribute 27, 1
   3              		.eabi_attribute 28, 1
   4              		.eabi_attribute 20, 1
   5              		.eabi_attribute 21, 1
   6              		.eabi_attribute 23, 3
   7              		.eabi_attribute 24, 1
   8              		.eabi_attribute 25, 1
   9              		.eabi_attribute 26, 1
  10              		.eabi_attribute 30, 2
  11              		.eabi_attribute 34, 1
  12              		.eabi_attribute 18, 4
  13              		.file	"stm32f4.c"
  14              		.text
  15              	.Ltext0:
  16              		.cfi_sections	.debug_frame
  17              		.section	.text.stm32f4_flash_write,"ax",%progbits
  18              		.align	1
  19              		.p2align 4,,15
  20              		.syntax unified
  21              		.thumb
  22              		.thumb_func
  23              		.fpu fpv4-sp-d16
  24              		.type	stm32f4_flash_write, %function
  25              	stm32f4_flash_write:
  26              	.LFB270:
  27              		.file 1 "blackmagic/target/stm32f4.c"
  28              		.loc 1 427 0
  29              		.cfi_startproc
  30              		@ args = 0, pretend = 0, frame = 0
  31              		@ frame_needed = 0, uses_anonymous_args = 0
  32              	.LVL0:
  33 0000 2DE9F043 		push	{r4, r5, r6, r7, r8, r9, lr}
  34              		.cfi_def_cfa_offset 28
  35              		.cfi_offset 4, -28
  36              		.cfi_offset 5, -24
  37              		.cfi_offset 6, -20
  38              		.cfi_offset 7, -16
  39              		.cfi_offset 8, -12
  40              		.cfi_offset 9, -8
  41              		.cfi_offset 14, -4
  42              		.loc 1 434 0
  43 0004 90F83070 		ldrb	r7, [r0, #48]	@ zero_extendqisi2
  44              		.loc 1 432 0
  45 0008 8469     		ldr	r4, [r0, #24]
  46              		.loc 1 441 0
  47 000a 1E4E     		ldr	r6, .L11
  48              		.loc 1 427 0
  49 000c 0D46     		mov	r5, r1
  50              		.loc 1 429 0
  51 000e A1F50011 		sub	r1, r1, #2097152
  52              	.LVL1:
  53 0012 B1F1FC6F 		cmp	r1, #132120576
  54              		.loc 1 427 0
  55 0016 83B0     		sub	sp, sp, #12
  56              		.cfi_def_cfa_offset 40
  57              		.loc 1 427 0
ARM GAS  /tmp/ccJYnsep.s 			page 2


  58 0018 9046     		mov	r8, r2
  59              		.loc 1 436 0
  60 001a 4FEA0722 		lsl	r2, r7, #8
  61              	.LVL2:
  62              		.loc 1 427 0
  63 001e 9946     		mov	r9, r3
  64              		.loc 1 430 0
  65 0020 38BF     		it	cc
  66 0022 05F1FC65 		addcc	r5, r5, #132120576
  67              	.LVL3:
  68              		.loc 1 435 0
  69 0026 2046     		mov	r0, r4
  70              	.LVL4:
  71 0028 1749     		ldr	r1, .L11+4
  72 002a 42F00102 		orr	r2, r2, #1
  73 002e FFF7FEFF 		bl	target_mem_write32
  74              	.LVL5:
  75              		.loc 1 437 0
  76 0032 0097     		str	r7, [sp]
  77 0034 4B46     		mov	r3, r9
  78 0036 4246     		mov	r2, r8
  79 0038 2946     		mov	r1, r5
  80 003a 2046     		mov	r0, r4
  81 003c FFF7FEFF 		bl	cortexm_mem_write_sized
  82              	.LVL6:
  83 0040 04E0     		b	.L5
  84              	.LVL7:
  85              	.L3:
  86              		.loc 1 446 0
  87 0042 0120     		movs	r0, #1
  88 0044 FFF7FEFF 		bl	platform_delay
  89              	.LVL8:
  90              		.loc 1 447 0
  91 0048 EB03     		lsls	r3, r5, #15
  92 004a 11D5     		bpl	.L10
  93              	.LVL9:
  94              	.L5:
  95              		.loc 1 441 0
  96 004c 3146     		mov	r1, r6
  97 004e 2046     		mov	r0, r4
  98 0050 FFF7FEFF 		bl	target_mem_read32
  99              	.LVL10:
 100 0054 0546     		mov	r5, r0
 101              	.LVL11:
 102              		.loc 1 442 0
 103 0056 2046     		mov	r0, r4
 104              	.LVL12:
 105 0058 FFF7FEFF 		bl	target_check_error
 106              	.LVL13:
 107 005c 0028     		cmp	r0, #0
 108 005e F0D0     		beq	.L3
 109              		.loc 1 443 0
 110 0060 0A48     		ldr	r0, .L11+8
 111 0062 FFF7FEFF 		bl	commands_printf
 112              	.LVL14:
 113              		.loc 1 444 0
 114 0066 4FF0FF30 		mov	r0, #-1
ARM GAS  /tmp/ccJYnsep.s 			page 3


 115              	.L1:
 116              		.loc 1 454 0
 117 006a 03B0     		add	sp, sp, #12
 118              		.cfi_remember_state
 119              		.cfi_def_cfa_offset 28
 120              		@ sp needed
 121 006c BDE8F083 		pop	{r4, r5, r6, r7, r8, r9, pc}
 122              	.LVL15:
 123              	.L10:
 124              		.cfi_restore_state
 125              		.loc 1 449 0
 126 0070 15F0F200 		ands	r0, r5, #242
 127 0074 F9D0     		beq	.L1
 128              		.loc 1 450 0
 129 0076 0648     		ldr	r0, .L11+12
 130 0078 2946     		mov	r1, r5
 131 007a FFF7FEFF 		bl	commands_printf
 132              	.LVL16:
 133              		.loc 1 451 0
 134 007e 4FF0FF30 		mov	r0, #-1
 135 0082 F2E7     		b	.L1
 136              	.L12:
 137              		.align	2
 138              	.L11:
 139 0084 0C3C0240 		.word	1073888268
 140 0088 103C0240 		.word	1073888272
 141 008c 00000000 		.word	.LC0
 142 0090 24000000 		.word	.LC1
 143              		.cfi_endproc
 144              	.LFE270:
 145              		.size	stm32f4_flash_write, .-stm32f4_flash_write
 146              		.section	.text.stm32f7_detach,"ax",%progbits
 147              		.align	1
 148              		.p2align 4,,15
 149              		.syntax unified
 150              		.thumb
 151              		.thumb_func
 152              		.fpu fpv4-sp-d16
 153              		.type	stm32f7_detach, %function
 154              	stm32f7_detach:
 155              	.LFB265:
 156              		.loc 1 188 0
 157              		.cfi_startproc
 158              		@ args = 0, pretend = 0, frame = 0
 159              		@ frame_needed = 0, uses_anonymous_args = 0
 160              	.LVL17:
 161 0000 10B5     		push	{r4, lr}
 162              		.cfi_def_cfa_offset 8
 163              		.cfi_offset 4, -8
 164              		.cfi_offset 14, -4
 165              		.loc 1 189 0
 166 0002 426D     		ldr	r2, [r0, #84]
 167 0004 0449     		ldr	r1, .L15
 168              		.loc 1 188 0
 169 0006 0446     		mov	r4, r0
 170              		.loc 1 189 0
 171 0008 FFF7FEFF 		bl	target_mem_write32
ARM GAS  /tmp/ccJYnsep.s 			page 4


 172              	.LVL18:
 173              		.loc 1 190 0
 174 000c 2046     		mov	r0, r4
 175              		.loc 1 191 0
 176 000e BDE81040 		pop	{r4, lr}
 177              		.cfi_restore 14
 178              		.cfi_restore 4
 179              		.cfi_def_cfa_offset 0
 180              	.LVL19:
 181              		.loc 1 190 0
 182 0012 FFF7FEBF 		b	cortexm_detach
 183              	.LVL20:
 184              	.L16:
 185 0016 00BF     		.align	2
 186              	.L15:
 187 0018 042004E0 		.word	-536600572
 188              		.cfi_endproc
 189              	.LFE265:
 190              		.size	stm32f7_detach, .-stm32f7_detach
 191              		.section	.text.stm32f4_cmd_psize,"ax",%progbits
 192              		.align	1
 193              		.p2align 4,,15
 194              		.syntax unified
 195              		.thumb
 196              		.thumb_func
 197              		.fpu fpv4-sp-d16
 198              		.type	stm32f4_cmd_psize, %function
 199              	stm32f4_cmd_psize:
 200              	.LFB276:
 201              		.loc 1 699 0
 202              		.cfi_startproc
 203              		@ args = 0, pretend = 0, frame = 0
 204              		@ frame_needed = 0, uses_anonymous_args = 0
 205              	.LVL21:
 206              		.loc 1 700 0
 207 0000 0129     		cmp	r1, #1
 208              		.loc 1 699 0
 209 0002 38B5     		push	{r3, r4, r5, lr}
 210              		.cfi_def_cfa_offset 16
 211              		.cfi_offset 3, -16
 212              		.cfi_offset 4, -12
 213              		.cfi_offset 5, -8
 214              		.cfi_offset 14, -4
 215              		.loc 1 699 0
 216 0004 0446     		mov	r4, r0
 217              		.loc 1 700 0
 218 0006 23D0     		beq	.L41
 219              	.LVL22:
 220              	.LBB101:
 221              	.LBB102:
 222              	.LBB103:
 223              		.loc 1 713 0
 224 0008 5568     		ldr	r5, [r2, #4]
 225 000a 2649     		ldr	r1, .L44
 226              	.LVL23:
 227 000c 2846     		mov	r0, r5
 228              	.LVL24:
ARM GAS  /tmp/ccJYnsep.s 			page 5


 229 000e FFF7FEFF 		bl	strcmp
 230              	.LVL25:
 231 0012 60B9     		cbnz	r0, .L42
 232              	.L23:
 233              	.LVL26:
 234              	.LBB104:
 235              		.loc 1 725 0
 236 0014 E36D     		ldr	r3, [r4, #92]
 237              	.LVL27:
 238 0016 43B1     		cbz	r3, .L24
 239 0018 2349     		ldr	r1, .L44+4
 240              	.L26:
 241              		.loc 1 726 0
 242 001a 1A69     		ldr	r2, [r3, #16]
 243 001c 8A42     		cmp	r2, r1
 244              		.loc 1 727 0
 245 001e 08BF     		it	eq
 246 0020 83F83000 		strbeq	r0, [r3, #48]
 247              		.loc 1 725 0
 248 0024 5B6A     		ldr	r3, [r3, #36]
 249              	.LVL28:
 250 0026 002B     		cmp	r3, #0
 251 0028 F7D1     		bne	.L26
 252              	.L24:
 253              	.LBE104:
 254              	.LBE103:
 255              		.loc 1 731 0
 256 002a 0120     		movs	r0, #1
 257              	.LVL29:
 258              	.LBE102:
 259              	.LBE101:
 260              		.loc 1 732 0
 261 002c 38BD     		pop	{r3, r4, r5, pc}
 262              	.LVL30:
 263              	.L42:
 264              	.LBB113:
 265              	.LBB109:
 266              	.LBB105:
 267              		.loc 1 715 0
 268 002e 1F49     		ldr	r1, .L44+8
 269 0030 2846     		mov	r0, r5
 270 0032 FFF7FEFF 		bl	strcmp
 271              	.LVL31:
 272 0036 38B3     		cbz	r0, .L32
 273              		.loc 1 717 0
 274 0038 1D49     		ldr	r1, .L44+12
 275 003a 2846     		mov	r0, r5
 276 003c FFF7FEFF 		bl	strcmp
 277              	.LVL32:
 278 0040 30B3     		cbz	r0, .L33
 279              		.loc 1 719 0
 280 0042 2846     		mov	r0, r5
 281 0044 1B49     		ldr	r1, .L44+16
 282 0046 FFF7FEFF 		bl	strcmp
 283              	.LVL33:
 284 004a 28BB     		cbnz	r0, .L43
 285              		.loc 1 720 0
ARM GAS  /tmp/ccJYnsep.s 			page 6


 286 004c 0320     		movs	r0, #3
 287 004e E1E7     		b	.L23
 288              	.LVL34:
 289              	.L41:
 290              	.LBE105:
 291              	.LBE109:
 292              	.LBE113:
 293              	.LBB114:
 294              	.LBB115:
 295              		.loc 1 702 0
 296 0050 C36D     		ldr	r3, [r0, #92]
 297              	.LVL35:
 298 0052 FBB1     		cbz	r3, .L29
 299 0054 1449     		ldr	r1, .L44+4
 300              	.LVL36:
 301              	.LBE115:
 302              		.loc 1 701 0
 303 0056 0222     		movs	r2, #2
 304              	.LVL37:
 305              	.L21:
 306              	.LBB116:
 307              		.loc 1 703 0
 308 0058 1869     		ldr	r0, [r3, #16]
 309 005a 8842     		cmp	r0, r1
 310              		.loc 1 704 0
 311 005c 08BF     		it	eq
 312 005e 93F83020 		ldrbeq	r2, [r3, #48]	@ zero_extendqisi2
 313              	.LVL38:
 314              		.loc 1 702 0
 315 0062 5B6A     		ldr	r3, [r3, #36]
 316              	.LVL39:
 317 0064 002B     		cmp	r3, #0
 318 0066 F7D1     		bne	.L21
 319              	.LBE116:
 320              		.loc 1 707 0
 321 0068 032A     		cmp	r2, #3
 322 006a 0FD0     		beq	.L28
 323              		.loc 1 709 0
 324 006c 022A     		cmp	r2, #2
 325 006e 11D0     		beq	.L29
 326              		.loc 1 710 0
 327 0070 0E4B     		ldr	r3, .L44+8
 328              	.LVL40:
 329 0072 0C49     		ldr	r1, .L44
 330 0074 012A     		cmp	r2, #1
 331 0076 0CBF     		ite	eq
 332 0078 1A46     		moveq	r2, r3
 333 007a 0A46     		movne	r2, r1
 334              	.L19:
 335              		.loc 1 707 0 discriminator 3
 336 007c 2046     		mov	r0, r4
 337 007e 0E49     		ldr	r1, .L44+20
 338 0080 FFF7FEFF 		bl	tc_printf
 339              	.LVL41:
 340              	.LBE114:
 341              		.loc 1 731 0 discriminator 3
 342 0084 0120     		movs	r0, #1
ARM GAS  /tmp/ccJYnsep.s 			page 7


 343              		.loc 1 732 0 discriminator 3
 344 0086 38BD     		pop	{r3, r4, r5, pc}
 345              	.LVL42:
 346              	.L32:
 347              	.LBB117:
 348              	.LBB110:
 349              	.LBB106:
 350              		.loc 1 716 0
 351 0088 0120     		movs	r0, #1
 352 008a C3E7     		b	.L23
 353              	.LVL43:
 354              	.L28:
 355              	.LBE106:
 356              	.LBE110:
 357              	.LBE117:
 358              	.LBB118:
 359              		.loc 1 707 0
 360 008c 094A     		ldr	r2, .L44+16
 361 008e F5E7     		b	.L19
 362              	.LVL44:
 363              	.L33:
 364              	.LBE118:
 365              	.LBB119:
 366              	.LBB111:
 367              	.LBB107:
 368              		.loc 1 718 0
 369 0090 0220     		movs	r0, #2
 370 0092 BFE7     		b	.L23
 371              	.LVL45:
 372              	.L29:
 373              	.LBE107:
 374              	.LBE111:
 375              	.LBE119:
 376              	.LBB120:
 377              		.loc 1 709 0
 378 0094 064A     		ldr	r2, .L44+12
 379 0096 F1E7     		b	.L19
 380              	.LVL46:
 381              	.L43:
 382              	.LBE120:
 383              	.LBB121:
 384              	.LBB112:
 385              	.LBB108:
 386              		.loc 1 722 0
 387 0098 2046     		mov	r0, r4
 388 009a 0849     		ldr	r1, .L44+24
 389 009c FFF7FEFF 		bl	tc_printf
 390              	.LVL47:
 391              		.loc 1 723 0
 392 00a0 0020     		movs	r0, #0
 393              	.LBE108:
 394              	.LBE112:
 395              	.LBE121:
 396              		.loc 1 732 0
 397 00a2 38BD     		pop	{r3, r4, r5, pc}
 398              	.LVL48:
 399              	.L45:
ARM GAS  /tmp/ccJYnsep.s 			page 8


 400              		.align	2
 401              	.L44:
 402 00a4 08000000 		.word	.LC4
 403 00a8 00000000 		.word	stm32f4_flash_write
 404 00ac 0C000000 		.word	.LC5
 405 00b0 00000000 		.word	.LC2
 406 00b4 04000000 		.word	.LC3
 407 00b8 10000000 		.word	.LC6
 408 00bc 30000000 		.word	.LC7
 409              		.cfi_endproc
 410              	.LFE276:
 411              		.size	stm32f4_cmd_psize, .-stm32f4_cmd_psize
 412              		.section	.text.stm32f4_flash_unlock,"ax",%progbits
 413              		.align	1
 414              		.p2align 4,,15
 415              		.syntax unified
 416              		.thumb
 417              		.thumb_func
 418              		.fpu fpv4-sp-d16
 419              		.type	stm32f4_flash_unlock, %function
 420              	stm32f4_flash_unlock:
 421              	.LFB268:
 422              		.loc 1 370 0
 423              		.cfi_startproc
 424              		@ args = 0, pretend = 0, frame = 0
 425              		@ frame_needed = 0, uses_anonymous_args = 0
 426              	.LVL49:
 427 0000 10B5     		push	{r4, lr}
 428              		.cfi_def_cfa_offset 8
 429              		.cfi_offset 4, -8
 430              		.cfi_offset 14, -4
 431              		.loc 1 371 0
 432 0002 0949     		ldr	r1, .L50
 433              		.loc 1 370 0
 434 0004 0446     		mov	r4, r0
 435              		.loc 1 371 0
 436 0006 FFF7FEFF 		bl	target_mem_read32
 437              	.LVL50:
 438 000a 0028     		cmp	r0, #0
 439 000c 00DB     		blt	.L49
 440              		.loc 1 376 0
 441 000e 10BD     		pop	{r4, pc}
 442              	.LVL51:
 443              	.L49:
 444              	.LBB124:
 445              	.LBB125:
 446              		.loc 1 373 0
 447 0010 2046     		mov	r0, r4
 448 0012 064A     		ldr	r2, .L50+4
 449 0014 0649     		ldr	r1, .L50+8
 450 0016 FFF7FEFF 		bl	target_mem_write32
 451              	.LVL52:
 452              		.loc 1 374 0
 453 001a 2046     		mov	r0, r4
 454 001c 054A     		ldr	r2, .L50+12
 455 001e 0449     		ldr	r1, .L50+8
 456              	.LBE125:
ARM GAS  /tmp/ccJYnsep.s 			page 9


 457              	.LBE124:
 458              		.loc 1 376 0
 459 0020 BDE81040 		pop	{r4, lr}
 460              		.cfi_restore 14
 461              		.cfi_restore 4
 462              		.cfi_def_cfa_offset 0
 463              	.LVL53:
 464              	.LBB127:
 465              	.LBB126:
 466              		.loc 1 374 0
 467 0024 FFF7FEBF 		b	target_mem_write32
 468              	.LVL54:
 469              	.L51:
 470              		.align	2
 471              	.L50:
 472 0028 103C0240 		.word	1073888272
 473 002c 23016745 		.word	1164378403
 474 0030 043C0240 		.word	1073888260
 475 0034 AB89EFCD 		.word	-839939669
 476              	.LBE126:
 477              	.LBE127:
 478              		.cfi_endproc
 479              	.LFE268:
 480              		.size	stm32f4_flash_unlock, .-stm32f4_flash_unlock
 481              		.section	.text.stm32f4_flash_erase,"ax",%progbits
 482              		.align	1
 483              		.p2align 4,,15
 484              		.syntax unified
 485              		.thumb
 486              		.thumb_func
 487              		.fpu fpv4-sp-d16
 488              		.type	stm32f4_flash_erase, %function
 489              	stm32f4_flash_erase:
 490              	.LFB269:
 491              		.loc 1 380 0
 492              		.cfi_startproc
 493              		@ args = 0, pretend = 0, frame = 0
 494              		@ frame_needed = 0, uses_anonymous_args = 0
 495              	.LVL55:
 496 0000 2DE9F84F 		push	{r3, r4, r5, r6, r7, r8, r9, r10, fp, lr}
 497              		.cfi_def_cfa_offset 40
 498              		.cfi_offset 3, -40
 499              		.cfi_offset 4, -36
 500              		.cfi_offset 5, -32
 501              		.cfi_offset 6, -28
 502              		.cfi_offset 7, -24
 503              		.cfi_offset 8, -20
 504              		.cfi_offset 9, -16
 505              		.cfi_offset 10, -12
 506              		.cfi_offset 11, -8
 507              		.cfi_offset 14, -4
 508              		.loc 1 381 0
 509 0004 8469     		ldr	r4, [r0, #24]
 510              	.LVL56:
 511              		.loc 1 385 0
 512 0006 0368     		ldr	r3, [r0]
 513 0008 8568     		ldr	r5, [r0, #8]
ARM GAS  /tmp/ccJYnsep.s 			page 10


 514              		.loc 1 380 0
 515 000a 9046     		mov	r8, r2
 516              		.loc 1 385 0
 517 000c 90F83120 		ldrb	r2, [r0, #49]	@ zero_extendqisi2
 518              	.LVL57:
 519              		.loc 1 380 0
 520 0010 0746     		mov	r7, r0
 521              		.loc 1 386 0
 522 0012 2046     		mov	r0, r4
 523              	.LVL58:
 524              		.loc 1 385 0
 525 0014 C91A     		subs	r1, r1, r3
 526              	.LVL59:
 527 0016 B1FBF5F5 		udiv	r5, r1, r5
 528 001a 1544     		add	r5, r5, r2
 529              		.loc 1 386 0
 530 001c FFF7FEFF 		bl	stm32f4_flash_unlock
 531              	.LVL60:
 532              	.LBB128:
 533              		.loc 1 389 0
 534 0020 E36D     		ldr	r3, [r4, #92]
 535              	.LBE128:
 536              		.loc 1 385 0
 537 0022 EDB2     		uxtb	r5, r5
 538              	.LVL61:
 539              	.LBB129:
 540              		.loc 1 389 0
 541 0024 002B     		cmp	r3, #0
 542 0026 53D0     		beq	.L63
 543 0028 2B49     		ldr	r1, .L73
 544              	.LBE129:
 545              		.loc 1 388 0
 546 002a 0220     		movs	r0, #2
 547              	.LVL62:
 548              	.L55:
 549              	.LBB130:
 550              		.loc 1 390 0
 551 002c 1A69     		ldr	r2, [r3, #16]
 552 002e 8A42     		cmp	r2, r1
 553              		.loc 1 391 0
 554 0030 08BF     		it	eq
 555 0032 93F83000 		ldrbeq	r0, [r3, #48]	@ zero_extendqisi2
 556              	.LVL63:
 557              		.loc 1 389 0
 558 0036 5B6A     		ldr	r3, [r3, #36]
 559              	.LVL64:
 560 0038 002B     		cmp	r3, #0
 561 003a F7D1     		bne	.L55
 562 003c 274B     		ldr	r3, .L73+4
 563              	.LVL65:
 564 003e 43EA002B 		orr	fp, r3, r0, lsl #8
 565              	.L53:
 566 0042 BB68     		ldr	r3, [r7, #8]
 567              	.LBE130:
 568              	.LBB131:
 569              		.loc 1 398 0
 570 0044 DFF8A4A0 		ldr	r10, .L73+20
ARM GAS  /tmp/ccJYnsep.s 			page 11


 571              		.loc 1 403 0
 572 0048 254E     		ldr	r6, .L73+8
 573              	.L56:
 574              	.LBE131:
 575              		.loc 1 394 0
 576 004a 9845     		cmp	r8, r3
 577 004c 29D3     		bcc	.L71
 578              	.L62:
 579              	.LBB132:
 580              		.loc 1 396 0
 581 004e 4BEAC509 		orr	r9, fp, r5, lsl #3
 582              	.LVL66:
 583              		.loc 1 398 0
 584 0052 4A46     		mov	r2, r9
 585 0054 5146     		mov	r1, r10
 586 0056 2046     		mov	r0, r4
 587 0058 FFF7FEFF 		bl	target_mem_write32
 588              	.LVL67:
 589              		.loc 1 400 0
 590 005c 49F48032 		orr	r2, r9, #65536
 591 0060 5146     		mov	r1, r10
 592 0062 2046     		mov	r0, r4
 593 0064 FFF7FEFF 		bl	target_mem_write32
 594              	.LVL68:
 595              		.loc 1 403 0
 596 0068 05E0     		b	.L57
 597              	.LVL69:
 598              	.L60:
 599              		.loc 1 404 0
 600 006a FFF7FEFF 		bl	target_check_error
 601              	.LVL70:
 602 006e 40BB     		cbnz	r0, .L72
 603              		.loc 1 408 0
 604 0070 0120     		movs	r0, #1
 605 0072 FFF7FEFF 		bl	platform_delay
 606              	.LVL71:
 607              	.L57:
 608              		.loc 1 403 0
 609 0076 3146     		mov	r1, r6
 610 0078 2046     		mov	r0, r4
 611 007a FFF7FEFF 		bl	target_mem_read32
 612              	.LVL72:
 613 007e 10F4803F 		tst	r0, #65536
 614              		.loc 1 404 0
 615 0082 2046     		mov	r0, r4
 616              		.loc 1 403 0
 617 0084 F1D1     		bne	.L60
 618              	.LVL73:
 619              		.loc 1 410 0
 620 0086 BB68     		ldr	r3, [r7, #8]
 621              		.loc 1 412 0
 622 0088 97F83220 		ldrb	r2, [r7, #50]	@ zero_extendqisi2
 623              		.loc 1 411 0
 624 008c 0135     		adds	r5, r5, #1
 625              	.LVL74:
 626 008e EDB2     		uxtb	r5, r5
 627              		.loc 1 410 0
ARM GAS  /tmp/ccJYnsep.s 			page 12


 628 0090 A8EB0308 		sub	r8, r8, r3
 629              	.LVL75:
 630              		.loc 1 412 0
 631 0094 002A     		cmp	r2, #0
 632 0096 D8D0     		beq	.L56
 633              		.loc 1 413 0 discriminator 1
 634 0098 AA42     		cmp	r2, r5
 635 009a 08BF     		it	eq
 636 009c 1025     		moveq	r5, #16
 637              	.LVL76:
 638              	.LBE132:
 639              		.loc 1 394 0 discriminator 1
 640 009e 9845     		cmp	r8, r3
 641 00a0 D5D2     		bcs	.L62
 642              	.LVL77:
 643              	.L71:
 644              		.loc 1 417 0
 645 00a2 2046     		mov	r0, r4
 646 00a4 0E49     		ldr	r1, .L73+8
 647 00a6 FFF7FEFF 		bl	target_mem_read32
 648              	.LVL78:
 649              		.loc 1 418 0
 650 00aa 10F0F203 		ands	r3, r0, #242
 651              		.loc 1 422 0
 652 00ae 08BF     		it	eq
 653 00b0 1846     		moveq	r0, r3
 654              	.LVL79:
 655              		.loc 1 418 0
 656 00b2 0BD0     		beq	.L52
 657              		.loc 1 419 0
 658 00b4 0146     		mov	r1, r0
 659 00b6 0B48     		ldr	r0, .L73+12
 660 00b8 FFF7FEFF 		bl	commands_printf
 661              	.LVL80:
 662              		.loc 1 420 0
 663 00bc 4FF0FF30 		mov	r0, #-1
 664 00c0 04E0     		b	.L52
 665              	.LVL81:
 666              	.L72:
 667              	.LBB133:
 668              		.loc 1 405 0
 669 00c2 0948     		ldr	r0, .L73+16
 670 00c4 FFF7FEFF 		bl	commands_printf
 671              	.LVL82:
 672              		.loc 1 406 0
 673 00c8 4FF0FF30 		mov	r0, #-1
 674              	.LVL83:
 675              	.L52:
 676              	.LBE133:
 677              		.loc 1 423 0
 678 00cc BDE8F88F 		pop	{r3, r4, r5, r6, r7, r8, r9, r10, fp, pc}
 679              	.LVL84:
 680              	.L63:
 681              	.LBB134:
 682              		.loc 1 389 0
 683 00d0 DFF81CB0 		ldr	fp, .L73+24
 684 00d4 B5E7     		b	.L53
ARM GAS  /tmp/ccJYnsep.s 			page 13


 685              	.L74:
 686 00d6 00BF     		.align	2
 687              	.L73:
 688 00d8 00000000 		.word	stm32f4_flash_write
 689 00dc 02000003 		.word	50331650
 690 00e0 0C3C0240 		.word	1073888268
 691 00e4 24000000 		.word	.LC9
 692 00e8 00000000 		.word	.LC8
 693 00ec 103C0240 		.word	1073888272
 694 00f0 02020003 		.word	50332162
 695              	.LBE134:
 696              		.cfi_endproc
 697              	.LFE269:
 698              		.size	stm32f4_flash_erase, .-stm32f4_flash_erase
 699              		.section	.text.stm32f4_option_write,"ax",%progbits
 700              		.align	1
 701              		.p2align 4,,15
 702              		.syntax unified
 703              		.thumb
 704              		.thumb_func
 705              		.fpu fpv4-sp-d16
 706              		.type	stm32f4_option_write, %function
 707              	stm32f4_option_write:
 708              	.LFB273:
 709              		.loc 1 567 0
 710              		.cfi_startproc
 711              		@ args = 0, pretend = 0, frame = 0
 712              		@ frame_needed = 0, uses_anonymous_args = 0
 713              	.LVL85:
 714 0000 F8B5     		push	{r3, r4, r5, r6, r7, lr}
 715              		.cfi_def_cfa_offset 24
 716              		.cfi_offset 3, -24
 717              		.cfi_offset 4, -20
 718              		.cfi_offset 5, -16
 719              		.cfi_offset 6, -12
 720              		.cfi_offset 7, -8
 721              		.cfi_offset 14, -4
 722              		.loc 1 567 0
 723 0002 0446     		mov	r4, r0
 724 0004 0E46     		mov	r6, r1
 725 0006 1746     		mov	r7, r2
 726              		.loc 1 568 0
 727 0008 2C49     		ldr	r1, .L93
 728              	.LVL86:
 729 000a 2D4A     		ldr	r2, .L93+4
 730              	.LVL87:
 731              		.loc 1 570 0
 732 000c 2D4D     		ldr	r5, .L93+8
 733              		.loc 1 568 0
 734 000e FFF7FEFF 		bl	target_mem_write32
 735              	.LVL88:
 736              		.loc 1 569 0
 737 0012 2046     		mov	r0, r4
 738 0014 2C4A     		ldr	r2, .L93+12
 739 0016 2949     		ldr	r1, .L93
 740 0018 FFF7FEFF 		bl	target_mem_write32
 741              	.LVL89:
ARM GAS  /tmp/ccJYnsep.s 			page 14


 742              		.loc 1 570 0
 743 001c 02E0     		b	.L76
 744              	.LVL90:
 745              	.L78:
 746              		.loc 1 571 0
 747 001e FFF7FEFF 		bl	target_check_error
 748              	.LVL91:
 749 0022 A8BB     		cbnz	r0, .L77
 750              	.L76:
 751              		.loc 1 570 0
 752 0024 2946     		mov	r1, r5
 753 0026 2046     		mov	r0, r4
 754 0028 FFF7FEFF 		bl	target_mem_read32
 755              	.LVL92:
 756 002c 10F4803F 		tst	r0, #65536
 757              		.loc 1 571 0
 758 0030 2046     		mov	r0, r4
 759              		.loc 1 570 0
 760 0032 F4D1     		bne	.L78
 761              	.LVL93:
 762              	.LBB137:
 763              	.LBB138:
 764              		.loc 1 575 0
 765 0034 236D     		ldr	r3, [r4, #80]
 766 0036 40F21942 		movw	r2, #1049
 767 003a 9342     		cmp	r3, r2
 768 003c 08D0     		beq	.L79
 769 003e A3F23443 		subw	r3, r3, #1076
 770 0042 1E2B     		cmp	r3, #30
 771 0044 06D8     		bhi	.L81
 772 0046 214A     		ldr	r2, .L93+16
 773 0048 22FA03F3 		lsr	r3, r2, r3
 774 004c DB07     		lsls	r3, r3, #31
 775 004e 01D5     		bpl	.L81
 776              	.L79:
 777              		.loc 1 577 0
 778 0050 012F     		cmp	r7, #1
 779 0052 20D1     		bne	.L92
 780              	.LVL94:
 781              	.L81:
 782              		.loc 1 583 0
 783 0054 3268     		ldr	r2, [r6]
 784 0056 1E49     		ldr	r1, .L93+20
 785              		.loc 1 586 0
 786 0058 1A4D     		ldr	r5, .L93+8
 787              		.loc 1 583 0
 788 005a 2046     		mov	r0, r4
 789 005c FFF7FEFF 		bl	target_mem_write32
 790              	.LVL95:
 791              		.loc 1 584 0
 792 0060 3268     		ldr	r2, [r6]
 793 0062 1B49     		ldr	r1, .L93+20
 794 0064 42F00202 		orr	r2, r2, #2
 795 0068 2046     		mov	r0, r4
 796 006a FFF7FEFF 		bl	target_mem_write32
 797              	.LVL96:
 798 006e 02E0     		b	.L82
ARM GAS  /tmp/ccJYnsep.s 			page 15


 799              	.LVL97:
 800              	.L83:
 801              		.loc 1 587 0
 802 0070 FFF7FEFF 		bl	target_check_error
 803              	.LVL98:
 804 0074 68B9     		cbnz	r0, .L84
 805              	.L82:
 806              		.loc 1 586 0
 807 0076 2946     		mov	r1, r5
 808 0078 2046     		mov	r0, r4
 809 007a FFF7FEFF 		bl	target_mem_read32
 810              	.LVL99:
 811 007e 10F4803F 		tst	r0, #65536
 812              		.loc 1 587 0
 813 0082 2046     		mov	r0, r4
 814              		.loc 1 586 0
 815 0084 F4D1     		bne	.L83
 816              	.LVL100:
 817              		.loc 1 589 0
 818 0086 0122     		movs	r2, #1
 819 0088 1149     		ldr	r1, .L93+20
 820 008a FFF7FEFF 		bl	target_mem_write32
 821              	.LVL101:
 822              		.loc 1 590 0
 823 008e 0120     		movs	r0, #1
 824              	.LVL102:
 825              	.L77:
 826              	.LBE138:
 827              	.LBE137:
 828              		.loc 1 591 0
 829 0090 F8BD     		pop	{r3, r4, r5, r6, r7, pc}
 830              	.LVL103:
 831              	.L84:
 832              	.LBB141:
 833              	.LBB139:
 834              		.loc 1 588 0
 835 0092 0020     		movs	r0, #0
 836              	.LBE139:
 837              	.LBE141:
 838              		.loc 1 591 0
 839 0094 F8BD     		pop	{r3, r4, r5, r6, r7, pc}
 840              	.LVL104:
 841              	.L92:
 842              	.LBB142:
 843              	.LBB140:
 844              		.loc 1 579 0
 845 0096 7268     		ldr	r2, [r6, #4]
 846 0098 0E49     		ldr	r1, .L93+24
 847 009a 2046     		mov	r0, r4
 848              	.LVL105:
 849 009c FFF7FEFF 		bl	target_mem_write32
 850              	.LVL106:
 851              		.loc 1 580 0
 852 00a0 226D     		ldr	r2, [r4, #80]
 853 00a2 40F25243 		movw	r3, #1106
 854 00a6 9A42     		cmp	r2, r3
 855 00a8 D4D1     		bne	.L81
ARM GAS  /tmp/ccJYnsep.s 			page 16


 856 00aa 032F     		cmp	r7, #3
 857 00ac D2D1     		bne	.L81
 858              		.loc 1 581 0
 859 00ae B268     		ldr	r2, [r6, #8]
 860 00b0 0949     		ldr	r1, .L93+28
 861 00b2 2046     		mov	r0, r4
 862 00b4 FFF7FEFF 		bl	target_mem_write32
 863              	.LVL107:
 864 00b8 CCE7     		b	.L81
 865              	.L94:
 866 00ba 00BF     		.align	2
 867              	.L93:
 868 00bc 083C0240 		.word	1073888264
 869 00c0 3B2A1908 		.word	135866939
 870 00c4 0C3C0240 		.word	1073888268
 871 00c8 7F6E5D4C 		.word	1281191551
 872 00cc 01002060 		.word	1612709889
 873 00d0 143C0240 		.word	1073888276
 874 00d4 183C0240 		.word	1073888280
 875 00d8 1C3C0240 		.word	1073888284
 876              	.LBE140:
 877              	.LBE142:
 878              		.cfi_endproc
 879              	.LFE273:
 880              		.size	stm32f4_option_write, .-stm32f4_option_write
 881              		.section	.text.stm32f4_cmd_erase_mass,"ax",%progbits
 882              		.align	1
 883              		.p2align 4,,15
 884              		.syntax unified
 885              		.thumb
 886              		.thumb_func
 887              		.fpu fpv4-sp-d16
 888              		.type	stm32f4_cmd_erase_mass, %function
 889              	stm32f4_cmd_erase_mass:
 890              	.LFB271:
 891              		.loc 1 457 0
 892              		.cfi_startproc
 893              		@ args = 0, pretend = 0, frame = 0
 894              		@ frame_needed = 0, uses_anonymous_args = 0
 895              	.LVL108:
 896 0000 38B5     		push	{r3, r4, r5, lr}
 897              		.cfi_def_cfa_offset 16
 898              		.cfi_offset 3, -16
 899              		.cfi_offset 4, -12
 900              		.cfi_offset 5, -8
 901              		.cfi_offset 14, -4
 902              		.loc 1 463 0
 903 0002 2549     		ldr	r1, .L109
 904              		.loc 1 460 0
 905 0004 C56D     		ldr	r5, [r0, #92]
 906              	.LVL109:
 907              		.loc 1 457 0
 908 0006 0446     		mov	r4, r0
 909              		.loc 1 463 0
 910 0008 FFF7FEFF 		bl	tc_printf
 911              	.LVL110:
 912              		.loc 1 465 0
ARM GAS  /tmp/ccJYnsep.s 			page 17


 913 000c 2046     		mov	r0, r4
 914 000e FFF7FEFF 		bl	stm32f4_flash_unlock
 915              	.LVL111:
 916              		.loc 1 469 0
 917 0012 95F83200 		ldrb	r0, [r5, #50]	@ zero_extendqisi2
 918 0016 214B     		ldr	r3, .L109+4
 919 0018 2149     		ldr	r1, .L109+8
 920 001a 224D     		ldr	r5, .L109+12
 921              	.LVL112:
 922 001c 224A     		ldr	r2, .L109+16
 923 001e 0028     		cmp	r0, #0
 924              	.LVL113:
 925 0020 04BF     		itt	eq
 926 0022 0D46     		moveq	r5, r1
 927              		.loc 1 471 0
 928 0024 1A46     		moveq	r2, r3
 929              	.LVL114:
 930 0026 2046     		mov	r0, r4
 931 0028 2049     		ldr	r1, .L109+20
 932 002a FFF7FEFF 		bl	target_mem_write32
 933              	.LVL115:
 934              		.loc 1 472 0
 935 002e 2A46     		mov	r2, r5
 936 0030 2046     		mov	r0, r4
 937 0032 1E49     		ldr	r1, .L109+20
 938 0034 FFF7FEFF 		bl	target_mem_write32
 939              	.LVL116:
 940              		.loc 1 475 0
 941 0038 05E0     		b	.L97
 942              	.L99:
 943              		.loc 1 476 0
 944 003a FFF7FEFF 		bl	platform_delay
 945              	.LVL117:
 946              		.loc 1 478 0
 947 003e 2046     		mov	r0, r4
 948 0040 FFF7FEFF 		bl	target_check_error
 949              	.LVL118:
 950 0044 A0B9     		cbnz	r0, .L106
 951              	.L97:
 952              		.loc 1 475 0
 953 0046 1A49     		ldr	r1, .L109+24
 954 0048 2046     		mov	r0, r4
 955 004a FFF7FEFF 		bl	target_mem_read32
 956              	.LVL119:
 957 004e 10F48035 		ands	r5, r0, #65536
 958              		.loc 1 476 0
 959 0052 4FF00100 		mov	r0, #1
 960              		.loc 1 475 0
 961 0056 F0D1     		bne	.L99
 962              	.LVL120:
 963              	.LBB145:
 964              	.LBB146:
 965              		.loc 1 487 0
 966 0058 1549     		ldr	r1, .L109+24
 967 005a 2046     		mov	r0, r4
 968 005c FFF7FEFF 		bl	target_mem_read32
 969              	.LVL121:
ARM GAS  /tmp/ccJYnsep.s 			page 18


 970              		.loc 1 488 0
 971 0060 10F0F20F 		tst	r0, #242
 972 0064 0AD1     		bne	.L107
 973              		.loc 1 493 0
 974 0066 10F00105 		ands	r5, r0, #1
 975 006a 0ED0     		beq	.L108
 976              		.loc 1 498 0
 977 006c 0120     		movs	r0, #1
 978              	.LVL122:
 979              	.LBE146:
 980              	.LBE145:
 981              		.loc 1 499 0
 982 006e 38BD     		pop	{r3, r4, r5, pc}
 983              	.LVL123:
 984              	.L106:
 985              		.loc 1 480 0
 986 0070 2046     		mov	r0, r4
 987 0072 1049     		ldr	r1, .L109+28
 988 0074 FFF7FEFF 		bl	tc_printf
 989              	.LVL124:
 990              		.loc 1 481 0
 991 0078 0020     		movs	r0, #0
 992              		.loc 1 499 0
 993 007a 38BD     		pop	{r3, r4, r5, pc}
 994              	.LVL125:
 995              	.L107:
 996              	.LBB149:
 997              	.LBB147:
 998              		.loc 1 489 0
 999 007c 0246     		mov	r2, r0
 1000 007e 0E49     		ldr	r1, .L109+32
 1001 0080 2046     		mov	r0, r4
 1002              	.LVL126:
 1003 0082 FFF7FEFF 		bl	tc_printf
 1004              	.LVL127:
 1005              		.loc 1 490 0
 1006 0086 2846     		mov	r0, r5
 1007              	.LBE147:
 1008              	.LBE149:
 1009              		.loc 1 499 0
 1010 0088 38BD     		pop	{r3, r4, r5, pc}
 1011              	.LVL128:
 1012              	.L108:
 1013              	.LBB150:
 1014              	.LBB148:
 1015              		.loc 1 494 0
 1016 008a 0246     		mov	r2, r0
 1017 008c 0B49     		ldr	r1, .L109+36
 1018 008e 2046     		mov	r0, r4
 1019              	.LVL129:
 1020 0090 FFF7FEFF 		bl	tc_printf
 1021              	.LVL130:
 1022              		.loc 1 495 0
 1023 0094 2846     		mov	r0, r5
 1024              	.LBE148:
 1025              	.LBE150:
 1026              		.loc 1 499 0
ARM GAS  /tmp/ccJYnsep.s 			page 19


 1027 0096 38BD     		pop	{r3, r4, r5, pc}
 1028              	.LVL131:
 1029              	.L110:
 1030              		.align	2
 1031              	.L109:
 1032 0098 00000000 		.word	.LC10
 1033 009c 04000001 		.word	16777220
 1034 00a0 04000101 		.word	16842756
 1035 00a4 04800101 		.word	16875524
 1036 00a8 04800001 		.word	16809988
 1037 00ac 103C0240 		.word	1073888272
 1038 00b0 0C3C0240 		.word	1073888268
 1039 00b4 30000000 		.word	.LC11
 1040 00b8 40000000 		.word	.LC12
 1041 00bc 54000000 		.word	.LC13
 1042              		.cfi_endproc
 1043              	.LFE271:
 1044              		.size	stm32f4_cmd_erase_mass, .-stm32f4_cmd_erase_mass
 1045              		.section	.text.stm32f4_add_flash.part.4,"ax",%progbits
 1046              		.align	1
 1047              		.p2align 4,,15
 1048              		.syntax unified
 1049              		.thumb
 1050              		.thumb_func
 1051              		.fpu fpv4-sp-d16
 1052              		.type	stm32f4_add_flash.part.4, %function
 1053              	stm32f4_add_flash.part.4:
 1054              	.LFB281:
 1055              		.loc 1 133 0
 1056              		.cfi_startproc
 1057              		@ args = 8, pretend = 0, frame = 0
 1058              		@ frame_needed = 0, uses_anonymous_args = 0
 1059              	.LVL132:
 1060 0000 2DE9F84F 		push	{r3, r4, r5, r6, r7, r8, r9, r10, fp, lr}
 1061              		.cfi_def_cfa_offset 40
 1062              		.cfi_offset 3, -40
 1063              		.cfi_offset 4, -36
 1064              		.cfi_offset 5, -32
 1065              		.cfi_offset 6, -28
 1066              		.cfi_offset 7, -24
 1067              		.cfi_offset 8, -20
 1068              		.cfi_offset 9, -16
 1069              		.cfi_offset 10, -12
 1070              		.cfi_offset 11, -8
 1071              		.cfi_offset 14, -4
 1072              		.loc 1 133 0
 1073 0004 0546     		mov	r5, r0
 1074 0006 8B46     		mov	fp, r1
 1075              		.loc 1 138 0
 1076 0008 0120     		movs	r0, #1
 1077              	.LVL133:
 1078 000a 3421     		movs	r1, #52
 1079              	.LVL134:
 1080              		.loc 1 133 0
 1081 000c 9246     		mov	r10, r2
 1082 000e 9946     		mov	r9, r3
 1083 0010 DDE90A87 		ldrd	r8, r7, [sp, #40]
ARM GAS  /tmp/ccJYnsep.s 			page 20


 1084              		.loc 1 138 0
 1085 0014 FFF7FEFF 		bl	calloc
 1086              	.LVL135:
 1087              		.loc 1 144 0
 1088 0018 0E4E     		ldr	r6, .L113
 1089              		.loc 1 143 0
 1090 001a DFF83CC0 		ldr	ip, .L113+4
 1091              		.loc 1 140 0
 1092 001e C0F800B0 		str	fp, [r0]
 1093              		.loc 1 138 0
 1094 0022 0446     		mov	r4, r0
 1095              	.LVL136:
 1096              		.loc 1 149 0
 1097 0024 0223     		movs	r3, #2
 1098              		.loc 1 150 0
 1099 0026 2846     		mov	r0, r5
 1100              	.LVL137:
 1101              		.loc 1 146 0
 1102 0028 FF22     		movs	r2, #255
 1103              		.loc 1 145 0
 1104 002a 4FF48065 		mov	r5, #1024
 1105              	.LVL138:
 1106              		.loc 1 141 0
 1107 002e C4F804A0 		str	r10, [r4, #4]
 1108              		.loc 1 142 0
 1109 0032 C4F80890 		str	r9, [r4, #8]
 1110              		.loc 1 147 0
 1111 0036 84F83180 		strb	r8, [r4, #49]
 1112              		.loc 1 150 0
 1113 003a 2146     		mov	r1, r4
 1114              		.loc 1 148 0
 1115 003c 84F83270 		strb	r7, [r4, #50]
 1116              		.loc 1 144 0
 1117 0040 C4E903C6 		strd	ip, r6, [r4, #12]
 1118              		.loc 1 145 0
 1119 0044 2562     		str	r5, [r4, #32]
 1120              		.loc 1 146 0
 1121 0046 2277     		strb	r2, [r4, #28]
 1122              		.loc 1 149 0
 1123 0048 84F83030 		strb	r3, [r4, #48]
 1124              		.loc 1 151 0
 1125 004c BDE8F84F 		pop	{r3, r4, r5, r6, r7, r8, r9, r10, fp, lr}
 1126              		.cfi_restore 14
 1127              		.cfi_restore 11
 1128              		.cfi_restore 10
 1129              		.cfi_restore 9
 1130              		.cfi_restore 8
 1131              		.cfi_restore 7
 1132              		.cfi_restore 6
 1133              		.cfi_restore 5
 1134              		.cfi_restore 4
 1135              		.cfi_restore 3
 1136              		.cfi_def_cfa_offset 0
 1137              	.LVL139:
 1138              		.loc 1 150 0
 1139 0050 FFF7FEBF 		b	target_add_flash
 1140              	.LVL140:
ARM GAS  /tmp/ccJYnsep.s 			page 21


 1141              	.L114:
 1142              		.align	2
 1143              	.L113:
 1144 0054 00000000 		.word	stm32f4_flash_write
 1145 0058 00000000 		.word	stm32f4_flash_erase
 1146              		.cfi_endproc
 1147              	.LFE281:
 1148              		.size	stm32f4_add_flash.part.4, .-stm32f4_add_flash.part.4
 1149              		.section	.text.stm32f4_attach,"ax",%progbits
 1150              		.align	1
 1151              		.p2align 4,,15
 1152              		.syntax unified
 1153              		.thumb
 1154              		.thumb_func
 1155              		.fpu fpv4-sp-d16
 1156              		.type	stm32f4_attach, %function
 1157              	stm32f4_attach:
 1158              	.LFB267:
 1159              		.loc 1 237 0
 1160              		.cfi_startproc
 1161              		@ args = 0, pretend = 0, frame = 0
 1162              		@ frame_needed = 0, uses_anonymous_args = 0
 1163              	.LVL141:
 1164 0000 2DE9F04F 		push	{r4, r5, r6, r7, r8, r9, r10, fp, lr}
 1165              		.cfi_def_cfa_offset 36
 1166              		.cfi_offset 4, -36
 1167              		.cfi_offset 5, -32
 1168              		.cfi_offset 6, -28
 1169              		.cfi_offset 7, -24
 1170              		.cfi_offset 8, -20
 1171              		.cfi_offset 9, -16
 1172              		.cfi_offset 10, -12
 1173              		.cfi_offset 11, -8
 1174              		.cfi_offset 14, -4
 1175 0004 83B0     		sub	sp, sp, #12
 1176              		.cfi_def_cfa_offset 48
 1177              		.loc 1 237 0
 1178 0006 0446     		mov	r4, r0
 1179              		.loc 1 244 0
 1180 0008 FFF7FEFF 		bl	cortexm_attach
 1181              	.LVL142:
 1182 000c 0546     		mov	r5, r0
 1183 000e 0028     		cmp	r0, #0
 1184 0010 00F0CD80 		beq	.L153
 1185              	.LVL143:
 1186              	.LBB195:
 1187              	.LBB196:
 1188              		.loc 1 247 0
 1189 0014 236D     		ldr	r3, [r4, #80]
 1190 0016 6FF48262 		mvn	r2, #1040
 1191 001a 1344     		add	r3, r3, r2
 1192 001c 522B     		cmp	r3, #82
 1193 001e 00F28782 		bhi	.L149
 1194 0022 DFE813F0 		tbh	[pc, r3, lsl #1]
 1195              	.L118:
 1196 0026 3102     		.2byte	(.L117-.L118)/2
 1197 0028 8502     		.2byte	(.L149-.L118)/2
ARM GAS  /tmp/ccJYnsep.s 			page 22


 1198 002a C800     		.2byte	(.L119-.L118)/2
 1199 002c 8502     		.2byte	(.L149-.L118)/2
 1200 002e 8502     		.2byte	(.L149-.L118)/2
 1201 0030 8502     		.2byte	(.L149-.L118)/2
 1202 0032 8502     		.2byte	(.L149-.L118)/2
 1203 0034 8502     		.2byte	(.L149-.L118)/2
 1204 0036 5300     		.2byte	(.L120-.L118)/2
 1205 0038 8502     		.2byte	(.L149-.L118)/2
 1206 003a 8502     		.2byte	(.L149-.L118)/2
 1207 003c 8502     		.2byte	(.L149-.L118)/2
 1208 003e 8502     		.2byte	(.L149-.L118)/2
 1209 0040 8502     		.2byte	(.L149-.L118)/2
 1210 0042 8502     		.2byte	(.L149-.L118)/2
 1211 0044 8502     		.2byte	(.L149-.L118)/2
 1212 0046 3102     		.2byte	(.L117-.L118)/2
 1213 0048 8502     		.2byte	(.L149-.L118)/2
 1214 004a 3102     		.2byte	(.L117-.L118)/2
 1215 004c 8502     		.2byte	(.L149-.L118)/2
 1216 004e 8502     		.2byte	(.L149-.L118)/2
 1217 0050 8502     		.2byte	(.L149-.L118)/2
 1218 0052 8502     		.2byte	(.L149-.L118)/2
 1219 0054 8502     		.2byte	(.L149-.L118)/2
 1220 0056 8502     		.2byte	(.L149-.L118)/2
 1221 0058 8502     		.2byte	(.L149-.L118)/2
 1222 005a 8502     		.2byte	(.L149-.L118)/2
 1223 005c 8502     		.2byte	(.L149-.L118)/2
 1224 005e 8502     		.2byte	(.L149-.L118)/2
 1225 0060 8502     		.2byte	(.L149-.L118)/2
 1226 0062 8502     		.2byte	(.L149-.L118)/2
 1227 0064 8502     		.2byte	(.L149-.L118)/2
 1228 0066 3102     		.2byte	(.L117-.L118)/2
 1229 0068 8502     		.2byte	(.L149-.L118)/2
 1230 006a 3102     		.2byte	(.L117-.L118)/2
 1231 006c 5300     		.2byte	(.L120-.L118)/2
 1232 006e 8502     		.2byte	(.L149-.L118)/2
 1233 0070 8502     		.2byte	(.L149-.L118)/2
 1234 0072 8502     		.2byte	(.L149-.L118)/2
 1235 0074 8502     		.2byte	(.L149-.L118)/2
 1236 0076 8502     		.2byte	(.L149-.L118)/2
 1237 0078 8502     		.2byte	(.L149-.L118)/2
 1238 007a 8502     		.2byte	(.L149-.L118)/2
 1239 007c 8502     		.2byte	(.L149-.L118)/2
 1240 007e 8502     		.2byte	(.L149-.L118)/2
 1241 0080 8502     		.2byte	(.L149-.L118)/2
 1242 0082 8502     		.2byte	(.L149-.L118)/2
 1243 0084 8502     		.2byte	(.L149-.L118)/2
 1244 0086 3102     		.2byte	(.L117-.L118)/2
 1245 0088 8502     		.2byte	(.L149-.L118)/2
 1246 008a 8502     		.2byte	(.L149-.L118)/2
 1247 008c 8502     		.2byte	(.L149-.L118)/2
 1248 008e 8502     		.2byte	(.L149-.L118)/2
 1249 0090 8502     		.2byte	(.L149-.L118)/2
 1250 0092 8502     		.2byte	(.L149-.L118)/2
 1251 0094 8502     		.2byte	(.L149-.L118)/2
 1252 0096 FD00     		.2byte	(.L121-.L118)/2
 1253 0098 8502     		.2byte	(.L149-.L118)/2
 1254 009a 8502     		.2byte	(.L149-.L118)/2
ARM GAS  /tmp/ccJYnsep.s 			page 23


 1255 009c 8502     		.2byte	(.L149-.L118)/2
 1256 009e 8502     		.2byte	(.L149-.L118)/2
 1257 00a0 8502     		.2byte	(.L149-.L118)/2
 1258 00a2 8502     		.2byte	(.L149-.L118)/2
 1259 00a4 8502     		.2byte	(.L149-.L118)/2
 1260 00a6 5C01     		.2byte	(.L122-.L118)/2
 1261 00a8 9301     		.2byte	(.L123-.L118)/2
 1262 00aa 8502     		.2byte	(.L149-.L118)/2
 1263 00ac 8502     		.2byte	(.L149-.L118)/2
 1264 00ae 8502     		.2byte	(.L149-.L118)/2
 1265 00b0 8502     		.2byte	(.L149-.L118)/2
 1266 00b2 8502     		.2byte	(.L149-.L118)/2
 1267 00b4 8502     		.2byte	(.L149-.L118)/2
 1268 00b6 8502     		.2byte	(.L149-.L118)/2
 1269 00b8 8502     		.2byte	(.L149-.L118)/2
 1270 00ba 8502     		.2byte	(.L149-.L118)/2
 1271 00bc 8502     		.2byte	(.L149-.L118)/2
 1272 00be 8502     		.2byte	(.L149-.L118)/2
 1273 00c0 8502     		.2byte	(.L149-.L118)/2
 1274 00c2 8502     		.2byte	(.L149-.L118)/2
 1275 00c4 8502     		.2byte	(.L149-.L118)/2
 1276 00c6 8502     		.2byte	(.L149-.L118)/2
 1277 00c8 8502     		.2byte	(.L149-.L118)/2
 1278 00ca 3102     		.2byte	(.L117-.L118)/2
 1279              		.p2align 1
 1280              	.L120:
 1281              	.LVL144:
 1282              		.loc 1 292 0
 1283 00cc 2046     		mov	r0, r4
 1284 00ce FFF7FEFF 		bl	target_mem_map_free
 1285              	.LVL145:
 1286              		.loc 1 293 0
 1287 00d2 E449     		ldr	r1, .L182
 1288 00d4 2046     		mov	r0, r4
 1289 00d6 FFF7FEFF 		bl	target_mem_read32
 1290              	.LVL146:
 1291              		.loc 1 307 0
 1292 00da 4FF48032 		mov	r2, #65536
 1293              		.loc 1 293 0
 1294 00de 86B2     		uxth	r6, r0
 1295              	.LVL147:
 1296              		.loc 1 307 0
 1297 00e0 4FF08051 		mov	r1, #268435456
 1298 00e4 2046     		mov	r0, r4
 1299 00e6 FFF7FEFF 		bl	target_add_ram
 1300              	.LVL148:
 1301              		.loc 1 308 0
 1302 00ea 4FF4A022 		mov	r2, #327680
 1303 00ee 4FF00051 		mov	r1, #536870912
 1304 00f2 2046     		mov	r0, r4
 1305 00f4 FFF7FEFF 		bl	target_add_ram
 1306              	.LVL149:
 1307              		.loc 1 311 0
 1308 00f8 B6F5006F 		cmp	r6, #2048
 1309 00fc C0F0D481 		bcc	.L175
 1310              		.loc 1 322 0
 1311 0100 7602     		lsls	r6, r6, #9
ARM GAS  /tmp/ccJYnsep.s 			page 24


 1312              	.LVL150:
 1313 0102 2F46     		mov	r7, r5
 1314              		.loc 1 323 0
 1315 0104 4FF00C09 		mov	r9, #12
 1316              	.LVL151:
 1317              	.L127:
 1318              	.LBB197:
 1319              	.LBB198:
 1320              	.LBB199:
 1321 0108 4FF00008 		mov	r8, #0
 1322 010c CDE90089 		strd	r8, r9, [sp]
 1323 0110 4FF48043 		mov	r3, #16384
 1324 0114 4FF48032 		mov	r2, #65536
 1325 0118 4FF00061 		mov	r1, #134217728
 1326 011c 2046     		mov	r0, r4
 1327 011e FFF7FEFF 		bl	stm32f4_add_flash.part.4
 1328              	.LVL152:
 1329              	.LBE199:
 1330              	.LBE198:
 1331              		.loc 1 339 0
 1332 0122 A6F5003A 		sub	r10, r6, #131072
 1333              	.LVL153:
 1334              	.L144:
 1335              	.LBB204:
 1336              	.LBB205:
 1337 0126 0422     		movs	r2, #4
 1338 0128 4FF48033 		mov	r3, #65536
 1339 012c CDE90029 		strd	r2, r9, [sp]
 1340 0130 CD49     		ldr	r1, .L182+4
 1341 0132 1A46     		mov	r2, r3
 1342 0134 2046     		mov	r0, r4
 1343 0136 FFF7FEFF 		bl	stm32f4_add_flash.part.4
 1344              	.LVL154:
 1345              	.LBE205:
 1346              	.LBE204:
 1347              	.LBB207:
 1348              	.LBB208:
 1349              		.loc 1 137 0
 1350 013a BAF1000F 		cmp	r10, #0
 1351 013e 09D0     		beq	.L136
 1352 0140 0523     		movs	r3, #5
 1353 0142 CDE90039 		strd	r3, r9, [sp]
 1354 0146 5246     		mov	r2, r10
 1355 0148 4FF40033 		mov	r3, #131072
 1356 014c C749     		ldr	r1, .L182+8
 1357 014e 2046     		mov	r0, r4
 1358 0150 FFF7FEFF 		bl	stm32f4_add_flash.part.4
 1359              	.LVL155:
 1360              	.L136:
 1361              	.LBE208:
 1362              	.LBE207:
 1363              		.loc 1 353 0
 1364 0154 5FB3     		cbz	r7, .L153
 1365              	.LBB209:
 1366              		.loc 1 354 0
 1367 0156 B8F1000F 		cmp	r8, #0
 1368 015a 40F04C81 		bne	.L143
ARM GAS  /tmp/ccJYnsep.s 			page 25


 1369              	.LVL156:
 1370              	.L138:
 1371              		.loc 1 360 0
 1372 015e 06F10066 		add	r6, r6, #134217728
 1373              	.LVL157:
 1374              	.LBB210:
 1375              	.LBB211:
 1376 0162 1023     		movs	r3, #16
 1377 0164 3146     		mov	r1, r6
 1378 0166 0093     		str	r3, [sp]
 1379 0168 4FF48032 		mov	r2, #65536
 1380 016c 4FF48043 		mov	r3, #16384
 1381 0170 2046     		mov	r0, r4
 1382 0172 CDF80490 		str	r9, [sp, #4]
 1383 0176 FFF7FEFF 		bl	stm32f4_add_flash.part.4
 1384              	.LVL158:
 1385              	.LBE211:
 1386              	.LBE210:
 1387              	.LBB214:
 1388              	.LBB215:
 1389 017a 1422     		movs	r2, #20
 1390 017c 4FF48033 		mov	r3, #65536
 1391 0180 0092     		str	r2, [sp]
 1392 0182 CDF80490 		str	r9, [sp, #4]
 1393 0186 F118     		adds	r1, r6, r3
 1394 0188 1A46     		mov	r2, r3
 1395 018a 2046     		mov	r0, r4
 1396 018c FFF7FEFF 		bl	stm32f4_add_flash.part.4
 1397              	.LVL159:
 1398              	.LBE215:
 1399              	.LBE214:
 1400              	.LBB218:
 1401              	.LBB219:
 1402              		.loc 1 137 0
 1403 0190 BAF1000F 		cmp	r10, #0
 1404 0194 0BD0     		beq	.L153
 1405              	.LBE219:
 1406              	.LBE218:
 1407              		.loc 1 363 0
 1408 0196 06F50031 		add	r1, r6, #131072
 1409              	.LVL160:
 1410              	.L140:
 1411              	.LBB221:
 1412              	.LBB220:
 1413 019a 1523     		movs	r3, #21
 1414 019c 0093     		str	r3, [sp]
 1415 019e CDF80490 		str	r9, [sp, #4]
 1416 01a2 5246     		mov	r2, r10
 1417 01a4 2046     		mov	r0, r4
 1418 01a6 4FF40033 		mov	r3, #131072
 1419 01aa FFF7FEFF 		bl	stm32f4_add_flash.part.4
 1420              	.LVL161:
 1421              	.L153:
 1422              	.LBE220:
 1423              	.LBE221:
 1424              	.LBE209:
 1425              	.LBE197:
ARM GAS  /tmp/ccJYnsep.s 			page 26


 1426              	.LBE196:
 1427              	.LBE195:
 1428              		.loc 1 367 0
 1429 01ae 2846     		mov	r0, r5
 1430 01b0 03B0     		add	sp, sp, #12
 1431              		.cfi_remember_state
 1432              		.cfi_def_cfa_offset 36
 1433              		@ sp needed
 1434 01b2 BDE8F08F 		pop	{r4, r5, r6, r7, r8, r9, r10, fp, pc}
 1435              	.LVL162:
 1436              	.L119:
 1437              		.cfi_restore_state
 1438              	.LBB281:
 1439              	.LBB279:
 1440              		.loc 1 292 0
 1441 01b6 2046     		mov	r0, r4
 1442 01b8 FFF7FEFF 		bl	target_mem_map_free
 1443              	.LVL163:
 1444              		.loc 1 293 0
 1445 01bc A949     		ldr	r1, .L182
 1446 01be 2046     		mov	r0, r4
 1447 01c0 FFF7FEFF 		bl	target_mem_read32
 1448              	.LVL164:
 1449              		.loc 1 307 0
 1450 01c4 4FF48032 		mov	r2, #65536
 1451 01c8 4FF08051 		mov	r1, #268435456
 1452              		.loc 1 293 0
 1453 01cc 86B2     		uxth	r6, r0
 1454              	.LVL165:
 1455              		.loc 1 307 0
 1456 01ce 2046     		mov	r0, r4
 1457 01d0 FFF7FEFF 		bl	target_add_ram
 1458              	.LVL166:
 1459              		.loc 1 308 0
 1460 01d4 4FF4A022 		mov	r2, #327680
 1461 01d8 4FF00051 		mov	r1, #536870912
 1462 01dc 2046     		mov	r0, r4
 1463 01de FFF7FEFF 		bl	target_add_ram
 1464              	.LVL167:
 1465              	.L124:
 1466              		.loc 1 326 0
 1467 01e2 B602     		lsls	r6, r6, #10
 1468              	.LVL168:
 1469              	.LBB251:
 1470              		.loc 1 338 0
 1471 01e4 B6F5003F 		cmp	r6, #131072
 1472 01e8 00F2F781 		bhi	.L176
 1473              	.LVL169:
 1474              	.LBB236:
 1475              	.LBB200:
 1476 01ec 0027     		movs	r7, #0
 1477 01ee CDE90077 		strd	r7, r7, [sp]
 1478 01f2 4FF48043 		mov	r3, #16384
 1479 01f6 4FF48032 		mov	r2, #65536
 1480 01fa 4FF00061 		mov	r1, #134217728
 1481 01fe 2046     		mov	r0, r4
 1482 0200 FFF7FEFF 		bl	stm32f4_add_flash.part.4
ARM GAS  /tmp/ccJYnsep.s 			page 27


 1483              	.LVL170:
 1484              	.LBE200:
 1485              	.LBE236:
 1486              		.loc 1 349 0
 1487 0204 B6F5803F 		cmp	r6, #65536
 1488 0208 D1D9     		bls	.L153
 1489              	.LVL171:
 1490              	.LBB237:
 1491              	.LBB206:
 1492 020a 0422     		movs	r2, #4
 1493 020c 4FF48033 		mov	r3, #65536
 1494 0210 0092     		str	r2, [sp]
 1495 0212 0197     		str	r7, [sp, #4]
 1496 0214 2046     		mov	r0, r4
 1497 0216 1A46     		mov	r2, r3
 1498 0218 9349     		ldr	r1, .L182+4
 1499 021a FFF7FEFF 		bl	stm32f4_add_flash.part.4
 1500              	.LVL172:
 1501 021e C6E7     		b	.L153
 1502              	.LVL173:
 1503              	.L121:
 1504              	.LBE206:
 1505              	.LBE237:
 1506              	.LBE251:
 1507              		.loc 1 292 0
 1508 0220 2046     		mov	r0, r4
 1509 0222 FFF7FEFF 		bl	target_mem_map_free
 1510              	.LVL174:
 1511              		.loc 1 293 0
 1512 0226 9249     		ldr	r1, .L182+12
 1513              		.loc 1 326 0
 1514 0228 924E     		ldr	r6, .L182+16
 1515              		.loc 1 293 0
 1516 022a 2046     		mov	r0, r4
 1517 022c FFF7FEFF 		bl	target_mem_read32
 1518              	.LVL175:
 1519              		.loc 1 295 0
 1520 0230 9149     		ldr	r1, .L182+20
 1521              		.loc 1 293 0
 1522 0232 0746     		mov	r7, r0
 1523              	.LVL176:
 1524              		.loc 1 295 0
 1525 0234 2046     		mov	r0, r4
 1526              	.LVL177:
 1527 0236 FFF7FEFF 		bl	target_mem_read32
 1528              	.LVL178:
 1529              		.loc 1 296 0
 1530 023a 0122     		movs	r2, #1
 1531              		.loc 1 295 0
 1532 023c 6065     		str	r0, [r4, #84]
 1533              		.loc 1 296 0
 1534 023e 8E49     		ldr	r1, .L182+20
 1535 0240 2046     		mov	r0, r4
 1536 0242 FFF7FEFF 		bl	target_mem_write32
 1537              	.LVL179:
 1538              		.loc 1 297 0
 1539 0246 4FF48042 		mov	r2, #16384
ARM GAS  /tmp/ccJYnsep.s 			page 28


 1540 024a 0021     		movs	r1, #0
 1541 024c 2046     		mov	r0, r4
 1542 024e FFF7FEFF 		bl	target_add_ram
 1543              	.LVL180:
 1544              		.loc 1 298 0
 1545 0252 4FF40032 		mov	r2, #131072
 1546 0256 4FF00051 		mov	r1, #536870912
 1547 025a 2046     		mov	r0, r4
 1548 025c FFF7FEFF 		bl	target_add_ram
 1549              	.LVL181:
 1550              		.loc 1 299 0
 1551 0260 4FF4C022 		mov	r2, #393216
 1552 0264 8549     		ldr	r1, .L182+24
 1553 0266 2046     		mov	r0, r4
 1554 0268 FFF7FEFF 		bl	target_add_ram
 1555              	.LVL182:
 1556              		.loc 1 319 0
 1557 026c 4FF00009 		mov	r9, #0
 1558              		.loc 1 326 0
 1559 0270 06EA8726 		and	r6, r6, r7, lsl #10
 1560              	.LVL183:
 1561              	.L142:
 1562              	.LBB252:
 1563              	.LBB253:
 1564              	.LBB254:
 1565 0274 4FF00008 		mov	r8, #0
 1566 0278 4FF40043 		mov	r3, #32768
 1567 027c 4FF40032 		mov	r2, #131072
 1568 0280 4FF40011 		mov	r1, #2097152
 1569 0284 2046     		mov	r0, r4
 1570 0286 CDE90089 		strd	r8, r9, [sp]
 1571 028a FFF7FEFF 		bl	stm32f4_add_flash.part.4
 1572              	.LVL184:
 1573              	.LBE254:
 1574              	.LBE253:
 1575              	.LBB255:
 1576              	.LBB256:
 1577 028e 0427     		movs	r7, #4
 1578 0290 4FF40033 		mov	r3, #131072
 1579              	.LBE256:
 1580              	.LBE255:
 1581              		.loc 1 328 0
 1582 0294 A6F58026 		sub	r6, r6, #262144
 1583              	.LVL185:
 1584              	.LBB258:
 1585              	.LBB257:
 1586 0298 CDE90079 		strd	r7, r9, [sp]
 1587 029c 1A46     		mov	r2, r3
 1588 029e 4FF40811 		mov	r1, #2228224
 1589 02a2 2046     		mov	r0, r4
 1590 02a4 FFF7FEFF 		bl	stm32f4_add_flash.part.4
 1591              	.LVL186:
 1592              	.LBE257:
 1593              	.LBE258:
 1594              	.LBB259:
 1595              	.LBB260:
 1596              		.loc 1 137 0
ARM GAS  /tmp/ccJYnsep.s 			page 29


 1597 02a8 002E     		cmp	r6, #0
 1598 02aa 40F01781 		bne	.L177
 1599              	.LVL187:
 1600              	.LBE260:
 1601              	.LBE259:
 1602              	.LBB262:
 1603              	.LBB263:
 1604 02ae 2046     		mov	r0, r4
 1605 02b0 CDE90069 		strd	r6, r9, [sp]
 1606 02b4 4FF40043 		mov	r3, #32768
 1607 02b8 4FF40032 		mov	r2, #131072
 1608 02bc 4FF00061 		mov	r1, #134217728
 1609 02c0 FFF7FEFF 		bl	stm32f4_add_flash.part.4
 1610              	.LVL188:
 1611              	.LBE263:
 1612              	.LBE262:
 1613              	.LBB265:
 1614              	.LBB266:
 1615 02c4 4FF40033 		mov	r3, #131072
 1616 02c8 2046     		mov	r0, r4
 1617 02ca CDE90079 		strd	r7, r9, [sp]
 1618 02ce 1A46     		mov	r2, r3
 1619 02d0 6649     		ldr	r1, .L182+8
 1620 02d2 FFF7FEFF 		bl	stm32f4_add_flash.part.4
 1621              	.LVL189:
 1622              	.LBE266:
 1623              	.LBE265:
 1624              	.LBE252:
 1625              	.LBE279:
 1626              	.LBE281:
 1627              		.loc 1 367 0
 1628 02d6 2846     		mov	r0, r5
 1629 02d8 03B0     		add	sp, sp, #12
 1630              		.cfi_remember_state
 1631              		.cfi_def_cfa_offset 36
 1632              		@ sp needed
 1633 02da BDE8F08F 		pop	{r4, r5, r6, r7, r8, r9, r10, fp, pc}
 1634              	.LVL190:
 1635              	.L122:
 1636              		.cfi_restore_state
 1637              	.LBB282:
 1638              	.LBB280:
 1639              		.loc 1 292 0
 1640 02de 2046     		mov	r0, r4
 1641 02e0 FFF7FEFF 		bl	target_mem_map_free
 1642              	.LVL191:
 1643              		.loc 1 293 0
 1644 02e4 6249     		ldr	r1, .L182+12
 1645 02e6 2046     		mov	r0, r4
 1646 02e8 FFF7FEFF 		bl	target_mem_read32
 1647              	.LVL192:
 1648              		.loc 1 295 0
 1649 02ec 6249     		ldr	r1, .L182+20
 1650              		.loc 1 293 0
 1651 02ee 86B2     		uxth	r6, r0
 1652              	.LVL193:
 1653              		.loc 1 295 0
ARM GAS  /tmp/ccJYnsep.s 			page 30


 1654 02f0 2046     		mov	r0, r4
 1655 02f2 FFF7FEFF 		bl	target_mem_read32
 1656              	.LVL194:
 1657              		.loc 1 296 0
 1658 02f6 0122     		movs	r2, #1
 1659              		.loc 1 295 0
 1660 02f8 6065     		str	r0, [r4, #84]
 1661              		.loc 1 296 0
 1662 02fa 5F49     		ldr	r1, .L182+20
 1663 02fc 2046     		mov	r0, r4
 1664 02fe FFF7FEFF 		bl	target_mem_write32
 1665              	.LVL195:
 1666              		.loc 1 297 0
 1667 0302 4FF48042 		mov	r2, #16384
 1668 0306 0021     		movs	r1, #0
 1669 0308 2046     		mov	r0, r4
 1670 030a FFF7FEFF 		bl	target_add_ram
 1671              	.LVL196:
 1672              		.loc 1 298 0
 1673 030e 4FF40032 		mov	r2, #131072
 1674 0312 4FF00051 		mov	r1, #536870912
 1675 0316 2046     		mov	r0, r4
 1676 0318 FFF7FEFF 		bl	target_add_ram
 1677              	.LVL197:
 1678              		.loc 1 299 0
 1679 031c 4FF4C022 		mov	r2, #393216
 1680 0320 5649     		ldr	r1, .L182+24
 1681 0322 2046     		mov	r0, r4
 1682 0324 FFF7FEFF 		bl	target_add_ram
 1683              	.LVL198:
 1684              	.LBB273:
 1685              		.loc 1 302 0
 1686 0328 5549     		ldr	r1, .L182+28
 1687 032a 2046     		mov	r0, r4
 1688 032c FFF7FEFF 		bl	target_mem_read32
 1689              	.LVL199:
 1690              		.loc 1 303 0
 1691 0330 80F00050 		eor	r0, r0, #536870912
 1692              	.LVL200:
 1693 0334 C0F34077 		ubfx	r7, r0, #29, #1
 1694              	.LVL201:
 1695 0338 A846     		mov	r8, r5
 1696              	.LVL202:
 1697              	.L145:
 1698              	.LBE273:
 1699              		.loc 1 321 0
 1700 033a 002F     		cmp	r7, #0
 1701 033c 40F0BF80 		bne	.L178
 1702              		.loc 1 326 0
 1703 0340 B602     		lsls	r6, r6, #10
 1704              	.LVL203:
 1705              		.loc 1 319 0
 1706 0342 B946     		mov	r9, r7
 1707              		.loc 1 327 0
 1708 0344 B8F1000F 		cmp	r8, #0
 1709 0348 94D1     		bne	.L142
 1710 034a 2AE0     		b	.L129
ARM GAS  /tmp/ccJYnsep.s 			page 31


 1711              	.LVL204:
 1712              	.L123:
 1713              		.loc 1 292 0
 1714 034c 2046     		mov	r0, r4
 1715 034e FFF7FEFF 		bl	target_mem_map_free
 1716              	.LVL205:
 1717              		.loc 1 293 0
 1718 0352 4C49     		ldr	r1, .L182+32
 1719              		.loc 1 326 0
 1720 0354 474E     		ldr	r6, .L182+16
 1721              		.loc 1 293 0
 1722 0356 2046     		mov	r0, r4
 1723 0358 FFF7FEFF 		bl	target_mem_read32
 1724              	.LVL206:
 1725              		.loc 1 295 0
 1726 035c 4649     		ldr	r1, .L182+20
 1727              		.loc 1 293 0
 1728 035e 8046     		mov	r8, r0
 1729              	.LVL207:
 1730              		.loc 1 295 0
 1731 0360 2046     		mov	r0, r4
 1732              	.LVL208:
 1733 0362 FFF7FEFF 		bl	target_mem_read32
 1734              	.LVL209:
 1735              		.loc 1 296 0
 1736 0366 0122     		movs	r2, #1
 1737              		.loc 1 295 0
 1738 0368 6065     		str	r0, [r4, #84]
 1739              		.loc 1 296 0
 1740 036a 4349     		ldr	r1, .L182+20
 1741 036c 2046     		mov	r0, r4
 1742 036e FFF7FEFF 		bl	target_mem_write32
 1743              	.LVL210:
 1744              		.loc 1 297 0
 1745 0372 4FF48042 		mov	r2, #16384
 1746 0376 0021     		movs	r1, #0
 1747 0378 2046     		mov	r0, r4
 1748 037a FFF7FEFF 		bl	target_add_ram
 1749              	.LVL211:
 1750              		.loc 1 298 0
 1751 037e 4FF40032 		mov	r2, #131072
 1752 0382 4FF00051 		mov	r1, #536870912
 1753 0386 2046     		mov	r0, r4
 1754 0388 FFF7FEFF 		bl	target_add_ram
 1755              	.LVL212:
 1756              		.loc 1 299 0
 1757 038c 4FF4C022 		mov	r2, #393216
 1758 0390 3A49     		ldr	r1, .L182+24
 1759 0392 2046     		mov	r0, r4
 1760 0394 FFF7FEFF 		bl	target_add_ram
 1761              	.LVL213:
 1762              		.loc 1 326 0
 1763 0398 0027     		movs	r7, #0
 1764 039a 06EA8826 		and	r6, r6, r8, lsl #10
 1765              	.LVL214:
 1766              		.loc 1 319 0
 1767 039e B946     		mov	r9, r7
ARM GAS  /tmp/ccJYnsep.s 			page 32


 1768              		.loc 1 326 0
 1769 03a0 A846     		mov	r8, r5
 1770              	.LVL215:
 1771              	.L129:
 1772              	.LBB274:
 1773              		.loc 1 338 0
 1774 03a2 B6F5003F 		cmp	r6, #131072
 1775              		.loc 1 339 0
 1776 03a6 8CBF     		ite	hi
 1777 03a8 A6F5003A 		subhi	r10, r6, #131072
 1778              	.LVL216:
 1779              		.loc 1 337 0
 1780 03ac 4FF0000A 		movls	r10, #0
 1781              	.LVL217:
 1782              		.loc 1 340 0
 1783 03b0 B8F1000F 		cmp	r8, #0
 1784 03b4 00F0E380 		beq	.L132
 1785              	.LVL218:
 1786              	.LBB238:
 1787              	.LBB239:
 1788 03b8 4FF0000B 		mov	fp, #0
 1789 03bc CDE900B9 		strd	fp, r9, [sp]
 1790 03c0 4FF48043 		mov	r3, #16384
 1791 03c4 4FF48032 		mov	r2, #65536
 1792 03c8 4FF40011 		mov	r1, #2097152
 1793 03cc 2046     		mov	r0, r4
 1794 03ce FFF7FEFF 		bl	stm32f4_add_flash.part.4
 1795              	.LVL219:
 1796              	.LBE239:
 1797              	.LBE238:
 1798              		.loc 1 342 0
 1799 03d2 B6F5803F 		cmp	r6, #65536
 1800 03d6 00F2E580 		bhi	.L179
 1801              	.LVL220:
 1802              	.LBB240:
 1803              	.LBB201:
 1804 03da CDE900B9 		strd	fp, r9, [sp]
 1805 03de 4FF48043 		mov	r3, #16384
 1806 03e2 4FF48032 		mov	r2, #65536
 1807 03e6 4FF00061 		mov	r1, #134217728
 1808 03ea 2046     		mov	r0, r4
 1809 03ec FFF7FEFF 		bl	stm32f4_add_flash.part.4
 1810              	.LVL221:
 1811              	.LBE201:
 1812              	.LBE240:
 1813              		.loc 1 353 0
 1814 03f0 002F     		cmp	r7, #0
 1815 03f2 3FF4DCAE 		beq	.L153
 1816              	.L143:
 1817              	.LVL222:
 1818              	.LBB241:
 1819              	.LBB222:
 1820              	.LBB223:
 1821              	.LBB224:
 1822 03f6 0023     		movs	r3, #0
 1823 03f8 CDE90039 		strd	r3, r9, [sp]
 1824 03fc 4FF48032 		mov	r2, #65536
ARM GAS  /tmp/ccJYnsep.s 			page 33


 1825 0400 4FF48043 		mov	r3, #16384
 1826 0404 06F50011 		add	r1, r6, #2097152
 1827 0408 2046     		mov	r0, r4
 1828 040a FFF7FEFF 		bl	stm32f4_add_flash.part.4
 1829              	.LVL223:
 1830              	.LBE224:
 1831              	.LBE223:
 1832              	.LBB225:
 1833              	.LBB226:
 1834 040e 0422     		movs	r2, #4
 1835 0410 4FF48033 		mov	r3, #65536
 1836 0414 CDE90029 		strd	r2, r9, [sp]
 1837 0418 06F50411 		add	r1, r6, #2162688
 1838 041c 1A46     		mov	r2, r3
 1839 041e 2046     		mov	r0, r4
 1840 0420 06F10067 		add	r7, r6, #134217728
 1841 0424 FFF7FEFF 		bl	stm32f4_add_flash.part.4
 1842              	.LVL224:
 1843 0428 07F58038 		add	r8, r7, #65536
 1844              	.LBE226:
 1845              	.LBE225:
 1846              	.LBB227:
 1847              	.LBB228:
 1848              		.loc 1 137 0
 1849 042c BAF1000F 		cmp	r10, #0
 1850 0430 40F08080 		bne	.L180
 1851              	.LVL225:
 1852              	.LBE228:
 1853              	.LBE227:
 1854              	.LBE222:
 1855              	.LBB231:
 1856              	.LBB212:
 1857 0434 1023     		movs	r3, #16
 1858 0436 3946     		mov	r1, r7
 1859 0438 0093     		str	r3, [sp]
 1860 043a 2046     		mov	r0, r4
 1861 043c CDF80490 		str	r9, [sp, #4]
 1862 0440 4FF48043 		mov	r3, #16384
 1863 0444 4FF48032 		mov	r2, #65536
 1864 0448 FFF7FEFF 		bl	stm32f4_add_flash.part.4
 1865              	.LVL226:
 1866              	.LBE212:
 1867              	.LBE231:
 1868              	.LBB232:
 1869              	.LBB216:
 1870 044c 1422     		movs	r2, #20
 1871 044e 4FF48033 		mov	r3, #65536
 1872 0452 0092     		str	r2, [sp]
 1873 0454 CDF80490 		str	r9, [sp, #4]
 1874 0458 4146     		mov	r1, r8
 1875 045a 2046     		mov	r0, r4
 1876 045c 1A46     		mov	r2, r3
 1877 045e FFF7FEFF 		bl	stm32f4_add_flash.part.4
 1878              	.LVL227:
 1879 0462 A4E6     		b	.L153
 1880              	.L183:
 1881              		.align	2
ARM GAS  /tmp/ccJYnsep.s 			page 34


 1882              	.L182:
 1883 0464 227AFF1F 		.word	536836642
 1884 0468 00000108 		.word	134283264
 1885 046c 00000208 		.word	134348800
 1886 0470 42F4F01F 		.word	535884866
 1887 0474 00FCFF03 		.word	67107840
 1888 0478 042004E0 		.word	-536600572
 1889 047c 00000220 		.word	537001984
 1890 0480 143C0240 		.word	1073888276
 1891 0484 227AF01F 		.word	535853602
 1892              	.LVL228:
 1893              	.L117:
 1894              	.LBE216:
 1895              	.LBE232:
 1896              	.LBE241:
 1897              	.LBE274:
 1898              		.loc 1 292 0
 1899 0488 2046     		mov	r0, r4
 1900 048a FFF7FEFF 		bl	target_mem_map_free
 1901              	.LVL229:
 1902              		.loc 1 293 0
 1903 048e 5A49     		ldr	r1, .L184
 1904 0490 2046     		mov	r0, r4
 1905 0492 FFF7FEFF 		bl	target_mem_read32
 1906              	.LVL230:
 1907              		.loc 1 308 0
 1908 0496 4FF4A022 		mov	r2, #327680
 1909              		.loc 1 293 0
 1910 049a 86B2     		uxth	r6, r0
 1911              	.LVL231:
 1912              		.loc 1 308 0
 1913 049c 4FF00051 		mov	r1, #536870912
 1914 04a0 2046     		mov	r0, r4
 1915 04a2 FFF7FEFF 		bl	target_add_ram
 1916              	.LVL232:
 1917 04a6 9CE6     		b	.L124
 1918              	.LVL233:
 1919              	.L175:
 1920              	.LBB275:
 1921              		.loc 1 314 0
 1922 04a8 5449     		ldr	r1, .L184+4
 1923 04aa 2046     		mov	r0, r4
 1924 04ac FFF7FEFF 		bl	target_mem_read32
 1925              	.LVL234:
 1926              		.loc 1 315 0
 1927 04b0 80F08040 		eor	r0, r0, #1073741824
 1928              	.LVL235:
 1929 04b4 C0F38077 		ubfx	r7, r0, #30, #1
 1930              	.LVL236:
 1931 04b8 4FF00008 		mov	r8, #0
 1932 04bc 3DE7     		b	.L145
 1933              	.LVL237:
 1934              	.L178:
 1935              	.LBE275:
 1936              		.loc 1 323 0
 1937 04be B6F5806F 		cmp	r6, #1024
 1938 04c2 18BF     		it	ne
ARM GAS  /tmp/ccJYnsep.s 			page 35


 1939 04c4 4FF00C09 		movne	r9, #12
 1940              		.loc 1 322 0
 1941 04c8 4FEA4626 		lsl	r6, r6, #9
 1942              	.LVL238:
 1943              		.loc 1 323 0
 1944 04cc 08BF     		it	eq
 1945 04ce 4FF00809 		moveq	r9, #8
 1946              	.LVL239:
 1947              		.loc 1 327 0
 1948 04d2 B8F1000F 		cmp	r8, #0
 1949 04d6 7FF4CDAE 		bne	.L142
 1950 04da 62E7     		b	.L129
 1951              	.LVL240:
 1952              	.L177:
 1953              	.LBB276:
 1954              	.LBB268:
 1955              	.LBB261:
 1956 04dc 4FF0050A 		mov	r10, #5
 1957 04e0 3246     		mov	r2, r6
 1958 04e2 2046     		mov	r0, r4
 1959 04e4 CDE900A9 		strd	r10, r9, [sp]
 1960 04e8 4FF48023 		mov	r3, #262144
 1961 04ec 4FF41011 		mov	r1, #2359296
 1962 04f0 FFF7FEFF 		bl	stm32f4_add_flash.part.4
 1963              	.LVL241:
 1964              	.LBE261:
 1965              	.LBE268:
 1966              	.LBB269:
 1967              	.LBB264:
 1968 04f4 2046     		mov	r0, r4
 1969 04f6 CDE90089 		strd	r8, r9, [sp]
 1970 04fa 4FF40043 		mov	r3, #32768
 1971 04fe 4FF40032 		mov	r2, #131072
 1972 0502 4FF00061 		mov	r1, #134217728
 1973 0506 FFF7FEFF 		bl	stm32f4_add_flash.part.4
 1974              	.LVL242:
 1975              	.LBE264:
 1976              	.LBE269:
 1977              	.LBB270:
 1978              	.LBB267:
 1979 050a 4FF40033 		mov	r3, #131072
 1980 050e 1A46     		mov	r2, r3
 1981 0510 2046     		mov	r0, r4
 1982 0512 CDE90079 		strd	r7, r9, [sp]
 1983 0516 3A49     		ldr	r1, .L184+8
 1984 0518 FFF7FEFF 		bl	stm32f4_add_flash.part.4
 1985              	.LVL243:
 1986              	.LBE267:
 1987              	.LBE270:
 1988              	.LBB271:
 1989              	.LBB272:
 1990 051c CDE900A9 		strd	r10, r9, [sp]
 1991 0520 3246     		mov	r2, r6
 1992 0522 2046     		mov	r0, r4
 1993 0524 4FF48023 		mov	r3, #262144
 1994 0528 3649     		ldr	r1, .L184+12
 1995 052a FFF7FEFF 		bl	stm32f4_add_flash.part.4
ARM GAS  /tmp/ccJYnsep.s 			page 36


 1996              	.LVL244:
 1997 052e 3EE6     		b	.L153
 1998              	.LVL245:
 1999              	.L149:
 2000              	.LBE272:
 2001              	.LBE271:
 2002              	.LBE276:
 2003              		.loc 1 289 0
 2004 0530 0025     		movs	r5, #0
 2005 0532 3CE6     		b	.L153
 2006              	.LVL246:
 2007              	.L180:
 2008              	.LBB277:
 2009              	.LBB242:
 2010              	.LBB233:
 2011              	.LBB230:
 2012              	.LBB229:
 2013 0534 0523     		movs	r3, #5
 2014 0536 06F50811 		add	r1, r6, #2228224
 2015 053a 0093     		str	r3, [sp]
 2016 053c 5246     		mov	r2, r10
 2017 053e 4FF40033 		mov	r3, #131072
 2018 0542 2046     		mov	r0, r4
 2019 0544 CDF80490 		str	r9, [sp, #4]
 2020 0548 FFF7FEFF 		bl	stm32f4_add_flash.part.4
 2021              	.LVL247:
 2022              	.LBE229:
 2023              	.LBE230:
 2024              	.LBE233:
 2025              	.LBB234:
 2026              	.LBB213:
 2027 054c 1023     		movs	r3, #16
 2028 054e CDE90039 		strd	r3, r9, [sp]
 2029 0552 4FF48032 		mov	r2, #65536
 2030 0556 4FF48043 		mov	r3, #16384
 2031 055a 3946     		mov	r1, r7
 2032 055c 2046     		mov	r0, r4
 2033 055e FFF7FEFF 		bl	stm32f4_add_flash.part.4
 2034              	.LVL248:
 2035              	.LBE213:
 2036              	.LBE234:
 2037              	.LBB235:
 2038              	.LBB217:
 2039 0562 1422     		movs	r2, #20
 2040 0564 4FF48033 		mov	r3, #65536
 2041 0568 4146     		mov	r1, r8
 2042 056a 0092     		str	r2, [sp]
 2043 056c CDF80490 		str	r9, [sp, #4]
 2044 0570 1A46     		mov	r2, r3
 2045 0572 2046     		mov	r0, r4
 2046 0574 FFF7FEFF 		bl	stm32f4_add_flash.part.4
 2047              	.LVL249:
 2048              	.LBE217:
 2049              	.LBE235:
 2050              		.loc 1 363 0
 2051 0578 07F50031 		add	r1, r7, #131072
 2052              	.LVL250:
ARM GAS  /tmp/ccJYnsep.s 			page 37


 2053 057c 0DE6     		b	.L140
 2054              	.LVL251:
 2055              	.L132:
 2056              	.LBE242:
 2057              	.LBB243:
 2058              	.LBB202:
 2059 057e CDE90089 		strd	r8, r9, [sp]
 2060 0582 4FF48043 		mov	r3, #16384
 2061 0586 4FF48032 		mov	r2, #65536
 2062 058a 4FF00061 		mov	r1, #134217728
 2063 058e 2046     		mov	r0, r4
 2064 0590 FFF7FEFF 		bl	stm32f4_add_flash.part.4
 2065              	.LVL252:
 2066              	.LBE202:
 2067              	.LBE243:
 2068              		.loc 1 349 0
 2069 0594 B6F5803F 		cmp	r6, #65536
 2070 0598 3FF6C5AD 		bhi	.L144
 2071              		.loc 1 353 0
 2072 059c 002F     		cmp	r7, #0
 2073 059e 7FF4DEAD 		bne	.L138
 2074 05a2 04E6     		b	.L153
 2075              	.L179:
 2076              	.LVL253:
 2077              	.LBB244:
 2078              	.LBB245:
 2079 05a4 0422     		movs	r2, #4
 2080 05a6 4FF48033 		mov	r3, #65536
 2081 05aa CDE90029 		strd	r2, r9, [sp]
 2082 05ae 4FF40411 		mov	r1, #2162688
 2083 05b2 1A46     		mov	r2, r3
 2084 05b4 2046     		mov	r0, r4
 2085 05b6 FFF7FEFF 		bl	stm32f4_add_flash.part.4
 2086              	.LVL254:
 2087              	.LBE245:
 2088              	.LBE244:
 2089              	.LBB246:
 2090              	.LBB247:
 2091              		.loc 1 137 0
 2092 05ba BAF1000F 		cmp	r10, #0
 2093 05be 0FD1     		bne	.L181
 2094              	.L134:
 2095              	.LVL255:
 2096              	.LBE247:
 2097              	.LBE246:
 2098              	.LBB249:
 2099              	.LBB203:
 2100 05c0 0023     		movs	r3, #0
 2101 05c2 CDE90039 		strd	r3, r9, [sp]
 2102 05c6 4FF48032 		mov	r2, #65536
 2103 05ca 4FF48043 		mov	r3, #16384
 2104 05ce 4FF00061 		mov	r1, #134217728
 2105 05d2 2046     		mov	r0, r4
 2106 05d4 FFF7FEFF 		bl	stm32f4_add_flash.part.4
 2107              	.LVL256:
 2108 05d8 A5E5     		b	.L144
 2109              	.LVL257:
ARM GAS  /tmp/ccJYnsep.s 			page 38


 2110              	.L176:
 2111              	.LBE203:
 2112              	.LBE249:
 2113              		.loc 1 338 0
 2114 05da 0027     		movs	r7, #0
 2115              	.LBE277:
 2116              		.loc 1 319 0
 2117 05dc B946     		mov	r9, r7
 2118 05de 93E5     		b	.L127
 2119              	.LVL258:
 2120              	.L181:
 2121              	.LBB278:
 2122              	.LBB250:
 2123              	.LBB248:
 2124 05e0 0523     		movs	r3, #5
 2125 05e2 CDE90039 		strd	r3, r9, [sp]
 2126 05e6 5246     		mov	r2, r10
 2127 05e8 4FF40033 		mov	r3, #131072
 2128 05ec 4FF40811 		mov	r1, #2228224
 2129 05f0 2046     		mov	r0, r4
 2130 05f2 FFF7FEFF 		bl	stm32f4_add_flash.part.4
 2131              	.LVL259:
 2132 05f6 E3E7     		b	.L134
 2133              	.L185:
 2134              		.align	2
 2135              	.L184:
 2136 05f8 227AFF1F 		.word	536836642
 2137 05fc 143C0240 		.word	1073888276
 2138 0600 00000208 		.word	134348800
 2139 0604 00000408 		.word	134479872
 2140              	.LBE248:
 2141              	.LBE250:
 2142              	.LBE278:
 2143              	.LBE280:
 2144              	.LBE282:
 2145              		.cfi_endproc
 2146              	.LFE267:
 2147              		.size	stm32f4_attach, .-stm32f4_attach
 2148              		.section	.text.stm32f4_get_chip_name,"ax",%progbits
 2149              		.align	1
 2150              		.p2align 4,,15
 2151              		.global	stm32f4_get_chip_name
 2152              		.syntax unified
 2153              		.thumb
 2154              		.thumb_func
 2155              		.fpu fpv4-sp-d16
 2156              		.type	stm32f4_get_chip_name, %function
 2157              	stm32f4_get_chip_name:
 2158              	.LFB264:
 2159              		.loc 1 154 0
 2160              		.cfi_startproc
 2161              		@ args = 0, pretend = 0, frame = 0
 2162              		@ frame_needed = 0, uses_anonymous_args = 0
 2163              		@ link register save eliminated.
 2164              	.LVL260:
 2165 0000 6FF48263 		mvn	r3, #1040
 2166 0004 1844     		add	r0, r0, r3
ARM GAS  /tmp/ccJYnsep.s 			page 39


 2167              	.LVL261:
 2168 0006 5228     		cmp	r0, #82
 2169 0008 9ABF     		itte	ls
 2170 000a 024B     		ldrls	r3, .L189
 2171 000c 53F82000 		ldrls	r0, [r3, r0, lsl #2]
 2172              	.LVL262:
 2173              		.loc 1 154 0
 2174 0010 0020     		movhi	r0, #0
 2175              		.loc 1 185 0
 2176 0012 7047     		bx	lr
 2177              	.L190:
 2178              		.align	2
 2179              	.L189:
 2180 0014 00000000 		.word	.LANCHOR0
 2181              		.cfi_endproc
 2182              	.LFE264:
 2183              		.size	stm32f4_get_chip_name, .-stm32f4_get_chip_name
 2184              		.section	.text.stm32f4_probe,"ax",%progbits
 2185              		.align	1
 2186              		.p2align 4,,15
 2187              		.global	stm32f4_probe
 2188              		.syntax unified
 2189              		.thumb
 2190              		.thumb_func
 2191              		.fpu fpv4-sp-d16
 2192              		.type	stm32f4_probe, %function
 2193              	stm32f4_probe:
 2194              	.LFB266:
 2195              		.loc 1 194 0
 2196              		.cfi_startproc
 2197              		@ args = 0, pretend = 0, frame = 0
 2198              		@ frame_needed = 0, uses_anonymous_args = 0
 2199              	.LVL263:
 2200 0000 38B5     		push	{r3, r4, r5, lr}
 2201              		.cfi_def_cfa_offset 16
 2202              		.cfi_offset 3, -16
 2203              		.cfi_offset 4, -12
 2204              		.cfi_offset 5, -8
 2205              		.cfi_offset 14, -4
 2206              		.loc 1 194 0
 2207 0002 0546     		mov	r5, r0
 2208              		.loc 1 195 0
 2209 0004 FFF7FEFF 		bl	cortexm_ap
 2210              	.LVL264:
 2211              		.loc 1 198 0
 2212 0008 4368     		ldr	r3, [r0, #4]
 2213 000a DC89     		ldrh	r4, [r3, #14]
 2214 000c C4F30B04 		ubfx	r4, r4, #0, #12
 2215              	.LVL265:
 2216              		.loc 1 199 0
 2217 0010 002C     		cmp	r4, #0
 2218 0012 43D0     		beq	.L203
 2219              		.loc 1 202 0
 2220 0014 40F21143 		movw	r3, #1041
 2221 0018 9C42     		cmp	r4, r3
 2222 001a 49D0     		beq	.L204
 2223              	.LVL266:
ARM GAS  /tmp/ccJYnsep.s 			page 40


 2224              	.L193:
 2225              		.loc 1 210 0
 2226 001c 6FF48263 		mvn	r3, #1040
 2227 0020 E318     		adds	r3, r4, r3
 2228 0022 522B     		cmp	r3, #82
 2229 0024 5AD8     		bhi	.L200
 2230 0026 DFE803F0 		tbb	[pc, r3]
 2231              	.L197:
 2232 002a 55       		.byte	(.L196-.L197)/2
 2233 002b 59       		.byte	(.L200-.L197)/2
 2234 002c 55       		.byte	(.L196-.L197)/2
 2235 002d 59       		.byte	(.L200-.L197)/2
 2236 002e 59       		.byte	(.L200-.L197)/2
 2237 002f 59       		.byte	(.L200-.L197)/2
 2238 0030 59       		.byte	(.L200-.L197)/2
 2239 0031 59       		.byte	(.L200-.L197)/2
 2240 0032 55       		.byte	(.L196-.L197)/2
 2241 0033 59       		.byte	(.L200-.L197)/2
 2242 0034 59       		.byte	(.L200-.L197)/2
 2243 0035 59       		.byte	(.L200-.L197)/2
 2244 0036 59       		.byte	(.L200-.L197)/2
 2245 0037 59       		.byte	(.L200-.L197)/2
 2246 0038 59       		.byte	(.L200-.L197)/2
 2247 0039 59       		.byte	(.L200-.L197)/2
 2248 003a 55       		.byte	(.L196-.L197)/2
 2249 003b 59       		.byte	(.L200-.L197)/2
 2250 003c 55       		.byte	(.L196-.L197)/2
 2251 003d 59       		.byte	(.L200-.L197)/2
 2252 003e 59       		.byte	(.L200-.L197)/2
 2253 003f 59       		.byte	(.L200-.L197)/2
 2254 0040 59       		.byte	(.L200-.L197)/2
 2255 0041 59       		.byte	(.L200-.L197)/2
 2256 0042 59       		.byte	(.L200-.L197)/2
 2257 0043 59       		.byte	(.L200-.L197)/2
 2258 0044 59       		.byte	(.L200-.L197)/2
 2259 0045 59       		.byte	(.L200-.L197)/2
 2260 0046 59       		.byte	(.L200-.L197)/2
 2261 0047 59       		.byte	(.L200-.L197)/2
 2262 0048 59       		.byte	(.L200-.L197)/2
 2263 0049 59       		.byte	(.L200-.L197)/2
 2264 004a 55       		.byte	(.L196-.L197)/2
 2265 004b 59       		.byte	(.L200-.L197)/2
 2266 004c 55       		.byte	(.L196-.L197)/2
 2267 004d 55       		.byte	(.L196-.L197)/2
 2268 004e 59       		.byte	(.L200-.L197)/2
 2269 004f 59       		.byte	(.L200-.L197)/2
 2270 0050 59       		.byte	(.L200-.L197)/2
 2271 0051 59       		.byte	(.L200-.L197)/2
 2272 0052 59       		.byte	(.L200-.L197)/2
 2273 0053 59       		.byte	(.L200-.L197)/2
 2274 0054 59       		.byte	(.L200-.L197)/2
 2275 0055 59       		.byte	(.L200-.L197)/2
 2276 0056 59       		.byte	(.L200-.L197)/2
 2277 0057 59       		.byte	(.L200-.L197)/2
 2278 0058 59       		.byte	(.L200-.L197)/2
 2279 0059 59       		.byte	(.L200-.L197)/2
 2280 005a 55       		.byte	(.L196-.L197)/2
ARM GAS  /tmp/ccJYnsep.s 			page 41


 2281 005b 59       		.byte	(.L200-.L197)/2
 2282 005c 59       		.byte	(.L200-.L197)/2
 2283 005d 59       		.byte	(.L200-.L197)/2
 2284 005e 59       		.byte	(.L200-.L197)/2
 2285 005f 59       		.byte	(.L200-.L197)/2
 2286 0060 59       		.byte	(.L200-.L197)/2
 2287 0061 59       		.byte	(.L200-.L197)/2
 2288 0062 2A       		.byte	(.L198-.L197)/2
 2289 0063 59       		.byte	(.L200-.L197)/2
 2290 0064 59       		.byte	(.L200-.L197)/2
 2291 0065 59       		.byte	(.L200-.L197)/2
 2292 0066 59       		.byte	(.L200-.L197)/2
 2293 0067 59       		.byte	(.L200-.L197)/2
 2294 0068 59       		.byte	(.L200-.L197)/2
 2295 0069 59       		.byte	(.L200-.L197)/2
 2296 006a 2A       		.byte	(.L198-.L197)/2
 2297 006b 2A       		.byte	(.L198-.L197)/2
 2298 006c 59       		.byte	(.L200-.L197)/2
 2299 006d 59       		.byte	(.L200-.L197)/2
 2300 006e 59       		.byte	(.L200-.L197)/2
 2301 006f 59       		.byte	(.L200-.L197)/2
 2302 0070 59       		.byte	(.L200-.L197)/2
 2303 0071 59       		.byte	(.L200-.L197)/2
 2304 0072 59       		.byte	(.L200-.L197)/2
 2305 0073 59       		.byte	(.L200-.L197)/2
 2306 0074 59       		.byte	(.L200-.L197)/2
 2307 0075 59       		.byte	(.L200-.L197)/2
 2308 0076 59       		.byte	(.L200-.L197)/2
 2309 0077 59       		.byte	(.L200-.L197)/2
 2310 0078 59       		.byte	(.L200-.L197)/2
 2311 0079 59       		.byte	(.L200-.L197)/2
 2312 007a 59       		.byte	(.L200-.L197)/2
 2313 007b 59       		.byte	(.L200-.L197)/2
 2314 007c 55       		.byte	(.L196-.L197)/2
 2315 007d 00       		.p2align 1
 2316              	.L198:
 2317 007e 184A     		ldr	r2, .L205
 2318              		.loc 1 214 0
 2319 0080 1849     		ldr	r1, .L205+4
 2320 0082 52F82320 		ldr	r2, [r2, r3, lsl #2]
 2321 0086 E960     		str	r1, [r5, #12]
 2322              	.LVL267:
 2323              	.L194:
 2324              		.loc 1 228 0
 2325 0088 174B     		ldr	r3, .L205+8
 2326              		.loc 1 226 0
 2327 008a 2C65     		str	r4, [r5, #80]
 2328              		.loc 1 229 0
 2329 008c 2846     		mov	r0, r5
 2330              		.loc 1 227 0
 2331 008e 2A66     		str	r2, [r5, #96]
 2332              		.loc 1 228 0
 2333 0090 AB60     		str	r3, [r5, #8]
 2334              		.loc 1 229 0
 2335 0092 1649     		ldr	r1, .L205+12
 2336 0094 FFF7FEFF 		bl	target_add_commands
 2337              	.LVL268:
ARM GAS  /tmp/ccJYnsep.s 			page 42


 2338              		.loc 1 230 0
 2339 0098 0120     		movs	r0, #1
 2340              		.loc 1 234 0
 2341 009a 38BD     		pop	{r3, r4, r5, pc}
 2342              	.LVL269:
 2343              	.L203:
 2344              		.loc 1 200 0
 2345 009c 1449     		ldr	r1, .L205+16
 2346 009e 2846     		mov	r0, r5
 2347              	.LVL270:
 2348 00a0 FFF7FEFF 		bl	target_mem_read32
 2349              	.LVL271:
 2350              		.loc 1 202 0
 2351 00a4 40F21143 		movw	r3, #1041
 2352              		.loc 1 200 0
 2353 00a8 C0F30B04 		ubfx	r4, r0, #0, #12
 2354              	.LVL272:
 2355              		.loc 1 202 0
 2356 00ac 9C42     		cmp	r4, r3
 2357 00ae B5D1     		bne	.L193
 2358              	.L204:
 2359              	.LBB283:
 2360              		.loc 1 206 0
 2361 00b0 1049     		ldr	r1, .L205+20
 2362 00b2 2846     		mov	r0, r5
 2363 00b4 FFF7FEFF 		bl	target_mem_read32
 2364              	.LVL273:
 2365              		.loc 1 207 0
 2366 00b8 4FF6F073 		movw	r3, #65520
 2367 00bc 1840     		ands	r0, r0, r3
 2368              	.LVL274:
 2369 00be 0E49     		ldr	r1, .L205+24
 2370 00c0 0E4A     		ldr	r2, .L205+28
 2371 00c2 4CF24023 		movw	r3, #49728
 2372 00c6 9842     		cmp	r0, r3
 2373 00c8 40F21343 		movw	r3, #1043
 2374 00cc 04BF     		itt	eq
 2375 00ce 0A46     		moveq	r2, r1
 2376 00d0 1C46     		moveq	r4, r3
 2377              	.LVL275:
 2378 00d2 D9E7     		b	.L194
 2379              	.LVL276:
 2380              	.L196:
 2381 00d4 024A     		ldr	r2, .L205
 2382 00d6 52F82320 		ldr	r2, [r2, r3, lsl #2]
 2383 00da D5E7     		b	.L194
 2384              	.L200:
 2385              	.LBE283:
 2386              		.loc 1 232 0
 2387 00dc 0020     		movs	r0, #0
 2388              		.loc 1 234 0
 2389 00de 38BD     		pop	{r3, r4, r5, pc}
 2390              	.LVL277:
 2391              	.L206:
 2392              		.align	2
 2393              	.L205:
 2394 00e0 00000000 		.word	.LANCHOR0
ARM GAS  /tmp/ccJYnsep.s 			page 43


 2395 00e4 00000000 		.word	stm32f7_detach
 2396 00e8 00000000 		.word	stm32f4_attach
 2397 00ec 00000000 		.word	.LANCHOR1
 2398 00f0 002004E0 		.word	-536600576
 2399 00f4 00ED00E0 		.word	-536810240
 2400 00f8 00000000 		.word	.LC14
 2401 00fc 0C000000 		.word	.LC15
 2402              		.cfi_endproc
 2403              	.LFE266:
 2404              		.size	stm32f4_probe, .-stm32f4_probe
 2405              		.section	.text.optcr_mask,"ax",%progbits
 2406              		.align	1
 2407              		.p2align 4,,15
 2408              		.global	optcr_mask
 2409              		.syntax unified
 2410              		.thumb
 2411              		.thumb_func
 2412              		.fpu fpv4-sp-d16
 2413              		.type	optcr_mask, %function
 2414              	optcr_mask:
 2415              	.LFB272:
 2416              		.loc 1 524 0
 2417              		.cfi_startproc
 2418              		@ args = 0, pretend = 0, frame = 0
 2419              		@ frame_needed = 0, uses_anonymous_args = 0
 2420              		@ link register save eliminated.
 2421              	.LVL278:
 2422              		.loc 1 525 0
 2423 0000 036D     		ldr	r3, [r0, #80]
 2424 0002 6FF48262 		mvn	r2, #1040
 2425 0006 1344     		add	r3, r3, r2
 2426 0008 522B     		cmp	r3, #82
 2427 000a 6BD8     		bhi	.L220
 2428 000c DFE803F0 		tbb	[pc, r3]
 2429              	.L210:
 2430 0010 2A       		.byte	(.L209-.L210)/2
 2431 0011 6A       		.byte	(.L220-.L210)/2
 2432 0012 2A       		.byte	(.L209-.L210)/2
 2433 0013 6A       		.byte	(.L220-.L210)/2
 2434 0014 6A       		.byte	(.L220-.L210)/2
 2435 0015 6A       		.byte	(.L220-.L210)/2
 2436 0016 6A       		.byte	(.L220-.L210)/2
 2437 0017 6A       		.byte	(.L220-.L210)/2
 2438 0018 60       		.byte	(.L211-.L210)/2
 2439 0019 6A       		.byte	(.L220-.L210)/2
 2440 001a 6A       		.byte	(.L220-.L210)/2
 2441 001b 6A       		.byte	(.L220-.L210)/2
 2442 001c 6A       		.byte	(.L220-.L210)/2
 2443 001d 6A       		.byte	(.L220-.L210)/2
 2444 001e 6A       		.byte	(.L220-.L210)/2
 2445 001f 6A       		.byte	(.L220-.L210)/2
 2446 0020 46       		.byte	(.L212-.L210)/2
 2447 0021 6A       		.byte	(.L220-.L210)/2
 2448 0022 4E       		.byte	(.L213-.L210)/2
 2449 0023 6A       		.byte	(.L220-.L210)/2
 2450 0024 6A       		.byte	(.L220-.L210)/2
 2451 0025 6A       		.byte	(.L220-.L210)/2
ARM GAS  /tmp/ccJYnsep.s 			page 44


 2452 0026 6A       		.byte	(.L220-.L210)/2
 2453 0027 6A       		.byte	(.L220-.L210)/2
 2454 0028 6A       		.byte	(.L220-.L210)/2
 2455 0029 6A       		.byte	(.L220-.L210)/2
 2456 002a 6A       		.byte	(.L220-.L210)/2
 2457 002b 6A       		.byte	(.L220-.L210)/2
 2458 002c 6A       		.byte	(.L220-.L210)/2
 2459 002d 6A       		.byte	(.L220-.L210)/2
 2460 002e 6A       		.byte	(.L220-.L210)/2
 2461 002f 6A       		.byte	(.L220-.L210)/2
 2462 0030 46       		.byte	(.L212-.L210)/2
 2463 0031 6A       		.byte	(.L220-.L210)/2
 2464 0032 46       		.byte	(.L212-.L210)/2
 2465 0033 60       		.byte	(.L211-.L210)/2
 2466 0034 6A       		.byte	(.L220-.L210)/2
 2467 0035 6A       		.byte	(.L220-.L210)/2
 2468 0036 6A       		.byte	(.L220-.L210)/2
 2469 0037 6A       		.byte	(.L220-.L210)/2
 2470 0038 6A       		.byte	(.L220-.L210)/2
 2471 0039 6A       		.byte	(.L220-.L210)/2
 2472 003a 6A       		.byte	(.L220-.L210)/2
 2473 003b 6A       		.byte	(.L220-.L210)/2
 2474 003c 6A       		.byte	(.L220-.L210)/2
 2475 003d 6A       		.byte	(.L220-.L210)/2
 2476 003e 6A       		.byte	(.L220-.L210)/2
 2477 003f 6A       		.byte	(.L220-.L210)/2
 2478 0040 3E       		.byte	(.L214-.L210)/2
 2479 0041 6A       		.byte	(.L220-.L210)/2
 2480 0042 6A       		.byte	(.L220-.L210)/2
 2481 0043 6A       		.byte	(.L220-.L210)/2
 2482 0044 6A       		.byte	(.L220-.L210)/2
 2483 0045 6A       		.byte	(.L220-.L210)/2
 2484 0046 6A       		.byte	(.L220-.L210)/2
 2485 0047 6A       		.byte	(.L220-.L210)/2
 2486 0048 38       		.byte	(.L215-.L210)/2
 2487 0049 6A       		.byte	(.L220-.L210)/2
 2488 004a 6A       		.byte	(.L220-.L210)/2
 2489 004b 6A       		.byte	(.L220-.L210)/2
 2490 004c 6A       		.byte	(.L220-.L210)/2
 2491 004d 6A       		.byte	(.L220-.L210)/2
 2492 004e 6A       		.byte	(.L220-.L210)/2
 2493 004f 6A       		.byte	(.L220-.L210)/2
 2494 0050 30       		.byte	(.L221-.L210)/2
 2495 0051 32       		.byte	(.L217-.L210)/2
 2496 0052 6A       		.byte	(.L220-.L210)/2
 2497 0053 6A       		.byte	(.L220-.L210)/2
 2498 0054 6A       		.byte	(.L220-.L210)/2
 2499 0055 6A       		.byte	(.L220-.L210)/2
 2500 0056 6A       		.byte	(.L220-.L210)/2
 2501 0057 54       		.byte	(.L218-.L210)/2
 2502 0058 6A       		.byte	(.L220-.L210)/2
 2503 0059 6A       		.byte	(.L220-.L210)/2
 2504 005a 6A       		.byte	(.L220-.L210)/2
 2505 005b 6A       		.byte	(.L220-.L210)/2
 2506 005c 6A       		.byte	(.L220-.L210)/2
 2507 005d 6A       		.byte	(.L220-.L210)/2
 2508 005e 6A       		.byte	(.L220-.L210)/2
ARM GAS  /tmp/ccJYnsep.s 			page 45


 2509 005f 6A       		.byte	(.L220-.L210)/2
 2510 0060 6A       		.byte	(.L220-.L210)/2
 2511 0061 6A       		.byte	(.L220-.L210)/2
 2512 0062 5A       		.byte	(.L219-.L210)/2
 2513 0063 00       		.p2align 1
 2514              	.L209:
 2515              		.loc 1 528 0
 2516 0064 0B68     		ldr	r3, [r1]
 2517 0066 23F07043 		bic	r3, r3, #-268435456
 2518 006a 23F01003 		bic	r3, r3, #16
 2519 006e 0B60     		str	r3, [r1]
 2520              	.L221:
 2521              		.loc 1 563 0
 2522 0070 0120     		movs	r0, #1
 2523              	.LVL279:
 2524              		.loc 1 529 0
 2525 0072 7047     		bx	lr
 2526              	.LVL280:
 2527              	.L217:
 2528              		.loc 1 553 0
 2529 0074 8B68     		ldr	r3, [r1, #8]
 2530 0076 23F00043 		bic	r3, r3, #-2147483648
 2531 007a 23F0FF03 		bic	r3, r3, #255
 2532 007e 8B60     		str	r3, [r1, #8]
 2533              	.L215:
 2534              		.loc 1 556 0
 2535 0080 0B68     		ldr	r3, [r1]
 2536 0082 23F07C53 		bic	r3, r3, #1056964608
 2537 0086 0B60     		str	r3, [r1]
 2538              		.loc 1 563 0
 2539 0088 0120     		movs	r0, #1
 2540              	.LVL281:
 2541              		.loc 1 557 0
 2542 008a 7047     		bx	lr
 2543              	.LVL282:
 2544              	.L214:
 2545              		.loc 1 547 0
 2546 008c 0B68     		ldr	r3, [r1]
 2547 008e 23F0E043 		bic	r3, r3, #1879048192
 2548 0092 23F01003 		bic	r3, r3, #16
 2549 0096 0B60     		str	r3, [r1]
 2550              		.loc 1 563 0
 2551 0098 0120     		movs	r0, #1
 2552              	.LVL283:
 2553              		.loc 1 548 0
 2554 009a 7047     		bx	lr
 2555              	.LVL284:
 2556              	.L212:
 2557              		.loc 1 541 0
 2558 009c 0B68     		ldr	r3, [r1]
 2559 009e 23F0FE43 		bic	r3, r3, #2130706432
 2560 00a2 23F01003 		bic	r3, r3, #16
 2561 00a6 0B60     		str	r3, [r1]
 2562              		.loc 1 563 0
 2563 00a8 0120     		movs	r0, #1
 2564              	.LVL285:
 2565              		.loc 1 542 0
ARM GAS  /tmp/ccJYnsep.s 			page 46


 2566 00aa 7047     		bx	lr
 2567              	.LVL286:
 2568              	.L213:
 2569              		.loc 1 536 0
 2570 00ac 0A68     		ldr	r2, [r1]
 2571 00ae 0E4B     		ldr	r3, .L222
 2572 00b0 1340     		ands	r3, r3, r2
 2573 00b2 0B60     		str	r3, [r1]
 2574              		.loc 1 563 0
 2575 00b4 0120     		movs	r0, #1
 2576              	.LVL287:
 2577              		.loc 1 537 0
 2578 00b6 7047     		bx	lr
 2579              	.LVL288:
 2580              	.L218:
 2581              		.loc 1 544 0
 2582 00b8 0A68     		ldr	r2, [r1]
 2583 00ba 0C4B     		ldr	r3, .L222+4
 2584 00bc 1340     		ands	r3, r3, r2
 2585 00be 0B60     		str	r3, [r1]
 2586              		.loc 1 563 0
 2587 00c0 0120     		movs	r0, #1
 2588              	.LVL289:
 2589              		.loc 1 545 0
 2590 00c2 7047     		bx	lr
 2591              	.LVL290:
 2592              	.L219:
 2593              		.loc 1 550 0
 2594 00c4 0B68     		ldr	r3, [r1]
 2595 00c6 23F01003 		bic	r3, r3, #16
 2596 00ca 0B60     		str	r3, [r1]
 2597              		.loc 1 563 0
 2598 00cc 0120     		movs	r0, #1
 2599              	.LVL291:
 2600              		.loc 1 551 0
 2601 00ce 7047     		bx	lr
 2602              	.LVL292:
 2603              	.L211:
 2604              		.loc 1 533 0
 2605 00d0 D1E90020 		ldrd	r2, r0, [r1]
 2606              	.LVL293:
 2607 00d4 064B     		ldr	r3, .L222+8
 2608              		.loc 1 532 0
 2609 00d6 22F04052 		bic	r2, r2, #805306368
 2610              		.loc 1 533 0
 2611 00da 0340     		ands	r3, r3, r0
 2612 00dc C1E90023 		strd	r2, r3, [r1]
 2613              		.loc 1 563 0
 2614 00e0 0120     		movs	r0, #1
 2615              		.loc 1 534 0
 2616 00e2 7047     		bx	lr
 2617              	.LVL294:
 2618              	.L220:
 2619              		.loc 1 561 0
 2620 00e4 0020     		movs	r0, #0
 2621              	.LVL295:
 2622              		.loc 1 564 0
ARM GAS  /tmp/ccJYnsep.s 			page 47


 2623 00e6 7047     		bx	lr
 2624              	.L223:
 2625              		.align	2
 2626              	.L222:
 2627 00e8 EFFF3F80 		.word	-2143289361
 2628 00ec EFFF1F80 		.word	-2145386513
 2629 00f0 0000FF0F 		.word	268369920
 2630              		.cfi_endproc
 2631              	.LFE272:
 2632              		.size	optcr_mask, .-optcr_mask
 2633              		.section	.text.stm32f4_cmd_option,"ax",%progbits
 2634              		.align	1
 2635              		.p2align 4,,15
 2636              		.syntax unified
 2637              		.thumb
 2638              		.thumb_func
 2639              		.fpu fpv4-sp-d16
 2640              		.type	stm32f4_cmd_option, %function
 2641              	stm32f4_cmd_option:
 2642              	.LFB275:
 2643              		.loc 1 625 0
 2644              		.cfi_startproc
 2645              		@ args = 0, pretend = 0, frame = 16
 2646              		@ frame_needed = 0, uses_anonymous_args = 0
 2647              	.LVL296:
 2648 0000 2DE9F04F 		push	{r4, r5, r6, r7, r8, r9, r10, fp, lr}
 2649              		.cfi_def_cfa_offset 36
 2650              		.cfi_offset 4, -36
 2651              		.cfi_offset 5, -32
 2652              		.cfi_offset 6, -28
 2653              		.cfi_offset 7, -24
 2654              		.cfi_offset 8, -20
 2655              		.cfi_offset 9, -16
 2656              		.cfi_offset 10, -12
 2657              		.cfi_offset 11, -8
 2658              		.cfi_offset 14, -4
 2659              		.loc 1 629 0
 2660 0004 066D     		ldr	r6, [r0, #80]
 2661 0006 40F24943 		movw	r3, #1097
 2662 000a 9E42     		cmp	r6, r3
 2663              		.loc 1 625 0
 2664 000c 85B0     		sub	sp, sp, #20
 2665              		.cfi_def_cfa_offset 56
 2666              		.loc 1 625 0
 2667 000e 0446     		mov	r4, r0
 2668 0010 8846     		mov	r8, r1
 2669 0012 9146     		mov	r9, r2
 2670              		.loc 1 629 0
 2671 0014 69D0     		beq	.L226
 2672 0016 6AD9     		bls	.L261
 2673 0018 40F25143 		movw	r3, #1105
 2674 001c 9E42     		cmp	r6, r3
 2675 001e 64D0     		beq	.L226
 2676 0020 40F25243 		movw	r3, #1106
 2677 0024 9E42     		cmp	r6, r3
 2678 0026 40F09580 		bne	.L225
 2679 002a 0327     		movs	r7, #3
ARM GAS  /tmp/ccJYnsep.s 			page 48


 2680              	.L229:
 2681              	.LVL297:
 2682              		.loc 1 638 0
 2683 002c DFF8E4A2 		ldr	r10, .L271+80
 2684              		.loc 1 636 0
 2685 0030 A44D     		ldr	r5, .L271
 2686              	.LVL298:
 2687              	.L228:
 2688              		.loc 1 644 0
 2689 0032 B8F1020F 		cmp	r8, #2
 2690 0036 6AD0     		beq	.L262
 2691              	.L230:
 2692              		.loc 1 647 0
 2693 0038 B8F1010F 		cmp	r8, #1
 2694 003c 08DD     		ble	.L242
 2695 003e A249     		ldr	r1, .L271+4
 2696              	.LVL299:
 2697 0040 D9F80400 		ldr	r0, [r9, #4]
 2698              	.LVL300:
 2699 0044 FFF7FEFF 		bl	strcmp
 2700              	.LVL301:
 2701 0048 0646     		mov	r6, r0
 2702 004a 0028     		cmp	r0, #0
 2703 004c 00F0E880 		beq	.L263
 2704              	.L242:
 2705              		.loc 1 663 0
 2706 0050 9E49     		ldr	r1, .L271+8
 2707 0052 2046     		mov	r0, r4
 2708 0054 FFF7FEFF 		bl	tc_printf
 2709              	.LVL302:
 2710              		.loc 1 664 0
 2711 0058 9D49     		ldr	r1, .L271+12
 2712 005a 2046     		mov	r0, r4
 2713 005c FFF7FEFF 		bl	tc_printf
 2714              	.LVL303:
 2715              		.loc 1 665 0
 2716 0060 012F     		cmp	r7, #1
 2717 0062 40F0AA80 		bne	.L264
 2718              	.L246:
 2719              		.loc 1 669 0
 2720 0066 9B49     		ldr	r1, .L271+16
 2721 0068 2046     		mov	r0, r4
 2722 006a FFF7FEFF 		bl	tc_printf
 2723              	.LVL304:
 2724 006e 01AE     		add	r6, sp, #4
 2725              	.LVL305:
 2726              	.L240:
 2727              		.loc 1 672 0
 2728 0070 5146     		mov	r1, r10
 2729 0072 2046     		mov	r0, r4
 2730 0074 FFF7FEFF 		bl	target_mem_read32
 2731              	.LVL306:
 2732              		.loc 1 673 0
 2733 0078 2946     		mov	r1, r5
 2734              		.loc 1 672 0
 2735 007a 0304     		lsls	r3, r0, #16
 2736              		.loc 1 673 0
ARM GAS  /tmp/ccJYnsep.s 			page 49


 2737 007c 2046     		mov	r0, r4
 2738              		.loc 1 672 0
 2739 007e 0193     		str	r3, [sp, #4]
 2740              		.loc 1 673 0
 2741 0080 FFF7FEFF 		bl	target_mem_read32
 2742              	.LVL307:
 2743 0084 019B     		ldr	r3, [sp, #4]
 2744 0086 80B2     		uxth	r0, r0
 2745 0088 0343     		orrs	r3, r3, r0
 2746              		.loc 1 674 0
 2747 008a 012F     		cmp	r7, #1
 2748              		.loc 1 673 0
 2749 008c 0193     		str	r3, [sp, #4]
 2750              		.loc 1 674 0
 2751 008e 00F08A80 		beq	.L248
 2752              		.loc 1 675 0
 2753 0092 914B     		ldr	r3, .L271+20
 2754 0094 9D42     		cmp	r5, r3
 2755 0096 00F09C80 		beq	.L265
 2756              		.loc 1 680 0
 2757 009a 05F11801 		add	r1, r5, #24
 2758 009e 2046     		mov	r0, r4
 2759 00a0 FFF7FEFF 		bl	target_mem_read32
 2760              	.LVL308:
 2761              		.loc 1 681 0
 2762 00a4 05F11001 		add	r1, r5, #16
 2763              		.loc 1 680 0
 2764 00a8 0304     		lsls	r3, r0, #16
 2765              		.loc 1 681 0
 2766 00aa 2046     		mov	r0, r4
 2767              		.loc 1 680 0
 2768 00ac 0293     		str	r3, [sp, #8]
 2769              		.loc 1 681 0
 2770 00ae FFF7FEFF 		bl	target_mem_read32
 2771              	.LVL309:
 2772 00b2 029B     		ldr	r3, [sp, #8]
 2773 00b4 80B2     		uxth	r0, r0
 2774 00b6 0343     		orrs	r3, r3, r0
 2775 00b8 0293     		str	r3, [sp, #8]
 2776              	.L250:
 2777              		.loc 1 684 0
 2778 00ba 032F     		cmp	r7, #3
 2779 00bc 4FD0     		beq	.L266
 2780              		.loc 1 688 0
 2781 00be 3146     		mov	r1, r6
 2782 00c0 2046     		mov	r0, r4
 2783 00c2 FFF7FEFF 		bl	optcr_mask
 2784              	.LVL310:
 2785              		.loc 1 689 0
 2786 00c6 019A     		ldr	r2, [sp, #4]
 2787 00c8 8449     		ldr	r1, .L271+24
 2788 00ca 2046     		mov	r0, r4
 2789 00cc FFF7FEFF 		bl	tc_printf
 2790              	.LVL311:
 2791              		.loc 1 691 0
 2792 00d0 029A     		ldr	r2, [sp, #8]
 2793 00d2 8349     		ldr	r1, .L271+28
ARM GAS  /tmp/ccJYnsep.s 			page 50


 2794 00d4 2046     		mov	r0, r4
 2795 00d6 FFF7FEFF 		bl	tc_printf
 2796              	.LVL312:
 2797              	.L254:
 2798              		.loc 1 694 0
 2799 00da 2046     		mov	r0, r4
 2800 00dc 7D49     		ldr	r1, .L271+16
 2801 00de FFF7FEFF 		bl	tc_printf
 2802              	.LVL313:
 2803              		.loc 1 696 0
 2804 00e2 0120     		movs	r0, #1
 2805 00e4 05B0     		add	sp, sp, #20
 2806              		.cfi_remember_state
 2807              		.cfi_def_cfa_offset 36
 2808              		@ sp needed
 2809 00e6 BDE8F08F 		pop	{r4, r5, r6, r7, r8, r9, r10, fp, pc}
 2810              	.LVL314:
 2811              	.L226:
 2812              		.cfi_restore_state
 2813              		.loc 1 629 0
 2814 00ea 0227     		movs	r7, #2
 2815 00ec 9EE7     		b	.L229
 2816              	.L261:
 2817 00ee 40F21943 		movw	r3, #1049
 2818 00f2 9E42     		cmp	r6, r3
 2819 00f4 03D0     		beq	.L255
 2820 00f6 40F23443 		movw	r3, #1076
 2821 00fa 9E42     		cmp	r6, r3
 2822 00fc 2AD1     		bne	.L225
 2823              	.L255:
 2824              		.loc 1 644 0
 2825 00fe B8F1020F 		cmp	r8, #2
 2826              		.loc 1 629 0
 2827 0102 DFF814A2 		ldr	r10, .L271+84
 2828              		.loc 1 626 0
 2829 0106 744D     		ldr	r5, .L271+20
 2830              		.loc 1 641 0
 2831 0108 4FF00207 		mov	r7, #2
 2832              	.LVL315:
 2833              		.loc 1 644 0
 2834 010c 94D1     		bne	.L230
 2835              	.L262:
 2836              		.loc 1 644 0 is_stmt 0 discriminator 1
 2837 010e D9F804B0 		ldr	fp, [r9, #4]
 2838 0112 7449     		ldr	r1, .L271+32
 2839              	.LVL316:
 2840 0114 5846     		mov	r0, fp
 2841              	.LVL317:
 2842 0116 FFF7FEFF 		bl	strcmp
 2843              	.LVL318:
 2844 011a 0028     		cmp	r0, #0
 2845 011c 65D0     		beq	.L267
 2846              		.loc 1 647 0 is_stmt 1 discriminator 1
 2847 011e 5846     		mov	r0, fp
 2848 0120 6949     		ldr	r1, .L271+4
 2849 0122 FFF7FEFF 		bl	strcmp
 2850              	.LVL319:
ARM GAS  /tmp/ccJYnsep.s 			page 51


 2851 0126 0246     		mov	r2, r0
 2852 0128 0028     		cmp	r0, #0
 2853 012a 91D1     		bne	.L242
 2854              		.loc 1 648 0
 2855 012c D9F80800 		ldr	r0, [r9, #8]
 2856 0130 1146     		mov	r1, r2
 2857 0132 FFF7FEFF 		bl	strtoul
 2858              	.LVL320:
 2859              		.loc 1 649 0
 2860 0136 4FF00108 		mov	r8, #1
 2861              	.LVL321:
 2862              		.loc 1 648 0
 2863 013a 0190     		str	r0, [sp, #4]
 2864              	.LVL322:
 2865              	.L243:
 2866              		.loc 1 658 0
 2867 013c 01AE     		add	r6, sp, #4
 2868 013e 3146     		mov	r1, r6
 2869 0140 2046     		mov	r0, r4
 2870 0142 FFF7FEFF 		bl	optcr_mask
 2871              	.LVL323:
 2872 0146 0028     		cmp	r0, #0
 2873 0148 4AD0     		beq	.L244
 2874              		.loc 1 659 0
 2875 014a 4246     		mov	r2, r8
 2876 014c 2046     		mov	r0, r4
 2877 014e FFF7FEFF 		bl	stm32f4_option_write
 2878              	.LVL324:
 2879 0152 8DE7     		b	.L240
 2880              	.LVL325:
 2881              	.L225:
 2882              		.loc 1 629 0
 2883 0154 DFF8C0A1 		ldr	r10, .L271+84
 2884              		.loc 1 626 0
 2885 0158 5F4D     		ldr	r5, .L271+20
 2886              		.loc 1 627 0
 2887 015a 0127     		movs	r7, #1
 2888 015c 69E7     		b	.L228
 2889              	.LVL326:
 2890              	.L266:
 2891              		.loc 1 685 0
 2892 015e 05F12801 		add	r1, r5, #40
 2893 0162 2046     		mov	r0, r4
 2894 0164 FFF7FEFF 		bl	target_mem_read32
 2895              	.LVL327:
 2896              		.loc 1 686 0
 2897 0168 05F12001 		add	r1, r5, #32
 2898              		.loc 1 685 0
 2899 016c 0304     		lsls	r3, r0, #16
 2900              		.loc 1 686 0
 2901 016e 2046     		mov	r0, r4
 2902              		.loc 1 685 0
 2903 0170 0393     		str	r3, [sp, #12]
 2904              		.loc 1 686 0
 2905 0172 FFF7FEFF 		bl	target_mem_read32
 2906              	.LVL328:
 2907 0176 039B     		ldr	r3, [sp, #12]
ARM GAS  /tmp/ccJYnsep.s 			page 52


 2908 0178 80B2     		uxth	r0, r0
 2909 017a 0343     		orrs	r3, r3, r0
 2910              		.loc 1 688 0
 2911 017c 3146     		mov	r1, r6
 2912 017e 2046     		mov	r0, r4
 2913              		.loc 1 686 0
 2914 0180 0393     		str	r3, [sp, #12]
 2915              		.loc 1 688 0
 2916 0182 FFF7FEFF 		bl	optcr_mask
 2917              	.LVL329:
 2918              		.loc 1 689 0
 2919 0186 019A     		ldr	r2, [sp, #4]
 2920 0188 5449     		ldr	r1, .L271+24
 2921 018a 2046     		mov	r0, r4
 2922 018c FFF7FEFF 		bl	tc_printf
 2923              	.LVL330:
 2924              		.loc 1 691 0
 2925 0190 029A     		ldr	r2, [sp, #8]
 2926 0192 5349     		ldr	r1, .L271+28
 2927 0194 2046     		mov	r0, r4
 2928 0196 FFF7FEFF 		bl	tc_printf
 2929              	.LVL331:
 2930              		.loc 1 693 0
 2931 019a 039A     		ldr	r2, [sp, #12]
 2932 019c 5249     		ldr	r1, .L271+36
 2933 019e 2046     		mov	r0, r4
 2934 01a0 FFF7FEFF 		bl	tc_printf
 2935              	.LVL332:
 2936 01a4 99E7     		b	.L254
 2937              	.L248:
 2938              		.loc 1 688 0
 2939 01a6 3146     		mov	r1, r6
 2940 01a8 2046     		mov	r0, r4
 2941 01aa FFF7FEFF 		bl	optcr_mask
 2942              	.LVL333:
 2943              		.loc 1 689 0
 2944 01ae 019A     		ldr	r2, [sp, #4]
 2945 01b0 4A49     		ldr	r1, .L271+24
 2946 01b2 2046     		mov	r0, r4
 2947 01b4 FFF7FEFF 		bl	tc_printf
 2948              	.LVL334:
 2949 01b8 8FE7     		b	.L254
 2950              	.LVL335:
 2951              	.L264:
 2952              		.loc 1 666 0
 2953 01ba 4C49     		ldr	r1, .L271+40
 2954 01bc 2046     		mov	r0, r4
 2955 01be FFF7FEFF 		bl	tc_printf
 2956              	.LVL336:
 2957              		.loc 1 667 0
 2958 01c2 032F     		cmp	r7, #3
 2959 01c4 7FF44FAF 		bne	.L246
 2960              		.loc 1 668 0
 2961 01c8 4949     		ldr	r1, .L271+44
 2962 01ca 2046     		mov	r0, r4
 2963 01cc FFF7FEFF 		bl	tc_printf
 2964              	.LVL337:
ARM GAS  /tmp/ccJYnsep.s 			page 53


 2965 01d0 49E7     		b	.L246
 2966              	.LVL338:
 2967              	.L265:
 2968              		.loc 1 676 0
 2969 01d2 4849     		ldr	r1, .L271+48
 2970 01d4 2046     		mov	r0, r4
 2971 01d6 FFF7FEFF 		bl	target_mem_read32
 2972              	.LVL339:
 2973              		.loc 1 678 0
 2974 01da 0004     		lsls	r0, r0, #16
 2975 01dc 0290     		str	r0, [sp, #8]
 2976 01de 6CE7     		b	.L250
 2977              	.LVL340:
 2978              	.L244:
 2979              		.loc 1 661 0
 2980 01e0 4549     		ldr	r1, .L271+52
 2981 01e2 2046     		mov	r0, r4
 2982 01e4 FFF7FEFF 		bl	tc_printf
 2983              	.LVL341:
 2984 01e8 42E7     		b	.L240
 2985              	.LVL342:
 2986              	.L267:
 2987              	.LBB286:
 2988              	.LBB287:
 2989              		.loc 1 596 0
 2990 01ea 40F24943 		movw	r3, #1097
 2991 01ee 9E42     		cmp	r6, r3
 2992 01f0 52D0     		beq	.L233
 2993 01f2 3ED9     		bls	.L268
 2994 01f4 40F25243 		movw	r3, #1106
 2995 01f8 9E42     		cmp	r6, r3
 2996 01fa 2CD0     		beq	.L236
 2997 01fc 40F26343 		movw	r3, #1123
 2998 0200 9E42     		cmp	r6, r3
 2999 0202 59D0     		beq	.L237
 3000 0204 40F25143 		movw	r3, #1105
 3001 0208 9E42     		cmp	r6, r3
 3002 020a 50D0     		beq	.L269
 3003              	.L232:
 3004              		.loc 1 619 0
 3005 020c 3B4B     		ldr	r3, .L271+56
 3006 020e 04AE     		add	r6, sp, #16
 3007              	.L259:
 3008 0210 46F80C3D 		str	r3, [r6, #-12]!
 3009              		.loc 1 620 0
 3010 0214 0122     		movs	r2, #1
 3011 0216 3146     		mov	r1, r6
 3012 0218 2046     		mov	r0, r4
 3013 021a FFF7FEFF 		bl	stm32f4_option_write
 3014              	.LVL343:
 3015 021e 27E7     		b	.L240
 3016              	.LVL344:
 3017              	.L263:
 3018              	.LBE287:
 3019              	.LBE286:
 3020              		.loc 1 648 0
 3021 0220 3246     		mov	r2, r6
ARM GAS  /tmp/ccJYnsep.s 			page 54


 3022 0222 3146     		mov	r1, r6
 3023 0224 D9F80800 		ldr	r0, [r9, #8]
 3024 0228 FFF7FEFF 		bl	strtoul
 3025              	.LVL345:
 3026              		.loc 1 651 0
 3027 022c 3246     		mov	r2, r6
 3028              		.loc 1 648 0
 3029 022e 0190     		str	r0, [sp, #4]
 3030              	.LVL346:
 3031              		.loc 1 651 0
 3032 0230 3146     		mov	r1, r6
 3033 0232 D9F80C00 		ldr	r0, [r9, #12]
 3034 0236 FFF7FEFF 		bl	strtoul
 3035              	.LVL347:
 3036              		.loc 1 654 0
 3037 023a B8F1030F 		cmp	r8, #3
 3038              		.loc 1 651 0
 3039 023e 0290     		str	r0, [sp, #8]
 3040              	.LVL348:
 3041              		.loc 1 654 0
 3042 0240 3DD0     		beq	.L270
 3043              		.loc 1 655 0
 3044 0242 D9F81000 		ldr	r0, [r9, #16]
 3045 0246 3246     		mov	r2, r6
 3046 0248 3146     		mov	r1, r6
 3047 024a FFF7FEFF 		bl	strtoul
 3048              	.LVL349:
 3049              		.loc 1 656 0
 3050 024e 4FF00308 		mov	r8, #3
 3051              	.LVL350:
 3052              		.loc 1 655 0
 3053 0252 0390     		str	r0, [sp, #12]
 3054              	.LVL351:
 3055 0254 72E7     		b	.L243
 3056              	.LVL352:
 3057              	.L236:
 3058              	.LBB289:
 3059              	.LBB288:
 3060              		.loc 1 606 0
 3061 0256 01AE     		add	r6, sp, #4
 3062              		.loc 1 603 0
 3063 0258 DFF8ACC0 		ldr	ip, .L271+68
 3064              		.loc 1 604 0
 3065 025c 284B     		ldr	r3, .L271+60
 3066              		.loc 1 605 0
 3067 025e 0390     		str	r0, [sp, #12]
 3068              		.loc 1 606 0
 3069 0260 3146     		mov	r1, r6
 3070 0262 0322     		movs	r2, #3
 3071 0264 2046     		mov	r0, r4
 3072              		.loc 1 603 0
 3073 0266 CDF804C0 		str	ip, [sp, #4]
 3074              		.loc 1 604 0
 3075 026a 0293     		str	r3, [sp, #8]
 3076              		.loc 1 606 0
 3077 026c FFF7FEFF 		bl	stm32f4_option_write
 3078              	.LVL353:
ARM GAS  /tmp/ccJYnsep.s 			page 55


 3079 0270 FEE6     		b	.L240
 3080              	.L268:
 3081              		.loc 1 596 0
 3082 0272 40F21943 		movw	r3, #1049
 3083 0276 9E42     		cmp	r6, r3
 3084 0278 03D0     		beq	.L235
 3085 027a 40F23443 		movw	r3, #1076
 3086 027e 9E42     		cmp	r6, r3
 3087 0280 C4D1     		bne	.L232
 3088              	.L235:
 3089              		.loc 1 601 0
 3090 0282 01AE     		add	r6, sp, #4
 3091              		.loc 1 599 0
 3092 0284 1D4A     		ldr	r2, .L271+56
 3093              		.loc 1 600 0
 3094 0286 1F4B     		ldr	r3, .L271+64
 3095              		.loc 1 599 0
 3096 0288 0192     		str	r2, [sp, #4]
 3097              		.loc 1 601 0
 3098 028a 3146     		mov	r1, r6
 3099 028c 0222     		movs	r2, #2
 3100 028e 2046     		mov	r0, r4
 3101              		.loc 1 600 0
 3102 0290 0293     		str	r3, [sp, #8]
 3103              		.loc 1 601 0
 3104 0292 FFF7FEFF 		bl	stm32f4_option_write
 3105              	.LVL354:
 3106 0296 EBE6     		b	.L240
 3107              	.L233:
 3108              		.loc 1 610 0
 3109 0298 01AE     		add	r6, sp, #4
 3110              		.loc 1 608 0
 3111 029a 1B48     		ldr	r0, .L271+68
 3112              		.loc 1 610 0
 3113 029c 4246     		mov	r2, r8
 3114 029e 3146     		mov	r1, r6
 3115              	.LVL355:
 3116              	.L260:
 3117              		.loc 1 613 0
 3118 02a0 174B     		ldr	r3, .L271+60
 3119              		.loc 1 612 0
 3120 02a2 0190     		str	r0, [sp, #4]
 3121              		.loc 1 614 0
 3122 02a4 2046     		mov	r0, r4
 3123              		.loc 1 613 0
 3124 02a6 0293     		str	r3, [sp, #8]
 3125              		.loc 1 614 0
 3126 02a8 FFF7FEFF 		bl	stm32f4_option_write
 3127              	.LVL356:
 3128 02ac E0E6     		b	.L240
 3129              	.L269:
 3130 02ae 01AE     		add	r6, sp, #4
 3131 02b0 4246     		mov	r2, r8
 3132 02b2 3146     		mov	r1, r6
 3133              		.loc 1 612 0
 3134 02b4 1548     		ldr	r0, .L271+72
 3135 02b6 F3E7     		b	.L260
ARM GAS  /tmp/ccJYnsep.s 			page 56


 3136              	.L237:
 3137              		.loc 1 616 0
 3138 02b8 04AE     		add	r6, sp, #16
 3139 02ba 154B     		ldr	r3, .L271+76
 3140 02bc A8E7     		b	.L259
 3141              	.LVL357:
 3142              	.L270:
 3143              	.LBE288:
 3144              	.LBE289:
 3145              		.loc 1 652 0
 3146 02be 4FF00208 		mov	r8, #2
 3147              	.LVL358:
 3148 02c2 3BE7     		b	.L243
 3149              	.L272:
 3150              		.align	2
 3151              	.L271:
 3152 02c4 0000FF1F 		.word	536805376
 3153 02c8 08000000 		.word	.LC17
 3154 02cc 18000000 		.word	.LC19
 3155 02d0 38000000 		.word	.LC20
 3156 02d4 74000000 		.word	.LC23
 3157 02d8 00C0FF1F 		.word	536854528
 3158 02dc 78000000 		.word	.LC24
 3159 02e0 88000000 		.word	.LC25
 3160 02e4 00000000 		.word	.LC16
 3161 02e8 9C000000 		.word	.LC26
 3162 02ec 5C000000 		.word	.LC21
 3163 02f0 68000000 		.word	.LC22
 3164 02f4 08C0FE1F 		.word	536789000
 3165 02f8 10000000 		.word	.LC18
 3166 02fc EDAAFF0F 		.word	268413677
 3167 0300 80004000 		.word	4194432
 3168 0304 0000FF0F 		.word	268369920
 3169 0308 FDAAFFC0 		.word	-1056986371
 3170 030c FDAAFFFF 		.word	-21763
 3171 0310 FDAAFF7F 		.word	2147461885
 3172 0314 0800FF1F 		.word	536805384
 3173 0318 08C0FF1F 		.word	536854536
 3174              		.cfi_endproc
 3175              	.LFE275:
 3176              		.size	stm32f4_cmd_option, .-stm32f4_cmd_option
 3177              		.global	stm32f4_cmd_list
 3178              		.section	.rodata.CSWTCH.16,"a",%progbits
 3179              		.align	2
 3180              		.set	.LANCHOR0,. + 0
 3181              		.type	CSWTCH.16, %object
 3182              		.size	CSWTCH.16, 332
 3183              	CSWTCH.16:
 3184 0000 0C000000 		.word	.LC15
 3185 0004 00000000 		.word	0
 3186 0008 00000000 		.word	.LC14
 3187 000c 00000000 		.word	0
 3188 0010 00000000 		.word	0
 3189 0014 00000000 		.word	0
 3190 0018 00000000 		.word	0
 3191 001c 00000000 		.word	0
 3192 0020 00000000 		.word	.LC27
ARM GAS  /tmp/ccJYnsep.s 			page 57


 3193 0024 00000000 		.word	0
 3194 0028 00000000 		.word	0
 3195 002c 00000000 		.word	0
 3196 0030 00000000 		.word	0
 3197 0034 00000000 		.word	0
 3198 0038 00000000 		.word	0
 3199 003c 00000000 		.word	0
 3200 0040 0C000000 		.word	.LC28
 3201 0044 00000000 		.word	0
 3202 0048 18000000 		.word	.LC29
 3203 004c 00000000 		.word	0
 3204 0050 00000000 		.word	0
 3205 0054 00000000 		.word	0
 3206 0058 00000000 		.word	0
 3207 005c 00000000 		.word	0
 3208 0060 00000000 		.word	0
 3209 0064 00000000 		.word	0
 3210 0068 00000000 		.word	0
 3211 006c 00000000 		.word	0
 3212 0070 00000000 		.word	0
 3213 0074 00000000 		.word	0
 3214 0078 00000000 		.word	0
 3215 007c 00000000 		.word	0
 3216 0080 24000000 		.word	.LC30
 3217 0084 00000000 		.word	0
 3218 0088 30000000 		.word	.LC31
 3219 008c 3C000000 		.word	.LC32
 3220 0090 00000000 		.word	0
 3221 0094 00000000 		.word	0
 3222 0098 00000000 		.word	0
 3223 009c 00000000 		.word	0
 3224 00a0 00000000 		.word	0
 3225 00a4 00000000 		.word	0
 3226 00a8 00000000 		.word	0
 3227 00ac 00000000 		.word	0
 3228 00b0 00000000 		.word	0
 3229 00b4 00000000 		.word	0
 3230 00b8 00000000 		.word	0
 3231 00bc 00000000 		.word	0
 3232 00c0 48000000 		.word	.LC33
 3233 00c4 00000000 		.word	0
 3234 00c8 00000000 		.word	0
 3235 00cc 00000000 		.word	0
 3236 00d0 00000000 		.word	0
 3237 00d4 00000000 		.word	0
 3238 00d8 00000000 		.word	0
 3239 00dc 00000000 		.word	0
 3240 00e0 54000000 		.word	.LC34
 3241 00e4 00000000 		.word	0
 3242 00e8 00000000 		.word	0
 3243 00ec 00000000 		.word	0
 3244 00f0 00000000 		.word	0
 3245 00f4 00000000 		.word	0
 3246 00f8 00000000 		.word	0
 3247 00fc 00000000 		.word	0
 3248 0100 60000000 		.word	.LC35
 3249 0104 6C000000 		.word	.LC36
ARM GAS  /tmp/ccJYnsep.s 			page 58


 3250 0108 00000000 		.word	0
 3251 010c 00000000 		.word	0
 3252 0110 00000000 		.word	0
 3253 0114 00000000 		.word	0
 3254 0118 00000000 		.word	0
 3255 011c 00000000 		.word	0
 3256 0120 00000000 		.word	0
 3257 0124 00000000 		.word	0
 3258 0128 00000000 		.word	0
 3259 012c 00000000 		.word	0
 3260 0130 00000000 		.word	0
 3261 0134 00000000 		.word	0
 3262 0138 00000000 		.word	0
 3263 013c 00000000 		.word	0
 3264 0140 00000000 		.word	0
 3265 0144 00000000 		.word	0
 3266 0148 78000000 		.word	.LC37
 3267              		.section	.rodata.stm32f4_cmd_erase_mass.str1.4,"aMS",%progbits,1
 3268              		.align	2
 3269              	.LC10:
 3270 0000 45726173 		.ascii	"Erasing flash... This may take a few seconds.  \000"
 3270      696E6720 
 3270      666C6173 
 3270      682E2E2E 
 3270      20546869 
 3271              	.LC11:
 3272 0030 54617267 		.ascii	"Target Error\000"
 3272      65742045 
 3272      72726F72 
 3272      00
 3273 003d 000000   		.space	3
 3274              	.LC12:
 3275 0040 53746174 		.ascii	"Status Error, %02X\000"
 3275      75732045 
 3275      72726F72 
 3275      2C202530 
 3275      325800
 3276 0053 00       		.space	1
 3277              	.LC13:
 3278 0054 454F5020 		.ascii	"EOP not set\000"
 3278      6E6F7420 
 3278      73657400 
 3279              		.section	.rodata.stm32f4_cmd_list,"a",%progbits
 3280              		.align	2
 3281              		.set	.LANCHOR1,. + 0
 3282              		.type	stm32f4_cmd_list, %object
 3283              		.size	stm32f4_cmd_list, 48
 3284              	stm32f4_cmd_list:
 3285 0000 84000000 		.word	.LC38
 3286 0004 00000000 		.word	stm32f4_cmd_erase_mass
 3287 0008 90000000 		.word	.LC39
 3288 000c AC000000 		.word	.LC40
 3289 0010 00000000 		.word	stm32f4_cmd_option
 3290 0014 B4000000 		.word	.LC41
 3291 0018 CC000000 		.word	.LC42
 3292 001c 00000000 		.word	stm32f4_cmd_psize
 3293 0020 D4000000 		.word	.LC43
ARM GAS  /tmp/ccJYnsep.s 			page 59


 3294 0024 00000000 		.word	0
 3295 0028 00000000 		.word	0
 3296 002c 00000000 		.word	0
 3297              		.section	.rodata.stm32f4_cmd_option.str1.4,"aMS",%progbits,1
 3298              		.align	2
 3299              	.LC16:
 3300 0000 65726173 		.ascii	"erase\000"
 3300      6500
 3301 0006 0000     		.space	2
 3302              	.LC17:
 3303 0008 77726974 		.ascii	"write\000"
 3303      6500
 3304 000e 0000     		.space	2
 3305              	.LC18:
 3306 0010 6572726F 		.ascii	"error\012\000"
 3306      720A00
 3307 0017 00       		.space	1
 3308              	.LC19:
 3309 0018 75736167 		.ascii	"usage: monitor option erase\012\000"
 3309      653A206D 
 3309      6F6E6974 
 3309      6F72206F 
 3309      7074696F 
 3310 0035 000000   		.space	3
 3311              	.LC20:
 3312 0038 75736167 		.ascii	"usage: monitor option write <OPTCR>\000"
 3312      653A206D 
 3312      6F6E6974 
 3312      6F72206F 
 3312      7074696F 
 3313              	.LC21:
 3314 005c 203C4F50 		.ascii	" <OPTCR1>\000"
 3314      54435231 
 3314      3E00
 3315 0066 0000     		.space	2
 3316              	.LC22:
 3317 0068 203C4F50 		.ascii	" <OPTCR2>\000"
 3317      54435232 
 3317      3E00
 3318 0072 0000     		.space	2
 3319              	.LC23:
 3320 0074 0A00     		.ascii	"\012\000"
 3321 0076 0000     		.space	2
 3322              	.LC24:
 3323 0078 4F505443 		.ascii	"OPTCR: 0x%08X \000"
 3323      523A2030 
 3323      78253038 
 3323      582000
 3324 0087 00       		.space	1
 3325              	.LC25:
 3326 0088 4F505443 		.ascii	"OPTCR1: 0x%08lx \000"
 3326      52313A20 
 3326      30782530 
 3326      386C7820 
 3326      00
 3327 0099 000000   		.space	3
 3328              	.LC26:
ARM GAS  /tmp/ccJYnsep.s 			page 60


 3329 009c 4F505443 		.ascii	"OPTCR2: 0x%08lx\000"
 3329      52323A20 
 3329      30782530 
 3329      386C7800 
 3330              		.section	.rodata.stm32f4_cmd_psize.str1.4,"aMS",%progbits,1
 3331              		.align	2
 3332              	.LC2:
 3333 0000 78333200 		.ascii	"x32\000"
 3334              	.LC3:
 3335 0004 78363400 		.ascii	"x64\000"
 3336              	.LC4:
 3337 0008 783800   		.ascii	"x8\000"
 3338 000b 00       		.space	1
 3339              	.LC5:
 3340 000c 78313600 		.ascii	"x16\000"
 3341              	.LC6:
 3342 0010 466C6173 		.ascii	"Flash write parallelism: %s\012\000"
 3342      68207772 
 3342      69746520 
 3342      70617261 
 3342      6C6C656C 
 3343 002d 000000   		.space	3
 3344              	.LC7:
 3345 0030 75736167 		.ascii	"usage: monitor psize (x8|x16|x32|x32)\012\000"
 3345      653A206D 
 3345      6F6E6974 
 3345      6F722070 
 3345      73697A65 
 3346              		.section	.rodata.stm32f4_flash_erase.str1.4,"aMS",%progbits,1
 3347              		.align	2
 3348              	.LC8:
 3349 0000 73746D33 		.ascii	"stm32f4 flash erase: comm error\012\000"
 3349      32663420 
 3349      666C6173 
 3349      68206572 
 3349      6173653A 
 3350 0021 000000   		.space	3
 3351              	.LC9:
 3352 0024 73746D33 		.ascii	"stm32f4 flash erase: sr error: 0x%lu\012\000"
 3352      32663420 
 3352      666C6173 
 3352      68206572 
 3352      6173653A 
 3353              		.section	.rodata.stm32f4_flash_write.str1.4,"aMS",%progbits,1
 3354              		.align	2
 3355              	.LC0:
 3356 0000 73746D33 		.ascii	"stm32f4 flash write: comm error\012\000"
 3356      32663420 
 3356      666C6173 
 3356      68207772 
 3356      6974653A 
 3357 0021 000000   		.space	3
 3358              	.LC1:
 3359 0024 73746D33 		.ascii	"stm32f4 flash write error 0x%lx\012\000"
 3359      32663420 
 3359      666C6173 
 3359      68207772 
ARM GAS  /tmp/ccJYnsep.s 			page 61


 3359      69746520 
 3360              		.section	.rodata.stm32f4_probe.str1.4,"aMS",%progbits,1
 3361              		.align	2
 3362              	.LC14:
 3363 0000 53544D33 		.ascii	"STM32F40x\000"
 3363      32463430 
 3363      7800
 3364 000a 0000     		.space	2
 3365              	.LC15:
 3366 000c 53544D33 		.ascii	"STM32F2\000"
 3366      32463200 
 3367              		.section	.rodata.str1.4,"aMS",%progbits,1
 3368              		.align	2
 3369              	.LC27:
 3370 0000 53544D33 		.ascii	"STM32F42x\000"
 3370      32463432 
 3370      7800
 3371 000a 0000     		.space	2
 3372              	.LC28:
 3373 000c 53544D33 		.ascii	"STM32F446\000"
 3373      32463434 
 3373      3600
 3374 0016 0000     		.space	2
 3375              	.LC29:
 3376 0018 53544D33 		.ascii	"STM32F401C\000"
 3376      32463430 
 3376      314300
 3377 0023 00       		.space	1
 3378              	.LC30:
 3379 0024 53544D33 		.ascii	"STM32F411\000"
 3379      32463431 
 3379      3100
 3380 002e 0000     		.space	2
 3381              	.LC31:
 3382 0030 53544D33 		.ascii	"STM32F401E\000"
 3382      32463430 
 3382      314500
 3383 003b 00       		.space	1
 3384              	.LC32:
 3385 003c 53544D33 		.ascii	"STM32F47x\000"
 3385      32463437 
 3385      7800
 3386 0046 0000     		.space	2
 3387              	.LC33:
 3388 0048 53544D33 		.ascii	"STM32F412\000"
 3388      32463431 
 3388      3200
 3389 0052 0000     		.space	2
 3390              	.LC34:
 3391 0054 53544D33 		.ascii	"STM32F74x\000"
 3391      32463734 
 3391      7800
 3392 005e 0000     		.space	2
 3393              	.LC35:
 3394 0060 53544D33 		.ascii	"STM32F76x\000"
 3394      32463736 
 3394      7800
ARM GAS  /tmp/ccJYnsep.s 			page 62


 3395 006a 0000     		.space	2
 3396              	.LC36:
 3397 006c 53544D33 		.ascii	"STM32F72x\000"
 3397      32463732 
 3397      7800
 3398 0076 0000     		.space	2
 3399              	.LC37:
 3400 0078 53544D33 		.ascii	"STM32F413\000"
 3400      32463431 
 3400      3300
 3401 0082 0000     		.space	2
 3402              	.LC38:
 3403 0084 65726173 		.ascii	"erase_mass\000"
 3403      655F6D61 
 3403      737300
 3404 008f 00       		.space	1
 3405              	.LC39:
 3406 0090 45726173 		.ascii	"Erase entire flash memory\000"
 3406      6520656E 
 3406      74697265 
 3406      20666C61 
 3406      7368206D 
 3407 00aa 0000     		.space	2
 3408              	.LC40:
 3409 00ac 6F707469 		.ascii	"option\000"
 3409      6F6E00
 3410 00b3 00       		.space	1
 3411              	.LC41:
 3412 00b4 4D616E69 		.ascii	"Manipulate option bytes\000"
 3412      70756C61 
 3412      7465206F 
 3412      7074696F 
 3412      6E206279 
 3413              	.LC42:
 3414 00cc 7073697A 		.ascii	"psize\000"
 3414      6500
 3415 00d2 0000     		.space	2
 3416              	.LC43:
 3417 00d4 436F6E66 		.ascii	"Configure flash write parallelism: (x8|x16|x32(defa"
 3417      69677572 
 3417      6520666C 
 3417      61736820 
 3417      77726974 
 3418 0107 756C7429 		.ascii	"ult)|x64)\000"
 3418      7C783634 
 3418      2900
 3419              		.text
 3420              	.Letext0:
 3421              		.file 2 "/usr/arm-none-eabi/include/machine/_default_types.h"
 3422              		.file 3 "/usr/arm-none-eabi/include/sys/_stdint.h"
 3423              		.file 4 "/usr/lib/gcc/arm-none-eabi/7.3.1/include/stddef.h"
 3424              		.file 5 "/usr/arm-none-eabi/include/sys/lock.h"
 3425              		.file 6 "/usr/arm-none-eabi/include/sys/_types.h"
 3426              		.file 7 "/usr/arm-none-eabi/include/sys/reent.h"
 3427              		.file 8 "/usr/arm-none-eabi/include/stdlib.h"
 3428              		.file 9 "/usr/lib/gcc/arm-none-eabi/7.3.1/include/stdarg.h"
 3429              		.file 10 "<built-in>"
ARM GAS  /tmp/ccJYnsep.s 			page 63


 3430              		.file 11 "/usr/arm-none-eabi/include/stdio.h"
 3431              		.file 12 "/usr/arm-none-eabi/include/sys/types.h"
 3432              		.file 13 "ChibiOS_3.0.5/os/rt/ports/ARMCMx/compilers/GCC/chtypes.h"
 3433              		.file 14 "ChibiOS_3.0.5/os/rt/include/chsystypes.h"
 3434              		.file 15 "ChibiOS_3.0.5/os/rt/include/chschd.h"
 3435              		.file 16 "ChibiOS_3.0.5/os/ext/CMSIS/include/core_cm4.h"
 3436              		.file 17 "ChibiOS_3.0.5/os/ext/CMSIS/ST/system_stm32f4xx.h"
 3437              		.file 18 "ChibiOS_3.0.5/os/ext/CMSIS/ST/stm32f407xx.h"
 3438              		.file 19 "ChibiOS_3.0.5/os/rt/ports/ARMCMx/chcore.h"
 3439              		.file 20 "ChibiOS_3.0.5/os/rt/ports/ARMCMx/chcore_v7m.h"
 3440              		.file 21 "ChibiOS_3.0.5/os/rt/include/chtm.h"
 3441              		.file 22 "ChibiOS_3.0.5/os/rt/include/chsem.h"
 3442              		.file 23 "ChibiOS_3.0.5/os/rt/include/chmtx.h"
 3443              		.file 24 "ChibiOS_3.0.5/os/rt/include/chregistry.h"
 3444              		.file 25 "ChibiOS_3.0.5/os/rt/include/chevents.h"
 3445              		.file 26 "ChibiOS_3.0.5/os/rt/include/chqueues.h"
 3446              		.file 27 "./datatypes.h"
 3447              		.file 28 "./conf_general.h"
 3448              		.file 29 "ChibiOS_3.0.5/os/hal/ports/STM32/STM32F4xx/stm32_dma.h"
 3449              		.file 30 "ChibiOS_3.0.5/os/hal/ports/STM32/LLD/GPIOv2/pal_lld.h"
 3450              		.file 31 "ChibiOS_3.0.5/os/hal/include/can.h"
 3451              		.file 32 "ChibiOS_3.0.5/os/hal/ports/STM32/LLD/can_lld.h"
 3452              		.file 33 "ChibiOS_3.0.5/os/hal/include/i2c.h"
 3453              		.file 34 "ChibiOS_3.0.5/os/hal/ports/STM32/LLD/I2Cv1/i2c_lld.h"
 3454              		.file 35 "ChibiOS_3.0.5/os/hal/include/icu.h"
 3455              		.file 36 "ChibiOS_3.0.5/os/hal/ports/STM32/LLD/TIMv1/icu_lld.h"
 3456              		.file 37 "ChibiOS_3.0.5/os/hal/ports/STM32/LLD/TIMv1/stm32_tim.h"
 3457              		.file 38 "ChibiOS_3.0.5/os/hal/include/serial.h"
 3458              		.file 39 "ChibiOS_3.0.5/os/hal/ports/STM32/LLD/USARTv1/serial_lld.h"
 3459              		.file 40 "ChibiOS_3.0.5/os/hal/include/spi.h"
 3460              		.file 41 "ChibiOS_3.0.5/os/hal/ports/STM32/LLD/SPIv1/spi_lld.h"
 3461              		.file 42 "ChibiOS_3.0.5/os/hal/include/usb.h"
 3462              		.file 43 "ChibiOS_3.0.5/os/hal/ports/STM32/LLD/OTGv1/usb_lld.h"
 3463              		.file 44 "ChibiOS_3.0.5/os/hal/ports/STM32/LLD/OTGv1/stm32_otg.h"
 3464              		.file 45 "./commands.h"
 3465              		.file 46 "blackmagic/platform.h"
 3466              		.file 47 "blackmagic/target.h"
 3467              		.file 48 "blackmagic/target/target_internal.h"
 3468              		.file 49 "blackmagic/target/jtag_scan.h"
 3469              		.file 50 "blackmagic/target/adiv5.h"
 3470              		.file 51 "blackmagic/target/cortexm.h"
 3471              		.file 52 "/usr/arm-none-eabi/include/string.h"
 3472              		.file 53 "blackmagic/platform_support.h"