ARM GAS  /tmp/ccaqrZUC.s 			page 1


   1              		.cpu cortex-m4
   2              		.eabi_attribute 27, 1
   3              		.eabi_attribute 28, 1
   4              		.eabi_attribute 20, 1
   5              		.eabi_attribute 21, 1
   6              		.eabi_attribute 23, 3
   7              		.eabi_attribute 24, 1
   8              		.eabi_attribute 25, 1
   9              		.eabi_attribute 26, 1
  10              		.eabi_attribute 30, 2
  11              		.eabi_attribute 34, 1
  12              		.eabi_attribute 18, 4
  13              		.file	"stm32f4xx_syscfg.c"
  14              		.text
  15              	.Ltext0:
  16              		.cfi_sections	.debug_frame
  17              		.section	.text.SYSCFG_DeInit,"ax",%progbits
  18              		.align	1
  19              		.p2align 4,,15
  20              		.global	SYSCFG_DeInit
  21              		.syntax unified
  22              		.thumb
  23              		.thumb_func
  24              		.fpu fpv4-sp-d16
  25              		.type	SYSCFG_DeInit, %function
  26              	SYSCFG_DeInit:
  27              	.LFB112:
  28              		.file 1 "ChibiOS_3.0.5/ext/stdperiph_stm32f4/src/stm32f4xx_syscfg.c"
  29              		.loc 1 100 0
  30              		.cfi_startproc
  31              		@ args = 0, pretend = 0, frame = 0
  32              		@ frame_needed = 0, uses_anonymous_args = 0
  33 0000 08B5     		push	{r3, lr}
  34              		.cfi_def_cfa_offset 8
  35              		.cfi_offset 3, -8
  36              		.cfi_offset 14, -4
  37              		.loc 1 101 0
  38 0002 0121     		movs	r1, #1
  39 0004 4FF48040 		mov	r0, #16384
  40 0008 FFF7FEFF 		bl	RCC_APB2PeriphResetCmd
  41              	.LVL0:
  42              		.loc 1 102 0
  43 000c 0021     		movs	r1, #0
  44 000e 4FF48040 		mov	r0, #16384
  45              		.loc 1 103 0
  46 0012 BDE80840 		pop	{r3, lr}
  47              		.cfi_restore 14
  48              		.cfi_restore 3
  49              		.cfi_def_cfa_offset 0
  50              		.loc 1 102 0
  51 0016 FFF7FEBF 		b	RCC_APB2PeriphResetCmd
  52              	.LVL1:
  53              		.cfi_endproc
  54              	.LFE112:
  55              		.size	SYSCFG_DeInit, .-SYSCFG_DeInit
  56 001a 00BF     		.section	.text.SYSCFG_MemoryRemapConfig,"ax",%progbits
  57              		.align	1
ARM GAS  /tmp/ccaqrZUC.s 			page 2


  58              		.p2align 4,,15
  59              		.global	SYSCFG_MemoryRemapConfig
  60              		.syntax unified
  61              		.thumb
  62              		.thumb_func
  63              		.fpu fpv4-sp-d16
  64              		.type	SYSCFG_MemoryRemapConfig, %function
  65              	SYSCFG_MemoryRemapConfig:
  66              	.LFB113:
  67              		.loc 1 119 0
  68              		.cfi_startproc
  69              		@ args = 0, pretend = 0, frame = 0
  70              		@ frame_needed = 0, uses_anonymous_args = 0
  71              		@ link register save eliminated.
  72              	.LVL2:
  73              		.loc 1 123 0
  74 0000 014B     		ldr	r3, .L5
  75 0002 1860     		str	r0, [r3]
  76              		.loc 1 124 0
  77 0004 7047     		bx	lr
  78              	.L6:
  79 0006 00BF     		.align	2
  80              	.L5:
  81 0008 00380140 		.word	1073821696
  82              		.cfi_endproc
  83              	.LFE113:
  84              		.size	SYSCFG_MemoryRemapConfig, .-SYSCFG_MemoryRemapConfig
  85              		.section	.text.SYSCFG_MemorySwappingBank,"ax",%progbits
  86              		.align	1
  87              		.p2align 4,,15
  88              		.global	SYSCFG_MemorySwappingBank
  89              		.syntax unified
  90              		.thumb
  91              		.thumb_func
  92              		.fpu fpv4-sp-d16
  93              		.type	SYSCFG_MemorySwappingBank, %function
  94              	SYSCFG_MemorySwappingBank:
  95              	.LFB114:
  96              		.loc 1 140 0
  97              		.cfi_startproc
  98              		@ args = 0, pretend = 0, frame = 0
  99              		@ frame_needed = 0, uses_anonymous_args = 0
 100              		@ link register save eliminated.
 101              	.LVL3:
 102              		.loc 1 144 0
 103 0000 014B     		ldr	r3, .L8
 104 0002 1860     		str	r0, [r3]
 105              		.loc 1 145 0
 106 0004 7047     		bx	lr
 107              	.L9:
 108 0006 00BF     		.align	2
 109              	.L8:
 110 0008 20002742 		.word	1109852192
 111              		.cfi_endproc
 112              	.LFE114:
 113              		.size	SYSCFG_MemorySwappingBank, .-SYSCFG_MemorySwappingBank
 114              		.section	.text.SYSCFG_EXTILineConfig,"ax",%progbits
ARM GAS  /tmp/ccaqrZUC.s 			page 3


 115              		.align	1
 116              		.p2align 4,,15
 117              		.global	SYSCFG_EXTILineConfig
 118              		.syntax unified
 119              		.thumb
 120              		.thumb_func
 121              		.fpu fpv4-sp-d16
 122              		.type	SYSCFG_EXTILineConfig, %function
 123              	SYSCFG_EXTILineConfig:
 124              	.LFB115:
 125              		.loc 1 163 0
 126              		.cfi_startproc
 127              		@ args = 0, pretend = 0, frame = 0
 128              		@ frame_needed = 0, uses_anonymous_args = 0
 129              		@ link register save eliminated.
 130              	.LVL4:
 131 0000 01F0FC03 		and	r3, r1, #252
 132 0004 03F18043 		add	r3, r3, #1073741824
 133 0008 03F59C33 		add	r3, r3, #79872
 134              		.loc 1 170 0
 135 000c 01F00301 		and	r1, r1, #3
 136              	.LVL5:
 137              		.loc 1 163 0
 138 0010 10B4     		push	{r4}
 139              		.cfi_def_cfa_offset 4
 140              		.cfi_offset 4, -4
 141              		.loc 1 171 0
 142 0012 9A68     		ldr	r2, [r3, #8]
 143              		.loc 1 170 0
 144 0014 8900     		lsls	r1, r1, #2
 145              	.LVL6:
 146 0016 0F24     		movs	r4, #15
 147 0018 8C40     		lsls	r4, r4, r1
 148              	.LVL7:
 149              		.loc 1 171 0
 150 001a 22EA0402 		bic	r2, r2, r4
 151 001e 9A60     		str	r2, [r3, #8]
 152              		.loc 1 172 0
 153 0020 9A68     		ldr	r2, [r3, #8]
 154              		.loc 1 173 0
 155 0022 5DF8044B 		ldr	r4, [sp], #4
 156              		.cfi_restore 4
 157              		.cfi_def_cfa_offset 0
 158              	.LVL8:
 159              		.loc 1 172 0
 160 0026 00FA01F1 		lsl	r1, r0, r1
 161              	.LVL9:
 162 002a 1143     		orrs	r1, r1, r2
 163 002c 9960     		str	r1, [r3, #8]
 164              		.loc 1 173 0
 165 002e 7047     		bx	lr
 166              		.cfi_endproc
 167              	.LFE115:
 168              		.size	SYSCFG_EXTILineConfig, .-SYSCFG_EXTILineConfig
 169              		.section	.text.SYSCFG_ETH_MediaInterfaceConfig,"ax",%progbits
 170              		.align	1
 171              		.p2align 4,,15
ARM GAS  /tmp/ccaqrZUC.s 			page 4


 172              		.global	SYSCFG_ETH_MediaInterfaceConfig
 173              		.syntax unified
 174              		.thumb
 175              		.thumb_func
 176              		.fpu fpv4-sp-d16
 177              		.type	SYSCFG_ETH_MediaInterfaceConfig, %function
 178              	SYSCFG_ETH_MediaInterfaceConfig:
 179              	.LFB116:
 180              		.loc 1 184 0
 181              		.cfi_startproc
 182              		@ args = 0, pretend = 0, frame = 0
 183              		@ frame_needed = 0, uses_anonymous_args = 0
 184              		@ link register save eliminated.
 185              	.LVL10:
 186              		.loc 1 187 0
 187 0000 014B     		ldr	r3, .L13
 188 0002 1860     		str	r0, [r3]
 189              		.loc 1 188 0
 190 0004 7047     		bx	lr
 191              	.L14:
 192 0006 00BF     		.align	2
 193              	.L13:
 194 0008 DC002742 		.word	1109852380
 195              		.cfi_endproc
 196              	.LFE116:
 197              		.size	SYSCFG_ETH_MediaInterfaceConfig, .-SYSCFG_ETH_MediaInterfaceConfig
 198              		.section	.text.SYSCFG_CompensationCellCmd,"ax",%progbits
 199              		.align	1
 200              		.p2align 4,,15
 201              		.global	SYSCFG_CompensationCellCmd
 202              		.syntax unified
 203              		.thumb
 204              		.thumb_func
 205              		.fpu fpv4-sp-d16
 206              		.type	SYSCFG_CompensationCellCmd, %function
 207              	SYSCFG_CompensationCellCmd:
 208              	.LFB117:
 209              		.loc 1 201 0
 210              		.cfi_startproc
 211              		@ args = 0, pretend = 0, frame = 0
 212              		@ frame_needed = 0, uses_anonymous_args = 0
 213              		@ link register save eliminated.
 214              	.LVL11:
 215              		.loc 1 205 0
 216 0000 014B     		ldr	r3, .L16
 217 0002 1860     		str	r0, [r3]
 218              		.loc 1 206 0
 219 0004 7047     		bx	lr
 220              	.L17:
 221 0006 00BF     		.align	2
 222              	.L16:
 223 0008 00042742 		.word	1109853184
 224              		.cfi_endproc
 225              	.LFE117:
 226              		.size	SYSCFG_CompensationCellCmd, .-SYSCFG_CompensationCellCmd
 227              		.section	.text.SYSCFG_GetCompensationCellStatus,"ax",%progbits
 228              		.align	1
ARM GAS  /tmp/ccaqrZUC.s 			page 5


 229              		.p2align 4,,15
 230              		.global	SYSCFG_GetCompensationCellStatus
 231              		.syntax unified
 232              		.thumb
 233              		.thumb_func
 234              		.fpu fpv4-sp-d16
 235              		.type	SYSCFG_GetCompensationCellStatus, %function
 236              	SYSCFG_GetCompensationCellStatus:
 237              	.LFB118:
 238              		.loc 1 214 0
 239              		.cfi_startproc
 240              		@ args = 0, pretend = 0, frame = 0
 241              		@ frame_needed = 0, uses_anonymous_args = 0
 242              		@ link register save eliminated.
 243              	.LVL12:
 244              		.loc 1 217 0
 245 0000 024B     		ldr	r3, .L19
 246 0002 186A     		ldr	r0, [r3, #32]
 247              	.LVL13:
 248              		.loc 1 226 0
 249 0004 C0F30020 		ubfx	r0, r0, #8, #1
 250              	.LVL14:
 251 0008 7047     		bx	lr
 252              	.L20:
 253 000a 00BF     		.align	2
 254              	.L19:
 255 000c 00380140 		.word	1073821696
 256              		.cfi_endproc
 257              	.LFE118:
 258              		.size	SYSCFG_GetCompensationCellStatus, .-SYSCFG_GetCompensationCellStatus
 259              		.text
 260              	.Letext0:
 261              		.file 2 "/usr/arm-none-eabi/include/machine/_default_types.h"
 262              		.file 3 "/usr/arm-none-eabi/include/sys/_stdint.h"
 263              		.file 4 "ChibiOS_3.0.5/os/ext/CMSIS/include/core_cm4.h"
 264              		.file 5 "ChibiOS_3.0.5/os/ext/CMSIS/ST/system_stm32f4xx.h"
 265              		.file 6 "ChibiOS_3.0.5/os/ext/CMSIS/ST/stm32f407xx.h"
 266              		.file 7 "ChibiOS_3.0.5/os/ext/CMSIS/ST/stm32f4xx.h"
 267              		.file 8 "ChibiOS_3.0.5/ext/stdperiph_stm32f4/inc/stm32f4xx_rcc.h"