ARM GAS  /tmp/cczfLbj6.s 			page 1


   1              		.cpu cortex-m4
   2              		.eabi_attribute 27, 1
   3              		.eabi_attribute 28, 1
   4              		.eabi_attribute 20, 1
   5              		.eabi_attribute 21, 1
   6              		.eabi_attribute 23, 3
   7              		.eabi_attribute 24, 1
   8              		.eabi_attribute 25, 1
   9              		.eabi_attribute 26, 1
  10              		.eabi_attribute 30, 2
  11              		.eabi_attribute 34, 1
  12              		.eabi_attribute 18, 4
  13              		.file	"stm32l4.c"
  14              		.text
  15              	.Ltext0:
  16              		.cfi_sections	.debug_frame
  17              		.section	.text.stm32l4_detach,"ax",%progbits
  18              		.align	1
  19              		.p2align 4,,15
  20              		.syntax unified
  21              		.thumb
  22              		.thumb_func
  23              		.fpu fpv4-sp-d16
  24              		.type	stm32l4_detach, %function
  25              	stm32l4_detach:
  26              	.LFB266:
  27              		.file 1 "blackmagic/target/stm32l4.c"
  28              		.loc 1 312 0
  29              		.cfi_startproc
  30              		@ args = 0, pretend = 0, frame = 0
  31              		@ frame_needed = 0, uses_anonymous_args = 0
  32              	.LVL0:
  33 0000 38B5     		push	{r3, r4, r5, lr}
  34              		.cfi_def_cfa_offset 16
  35              		.cfi_offset 3, -16
  36              		.cfi_offset 4, -12
  37              		.cfi_offset 5, -8
  38              		.cfi_offset 14, -4
  39              		.loc 1 315 0
  40 0002 0849     		ldr	r1, .L6
  41 0004 056D     		ldr	r5, [r0, #80]
  42 0006 084B     		ldr	r3, .L6+4
  43              		.loc 1 317 0
  44 0008 426D     		ldr	r2, [r0, #84]
  45              		.loc 1 312 0
  46 000a 0446     		mov	r4, r0
  47              		.loc 1 317 0
  48 000c B5F58C6F 		cmp	r5, #1120
  49 0010 18BF     		it	ne
  50 0012 1946     		movne	r1, r3
  51 0014 FFF7FEFF 		bl	target_mem_write32
  52              	.LVL1:
  53              		.loc 1 318 0
  54 0018 2046     		mov	r0, r4
  55              		.loc 1 319 0
  56 001a BDE83840 		pop	{r3, r4, r5, lr}
  57              		.cfi_restore 14
ARM GAS  /tmp/cczfLbj6.s 			page 2


  58              		.cfi_restore 5
  59              		.cfi_restore 4
  60              		.cfi_restore 3
  61              		.cfi_def_cfa_offset 0
  62              	.LVL2:
  63              		.loc 1 318 0
  64 001e FFF7FEBF 		b	cortexm_detach
  65              	.LVL3:
  66              	.L7:
  67 0022 00BF     		.align	2
  68              	.L6:
  69 0024 04580140 		.word	1073829892
  70 0028 042004E0 		.word	-536600572
  71              		.cfi_endproc
  72              	.LFE266:
  73              		.size	stm32l4_detach, .-stm32l4_detach
  74              		.section	.text.stm32l4_add_flash,"ax",%progbits
  75              		.align	1
  76              		.p2align 4,,15
  77              		.syntax unified
  78              		.thumb
  79              		.thumb_func
  80              		.fpu fpv4-sp-d16
  81              		.type	stm32l4_add_flash, %function
  82              	stm32l4_add_flash:
  83              	.LFB264:
  84              		.loc 1 232 0
  85              		.cfi_startproc
  86              		@ args = 4, pretend = 0, frame = 0
  87              		@ frame_needed = 0, uses_anonymous_args = 0
  88              	.LVL4:
  89 0000 2DE9F84F 		push	{r3, r4, r5, r6, r7, r8, r9, r10, fp, lr}
  90              		.cfi_def_cfa_offset 40
  91              		.cfi_offset 3, -40
  92              		.cfi_offset 4, -36
  93              		.cfi_offset 5, -32
  94              		.cfi_offset 6, -28
  95              		.cfi_offset 7, -24
  96              		.cfi_offset 8, -20
  97              		.cfi_offset 9, -16
  98              		.cfi_offset 10, -12
  99              		.cfi_offset 11, -8
 100              		.cfi_offset 14, -4
 101              		.loc 1 232 0
 102 0004 0546     		mov	r5, r0
 103 0006 8B46     		mov	fp, r1
 104              		.loc 1 233 0
 105 0008 0120     		movs	r0, #1
 106              	.LVL5:
 107 000a 3421     		movs	r1, #52
 108              	.LVL6:
 109              		.loc 1 232 0
 110 000c 9246     		mov	r10, r2
 111 000e 9946     		mov	r9, r3
 112 0010 DDF82880 		ldr	r8, [sp, #40]
 113              		.loc 1 238 0
 114 0014 0C4F     		ldr	r7, .L10
ARM GAS  /tmp/cczfLbj6.s 			page 3


 115              		.loc 1 239 0
 116 0016 0D4E     		ldr	r6, .L10+4
 117              		.loc 1 233 0
 118 0018 FFF7FEFF 		bl	calloc
 119              	.LVL7:
 120 001c 0446     		mov	r4, r0
 121              	.LVL8:
 122              		.loc 1 235 0
 123 001e C0F800B0 		str	fp, [r0]
 124              		.loc 1 241 0
 125 0022 FF22     		movs	r2, #255
 126              		.loc 1 243 0
 127 0024 2846     		mov	r0, r5
 128              	.LVL9:
 129              		.loc 1 240 0
 130 0026 4FF40065 		mov	r5, #2048
 131              	.LVL10:
 132              		.loc 1 236 0
 133 002a C4F804A0 		str	r10, [r4, #4]
 134              		.loc 1 237 0
 135 002e C4F80890 		str	r9, [r4, #8]
 136              		.loc 1 243 0
 137 0032 2146     		mov	r1, r4
 138              		.loc 1 242 0
 139 0034 C4F83080 		str	r8, [r4, #48]
 140              		.loc 1 239 0
 141 0038 C4E90376 		strd	r7, r6, [r4, #12]
 142              		.loc 1 240 0
 143 003c 2562     		str	r5, [r4, #32]
 144              		.loc 1 241 0
 145 003e 2277     		strb	r2, [r4, #28]
 146              		.loc 1 244 0
 147 0040 BDE8F84F 		pop	{r3, r4, r5, r6, r7, r8, r9, r10, fp, lr}
 148              		.cfi_restore 14
 149              		.cfi_restore 11
 150              		.cfi_restore 10
 151              		.cfi_restore 9
 152              		.cfi_restore 8
 153              		.cfi_restore 7
 154              		.cfi_restore 6
 155              		.cfi_restore 5
 156              		.cfi_restore 4
 157              		.cfi_restore 3
 158              		.cfi_def_cfa_offset 0
 159              	.LVL11:
 160              		.loc 1 243 0
 161 0044 FFF7FEBF 		b	target_add_flash
 162              	.LVL12:
 163              	.L11:
 164              		.align	2
 165              	.L10:
 166 0048 00000000 		.word	stm32l4_flash_erase
 167 004c 00000000 		.word	stm32l4_flash_write
 168              		.cfi_endproc
 169              	.LFE264:
 170              		.size	stm32l4_add_flash, .-stm32l4_add_flash
 171              		.section	.text.stm32l4_flash_write,"ax",%progbits
ARM GAS  /tmp/cczfLbj6.s 			page 4


 172              		.align	1
 173              		.p2align 4,,15
 174              		.syntax unified
 175              		.thumb
 176              		.thumb_func
 177              		.fpu fpv4-sp-d16
 178              		.type	stm32l4_flash_write, %function
 179              	stm32l4_flash_write:
 180              	.LFB270:
 181              		.loc 1 400 0
 182              		.cfi_startproc
 183              		@ args = 0, pretend = 0, frame = 0
 184              		@ frame_needed = 0, uses_anonymous_args = 0
 185              	.LVL13:
 186 0000 2DE9F041 		push	{r4, r5, r6, r7, r8, lr}
 187              		.cfi_def_cfa_offset 24
 188              		.cfi_offset 4, -24
 189              		.cfi_offset 5, -20
 190              		.cfi_offset 6, -16
 191              		.cfi_offset 7, -12
 192              		.cfi_offset 8, -8
 193              		.cfi_offset 14, -4
 194              		.loc 1 401 0
 195 0004 8469     		ldr	r4, [r0, #24]
 196              	.LVL14:
 197              		.loc 1 407 0
 198 0006 174E     		ldr	r6, .L20
 199              		.loc 1 400 0
 200 0008 0D46     		mov	r5, r1
 201 000a 1746     		mov	r7, r2
 202 000c 9846     		mov	r8, r3
 203              		.loc 1 402 0
 204 000e 2046     		mov	r0, r4
 205              	.LVL15:
 206 0010 0122     		movs	r2, #1
 207              	.LVL16:
 208 0012 1549     		ldr	r1, .L20+4
 209              	.LVL17:
 210 0014 FFF7FEFF 		bl	target_mem_write32
 211              	.LVL18:
 212              		.loc 1 403 0
 213 0018 4346     		mov	r3, r8
 214 001a 3A46     		mov	r2, r7
 215 001c 2946     		mov	r1, r5
 216 001e 2046     		mov	r0, r4
 217 0020 FFF7FEFF 		bl	target_mem_write
 218              	.LVL19:
 219 0024 01E0     		b	.L15
 220              	.LVL20:
 221              	.L13:
 222              		.loc 1 412 0
 223 0026 EB03     		lsls	r3, r5, #15
 224 0028 10D5     		bpl	.L19
 225              	.LVL21:
 226              	.L15:
 227              		.loc 1 407 0
 228 002a 3146     		mov	r1, r6
ARM GAS  /tmp/cczfLbj6.s 			page 5


 229 002c 2046     		mov	r0, r4
 230 002e FFF7FEFF 		bl	target_mem_read32
 231              	.LVL22:
 232 0032 0546     		mov	r5, r0
 233              	.LVL23:
 234              		.loc 1 408 0
 235 0034 2046     		mov	r0, r4
 236              	.LVL24:
 237 0036 FFF7FEFF 		bl	target_check_error
 238              	.LVL25:
 239 003a 0028     		cmp	r0, #0
 240 003c F3D0     		beq	.L13
 241              		.loc 1 409 0
 242 003e 0B48     		ldr	r0, .L20+8
 243 0040 FFF7FEFF 		bl	commands_printf
 244              	.LVL26:
 245              		.loc 1 410 0
 246 0044 4FF0FF30 		mov	r0, #-1
 247              	.L12:
 248              		.loc 1 419 0
 249 0048 BDE8F081 		pop	{r4, r5, r6, r7, r8, pc}
 250              	.LVL27:
 251              	.L19:
 252              		.loc 1 414 0
 253 004c 4CF2FA30 		movw	r0, #50170
 254 0050 2840     		ands	r0, r5, r0
 255 0052 F9D0     		beq	.L12
 256              		.loc 1 415 0
 257 0054 0648     		ldr	r0, .L20+12
 258 0056 2946     		mov	r1, r5
 259 0058 FFF7FEFF 		bl	commands_printf
 260              	.LVL28:
 261              		.loc 1 416 0
 262 005c 4FF0FF30 		mov	r0, #-1
 263 0060 F2E7     		b	.L12
 264              	.L21:
 265 0062 00BF     		.align	2
 266              	.L20:
 267 0064 10200240 		.word	1073881104
 268 0068 14200240 		.word	1073881108
 269 006c 00000000 		.word	.LC1
 270 0070 24000000 		.word	.LC2
 271              		.cfi_endproc
 272              	.LFE270:
 273              		.size	stm32l4_flash_write, .-stm32l4_flash_write
 274              		.section	.text.stm32l4_flash_unlock,"ax",%progbits
 275              		.align	1
 276              		.p2align 4,,15
 277              		.syntax unified
 278              		.thumb
 279              		.thumb_func
 280              		.fpu fpv4-sp-d16
 281              		.type	stm32l4_flash_unlock, %function
 282              	stm32l4_flash_unlock:
 283              	.LFB268:
 284              		.loc 1 343 0
 285              		.cfi_startproc
ARM GAS  /tmp/cczfLbj6.s 			page 6


 286              		@ args = 0, pretend = 0, frame = 0
 287              		@ frame_needed = 0, uses_anonymous_args = 0
 288              	.LVL29:
 289 0000 10B5     		push	{r4, lr}
 290              		.cfi_def_cfa_offset 8
 291              		.cfi_offset 4, -8
 292              		.cfi_offset 14, -4
 293              		.loc 1 344 0
 294 0002 0949     		ldr	r1, .L26
 295              		.loc 1 343 0
 296 0004 0446     		mov	r4, r0
 297              		.loc 1 344 0
 298 0006 FFF7FEFF 		bl	target_mem_read32
 299              	.LVL30:
 300 000a 0028     		cmp	r0, #0
 301 000c 00DB     		blt	.L25
 302              		.loc 1 349 0
 303 000e 10BD     		pop	{r4, pc}
 304              	.LVL31:
 305              	.L25:
 306              	.LBB17:
 307              	.LBB18:
 308              		.loc 1 346 0
 309 0010 2046     		mov	r0, r4
 310 0012 064A     		ldr	r2, .L26+4
 311 0014 0649     		ldr	r1, .L26+8
 312 0016 FFF7FEFF 		bl	target_mem_write32
 313              	.LVL32:
 314              		.loc 1 347 0
 315 001a 2046     		mov	r0, r4
 316 001c 054A     		ldr	r2, .L26+12
 317 001e 0449     		ldr	r1, .L26+8
 318              	.LBE18:
 319              	.LBE17:
 320              		.loc 1 349 0
 321 0020 BDE81040 		pop	{r4, lr}
 322              		.cfi_restore 14
 323              		.cfi_restore 4
 324              		.cfi_def_cfa_offset 0
 325              	.LVL33:
 326              	.LBB20:
 327              	.LBB19:
 328              		.loc 1 347 0
 329 0024 FFF7FEBF 		b	target_mem_write32
 330              	.LVL34:
 331              	.L27:
 332              		.align	2
 333              	.L26:
 334 0028 14200240 		.word	1073881108
 335 002c 23016745 		.word	1164378403
 336 0030 08200240 		.word	1073881096
 337 0034 AB89EFCD 		.word	-839939669
 338              	.LBE19:
 339              	.LBE20:
 340              		.cfi_endproc
 341              	.LFE268:
 342              		.size	stm32l4_flash_unlock, .-stm32l4_flash_unlock
ARM GAS  /tmp/cczfLbj6.s 			page 7


 343              		.section	.text.stm32l4_flash_erase,"ax",%progbits
 344              		.align	1
 345              		.p2align 4,,15
 346              		.syntax unified
 347              		.thumb
 348              		.thumb_func
 349              		.fpu fpv4-sp-d16
 350              		.type	stm32l4_flash_erase, %function
 351              	stm32l4_flash_erase:
 352              	.LFB269:
 353              		.loc 1 352 0
 354              		.cfi_startproc
 355              		@ args = 0, pretend = 0, frame = 8
 356              		@ frame_needed = 0, uses_anonymous_args = 0
 357              	.LVL35:
 358 0000 2DE9F04F 		push	{r4, r5, r6, r7, r8, r9, r10, fp, lr}
 359              		.cfi_def_cfa_offset 36
 360              		.cfi_offset 4, -36
 361              		.cfi_offset 5, -32
 362              		.cfi_offset 6, -28
 363              		.cfi_offset 7, -24
 364              		.cfi_offset 8, -20
 365              		.cfi_offset 9, -16
 366              		.cfi_offset 10, -12
 367              		.cfi_offset 11, -8
 368              		.cfi_offset 14, -4
 369              		.loc 1 353 0
 370 0004 8469     		ldr	r4, [r0, #24]
 371              	.LVL36:
 372              		.loc 1 355 0
 373 0006 036B     		ldr	r3, [r0, #48]
 374              		.loc 1 357 0
 375 0008 D0F80880 		ldr	r8, [r0, #8]
 376              		.loc 1 362 0
 377 000c 2F4D     		ldr	r5, .L46
 378              		.loc 1 352 0
 379 000e 83B0     		sub	sp, sp, #12
 380              		.cfi_def_cfa_offset 48
 381              		.loc 1 359 0
 382 0010 2046     		mov	r0, r4
 383              	.LVL37:
 384              		.loc 1 352 0
 385 0012 0F46     		mov	r7, r1
 386              		.loc 1 355 0
 387 0014 0193     		str	r3, [sp, #4]
 388              	.LVL38:
 389              		.loc 1 352 0
 390 0016 9146     		mov	r9, r2
 391              		.loc 1 359 0
 392 0018 FFF7FEFF 		bl	stm32l4_flash_unlock
 393              	.LVL39:
 394              		.loc 1 362 0
 395 001c 03E0     		b	.L29
 396              	.LVL40:
 397              	.L31:
 398              		.loc 1 363 0
 399 001e FFF7FEFF 		bl	target_check_error
ARM GAS  /tmp/cczfLbj6.s 			page 8


 400              	.LVL41:
 401 0022 0028     		cmp	r0, #0
 402 0024 4CD1     		bne	.L36
 403              	.L29:
 404              		.loc 1 362 0
 405 0026 2946     		mov	r1, r5
 406 0028 2046     		mov	r0, r4
 407 002a FFF7FEFF 		bl	target_mem_read32
 408              	.LVL42:
 409 002e 10F4803F 		tst	r0, #65536
 410              		.loc 1 363 0
 411 0032 2046     		mov	r0, r4
 412              		.loc 1 362 0
 413 0034 F3D1     		bne	.L31
 414              	.LVL43:
 415              		.loc 1 366 0
 416 0036 2549     		ldr	r1, .L46
 417 0038 FFF7FEFF 		bl	target_mem_read32
 418              	.LVL44:
 419 003c 2349     		ldr	r1, .L46
 420 003e 0246     		mov	r2, r0
 421 0040 2046     		mov	r0, r4
 422 0042 FFF7FEFF 		bl	target_mem_write32
 423              	.LVL45:
 424              		.loc 1 367 0
 425 0046 07F17846 		add	r6, r7, #-134217728
 426 004a B6FBF8F6 		udiv	r6, r6, r8
 427              	.LVL46:
 428              		.loc 1 368 0
 429 004e B9F1000F 		cmp	r9, #0
 430 0052 29D0     		beq	.L32
 431              	.LBB21:
 432              		.loc 1 375 0
 433 0054 DFF878A0 		ldr	r10, .L46+4
 434              		.loc 1 381 0
 435 0058 1C4D     		ldr	r5, .L46
 436 005a F600     		lsls	r6, r6, #3
 437              	.LVL47:
 438              	.L38:
 439              		.loc 1 372 0
 440 005c 019B     		ldr	r3, [sp, #4]
 441 005e BB42     		cmp	r3, r7
 442              		.loc 1 373 0
 443 0060 96BF     		itet	ls
 444 0062 46F4006B 		orrls	fp, r6, #2048
 445              		.loc 1 371 0
 446 0066 46F0020B 		orrhi	fp, r6, #2
 447              		.loc 1 373 0
 448 006a 4BF0020B 		orrls	fp, fp, #2
 449              	.LVL48:
 450              		.loc 1 375 0
 451 006e 5A46     		mov	r2, fp
 452 0070 5146     		mov	r1, r10
 453 0072 2046     		mov	r0, r4
 454 0074 FFF7FEFF 		bl	target_mem_write32
 455              	.LVL49:
 456              		.loc 1 378 0
ARM GAS  /tmp/cczfLbj6.s 			page 9


 457 0078 4BF48032 		orr	r2, fp, #65536
 458              	.LVL50:
 459 007c 5146     		mov	r1, r10
 460 007e 2046     		mov	r0, r4
 461 0080 FFF7FEFF 		bl	target_mem_write32
 462              	.LVL51:
 463              		.loc 1 381 0
 464 0084 02E0     		b	.L35
 465              	.LVL52:
 466              	.L37:
 467              		.loc 1 382 0
 468 0086 FFF7FEFF 		bl	target_check_error
 469              	.LVL53:
 470 008a C8B9     		cbnz	r0, .L36
 471              	.L35:
 472              		.loc 1 381 0
 473 008c 2946     		mov	r1, r5
 474 008e 2046     		mov	r0, r4
 475 0090 FFF7FEFF 		bl	target_mem_read32
 476              	.LVL54:
 477 0094 10F4803F 		tst	r0, #65536
 478              		.loc 1 382 0
 479 0098 2046     		mov	r0, r4
 480              		.loc 1 381 0
 481 009a F4D1     		bne	.L37
 482              	.LVL55:
 483              	.LBE21:
 484              		.loc 1 368 0
 485 009c B9EB0809 		subs	r9, r9, r8
 486              	.LVL56:
 487              	.LBB22:
 488              		.loc 1 386 0
 489 00a0 4744     		add	r7, r7, r8
 490              	.LVL57:
 491 00a2 06F10806 		add	r6, r6, #8
 492              	.LBE22:
 493              		.loc 1 368 0
 494 00a6 D9D1     		bne	.L38
 495              	.LVL58:
 496              	.L32:
 497              		.loc 1 391 0
 498 00a8 2046     		mov	r0, r4
 499 00aa 0849     		ldr	r1, .L46
 500 00ac FFF7FEFF 		bl	target_mem_read32
 501              	.LVL59:
 502              		.loc 1 392 0
 503 00b0 4CF2FA33 		movw	r3, #50170
 504 00b4 1842     		tst	r0, r3
 505 00b6 14BF     		ite	ne
 506 00b8 4FF0FF30 		movne	r0, #-1
 507              	.LVL60:
 508 00bc 0020     		moveq	r0, #0
 509 00be 01E0     		b	.L28
 510              	.LVL61:
 511              	.L36:
 512              		.loc 1 364 0
 513 00c0 4FF0FF30 		mov	r0, #-1
ARM GAS  /tmp/cczfLbj6.s 			page 10


 514              	.LVL62:
 515              	.L28:
 516              		.loc 1 396 0
 517 00c4 03B0     		add	sp, sp, #12
 518              		.cfi_def_cfa_offset 36
 519              		@ sp needed
 520 00c6 BDE8F08F 		pop	{r4, r5, r6, r7, r8, r9, r10, fp, pc}
 521              	.LVL63:
 522              	.L47:
 523 00ca 00BF     		.align	2
 524              	.L46:
 525 00cc 10200240 		.word	1073881104
 526 00d0 14200240 		.word	1073881108
 527              		.cfi_endproc
 528              	.LFE269:
 529              		.size	stm32l4_flash_erase, .-stm32l4_flash_erase
 530              		.section	.text.stm32l4_option_write,"ax",%progbits
 531              		.align	1
 532              		.p2align 4,,15
 533              		.syntax unified
 534              		.thumb
 535              		.thumb_func
 536              		.fpu fpv4-sp-d16
 537              		.type	stm32l4_option_write, %function
 538              	stm32l4_option_write:
 539              	.LFB275:
 540              		.loc 1 468 0
 541              		.cfi_startproc
 542              		@ args = 0, pretend = 0, frame = 0
 543              		@ frame_needed = 0, uses_anonymous_args = 0
 544              	.LVL64:
 545 0000 2DE9F041 		push	{r4, r5, r6, r7, r8, lr}
 546              		.cfi_def_cfa_offset 24
 547              		.cfi_offset 4, -24
 548              		.cfi_offset 5, -20
 549              		.cfi_offset 6, -16
 550              		.cfi_offset 7, -12
 551              		.cfi_offset 8, -8
 552              		.cfi_offset 14, -4
 553              		.loc 1 468 0
 554 0004 0446     		mov	r4, r0
 555 0006 0E46     		mov	r6, r1
 556              		.loc 1 469 0
 557 0008 2F49     		ldr	r1, .L62
 558              	.LVL65:
 559              		.loc 1 473 0
 560 000a 304F     		ldr	r7, .L62+4
 561              		.loc 1 468 0
 562 000c 9046     		mov	r8, r2
 563 000e 1D46     		mov	r5, r3
 564              		.loc 1 469 0
 565 0010 FFF7FEFF 		bl	tc_printf
 566              	.LVL66:
 567              		.loc 1 470 0
 568 0014 2046     		mov	r0, r4
 569 0016 FFF7FEFF 		bl	stm32l4_flash_unlock
 570              	.LVL67:
ARM GAS  /tmp/cczfLbj6.s 			page 11


 571              		.loc 1 471 0
 572 001a 2046     		mov	r0, r4
 573 001c 2C4A     		ldr	r2, .L62+8
 574 001e 2D49     		ldr	r1, .L62+12
 575 0020 FFF7FEFF 		bl	target_mem_write32
 576              	.LVL68:
 577              		.loc 1 472 0
 578 0024 2046     		mov	r0, r4
 579 0026 2C4A     		ldr	r2, .L62+16
 580 0028 2A49     		ldr	r1, .L62+12
 581 002a FFF7FEFF 		bl	target_mem_write32
 582              	.LVL69:
 583              		.loc 1 473 0
 584 002e 03E0     		b	.L49
 585              	.LVL70:
 586              	.L51:
 587              		.loc 1 474 0
 588 0030 FFF7FEFF 		bl	target_check_error
 589              	.LVL71:
 590 0034 0028     		cmp	r0, #0
 591 0036 43D1     		bne	.L54
 592              	.L49:
 593              		.loc 1 473 0
 594 0038 3946     		mov	r1, r7
 595 003a 2046     		mov	r0, r4
 596 003c FFF7FEFF 		bl	target_mem_read32
 597              	.LVL72:
 598 0040 10F4803F 		tst	r0, #65536
 599              		.loc 1 474 0
 600 0044 2046     		mov	r0, r4
 601              		.loc 1 473 0
 602 0046 F3D1     		bne	.L51
 603              	.LVL73:
 604 0048 013D     		subs	r5, r5, #1
 605              	.LVL74:
 606 004a A844     		add	r8, r8, r5
 607              	.LVL75:
 608 004c 043E     		subs	r6, r6, #4
 609              	.LVL76:
 610              	.L52:
 611              	.LBB26:
 612              	.LBB27:
 613              	.LBB28:
 614              		.loc 1 477 0
 615 004e 15F8011F 		ldrb	r1, [r5, #1]!	@ zero_extendqisi2
 616              	.LVL77:
 617 0052 56F8042F 		ldr	r2, [r6, #4]!
 618 0056 01F18041 		add	r1, r1, #1073741824
 619 005a 01F50831 		add	r1, r1, #139264
 620 005e 2046     		mov	r0, r4
 621 0060 FFF7FEFF 		bl	target_mem_write32
 622              	.LVL78:
 623              		.loc 1 476 0
 624 0064 4545     		cmp	r5, r8
 625 0066 F2D1     		bne	.L52
 626              	.LBE28:
 627              		.loc 1 478 0
ARM GAS  /tmp/cczfLbj6.s 			page 12


 628 0068 4FF40032 		mov	r2, #131072
 629 006c 1B49     		ldr	r1, .L62+20
 630              		.loc 1 479 0
 631 006e 174D     		ldr	r5, .L62+4
 632              	.LVL79:
 633              		.loc 1 478 0
 634 0070 2046     		mov	r0, r4
 635 0072 FFF7FEFF 		bl	target_mem_write32
 636              	.LVL80:
 637 0076 02E0     		b	.L53
 638              	.LVL81:
 639              	.L55:
 640              		.loc 1 480 0
 641 0078 FFF7FEFF 		bl	target_check_error
 642              	.LVL82:
 643 007c 00BB     		cbnz	r0, .L54
 644              	.L53:
 645              		.loc 1 479 0
 646 007e 2946     		mov	r1, r5
 647 0080 2046     		mov	r0, r4
 648 0082 FFF7FEFF 		bl	target_mem_read32
 649              	.LVL83:
 650 0086 10F4803F 		tst	r0, #65536
 651              		.loc 1 480 0
 652 008a 2046     		mov	r0, r4
 653              		.loc 1 479 0
 654 008c F4D1     		bne	.L55
 655              	.LVL84:
 656              		.loc 1 482 0
 657 008e 4FF00062 		mov	r2, #134217728
 658 0092 1249     		ldr	r1, .L62+20
 659 0094 FFF7FEFF 		bl	target_mem_write32
 660              	.LVL85:
 661 0098 02E0     		b	.L56
 662              	.LVL86:
 663              	.L57:
 664              		.loc 1 484 0
 665 009a FFF7FEFF 		bl	target_check_error
 666              	.LVL87:
 667 009e 78B9     		cbnz	r0, .L54
 668              	.L56:
 669              		.loc 1 483 0
 670 00a0 0E49     		ldr	r1, .L62+20
 671 00a2 2046     		mov	r0, r4
 672 00a4 FFF7FEFF 		bl	target_mem_read32
 673              	.LVL88:
 674 00a8 10F00065 		ands	r5, r0, #134217728
 675              		.loc 1 484 0
 676 00ac 2046     		mov	r0, r4
 677              		.loc 1 483 0
 678 00ae F4D1     		bne	.L57
 679              	.LVL89:
 680              		.loc 1 486 0
 681 00b0 4FF00042 		mov	r2, #-2147483648
 682 00b4 0949     		ldr	r1, .L62+20
 683 00b6 FFF7FEFF 		bl	target_mem_write32
 684              	.LVL90:
ARM GAS  /tmp/cczfLbj6.s 			page 13


 685              		.loc 1 487 0
 686 00ba 2846     		mov	r0, r5
 687              	.LBE27:
 688              	.LBE26:
 689              		.loc 1 488 0
 690 00bc BDE8F081 		pop	{r4, r5, r6, r7, r8, pc}
 691              	.LVL91:
 692              	.L54:
 693              		.loc 1 475 0
 694 00c0 0120     		movs	r0, #1
 695              		.loc 1 488 0
 696 00c2 BDE8F081 		pop	{r4, r5, r6, r7, r8, pc}
 697              	.LVL92:
 698              	.L63:
 699 00c6 00BF     		.align	2
 700              	.L62:
 701 00c8 00000000 		.word	.LC3
 702 00cc 10200240 		.word	1073881104
 703 00d0 3B2A1908 		.word	135866939
 704 00d4 0C200240 		.word	1073881100
 705 00d8 7F6E5D4C 		.word	1281191551
 706 00dc 14200240 		.word	1073881108
 707              		.cfi_endproc
 708              	.LFE275:
 709              		.size	stm32l4_option_write, .-stm32l4_option_write
 710              		.section	.text.stm32l4_cmd_option,"ax",%progbits
 711              		.align	1
 712              		.p2align 4,,15
 713              		.syntax unified
 714              		.thumb
 715              		.thumb_func
 716              		.fpu fpv4-sp-d16
 717              		.type	stm32l4_cmd_option, %function
 718              	stm32l4_cmd_option:
 719              	.LFB276:
 720              		.loc 1 505 0
 721              		.cfi_startproc
 722              		@ args = 0, pretend = 0, frame = 40
 723              		@ frame_needed = 0, uses_anonymous_args = 0
 724              	.LVL93:
 725 0000 2DE9F04F 		push	{r4, r5, r6, r7, r8, r9, r10, fp, lr}
 726              		.cfi_def_cfa_offset 36
 727              		.cfi_offset 4, -36
 728              		.cfi_offset 5, -32
 729              		.cfi_offset 6, -28
 730              		.cfi_offset 7, -24
 731              		.cfi_offset 8, -20
 732              		.cfi_offset 9, -16
 733              		.cfi_offset 10, -12
 734              		.cfi_offset 11, -8
 735              		.cfi_offset 14, -4
 736              		.loc 1 506 0
 737 0004 4C4D     		ldr	r5, .L88
 738              		.loc 1 505 0
 739 0006 0646     		mov	r6, r0
 740 0008 8946     		mov	r9, r1
 741 000a 9046     		mov	r8, r2
ARM GAS  /tmp/cczfLbj6.s 			page 14


 742              		.loc 1 506 0
 743 000c 0FCD     		ldmia	r5!, {r0, r1, r2, r3}
 744              	.LVL94:
 745              		.loc 1 505 0
 746 000e 8BB0     		sub	sp, sp, #44
 747              		.cfi_def_cfa_offset 80
 748              		.loc 1 506 0
 749 0010 01AC     		add	r4, sp, #4
 750 0012 0FC4     		stmia	r4!, {r0, r1, r2, r3}
 751 0014 0FCD     		ldmia	r5!, {r0, r1, r2, r3}
 752 0016 0FC4     		stmia	r4!, {r0, r1, r2, r3}
 753 0018 2A68     		ldr	r2, [r5]
 754              		.loc 1 512 0
 755 001a 336D     		ldr	r3, [r6, #80]
 756              		.loc 1 506 0
 757 001c 2260     		str	r2, [r4]
 758              	.LVL95:
 759              		.loc 1 512 0
 760 001e 40F23542 		movw	r2, #1077
 761 0022 9342     		cmp	r3, r2
 762 0024 7DD0     		beq	.L76
 763              		.loc 1 511 0
 764 0026 454A     		ldr	r2, .L88+4
 765 0028 454D     		ldr	r5, .L88+8
 766 002a B3F58C6F 		cmp	r3, #1120
 767 002e 16BF     		itet	ne
 768 0030 1546     		movne	r5, r2
 769 0032 0727     		moveq	r7, #7
 770 0034 0927     		movne	r7, #9
 771              	.L65:
 772              	.LVL96:
 773              		.loc 1 520 0
 774 0036 B9F1020F 		cmp	r9, #2
 775 003a 6AD0     		beq	.L85
 776              		.loc 1 522 0
 777 003c 05DD     		ble	.L67
 778              		.loc 1 522 0 is_stmt 0 discriminator 1
 779 003e 4149     		ldr	r1, .L88+12
 780 0040 D8F80400 		ldr	r0, [r8, #4]
 781 0044 FFF7FEFF 		bl	strcmp
 782              	.LVL97:
 783 0048 10B3     		cbz	r0, .L86
 784              	.L67:
 785              		.loc 1 536 0 is_stmt 1
 786 004a 3F49     		ldr	r1, .L88+16
 787 004c 3046     		mov	r0, r6
 788 004e FFF7FEFF 		bl	tc_printf
 789              	.LVL98:
 790              		.loc 1 537 0
 791 0052 3E49     		ldr	r1, .L88+20
 792 0054 3046     		mov	r0, r6
 793 0056 FFF7FEFF 		bl	tc_printf
 794              	.LVL99:
 795              	.L73:
 796 005a 2F44     		add	r7, r7, r5
 797              	.LVL100:
 798              	.LBB29:
ARM GAS  /tmp/cczfLbj6.s 			page 15


 799              	.LBB30:
 800              		.loc 1 546 0 discriminator 3
 801 005c DFF8FC80 		ldr	r8, .L88+36
 802 0060 013F     		subs	r7, r7, #1
 803 0062 013D     		subs	r5, r5, #1
 804              	.L75:
 805              	.LVL101:
 806              		.loc 1 544 0 discriminator 3
 807 0064 15F8014F 		ldrb	r4, [r5, #1]!	@ zero_extendqisi2
 808 0068 04F18044 		add	r4, r4, #1073741824
 809 006c 04F50834 		add	r4, r4, #139264
 810              	.LVL102:
 811              		.loc 1 545 0 discriminator 3
 812 0070 2146     		mov	r1, r4
 813 0072 3046     		mov	r0, r6
 814 0074 FFF7FEFF 		bl	target_mem_read32
 815              	.LVL103:
 816              		.loc 1 546 0 discriminator 3
 817 0078 2246     		mov	r2, r4
 818 007a 0346     		mov	r3, r0
 819 007c 4146     		mov	r1, r8
 820 007e 3046     		mov	r0, r6
 821              	.LVL104:
 822 0080 FFF7FEFF 		bl	tc_printf
 823              	.LVL105:
 824              	.LBE30:
 825              		.loc 1 543 0 discriminator 3
 826 0084 AF42     		cmp	r7, r5
 827 0086 EDD1     		bne	.L75
 828              	.LBE29:
 829              		.loc 1 548 0
 830 0088 0120     		movs	r0, #1
 831              		.loc 1 549 0
 832 008a 0BB0     		add	sp, sp, #44
 833              		.cfi_remember_state
 834              		.cfi_def_cfa_offset 36
 835              		@ sp needed
 836 008c BDE8F08F 		pop	{r4, r5, r6, r7, r8, r9, r10, fp, pc}
 837              	.LVL106:
 838              	.L86:
 839              		.cfi_restore_state
 840 0090 A8F1040B 		sub	fp, r8, #4
 841 0094 4FEA890A 		lsl	r10, r9, #2
 842 0098 08F10404 		add	r4, r8, #4
 843 009c D344     		add	fp, fp, r10
 844 009e 0DF10408 		add	r8, sp, #4
 845              	.LVL107:
 846              	.L69:
 847              	.LBB31:
 848              		.loc 1 525 0 discriminator 3
 849 00a2 0022     		movs	r2, #0
 850 00a4 54F8040F 		ldr	r0, [r4, #4]!
 851 00a8 1146     		mov	r1, r2
 852 00aa FFF7FEFF 		bl	strtoul
 853              	.LVL108:
 854              		.loc 1 524 0 discriminator 3
 855 00ae 5C45     		cmp	r4, fp
ARM GAS  /tmp/cczfLbj6.s 			page 16


 856              		.loc 1 525 0 discriminator 3
 857 00b0 48F8040B 		str	r0, [r8], #4
 858              	.LVL109:
 859              		.loc 1 524 0 discriminator 3
 860 00b4 F5D1     		bne	.L69
 861              		.loc 1 526 0
 862 00b6 A9F10208 		sub	r8, r9, #2
 863              	.LVL110:
 864 00ba 4745     		cmp	r7, r8
 865 00bc 15DD     		ble	.L70
 866 00be A9F10304 		sub	r4, r9, #3
 867 00c2 AAF1080A 		sub	r10, r10, #8
 868 00c6 01AB     		add	r3, sp, #4
 869 00c8 2C44     		add	r4, r4, r5
 870 00ca 9A44     		add	r10, r10, r3
 871              	.L71:
 872              	.LVL111:
 873              	.LBB32:
 874              		.loc 1 527 0 discriminator 3
 875 00cc 14F8011F 		ldrb	r1, [r4, #1]!	@ zero_extendqisi2
 876              	.LVL112:
 877              		.loc 1 528 0 discriminator 3
 878 00d0 01F18041 		add	r1, r1, #1073741824
 879 00d4 01F50831 		add	r1, r1, #139264
 880 00d8 3046     		mov	r0, r6
 881 00da FFF7FEFF 		bl	target_mem_read32
 882              	.LVL113:
 883              	.LBE32:
 884              		.loc 1 526 0 discriminator 3
 885 00de 08F10108 		add	r8, r8, #1
 886              	.LVL114:
 887 00e2 4745     		cmp	r7, r8
 888              	.LBB33:
 889              		.loc 1 528 0 discriminator 3
 890 00e4 4AF8040B 		str	r0, [r10], #4
 891              	.LBE33:
 892              		.loc 1 526 0 discriminator 3
 893 00e8 F0DC     		bgt	.L71
 894              	.L70:
 895              		.loc 1 530 0
 896 00ea 019B     		ldr	r3, [sp, #4]
 897 00ec DAB2     		uxtb	r2, r3
 898 00ee CC2A     		cmp	r2, #204
 899 00f0 1AD0     		beq	.L87
 900              	.LVL115:
 901              	.L72:
 902              		.loc 1 534 0
 903 00f2 01A9     		add	r1, sp, #4
 904 00f4 2B46     		mov	r3, r5
 905 00f6 3A46     		mov	r2, r7
 906 00f8 3046     		mov	r0, r6
 907 00fa FFF7FEFF 		bl	stm32l4_option_write
 908              	.LVL116:
 909              	.LBE31:
 910              		.loc 1 539 0
 911 00fe 0028     		cmp	r0, #0
 912 0100 ABD0     		beq	.L73
ARM GAS  /tmp/cczfLbj6.s 			page 17


 913              		.loc 1 540 0
 914 0102 3046     		mov	r0, r6
 915              	.LVL117:
 916 0104 1249     		ldr	r1, .L88+24
 917 0106 FFF7FEFF 		bl	tc_printf
 918              	.LVL118:
 919              		.loc 1 541 0
 920 010a 0020     		movs	r0, #0
 921              		.loc 1 549 0
 922 010c 0BB0     		add	sp, sp, #44
 923              		.cfi_remember_state
 924              		.cfi_def_cfa_offset 36
 925              		@ sp needed
 926 010e BDE8F08F 		pop	{r4, r5, r6, r7, r8, r9, r10, fp, pc}
 927              	.LVL119:
 928              	.L85:
 929              		.cfi_restore_state
 930              		.loc 1 520 0 discriminator 1
 931 0112 D8F80400 		ldr	r0, [r8, #4]
 932 0116 0F49     		ldr	r1, .L88+28
 933 0118 FFF7FEFF 		bl	strcmp
 934              	.LVL120:
 935 011c 0028     		cmp	r0, #0
 936 011e 94D1     		bne	.L67
 937 0120 E7E7     		b	.L72
 938              	.LVL121:
 939              	.L76:
 940              		.loc 1 511 0
 941 0122 064D     		ldr	r5, .L88+4
 942              		.loc 1 513 0
 943 0124 0527     		movs	r7, #5
 944 0126 86E7     		b	.L65
 945              	.LVL122:
 946              	.L87:
 947              	.LBB34:
 948              		.loc 1 531 0
 949 0128 0133     		adds	r3, r3, #1
 950              		.loc 1 532 0
 951 012a 0B49     		ldr	r1, .L88+32
 952              		.loc 1 531 0
 953 012c 0193     		str	r3, [sp, #4]
 954              		.loc 1 532 0
 955 012e 3046     		mov	r0, r6
 956 0130 FFF7FEFF 		bl	tc_printf
 957              	.LVL123:
 958 0134 DDE7     		b	.L72
 959              	.L89:
 960 0136 00BF     		.align	2
 961              	.L88:
 962 0138 00000000 		.word	.LANCHOR2
 963 013c 00000000 		.word	.LANCHOR0
 964 0140 00000000 		.word	.LANCHOR1
 965 0144 08000000 		.word	.LC5
 966 0148 38000000 		.word	.LC7
 967 014c 58000000 		.word	.LC8
 968 0150 84000000 		.word	.LC9
 969 0154 00000000 		.word	.LC4
ARM GAS  /tmp/cczfLbj6.s 			page 18


 970 0158 10000000 		.word	.LC6
 971 015c A0000000 		.word	.LC10
 972              	.LBE34:
 973              		.cfi_endproc
 974              	.LFE276:
 975              		.size	stm32l4_cmd_option, .-stm32l4_cmd_option
 976              		.section	.text.stm32l4_cmd_erase,"ax",%progbits
 977              		.align	1
 978              		.p2align 4,,15
 979              		.syntax unified
 980              		.thumb
 981              		.thumb_func
 982              		.fpu fpv4-sp-d16
 983              		.type	stm32l4_cmd_erase, %function
 984              	stm32l4_cmd_erase:
 985              	.LFB271:
 986              		.loc 1 422 0
 987              		.cfi_startproc
 988              		@ args = 0, pretend = 0, frame = 0
 989              		@ frame_needed = 0, uses_anonymous_args = 0
 990              	.LVL124:
 991 0000 38B5     		push	{r3, r4, r5, lr}
 992              		.cfi_def_cfa_offset 16
 993              		.cfi_offset 3, -16
 994              		.cfi_offset 4, -12
 995              		.cfi_offset 5, -8
 996              		.cfi_offset 14, -4
 997              		.loc 1 422 0
 998 0002 0D46     		mov	r5, r1
 999 0004 0446     		mov	r4, r0
 1000              		.loc 1 423 0
 1001 0006 FFF7FEFF 		bl	stm32l4_flash_unlock
 1002              	.LVL125:
 1003              		.loc 1 426 0
 1004 000a 2A46     		mov	r2, r5
 1005 000c 2046     		mov	r0, r4
 1006 000e 1049     		ldr	r1, .L96
 1007 0010 FFF7FEFF 		bl	target_mem_write32
 1008              	.LVL126:
 1009              		.loc 1 427 0
 1010 0014 45F48032 		orr	r2, r5, #65536
 1011 0018 2046     		mov	r0, r4
 1012 001a 0D49     		ldr	r1, .L96
 1013 001c FFF7FEFF 		bl	target_mem_write32
 1014              	.LVL127:
 1015              		.loc 1 430 0
 1016 0020 02E0     		b	.L91
 1017              	.LVL128:
 1018              	.L93:
 1019              		.loc 1 431 0
 1020 0022 FFF7FEFF 		bl	target_check_error
 1021              	.LVL129:
 1022 0026 88B9     		cbnz	r0, .L94
 1023              	.L91:
 1024              		.loc 1 430 0
 1025 0028 0A49     		ldr	r1, .L96+4
 1026 002a 2046     		mov	r0, r4
ARM GAS  /tmp/cczfLbj6.s 			page 19


 1027 002c FFF7FEFF 		bl	target_mem_read32
 1028              	.LVL130:
 1029 0030 10F4803F 		tst	r0, #65536
 1030              		.loc 1 431 0
 1031 0034 2046     		mov	r0, r4
 1032              		.loc 1 430 0
 1033 0036 F4D1     		bne	.L93
 1034              	.LVL131:
 1035              	.LBB37:
 1036              	.LBB38:
 1037              		.loc 1 437 0
 1038 0038 0649     		ldr	r1, .L96+4
 1039 003a FFF7FEFF 		bl	target_mem_read32
 1040              	.LVL132:
 1041              		.loc 1 438 0
 1042 003e 4CF2FA33 		movw	r3, #50170
 1043 0042 1842     		tst	r0, r3
 1044 0044 0CBF     		ite	eq
 1045 0046 0120     		moveq	r0, #1
 1046              	.LVL133:
 1047 0048 0020     		movne	r0, #0
 1048              	.LBE38:
 1049              	.LBE37:
 1050              		.loc 1 441 0
 1051 004a 38BD     		pop	{r3, r4, r5, pc}
 1052              	.LVL134:
 1053              	.L94:
 1054              		.loc 1 432 0
 1055 004c 0020     		movs	r0, #0
 1056              		.loc 1 441 0
 1057 004e 38BD     		pop	{r3, r4, r5, pc}
 1058              	.LVL135:
 1059              	.L97:
 1060              		.align	2
 1061              	.L96:
 1062 0050 14200240 		.word	1073881108
 1063 0054 10200240 		.word	1073881104
 1064              		.cfi_endproc
 1065              	.LFE271:
 1066              		.size	stm32l4_cmd_erase, .-stm32l4_cmd_erase
 1067              		.section	.text.stm32l4_cmd_erase_bank2,"ax",%progbits
 1068              		.align	1
 1069              		.p2align 4,,15
 1070              		.syntax unified
 1071              		.thumb
 1072              		.thumb_func
 1073              		.fpu fpv4-sp-d16
 1074              		.type	stm32l4_cmd_erase_bank2, %function
 1075              	stm32l4_cmd_erase_bank2:
 1076              	.LFB274:
 1077              		.loc 1 454 0
 1078              		.cfi_startproc
 1079              		@ args = 0, pretend = 0, frame = 0
 1080              		@ frame_needed = 0, uses_anonymous_args = 0
 1081              		@ link register save eliminated.
 1082              	.LVL136:
 1083              		.loc 1 455 0
ARM GAS  /tmp/cczfLbj6.s 			page 20


 1084 0000 4FF40041 		mov	r1, #32768
 1085 0004 FFF7FEBF 		b	stm32l4_cmd_erase
 1086              	.LVL137:
 1087              		.cfi_endproc
 1088              	.LFE274:
 1089              		.size	stm32l4_cmd_erase_bank2, .-stm32l4_cmd_erase_bank2
 1090              		.section	.text.stm32l4_cmd_erase_bank1,"ax",%progbits
 1091              		.align	1
 1092              		.p2align 4,,15
 1093              		.syntax unified
 1094              		.thumb
 1095              		.thumb_func
 1096              		.fpu fpv4-sp-d16
 1097              		.type	stm32l4_cmd_erase_bank1, %function
 1098              	stm32l4_cmd_erase_bank1:
 1099              	.LFB273:
 1100              		.loc 1 449 0
 1101              		.cfi_startproc
 1102              		@ args = 0, pretend = 0, frame = 0
 1103              		@ frame_needed = 0, uses_anonymous_args = 0
 1104              		@ link register save eliminated.
 1105              	.LVL138:
 1106              		.loc 1 450 0
 1107 0000 0421     		movs	r1, #4
 1108 0002 FFF7FEBF 		b	stm32l4_cmd_erase
 1109              	.LVL139:
 1110              		.cfi_endproc
 1111              	.LFE273:
 1112              		.size	stm32l4_cmd_erase_bank1, .-stm32l4_cmd_erase_bank1
 1113 0006 00BF     		.section	.text.stm32l4_cmd_erase_mass,"ax",%progbits
 1114              		.align	1
 1115              		.p2align 4,,15
 1116              		.syntax unified
 1117              		.thumb
 1118              		.thumb_func
 1119              		.fpu fpv4-sp-d16
 1120              		.type	stm32l4_cmd_erase_mass, %function
 1121              	stm32l4_cmd_erase_mass:
 1122              	.LFB272:
 1123              		.loc 1 444 0
 1124              		.cfi_startproc
 1125              		@ args = 0, pretend = 0, frame = 0
 1126              		@ frame_needed = 0, uses_anonymous_args = 0
 1127              		@ link register save eliminated.
 1128              	.LVL140:
 1129              		.loc 1 445 0
 1130 0000 48F20401 		movw	r1, #32772
 1131 0004 FFF7FEBF 		b	stm32l4_cmd_erase
 1132              	.LVL141:
 1133              		.cfi_endproc
 1134              	.LFE272:
 1135              		.size	stm32l4_cmd_erase_mass, .-stm32l4_cmd_erase_mass
 1136              		.section	.text.stm32l4_attach,"ax",%progbits
 1137              		.align	1
 1138              		.p2align 4,,15
 1139              		.syntax unified
 1140              		.thumb
ARM GAS  /tmp/cczfLbj6.s 			page 21


 1141              		.thumb_func
 1142              		.fpu fpv4-sp-d16
 1143              		.type	stm32l4_attach, %function
 1144              	stm32l4_attach:
 1145              	.LFB265:
 1146              		.loc 1 247 0
 1147              		.cfi_startproc
 1148              		@ args = 0, pretend = 0, frame = 0
 1149              		@ frame_needed = 0, uses_anonymous_args = 0
 1150              	.LVL142:
 1151 0000 F0B5     		push	{r4, r5, r6, r7, lr}
 1152              		.cfi_def_cfa_offset 20
 1153              		.cfi_offset 4, -20
 1154              		.cfi_offset 5, -16
 1155              		.cfi_offset 6, -12
 1156              		.cfi_offset 7, -8
 1157              		.cfi_offset 14, -4
 1158 0002 83B0     		sub	sp, sp, #12
 1159              		.cfi_def_cfa_offset 32
 1160              		.loc 1 247 0
 1161 0004 0546     		mov	r5, r0
 1162              		.loc 1 248 0
 1163 0006 FFF7FEFF 		bl	cortexm_attach
 1164              	.LVL143:
 1165 000a 0646     		mov	r6, r0
 1166 000c 0028     		cmp	r0, #0
 1167 000e 78D0     		beq	.L117
 1168              	.LVL144:
 1169              	.LBB46:
 1170              	.LBB47:
 1171              		.loc 1 252 0
 1172 0010 2A6D     		ldr	r2, [r5, #80]
 1173              	.LVL145:
 1174              	.LBB48:
 1175              	.LBB49:
 1176              		.loc 1 224 0
 1177 0012 40F26443 		movw	r3, #1124
 1178 0016 9A42     		cmp	r2, r3
 1179 0018 00F0A380 		beq	.L103
 1180              		.loc 1 223 0
 1181 001c 584C     		ldr	r4, .L128
 1182              		.loc 1 224 0
 1183 001e 40F23543 		movw	r3, #1077
 1184 0022 02E0     		b	.L105
 1185              	.LVL146:
 1186              	.L125:
 1187 0024 9A42     		cmp	r2, r3
 1188 0026 03D0     		beq	.L104
 1189 0028 A38C     		ldrh	r3, [r4, #36]
 1190              	.LVL147:
 1191              	.L105:
 1192              		.loc 1 225 0
 1193 002a 1434     		adds	r4, r4, #20
 1194              	.LVL148:
 1195              		.loc 1 224 0
 1196 002c 002B     		cmp	r3, #0
 1197 002e F9D1     		bne	.L125
ARM GAS  /tmp/cczfLbj6.s 			page 22


 1198              	.L104:
 1199              	.LVL149:
 1200              	.LBE49:
 1201              	.LBE48:
 1202              		.loc 1 257 0
 1203 0030 544B     		ldr	r3, .L128+4
 1204 0032 A27C     		ldrb	r2, [r4, #18]	@ zero_extendqisi2
 1205 0034 544F     		ldr	r7, .L128+8
 1206 0036 032A     		cmp	r2, #3
 1207 0038 08BF     		it	eq
 1208 003a 1F46     		moveq	r7, r3
 1209              		.loc 1 261 0
 1210 003c 3946     		mov	r1, r7
 1211 003e 2846     		mov	r0, r5
 1212 0040 FFF7FEFF 		bl	target_mem_read32
 1213              	.LVL150:
 1214              		.loc 1 265 0
 1215 0044 3946     		mov	r1, r7
 1216              		.loc 1 262 0
 1217 0046 6865     		str	r0, [r5, #84]
 1218              		.loc 1 265 0
 1219 0048 0722     		movs	r2, #7
 1220 004a 2846     		mov	r0, r5
 1221              	.LVL151:
 1222 004c FFF7FEFF 		bl	target_mem_write32
 1223              	.LVL152:
 1224              		.loc 1 269 0
 1225 0050 2846     		mov	r0, r5
 1226 0052 FFF7FEFF 		bl	target_mem_map_free
 1227              	.LVL153:
 1228              		.loc 1 272 0
 1229 0056 A37C     		ldrb	r3, [r4, #18]	@ zero_extendqisi2
 1230 0058 032B     		cmp	r3, #3
 1231 005a 6DD0     		beq	.L126
 1232              	.L107:
 1233              	.LBB50:
 1234              		.loc 1 275 0
 1235 005c A289     		ldrh	r2, [r4, #12]
 1236 005e 4FF08051 		mov	r1, #268435456
 1237 0062 9202     		lsls	r2, r2, #10
 1238 0064 2846     		mov	r0, r5
 1239 0066 FFF7FEFF 		bl	target_add_ram
 1240              	.LVL154:
 1241              		.loc 1 278 0
 1242 006a 2A6D     		ldr	r2, [r5, #80]
 1243 006c 40F21543 		movw	r3, #1045
 1244 0070 9A42     		cmp	r2, r3
 1245 0072 18BF     		it	ne
 1246 0074 A189     		ldrhne	r1, [r4, #12]
 1247 0076 6289     		ldrh	r2, [r4, #10]
 1248 0078 1EBF     		ittt	ne
 1249 007a E389     		ldrhne	r3, [r4, #14]
 1250 007c 5218     		addne	r2, r2, r1
 1251 007e D218     		addne	r2, r2, r3
 1252              	.LVL155:
 1253              		.loc 1 279 0
 1254 0080 9202     		lsls	r2, r2, #10
ARM GAS  /tmp/cczfLbj6.s 			page 23


 1255              	.LVL156:
 1256 0082 4FF00051 		mov	r1, #536870912
 1257              	.LVL157:
 1258 0086 2846     		mov	r0, r5
 1259 0088 FFF7FEFF 		bl	target_add_ram
 1260              	.LVL158:
 1261              	.L108:
 1262              	.LBE50:
 1263              		.loc 1 283 0
 1264 008c 3F49     		ldr	r1, .L128+12
 1265 008e 2846     		mov	r0, r5
 1266 0090 FFF7FEFF 		bl	target_mem_read16
 1267              	.LVL159:
 1268              		.loc 1 284 0
 1269 0094 3E49     		ldr	r1, .L128+16
 1270              		.loc 1 283 0
 1271 0096 0746     		mov	r7, r0
 1272              	.LVL160:
 1273              		.loc 1 284 0
 1274 0098 2846     		mov	r0, r5
 1275 009a FFF7FEFF 		bl	target_mem_read32
 1276              	.LVL161:
 1277              		.loc 1 286 0
 1278 009e A37C     		ldrb	r3, [r4, #18]	@ zero_extendqisi2
 1279 00a0 022B     		cmp	r3, #2
 1280 00a2 31D0     		beq	.L127
 1281              		.loc 1 293 0
 1282 00a4 94F91330 		ldrsb	r3, [r4, #19]
 1283 00a8 002B     		cmp	r3, #0
 1284 00aa 16DA     		bge	.L114
 1285              		.loc 1 294 0
 1286 00ac 8302     		lsls	r3, r0, #10
 1287 00ae 14D5     		bpl	.L114
 1288              	.LBB51:
 1289              		.loc 1 295 0
 1290 00b0 7F02     		lsls	r7, r7, #9
 1291              	.LVL162:
 1292              		.loc 1 296 0
 1293 00b2 07F10064 		add	r4, r7, #134217728
 1294 00b6 3A46     		mov	r2, r7
 1295 00b8 2846     		mov	r0, r5
 1296              	.LVL163:
 1297 00ba 0094     		str	r4, [sp]
 1298 00bc 4FF40063 		mov	r3, #2048
 1299 00c0 4FF00061 		mov	r1, #134217728
 1300 00c4 FFF7FEFF 		bl	stm32l4_add_flash
 1301              	.LVL164:
 1302              		.loc 1 297 0
 1303 00c8 0094     		str	r4, [sp]
 1304 00ca 2146     		mov	r1, r4
 1305 00cc 3A46     		mov	r2, r7
 1306 00ce 4FF40063 		mov	r3, #2048
 1307 00d2 2846     		mov	r0, r5
 1308 00d4 FFF7FEFF 		bl	stm32l4_add_flash
 1309              	.LVL165:
 1310 00d8 0AE0     		b	.L113
 1311              	.LVL166:
ARM GAS  /tmp/cczfLbj6.s 			page 24


 1312              	.L114:
 1313              	.LBE51:
 1314              		.loc 1 303 0
 1315 00da 4FF0FF33 		mov	r3, #-1
 1316 00de 0093     		str	r3, [sp]
 1317 00e0 BA02     		lsls	r2, r7, #10
 1318 00e2 4FF40063 		mov	r3, #2048
 1319 00e6 4FF00061 		mov	r1, #134217728
 1320 00ea 2846     		mov	r0, r5
 1321              	.LVL167:
 1322 00ec FFF7FEFF 		bl	stm32l4_add_flash
 1323              	.LVL168:
 1324              	.L113:
 1325              		.loc 1 306 0
 1326 00f0 2849     		ldr	r1, .L128+20
 1327 00f2 2846     		mov	r0, r5
 1328 00f4 FFF7FEFF 		bl	target_mem_read32
 1329              	.LVL169:
 1330 00f8 2649     		ldr	r1, .L128+20
 1331 00fa 0246     		mov	r2, r0
 1332 00fc 2846     		mov	r0, r5
 1333 00fe FFF7FEFF 		bl	target_mem_write32
 1334              	.LVL170:
 1335              	.L117:
 1336              	.LBE47:
 1337              	.LBE46:
 1338              		.loc 1 309 0
 1339 0102 3046     		mov	r0, r6
 1340 0104 03B0     		add	sp, sp, #12
 1341              		.cfi_remember_state
 1342              		.cfi_def_cfa_offset 20
 1343              		@ sp needed
 1344 0106 F0BD     		pop	{r4, r5, r6, r7, pc}
 1345              	.LVL171:
 1346              	.L127:
 1347              		.cfi_restore_state
 1348              	.LBB53:
 1349              	.LBB52:
 1350              		.loc 1 288 0
 1351 0108 4202     		lsls	r2, r0, #9
 1352 010a 1DD5     		bpl	.L112
 1353              		.loc 1 289 0
 1354 010c 4FF00164 		mov	r4, #135266304
 1355 0110 2846     		mov	r0, r5
 1356              	.LVL172:
 1357 0112 0094     		str	r4, [sp]
 1358 0114 4FF48053 		mov	r3, #4096
 1359 0118 4FF48012 		mov	r2, #1048576
 1360 011c 4FF00061 		mov	r1, #134217728
 1361 0120 FFF7FEFF 		bl	stm32l4_add_flash
 1362              	.LVL173:
 1363              		.loc 1 290 0
 1364 0124 0094     		str	r4, [sp]
 1365 0126 2146     		mov	r1, r4
 1366 0128 4FF48053 		mov	r3, #4096
 1367 012c 4FF48012 		mov	r2, #1048576
 1368 0130 2846     		mov	r0, r5
ARM GAS  /tmp/cczfLbj6.s 			page 25


 1369 0132 FFF7FEFF 		bl	stm32l4_add_flash
 1370              	.LVL174:
 1371 0136 DBE7     		b	.L113
 1372              	.LVL175:
 1373              	.L126:
 1374              		.loc 1 273 0
 1375 0138 6289     		ldrh	r2, [r4, #10]
 1376 013a 4FF00051 		mov	r1, #536870912
 1377 013e 9202     		lsls	r2, r2, #10
 1378 0140 2846     		mov	r0, r5
 1379 0142 FFF7FEFF 		bl	target_add_ram
 1380              	.LVL176:
 1381 0146 A1E7     		b	.L108
 1382              	.LVL177:
 1383              	.L112:
 1384              		.loc 1 292 0
 1385 0148 4FF0FF33 		mov	r3, #-1
 1386 014c 0093     		str	r3, [sp]
 1387 014e 4FF40012 		mov	r2, #2097152
 1388 0152 4FF40053 		mov	r3, #8192
 1389 0156 4FF00061 		mov	r1, #134217728
 1390 015a 2846     		mov	r0, r5
 1391              	.LVL178:
 1392 015c FFF7FEFF 		bl	stm32l4_add_flash
 1393              	.LVL179:
 1394 0160 C6E7     		b	.L113
 1395              	.LVL180:
 1396              	.L103:
 1397              		.loc 1 261 0
 1398 0162 0949     		ldr	r1, .L128+8
 1399              		.loc 1 269 0
 1400 0164 064C     		ldr	r4, .L128
 1401              		.loc 1 261 0
 1402 0166 2846     		mov	r0, r5
 1403 0168 FFF7FEFF 		bl	target_mem_read32
 1404              	.LVL181:
 1405              		.loc 1 265 0
 1406 016c 0722     		movs	r2, #7
 1407              		.loc 1 262 0
 1408 016e 6865     		str	r0, [r5, #84]
 1409              		.loc 1 265 0
 1410 0170 0549     		ldr	r1, .L128+8
 1411 0172 2846     		mov	r0, r5
 1412              	.LVL182:
 1413 0174 FFF7FEFF 		bl	target_mem_write32
 1414              	.LVL183:
 1415              		.loc 1 269 0
 1416 0178 2846     		mov	r0, r5
 1417 017a FFF7FEFF 		bl	target_mem_map_free
 1418              	.LVL184:
 1419 017e 6DE7     		b	.L107
 1420              	.L129:
 1421              		.align	2
 1422              	.L128:
 1423 0180 00000000 		.word	.LANCHOR3
 1424 0184 04580140 		.word	1073829892
 1425 0188 042004E0 		.word	-536600572
ARM GAS  /tmp/cczfLbj6.s 			page 26


 1426 018c E075FF1F 		.word	536835552
 1427 0190 20200240 		.word	1073881120
 1428 0194 10200240 		.word	1073881104
 1429              	.LBE52:
 1430              	.LBE53:
 1431              		.cfi_endproc
 1432              	.LFE265:
 1433              		.size	stm32l4_attach, .-stm32l4_attach
 1434              		.section	.text.stm32l4_probe,"ax",%progbits
 1435              		.align	1
 1436              		.p2align 4,,15
 1437              		.global	stm32l4_probe
 1438              		.syntax unified
 1439              		.thumb
 1440              		.thumb_func
 1441              		.fpu fpv4-sp-d16
 1442              		.type	stm32l4_probe, %function
 1443              	stm32l4_probe:
 1444              	.LFB267:
 1445              		.loc 1 322 0
 1446              		.cfi_startproc
 1447              		@ args = 0, pretend = 0, frame = 0
 1448              		@ frame_needed = 0, uses_anonymous_args = 0
 1449              	.LVL185:
 1450 0000 10B5     		push	{r4, lr}
 1451              		.cfi_def_cfa_offset 8
 1452              		.cfi_offset 4, -8
 1453              		.cfi_offset 14, -4
 1454              		.loc 1 322 0
 1455 0002 0446     		mov	r4, r0
 1456              		.loc 1 324 0
 1457 0004 FFF7FEFF 		bl	cortexm_ap
 1458              	.LVL186:
 1459              		.loc 1 325 0
 1460 0008 4368     		ldr	r3, [r0, #4]
 1461              		.loc 1 323 0
 1462 000a 144A     		ldr	r2, .L141
 1463              		.loc 1 325 0
 1464 000c 5868     		ldr	r0, [r3, #4]
 1465              	.LVL187:
 1466 000e 1449     		ldr	r1, .L141+4
 1467              		.loc 1 323 0
 1468 0010 144B     		ldr	r3, .L141+8
 1469              		.loc 1 327 0
 1470 0012 8842     		cmp	r0, r1
 1471 0014 0CBF     		ite	eq
 1472 0016 1146     		moveq	r1, r2
 1473 0018 1946     		movne	r1, r3
 1474 001a 2046     		mov	r0, r4
 1475 001c FFF7FEFF 		bl	target_mem_read32
 1476              	.LVL188:
 1477              	.LBB54:
 1478              	.LBB55:
 1479              		.loc 1 224 0
 1480 0020 40F26442 		movw	r2, #1124
 1481              	.LBE55:
 1482              	.LBE54:
ARM GAS  /tmp/cczfLbj6.s 			page 27


 1483              		.loc 1 327 0
 1484 0024 C0F30B03 		ubfx	r3, r0, #0, #12
 1485              	.LVL189:
 1486              	.LBB57:
 1487              	.LBB56:
 1488              		.loc 1 224 0
 1489 0028 9342     		cmp	r3, r2
 1490              		.loc 1 223 0
 1491 002a 0F4A     		ldr	r2, .L141+12
 1492              		.loc 1 224 0
 1493 002c 09D0     		beq	.L132
 1494 002e 40F23540 		movw	r0, #1077
 1495 0032 02E0     		b	.L134
 1496              	.LVL190:
 1497              	.L140:
 1498 0034 8342     		cmp	r3, r0
 1499 0036 04D0     		beq	.L132
 1500 0038 908C     		ldrh	r0, [r2, #36]
 1501              	.LVL191:
 1502              	.L134:
 1503              		.loc 1 225 0
 1504 003a 1432     		adds	r2, r2, #20
 1505              	.LVL192:
 1506              		.loc 1 224 0
 1507 003c 0028     		cmp	r0, #0
 1508 003e F9D1     		bne	.L140
 1509              	.LBE56:
 1510              	.LBE57:
 1511              		.loc 1 340 0
 1512 0040 10BD     		pop	{r4, pc}
 1513              	.LVL193:
 1514              	.L132:
 1515              		.loc 1 336 0
 1516 0042 0A48     		ldr	r0, .L141+16
 1517              		.loc 1 337 0
 1518 0044 0A49     		ldr	r1, .L141+20
 1519              		.loc 1 334 0
 1520 0046 2365     		str	r3, [r4, #80]
 1521              		.loc 1 337 0
 1522 0048 C4E90201 		strd	r0, r1, [r4, #8]
 1523              		.loc 1 335 0
 1524 004c 2266     		str	r2, [r4, #96]
 1525              		.loc 1 338 0
 1526 004e 2046     		mov	r0, r4
 1527 0050 0849     		ldr	r1, .L141+24
 1528 0052 FFF7FEFF 		bl	target_add_commands
 1529              	.LVL194:
 1530              		.loc 1 339 0
 1531 0056 0120     		movs	r0, #1
 1532              		.loc 1 340 0
 1533 0058 10BD     		pop	{r4, pc}
 1534              	.LVL195:
 1535              	.L142:
 1536 005a 00BF     		.align	2
 1537              	.L141:
 1538 005c 00580140 		.word	1073829888
 1539 0060 7714C10B 		.word	197203063
ARM GAS  /tmp/cczfLbj6.s 			page 28


 1540 0064 002004E0 		.word	-536600576
 1541 0068 00000000 		.word	.LANCHOR3
 1542 006c 00000000 		.word	stm32l4_attach
 1543 0070 00000000 		.word	stm32l4_detach
 1544 0074 00000000 		.word	.LANCHOR4
 1545              		.cfi_endproc
 1546              	.LFE267:
 1547              		.size	stm32l4_probe, .-stm32l4_probe
 1548              		.global	L4info
 1549              		.global	stm32l4_cmd_list
 1550              		.section	.rodata
 1551              		.align	2
 1552              		.set	.LANCHOR2,. + 0
 1553              	.LC0:
 1554 0000 AAF8EFFF 		.word	-1050454
 1555 0004 FFFFFFFF 		.word	-1
 1556 0008 00000000 		.word	0
 1557 000c FF000000 		.word	255
 1558 0010 FF000000 		.word	255
 1559 0014 FFFFFFFF 		.word	-1
 1560 0018 00000000 		.word	0
 1561 001c FF000000 		.word	255
 1562 0020 FF000000 		.word	255
 1563              		.section	.rodata.L4info,"a",%progbits
 1564              		.align	2
 1565              		.set	.LANCHOR3,. + 0
 1566              		.type	L4info, %object
 1567              		.size	L4info, 160
 1568              	L4info:
 1569 0000 53544D33 		.ascii	"STM32L41x\000"
 1569      324C3431 
 1569      7800
 1570 000a 2000     		.short	32
 1571 000c 0800     		.short	8
 1572 000e 0000     		.space	2
 1573 0010 6404     		.short	1124
 1574 0012 01       		.byte	1
 1575 0013 02       		.byte	2
 1576 0014 53544D33 		.ascii	"STM32L43x\000"
 1576      324C3433 
 1576      7800
 1577 001e 3000     		.short	48
 1578 0020 1000     		.short	16
 1579 0022 0000     		.space	2
 1580 0024 3504     		.short	1077
 1581 0026 01       		.byte	1
 1582 0027 02       		.byte	2
 1583 0028 53544D33 		.ascii	"STM32L45x\000"
 1583      324C3435 
 1583      7800
 1584 0032 8000     		.short	128
 1585 0034 2000     		.short	32
 1586 0036 0000     		.space	2
 1587 0038 6204     		.short	1122
 1588 003a 01       		.byte	1
 1589 003b 02       		.byte	2
 1590 003c 53544D33 		.ascii	"STM32L47x\000"
ARM GAS  /tmp/cczfLbj6.s 			page 29


 1590      324C3437 
 1590      7800
 1591 0046 6000     		.short	96
 1592 0048 2000     		.short	32
 1593 004a 0000     		.space	2
 1594 004c 1504     		.short	1045
 1595 004e 01       		.byte	1
 1596 004f 82       		.byte	-126
 1597 0050 53544D33 		.ascii	"STM32L49x\000"
 1597      324C3439 
 1597      7800
 1598 005a 0001     		.short	256
 1599 005c 4000     		.short	64
 1600 005e 0000     		.space	2
 1601 0060 6104     		.short	1121
 1602 0062 01       		.byte	1
 1603 0063 82       		.byte	-126
 1604 0064 53544D33 		.ascii	"STM32L4Rx\000"
 1604      324C3452 
 1604      7800
 1605 006e C000     		.short	192
 1606 0070 4000     		.short	64
 1607 0072 8001     		.short	384
 1608 0074 7004     		.short	1136
 1609 0076 02       		.byte	2
 1610 0077 83       		.byte	-125
 1611 0078 53544D33 		.ascii	"STM32G07\000"
 1611      32473037 
 1611      00
 1612 0081 00       		.space	1
 1613 0082 2400     		.short	36
 1614 0084 00000000 		.space	4
 1615 0088 6004     		.short	1120
 1616 008a 03       		.byte	3
 1617 008b 01       		.byte	1
 1618 008c 00000000 		.space	16
 1618      00000000 
 1618      00000000 
 1618      00000000 
 1619 009c 0000     		.short	0
 1620 009e 0000     		.space	2
 1621              		.section	.rodata.g0_i2offset,"a",%progbits
 1622              		.align	2
 1623              		.set	.LANCHOR1,. + 0
 1624              		.type	g0_i2offset, %object
 1625              		.size	g0_i2offset, 7
 1626              	g0_i2offset:
 1627 0000 20       		.byte	32
 1628 0001 24       		.byte	36
 1629 0002 28       		.byte	40
 1630 0003 2C       		.byte	44
 1631 0004 30       		.byte	48
 1632 0005 34       		.byte	52
 1633 0006 38       		.byte	56
 1634              		.section	.rodata.l4_i2offset,"a",%progbits
 1635              		.align	2
 1636              		.set	.LANCHOR0,. + 0
ARM GAS  /tmp/cczfLbj6.s 			page 30


 1637              		.type	l4_i2offset, %object
 1638              		.size	l4_i2offset, 9
 1639              	l4_i2offset:
 1640 0000 20       		.byte	32
 1641 0001 24       		.byte	36
 1642 0002 28       		.byte	40
 1643 0003 2C       		.byte	44
 1644 0004 30       		.byte	48
 1645 0005 44       		.byte	68
 1646 0006 48       		.byte	72
 1647 0007 4C       		.byte	76
 1648 0008 50       		.byte	80
 1649              		.section	.rodata.stm32l4_cmd_list,"a",%progbits
 1650              		.align	2
 1651              		.set	.LANCHOR4,. + 0
 1652              		.type	stm32l4_cmd_list, %object
 1653              		.size	stm32l4_cmd_list, 60
 1654              	stm32l4_cmd_list:
 1655 0000 00000000 		.word	.LC11
 1656 0004 00000000 		.word	stm32l4_cmd_erase_mass
 1657 0008 0C000000 		.word	.LC12
 1658 000c 28000000 		.word	.LC13
 1659 0010 00000000 		.word	stm32l4_cmd_erase_bank1
 1660 0014 34000000 		.word	.LC14
 1661 0018 54000000 		.word	.LC15
 1662 001c 00000000 		.word	stm32l4_cmd_erase_bank2
 1663 0020 60000000 		.word	.LC16
 1664 0024 80000000 		.word	.LC17
 1665 0028 00000000 		.word	stm32l4_cmd_option
 1666 002c 88000000 		.word	.LC18
 1667 0030 00000000 		.word	0
 1668 0034 00000000 		.word	0
 1669 0038 00000000 		.word	0
 1670              		.section	.rodata.stm32l4_cmd_option.str1.4,"aMS",%progbits,1
 1671              		.align	2
 1672              	.LC4:
 1673 0000 65726173 		.ascii	"erase\000"
 1673      6500
 1674 0006 0000     		.space	2
 1675              	.LC5:
 1676 0008 77726974 		.ascii	"write\000"
 1676      6500
 1677 000e 0000     		.space	2
 1678              	.LC6:
 1679 0010 4368616E 		.ascii	"Changing Level 2 request to Level 1!\000"
 1679      67696E67 
 1679      204C6576 
 1679      656C2032 
 1679      20726571 
 1680 0035 000000   		.space	3
 1681              	.LC7:
 1682 0038 75736167 		.ascii	"usage: monitor option erase\012\000"
 1682      653A206D 
 1682      6F6E6974 
 1682      6F72206F 
 1682      7074696F 
 1683 0055 000000   		.space	3
ARM GAS  /tmp/cczfLbj6.s 			page 31


 1684              	.LC8:
 1685 0058 75736167 		.ascii	"usage: monitor option write <value> ...\012\000"
 1685      653A206D 
 1685      6F6E6974 
 1685      6F72206F 
 1685      7074696F 
 1686 0081 000000   		.space	3
 1687              	.LC9:
 1688 0084 57726974 		.ascii	"Writing options failed!\012\000"
 1688      696E6720 
 1688      6F707469 
 1688      6F6E7320 
 1688      6661696C 
 1689 009d 000000   		.space	3
 1690              	.LC10:
 1691 00a0 30782530 		.ascii	"0x%08X: 0x%08X\012\000"
 1691      38583A20 
 1691      30782530 
 1691      38580A00 
 1692              		.section	.rodata.stm32l4_flash_write.str1.4,"aMS",%progbits,1
 1693              		.align	2
 1694              	.LC1:
 1695 0000 73746D33 		.ascii	"stm32l4 flash write: comm error\012\000"
 1695      326C3420 
 1695      666C6173 
 1695      68207772 
 1695      6974653A 
 1696 0021 000000   		.space	3
 1697              	.LC2:
 1698 0024 73746D33 		.ascii	"stm32l4 flash write error: sr 0x%lu\012\000"
 1698      326C3420 
 1698      666C6173 
 1698      68207772 
 1698      69746520 
 1699              		.section	.rodata.stm32l4_option_write.str1.4,"aMS",%progbits,1
 1700              		.align	2
 1701              	.LC3:
 1702 0000 44657669 		.ascii	"Device will lose connection. Rescan!\012\000"
 1702      63652077 
 1702      696C6C20 
 1702      6C6F7365 
 1702      20636F6E 
 1703              		.section	.rodata.str1.4,"aMS",%progbits,1
 1704              		.align	2
 1705              	.LC11:
 1706 0000 65726173 		.ascii	"erase_mass\000"
 1706      655F6D61 
 1706      737300
 1707 000b 00       		.space	1
 1708              	.LC12:
 1709 000c 45726173 		.ascii	"Erase entire flash memory\000"
 1709      6520656E 
 1709      74697265 
 1709      20666C61 
 1709      7368206D 
 1710 0026 0000     		.space	2
 1711              	.LC13:
ARM GAS  /tmp/cczfLbj6.s 			page 32


 1712 0028 65726173 		.ascii	"erase_bank1\000"
 1712      655F6261 
 1712      6E6B3100 
 1713              	.LC14:
 1714 0034 45726173 		.ascii	"Erase entire bank1 flash memory\000"
 1714      6520656E 
 1714      74697265 
 1714      2062616E 
 1714      6B312066 
 1715              	.LC15:
 1716 0054 65726173 		.ascii	"erase_bank2\000"
 1716      655F6261 
 1716      6E6B3200 
 1717              	.LC16:
 1718 0060 45726173 		.ascii	"Erase entire bank2 flash memory\000"
 1718      6520656E 
 1718      74697265 
 1718      2062616E 
 1718      6B322066 
 1719              	.LC17:
 1720 0080 6F707469 		.ascii	"option\000"
 1720      6F6E00
 1721 0087 00       		.space	1
 1722              	.LC18:
 1723 0088 4D616E69 		.ascii	"Manipulate option bytes\000"
 1723      70756C61 
 1723      7465206F 
 1723      7074696F 
 1723      6E206279 
 1724              		.text
 1725              	.Letext0:
 1726              		.file 2 "/usr/arm-none-eabi/include/machine/_default_types.h"
 1727              		.file 3 "/usr/arm-none-eabi/include/sys/_stdint.h"
 1728              		.file 4 "/usr/lib/gcc/arm-none-eabi/7.3.1/include/stddef.h"
 1729              		.file 5 "/usr/arm-none-eabi/include/sys/lock.h"
 1730              		.file 6 "/usr/arm-none-eabi/include/sys/_types.h"
 1731              		.file 7 "/usr/arm-none-eabi/include/sys/reent.h"
 1732              		.file 8 "/usr/arm-none-eabi/include/stdlib.h"
 1733              		.file 9 "/usr/lib/gcc/arm-none-eabi/7.3.1/include/stdarg.h"
 1734              		.file 10 "<built-in>"
 1735              		.file 11 "/usr/arm-none-eabi/include/stdio.h"
 1736              		.file 12 "/usr/arm-none-eabi/include/sys/types.h"
 1737              		.file 13 "ChibiOS_3.0.5/os/rt/ports/ARMCMx/compilers/GCC/chtypes.h"
 1738              		.file 14 "ChibiOS_3.0.5/os/rt/include/chsystypes.h"
 1739              		.file 15 "ChibiOS_3.0.5/os/rt/include/chschd.h"
 1740              		.file 16 "ChibiOS_3.0.5/os/ext/CMSIS/include/core_cm4.h"
 1741              		.file 17 "ChibiOS_3.0.5/os/ext/CMSIS/ST/system_stm32f4xx.h"
 1742              		.file 18 "ChibiOS_3.0.5/os/ext/CMSIS/ST/stm32f407xx.h"
 1743              		.file 19 "ChibiOS_3.0.5/os/rt/ports/ARMCMx/chcore.h"
 1744              		.file 20 "ChibiOS_3.0.5/os/rt/ports/ARMCMx/chcore_v7m.h"
 1745              		.file 21 "ChibiOS_3.0.5/os/rt/include/chtm.h"
 1746              		.file 22 "ChibiOS_3.0.5/os/rt/include/chsem.h"
 1747              		.file 23 "ChibiOS_3.0.5/os/rt/include/chmtx.h"
 1748              		.file 24 "ChibiOS_3.0.5/os/rt/include/chregistry.h"
 1749              		.file 25 "ChibiOS_3.0.5/os/rt/include/chevents.h"
 1750              		.file 26 "ChibiOS_3.0.5/os/rt/include/chqueues.h"
 1751              		.file 27 "./datatypes.h"
ARM GAS  /tmp/cczfLbj6.s 			page 33


 1752              		.file 28 "./conf_general.h"
 1753              		.file 29 "ChibiOS_3.0.5/os/hal/ports/STM32/STM32F4xx/stm32_dma.h"
 1754              		.file 30 "ChibiOS_3.0.5/os/hal/ports/STM32/LLD/GPIOv2/pal_lld.h"
 1755              		.file 31 "ChibiOS_3.0.5/os/hal/include/can.h"
 1756              		.file 32 "ChibiOS_3.0.5/os/hal/ports/STM32/LLD/can_lld.h"
 1757              		.file 33 "ChibiOS_3.0.5/os/hal/include/i2c.h"
 1758              		.file 34 "ChibiOS_3.0.5/os/hal/ports/STM32/LLD/I2Cv1/i2c_lld.h"
 1759              		.file 35 "ChibiOS_3.0.5/os/hal/include/icu.h"
 1760              		.file 36 "ChibiOS_3.0.5/os/hal/ports/STM32/LLD/TIMv1/icu_lld.h"
 1761              		.file 37 "ChibiOS_3.0.5/os/hal/ports/STM32/LLD/TIMv1/stm32_tim.h"
 1762              		.file 38 "ChibiOS_3.0.5/os/hal/include/serial.h"
 1763              		.file 39 "ChibiOS_3.0.5/os/hal/ports/STM32/LLD/USARTv1/serial_lld.h"
 1764              		.file 40 "ChibiOS_3.0.5/os/hal/include/spi.h"
 1765              		.file 41 "ChibiOS_3.0.5/os/hal/ports/STM32/LLD/SPIv1/spi_lld.h"
 1766              		.file 42 "ChibiOS_3.0.5/os/hal/include/usb.h"
 1767              		.file 43 "ChibiOS_3.0.5/os/hal/ports/STM32/LLD/OTGv1/usb_lld.h"
 1768              		.file 44 "ChibiOS_3.0.5/os/hal/ports/STM32/LLD/OTGv1/stm32_otg.h"
 1769              		.file 45 "./commands.h"
 1770              		.file 46 "blackmagic/platform.h"
 1771              		.file 47 "blackmagic/target.h"
 1772              		.file 48 "blackmagic/target/target_internal.h"
 1773              		.file 49 "blackmagic/target/jtag_scan.h"
 1774              		.file 50 "blackmagic/target/adiv5.h"
 1775              		.file 51 "blackmagic/target/cortexm.h"
 1776              		.file 52 "/usr/arm-none-eabi/include/string.h"