ARM GAS  /tmp/ccaqrZUC.s 			page 1


   1              		.cpu cortex-m4
   2              		.eabi_attribute 27, 1
   3              		.eabi_attribute 28, 1
   4              		.eabi_attribute 20, 1
   5              		.eabi_attribute 21, 1
   6              		.eabi_attribute 23, 3
   7              		.eabi_attribute 24, 1
   8              		.eabi_attribute 25, 1
   9              		.eabi_attribute 26, 1
  10              		.eabi_attribute 30, 2
  11              		.eabi_attribute 34, 1
  12              		.eabi_attribute 18, 4
  13              		.file	"stm32f4xx_syscfg.c"
  14              		.text
  15              	.Ltext0:
  16              		.cfi_sections	.debug_frame
  17              		.section	.text.SYSCFG_DeInit,"ax",%progbits
  18              		.align	1
  19              		.p2align 4,,15
  20              		.global	SYSCFG_DeInit
  21              		.syntax unified
  22              		.thumb
  23              		.thumb_func
  24              		.fpu fpv4-sp-d16
  25              		.type	SYSCFG_DeInit, %function
  26              	SYSCFG_DeInit:
  27              	.LFB112:
  28              		.file 1 "ChibiOS_3.0.5/ext/stdperiph_stm32f4/src/stm32f4xx_syscfg.c"
  29              		.loc 1 100 0
  30              		.cfi_startproc
  31              		@ args = 0, pretend = 0, frame = 0
  32              		@ frame_needed = 0, uses_anonymous_args = 0
  33 0000 08B5     		push	{r3, lr}
  34              		.cfi_def_cfa_offset 8
  35              		.cfi_offset 3, -8
  36              		.cfi_offset 14, -4
  37              		.loc 1 101 0
  38 0002 0121     		movs	r1, #1
  39 0004 4FF48040 		mov	r0, #16384
  40 0008 FFF7FEFF 		bl	RCC_APB2PeriphResetCmd
  41              	.LVL0:
  42              		.loc 1 102 0
  43 000c 0021     		movs	r1, #0
  44 000e 4FF48040 		mov	r0, #16384
  45              		.loc 1 103 0
  46 0012 BDE80840 		pop	{r3, lr}
  47              		.cfi_restore 14
  48              		.cfi_restore 3
  49              		.cfi_def_cfa_offset 0
  50              		.loc 1 102 0
  51 0016 FFF7FEBF 		b	RCC_APB2PeriphResetCmd
  52              	.LVL1:
  53              		.cfi_endproc
  54              	.LFE112:
  55              		.size	SYSCFG_DeInit, .-SYSCFG_DeInit
  56 001a 00BF     		.section	.text.SYSCFG_MemoryRemapConfig,"ax",%progbits
  57              		.align	1
ARM GAS  /tmp/ccaqrZUC.s 			page 2


  58              		.p2align 4,,15
  59              		.global	SYSCFG_MemoryRemapConfig
  60              		.syntax unified
  61              		.thumb
  62              		.thumb_func
  63              		.fpu fpv4-sp-d16
  64              		.type	SYSCFG_MemoryRemapConfig, %function
  65              	SYSCFG_MemoryRemapConfig:
  66              	.LFB113:
  67              		.loc 1 119 0
  68              		.cfi_startproc
  69              		@ args = 0, pretend = 0, frame = 0
  70              		@ frame_needed = 0, uses_anonymous_args = 0
  71              		@ link register save eliminated.
  72              	.LVL2:
  73              		.loc 1 123 0
  74 0000 014B     		ldr	r3, .L5
  75 0002 1860     		str	r0, [r3]
  76              		.loc 1 124 0
  77 0004 7047     		bx	lr
  78              	.L6:
  79 0006 00BF     		.align	2
  80              	.L5:
  81 0008 00380140 		.word	1073821696
  82              		.cfi_endproc
  83              	.LFE113:
  84              		.size	SYSCFG_MemoryRemapConfig, .-SYSCFG_MemoryRemapConfig
  85              		.section	.text.SYSCFG_MemorySwappingBank,"ax",%progbits
  86              		.align	1
  87              		.p2align 4,,15
  88              		.global	SYSCFG_MemorySwappingBank
  89              		.syntax unified
  90              		.thumb
  91              		.thumb_func
  92              		.fpu fpv4-sp-d16
  93              		.type	SYSCFG_MemorySwappingBank, %function
  94              	SYSCFG_MemorySwappingBank:
  95              	.LFB114:
  96              		.loc 1 140 0
  97              		.cfi_startproc
  98              		@ args = 0, pretend = 0, frame = 0
  99              		@ frame_needed = 0, uses_anonymous_args = 0
 100              		@ link register save eliminated.
 101              	.LVL3:
 102              		.loc 1 144 0
 103 0000 014B     		ldr	r3, .L8
 104 0002 1860     		str	r0, [r3]
 105              		.loc 1 145 0
 106 0004 7047     		bx	lr
 107              	.L9:
 108 0006 00BF     		.align	2
 109              	.L8:
 110 0008 20002742 		.word	1109852192
 111              		.cfi_endproc
 112              	.LFE114:
 113              		.size	SYSCFG_MemorySwappingBank, .-SYSCFG_MemorySwappingBank
 114              		.section	.text.SYSCFG_EXTILineConfig,"ax",%progbits
ARM GAS  /tmp/ccaqrZUC.s 			page 3


 115              		.align	1
 116              		.p2align 4,,15
 117              		.global	SYSCFG_EXTILineConfig
 118              		.syntax unified
 119              		.thumb
 120              		.thumb_func
 121              		.fpu fpv4-sp-d16
 122              		.type	SYSCFG_EXTILineConfig, %function
 123              	SYSCFG_EXTILineConfig:
 124              	.LFB115:
 125              		.loc 1 163 0
 126              		.cfi_startproc
 127              		@ args = 0, pretend = 0, frame = 0
 128              		@ frame_needed = 0, uses_anonymous_args = 0
 129              		@ link register save eliminated.
 130              	.LVL4:
 131 0000 01F0FC03 		and	r3, r1, #252
 132 0004 03F18043 		add	r3, r3, #1073741824
 133 0008 03F59C33 		add	r3, r3, #79872
 134              		.loc 1 170 0
 135 000c 01F00301 		and	r1, r1, #3
 136              	.LVL5:
 137              		.loc 1 163 0
 138 0010 10B4     		push	{r4}
 139              		.cfi_def_cfa_offset 4
 140              		.cfi_offset 4, -4
 141              		.loc 1 171 0
 142 0012 9A68     		ldr	r2, [r3, #8]
 143              		.loc 1 170 0
 144 0014 8900     		lsls	r1, r1, #2
 145              	.LVL6:
 146 0016 0F24     		movs	r4, #15
 147 0018 8C40     		lsls	r4, r4, r1
 148              	.LVL7:
 149              		.loc 1 171 0
 150 001a 22EA0402 		bic	r2, r2, r4
 151 001e 9A60     		str	r2, [r3, #8]
 152              		.loc 1 172 0
 153 0020 9A68     		ldr	r2, [r3, #8]
 154              		.loc 1 173 0
 155 0022 5DF8044B 		ldr	r4, [sp], #4
 156              		.cfi_restore 4
 157              		.cfi_def_cfa_offset 0
 158              	.LVL8:
 159              		.loc 1 172 0
 160 0026 00FA01F1 		lsl	r1, r0, r1
 161              	.LVL9:
 162 002a 1143     		orrs	r1, r1, r2
 163 002c 9960     		str	r1, [r3, #8]
 164              		.loc 1 173 0
 165 002e 7047     		bx	lr
 166              		.cfi_endproc
 167              	.LFE115:
 168              		.size	SYSCFG_EXTILineConfig, .-SYSCFG_EXTILineConfig
 169              		.section	.text.SYSCFG_ETH_MediaInterfaceConfig,"ax",%progbits
 170              		.align	1
 171              		.p2align 4,,15
ARM GAS  /tmp/ccaqrZUC.s 			page 4


 172              		.global	SYSCFG_ETH_MediaInterfaceConfig
 173              		.syntax unified
 174              		.thumb
 175              		.thumb_func
 176              		.fpu fpv4-sp-d16
 177              		.type	SYSCFG_ETH_MediaInterfaceConfig, %function
 178              	SYSCFG_ETH_MediaInterfaceConfig:
 179              	.LFB116:
 180              		.loc 1 184 0
 181              		.cfi_startproc
 182              		@ args = 0, pretend = 0, frame = 0
 183              		@ frame_needed = 0, uses_anonymous_args = 0
 184              		@ link register save eliminated.
 185              	.LVL10:
 186              		.loc 1 187 0
 187 0000 014B     		ldr	r3, .L13
 188 0002 1860     		str	r0, [r3]
 189              		.loc 1 188 0
 190 0004 7047     		bx	lr
 191              	.L14:
 192 0006 00BF     		.align	2
 193              	.L13:
 194 0008 DC002742 		.word	1109852380
 195              		.cfi_endproc
 196              	.LFE116:
 197              		.size	SYSCFG_ETH_MediaInterfaceConfig, .-SYSCFG_ETH_MediaInterfaceConfig
 198              		.section	.text.SYSCFG_CompensationCellCmd,"ax",%progbits
 199              		.align	1
 200              		.p2align 4,,15
 201              		.global	SYSCFG_CompensationCellCmd
 202              		.syntax unified
 203              		.thumb
 204              		.thumb_func
 205              		.fpu fpv4-sp-d16
 206              		.type	SYSCFG_CompensationCellCmd, %function
 207              	SYSCFG_CompensationCellCmd:
 208              	.LFB117:
 209              		.loc 1 201 0
 210              		.cfi_startproc
 211              		@ args = 0, pretend = 0, frame = 0
 212              		@ frame_needed = 0, uses_anonymous_args = 0
 213              		@ link register save eliminated.
 214              	.LVL11:
 215              		.loc 1 205 0
 216 0000 014B     		ldr	r3, .L16
 217 0002 1860     		str	r0, [r3]
 218              		.loc 1 206 0
 219 0004 7047     		bx	lr
 220              	.L17:
 221 0006 00BF     		.align	2
 222              	.L16:
 223 0008 00042742 		.word	1109853184
 224              		.cfi_endproc
 225              	.LFE117:
 226              		.size	SYSCFG_CompensationCellCmd, .-SYSCFG_CompensationCellCmd
 227              		.section	.text.SYSCFG_GetCompensationCellStatus,"ax",%progbits
 228              		.align	1
ARM GAS  /tmp/ccaqrZUC.s 			page 5


 229              		.p2align 4,,15
 230              		.global	SYSCFG_GetCompensationCellStatus
 231              		.syntax unified
 232              		.thumb
 233              		.thumb_func
 234              		.fpu fpv4-sp-d16
 235              		.type	SYSCFG_GetCompensationCellStatus, %function
 236              	SYSCFG_GetCompensationCellStatus:
 237              	.LFB118:
 238              		.loc 1 214 0
 239              		.cfi_startproc
 240              		@ args = 0, pretend = 0, frame = 0
 241              		@ frame_needed = 0, uses_anonymous_args = 0
 242              		@ link register save eliminated.
 243              	.LVL12:
 244              		.loc 1 217 0
 245 0000 024B     		ldr	r3, .L19
 246 0002 186A     		ldr	r0, [r3, #32]
 247              	.LVL13:
 248              		.loc 1 226 0
 249 0004 C0F30020 		ubfx	r0, r0, #8, #1
 250              	.LVL14:
 251 0008 7047     		bx	lr
 252              	.L20:
 253 000a 00BF     		.align	2
 254              	.L19:
 255 000c 00380140 		.word	1073821696
 256              		.cfi_endproc
 257              	.LFE118:
 258              		.size	SYSCFG_GetCompensationCellStatus, .-SYSCFG_GetCompensationCellStatus
 259              		.text
 260              	.Letext0:
 261              		.file 2 "/usr/arm-none-eabi/include/machine/_default_types.h"
 262              		.file 3 "/usr/arm-none-eabi/include/sys/_stdint.h"
 263              		.file 4 "ChibiOS_3.0.5/os/ext/CMSIS/include/core_cm4.h"
 264              		.file 5 "ChibiOS_3.0.5/os/ext/CMSIS/ST/system_stm32f4xx.h"
 265              		.file 6 "ChibiOS_3.0.5/os/ext/CMSIS/ST/stm32f407xx.h"
 266              		.file 7 "ChibiOS_3.0.5/os/ext/CMSIS/ST/stm32f4xx.h"
 267              		.file 8 "ChibiOS_3.0.5/ext/stdperiph_stm32f4/inc/stm32f4xx_rcc.h"
 268              		.section	.debug_info,"",%progbits
 269              	.Ldebug_info0:
 270 0000 D9020000 		.4byte	0x2d9
 271 0004 0400     		.2byte	0x4
 272 0006 00000000 		.4byte	.Ldebug_abbrev0
 273 000a 04       		.byte	0x4
 274 000b 01       		.uleb128 0x1
 275 000c A0010000 		.4byte	.LASF39
 276 0010 0C       		.byte	0xc
 277 0011 2A000000 		.4byte	.LASF40
 278 0015 8A000000 		.4byte	.LASF41
 279 0019 00000000 		.4byte	.Ldebug_ranges0+0
 280 001d 00000000 		.4byte	0
 281 0021 00000000 		.4byte	.Ldebug_line0
 282 0025 02       		.uleb128 0x2
 283 0026 01       		.byte	0x1
 284 0027 06       		.byte	0x6
 285 0028 F6020000 		.4byte	.LASF0
ARM GAS  /tmp/ccaqrZUC.s 			page 6


 286 002c 03       		.uleb128 0x3
 287 002d 00000000 		.4byte	.LASF4
 288 0031 02       		.byte	0x2
 289 0032 2B       		.byte	0x2b
 290 0033 37000000 		.4byte	0x37
 291 0037 02       		.uleb128 0x2
 292 0038 01       		.byte	0x1
 293 0039 08       		.byte	0x8
 294 003a 2A010000 		.4byte	.LASF1
 295 003e 02       		.uleb128 0x2
 296 003f 02       		.byte	0x2
 297 0040 05       		.byte	0x5
 298 0041 3B030000 		.4byte	.LASF2
 299 0045 02       		.uleb128 0x2
 300 0046 02       		.byte	0x2
 301 0047 07       		.byte	0x7
 302 0048 90000000 		.4byte	.LASF3
 303 004c 03       		.uleb128 0x3
 304 004d 65000000 		.4byte	.LASF5
 305 0051 02       		.byte	0x2
 306 0052 4D       		.byte	0x4d
 307 0053 57000000 		.4byte	0x57
 308 0057 02       		.uleb128 0x2
 309 0058 04       		.byte	0x4
 310 0059 05       		.byte	0x5
 311 005a 7B030000 		.4byte	.LASF6
 312 005e 03       		.uleb128 0x3
 313 005f FC000000 		.4byte	.LASF7
 314 0063 02       		.byte	0x2
 315 0064 4F       		.byte	0x4f
 316 0065 69000000 		.4byte	0x69
 317 0069 02       		.uleb128 0x2
 318 006a 04       		.byte	0x4
 319 006b 07       		.byte	0x7
 320 006c 43010000 		.4byte	.LASF8
 321 0070 02       		.uleb128 0x2
 322 0071 08       		.byte	0x8
 323 0072 05       		.byte	0x5
 324 0073 0A030000 		.4byte	.LASF9
 325 0077 02       		.uleb128 0x2
 326 0078 08       		.byte	0x8
 327 0079 07       		.byte	0x7
 328 007a D7020000 		.4byte	.LASF10
 329 007e 04       		.uleb128 0x4
 330 007f 04       		.byte	0x4
 331 0080 05       		.byte	0x5
 332 0081 696E7400 		.ascii	"int\000"
 333 0085 02       		.uleb128 0x2
 334 0086 04       		.byte	0x4
 335 0087 07       		.byte	0x7
 336 0088 C4020000 		.4byte	.LASF11
 337 008c 03       		.uleb128 0x3
 338 008d EE020000 		.4byte	.LASF12
 339 0091 03       		.byte	0x3
 340 0092 18       		.byte	0x18
 341 0093 2C000000 		.4byte	0x2c
 342 0097 03       		.uleb128 0x3
ARM GAS  /tmp/ccaqrZUC.s 			page 7


 343 0098 02030000 		.4byte	.LASF13
 344 009c 03       		.byte	0x3
 345 009d 2C       		.byte	0x2c
 346 009e 4C000000 		.4byte	0x4c
 347 00a2 05       		.uleb128 0x5
 348 00a3 97000000 		.4byte	0x97
 349 00a7 03       		.uleb128 0x3
 350 00a8 72030000 		.4byte	.LASF14
 351 00ac 03       		.byte	0x3
 352 00ad 30       		.byte	0x30
 353 00ae 5E000000 		.4byte	0x5e
 354 00b2 05       		.uleb128 0x5
 355 00b3 A7000000 		.4byte	0xa7
 356 00b7 06       		.uleb128 0x6
 357 00b8 A7000000 		.4byte	0xa7
 358 00bc C7000000 		.4byte	0xc7
 359 00c0 07       		.uleb128 0x7
 360 00c1 85000000 		.4byte	0x85
 361 00c5 01       		.byte	0x1
 362 00c6 00       		.byte	0
 363 00c7 08       		.uleb128 0x8
 364 00c8 73010000 		.4byte	.LASF15
 365 00cc 04       		.byte	0x4
 366 00cd A706     		.2byte	0x6a7
 367 00cf A2000000 		.4byte	0xa2
 368 00d3 09       		.uleb128 0x9
 369 00d4 18030000 		.4byte	.LASF16
 370 00d8 05       		.byte	0x5
 371 00d9 4C       		.byte	0x4c
 372 00da A7000000 		.4byte	0xa7
 373 00de 0A       		.uleb128 0xa
 374 00df 24       		.byte	0x24
 375 00e0 06       		.byte	0x6
 376 00e1 3202     		.2byte	0x232
 377 00e3 29010000 		.4byte	0x129
 378 00e7 0B       		.uleb128 0xb
 379 00e8 55010000 		.4byte	.LASF17
 380 00ec 06       		.byte	0x6
 381 00ed 3402     		.2byte	0x234
 382 00ef B2000000 		.4byte	0xb2
 383 00f3 00       		.byte	0
 384 00f4 0C       		.uleb128 0xc
 385 00f5 504D4300 		.ascii	"PMC\000"
 386 00f9 06       		.byte	0x6
 387 00fa 3502     		.2byte	0x235
 388 00fc B2000000 		.4byte	0xb2
 389 0100 04       		.byte	0x4
 390 0101 0B       		.uleb128 0xb
 391 0102 99010000 		.4byte	.LASF18
 392 0106 06       		.byte	0x6
 393 0107 3602     		.2byte	0x236
 394 0109 39010000 		.4byte	0x139
 395 010d 08       		.byte	0x8
 396 010e 0B       		.uleb128 0xb
 397 010f 90010000 		.4byte	.LASF19
 398 0113 06       		.byte	0x6
 399 0114 3702     		.2byte	0x237
ARM GAS  /tmp/ccaqrZUC.s 			page 8


 400 0116 B7000000 		.4byte	0xb7
 401 011a 18       		.byte	0x18
 402 011b 0B       		.uleb128 0xb
 403 011c 24010000 		.4byte	.LASF20
 404 0120 06       		.byte	0x6
 405 0121 3802     		.2byte	0x238
 406 0123 B2000000 		.4byte	0xb2
 407 0127 20       		.byte	0x20
 408 0128 00       		.byte	0
 409 0129 06       		.uleb128 0x6
 410 012a B2000000 		.4byte	0xb2
 411 012e 39010000 		.4byte	0x139
 412 0132 07       		.uleb128 0x7
 413 0133 85000000 		.4byte	0x85
 414 0137 03       		.byte	0x3
 415 0138 00       		.byte	0
 416 0139 05       		.uleb128 0x5
 417 013a 29010000 		.4byte	0x129
 418 013e 0D       		.uleb128 0xd
 419 013f 4E030000 		.4byte	.LASF21
 420 0143 06       		.byte	0x6
 421 0144 3902     		.2byte	0x239
 422 0146 DE000000 		.4byte	0xde
 423 014a 0E       		.uleb128 0xe
 424 014b 07       		.byte	0x7
 425 014c 01       		.byte	0x1
 426 014d 37000000 		.4byte	0x37
 427 0151 07       		.byte	0x7
 428 0152 B9       		.byte	0xb9
 429 0153 64010000 		.4byte	0x164
 430 0157 0F       		.uleb128 0xf
 431 0158 D1020000 		.4byte	.LASF22
 432 015c 00       		.byte	0
 433 015d 10       		.uleb128 0x10
 434 015e 53455400 		.ascii	"SET\000"
 435 0162 01       		.byte	0x1
 436 0163 00       		.byte	0
 437 0164 03       		.uleb128 0x3
 438 0165 38010000 		.4byte	.LASF23
 439 0169 07       		.byte	0x7
 440 016a BC       		.byte	0xbc
 441 016b 4A010000 		.4byte	0x14a
 442 016f 0E       		.uleb128 0xe
 443 0170 07       		.byte	0x7
 444 0171 01       		.byte	0x1
 445 0172 37000000 		.4byte	0x37
 446 0176 07       		.byte	0x7
 447 0177 BF       		.byte	0xbf
 448 0178 89010000 		.4byte	0x189
 449 017c 0F       		.uleb128 0xf
 450 017d 84030000 		.4byte	.LASF24
 451 0181 00       		.byte	0
 452 0182 0F       		.uleb128 0xf
 453 0183 07010000 		.4byte	.LASF25
 454 0187 01       		.byte	0x1
 455 0188 00       		.byte	0
 456 0189 03       		.uleb128 0x3
ARM GAS  /tmp/ccaqrZUC.s 			page 9


 457 018a C4000000 		.4byte	.LASF26
 458 018e 07       		.byte	0x7
 459 018f C2       		.byte	0xc2
 460 0190 6F010000 		.4byte	0x16f
 461 0194 11       		.uleb128 0x11
 462 0195 A3000000 		.4byte	.LASF42
 463 0199 01       		.byte	0x1
 464 019a D5       		.byte	0xd5
 465 019b 64010000 		.4byte	0x164
 466 019f 00000000 		.4byte	.LFB118
 467 01a3 10000000 		.4byte	.LFE118-.LFB118
 468 01a7 01       		.uleb128 0x1
 469 01a8 9C       		.byte	0x9c
 470 01a9 BD010000 		.4byte	0x1bd
 471 01ad 12       		.uleb128 0x12
 472 01ae 8C030000 		.4byte	.LASF34
 473 01b2 01       		.byte	0x1
 474 01b3 D7       		.byte	0xd7
 475 01b4 64010000 		.4byte	0x164
 476 01b8 00000000 		.4byte	.LLST2
 477 01bc 00       		.byte	0
 478 01bd 13       		.uleb128 0x13
 479 01be 6F000000 		.4byte	.LASF27
 480 01c2 01       		.byte	0x1
 481 01c3 C8       		.byte	0xc8
 482 01c4 00000000 		.4byte	.LFB117
 483 01c8 0C000000 		.4byte	.LFE117-.LFB117
 484 01cc 01       		.uleb128 0x1
 485 01cd 9C       		.byte	0x9c
 486 01ce E0010000 		.4byte	0x1e0
 487 01d2 14       		.uleb128 0x14
 488 01d3 45030000 		.4byte	.LASF29
 489 01d7 01       		.byte	0x1
 490 01d8 C8       		.byte	0xc8
 491 01d9 89010000 		.4byte	0x189
 492 01dd 01       		.uleb128 0x1
 493 01de 50       		.byte	0x50
 494 01df 00       		.byte	0
 495 01e0 13       		.uleb128 0x13
 496 01e1 0A000000 		.4byte	.LASF28
 497 01e5 01       		.byte	0x1
 498 01e6 B7       		.byte	0xb7
 499 01e7 00000000 		.4byte	.LFB116
 500 01eb 0C000000 		.4byte	.LFE116-.LFB116
 501 01ef 01       		.uleb128 0x1
 502 01f0 9C       		.byte	0x9c
 503 01f1 03020000 		.4byte	0x203
 504 01f5 14       		.uleb128 0x14
 505 01f6 E2000000 		.4byte	.LASF30
 506 01fa 01       		.byte	0x1
 507 01fb B7       		.byte	0xb7
 508 01fc A7000000 		.4byte	0xa7
 509 0200 01       		.uleb128 0x1
 510 0201 50       		.byte	0x50
 511 0202 00       		.byte	0
 512 0203 13       		.uleb128 0x13
 513 0204 0E010000 		.4byte	.LASF31
ARM GAS  /tmp/ccaqrZUC.s 			page 10


 514 0208 01       		.byte	0x1
 515 0209 A2       		.byte	0xa2
 516 020a 00000000 		.4byte	.LFB115
 517 020e 30000000 		.4byte	.LFE115-.LFB115
 518 0212 01       		.uleb128 0x1
 519 0213 9C       		.byte	0x9c
 520 0214 44020000 		.4byte	0x244
 521 0218 14       		.uleb128 0x14
 522 0219 5D030000 		.4byte	.LASF32
 523 021d 01       		.byte	0x1
 524 021e A2       		.byte	0xa2
 525 021f 8C000000 		.4byte	0x8c
 526 0223 01       		.uleb128 0x1
 527 0224 50       		.byte	0x50
 528 0225 15       		.uleb128 0x15
 529 0226 80010000 		.4byte	.LASF33
 530 022a 01       		.byte	0x1
 531 022b A2       		.byte	0xa2
 532 022c 8C000000 		.4byte	0x8c
 533 0230 27000000 		.4byte	.LLST0
 534 0234 16       		.uleb128 0x16
 535 0235 746D7000 		.ascii	"tmp\000"
 536 0239 01       		.byte	0x1
 537 023a A4       		.byte	0xa4
 538 023b A7000000 		.4byte	0xa7
 539 023f 48000000 		.4byte	.LLST1
 540 0243 00       		.byte	0
 541 0244 13       		.uleb128 0x13
 542 0245 96030000 		.4byte	.LASF35
 543 0249 01       		.byte	0x1
 544 024a 8B       		.byte	0x8b
 545 024b 00000000 		.4byte	.LFB114
 546 024f 0C000000 		.4byte	.LFE114-.LFB114
 547 0253 01       		.uleb128 0x1
 548 0254 9C       		.byte	0x9c
 549 0255 67020000 		.4byte	0x267
 550 0259 14       		.uleb128 0x14
 551 025a 45030000 		.4byte	.LASF29
 552 025e 01       		.byte	0x1
 553 025f 8B       		.byte	0x8b
 554 0260 89010000 		.4byte	0x189
 555 0264 01       		.uleb128 0x1
 556 0265 50       		.byte	0x50
 557 0266 00       		.byte	0
 558 0267 13       		.uleb128 0x13
 559 0268 B0030000 		.4byte	.LASF36
 560 026c 01       		.byte	0x1
 561 026d 76       		.byte	0x76
 562 026e 00000000 		.4byte	.LFB113
 563 0272 0C000000 		.4byte	.LFE113-.LFB113
 564 0276 01       		.uleb128 0x1
 565 0277 9C       		.byte	0x9c
 566 0278 8A020000 		.4byte	0x28a
 567 027c 14       		.uleb128 0x14
 568 027d 28030000 		.4byte	.LASF37
 569 0281 01       		.byte	0x1
 570 0282 76       		.byte	0x76
ARM GAS  /tmp/ccaqrZUC.s 			page 11


 571 0283 8C000000 		.4byte	0x8c
 572 0287 01       		.uleb128 0x1
 573 0288 50       		.byte	0x50
 574 0289 00       		.byte	0
 575 028a 13       		.uleb128 0x13
 576 028b D4000000 		.4byte	.LASF38
 577 028f 01       		.byte	0x1
 578 0290 63       		.byte	0x63
 579 0291 00000000 		.4byte	.LFB112
 580 0295 1A000000 		.4byte	.LFE112-.LFB112
 581 0299 01       		.uleb128 0x1
 582 029a 9C       		.byte	0x9c
 583 029b D0020000 		.4byte	0x2d0
 584 029f 17       		.uleb128 0x17
 585 02a0 0C000000 		.4byte	.LVL0
 586 02a4 D0020000 		.4byte	0x2d0
 587 02a8 B9020000 		.4byte	0x2b9
 588 02ac 18       		.uleb128 0x18
 589 02ad 01       		.uleb128 0x1
 590 02ae 50       		.byte	0x50
 591 02af 03       		.uleb128 0x3
 592 02b0 0A       		.byte	0xa
 593 02b1 0040     		.2byte	0x4000
 594 02b3 18       		.uleb128 0x18
 595 02b4 01       		.uleb128 0x1
 596 02b5 51       		.byte	0x51
 597 02b6 01       		.uleb128 0x1
 598 02b7 31       		.byte	0x31
 599 02b8 00       		.byte	0
 600 02b9 19       		.uleb128 0x19
 601 02ba 1A000000 		.4byte	.LVL1
 602 02be D0020000 		.4byte	0x2d0
 603 02c2 18       		.uleb128 0x18
 604 02c3 01       		.uleb128 0x1
 605 02c4 50       		.byte	0x50
 606 02c5 03       		.uleb128 0x3
 607 02c6 0A       		.byte	0xa
 608 02c7 0040     		.2byte	0x4000
 609 02c9 18       		.uleb128 0x18
 610 02ca 01       		.uleb128 0x1
 611 02cb 51       		.byte	0x51
 612 02cc 01       		.uleb128 0x1
 613 02cd 30       		.byte	0x30
 614 02ce 00       		.byte	0
 615 02cf 00       		.byte	0
 616 02d0 1A       		.uleb128 0x1a
 617 02d1 5C010000 		.4byte	.LASF43
 618 02d5 5C010000 		.4byte	.LASF43
 619 02d9 08       		.byte	0x8
 620 02da 6203     		.2byte	0x362
 621 02dc 00       		.byte	0
 622              		.section	.debug_abbrev,"",%progbits
 623              	.Ldebug_abbrev0:
 624 0000 01       		.uleb128 0x1
 625 0001 11       		.uleb128 0x11
 626 0002 01       		.byte	0x1
 627 0003 25       		.uleb128 0x25
ARM GAS  /tmp/ccaqrZUC.s 			page 12


 628 0004 0E       		.uleb128 0xe
 629 0005 13       		.uleb128 0x13
 630 0006 0B       		.uleb128 0xb
 631 0007 03       		.uleb128 0x3
 632 0008 0E       		.uleb128 0xe
 633 0009 1B       		.uleb128 0x1b
 634 000a 0E       		.uleb128 0xe
 635 000b 55       		.uleb128 0x55
 636 000c 17       		.uleb128 0x17
 637 000d 11       		.uleb128 0x11
 638 000e 01       		.uleb128 0x1
 639 000f 10       		.uleb128 0x10
 640 0010 17       		.uleb128 0x17
 641 0011 00       		.byte	0
 642 0012 00       		.byte	0
 643 0013 02       		.uleb128 0x2
 644 0014 24       		.uleb128 0x24
 645 0015 00       		.byte	0
 646 0016 0B       		.uleb128 0xb
 647 0017 0B       		.uleb128 0xb
 648 0018 3E       		.uleb128 0x3e
 649 0019 0B       		.uleb128 0xb
 650 001a 03       		.uleb128 0x3
 651 001b 0E       		.uleb128 0xe
 652 001c 00       		.byte	0
 653 001d 00       		.byte	0
 654 001e 03       		.uleb128 0x3
 655 001f 16       		.uleb128 0x16
 656 0020 00       		.byte	0
 657 0021 03       		.uleb128 0x3
 658 0022 0E       		.uleb128 0xe
 659 0023 3A       		.uleb128 0x3a
 660 0024 0B       		.uleb128 0xb
 661 0025 3B       		.uleb128 0x3b
 662 0026 0B       		.uleb128 0xb
 663 0027 49       		.uleb128 0x49
 664 0028 13       		.uleb128 0x13
 665 0029 00       		.byte	0
 666 002a 00       		.byte	0
 667 002b 04       		.uleb128 0x4
 668 002c 24       		.uleb128 0x24
 669 002d 00       		.byte	0
 670 002e 0B       		.uleb128 0xb
 671 002f 0B       		.uleb128 0xb
 672 0030 3E       		.uleb128 0x3e
 673 0031 0B       		.uleb128 0xb
 674 0032 03       		.uleb128 0x3
 675 0033 08       		.uleb128 0x8
 676 0034 00       		.byte	0
 677 0035 00       		.byte	0
 678 0036 05       		.uleb128 0x5
 679 0037 35       		.uleb128 0x35
 680 0038 00       		.byte	0
 681 0039 49       		.uleb128 0x49
 682 003a 13       		.uleb128 0x13
 683 003b 00       		.byte	0
 684 003c 00       		.byte	0
ARM GAS  /tmp/ccaqrZUC.s 			page 13


 685 003d 06       		.uleb128 0x6
 686 003e 01       		.uleb128 0x1
 687 003f 01       		.byte	0x1
 688 0040 49       		.uleb128 0x49
 689 0041 13       		.uleb128 0x13
 690 0042 01       		.uleb128 0x1
 691 0043 13       		.uleb128 0x13
 692 0044 00       		.byte	0
 693 0045 00       		.byte	0
 694 0046 07       		.uleb128 0x7
 695 0047 21       		.uleb128 0x21
 696 0048 00       		.byte	0
 697 0049 49       		.uleb128 0x49
 698 004a 13       		.uleb128 0x13
 699 004b 2F       		.uleb128 0x2f
 700 004c 0B       		.uleb128 0xb
 701 004d 00       		.byte	0
 702 004e 00       		.byte	0
 703 004f 08       		.uleb128 0x8
 704 0050 34       		.uleb128 0x34
 705 0051 00       		.byte	0
 706 0052 03       		.uleb128 0x3
 707 0053 0E       		.uleb128 0xe
 708 0054 3A       		.uleb128 0x3a
 709 0055 0B       		.uleb128 0xb
 710 0056 3B       		.uleb128 0x3b
 711 0057 05       		.uleb128 0x5
 712 0058 49       		.uleb128 0x49
 713 0059 13       		.uleb128 0x13
 714 005a 3F       		.uleb128 0x3f
 715 005b 19       		.uleb128 0x19
 716 005c 3C       		.uleb128 0x3c
 717 005d 19       		.uleb128 0x19
 718 005e 00       		.byte	0
 719 005f 00       		.byte	0
 720 0060 09       		.uleb128 0x9
 721 0061 34       		.uleb128 0x34
 722 0062 00       		.byte	0
 723 0063 03       		.uleb128 0x3
 724 0064 0E       		.uleb128 0xe
 725 0065 3A       		.uleb128 0x3a
 726 0066 0B       		.uleb128 0xb
 727 0067 3B       		.uleb128 0x3b
 728 0068 0B       		.uleb128 0xb
 729 0069 49       		.uleb128 0x49
 730 006a 13       		.uleb128 0x13
 731 006b 3F       		.uleb128 0x3f
 732 006c 19       		.uleb128 0x19
 733 006d 3C       		.uleb128 0x3c
 734 006e 19       		.uleb128 0x19
 735 006f 00       		.byte	0
 736 0070 00       		.byte	0
 737 0071 0A       		.uleb128 0xa
 738 0072 13       		.uleb128 0x13
 739 0073 01       		.byte	0x1
 740 0074 0B       		.uleb128 0xb
 741 0075 0B       		.uleb128 0xb
ARM GAS  /tmp/ccaqrZUC.s 			page 14


 742 0076 3A       		.uleb128 0x3a
 743 0077 0B       		.uleb128 0xb
 744 0078 3B       		.uleb128 0x3b
 745 0079 05       		.uleb128 0x5
 746 007a 01       		.uleb128 0x1
 747 007b 13       		.uleb128 0x13
 748 007c 00       		.byte	0
 749 007d 00       		.byte	0
 750 007e 0B       		.uleb128 0xb
 751 007f 0D       		.uleb128 0xd
 752 0080 00       		.byte	0
 753 0081 03       		.uleb128 0x3
 754 0082 0E       		.uleb128 0xe
 755 0083 3A       		.uleb128 0x3a
 756 0084 0B       		.uleb128 0xb
 757 0085 3B       		.uleb128 0x3b
 758 0086 05       		.uleb128 0x5
 759 0087 49       		.uleb128 0x49
 760 0088 13       		.uleb128 0x13
 761 0089 38       		.uleb128 0x38
 762 008a 0B       		.uleb128 0xb
 763 008b 00       		.byte	0
 764 008c 00       		.byte	0
 765 008d 0C       		.uleb128 0xc
 766 008e 0D       		.uleb128 0xd
 767 008f 00       		.byte	0
 768 0090 03       		.uleb128 0x3
 769 0091 08       		.uleb128 0x8
 770 0092 3A       		.uleb128 0x3a
 771 0093 0B       		.uleb128 0xb
 772 0094 3B       		.uleb128 0x3b
 773 0095 05       		.uleb128 0x5
 774 0096 49       		.uleb128 0x49
 775 0097 13       		.uleb128 0x13
 776 0098 38       		.uleb128 0x38
 777 0099 0B       		.uleb128 0xb
 778 009a 00       		.byte	0
 779 009b 00       		.byte	0
 780 009c 0D       		.uleb128 0xd
 781 009d 16       		.uleb128 0x16
 782 009e 00       		.byte	0
 783 009f 03       		.uleb128 0x3
 784 00a0 0E       		.uleb128 0xe
 785 00a1 3A       		.uleb128 0x3a
 786 00a2 0B       		.uleb128 0xb
 787 00a3 3B       		.uleb128 0x3b
 788 00a4 05       		.uleb128 0x5
 789 00a5 49       		.uleb128 0x49
 790 00a6 13       		.uleb128 0x13
 791 00a7 00       		.byte	0
 792 00a8 00       		.byte	0
 793 00a9 0E       		.uleb128 0xe
 794 00aa 04       		.uleb128 0x4
 795 00ab 01       		.byte	0x1
 796 00ac 3E       		.uleb128 0x3e
 797 00ad 0B       		.uleb128 0xb
 798 00ae 0B       		.uleb128 0xb
ARM GAS  /tmp/ccaqrZUC.s 			page 15


 799 00af 0B       		.uleb128 0xb
 800 00b0 49       		.uleb128 0x49
 801 00b1 13       		.uleb128 0x13
 802 00b2 3A       		.uleb128 0x3a
 803 00b3 0B       		.uleb128 0xb
 804 00b4 3B       		.uleb128 0x3b
 805 00b5 0B       		.uleb128 0xb
 806 00b6 01       		.uleb128 0x1
 807 00b7 13       		.uleb128 0x13
 808 00b8 00       		.byte	0
 809 00b9 00       		.byte	0
 810 00ba 0F       		.uleb128 0xf
 811 00bb 28       		.uleb128 0x28
 812 00bc 00       		.byte	0
 813 00bd 03       		.uleb128 0x3
 814 00be 0E       		.uleb128 0xe
 815 00bf 1C       		.uleb128 0x1c
 816 00c0 0B       		.uleb128 0xb
 817 00c1 00       		.byte	0
 818 00c2 00       		.byte	0
 819 00c3 10       		.uleb128 0x10
 820 00c4 28       		.uleb128 0x28
 821 00c5 00       		.byte	0
 822 00c6 03       		.uleb128 0x3
 823 00c7 08       		.uleb128 0x8
 824 00c8 1C       		.uleb128 0x1c
 825 00c9 0B       		.uleb128 0xb
 826 00ca 00       		.byte	0
 827 00cb 00       		.byte	0
 828 00cc 11       		.uleb128 0x11
 829 00cd 2E       		.uleb128 0x2e
 830 00ce 01       		.byte	0x1
 831 00cf 3F       		.uleb128 0x3f
 832 00d0 19       		.uleb128 0x19
 833 00d1 03       		.uleb128 0x3
 834 00d2 0E       		.uleb128 0xe
 835 00d3 3A       		.uleb128 0x3a
 836 00d4 0B       		.uleb128 0xb
 837 00d5 3B       		.uleb128 0x3b
 838 00d6 0B       		.uleb128 0xb
 839 00d7 27       		.uleb128 0x27
 840 00d8 19       		.uleb128 0x19
 841 00d9 49       		.uleb128 0x49
 842 00da 13       		.uleb128 0x13
 843 00db 11       		.uleb128 0x11
 844 00dc 01       		.uleb128 0x1
 845 00dd 12       		.uleb128 0x12
 846 00de 06       		.uleb128 0x6
 847 00df 40       		.uleb128 0x40
 848 00e0 18       		.uleb128 0x18
 849 00e1 9742     		.uleb128 0x2117
 850 00e3 19       		.uleb128 0x19
 851 00e4 01       		.uleb128 0x1
 852 00e5 13       		.uleb128 0x13
 853 00e6 00       		.byte	0
 854 00e7 00       		.byte	0
 855 00e8 12       		.uleb128 0x12
ARM GAS  /tmp/ccaqrZUC.s 			page 16


 856 00e9 34       		.uleb128 0x34
 857 00ea 00       		.byte	0
 858 00eb 03       		.uleb128 0x3
 859 00ec 0E       		.uleb128 0xe
 860 00ed 3A       		.uleb128 0x3a
 861 00ee 0B       		.uleb128 0xb
 862 00ef 3B       		.uleb128 0x3b
 863 00f0 0B       		.uleb128 0xb
 864 00f1 49       		.uleb128 0x49
 865 00f2 13       		.uleb128 0x13
 866 00f3 02       		.uleb128 0x2
 867 00f4 17       		.uleb128 0x17
 868 00f5 00       		.byte	0
 869 00f6 00       		.byte	0
 870 00f7 13       		.uleb128 0x13
 871 00f8 2E       		.uleb128 0x2e
 872 00f9 01       		.byte	0x1
 873 00fa 3F       		.uleb128 0x3f
 874 00fb 19       		.uleb128 0x19
 875 00fc 03       		.uleb128 0x3
 876 00fd 0E       		.uleb128 0xe
 877 00fe 3A       		.uleb128 0x3a
 878 00ff 0B       		.uleb128 0xb
 879 0100 3B       		.uleb128 0x3b
 880 0101 0B       		.uleb128 0xb
 881 0102 27       		.uleb128 0x27
 882 0103 19       		.uleb128 0x19
 883 0104 11       		.uleb128 0x11
 884 0105 01       		.uleb128 0x1
 885 0106 12       		.uleb128 0x12
 886 0107 06       		.uleb128 0x6
 887 0108 40       		.uleb128 0x40
 888 0109 18       		.uleb128 0x18
 889 010a 9742     		.uleb128 0x2117
 890 010c 19       		.uleb128 0x19
 891 010d 01       		.uleb128 0x1
 892 010e 13       		.uleb128 0x13
 893 010f 00       		.byte	0
 894 0110 00       		.byte	0
 895 0111 14       		.uleb128 0x14
 896 0112 05       		.uleb128 0x5
 897 0113 00       		.byte	0
 898 0114 03       		.uleb128 0x3
 899 0115 0E       		.uleb128 0xe
 900 0116 3A       		.uleb128 0x3a
 901 0117 0B       		.uleb128 0xb
 902 0118 3B       		.uleb128 0x3b
 903 0119 0B       		.uleb128 0xb
 904 011a 49       		.uleb128 0x49
 905 011b 13       		.uleb128 0x13
 906 011c 02       		.uleb128 0x2
 907 011d 18       		.uleb128 0x18
 908 011e 00       		.byte	0
 909 011f 00       		.byte	0
 910 0120 15       		.uleb128 0x15
 911 0121 05       		.uleb128 0x5
 912 0122 00       		.byte	0
ARM GAS  /tmp/ccaqrZUC.s 			page 17


 913 0123 03       		.uleb128 0x3
 914 0124 0E       		.uleb128 0xe
 915 0125 3A       		.uleb128 0x3a
 916 0126 0B       		.uleb128 0xb
 917 0127 3B       		.uleb128 0x3b
 918 0128 0B       		.uleb128 0xb
 919 0129 49       		.uleb128 0x49
 920 012a 13       		.uleb128 0x13
 921 012b 02       		.uleb128 0x2
 922 012c 17       		.uleb128 0x17
 923 012d 00       		.byte	0
 924 012e 00       		.byte	0
 925 012f 16       		.uleb128 0x16
 926 0130 34       		.uleb128 0x34
 927 0131 00       		.byte	0
 928 0132 03       		.uleb128 0x3
 929 0133 08       		.uleb128 0x8
 930 0134 3A       		.uleb128 0x3a
 931 0135 0B       		.uleb128 0xb
 932 0136 3B       		.uleb128 0x3b
 933 0137 0B       		.uleb128 0xb
 934 0138 49       		.uleb128 0x49
 935 0139 13       		.uleb128 0x13
 936 013a 02       		.uleb128 0x2
 937 013b 17       		.uleb128 0x17
 938 013c 00       		.byte	0
 939 013d 00       		.byte	0
 940 013e 17       		.uleb128 0x17
 941 013f 898201   		.uleb128 0x4109
 942 0142 01       		.byte	0x1
 943 0143 11       		.uleb128 0x11
 944 0144 01       		.uleb128 0x1
 945 0145 31       		.uleb128 0x31
 946 0146 13       		.uleb128 0x13
 947 0147 01       		.uleb128 0x1
 948 0148 13       		.uleb128 0x13
 949 0149 00       		.byte	0
 950 014a 00       		.byte	0
 951 014b 18       		.uleb128 0x18
 952 014c 8A8201   		.uleb128 0x410a
 953 014f 00       		.byte	0
 954 0150 02       		.uleb128 0x2
 955 0151 18       		.uleb128 0x18
 956 0152 9142     		.uleb128 0x2111
 957 0154 18       		.uleb128 0x18
 958 0155 00       		.byte	0
 959 0156 00       		.byte	0
 960 0157 19       		.uleb128 0x19
 961 0158 898201   		.uleb128 0x4109
 962 015b 01       		.byte	0x1
 963 015c 11       		.uleb128 0x11
 964 015d 01       		.uleb128 0x1
 965 015e 9542     		.uleb128 0x2115
 966 0160 19       		.uleb128 0x19
 967 0161 31       		.uleb128 0x31
 968 0162 13       		.uleb128 0x13
 969 0163 00       		.byte	0
ARM GAS  /tmp/ccaqrZUC.s 			page 18


 970 0164 00       		.byte	0
 971 0165 1A       		.uleb128 0x1a
 972 0166 2E       		.uleb128 0x2e
 973 0167 00       		.byte	0
 974 0168 3F       		.uleb128 0x3f
 975 0169 19       		.uleb128 0x19
 976 016a 3C       		.uleb128 0x3c
 977 016b 19       		.uleb128 0x19
 978 016c 6E       		.uleb128 0x6e
 979 016d 0E       		.uleb128 0xe
 980 016e 03       		.uleb128 0x3
 981 016f 0E       		.uleb128 0xe
 982 0170 3A       		.uleb128 0x3a
 983 0171 0B       		.uleb128 0xb
 984 0172 3B       		.uleb128 0x3b
 985 0173 05       		.uleb128 0x5
 986 0174 00       		.byte	0
 987 0175 00       		.byte	0
 988 0176 00       		.byte	0
 989              		.section	.debug_loc,"",%progbits
 990              	.Ldebug_loc0:
 991              	.LLST2:
 992 0000 00000000 		.4byte	.LVL12
 993 0004 04000000 		.4byte	.LVL13
 994 0008 0200     		.2byte	0x2
 995 000a 30       		.byte	0x30
 996 000b 9F       		.byte	0x9f
 997 000c 04000000 		.4byte	.LVL13
 998 0010 08000000 		.4byte	.LVL14
 999 0014 0900     		.2byte	0x9
 1000 0016 70       		.byte	0x70
 1001 0017 00       		.sleb128 0
 1002 0018 0A       		.byte	0xa
 1003 0019 0001     		.2byte	0x100
 1004 001b 1A       		.byte	0x1a
 1005 001c 30       		.byte	0x30
 1006 001d 2E       		.byte	0x2e
 1007 001e 9F       		.byte	0x9f
 1008 001f 00000000 		.4byte	0
 1009 0023 00000000 		.4byte	0
 1010              	.LLST0:
 1011 0027 00000000 		.4byte	.LVL4
 1012 002b 10000000 		.4byte	.LVL5
 1013 002f 0100     		.2byte	0x1
 1014 0031 51       		.byte	0x51
 1015 0032 10000000 		.4byte	.LVL5
 1016 0036 30000000 		.4byte	.LFE115
 1017 003a 0400     		.2byte	0x4
 1018 003c F3       		.byte	0xf3
 1019 003d 01       		.uleb128 0x1
 1020 003e 51       		.byte	0x51
 1021 003f 9F       		.byte	0x9f
 1022 0040 00000000 		.4byte	0
 1023 0044 00000000 		.4byte	0
 1024              	.LLST1:
 1025 0048 00000000 		.4byte	.LVL4
 1026 004c 16000000 		.4byte	.LVL6
ARM GAS  /tmp/ccaqrZUC.s 			page 19


 1027 0050 0200     		.2byte	0x2
 1028 0052 30       		.byte	0x30
 1029 0053 9F       		.byte	0x9f
 1030 0054 16000000 		.4byte	.LVL6
 1031 0058 1A000000 		.4byte	.LVL7
 1032 005c 0500     		.2byte	0x5
 1033 005e 3F       		.byte	0x3f
 1034 005f 71       		.byte	0x71
 1035 0060 00       		.sleb128 0
 1036 0061 24       		.byte	0x24
 1037 0062 9F       		.byte	0x9f
 1038 0063 1A000000 		.4byte	.LVL7
 1039 0067 26000000 		.4byte	.LVL8
 1040 006b 0100     		.2byte	0x1
 1041 006d 54       		.byte	0x54
 1042 006e 26000000 		.4byte	.LVL8
 1043 0072 2A000000 		.4byte	.LVL9
 1044 0076 0500     		.2byte	0x5
 1045 0078 3F       		.byte	0x3f
 1046 0079 71       		.byte	0x71
 1047 007a 00       		.sleb128 0
 1048 007b 24       		.byte	0x24
 1049 007c 9F       		.byte	0x9f
 1050 007d 00000000 		.4byte	0
 1051 0081 00000000 		.4byte	0
 1052              		.section	.debug_aranges,"",%progbits
 1053 0000 4C000000 		.4byte	0x4c
 1054 0004 0200     		.2byte	0x2
 1055 0006 00000000 		.4byte	.Ldebug_info0
 1056 000a 04       		.byte	0x4
 1057 000b 00       		.byte	0
 1058 000c 0000     		.2byte	0
 1059 000e 0000     		.2byte	0
 1060 0010 00000000 		.4byte	.LFB112
 1061 0014 1A000000 		.4byte	.LFE112-.LFB112
 1062 0018 00000000 		.4byte	.LFB113
 1063 001c 0C000000 		.4byte	.LFE113-.LFB113
 1064 0020 00000000 		.4byte	.LFB114
 1065 0024 0C000000 		.4byte	.LFE114-.LFB114
 1066 0028 00000000 		.4byte	.LFB115
 1067 002c 30000000 		.4byte	.LFE115-.LFB115
 1068 0030 00000000 		.4byte	.LFB116
 1069 0034 0C000000 		.4byte	.LFE116-.LFB116
 1070 0038 00000000 		.4byte	.LFB117
 1071 003c 0C000000 		.4byte	.LFE117-.LFB117
 1072 0040 00000000 		.4byte	.LFB118
 1073 0044 10000000 		.4byte	.LFE118-.LFB118
 1074 0048 00000000 		.4byte	0
 1075 004c 00000000 		.4byte	0
 1076              		.section	.debug_ranges,"",%progbits
 1077              	.Ldebug_ranges0:
 1078 0000 00000000 		.4byte	.LFB112
 1079 0004 1A000000 		.4byte	.LFE112
 1080 0008 00000000 		.4byte	.LFB113
 1081 000c 0C000000 		.4byte	.LFE113
 1082 0010 00000000 		.4byte	.LFB114
 1083 0014 0C000000 		.4byte	.LFE114
ARM GAS  /tmp/ccaqrZUC.s 			page 20


 1084 0018 00000000 		.4byte	.LFB115
 1085 001c 30000000 		.4byte	.LFE115
 1086 0020 00000000 		.4byte	.LFB116
 1087 0024 0C000000 		.4byte	.LFE116
 1088 0028 00000000 		.4byte	.LFB117
 1089 002c 0C000000 		.4byte	.LFE117
 1090 0030 00000000 		.4byte	.LFB118
 1091 0034 10000000 		.4byte	.LFE118
 1092 0038 00000000 		.4byte	0
 1093 003c 00000000 		.4byte	0
 1094              		.section	.debug_line,"",%progbits
 1095              	.Ldebug_line0:
 1096 0000 05020000 		.section	.debug_str,"MS",%progbits,1
 1096      02007401 
 1096      00000201 
 1096      FB0E0D00 
 1096      01010101 
 1097              	.LASF4:
 1098 0000 5F5F7569 		.ascii	"__uint8_t\000"
 1098      6E74385F 
 1098      7400
 1099              	.LASF28:
 1100 000a 53595343 		.ascii	"SYSCFG_ETH_MediaInterfaceConfig\000"
 1100      46475F45 
 1100      54485F4D 
 1100      65646961 
 1100      496E7465 
 1101              	.LASF40:
 1102 002a 43686962 		.ascii	"ChibiOS_3.0.5/ext/stdperiph_stm32f4/src/stm32f4xx_s"
 1102      694F535F 
 1102      332E302E 
 1102      352F6578 
 1102      742F7374 
 1103 005d 79736366 		.ascii	"yscfg.c\000"
 1103      672E6300 
 1104              	.LASF5:
 1105 0065 5F5F696E 		.ascii	"__int32_t\000"
 1105      7433325F 
 1105      7400
 1106              	.LASF27:
 1107 006f 53595343 		.ascii	"SYSCFG_CompensationCellCmd\000"
 1107      46475F43 
 1107      6F6D7065 
 1107      6E736174 
 1107      696F6E43 
 1108              	.LASF41:
 1109 008a 2F626C64 		.ascii	"/bldc\000"
 1109      6300
 1110              	.LASF3:
 1111 0090 73686F72 		.ascii	"short unsigned int\000"
 1111      7420756E 
 1111      7369676E 
 1111      65642069 
 1111      6E7400
 1112              	.LASF42:
 1113 00a3 53595343 		.ascii	"SYSCFG_GetCompensationCellStatus\000"
 1113      46475F47 
ARM GAS  /tmp/ccaqrZUC.s 			page 21


 1113      6574436F 
 1113      6D70656E 
 1113      73617469 
 1114              	.LASF26:
 1115 00c4 46756E63 		.ascii	"FunctionalState\000"
 1115      74696F6E 
 1115      616C5374 
 1115      61746500 
 1116              	.LASF38:
 1117 00d4 53595343 		.ascii	"SYSCFG_DeInit\000"
 1117      46475F44 
 1117      65496E69 
 1117      7400
 1118              	.LASF30:
 1119 00e2 53595343 		.ascii	"SYSCFG_ETH_MediaInterface\000"
 1119      46475F45 
 1119      54485F4D 
 1119      65646961 
 1119      496E7465 
 1120              	.LASF7:
 1121 00fc 5F5F7569 		.ascii	"__uint32_t\000"
 1121      6E743332 
 1121      5F7400
 1122              	.LASF25:
 1123 0107 454E4142 		.ascii	"ENABLE\000"
 1123      4C4500
 1124              	.LASF31:
 1125 010e 53595343 		.ascii	"SYSCFG_EXTILineConfig\000"
 1125      46475F45 
 1125      5854494C 
 1125      696E6543 
 1125      6F6E6669 
 1126              	.LASF20:
 1127 0124 434D5043 		.ascii	"CMPCR\000"
 1127      5200
 1128              	.LASF1:
 1129 012a 756E7369 		.ascii	"unsigned char\000"
 1129      676E6564 
 1129      20636861 
 1129      7200
 1130              	.LASF23:
 1131 0138 466C6167 		.ascii	"FlagStatus\000"
 1131      53746174 
 1131      757300
 1132              	.LASF8:
 1133 0143 6C6F6E67 		.ascii	"long unsigned int\000"
 1133      20756E73 
 1133      69676E65 
 1133      6420696E 
 1133      7400
 1134              	.LASF17:
 1135 0155 4D454D52 		.ascii	"MEMRMP\000"
 1135      4D5000
 1136              	.LASF43:
 1137 015c 5243435F 		.ascii	"RCC_APB2PeriphResetCmd\000"
 1137      41504232 
 1137      50657269 
ARM GAS  /tmp/ccaqrZUC.s 			page 22


 1137      70685265 
 1137      73657443 
 1138              	.LASF15:
 1139 0173 49544D5F 		.ascii	"ITM_RxBuffer\000"
 1139      52784275 
 1139      66666572 
 1139      00
 1140              	.LASF33:
 1141 0180 45585449 		.ascii	"EXTI_PinSourcex\000"
 1141      5F50696E 
 1141      536F7572 
 1141      63657800 
 1142              	.LASF19:
 1143 0190 52455345 		.ascii	"RESERVED\000"
 1143      52564544 
 1143      00
 1144              	.LASF18:
 1145 0199 45585449 		.ascii	"EXTICR\000"
 1145      435200
 1146              	.LASF39:
 1147 01a0 474E5520 		.ascii	"GNU C99 7.3.1 20180622 (release) [ARM/embedded-7-br"
 1147      43393920 
 1147      372E332E 
 1147      31203230 
 1147      31383036 
 1148 01d3 616E6368 		.ascii	"anch revision 261907] -mcpu=cortex-m4 -mfloat-abi=h"
 1148      20726576 
 1148      6973696F 
 1148      6E203236 
 1148      31393037 
 1149 0206 61726420 		.ascii	"ard -mfpu=fpv4-sp-d16 -mno-thumb-interwork -mthumb "
 1149      2D6D6670 
 1149      753D6670 
 1149      76342D73 
 1149      702D6431 
 1150 0239 2D676764 		.ascii	"-ggdb -O2 -std=gnu99 -fomit-frame-pointer -falign-f"
 1150      62202D4F 
 1150      32202D73 
 1150      74643D67 
 1150      6E753939 
 1151 026c 756E6374 		.ascii	"unctions=16 -ffunction-sections -fdata-sections -fn"
 1151      696F6E73 
 1151      3D313620 
 1151      2D666675 
 1151      6E637469 
 1152 029f 6F2D636F 		.ascii	"o-common -fsingle-precision-constant\000"
 1152      6D6D6F6E 
 1152      202D6673 
 1152      696E676C 
 1152      652D7072 
 1153              	.LASF11:
 1154 02c4 756E7369 		.ascii	"unsigned int\000"
 1154      676E6564 
 1154      20696E74 
 1154      00
 1155              	.LASF22:
 1156 02d1 52455345 		.ascii	"RESET\000"
ARM GAS  /tmp/ccaqrZUC.s 			page 23


 1156      5400
 1157              	.LASF10:
 1158 02d7 6C6F6E67 		.ascii	"long long unsigned int\000"
 1158      206C6F6E 
 1158      6720756E 
 1158      7369676E 
 1158      65642069 
 1159              	.LASF12:
 1160 02ee 75696E74 		.ascii	"uint8_t\000"
 1160      385F7400 
 1161              	.LASF0:
 1162 02f6 7369676E 		.ascii	"signed char\000"
 1162      65642063 
 1162      68617200 
 1163              	.LASF13:
 1164 0302 696E7433 		.ascii	"int32_t\000"
 1164      325F7400 
 1165              	.LASF9:
 1166 030a 6C6F6E67 		.ascii	"long long int\000"
 1166      206C6F6E 
 1166      6720696E 
 1166      7400
 1167              	.LASF16:
 1168 0318 53797374 		.ascii	"SystemCoreClock\000"
 1168      656D436F 
 1168      7265436C 
 1168      6F636B00 
 1169              	.LASF37:
 1170 0328 53595343 		.ascii	"SYSCFG_MemoryRemap\000"
 1170      46475F4D 
 1170      656D6F72 
 1170      7952656D 
 1170      617000
 1171              	.LASF2:
 1172 033b 73686F72 		.ascii	"short int\000"
 1172      7420696E 
 1172      7400
 1173              	.LASF29:
 1174 0345 4E657753 		.ascii	"NewState\000"
 1174      74617465 
 1174      00
 1175              	.LASF21:
 1176 034e 53595343 		.ascii	"SYSCFG_TypeDef\000"
 1176      46475F54 
 1176      79706544 
 1176      656600
 1177              	.LASF32:
 1178 035d 45585449 		.ascii	"EXTI_PortSourceGPIOx\000"
 1178      5F506F72 
 1178      74536F75 
 1178      72636547 
 1178      50494F78 
 1179              	.LASF14:
 1180 0372 75696E74 		.ascii	"uint32_t\000"
 1180      33325F74 
 1180      00
 1181              	.LASF6:
ARM GAS  /tmp/ccaqrZUC.s 			page 24


 1182 037b 6C6F6E67 		.ascii	"long int\000"
 1182      20696E74 
 1182      00
 1183              	.LASF24:
 1184 0384 44495341 		.ascii	"DISABLE\000"
 1184      424C4500 
 1185              	.LASF34:
 1186 038c 62697473 		.ascii	"bitstatus\000"
 1186      74617475 
 1186      7300
 1187              	.LASF35:
 1188 0396 53595343 		.ascii	"SYSCFG_MemorySwappingBank\000"
 1188      46475F4D 
 1188      656D6F72 
 1188      79537761 
 1188      7070696E 
 1189              	.LASF36:
 1190 03b0 53595343 		.ascii	"SYSCFG_MemoryRemapConfig\000"
 1190      46475F4D 
 1190      656D6F72 
 1190      7952656D 
 1190      6170436F 
 1191              		.ident	"GCC: (GNU Tools for Arm Embedded Processors 7-2018-q3-update) 7.3.1 20180622 (release) [AR
ARM GAS  /tmp/ccaqrZUC.s 			page 25


DEFINED SYMBOLS
                            *ABS*:0000000000000000 stm32f4xx_syscfg.c
     /tmp/ccaqrZUC.s:18     .text.SYSCFG_DeInit:0000000000000000 $t
     /tmp/ccaqrZUC.s:26     .text.SYSCFG_DeInit:0000000000000000 SYSCFG_DeInit
     /tmp/ccaqrZUC.s:57     .text.SYSCFG_MemoryRemapConfig:0000000000000000 $t
     /tmp/ccaqrZUC.s:65     .text.SYSCFG_MemoryRemapConfig:0000000000000000 SYSCFG_MemoryRemapConfig
     /tmp/ccaqrZUC.s:81     .text.SYSCFG_MemoryRemapConfig:0000000000000008 $d
     /tmp/ccaqrZUC.s:86     .text.SYSCFG_MemorySwappingBank:0000000000000000 $t
     /tmp/ccaqrZUC.s:94     .text.SYSCFG_MemorySwappingBank:0000000000000000 SYSCFG_MemorySwappingBank
     /tmp/ccaqrZUC.s:110    .text.SYSCFG_MemorySwappingBank:0000000000000008 $d
     /tmp/ccaqrZUC.s:115    .text.SYSCFG_EXTILineConfig:0000000000000000 $t
     /tmp/ccaqrZUC.s:123    .text.SYSCFG_EXTILineConfig:0000000000000000 SYSCFG_EXTILineConfig
     /tmp/ccaqrZUC.s:170    .text.SYSCFG_ETH_MediaInterfaceConfig:0000000000000000 $t
     /tmp/ccaqrZUC.s:178    .text.SYSCFG_ETH_MediaInterfaceConfig:0000000000000000 SYSCFG_ETH_MediaInterfaceConfig
     /tmp/ccaqrZUC.s:194    .text.SYSCFG_ETH_MediaInterfaceConfig:0000000000000008 $d
     /tmp/ccaqrZUC.s:199    .text.SYSCFG_CompensationCellCmd:0000000000000000 $t
     /tmp/ccaqrZUC.s:207    .text.SYSCFG_CompensationCellCmd:0000000000000000 SYSCFG_CompensationCellCmd
     /tmp/ccaqrZUC.s:223    .text.SYSCFG_CompensationCellCmd:0000000000000008 $d
     /tmp/ccaqrZUC.s:228    .text.SYSCFG_GetCompensationCellStatus:0000000000000000 $t
     /tmp/ccaqrZUC.s:236    .text.SYSCFG_GetCompensationCellStatus:0000000000000000 SYSCFG_GetCompensationCellStatus
     /tmp/ccaqrZUC.s:255    .text.SYSCFG_GetCompensationCellStatus:000000000000000c $d

UNDEFINED SYMBOLS
RCC_APB2PeriphResetCmd
