ARM GAS  /tmp/ccF2L4A0.s 			page 1


   1              		.cpu cortex-m4
   2              		.eabi_attribute 27, 1
   3              		.eabi_attribute 28, 1
   4              		.eabi_attribute 20, 1
   5              		.eabi_attribute 21, 1
   6              		.eabi_attribute 23, 3
   7              		.eabi_attribute 24, 1
   8              		.eabi_attribute 25, 1
   9              		.eabi_attribute 26, 1
  10              		.eabi_attribute 30, 2
  11              		.eabi_attribute 34, 1
  12              		.eabi_attribute 18, 4
  13              		.file	"stm32f4xx_flash.c"
  14              		.text
  15              	.Ltext0:
  16              		.cfi_sections	.debug_frame
  17              		.section	.text.FLASH_SetLatency,"ax",%progbits
  18              		.align	1
  19              		.p2align 4,,15
  20              		.global	FLASH_SetLatency
  21              		.syntax unified
  22              		.thumb
  23              		.thumb_func
  24              		.fpu fpv4-sp-d16
  25              		.type	FLASH_SetLatency, %function
  26              	FLASH_SetLatency:
  27              	.LFB112:
  28              		.file 1 "ChibiOS_3.0.5/ext/stdperiph_stm32f4/src/stm32f4xx_flash.c"
  29              		.loc 1 290 0
  30              		.cfi_startproc
  31              		@ args = 0, pretend = 0, frame = 0
  32              		@ frame_needed = 0, uses_anonymous_args = 0
  33              		@ link register save eliminated.
  34              	.LVL0:
  35              		.loc 1 295 0
  36 0000 014B     		ldr	r3, .L3
  37 0002 C0B2     		uxtb	r0, r0
  38              	.LVL1:
  39 0004 1870     		strb	r0, [r3]
  40              		.loc 1 296 0
  41 0006 7047     		bx	lr
  42              	.L4:
  43              		.align	2
  44              	.L3:
  45 0008 003C0240 		.word	1073888256
  46              		.cfi_endproc
  47              	.LFE112:
  48              		.size	FLASH_SetLatency, .-FLASH_SetLatency
  49              		.section	.text.FLASH_PrefetchBufferCmd,"ax",%progbits
  50              		.align	1
  51              		.p2align 4,,15
  52              		.global	FLASH_PrefetchBufferCmd
  53              		.syntax unified
  54              		.thumb
  55              		.thumb_func
  56              		.fpu fpv4-sp-d16
  57              		.type	FLASH_PrefetchBufferCmd, %function
ARM GAS  /tmp/ccF2L4A0.s 			page 2


  58              	FLASH_PrefetchBufferCmd:
  59              	.LFB113:
  60              		.loc 1 305 0
  61              		.cfi_startproc
  62              		@ args = 0, pretend = 0, frame = 0
  63              		@ frame_needed = 0, uses_anonymous_args = 0
  64              		@ link register save eliminated.
  65              	.LVL2:
  66              		.loc 1 312 0
  67 0000 054A     		ldr	r2, .L9
  68 0002 1368     		ldr	r3, [r2]
  69              		.loc 1 310 0
  70 0004 18B9     		cbnz	r0, .L8
  71              		.loc 1 316 0
  72 0006 23F48073 		bic	r3, r3, #256
  73 000a 1360     		str	r3, [r2]
  74              		.loc 1 318 0
  75 000c 7047     		bx	lr
  76              	.L8:
  77              		.loc 1 312 0
  78 000e 43F48073 		orr	r3, r3, #256
  79 0012 1360     		str	r3, [r2]
  80 0014 7047     		bx	lr
  81              	.L10:
  82 0016 00BF     		.align	2
  83              	.L9:
  84 0018 003C0240 		.word	1073888256
  85              		.cfi_endproc
  86              	.LFE113:
  87              		.size	FLASH_PrefetchBufferCmd, .-FLASH_PrefetchBufferCmd
  88              		.section	.text.FLASH_InstructionCacheCmd,"ax",%progbits
  89              		.align	1
  90              		.p2align 4,,15
  91              		.global	FLASH_InstructionCacheCmd
  92              		.syntax unified
  93              		.thumb
  94              		.thumb_func
  95              		.fpu fpv4-sp-d16
  96              		.type	FLASH_InstructionCacheCmd, %function
  97              	FLASH_InstructionCacheCmd:
  98              	.LFB114:
  99              		.loc 1 327 0
 100              		.cfi_startproc
 101              		@ args = 0, pretend = 0, frame = 0
 102              		@ frame_needed = 0, uses_anonymous_args = 0
 103              		@ link register save eliminated.
 104              	.LVL3:
 105              		.loc 1 333 0
 106 0000 054A     		ldr	r2, .L15
 107 0002 1368     		ldr	r3, [r2]
 108              		.loc 1 331 0
 109 0004 18B9     		cbnz	r0, .L14
 110              		.loc 1 337 0
 111 0006 23F40073 		bic	r3, r3, #512
 112 000a 1360     		str	r3, [r2]
 113              		.loc 1 339 0
 114 000c 7047     		bx	lr
ARM GAS  /tmp/ccF2L4A0.s 			page 3


 115              	.L14:
 116              		.loc 1 333 0
 117 000e 43F40073 		orr	r3, r3, #512
 118 0012 1360     		str	r3, [r2]
 119 0014 7047     		bx	lr
 120              	.L16:
 121 0016 00BF     		.align	2
 122              	.L15:
 123 0018 003C0240 		.word	1073888256
 124              		.cfi_endproc
 125              	.LFE114:
 126              		.size	FLASH_InstructionCacheCmd, .-FLASH_InstructionCacheCmd
 127              		.section	.text.FLASH_DataCacheCmd,"ax",%progbits
 128              		.align	1
 129              		.p2align 4,,15
 130              		.global	FLASH_DataCacheCmd
 131              		.syntax unified
 132              		.thumb
 133              		.thumb_func
 134              		.fpu fpv4-sp-d16
 135              		.type	FLASH_DataCacheCmd, %function
 136              	FLASH_DataCacheCmd:
 137              	.LFB115:
 138              		.loc 1 348 0
 139              		.cfi_startproc
 140              		@ args = 0, pretend = 0, frame = 0
 141              		@ frame_needed = 0, uses_anonymous_args = 0
 142              		@ link register save eliminated.
 143              	.LVL4:
 144              		.loc 1 354 0
 145 0000 054A     		ldr	r2, .L21
 146 0002 1368     		ldr	r3, [r2]
 147              		.loc 1 352 0
 148 0004 18B9     		cbnz	r0, .L20
 149              		.loc 1 358 0
 150 0006 23F48063 		bic	r3, r3, #1024
 151 000a 1360     		str	r3, [r2]
 152              		.loc 1 360 0
 153 000c 7047     		bx	lr
 154              	.L20:
 155              		.loc 1 354 0
 156 000e 43F48063 		orr	r3, r3, #1024
 157 0012 1360     		str	r3, [r2]
 158 0014 7047     		bx	lr
 159              	.L22:
 160 0016 00BF     		.align	2
 161              	.L21:
 162 0018 003C0240 		.word	1073888256
 163              		.cfi_endproc
 164              	.LFE115:
 165              		.size	FLASH_DataCacheCmd, .-FLASH_DataCacheCmd
 166              		.section	.text.FLASH_InstructionCacheReset,"ax",%progbits
 167              		.align	1
 168              		.p2align 4,,15
 169              		.global	FLASH_InstructionCacheReset
 170              		.syntax unified
 171              		.thumb
ARM GAS  /tmp/ccF2L4A0.s 			page 4


 172              		.thumb_func
 173              		.fpu fpv4-sp-d16
 174              		.type	FLASH_InstructionCacheReset, %function
 175              	FLASH_InstructionCacheReset:
 176              	.LFB116:
 177              		.loc 1 369 0
 178              		.cfi_startproc
 179              		@ args = 0, pretend = 0, frame = 0
 180              		@ frame_needed = 0, uses_anonymous_args = 0
 181              		@ link register save eliminated.
 182              		.loc 1 370 0
 183 0000 024A     		ldr	r2, .L24
 184 0002 1368     		ldr	r3, [r2]
 185 0004 43F40063 		orr	r3, r3, #2048
 186 0008 1360     		str	r3, [r2]
 187              		.loc 1 371 0
 188 000a 7047     		bx	lr
 189              	.L25:
 190              		.align	2
 191              	.L24:
 192 000c 003C0240 		.word	1073888256
 193              		.cfi_endproc
 194              	.LFE116:
 195              		.size	FLASH_InstructionCacheReset, .-FLASH_InstructionCacheReset
 196              		.section	.text.FLASH_DataCacheReset,"ax",%progbits
 197              		.align	1
 198              		.p2align 4,,15
 199              		.global	FLASH_DataCacheReset
 200              		.syntax unified
 201              		.thumb
 202              		.thumb_func
 203              		.fpu fpv4-sp-d16
 204              		.type	FLASH_DataCacheReset, %function
 205              	FLASH_DataCacheReset:
 206              	.LFB117:
 207              		.loc 1 380 0
 208              		.cfi_startproc
 209              		@ args = 0, pretend = 0, frame = 0
 210              		@ frame_needed = 0, uses_anonymous_args = 0
 211              		@ link register save eliminated.
 212              		.loc 1 381 0
 213 0000 024A     		ldr	r2, .L27
 214 0002 1368     		ldr	r3, [r2]
 215 0004 43F48053 		orr	r3, r3, #4096
 216 0008 1360     		str	r3, [r2]
 217              		.loc 1 382 0
 218 000a 7047     		bx	lr
 219              	.L28:
 220              		.align	2
 221              	.L27:
 222 000c 003C0240 		.word	1073888256
 223              		.cfi_endproc
 224              	.LFE117:
 225              		.size	FLASH_DataCacheReset, .-FLASH_DataCacheReset
 226              		.section	.text.FLASH_Unlock,"ax",%progbits
 227              		.align	1
 228              		.p2align 4,,15
ARM GAS  /tmp/ccF2L4A0.s 			page 5


 229              		.global	FLASH_Unlock
 230              		.syntax unified
 231              		.thumb
 232              		.thumb_func
 233              		.fpu fpv4-sp-d16
 234              		.type	FLASH_Unlock, %function
 235              	FLASH_Unlock:
 236              	.LFB118:
 237              		.loc 1 427 0
 238              		.cfi_startproc
 239              		@ args = 0, pretend = 0, frame = 0
 240              		@ frame_needed = 0, uses_anonymous_args = 0
 241              		@ link register save eliminated.
 242              		.loc 1 428 0
 243 0000 044B     		ldr	r3, .L31
 244 0002 1A69     		ldr	r2, [r3, #16]
 245 0004 002A     		cmp	r2, #0
 246 0006 03DA     		bge	.L29
 247              		.loc 1 431 0
 248 0008 0349     		ldr	r1, .L31+4
 249              		.loc 1 432 0
 250 000a 044A     		ldr	r2, .L31+8
 251              		.loc 1 431 0
 252 000c 5960     		str	r1, [r3, #4]
 253              		.loc 1 432 0
 254 000e 5A60     		str	r2, [r3, #4]
 255              	.L29:
 256              		.loc 1 434 0
 257 0010 7047     		bx	lr
 258              	.L32:
 259 0012 00BF     		.align	2
 260              	.L31:
 261 0014 003C0240 		.word	1073888256
 262 0018 23016745 		.word	1164378403
 263 001c AB89EFCD 		.word	-839939669
 264              		.cfi_endproc
 265              	.LFE118:
 266              		.size	FLASH_Unlock, .-FLASH_Unlock
 267              		.section	.text.FLASH_Lock,"ax",%progbits
 268              		.align	1
 269              		.p2align 4,,15
 270              		.global	FLASH_Lock
 271              		.syntax unified
 272              		.thumb
 273              		.thumb_func
 274              		.fpu fpv4-sp-d16
 275              		.type	FLASH_Lock, %function
 276              	FLASH_Lock:
 277              	.LFB119:
 278              		.loc 1 442 0
 279              		.cfi_startproc
 280              		@ args = 0, pretend = 0, frame = 0
 281              		@ frame_needed = 0, uses_anonymous_args = 0
 282              		@ link register save eliminated.
 283              		.loc 1 444 0
 284 0000 024A     		ldr	r2, .L34
 285 0002 1369     		ldr	r3, [r2, #16]
ARM GAS  /tmp/ccF2L4A0.s 			page 6


 286 0004 43F00043 		orr	r3, r3, #-2147483648
 287 0008 1361     		str	r3, [r2, #16]
 288              		.loc 1 445 0
 289 000a 7047     		bx	lr
 290              	.L35:
 291              		.align	2
 292              	.L34:
 293 000c 003C0240 		.word	1073888256
 294              		.cfi_endproc
 295              	.LFE119:
 296              		.size	FLASH_Lock, .-FLASH_Lock
 297              		.section	.text.FLASH_OB_Unlock,"ax",%progbits
 298              		.align	1
 299              		.p2align 4,,15
 300              		.global	FLASH_OB_Unlock
 301              		.syntax unified
 302              		.thumb
 303              		.thumb_func
 304              		.fpu fpv4-sp-d16
 305              		.type	FLASH_OB_Unlock, %function
 306              	FLASH_OB_Unlock:
 307              	.LFB128:
 308              		.loc 1 984 0
 309              		.cfi_startproc
 310              		@ args = 0, pretend = 0, frame = 0
 311              		@ frame_needed = 0, uses_anonymous_args = 0
 312              		@ link register save eliminated.
 313              		.loc 1 985 0
 314 0000 044B     		ldr	r3, .L41
 315 0002 5A69     		ldr	r2, [r3, #20]
 316 0004 D207     		lsls	r2, r2, #31
 317 0006 03D5     		bpl	.L36
 318              		.loc 1 988 0
 319 0008 0349     		ldr	r1, .L41+4
 320              		.loc 1 989 0
 321 000a 044A     		ldr	r2, .L41+8
 322              		.loc 1 988 0
 323 000c 9960     		str	r1, [r3, #8]
 324              		.loc 1 989 0
 325 000e 9A60     		str	r2, [r3, #8]
 326              	.L36:
 327              		.loc 1 991 0
 328 0010 7047     		bx	lr
 329              	.L42:
 330 0012 00BF     		.align	2
 331              	.L41:
 332 0014 003C0240 		.word	1073888256
 333 0018 3B2A1908 		.word	135866939
 334 001c 7F6E5D4C 		.word	1281191551
 335              		.cfi_endproc
 336              	.LFE128:
 337              		.size	FLASH_OB_Unlock, .-FLASH_OB_Unlock
 338              		.section	.text.FLASH_OB_Lock,"ax",%progbits
 339              		.align	1
 340              		.p2align 4,,15
 341              		.global	FLASH_OB_Lock
 342              		.syntax unified
ARM GAS  /tmp/ccF2L4A0.s 			page 7


 343              		.thumb
 344              		.thumb_func
 345              		.fpu fpv4-sp-d16
 346              		.type	FLASH_OB_Lock, %function
 347              	FLASH_OB_Lock:
 348              	.LFB129:
 349              		.loc 1 999 0
 350              		.cfi_startproc
 351              		@ args = 0, pretend = 0, frame = 0
 352              		@ frame_needed = 0, uses_anonymous_args = 0
 353              		@ link register save eliminated.
 354              		.loc 1 1001 0
 355 0000 024A     		ldr	r2, .L44
 356 0002 5369     		ldr	r3, [r2, #20]
 357 0004 43F00103 		orr	r3, r3, #1
 358 0008 5361     		str	r3, [r2, #20]
 359              		.loc 1 1002 0
 360 000a 7047     		bx	lr
 361              	.L45:
 362              		.align	2
 363              	.L44:
 364 000c 003C0240 		.word	1073888256
 365              		.cfi_endproc
 366              	.LFE129:
 367              		.size	FLASH_OB_Lock, .-FLASH_OB_Lock
 368              		.section	.text.FLASH_OB_PCROPSelectionConfig,"ax",%progbits
 369              		.align	1
 370              		.p2align 4,,15
 371              		.global	FLASH_OB_PCROPSelectionConfig
 372              		.syntax unified
 373              		.thumb
 374              		.thumb_func
 375              		.fpu fpv4-sp-d16
 376              		.type	FLASH_OB_PCROPSelectionConfig, %function
 377              	FLASH_OB_PCROPSelectionConfig:
 378              	.LFB132:
 379              		.loc 1 1114 0
 380              		.cfi_startproc
 381              		@ args = 0, pretend = 0, frame = 0
 382              		@ frame_needed = 0, uses_anonymous_args = 0
 383              		@ link register save eliminated.
 384              	.LVL5:
 385              		.loc 1 1121 0
 386 0000 034A     		ldr	r2, .L47
 387 0002 1378     		ldrb	r3, [r2]	@ zero_extendqisi2
 388              	.LVL6:
 389 0004 03F07F03 		and	r3, r3, #127
 390              	.LVL7:
 391              		.loc 1 1123 0
 392 0008 1843     		orrs	r0, r0, r3
 393              	.LVL8:
 394 000a 1070     		strb	r0, [r2]
 395              		.loc 1 1125 0
 396 000c 7047     		bx	lr
 397              	.L48:
 398 000e 00BF     		.align	2
 399              	.L47:
ARM GAS  /tmp/ccF2L4A0.s 			page 8


 400 0010 173C0240 		.word	1073888279
 401              		.cfi_endproc
 402              	.LFE132:
 403              		.size	FLASH_OB_PCROPSelectionConfig, .-FLASH_OB_PCROPSelectionConfig
 404              		.section	.text.FLASH_OB_BootConfig,"ax",%progbits
 405              		.align	1
 406              		.p2align 4,,15
 407              		.global	FLASH_OB_BootConfig
 408              		.syntax unified
 409              		.thumb
 410              		.thumb_func
 411              		.fpu fpv4-sp-d16
 412              		.type	FLASH_OB_BootConfig, %function
 413              	FLASH_OB_BootConfig:
 414              	.LFB137:
 415              		.loc 1 1290 0
 416              		.cfi_startproc
 417              		@ args = 0, pretend = 0, frame = 0
 418              		@ frame_needed = 0, uses_anonymous_args = 0
 419              		@ link register save eliminated.
 420              	.LVL9:
 421              		.loc 1 1295 0
 422 0000 044B     		ldr	r3, .L50
 423 0002 1A78     		ldrb	r2, [r3]	@ zero_extendqisi2
 424 0004 02F0EF02 		and	r2, r2, #239
 425 0008 1A70     		strb	r2, [r3]
 426              		.loc 1 1296 0
 427 000a 1A78     		ldrb	r2, [r3]	@ zero_extendqisi2
 428 000c 1043     		orrs	r0, r0, r2
 429              	.LVL10:
 430 000e 1870     		strb	r0, [r3]
 431              		.loc 1 1298 0
 432 0010 7047     		bx	lr
 433              	.L51:
 434 0012 00BF     		.align	2
 435              	.L50:
 436 0014 143C0240 		.word	1073888276
 437              		.cfi_endproc
 438              	.LFE137:
 439              		.size	FLASH_OB_BootConfig, .-FLASH_OB_BootConfig
 440              		.section	.text.FLASH_OB_BORConfig,"ax",%progbits
 441              		.align	1
 442              		.p2align 4,,15
 443              		.global	FLASH_OB_BORConfig
 444              		.syntax unified
 445              		.thumb
 446              		.thumb_func
 447              		.fpu fpv4-sp-d16
 448              		.type	FLASH_OB_BORConfig, %function
 449              	FLASH_OB_BORConfig:
 450              	.LFB138:
 451              		.loc 1 1311 0
 452              		.cfi_startproc
 453              		@ args = 0, pretend = 0, frame = 0
 454              		@ frame_needed = 0, uses_anonymous_args = 0
 455              		@ link register save eliminated.
 456              	.LVL11:
ARM GAS  /tmp/ccF2L4A0.s 			page 9


 457              		.loc 1 1316 0
 458 0000 044B     		ldr	r3, .L53
 459 0002 1A78     		ldrb	r2, [r3]	@ zero_extendqisi2
 460 0004 02F0F302 		and	r2, r2, #243
 461 0008 1A70     		strb	r2, [r3]
 462              		.loc 1 1317 0
 463 000a 1A78     		ldrb	r2, [r3]	@ zero_extendqisi2
 464 000c 1043     		orrs	r0, r0, r2
 465              	.LVL12:
 466 000e 1870     		strb	r0, [r3]
 467              		.loc 1 1319 0
 468 0010 7047     		bx	lr
 469              	.L54:
 470 0012 00BF     		.align	2
 471              	.L53:
 472 0014 143C0240 		.word	1073888276
 473              		.cfi_endproc
 474              	.LFE138:
 475              		.size	FLASH_OB_BORConfig, .-FLASH_OB_BORConfig
 476              		.section	.text.FLASH_OB_GetUser,"ax",%progbits
 477              		.align	1
 478              		.p2align 4,,15
 479              		.global	FLASH_OB_GetUser
 480              		.syntax unified
 481              		.thumb
 482              		.thumb_func
 483              		.fpu fpv4-sp-d16
 484              		.type	FLASH_OB_GetUser, %function
 485              	FLASH_OB_GetUser:
 486              	.LFB140:
 487              		.loc 1 1347 0
 488              		.cfi_startproc
 489              		@ args = 0, pretend = 0, frame = 0
 490              		@ frame_needed = 0, uses_anonymous_args = 0
 491              		@ link register save eliminated.
 492              		.loc 1 1349 0
 493 0000 024B     		ldr	r3, .L56
 494 0002 5869     		ldr	r0, [r3, #20]
 495              		.loc 1 1350 0
 496 0004 C0F34710 		ubfx	r0, r0, #5, #8
 497 0008 7047     		bx	lr
 498              	.L57:
 499 000a 00BF     		.align	2
 500              	.L56:
 501 000c 003C0240 		.word	1073888256
 502              		.cfi_endproc
 503              	.LFE140:
 504              		.size	FLASH_OB_GetUser, .-FLASH_OB_GetUser
 505              		.section	.text.FLASH_OB_GetWRP,"ax",%progbits
 506              		.align	1
 507              		.p2align 4,,15
 508              		.global	FLASH_OB_GetWRP
 509              		.syntax unified
 510              		.thumb
 511              		.thumb_func
 512              		.fpu fpv4-sp-d16
 513              		.type	FLASH_OB_GetWRP, %function
ARM GAS  /tmp/ccF2L4A0.s 			page 10


 514              	FLASH_OB_GetWRP:
 515              	.LFB141:
 516              		.loc 1 1358 0
 517              		.cfi_startproc
 518              		@ args = 0, pretend = 0, frame = 0
 519              		@ frame_needed = 0, uses_anonymous_args = 0
 520              		@ link register save eliminated.
 521              		.loc 1 1360 0
 522 0000 014B     		ldr	r3, .L59
 523 0002 1888     		ldrh	r0, [r3]
 524              		.loc 1 1361 0
 525 0004 7047     		bx	lr
 526              	.L60:
 527 0006 00BF     		.align	2
 528              	.L59:
 529 0008 163C0240 		.word	1073888278
 530              		.cfi_endproc
 531              	.LFE141:
 532              		.size	FLASH_OB_GetWRP, .-FLASH_OB_GetWRP
 533              		.section	.text.FLASH_OB_GetWRP1,"ax",%progbits
 534              		.align	1
 535              		.p2align 4,,15
 536              		.global	FLASH_OB_GetWRP1
 537              		.syntax unified
 538              		.thumb
 539              		.thumb_func
 540              		.fpu fpv4-sp-d16
 541              		.type	FLASH_OB_GetWRP1, %function
 542              	FLASH_OB_GetWRP1:
 543              	.LFB142:
 544              		.loc 1 1372 0
 545              		.cfi_startproc
 546              		@ args = 0, pretend = 0, frame = 0
 547              		@ frame_needed = 0, uses_anonymous_args = 0
 548              		@ link register save eliminated.
 549              		.loc 1 1374 0
 550 0000 014B     		ldr	r3, .L62
 551 0002 1888     		ldrh	r0, [r3]
 552              		.loc 1 1375 0
 553 0004 7047     		bx	lr
 554              	.L63:
 555 0006 00BF     		.align	2
 556              	.L62:
 557 0008 1A3C0240 		.word	1073888282
 558              		.cfi_endproc
 559              	.LFE142:
 560              		.size	FLASH_OB_GetWRP1, .-FLASH_OB_GetWRP1
 561              		.section	.text.FLASH_OB_GetPCROP,"ax",%progbits
 562              		.align	1
 563              		.p2align 4,,15
 564              		.global	FLASH_OB_GetPCROP
 565              		.syntax unified
 566              		.thumb
 567              		.thumb_func
 568              		.fpu fpv4-sp-d16
 569              		.type	FLASH_OB_GetPCROP, %function
 570              	FLASH_OB_GetPCROP:
ARM GAS  /tmp/ccF2L4A0.s 			page 11


 571              	.LFB156:
 572              		.cfi_startproc
 573              		@ args = 0, pretend = 0, frame = 0
 574              		@ frame_needed = 0, uses_anonymous_args = 0
 575              		@ link register save eliminated.
 576 0000 014B     		ldr	r3, .L65
 577 0002 1888     		ldrh	r0, [r3]
 578 0004 7047     		bx	lr
 579              	.L66:
 580 0006 00BF     		.align	2
 581              	.L65:
 582 0008 163C0240 		.word	1073888278
 583              		.cfi_endproc
 584              	.LFE156:
 585              		.size	FLASH_OB_GetPCROP, .-FLASH_OB_GetPCROP
 586              		.section	.text.FLASH_OB_GetPCROP1,"ax",%progbits
 587              		.align	1
 588              		.p2align 4,,15
 589              		.global	FLASH_OB_GetPCROP1
 590              		.syntax unified
 591              		.thumb
 592              		.thumb_func
 593              		.fpu fpv4-sp-d16
 594              		.type	FLASH_OB_GetPCROP1, %function
 595              	FLASH_OB_GetPCROP1:
 596              	.LFB158:
 597              		.cfi_startproc
 598              		@ args = 0, pretend = 0, frame = 0
 599              		@ frame_needed = 0, uses_anonymous_args = 0
 600              		@ link register save eliminated.
 601 0000 014B     		ldr	r3, .L68
 602 0002 1888     		ldrh	r0, [r3]
 603 0004 7047     		bx	lr
 604              	.L69:
 605 0006 00BF     		.align	2
 606              	.L68:
 607 0008 1A3C0240 		.word	1073888282
 608              		.cfi_endproc
 609              	.LFE158:
 610              		.size	FLASH_OB_GetPCROP1, .-FLASH_OB_GetPCROP1
 611              		.section	.text.FLASH_OB_GetRDP,"ax",%progbits
 612              		.align	1
 613              		.p2align 4,,15
 614              		.global	FLASH_OB_GetRDP
 615              		.syntax unified
 616              		.thumb
 617              		.thumb_func
 618              		.fpu fpv4-sp-d16
 619              		.type	FLASH_OB_GetRDP, %function
 620              	FLASH_OB_GetRDP:
 621              	.LFB145:
 622              		.loc 1 1413 0
 623              		.cfi_startproc
 624              		@ args = 0, pretend = 0, frame = 0
 625              		@ frame_needed = 0, uses_anonymous_args = 0
 626              		@ link register save eliminated.
 627              	.LVL13:
ARM GAS  /tmp/ccF2L4A0.s 			page 12


 628              		.loc 1 1416 0
 629 0000 024B     		ldr	r3, .L71
 630 0002 1878     		ldrb	r0, [r3]	@ zero_extendqisi2
 631              	.LVL14:
 632              		.loc 1 1425 0
 633 0004 AA38     		subs	r0, r0, #170
 634              	.LVL15:
 635 0006 18BF     		it	ne
 636 0008 0120     		movne	r0, #1
 637 000a 7047     		bx	lr
 638              	.L72:
 639              		.align	2
 640              	.L71:
 641 000c 153C0240 		.word	1073888277
 642              		.cfi_endproc
 643              	.LFE145:
 644              		.size	FLASH_OB_GetRDP, .-FLASH_OB_GetRDP
 645              		.section	.text.FLASH_OB_GetBOR,"ax",%progbits
 646              		.align	1
 647              		.p2align 4,,15
 648              		.global	FLASH_OB_GetBOR
 649              		.syntax unified
 650              		.thumb
 651              		.thumb_func
 652              		.fpu fpv4-sp-d16
 653              		.type	FLASH_OB_GetBOR, %function
 654              	FLASH_OB_GetBOR:
 655              	.LFB146:
 656              		.loc 1 1437 0
 657              		.cfi_startproc
 658              		@ args = 0, pretend = 0, frame = 0
 659              		@ frame_needed = 0, uses_anonymous_args = 0
 660              		@ link register save eliminated.
 661              		.loc 1 1439 0
 662 0000 024B     		ldr	r3, .L74
 663 0002 1878     		ldrb	r0, [r3]	@ zero_extendqisi2
 664              		.loc 1 1440 0
 665 0004 00F00C00 		and	r0, r0, #12
 666 0008 7047     		bx	lr
 667              	.L75:
 668 000a 00BF     		.align	2
 669              	.L74:
 670 000c 143C0240 		.word	1073888276
 671              		.cfi_endproc
 672              	.LFE146:
 673              		.size	FLASH_OB_GetBOR, .-FLASH_OB_GetBOR
 674              		.section	.text.FLASH_ITConfig,"ax",%progbits
 675              		.align	1
 676              		.p2align 4,,15
 677              		.global	FLASH_ITConfig
 678              		.syntax unified
 679              		.thumb
 680              		.thumb_func
 681              		.fpu fpv4-sp-d16
 682              		.type	FLASH_ITConfig, %function
 683              	FLASH_ITConfig:
 684              	.LFB147:
ARM GAS  /tmp/ccF2L4A0.s 			page 13


 685              		.loc 1 1466 0
 686              		.cfi_startproc
 687              		@ args = 0, pretend = 0, frame = 0
 688              		@ frame_needed = 0, uses_anonymous_args = 0
 689              		@ link register save eliminated.
 690              	.LVL16:
 691              		.loc 1 1474 0
 692 0000 044A     		ldr	r2, .L80
 693 0002 1369     		ldr	r3, [r2, #16]
 694              		.loc 1 1471 0
 695 0004 19B9     		cbnz	r1, .L79
 696              		.loc 1 1479 0
 697 0006 23EA0000 		bic	r0, r3, r0
 698              	.LVL17:
 699 000a 1061     		str	r0, [r2, #16]
 700              		.loc 1 1481 0
 701 000c 7047     		bx	lr
 702              	.LVL18:
 703              	.L79:
 704              		.loc 1 1474 0
 705 000e 1843     		orrs	r0, r0, r3
 706              	.LVL19:
 707 0010 1061     		str	r0, [r2, #16]
 708 0012 7047     		bx	lr
 709              	.L81:
 710              		.align	2
 711              	.L80:
 712 0014 003C0240 		.word	1073888256
 713              		.cfi_endproc
 714              	.LFE147:
 715              		.size	FLASH_ITConfig, .-FLASH_ITConfig
 716              		.section	.text.FLASH_GetFlagStatus,"ax",%progbits
 717              		.align	1
 718              		.p2align 4,,15
 719              		.global	FLASH_GetFlagStatus
 720              		.syntax unified
 721              		.thumb
 722              		.thumb_func
 723              		.fpu fpv4-sp-d16
 724              		.type	FLASH_GetFlagStatus, %function
 725              	FLASH_GetFlagStatus:
 726              	.LFB148:
 727              		.loc 1 1498 0
 728              		.cfi_startproc
 729              		@ args = 0, pretend = 0, frame = 0
 730              		@ frame_needed = 0, uses_anonymous_args = 0
 731              		@ link register save eliminated.
 732              	.LVL20:
 733              		.loc 1 1503 0
 734 0000 034B     		ldr	r3, .L83
 735 0002 DB68     		ldr	r3, [r3, #12]
 736              	.LVL21:
 737 0004 0342     		tst	r3, r0
 738              		.loc 1 1513 0
 739 0006 14BF     		ite	ne
 740 0008 0120     		movne	r0, #1
 741              	.LVL22:
ARM GAS  /tmp/ccF2L4A0.s 			page 14


 742 000a 0020     		moveq	r0, #0
 743 000c 7047     		bx	lr
 744              	.L84:
 745 000e 00BF     		.align	2
 746              	.L83:
 747 0010 003C0240 		.word	1073888256
 748              		.cfi_endproc
 749              	.LFE148:
 750              		.size	FLASH_GetFlagStatus, .-FLASH_GetFlagStatus
 751              		.section	.text.FLASH_ClearFlag,"ax",%progbits
 752              		.align	1
 753              		.p2align 4,,15
 754              		.global	FLASH_ClearFlag
 755              		.syntax unified
 756              		.thumb
 757              		.thumb_func
 758              		.fpu fpv4-sp-d16
 759              		.type	FLASH_ClearFlag, %function
 760              	FLASH_ClearFlag:
 761              	.LFB149:
 762              		.loc 1 1529 0
 763              		.cfi_startproc
 764              		@ args = 0, pretend = 0, frame = 0
 765              		@ frame_needed = 0, uses_anonymous_args = 0
 766              		@ link register save eliminated.
 767              	.LVL23:
 768              		.loc 1 1534 0
 769 0000 014B     		ldr	r3, .L86
 770 0002 D860     		str	r0, [r3, #12]
 771              		.loc 1 1535 0
 772 0004 7047     		bx	lr
 773              	.L87:
 774 0006 00BF     		.align	2
 775              	.L86:
 776 0008 003C0240 		.word	1073888256
 777              		.cfi_endproc
 778              	.LFE149:
 779              		.size	FLASH_ClearFlag, .-FLASH_ClearFlag
 780              		.section	.text.FLASH_GetStatus,"ax",%progbits
 781              		.align	1
 782              		.p2align 4,,15
 783              		.global	FLASH_GetStatus
 784              		.syntax unified
 785              		.thumb
 786              		.thumb_func
 787              		.fpu fpv4-sp-d16
 788              		.type	FLASH_GetStatus, %function
 789              	FLASH_GetStatus:
 790              	.LFB150:
 791              		.loc 1 1544 0
 792              		.cfi_startproc
 793              		@ args = 0, pretend = 0, frame = 0
 794              		@ frame_needed = 0, uses_anonymous_args = 0
 795              		@ link register save eliminated.
 796              	.LVL24:
 797              		.loc 1 1547 0
 798 0000 0E4B     		ldr	r3, .L95
ARM GAS  /tmp/ccF2L4A0.s 			page 15


 799 0002 DA68     		ldr	r2, [r3, #12]
 800 0004 D203     		lsls	r2, r2, #15
 801 0006 10D4     		bmi	.L90
 802              		.loc 1 1553 0
 803 0008 DA68     		ldr	r2, [r3, #12]
 804 000a D106     		lsls	r1, r2, #27
 805 000c 0FD4     		bmi	.L91
 806              		.loc 1 1559 0
 807 000e DA68     		ldr	r2, [r3, #12]
 808 0010 D205     		lsls	r2, r2, #23
 809 0012 10D4     		bmi	.L92
 810              		.loc 1 1565 0
 811 0014 DA68     		ldr	r2, [r3, #12]
 812 0016 12F0E00F 		tst	r2, #224
 813 001a 0AD1     		bne	.L93
 814              	.LBB4:
 815              	.LBB5:
 816              		.loc 1 1571 0
 817 001c DB68     		ldr	r3, [r3, #12]
 818 001e 13F0020F 		tst	r3, #2
 819              		.loc 1 1577 0
 820 0022 14BF     		ite	ne
 821 0024 0820     		movne	r0, #8
 822 0026 0920     		moveq	r0, #9
 823 0028 7047     		bx	lr
 824              	.L90:
 825              	.LBE5:
 826              	.LBE4:
 827              		.loc 1 1549 0
 828 002a 0120     		movs	r0, #1
 829 002c 7047     		bx	lr
 830              	.L91:
 831              		.loc 1 1555 0
 832 002e 0620     		movs	r0, #6
 833 0030 7047     		bx	lr
 834              	.L93:
 835              		.loc 1 1567 0
 836 0032 0720     		movs	r0, #7
 837              	.LVL25:
 838              		.loc 1 1585 0
 839 0034 7047     		bx	lr
 840              	.LVL26:
 841              	.L92:
 842              		.loc 1 1561 0
 843 0036 0220     		movs	r0, #2
 844 0038 7047     		bx	lr
 845              	.L96:
 846 003a 00BF     		.align	2
 847              	.L95:
 848 003c 003C0240 		.word	1073888256
 849              		.cfi_endproc
 850              	.LFE150:
 851              		.size	FLASH_GetStatus, .-FLASH_GetStatus
 852              		.section	.text.FLASH_WaitForLastOperation,"ax",%progbits
 853              		.align	1
 854              		.p2align 4,,15
 855              		.global	FLASH_WaitForLastOperation
ARM GAS  /tmp/ccF2L4A0.s 			page 16


 856              		.syntax unified
 857              		.thumb
 858              		.thumb_func
 859              		.fpu fpv4-sp-d16
 860              		.type	FLASH_WaitForLastOperation, %function
 861              	FLASH_WaitForLastOperation:
 862              	.LFB151:
 863              		.loc 1 1594 0
 864              		.cfi_startproc
 865              		@ args = 0, pretend = 0, frame = 8
 866              		@ frame_needed = 0, uses_anonymous_args = 0
 867 0000 00B5     		push	{lr}
 868              		.cfi_def_cfa_offset 4
 869              		.cfi_offset 14, -4
 870 0002 83B0     		sub	sp, sp, #12
 871              		.cfi_def_cfa_offset 16
 872              		.loc 1 1595 0
 873 0004 0923     		movs	r3, #9
 874 0006 8DF80730 		strb	r3, [sp, #7]
 875              	.L103:
 876              		.loc 1 1598 0
 877 000a FFF7FEFF 		bl	FLASH_GetStatus
 878              	.LVL27:
 879 000e 8DF80700 		strb	r0, [sp, #7]
 880              		.loc 1 1603 0
 881 0012 9DF80730 		ldrb	r3, [sp, #7]	@ zero_extendqisi2
 882 0016 012B     		cmp	r3, #1
 883 0018 F7D0     		beq	.L103
 884              		.loc 1 1608 0
 885 001a 9DF80700 		ldrb	r0, [sp, #7]	@ zero_extendqisi2
 886              		.loc 1 1609 0
 887 001e 03B0     		add	sp, sp, #12
 888              		.cfi_def_cfa_offset 4
 889              		@ sp needed
 890 0020 5DF804FB 		ldr	pc, [sp], #4
 891              		.cfi_endproc
 892              	.LFE151:
 893              		.size	FLASH_WaitForLastOperation, .-FLASH_WaitForLastOperation
 894              		.section	.text.FLASH_EraseSector,"ax",%progbits
 895              		.align	1
 896              		.p2align 4,,15
 897              		.global	FLASH_EraseSector
 898              		.syntax unified
 899              		.thumb
 900              		.thumb_func
 901              		.fpu fpv4-sp-d16
 902              		.type	FLASH_EraseSector, %function
 903              	FLASH_EraseSector:
 904              	.LFB120:
 905              		.loc 1 485 0
 906              		.cfi_startproc
 907              		@ args = 0, pretend = 0, frame = 0
 908              		@ frame_needed = 0, uses_anonymous_args = 0
 909              	.LVL28:
 910 0000 70B5     		push	{r4, r5, r6, lr}
 911              		.cfi_def_cfa_offset 16
 912              		.cfi_offset 4, -16
ARM GAS  /tmp/ccF2L4A0.s 			page 17


 913              		.cfi_offset 5, -12
 914              		.cfi_offset 6, -8
 915              		.cfi_offset 14, -4
 916              		.loc 1 485 0
 917 0002 0646     		mov	r6, r0
 918              		.loc 1 493 0
 919 0004 61B1     		cbz	r1, .L107
 920              		.loc 1 497 0
 921 0006 0129     		cmp	r1, #1
 922 0008 2FD0     		beq	.L108
 923              		.loc 1 501 0
 924 000a 0229     		cmp	r1, #2
 925              		.loc 1 507 0
 926 000c 0CBF     		ite	eq
 927 000e 4FF40074 		moveq	r4, #512
 928 0012 4FF44074 		movne	r4, #768
 929              	.LVL29:
 930              		.loc 1 510 0
 931 0016 FFF7FEFF 		bl	FLASH_WaitForLastOperation
 932              	.LVL30:
 933              		.loc 1 512 0
 934 001a 0928     		cmp	r0, #9
 935 001c 05D0     		beq	.L111
 936              	.L106:
 937              		.loc 1 530 0
 938 001e 70BD     		pop	{r4, r5, r6, pc}
 939              	.LVL31:
 940              	.L107:
 941              		.loc 1 495 0
 942 0020 0C46     		mov	r4, r1
 943              	.L105:
 944              	.LVL32:
 945              		.loc 1 510 0
 946 0022 FFF7FEFF 		bl	FLASH_WaitForLastOperation
 947              	.LVL33:
 948              		.loc 1 512 0
 949 0026 0928     		cmp	r0, #9
 950 0028 F9D1     		bne	.L106
 951              	.L111:
 952              		.loc 1 515 0
 953 002a 114D     		ldr	r5, .L112
 954 002c 2B69     		ldr	r3, [r5, #16]
 955 002e 23F44073 		bic	r3, r3, #768
 956 0032 2B61     		str	r3, [r5, #16]
 957              		.loc 1 516 0
 958 0034 2969     		ldr	r1, [r5, #16]
 959 0036 2143     		orrs	r1, r1, r4
 960 0038 2961     		str	r1, [r5, #16]
 961              		.loc 1 517 0
 962 003a 2B69     		ldr	r3, [r5, #16]
 963 003c 23F0F803 		bic	r3, r3, #248
 964 0040 2B61     		str	r3, [r5, #16]
 965              		.loc 1 518 0
 966 0042 2869     		ldr	r0, [r5, #16]
 967              	.LVL34:
 968 0044 40F00200 		orr	r0, r0, #2
 969 0048 3043     		orrs	r0, r0, r6
ARM GAS  /tmp/ccF2L4A0.s 			page 18


 970 004a 2861     		str	r0, [r5, #16]
 971              		.loc 1 519 0
 972 004c 2B69     		ldr	r3, [r5, #16]
 973 004e 43F48033 		orr	r3, r3, #65536
 974 0052 2B61     		str	r3, [r5, #16]
 975              		.loc 1 522 0
 976 0054 FFF7FEFF 		bl	FLASH_WaitForLastOperation
 977              	.LVL35:
 978              		.loc 1 525 0
 979 0058 2B69     		ldr	r3, [r5, #16]
 980 005a 23F00203 		bic	r3, r3, #2
 981 005e 2B61     		str	r3, [r5, #16]
 982              		.loc 1 526 0
 983 0060 2B69     		ldr	r3, [r5, #16]
 984 0062 23F0F803 		bic	r3, r3, #248
 985 0066 2B61     		str	r3, [r5, #16]
 986              		.loc 1 530 0
 987 0068 70BD     		pop	{r4, r5, r6, pc}
 988              	.LVL36:
 989              	.L108:
 990              		.loc 1 499 0
 991 006a 4FF48074 		mov	r4, #256
 992 006e D8E7     		b	.L105
 993              	.L113:
 994              		.align	2
 995              	.L112:
 996 0070 003C0240 		.word	1073888256
 997              		.cfi_endproc
 998              	.LFE120:
 999              		.size	FLASH_EraseSector, .-FLASH_EraseSector
 1000              		.section	.text.FLASH_EraseAllSectors,"ax",%progbits
 1001              		.align	1
 1002              		.p2align 4,,15
 1003              		.global	FLASH_EraseAllSectors
 1004              		.syntax unified
 1005              		.thumb
 1006              		.thumb_func
 1007              		.fpu fpv4-sp-d16
 1008              		.type	FLASH_EraseAllSectors, %function
 1009              	FLASH_EraseAllSectors:
 1010              	.LFB121:
 1011              		.loc 1 553 0
 1012              		.cfi_startproc
 1013              		@ args = 0, pretend = 0, frame = 0
 1014              		@ frame_needed = 0, uses_anonymous_args = 0
 1015              	.LVL37:
 1016 0000 38B5     		push	{r3, r4, r5, lr}
 1017              		.cfi_def_cfa_offset 16
 1018              		.cfi_offset 3, -16
 1019              		.cfi_offset 4, -12
 1020              		.cfi_offset 5, -8
 1021              		.cfi_offset 14, -4
 1022              		.loc 1 553 0
 1023 0002 0446     		mov	r4, r0
 1024              		.loc 1 558 0
 1025 0004 FFF7FEFF 		bl	FLASH_WaitForLastOperation
 1026              	.LVL38:
ARM GAS  /tmp/ccF2L4A0.s 			page 19


 1027              		.loc 1 561 0
 1028 0008 3CB1     		cbz	r4, .L115
 1029              		.loc 1 565 0
 1030 000a 012C     		cmp	r4, #1
 1031 000c 1FD0     		beq	.L118
 1032              		.loc 1 569 0
 1033 000e 022C     		cmp	r4, #2
 1034              		.loc 1 575 0
 1035 0010 0CBF     		ite	eq
 1036 0012 4FF40074 		moveq	r4, #512
 1037 0016 4FF44074 		movne	r4, #768
 1038              	.L115:
 1039              	.LVL39:
 1040              		.loc 1 577 0
 1041 001a 0928     		cmp	r0, #9
 1042 001c 00D0     		beq	.L121
 1043              	.L116:
 1044              		.loc 1 609 0
 1045 001e 38BD     		pop	{r3, r4, r5, pc}
 1046              	.LVL40:
 1047              	.L121:
 1048              		.loc 1 594 0
 1049 0020 0D4D     		ldr	r5, .L122
 1050 0022 2B69     		ldr	r3, [r5, #16]
 1051 0024 23F44073 		bic	r3, r3, #768
 1052 0028 2B61     		str	r3, [r5, #16]
 1053              		.loc 1 595 0
 1054 002a 2B69     		ldr	r3, [r5, #16]
 1055 002c 1C43     		orrs	r4, r4, r3
 1056              	.LVL41:
 1057 002e 2C61     		str	r4, [r5, #16]
 1058              		.loc 1 596 0
 1059 0030 2B69     		ldr	r3, [r5, #16]
 1060 0032 43F00403 		orr	r3, r3, #4
 1061 0036 2B61     		str	r3, [r5, #16]
 1062              		.loc 1 597 0
 1063 0038 2B69     		ldr	r3, [r5, #16]
 1064 003a 43F48033 		orr	r3, r3, #65536
 1065 003e 2B61     		str	r3, [r5, #16]
 1066              		.loc 1 600 0
 1067 0040 FFF7FEFF 		bl	FLASH_WaitForLastOperation
 1068              	.LVL42:
 1069              		.loc 1 603 0
 1070 0044 2B69     		ldr	r3, [r5, #16]
 1071 0046 23F00403 		bic	r3, r3, #4
 1072 004a 2B61     		str	r3, [r5, #16]
 1073              		.loc 1 609 0
 1074 004c 38BD     		pop	{r3, r4, r5, pc}
 1075              	.LVL43:
 1076              	.L118:
 1077              		.loc 1 577 0
 1078 004e 0928     		cmp	r0, #9
 1079              		.loc 1 567 0
 1080 0050 4FF48074 		mov	r4, #256
 1081              	.LVL44:
 1082              		.loc 1 577 0
 1083 0054 E3D1     		bne	.L116
ARM GAS  /tmp/ccF2L4A0.s 			page 20


 1084 0056 E3E7     		b	.L121
 1085              	.L123:
 1086              		.align	2
 1087              	.L122:
 1088 0058 003C0240 		.word	1073888256
 1089              		.cfi_endproc
 1090              	.LFE121:
 1091              		.size	FLASH_EraseAllSectors, .-FLASH_EraseAllSectors
 1092              		.section	.text.FLASH_EraseAllBank1Sectors,"ax",%progbits
 1093              		.align	1
 1094              		.p2align 4,,15
 1095              		.global	FLASH_EraseAllBank1Sectors
 1096              		.syntax unified
 1097              		.thumb
 1098              		.thumb_func
 1099              		.fpu fpv4-sp-d16
 1100              		.type	FLASH_EraseAllBank1Sectors, %function
 1101              	FLASH_EraseAllBank1Sectors:
 1102              	.LFB154:
 1103              		.cfi_startproc
 1104              		@ args = 0, pretend = 0, frame = 0
 1105              		@ frame_needed = 0, uses_anonymous_args = 0
 1106              		@ link register save eliminated.
 1107 0000 FFF7FEBF 		b	FLASH_EraseAllSectors
 1108              		.cfi_endproc
 1109              	.LFE154:
 1110              		.size	FLASH_EraseAllBank1Sectors, .-FLASH_EraseAllBank1Sectors
 1111              		.section	.text.FLASH_EraseAllBank2Sectors,"ax",%progbits
 1112              		.align	1
 1113              		.p2align 4,,15
 1114              		.global	FLASH_EraseAllBank2Sectors
 1115              		.syntax unified
 1116              		.thumb
 1117              		.thumb_func
 1118              		.fpu fpv4-sp-d16
 1119              		.type	FLASH_EraseAllBank2Sectors, %function
 1120              	FLASH_EraseAllBank2Sectors:
 1121              	.LFB123:
 1122              		.loc 1 701 0
 1123              		.cfi_startproc
 1124              		@ args = 0, pretend = 0, frame = 0
 1125              		@ frame_needed = 0, uses_anonymous_args = 0
 1126              	.LVL45:
 1127              		.loc 1 701 0
 1128 0000 38B5     		push	{r3, r4, r5, lr}
 1129              		.cfi_def_cfa_offset 16
 1130              		.cfi_offset 3, -16
 1131              		.cfi_offset 4, -12
 1132              		.cfi_offset 5, -8
 1133              		.cfi_offset 14, -4
 1134              		.loc 1 701 0
 1135 0002 0446     		mov	r4, r0
 1136              		.loc 1 706 0
 1137 0004 FFF7FEFF 		bl	FLASH_WaitForLastOperation
 1138              	.LVL46:
 1139              		.loc 1 709 0
 1140 0008 3CB1     		cbz	r4, .L126
ARM GAS  /tmp/ccF2L4A0.s 			page 21


 1141              		.loc 1 713 0
 1142 000a 012C     		cmp	r4, #1
 1143 000c 1FD0     		beq	.L129
 1144              		.loc 1 717 0
 1145 000e 022C     		cmp	r4, #2
 1146              		.loc 1 723 0
 1147 0010 0CBF     		ite	eq
 1148 0012 4FF40074 		moveq	r4, #512
 1149 0016 4FF44074 		movne	r4, #768
 1150              	.L126:
 1151              	.LVL47:
 1152              		.loc 1 725 0
 1153 001a 0928     		cmp	r0, #9
 1154 001c 00D0     		beq	.L132
 1155              	.L127:
 1156              		.loc 1 742 0
 1157 001e 38BD     		pop	{r3, r4, r5, pc}
 1158              	.LVL48:
 1159              	.L132:
 1160              		.loc 1 728 0
 1161 0020 0D4D     		ldr	r5, .L133
 1162 0022 2B69     		ldr	r3, [r5, #16]
 1163 0024 23F44073 		bic	r3, r3, #768
 1164 0028 2B61     		str	r3, [r5, #16]
 1165              		.loc 1 729 0
 1166 002a 2B69     		ldr	r3, [r5, #16]
 1167 002c 1C43     		orrs	r4, r4, r3
 1168              	.LVL49:
 1169 002e 2C61     		str	r4, [r5, #16]
 1170              		.loc 1 730 0
 1171 0030 2B69     		ldr	r3, [r5, #16]
 1172 0032 43F40043 		orr	r3, r3, #32768
 1173 0036 2B61     		str	r3, [r5, #16]
 1174              		.loc 1 731 0
 1175 0038 2B69     		ldr	r3, [r5, #16]
 1176 003a 43F48033 		orr	r3, r3, #65536
 1177 003e 2B61     		str	r3, [r5, #16]
 1178              		.loc 1 734 0
 1179 0040 FFF7FEFF 		bl	FLASH_WaitForLastOperation
 1180              	.LVL50:
 1181              		.loc 1 737 0
 1182 0044 2B69     		ldr	r3, [r5, #16]
 1183 0046 23F40043 		bic	r3, r3, #32768
 1184 004a 2B61     		str	r3, [r5, #16]
 1185              		.loc 1 742 0
 1186 004c 38BD     		pop	{r3, r4, r5, pc}
 1187              	.LVL51:
 1188              	.L129:
 1189              		.loc 1 725 0
 1190 004e 0928     		cmp	r0, #9
 1191              		.loc 1 715 0
 1192 0050 4FF48074 		mov	r4, #256
 1193              	.LVL52:
 1194              		.loc 1 725 0
 1195 0054 E3D1     		bne	.L127
 1196 0056 E3E7     		b	.L132
 1197              	.L134:
ARM GAS  /tmp/ccF2L4A0.s 			page 22


 1198              		.align	2
 1199              	.L133:
 1200 0058 003C0240 		.word	1073888256
 1201              		.cfi_endproc
 1202              	.LFE123:
 1203              		.size	FLASH_EraseAllBank2Sectors, .-FLASH_EraseAllBank2Sectors
 1204              		.section	.text.FLASH_ProgramDoubleWord,"ax",%progbits
 1205              		.align	1
 1206              		.p2align 4,,15
 1207              		.global	FLASH_ProgramDoubleWord
 1208              		.syntax unified
 1209              		.thumb
 1210              		.thumb_func
 1211              		.fpu fpv4-sp-d16
 1212              		.type	FLASH_ProgramDoubleWord, %function
 1213              	FLASH_ProgramDoubleWord:
 1214              	.LFB124:
 1215              		.loc 1 758 0
 1216              		.cfi_startproc
 1217              		@ args = 0, pretend = 0, frame = 0
 1218              		@ frame_needed = 0, uses_anonymous_args = 0
 1219              	.LVL53:
 1220 0000 F8B5     		push	{r3, r4, r5, r6, r7, lr}
 1221              		.cfi_def_cfa_offset 24
 1222              		.cfi_offset 3, -24
 1223              		.cfi_offset 4, -20
 1224              		.cfi_offset 5, -16
 1225              		.cfi_offset 6, -12
 1226              		.cfi_offset 7, -8
 1227              		.cfi_offset 14, -4
 1228              		.loc 1 758 0
 1229 0002 0546     		mov	r5, r0
 1230 0004 1646     		mov	r6, r2
 1231 0006 1F46     		mov	r7, r3
 1232              		.loc 1 765 0
 1233 0008 FFF7FEFF 		bl	FLASH_WaitForLastOperation
 1234              	.LVL54:
 1235              		.loc 1 767 0
 1236 000c 0928     		cmp	r0, #9
 1237 000e 00D0     		beq	.L138
 1238              		.loc 1 784 0
 1239 0010 F8BD     		pop	{r3, r4, r5, r6, r7, pc}
 1240              	.LVL55:
 1241              	.L138:
 1242              		.loc 1 770 0
 1243 0012 0B4C     		ldr	r4, .L139
 1244 0014 2369     		ldr	r3, [r4, #16]
 1245 0016 23F44073 		bic	r3, r3, #768
 1246 001a 2361     		str	r3, [r4, #16]
 1247              		.loc 1 771 0
 1248 001c 2369     		ldr	r3, [r4, #16]
 1249 001e 43F44073 		orr	r3, r3, #768
 1250 0022 2361     		str	r3, [r4, #16]
 1251              		.loc 1 772 0
 1252 0024 2369     		ldr	r3, [r4, #16]
 1253 0026 43F00103 		orr	r3, r3, #1
 1254 002a 2361     		str	r3, [r4, #16]
ARM GAS  /tmp/ccF2L4A0.s 			page 23


 1255              		.loc 1 774 0
 1256 002c C5E90067 		strd	r6, [r5]
 1257              		.loc 1 777 0
 1258 0030 FFF7FEFF 		bl	FLASH_WaitForLastOperation
 1259              	.LVL56:
 1260              		.loc 1 780 0
 1261 0034 2369     		ldr	r3, [r4, #16]
 1262 0036 23F00103 		bic	r3, r3, #1
 1263 003a 2361     		str	r3, [r4, #16]
 1264              		.loc 1 784 0
 1265 003c F8BD     		pop	{r3, r4, r5, r6, r7, pc}
 1266              	.LVL57:
 1267              	.L140:
 1268 003e 00BF     		.align	2
 1269              	.L139:
 1270 0040 003C0240 		.word	1073888256
 1271              		.cfi_endproc
 1272              	.LFE124:
 1273              		.size	FLASH_ProgramDoubleWord, .-FLASH_ProgramDoubleWord
 1274              		.section	.text.FLASH_ProgramWord,"ax",%progbits
 1275              		.align	1
 1276              		.p2align 4,,15
 1277              		.global	FLASH_ProgramWord
 1278              		.syntax unified
 1279              		.thumb
 1280              		.thumb_func
 1281              		.fpu fpv4-sp-d16
 1282              		.type	FLASH_ProgramWord, %function
 1283              	FLASH_ProgramWord:
 1284              	.LFB125:
 1285              		.loc 1 801 0
 1286              		.cfi_startproc
 1287              		@ args = 0, pretend = 0, frame = 0
 1288              		@ frame_needed = 0, uses_anonymous_args = 0
 1289              	.LVL58:
 1290 0000 70B5     		push	{r4, r5, r6, lr}
 1291              		.cfi_def_cfa_offset 16
 1292              		.cfi_offset 4, -16
 1293              		.cfi_offset 5, -12
 1294              		.cfi_offset 6, -8
 1295              		.cfi_offset 14, -4
 1296              		.loc 1 801 0
 1297 0002 0546     		mov	r5, r0
 1298 0004 0E46     		mov	r6, r1
 1299              		.loc 1 808 0
 1300 0006 FFF7FEFF 		bl	FLASH_WaitForLastOperation
 1301              	.LVL59:
 1302              		.loc 1 810 0
 1303 000a 0928     		cmp	r0, #9
 1304 000c 00D0     		beq	.L144
 1305              		.loc 1 827 0
 1306 000e 70BD     		pop	{r4, r5, r6, pc}
 1307              	.LVL60:
 1308              	.L144:
 1309              		.loc 1 813 0
 1310 0010 0A4C     		ldr	r4, .L145
 1311 0012 2369     		ldr	r3, [r4, #16]
ARM GAS  /tmp/ccF2L4A0.s 			page 24


 1312 0014 23F44073 		bic	r3, r3, #768
 1313 0018 2361     		str	r3, [r4, #16]
 1314              		.loc 1 814 0
 1315 001a 2369     		ldr	r3, [r4, #16]
 1316 001c 43F40073 		orr	r3, r3, #512
 1317 0020 2361     		str	r3, [r4, #16]
 1318              		.loc 1 815 0
 1319 0022 2369     		ldr	r3, [r4, #16]
 1320 0024 43F00103 		orr	r3, r3, #1
 1321 0028 2361     		str	r3, [r4, #16]
 1322              		.loc 1 817 0
 1323 002a 2E60     		str	r6, [r5]
 1324              		.loc 1 820 0
 1325 002c FFF7FEFF 		bl	FLASH_WaitForLastOperation
 1326              	.LVL61:
 1327              		.loc 1 823 0
 1328 0030 2369     		ldr	r3, [r4, #16]
 1329 0032 23F00103 		bic	r3, r3, #1
 1330 0036 2361     		str	r3, [r4, #16]
 1331              		.loc 1 827 0
 1332 0038 70BD     		pop	{r4, r5, r6, pc}
 1333              	.LVL62:
 1334              	.L146:
 1335 003a 00BF     		.align	2
 1336              	.L145:
 1337 003c 003C0240 		.word	1073888256
 1338              		.cfi_endproc
 1339              	.LFE125:
 1340              		.size	FLASH_ProgramWord, .-FLASH_ProgramWord
 1341              		.section	.text.FLASH_ProgramHalfWord,"ax",%progbits
 1342              		.align	1
 1343              		.p2align 4,,15
 1344              		.global	FLASH_ProgramHalfWord
 1345              		.syntax unified
 1346              		.thumb
 1347              		.thumb_func
 1348              		.fpu fpv4-sp-d16
 1349              		.type	FLASH_ProgramHalfWord, %function
 1350              	FLASH_ProgramHalfWord:
 1351              	.LFB126:
 1352              		.loc 1 843 0
 1353              		.cfi_startproc
 1354              		@ args = 0, pretend = 0, frame = 0
 1355              		@ frame_needed = 0, uses_anonymous_args = 0
 1356              	.LVL63:
 1357 0000 70B5     		push	{r4, r5, r6, lr}
 1358              		.cfi_def_cfa_offset 16
 1359              		.cfi_offset 4, -16
 1360              		.cfi_offset 5, -12
 1361              		.cfi_offset 6, -8
 1362              		.cfi_offset 14, -4
 1363              		.loc 1 843 0
 1364 0002 0546     		mov	r5, r0
 1365 0004 0E46     		mov	r6, r1
 1366              		.loc 1 850 0
 1367 0006 FFF7FEFF 		bl	FLASH_WaitForLastOperation
 1368              	.LVL64:
ARM GAS  /tmp/ccF2L4A0.s 			page 25


 1369              		.loc 1 852 0
 1370 000a 0928     		cmp	r0, #9
 1371 000c 00D0     		beq	.L150
 1372              		.loc 1 869 0
 1373 000e 70BD     		pop	{r4, r5, r6, pc}
 1374              	.LVL65:
 1375              	.L150:
 1376              		.loc 1 855 0
 1377 0010 0A4C     		ldr	r4, .L151
 1378 0012 2369     		ldr	r3, [r4, #16]
 1379 0014 23F44073 		bic	r3, r3, #768
 1380 0018 2361     		str	r3, [r4, #16]
 1381              		.loc 1 856 0
 1382 001a 2369     		ldr	r3, [r4, #16]
 1383 001c 43F48073 		orr	r3, r3, #256
 1384 0020 2361     		str	r3, [r4, #16]
 1385              		.loc 1 857 0
 1386 0022 2369     		ldr	r3, [r4, #16]
 1387 0024 43F00103 		orr	r3, r3, #1
 1388 0028 2361     		str	r3, [r4, #16]
 1389              		.loc 1 859 0
 1390 002a 2E80     		strh	r6, [r5]	@ movhi
 1391              		.loc 1 862 0
 1392 002c FFF7FEFF 		bl	FLASH_WaitForLastOperation
 1393              	.LVL66:
 1394              		.loc 1 865 0
 1395 0030 2369     		ldr	r3, [r4, #16]
 1396 0032 23F00103 		bic	r3, r3, #1
 1397 0036 2361     		str	r3, [r4, #16]
 1398              		.loc 1 869 0
 1399 0038 70BD     		pop	{r4, r5, r6, pc}
 1400              	.LVL67:
 1401              	.L152:
 1402 003a 00BF     		.align	2
 1403              	.L151:
 1404 003c 003C0240 		.word	1073888256
 1405              		.cfi_endproc
 1406              	.LFE126:
 1407              		.size	FLASH_ProgramHalfWord, .-FLASH_ProgramHalfWord
 1408              		.section	.text.FLASH_ProgramByte,"ax",%progbits
 1409              		.align	1
 1410              		.p2align 4,,15
 1411              		.global	FLASH_ProgramByte
 1412              		.syntax unified
 1413              		.thumb
 1414              		.thumb_func
 1415              		.fpu fpv4-sp-d16
 1416              		.type	FLASH_ProgramByte, %function
 1417              	FLASH_ProgramByte:
 1418              	.LFB127:
 1419              		.loc 1 885 0
 1420              		.cfi_startproc
 1421              		@ args = 0, pretend = 0, frame = 0
 1422              		@ frame_needed = 0, uses_anonymous_args = 0
 1423              	.LVL68:
 1424 0000 70B5     		push	{r4, r5, r6, lr}
 1425              		.cfi_def_cfa_offset 16
ARM GAS  /tmp/ccF2L4A0.s 			page 26


 1426              		.cfi_offset 4, -16
 1427              		.cfi_offset 5, -12
 1428              		.cfi_offset 6, -8
 1429              		.cfi_offset 14, -4
 1430              		.loc 1 885 0
 1431 0002 0546     		mov	r5, r0
 1432 0004 0E46     		mov	r6, r1
 1433              		.loc 1 892 0
 1434 0006 FFF7FEFF 		bl	FLASH_WaitForLastOperation
 1435              	.LVL69:
 1436              		.loc 1 894 0
 1437 000a 0928     		cmp	r0, #9
 1438 000c 00D0     		beq	.L156
 1439              		.loc 1 912 0
 1440 000e 70BD     		pop	{r4, r5, r6, pc}
 1441              	.LVL70:
 1442              	.L156:
 1443              		.loc 1 897 0
 1444 0010 094C     		ldr	r4, .L157
 1445 0012 2369     		ldr	r3, [r4, #16]
 1446 0014 23F44073 		bic	r3, r3, #768
 1447 0018 2361     		str	r3, [r4, #16]
 1448              		.loc 1 898 0
 1449 001a 2369     		ldr	r3, [r4, #16]
 1450 001c 2361     		str	r3, [r4, #16]
 1451              		.loc 1 899 0
 1452 001e 2369     		ldr	r3, [r4, #16]
 1453 0020 43F00103 		orr	r3, r3, #1
 1454 0024 2361     		str	r3, [r4, #16]
 1455              		.loc 1 901 0
 1456 0026 2E70     		strb	r6, [r5]
 1457              		.loc 1 904 0
 1458 0028 FFF7FEFF 		bl	FLASH_WaitForLastOperation
 1459              	.LVL71:
 1460              		.loc 1 907 0
 1461 002c 2369     		ldr	r3, [r4, #16]
 1462 002e 23F00103 		bic	r3, r3, #1
 1463 0032 2361     		str	r3, [r4, #16]
 1464              		.loc 1 912 0
 1465 0034 70BD     		pop	{r4, r5, r6, pc}
 1466              	.LVL72:
 1467              	.L158:
 1468 0036 00BF     		.align	2
 1469              	.L157:
 1470 0038 003C0240 		.word	1073888256
 1471              		.cfi_endproc
 1472              	.LFE127:
 1473              		.size	FLASH_ProgramByte, .-FLASH_ProgramByte
 1474              		.section	.text.FLASH_OB_WRPConfig,"ax",%progbits
 1475              		.align	1
 1476              		.p2align 4,,15
 1477              		.global	FLASH_OB_WRPConfig
 1478              		.syntax unified
 1479              		.thumb
 1480              		.thumb_func
 1481              		.fpu fpv4-sp-d16
 1482              		.type	FLASH_OB_WRPConfig, %function
ARM GAS  /tmp/ccF2L4A0.s 			page 27


 1483              	FLASH_OB_WRPConfig:
 1484              	.LFB130:
 1485              		.loc 1 1022 0
 1486              		.cfi_startproc
 1487              		@ args = 0, pretend = 0, frame = 0
 1488              		@ frame_needed = 0, uses_anonymous_args = 0
 1489              	.LVL73:
 1490 0000 38B5     		push	{r3, r4, r5, lr}
 1491              		.cfi_def_cfa_offset 16
 1492              		.cfi_offset 3, -16
 1493              		.cfi_offset 4, -12
 1494              		.cfi_offset 5, -8
 1495              		.cfi_offset 14, -4
 1496              		.loc 1 1022 0
 1497 0002 0446     		mov	r4, r0
 1498 0004 0D46     		mov	r5, r1
 1499              		.loc 1 1029 0
 1500 0006 FFF7FEFF 		bl	FLASH_WaitForLastOperation
 1501              	.LVL74:
 1502              		.loc 1 1031 0
 1503 000a 0928     		cmp	r0, #9
 1504 000c 00D0     		beq	.L163
 1505              		.loc 1 1042 0
 1506 000e 38BD     		pop	{r3, r4, r5, pc}
 1507              	.LVL75:
 1508              	.L163:
 1509 0010 A4B2     		uxth	r4, r4
 1510              	.LVL76:
 1511              		.loc 1 1033 0
 1512 0012 25B9     		cbnz	r5, .L164
 1513              		.loc 1 1039 0
 1514 0014 054B     		ldr	r3, .L165
 1515 0016 1A88     		ldrh	r2, [r3]
 1516 0018 1443     		orrs	r4, r4, r2
 1517 001a 1C80     		strh	r4, [r3]	@ movhi
 1518              		.loc 1 1042 0
 1519 001c 38BD     		pop	{r3, r4, r5, pc}
 1520              	.L164:
 1521              		.loc 1 1035 0
 1522 001e 034A     		ldr	r2, .L165
 1523 0020 1388     		ldrh	r3, [r2]
 1524 0022 23EA0404 		bic	r4, r3, r4
 1525 0026 1480     		strh	r4, [r2]	@ movhi
 1526              		.loc 1 1042 0
 1527 0028 38BD     		pop	{r3, r4, r5, pc}
 1528              	.L166:
 1529 002a 00BF     		.align	2
 1530              	.L165:
 1531 002c 163C0240 		.word	1073888278
 1532              		.cfi_endproc
 1533              	.LFE130:
 1534              		.size	FLASH_OB_WRPConfig, .-FLASH_OB_WRPConfig
 1535              		.section	.text.FLASH_OB_WRP1Config,"ax",%progbits
 1536              		.align	1
 1537              		.p2align 4,,15
 1538              		.global	FLASH_OB_WRP1Config
 1539              		.syntax unified
ARM GAS  /tmp/ccF2L4A0.s 			page 28


 1540              		.thumb
 1541              		.thumb_func
 1542              		.fpu fpv4-sp-d16
 1543              		.type	FLASH_OB_WRP1Config, %function
 1544              	FLASH_OB_WRP1Config:
 1545              	.LFB131:
 1546              		.loc 1 1064 0
 1547              		.cfi_startproc
 1548              		@ args = 0, pretend = 0, frame = 0
 1549              		@ frame_needed = 0, uses_anonymous_args = 0
 1550              	.LVL77:
 1551 0000 38B5     		push	{r3, r4, r5, lr}
 1552              		.cfi_def_cfa_offset 16
 1553              		.cfi_offset 3, -16
 1554              		.cfi_offset 4, -12
 1555              		.cfi_offset 5, -8
 1556              		.cfi_offset 14, -4
 1557              		.loc 1 1064 0
 1558 0002 0446     		mov	r4, r0
 1559 0004 0D46     		mov	r5, r1
 1560              		.loc 1 1071 0
 1561 0006 FFF7FEFF 		bl	FLASH_WaitForLastOperation
 1562              	.LVL78:
 1563              		.loc 1 1073 0
 1564 000a 0928     		cmp	r0, #9
 1565 000c 00D0     		beq	.L171
 1566              		.loc 1 1084 0
 1567 000e 38BD     		pop	{r3, r4, r5, pc}
 1568              	.LVL79:
 1569              	.L171:
 1570 0010 A4B2     		uxth	r4, r4
 1571              	.LVL80:
 1572              		.loc 1 1075 0
 1573 0012 25B9     		cbnz	r5, .L172
 1574              		.loc 1 1081 0
 1575 0014 054B     		ldr	r3, .L173
 1576 0016 1A88     		ldrh	r2, [r3]
 1577 0018 1443     		orrs	r4, r4, r2
 1578 001a 1C80     		strh	r4, [r3]	@ movhi
 1579              		.loc 1 1084 0
 1580 001c 38BD     		pop	{r3, r4, r5, pc}
 1581              	.L172:
 1582              		.loc 1 1077 0
 1583 001e 034A     		ldr	r2, .L173
 1584 0020 1388     		ldrh	r3, [r2]
 1585 0022 23EA0404 		bic	r4, r3, r4
 1586 0026 1480     		strh	r4, [r2]	@ movhi
 1587              		.loc 1 1084 0
 1588 0028 38BD     		pop	{r3, r4, r5, pc}
 1589              	.L174:
 1590 002a 00BF     		.align	2
 1591              	.L173:
 1592 002c 1A3C0240 		.word	1073888282
 1593              		.cfi_endproc
 1594              	.LFE131:
 1595              		.size	FLASH_OB_WRP1Config, .-FLASH_OB_WRP1Config
 1596              		.section	.text.FLASH_OB_PCROPConfig,"ax",%progbits
ARM GAS  /tmp/ccF2L4A0.s 			page 29


 1597              		.align	1
 1598              		.p2align 4,,15
 1599              		.global	FLASH_OB_PCROPConfig
 1600              		.syntax unified
 1601              		.thumb
 1602              		.thumb_func
 1603              		.fpu fpv4-sp-d16
 1604              		.type	FLASH_OB_PCROPConfig, %function
 1605              	FLASH_OB_PCROPConfig:
 1606              	.LFB133:
 1607              		.loc 1 1144 0
 1608              		.cfi_startproc
 1609              		@ args = 0, pretend = 0, frame = 0
 1610              		@ frame_needed = 0, uses_anonymous_args = 0
 1611              	.LVL81:
 1612 0000 38B5     		push	{r3, r4, r5, lr}
 1613              		.cfi_def_cfa_offset 16
 1614              		.cfi_offset 3, -16
 1615              		.cfi_offset 4, -12
 1616              		.cfi_offset 5, -8
 1617              		.cfi_offset 14, -4
 1618              		.loc 1 1144 0
 1619 0002 0446     		mov	r4, r0
 1620 0004 0D46     		mov	r5, r1
 1621              		.loc 1 1151 0
 1622 0006 FFF7FEFF 		bl	FLASH_WaitForLastOperation
 1623              	.LVL82:
 1624              		.loc 1 1153 0
 1625 000a 0928     		cmp	r0, #9
 1626 000c 00D0     		beq	.L179
 1627              		.loc 1 1164 0
 1628 000e 38BD     		pop	{r3, r4, r5, pc}
 1629              	.LVL83:
 1630              	.L179:
 1631 0010 A4B2     		uxth	r4, r4
 1632              	.LVL84:
 1633              		.loc 1 1155 0
 1634 0012 2DB9     		cbnz	r5, .L180
 1635              		.loc 1 1161 0
 1636 0014 054A     		ldr	r2, .L181
 1637 0016 1388     		ldrh	r3, [r2]
 1638 0018 23EA0404 		bic	r4, r3, r4
 1639 001c 1480     		strh	r4, [r2]	@ movhi
 1640              		.loc 1 1164 0
 1641 001e 38BD     		pop	{r3, r4, r5, pc}
 1642              	.L180:
 1643              		.loc 1 1157 0
 1644 0020 024B     		ldr	r3, .L181
 1645 0022 1A88     		ldrh	r2, [r3]
 1646 0024 1443     		orrs	r4, r4, r2
 1647 0026 1C80     		strh	r4, [r3]	@ movhi
 1648              		.loc 1 1164 0
 1649 0028 38BD     		pop	{r3, r4, r5, pc}
 1650              	.L182:
 1651 002a 00BF     		.align	2
 1652              	.L181:
 1653 002c 163C0240 		.word	1073888278
ARM GAS  /tmp/ccF2L4A0.s 			page 30


 1654              		.cfi_endproc
 1655              	.LFE133:
 1656              		.size	FLASH_OB_PCROPConfig, .-FLASH_OB_PCROPConfig
 1657              		.section	.text.FLASH_OB_PCROP1Config,"ax",%progbits
 1658              		.align	1
 1659              		.p2align 4,,15
 1660              		.global	FLASH_OB_PCROP1Config
 1661              		.syntax unified
 1662              		.thumb
 1663              		.thumb_func
 1664              		.fpu fpv4-sp-d16
 1665              		.type	FLASH_OB_PCROP1Config, %function
 1666              	FLASH_OB_PCROP1Config:
 1667              	.LFB134:
 1668              		.loc 1 1181 0
 1669              		.cfi_startproc
 1670              		@ args = 0, pretend = 0, frame = 0
 1671              		@ frame_needed = 0, uses_anonymous_args = 0
 1672              	.LVL85:
 1673 0000 38B5     		push	{r3, r4, r5, lr}
 1674              		.cfi_def_cfa_offset 16
 1675              		.cfi_offset 3, -16
 1676              		.cfi_offset 4, -12
 1677              		.cfi_offset 5, -8
 1678              		.cfi_offset 14, -4
 1679              		.loc 1 1181 0
 1680 0002 0446     		mov	r4, r0
 1681 0004 0D46     		mov	r5, r1
 1682              		.loc 1 1188 0
 1683 0006 FFF7FEFF 		bl	FLASH_WaitForLastOperation
 1684              	.LVL86:
 1685              		.loc 1 1190 0
 1686 000a 0928     		cmp	r0, #9
 1687 000c 00D0     		beq	.L187
 1688              		.loc 1 1201 0
 1689 000e 38BD     		pop	{r3, r4, r5, pc}
 1690              	.LVL87:
 1691              	.L187:
 1692 0010 A4B2     		uxth	r4, r4
 1693              	.LVL88:
 1694              		.loc 1 1192 0
 1695 0012 2DB9     		cbnz	r5, .L188
 1696              		.loc 1 1198 0
 1697 0014 054A     		ldr	r2, .L189
 1698 0016 1388     		ldrh	r3, [r2]
 1699 0018 23EA0404 		bic	r4, r3, r4
 1700 001c 1480     		strh	r4, [r2]	@ movhi
 1701              		.loc 1 1201 0
 1702 001e 38BD     		pop	{r3, r4, r5, pc}
 1703              	.L188:
 1704              		.loc 1 1194 0
 1705 0020 024B     		ldr	r3, .L189
 1706 0022 1A88     		ldrh	r2, [r3]
 1707 0024 1443     		orrs	r4, r4, r2
 1708 0026 1C80     		strh	r4, [r3]	@ movhi
 1709              		.loc 1 1201 0
 1710 0028 38BD     		pop	{r3, r4, r5, pc}
ARM GAS  /tmp/ccF2L4A0.s 			page 31


 1711              	.L190:
 1712 002a 00BF     		.align	2
 1713              	.L189:
 1714 002c 1A3C0240 		.word	1073888282
 1715              		.cfi_endproc
 1716              	.LFE134:
 1717              		.size	FLASH_OB_PCROP1Config, .-FLASH_OB_PCROP1Config
 1718              		.section	.text.FLASH_OB_RDPConfig,"ax",%progbits
 1719              		.align	1
 1720              		.p2align 4,,15
 1721              		.global	FLASH_OB_RDPConfig
 1722              		.syntax unified
 1723              		.thumb
 1724              		.thumb_func
 1725              		.fpu fpv4-sp-d16
 1726              		.type	FLASH_OB_RDPConfig, %function
 1727              	FLASH_OB_RDPConfig:
 1728              	.LFB135:
 1729              		.loc 1 1217 0
 1730              		.cfi_startproc
 1731              		@ args = 0, pretend = 0, frame = 0
 1732              		@ frame_needed = 0, uses_anonymous_args = 0
 1733              	.LVL89:
 1734 0000 10B5     		push	{r4, lr}
 1735              		.cfi_def_cfa_offset 8
 1736              		.cfi_offset 4, -8
 1737              		.cfi_offset 14, -4
 1738              		.loc 1 1217 0
 1739 0002 0446     		mov	r4, r0
 1740              		.loc 1 1223 0
 1741 0004 FFF7FEFF 		bl	FLASH_WaitForLastOperation
 1742              	.LVL90:
 1743              		.loc 1 1225 0
 1744 0008 0928     		cmp	r0, #9
 1745              		.loc 1 1227 0
 1746 000a 04BF     		itt	eq
 1747 000c 014B     		ldreq	r3, .L194
 1748 000e 1C70     		strbeq	r4, [r3]
 1749              		.loc 1 1230 0
 1750 0010 10BD     		pop	{r4, pc}
 1751              	.L195:
 1752 0012 00BF     		.align	2
 1753              	.L194:
 1754 0014 153C0240 		.word	1073888277
 1755              		.cfi_endproc
 1756              	.LFE135:
 1757              		.size	FLASH_OB_RDPConfig, .-FLASH_OB_RDPConfig
 1758              		.section	.text.FLASH_OB_UserConfig,"ax",%progbits
 1759              		.align	1
 1760              		.p2align 4,,15
 1761              		.global	FLASH_OB_UserConfig
 1762              		.syntax unified
 1763              		.thumb
 1764              		.thumb_func
 1765              		.fpu fpv4-sp-d16
 1766              		.type	FLASH_OB_UserConfig, %function
 1767              	FLASH_OB_UserConfig:
ARM GAS  /tmp/ccF2L4A0.s 			page 32


 1768              	.LFB136:
 1769              		.loc 1 1249 0
 1770              		.cfi_startproc
 1771              		@ args = 0, pretend = 0, frame = 0
 1772              		@ frame_needed = 0, uses_anonymous_args = 0
 1773              	.LVL91:
 1774 0000 70B5     		push	{r4, r5, r6, lr}
 1775              		.cfi_def_cfa_offset 16
 1776              		.cfi_offset 4, -16
 1777              		.cfi_offset 5, -12
 1778              		.cfi_offset 6, -8
 1779              		.cfi_offset 14, -4
 1780              		.loc 1 1249 0
 1781 0002 0646     		mov	r6, r0
 1782 0004 0C46     		mov	r4, r1
 1783 0006 1546     		mov	r5, r2
 1784              		.loc 1 1259 0
 1785 0008 FFF7FEFF 		bl	FLASH_WaitForLastOperation
 1786              	.LVL92:
 1787              		.loc 1 1261 0
 1788 000c 0928     		cmp	r0, #9
 1789 000e 00D0     		beq	.L199
 1790              		.loc 1 1276 0
 1791 0010 70BD     		pop	{r4, r5, r6, pc}
 1792              	.L199:
 1793              		.loc 1 1270 0
 1794 0012 044A     		ldr	r2, .L200
 1795 0014 1378     		ldrb	r3, [r2]	@ zero_extendqisi2
 1796              	.LVL93:
 1797 0016 03F00F03 		and	r3, r3, #15
 1798              	.LVL94:
 1799              		.loc 1 1274 0
 1800 001a 1E43     		orrs	r6, r6, r3
 1801 001c 3543     		orrs	r5, r5, r6
 1802 001e 2C43     		orrs	r4, r4, r5
 1803 0020 1470     		strb	r4, [r2]
 1804              		.loc 1 1276 0
 1805 0022 70BD     		pop	{r4, r5, r6, pc}
 1806              	.L201:
 1807              		.align	2
 1808              	.L200:
 1809 0024 143C0240 		.word	1073888276
 1810              		.cfi_endproc
 1811              	.LFE136:
 1812              		.size	FLASH_OB_UserConfig, .-FLASH_OB_UserConfig
 1813              		.section	.text.FLASH_OB_Launch,"ax",%progbits
 1814              		.align	1
 1815              		.p2align 4,,15
 1816              		.global	FLASH_OB_Launch
 1817              		.syntax unified
 1818              		.thumb
 1819              		.thumb_func
 1820              		.fpu fpv4-sp-d16
 1821              		.type	FLASH_OB_Launch, %function
 1822              	FLASH_OB_Launch:
 1823              	.LFB139:
 1824              		.loc 1 1328 0
ARM GAS  /tmp/ccF2L4A0.s 			page 33


 1825              		.cfi_startproc
 1826              		@ args = 0, pretend = 0, frame = 0
 1827              		@ frame_needed = 0, uses_anonymous_args = 0
 1828              		@ link register save eliminated.
 1829              	.LVL95:
 1830              		.loc 1 1332 0
 1831 0000 034A     		ldr	r2, .L203
 1832 0002 1378     		ldrb	r3, [r2]	@ zero_extendqisi2
 1833 0004 43F00203 		orr	r3, r3, #2
 1834 0008 1370     		strb	r3, [r2]
 1835              		.loc 1 1335 0
 1836 000a FFF7FEBF 		b	FLASH_WaitForLastOperation
 1837              	.LVL96:
 1838              	.L204:
 1839 000e 00BF     		.align	2
 1840              	.L203:
 1841 0010 143C0240 		.word	1073888276
 1842              		.cfi_endproc
 1843              	.LFE139:
 1844              		.size	FLASH_OB_Launch, .-FLASH_OB_Launch
 1845              		.text
 1846              	.Letext0:
 1847              		.file 2 "/usr/arm-none-eabi/include/machine/_default_types.h"
 1848              		.file 3 "/usr/arm-none-eabi/include/sys/_stdint.h"
 1849              		.file 4 "ChibiOS_3.0.5/os/ext/CMSIS/include/core_cm4.h"
 1850              		.file 5 "ChibiOS_3.0.5/os/ext/CMSIS/ST/system_stm32f4xx.h"
 1851              		.file 6 "ChibiOS_3.0.5/os/ext/CMSIS/ST/stm32f407xx.h"
 1852              		.file 7 "ChibiOS_3.0.5/os/ext/CMSIS/ST/stm32f4xx.h"
 1853              		.file 8 "ChibiOS_3.0.5/ext/stdperiph_stm32f4/inc/stm32f4xx_flash.h"