ARM GAS  /tmp/ccfUSIwb.s 			page 1


   1              		.cpu cortex-m4
   2              		.eabi_attribute 27, 1
   3              		.eabi_attribute 28, 1
   4              		.eabi_attribute 20, 1
   5              		.eabi_attribute 21, 1
   6              		.eabi_attribute 23, 3
   7              		.eabi_attribute 24, 1
   8              		.eabi_attribute 25, 1
   9              		.eabi_attribute 26, 1
  10              		.eabi_attribute 30, 2
  11              		.eabi_attribute 34, 1
  12              		.eabi_attribute 18, 4
  13              		.file	"stm32f4xx_adc.c"
  14              		.text
  15              	.Ltext0:
  16              		.cfi_sections	.debug_frame
  17              		.section	.text.ADC_DeInit,"ax",%progbits
  18              		.align	1
  19              		.p2align 4,,15
  20              		.global	ADC_DeInit
  21              		.syntax unified
  22              		.thumb
  23              		.thumb_func
  24              		.fpu fpv4-sp-d16
  25              		.type	ADC_DeInit, %function
  26              	ADC_DeInit:
  27              	.LFB112:
  28              		.file 1 "ChibiOS_3.0.5/ext/stdperiph_stm32f4/src/stm32f4xx_adc.c"
  29              		.loc 1 215 0
  30              		.cfi_startproc
  31              		@ args = 0, pretend = 0, frame = 0
  32              		@ frame_needed = 0, uses_anonymous_args = 0
  33 0000 08B5     		push	{r3, lr}
  34              		.cfi_def_cfa_offset 8
  35              		.cfi_offset 3, -8
  36              		.cfi_offset 14, -4
  37              		.loc 1 217 0
  38 0002 0121     		movs	r1, #1
  39 0004 4FF48070 		mov	r0, #256
  40 0008 FFF7FEFF 		bl	RCC_APB2PeriphResetCmd
  41              	.LVL0:
  42              		.loc 1 220 0
  43 000c 0021     		movs	r1, #0
  44 000e 4FF48070 		mov	r0, #256
  45              		.loc 1 221 0
  46 0012 BDE80840 		pop	{r3, lr}
  47              		.cfi_restore 14
  48              		.cfi_restore 3
  49              		.cfi_def_cfa_offset 0
  50              		.loc 1 220 0
  51 0016 FFF7FEBF 		b	RCC_APB2PeriphResetCmd
  52              	.LVL1:
  53              		.cfi_endproc
  54              	.LFE112:
  55              		.size	ADC_DeInit, .-ADC_DeInit
  56 001a 00BF     		.section	.text.ADC_Init,"ax",%progbits
  57              		.align	1
ARM GAS  /tmp/ccfUSIwb.s 			page 2


  58              		.p2align 4,,15
  59              		.global	ADC_Init
  60              		.syntax unified
  61              		.thumb
  62              		.thumb_func
  63              		.fpu fpv4-sp-d16
  64              		.type	ADC_Init, %function
  65              	ADC_Init:
  66              	.LFB113:
  67              		.loc 1 237 0
  68              		.cfi_startproc
  69              		@ args = 0, pretend = 0, frame = 0
  70              		@ frame_needed = 0, uses_anonymous_args = 0
  71              		@ link register save eliminated.
  72              	.LVL2:
  73              		.loc 1 252 0
  74 0000 4268     		ldr	r2, [r0, #4]
  75              	.LVL3:
  76 0002 0B69     		ldr	r3, [r1, #16]
  77              		.loc 1 237 0
  78 0004 70B4     		push	{r4, r5, r6}
  79              		.cfi_def_cfa_offset 12
  80              		.cfi_offset 4, -12
  81              		.cfi_offset 5, -8
  82              		.cfi_offset 6, -4
  83              		.loc 1 255 0
  84 0006 22F04072 		bic	r2, r2, #50331648
  85              	.LVL4:
  86              		.loc 1 260 0
  87 000a 0E79     		ldrb	r6, [r1, #4]	@ zero_extendqisi2
  88 000c 0D68     		ldr	r5, [r1]
  89 000e 8C68     		ldr	r4, [r1, #8]
  90              		.loc 1 255 0
  91 0010 22F48072 		bic	r2, r2, #256
  92 0014 42EA0622 		orr	r2, r2, r6, lsl #8
  93              		.loc 1 260 0
  94 0018 2A43     		orrs	r2, r2, r5
  95              	.LVL5:
  96              		.loc 1 263 0
  97 001a 4260     		str	r2, [r0, #4]
  98 001c CE68     		ldr	r6, [r1, #12]
  99              		.loc 1 266 0
 100 001e 8568     		ldr	r5, [r0, #8]
 101              	.LVL6:
 102              		.loc 1 269 0
 103 0020 094A     		ldr	r2, .L6
 104 0022 3343     		orrs	r3, r3, r6
 105 0024 2A40     		ands	r2, r2, r5
 106              	.LVL7:
 107 0026 2343     		orrs	r3, r3, r4
 108              		.loc 1 280 0
 109 0028 4C79     		ldrb	r4, [r1, #5]	@ zero_extendqisi2
 110 002a 1343     		orrs	r3, r3, r2
 111              		.loc 1 277 0
 112 002c 43EA4403 		orr	r3, r3, r4, lsl #1
 113              	.LVL8:
 114              		.loc 1 283 0
ARM GAS  /tmp/ccfUSIwb.s 			page 3


 115 0030 8360     		str	r3, [r0, #8]
 116              		.loc 1 293 0
 117 0032 0A7D     		ldrb	r2, [r1, #20]	@ zero_extendqisi2
 118              		.loc 1 286 0
 119 0034 C36A     		ldr	r3, [r0, #44]
 120              	.LVL9:
 121              		.loc 1 293 0
 122 0036 013A     		subs	r2, r2, #1
 123              		.loc 1 294 0
 124 0038 D2B2     		uxtb	r2, r2
 125              		.loc 1 289 0
 126 003a 23F47003 		bic	r3, r3, #15728640
 127              	.LVL10:
 128              		.loc 1 294 0
 129 003e 43EA0253 		orr	r3, r3, r2, lsl #20
 130              	.LVL11:
 131              		.loc 1 297 0
 132 0042 C362     		str	r3, [r0, #44]
 133              	.LVL12:
 134              		.loc 1 298 0
 135 0044 70BC     		pop	{r4, r5, r6}
 136              		.cfi_restore 6
 137              		.cfi_restore 5
 138              		.cfi_restore 4
 139              		.cfi_def_cfa_offset 0
 140 0046 7047     		bx	lr
 141              	.L7:
 142              		.align	2
 143              	.L6:
 144 0048 FDF7FFC0 		.word	-1056966659
 145              		.cfi_endproc
 146              	.LFE113:
 147              		.size	ADC_Init, .-ADC_Init
 148              		.section	.text.ADC_StructInit,"ax",%progbits
 149              		.align	1
 150              		.p2align 4,,15
 151              		.global	ADC_StructInit
 152              		.syntax unified
 153              		.thumb
 154              		.thumb_func
 155              		.fpu fpv4-sp-d16
 156              		.type	ADC_StructInit, %function
 157              	ADC_StructInit:
 158              	.LFB114:
 159              		.loc 1 312 0
 160              		.cfi_startproc
 161              		@ args = 0, pretend = 0, frame = 0
 162              		@ frame_needed = 0, uses_anonymous_args = 0
 163              		@ link register save eliminated.
 164              	.LVL13:
 165              		.loc 1 314 0
 166 0000 0023     		movs	r3, #0
 167              		.loc 1 332 0
 168 0002 0122     		movs	r2, #1
 169 0004 0275     		strb	r2, [r0, #20]
 170              		.loc 1 314 0
 171 0006 0360     		str	r3, [r0]
ARM GAS  /tmp/ccfUSIwb.s 			page 4


 172              		.loc 1 317 0
 173 0008 0371     		strb	r3, [r0, #4]
 174              		.loc 1 320 0
 175 000a 4371     		strb	r3, [r0, #5]
 176              		.loc 1 326 0
 177 000c C0E90233 		strd	r3, r3, [r0, #8]
 178              		.loc 1 329 0
 179 0010 0361     		str	r3, [r0, #16]
 180              		.loc 1 333 0
 181 0012 7047     		bx	lr
 182              		.cfi_endproc
 183              	.LFE114:
 184              		.size	ADC_StructInit, .-ADC_StructInit
 185              		.section	.text.ADC_CommonInit,"ax",%progbits
 186              		.align	1
 187              		.p2align 4,,15
 188              		.global	ADC_CommonInit
 189              		.syntax unified
 190              		.thumb
 191              		.thumb_func
 192              		.fpu fpv4-sp-d16
 193              		.type	ADC_CommonInit, %function
 194              	ADC_CommonInit:
 195              	.LFB115:
 196              		.loc 1 343 0
 197              		.cfi_startproc
 198              		@ args = 0, pretend = 0, frame = 0
 199              		@ frame_needed = 0, uses_anonymous_args = 0
 200              		@ link register save eliminated.
 201              	.LVL14:
 202              		.loc 1 352 0
 203 0000 0749     		ldr	r1, .L11
 204              		.loc 1 355 0
 205 0002 084A     		ldr	r2, .L11+4
 206              		.loc 1 343 0
 207 0004 30B4     		push	{r4, r5}
 208              		.cfi_def_cfa_offset 8
 209              		.cfi_offset 4, -8
 210              		.cfi_offset 5, -4
 211              		.loc 1 363 0
 212 0006 D0E90035 		ldrd	r3, r5, [r0]
 213              		.loc 1 352 0
 214 000a 4C68     		ldr	r4, [r1, #4]
 215              	.LVL15:
 216              		.loc 1 355 0
 217 000c 2240     		ands	r2, r2, r4
 218              	.LVL16:
 219              		.loc 1 363 0
 220 000e D0E90240 		ldrd	r4, r0, [r0, #8]
 221              	.LVL17:
 222 0012 2B43     		orrs	r3, r3, r5
 223 0014 1343     		orrs	r3, r3, r2
 224 0016 2343     		orrs	r3, r3, r4
 225 0018 0343     		orrs	r3, r3, r0
 226              	.LVL18:
 227              		.loc 1 369 0
 228 001a 4B60     		str	r3, [r1, #4]
ARM GAS  /tmp/ccfUSIwb.s 			page 5


 229              		.loc 1 370 0
 230 001c 30BC     		pop	{r4, r5}
 231              		.cfi_restore 5
 232              		.cfi_restore 4
 233              		.cfi_def_cfa_offset 0
 234 001e 7047     		bx	lr
 235              	.L12:
 236              		.align	2
 237              	.L11:
 238 0020 00230140 		.word	1073816320
 239 0024 E030FCFF 		.word	-249632
 240              		.cfi_endproc
 241              	.LFE115:
 242              		.size	ADC_CommonInit, .-ADC_CommonInit
 243              		.section	.text.ADC_CommonStructInit,"ax",%progbits
 244              		.align	1
 245              		.p2align 4,,15
 246              		.global	ADC_CommonStructInit
 247              		.syntax unified
 248              		.thumb
 249              		.thumb_func
 250              		.fpu fpv4-sp-d16
 251              		.type	ADC_CommonStructInit, %function
 252              	ADC_CommonStructInit:
 253              	.LFB116:
 254              		.loc 1 379 0
 255              		.cfi_startproc
 256              		@ args = 0, pretend = 0, frame = 0
 257              		@ frame_needed = 0, uses_anonymous_args = 0
 258              		@ link register save eliminated.
 259              	.LVL19:
 260              		.loc 1 381 0
 261 0000 0023     		movs	r3, #0
 262              		.loc 1 384 0
 263 0002 C0E90033 		strd	r3, r3, [r0]
 264              		.loc 1 390 0
 265 0006 C0E90233 		strd	r3, r3, [r0, #8]
 266              		.loc 1 391 0
 267 000a 7047     		bx	lr
 268              		.cfi_endproc
 269              	.LFE116:
 270              		.size	ADC_CommonStructInit, .-ADC_CommonStructInit
 271              		.section	.text.ADC_Cmd,"ax",%progbits
 272              		.align	1
 273              		.p2align 4,,15
 274              		.global	ADC_Cmd
 275              		.syntax unified
 276              		.thumb
 277              		.thumb_func
 278              		.fpu fpv4-sp-d16
 279              		.type	ADC_Cmd, %function
 280              	ADC_Cmd:
 281              	.LFB117:
 282              		.loc 1 401 0
 283              		.cfi_startproc
 284              		@ args = 0, pretend = 0, frame = 0
 285              		@ frame_needed = 0, uses_anonymous_args = 0
ARM GAS  /tmp/ccfUSIwb.s 			page 6


 286              		@ link register save eliminated.
 287              	.LVL20:
 288              		.loc 1 408 0
 289 0000 8368     		ldr	r3, [r0, #8]
 290              		.loc 1 405 0
 291 0002 19B9     		cbnz	r1, .L17
 292              		.loc 1 413 0
 293 0004 23F00103 		bic	r3, r3, #1
 294 0008 8360     		str	r3, [r0, #8]
 295              		.loc 1 415 0
 296 000a 7047     		bx	lr
 297              	.L17:
 298              		.loc 1 408 0
 299 000c 43F00103 		orr	r3, r3, #1
 300 0010 8360     		str	r3, [r0, #8]
 301 0012 7047     		bx	lr
 302              		.cfi_endproc
 303              	.LFE117:
 304              		.size	ADC_Cmd, .-ADC_Cmd
 305              		.section	.text.ADC_AnalogWatchdogCmd,"ax",%progbits
 306              		.align	1
 307              		.p2align 4,,15
 308              		.global	ADC_AnalogWatchdogCmd
 309              		.syntax unified
 310              		.thumb
 311              		.thumb_func
 312              		.fpu fpv4-sp-d16
 313              		.type	ADC_AnalogWatchdogCmd, %function
 314              	ADC_AnalogWatchdogCmd:
 315              	.LFB118:
 316              		.loc 1 457 0
 317              		.cfi_startproc
 318              		@ args = 0, pretend = 0, frame = 0
 319              		@ frame_needed = 0, uses_anonymous_args = 0
 320              		@ link register save eliminated.
 321              	.LVL21:
 322              		.loc 1 464 0
 323 0000 4368     		ldr	r3, [r0, #4]
 324              	.LVL22:
 325              		.loc 1 467 0
 326 0002 23F44003 		bic	r3, r3, #12582912
 327              	.LVL23:
 328 0006 23F40073 		bic	r3, r3, #512
 329              	.LVL24:
 330              		.loc 1 470 0
 331 000a 1943     		orrs	r1, r1, r3
 332              	.LVL25:
 333              		.loc 1 473 0
 334 000c 4160     		str	r1, [r0, #4]
 335              		.loc 1 474 0
 336 000e 7047     		bx	lr
 337              		.cfi_endproc
 338              	.LFE118:
 339              		.size	ADC_AnalogWatchdogCmd, .-ADC_AnalogWatchdogCmd
 340              		.section	.text.ADC_AnalogWatchdogThresholdsConfig,"ax",%progbits
 341              		.align	1
 342              		.p2align 4,,15
ARM GAS  /tmp/ccfUSIwb.s 			page 7


 343              		.global	ADC_AnalogWatchdogThresholdsConfig
 344              		.syntax unified
 345              		.thumb
 346              		.thumb_func
 347              		.fpu fpv4-sp-d16
 348              		.type	ADC_AnalogWatchdogThresholdsConfig, %function
 349              	ADC_AnalogWatchdogThresholdsConfig:
 350              	.LFB119:
 351              		.loc 1 487 0
 352              		.cfi_startproc
 353              		@ args = 0, pretend = 0, frame = 0
 354              		@ frame_needed = 0, uses_anonymous_args = 0
 355              		@ link register save eliminated.
 356              	.LVL26:
 357              		.loc 1 494 0
 358 0000 4162     		str	r1, [r0, #36]
 359              		.loc 1 497 0
 360 0002 8262     		str	r2, [r0, #40]
 361              		.loc 1 498 0
 362 0004 7047     		bx	lr
 363              		.cfi_endproc
 364              	.LFE119:
 365              		.size	ADC_AnalogWatchdogThresholdsConfig, .-ADC_AnalogWatchdogThresholdsConfig
 366 0006 00BF     		.section	.text.ADC_AnalogWatchdogSingleChannelConfig,"ax",%progbits
 367              		.align	1
 368              		.p2align 4,,15
 369              		.global	ADC_AnalogWatchdogSingleChannelConfig
 370              		.syntax unified
 371              		.thumb
 372              		.thumb_func
 373              		.fpu fpv4-sp-d16
 374              		.type	ADC_AnalogWatchdogSingleChannelConfig, %function
 375              	ADC_AnalogWatchdogSingleChannelConfig:
 376              	.LFB120:
 377              		.loc 1 527 0
 378              		.cfi_startproc
 379              		@ args = 0, pretend = 0, frame = 0
 380              		@ frame_needed = 0, uses_anonymous_args = 0
 381              		@ link register save eliminated.
 382              	.LVL27:
 383              		.loc 1 534 0
 384 0000 4368     		ldr	r3, [r0, #4]
 385              	.LVL28:
 386              		.loc 1 537 0
 387 0002 23F01F03 		bic	r3, r3, #31
 388              	.LVL29:
 389              		.loc 1 540 0
 390 0006 1943     		orrs	r1, r1, r3
 391              	.LVL30:
 392              		.loc 1 543 0
 393 0008 4160     		str	r1, [r0, #4]
 394              		.loc 1 544 0
 395 000a 7047     		bx	lr
 396              		.cfi_endproc
 397              	.LFE120:
 398              		.size	ADC_AnalogWatchdogSingleChannelConfig, .-ADC_AnalogWatchdogSingleChannelConfig
 399              		.section	.text.ADC_TempSensorVrefintCmd,"ax",%progbits
ARM GAS  /tmp/ccfUSIwb.s 			page 8


 400              		.align	1
 401              		.p2align 4,,15
 402              		.global	ADC_TempSensorVrefintCmd
 403              		.syntax unified
 404              		.thumb
 405              		.thumb_func
 406              		.fpu fpv4-sp-d16
 407              		.type	ADC_TempSensorVrefintCmd, %function
 408              	ADC_TempSensorVrefintCmd:
 409              	.LFB121:
 410              		.loc 1 591 0
 411              		.cfi_startproc
 412              		@ args = 0, pretend = 0, frame = 0
 413              		@ frame_needed = 0, uses_anonymous_args = 0
 414              		@ link register save eliminated.
 415              	.LVL31:
 416              		.loc 1 597 0
 417 0000 054A     		ldr	r2, .L25
 418 0002 5368     		ldr	r3, [r2, #4]
 419              		.loc 1 594 0
 420 0004 18B9     		cbnz	r0, .L24
 421              		.loc 1 602 0
 422 0006 23F40003 		bic	r3, r3, #8388608
 423 000a 5360     		str	r3, [r2, #4]
 424              		.loc 1 604 0
 425 000c 7047     		bx	lr
 426              	.L24:
 427              		.loc 1 597 0
 428 000e 43F40003 		orr	r3, r3, #8388608
 429 0012 5360     		str	r3, [r2, #4]
 430 0014 7047     		bx	lr
 431              	.L26:
 432 0016 00BF     		.align	2
 433              	.L25:
 434 0018 00230140 		.word	1073816320
 435              		.cfi_endproc
 436              	.LFE121:
 437              		.size	ADC_TempSensorVrefintCmd, .-ADC_TempSensorVrefintCmd
 438              		.section	.text.ADC_VBATCmd,"ax",%progbits
 439              		.align	1
 440              		.p2align 4,,15
 441              		.global	ADC_VBATCmd
 442              		.syntax unified
 443              		.thumb
 444              		.thumb_func
 445              		.fpu fpv4-sp-d16
 446              		.type	ADC_VBATCmd, %function
 447              	ADC_VBATCmd:
 448              	.LFB122:
 449              		.loc 1 617 0
 450              		.cfi_startproc
 451              		@ args = 0, pretend = 0, frame = 0
 452              		@ frame_needed = 0, uses_anonymous_args = 0
 453              		@ link register save eliminated.
 454              	.LVL32:
 455              		.loc 1 623 0
 456 0000 054A     		ldr	r2, .L31
ARM GAS  /tmp/ccfUSIwb.s 			page 9


 457 0002 5368     		ldr	r3, [r2, #4]
 458              		.loc 1 620 0
 459 0004 18B9     		cbnz	r0, .L30
 460              		.loc 1 628 0
 461 0006 23F48003 		bic	r3, r3, #4194304
 462 000a 5360     		str	r3, [r2, #4]
 463              		.loc 1 630 0
 464 000c 7047     		bx	lr
 465              	.L30:
 466              		.loc 1 623 0
 467 000e 43F48003 		orr	r3, r3, #4194304
 468 0012 5360     		str	r3, [r2, #4]
 469 0014 7047     		bx	lr
 470              	.L32:
 471 0016 00BF     		.align	2
 472              	.L31:
 473 0018 00230140 		.word	1073816320
 474              		.cfi_endproc
 475              	.LFE122:
 476              		.size	ADC_VBATCmd, .-ADC_VBATCmd
 477              		.section	.text.ADC_RegularChannelConfig,"ax",%progbits
 478              		.align	1
 479              		.p2align 4,,15
 480              		.global	ADC_RegularChannelConfig
 481              		.syntax unified
 482              		.thumb
 483              		.thumb_func
 484              		.fpu fpv4-sp-d16
 485              		.type	ADC_RegularChannelConfig, %function
 486              	ADC_RegularChannelConfig:
 487              	.LFB123:
 488              		.loc 1 717 0
 489              		.cfi_startproc
 490              		@ args = 0, pretend = 0, frame = 0
 491              		@ frame_needed = 0, uses_anonymous_args = 0
 492              		@ link register save eliminated.
 493              	.LVL33:
 494              		.loc 1 726 0
 495 0000 0929     		cmp	r1, #9
 496              		.loc 1 717 0
 497 0002 70B4     		push	{r4, r5, r6}
 498              		.cfi_def_cfa_offset 12
 499              		.cfi_offset 4, -12
 500              		.cfi_offset 5, -8
 501              		.cfi_offset 6, -4
 502              		.loc 1 726 0
 503 0004 1CD9     		bls	.L34
 504              		.loc 1 732 0
 505 0006 A1F10A04 		sub	r4, r1, #10
 506 000a 04EB4404 		add	r4, r4, r4, lsl #1
 507              		.loc 1 729 0
 508 000e C568     		ldr	r5, [r0, #12]
 509              	.LVL34:
 510              		.loc 1 732 0
 511 0010 0726     		movs	r6, #7
 512 0012 A640     		lsls	r6, r6, r4
 513              	.LVL35:
ARM GAS  /tmp/ccfUSIwb.s 			page 10


 514              		.loc 1 738 0
 515 0014 A340     		lsls	r3, r3, r4
 516              	.LVL36:
 517              		.loc 1 735 0
 518 0016 25EA0604 		bic	r4, r5, r6
 519              	.LVL37:
 520              		.loc 1 741 0
 521 001a 2343     		orrs	r3, r3, r4
 522              	.LVL38:
 523              		.loc 1 767 0
 524 001c 062A     		cmp	r2, #6
 525              		.loc 1 744 0
 526 001e C360     		str	r3, [r0, #12]
 527              		.loc 1 767 0
 528 0020 1AD9     		bls	.L40
 529              	.L36:
 530              		.loc 1 788 0
 531 0022 0C2A     		cmp	r2, #12
 532 0024 25D9     		bls	.L41
 533              		.loc 1 815 0
 534 0026 0D3A     		subs	r2, r2, #13
 535              	.LVL39:
 536 0028 02EB8202 		add	r2, r2, r2, lsl #2
 537              		.loc 1 812 0
 538 002c C36A     		ldr	r3, [r0, #44]
 539              	.LVL40:
 540              		.loc 1 815 0
 541 002e 1F24     		movs	r4, #31
 542 0030 9440     		lsls	r4, r4, r2
 543              	.LVL41:
 544              		.loc 1 821 0
 545 0032 9140     		lsls	r1, r1, r2
 546              	.LVL42:
 547              		.loc 1 818 0
 548 0034 23EA0402 		bic	r2, r3, r4
 549              	.LVL43:
 550              		.loc 1 824 0
 551 0038 1143     		orrs	r1, r1, r2
 552              	.LVL44:
 553              		.loc 1 827 0
 554 003a C162     		str	r1, [r0, #44]
 555              		.loc 1 829 0
 556 003c 70BC     		pop	{r4, r5, r6}
 557              		.cfi_remember_state
 558              		.cfi_restore 6
 559              		.cfi_restore 5
 560              		.cfi_restore 4
 561              		.cfi_def_cfa_offset 0
 562 003e 7047     		bx	lr
 563              	.LVL45:
 564              	.L34:
 565              		.cfi_restore_state
 566              		.loc 1 752 0
 567 0040 01EB4106 		add	r6, r1, r1, lsl #1
 568              		.loc 1 749 0
 569 0044 0469     		ldr	r4, [r0, #16]
 570              	.LVL46:
ARM GAS  /tmp/ccfUSIwb.s 			page 11


 571              		.loc 1 752 0
 572 0046 0725     		movs	r5, #7
 573 0048 B540     		lsls	r5, r5, r6
 574              	.LVL47:
 575              		.loc 1 758 0
 576 004a B340     		lsls	r3, r3, r6
 577              	.LVL48:
 578              		.loc 1 755 0
 579 004c 24EA0504 		bic	r4, r4, r5
 580              	.LVL49:
 581              		.loc 1 761 0
 582 0050 2343     		orrs	r3, r3, r4
 583              	.LVL50:
 584              		.loc 1 767 0
 585 0052 062A     		cmp	r2, #6
 586              		.loc 1 764 0
 587 0054 0361     		str	r3, [r0, #16]
 588              		.loc 1 767 0
 589 0056 E4D8     		bhi	.L36
 590              	.L40:
 591              		.loc 1 773 0
 592 0058 013A     		subs	r2, r2, #1
 593              	.LVL51:
 594 005a 02EB8202 		add	r2, r2, r2, lsl #2
 595              		.loc 1 770 0
 596 005e 436B     		ldr	r3, [r0, #52]
 597              	.LVL52:
 598              		.loc 1 773 0
 599 0060 1F24     		movs	r4, #31
 600 0062 9440     		lsls	r4, r4, r2
 601              	.LVL53:
 602              		.loc 1 779 0
 603 0064 9140     		lsls	r1, r1, r2
 604              	.LVL54:
 605              		.loc 1 776 0
 606 0066 23EA0402 		bic	r2, r3, r4
 607              	.LVL55:
 608              		.loc 1 782 0
 609 006a 1143     		orrs	r1, r1, r2
 610              	.LVL56:
 611              		.loc 1 785 0
 612 006c 4163     		str	r1, [r0, #52]
 613              		.loc 1 829 0
 614 006e 70BC     		pop	{r4, r5, r6}
 615              		.cfi_remember_state
 616              		.cfi_restore 6
 617              		.cfi_restore 5
 618              		.cfi_restore 4
 619              		.cfi_def_cfa_offset 0
 620 0070 7047     		bx	lr
 621              	.LVL57:
 622              	.L41:
 623              		.cfi_restore_state
 624              		.loc 1 794 0
 625 0072 073A     		subs	r2, r2, #7
 626              	.LVL58:
 627 0074 02EB8202 		add	r2, r2, r2, lsl #2
ARM GAS  /tmp/ccfUSIwb.s 			page 12


 628              		.loc 1 791 0
 629 0078 036B     		ldr	r3, [r0, #48]
 630              	.LVL59:
 631              		.loc 1 794 0
 632 007a 1F24     		movs	r4, #31
 633 007c 9440     		lsls	r4, r4, r2
 634              	.LVL60:
 635              		.loc 1 800 0
 636 007e 9140     		lsls	r1, r1, r2
 637              	.LVL61:
 638              		.loc 1 797 0
 639 0080 23EA0402 		bic	r2, r3, r4
 640              	.LVL62:
 641              		.loc 1 803 0
 642 0084 1143     		orrs	r1, r1, r2
 643              	.LVL63:
 644              		.loc 1 806 0
 645 0086 0163     		str	r1, [r0, #48]
 646              		.loc 1 829 0
 647 0088 70BC     		pop	{r4, r5, r6}
 648              		.cfi_restore 6
 649              		.cfi_restore 5
 650              		.cfi_restore 4
 651              		.cfi_def_cfa_offset 0
 652 008a 7047     		bx	lr
 653              		.cfi_endproc
 654              	.LFE123:
 655              		.size	ADC_RegularChannelConfig, .-ADC_RegularChannelConfig
 656              		.section	.text.ADC_SoftwareStartConv,"ax",%progbits
 657              		.align	1
 658              		.p2align 4,,15
 659              		.global	ADC_SoftwareStartConv
 660              		.syntax unified
 661              		.thumb
 662              		.thumb_func
 663              		.fpu fpv4-sp-d16
 664              		.type	ADC_SoftwareStartConv, %function
 665              	ADC_SoftwareStartConv:
 666              	.LFB124:
 667              		.loc 1 837 0
 668              		.cfi_startproc
 669              		@ args = 0, pretend = 0, frame = 0
 670              		@ frame_needed = 0, uses_anonymous_args = 0
 671              		@ link register save eliminated.
 672              	.LVL64:
 673              		.loc 1 842 0
 674 0000 8368     		ldr	r3, [r0, #8]
 675 0002 43F08043 		orr	r3, r3, #1073741824
 676 0006 8360     		str	r3, [r0, #8]
 677              		.loc 1 843 0
 678 0008 7047     		bx	lr
 679              		.cfi_endproc
 680              	.LFE124:
 681              		.size	ADC_SoftwareStartConv, .-ADC_SoftwareStartConv
 682 000a 00BF     		.section	.text.ADC_GetSoftwareStartConvStatus,"ax",%progbits
 683              		.align	1
 684              		.p2align 4,,15
ARM GAS  /tmp/ccfUSIwb.s 			page 13


 685              		.global	ADC_GetSoftwareStartConvStatus
 686              		.syntax unified
 687              		.thumb
 688              		.thumb_func
 689              		.fpu fpv4-sp-d16
 690              		.type	ADC_GetSoftwareStartConvStatus, %function
 691              	ADC_GetSoftwareStartConvStatus:
 692              	.LFB125:
 693              		.loc 1 851 0
 694              		.cfi_startproc
 695              		@ args = 0, pretend = 0, frame = 0
 696              		@ frame_needed = 0, uses_anonymous_args = 0
 697              		@ link register save eliminated.
 698              	.LVL65:
 699              		.loc 1 857 0
 700 0000 8068     		ldr	r0, [r0, #8]
 701              	.LVL66:
 702              		.loc 1 870 0
 703 0002 C0F38070 		ubfx	r0, r0, #30, #1
 704              	.LVL67:
 705 0006 7047     		bx	lr
 706              		.cfi_endproc
 707              	.LFE125:
 708              		.size	ADC_GetSoftwareStartConvStatus, .-ADC_GetSoftwareStartConvStatus
 709              		.section	.text.ADC_EOCOnEachRegularChannelCmd,"ax",%progbits
 710              		.align	1
 711              		.p2align 4,,15
 712              		.global	ADC_EOCOnEachRegularChannelCmd
 713              		.syntax unified
 714              		.thumb
 715              		.thumb_func
 716              		.fpu fpv4-sp-d16
 717              		.type	ADC_EOCOnEachRegularChannelCmd, %function
 718              	ADC_EOCOnEachRegularChannelCmd:
 719              	.LFB126:
 720              		.loc 1 881 0
 721              		.cfi_startproc
 722              		@ args = 0, pretend = 0, frame = 0
 723              		@ frame_needed = 0, uses_anonymous_args = 0
 724              		@ link register save eliminated.
 725              	.LVL68:
 726              		.loc 1 889 0
 727 0000 8368     		ldr	r3, [r0, #8]
 728              		.loc 1 886 0
 729 0002 19B9     		cbnz	r1, .L47
 730              		.loc 1 894 0
 731 0004 23F48063 		bic	r3, r3, #1024
 732 0008 8360     		str	r3, [r0, #8]
 733              		.loc 1 896 0
 734 000a 7047     		bx	lr
 735              	.L47:
 736              		.loc 1 889 0
 737 000c 43F48063 		orr	r3, r3, #1024
 738 0010 8360     		str	r3, [r0, #8]
 739 0012 7047     		bx	lr
 740              		.cfi_endproc
 741              	.LFE126:
ARM GAS  /tmp/ccfUSIwb.s 			page 14


 742              		.size	ADC_EOCOnEachRegularChannelCmd, .-ADC_EOCOnEachRegularChannelCmd
 743              		.section	.text.ADC_ContinuousModeCmd,"ax",%progbits
 744              		.align	1
 745              		.p2align 4,,15
 746              		.global	ADC_ContinuousModeCmd
 747              		.syntax unified
 748              		.thumb
 749              		.thumb_func
 750              		.fpu fpv4-sp-d16
 751              		.type	ADC_ContinuousModeCmd, %function
 752              	ADC_ContinuousModeCmd:
 753              	.LFB127:
 754              		.loc 1 906 0
 755              		.cfi_startproc
 756              		@ args = 0, pretend = 0, frame = 0
 757              		@ frame_needed = 0, uses_anonymous_args = 0
 758              		@ link register save eliminated.
 759              	.LVL69:
 760              		.loc 1 914 0
 761 0000 8368     		ldr	r3, [r0, #8]
 762              		.loc 1 911 0
 763 0002 19B9     		cbnz	r1, .L51
 764              		.loc 1 919 0
 765 0004 23F00203 		bic	r3, r3, #2
 766 0008 8360     		str	r3, [r0, #8]
 767              		.loc 1 921 0
 768 000a 7047     		bx	lr
 769              	.L51:
 770              		.loc 1 914 0
 771 000c 43F00203 		orr	r3, r3, #2
 772 0010 8360     		str	r3, [r0, #8]
 773 0012 7047     		bx	lr
 774              		.cfi_endproc
 775              	.LFE127:
 776              		.size	ADC_ContinuousModeCmd, .-ADC_ContinuousModeCmd
 777              		.section	.text.ADC_DiscModeChannelCountConfig,"ax",%progbits
 778              		.align	1
 779              		.p2align 4,,15
 780              		.global	ADC_DiscModeChannelCountConfig
 781              		.syntax unified
 782              		.thumb
 783              		.thumb_func
 784              		.fpu fpv4-sp-d16
 785              		.type	ADC_DiscModeChannelCountConfig, %function
 786              	ADC_DiscModeChannelCountConfig:
 787              	.LFB128:
 788              		.loc 1 932 0
 789              		.cfi_startproc
 790              		@ args = 0, pretend = 0, frame = 0
 791              		@ frame_needed = 0, uses_anonymous_args = 0
 792              		@ link register save eliminated.
 793              	.LVL70:
 794              		.loc 1 947 0
 795 0000 4B1E     		subs	r3, r1, #1
 796              		.loc 1 941 0
 797 0002 4168     		ldr	r1, [r0, #4]
 798              	.LVL71:
ARM GAS  /tmp/ccfUSIwb.s 			page 15


 799              		.loc 1 944 0
 800 0004 21F46041 		bic	r1, r1, #57344
 801              	.LVL72:
 802              		.loc 1 948 0
 803 0008 41EA4331 		orr	r1, r1, r3, lsl #13
 804              	.LVL73:
 805              		.loc 1 951 0
 806 000c 4160     		str	r1, [r0, #4]
 807              		.loc 1 952 0
 808 000e 7047     		bx	lr
 809              		.cfi_endproc
 810              	.LFE128:
 811              		.size	ADC_DiscModeChannelCountConfig, .-ADC_DiscModeChannelCountConfig
 812              		.section	.text.ADC_DiscModeCmd,"ax",%progbits
 813              		.align	1
 814              		.p2align 4,,15
 815              		.global	ADC_DiscModeCmd
 816              		.syntax unified
 817              		.thumb
 818              		.thumb_func
 819              		.fpu fpv4-sp-d16
 820              		.type	ADC_DiscModeCmd, %function
 821              	ADC_DiscModeCmd:
 822              	.LFB129:
 823              		.loc 1 964 0
 824              		.cfi_startproc
 825              		@ args = 0, pretend = 0, frame = 0
 826              		@ frame_needed = 0, uses_anonymous_args = 0
 827              		@ link register save eliminated.
 828              	.LVL74:
 829              		.loc 1 972 0
 830 0000 4368     		ldr	r3, [r0, #4]
 831              		.loc 1 969 0
 832 0002 19B9     		cbnz	r1, .L56
 833              		.loc 1 977 0
 834 0004 23F40063 		bic	r3, r3, #2048
 835 0008 4360     		str	r3, [r0, #4]
 836              		.loc 1 979 0
 837 000a 7047     		bx	lr
 838              	.L56:
 839              		.loc 1 972 0
 840 000c 43F40063 		orr	r3, r3, #2048
 841 0010 4360     		str	r3, [r0, #4]
 842 0012 7047     		bx	lr
 843              		.cfi_endproc
 844              	.LFE129:
 845              		.size	ADC_DiscModeCmd, .-ADC_DiscModeCmd
 846              		.section	.text.ADC_GetConversionValue,"ax",%progbits
 847              		.align	1
 848              		.p2align 4,,15
 849              		.global	ADC_GetConversionValue
 850              		.syntax unified
 851              		.thumb
 852              		.thumb_func
 853              		.fpu fpv4-sp-d16
 854              		.type	ADC_GetConversionValue, %function
 855              	ADC_GetConversionValue:
ARM GAS  /tmp/ccfUSIwb.s 			page 16


 856              	.LFB130:
 857              		.loc 1 987 0
 858              		.cfi_startproc
 859              		@ args = 0, pretend = 0, frame = 0
 860              		@ frame_needed = 0, uses_anonymous_args = 0
 861              		@ link register save eliminated.
 862              	.LVL75:
 863              		.loc 1 992 0
 864 0000 C06C     		ldr	r0, [r0, #76]
 865              	.LVL76:
 866              		.loc 1 993 0
 867 0002 80B2     		uxth	r0, r0
 868 0004 7047     		bx	lr
 869              		.cfi_endproc
 870              	.LFE130:
 871              		.size	ADC_GetConversionValue, .-ADC_GetConversionValue
 872 0006 00BF     		.section	.text.ADC_GetMultiModeConversionValue,"ax",%progbits
 873              		.align	1
 874              		.p2align 4,,15
 875              		.global	ADC_GetMultiModeConversionValue
 876              		.syntax unified
 877              		.thumb
 878              		.thumb_func
 879              		.fpu fpv4-sp-d16
 880              		.type	ADC_GetMultiModeConversionValue, %function
 881              	ADC_GetMultiModeConversionValue:
 882              	.LFB131:
 883              		.loc 1 1008 0
 884              		.cfi_startproc
 885              		@ args = 0, pretend = 0, frame = 0
 886              		@ frame_needed = 0, uses_anonymous_args = 0
 887              		@ link register save eliminated.
 888              		.loc 1 1010 0
 889 0000 014B     		ldr	r3, .L59
 890 0002 1868     		ldr	r0, [r3]
 891              		.loc 1 1011 0
 892 0004 7047     		bx	lr
 893              	.L60:
 894 0006 00BF     		.align	2
 895              	.L59:
 896 0008 08230140 		.word	1073816328
 897              		.cfi_endproc
 898              	.LFE131:
 899              		.size	ADC_GetMultiModeConversionValue, .-ADC_GetMultiModeConversionValue
 900              		.section	.text.ADC_DMACmd,"ax",%progbits
 901              		.align	1
 902              		.p2align 4,,15
 903              		.global	ADC_DMACmd
 904              		.syntax unified
 905              		.thumb
 906              		.thumb_func
 907              		.fpu fpv4-sp-d16
 908              		.type	ADC_DMACmd, %function
 909              	ADC_DMACmd:
 910              	.LFB132:
 911              		.loc 1 1054 0
 912              		.cfi_startproc
ARM GAS  /tmp/ccfUSIwb.s 			page 17


 913              		@ args = 0, pretend = 0, frame = 0
 914              		@ frame_needed = 0, uses_anonymous_args = 0
 915              		@ link register save eliminated.
 916              	.LVL77:
 917              		.loc 1 1061 0
 918 0000 8368     		ldr	r3, [r0, #8]
 919              		.loc 1 1058 0
 920 0002 19B9     		cbnz	r1, .L64
 921              		.loc 1 1066 0
 922 0004 23F48073 		bic	r3, r3, #256
 923 0008 8360     		str	r3, [r0, #8]
 924              		.loc 1 1068 0
 925 000a 7047     		bx	lr
 926              	.L64:
 927              		.loc 1 1061 0
 928 000c 43F48073 		orr	r3, r3, #256
 929 0010 8360     		str	r3, [r0, #8]
 930 0012 7047     		bx	lr
 931              		.cfi_endproc
 932              	.LFE132:
 933              		.size	ADC_DMACmd, .-ADC_DMACmd
 934              		.section	.text.ADC_DMARequestAfterLastTransferCmd,"ax",%progbits
 935              		.align	1
 936              		.p2align 4,,15
 937              		.global	ADC_DMARequestAfterLastTransferCmd
 938              		.syntax unified
 939              		.thumb
 940              		.thumb_func
 941              		.fpu fpv4-sp-d16
 942              		.type	ADC_DMARequestAfterLastTransferCmd, %function
 943              	ADC_DMARequestAfterLastTransferCmd:
 944              	.LFB133:
 945              		.loc 1 1078 0
 946              		.cfi_startproc
 947              		@ args = 0, pretend = 0, frame = 0
 948              		@ frame_needed = 0, uses_anonymous_args = 0
 949              		@ link register save eliminated.
 950              	.LVL78:
 951              		.loc 1 1085 0
 952 0000 8368     		ldr	r3, [r0, #8]
 953              		.loc 1 1082 0
 954 0002 19B9     		cbnz	r1, .L68
 955              		.loc 1 1090 0
 956 0004 23F40073 		bic	r3, r3, #512
 957 0008 8360     		str	r3, [r0, #8]
 958              		.loc 1 1092 0
 959 000a 7047     		bx	lr
 960              	.L68:
 961              		.loc 1 1085 0
 962 000c 43F40073 		orr	r3, r3, #512
 963 0010 8360     		str	r3, [r0, #8]
 964 0012 7047     		bx	lr
 965              		.cfi_endproc
 966              	.LFE133:
 967              		.size	ADC_DMARequestAfterLastTransferCmd, .-ADC_DMARequestAfterLastTransferCmd
 968              		.section	.text.ADC_MultiModeDMARequestAfterLastTransferCmd,"ax",%progbits
 969              		.align	1
ARM GAS  /tmp/ccfUSIwb.s 			page 18


 970              		.p2align 4,,15
 971              		.global	ADC_MultiModeDMARequestAfterLastTransferCmd
 972              		.syntax unified
 973              		.thumb
 974              		.thumb_func
 975              		.fpu fpv4-sp-d16
 976              		.type	ADC_MultiModeDMARequestAfterLastTransferCmd, %function
 977              	ADC_MultiModeDMARequestAfterLastTransferCmd:
 978              	.LFB134:
 979              		.loc 1 1105 0
 980              		.cfi_startproc
 981              		@ args = 0, pretend = 0, frame = 0
 982              		@ frame_needed = 0, uses_anonymous_args = 0
 983              		@ link register save eliminated.
 984              	.LVL79:
 985              		.loc 1 1111 0
 986 0000 054A     		ldr	r2, .L73
 987 0002 5368     		ldr	r3, [r2, #4]
 988              		.loc 1 1108 0
 989 0004 18B9     		cbnz	r0, .L72
 990              		.loc 1 1116 0
 991 0006 23F40053 		bic	r3, r3, #8192
 992 000a 5360     		str	r3, [r2, #4]
 993              		.loc 1 1118 0
 994 000c 7047     		bx	lr
 995              	.L72:
 996              		.loc 1 1111 0
 997 000e 43F40053 		orr	r3, r3, #8192
 998 0012 5360     		str	r3, [r2, #4]
 999 0014 7047     		bx	lr
 1000              	.L74:
 1001 0016 00BF     		.align	2
 1002              	.L73:
 1003 0018 00230140 		.word	1073816320
 1004              		.cfi_endproc
 1005              	.LFE134:
 1006              		.size	ADC_MultiModeDMARequestAfterLastTransferCmd, .-ADC_MultiModeDMARequestAfterLastTransferCmd
 1007              		.section	.text.ADC_InjectedChannelConfig,"ax",%progbits
 1008              		.align	1
 1009              		.p2align 4,,15
 1010              		.global	ADC_InjectedChannelConfig
 1011              		.syntax unified
 1012              		.thumb
 1013              		.thumb_func
 1014              		.fpu fpv4-sp-d16
 1015              		.type	ADC_InjectedChannelConfig, %function
 1016              	ADC_InjectedChannelConfig:
 1017              	.LFB135:
 1018              		.loc 1 1192 0
 1019              		.cfi_startproc
 1020              		@ args = 0, pretend = 0, frame = 0
 1021              		@ frame_needed = 0, uses_anonymous_args = 0
 1022              		@ link register save eliminated.
 1023              	.LVL80:
 1024              		.loc 1 1200 0
 1025 0000 0929     		cmp	r1, #9
 1026              		.loc 1 1192 0
ARM GAS  /tmp/ccfUSIwb.s 			page 19


 1027 0002 70B4     		push	{r4, r5, r6}
 1028              		.cfi_def_cfa_offset 12
 1029              		.cfi_offset 4, -12
 1030              		.cfi_offset 5, -8
 1031              		.cfi_offset 6, -4
 1032              		.loc 1 1200 0
 1033 0004 1AD8     		bhi	.L79
 1034              		.loc 1 1220 0
 1035 0006 01EB4106 		add	r6, r1, r1, lsl #1
 1036              		.loc 1 1218 0
 1037 000a 0469     		ldr	r4, [r0, #16]
 1038              	.LVL81:
 1039              		.loc 1 1220 0
 1040 000c 0725     		movs	r5, #7
 1041 000e B540     		lsls	r5, r5, r6
 1042              	.LVL82:
 1043              		.loc 1 1224 0
 1044 0010 B340     		lsls	r3, r3, r6
 1045              	.LVL83:
 1046              		.loc 1 1222 0
 1047 0012 24EA0504 		bic	r4, r4, r5
 1048              	.LVL84:
 1049              		.loc 1 1226 0
 1050 0016 2343     		orrs	r3, r3, r4
 1051              	.LVL85:
 1052              		.loc 1 1228 0
 1053 0018 0361     		str	r3, [r0, #16]
 1054              	.L77:
 1055              		.loc 1 1232 0
 1056 001a 836B     		ldr	r3, [r0, #56]
 1057              	.LVL86:
 1058              		.loc 1 1236 0
 1059 001c 0232     		adds	r2, r2, #2
 1060              	.LVL87:
 1061              		.loc 1 1234 0
 1062 001e C3F30154 		ubfx	r4, r3, #20, #2
 1063              		.loc 1 1236 0
 1064 0022 121B     		subs	r2, r2, r4
 1065 0024 D2B2     		uxtb	r2, r2
 1066 0026 02EB8202 		add	r2, r2, r2, lsl #2
 1067              	.LVL88:
 1068 002a 1F24     		movs	r4, #31
 1069 002c 9440     		lsls	r4, r4, r2
 1070              	.LVL89:
 1071              		.loc 1 1238 0
 1072 002e 23EA0403 		bic	r3, r3, r4
 1073              	.LVL90:
 1074              		.loc 1 1240 0
 1075 0032 9140     		lsls	r1, r1, r2
 1076              	.LVL91:
 1077              		.loc 1 1242 0
 1078 0034 1943     		orrs	r1, r1, r3
 1079              	.LVL92:
 1080              		.loc 1 1244 0
 1081 0036 8163     		str	r1, [r0, #56]
 1082              		.loc 1 1245 0
 1083 0038 70BC     		pop	{r4, r5, r6}
ARM GAS  /tmp/ccfUSIwb.s 			page 20


 1084              		.cfi_remember_state
 1085              		.cfi_restore 6
 1086              		.cfi_restore 5
 1087              		.cfi_restore 4
 1088              		.cfi_def_cfa_offset 0
 1089 003a 7047     		bx	lr
 1090              	.LVL93:
 1091              	.L79:
 1092              		.cfi_restore_state
 1093              		.loc 1 1205 0
 1094 003c A1F10A04 		sub	r4, r1, #10
 1095 0040 04EB4404 		add	r4, r4, r4, lsl #1
 1096              		.loc 1 1203 0
 1097 0044 C568     		ldr	r5, [r0, #12]
 1098              	.LVL94:
 1099              		.loc 1 1205 0
 1100 0046 0726     		movs	r6, #7
 1101 0048 A640     		lsls	r6, r6, r4
 1102              	.LVL95:
 1103              		.loc 1 1209 0
 1104 004a A340     		lsls	r3, r3, r4
 1105              	.LVL96:
 1106              		.loc 1 1207 0
 1107 004c 25EA0604 		bic	r4, r5, r6
 1108              	.LVL97:
 1109              		.loc 1 1211 0
 1110 0050 2343     		orrs	r3, r3, r4
 1111              	.LVL98:
 1112              		.loc 1 1213 0
 1113 0052 C360     		str	r3, [r0, #12]
 1114 0054 E1E7     		b	.L77
 1115              		.cfi_endproc
 1116              	.LFE135:
 1117              		.size	ADC_InjectedChannelConfig, .-ADC_InjectedChannelConfig
 1118 0056 00BF     		.section	.text.ADC_InjectedSequencerLengthConfig,"ax",%progbits
 1119              		.align	1
 1120              		.p2align 4,,15
 1121              		.global	ADC_InjectedSequencerLengthConfig
 1122              		.syntax unified
 1123              		.thumb
 1124              		.thumb_func
 1125              		.fpu fpv4-sp-d16
 1126              		.type	ADC_InjectedSequencerLengthConfig, %function
 1127              	ADC_InjectedSequencerLengthConfig:
 1128              	.LFB136:
 1129              		.loc 1 1255 0
 1130              		.cfi_startproc
 1131              		@ args = 0, pretend = 0, frame = 0
 1132              		@ frame_needed = 0, uses_anonymous_args = 0
 1133              		@ link register save eliminated.
 1134              	.LVL99:
 1135              		.loc 1 1269 0
 1136 0000 4B1E     		subs	r3, r1, #1
 1137              		.loc 1 1263 0
 1138 0002 816B     		ldr	r1, [r0, #56]
 1139              	.LVL100:
 1140              		.loc 1 1266 0
ARM GAS  /tmp/ccfUSIwb.s 			page 21


 1141 0004 21F44011 		bic	r1, r1, #3145728
 1142              	.LVL101:
 1143              		.loc 1 1270 0
 1144 0008 41EA0351 		orr	r1, r1, r3, lsl #20
 1145              	.LVL102:
 1146              		.loc 1 1273 0
 1147 000c 8163     		str	r1, [r0, #56]
 1148              		.loc 1 1274 0
 1149 000e 7047     		bx	lr
 1150              		.cfi_endproc
 1151              	.LFE136:
 1152              		.size	ADC_InjectedSequencerLengthConfig, .-ADC_InjectedSequencerLengthConfig
 1153              		.section	.text.ADC_SetInjectedOffset,"ax",%progbits
 1154              		.align	1
 1155              		.p2align 4,,15
 1156              		.global	ADC_SetInjectedOffset
 1157              		.syntax unified
 1158              		.thumb
 1159              		.thumb_func
 1160              		.fpu fpv4-sp-d16
 1161              		.type	ADC_SetInjectedOffset, %function
 1162              	ADC_SetInjectedOffset:
 1163              	.LFB137:
 1164              		.loc 1 1290 0
 1165              		.cfi_startproc
 1166              		@ args = 0, pretend = 0, frame = 8
 1167              		@ frame_needed = 0, uses_anonymous_args = 0
 1168              		@ link register save eliminated.
 1169              	.LVL103:
 1170 0000 82B0     		sub	sp, sp, #8
 1171              		.cfi_def_cfa_offset 8
 1172              		.loc 1 1291 0
 1173 0002 0023     		movs	r3, #0
 1174 0004 0193     		str	r3, [sp, #4]
 1175              		.loc 1 1297 0
 1176 0006 0190     		str	r0, [sp, #4]
 1177              		.loc 1 1298 0
 1178 0008 019B     		ldr	r3, [sp, #4]
 1179 000a 1944     		add	r1, r1, r3
 1180              	.LVL104:
 1181 000c 0191     		str	r1, [sp, #4]
 1182              		.loc 1 1301 0
 1183 000e 019B     		ldr	r3, [sp, #4]
 1184 0010 1A60     		str	r2, [r3]
 1185              		.loc 1 1302 0
 1186 0012 02B0     		add	sp, sp, #8
 1187              		.cfi_def_cfa_offset 0
 1188              		@ sp needed
 1189 0014 7047     		bx	lr
 1190              		.cfi_endproc
 1191              	.LFE137:
 1192              		.size	ADC_SetInjectedOffset, .-ADC_SetInjectedOffset
 1193 0016 00BF     		.section	.text.ADC_ExternalTrigInjectedConvConfig,"ax",%progbits
 1194              		.align	1
 1195              		.p2align 4,,15
 1196              		.global	ADC_ExternalTrigInjectedConvConfig
 1197              		.syntax unified
ARM GAS  /tmp/ccfUSIwb.s 			page 22


 1198              		.thumb
 1199              		.thumb_func
 1200              		.fpu fpv4-sp-d16
 1201              		.type	ADC_ExternalTrigInjectedConvConfig, %function
 1202              	ADC_ExternalTrigInjectedConvConfig:
 1203              	.LFB138:
 1204              		.loc 1 1328 0
 1205              		.cfi_startproc
 1206              		@ args = 0, pretend = 0, frame = 0
 1207              		@ frame_needed = 0, uses_anonymous_args = 0
 1208              		@ link register save eliminated.
 1209              	.LVL105:
 1210              		.loc 1 1335 0
 1211 0000 8368     		ldr	r3, [r0, #8]
 1212              	.LVL106:
 1213              		.loc 1 1338 0
 1214 0002 23F47023 		bic	r3, r3, #983040
 1215              	.LVL107:
 1216              		.loc 1 1341 0
 1217 0006 1943     		orrs	r1, r1, r3
 1218              	.LVL108:
 1219              		.loc 1 1344 0
 1220 0008 8160     		str	r1, [r0, #8]
 1221              		.loc 1 1345 0
 1222 000a 7047     		bx	lr
 1223              		.cfi_endproc
 1224              	.LFE138:
 1225              		.size	ADC_ExternalTrigInjectedConvConfig, .-ADC_ExternalTrigInjectedConvConfig
 1226              		.section	.text.ADC_ExternalTrigInjectedConvEdgeConfig,"ax",%progbits
 1227              		.align	1
 1228              		.p2align 4,,15
 1229              		.global	ADC_ExternalTrigInjectedConvEdgeConfig
 1230              		.syntax unified
 1231              		.thumb
 1232              		.thumb_func
 1233              		.fpu fpv4-sp-d16
 1234              		.type	ADC_ExternalTrigInjectedConvEdgeConfig, %function
 1235              	ADC_ExternalTrigInjectedConvEdgeConfig:
 1236              	.LFB139:
 1237              		.loc 1 1362 0
 1238              		.cfi_startproc
 1239              		@ args = 0, pretend = 0, frame = 0
 1240              		@ frame_needed = 0, uses_anonymous_args = 0
 1241              		@ link register save eliminated.
 1242              	.LVL109:
 1243              		.loc 1 1368 0
 1244 0000 8368     		ldr	r3, [r0, #8]
 1245              	.LVL110:
 1246              		.loc 1 1370 0
 1247 0002 23F44013 		bic	r3, r3, #3145728
 1248              	.LVL111:
 1249              		.loc 1 1372 0
 1250 0006 1943     		orrs	r1, r1, r3
 1251              	.LVL112:
 1252              		.loc 1 1374 0
 1253 0008 8160     		str	r1, [r0, #8]
 1254              		.loc 1 1375 0
ARM GAS  /tmp/ccfUSIwb.s 			page 23


 1255 000a 7047     		bx	lr
 1256              		.cfi_endproc
 1257              	.LFE139:
 1258              		.size	ADC_ExternalTrigInjectedConvEdgeConfig, .-ADC_ExternalTrigInjectedConvEdgeConfig
 1259              		.section	.text.ADC_SoftwareStartInjectedConv,"ax",%progbits
 1260              		.align	1
 1261              		.p2align 4,,15
 1262              		.global	ADC_SoftwareStartInjectedConv
 1263              		.syntax unified
 1264              		.thumb
 1265              		.thumb_func
 1266              		.fpu fpv4-sp-d16
 1267              		.type	ADC_SoftwareStartInjectedConv, %function
 1268              	ADC_SoftwareStartInjectedConv:
 1269              	.LFB140:
 1270              		.loc 1 1383 0
 1271              		.cfi_startproc
 1272              		@ args = 0, pretend = 0, frame = 0
 1273              		@ frame_needed = 0, uses_anonymous_args = 0
 1274              		@ link register save eliminated.
 1275              	.LVL113:
 1276              		.loc 1 1387 0
 1277 0000 8368     		ldr	r3, [r0, #8]
 1278 0002 43F48003 		orr	r3, r3, #4194304
 1279 0006 8360     		str	r3, [r0, #8]
 1280              		.loc 1 1388 0
 1281 0008 7047     		bx	lr
 1282              		.cfi_endproc
 1283              	.LFE140:
 1284              		.size	ADC_SoftwareStartInjectedConv, .-ADC_SoftwareStartInjectedConv
 1285 000a 00BF     		.section	.text.ADC_GetSoftwareStartInjectedConvCmdStatus,"ax",%progbits
 1286              		.align	1
 1287              		.p2align 4,,15
 1288              		.global	ADC_GetSoftwareStartInjectedConvCmdStatus
 1289              		.syntax unified
 1290              		.thumb
 1291              		.thumb_func
 1292              		.fpu fpv4-sp-d16
 1293              		.type	ADC_GetSoftwareStartInjectedConvCmdStatus, %function
 1294              	ADC_GetSoftwareStartInjectedConvCmdStatus:
 1295              	.LFB141:
 1296              		.loc 1 1396 0
 1297              		.cfi_startproc
 1298              		@ args = 0, pretend = 0, frame = 0
 1299              		@ frame_needed = 0, uses_anonymous_args = 0
 1300              		@ link register save eliminated.
 1301              	.LVL114:
 1302              		.loc 1 1402 0
 1303 0000 8068     		ldr	r0, [r0, #8]
 1304              	.LVL115:
 1305              		.loc 1 1414 0
 1306 0002 C0F38050 		ubfx	r0, r0, #22, #1
 1307              	.LVL116:
 1308 0006 7047     		bx	lr
 1309              		.cfi_endproc
 1310              	.LFE141:
 1311              		.size	ADC_GetSoftwareStartInjectedConvCmdStatus, .-ADC_GetSoftwareStartInjectedConvCmdStatus
ARM GAS  /tmp/ccfUSIwb.s 			page 24


 1312              		.section	.text.ADC_AutoInjectedConvCmd,"ax",%progbits
 1313              		.align	1
 1314              		.p2align 4,,15
 1315              		.global	ADC_AutoInjectedConvCmd
 1316              		.syntax unified
 1317              		.thumb
 1318              		.thumb_func
 1319              		.fpu fpv4-sp-d16
 1320              		.type	ADC_AutoInjectedConvCmd, %function
 1321              	ADC_AutoInjectedConvCmd:
 1322              	.LFB142:
 1323              		.loc 1 1425 0
 1324              		.cfi_startproc
 1325              		@ args = 0, pretend = 0, frame = 0
 1326              		@ frame_needed = 0, uses_anonymous_args = 0
 1327              		@ link register save eliminated.
 1328              	.LVL117:
 1329              		.loc 1 1432 0
 1330 0000 4368     		ldr	r3, [r0, #4]
 1331              		.loc 1 1429 0
 1332 0002 19B9     		cbnz	r1, .L90
 1333              		.loc 1 1437 0
 1334 0004 23F48063 		bic	r3, r3, #1024
 1335 0008 4360     		str	r3, [r0, #4]
 1336              		.loc 1 1439 0
 1337 000a 7047     		bx	lr
 1338              	.L90:
 1339              		.loc 1 1432 0
 1340 000c 43F48063 		orr	r3, r3, #1024
 1341 0010 4360     		str	r3, [r0, #4]
 1342 0012 7047     		bx	lr
 1343              		.cfi_endproc
 1344              	.LFE142:
 1345              		.size	ADC_AutoInjectedConvCmd, .-ADC_AutoInjectedConvCmd
 1346              		.section	.text.ADC_InjectedDiscModeCmd,"ax",%progbits
 1347              		.align	1
 1348              		.p2align 4,,15
 1349              		.global	ADC_InjectedDiscModeCmd
 1350              		.syntax unified
 1351              		.thumb
 1352              		.thumb_func
 1353              		.fpu fpv4-sp-d16
 1354              		.type	ADC_InjectedDiscModeCmd, %function
 1355              	ADC_InjectedDiscModeCmd:
 1356              	.LFB143:
 1357              		.loc 1 1451 0
 1358              		.cfi_startproc
 1359              		@ args = 0, pretend = 0, frame = 0
 1360              		@ frame_needed = 0, uses_anonymous_args = 0
 1361              		@ link register save eliminated.
 1362              	.LVL118:
 1363              		.loc 1 1458 0
 1364 0000 4368     		ldr	r3, [r0, #4]
 1365              		.loc 1 1455 0
 1366 0002 19B9     		cbnz	r1, .L94
 1367              		.loc 1 1463 0
 1368 0004 23F48053 		bic	r3, r3, #4096
ARM GAS  /tmp/ccfUSIwb.s 			page 25


 1369 0008 4360     		str	r3, [r0, #4]
 1370              		.loc 1 1465 0
 1371 000a 7047     		bx	lr
 1372              	.L94:
 1373              		.loc 1 1458 0
 1374 000c 43F48053 		orr	r3, r3, #4096
 1375 0010 4360     		str	r3, [r0, #4]
 1376 0012 7047     		bx	lr
 1377              		.cfi_endproc
 1378              	.LFE143:
 1379              		.size	ADC_InjectedDiscModeCmd, .-ADC_InjectedDiscModeCmd
 1380              		.section	.text.ADC_GetInjectedConversionValue,"ax",%progbits
 1381              		.align	1
 1382              		.p2align 4,,15
 1383              		.global	ADC_GetInjectedConversionValue
 1384              		.syntax unified
 1385              		.thumb
 1386              		.thumb_func
 1387              		.fpu fpv4-sp-d16
 1388              		.type	ADC_GetInjectedConversionValue, %function
 1389              	ADC_GetInjectedConversionValue:
 1390              	.LFB144:
 1391              		.loc 1 1479 0
 1392              		.cfi_startproc
 1393              		@ args = 0, pretend = 0, frame = 8
 1394              		@ frame_needed = 0, uses_anonymous_args = 0
 1395              		@ link register save eliminated.
 1396              	.LVL119:
 1397 0000 82B0     		sub	sp, sp, #8
 1398              		.cfi_def_cfa_offset 8
 1399              		.loc 1 1480 0
 1400 0002 0023     		movs	r3, #0
 1401 0004 0193     		str	r3, [sp, #4]
 1402              		.loc 1 1486 0
 1403 0006 0190     		str	r0, [sp, #4]
 1404              		.loc 1 1487 0
 1405 0008 019B     		ldr	r3, [sp, #4]
 1406 000a 2833     		adds	r3, r3, #40
 1407 000c 1944     		add	r1, r1, r3
 1408              	.LVL120:
 1409 000e 0191     		str	r1, [sp, #4]
 1410              		.loc 1 1490 0
 1411 0010 019B     		ldr	r3, [sp, #4]
 1412 0012 1868     		ldr	r0, [r3]
 1413              	.LVL121:
 1414              		.loc 1 1491 0
 1415 0014 80B2     		uxth	r0, r0
 1416 0016 02B0     		add	sp, sp, #8
 1417              		.cfi_def_cfa_offset 0
 1418              		@ sp needed
 1419 0018 7047     		bx	lr
 1420              		.cfi_endproc
 1421              	.LFE144:
 1422              		.size	ADC_GetInjectedConversionValue, .-ADC_GetInjectedConversionValue
 1423 001a 00BF     		.section	.text.ADC_ITConfig,"ax",%progbits
 1424              		.align	1
 1425              		.p2align 4,,15
ARM GAS  /tmp/ccfUSIwb.s 			page 26


 1426              		.global	ADC_ITConfig
 1427              		.syntax unified
 1428              		.thumb
 1429              		.thumb_func
 1430              		.fpu fpv4-sp-d16
 1431              		.type	ADC_ITConfig, %function
 1432              	ADC_ITConfig:
 1433              	.LFB145:
 1434              		.loc 1 1586 0
 1435              		.cfi_startproc
 1436              		@ args = 0, pretend = 0, frame = 0
 1437              		@ frame_needed = 0, uses_anonymous_args = 0
 1438              		@ link register save eliminated.
 1439              	.LVL122:
 1440              		.loc 1 1594 0
 1441 0000 C9B2     		uxtb	r1, r1
 1442              	.LVL123:
 1443              		.loc 1 1595 0
 1444 0002 0123     		movs	r3, #1
 1445 0004 8B40     		lsls	r3, r3, r1
 1446              	.LVL124:
 1447              		.loc 1 1600 0
 1448 0006 4168     		ldr	r1, [r0, #4]
 1449              		.loc 1 1597 0
 1450 0008 1AB9     		cbnz	r2, .L100
 1451              		.loc 1 1605 0
 1452 000a 21EA0303 		bic	r3, r1, r3
 1453              	.LVL125:
 1454 000e 4360     		str	r3, [r0, #4]
 1455              		.loc 1 1607 0
 1456 0010 7047     		bx	lr
 1457              	.LVL126:
 1458              	.L100:
 1459              		.loc 1 1600 0
 1460 0012 0B43     		orrs	r3, r3, r1
 1461              	.LVL127:
 1462 0014 4360     		str	r3, [r0, #4]
 1463 0016 7047     		bx	lr
 1464              		.cfi_endproc
 1465              	.LFE145:
 1466              		.size	ADC_ITConfig, .-ADC_ITConfig
 1467              		.section	.text.ADC_GetFlagStatus,"ax",%progbits
 1468              		.align	1
 1469              		.p2align 4,,15
 1470              		.global	ADC_GetFlagStatus
 1471              		.syntax unified
 1472              		.thumb
 1473              		.thumb_func
 1474              		.fpu fpv4-sp-d16
 1475              		.type	ADC_GetFlagStatus, %function
 1476              	ADC_GetFlagStatus:
 1477              	.LFB146:
 1478              		.loc 1 1623 0
 1479              		.cfi_startproc
 1480              		@ args = 0, pretend = 0, frame = 0
 1481              		@ frame_needed = 0, uses_anonymous_args = 0
 1482              		@ link register save eliminated.
ARM GAS  /tmp/ccfUSIwb.s 			page 27


 1483              	.LVL128:
 1484              		.loc 1 1630 0
 1485 0000 0368     		ldr	r3, [r0]
 1486              	.LVL129:
 1487 0002 1942     		tst	r1, r3
 1488              		.loc 1 1642 0
 1489 0004 14BF     		ite	ne
 1490 0006 0120     		movne	r0, #1
 1491              	.LVL130:
 1492 0008 0020     		moveq	r0, #0
 1493 000a 7047     		bx	lr
 1494              		.cfi_endproc
 1495              	.LFE146:
 1496              		.size	ADC_GetFlagStatus, .-ADC_GetFlagStatus
 1497              		.section	.text.ADC_ClearFlag,"ax",%progbits
 1498              		.align	1
 1499              		.p2align 4,,15
 1500              		.global	ADC_ClearFlag
 1501              		.syntax unified
 1502              		.thumb
 1503              		.thumb_func
 1504              		.fpu fpv4-sp-d16
 1505              		.type	ADC_ClearFlag, %function
 1506              	ADC_ClearFlag:
 1507              	.LFB147:
 1508              		.loc 1 1658 0
 1509              		.cfi_startproc
 1510              		@ args = 0, pretend = 0, frame = 0
 1511              		@ frame_needed = 0, uses_anonymous_args = 0
 1512              		@ link register save eliminated.
 1513              	.LVL131:
 1514              		.loc 1 1664 0
 1515 0000 C943     		mvns	r1, r1
 1516              	.LVL132:
 1517 0002 0160     		str	r1, [r0]
 1518              		.loc 1 1665 0
 1519 0004 7047     		bx	lr
 1520              		.cfi_endproc
 1521              	.LFE147:
 1522              		.size	ADC_ClearFlag, .-ADC_ClearFlag
 1523 0006 00BF     		.section	.text.ADC_GetITStatus,"ax",%progbits
 1524              		.align	1
 1525              		.p2align 4,,15
 1526              		.global	ADC_GetITStatus
 1527              		.syntax unified
 1528              		.thumb
 1529              		.thumb_func
 1530              		.fpu fpv4-sp-d16
 1531              		.type	ADC_GetITStatus, %function
 1532              	ADC_GetITStatus:
 1533              	.LFB148:
 1534              		.loc 1 1679 0
 1535              		.cfi_startproc
 1536              		@ args = 0, pretend = 0, frame = 0
 1537              		@ frame_needed = 0, uses_anonymous_args = 0
 1538              		@ link register save eliminated.
 1539              	.LVL133:
ARM GAS  /tmp/ccfUSIwb.s 			page 28


 1540              		.loc 1 1691 0
 1541 0000 4268     		ldr	r2, [r0, #4]
 1542              	.LVL134:
 1543              		.loc 1 1694 0
 1544 0002 0068     		ldr	r0, [r0]
 1545              	.LVL135:
 1546 0004 10EA1120 		ands	r0, r0, r1, lsr #8
 1547 0008 07D0     		beq	.L104
 1548              		.loc 1 1691 0 discriminator 1
 1549 000a 0123     		movs	r3, #1
 1550 000c C9B2     		uxtb	r1, r1
 1551              	.LVL136:
 1552 000e 03FA01F1 		lsl	r1, r3, r1
 1553              	.LVL137:
 1554              		.loc 1 1694 0 discriminator 1
 1555 0012 1142     		tst	r1, r2
 1556              		.loc 1 1697 0 discriminator 1
 1557 0014 14BF     		ite	ne
 1558 0016 1846     		movne	r0, r3
 1559 0018 0020     		moveq	r0, #0
 1560              	.L104:
 1561              	.LVL138:
 1562              		.loc 1 1706 0
 1563 001a 7047     		bx	lr
 1564              		.cfi_endproc
 1565              	.LFE148:
 1566              		.size	ADC_GetITStatus, .-ADC_GetITStatus
 1567              		.section	.text.ADC_ClearITPendingBit,"ax",%progbits
 1568              		.align	1
 1569              		.p2align 4,,15
 1570              		.global	ADC_ClearITPendingBit
 1571              		.syntax unified
 1572              		.thumb
 1573              		.thumb_func
 1574              		.fpu fpv4-sp-d16
 1575              		.type	ADC_ClearITPendingBit, %function
 1576              	ADC_ClearITPendingBit:
 1577              	.LFB149:
 1578              		.loc 1 1720 0
 1579              		.cfi_startproc
 1580              		@ args = 0, pretend = 0, frame = 0
 1581              		@ frame_needed = 0, uses_anonymous_args = 0
 1582              		@ link register save eliminated.
 1583              	.LVL139:
 1584              		.loc 1 1728 0
 1585 0000 6FEA1121 		mvn	r1, r1, lsr #8
 1586              	.LVL140:
 1587 0004 0160     		str	r1, [r0]
 1588              		.loc 1 1729 0
 1589 0006 7047     		bx	lr
 1590              		.cfi_endproc
 1591              	.LFE149:
 1592              		.size	ADC_ClearITPendingBit, .-ADC_ClearITPendingBit
 1593              		.text
 1594              	.Letext0:
 1595              		.file 2 "/usr/arm-none-eabi/include/machine/_default_types.h"
 1596              		.file 3 "/usr/arm-none-eabi/include/sys/_stdint.h"
ARM GAS  /tmp/ccfUSIwb.s 			page 29


 1597              		.file 4 "ChibiOS_3.0.5/os/ext/CMSIS/include/core_cm4.h"
 1598              		.file 5 "ChibiOS_3.0.5/os/ext/CMSIS/ST/system_stm32f4xx.h"
 1599              		.file 6 "ChibiOS_3.0.5/os/ext/CMSIS/ST/stm32f407xx.h"
 1600              		.file 7 "ChibiOS_3.0.5/os/ext/CMSIS/ST/stm32f4xx.h"
 1601              		.file 8 "ChibiOS_3.0.5/ext/stdperiph_stm32f4/inc/stm32f4xx_adc.h"
 1602              		.file 9 "ChibiOS_3.0.5/ext/stdperiph_stm32f4/inc/stm32f4xx_rcc.h"