ARM GAS  /tmp/ccfacFrk.s 			page 1


   1              		.cpu cortex-m4
   2              		.eabi_attribute 27, 1
   3              		.eabi_attribute 28, 1
   4              		.eabi_attribute 20, 1
   5              		.eabi_attribute 21, 1
   6              		.eabi_attribute 23, 3
   7              		.eabi_attribute 24, 1
   8              		.eabi_attribute 25, 1
   9              		.eabi_attribute 26, 1
  10              		.eabi_attribute 30, 2
  11              		.eabi_attribute 34, 1
  12              		.eabi_attribute 18, 4
  13              		.file	"streams.c"
  14              		.text
  15              	.Ltext0:
  16              		.cfi_sections	.debug_frame
  17              		.section	.text.lbm_stream_get,"ax",%progbits
  18              		.align	1
  19              		.p2align 4,,15
  20              		.global	lbm_stream_get
  21              		.syntax unified
  22              		.thumb
  23              		.thumb_func
  24              		.fpu fpv4-sp-d16
  25              		.type	lbm_stream_get, %function
  26              	lbm_stream_get:
  27              	.LFB33:
  28              		.file 1 "lispBM/lispBM/src/streams.c"
  29              		.loc 1 21 0
  30              		.cfi_startproc
  31              		@ args = 0, pretend = 0, frame = 0
  32              		@ frame_needed = 0, uses_anonymous_args = 0
  33              		@ link register save eliminated.
  34              	.LVL0:
  35              		.loc 1 22 0
  36 0000 8368     		ldr	r3, [r0, #8]
  37 0002 1847     		bx	r3
  38              	.LVL1:
  39              		.cfi_endproc
  40              	.LFE33:
  41              		.size	lbm_stream_get, .-lbm_stream_get
  42              		.section	.text.lbm_stream_more,"ax",%progbits
  43              		.align	1
  44              		.p2align 4,,15
  45              		.global	lbm_stream_more
  46              		.syntax unified
  47              		.thumb
  48              		.thumb_func
  49              		.fpu fpv4-sp-d16
  50              		.type	lbm_stream_more, %function
  51              	lbm_stream_more:
  52              	.LFB34:
  53              		.loc 1 25 0
  54              		.cfi_startproc
  55              		@ args = 0, pretend = 0, frame = 0
  56              		@ frame_needed = 0, uses_anonymous_args = 0
  57              		@ link register save eliminated.
ARM GAS  /tmp/ccfacFrk.s 			page 2


  58              	.LVL2:
  59              		.loc 1 26 0
  60 0000 4368     		ldr	r3, [r0, #4]
  61 0002 1847     		bx	r3
  62              	.LVL3:
  63              		.cfi_endproc
  64              	.LFE34:
  65              		.size	lbm_stream_more, .-lbm_stream_more
  66              		.section	.text.lbm_stream_peek,"ax",%progbits
  67              		.align	1
  68              		.p2align 4,,15
  69              		.global	lbm_stream_peek
  70              		.syntax unified
  71              		.thumb
  72              		.thumb_func
  73              		.fpu fpv4-sp-d16
  74              		.type	lbm_stream_peek, %function
  75              	lbm_stream_peek:
  76              	.LFB35:
  77              		.loc 1 29 0
  78              		.cfi_startproc
  79              		@ args = 0, pretend = 0, frame = 0
  80              		@ frame_needed = 0, uses_anonymous_args = 0
  81              		@ link register save eliminated.
  82              	.LVL4:
  83              		.loc 1 30 0
  84 0000 C368     		ldr	r3, [r0, #12]
  85 0002 1847     		bx	r3
  86              	.LVL5:
  87              		.cfi_endproc
  88              	.LFE35:
  89              		.size	lbm_stream_peek, .-lbm_stream_peek
  90              		.section	.text.lbm_stream_drop,"ax",%progbits
  91              		.align	1
  92              		.p2align 4,,15
  93              		.global	lbm_stream_drop
  94              		.syntax unified
  95              		.thumb
  96              		.thumb_func
  97              		.fpu fpv4-sp-d16
  98              		.type	lbm_stream_drop, %function
  99              	lbm_stream_drop:
 100              	.LFB36:
 101              		.loc 1 33 0
 102              		.cfi_startproc
 103              		@ args = 0, pretend = 0, frame = 0
 104              		@ frame_needed = 0, uses_anonymous_args = 0
 105              		@ link register save eliminated.
 106              	.LVL6:
 107              		.loc 1 34 0
 108 0000 0369     		ldr	r3, [r0, #16]
 109 0002 1847     		bx	r3
 110              	.LVL7:
 111              		.cfi_endproc
 112              	.LFE36:
 113              		.size	lbm_stream_drop, .-lbm_stream_drop
 114              		.section	.text.lbm_stream_put,"ax",%progbits
ARM GAS  /tmp/ccfacFrk.s 			page 3


 115              		.align	1
 116              		.p2align 4,,15
 117              		.global	lbm_stream_put
 118              		.syntax unified
 119              		.thumb
 120              		.thumb_func
 121              		.fpu fpv4-sp-d16
 122              		.type	lbm_stream_put, %function
 123              	lbm_stream_put:
 124              	.LFB37:
 125              		.loc 1 37 0
 126              		.cfi_startproc
 127              		@ args = 0, pretend = 0, frame = 0
 128              		@ frame_needed = 0, uses_anonymous_args = 0
 129              		@ link register save eliminated.
 130              	.LVL8:
 131              		.loc 1 38 0
 132 0000 4369     		ldr	r3, [r0, #20]
 133 0002 1847     		bx	r3
 134              	.LVL9:
 135              		.cfi_endproc
 136              	.LFE37:
 137              		.size	lbm_stream_put, .-lbm_stream_put
 138              		.section	.text.lbm_stream_create,"ax",%progbits
 139              		.align	1
 140              		.p2align 4,,15
 141              		.global	lbm_stream_create
 142              		.syntax unified
 143              		.thumb
 144              		.thumb_func
 145              		.fpu fpv4-sp-d16
 146              		.type	lbm_stream_create, %function
 147              	lbm_stream_create:
 148              	.LFB38:
 149              		.loc 1 41 0
 150              		.cfi_startproc
 151              		@ args = 0, pretend = 0, frame = 0
 152              		@ frame_needed = 0, uses_anonymous_args = 0
 153              	.LVL10:
 154 0000 08B5     		push	{r3, lr}
 155              		.cfi_def_cfa_offset 8
 156              		.cfi_offset 3, -8
 157              		.cfi_offset 14, -4
 158              		.loc 1 42 0
 159 0002 4FF4B461 		mov	r1, #1440
 160 0006 FFF7FEFF 		bl	lbm_cons
 161              	.LVL11:
 162              	.LBB6:
 163              	.LBB7:
 164              		.file 2 "lispBM/lispBM/include/heap.h"
 165              		.loc 2 461 0
 166 000a C307     		lsls	r3, r0, #31
 167 000c 06D5     		bpl	.L7
 168              	.LVL12:
 169 000e 00F07C43 		and	r3, r0, #-67108864
 170              	.LBE7:
 171              	.LBE6:
ARM GAS  /tmp/ccfacFrk.s 			page 4


 172              		.loc 1 43 0
 173 0012 B3F1805F 		cmp	r3, #268435456
 174              		.loc 1 44 0
 175 0016 08BF     		it	eq
 176 0018 40F07040 		orreq	r0, r0, #-268435456
 177              	.LVL13:
 178              	.L7:
 179              		.loc 1 47 0
 180 001c 08BD     		pop	{r3, pc}
 181              		.cfi_endproc
 182              	.LFE38:
 183              		.size	lbm_stream_create, .-lbm_stream_create
 184 001e 00BF     		.text
 185              	.Letext0:
 186              		.file 3 "/usr/arm-none-eabi/include/machine/_default_types.h"
 187              		.file 4 "/usr/arm-none-eabi/include/sys/_stdint.h"
 188              		.file 5 "lispBM/lispBM/include/lbm_types.h"
 189              		.file 6 "lispBM/lispBM/include/streams.h"
 190              		.file 7 "/usr/arm-none-eabi/include/sys/lock.h"
 191              		.file 8 "/usr/arm-none-eabi/include/sys/_types.h"
 192              		.file 9 "/usr/lib/gcc/arm-none-eabi/7.3.1/include/stddef.h"
 193              		.file 10 "/usr/arm-none-eabi/include/sys/reent.h"