ARM GAS  /tmp/ccfacFrk.s 			page 1


   1              		.cpu cortex-m4
   2              		.eabi_attribute 27, 1
   3              		.eabi_attribute 28, 1
   4              		.eabi_attribute 20, 1
   5              		.eabi_attribute 21, 1
   6              		.eabi_attribute 23, 3
   7              		.eabi_attribute 24, 1
   8              		.eabi_attribute 25, 1
   9              		.eabi_attribute 26, 1
  10              		.eabi_attribute 30, 2
  11              		.eabi_attribute 34, 1
  12              		.eabi_attribute 18, 4
  13              		.file	"streams.c"
  14              		.text
  15              	.Ltext0:
  16              		.cfi_sections	.debug_frame
  17              		.section	.text.lbm_stream_get,"ax",%progbits
  18              		.align	1
  19              		.p2align 4,,15
  20              		.global	lbm_stream_get
  21              		.syntax unified
  22              		.thumb
  23              		.thumb_func
  24              		.fpu fpv4-sp-d16
  25              		.type	lbm_stream_get, %function
  26              	lbm_stream_get:
  27              	.LFB33:
  28              		.file 1 "lispBM/lispBM/src/streams.c"
  29              		.loc 1 21 0
  30              		.cfi_startproc
  31              		@ args = 0, pretend = 0, frame = 0
  32              		@ frame_needed = 0, uses_anonymous_args = 0
  33              		@ link register save eliminated.
  34              	.LVL0:
  35              		.loc 1 22 0
  36 0000 8368     		ldr	r3, [r0, #8]
  37 0002 1847     		bx	r3
  38              	.LVL1:
  39              		.cfi_endproc
  40              	.LFE33:
  41              		.size	lbm_stream_get, .-lbm_stream_get
  42              		.section	.text.lbm_stream_more,"ax",%progbits
  43              		.align	1
  44              		.p2align 4,,15
  45              		.global	lbm_stream_more
  46              		.syntax unified
  47              		.thumb
  48              		.thumb_func
  49              		.fpu fpv4-sp-d16
  50              		.type	lbm_stream_more, %function
  51              	lbm_stream_more:
  52              	.LFB34:
  53              		.loc 1 25 0
  54              		.cfi_startproc
  55              		@ args = 0, pretend = 0, frame = 0
  56              		@ frame_needed = 0, uses_anonymous_args = 0
  57              		@ link register save eliminated.
ARM GAS  /tmp/ccfacFrk.s 			page 2


  58              	.LVL2:
  59              		.loc 1 26 0
  60 0000 4368     		ldr	r3, [r0, #4]
  61 0002 1847     		bx	r3
  62              	.LVL3:
  63              		.cfi_endproc
  64              	.LFE34:
  65              		.size	lbm_stream_more, .-lbm_stream_more
  66              		.section	.text.lbm_stream_peek,"ax",%progbits
  67              		.align	1
  68              		.p2align 4,,15
  69              		.global	lbm_stream_peek
  70              		.syntax unified
  71              		.thumb
  72              		.thumb_func
  73              		.fpu fpv4-sp-d16
  74              		.type	lbm_stream_peek, %function
  75              	lbm_stream_peek:
  76              	.LFB35:
  77              		.loc 1 29 0
  78              		.cfi_startproc
  79              		@ args = 0, pretend = 0, frame = 0
  80              		@ frame_needed = 0, uses_anonymous_args = 0
  81              		@ link register save eliminated.
  82              	.LVL4:
  83              		.loc 1 30 0
  84 0000 C368     		ldr	r3, [r0, #12]
  85 0002 1847     		bx	r3
  86              	.LVL5:
  87              		.cfi_endproc
  88              	.LFE35:
  89              		.size	lbm_stream_peek, .-lbm_stream_peek
  90              		.section	.text.lbm_stream_drop,"ax",%progbits
  91              		.align	1
  92              		.p2align 4,,15
  93              		.global	lbm_stream_drop
  94              		.syntax unified
  95              		.thumb
  96              		.thumb_func
  97              		.fpu fpv4-sp-d16
  98              		.type	lbm_stream_drop, %function
  99              	lbm_stream_drop:
 100              	.LFB36:
 101              		.loc 1 33 0
 102              		.cfi_startproc
 103              		@ args = 0, pretend = 0, frame = 0
 104              		@ frame_needed = 0, uses_anonymous_args = 0
 105              		@ link register save eliminated.
 106              	.LVL6:
 107              		.loc 1 34 0
 108 0000 0369     		ldr	r3, [r0, #16]
 109 0002 1847     		bx	r3
 110              	.LVL7:
 111              		.cfi_endproc
 112              	.LFE36:
 113              		.size	lbm_stream_drop, .-lbm_stream_drop
 114              		.section	.text.lbm_stream_put,"ax",%progbits
ARM GAS  /tmp/ccfacFrk.s 			page 3


 115              		.align	1
 116              		.p2align 4,,15
 117              		.global	lbm_stream_put
 118              		.syntax unified
 119              		.thumb
 120              		.thumb_func
 121              		.fpu fpv4-sp-d16
 122              		.type	lbm_stream_put, %function
 123              	lbm_stream_put:
 124              	.LFB37:
 125              		.loc 1 37 0
 126              		.cfi_startproc
 127              		@ args = 0, pretend = 0, frame = 0
 128              		@ frame_needed = 0, uses_anonymous_args = 0
 129              		@ link register save eliminated.
 130              	.LVL8:
 131              		.loc 1 38 0
 132 0000 4369     		ldr	r3, [r0, #20]
 133 0002 1847     		bx	r3
 134              	.LVL9:
 135              		.cfi_endproc
 136              	.LFE37:
 137              		.size	lbm_stream_put, .-lbm_stream_put
 138              		.section	.text.lbm_stream_create,"ax",%progbits
 139              		.align	1
 140              		.p2align 4,,15
 141              		.global	lbm_stream_create
 142              		.syntax unified
 143              		.thumb
 144              		.thumb_func
 145              		.fpu fpv4-sp-d16
 146              		.type	lbm_stream_create, %function
 147              	lbm_stream_create:
 148              	.LFB38:
 149              		.loc 1 41 0
 150              		.cfi_startproc
 151              		@ args = 0, pretend = 0, frame = 0
 152              		@ frame_needed = 0, uses_anonymous_args = 0
 153              	.LVL10:
 154 0000 08B5     		push	{r3, lr}
 155              		.cfi_def_cfa_offset 8
 156              		.cfi_offset 3, -8
 157              		.cfi_offset 14, -4
 158              		.loc 1 42 0
 159 0002 4FF4B461 		mov	r1, #1440
 160 0006 FFF7FEFF 		bl	lbm_cons
 161              	.LVL11:
 162              	.LBB6:
 163              	.LBB7:
 164              		.file 2 "lispBM/lispBM/include/heap.h"
 165              		.loc 2 461 0
 166 000a C307     		lsls	r3, r0, #31
 167 000c 06D5     		bpl	.L7
 168              	.LVL12:
 169 000e 00F07C43 		and	r3, r0, #-67108864
 170              	.LBE7:
 171              	.LBE6:
ARM GAS  /tmp/ccfacFrk.s 			page 4


 172              		.loc 1 43 0
 173 0012 B3F1805F 		cmp	r3, #268435456
 174              		.loc 1 44 0
 175 0016 08BF     		it	eq
 176 0018 40F07040 		orreq	r0, r0, #-268435456
 177              	.LVL13:
 178              	.L7:
 179              		.loc 1 47 0
 180 001c 08BD     		pop	{r3, pc}
 181              		.cfi_endproc
 182              	.LFE38:
 183              		.size	lbm_stream_create, .-lbm_stream_create
 184 001e 00BF     		.text
 185              	.Letext0:
 186              		.file 3 "/usr/arm-none-eabi/include/machine/_default_types.h"
 187              		.file 4 "/usr/arm-none-eabi/include/sys/_stdint.h"
 188              		.file 5 "lispBM/lispBM/include/lbm_types.h"
 189              		.file 6 "lispBM/lispBM/include/streams.h"
 190              		.file 7 "/usr/arm-none-eabi/include/sys/lock.h"
 191              		.file 8 "/usr/arm-none-eabi/include/sys/_types.h"
 192              		.file 9 "/usr/lib/gcc/arm-none-eabi/7.3.1/include/stddef.h"
 193              		.file 10 "/usr/arm-none-eabi/include/sys/reent.h"
 194              		.section	.debug_info,"",%progbits
 195              	.Ldebug_info0:
 196 0000 560B0000 		.4byte	0xb56
 197 0004 0400     		.2byte	0x4
 198 0006 00000000 		.4byte	.Ldebug_abbrev0
 199 000a 04       		.byte	0x4
 200 000b 01       		.uleb128 0x1
 201 000c 2B000000 		.4byte	.LASF140
 202 0010 0C       		.byte	0xc
 203 0011 94050000 		.4byte	.LASF141
 204 0015 0C000000 		.4byte	.LASF142
 205 0019 00000000 		.4byte	.Ldebug_ranges0+0
 206 001d 00000000 		.4byte	0
 207 0021 00000000 		.4byte	.Ldebug_line0
 208 0025 02       		.uleb128 0x2
 209 0026 01       		.byte	0x1
 210 0027 06       		.byte	0x6
 211 0028 C0010000 		.4byte	.LASF0
 212 002c 02       		.uleb128 0x2
 213 002d 01       		.byte	0x1
 214 002e 08       		.byte	0x8
 215 002f 6A040000 		.4byte	.LASF1
 216 0033 02       		.uleb128 0x2
 217 0034 02       		.byte	0x2
 218 0035 05       		.byte	0x5
 219 0036 86040000 		.4byte	.LASF2
 220 003a 02       		.uleb128 0x2
 221 003b 02       		.byte	0x2
 222 003c 07       		.byte	0x7
 223 003d 4E030000 		.4byte	.LASF3
 224 0041 02       		.uleb128 0x2
 225 0042 04       		.byte	0x4
 226 0043 05       		.byte	0x5
 227 0044 14020000 		.4byte	.LASF4
 228 0048 03       		.uleb128 0x3
ARM GAS  /tmp/ccfacFrk.s 			page 5


 229 0049 9A020000 		.4byte	.LASF9
 230 004d 03       		.byte	0x3
 231 004e 4F       		.byte	0x4f
 232 004f 53000000 		.4byte	0x53
 233 0053 02       		.uleb128 0x2
 234 0054 04       		.byte	0x4
 235 0055 07       		.byte	0x7
 236 0056 0C030000 		.4byte	.LASF5
 237 005a 02       		.uleb128 0x2
 238 005b 08       		.byte	0x8
 239 005c 05       		.byte	0x5
 240 005d B2010000 		.4byte	.LASF6
 241 0061 02       		.uleb128 0x2
 242 0062 08       		.byte	0x8
 243 0063 07       		.byte	0x7
 244 0064 6F010000 		.4byte	.LASF7
 245 0068 04       		.uleb128 0x4
 246 0069 04       		.byte	0x4
 247 006a 05       		.byte	0x5
 248 006b 696E7400 		.ascii	"int\000"
 249 006f 02       		.uleb128 0x2
 250 0070 04       		.byte	0x4
 251 0071 07       		.byte	0x7
 252 0072 E8020000 		.4byte	.LASF8
 253 0076 03       		.uleb128 0x3
 254 0077 50050000 		.4byte	.LASF10
 255 007b 04       		.byte	0x4
 256 007c 30       		.byte	0x30
 257 007d 48000000 		.4byte	0x48
 258 0081 05       		.uleb128 0x5
 259 0082 04       		.byte	0x4
 260 0083 87000000 		.4byte	0x87
 261 0087 06       		.uleb128 0x6
 262 0088 8F010000 		.4byte	.LASF22
 263 008c 03       		.uleb128 0x3
 264 008d A0030000 		.4byte	.LASF11
 265 0091 05       		.byte	0x5
 266 0092 1E       		.byte	0x1e
 267 0093 76000000 		.4byte	0x76
 268 0097 03       		.uleb128 0x3
 269 0098 CC010000 		.4byte	.LASF12
 270 009c 05       		.byte	0x5
 271 009d 20       		.byte	0x20
 272 009e 76000000 		.4byte	0x76
 273 00a2 02       		.uleb128 0x2
 274 00a3 04       		.byte	0x4
 275 00a4 04       		.byte	0x4
 276 00a5 41040000 		.4byte	.LASF13
 277 00a9 07       		.uleb128 0x7
 278 00aa 04       		.byte	0x4
 279 00ab 02       		.uleb128 0x2
 280 00ac 01       		.byte	0x1
 281 00ad 02       		.byte	0x2
 282 00ae 64040000 		.4byte	.LASF14
 283 00b2 02       		.uleb128 0x2
 284 00b3 01       		.byte	0x1
 285 00b4 08       		.byte	0x8
ARM GAS  /tmp/ccfacFrk.s 			page 6


 286 00b5 7A050000 		.4byte	.LASF15
 287 00b9 08       		.uleb128 0x8
 288 00ba B2000000 		.4byte	0xb2
 289 00be 09       		.uleb128 0x9
 290 00bf C9030000 		.4byte	.LASF34
 291 00c3 18       		.byte	0x18
 292 00c4 06       		.byte	0x6
 293 00c5 1D       		.byte	0x1d
 294 00c6 13010000 		.4byte	0x113
 295 00ca 0A       		.uleb128 0xa
 296 00cb 0E020000 		.4byte	.LASF16
 297 00cf 06       		.byte	0x6
 298 00d0 1E       		.byte	0x1e
 299 00d1 A9000000 		.4byte	0xa9
 300 00d5 00       		.byte	0
 301 00d6 0A       		.uleb128 0xa
 302 00d7 51040000 		.4byte	.LASF17
 303 00db 06       		.byte	0x6
 304 00dc 1F       		.byte	0x1f
 305 00dd 28010000 		.4byte	0x128
 306 00e1 04       		.byte	0x4
 307 00e2 0B       		.uleb128 0xb
 308 00e3 67657400 		.ascii	"get\000"
 309 00e7 06       		.byte	0x6
 310 00e8 20       		.byte	0x20
 311 00e9 28010000 		.4byte	0x128
 312 00ed 08       		.byte	0x8
 313 00ee 0A       		.uleb128 0xa
 314 00ef 37030000 		.4byte	.LASF18
 315 00f3 06       		.byte	0x6
 316 00f4 21       		.byte	0x21
 317 00f5 42010000 		.4byte	0x142
 318 00f9 0C       		.byte	0xc
 319 00fa 0A       		.uleb128 0xa
 320 00fb AE040000 		.4byte	.LASF19
 321 00ff 06       		.byte	0x6
 322 0100 22       		.byte	0x22
 323 0101 42010000 		.4byte	0x142
 324 0105 10       		.byte	0x10
 325 0106 0B       		.uleb128 0xb
 326 0107 70757400 		.ascii	"put\000"
 327 010b 06       		.byte	0x6
 328 010c 23       		.byte	0x23
 329 010d 42010000 		.4byte	0x142
 330 0111 14       		.byte	0x14
 331 0112 00       		.byte	0
 332 0113 0C       		.uleb128 0xc
 333 0114 8C000000 		.4byte	0x8c
 334 0118 22010000 		.4byte	0x122
 335 011c 0D       		.uleb128 0xd
 336 011d 22010000 		.4byte	0x122
 337 0121 00       		.byte	0
 338 0122 05       		.uleb128 0x5
 339 0123 04       		.byte	0x4
 340 0124 BE000000 		.4byte	0xbe
 341 0128 05       		.uleb128 0x5
 342 0129 04       		.byte	0x4
ARM GAS  /tmp/ccfacFrk.s 			page 7


 343 012a 13010000 		.4byte	0x113
 344 012e 0C       		.uleb128 0xc
 345 012f 8C000000 		.4byte	0x8c
 346 0133 42010000 		.4byte	0x142
 347 0137 0D       		.uleb128 0xd
 348 0138 22010000 		.4byte	0x122
 349 013c 0D       		.uleb128 0xd
 350 013d 8C000000 		.4byte	0x8c
 351 0141 00       		.byte	0
 352 0142 05       		.uleb128 0x5
 353 0143 04       		.byte	0x4
 354 0144 2E010000 		.4byte	0x12e
 355 0148 03       		.uleb128 0x3
 356 0149 D6030000 		.4byte	.LASF20
 357 014d 06       		.byte	0x6
 358 014e 24       		.byte	0x24
 359 014f BE000000 		.4byte	0xbe
 360 0153 03       		.uleb128 0x3
 361 0154 91030000 		.4byte	.LASF21
 362 0158 07       		.byte	0x7
 363 0159 22       		.byte	0x22
 364 015a 5E010000 		.4byte	0x15e
 365 015e 05       		.uleb128 0x5
 366 015f 04       		.byte	0x4
 367 0160 64010000 		.4byte	0x164
 368 0164 06       		.uleb128 0x6
 369 0165 49050000 		.4byte	.LASF23
 370 0169 03       		.uleb128 0x3
 371 016a 21040000 		.4byte	.LASF24
 372 016e 08       		.byte	0x8
 373 016f 2C       		.byte	0x2c
 374 0170 41000000 		.4byte	0x41
 375 0174 03       		.uleb128 0x3
 376 0175 6B050000 		.4byte	.LASF25
 377 0179 08       		.byte	0x8
 378 017a 72       		.byte	0x72
 379 017b 41000000 		.4byte	0x41
 380 017f 0E       		.uleb128 0xe
 381 0180 99030000 		.4byte	.LASF26
 382 0184 09       		.byte	0x9
 383 0185 6501     		.2byte	0x165
 384 0187 6F000000 		.4byte	0x6f
 385 018b 0F       		.uleb128 0xf
 386 018c 04       		.byte	0x4
 387 018d 08       		.byte	0x8
 388 018e A6       		.byte	0xa6
 389 018f AA010000 		.4byte	0x1aa
 390 0193 10       		.uleb128 0x10
 391 0194 8B030000 		.4byte	.LASF27
 392 0198 08       		.byte	0x8
 393 0199 A8       		.byte	0xa8
 394 019a 7F010000 		.4byte	0x17f
 395 019e 10       		.uleb128 0x10
 396 019f F5020000 		.4byte	.LASF28
 397 01a3 08       		.byte	0x8
 398 01a4 A9       		.byte	0xa9
 399 01a5 AA010000 		.4byte	0x1aa
ARM GAS  /tmp/ccfacFrk.s 			page 8


 400 01a9 00       		.byte	0
 401 01aa 11       		.uleb128 0x11
 402 01ab 2C000000 		.4byte	0x2c
 403 01af BA010000 		.4byte	0x1ba
 404 01b3 12       		.uleb128 0x12
 405 01b4 6F000000 		.4byte	0x6f
 406 01b8 03       		.byte	0x3
 407 01b9 00       		.byte	0
 408 01ba 13       		.uleb128 0x13
 409 01bb 08       		.byte	0x8
 410 01bc 08       		.byte	0x8
 411 01bd A3       		.byte	0xa3
 412 01be DB010000 		.4byte	0x1db
 413 01c2 0A       		.uleb128 0xa
 414 01c3 41050000 		.4byte	.LASF29
 415 01c7 08       		.byte	0x8
 416 01c8 A5       		.byte	0xa5
 417 01c9 68000000 		.4byte	0x68
 418 01cd 00       		.byte	0
 419 01ce 0A       		.uleb128 0xa
 420 01cf B0050000 		.4byte	.LASF30
 421 01d3 08       		.byte	0x8
 422 01d4 AA       		.byte	0xaa
 423 01d5 8B010000 		.4byte	0x18b
 424 01d9 04       		.byte	0x4
 425 01da 00       		.byte	0
 426 01db 03       		.uleb128 0x3
 427 01dc F3030000 		.4byte	.LASF31
 428 01e0 08       		.byte	0x8
 429 01e1 AB       		.byte	0xab
 430 01e2 BA010000 		.4byte	0x1ba
 431 01e6 03       		.uleb128 0x3
 432 01e7 AB020000 		.4byte	.LASF32
 433 01eb 08       		.byte	0x8
 434 01ec AF       		.byte	0xaf
 435 01ed 53010000 		.4byte	0x153
 436 01f1 05       		.uleb128 0x5
 437 01f2 04       		.byte	0x4
 438 01f3 B2000000 		.4byte	0xb2
 439 01f7 03       		.uleb128 0x3
 440 01f8 C6050000 		.4byte	.LASF33
 441 01fc 0A       		.byte	0xa
 442 01fd 16       		.byte	0x16
 443 01fe 53000000 		.4byte	0x53
 444 0202 09       		.uleb128 0x9
 445 0203 BC020000 		.4byte	.LASF35
 446 0207 18       		.byte	0x18
 447 0208 0A       		.byte	0xa
 448 0209 2F       		.byte	0x2f
 449 020a 55020000 		.4byte	0x255
 450 020e 0A       		.uleb128 0xa
 451 020f 8E050000 		.4byte	.LASF36
 452 0213 0A       		.byte	0xa
 453 0214 31       		.byte	0x31
 454 0215 55020000 		.4byte	0x255
 455 0219 00       		.byte	0
 456 021a 0B       		.uleb128 0xb
ARM GAS  /tmp/ccfacFrk.s 			page 9


 457 021b 5F6B00   		.ascii	"_k\000"
 458 021e 0A       		.byte	0xa
 459 021f 32       		.byte	0x32
 460 0220 68000000 		.4byte	0x68
 461 0224 04       		.byte	0x4
 462 0225 0A       		.uleb128 0xa
 463 0226 20050000 		.4byte	.LASF37
 464 022a 0A       		.byte	0xa
 465 022b 32       		.byte	0x32
 466 022c 68000000 		.4byte	0x68
 467 0230 08       		.byte	0x8
 468 0231 0A       		.uleb128 0xa
 469 0232 A5020000 		.4byte	.LASF38
 470 0236 0A       		.byte	0xa
 471 0237 32       		.byte	0x32
 472 0238 68000000 		.4byte	0x68
 473 023c 0C       		.byte	0xc
 474 023d 0A       		.uleb128 0xa
 475 023e FB050000 		.4byte	.LASF39
 476 0242 0A       		.byte	0xa
 477 0243 32       		.byte	0x32
 478 0244 68000000 		.4byte	0x68
 479 0248 10       		.byte	0x10
 480 0249 0B       		.uleb128 0xb
 481 024a 5F7800   		.ascii	"_x\000"
 482 024d 0A       		.byte	0xa
 483 024e 33       		.byte	0x33
 484 024f 5B020000 		.4byte	0x25b
 485 0253 14       		.byte	0x14
 486 0254 00       		.byte	0
 487 0255 05       		.uleb128 0x5
 488 0256 04       		.byte	0x4
 489 0257 02020000 		.4byte	0x202
 490 025b 11       		.uleb128 0x11
 491 025c F7010000 		.4byte	0x1f7
 492 0260 6B020000 		.4byte	0x26b
 493 0264 12       		.uleb128 0x12
 494 0265 6F000000 		.4byte	0x6f
 495 0269 00       		.byte	0
 496 026a 00       		.byte	0
 497 026b 09       		.uleb128 0x9
 498 026c E3020000 		.4byte	.LASF40
 499 0270 24       		.byte	0x24
 500 0271 0A       		.byte	0xa
 501 0272 37       		.byte	0x37
 502 0273 E4020000 		.4byte	0x2e4
 503 0277 0A       		.uleb128 0xa
 504 0278 A9010000 		.4byte	.LASF41
 505 027c 0A       		.byte	0xa
 506 027d 39       		.byte	0x39
 507 027e 68000000 		.4byte	0x68
 508 0282 00       		.byte	0
 509 0283 0A       		.uleb128 0xa
 510 0284 7F050000 		.4byte	.LASF42
 511 0288 0A       		.byte	0xa
 512 0289 3A       		.byte	0x3a
 513 028a 68000000 		.4byte	0x68
ARM GAS  /tmp/ccfacFrk.s 			page 10


 514 028e 04       		.byte	0x4
 515 028f 0A       		.uleb128 0xa
 516 0290 E1010000 		.4byte	.LASF43
 517 0294 0A       		.byte	0xa
 518 0295 3B       		.byte	0x3b
 519 0296 68000000 		.4byte	0x68
 520 029a 08       		.byte	0x8
 521 029b 0A       		.uleb128 0xa
 522 029c 84060000 		.4byte	.LASF44
 523 02a0 0A       		.byte	0xa
 524 02a1 3C       		.byte	0x3c
 525 02a2 68000000 		.4byte	0x68
 526 02a6 0C       		.byte	0xc
 527 02a7 0A       		.uleb128 0xa
 528 02a8 05040000 		.4byte	.LASF45
 529 02ac 0A       		.byte	0xa
 530 02ad 3D       		.byte	0x3d
 531 02ae 68000000 		.4byte	0x68
 532 02b2 10       		.byte	0x10
 533 02b3 0A       		.uleb128 0xa
 534 02b4 BF030000 		.4byte	.LASF46
 535 02b8 0A       		.byte	0xa
 536 02b9 3E       		.byte	0x3e
 537 02ba 68000000 		.4byte	0x68
 538 02be 14       		.byte	0x14
 539 02bf 0A       		.uleb128 0xa
 540 02c0 00060000 		.4byte	.LASF47
 541 02c4 0A       		.byte	0xa
 542 02c5 3F       		.byte	0x3f
 543 02c6 68000000 		.4byte	0x68
 544 02ca 18       		.byte	0x18
 545 02cb 0A       		.uleb128 0xa
 546 02cc 90040000 		.4byte	.LASF48
 547 02d0 0A       		.byte	0xa
 548 02d1 40       		.byte	0x40
 549 02d2 68000000 		.4byte	0x68
 550 02d6 1C       		.byte	0x1c
 551 02d7 0A       		.uleb128 0xa
 552 02d8 3B060000 		.4byte	.LASF49
 553 02dc 0A       		.byte	0xa
 554 02dd 41       		.byte	0x41
 555 02de 68000000 		.4byte	0x68
 556 02e2 20       		.byte	0x20
 557 02e3 00       		.byte	0
 558 02e4 14       		.uleb128 0x14
 559 02e5 F0010000 		.4byte	.LASF50
 560 02e9 0801     		.2byte	0x108
 561 02eb 0A       		.byte	0xa
 562 02ec 4A       		.byte	0x4a
 563 02ed 24030000 		.4byte	0x324
 564 02f1 0A       		.uleb128 0xa
 565 02f2 87020000 		.4byte	.LASF51
 566 02f6 0A       		.byte	0xa
 567 02f7 4B       		.byte	0x4b
 568 02f8 24030000 		.4byte	0x324
 569 02fc 00       		.byte	0
 570 02fd 0A       		.uleb128 0xa
ARM GAS  /tmp/ccfacFrk.s 			page 11


 571 02fe 00000000 		.4byte	.LASF52
 572 0302 0A       		.byte	0xa
 573 0303 4C       		.byte	0x4c
 574 0304 24030000 		.4byte	0x324
 575 0308 80       		.byte	0x80
 576 0309 15       		.uleb128 0x15
 577 030a B8050000 		.4byte	.LASF53
 578 030e 0A       		.byte	0xa
 579 030f 4E       		.byte	0x4e
 580 0310 F7010000 		.4byte	0x1f7
 581 0314 0001     		.2byte	0x100
 582 0316 15       		.uleb128 0x15
 583 0317 33020000 		.4byte	.LASF54
 584 031b 0A       		.byte	0xa
 585 031c 51       		.byte	0x51
 586 031d F7010000 		.4byte	0x1f7
 587 0321 0401     		.2byte	0x104
 588 0323 00       		.byte	0
 589 0324 11       		.uleb128 0x11
 590 0325 A9000000 		.4byte	0xa9
 591 0329 34030000 		.4byte	0x334
 592 032d 12       		.uleb128 0x12
 593 032e 6F000000 		.4byte	0x6f
 594 0332 1F       		.byte	0x1f
 595 0333 00       		.byte	0
 596 0334 14       		.uleb128 0x14
 597 0335 0E040000 		.4byte	.LASF55
 598 0339 9001     		.2byte	0x190
 599 033b 0A       		.byte	0xa
 600 033c 5D       		.byte	0x5d
 601 033d 72030000 		.4byte	0x372
 602 0341 0A       		.uleb128 0xa
 603 0342 8E050000 		.4byte	.LASF36
 604 0346 0A       		.byte	0xa
 605 0347 5E       		.byte	0x5e
 606 0348 72030000 		.4byte	0x372
 607 034c 00       		.byte	0
 608 034d 0A       		.uleb128 0xa
 609 034e E1040000 		.4byte	.LASF56
 610 0352 0A       		.byte	0xa
 611 0353 5F       		.byte	0x5f
 612 0354 68000000 		.4byte	0x68
 613 0358 04       		.byte	0x4
 614 0359 0A       		.uleb128 0xa
 615 035a 95020000 		.4byte	.LASF57
 616 035e 0A       		.byte	0xa
 617 035f 61       		.byte	0x61
 618 0360 78030000 		.4byte	0x378
 619 0364 08       		.byte	0x8
 620 0365 0A       		.uleb128 0xa
 621 0366 F0010000 		.4byte	.LASF50
 622 036a 0A       		.byte	0xa
 623 036b 62       		.byte	0x62
 624 036c E4020000 		.4byte	0x2e4
 625 0370 88       		.byte	0x88
 626 0371 00       		.byte	0
 627 0372 05       		.uleb128 0x5
ARM GAS  /tmp/ccfacFrk.s 			page 12


 628 0373 04       		.byte	0x4
 629 0374 34030000 		.4byte	0x334
 630 0378 11       		.uleb128 0x11
 631 0379 88030000 		.4byte	0x388
 632 037d 88030000 		.4byte	0x388
 633 0381 12       		.uleb128 0x12
 634 0382 6F000000 		.4byte	0x6f
 635 0386 1F       		.byte	0x1f
 636 0387 00       		.byte	0
 637 0388 05       		.uleb128 0x5
 638 0389 04       		.byte	0x4
 639 038a 8E030000 		.4byte	0x38e
 640 038e 16       		.uleb128 0x16
 641 038f 09       		.uleb128 0x9
 642 0390 9A040000 		.4byte	.LASF58
 643 0394 08       		.byte	0x8
 644 0395 0A       		.byte	0xa
 645 0396 75       		.byte	0x75
 646 0397 B4030000 		.4byte	0x3b4
 647 039b 0A       		.uleb128 0xa
 648 039c DB010000 		.4byte	.LASF59
 649 03a0 0A       		.byte	0xa
 650 03a1 76       		.byte	0x76
 651 03a2 B4030000 		.4byte	0x3b4
 652 03a6 00       		.byte	0
 653 03a7 0A       		.uleb128 0xa
 654 03a8 8F020000 		.4byte	.LASF60
 655 03ac 0A       		.byte	0xa
 656 03ad 77       		.byte	0x77
 657 03ae 68000000 		.4byte	0x68
 658 03b2 04       		.byte	0x4
 659 03b3 00       		.byte	0
 660 03b4 05       		.uleb128 0x5
 661 03b5 04       		.byte	0x4
 662 03b6 2C000000 		.4byte	0x2c
 663 03ba 09       		.uleb128 0x9
 664 03bb B3040000 		.4byte	.LASF61
 665 03bf 68       		.byte	0x68
 666 03c0 0A       		.byte	0xa
 667 03c1 B5       		.byte	0xb5
 668 03c2 E4040000 		.4byte	0x4e4
 669 03c6 0B       		.uleb128 0xb
 670 03c7 5F7000   		.ascii	"_p\000"
 671 03ca 0A       		.byte	0xa
 672 03cb B6       		.byte	0xb6
 673 03cc B4030000 		.4byte	0x3b4
 674 03d0 00       		.byte	0
 675 03d1 0B       		.uleb128 0xb
 676 03d2 5F7200   		.ascii	"_r\000"
 677 03d5 0A       		.byte	0xa
 678 03d6 B7       		.byte	0xb7
 679 03d7 68000000 		.4byte	0x68
 680 03db 04       		.byte	0x4
 681 03dc 0B       		.uleb128 0xb
 682 03dd 5F7700   		.ascii	"_w\000"
 683 03e0 0A       		.byte	0xa
 684 03e1 B8       		.byte	0xb8
ARM GAS  /tmp/ccfacFrk.s 			page 13


 685 03e2 68000000 		.4byte	0x68
 686 03e6 08       		.byte	0x8
 687 03e7 0A       		.uleb128 0xa
 688 03e8 2C020000 		.4byte	.LASF62
 689 03ec 0A       		.byte	0xa
 690 03ed B9       		.byte	0xb9
 691 03ee 33000000 		.4byte	0x33
 692 03f2 0C       		.byte	0xc
 693 03f3 0A       		.uleb128 0xa
 694 03f4 1E030000 		.4byte	.LASF63
 695 03f8 0A       		.byte	0xa
 696 03f9 BA       		.byte	0xba
 697 03fa 33000000 		.4byte	0x33
 698 03fe 0E       		.byte	0xe
 699 03ff 0B       		.uleb128 0xb
 700 0400 5F626600 		.ascii	"_bf\000"
 701 0404 0A       		.byte	0xa
 702 0405 BB       		.byte	0xbb
 703 0406 8F030000 		.4byte	0x38f
 704 040a 10       		.byte	0x10
 705 040b 0A       		.uleb128 0xa
 706 040c 86010000 		.4byte	.LASF64
 707 0410 0A       		.byte	0xa
 708 0411 BC       		.byte	0xbc
 709 0412 68000000 		.4byte	0x68
 710 0416 18       		.byte	0x18
 711 0417 0A       		.uleb128 0xa
 712 0418 FE010000 		.4byte	.LASF65
 713 041c 0A       		.byte	0xa
 714 041d C3       		.byte	0xc3
 715 041e A9000000 		.4byte	0xa9
 716 0422 1C       		.byte	0x1c
 717 0423 0A       		.uleb128 0xa
 718 0424 D3020000 		.4byte	.LASF66
 719 0428 0A       		.byte	0xa
 720 0429 C5       		.byte	0xc5
 721 042a 3F060000 		.4byte	0x63f
 722 042e 20       		.byte	0x20
 723 042f 0A       		.uleb128 0xa
 724 0430 B8030000 		.4byte	.LASF67
 725 0434 0A       		.byte	0xa
 726 0435 C7       		.byte	0xc7
 727 0436 69060000 		.4byte	0x669
 728 043a 24       		.byte	0x24
 729 043b 0A       		.uleb128 0xa
 730 043c 59050000 		.4byte	.LASF68
 731 0440 0A       		.byte	0xa
 732 0441 CA       		.byte	0xca
 733 0442 8D060000 		.4byte	0x68d
 734 0446 28       		.byte	0x28
 735 0447 0A       		.uleb128 0xa
 736 0448 55060000 		.4byte	.LASF69
 737 044c 0A       		.byte	0xa
 738 044d CB       		.byte	0xcb
 739 044e A7060000 		.4byte	0x6a7
 740 0452 2C       		.byte	0x2c
 741 0453 0B       		.uleb128 0xb
ARM GAS  /tmp/ccfacFrk.s 			page 14


 742 0454 5F756200 		.ascii	"_ub\000"
 743 0458 0A       		.byte	0xa
 744 0459 CE       		.byte	0xce
 745 045a 8F030000 		.4byte	0x38f
 746 045e 30       		.byte	0x30
 747 045f 0B       		.uleb128 0xb
 748 0460 5F757000 		.ascii	"_up\000"
 749 0464 0A       		.byte	0xa
 750 0465 CF       		.byte	0xcf
 751 0466 B4030000 		.4byte	0x3b4
 752 046a 38       		.byte	0x38
 753 046b 0B       		.uleb128 0xb
 754 046c 5F757200 		.ascii	"_ur\000"
 755 0470 0A       		.byte	0xa
 756 0471 D0       		.byte	0xd0
 757 0472 68000000 		.4byte	0x68
 758 0476 3C       		.byte	0x3c
 759 0477 0A       		.uleb128 0xa
 760 0478 D5010000 		.4byte	.LASF70
 761 047c 0A       		.byte	0xa
 762 047d D3       		.byte	0xd3
 763 047e AD060000 		.4byte	0x6ad
 764 0482 40       		.byte	0x40
 765 0483 0A       		.uleb128 0xa
 766 0484 2D060000 		.4byte	.LASF71
 767 0488 0A       		.byte	0xa
 768 0489 D4       		.byte	0xd4
 769 048a BD060000 		.4byte	0x6bd
 770 048e 43       		.byte	0x43
 771 048f 0B       		.uleb128 0xb
 772 0490 5F6C6200 		.ascii	"_lb\000"
 773 0494 0A       		.byte	0xa
 774 0495 D7       		.byte	0xd7
 775 0496 8F030000 		.4byte	0x38f
 776 049a 44       		.byte	0x44
 777 049b 0A       		.uleb128 0xa
 778 049c 42020000 		.4byte	.LASF72
 779 04a0 0A       		.byte	0xa
 780 04a1 DA       		.byte	0xda
 781 04a2 68000000 		.4byte	0x68
 782 04a6 4C       		.byte	0x4c
 783 04a7 0A       		.uleb128 0xa
 784 04a8 53020000 		.4byte	.LASF73
 785 04ac 0A       		.byte	0xa
 786 04ad DB       		.byte	0xdb
 787 04ae 69010000 		.4byte	0x169
 788 04b2 50       		.byte	0x50
 789 04b3 0A       		.uleb128 0xa
 790 04b4 25000000 		.4byte	.LASF74
 791 04b8 0A       		.byte	0xa
 792 04b9 DE       		.byte	0xde
 793 04ba 02050000 		.4byte	0x502
 794 04be 54       		.byte	0x54
 795 04bf 0A       		.uleb128 0xa
 796 04c0 AA030000 		.4byte	.LASF75
 797 04c4 0A       		.byte	0xa
 798 04c5 E2       		.byte	0xe2
ARM GAS  /tmp/ccfacFrk.s 			page 15


 799 04c6 E6010000 		.4byte	0x1e6
 800 04ca 58       		.byte	0x58
 801 04cb 0A       		.uleb128 0xa
 802 04cc BB040000 		.4byte	.LASF76
 803 04d0 0A       		.byte	0xa
 804 04d1 E4       		.byte	0xe4
 805 04d2 DB010000 		.4byte	0x1db
 806 04d6 5C       		.byte	0x5c
 807 04d7 0A       		.uleb128 0xa
 808 04d8 B0030000 		.4byte	.LASF77
 809 04dc 0A       		.byte	0xa
 810 04dd E5       		.byte	0xe5
 811 04de 68000000 		.4byte	0x68
 812 04e2 64       		.byte	0x64
 813 04e3 00       		.byte	0
 814 04e4 0C       		.uleb128 0xc
 815 04e5 68000000 		.4byte	0x68
 816 04e9 02050000 		.4byte	0x502
 817 04ed 0D       		.uleb128 0xd
 818 04ee 02050000 		.4byte	0x502
 819 04f2 0D       		.uleb128 0xd
 820 04f3 A9000000 		.4byte	0xa9
 821 04f7 0D       		.uleb128 0xd
 822 04f8 F1010000 		.4byte	0x1f1
 823 04fc 0D       		.uleb128 0xd
 824 04fd 68000000 		.4byte	0x68
 825 0501 00       		.byte	0
 826 0502 05       		.uleb128 0x5
 827 0503 04       		.byte	0x4
 828 0504 0D050000 		.4byte	0x50d
 829 0508 08       		.uleb128 0x8
 830 0509 02050000 		.4byte	0x502
 831 050d 17       		.uleb128 0x17
 832 050e 28050000 		.4byte	.LASF78
 833 0512 2804     		.2byte	0x428
 834 0514 0A       		.byte	0xa
 835 0515 6002     		.2byte	0x260
 836 0517 3F060000 		.4byte	0x63f
 837 051b 18       		.uleb128 0x18
 838 051c 73050000 		.4byte	.LASF79
 839 0520 0A       		.byte	0xa
 840 0521 6202     		.2byte	0x262
 841 0523 68000000 		.4byte	0x68
 842 0527 00       		.byte	0
 843 0528 18       		.uleb128 0x18
 844 0529 3B020000 		.4byte	.LASF80
 845 052d 0A       		.byte	0xa
 846 052e 6702     		.2byte	0x267
 847 0530 14070000 		.4byte	0x714
 848 0534 04       		.byte	0x4
 849 0535 18       		.uleb128 0x18
 850 0536 FC020000 		.4byte	.LASF81
 851 053a 0A       		.byte	0xa
 852 053b 6702     		.2byte	0x267
 853 053d 14070000 		.4byte	0x714
 854 0541 08       		.byte	0x8
 855 0542 18       		.uleb128 0x18
ARM GAS  /tmp/ccfacFrk.s 			page 16


 856 0543 B4020000 		.4byte	.LASF82
 857 0547 0A       		.byte	0xa
 858 0548 6702     		.2byte	0x267
 859 054a 14070000 		.4byte	0x714
 860 054e 0C       		.byte	0xc
 861 054f 18       		.uleb128 0x18
 862 0550 DC040000 		.4byte	.LASF83
 863 0554 0A       		.byte	0xa
 864 0555 6902     		.2byte	0x269
 865 0557 68000000 		.4byte	0x68
 866 055b 10       		.byte	0x10
 867 055c 18       		.uleb128 0x18
 868 055d 1A000000 		.4byte	.LASF84
 869 0561 0A       		.byte	0xa
 870 0562 6A02     		.2byte	0x26a
 871 0564 F6080000 		.4byte	0x8f6
 872 0568 14       		.byte	0x14
 873 0569 18       		.uleb128 0x18
 874 056a F8040000 		.4byte	.LASF85
 875 056e 0A       		.byte	0xa
 876 056f 6D02     		.2byte	0x26d
 877 0571 68000000 		.4byte	0x68
 878 0575 30       		.byte	0x30
 879 0576 18       		.uleb128 0x18
 880 0577 E6040000 		.4byte	.LASF86
 881 057b 0A       		.byte	0xa
 882 057c 6E02     		.2byte	0x26e
 883 057e 81000000 		.4byte	0x81
 884 0582 34       		.byte	0x34
 885 0583 18       		.uleb128 0x18
 886 0584 16040000 		.4byte	.LASF87
 887 0588 0A       		.byte	0xa
 888 0589 7002     		.2byte	0x270
 889 058b 68000000 		.4byte	0x68
 890 058f 38       		.byte	0x38
 891 0590 18       		.uleb128 0x18
 892 0591 EE040000 		.4byte	.LASF88
 893 0595 0A       		.byte	0xa
 894 0596 7202     		.2byte	0x272
 895 0598 11090000 		.4byte	0x911
 896 059c 3C       		.byte	0x3c
 897 059d 18       		.uleb128 0x18
 898 059e 83030000 		.4byte	.LASF89
 899 05a2 0A       		.byte	0xa
 900 05a3 7502     		.2byte	0x275
 901 05a5 55020000 		.4byte	0x255
 902 05a9 40       		.byte	0x40
 903 05aa 18       		.uleb128 0x18
 904 05ab D9020000 		.4byte	.LASF90
 905 05af 0A       		.byte	0xa
 906 05b0 7602     		.2byte	0x276
 907 05b2 68000000 		.4byte	0x68
 908 05b6 44       		.byte	0x44
 909 05b7 18       		.uleb128 0x18
 910 05b8 7F060000 		.4byte	.LASF91
 911 05bc 0A       		.byte	0xa
 912 05bd 7702     		.2byte	0x277
ARM GAS  /tmp/ccfacFrk.s 			page 17


 913 05bf 55020000 		.4byte	0x255
 914 05c3 48       		.byte	0x48
 915 05c4 18       		.uleb128 0x18
 916 05c5 47040000 		.4byte	.LASF92
 917 05c9 0A       		.byte	0xa
 918 05ca 7802     		.2byte	0x278
 919 05cc 17090000 		.4byte	0x917
 920 05d0 4C       		.byte	0x4c
 921 05d1 18       		.uleb128 0x18
 922 05d2 04030000 		.4byte	.LASF93
 923 05d6 0A       		.byte	0xa
 924 05d7 7B02     		.2byte	0x27b
 925 05d9 68000000 		.4byte	0x68
 926 05dd 50       		.byte	0x50
 927 05de 18       		.uleb128 0x18
 928 05df 4B020000 		.4byte	.LASF94
 929 05e3 0A       		.byte	0xa
 930 05e4 7C02     		.2byte	0x27c
 931 05e6 F1010000 		.4byte	0x1f1
 932 05ea 54       		.byte	0x54
 933 05eb 18       		.uleb128 0x18
 934 05ec 78040000 		.4byte	.LASF95
 935 05f0 0A       		.byte	0xa
 936 05f1 9F02     		.2byte	0x29f
 937 05f3 D4080000 		.4byte	0x8d4
 938 05f7 58       		.byte	0x58
 939 05f8 19       		.uleb128 0x19
 940 05f9 0E040000 		.4byte	.LASF55
 941 05fd 0A       		.byte	0xa
 942 05fe A302     		.2byte	0x2a3
 943 0600 72030000 		.4byte	0x372
 944 0604 4801     		.2byte	0x148
 945 0606 19       		.uleb128 0x19
 946 0607 61030000 		.4byte	.LASF96
 947 060b 0A       		.byte	0xa
 948 060c A402     		.2byte	0x2a4
 949 060e 34030000 		.4byte	0x334
 950 0612 4C01     		.2byte	0x14c
 951 0614 19       		.uleb128 0x19
 952 0615 23060000 		.4byte	.LASF97
 953 0619 0A       		.byte	0xa
 954 061a A802     		.2byte	0x2a8
 955 061c 28090000 		.4byte	0x928
 956 0620 DC02     		.2byte	0x2dc
 957 0622 19       		.uleb128 0x19
 958 0623 06020000 		.4byte	.LASF98
 959 0627 0A       		.byte	0xa
 960 0628 AD02     		.2byte	0x2ad
 961 062a D9060000 		.4byte	0x6d9
 962 062e E002     		.2byte	0x2e0
 963 0630 19       		.uleb128 0x19
 964 0631 EB010000 		.4byte	.LASF99
 965 0635 0A       		.byte	0xa
 966 0636 AF02     		.2byte	0x2af
 967 0638 34090000 		.4byte	0x934
 968 063c EC02     		.2byte	0x2ec
 969 063e 00       		.byte	0
ARM GAS  /tmp/ccfacFrk.s 			page 18


 970 063f 05       		.uleb128 0x5
 971 0640 04       		.byte	0x4
 972 0641 E4040000 		.4byte	0x4e4
 973 0645 0C       		.uleb128 0xc
 974 0646 68000000 		.4byte	0x68
 975 064a 63060000 		.4byte	0x663
 976 064e 0D       		.uleb128 0xd
 977 064f 02050000 		.4byte	0x502
 978 0653 0D       		.uleb128 0xd
 979 0654 A9000000 		.4byte	0xa9
 980 0658 0D       		.uleb128 0xd
 981 0659 63060000 		.4byte	0x663
 982 065d 0D       		.uleb128 0xd
 983 065e 68000000 		.4byte	0x68
 984 0662 00       		.byte	0
 985 0663 05       		.uleb128 0x5
 986 0664 04       		.byte	0x4
 987 0665 B9000000 		.4byte	0xb9
 988 0669 05       		.uleb128 0x5
 989 066a 04       		.byte	0x4
 990 066b 45060000 		.4byte	0x645
 991 066f 0C       		.uleb128 0xc
 992 0670 74010000 		.4byte	0x174
 993 0674 8D060000 		.4byte	0x68d
 994 0678 0D       		.uleb128 0xd
 995 0679 02050000 		.4byte	0x502
 996 067d 0D       		.uleb128 0xd
 997 067e A9000000 		.4byte	0xa9
 998 0682 0D       		.uleb128 0xd
 999 0683 74010000 		.4byte	0x174
 1000 0687 0D       		.uleb128 0xd
 1001 0688 68000000 		.4byte	0x68
 1002 068c 00       		.byte	0
 1003 068d 05       		.uleb128 0x5
 1004 068e 04       		.byte	0x4
 1005 068f 6F060000 		.4byte	0x66f
 1006 0693 0C       		.uleb128 0xc
 1007 0694 68000000 		.4byte	0x68
 1008 0698 A7060000 		.4byte	0x6a7
 1009 069c 0D       		.uleb128 0xd
 1010 069d 02050000 		.4byte	0x502
 1011 06a1 0D       		.uleb128 0xd
 1012 06a2 A9000000 		.4byte	0xa9
 1013 06a6 00       		.byte	0
 1014 06a7 05       		.uleb128 0x5
 1015 06a8 04       		.byte	0x4
 1016 06a9 93060000 		.4byte	0x693
 1017 06ad 11       		.uleb128 0x11
 1018 06ae 2C000000 		.4byte	0x2c
 1019 06b2 BD060000 		.4byte	0x6bd
 1020 06b6 12       		.uleb128 0x12
 1021 06b7 6F000000 		.4byte	0x6f
 1022 06bb 02       		.byte	0x2
 1023 06bc 00       		.byte	0
 1024 06bd 11       		.uleb128 0x11
 1025 06be 2C000000 		.4byte	0x2c
 1026 06c2 CD060000 		.4byte	0x6cd
ARM GAS  /tmp/ccfacFrk.s 			page 19


 1027 06c6 12       		.uleb128 0x12
 1028 06c7 6F000000 		.4byte	0x6f
 1029 06cb 00       		.byte	0
 1030 06cc 00       		.byte	0
 1031 06cd 0E       		.uleb128 0xe
 1032 06ce A7040000 		.4byte	.LASF100
 1033 06d2 0A       		.byte	0xa
 1034 06d3 1F01     		.2byte	0x11f
 1035 06d5 BA030000 		.4byte	0x3ba
 1036 06d9 1A       		.uleb128 0x1a
 1037 06da 0A060000 		.4byte	.LASF101
 1038 06de 0C       		.byte	0xc
 1039 06df 0A       		.byte	0xa
 1040 06e0 2301     		.2byte	0x123
 1041 06e2 0E070000 		.4byte	0x70e
 1042 06e6 18       		.uleb128 0x18
 1043 06e7 8E050000 		.4byte	.LASF36
 1044 06eb 0A       		.byte	0xa
 1045 06ec 2501     		.2byte	0x125
 1046 06ee 0E070000 		.4byte	0x70e
 1047 06f2 00       		.byte	0
 1048 06f3 18       		.uleb128 0x18
 1049 06f4 30030000 		.4byte	.LASF102
 1050 06f8 0A       		.byte	0xa
 1051 06f9 2601     		.2byte	0x126
 1052 06fb 68000000 		.4byte	0x68
 1053 06ff 04       		.byte	0x4
 1054 0700 18       		.uleb128 0x18
 1055 0701 A1040000 		.4byte	.LASF103
 1056 0705 0A       		.byte	0xa
 1057 0706 2701     		.2byte	0x127
 1058 0708 14070000 		.4byte	0x714
 1059 070c 08       		.byte	0x8
 1060 070d 00       		.byte	0
 1061 070e 05       		.uleb128 0x5
 1062 070f 04       		.byte	0x4
 1063 0710 D9060000 		.4byte	0x6d9
 1064 0714 05       		.uleb128 0x5
 1065 0715 04       		.byte	0x4
 1066 0716 CD060000 		.4byte	0x6cd
 1067 071a 1A       		.uleb128 0x1a
 1068 071b 12000000 		.4byte	.LASF104
 1069 071f 0E       		.byte	0xe
 1070 0720 0A       		.byte	0xa
 1071 0721 3F01     		.2byte	0x13f
 1072 0723 4F070000 		.4byte	0x74f
 1073 0727 18       		.uleb128 0x18
 1074 0728 2F050000 		.4byte	.LASF105
 1075 072c 0A       		.byte	0xa
 1076 072d 4001     		.2byte	0x140
 1077 072f 4F070000 		.4byte	0x74f
 1078 0733 00       		.byte	0
 1079 0734 18       		.uleb128 0x18
 1080 0735 88050000 		.4byte	.LASF106
 1081 0739 0A       		.byte	0xa
 1082 073a 4101     		.2byte	0x141
 1083 073c 4F070000 		.4byte	0x74f
ARM GAS  /tmp/ccfacFrk.s 			page 20


 1084 0740 06       		.byte	0x6
 1085 0741 18       		.uleb128 0x18
 1086 0742 C1050000 		.4byte	.LASF107
 1087 0746 0A       		.byte	0xa
 1088 0747 4201     		.2byte	0x142
 1089 0749 3A000000 		.4byte	0x3a
 1090 074d 0C       		.byte	0xc
 1091 074e 00       		.byte	0
 1092 074f 11       		.uleb128 0x11
 1093 0750 3A000000 		.4byte	0x3a
 1094 0754 5F070000 		.4byte	0x75f
 1095 0758 12       		.uleb128 0x12
 1096 0759 6F000000 		.4byte	0x6f
 1097 075d 02       		.byte	0x2
 1098 075e 00       		.byte	0
 1099 075f 1B       		.uleb128 0x1b
 1100 0760 D0       		.byte	0xd0
 1101 0761 0A       		.byte	0xa
 1102 0762 8002     		.2byte	0x280
 1103 0764 60080000 		.4byte	0x860
 1104 0768 18       		.uleb128 0x18
 1105 0769 EE050000 		.4byte	.LASF108
 1106 076d 0A       		.byte	0xa
 1107 076e 8202     		.2byte	0x282
 1108 0770 6F000000 		.4byte	0x6f
 1109 0774 00       		.byte	0
 1110 0775 18       		.uleb128 0x18
 1111 0776 6C020000 		.4byte	.LASF109
 1112 077a 0A       		.byte	0xa
 1113 077b 8302     		.2byte	0x283
 1114 077d F1010000 		.4byte	0x1f1
 1115 0781 04       		.byte	0x4
 1116 0782 18       		.uleb128 0x18
 1117 0783 76030000 		.4byte	.LASF110
 1118 0787 0A       		.byte	0xa
 1119 0788 8402     		.2byte	0x284
 1120 078a 60080000 		.4byte	0x860
 1121 078e 08       		.byte	0x8
 1122 078f 18       		.uleb128 0x18
 1123 0790 46060000 		.4byte	.LASF111
 1124 0794 0A       		.byte	0xa
 1125 0795 8502     		.2byte	0x285
 1126 0797 6B020000 		.4byte	0x26b
 1127 079b 24       		.byte	0x24
 1128 079c 18       		.uleb128 0x18
 1129 079d C4020000 		.4byte	.LASF112
 1130 07a1 0A       		.byte	0xa
 1131 07a2 8602     		.2byte	0x286
 1132 07a4 68000000 		.4byte	0x68
 1133 07a8 48       		.byte	0x48
 1134 07a9 18       		.uleb128 0x18
 1135 07aa C4040000 		.4byte	.LASF113
 1136 07ae 0A       		.byte	0xa
 1137 07af 8702     		.2byte	0x287
 1138 07b1 61000000 		.4byte	0x61
 1139 07b5 50       		.byte	0x50
 1140 07b6 18       		.uleb128 0x18
ARM GAS  /tmp/ccfacFrk.s 			page 21


 1141 07b7 5C060000 		.4byte	.LASF114
 1142 07bb 0A       		.byte	0xa
 1143 07bc 8802     		.2byte	0x288
 1144 07be 1A070000 		.4byte	0x71a
 1145 07c2 58       		.byte	0x58
 1146 07c3 18       		.uleb128 0x18
 1147 07c4 CF040000 		.4byte	.LASF115
 1148 07c8 0A       		.byte	0xa
 1149 07c9 8902     		.2byte	0x289
 1150 07cb DB010000 		.4byte	0x1db
 1151 07cf 68       		.byte	0x68
 1152 07d0 18       		.uleb128 0x18
 1153 07d1 71060000 		.4byte	.LASF116
 1154 07d5 0A       		.byte	0xa
 1155 07d6 8A02     		.2byte	0x28a
 1156 07d8 DB010000 		.4byte	0x1db
 1157 07dc 70       		.byte	0x70
 1158 07dd 18       		.uleb128 0x18
 1159 07de 56040000 		.4byte	.LASF117
 1160 07e2 0A       		.byte	0xa
 1161 07e3 8B02     		.2byte	0x28b
 1162 07e5 DB010000 		.4byte	0x1db
 1163 07e9 78       		.byte	0x78
 1164 07ea 18       		.uleb128 0x18
 1165 07eb 19060000 		.4byte	.LASF118
 1166 07ef 0A       		.byte	0xa
 1167 07f0 8C02     		.2byte	0x28c
 1168 07f2 70080000 		.4byte	0x870
 1169 07f6 80       		.byte	0x80
 1170 07f7 18       		.uleb128 0x18
 1171 07f8 6A030000 		.4byte	.LASF119
 1172 07fc 0A       		.byte	0xa
 1173 07fd 8D02     		.2byte	0x28d
 1174 07ff 80080000 		.4byte	0x880
 1175 0803 88       		.byte	0x88
 1176 0804 18       		.uleb128 0x18
 1177 0805 CE050000 		.4byte	.LASF120
 1178 0809 0A       		.byte	0xa
 1179 080a 8E02     		.2byte	0x28e
 1180 080c 68000000 		.4byte	0x68
 1181 0810 A0       		.byte	0xa0
 1182 0811 18       		.uleb128 0x18
 1183 0812 79020000 		.4byte	.LASF121
 1184 0816 0A       		.byte	0xa
 1185 0817 8F02     		.2byte	0x28f
 1186 0819 DB010000 		.4byte	0x1db
 1187 081d A4       		.byte	0xa4
 1188 081e 18       		.uleb128 0x18
 1189 081f 9A010000 		.4byte	.LASF122
 1190 0823 0A       		.byte	0xa
 1191 0824 9002     		.2byte	0x290
 1192 0826 DB010000 		.4byte	0x1db
 1193 082a AC       		.byte	0xac
 1194 082b 18       		.uleb128 0x18
 1195 082c 5B020000 		.4byte	.LASF123
 1196 0830 0A       		.byte	0xa
 1197 0831 9102     		.2byte	0x291
ARM GAS  /tmp/ccfacFrk.s 			page 22


 1198 0833 DB010000 		.4byte	0x1db
 1199 0837 B4       		.byte	0xb4
 1200 0838 18       		.uleb128 0x18
 1201 0839 4F010000 		.4byte	.LASF124
 1202 083d 0A       		.byte	0xa
 1203 083e 9202     		.2byte	0x292
 1204 0840 DB010000 		.4byte	0x1db
 1205 0844 BC       		.byte	0xbc
 1206 0845 18       		.uleb128 0x18
 1207 0846 5E010000 		.4byte	.LASF125
 1208 084a 0A       		.byte	0xa
 1209 084b 9302     		.2byte	0x293
 1210 084d DB010000 		.4byte	0x1db
 1211 0851 C4       		.byte	0xc4
 1212 0852 18       		.uleb128 0x18
 1213 0853 7D040000 		.4byte	.LASF126
 1214 0857 0A       		.byte	0xa
 1215 0858 9402     		.2byte	0x294
 1216 085a 68000000 		.4byte	0x68
 1217 085e CC       		.byte	0xcc
 1218 085f 00       		.byte	0
 1219 0860 11       		.uleb128 0x11
 1220 0861 B2000000 		.4byte	0xb2
 1221 0865 70080000 		.4byte	0x870
 1222 0869 12       		.uleb128 0x12
 1223 086a 6F000000 		.4byte	0x6f
 1224 086e 19       		.byte	0x19
 1225 086f 00       		.byte	0
 1226 0870 11       		.uleb128 0x11
 1227 0871 B2000000 		.4byte	0xb2
 1228 0875 80080000 		.4byte	0x880
 1229 0879 12       		.uleb128 0x12
 1230 087a 6F000000 		.4byte	0x6f
 1231 087e 07       		.byte	0x7
 1232 087f 00       		.byte	0
 1233 0880 11       		.uleb128 0x11
 1234 0881 B2000000 		.4byte	0xb2
 1235 0885 90080000 		.4byte	0x890
 1236 0889 12       		.uleb128 0x12
 1237 088a 6F000000 		.4byte	0x6f
 1238 088e 17       		.byte	0x17
 1239 088f 00       		.byte	0
 1240 0890 1B       		.uleb128 0x1b
 1241 0891 F0       		.byte	0xf0
 1242 0892 0A       		.byte	0xa
 1243 0893 9902     		.2byte	0x299
 1244 0895 B4080000 		.4byte	0x8b4
 1245 0899 18       		.uleb128 0x18
 1246 089a FE030000 		.4byte	.LASF127
 1247 089e 0A       		.byte	0xa
 1248 089f 9C02     		.2byte	0x29c
 1249 08a1 B4080000 		.4byte	0x8b4
 1250 08a5 00       		.byte	0
 1251 08a6 18       		.uleb128 0x18
 1252 08a7 10060000 		.4byte	.LASF128
 1253 08ab 0A       		.byte	0xa
 1254 08ac 9D02     		.2byte	0x29d
ARM GAS  /tmp/ccfacFrk.s 			page 23


 1255 08ae C4080000 		.4byte	0x8c4
 1256 08b2 78       		.byte	0x78
 1257 08b3 00       		.byte	0
 1258 08b4 11       		.uleb128 0x11
 1259 08b5 B4030000 		.4byte	0x3b4
 1260 08b9 C4080000 		.4byte	0x8c4
 1261 08bd 12       		.uleb128 0x12
 1262 08be 6F000000 		.4byte	0x6f
 1263 08c2 1D       		.byte	0x1d
 1264 08c3 00       		.byte	0
 1265 08c4 11       		.uleb128 0x11
 1266 08c5 6F000000 		.4byte	0x6f
 1267 08c9 D4080000 		.4byte	0x8d4
 1268 08cd 12       		.uleb128 0x12
 1269 08ce 6F000000 		.4byte	0x6f
 1270 08d2 1D       		.byte	0x1d
 1271 08d3 00       		.byte	0
 1272 08d4 1C       		.uleb128 0x1c
 1273 08d5 F0       		.byte	0xf0
 1274 08d6 0A       		.byte	0xa
 1275 08d7 7E02     		.2byte	0x27e
 1276 08d9 F6080000 		.4byte	0x8f6
 1277 08dd 1D       		.uleb128 0x1d
 1278 08de 28050000 		.4byte	.LASF78
 1279 08e2 0A       		.byte	0xa
 1280 08e3 9502     		.2byte	0x295
 1281 08e5 5F070000 		.4byte	0x75f
 1282 08e9 1D       		.uleb128 0x1d
 1283 08ea 33060000 		.4byte	.LASF129
 1284 08ee 0A       		.byte	0xa
 1285 08ef 9E02     		.2byte	0x29e
 1286 08f1 90080000 		.4byte	0x890
 1287 08f5 00       		.byte	0
 1288 08f6 11       		.uleb128 0x11
 1289 08f7 B2000000 		.4byte	0xb2
 1290 08fb 06090000 		.4byte	0x906
 1291 08ff 12       		.uleb128 0x12
 1292 0900 6F000000 		.4byte	0x6f
 1293 0904 18       		.byte	0x18
 1294 0905 00       		.byte	0
 1295 0906 1E       		.uleb128 0x1e
 1296 0907 11090000 		.4byte	0x911
 1297 090b 0D       		.uleb128 0xd
 1298 090c 02050000 		.4byte	0x502
 1299 0910 00       		.byte	0
 1300 0911 05       		.uleb128 0x5
 1301 0912 04       		.byte	0x4
 1302 0913 06090000 		.4byte	0x906
 1303 0917 05       		.uleb128 0x5
 1304 0918 04       		.byte	0x4
 1305 0919 55020000 		.4byte	0x255
 1306 091d 1E       		.uleb128 0x1e
 1307 091e 28090000 		.4byte	0x928
 1308 0922 0D       		.uleb128 0xd
 1309 0923 68000000 		.4byte	0x68
 1310 0927 00       		.byte	0
 1311 0928 05       		.uleb128 0x5
ARM GAS  /tmp/ccfacFrk.s 			page 24


 1312 0929 04       		.byte	0x4
 1313 092a 2E090000 		.4byte	0x92e
 1314 092e 05       		.uleb128 0x5
 1315 092f 04       		.byte	0x4
 1316 0930 1D090000 		.4byte	0x91d
 1317 0934 11       		.uleb128 0x11
 1318 0935 CD060000 		.4byte	0x6cd
 1319 0939 44090000 		.4byte	0x944
 1320 093d 12       		.uleb128 0x12
 1321 093e 6F000000 		.4byte	0x6f
 1322 0942 02       		.byte	0x2
 1323 0943 00       		.byte	0
 1324 0944 1F       		.uleb128 0x1f
 1325 0945 5F050000 		.4byte	.LASF130
 1326 0949 0A       		.byte	0xa
 1327 094a 2E03     		.2byte	0x32e
 1328 094c 02050000 		.4byte	0x502
 1329 0950 1F       		.uleb128 0x1f
 1330 0951 DB050000 		.4byte	.LASF131
 1331 0955 0A       		.byte	0xa
 1332 0956 2F03     		.2byte	0x32f
 1333 0958 08050000 		.4byte	0x508
 1334 095c 20       		.uleb128 0x20
 1335 095d 3C030000 		.4byte	.LASF132
 1336 0961 01       		.byte	0x1
 1337 0962 29       		.byte	0x29
 1338 0963 8C000000 		.4byte	0x8c
 1339 0967 00000000 		.4byte	.LFB38
 1340 096b 1E000000 		.4byte	.LFE38-.LFB38
 1341 096f 01       		.uleb128 0x1
 1342 0970 9C       		.byte	0x9c
 1343 0971 C5090000 		.4byte	0x9c5
 1344 0975 21       		.uleb128 0x21
 1345 0976 73747200 		.ascii	"str\000"
 1346 097a 01       		.byte	0x1
 1347 097b 29       		.byte	0x29
 1348 097c C5090000 		.4byte	0x9c5
 1349 0980 00000000 		.4byte	.LLST8
 1350 0984 22       		.uleb128 0x22
 1351 0985 7300     		.ascii	"s\000"
 1352 0987 01       		.byte	0x1
 1353 0988 2A       		.byte	0x2a
 1354 0989 8C000000 		.4byte	0x8c
 1355 098d 01       		.uleb128 0x1
 1356 098e 50       		.byte	0x50
 1357 098f 23       		.uleb128 0x23
 1358 0990 310B0000 		.4byte	0xb31
 1359 0994 0A000000 		.4byte	.LBB6
 1360 0998 08000000 		.4byte	.LBE6-.LBB6
 1361 099c 01       		.byte	0x1
 1362 099d 2B       		.byte	0x2b
 1363 099e AC090000 		.4byte	0x9ac
 1364 09a2 24       		.uleb128 0x24
 1365 09a3 420B0000 		.4byte	0xb42
 1366 09a7 21000000 		.4byte	.LLST9
 1367 09ab 00       		.byte	0
 1368 09ac 25       		.uleb128 0x25
ARM GAS  /tmp/ccfacFrk.s 			page 25


 1369 09ad 0A000000 		.4byte	.LVL11
 1370 09b1 4D0B0000 		.4byte	0xb4d
 1371 09b5 26       		.uleb128 0x26
 1372 09b6 01       		.uleb128 0x1
 1373 09b7 50       		.byte	0x50
 1374 09b8 03       		.uleb128 0x3
 1375 09b9 F3       		.byte	0xf3
 1376 09ba 01       		.uleb128 0x1
 1377 09bb 50       		.byte	0x50
 1378 09bc 26       		.uleb128 0x26
 1379 09bd 01       		.uleb128 0x1
 1380 09be 51       		.byte	0x51
 1381 09bf 03       		.uleb128 0x3
 1382 09c0 0A       		.byte	0xa
 1383 09c1 A005     		.2byte	0x5a0
 1384 09c3 00       		.byte	0
 1385 09c4 00       		.byte	0
 1386 09c5 05       		.uleb128 0x5
 1387 09c6 04       		.byte	0x4
 1388 09c7 48010000 		.4byte	0x148
 1389 09cb 20       		.uleb128 0x20
 1390 09cc 1D020000 		.4byte	.LASF133
 1391 09d0 01       		.byte	0x1
 1392 09d1 25       		.byte	0x25
 1393 09d2 8C000000 		.4byte	0x8c
 1394 09d6 00000000 		.4byte	.LFB37
 1395 09da 04000000 		.4byte	.LFE37-.LFB37
 1396 09de 01       		.uleb128 0x1
 1397 09df 9C       		.byte	0x9c
 1398 09e0 150A0000 		.4byte	0xa15
 1399 09e4 21       		.uleb128 0x21
 1400 09e5 73747200 		.ascii	"str\000"
 1401 09e9 01       		.byte	0x1
 1402 09ea 25       		.byte	0x25
 1403 09eb C5090000 		.4byte	0x9c5
 1404 09ef 34000000 		.4byte	.LLST6
 1405 09f3 21       		.uleb128 0x21
 1406 09f4 7600     		.ascii	"v\000"
 1407 09f6 01       		.byte	0x1
 1408 09f7 25       		.byte	0x25
 1409 09f8 8C000000 		.4byte	0x8c
 1410 09fc 55000000 		.4byte	.LLST7
 1411 0a00 27       		.uleb128 0x27
 1412 0a01 04000000 		.4byte	.LVL9
 1413 0a05 26       		.uleb128 0x26
 1414 0a06 01       		.uleb128 0x1
 1415 0a07 50       		.byte	0x50
 1416 0a08 03       		.uleb128 0x3
 1417 0a09 F3       		.byte	0xf3
 1418 0a0a 01       		.uleb128 0x1
 1419 0a0b 50       		.byte	0x50
 1420 0a0c 26       		.uleb128 0x26
 1421 0a0d 01       		.uleb128 0x1
 1422 0a0e 51       		.byte	0x51
 1423 0a0f 03       		.uleb128 0x3
 1424 0a10 F3       		.byte	0xf3
 1425 0a11 01       		.uleb128 0x1
ARM GAS  /tmp/ccfacFrk.s 			page 26


 1426 0a12 51       		.byte	0x51
 1427 0a13 00       		.byte	0
 1428 0a14 00       		.byte	0
 1429 0a15 20       		.uleb128 0x20
 1430 0a16 28040000 		.4byte	.LASF134
 1431 0a1a 01       		.byte	0x1
 1432 0a1b 21       		.byte	0x21
 1433 0a1c 8C000000 		.4byte	0x8c
 1434 0a20 00000000 		.4byte	.LFB36
 1435 0a24 04000000 		.4byte	.LFE36-.LFB36
 1436 0a28 01       		.uleb128 0x1
 1437 0a29 9C       		.byte	0x9c
 1438 0a2a 5F0A0000 		.4byte	0xa5f
 1439 0a2e 21       		.uleb128 0x21
 1440 0a2f 73747200 		.ascii	"str\000"
 1441 0a33 01       		.byte	0x1
 1442 0a34 21       		.byte	0x21
 1443 0a35 C5090000 		.4byte	0x9c5
 1444 0a39 76000000 		.4byte	.LLST4
 1445 0a3d 21       		.uleb128 0x21
 1446 0a3e 6E00     		.ascii	"n\000"
 1447 0a40 01       		.byte	0x1
 1448 0a41 21       		.byte	0x21
 1449 0a42 8C000000 		.4byte	0x8c
 1450 0a46 97000000 		.4byte	.LLST5
 1451 0a4a 27       		.uleb128 0x27
 1452 0a4b 04000000 		.4byte	.LVL7
 1453 0a4f 26       		.uleb128 0x26
 1454 0a50 01       		.uleb128 0x1
 1455 0a51 50       		.byte	0x50
 1456 0a52 03       		.uleb128 0x3
 1457 0a53 F3       		.byte	0xf3
 1458 0a54 01       		.uleb128 0x1
 1459 0a55 50       		.byte	0x50
 1460 0a56 26       		.uleb128 0x26
 1461 0a57 01       		.uleb128 0x1
 1462 0a58 51       		.byte	0x51
 1463 0a59 03       		.uleb128 0x3
 1464 0a5a F3       		.byte	0xf3
 1465 0a5b 01       		.uleb128 0x1
 1466 0a5c 51       		.byte	0x51
 1467 0a5d 00       		.byte	0
 1468 0a5e 00       		.byte	0
 1469 0a5f 20       		.uleb128 0x20
 1470 0a60 61060000 		.4byte	.LASF135
 1471 0a64 01       		.byte	0x1
 1472 0a65 1D       		.byte	0x1d
 1473 0a66 8C000000 		.4byte	0x8c
 1474 0a6a 00000000 		.4byte	.LFB35
 1475 0a6e 04000000 		.4byte	.LFE35-.LFB35
 1476 0a72 01       		.uleb128 0x1
 1477 0a73 9C       		.byte	0x9c
 1478 0a74 A90A0000 		.4byte	0xaa9
 1479 0a78 21       		.uleb128 0x21
 1480 0a79 73747200 		.ascii	"str\000"
 1481 0a7d 01       		.byte	0x1
 1482 0a7e 1D       		.byte	0x1d
ARM GAS  /tmp/ccfacFrk.s 			page 27


 1483 0a7f C5090000 		.4byte	0x9c5
 1484 0a83 B8000000 		.4byte	.LLST2
 1485 0a87 21       		.uleb128 0x21
 1486 0a88 6E00     		.ascii	"n\000"
 1487 0a8a 01       		.byte	0x1
 1488 0a8b 1D       		.byte	0x1d
 1489 0a8c 8C000000 		.4byte	0x8c
 1490 0a90 D9000000 		.4byte	.LLST3
 1491 0a94 27       		.uleb128 0x27
 1492 0a95 04000000 		.4byte	.LVL5
 1493 0a99 26       		.uleb128 0x26
 1494 0a9a 01       		.uleb128 0x1
 1495 0a9b 50       		.byte	0x50
 1496 0a9c 03       		.uleb128 0x3
 1497 0a9d F3       		.byte	0xf3
 1498 0a9e 01       		.uleb128 0x1
 1499 0a9f 50       		.byte	0x50
 1500 0aa0 26       		.uleb128 0x26
 1501 0aa1 01       		.uleb128 0x1
 1502 0aa2 51       		.byte	0x51
 1503 0aa3 03       		.uleb128 0x3
 1504 0aa4 F3       		.byte	0xf3
 1505 0aa5 01       		.uleb128 0x1
 1506 0aa6 51       		.byte	0x51
 1507 0aa7 00       		.byte	0
 1508 0aa8 00       		.byte	0
 1509 0aa9 20       		.uleb128 0x20
 1510 0aaa E3030000 		.4byte	.LASF136
 1511 0aae 01       		.byte	0x1
 1512 0aaf 19       		.byte	0x19
 1513 0ab0 8C000000 		.4byte	0x8c
 1514 0ab4 00000000 		.4byte	.LFB34
 1515 0ab8 04000000 		.4byte	.LFE34-.LFB34
 1516 0abc 01       		.uleb128 0x1
 1517 0abd 9C       		.byte	0x9c
 1518 0abe DF0A0000 		.4byte	0xadf
 1519 0ac2 21       		.uleb128 0x21
 1520 0ac3 73747200 		.ascii	"str\000"
 1521 0ac7 01       		.byte	0x1
 1522 0ac8 19       		.byte	0x19
 1523 0ac9 C5090000 		.4byte	0x9c5
 1524 0acd FA000000 		.4byte	.LLST1
 1525 0ad1 27       		.uleb128 0x27
 1526 0ad2 04000000 		.4byte	.LVL3
 1527 0ad6 26       		.uleb128 0x26
 1528 0ad7 01       		.uleb128 0x1
 1529 0ad8 50       		.byte	0x50
 1530 0ad9 03       		.uleb128 0x3
 1531 0ada F3       		.byte	0xf3
 1532 0adb 01       		.uleb128 0x1
 1533 0adc 50       		.byte	0x50
 1534 0add 00       		.byte	0
 1535 0ade 00       		.byte	0
 1536 0adf 20       		.uleb128 0x20
 1537 0ae0 11050000 		.4byte	.LASF137
 1538 0ae4 01       		.byte	0x1
 1539 0ae5 15       		.byte	0x15
ARM GAS  /tmp/ccfacFrk.s 			page 28


 1540 0ae6 8C000000 		.4byte	0x8c
 1541 0aea 00000000 		.4byte	.LFB33
 1542 0aee 04000000 		.4byte	.LFE33-.LFB33
 1543 0af2 01       		.uleb128 0x1
 1544 0af3 9C       		.byte	0x9c
 1545 0af4 150B0000 		.4byte	0xb15
 1546 0af8 21       		.uleb128 0x21
 1547 0af9 73747200 		.ascii	"str\000"
 1548 0afd 01       		.byte	0x1
 1549 0afe 15       		.byte	0x15
 1550 0aff C5090000 		.4byte	0x9c5
 1551 0b03 1B010000 		.4byte	.LLST0
 1552 0b07 27       		.uleb128 0x27
 1553 0b08 04000000 		.4byte	.LVL1
 1554 0b0c 26       		.uleb128 0x26
 1555 0b0d 01       		.uleb128 0x1
 1556 0b0e 50       		.byte	0x50
 1557 0b0f 03       		.uleb128 0x3
 1558 0b10 F3       		.byte	0xf3
 1559 0b11 01       		.uleb128 0x1
 1560 0b12 50       		.byte	0x50
 1561 0b13 00       		.byte	0
 1562 0b14 00       		.byte	0
 1563 0b15 28       		.uleb128 0x28
 1564 0b16 24030000 		.4byte	.LASF138
 1565 0b1a 02       		.byte	0x2
 1566 0b1b E001     		.2byte	0x1e0
 1567 0b1d 8C000000 		.4byte	0x8c
 1568 0b21 03       		.byte	0x3
 1569 0b22 310B0000 		.4byte	0xb31
 1570 0b26 29       		.uleb128 0x29
 1571 0b27 7300     		.ascii	"s\000"
 1572 0b29 02       		.byte	0x2
 1573 0b2a E001     		.2byte	0x1e0
 1574 0b2c 76000000 		.4byte	0x76
 1575 0b30 00       		.byte	0
 1576 0b31 28       		.uleb128 0x28
 1577 0b32 35050000 		.4byte	.LASF139
 1578 0b36 02       		.byte	0x2
 1579 0b37 CC01     		.2byte	0x1cc
 1580 0b39 97000000 		.4byte	0x97
 1581 0b3d 03       		.byte	0x3
 1582 0b3e 4D0B0000 		.4byte	0xb4d
 1583 0b42 29       		.uleb128 0x29
 1584 0b43 7800     		.ascii	"x\000"
 1585 0b45 02       		.byte	0x2
 1586 0b46 CC01     		.2byte	0x1cc
 1587 0b48 8C000000 		.4byte	0x8c
 1588 0b4c 00       		.byte	0
 1589 0b4d 2A       		.uleb128 0x2a
 1590 0b4e 38040000 		.4byte	.LASF143
 1591 0b52 38040000 		.4byte	.LASF143
 1592 0b56 02       		.byte	0x2
 1593 0b57 5301     		.2byte	0x153
 1594 0b59 00       		.byte	0
 1595              		.section	.debug_abbrev,"",%progbits
 1596              	.Ldebug_abbrev0:
ARM GAS  /tmp/ccfacFrk.s 			page 29


 1597 0000 01       		.uleb128 0x1
 1598 0001 11       		.uleb128 0x11
 1599 0002 01       		.byte	0x1
 1600 0003 25       		.uleb128 0x25
 1601 0004 0E       		.uleb128 0xe
 1602 0005 13       		.uleb128 0x13
 1603 0006 0B       		.uleb128 0xb
 1604 0007 03       		.uleb128 0x3
 1605 0008 0E       		.uleb128 0xe
 1606 0009 1B       		.uleb128 0x1b
 1607 000a 0E       		.uleb128 0xe
 1608 000b 55       		.uleb128 0x55
 1609 000c 17       		.uleb128 0x17
 1610 000d 11       		.uleb128 0x11
 1611 000e 01       		.uleb128 0x1
 1612 000f 10       		.uleb128 0x10
 1613 0010 17       		.uleb128 0x17
 1614 0011 00       		.byte	0
 1615 0012 00       		.byte	0
 1616 0013 02       		.uleb128 0x2
 1617 0014 24       		.uleb128 0x24
 1618 0015 00       		.byte	0
 1619 0016 0B       		.uleb128 0xb
 1620 0017 0B       		.uleb128 0xb
 1621 0018 3E       		.uleb128 0x3e
 1622 0019 0B       		.uleb128 0xb
 1623 001a 03       		.uleb128 0x3
 1624 001b 0E       		.uleb128 0xe
 1625 001c 00       		.byte	0
 1626 001d 00       		.byte	0
 1627 001e 03       		.uleb128 0x3
 1628 001f 16       		.uleb128 0x16
 1629 0020 00       		.byte	0
 1630 0021 03       		.uleb128 0x3
 1631 0022 0E       		.uleb128 0xe
 1632 0023 3A       		.uleb128 0x3a
 1633 0024 0B       		.uleb128 0xb
 1634 0025 3B       		.uleb128 0x3b
 1635 0026 0B       		.uleb128 0xb
 1636 0027 49       		.uleb128 0x49
 1637 0028 13       		.uleb128 0x13
 1638 0029 00       		.byte	0
 1639 002a 00       		.byte	0
 1640 002b 04       		.uleb128 0x4
 1641 002c 24       		.uleb128 0x24
 1642 002d 00       		.byte	0
 1643 002e 0B       		.uleb128 0xb
 1644 002f 0B       		.uleb128 0xb
 1645 0030 3E       		.uleb128 0x3e
 1646 0031 0B       		.uleb128 0xb
 1647 0032 03       		.uleb128 0x3
 1648 0033 08       		.uleb128 0x8
 1649 0034 00       		.byte	0
 1650 0035 00       		.byte	0
 1651 0036 05       		.uleb128 0x5
 1652 0037 0F       		.uleb128 0xf
 1653 0038 00       		.byte	0
ARM GAS  /tmp/ccfacFrk.s 			page 30


 1654 0039 0B       		.uleb128 0xb
 1655 003a 0B       		.uleb128 0xb
 1656 003b 49       		.uleb128 0x49
 1657 003c 13       		.uleb128 0x13
 1658 003d 00       		.byte	0
 1659 003e 00       		.byte	0
 1660 003f 06       		.uleb128 0x6
 1661 0040 13       		.uleb128 0x13
 1662 0041 00       		.byte	0
 1663 0042 03       		.uleb128 0x3
 1664 0043 0E       		.uleb128 0xe
 1665 0044 3C       		.uleb128 0x3c
 1666 0045 19       		.uleb128 0x19
 1667 0046 00       		.byte	0
 1668 0047 00       		.byte	0
 1669 0048 07       		.uleb128 0x7
 1670 0049 0F       		.uleb128 0xf
 1671 004a 00       		.byte	0
 1672 004b 0B       		.uleb128 0xb
 1673 004c 0B       		.uleb128 0xb
 1674 004d 00       		.byte	0
 1675 004e 00       		.byte	0
 1676 004f 08       		.uleb128 0x8
 1677 0050 26       		.uleb128 0x26
 1678 0051 00       		.byte	0
 1679 0052 49       		.uleb128 0x49
 1680 0053 13       		.uleb128 0x13
 1681 0054 00       		.byte	0
 1682 0055 00       		.byte	0
 1683 0056 09       		.uleb128 0x9
 1684 0057 13       		.uleb128 0x13
 1685 0058 01       		.byte	0x1
 1686 0059 03       		.uleb128 0x3
 1687 005a 0E       		.uleb128 0xe
 1688 005b 0B       		.uleb128 0xb
 1689 005c 0B       		.uleb128 0xb
 1690 005d 3A       		.uleb128 0x3a
 1691 005e 0B       		.uleb128 0xb
 1692 005f 3B       		.uleb128 0x3b
 1693 0060 0B       		.uleb128 0xb
 1694 0061 01       		.uleb128 0x1
 1695 0062 13       		.uleb128 0x13
 1696 0063 00       		.byte	0
 1697 0064 00       		.byte	0
 1698 0065 0A       		.uleb128 0xa
 1699 0066 0D       		.uleb128 0xd
 1700 0067 00       		.byte	0
 1701 0068 03       		.uleb128 0x3
 1702 0069 0E       		.uleb128 0xe
 1703 006a 3A       		.uleb128 0x3a
 1704 006b 0B       		.uleb128 0xb
 1705 006c 3B       		.uleb128 0x3b
 1706 006d 0B       		.uleb128 0xb
 1707 006e 49       		.uleb128 0x49
 1708 006f 13       		.uleb128 0x13
 1709 0070 38       		.uleb128 0x38
 1710 0071 0B       		.uleb128 0xb
ARM GAS  /tmp/ccfacFrk.s 			page 31


 1711 0072 00       		.byte	0
 1712 0073 00       		.byte	0
 1713 0074 0B       		.uleb128 0xb
 1714 0075 0D       		.uleb128 0xd
 1715 0076 00       		.byte	0
 1716 0077 03       		.uleb128 0x3
 1717 0078 08       		.uleb128 0x8
 1718 0079 3A       		.uleb128 0x3a
 1719 007a 0B       		.uleb128 0xb
 1720 007b 3B       		.uleb128 0x3b
 1721 007c 0B       		.uleb128 0xb
 1722 007d 49       		.uleb128 0x49
 1723 007e 13       		.uleb128 0x13
 1724 007f 38       		.uleb128 0x38
 1725 0080 0B       		.uleb128 0xb
 1726 0081 00       		.byte	0
 1727 0082 00       		.byte	0
 1728 0083 0C       		.uleb128 0xc
 1729 0084 15       		.uleb128 0x15
 1730 0085 01       		.byte	0x1
 1731 0086 27       		.uleb128 0x27
 1732 0087 19       		.uleb128 0x19
 1733 0088 49       		.uleb128 0x49
 1734 0089 13       		.uleb128 0x13
 1735 008a 01       		.uleb128 0x1
 1736 008b 13       		.uleb128 0x13
 1737 008c 00       		.byte	0
 1738 008d 00       		.byte	0
 1739 008e 0D       		.uleb128 0xd
 1740 008f 05       		.uleb128 0x5
 1741 0090 00       		.byte	0
 1742 0091 49       		.uleb128 0x49
 1743 0092 13       		.uleb128 0x13
 1744 0093 00       		.byte	0
 1745 0094 00       		.byte	0
 1746 0095 0E       		.uleb128 0xe
 1747 0096 16       		.uleb128 0x16
 1748 0097 00       		.byte	0
 1749 0098 03       		.uleb128 0x3
 1750 0099 0E       		.uleb128 0xe
 1751 009a 3A       		.uleb128 0x3a
 1752 009b 0B       		.uleb128 0xb
 1753 009c 3B       		.uleb128 0x3b
 1754 009d 05       		.uleb128 0x5
 1755 009e 49       		.uleb128 0x49
 1756 009f 13       		.uleb128 0x13
 1757 00a0 00       		.byte	0
 1758 00a1 00       		.byte	0
 1759 00a2 0F       		.uleb128 0xf
 1760 00a3 17       		.uleb128 0x17
 1761 00a4 01       		.byte	0x1
 1762 00a5 0B       		.uleb128 0xb
 1763 00a6 0B       		.uleb128 0xb
 1764 00a7 3A       		.uleb128 0x3a
 1765 00a8 0B       		.uleb128 0xb
 1766 00a9 3B       		.uleb128 0x3b
 1767 00aa 0B       		.uleb128 0xb
ARM GAS  /tmp/ccfacFrk.s 			page 32


 1768 00ab 01       		.uleb128 0x1
 1769 00ac 13       		.uleb128 0x13
 1770 00ad 00       		.byte	0
 1771 00ae 00       		.byte	0
 1772 00af 10       		.uleb128 0x10
 1773 00b0 0D       		.uleb128 0xd
 1774 00b1 00       		.byte	0
 1775 00b2 03       		.uleb128 0x3
 1776 00b3 0E       		.uleb128 0xe
 1777 00b4 3A       		.uleb128 0x3a
 1778 00b5 0B       		.uleb128 0xb
 1779 00b6 3B       		.uleb128 0x3b
 1780 00b7 0B       		.uleb128 0xb
 1781 00b8 49       		.uleb128 0x49
 1782 00b9 13       		.uleb128 0x13
 1783 00ba 00       		.byte	0
 1784 00bb 00       		.byte	0
 1785 00bc 11       		.uleb128 0x11
 1786 00bd 01       		.uleb128 0x1
 1787 00be 01       		.byte	0x1
 1788 00bf 49       		.uleb128 0x49
 1789 00c0 13       		.uleb128 0x13
 1790 00c1 01       		.uleb128 0x1
 1791 00c2 13       		.uleb128 0x13
 1792 00c3 00       		.byte	0
 1793 00c4 00       		.byte	0
 1794 00c5 12       		.uleb128 0x12
 1795 00c6 21       		.uleb128 0x21
 1796 00c7 00       		.byte	0
 1797 00c8 49       		.uleb128 0x49
 1798 00c9 13       		.uleb128 0x13
 1799 00ca 2F       		.uleb128 0x2f
 1800 00cb 0B       		.uleb128 0xb
 1801 00cc 00       		.byte	0
 1802 00cd 00       		.byte	0
 1803 00ce 13       		.uleb128 0x13
 1804 00cf 13       		.uleb128 0x13
 1805 00d0 01       		.byte	0x1
 1806 00d1 0B       		.uleb128 0xb
 1807 00d2 0B       		.uleb128 0xb
 1808 00d3 3A       		.uleb128 0x3a
 1809 00d4 0B       		.uleb128 0xb
 1810 00d5 3B       		.uleb128 0x3b
 1811 00d6 0B       		.uleb128 0xb
 1812 00d7 01       		.uleb128 0x1
 1813 00d8 13       		.uleb128 0x13
 1814 00d9 00       		.byte	0
 1815 00da 00       		.byte	0
 1816 00db 14       		.uleb128 0x14
 1817 00dc 13       		.uleb128 0x13
 1818 00dd 01       		.byte	0x1
 1819 00de 03       		.uleb128 0x3
 1820 00df 0E       		.uleb128 0xe
 1821 00e0 0B       		.uleb128 0xb
 1822 00e1 05       		.uleb128 0x5
 1823 00e2 3A       		.uleb128 0x3a
 1824 00e3 0B       		.uleb128 0xb
ARM GAS  /tmp/ccfacFrk.s 			page 33


 1825 00e4 3B       		.uleb128 0x3b
 1826 00e5 0B       		.uleb128 0xb
 1827 00e6 01       		.uleb128 0x1
 1828 00e7 13       		.uleb128 0x13
 1829 00e8 00       		.byte	0
 1830 00e9 00       		.byte	0
 1831 00ea 15       		.uleb128 0x15
 1832 00eb 0D       		.uleb128 0xd
 1833 00ec 00       		.byte	0
 1834 00ed 03       		.uleb128 0x3
 1835 00ee 0E       		.uleb128 0xe
 1836 00ef 3A       		.uleb128 0x3a
 1837 00f0 0B       		.uleb128 0xb
 1838 00f1 3B       		.uleb128 0x3b
 1839 00f2 0B       		.uleb128 0xb
 1840 00f3 49       		.uleb128 0x49
 1841 00f4 13       		.uleb128 0x13
 1842 00f5 38       		.uleb128 0x38
 1843 00f6 05       		.uleb128 0x5
 1844 00f7 00       		.byte	0
 1845 00f8 00       		.byte	0
 1846 00f9 16       		.uleb128 0x16
 1847 00fa 15       		.uleb128 0x15
 1848 00fb 00       		.byte	0
 1849 00fc 27       		.uleb128 0x27
 1850 00fd 19       		.uleb128 0x19
 1851 00fe 00       		.byte	0
 1852 00ff 00       		.byte	0
 1853 0100 17       		.uleb128 0x17
 1854 0101 13       		.uleb128 0x13
 1855 0102 01       		.byte	0x1
 1856 0103 03       		.uleb128 0x3
 1857 0104 0E       		.uleb128 0xe
 1858 0105 0B       		.uleb128 0xb
 1859 0106 05       		.uleb128 0x5
 1860 0107 3A       		.uleb128 0x3a
 1861 0108 0B       		.uleb128 0xb
 1862 0109 3B       		.uleb128 0x3b
 1863 010a 05       		.uleb128 0x5
 1864 010b 01       		.uleb128 0x1
 1865 010c 13       		.uleb128 0x13
 1866 010d 00       		.byte	0
 1867 010e 00       		.byte	0
 1868 010f 18       		.uleb128 0x18
 1869 0110 0D       		.uleb128 0xd
 1870 0111 00       		.byte	0
 1871 0112 03       		.uleb128 0x3
 1872 0113 0E       		.uleb128 0xe
 1873 0114 3A       		.uleb128 0x3a
 1874 0115 0B       		.uleb128 0xb
 1875 0116 3B       		.uleb128 0x3b
 1876 0117 05       		.uleb128 0x5
 1877 0118 49       		.uleb128 0x49
 1878 0119 13       		.uleb128 0x13
 1879 011a 38       		.uleb128 0x38
 1880 011b 0B       		.uleb128 0xb
 1881 011c 00       		.byte	0
ARM GAS  /tmp/ccfacFrk.s 			page 34


 1882 011d 00       		.byte	0
 1883 011e 19       		.uleb128 0x19
 1884 011f 0D       		.uleb128 0xd
 1885 0120 00       		.byte	0
 1886 0121 03       		.uleb128 0x3
 1887 0122 0E       		.uleb128 0xe
 1888 0123 3A       		.uleb128 0x3a
 1889 0124 0B       		.uleb128 0xb
 1890 0125 3B       		.uleb128 0x3b
 1891 0126 05       		.uleb128 0x5
 1892 0127 49       		.uleb128 0x49
 1893 0128 13       		.uleb128 0x13
 1894 0129 38       		.uleb128 0x38
 1895 012a 05       		.uleb128 0x5
 1896 012b 00       		.byte	0
 1897 012c 00       		.byte	0
 1898 012d 1A       		.uleb128 0x1a
 1899 012e 13       		.uleb128 0x13
 1900 012f 01       		.byte	0x1
 1901 0130 03       		.uleb128 0x3
 1902 0131 0E       		.uleb128 0xe
 1903 0132 0B       		.uleb128 0xb
 1904 0133 0B       		.uleb128 0xb
 1905 0134 3A       		.uleb128 0x3a
 1906 0135 0B       		.uleb128 0xb
 1907 0136 3B       		.uleb128 0x3b
 1908 0137 05       		.uleb128 0x5
 1909 0138 01       		.uleb128 0x1
 1910 0139 13       		.uleb128 0x13
 1911 013a 00       		.byte	0
 1912 013b 00       		.byte	0
 1913 013c 1B       		.uleb128 0x1b
 1914 013d 13       		.uleb128 0x13
 1915 013e 01       		.byte	0x1
 1916 013f 0B       		.uleb128 0xb
 1917 0140 0B       		.uleb128 0xb
 1918 0141 3A       		.uleb128 0x3a
 1919 0142 0B       		.uleb128 0xb
 1920 0143 3B       		.uleb128 0x3b
 1921 0144 05       		.uleb128 0x5
 1922 0145 01       		.uleb128 0x1
 1923 0146 13       		.uleb128 0x13
 1924 0147 00       		.byte	0
 1925 0148 00       		.byte	0
 1926 0149 1C       		.uleb128 0x1c
 1927 014a 17       		.uleb128 0x17
 1928 014b 01       		.byte	0x1
 1929 014c 0B       		.uleb128 0xb
 1930 014d 0B       		.uleb128 0xb
 1931 014e 3A       		.uleb128 0x3a
 1932 014f 0B       		.uleb128 0xb
 1933 0150 3B       		.uleb128 0x3b
 1934 0151 05       		.uleb128 0x5
 1935 0152 01       		.uleb128 0x1
 1936 0153 13       		.uleb128 0x13
 1937 0154 00       		.byte	0
 1938 0155 00       		.byte	0
ARM GAS  /tmp/ccfacFrk.s 			page 35


 1939 0156 1D       		.uleb128 0x1d
 1940 0157 0D       		.uleb128 0xd
 1941 0158 00       		.byte	0
 1942 0159 03       		.uleb128 0x3
 1943 015a 0E       		.uleb128 0xe
 1944 015b 3A       		.uleb128 0x3a
 1945 015c 0B       		.uleb128 0xb
 1946 015d 3B       		.uleb128 0x3b
 1947 015e 05       		.uleb128 0x5
 1948 015f 49       		.uleb128 0x49
 1949 0160 13       		.uleb128 0x13
 1950 0161 00       		.byte	0
 1951 0162 00       		.byte	0
 1952 0163 1E       		.uleb128 0x1e
 1953 0164 15       		.uleb128 0x15
 1954 0165 01       		.byte	0x1
 1955 0166 27       		.uleb128 0x27
 1956 0167 19       		.uleb128 0x19
 1957 0168 01       		.uleb128 0x1
 1958 0169 13       		.uleb128 0x13
 1959 016a 00       		.byte	0
 1960 016b 00       		.byte	0
 1961 016c 1F       		.uleb128 0x1f
 1962 016d 34       		.uleb128 0x34
 1963 016e 00       		.byte	0
 1964 016f 03       		.uleb128 0x3
 1965 0170 0E       		.uleb128 0xe
 1966 0171 3A       		.uleb128 0x3a
 1967 0172 0B       		.uleb128 0xb
 1968 0173 3B       		.uleb128 0x3b
 1969 0174 05       		.uleb128 0x5
 1970 0175 49       		.uleb128 0x49
 1971 0176 13       		.uleb128 0x13
 1972 0177 3F       		.uleb128 0x3f
 1973 0178 19       		.uleb128 0x19
 1974 0179 3C       		.uleb128 0x3c
 1975 017a 19       		.uleb128 0x19
 1976 017b 00       		.byte	0
 1977 017c 00       		.byte	0
 1978 017d 20       		.uleb128 0x20
 1979 017e 2E       		.uleb128 0x2e
 1980 017f 01       		.byte	0x1
 1981 0180 3F       		.uleb128 0x3f
 1982 0181 19       		.uleb128 0x19
 1983 0182 03       		.uleb128 0x3
 1984 0183 0E       		.uleb128 0xe
 1985 0184 3A       		.uleb128 0x3a
 1986 0185 0B       		.uleb128 0xb
 1987 0186 3B       		.uleb128 0x3b
 1988 0187 0B       		.uleb128 0xb
 1989 0188 27       		.uleb128 0x27
 1990 0189 19       		.uleb128 0x19
 1991 018a 49       		.uleb128 0x49
 1992 018b 13       		.uleb128 0x13
 1993 018c 11       		.uleb128 0x11
 1994 018d 01       		.uleb128 0x1
 1995 018e 12       		.uleb128 0x12
ARM GAS  /tmp/ccfacFrk.s 			page 36


 1996 018f 06       		.uleb128 0x6
 1997 0190 40       		.uleb128 0x40
 1998 0191 18       		.uleb128 0x18
 1999 0192 9742     		.uleb128 0x2117
 2000 0194 19       		.uleb128 0x19
 2001 0195 01       		.uleb128 0x1
 2002 0196 13       		.uleb128 0x13
 2003 0197 00       		.byte	0
 2004 0198 00       		.byte	0
 2005 0199 21       		.uleb128 0x21
 2006 019a 05       		.uleb128 0x5
 2007 019b 00       		.byte	0
 2008 019c 03       		.uleb128 0x3
 2009 019d 08       		.uleb128 0x8
 2010 019e 3A       		.uleb128 0x3a
 2011 019f 0B       		.uleb128 0xb
 2012 01a0 3B       		.uleb128 0x3b
 2013 01a1 0B       		.uleb128 0xb
 2014 01a2 49       		.uleb128 0x49
 2015 01a3 13       		.uleb128 0x13
 2016 01a4 02       		.uleb128 0x2
 2017 01a5 17       		.uleb128 0x17
 2018 01a6 00       		.byte	0
 2019 01a7 00       		.byte	0
 2020 01a8 22       		.uleb128 0x22
 2021 01a9 34       		.uleb128 0x34
 2022 01aa 00       		.byte	0
 2023 01ab 03       		.uleb128 0x3
 2024 01ac 08       		.uleb128 0x8
 2025 01ad 3A       		.uleb128 0x3a
 2026 01ae 0B       		.uleb128 0xb
 2027 01af 3B       		.uleb128 0x3b
 2028 01b0 0B       		.uleb128 0xb
 2029 01b1 49       		.uleb128 0x49
 2030 01b2 13       		.uleb128 0x13
 2031 01b3 02       		.uleb128 0x2
 2032 01b4 18       		.uleb128 0x18
 2033 01b5 00       		.byte	0
 2034 01b6 00       		.byte	0
 2035 01b7 23       		.uleb128 0x23
 2036 01b8 1D       		.uleb128 0x1d
 2037 01b9 01       		.byte	0x1
 2038 01ba 31       		.uleb128 0x31
 2039 01bb 13       		.uleb128 0x13
 2040 01bc 11       		.uleb128 0x11
 2041 01bd 01       		.uleb128 0x1
 2042 01be 12       		.uleb128 0x12
 2043 01bf 06       		.uleb128 0x6
 2044 01c0 58       		.uleb128 0x58
 2045 01c1 0B       		.uleb128 0xb
 2046 01c2 59       		.uleb128 0x59
 2047 01c3 0B       		.uleb128 0xb
 2048 01c4 01       		.uleb128 0x1
 2049 01c5 13       		.uleb128 0x13
 2050 01c6 00       		.byte	0
 2051 01c7 00       		.byte	0
 2052 01c8 24       		.uleb128 0x24
ARM GAS  /tmp/ccfacFrk.s 			page 37


 2053 01c9 05       		.uleb128 0x5
 2054 01ca 00       		.byte	0
 2055 01cb 31       		.uleb128 0x31
 2056 01cc 13       		.uleb128 0x13
 2057 01cd 02       		.uleb128 0x2
 2058 01ce 17       		.uleb128 0x17
 2059 01cf 00       		.byte	0
 2060 01d0 00       		.byte	0
 2061 01d1 25       		.uleb128 0x25
 2062 01d2 898201   		.uleb128 0x4109
 2063 01d5 01       		.byte	0x1
 2064 01d6 11       		.uleb128 0x11
 2065 01d7 01       		.uleb128 0x1
 2066 01d8 31       		.uleb128 0x31
 2067 01d9 13       		.uleb128 0x13
 2068 01da 00       		.byte	0
 2069 01db 00       		.byte	0
 2070 01dc 26       		.uleb128 0x26
 2071 01dd 8A8201   		.uleb128 0x410a
 2072 01e0 00       		.byte	0
 2073 01e1 02       		.uleb128 0x2
 2074 01e2 18       		.uleb128 0x18
 2075 01e3 9142     		.uleb128 0x2111
 2076 01e5 18       		.uleb128 0x18
 2077 01e6 00       		.byte	0
 2078 01e7 00       		.byte	0
 2079 01e8 27       		.uleb128 0x27
 2080 01e9 898201   		.uleb128 0x4109
 2081 01ec 01       		.byte	0x1
 2082 01ed 11       		.uleb128 0x11
 2083 01ee 01       		.uleb128 0x1
 2084 01ef 9542     		.uleb128 0x2115
 2085 01f1 19       		.uleb128 0x19
 2086 01f2 00       		.byte	0
 2087 01f3 00       		.byte	0
 2088 01f4 28       		.uleb128 0x28
 2089 01f5 2E       		.uleb128 0x2e
 2090 01f6 01       		.byte	0x1
 2091 01f7 03       		.uleb128 0x3
 2092 01f8 0E       		.uleb128 0xe
 2093 01f9 3A       		.uleb128 0x3a
 2094 01fa 0B       		.uleb128 0xb
 2095 01fb 3B       		.uleb128 0x3b
 2096 01fc 05       		.uleb128 0x5
 2097 01fd 27       		.uleb128 0x27
 2098 01fe 19       		.uleb128 0x19
 2099 01ff 49       		.uleb128 0x49
 2100 0200 13       		.uleb128 0x13
 2101 0201 20       		.uleb128 0x20
 2102 0202 0B       		.uleb128 0xb
 2103 0203 01       		.uleb128 0x1
 2104 0204 13       		.uleb128 0x13
 2105 0205 00       		.byte	0
 2106 0206 00       		.byte	0
 2107 0207 29       		.uleb128 0x29
 2108 0208 05       		.uleb128 0x5
 2109 0209 00       		.byte	0
ARM GAS  /tmp/ccfacFrk.s 			page 38


 2110 020a 03       		.uleb128 0x3
 2111 020b 08       		.uleb128 0x8
 2112 020c 3A       		.uleb128 0x3a
 2113 020d 0B       		.uleb128 0xb
 2114 020e 3B       		.uleb128 0x3b
 2115 020f 05       		.uleb128 0x5
 2116 0210 49       		.uleb128 0x49
 2117 0211 13       		.uleb128 0x13
 2118 0212 00       		.byte	0
 2119 0213 00       		.byte	0
 2120 0214 2A       		.uleb128 0x2a
 2121 0215 2E       		.uleb128 0x2e
 2122 0216 00       		.byte	0
 2123 0217 3F       		.uleb128 0x3f
 2124 0218 19       		.uleb128 0x19
 2125 0219 3C       		.uleb128 0x3c
 2126 021a 19       		.uleb128 0x19
 2127 021b 6E       		.uleb128 0x6e
 2128 021c 0E       		.uleb128 0xe
 2129 021d 03       		.uleb128 0x3
 2130 021e 0E       		.uleb128 0xe
 2131 021f 3A       		.uleb128 0x3a
 2132 0220 0B       		.uleb128 0xb
 2133 0221 3B       		.uleb128 0x3b
 2134 0222 05       		.uleb128 0x5
 2135 0223 00       		.byte	0
 2136 0224 00       		.byte	0
 2137 0225 00       		.byte	0
 2138              		.section	.debug_loc,"",%progbits
 2139              	.Ldebug_loc0:
 2140              	.LLST8:
 2141 0000 00000000 		.4byte	.LVL10
 2142 0004 09000000 		.4byte	.LVL11-1
 2143 0008 0100     		.2byte	0x1
 2144 000a 50       		.byte	0x50
 2145 000b 09000000 		.4byte	.LVL11-1
 2146 000f 1E000000 		.4byte	.LFE38
 2147 0013 0400     		.2byte	0x4
 2148 0015 F3       		.byte	0xf3
 2149 0016 01       		.uleb128 0x1
 2150 0017 50       		.byte	0x50
 2151 0018 9F       		.byte	0x9f
 2152 0019 00000000 		.4byte	0
 2153 001d 00000000 		.4byte	0
 2154              	.LLST9:
 2155 0021 0A000000 		.4byte	.LVL11
 2156 0025 0E000000 		.4byte	.LVL12
 2157 0029 0100     		.2byte	0x1
 2158 002b 50       		.byte	0x50
 2159 002c 00000000 		.4byte	0
 2160 0030 00000000 		.4byte	0
 2161              	.LLST6:
 2162 0034 00000000 		.4byte	.LVL8
 2163 0038 03000000 		.4byte	.LVL9-1
 2164 003c 0100     		.2byte	0x1
 2165 003e 50       		.byte	0x50
 2166 003f 03000000 		.4byte	.LVL9-1
ARM GAS  /tmp/ccfacFrk.s 			page 39


 2167 0043 04000000 		.4byte	.LFE37
 2168 0047 0400     		.2byte	0x4
 2169 0049 F3       		.byte	0xf3
 2170 004a 01       		.uleb128 0x1
 2171 004b 50       		.byte	0x50
 2172 004c 9F       		.byte	0x9f
 2173 004d 00000000 		.4byte	0
 2174 0051 00000000 		.4byte	0
 2175              	.LLST7:
 2176 0055 00000000 		.4byte	.LVL8
 2177 0059 03000000 		.4byte	.LVL9-1
 2178 005d 0100     		.2byte	0x1
 2179 005f 51       		.byte	0x51
 2180 0060 03000000 		.4byte	.LVL9-1
 2181 0064 04000000 		.4byte	.LFE37
 2182 0068 0400     		.2byte	0x4
 2183 006a F3       		.byte	0xf3
 2184 006b 01       		.uleb128 0x1
 2185 006c 51       		.byte	0x51
 2186 006d 9F       		.byte	0x9f
 2187 006e 00000000 		.4byte	0
 2188 0072 00000000 		.4byte	0
 2189              	.LLST4:
 2190 0076 00000000 		.4byte	.LVL6
 2191 007a 03000000 		.4byte	.LVL7-1
 2192 007e 0100     		.2byte	0x1
 2193 0080 50       		.byte	0x50
 2194 0081 03000000 		.4byte	.LVL7-1
 2195 0085 04000000 		.4byte	.LFE36
 2196 0089 0400     		.2byte	0x4
 2197 008b F3       		.byte	0xf3
 2198 008c 01       		.uleb128 0x1
 2199 008d 50       		.byte	0x50
 2200 008e 9F       		.byte	0x9f
 2201 008f 00000000 		.4byte	0
 2202 0093 00000000 		.4byte	0
 2203              	.LLST5:
 2204 0097 00000000 		.4byte	.LVL6
 2205 009b 03000000 		.4byte	.LVL7-1
 2206 009f 0100     		.2byte	0x1
 2207 00a1 51       		.byte	0x51
 2208 00a2 03000000 		.4byte	.LVL7-1
 2209 00a6 04000000 		.4byte	.LFE36
 2210 00aa 0400     		.2byte	0x4
 2211 00ac F3       		.byte	0xf3
 2212 00ad 01       		.uleb128 0x1
 2213 00ae 51       		.byte	0x51
 2214 00af 9F       		.byte	0x9f
 2215 00b0 00000000 		.4byte	0
 2216 00b4 00000000 		.4byte	0
 2217              	.LLST2:
 2218 00b8 00000000 		.4byte	.LVL4
 2219 00bc 03000000 		.4byte	.LVL5-1
 2220 00c0 0100     		.2byte	0x1
 2221 00c2 50       		.byte	0x50
 2222 00c3 03000000 		.4byte	.LVL5-1
 2223 00c7 04000000 		.4byte	.LFE35
ARM GAS  /tmp/ccfacFrk.s 			page 40


 2224 00cb 0400     		.2byte	0x4
 2225 00cd F3       		.byte	0xf3
 2226 00ce 01       		.uleb128 0x1
 2227 00cf 50       		.byte	0x50
 2228 00d0 9F       		.byte	0x9f
 2229 00d1 00000000 		.4byte	0
 2230 00d5 00000000 		.4byte	0
 2231              	.LLST3:
 2232 00d9 00000000 		.4byte	.LVL4
 2233 00dd 03000000 		.4byte	.LVL5-1
 2234 00e1 0100     		.2byte	0x1
 2235 00e3 51       		.byte	0x51
 2236 00e4 03000000 		.4byte	.LVL5-1
 2237 00e8 04000000 		.4byte	.LFE35
 2238 00ec 0400     		.2byte	0x4
 2239 00ee F3       		.byte	0xf3
 2240 00ef 01       		.uleb128 0x1
 2241 00f0 51       		.byte	0x51
 2242 00f1 9F       		.byte	0x9f
 2243 00f2 00000000 		.4byte	0
 2244 00f6 00000000 		.4byte	0
 2245              	.LLST1:
 2246 00fa 00000000 		.4byte	.LVL2
 2247 00fe 03000000 		.4byte	.LVL3-1
 2248 0102 0100     		.2byte	0x1
 2249 0104 50       		.byte	0x50
 2250 0105 03000000 		.4byte	.LVL3-1
 2251 0109 04000000 		.4byte	.LFE34
 2252 010d 0400     		.2byte	0x4
 2253 010f F3       		.byte	0xf3
 2254 0110 01       		.uleb128 0x1
 2255 0111 50       		.byte	0x50
 2256 0112 9F       		.byte	0x9f
 2257 0113 00000000 		.4byte	0
 2258 0117 00000000 		.4byte	0
 2259              	.LLST0:
 2260 011b 00000000 		.4byte	.LVL0
 2261 011f 03000000 		.4byte	.LVL1-1
 2262 0123 0100     		.2byte	0x1
 2263 0125 50       		.byte	0x50
 2264 0126 03000000 		.4byte	.LVL1-1
 2265 012a 04000000 		.4byte	.LFE33
 2266 012e 0400     		.2byte	0x4
 2267 0130 F3       		.byte	0xf3
 2268 0131 01       		.uleb128 0x1
 2269 0132 50       		.byte	0x50
 2270 0133 9F       		.byte	0x9f
 2271 0134 00000000 		.4byte	0
 2272 0138 00000000 		.4byte	0
 2273              		.section	.debug_aranges,"",%progbits
 2274 0000 44000000 		.4byte	0x44
 2275 0004 0200     		.2byte	0x2
 2276 0006 00000000 		.4byte	.Ldebug_info0
 2277 000a 04       		.byte	0x4
 2278 000b 00       		.byte	0
 2279 000c 0000     		.2byte	0
 2280 000e 0000     		.2byte	0
ARM GAS  /tmp/ccfacFrk.s 			page 41


 2281 0010 00000000 		.4byte	.LFB33
 2282 0014 04000000 		.4byte	.LFE33-.LFB33
 2283 0018 00000000 		.4byte	.LFB34
 2284 001c 04000000 		.4byte	.LFE34-.LFB34
 2285 0020 00000000 		.4byte	.LFB35
 2286 0024 04000000 		.4byte	.LFE35-.LFB35
 2287 0028 00000000 		.4byte	.LFB36
 2288 002c 04000000 		.4byte	.LFE36-.LFB36
 2289 0030 00000000 		.4byte	.LFB37
 2290 0034 04000000 		.4byte	.LFE37-.LFB37
 2291 0038 00000000 		.4byte	.LFB38
 2292 003c 1E000000 		.4byte	.LFE38-.LFB38
 2293 0040 00000000 		.4byte	0
 2294 0044 00000000 		.4byte	0
 2295              		.section	.debug_ranges,"",%progbits
 2296              	.Ldebug_ranges0:
 2297 0000 00000000 		.4byte	.LFB33
 2298 0004 04000000 		.4byte	.LFE33
 2299 0008 00000000 		.4byte	.LFB34
 2300 000c 04000000 		.4byte	.LFE34
 2301 0010 00000000 		.4byte	.LFB35
 2302 0014 04000000 		.4byte	.LFE35
 2303 0018 00000000 		.4byte	.LFB36
 2304 001c 04000000 		.4byte	.LFE36
 2305 0020 00000000 		.4byte	.LFB37
 2306 0024 04000000 		.4byte	.LFE37
 2307 0028 00000000 		.4byte	.LFB38
 2308 002c 1E000000 		.4byte	.LFE38
 2309 0030 00000000 		.4byte	0
 2310 0034 00000000 		.4byte	0
 2311              		.section	.debug_line,"",%progbits
 2312              	.Ldebug_line0:
 2313 0000 9B010000 		.section	.debug_str,"MS",%progbits,1
 2313      02002701 
 2313      00000201 
 2313      FB0E0D00 
 2313      01010101 
 2314              	.LASF52:
 2315 0000 5F64736F 		.ascii	"_dso_handle\000"
 2315      5F68616E 
 2315      646C6500 
 2316              	.LASF142:
 2317 000c 2F626C64 		.ascii	"/bldc\000"
 2317      6300
 2318              	.LASF104:
 2319 0012 5F72616E 		.ascii	"_rand48\000"
 2319      64343800 
 2320              	.LASF84:
 2321 001a 5F656D65 		.ascii	"_emergency\000"
 2321      7267656E 
 2321      637900
 2322              	.LASF74:
 2323 0025 5F646174 		.ascii	"_data\000"
 2323      6100
 2324              	.LASF140:
 2325 002b 474E5520 		.ascii	"GNU C99 7.3.1 20180622 (release) [ARM/embedded-7-br"
 2325      43393920 
ARM GAS  /tmp/ccfacFrk.s 			page 42


 2325      372E332E 
 2325      31203230 
 2325      31383036 
 2326 005e 616E6368 		.ascii	"anch revision 261907] -mcpu=cortex-m4 -mfloat-abi=h"
 2326      20726576 
 2326      6973696F 
 2326      6E203236 
 2326      31393037 
 2327 0091 61726420 		.ascii	"ard -mfpu=fpv4-sp-d16 -mno-thumb-interwork -mthumb "
 2327      2D6D6670 
 2327      753D6670 
 2327      76342D73 
 2327      702D6431 
 2328 00c4 2D676764 		.ascii	"-ggdb -O2 -std=gnu99 -fomit-frame-pointer -falign-f"
 2328      62202D4F 
 2328      32202D73 
 2328      74643D67 
 2328      6E753939 
 2329 00f7 756E6374 		.ascii	"unctions=16 -ffunction-sections -fdata-sections -fn"
 2329      696F6E73 
 2329      3D313620 
 2329      2D666675 
 2329      6E637469 
 2330 012a 6F2D636F 		.ascii	"o-common -fsingle-precision-constant\000"
 2330      6D6D6F6E 
 2330      202D6673 
 2330      696E676C 
 2330      652D7072 
 2331              	.LASF124:
 2332 014f 5F776372 		.ascii	"_wcrtomb_state\000"
 2332      746F6D62 
 2332      5F737461 
 2332      746500
 2333              	.LASF125:
 2334 015e 5F776373 		.ascii	"_wcsrtombs_state\000"
 2334      72746F6D 
 2334      62735F73 
 2334      74617465 
 2334      00
 2335              	.LASF7:
 2336 016f 6C6F6E67 		.ascii	"long long unsigned int\000"
 2336      206C6F6E 
 2336      6720756E 
 2336      7369676E 
 2336      65642069 
 2337              	.LASF64:
 2338 0186 5F6C6266 		.ascii	"_lbfsize\000"
 2338      73697A65 
 2338      00
 2339              	.LASF22:
 2340 018f 5F5F6C6F 		.ascii	"__locale_t\000"
 2340      63616C65 
 2340      5F7400
 2341              	.LASF122:
 2342 019a 5F6D6272 		.ascii	"_mbrtowc_state\000"
 2342      746F7763 
 2342      5F737461 
ARM GAS  /tmp/ccfacFrk.s 			page 43


 2342      746500
 2343              	.LASF41:
 2344 01a9 5F5F746D 		.ascii	"__tm_sec\000"
 2344      5F736563 
 2344      00
 2345              	.LASF6:
 2346 01b2 6C6F6E67 		.ascii	"long long int\000"
 2346      206C6F6E 
 2346      6720696E 
 2346      7400
 2347              	.LASF0:
 2348 01c0 7369676E 		.ascii	"signed char\000"
 2348      65642063 
 2348      68617200 
 2349              	.LASF12:
 2350 01cc 6C626D5F 		.ascii	"lbm_type\000"
 2350      74797065 
 2350      00
 2351              	.LASF70:
 2352 01d5 5F756275 		.ascii	"_ubuf\000"
 2352      6600
 2353              	.LASF59:
 2354 01db 5F626173 		.ascii	"_base\000"
 2354      6500
 2355              	.LASF43:
 2356 01e1 5F5F746D 		.ascii	"__tm_hour\000"
 2356      5F686F75 
 2356      7200
 2357              	.LASF99:
 2358 01eb 5F5F7366 		.ascii	"__sf\000"
 2358      00
 2359              	.LASF50:
 2360 01f0 5F6F6E5F 		.ascii	"_on_exit_args\000"
 2360      65786974 
 2360      5F617267 
 2360      7300
 2361              	.LASF65:
 2362 01fe 5F636F6F 		.ascii	"_cookie\000"
 2362      6B696500 
 2363              	.LASF98:
 2364 0206 5F5F7367 		.ascii	"__sglue\000"
 2364      6C756500 
 2365              	.LASF16:
 2366 020e 73746174 		.ascii	"state\000"
 2366      6500
 2367              	.LASF4:
 2368 0214 6C6F6E67 		.ascii	"long int\000"
 2368      20696E74 
 2368      00
 2369              	.LASF133:
 2370 021d 6C626D5F 		.ascii	"lbm_stream_put\000"
 2370      73747265 
 2370      616D5F70 
 2370      757400
 2371              	.LASF62:
 2372 022c 5F666C61 		.ascii	"_flags\000"
 2372      677300
ARM GAS  /tmp/ccfacFrk.s 			page 44


 2373              	.LASF54:
 2374 0233 5F69735F 		.ascii	"_is_cxa\000"
 2374      63786100 
 2375              	.LASF80:
 2376 023b 5F737464 		.ascii	"_stdin\000"
 2376      696E00
 2377              	.LASF72:
 2378 0242 5F626C6B 		.ascii	"_blksize\000"
 2378      73697A65 
 2378      00
 2379              	.LASF94:
 2380 024b 5F637674 		.ascii	"_cvtbuf\000"
 2380      62756600 
 2381              	.LASF73:
 2382 0253 5F6F6666 		.ascii	"_offset\000"
 2382      73657400 
 2383              	.LASF123:
 2384 025b 5F6D6273 		.ascii	"_mbsrtowcs_state\000"
 2384      72746F77 
 2384      63735F73 
 2384      74617465 
 2384      00
 2385              	.LASF109:
 2386 026c 5F737472 		.ascii	"_strtok_last\000"
 2386      746F6B5F 
 2386      6C617374 
 2386      00
 2387              	.LASF121:
 2388 0279 5F6D6272 		.ascii	"_mbrlen_state\000"
 2388      6C656E5F 
 2388      73746174 
 2388      6500
 2389              	.LASF51:
 2390 0287 5F666E61 		.ascii	"_fnargs\000"
 2390      72677300 
 2391              	.LASF60:
 2392 028f 5F73697A 		.ascii	"_size\000"
 2392      6500
 2393              	.LASF57:
 2394 0295 5F666E73 		.ascii	"_fns\000"
 2394      00
 2395              	.LASF9:
 2396 029a 5F5F7569 		.ascii	"__uint32_t\000"
 2396      6E743332 
 2396      5F7400
 2397              	.LASF38:
 2398 02a5 5F736967 		.ascii	"_sign\000"
 2398      6E00
 2399              	.LASF32:
 2400 02ab 5F666C6F 		.ascii	"_flock_t\000"
 2400      636B5F74 
 2400      00
 2401              	.LASF82:
 2402 02b4 5F737464 		.ascii	"_stderr\000"
 2402      65727200 
 2403              	.LASF35:
 2404 02bc 5F426967 		.ascii	"_Bigint\000"
ARM GAS  /tmp/ccfacFrk.s 			page 45


 2404      696E7400 
 2405              	.LASF112:
 2406 02c4 5F67616D 		.ascii	"_gamma_signgam\000"
 2406      6D615F73 
 2406      69676E67 
 2406      616D00
 2407              	.LASF66:
 2408 02d3 5F726561 		.ascii	"_read\000"
 2408      6400
 2409              	.LASF90:
 2410 02d9 5F726573 		.ascii	"_result_k\000"
 2410      756C745F 
 2410      6B00
 2411              	.LASF40:
 2412 02e3 5F5F746D 		.ascii	"__tm\000"
 2412      00
 2413              	.LASF8:
 2414 02e8 756E7369 		.ascii	"unsigned int\000"
 2414      676E6564 
 2414      20696E74 
 2414      00
 2415              	.LASF28:
 2416 02f5 5F5F7763 		.ascii	"__wchb\000"
 2416      686200
 2417              	.LASF81:
 2418 02fc 5F737464 		.ascii	"_stdout\000"
 2418      6F757400 
 2419              	.LASF93:
 2420 0304 5F637674 		.ascii	"_cvtlen\000"
 2420      6C656E00 
 2421              	.LASF5:
 2422 030c 6C6F6E67 		.ascii	"long unsigned int\000"
 2422      20756E73 
 2422      69676E65 
 2422      6420696E 
 2422      7400
 2423              	.LASF63:
 2424 031e 5F66696C 		.ascii	"_file\000"
 2424      6500
 2425              	.LASF138:
 2426 0324 6C626D5F 		.ascii	"lbm_enc_sym\000"
 2426      656E635F 
 2426      73796D00 
 2427              	.LASF102:
 2428 0330 5F6E696F 		.ascii	"_niobs\000"
 2428      627300
 2429              	.LASF18:
 2430 0337 7065656B 		.ascii	"peek\000"
 2430      00
 2431              	.LASF132:
 2432 033c 6C626D5F 		.ascii	"lbm_stream_create\000"
 2432      73747265 
 2432      616D5F63 
 2432      72656174 
 2432      6500
 2433              	.LASF3:
 2434 034e 73686F72 		.ascii	"short unsigned int\000"
ARM GAS  /tmp/ccfacFrk.s 			page 46


 2434      7420756E 
 2434      7369676E 
 2434      65642069 
 2434      6E7400
 2435              	.LASF96:
 2436 0361 5F617465 		.ascii	"_atexit0\000"
 2436      78697430 
 2436      00
 2437              	.LASF119:
 2438 036a 5F736967 		.ascii	"_signal_buf\000"
 2438      6E616C5F 
 2438      62756600 
 2439              	.LASF110:
 2440 0376 5F617363 		.ascii	"_asctime_buf\000"
 2440      74696D65 
 2440      5F627566 
 2440      00
 2441              	.LASF89:
 2442 0383 5F726573 		.ascii	"_result\000"
 2442      756C7400 
 2443              	.LASF27:
 2444 038b 5F5F7763 		.ascii	"__wch\000"
 2444      6800
 2445              	.LASF21:
 2446 0391 5F4C4F43 		.ascii	"_LOCK_T\000"
 2446      4B5F5400 
 2447              	.LASF26:
 2448 0399 77696E74 		.ascii	"wint_t\000"
 2448      5F7400
 2449              	.LASF11:
 2450 03a0 6C626D5F 		.ascii	"lbm_value\000"
 2450      76616C75 
 2450      6500
 2451              	.LASF75:
 2452 03aa 5F6C6F63 		.ascii	"_lock\000"
 2452      6B00
 2453              	.LASF77:
 2454 03b0 5F666C61 		.ascii	"_flags2\000"
 2454      67733200 
 2455              	.LASF67:
 2456 03b8 5F777269 		.ascii	"_write\000"
 2456      746500
 2457              	.LASF46:
 2458 03bf 5F5F746D 		.ascii	"__tm_year\000"
 2458      5F796561 
 2458      7200
 2459              	.LASF34:
 2460 03c9 6C626D5F 		.ascii	"lbm_stream_s\000"
 2460      73747265 
 2460      616D5F73 
 2460      00
 2461              	.LASF20:
 2462 03d6 6C626D5F 		.ascii	"lbm_stream_t\000"
 2462      73747265 
 2462      616D5F74 
 2462      00
 2463              	.LASF136:
ARM GAS  /tmp/ccfacFrk.s 			page 47


 2464 03e3 6C626D5F 		.ascii	"lbm_stream_more\000"
 2464      73747265 
 2464      616D5F6D 
 2464      6F726500 
 2465              	.LASF31:
 2466 03f3 5F6D6273 		.ascii	"_mbstate_t\000"
 2466      74617465 
 2466      5F7400
 2467              	.LASF127:
 2468 03fe 5F6E6578 		.ascii	"_nextf\000"
 2468      746600
 2469              	.LASF45:
 2470 0405 5F5F746D 		.ascii	"__tm_mon\000"
 2470      5F6D6F6E 
 2470      00
 2471              	.LASF55:
 2472 040e 5F617465 		.ascii	"_atexit\000"
 2472      78697400 
 2473              	.LASF87:
 2474 0416 5F5F7364 		.ascii	"__sdidinit\000"
 2474      6964696E 
 2474      697400
 2475              	.LASF24:
 2476 0421 5F6F6666 		.ascii	"_off_t\000"
 2476      5F7400
 2477              	.LASF134:
 2478 0428 6C626D5F 		.ascii	"lbm_stream_drop\000"
 2478      73747265 
 2478      616D5F64 
 2478      726F7000 
 2479              	.LASF143:
 2480 0438 6C626D5F 		.ascii	"lbm_cons\000"
 2480      636F6E73 
 2480      00
 2481              	.LASF13:
 2482 0441 666C6F61 		.ascii	"float\000"
 2482      7400
 2483              	.LASF92:
 2484 0447 5F667265 		.ascii	"_freelist\000"
 2484      656C6973 
 2484      7400
 2485              	.LASF17:
 2486 0451 6D6F7265 		.ascii	"more\000"
 2486      00
 2487              	.LASF117:
 2488 0456 5F776374 		.ascii	"_wctomb_state\000"
 2488      6F6D625F 
 2488      73746174 
 2488      6500
 2489              	.LASF14:
 2490 0464 5F426F6F 		.ascii	"_Bool\000"
 2490      6C00
 2491              	.LASF1:
 2492 046a 756E7369 		.ascii	"unsigned char\000"
 2492      676E6564 
 2492      20636861 
 2492      7200
ARM GAS  /tmp/ccfacFrk.s 			page 48


 2493              	.LASF95:
 2494 0478 5F6E6577 		.ascii	"_new\000"
 2494      00
 2495              	.LASF126:
 2496 047d 5F685F65 		.ascii	"_h_errno\000"
 2496      72726E6F 
 2496      00
 2497              	.LASF2:
 2498 0486 73686F72 		.ascii	"short int\000"
 2498      7420696E 
 2498      7400
 2499              	.LASF48:
 2500 0490 5F5F746D 		.ascii	"__tm_yday\000"
 2500      5F796461 
 2500      7900
 2501              	.LASF58:
 2502 049a 5F5F7362 		.ascii	"__sbuf\000"
 2502      756600
 2503              	.LASF103:
 2504 04a1 5F696F62 		.ascii	"_iobs\000"
 2504      7300
 2505              	.LASF100:
 2506 04a7 5F5F4649 		.ascii	"__FILE\000"
 2506      4C4500
 2507              	.LASF19:
 2508 04ae 64726F70 		.ascii	"drop\000"
 2508      00
 2509              	.LASF61:
 2510 04b3 5F5F7346 		.ascii	"__sFILE\000"
 2510      494C4500 
 2511              	.LASF76:
 2512 04bb 5F6D6273 		.ascii	"_mbstate\000"
 2512      74617465 
 2512      00
 2513              	.LASF113:
 2514 04c4 5F72616E 		.ascii	"_rand_next\000"
 2514      645F6E65 
 2514      787400
 2515              	.LASF115:
 2516 04cf 5F6D626C 		.ascii	"_mblen_state\000"
 2516      656E5F73 
 2516      74617465 
 2516      00
 2517              	.LASF83:
 2518 04dc 5F696E63 		.ascii	"_inc\000"
 2518      00
 2519              	.LASF56:
 2520 04e1 5F696E64 		.ascii	"_ind\000"
 2520      00
 2521              	.LASF86:
 2522 04e6 5F6C6F63 		.ascii	"_locale\000"
 2522      616C6500 
 2523              	.LASF88:
 2524 04ee 5F5F636C 		.ascii	"__cleanup\000"
 2524      65616E75 
 2524      7000
 2525              	.LASF85:
ARM GAS  /tmp/ccfacFrk.s 			page 49


 2526 04f8 5F756E73 		.ascii	"_unspecified_locale_info\000"
 2526      70656369 
 2526      66696564 
 2526      5F6C6F63 
 2526      616C655F 
 2527              	.LASF137:
 2528 0511 6C626D5F 		.ascii	"lbm_stream_get\000"
 2528      73747265 
 2528      616D5F67 
 2528      657400
 2529              	.LASF37:
 2530 0520 5F6D6178 		.ascii	"_maxwds\000"
 2530      77647300 
 2531              	.LASF78:
 2532 0528 5F726565 		.ascii	"_reent\000"
 2532      6E7400
 2533              	.LASF105:
 2534 052f 5F736565 		.ascii	"_seed\000"
 2534      6400
 2535              	.LASF139:
 2536 0535 6C626D5F 		.ascii	"lbm_type_of\000"
 2536      74797065 
 2536      5F6F6600 
 2537              	.LASF29:
 2538 0541 5F5F636F 		.ascii	"__count\000"
 2538      756E7400 
 2539              	.LASF23:
 2540 0549 5F5F6C6F 		.ascii	"__lock\000"
 2540      636B00
 2541              	.LASF10:
 2542 0550 75696E74 		.ascii	"uint32_t\000"
 2542      33325F74 
 2542      00
 2543              	.LASF68:
 2544 0559 5F736565 		.ascii	"_seek\000"
 2544      6B00
 2545              	.LASF130:
 2546 055f 5F696D70 		.ascii	"_impure_ptr\000"
 2546      7572655F 
 2546      70747200 
 2547              	.LASF25:
 2548 056b 5F66706F 		.ascii	"_fpos_t\000"
 2548      735F7400 
 2549              	.LASF79:
 2550 0573 5F657272 		.ascii	"_errno\000"
 2550      6E6F00
 2551              	.LASF15:
 2552 057a 63686172 		.ascii	"char\000"
 2552      00
 2553              	.LASF42:
 2554 057f 5F5F746D 		.ascii	"__tm_min\000"
 2554      5F6D696E 
 2554      00
 2555              	.LASF106:
 2556 0588 5F6D756C 		.ascii	"_mult\000"
 2556      7400
 2557              	.LASF36:
ARM GAS  /tmp/ccfacFrk.s 			page 50


 2558 058e 5F6E6578 		.ascii	"_next\000"
 2558      7400
 2559              	.LASF141:
 2560 0594 6C697370 		.ascii	"lispBM/lispBM/src/streams.c\000"
 2560      424D2F6C 
 2560      69737042 
 2560      4D2F7372 
 2560      632F7374 
 2561              	.LASF30:
 2562 05b0 5F5F7661 		.ascii	"__value\000"
 2562      6C756500 
 2563              	.LASF53:
 2564 05b8 5F666E74 		.ascii	"_fntypes\000"
 2564      79706573 
 2564      00
 2565              	.LASF107:
 2566 05c1 5F616464 		.ascii	"_add\000"
 2566      00
 2567              	.LASF33:
 2568 05c6 5F5F554C 		.ascii	"__ULong\000"
 2568      6F6E6700 
 2569              	.LASF120:
 2570 05ce 5F676574 		.ascii	"_getdate_err\000"
 2570      64617465 
 2570      5F657272 
 2570      00
 2571              	.LASF131:
 2572 05db 5F676C6F 		.ascii	"_global_impure_ptr\000"
 2572      62616C5F 
 2572      696D7075 
 2572      72655F70 
 2572      747200
 2573              	.LASF108:
 2574 05ee 5F756E75 		.ascii	"_unused_rand\000"
 2574      7365645F 
 2574      72616E64 
 2574      00
 2575              	.LASF39:
 2576 05fb 5F776473 		.ascii	"_wds\000"
 2576      00
 2577              	.LASF47:
 2578 0600 5F5F746D 		.ascii	"__tm_wday\000"
 2578      5F776461 
 2578      7900
 2579              	.LASF101:
 2580 060a 5F676C75 		.ascii	"_glue\000"
 2580      6500
 2581              	.LASF128:
 2582 0610 5F6E6D61 		.ascii	"_nmalloc\000"
 2582      6C6C6F63 
 2582      00
 2583              	.LASF118:
 2584 0619 5F6C3634 		.ascii	"_l64a_buf\000"
 2584      615F6275 
 2584      6600
 2585              	.LASF97:
 2586 0623 5F736967 		.ascii	"_sig_func\000"
ARM GAS  /tmp/ccfacFrk.s 			page 51


 2586      5F66756E 
 2586      6300
 2587              	.LASF71:
 2588 062d 5F6E6275 		.ascii	"_nbuf\000"
 2588      6600
 2589              	.LASF129:
 2590 0633 5F756E75 		.ascii	"_unused\000"
 2590      73656400 
 2591              	.LASF49:
 2592 063b 5F5F746D 		.ascii	"__tm_isdst\000"
 2592      5F697364 
 2592      737400
 2593              	.LASF111:
 2594 0646 5F6C6F63 		.ascii	"_localtime_buf\000"
 2594      616C7469 
 2594      6D655F62 
 2594      756600
 2595              	.LASF69:
 2596 0655 5F636C6F 		.ascii	"_close\000"
 2596      736500
 2597              	.LASF114:
 2598 065c 5F723438 		.ascii	"_r48\000"
 2598      00
 2599              	.LASF135:
 2600 0661 6C626D5F 		.ascii	"lbm_stream_peek\000"
 2600      73747265 
 2600      616D5F70 
 2600      65656B00 
 2601              	.LASF116:
 2602 0671 5F6D6274 		.ascii	"_mbtowc_state\000"
 2602      6F77635F 
 2602      73746174 
 2602      6500
 2603              	.LASF91:
 2604 067f 5F703573 		.ascii	"_p5s\000"
 2604      00
 2605              	.LASF44:
 2606 0684 5F5F746D 		.ascii	"__tm_mday\000"
 2606      5F6D6461 
 2606      7900
 2607              		.ident	"GCC: (GNU Tools for Arm Embedded Processors 7-2018-q3-update) 7.3.1 20180622 (release) [AR
ARM GAS  /tmp/ccfacFrk.s 			page 52


DEFINED SYMBOLS
                            *ABS*:0000000000000000 streams.c
     /tmp/ccfacFrk.s:18     .text.lbm_stream_get:0000000000000000 $t
     /tmp/ccfacFrk.s:26     .text.lbm_stream_get:0000000000000000 lbm_stream_get
     /tmp/ccfacFrk.s:43     .text.lbm_stream_more:0000000000000000 $t
     /tmp/ccfacFrk.s:51     .text.lbm_stream_more:0000000000000000 lbm_stream_more
     /tmp/ccfacFrk.s:67     .text.lbm_stream_peek:0000000000000000 $t
     /tmp/ccfacFrk.s:75     .text.lbm_stream_peek:0000000000000000 lbm_stream_peek
     /tmp/ccfacFrk.s:91     .text.lbm_stream_drop:0000000000000000 $t
     /tmp/ccfacFrk.s:99     .text.lbm_stream_drop:0000000000000000 lbm_stream_drop
     /tmp/ccfacFrk.s:115    .text.lbm_stream_put:0000000000000000 $t
     /tmp/ccfacFrk.s:123    .text.lbm_stream_put:0000000000000000 lbm_stream_put
     /tmp/ccfacFrk.s:139    .text.lbm_stream_create:0000000000000000 $t
     /tmp/ccfacFrk.s:147    .text.lbm_stream_create:0000000000000000 lbm_stream_create

UNDEFINED SYMBOLS
lbm_cons
