ARM GAS  /tmp/cc0JaHPn.s 			page 1


   1              		.cpu cortex-m4
   2              		.eabi_attribute 27, 1
   3              		.eabi_attribute 28, 1
   4              		.eabi_attribute 20, 1
   5              		.eabi_attribute 21, 1
   6              		.eabi_attribute 23, 3
   7              		.eabi_attribute 24, 1
   8              		.eabi_attribute 25, 1
   9              		.eabi_attribute 26, 1
  10              		.eabi_attribute 30, 2
  11              		.eabi_attribute 34, 1
  12              		.eabi_attribute 18, 4
  13              		.file	"symrepr.c"
  14              		.text
  15              	.Ltext0:
  16              		.cfi_sections	.debug_frame
  17              		.section	.text.lbm_symrepr_init,"ax",%progbits
  18              		.align	1
  19              		.p2align 4,,15
  20              		.global	lbm_symrepr_init
  21              		.syntax unified
  22              		.thumb
  23              		.thumb_func
  24              		.fpu fpv4-sp-d16
  25              		.type	lbm_symrepr_init, %function
  26              	lbm_symrepr_init:
  27              	.LFB4:
  28              		.file 1 "lispBM/lispBM/src/symrepr.c"
  29              		.loc 1 161 0
  30              		.cfi_startproc
  31              		@ args = 0, pretend = 0, frame = 0
  32              		@ frame_needed = 0, uses_anonymous_args = 0
  33              		@ link register save eliminated.
  34              		.loc 1 162 0
  35 0000 0349     		ldr	r1, .L3
  36              		.loc 1 163 0
  37 0002 044A     		ldr	r2, .L3+4
  38              		.loc 1 162 0
  39 0004 0023     		movs	r3, #0
  40 0006 0B60     		str	r3, [r1]
  41              		.loc 1 163 0
  42 0008 1360     		str	r3, [r2]
  43              		.loc 1 165 0
  44 000a 0120     		movs	r0, #1
  45 000c 7047     		bx	lr
  46              	.L4:
  47 000e 00BF     		.align	2
  48              	.L3:
  49 0010 00000000 		.word	.LANCHOR0
  50 0014 00000000 		.word	.LANCHOR1
  51              		.cfi_endproc
  52              	.LFE4:
  53              		.size	lbm_symrepr_init, .-lbm_symrepr_init
  54              		.section	.text.lookup_symrepr_name_memory,"ax",%progbits
  55              		.align	1
  56              		.p2align 4,,15
  57              		.global	lookup_symrepr_name_memory
ARM GAS  /tmp/cc0JaHPn.s 			page 2


  58              		.syntax unified
  59              		.thumb
  60              		.thumb_func
  61              		.fpu fpv4-sp-d16
  62              		.type	lookup_symrepr_name_memory, %function
  63              	lookup_symrepr_name_memory:
  64              	.LFB5:
  65              		.loc 1 167 0
  66              		.cfi_startproc
  67              		@ args = 0, pretend = 0, frame = 0
  68              		@ frame_needed = 0, uses_anonymous_args = 0
  69              		@ link register save eliminated.
  70              	.LVL0:
  71              		.loc 1 169 0
  72 0000 084B     		ldr	r3, .L12
  73 0002 1B68     		ldr	r3, [r3]
  74              	.LVL1:
  75              		.loc 1 170 0
  76 0004 4BB1     		cbz	r3, .L10
  77              		.loc 1 171 0
  78 0006 5A68     		ldr	r2, [r3, #4]
  79 0008 9042     		cmp	r0, r2
  80 000a 03D1     		bne	.L8
  81 000c 07E0     		b	.L7
  82              	.L9:
  83 000e 5A68     		ldr	r2, [r3, #4]
  84 0010 8242     		cmp	r2, r0
  85 0012 04D0     		beq	.L7
  86              	.L8:
  87              		.loc 1 174 0
  88 0014 9B68     		ldr	r3, [r3, #8]
  89              	.LVL2:
  90              		.loc 1 170 0
  91 0016 002B     		cmp	r3, #0
  92 0018 F9D1     		bne	.L9
  93              	.L10:
  94              		.loc 1 176 0
  95 001a 1846     		mov	r0, r3
  96              	.LVL3:
  97              		.loc 1 177 0
  98 001c 7047     		bx	lr
  99              	.LVL4:
 100              	.L7:
 101              		.loc 1 172 0
 102 001e 1868     		ldr	r0, [r3]
 103              	.LVL5:
 104 0020 7047     		bx	lr
 105              	.L13:
 106 0022 00BF     		.align	2
 107              	.L12:
 108 0024 00000000 		.word	.LANCHOR0
 109              		.cfi_endproc
 110              	.LFE5:
 111              		.size	lookup_symrepr_name_memory, .-lookup_symrepr_name_memory
 112              		.section	.text.lbm_get_name_by_symbol,"ax",%progbits
 113              		.align	1
 114              		.p2align 4,,15
ARM GAS  /tmp/cc0JaHPn.s 			page 3


 115              		.global	lbm_get_name_by_symbol
 116              		.syntax unified
 117              		.thumb
 118              		.thumb_func
 119              		.fpu fpv4-sp-d16
 120              		.type	lbm_get_name_by_symbol, %function
 121              	lbm_get_name_by_symbol:
 122              	.LFB6:
 123              		.loc 1 180 0
 124              		.cfi_startproc
 125              		@ args = 0, pretend = 0, frame = 0
 126              		@ frame_needed = 0, uses_anonymous_args = 0
 127              		@ link register save eliminated.
 128              	.LVL6:
 129              		.loc 1 181 0
 130 0000 B0F5805F 		cmp	r0, #4096
 131 0004 0ED3     		bcc	.L40
 132              	.LVL7:
 133              	.LBB5:
 134              	.LBB6:
 135              		.loc 1 169 0
 136 0006 1C4B     		ldr	r3, .L41
 137 0008 1B68     		ldr	r3, [r3]
 138              	.LVL8:
 139              		.loc 1 170 0
 140 000a 4BB1     		cbz	r3, .L31
 141              		.loc 1 171 0
 142 000c 5A68     		ldr	r2, [r3, #4]
 143 000e 8242     		cmp	r2, r0
 144 0010 03D1     		bne	.L33
 145 0012 2BE0     		b	.L34
 146              	.L36:
 147 0014 5A68     		ldr	r2, [r3, #4]
 148 0016 9042     		cmp	r0, r2
 149 0018 28D0     		beq	.L34
 150              	.L33:
 151              		.loc 1 174 0
 152 001a 9B68     		ldr	r3, [r3, #8]
 153              	.LVL9:
 154              		.loc 1 170 0
 155 001c 002B     		cmp	r3, #0
 156 001e F9D1     		bne	.L36
 157              	.L31:
 158              		.loc 1 176 0
 159 0020 1846     		mov	r0, r3
 160              	.LVL10:
 161              	.LBE6:
 162              	.LBE5:
 163              		.loc 1 189 0
 164 0022 7047     		bx	lr
 165              	.LVL11:
 166              	.L40:
 167              		.loc 1 180 0
 168 0024 10B4     		push	{r4}
 169              		.cfi_def_cfa_offset 4
 170              		.cfi_offset 4, -4
 171 0026 154C     		ldr	r4, .L41+4
ARM GAS  /tmp/cc0JaHPn.s 			page 4


 172              		.loc 1 181 0
 173 0028 0021     		movs	r1, #0
 174 002a 2346     		mov	r3, r4
 175              	.LBB9:
 176              		.loc 1 182 0
 177 002c 0A46     		mov	r2, r1
 178 002e 03E0     		b	.L18
 179              	.LVL12:
 180              	.L16:
 181              		.loc 1 182 0 is_stmt 0 discriminator 2
 182 0030 0132     		adds	r2, r2, #1
 183              	.LVL13:
 184 0032 5E2A     		cmp	r2, #94
 185 0034 09D0     		beq	.L15
 186 0036 5968     		ldr	r1, [r3, #4]
 187              	.LVL14:
 188              	.L18:
 189              		.loc 1 183 0 is_stmt 1
 190 0038 8842     		cmp	r0, r1
 191 003a 03F10803 		add	r3, r3, #8
 192 003e F7D1     		bne	.L16
 193              		.loc 1 184 0
 194 0040 54F83200 		ldr	r0, [r4, r2, lsl #3]
 195              	.LVL15:
 196              	.LBE9:
 197              		.loc 1 189 0
 198 0044 5DF8044B 		ldr	r4, [sp], #4
 199              		.cfi_remember_state
 200              		.cfi_restore 4
 201              		.cfi_def_cfa_offset 0
 202 0048 7047     		bx	lr
 203              	.LVL16:
 204              	.L15:
 205              		.cfi_restore_state
 206              	.LBB10:
 207              	.LBB7:
 208              		.loc 1 169 0
 209 004a 0B4B     		ldr	r3, .L41
 210 004c 1B68     		ldr	r3, [r3]
 211              	.LVL17:
 212              		.loc 1 170 0
 213 004e 4BB1     		cbz	r3, .L22
 214              		.loc 1 171 0
 215 0050 5A68     		ldr	r2, [r3, #4]
 216              	.LVL18:
 217 0052 8242     		cmp	r2, r0
 218 0054 03D1     		bne	.L20
 219 0056 0BE0     		b	.L19
 220              	.L21:
 221 0058 5A68     		ldr	r2, [r3, #4]
 222 005a 9042     		cmp	r0, r2
 223 005c 08D0     		beq	.L19
 224              	.L20:
 225              		.loc 1 174 0
 226 005e 9B68     		ldr	r3, [r3, #8]
 227              	.LVL19:
 228              		.loc 1 170 0
ARM GAS  /tmp/cc0JaHPn.s 			page 5


 229 0060 002B     		cmp	r3, #0
 230 0062 F9D1     		bne	.L21
 231              	.L22:
 232              		.loc 1 176 0
 233 0064 1846     		mov	r0, r3
 234              	.LVL20:
 235              	.LBE7:
 236              	.LBE10:
 237              		.loc 1 189 0
 238 0066 5DF8044B 		ldr	r4, [sp], #4
 239              		.cfi_restore 4
 240              		.cfi_def_cfa_offset 0
 241 006a 7047     		bx	lr
 242              	.LVL21:
 243              	.L34:
 244              	.LBB11:
 245              	.LBB8:
 246              		.loc 1 172 0
 247 006c 1868     		ldr	r0, [r3]
 248              	.LVL22:
 249 006e 7047     		bx	lr
 250              	.LVL23:
 251              	.L19:
 252              		.cfi_def_cfa_offset 4
 253              		.cfi_offset 4, -4
 254 0070 1868     		ldr	r0, [r3]
 255              	.LVL24:
 256              	.LBE8:
 257              	.LBE11:
 258              		.loc 1 189 0
 259 0072 5DF8044B 		ldr	r4, [sp], #4
 260              		.cfi_restore 4
 261              		.cfi_def_cfa_offset 0
 262 0076 7047     		bx	lr
 263              	.L42:
 264              		.align	2
 265              	.L41:
 266 0078 00000000 		.word	.LANCHOR0
 267 007c 00000000 		.word	.LANCHOR2
 268              		.cfi_endproc
 269              	.LFE6:
 270              		.size	lbm_get_name_by_symbol, .-lbm_get_name_by_symbol
 271              		.section	.text.lbm_get_symbol_by_name,"ax",%progbits
 272              		.align	1
 273              		.p2align 4,,15
 274              		.global	lbm_get_symbol_by_name
 275              		.syntax unified
 276              		.thumb
 277              		.thumb_func
 278              		.fpu fpv4-sp-d16
 279              		.type	lbm_get_symbol_by_name, %function
 280              	lbm_get_symbol_by_name:
 281              	.LFB7:
 282              		.loc 1 192 0
 283              		.cfi_startproc
 284              		@ args = 0, pretend = 0, frame = 0
 285              		@ frame_needed = 0, uses_anonymous_args = 0
ARM GAS  /tmp/cc0JaHPn.s 			page 6


 286              	.LVL25:
 287 0000 F8B5     		push	{r3, r4, r5, r6, r7, lr}
 288              		.cfi_def_cfa_offset 24
 289              		.cfi_offset 3, -24
 290              		.cfi_offset 4, -20
 291              		.cfi_offset 5, -16
 292              		.cfi_offset 6, -12
 293              		.cfi_offset 7, -8
 294              		.cfi_offset 14, -4
 295              		.loc 1 192 0
 296 0002 154B     		ldr	r3, .L53
 297 0004 154E     		ldr	r6, .L53+4
 298 0006 0546     		mov	r5, r0
 299 0008 0F46     		mov	r7, r1
 300              	.LBB12:
 301              		.loc 1 195 0
 302 000a 0024     		movs	r4, #0
 303 000c 04E0     		b	.L47
 304              	.LVL26:
 305              	.L44:
 306              		.loc 1 195 0 is_stmt 0 discriminator 2
 307 000e 0134     		adds	r4, r4, #1
 308              	.LVL27:
 309 0010 5E2C     		cmp	r4, #94
 310 0012 0ED0     		beq	.L46
 311 0014 56F83430 		ldr	r3, [r6, r4, lsl #3]
 312              	.LVL28:
 313              	.L47:
 314              		.loc 1 196 0 is_stmt 1
 315 0018 1946     		mov	r1, r3
 316 001a 2846     		mov	r0, r5
 317 001c FFF7FEFF 		bl	strcmp
 318              	.LVL29:
 319 0020 0028     		cmp	r0, #0
 320 0022 F4D1     		bne	.L44
 321              		.loc 1 197 0
 322 0024 0D4B     		ldr	r3, .L53+4
 323 0026 03EBC404 		add	r4, r3, r4, lsl #3
 324              	.LVL30:
 325              		.loc 1 198 0
 326 002a 0120     		movs	r0, #1
 327              		.loc 1 197 0
 328 002c 6368     		ldr	r3, [r4, #4]
 329 002e 3B60     		str	r3, [r7]
 330              	.LBE12:
 331              		.loc 1 212 0
 332 0030 F8BD     		pop	{r3, r4, r5, r6, r7, pc}
 333              	.LVL31:
 334              	.L46:
 335              		.loc 1 202 0
 336 0032 0B4B     		ldr	r3, .L53+8
 337 0034 1C68     		ldr	r4, [r3]
 338              	.LVL32:
 339              		.loc 1 203 0
 340 0036 14B9     		cbnz	r4, .L49
 341 0038 0BE0     		b	.L50
 342              	.LVL33:
ARM GAS  /tmp/cc0JaHPn.s 			page 7


 343              	.L48:
 344              	.LBB13:
 345              		.loc 1 209 0
 346 003a A468     		ldr	r4, [r4, #8]
 347              	.LVL34:
 348              	.LBE13:
 349              		.loc 1 203 0
 350 003c 4CB1     		cbz	r4, .L50
 351              	.L49:
 352              	.LVL35:
 353              	.LBB14:
 354              		.loc 1 205 0
 355 003e 2168     		ldr	r1, [r4]
 356 0040 2846     		mov	r0, r5
 357 0042 FFF7FEFF 		bl	strcmp
 358              	.LVL36:
 359 0046 0028     		cmp	r0, #0
 360 0048 F7D1     		bne	.L48
 361              		.loc 1 206 0
 362 004a 6368     		ldr	r3, [r4, #4]
 363 004c 3B60     		str	r3, [r7]
 364              		.loc 1 207 0
 365 004e 0120     		movs	r0, #1
 366              	.LBE14:
 367              		.loc 1 212 0
 368 0050 F8BD     		pop	{r3, r4, r5, r6, r7, pc}
 369              	.LVL37:
 370              	.L50:
 371              		.loc 1 211 0
 372 0052 2046     		mov	r0, r4
 373              		.loc 1 212 0
 374 0054 F8BD     		pop	{r3, r4, r5, r6, r7, pc}
 375              	.LVL38:
 376              	.L54:
 377 0056 00BF     		.align	2
 378              	.L53:
 379 0058 00000000 		.word	.LC0
 380 005c 00000000 		.word	.LANCHOR2
 381 0060 00000000 		.word	.LANCHOR0
 382              		.cfi_endproc
 383              	.LFE7:
 384              		.size	lbm_get_symbol_by_name, .-lbm_get_symbol_by_name
 385              		.section	.text.lbm_add_symbol,"ax",%progbits
 386              		.align	1
 387              		.p2align 4,,15
 388              		.global	lbm_add_symbol
 389              		.syntax unified
 390              		.thumb
 391              		.thumb_func
 392              		.fpu fpv4-sp-d16
 393              		.type	lbm_add_symbol, %function
 394              	lbm_add_symbol:
 395              	.LFB8:
 396              		.loc 1 214 0
 397              		.cfi_startproc
 398              		@ args = 0, pretend = 0, frame = 0
 399              		@ frame_needed = 0, uses_anonymous_args = 0
ARM GAS  /tmp/cc0JaHPn.s 			page 8


 400              	.LVL39:
 401 0000 F8B5     		push	{r3, r4, r5, r6, r7, lr}
 402              		.cfi_def_cfa_offset 24
 403              		.cfi_offset 3, -24
 404              		.cfi_offset 4, -20
 405              		.cfi_offset 5, -16
 406              		.cfi_offset 6, -12
 407              		.cfi_offset 7, -8
 408              		.cfi_offset 14, -4
 409              		.loc 1 214 0
 410 0002 0E46     		mov	r6, r1
 411 0004 0746     		mov	r7, r0
 412              		.loc 1 217 0
 413 0006 FFF7FEFF 		bl	strlen
 414              	.LVL40:
 415              		.loc 1 218 0
 416 000a F8B1     		cbz	r0, .L58
 417 000c 441C     		adds	r4, r0, #1
 418              	.LVL41:
 419              		.loc 1 220 0
 420 000e 0320     		movs	r0, #3
 421 0010 FFF7FEFF 		bl	lbm_memory_allocate
 422              	.LVL42:
 423              		.loc 1 222 0
 424 0014 0546     		mov	r5, r0
 425 0016 C8B1     		cbz	r0, .L58
 426              	.LVL43:
 427 0018 A008     		lsrs	r0, r4, #2
 428              	.LVL44:
 429              		.loc 1 227 0
 430 001a A307     		lsls	r3, r4, #30
 431              		.loc 1 230 0
 432 001c 18BF     		it	ne
 433 001e 0130     		addne	r0, r0, #1
 434 0020 FFF7FEFF 		bl	lbm_memory_allocate
 435              	.LVL45:
 436 0024 0446     		mov	r4, r0
 437              	.LVL46:
 438              		.loc 1 233 0
 439 0026 98B1     		cbz	r0, .L69
 440              		.loc 1 238 0
 441 0028 3946     		mov	r1, r7
 442 002a FFF7FEFF 		bl	strcpy
 443              	.LVL47:
 444              		.loc 1 242 0
 445 002e 0B4B     		ldr	r3, .L70
 446              		.loc 1 240 0
 447 0030 2C60     		str	r4, [r5]
 448              		.loc 1 242 0
 449 0032 1A68     		ldr	r2, [r3]
 450              		.loc 1 243 0
 451 0034 AA60     		str	r2, [r5, #8]
 452              		.loc 1 249 0
 453 0036 0A4A     		ldr	r2, .L70+4
 454              		.loc 1 244 0
 455 0038 1D60     		str	r5, [r3]
 456              		.loc 1 249 0
ARM GAS  /tmp/cc0JaHPn.s 			page 9


 457 003a 1368     		ldr	r3, [r2]
 458 003c 591C     		adds	r1, r3, #1
 459 003e 03F58053 		add	r3, r3, #4096
 460 0042 6B60     		str	r3, [r5, #4]
 461 0044 1160     		str	r1, [r2]
 462              		.loc 1 251 0
 463 0046 0120     		movs	r0, #1
 464              		.loc 1 250 0
 465 0048 3360     		str	r3, [r6]
 466              		.loc 1 252 0
 467 004a F8BD     		pop	{r3, r4, r5, r6, r7, pc}
 468              	.LVL48:
 469              	.L58:
 470              		.loc 1 218 0
 471 004c 0020     		movs	r0, #0
 472              		.loc 1 252 0
 473 004e F8BD     		pop	{r3, r4, r5, r6, r7, pc}
 474              	.LVL49:
 475              	.L69:
 476              		.loc 1 234 0
 477 0050 2846     		mov	r0, r5
 478              	.LVL50:
 479 0052 FFF7FEFF 		bl	lbm_memory_free
 480              	.LVL51:
 481              		.loc 1 235 0
 482 0056 2046     		mov	r0, r4
 483              		.loc 1 252 0
 484 0058 F8BD     		pop	{r3, r4, r5, r6, r7, pc}
 485              	.LVL52:
 486              	.L71:
 487 005a 00BF     		.align	2
 488              	.L70:
 489 005c 00000000 		.word	.LANCHOR0
 490 0060 00000000 		.word	.LANCHOR1
 491              		.cfi_endproc
 492              	.LFE8:
 493              		.size	lbm_add_symbol, .-lbm_add_symbol
 494              		.section	.text.lbm_add_symbol_const,"ax",%progbits
 495              		.align	1
 496              		.p2align 4,,15
 497              		.global	lbm_add_symbol_const
 498              		.syntax unified
 499              		.thumb
 500              		.thumb_func
 501              		.fpu fpv4-sp-d16
 502              		.type	lbm_add_symbol_const, %function
 503              	lbm_add_symbol_const:
 504              	.LFB9:
 505              		.loc 1 254 0
 506              		.cfi_startproc
 507              		@ args = 0, pretend = 0, frame = 0
 508              		@ frame_needed = 0, uses_anonymous_args = 0
 509              	.LVL53:
 510 0000 38B5     		push	{r3, r4, r5, lr}
 511              		.cfi_def_cfa_offset 16
 512              		.cfi_offset 3, -16
 513              		.cfi_offset 4, -12
ARM GAS  /tmp/cc0JaHPn.s 			page 10


 514              		.cfi_offset 5, -8
 515              		.cfi_offset 14, -4
 516              		.loc 1 255 0
 517 0002 0378     		ldrb	r3, [r0]	@ zero_extendqisi2
 518 0004 0BB9     		cbnz	r3, .L73
 519              	.LVL54:
 520              	.L75:
 521 0006 0020     		movs	r0, #0
 522              		.loc 1 275 0
 523 0008 38BD     		pop	{r3, r4, r5, pc}
 524              	.LVL55:
 525              	.L73:
 526 000a 0446     		mov	r4, r0
 527              		.loc 1 257 0
 528 000c 0320     		movs	r0, #3
 529              	.LVL56:
 530 000e 0D46     		mov	r5, r1
 531 0010 FFF7FEFF 		bl	lbm_memory_allocate
 532              	.LVL57:
 533              		.loc 1 259 0
 534 0014 0028     		cmp	r0, #0
 535 0016 F6D0     		beq	.L75
 536              		.loc 1 265 0
 537 0018 074B     		ldr	r3, .L82
 538              		.loc 1 263 0
 539 001a 0460     		str	r4, [r0]
 540              		.loc 1 265 0
 541 001c 1A68     		ldr	r2, [r3]
 542              		.loc 1 266 0
 543 001e 8260     		str	r2, [r0, #8]
 544              		.loc 1 272 0
 545 0020 064A     		ldr	r2, .L82+4
 546              		.loc 1 267 0
 547 0022 1860     		str	r0, [r3]
 548              		.loc 1 272 0
 549 0024 1368     		ldr	r3, [r2]
 550 0026 591C     		adds	r1, r3, #1
 551 0028 03F58053 		add	r3, r3, #4096
 552 002c 4360     		str	r3, [r0, #4]
 553 002e 1160     		str	r1, [r2]
 554              		.loc 1 274 0
 555 0030 0120     		movs	r0, #1
 556              	.LVL58:
 557              		.loc 1 273 0
 558 0032 2B60     		str	r3, [r5]
 559              		.loc 1 275 0
 560 0034 38BD     		pop	{r3, r4, r5, pc}
 561              	.LVL59:
 562              	.L83:
 563 0036 00BF     		.align	2
 564              	.L82:
 565 0038 00000000 		.word	.LANCHOR0
 566 003c 00000000 		.word	.LANCHOR1
 567              		.cfi_endproc
 568              	.LFE9:
 569              		.size	lbm_add_symbol_const, .-lbm_add_symbol_const
 570              		.section	.text.lbm_get_symbol_table_size,"ax",%progbits
ARM GAS  /tmp/cc0JaHPn.s 			page 11


 571              		.align	1
 572              		.p2align 4,,15
 573              		.global	lbm_get_symbol_table_size
 574              		.syntax unified
 575              		.thumb
 576              		.thumb_func
 577              		.fpu fpv4-sp-d16
 578              		.type	lbm_get_symbol_table_size, %function
 579              	lbm_get_symbol_table_size:
 580              	.LFB10:
 581              		.loc 1 277 0
 582              		.cfi_startproc
 583              		@ args = 0, pretend = 0, frame = 0
 584              		@ frame_needed = 0, uses_anonymous_args = 0
 585              	.LVL60:
 586 0000 38B5     		push	{r3, r4, r5, lr}
 587              		.cfi_def_cfa_offset 16
 588              		.cfi_offset 3, -16
 589              		.cfi_offset 4, -12
 590              		.cfi_offset 5, -8
 591              		.cfi_offset 14, -4
 592              		.loc 1 280 0
 593 0002 0A4B     		ldr	r3, .L90
 594 0004 1C68     		ldr	r4, [r3]
 595              	.LVL61:
 596              		.loc 1 282 0
 597 0006 6CB1     		cbz	r4, .L87
 598              		.loc 1 279 0
 599 0008 0025     		movs	r5, #0
 600              	.LVL62:
 601              	.L86:
 602              	.LBB15:
 603              		.loc 1 284 0
 604 000a 2068     		ldr	r0, [r4]
 605 000c FFF7FEFF 		bl	strlen
 606              	.LVL63:
 607              		.loc 1 285 0
 608 0010 0130     		adds	r0, r0, #1
 609              	.LVL64:
 610              		.loc 1 286 0
 611 0012 00F00300 		and	r0, r0, #3
 612              	.LVL65:
 613              		.loc 1 288 0
 614 0016 A468     		ldr	r4, [r4, #8]
 615              	.LVL66:
 616              		.loc 1 287 0
 617 0018 0C30     		adds	r0, r0, #12
 618              	.LVL67:
 619 001a 0544     		add	r5, r5, r0
 620              	.LVL68:
 621              	.LBE15:
 622              		.loc 1 282 0
 623 001c 002C     		cmp	r4, #0
 624 001e F4D1     		bne	.L86
 625              		.loc 1 291 0
 626 0020 2846     		mov	r0, r5
 627 0022 38BD     		pop	{r3, r4, r5, pc}
ARM GAS  /tmp/cc0JaHPn.s 			page 12


 628              	.LVL69:
 629              	.L87:
 630              		.loc 1 279 0
 631 0024 2546     		mov	r5, r4
 632              		.loc 1 291 0
 633 0026 2846     		mov	r0, r5
 634 0028 38BD     		pop	{r3, r4, r5, pc}
 635              	.LVL70:
 636              	.L91:
 637 002a 00BF     		.align	2
 638              	.L90:
 639 002c 00000000 		.word	.LANCHOR0
 640              		.cfi_endproc
 641              	.LFE10:
 642              		.size	lbm_get_symbol_table_size, .-lbm_get_symbol_table_size
 643              		.global	special_symbols
 644              		.section	.bss.next_symbol_id,"aw",%nobits
 645              		.align	2
 646              		.set	.LANCHOR1,. + 0
 647              		.type	next_symbol_id, %object
 648              		.size	next_symbol_id, 4
 649              	next_symbol_id:
 650 0000 00000000 		.space	4
 651              		.section	.bss.symlist,"aw",%nobits
 652              		.align	2
 653              		.set	.LANCHOR0,. + 0
 654              		.type	symlist, %object
 655              		.size	symlist, 4
 656              	symlist:
 657 0000 00000000 		.space	4
 658              		.section	.rodata.lbm_get_symbol_by_name.str1.4,"aMS",%progbits,1
 659              		.align	2
 660              	.LC0:
 661 0000 6E696C00 		.ascii	"nil\000"
 662              		.section	.rodata.special_symbols,"a",%progbits
 663              		.align	2
 664              		.set	.LANCHOR2,. + 0
 665              		.type	special_symbols, %object
 666              		.size	special_symbols, 752
 667              	special_symbols:
 668 0000 00000000 		.word	.LC0
 669 0004 00000000 		.word	0
 670 0008 00000000 		.word	.LC1
 671 000c 01000000 		.word	1
 672 0010 08000000 		.word	.LC2
 673 0014 02000000 		.word	2
 674 0018 0C000000 		.word	.LC3
 675 001c 03000000 		.word	3
 676 0020 10000000 		.word	.LC4
 677 0024 04000000 		.word	4
 678 0028 18000000 		.word	.LC5
 679 002c 05000000 		.word	5
 680 0030 20000000 		.word	.LC6
 681 0034 06000000 		.word	6
 682 0038 24000000 		.word	.LC7
 683 003c 0E000000 		.word	14
 684 0040 2C000000 		.word	.LC8
ARM GAS  /tmp/cc0JaHPn.s 			page 13


 685 0044 0F000000 		.word	15
 686 0048 34000000 		.word	.LC9
 687 004c 10000000 		.word	16
 688 0050 3C000000 		.word	.LC10
 689 0054 11000000 		.word	17
 690 0058 4C000000 		.word	.LC11
 691 005c 13000000 		.word	19
 692 0060 54000000 		.word	.LC12
 693 0064 12000000 		.word	18
 694 0068 58000000 		.word	.LC13
 695 006c 14000000 		.word	20
 696 0070 60000000 		.word	.LC14
 697 0074 15000000 		.word	21
 698 0078 68000000 		.word	.LC15
 699 007c 2B000000 		.word	43
 700 0080 6C000000 		.word	.LC16
 701 0084 2C000000 		.word	44
 702 0088 74000000 		.word	.LC17
 703 008c 2D000000 		.word	45
 704 0090 7C000000 		.word	.LC18
 705 0094 2E000000 		.word	46
 706 0098 84000000 		.word	.LC19
 707 009c 2F000000 		.word	47
 708 00a0 8C000000 		.word	.LC20
 709 00a4 30000000 		.word	48
 710 00a8 94000000 		.word	.LC21
 711 00ac 31000000 		.word	49
 712 00b0 9C000000 		.word	.LC22
 713 00b4 2A000000 		.word	42
 714 00b8 A8000000 		.word	.LC23
 715 00bc 07000000 		.word	7
 716 00c0 B4000000 		.word	.LC24
 717 00c4 08000000 		.word	8
 718 00c8 C0000000 		.word	.LC25
 719 00cc 09000000 		.word	9
 720 00d0 CC000000 		.word	.LC26
 721 00d4 0A000000 		.word	10
 722 00d8 DC000000 		.word	.LC27
 723 00dc 0C000000 		.word	12
 724 00e0 E8000000 		.word	.LC28
 725 00e4 0D000000 		.word	13
 726 00e8 F8000000 		.word	.LC29
 727 00ec 0B000000 		.word	11
 728 00f0 0C010000 		.word	.LC30
 729 00f4 20000000 		.word	32
 730 00f8 18010000 		.word	.LC31
 731 00fc 21000000 		.word	33
 732 0100 24010000 		.word	.LC32
 733 0104 22000000 		.word	34
 734 0108 30010000 		.word	.LC33
 735 010c 23000000 		.word	35
 736 0110 3C010000 		.word	.LC34
 737 0114 24000000 		.word	36
 738 0118 44010000 		.word	.LC35
 739 011c 26000000 		.word	38
 740 0120 54010000 		.word	.LC36
 741 0124 27000000 		.word	39
ARM GAS  /tmp/cc0JaHPn.s 			page 14


 742 0128 64010000 		.word	.LC37
 743 012c 28000000 		.word	40
 744 0130 74010000 		.word	.LC38
 745 0134 29000000 		.word	41
 746 0138 88010000 		.word	.LC39
 747 013c 70000000 		.word	112
 748 0140 94010000 		.word	.LC40
 749 0144 71000000 		.word	113
 750 0148 A4010000 		.word	.LC41
 751 014c 72000000 		.word	114
 752 0150 B4010000 		.word	.LC42
 753 0154 73000000 		.word	115
 754 0158 C0010000 		.word	.LC43
 755 015c 74000000 		.word	116
 756 0160 CC010000 		.word	.LC44
 757 0164 76000000 		.word	118
 758 0168 D4010000 		.word	.LC45
 759 016c 75000000 		.word	117
 760 0170 E4010000 		.word	.LC46
 761 0174 50000000 		.word	80
 762 0178 F0010000 		.word	.LC47
 763 017c 51000000 		.word	81
 764 0180 FC010000 		.word	.LC48
 765 0184 52000000 		.word	82
 766 0188 08020000 		.word	.LC49
 767 018c 53000000 		.word	83
 768 0190 14020000 		.word	.LC50
 769 0194 54000000 		.word	84
 770 0198 20020000 		.word	.LC51
 771 019c 55000000 		.word	85
 772 01a0 2C020000 		.word	.LC52
 773 01a4 56000000 		.word	86
 774 01a8 38020000 		.word	.LC53
 775 01ac 57000000 		.word	87
 776 01b0 44020000 		.word	.LC54
 777 01b4 58000000 		.word	88
 778 01b8 50020000 		.word	.LC55
 779 01bc 59000000 		.word	89
 780 01c0 5C020000 		.word	.LC56
 781 01c4 5A000000 		.word	90
 782 01c8 68020000 		.word	.LC57
 783 01cc 00010000 		.word	256
 784 01d0 6C020000 		.word	.LC58
 785 01d4 01010000 		.word	257
 786 01d8 70020000 		.word	.LC59
 787 01dc 02010000 		.word	258
 788 01e0 74020000 		.word	.LC60
 789 01e4 03010000 		.word	259
 790 01e8 78020000 		.word	.LC61
 791 01ec 04010000 		.word	260
 792 01f0 7C020000 		.word	.LC62
 793 01f4 05010000 		.word	261
 794 01f8 80020000 		.word	.LC63
 795 01fc 07010000 		.word	263
 796 0200 84020000 		.word	.LC64
 797 0204 08010000 		.word	264
 798 0208 88020000 		.word	.LC65
ARM GAS  /tmp/cc0JaHPn.s 			page 15


 799 020c 09010000 		.word	265
 800 0210 90020000 		.word	.LC66
 801 0214 0A010000 		.word	266
 802 0218 A0020000 		.word	.LC67
 803 021c 10010000 		.word	272
 804 0220 A4020000 		.word	.LC68
 805 0224 11010000 		.word	273
 806 0228 A8020000 		.word	.LC69
 807 022c 12010000 		.word	274
 808 0230 AC020000 		.word	.LC70
 809 0234 13010000 		.word	275
 810 0238 B4020000 		.word	.LC71
 811 023c 14010000 		.word	276
 812 0240 BC020000 		.word	.LC72
 813 0244 15010000 		.word	277
 814 0248 C4020000 		.word	.LC73
 815 024c 06010000 		.word	262
 816 0250 CC020000 		.word	.LC74
 817 0254 21010000 		.word	289
 818 0258 D0020000 		.word	.LC75
 819 025c 22010000 		.word	290
 820 0260 D4020000 		.word	.LC76
 821 0264 20010000 		.word	288
 822 0268 DC020000 		.word	.LC77
 823 026c 23010000 		.word	291
 824 0270 E4020000 		.word	.LC78
 825 0274 24010000 		.word	292
 826 0278 EC020000 		.word	.LC79
 827 027c 30010000 		.word	304
 828 0280 F8020000 		.word	.LC80
 829 0284 31010000 		.word	305
 830 0288 04030000 		.word	.LC81
 831 028c 00020000 		.word	512
 832 0290 0C030000 		.word	.LC82
 833 0294 40010000 		.word	320
 834 0298 18030000 		.word	.LC83
 835 029c 41010000 		.word	321
 836 02a0 24030000 		.word	.LC84
 837 02a4 42010000 		.word	322
 838 02a8 30030000 		.word	.LC85
 839 02ac 43010000 		.word	323
 840 02b0 3C030000 		.word	.LC86
 841 02b4 45010000 		.word	325
 842 02b8 44030000 		.word	.LC87
 843 02bc 46010000 		.word	326
 844 02c0 4C030000 		.word	.LC88
 845 02c4 51010000 		.word	337
 846 02c8 50030000 		.word	.LC89
 847 02cc 52010000 		.word	338
 848 02d0 5C030000 		.word	.LC90
 849 02d4 53010000 		.word	339
 850 02d8 68030000 		.word	.LC91
 851 02dc 54010000 		.word	340
 852 02e0 78030000 		.word	.LC92
 853 02e4 55010000 		.word	341
 854 02e8 80030000 		.word	.LC93
 855 02ec 50010000 		.word	336
ARM GAS  /tmp/cc0JaHPn.s 			page 16


 856              		.section	.rodata.str1.4,"aMS",%progbits,1
 857              		.align	2
 858              	.LC1:
 859 0000 71756F74 		.ascii	"quote\000"
 859      6500
 860 0006 0000     		.space	2
 861              	.LC2:
 862 0008 7400     		.ascii	"t\000"
 863 000a 0000     		.space	2
 864              	.LC3:
 865 000c 696600   		.ascii	"if\000"
 866 000f 00       		.space	1
 867              	.LC4:
 868 0010 6C616D62 		.ascii	"lambda\000"
 868      646100
 869 0017 00       		.space	1
 870              	.LC5:
 871 0018 636C6F73 		.ascii	"closure\000"
 871      75726500 
 872              	.LC6:
 873 0020 6C657400 		.ascii	"let\000"
 874              	.LC7:
 875 0024 64656669 		.ascii	"define\000"
 875      6E6500
 876 002b 00       		.space	1
 877              	.LC8:
 878 002c 70726F67 		.ascii	"progn\000"
 878      6E00
 879 0032 0000     		.space	2
 880              	.LC9:
 881 0034 72656164 		.ascii	"read\000"
 881      00
 882 0039 000000   		.space	3
 883              	.LC10:
 884 003c 72656164 		.ascii	"read-program\000"
 884      2D70726F 
 884      6772616D 
 884      00
 885 0049 000000   		.space	3
 886              	.LC11:
 887 004c 6D617463 		.ascii	"match\000"
 887      6800
 888 0052 0000     		.space	2
 889              	.LC12:
 890 0054 5F00     		.ascii	"_\000"
 891 0056 0000     		.space	2
 892              	.LC13:
 893 0058 73656E64 		.ascii	"send\000"
 893      00
 894 005d 000000   		.space	3
 895              	.LC14:
 896 0060 72656376 		.ascii	"recv\000"
 896      00
 897 0065 000000   		.space	3
 898              	.LC15:
 899 0068 3F00     		.ascii	"?\000"
 900 006a 0000     		.space	2
ARM GAS  /tmp/cc0JaHPn.s 			page 17


 901              	.LC16:
 902 006c 3F693238 		.ascii	"?i28\000"
 902      00
 903 0071 000000   		.space	3
 904              	.LC17:
 905 0074 3F753238 		.ascii	"?u28\000"
 905      00
 906 0079 000000   		.space	3
 907              	.LC18:
 908 007c 3F753332 		.ascii	"?u32\000"
 908      00
 909 0081 000000   		.space	3
 910              	.LC19:
 911 0084 3F693332 		.ascii	"?i32\000"
 911      00
 912 0089 000000   		.space	3
 913              	.LC20:
 914 008c 3F666C6F 		.ascii	"?float\000"
 914      617400
 915 0093 00       		.space	1
 916              	.LC21:
 917 0094 3F636F6E 		.ascii	"?cons\000"
 917      7300
 918 009a 0000     		.space	2
 919              	.LC22:
 920 009c 6E6F5F6D 		.ascii	"no_match\000"
 920      61746368 
 920      00
 921 00a5 000000   		.space	3
 922              	.LC23:
 923 00a8 72656164 		.ascii	"read_error\000"
 923      5F657272 
 923      6F7200
 924 00b3 00       		.space	1
 925              	.LC24:
 926 00b4 74797065 		.ascii	"type_error\000"
 926      5F657272 
 926      6F7200
 927 00bf 00       		.space	1
 928              	.LC25:
 929 00c0 6576616C 		.ascii	"eval_error\000"
 929      5F657272 
 929      6F7200
 930 00cb 00       		.space	1
 931              	.LC26:
 932 00cc 6F75745F 		.ascii	"out_of_memory\000"
 932      6F665F6D 
 932      656D6F72 
 932      7900
 933 00da 0000     		.space	2
 934              	.LC27:
 935 00dc 66617461 		.ascii	"fatal_error\000"
 935      6C5F6572 
 935      726F7200 
 936              	.LC28:
 937 00e8 6F75745F 		.ascii	"out_of_stack\000"
 937      6F665F73 
ARM GAS  /tmp/cc0JaHPn.s 			page 18


 937      7461636B 
 937      00
 938 00f5 000000   		.space	3
 939              	.LC29:
 940 00f8 64697669 		.ascii	"division_by_zero\000"
 940      73696F6E 
 940      5F62795F 
 940      7A65726F 
 940      00
 941 0109 000000   		.space	3
 942              	.LC30:
 943 010c 73796D5F 		.ascii	"sym_array\000"
 943      61727261 
 943      7900
 944 0116 0000     		.space	2
 945              	.LC31:
 946 0118 73796D5F 		.ascii	"sym_boxed_i\000"
 946      626F7865 
 946      645F6900 
 947              	.LC32:
 948 0124 73796D5F 		.ascii	"sym_boxed_u\000"
 948      626F7865 
 948      645F7500 
 949              	.LC33:
 950 0130 73796D5F 		.ascii	"sym_boxed_f\000"
 950      626F7865 
 950      645F6600 
 951              	.LC34:
 952 013c 73796D5F 		.ascii	"sym_ref\000"
 952      72656600 
 953              	.LC35:
 954 0144 73796D5F 		.ascii	"sym_recovered\000"
 954      7265636F 
 954      76657265 
 954      6400
 955 0152 0000     		.space	2
 956              	.LC36:
 957 0154 73796D5F 		.ascii	"sym_bytecode\000"
 957      62797465 
 957      636F6465 
 957      00
 958 0161 000000   		.space	3
 959              	.LC37:
 960 0164 73796D5F 		.ascii	"sym_nonsense\000"
 960      6E6F6E73 
 960      656E7365 
 960      00
 961 0171 000000   		.space	3
 962              	.LC38:
 963 0174 76617269 		.ascii	"variable_not_bound\000"
 963      61626C65 
 963      5F6E6F74 
 963      5F626F75 
 963      6E6400
 964 0187 00       		.space	1
 965              	.LC39:
 966 0188 73796D5F 		.ascii	"sym_openpar\000"
ARM GAS  /tmp/cc0JaHPn.s 			page 19


 966      6F70656E 
 966      70617200 
 967              	.LC40:
 968 0194 73796D5F 		.ascii	"sym_closepar\000"
 968      636C6F73 
 968      65706172 
 968      00
 969 01a1 000000   		.space	3
 970              	.LC41:
 971 01a4 73796D5F 		.ascii	"sym_backquote\000"
 971      6261636B 
 971      71756F74 
 971      6500
 972 01b2 0000     		.space	2
 973              	.LC42:
 974 01b4 73796D5F 		.ascii	"sym_comma\000"
 974      636F6D6D 
 974      6100
 975 01be 0000     		.space	2
 976              	.LC43:
 977 01c0 73796D5F 		.ascii	"sym_commaat\000"
 977      636F6D6D 
 977      61617400 
 978              	.LC44:
 979 01cc 73796D5F 		.ascii	"sym_dot\000"
 979      646F7400 
 980              	.LC45:
 981 01d4 73796D5F 		.ascii	"sym_tok_done\000"
 981      746F6B5F 
 981      646F6E65 
 981      00
 982 01e1 000000   		.space	3
 983              	.LC46:
 984 01e4 74797065 		.ascii	"type-list\000"
 984      2D6C6973 
 984      7400
 985 01ee 0000     		.space	2
 986              	.LC47:
 987 01f0 74797065 		.ascii	"type-i28\000"
 987      2D693238 
 987      00
 988 01f9 000000   		.space	3
 989              	.LC48:
 990 01fc 74797065 		.ascii	"type-u28\000"
 990      2D753238 
 990      00
 991 0205 000000   		.space	3
 992              	.LC49:
 993 0208 74797065 		.ascii	"type-float\000"
 993      2D666C6F 
 993      617400
 994 0213 00       		.space	1
 995              	.LC50:
 996 0214 74797065 		.ascii	"type-i32\000"
 996      2D693332 
 996      00
 997 021d 000000   		.space	3
ARM GAS  /tmp/cc0JaHPn.s 			page 20


 998              	.LC51:
 999 0220 74797065 		.ascii	"type-u32\000"
 999      2D753332 
 999      00
 1000 0229 000000   		.space	3
 1001              	.LC52:
 1002 022c 74797065 		.ascii	"type-array\000"
 1002      2D617272 
 1002      617900
 1003 0237 00       		.space	1
 1004              	.LC53:
 1005 0238 74797065 		.ascii	"type-symbol\000"
 1005      2D73796D 
 1005      626F6C00 
 1006              	.LC54:
 1007 0244 74797065 		.ascii	"type-char\000"
 1007      2D636861 
 1007      7200
 1008 024e 0000     		.space	2
 1009              	.LC55:
 1010 0250 74797065 		.ascii	"type-ref\000"
 1010      2D726566 
 1010      00
 1011 0259 000000   		.space	3
 1012              	.LC56:
 1013 025c 74797065 		.ascii	"type-stream\000"
 1013      2D737472 
 1013      65616D00 
 1014              	.LC57:
 1015 0268 2B00     		.ascii	"+\000"
 1016 026a 0000     		.space	2
 1017              	.LC58:
 1018 026c 2D00     		.ascii	"-\000"
 1019 026e 0000     		.space	2
 1020              	.LC59:
 1021 0270 2A00     		.ascii	"*\000"
 1022 0272 0000     		.space	2
 1023              	.LC60:
 1024 0274 2F00     		.ascii	"/\000"
 1025 0276 0000     		.space	2
 1026              	.LC61:
 1027 0278 6D6F6400 		.ascii	"mod\000"
 1028              	.LC62:
 1029 027c 3D00     		.ascii	"=\000"
 1030 027e 0000     		.space	2
 1031              	.LC63:
 1032 0280 3C00     		.ascii	"<\000"
 1033 0282 0000     		.space	2
 1034              	.LC64:
 1035 0284 3E00     		.ascii	">\000"
 1036 0286 0000     		.space	2
 1037              	.LC65:
 1038 0288 6576616C 		.ascii	"eval\000"
 1038      00
 1039 028d 000000   		.space	3
 1040              	.LC66:
 1041 0290 6576616C 		.ascii	"eval-program\000"
ARM GAS  /tmp/cc0JaHPn.s 			page 21


 1041      2D70726F 
 1041      6772616D 
 1041      00
 1042 029d 000000   		.space	3
 1043              	.LC67:
 1044 02a0 616E6400 		.ascii	"and\000"
 1045              	.LC68:
 1046 02a4 6F7200   		.ascii	"or\000"
 1047 02a7 00       		.space	1
 1048              	.LC69:
 1049 02a8 6E6F7400 		.ascii	"not\000"
 1050              	.LC70:
 1051 02ac 7969656C 		.ascii	"yield\000"
 1051      6400
 1052 02b2 0000     		.space	2
 1053              	.LC71:
 1054 02b4 77616974 		.ascii	"wait\000"
 1054      00
 1055 02b9 000000   		.space	3
 1056              	.LC72:
 1057 02bc 73706177 		.ascii	"spawn\000"
 1057      6E00
 1058 02c2 0000     		.space	2
 1059              	.LC73:
 1060 02c4 6E756D2D 		.ascii	"num-eq\000"
 1060      657100
 1061 02cb 00       		.space	1
 1062              	.LC74:
 1063 02cc 63617200 		.ascii	"car\000"
 1064              	.LC75:
 1065 02d0 63647200 		.ascii	"cdr\000"
 1066              	.LC76:
 1067 02d4 636F6E73 		.ascii	"cons\000"
 1067      00
 1068 02d9 000000   		.space	3
 1069              	.LC77:
 1070 02dc 6C697374 		.ascii	"list\000"
 1070      00
 1071 02e1 000000   		.space	3
 1072              	.LC78:
 1073 02e4 61707065 		.ascii	"append\000"
 1073      6E6400
 1074 02eb 00       		.space	1
 1075              	.LC79:
 1076 02ec 61727261 		.ascii	"array-read\000"
 1076      792D7265 
 1076      616400
 1077 02f7 00       		.space	1
 1078              	.LC80:
 1079 02f8 61727261 		.ascii	"array-write\000"
 1079      792D7772 
 1079      69746500 
 1080              	.LC81:
 1081 0304 74797065 		.ascii	"type-of\000"
 1081      2D6F6600 
 1082              	.LC82:
 1083 030c 73796D2D 		.ascii	"sym-to-str\000"
ARM GAS  /tmp/cc0JaHPn.s 			page 22


 1083      746F2D73 
 1083      747200
 1084 0317 00       		.space	1
 1085              	.LC83:
 1086 0318 7374722D 		.ascii	"str-to-sym\000"
 1086      746F2D73 
 1086      796D00
 1087 0323 00       		.space	1
 1088              	.LC84:
 1089 0324 73796D2D 		.ascii	"sym-to-u\000"
 1089      746F2D75 
 1089      00
 1090 032d 000000   		.space	3
 1091              	.LC85:
 1092 0330 752D746F 		.ascii	"u-to-sym\000"
 1092      2D73796D 
 1092      00
 1093 0339 000000   		.space	3
 1094              	.LC86:
 1095 033c 7365742D 		.ascii	"set-car\000"
 1095      63617200 
 1096              	.LC87:
 1097 0344 7365742D 		.ascii	"set-cdr\000"
 1097      63647200 
 1098              	.LC88:
 1099 034c 697800   		.ascii	"ix\000"
 1100 034f 00       		.space	1
 1101              	.LC89:
 1102 0350 656E636F 		.ascii	"encode-i32\000"
 1102      64652D69 
 1102      333200
 1103 035b 00       		.space	1
 1104              	.LC90:
 1105 035c 656E636F 		.ascii	"encode-u32\000"
 1105      64652D75 
 1105      333200
 1106 0367 00       		.space	1
 1107              	.LC91:
 1108 0368 656E636F 		.ascii	"encode-float\000"
 1108      64652D66 
 1108      6C6F6174 
 1108      00
 1109 0375 000000   		.space	3
 1110              	.LC92:
 1111 0378 6465636F 		.ascii	"decode\000"
 1111      646500
 1112 037f 00       		.space	1
 1113              	.LC93:
 1114 0380 69732D66 		.ascii	"is-fundamental\000"
 1114      756E6461 
 1114      6D656E74 
 1114      616C00
 1115              		.text
 1116              	.Letext0:
 1117              		.file 2 "/usr/arm-none-eabi/include/machine/_default_types.h"
 1118              		.file 3 "/usr/arm-none-eabi/include/sys/_stdint.h"
 1119              		.file 4 "/usr/lib/gcc/arm-none-eabi/7.3.1/include/stddef.h"
ARM GAS  /tmp/cc0JaHPn.s 			page 23


 1120              		.file 5 "/usr/arm-none-eabi/include/sys/lock.h"
 1121              		.file 6 "/usr/arm-none-eabi/include/sys/_types.h"
 1122              		.file 7 "/usr/arm-none-eabi/include/sys/reent.h"
 1123              		.file 8 "/usr/arm-none-eabi/include/stdlib.h"
 1124              		.file 9 "lispBM/lispBM/include/lbm_types.h"
 1125              		.file 10 "/usr/arm-none-eabi/include/string.h"
 1126              		.file 11 "lispBM/lispBM/include/lbm_memory.h"