ARM GAS  /tmp/ccSpsmCg.s 			page 1


   1              		.cpu cortex-m4
   2              		.eabi_attribute 27, 1
   3              		.eabi_attribute 28, 1
   4              		.eabi_attribute 20, 1
   5              		.eabi_attribute 21, 1
   6              		.eabi_attribute 23, 3
   7              		.eabi_attribute 24, 1
   8              		.eabi_attribute 25, 1
   9              		.eabi_attribute 26, 1
  10              		.eabi_attribute 30, 2
  11              		.eabi_attribute 34, 1
  12              		.eabi_attribute 18, 4
  13              		.file	"syscalls.c"
  14              		.text
  15              	.Ltext0:
  16              		.cfi_sections	.debug_frame
  17              		.section	.text._read_r,"ax",%progbits
  18              		.align	1
  19              		.p2align 4,,15
  20              		.global	_read_r
  21              		.syntax unified
  22              		.thumb
  23              		.thumb_func
  24              		.fpu fpv4-sp-d16
  25              		.type	_read_r, %function
  26              	_read_r:
  27              	.LFB219:
  28              		.file 1 "ChibiOS_3.0.5/os/various/syscalls.c"
  29              		.loc 1 71 0
  30              		.cfi_startproc
  31              		@ args = 0, pretend = 0, frame = 0
  32              		@ frame_needed = 0, uses_anonymous_args = 0
  33              		@ link register save eliminated.
  34              	.LVL0:
  35              		.loc 1 84 0
  36 0000 1623     		movs	r3, #22
  37              	.LVL1:
  38 0002 0360     		str	r3, [r0]
  39              		.loc 1 87 0
  40 0004 4FF0FF30 		mov	r0, #-1
  41              	.LVL2:
  42 0008 7047     		bx	lr
  43              		.cfi_endproc
  44              	.LFE219:
  45              		.size	_read_r, .-_read_r
  46 000a 00BF     		.section	.text._lseek_r,"ax",%progbits
  47              		.align	1
  48              		.p2align 4,,15
  49              		.global	_lseek_r
  50              		.syntax unified
  51              		.thumb
  52              		.thumb_func
  53              		.fpu fpv4-sp-d16
  54              		.type	_lseek_r, %function
  55              	_lseek_r:
  56              	.LFB220:
  57              		.loc 1 92 0
ARM GAS  /tmp/ccSpsmCg.s 			page 2


  58              		.cfi_startproc
  59              		@ args = 0, pretend = 0, frame = 0
  60              		@ frame_needed = 0, uses_anonymous_args = 0
  61              		@ link register save eliminated.
  62              	.LVL3:
  63              		.loc 1 99 0
  64 0000 0020     		movs	r0, #0
  65              	.LVL4:
  66 0002 7047     		bx	lr
  67              		.cfi_endproc
  68              	.LFE220:
  69              		.size	_lseek_r, .-_lseek_r
  70              		.section	.text._write_r,"ax",%progbits
  71              		.align	1
  72              		.p2align 4,,15
  73              		.global	_write_r
  74              		.syntax unified
  75              		.thumb
  76              		.thumb_func
  77              		.fpu fpv4-sp-d16
  78              		.type	_write_r, %function
  79              	_write_r:
  80              	.LFB221:
  81              		.loc 1 104 0
  82              		.cfi_startproc
  83              		@ args = 0, pretend = 0, frame = 0
  84              		@ frame_needed = 0, uses_anonymous_args = 0
  85              		@ link register save eliminated.
  86              	.LVL5:
  87              		.loc 1 116 0
  88 0000 1846     		mov	r0, r3
  89              	.LVL6:
  90 0002 7047     		bx	lr
  91              		.cfi_endproc
  92              	.LFE221:
  93              		.size	_write_r, .-_write_r
  94              		.section	.text._close_r,"ax",%progbits
  95              		.align	1
  96              		.p2align 4,,15
  97              		.global	_close_r
  98              		.syntax unified
  99              		.thumb
 100              		.thumb_func
 101              		.fpu fpv4-sp-d16
 102              		.type	_close_r, %function
 103              	_close_r:
 104              	.LFB222:
 105              		.loc 1 121 0
 106              		.cfi_startproc
 107              		@ args = 0, pretend = 0, frame = 0
 108              		@ frame_needed = 0, uses_anonymous_args = 0
 109              		@ link register save eliminated.
 110              	.LVL7:
 111              		.loc 1 126 0
 112 0000 0020     		movs	r0, #0
 113              	.LVL8:
 114 0002 7047     		bx	lr
ARM GAS  /tmp/ccSpsmCg.s 			page 3


 115              		.cfi_endproc
 116              	.LFE222:
 117              		.size	_close_r, .-_close_r
 118              		.section	.text._sbrk_r,"ax",%progbits
 119              		.align	1
 120              		.p2align 4,,15
 121              		.global	_sbrk_r
 122              		.syntax unified
 123              		.thumb
 124              		.thumb_func
 125              		.fpu fpv4-sp-d16
 126              		.type	_sbrk_r, %function
 127              	_sbrk_r:
 128              	.LFB223:
 129              		.loc 1 131 0
 130              		.cfi_startproc
 131              		@ args = 0, pretend = 0, frame = 0
 132              		@ frame_needed = 0, uses_anonymous_args = 0
 133              	.LVL9:
 134 0000 10B5     		push	{r4, lr}
 135              		.cfi_def_cfa_offset 8
 136              		.cfi_offset 4, -8
 137              		.cfi_offset 14, -4
 138              		.loc 1 131 0
 139 0002 0446     		mov	r4, r0
 140              		.loc 1 137 0
 141 0004 0846     		mov	r0, r1
 142              	.LVL10:
 143 0006 FFF7FEFF 		bl	chCoreAlloc
 144              	.LVL11:
 145              		.loc 1 138 0
 146 000a 00B1     		cbz	r0, .L9
 147              		.loc 1 148 0
 148 000c 10BD     		pop	{r4, pc}
 149              	.LVL12:
 150              	.L9:
 151              		.loc 1 139 0
 152 000e 0C23     		movs	r3, #12
 153 0010 2360     		str	r3, [r4]
 154              		.loc 1 140 0
 155 0012 4FF0FF30 		mov	r0, #-1
 156              	.LVL13:
 157              		.loc 1 148 0
 158 0016 10BD     		pop	{r4, pc}
 159              		.cfi_endproc
 160              	.LFE223:
 161              		.size	_sbrk_r, .-_sbrk_r
 162              		.section	.text._fstat_r,"ax",%progbits
 163              		.align	1
 164              		.p2align 4,,15
 165              		.global	_fstat_r
 166              		.syntax unified
 167              		.thumb
 168              		.thumb_func
 169              		.fpu fpv4-sp-d16
 170              		.type	_fstat_r, %function
 171              	_fstat_r:
ARM GAS  /tmp/ccSpsmCg.s 			page 4


 172              	.LFB224:
 173              		.loc 1 153 0
 174              		.cfi_startproc
 175              		@ args = 0, pretend = 0, frame = 0
 176              		@ frame_needed = 0, uses_anonymous_args = 0
 177              	.LVL14:
 178 0000 08B5     		push	{r3, lr}
 179              		.cfi_def_cfa_offset 8
 180              		.cfi_offset 3, -8
 181              		.cfi_offset 14, -4
 182              		.loc 1 157 0
 183 0002 1046     		mov	r0, r2
 184              	.LVL15:
 185 0004 0021     		movs	r1, #0
 186              	.LVL16:
 187 0006 5822     		movs	r2, #88
 188              	.LVL17:
 189 0008 FFF7FEFF 		bl	memset
 190              	.LVL18:
 191              		.loc 1 158 0
 192 000c 4FF40052 		mov	r2, #8192
 193 0010 4260     		str	r2, [r0, #4]
 194              		.loc 1 160 0
 195 0012 0020     		movs	r0, #0
 196 0014 08BD     		pop	{r3, pc}
 197              		.cfi_endproc
 198              	.LFE224:
 199              		.size	_fstat_r, .-_fstat_r
 200 0016 00BF     		.section	.text._isatty_r,"ax",%progbits
 201              		.align	1
 202              		.p2align 4,,15
 203              		.global	_isatty_r
 204              		.syntax unified
 205              		.thumb
 206              		.thumb_func
 207              		.fpu fpv4-sp-d16
 208              		.type	_isatty_r, %function
 209              	_isatty_r:
 210              	.LFB225:
 211              		.loc 1 165 0
 212              		.cfi_startproc
 213              		@ args = 0, pretend = 0, frame = 0
 214              		@ frame_needed = 0, uses_anonymous_args = 0
 215              		@ link register save eliminated.
 216              	.LVL19:
 217              		.loc 1 170 0
 218 0000 0120     		movs	r0, #1
 219              	.LVL20:
 220 0002 7047     		bx	lr
 221              		.cfi_endproc
 222              	.LFE225:
 223              		.size	_isatty_r, .-_isatty_r
 224              		.text
 225              	.Letext0:
 226              		.file 2 "/usr/lib/gcc/arm-none-eabi/7.3.1/include/stddef.h"
 227              		.file 3 "/usr/arm-none-eabi/include/machine/_default_types.h"
 228              		.file 4 "/usr/arm-none-eabi/include/sys/lock.h"
ARM GAS  /tmp/ccSpsmCg.s 			page 5


 229              		.file 5 "/usr/arm-none-eabi/include/sys/_types.h"
 230              		.file 6 "/usr/arm-none-eabi/include/sys/reent.h"
 231              		.file 7 "/usr/arm-none-eabi/include/stdlib.h"
 232              		.file 8 "/usr/arm-none-eabi/include/sys/errno.h"
 233              		.file 9 "/usr/arm-none-eabi/include/sys/_stdint.h"
 234              		.file 10 "/usr/arm-none-eabi/include/sys/_timeval.h"
 235              		.file 11 "/usr/arm-none-eabi/include/sys/types.h"
 236              		.file 12 "/usr/arm-none-eabi/include/time.h"
 237              		.file 13 "/usr/arm-none-eabi/include/sys/stat.h"
 238              		.file 14 "ChibiOS_3.0.5/os/rt/ports/ARMCMx/compilers/GCC/chtypes.h"
 239              		.file 15 "ChibiOS_3.0.5/os/rt/include/chsystypes.h"
 240              		.file 16 "ChibiOS_3.0.5/os/rt/include/chschd.h"
 241              		.file 17 "ChibiOS_3.0.5/os/ext/CMSIS/include/core_cm4.h"
 242              		.file 18 "ChibiOS_3.0.5/os/ext/CMSIS/ST/system_stm32f4xx.h"
 243              		.file 19 "ChibiOS_3.0.5/os/rt/ports/ARMCMx/chcore.h"
 244              		.file 20 "ChibiOS_3.0.5/os/rt/ports/ARMCMx/chcore_v7m.h"
 245              		.file 21 "ChibiOS_3.0.5/os/rt/include/chtm.h"
 246              		.file 22 "ChibiOS_3.0.5/os/rt/include/chsem.h"
 247              		.file 23 "ChibiOS_3.0.5/os/rt/include/chmtx.h"
 248              		.file 24 "ChibiOS_3.0.5/os/rt/include/chregistry.h"
 249              		.file 25 "<built-in>"
 250              		.file 26 "ChibiOS_3.0.5/os/rt/include/chmemcore.h"