ARM GAS  /tmp/ccSpsmCg.s 			page 1


   1              		.cpu cortex-m4
   2              		.eabi_attribute 27, 1
   3              		.eabi_attribute 28, 1
   4              		.eabi_attribute 20, 1
   5              		.eabi_attribute 21, 1
   6              		.eabi_attribute 23, 3
   7              		.eabi_attribute 24, 1
   8              		.eabi_attribute 25, 1
   9              		.eabi_attribute 26, 1
  10              		.eabi_attribute 30, 2
  11              		.eabi_attribute 34, 1
  12              		.eabi_attribute 18, 4
  13              		.file	"syscalls.c"
  14              		.text
  15              	.Ltext0:
  16              		.cfi_sections	.debug_frame
  17              		.section	.text._read_r,"ax",%progbits
  18              		.align	1
  19              		.p2align 4,,15
  20              		.global	_read_r
  21              		.syntax unified
  22              		.thumb
  23              		.thumb_func
  24              		.fpu fpv4-sp-d16
  25              		.type	_read_r, %function
  26              	_read_r:
  27              	.LFB219:
  28              		.file 1 "ChibiOS_3.0.5/os/various/syscalls.c"
  29              		.loc 1 71 0
  30              		.cfi_startproc
  31              		@ args = 0, pretend = 0, frame = 0
  32              		@ frame_needed = 0, uses_anonymous_args = 0
  33              		@ link register save eliminated.
  34              	.LVL0:
  35              		.loc 1 84 0
  36 0000 1623     		movs	r3, #22
  37              	.LVL1:
  38 0002 0360     		str	r3, [r0]
  39              		.loc 1 87 0
  40 0004 4FF0FF30 		mov	r0, #-1
  41              	.LVL2:
  42 0008 7047     		bx	lr
  43              		.cfi_endproc
  44              	.LFE219:
  45              		.size	_read_r, .-_read_r
  46 000a 00BF     		.section	.text._lseek_r,"ax",%progbits
  47              		.align	1
  48              		.p2align 4,,15
  49              		.global	_lseek_r
  50              		.syntax unified
  51              		.thumb
  52              		.thumb_func
  53              		.fpu fpv4-sp-d16
  54              		.type	_lseek_r, %function
  55              	_lseek_r:
  56              	.LFB220:
  57              		.loc 1 92 0
ARM GAS  /tmp/ccSpsmCg.s 			page 2


  58              		.cfi_startproc
  59              		@ args = 0, pretend = 0, frame = 0
  60              		@ frame_needed = 0, uses_anonymous_args = 0
  61              		@ link register save eliminated.
  62              	.LVL3:
  63              		.loc 1 99 0
  64 0000 0020     		movs	r0, #0
  65              	.LVL4:
  66 0002 7047     		bx	lr
  67              		.cfi_endproc
  68              	.LFE220:
  69              		.size	_lseek_r, .-_lseek_r
  70              		.section	.text._write_r,"ax",%progbits
  71              		.align	1
  72              		.p2align 4,,15
  73              		.global	_write_r
  74              		.syntax unified
  75              		.thumb
  76              		.thumb_func
  77              		.fpu fpv4-sp-d16
  78              		.type	_write_r, %function
  79              	_write_r:
  80              	.LFB221:
  81              		.loc 1 104 0
  82              		.cfi_startproc
  83              		@ args = 0, pretend = 0, frame = 0
  84              		@ frame_needed = 0, uses_anonymous_args = 0
  85              		@ link register save eliminated.
  86              	.LVL5:
  87              		.loc 1 116 0
  88 0000 1846     		mov	r0, r3
  89              	.LVL6:
  90 0002 7047     		bx	lr
  91              		.cfi_endproc
  92              	.LFE221:
  93              		.size	_write_r, .-_write_r
  94              		.section	.text._close_r,"ax",%progbits
  95              		.align	1
  96              		.p2align 4,,15
  97              		.global	_close_r
  98              		.syntax unified
  99              		.thumb
 100              		.thumb_func
 101              		.fpu fpv4-sp-d16
 102              		.type	_close_r, %function
 103              	_close_r:
 104              	.LFB222:
 105              		.loc 1 121 0
 106              		.cfi_startproc
 107              		@ args = 0, pretend = 0, frame = 0
 108              		@ frame_needed = 0, uses_anonymous_args = 0
 109              		@ link register save eliminated.
 110              	.LVL7:
 111              		.loc 1 126 0
 112 0000 0020     		movs	r0, #0
 113              	.LVL8:
 114 0002 7047     		bx	lr
ARM GAS  /tmp/ccSpsmCg.s 			page 3


 115              		.cfi_endproc
 116              	.LFE222:
 117              		.size	_close_r, .-_close_r
 118              		.section	.text._sbrk_r,"ax",%progbits
 119              		.align	1
 120              		.p2align 4,,15
 121              		.global	_sbrk_r
 122              		.syntax unified
 123              		.thumb
 124              		.thumb_func
 125              		.fpu fpv4-sp-d16
 126              		.type	_sbrk_r, %function
 127              	_sbrk_r:
 128              	.LFB223:
 129              		.loc 1 131 0
 130              		.cfi_startproc
 131              		@ args = 0, pretend = 0, frame = 0
 132              		@ frame_needed = 0, uses_anonymous_args = 0
 133              	.LVL9:
 134 0000 10B5     		push	{r4, lr}
 135              		.cfi_def_cfa_offset 8
 136              		.cfi_offset 4, -8
 137              		.cfi_offset 14, -4
 138              		.loc 1 131 0
 139 0002 0446     		mov	r4, r0
 140              		.loc 1 137 0
 141 0004 0846     		mov	r0, r1
 142              	.LVL10:
 143 0006 FFF7FEFF 		bl	chCoreAlloc
 144              	.LVL11:
 145              		.loc 1 138 0
 146 000a 00B1     		cbz	r0, .L9
 147              		.loc 1 148 0
 148 000c 10BD     		pop	{r4, pc}
 149              	.LVL12:
 150              	.L9:
 151              		.loc 1 139 0
 152 000e 0C23     		movs	r3, #12
 153 0010 2360     		str	r3, [r4]
 154              		.loc 1 140 0
 155 0012 4FF0FF30 		mov	r0, #-1
 156              	.LVL13:
 157              		.loc 1 148 0
 158 0016 10BD     		pop	{r4, pc}
 159              		.cfi_endproc
 160              	.LFE223:
 161              		.size	_sbrk_r, .-_sbrk_r
 162              		.section	.text._fstat_r,"ax",%progbits
 163              		.align	1
 164              		.p2align 4,,15
 165              		.global	_fstat_r
 166              		.syntax unified
 167              		.thumb
 168              		.thumb_func
 169              		.fpu fpv4-sp-d16
 170              		.type	_fstat_r, %function
 171              	_fstat_r:
ARM GAS  /tmp/ccSpsmCg.s 			page 4


 172              	.LFB224:
 173              		.loc 1 153 0
 174              		.cfi_startproc
 175              		@ args = 0, pretend = 0, frame = 0
 176              		@ frame_needed = 0, uses_anonymous_args = 0
 177              	.LVL14:
 178 0000 08B5     		push	{r3, lr}
 179              		.cfi_def_cfa_offset 8
 180              		.cfi_offset 3, -8
 181              		.cfi_offset 14, -4
 182              		.loc 1 157 0
 183 0002 1046     		mov	r0, r2
 184              	.LVL15:
 185 0004 0021     		movs	r1, #0
 186              	.LVL16:
 187 0006 5822     		movs	r2, #88
 188              	.LVL17:
 189 0008 FFF7FEFF 		bl	memset
 190              	.LVL18:
 191              		.loc 1 158 0
 192 000c 4FF40052 		mov	r2, #8192
 193 0010 4260     		str	r2, [r0, #4]
 194              		.loc 1 160 0
 195 0012 0020     		movs	r0, #0
 196 0014 08BD     		pop	{r3, pc}
 197              		.cfi_endproc
 198              	.LFE224:
 199              		.size	_fstat_r, .-_fstat_r
 200 0016 00BF     		.section	.text._isatty_r,"ax",%progbits
 201              		.align	1
 202              		.p2align 4,,15
 203              		.global	_isatty_r
 204              		.syntax unified
 205              		.thumb
 206              		.thumb_func
 207              		.fpu fpv4-sp-d16
 208              		.type	_isatty_r, %function
 209              	_isatty_r:
 210              	.LFB225:
 211              		.loc 1 165 0
 212              		.cfi_startproc
 213              		@ args = 0, pretend = 0, frame = 0
 214              		@ frame_needed = 0, uses_anonymous_args = 0
 215              		@ link register save eliminated.
 216              	.LVL19:
 217              		.loc 1 170 0
 218 0000 0120     		movs	r0, #1
 219              	.LVL20:
 220 0002 7047     		bx	lr
 221              		.cfi_endproc
 222              	.LFE225:
 223              		.size	_isatty_r, .-_isatty_r
 224              		.text
 225              	.Letext0:
 226              		.file 2 "/usr/lib/gcc/arm-none-eabi/7.3.1/include/stddef.h"
 227              		.file 3 "/usr/arm-none-eabi/include/machine/_default_types.h"
 228              		.file 4 "/usr/arm-none-eabi/include/sys/lock.h"
ARM GAS  /tmp/ccSpsmCg.s 			page 5


 229              		.file 5 "/usr/arm-none-eabi/include/sys/_types.h"
 230              		.file 6 "/usr/arm-none-eabi/include/sys/reent.h"
 231              		.file 7 "/usr/arm-none-eabi/include/stdlib.h"
 232              		.file 8 "/usr/arm-none-eabi/include/sys/errno.h"
 233              		.file 9 "/usr/arm-none-eabi/include/sys/_stdint.h"
 234              		.file 10 "/usr/arm-none-eabi/include/sys/_timeval.h"
 235              		.file 11 "/usr/arm-none-eabi/include/sys/types.h"
 236              		.file 12 "/usr/arm-none-eabi/include/time.h"
 237              		.file 13 "/usr/arm-none-eabi/include/sys/stat.h"
 238              		.file 14 "ChibiOS_3.0.5/os/rt/ports/ARMCMx/compilers/GCC/chtypes.h"
 239              		.file 15 "ChibiOS_3.0.5/os/rt/include/chsystypes.h"
 240              		.file 16 "ChibiOS_3.0.5/os/rt/include/chschd.h"
 241              		.file 17 "ChibiOS_3.0.5/os/ext/CMSIS/include/core_cm4.h"
 242              		.file 18 "ChibiOS_3.0.5/os/ext/CMSIS/ST/system_stm32f4xx.h"
 243              		.file 19 "ChibiOS_3.0.5/os/rt/ports/ARMCMx/chcore.h"
 244              		.file 20 "ChibiOS_3.0.5/os/rt/ports/ARMCMx/chcore_v7m.h"
 245              		.file 21 "ChibiOS_3.0.5/os/rt/include/chtm.h"
 246              		.file 22 "ChibiOS_3.0.5/os/rt/include/chsem.h"
 247              		.file 23 "ChibiOS_3.0.5/os/rt/include/chmtx.h"
 248              		.file 24 "ChibiOS_3.0.5/os/rt/include/chregistry.h"
 249              		.file 25 "<built-in>"
 250              		.file 26 "ChibiOS_3.0.5/os/rt/include/chmemcore.h"
 251              		.section	.debug_info,"",%progbits
 252              	.Ldebug_info0:
 253 0000 F7140000 		.4byte	0x14f7
 254 0004 0400     		.2byte	0x4
 255 0006 00000000 		.4byte	.Ldebug_abbrev0
 256 000a 04       		.byte	0x4
 257 000b 01       		.uleb128 0x1
 258 000c B9010000 		.4byte	.LASF294
 259 0010 0C       		.byte	0xc
 260 0011 7F040000 		.4byte	.LASF295
 261 0015 630B0000 		.4byte	.LASF296
 262 0019 00000000 		.4byte	.Ldebug_ranges0+0
 263 001d 00000000 		.4byte	0
 264 0021 00000000 		.4byte	.Ldebug_line0
 265 0025 02       		.uleb128 0x2
 266 0026 00000000 		.4byte	.LASF2
 267 002a 02       		.byte	0x2
 268 002b D8       		.byte	0xd8
 269 002c 30000000 		.4byte	0x30
 270 0030 03       		.uleb128 0x3
 271 0031 04       		.byte	0x4
 272 0032 07       		.byte	0x7
 273 0033 AC070000 		.4byte	.LASF0
 274 0037 04       		.uleb128 0x4
 275 0038 04       		.byte	0x4
 276 0039 05       		.byte	0x5
 277 003a 696E7400 		.ascii	"int\000"
 278 003e 03       		.uleb128 0x3
 279 003f 01       		.byte	0x1
 280 0040 06       		.byte	0x6
 281 0041 A4030000 		.4byte	.LASF1
 282 0045 02       		.uleb128 0x2
 283 0046 6E010000 		.4byte	.LASF3
 284 004a 03       		.byte	0x3
 285 004b 2B       		.byte	0x2b
ARM GAS  /tmp/ccSpsmCg.s 			page 6


 286 004c 50000000 		.4byte	0x50
 287 0050 03       		.uleb128 0x3
 288 0051 01       		.byte	0x1
 289 0052 08       		.byte	0x8
 290 0053 0D040000 		.4byte	.LASF4
 291 0057 03       		.uleb128 0x3
 292 0058 02       		.byte	0x2
 293 0059 05       		.byte	0x5
 294 005a 870A0000 		.4byte	.LASF5
 295 005e 02       		.uleb128 0x2
 296 005f C2040000 		.4byte	.LASF6
 297 0063 03       		.byte	0x3
 298 0064 39       		.byte	0x39
 299 0065 69000000 		.4byte	0x69
 300 0069 03       		.uleb128 0x3
 301 006a 02       		.byte	0x2
 302 006b 07       		.byte	0x7
 303 006c A70B0000 		.4byte	.LASF7
 304 0070 02       		.uleb128 0x2
 305 0071 FE0B0000 		.4byte	.LASF8
 306 0075 03       		.byte	0x3
 307 0076 4D       		.byte	0x4d
 308 0077 7B000000 		.4byte	0x7b
 309 007b 03       		.uleb128 0x3
 310 007c 04       		.byte	0x4
 311 007d 05       		.byte	0x5
 312 007e F3020000 		.4byte	.LASF9
 313 0082 02       		.uleb128 0x2
 314 0083 ED060000 		.4byte	.LASF10
 315 0087 03       		.byte	0x3
 316 0088 4F       		.byte	0x4f
 317 0089 8D000000 		.4byte	0x8d
 318 008d 03       		.uleb128 0x3
 319 008e 04       		.byte	0x4
 320 008f 07       		.byte	0x7
 321 0090 D5050000 		.4byte	.LASF11
 322 0094 03       		.uleb128 0x3
 323 0095 08       		.byte	0x8
 324 0096 05       		.byte	0x5
 325 0097 03070000 		.4byte	.LASF12
 326 009b 02       		.uleb128 0x2
 327 009c BF050000 		.4byte	.LASF13
 328 00a0 03       		.byte	0x3
 329 00a1 69       		.byte	0x69
 330 00a2 A6000000 		.4byte	0xa6
 331 00a6 03       		.uleb128 0x3
 332 00a7 08       		.byte	0x8
 333 00a8 07       		.byte	0x7
 334 00a9 43090000 		.4byte	.LASF14
 335 00ad 02       		.uleb128 0x2
 336 00ae B60A0000 		.4byte	.LASF15
 337 00b2 03       		.byte	0x3
 338 00b3 C8       		.byte	0xc8
 339 00b4 94000000 		.4byte	0x94
 340 00b8 02       		.uleb128 0x2
 341 00b9 2C0B0000 		.4byte	.LASF16
 342 00bd 04       		.byte	0x4
ARM GAS  /tmp/ccSpsmCg.s 			page 7


 343 00be 22       		.byte	0x22
 344 00bf C3000000 		.4byte	0xc3
 345 00c3 05       		.uleb128 0x5
 346 00c4 04       		.byte	0x4
 347 00c5 C9000000 		.4byte	0xc9
 348 00c9 06       		.uleb128 0x6
 349 00ca 97050000 		.4byte	.LASF132
 350 00ce 02       		.uleb128 0x2
 351 00cf B2060000 		.4byte	.LASF17
 352 00d3 05       		.byte	0x5
 353 00d4 1C       		.byte	0x1c
 354 00d5 7B000000 		.4byte	0x7b
 355 00d9 02       		.uleb128 0x2
 356 00da BA030000 		.4byte	.LASF18
 357 00de 05       		.byte	0x5
 358 00df 20       		.byte	0x20
 359 00e0 7B000000 		.4byte	0x7b
 360 00e4 02       		.uleb128 0x2
 361 00e5 940B0000 		.4byte	.LASF19
 362 00e9 05       		.byte	0x5
 363 00ea 2C       		.byte	0x2c
 364 00eb 7B000000 		.4byte	0x7b
 365 00ef 02       		.uleb128 0x2
 366 00f0 78010000 		.4byte	.LASF20
 367 00f4 05       		.byte	0x5
 368 00f5 36       		.byte	0x36
 369 00f6 57000000 		.4byte	0x57
 370 00fa 02       		.uleb128 0x2
 371 00fb 440B0000 		.4byte	.LASF21
 372 00ff 05       		.byte	0x5
 373 0100 3A       		.byte	0x3a
 374 0101 69000000 		.4byte	0x69
 375 0105 02       		.uleb128 0x2
 376 0106 EB000000 		.4byte	.LASF22
 377 010a 05       		.byte	0x5
 378 010b 3D       		.byte	0x3d
 379 010c 69000000 		.4byte	0x69
 380 0110 02       		.uleb128 0x2
 381 0111 E5060000 		.4byte	.LASF23
 382 0115 05       		.byte	0x5
 383 0116 49       		.byte	0x49
 384 0117 69000000 		.4byte	0x69
 385 011b 02       		.uleb128 0x2
 386 011c F4040000 		.4byte	.LASF24
 387 0120 05       		.byte	0x5
 388 0121 58       		.byte	0x58
 389 0122 82000000 		.4byte	0x82
 390 0126 02       		.uleb128 0x2
 391 0127 6B090000 		.4byte	.LASF25
 392 012b 05       		.byte	0x5
 393 012c 64       		.byte	0x64
 394 012d E4000000 		.4byte	0xe4
 395 0131 02       		.uleb128 0x2
 396 0132 05090000 		.4byte	.LASF26
 397 0136 05       		.byte	0x5
 398 0137 72       		.byte	0x72
 399 0138 7B000000 		.4byte	0x7b
ARM GAS  /tmp/ccSpsmCg.s 			page 8


 400 013c 07       		.uleb128 0x7
 401 013d 240A0000 		.4byte	.LASF27
 402 0141 02       		.byte	0x2
 403 0142 6501     		.2byte	0x165
 404 0144 30000000 		.4byte	0x30
 405 0148 08       		.uleb128 0x8
 406 0149 04       		.byte	0x4
 407 014a 05       		.byte	0x5
 408 014b A6       		.byte	0xa6
 409 014c 67010000 		.4byte	0x167
 410 0150 09       		.uleb128 0x9
 411 0151 5F010000 		.4byte	.LASF28
 412 0155 05       		.byte	0x5
 413 0156 A8       		.byte	0xa8
 414 0157 3C010000 		.4byte	0x13c
 415 015b 09       		.uleb128 0x9
 416 015c 0D090000 		.4byte	.LASF29
 417 0160 05       		.byte	0x5
 418 0161 A9       		.byte	0xa9
 419 0162 67010000 		.4byte	0x167
 420 0166 00       		.byte	0
 421 0167 0A       		.uleb128 0xa
 422 0168 50000000 		.4byte	0x50
 423 016c 77010000 		.4byte	0x177
 424 0170 0B       		.uleb128 0xb
 425 0171 30000000 		.4byte	0x30
 426 0175 03       		.byte	0x3
 427 0176 00       		.byte	0
 428 0177 0C       		.uleb128 0xc
 429 0178 08       		.byte	0x8
 430 0179 05       		.byte	0x5
 431 017a A3       		.byte	0xa3
 432 017b 98010000 		.4byte	0x198
 433 017f 0D       		.uleb128 0xd
 434 0180 8E080000 		.4byte	.LASF30
 435 0184 05       		.byte	0x5
 436 0185 A5       		.byte	0xa5
 437 0186 37000000 		.4byte	0x37
 438 018a 00       		.byte	0
 439 018b 0D       		.uleb128 0xd
 440 018c 12000000 		.4byte	.LASF31
 441 0190 05       		.byte	0x5
 442 0191 AA       		.byte	0xaa
 443 0192 48010000 		.4byte	0x148
 444 0196 04       		.byte	0x4
 445 0197 00       		.byte	0
 446 0198 02       		.uleb128 0x2
 447 0199 0C0A0000 		.4byte	.LASF32
 448 019d 05       		.byte	0x5
 449 019e AB       		.byte	0xab
 450 019f 77010000 		.4byte	0x177
 451 01a3 02       		.uleb128 0x2
 452 01a4 FC090000 		.4byte	.LASF33
 453 01a8 05       		.byte	0x5
 454 01a9 AF       		.byte	0xaf
 455 01aa B8000000 		.4byte	0xb8
 456 01ae 0E       		.uleb128 0xe
ARM GAS  /tmp/ccSpsmCg.s 			page 9


 457 01af 04       		.byte	0x4
 458 01b0 02       		.uleb128 0x2
 459 01b1 210C0000 		.4byte	.LASF34
 460 01b5 05       		.byte	0x5
 461 01b6 D5       		.byte	0xd5
 462 01b7 69000000 		.4byte	0x69
 463 01bb 05       		.uleb128 0x5
 464 01bc 04       		.byte	0x4
 465 01bd C1010000 		.4byte	0x1c1
 466 01c1 03       		.uleb128 0x3
 467 01c2 01       		.byte	0x1
 468 01c3 08       		.byte	0x8
 469 01c4 A3040000 		.4byte	.LASF35
 470 01c8 0F       		.uleb128 0xf
 471 01c9 C1010000 		.4byte	0x1c1
 472 01cd 02       		.uleb128 0x2
 473 01ce 7B0B0000 		.4byte	.LASF36
 474 01d2 06       		.byte	0x6
 475 01d3 16       		.byte	0x16
 476 01d4 8D000000 		.4byte	0x8d
 477 01d8 10       		.uleb128 0x10
 478 01d9 92060000 		.4byte	.LASF41
 479 01dd 18       		.byte	0x18
 480 01de 06       		.byte	0x6
 481 01df 2F       		.byte	0x2f
 482 01e0 2B020000 		.4byte	0x22b
 483 01e4 0D       		.uleb128 0xd
 484 01e5 2B0A0000 		.4byte	.LASF37
 485 01e9 06       		.byte	0x6
 486 01ea 31       		.byte	0x31
 487 01eb 2B020000 		.4byte	0x22b
 488 01ef 00       		.byte	0
 489 01f0 11       		.uleb128 0x11
 490 01f1 5F6B00   		.ascii	"_k\000"
 491 01f4 06       		.byte	0x6
 492 01f5 32       		.byte	0x32
 493 01f6 37000000 		.4byte	0x37
 494 01fa 04       		.byte	0x4
 495 01fb 0D       		.uleb128 0xd
 496 01fc AA060000 		.4byte	.LASF38
 497 0200 06       		.byte	0x6
 498 0201 32       		.byte	0x32
 499 0202 37000000 		.4byte	0x37
 500 0206 08       		.byte	0x8
 501 0207 0D       		.uleb128 0xd
 502 0208 7E070000 		.4byte	.LASF39
 503 020c 06       		.byte	0x6
 504 020d 32       		.byte	0x32
 505 020e 37000000 		.4byte	0x37
 506 0212 0C       		.byte	0xc
 507 0213 0D       		.uleb128 0xd
 508 0214 84050000 		.4byte	.LASF40
 509 0218 06       		.byte	0x6
 510 0219 32       		.byte	0x32
 511 021a 37000000 		.4byte	0x37
 512 021e 10       		.byte	0x10
 513 021f 11       		.uleb128 0x11
ARM GAS  /tmp/ccSpsmCg.s 			page 10


 514 0220 5F7800   		.ascii	"_x\000"
 515 0223 06       		.byte	0x6
 516 0224 33       		.byte	0x33
 517 0225 31020000 		.4byte	0x231
 518 0229 14       		.byte	0x14
 519 022a 00       		.byte	0
 520 022b 05       		.uleb128 0x5
 521 022c 04       		.byte	0x4
 522 022d D8010000 		.4byte	0x1d8
 523 0231 0A       		.uleb128 0xa
 524 0232 CD010000 		.4byte	0x1cd
 525 0236 41020000 		.4byte	0x241
 526 023a 0B       		.uleb128 0xb
 527 023b 30000000 		.4byte	0x30
 528 023f 00       		.byte	0
 529 0240 00       		.byte	0
 530 0241 10       		.uleb128 0x10
 531 0242 FB000000 		.4byte	.LASF42
 532 0246 24       		.byte	0x24
 533 0247 06       		.byte	0x6
 534 0248 37       		.byte	0x37
 535 0249 BA020000 		.4byte	0x2ba
 536 024d 0D       		.uleb128 0xd
 537 024e 17010000 		.4byte	.LASF43
 538 0252 06       		.byte	0x6
 539 0253 39       		.byte	0x39
 540 0254 37000000 		.4byte	0x37
 541 0258 00       		.byte	0
 542 0259 0D       		.uleb128 0xd
 543 025a 520C0000 		.4byte	.LASF44
 544 025e 06       		.byte	0x6
 545 025f 3A       		.byte	0x3a
 546 0260 37000000 		.4byte	0x37
 547 0264 04       		.byte	0x4
 548 0265 0D       		.uleb128 0xd
 549 0266 BA0B0000 		.4byte	.LASF45
 550 026a 06       		.byte	0x6
 551 026b 3B       		.byte	0x3b
 552 026c 37000000 		.4byte	0x37
 553 0270 08       		.byte	0x8
 554 0271 0D       		.uleb128 0xd
 555 0272 13080000 		.4byte	.LASF46
 556 0276 06       		.byte	0x6
 557 0277 3C       		.byte	0x3c
 558 0278 37000000 		.4byte	0x37
 559 027c 0C       		.byte	0xc
 560 027d 0D       		.uleb128 0xd
 561 027e 8E030000 		.4byte	.LASF47
 562 0282 06       		.byte	0x6
 563 0283 3D       		.byte	0x3d
 564 0284 37000000 		.4byte	0x37
 565 0288 10       		.byte	0x10
 566 0289 0D       		.uleb128 0xd
 567 028a E30A0000 		.4byte	.LASF48
 568 028e 06       		.byte	0x6
 569 028f 3E       		.byte	0x3e
 570 0290 37000000 		.4byte	0x37
ARM GAS  /tmp/ccSpsmCg.s 			page 11


 571 0294 14       		.byte	0x14
 572 0295 0D       		.uleb128 0xd
 573 0296 AC080000 		.4byte	.LASF49
 574 029a 06       		.byte	0x6
 575 029b 3F       		.byte	0x3f
 576 029c 37000000 		.4byte	0x37
 577 02a0 18       		.byte	0x18
 578 02a1 0D       		.uleb128 0xd
 579 02a2 C8080000 		.4byte	.LASF50
 580 02a6 06       		.byte	0x6
 581 02a7 40       		.byte	0x40
 582 02a8 37000000 		.4byte	0x37
 583 02ac 1C       		.byte	0x1c
 584 02ad 0D       		.uleb128 0xd
 585 02ae 330C0000 		.4byte	.LASF51
 586 02b2 06       		.byte	0x6
 587 02b3 41       		.byte	0x41
 588 02b4 37000000 		.4byte	0x37
 589 02b8 20       		.byte	0x20
 590 02b9 00       		.byte	0
 591 02ba 12       		.uleb128 0x12
 592 02bb A1010000 		.4byte	.LASF52
 593 02bf 0801     		.2byte	0x108
 594 02c1 06       		.byte	0x6
 595 02c2 4A       		.byte	0x4a
 596 02c3 FA020000 		.4byte	0x2fa
 597 02c7 0D       		.uleb128 0xd
 598 02c8 2B0C0000 		.4byte	.LASF53
 599 02cc 06       		.byte	0x6
 600 02cd 4B       		.byte	0x4b
 601 02ce FA020000 		.4byte	0x2fa
 602 02d2 00       		.byte	0
 603 02d3 0D       		.uleb128 0xd
 604 02d4 73090000 		.4byte	.LASF54
 605 02d8 06       		.byte	0x6
 606 02d9 4C       		.byte	0x4c
 607 02da FA020000 		.4byte	0x2fa
 608 02de 80       		.byte	0x80
 609 02df 13       		.uleb128 0x13
 610 02e0 AD0A0000 		.4byte	.LASF55
 611 02e4 06       		.byte	0x6
 612 02e5 4E       		.byte	0x4e
 613 02e6 CD010000 		.4byte	0x1cd
 614 02ea 0001     		.2byte	0x100
 615 02ec 13       		.uleb128 0x13
 616 02ed 240B0000 		.4byte	.LASF56
 617 02f1 06       		.byte	0x6
 618 02f2 51       		.byte	0x51
 619 02f3 CD010000 		.4byte	0x1cd
 620 02f7 0401     		.2byte	0x104
 621 02f9 00       		.byte	0
 622 02fa 0A       		.uleb128 0xa
 623 02fb AE010000 		.4byte	0x1ae
 624 02ff 0A030000 		.4byte	0x30a
 625 0303 0B       		.uleb128 0xb
 626 0304 30000000 		.4byte	0x30
 627 0308 1F       		.byte	0x1f
ARM GAS  /tmp/ccSpsmCg.s 			page 12


 628 0309 00       		.byte	0
 629 030a 12       		.uleb128 0x12
 630 030b 73080000 		.4byte	.LASF57
 631 030f 9001     		.2byte	0x190
 632 0311 06       		.byte	0x6
 633 0312 5D       		.byte	0x5d
 634 0313 48030000 		.4byte	0x348
 635 0317 0D       		.uleb128 0xd
 636 0318 2B0A0000 		.4byte	.LASF37
 637 031c 06       		.byte	0x6
 638 031d 5E       		.byte	0x5e
 639 031e 48030000 		.4byte	0x348
 640 0322 00       		.byte	0
 641 0323 0D       		.uleb128 0xd
 642 0324 0F0B0000 		.4byte	.LASF58
 643 0328 06       		.byte	0x6
 644 0329 5F       		.byte	0x5f
 645 032a 37000000 		.4byte	0x37
 646 032e 04       		.byte	0x4
 647 032f 0D       		.uleb128 0xd
 648 0330 AF040000 		.4byte	.LASF59
 649 0334 06       		.byte	0x6
 650 0335 61       		.byte	0x61
 651 0336 4E030000 		.4byte	0x34e
 652 033a 08       		.byte	0x8
 653 033b 0D       		.uleb128 0xd
 654 033c A1010000 		.4byte	.LASF52
 655 0340 06       		.byte	0x6
 656 0341 62       		.byte	0x62
 657 0342 BA020000 		.4byte	0x2ba
 658 0346 88       		.byte	0x88
 659 0347 00       		.byte	0
 660 0348 05       		.uleb128 0x5
 661 0349 04       		.byte	0x4
 662 034a 0A030000 		.4byte	0x30a
 663 034e 0A       		.uleb128 0xa
 664 034f 5E030000 		.4byte	0x35e
 665 0353 5E030000 		.4byte	0x35e
 666 0357 0B       		.uleb128 0xb
 667 0358 30000000 		.4byte	0x30
 668 035c 1F       		.byte	0x1f
 669 035d 00       		.byte	0
 670 035e 05       		.uleb128 0x5
 671 035f 04       		.byte	0x4
 672 0360 64030000 		.4byte	0x364
 673 0364 14       		.uleb128 0x14
 674 0365 10       		.uleb128 0x10
 675 0366 140B0000 		.4byte	.LASF60
 676 036a 08       		.byte	0x8
 677 036b 06       		.byte	0x6
 678 036c 75       		.byte	0x75
 679 036d 8A030000 		.4byte	0x38a
 680 0371 0D       		.uleb128 0xd
 681 0372 C6090000 		.4byte	.LASF61
 682 0376 06       		.byte	0x6
 683 0377 76       		.byte	0x76
 684 0378 8A030000 		.4byte	0x38a
ARM GAS  /tmp/ccSpsmCg.s 			page 13


 685 037c 00       		.byte	0
 686 037d 0D       		.uleb128 0xd
 687 037e 26030000 		.4byte	.LASF62
 688 0382 06       		.byte	0x6
 689 0383 77       		.byte	0x77
 690 0384 37000000 		.4byte	0x37
 691 0388 04       		.byte	0x4
 692 0389 00       		.byte	0
 693 038a 05       		.uleb128 0x5
 694 038b 04       		.byte	0x4
 695 038c 50000000 		.4byte	0x50
 696 0390 10       		.uleb128 0x10
 697 0391 EF050000 		.4byte	.LASF63
 698 0395 68       		.byte	0x68
 699 0396 06       		.byte	0x6
 700 0397 B5       		.byte	0xb5
 701 0398 BA040000 		.4byte	0x4ba
 702 039c 11       		.uleb128 0x11
 703 039d 5F7000   		.ascii	"_p\000"
 704 03a0 06       		.byte	0x6
 705 03a1 B6       		.byte	0xb6
 706 03a2 8A030000 		.4byte	0x38a
 707 03a6 00       		.byte	0
 708 03a7 11       		.uleb128 0x11
 709 03a8 5F7200   		.ascii	"_r\000"
 710 03ab 06       		.byte	0x6
 711 03ac B7       		.byte	0xb7
 712 03ad 37000000 		.4byte	0x37
 713 03b1 04       		.byte	0x4
 714 03b2 11       		.uleb128 0x11
 715 03b3 5F7700   		.ascii	"_w\000"
 716 03b6 06       		.byte	0x6
 717 03b7 B8       		.byte	0xb8
 718 03b8 37000000 		.4byte	0x37
 719 03bc 08       		.byte	0x8
 720 03bd 0D       		.uleb128 0xd
 721 03be 52080000 		.4byte	.LASF64
 722 03c2 06       		.byte	0x6
 723 03c3 B9       		.byte	0xb9
 724 03c4 57000000 		.4byte	0x57
 725 03c8 0C       		.byte	0xc
 726 03c9 0D       		.uleb128 0xd
 727 03ca 8D010000 		.4byte	.LASF65
 728 03ce 06       		.byte	0x6
 729 03cf BA       		.byte	0xba
 730 03d0 57000000 		.4byte	0x57
 731 03d4 0E       		.byte	0xe
 732 03d5 11       		.uleb128 0x11
 733 03d6 5F626600 		.ascii	"_bf\000"
 734 03da 06       		.byte	0x6
 735 03db BB       		.byte	0xbb
 736 03dc 65030000 		.4byte	0x365
 737 03e0 10       		.byte	0x10
 738 03e1 0D       		.uleb128 0xd
 739 03e2 FA0A0000 		.4byte	.LASF66
 740 03e6 06       		.byte	0x6
 741 03e7 BC       		.byte	0xbc
ARM GAS  /tmp/ccSpsmCg.s 			page 14


 742 03e8 37000000 		.4byte	0x37
 743 03ec 18       		.byte	0x18
 744 03ed 0D       		.uleb128 0xd
 745 03ee 5E050000 		.4byte	.LASF67
 746 03f2 06       		.byte	0x6
 747 03f3 C3       		.byte	0xc3
 748 03f4 AE010000 		.4byte	0x1ae
 749 03f8 1C       		.byte	0x1c
 750 03f9 0D       		.uleb128 0xd
 751 03fa 49000000 		.4byte	.LASF68
 752 03fe 06       		.byte	0x6
 753 03ff C5       		.byte	0xc5
 754 0400 15060000 		.4byte	0x615
 755 0404 20       		.byte	0x20
 756 0405 0D       		.uleb128 0xd
 757 0406 7F000000 		.4byte	.LASF69
 758 040a 06       		.byte	0x6
 759 040b C7       		.byte	0xc7
 760 040c 49060000 		.4byte	0x649
 761 0410 24       		.byte	0x24
 762 0411 0D       		.uleb128 0xd
 763 0412 EF080000 		.4byte	.LASF70
 764 0416 06       		.byte	0x6
 765 0417 CA       		.byte	0xca
 766 0418 6D060000 		.4byte	0x66d
 767 041c 28       		.byte	0x28
 768 041d 0D       		.uleb128 0xd
 769 041e B4040000 		.4byte	.LASF71
 770 0422 06       		.byte	0x6
 771 0423 CB       		.byte	0xcb
 772 0424 87060000 		.4byte	0x687
 773 0428 2C       		.byte	0x2c
 774 0429 11       		.uleb128 0x11
 775 042a 5F756200 		.ascii	"_ub\000"
 776 042e 06       		.byte	0x6
 777 042f CE       		.byte	0xce
 778 0430 65030000 		.4byte	0x365
 779 0434 30       		.byte	0x30
 780 0435 11       		.uleb128 0x11
 781 0436 5F757000 		.ascii	"_up\000"
 782 043a 06       		.byte	0x6
 783 043b CF       		.byte	0xcf
 784 043c 8A030000 		.4byte	0x38a
 785 0440 38       		.byte	0x38
 786 0441 11       		.uleb128 0x11
 787 0442 5F757200 		.ascii	"_ur\000"
 788 0446 06       		.byte	0x6
 789 0447 D0       		.byte	0xd0
 790 0448 37000000 		.4byte	0x37
 791 044c 3C       		.byte	0x3c
 792 044d 0D       		.uleb128 0xd
 793 044e 22080000 		.4byte	.LASF72
 794 0452 06       		.byte	0x6
 795 0453 D3       		.byte	0xd3
 796 0454 8D060000 		.4byte	0x68d
 797 0458 40       		.byte	0x40
 798 0459 0D       		.uleb128 0xd
ARM GAS  /tmp/ccSpsmCg.s 			page 15


 799 045a 11010000 		.4byte	.LASF73
 800 045e 06       		.byte	0x6
 801 045f D4       		.byte	0xd4
 802 0460 9D060000 		.4byte	0x69d
 803 0464 43       		.byte	0x43
 804 0465 11       		.uleb128 0x11
 805 0466 5F6C6200 		.ascii	"_lb\000"
 806 046a 06       		.byte	0x6
 807 046b D7       		.byte	0xd7
 808 046c 65030000 		.4byte	0x365
 809 0470 44       		.byte	0x44
 810 0471 0D       		.uleb128 0xd
 811 0472 BD090000 		.4byte	.LASF74
 812 0476 06       		.byte	0x6
 813 0477 DA       		.byte	0xda
 814 0478 37000000 		.4byte	0x37
 815 047c 4C       		.byte	0x4c
 816 047d 0D       		.uleb128 0xd
 817 047e A8050000 		.4byte	.LASF75
 818 0482 06       		.byte	0x6
 819 0483 DB       		.byte	0xdb
 820 0484 E4000000 		.4byte	0xe4
 821 0488 50       		.byte	0x50
 822 0489 0D       		.uleb128 0xd
 823 048a 310A0000 		.4byte	.LASF76
 824 048e 06       		.byte	0x6
 825 048f DE       		.byte	0xde
 826 0490 D8040000 		.4byte	0x4d8
 827 0494 54       		.byte	0x54
 828 0495 0D       		.uleb128 0xd
 829 0496 31010000 		.4byte	.LASF77
 830 049a 06       		.byte	0x6
 831 049b E2       		.byte	0xe2
 832 049c A3010000 		.4byte	0x1a3
 833 04a0 58       		.byte	0x58
 834 04a1 0D       		.uleb128 0xd
 835 04a2 3E080000 		.4byte	.LASF78
 836 04a6 06       		.byte	0x6
 837 04a7 E4       		.byte	0xe4
 838 04a8 98010000 		.4byte	0x198
 839 04ac 5C       		.byte	0x5c
 840 04ad 0D       		.uleb128 0xd
 841 04ae 02060000 		.4byte	.LASF79
 842 04b2 06       		.byte	0x6
 843 04b3 E5       		.byte	0xe5
 844 04b4 37000000 		.4byte	0x37
 845 04b8 64       		.byte	0x64
 846 04b9 00       		.byte	0
 847 04ba 15       		.uleb128 0x15
 848 04bb 37000000 		.4byte	0x37
 849 04bf D8040000 		.4byte	0x4d8
 850 04c3 16       		.uleb128 0x16
 851 04c4 D8040000 		.4byte	0x4d8
 852 04c8 16       		.uleb128 0x16
 853 04c9 AE010000 		.4byte	0x1ae
 854 04cd 16       		.uleb128 0x16
 855 04ce BB010000 		.4byte	0x1bb
ARM GAS  /tmp/ccSpsmCg.s 			page 16


 856 04d2 16       		.uleb128 0x16
 857 04d3 37000000 		.4byte	0x37
 858 04d7 00       		.byte	0
 859 04d8 05       		.uleb128 0x5
 860 04d9 04       		.byte	0x4
 861 04da E3040000 		.4byte	0x4e3
 862 04de 0F       		.uleb128 0xf
 863 04df D8040000 		.4byte	0x4d8
 864 04e3 17       		.uleb128 0x17
 865 04e4 4E040000 		.4byte	.LASF80
 866 04e8 2804     		.2byte	0x428
 867 04ea 06       		.byte	0x6
 868 04eb 6002     		.2byte	0x260
 869 04ed 15060000 		.4byte	0x615
 870 04f1 18       		.uleb128 0x18
 871 04f2 4F060000 		.4byte	.LASF81
 872 04f6 06       		.byte	0x6
 873 04f7 6202     		.2byte	0x262
 874 04f9 37000000 		.4byte	0x37
 875 04fd 00       		.byte	0
 876 04fe 18       		.uleb128 0x18
 877 04ff E0040000 		.4byte	.LASF82
 878 0503 06       		.byte	0x6
 879 0504 6702     		.2byte	0x267
 880 0506 F4060000 		.4byte	0x6f4
 881 050a 04       		.byte	0x4
 882 050b 18       		.uleb128 0x18
 883 050c AB090000 		.4byte	.LASF83
 884 0510 06       		.byte	0x6
 885 0511 6702     		.2byte	0x267
 886 0513 F4060000 		.4byte	0x6f4
 887 0517 08       		.byte	0x8
 888 0518 18       		.uleb128 0x18
 889 0519 28080000 		.4byte	.LASF84
 890 051d 06       		.byte	0x6
 891 051e 6702     		.2byte	0x267
 892 0520 F4060000 		.4byte	0x6f4
 893 0524 0C       		.byte	0xc
 894 0525 18       		.uleb128 0x18
 895 0526 0A0B0000 		.4byte	.LASF85
 896 052a 06       		.byte	0x6
 897 052b 6902     		.2byte	0x269
 898 052d 37000000 		.4byte	0x37
 899 0531 10       		.byte	0x10
 900 0532 18       		.uleb128 0x18
 901 0533 F8060000 		.4byte	.LASF86
 902 0537 06       		.byte	0x6
 903 0538 6A02     		.2byte	0x26a
 904 053a D6080000 		.4byte	0x8d6
 905 053e 14       		.byte	0x14
 906 053f 18       		.uleb128 0x18
 907 0540 35040000 		.4byte	.LASF87
 908 0544 06       		.byte	0x6
 909 0545 6D02     		.2byte	0x26d
 910 0547 37000000 		.4byte	0x37
 911 054b 30       		.byte	0x30
 912 054c 18       		.uleb128 0x18
ARM GAS  /tmp/ccSpsmCg.s 			page 17


 913 054d 730B0000 		.4byte	.LASF88
 914 0551 06       		.byte	0x6
 915 0552 6E02     		.2byte	0x26e
 916 0554 EB080000 		.4byte	0x8eb
 917 0558 34       		.byte	0x34
 918 0559 18       		.uleb128 0x18
 919 055a F7050000 		.4byte	.LASF89
 920 055e 06       		.byte	0x6
 921 055f 7002     		.2byte	0x270
 922 0561 37000000 		.4byte	0x37
 923 0565 38       		.byte	0x38
 924 0566 18       		.uleb128 0x18
 925 0567 6A000000 		.4byte	.LASF90
 926 056b 06       		.byte	0x6
 927 056c 7202     		.2byte	0x272
 928 056e FC080000 		.4byte	0x8fc
 929 0572 3C       		.byte	0x3c
 930 0573 18       		.uleb128 0x18
 931 0574 8C0B0000 		.4byte	.LASF91
 932 0578 06       		.byte	0x6
 933 0579 7502     		.2byte	0x275
 934 057b 2B020000 		.4byte	0x22b
 935 057f 40       		.byte	0x40
 936 0580 18       		.uleb128 0x18
 937 0581 0F030000 		.4byte	.LASF92
 938 0585 06       		.byte	0x6
 939 0586 7602     		.2byte	0x276
 940 0588 37000000 		.4byte	0x37
 941 058c 44       		.byte	0x44
 942 058d 18       		.uleb128 0x18
 943 058e D0050000 		.4byte	.LASF93
 944 0592 06       		.byte	0x6
 945 0593 7702     		.2byte	0x277
 946 0595 2B020000 		.4byte	0x22b
 947 0599 48       		.byte	0x48
 948 059a 18       		.uleb128 0x18
 949 059b 5B070000 		.4byte	.LASF94
 950 059f 06       		.byte	0x6
 951 05a0 7802     		.2byte	0x278
 952 05a2 02090000 		.4byte	0x902
 953 05a6 4C       		.byte	0x4c
 954 05a7 18       		.uleb128 0x18
 955 05a8 A1000000 		.4byte	.LASF95
 956 05ac 06       		.byte	0x6
 957 05ad 7B02     		.2byte	0x27b
 958 05af 37000000 		.4byte	0x37
 959 05b3 50       		.byte	0x50
 960 05b4 18       		.uleb128 0x18
 961 05b5 B0050000 		.4byte	.LASF96
 962 05b9 06       		.byte	0x6
 963 05ba 7C02     		.2byte	0x27c
 964 05bc BB010000 		.4byte	0x1bb
 965 05c0 54       		.byte	0x54
 966 05c1 18       		.uleb128 0x18
 967 05c2 1D080000 		.4byte	.LASF97
 968 05c6 06       		.byte	0x6
 969 05c7 9F02     		.2byte	0x29f
ARM GAS  /tmp/ccSpsmCg.s 			page 18


 970 05c9 B4080000 		.4byte	0x8b4
 971 05cd 58       		.byte	0x58
 972 05ce 19       		.uleb128 0x19
 973 05cf 73080000 		.4byte	.LASF57
 974 05d3 06       		.byte	0x6
 975 05d4 A302     		.2byte	0x2a3
 976 05d6 48030000 		.4byte	0x348
 977 05da 4801     		.2byte	0x148
 978 05dc 19       		.uleb128 0x19
 979 05dd BD060000 		.4byte	.LASF98
 980 05e1 06       		.byte	0x6
 981 05e2 A402     		.2byte	0x2a4
 982 05e4 0A030000 		.4byte	0x30a
 983 05e8 4C01     		.2byte	0x14c
 984 05ea 19       		.uleb128 0x19
 985 05eb 9E050000 		.4byte	.LASF99
 986 05ef 06       		.byte	0x6
 987 05f0 A802     		.2byte	0x2a8
 988 05f2 13090000 		.4byte	0x913
 989 05f6 DC02     		.2byte	0x2dc
 990 05f8 19       		.uleb128 0x19
 991 05f9 33070000 		.4byte	.LASF100
 992 05fd 06       		.byte	0x6
 993 05fe AD02     		.2byte	0x2ad
 994 0600 B9060000 		.4byte	0x6b9
 995 0604 E002     		.2byte	0x2e0
 996 0606 19       		.uleb128 0x19
 997 0607 30000000 		.4byte	.LASF101
 998 060b 06       		.byte	0x6
 999 060c AF02     		.2byte	0x2af
 1000 060e 1F090000 		.4byte	0x91f
 1001 0612 EC02     		.2byte	0x2ec
 1002 0614 00       		.byte	0
 1003 0615 05       		.uleb128 0x5
 1004 0616 04       		.byte	0x4
 1005 0617 BA040000 		.4byte	0x4ba
 1006 061b 15       		.uleb128 0x15
 1007 061c 37000000 		.4byte	0x37
 1008 0620 39060000 		.4byte	0x639
 1009 0624 16       		.uleb128 0x16
 1010 0625 D8040000 		.4byte	0x4d8
 1011 0629 16       		.uleb128 0x16
 1012 062a AE010000 		.4byte	0x1ae
 1013 062e 16       		.uleb128 0x16
 1014 062f 39060000 		.4byte	0x639
 1015 0633 16       		.uleb128 0x16
 1016 0634 37000000 		.4byte	0x37
 1017 0638 00       		.byte	0
 1018 0639 05       		.uleb128 0x5
 1019 063a 04       		.byte	0x4
 1020 063b C8010000 		.4byte	0x1c8
 1021 063f 0F       		.uleb128 0xf
 1022 0640 39060000 		.4byte	0x639
 1023 0644 1A       		.uleb128 0x1a
 1024 0645 39060000 		.4byte	0x639
 1025 0649 05       		.uleb128 0x5
 1026 064a 04       		.byte	0x4
ARM GAS  /tmp/ccSpsmCg.s 			page 19


 1027 064b 1B060000 		.4byte	0x61b
 1028 064f 15       		.uleb128 0x15
 1029 0650 31010000 		.4byte	0x131
 1030 0654 6D060000 		.4byte	0x66d
 1031 0658 16       		.uleb128 0x16
 1032 0659 D8040000 		.4byte	0x4d8
 1033 065d 16       		.uleb128 0x16
 1034 065e AE010000 		.4byte	0x1ae
 1035 0662 16       		.uleb128 0x16
 1036 0663 31010000 		.4byte	0x131
 1037 0667 16       		.uleb128 0x16
 1038 0668 37000000 		.4byte	0x37
 1039 066c 00       		.byte	0
 1040 066d 05       		.uleb128 0x5
 1041 066e 04       		.byte	0x4
 1042 066f 4F060000 		.4byte	0x64f
 1043 0673 15       		.uleb128 0x15
 1044 0674 37000000 		.4byte	0x37
 1045 0678 87060000 		.4byte	0x687
 1046 067c 16       		.uleb128 0x16
 1047 067d D8040000 		.4byte	0x4d8
 1048 0681 16       		.uleb128 0x16
 1049 0682 AE010000 		.4byte	0x1ae
 1050 0686 00       		.byte	0
 1051 0687 05       		.uleb128 0x5
 1052 0688 04       		.byte	0x4
 1053 0689 73060000 		.4byte	0x673
 1054 068d 0A       		.uleb128 0xa
 1055 068e 50000000 		.4byte	0x50
 1056 0692 9D060000 		.4byte	0x69d
 1057 0696 0B       		.uleb128 0xb
 1058 0697 30000000 		.4byte	0x30
 1059 069b 02       		.byte	0x2
 1060 069c 00       		.byte	0
 1061 069d 0A       		.uleb128 0xa
 1062 069e 50000000 		.4byte	0x50
 1063 06a2 AD060000 		.4byte	0x6ad
 1064 06a6 0B       		.uleb128 0xb
 1065 06a7 30000000 		.4byte	0x30
 1066 06ab 00       		.byte	0
 1067 06ac 00       		.byte	0
 1068 06ad 07       		.uleb128 0x7
 1069 06ae 050A0000 		.4byte	.LASF102
 1070 06b2 06       		.byte	0x6
 1071 06b3 1F01     		.2byte	0x11f
 1072 06b5 90030000 		.4byte	0x390
 1073 06b9 1B       		.uleb128 0x1b
 1074 06ba 6B070000 		.4byte	.LASF103
 1075 06be 0C       		.byte	0xc
 1076 06bf 06       		.byte	0x6
 1077 06c0 2301     		.2byte	0x123
 1078 06c2 EE060000 		.4byte	0x6ee
 1079 06c6 18       		.uleb128 0x18
 1080 06c7 2B0A0000 		.4byte	.LASF37
 1081 06cb 06       		.byte	0x6
 1082 06cc 2501     		.2byte	0x125
 1083 06ce EE060000 		.4byte	0x6ee
ARM GAS  /tmp/ccSpsmCg.s 			page 20


 1084 06d2 00       		.byte	0
 1085 06d3 18       		.uleb128 0x18
 1086 06d4 24070000 		.4byte	.LASF104
 1087 06d8 06       		.byte	0x6
 1088 06d9 2601     		.2byte	0x126
 1089 06db 37000000 		.4byte	0x37
 1090 06df 04       		.byte	0x4
 1091 06e0 18       		.uleb128 0x18
 1092 06e1 65070000 		.4byte	.LASF105
 1093 06e5 06       		.byte	0x6
 1094 06e6 2701     		.2byte	0x127
 1095 06e8 F4060000 		.4byte	0x6f4
 1096 06ec 08       		.byte	0x8
 1097 06ed 00       		.byte	0
 1098 06ee 05       		.uleb128 0x5
 1099 06ef 04       		.byte	0x4
 1100 06f0 B9060000 		.4byte	0x6b9
 1101 06f4 05       		.uleb128 0x5
 1102 06f5 04       		.byte	0x4
 1103 06f6 AD060000 		.4byte	0x6ad
 1104 06fa 1B       		.uleb128 0x1b
 1105 06fb 96090000 		.4byte	.LASF106
 1106 06ff 0E       		.byte	0xe
 1107 0700 06       		.byte	0x6
 1108 0701 3F01     		.2byte	0x13f
 1109 0703 2F070000 		.4byte	0x72f
 1110 0707 18       		.uleb128 0x18
 1111 0708 E9080000 		.4byte	.LASF107
 1112 070c 06       		.byte	0x6
 1113 070d 4001     		.2byte	0x140
 1114 070f 2F070000 		.4byte	0x72f
 1115 0713 00       		.byte	0
 1116 0714 18       		.uleb128 0x18
 1117 0715 42010000 		.4byte	.LASF108
 1118 0719 06       		.byte	0x6
 1119 071a 4101     		.2byte	0x141
 1120 071c 2F070000 		.4byte	0x72f
 1121 0720 06       		.byte	0x6
 1122 0721 18       		.uleb128 0x18
 1123 0722 A20B0000 		.4byte	.LASF109
 1124 0726 06       		.byte	0x6
 1125 0727 4201     		.2byte	0x142
 1126 0729 69000000 		.4byte	0x69
 1127 072d 0C       		.byte	0xc
 1128 072e 00       		.byte	0
 1129 072f 0A       		.uleb128 0xa
 1130 0730 69000000 		.4byte	0x69
 1131 0734 3F070000 		.4byte	0x73f
 1132 0738 0B       		.uleb128 0xb
 1133 0739 30000000 		.4byte	0x30
 1134 073d 02       		.byte	0x2
 1135 073e 00       		.byte	0
 1136 073f 1C       		.uleb128 0x1c
 1137 0740 D0       		.byte	0xd0
 1138 0741 06       		.byte	0x6
 1139 0742 8002     		.2byte	0x280
 1140 0744 40080000 		.4byte	0x840
ARM GAS  /tmp/ccSpsmCg.s 			page 21


 1141 0748 18       		.uleb128 0x18
 1142 0749 97030000 		.4byte	.LASF110
 1143 074d 06       		.byte	0x6
 1144 074e 8202     		.2byte	0x282
 1145 0750 30000000 		.4byte	0x30
 1146 0754 00       		.byte	0
 1147 0755 18       		.uleb128 0x18
 1148 0756 D5090000 		.4byte	.LASF111
 1149 075a 06       		.byte	0x6
 1150 075b 8302     		.2byte	0x283
 1151 075d BB010000 		.4byte	0x1bb
 1152 0761 04       		.byte	0x4
 1153 0762 18       		.uleb128 0x18
 1154 0763 94000000 		.4byte	.LASF112
 1155 0767 06       		.byte	0x6
 1156 0768 8402     		.2byte	0x284
 1157 076a 40080000 		.4byte	0x840
 1158 076e 08       		.byte	0x8
 1159 076f 18       		.uleb128 0x18
 1160 0770 44030000 		.4byte	.LASF113
 1161 0774 06       		.byte	0x6
 1162 0775 8502     		.2byte	0x285
 1163 0777 41020000 		.4byte	0x241
 1164 077b 24       		.byte	0x24
 1165 077c 18       		.uleb128 0x18
 1166 077d 4C070000 		.4byte	.LASF114
 1167 0781 06       		.byte	0x6
 1168 0782 8602     		.2byte	0x286
 1169 0784 37000000 		.4byte	0x37
 1170 0788 48       		.byte	0x48
 1171 0789 18       		.uleb128 0x18
 1172 078a 47080000 		.4byte	.LASF115
 1173 078e 06       		.byte	0x6
 1174 078f 8702     		.2byte	0x287
 1175 0791 A6000000 		.4byte	0xa6
 1176 0795 50       		.byte	0x50
 1177 0796 18       		.uleb128 0x18
 1178 0797 1F0A0000 		.4byte	.LASF116
 1179 079b 06       		.byte	0x6
 1180 079c 8802     		.2byte	0x288
 1181 079e FA060000 		.4byte	0x6fa
 1182 07a2 58       		.byte	0x58
 1183 07a3 18       		.uleb128 0x18
 1184 07a4 7A0A0000 		.4byte	.LASF117
 1185 07a8 06       		.byte	0x6
 1186 07a9 8902     		.2byte	0x289
 1187 07ab 98010000 		.4byte	0x198
 1188 07af 68       		.byte	0x68
 1189 07b0 18       		.uleb128 0x18
 1190 07b1 2B090000 		.4byte	.LASF118
 1191 07b5 06       		.byte	0x6
 1192 07b6 8A02     		.2byte	0x28a
 1193 07b8 98010000 		.4byte	0x198
 1194 07bc 70       		.byte	0x70
 1195 07bd 18       		.uleb128 0x18
 1196 07be 30080000 		.4byte	.LASF119
 1197 07c2 06       		.byte	0x6
ARM GAS  /tmp/ccSpsmCg.s 			page 22


 1198 07c3 8B02     		.2byte	0x28b
 1199 07c5 98010000 		.4byte	0x198
 1200 07c9 78       		.byte	0x78
 1201 07ca 18       		.uleb128 0x18
 1202 07cb 20010000 		.4byte	.LASF120
 1203 07cf 06       		.byte	0x6
 1204 07d0 8C02     		.2byte	0x28c
 1205 07d2 50080000 		.4byte	0x850
 1206 07d6 80       		.byte	0x80
 1207 07d7 18       		.uleb128 0x18
 1208 07d8 7D060000 		.4byte	.LASF121
 1209 07dc 06       		.byte	0x6
 1210 07dd 8D02     		.2byte	0x28d
 1211 07df 60080000 		.4byte	0x860
 1212 07e3 88       		.byte	0x88
 1213 07e4 18       		.uleb128 0x18
 1214 07e5 5B0C0000 		.4byte	.LASF122
 1215 07e9 06       		.byte	0x6
 1216 07ea 8E02     		.2byte	0x28e
 1217 07ec 37000000 		.4byte	0x37
 1218 07f0 A0       		.byte	0xa0
 1219 07f1 18       		.uleb128 0x18
 1220 07f2 E5020000 		.4byte	.LASF123
 1221 07f6 06       		.byte	0x6
 1222 07f7 8F02     		.2byte	0x28f
 1223 07f9 98010000 		.4byte	0x198
 1224 07fd A4       		.byte	0xa4
 1225 07fe 18       		.uleb128 0x18
 1226 07ff E2090000 		.4byte	.LASF124
 1227 0803 06       		.byte	0x6
 1228 0804 9002     		.2byte	0x290
 1229 0806 98010000 		.4byte	0x198
 1230 080a AC       		.byte	0xac
 1231 080b 18       		.uleb128 0x18
 1232 080c E20B0000 		.4byte	.LASF125
 1233 0810 06       		.byte	0x6
 1234 0811 9102     		.2byte	0x291
 1235 0813 98010000 		.4byte	0x198
 1236 0817 B4       		.byte	0xb4
 1237 0818 18       		.uleb128 0x18
 1238 0819 04080000 		.4byte	.LASF126
 1239 081d 06       		.byte	0x6
 1240 081e 9202     		.2byte	0x292
 1241 0820 98010000 		.4byte	0x198
 1242 0824 BC       		.byte	0xbc
 1243 0825 18       		.uleb128 0x18
 1244 0826 00010000 		.4byte	.LASF127
 1245 082a 06       		.byte	0x6
 1246 082b 9302     		.2byte	0x293
 1247 082d 98010000 		.4byte	0x198
 1248 0831 C4       		.byte	0xc4
 1249 0832 18       		.uleb128 0x18
 1250 0833 E3070000 		.4byte	.LASF128
 1251 0837 06       		.byte	0x6
 1252 0838 9402     		.2byte	0x294
 1253 083a 37000000 		.4byte	0x37
 1254 083e CC       		.byte	0xcc
ARM GAS  /tmp/ccSpsmCg.s 			page 23


 1255 083f 00       		.byte	0
 1256 0840 0A       		.uleb128 0xa
 1257 0841 C1010000 		.4byte	0x1c1
 1258 0845 50080000 		.4byte	0x850
 1259 0849 0B       		.uleb128 0xb
 1260 084a 30000000 		.4byte	0x30
 1261 084e 19       		.byte	0x19
 1262 084f 00       		.byte	0
 1263 0850 0A       		.uleb128 0xa
 1264 0851 C1010000 		.4byte	0x1c1
 1265 0855 60080000 		.4byte	0x860
 1266 0859 0B       		.uleb128 0xb
 1267 085a 30000000 		.4byte	0x30
 1268 085e 07       		.byte	0x7
 1269 085f 00       		.byte	0
 1270 0860 0A       		.uleb128 0xa
 1271 0861 C1010000 		.4byte	0x1c1
 1272 0865 70080000 		.4byte	0x870
 1273 0869 0B       		.uleb128 0xb
 1274 086a 30000000 		.4byte	0x30
 1275 086e 17       		.byte	0x17
 1276 086f 00       		.byte	0
 1277 0870 1C       		.uleb128 0x1c
 1278 0871 F0       		.byte	0xf0
 1279 0872 06       		.byte	0x6
 1280 0873 9902     		.2byte	0x299
 1281 0875 94080000 		.4byte	0x894
 1282 0879 18       		.uleb128 0x18
 1283 087a 4C0B0000 		.4byte	.LASF129
 1284 087e 06       		.byte	0x6
 1285 087f 9C02     		.2byte	0x29c
 1286 0881 94080000 		.4byte	0x894
 1287 0885 00       		.byte	0
 1288 0886 18       		.uleb128 0x18
 1289 0887 3B070000 		.4byte	.LASF130
 1290 088b 06       		.byte	0x6
 1291 088c 9D02     		.2byte	0x29d
 1292 088e A4080000 		.4byte	0x8a4
 1293 0892 78       		.byte	0x78
 1294 0893 00       		.byte	0
 1295 0894 0A       		.uleb128 0xa
 1296 0895 8A030000 		.4byte	0x38a
 1297 0899 A4080000 		.4byte	0x8a4
 1298 089d 0B       		.uleb128 0xb
 1299 089e 30000000 		.4byte	0x30
 1300 08a2 1D       		.byte	0x1d
 1301 08a3 00       		.byte	0
 1302 08a4 0A       		.uleb128 0xa
 1303 08a5 30000000 		.4byte	0x30
 1304 08a9 B4080000 		.4byte	0x8b4
 1305 08ad 0B       		.uleb128 0xb
 1306 08ae 30000000 		.4byte	0x30
 1307 08b2 1D       		.byte	0x1d
 1308 08b3 00       		.byte	0
 1309 08b4 1D       		.uleb128 0x1d
 1310 08b5 F0       		.byte	0xf0
 1311 08b6 06       		.byte	0x6
ARM GAS  /tmp/ccSpsmCg.s 			page 24


 1312 08b7 7E02     		.2byte	0x27e
 1313 08b9 D6080000 		.4byte	0x8d6
 1314 08bd 1E       		.uleb128 0x1e
 1315 08be 4E040000 		.4byte	.LASF80
 1316 08c2 06       		.byte	0x6
 1317 08c3 9502     		.2byte	0x295
 1318 08c5 3F070000 		.4byte	0x73f
 1319 08c9 1E       		.uleb128 0x1e
 1320 08ca F3000000 		.4byte	.LASF131
 1321 08ce 06       		.byte	0x6
 1322 08cf 9E02     		.2byte	0x29e
 1323 08d1 70080000 		.4byte	0x870
 1324 08d5 00       		.byte	0
 1325 08d6 0A       		.uleb128 0xa
 1326 08d7 C1010000 		.4byte	0x1c1
 1327 08db E6080000 		.4byte	0x8e6
 1328 08df 0B       		.uleb128 0xb
 1329 08e0 30000000 		.4byte	0x30
 1330 08e4 18       		.byte	0x18
 1331 08e5 00       		.byte	0
 1332 08e6 06       		.uleb128 0x6
 1333 08e7 07000000 		.4byte	.LASF133
 1334 08eb 05       		.uleb128 0x5
 1335 08ec 04       		.byte	0x4
 1336 08ed E6080000 		.4byte	0x8e6
 1337 08f1 1F       		.uleb128 0x1f
 1338 08f2 FC080000 		.4byte	0x8fc
 1339 08f6 16       		.uleb128 0x16
 1340 08f7 D8040000 		.4byte	0x4d8
 1341 08fb 00       		.byte	0
 1342 08fc 05       		.uleb128 0x5
 1343 08fd 04       		.byte	0x4
 1344 08fe F1080000 		.4byte	0x8f1
 1345 0902 05       		.uleb128 0x5
 1346 0903 04       		.byte	0x4
 1347 0904 2B020000 		.4byte	0x22b
 1348 0908 1F       		.uleb128 0x1f
 1349 0909 13090000 		.4byte	0x913
 1350 090d 16       		.uleb128 0x16
 1351 090e 37000000 		.4byte	0x37
 1352 0912 00       		.byte	0
 1353 0913 05       		.uleb128 0x5
 1354 0914 04       		.byte	0x4
 1355 0915 19090000 		.4byte	0x919
 1356 0919 05       		.uleb128 0x5
 1357 091a 04       		.byte	0x4
 1358 091b 08090000 		.4byte	0x908
 1359 091f 0A       		.uleb128 0xa
 1360 0920 AD060000 		.4byte	0x6ad
 1361 0924 2F090000 		.4byte	0x92f
 1362 0928 0B       		.uleb128 0xb
 1363 0929 30000000 		.4byte	0x30
 1364 092d 02       		.byte	0x2
 1365 092e 00       		.byte	0
 1366 092f 20       		.uleb128 0x20
 1367 0930 03030000 		.4byte	.LASF134
 1368 0934 06       		.byte	0x6
ARM GAS  /tmp/ccSpsmCg.s 			page 25


 1369 0935 2E03     		.2byte	0x32e
 1370 0937 D8040000 		.4byte	0x4d8
 1371 093b 20       		.uleb128 0x20
 1372 093c 5D040000 		.4byte	.LASF135
 1373 0940 06       		.byte	0x6
 1374 0941 2F03     		.2byte	0x32f
 1375 0943 DE040000 		.4byte	0x4de
 1376 0947 21       		.uleb128 0x21
 1377 0948 A30A0000 		.4byte	.LASF136
 1378 094c 07       		.byte	0x7
 1379 094d 63       		.byte	0x63
 1380 094e BB010000 		.4byte	0x1bb
 1381 0952 0A       		.uleb128 0xa
 1382 0953 3F060000 		.4byte	0x63f
 1383 0957 5D090000 		.4byte	0x95d
 1384 095b 22       		.uleb128 0x22
 1385 095c 00       		.byte	0
 1386 095d 0F       		.uleb128 0xf
 1387 095e 52090000 		.4byte	0x952
 1388 0962 21       		.uleb128 0x21
 1389 0963 D60A0000 		.4byte	.LASF137
 1390 0967 08       		.byte	0x8
 1391 0968 14       		.byte	0x14
 1392 0969 5D090000 		.4byte	0x95d
 1393 096d 21       		.uleb128 0x21
 1394 096e AF010000 		.4byte	.LASF138
 1395 0972 08       		.byte	0x8
 1396 0973 15       		.byte	0x15
 1397 0974 37000000 		.4byte	0x37
 1398 0978 02       		.uleb128 0x2
 1399 0979 C6030000 		.4byte	.LASF139
 1400 097d 09       		.byte	0x9
 1401 097e 18       		.byte	0x18
 1402 097f 45000000 		.4byte	0x45
 1403 0983 02       		.uleb128 0x2
 1404 0984 62090000 		.4byte	.LASF140
 1405 0988 09       		.byte	0x9
 1406 0989 24       		.byte	0x24
 1407 098a 5E000000 		.4byte	0x5e
 1408 098e 02       		.uleb128 0x2
 1409 098f 8C000000 		.4byte	.LASF141
 1410 0993 09       		.byte	0x9
 1411 0994 2C       		.byte	0x2c
 1412 0995 70000000 		.4byte	0x70
 1413 0999 1A       		.uleb128 0x1a
 1414 099a 8E090000 		.4byte	0x98e
 1415 099e 02       		.uleb128 0x2
 1416 099f 830B0000 		.4byte	.LASF142
 1417 09a3 09       		.byte	0x9
 1418 09a4 30       		.byte	0x30
 1419 09a5 82000000 		.4byte	0x82
 1420 09a9 02       		.uleb128 0x2
 1421 09aa 910A0000 		.4byte	.LASF143
 1422 09ae 09       		.byte	0x9
 1423 09af 3C       		.byte	0x3c
 1424 09b0 9B000000 		.4byte	0x9b
 1425 09b4 02       		.uleb128 0x2
ARM GAS  /tmp/ccSpsmCg.s 			page 26


 1426 09b5 2A010000 		.4byte	.LASF144
 1427 09b9 0A       		.byte	0xa
 1428 09ba 28       		.byte	0x28
 1429 09bb AD000000 		.4byte	0xad
 1430 09bf 02       		.uleb128 0x2
 1431 09c0 C2070000 		.4byte	.LASF145
 1432 09c4 0B       		.byte	0xb
 1433 09c5 71       		.byte	0x71
 1434 09c6 CE000000 		.4byte	0xce
 1435 09ca 02       		.uleb128 0x2
 1436 09cb 39090000 		.4byte	.LASF146
 1437 09cf 0B       		.byte	0xb
 1438 09d0 76       		.byte	0x76
 1439 09d1 D9000000 		.4byte	0xd9
 1440 09d5 02       		.uleb128 0x2
 1441 09d6 CB070000 		.4byte	.LASF147
 1442 09da 0B       		.byte	0xb
 1443 09db 8B       		.byte	0x8b
 1444 09dc BB010000 		.4byte	0x1bb
 1445 09e0 02       		.uleb128 0x2
 1446 09e1 CA050000 		.4byte	.LASF148
 1447 09e5 0B       		.byte	0xb
 1448 09e6 9B       		.byte	0x9b
 1449 09e7 10010000 		.4byte	0x110
 1450 09eb 02       		.uleb128 0x2
 1451 09ec 9F080000 		.4byte	.LASF149
 1452 09f0 0B       		.byte	0xb
 1453 09f1 AD       		.byte	0xad
 1454 09f2 26010000 		.4byte	0x126
 1455 09f6 02       		.uleb128 0x2
 1456 09f7 DD000000 		.4byte	.LASF150
 1457 09fb 0B       		.byte	0xb
 1458 09fc B1       		.byte	0xb1
 1459 09fd EF000000 		.4byte	0xef
 1460 0a01 02       		.uleb128 0x2
 1461 0a02 87010000 		.4byte	.LASF151
 1462 0a06 0B       		.byte	0xb
 1463 0a07 B5       		.byte	0xb5
 1464 0a08 FA000000 		.4byte	0xfa
 1465 0a0c 02       		.uleb128 0x2
 1466 0a0d 450C0000 		.4byte	.LASF152
 1467 0a11 0B       		.byte	0xb
 1468 0a12 B9       		.byte	0xb9
 1469 0a13 05010000 		.4byte	0x105
 1470 0a17 02       		.uleb128 0x2
 1471 0a18 A5080000 		.4byte	.LASF153
 1472 0a1c 0B       		.byte	0xb
 1473 0a1d CD       		.byte	0xcd
 1474 0a1e 1B010000 		.4byte	0x11b
 1475 0a22 02       		.uleb128 0x2
 1476 0a23 E3000000 		.4byte	.LASF154
 1477 0a27 0B       		.byte	0xb
 1478 0a28 D2       		.byte	0xd2
 1479 0a29 B0010000 		.4byte	0x1b0
 1480 0a2d 21       		.uleb128 0x21
 1481 0a2e 1C050000 		.4byte	.LASF155
 1482 0a32 0C       		.byte	0xc
ARM GAS  /tmp/ccSpsmCg.s 			page 27


 1483 0a33 9A       		.byte	0x9a
 1484 0a34 7B000000 		.4byte	0x7b
 1485 0a38 21       		.uleb128 0x21
 1486 0a39 12050000 		.4byte	.LASF156
 1487 0a3d 0C       		.byte	0xc
 1488 0a3e 9B       		.byte	0x9b
 1489 0a3f 37000000 		.4byte	0x37
 1490 0a43 0A       		.uleb128 0xa
 1491 0a44 BB010000 		.4byte	0x1bb
 1492 0a48 530A0000 		.4byte	0xa53
 1493 0a4c 0B       		.uleb128 0xb
 1494 0a4d 30000000 		.4byte	0x30
 1495 0a51 01       		.byte	0x1
 1496 0a52 00       		.byte	0
 1497 0a53 21       		.uleb128 0x21
 1498 0a54 56050000 		.4byte	.LASF157
 1499 0a58 0C       		.byte	0xc
 1500 0a59 9E       		.byte	0x9e
 1501 0a5a 430A0000 		.4byte	0xa43
 1502 0a5e 10       		.uleb128 0x10
 1503 0a5f C6060000 		.4byte	.LASF158
 1504 0a63 58       		.byte	0x58
 1505 0a64 0D       		.byte	0xd
 1506 0a65 1B       		.byte	0x1b
 1507 0a66 370B0000 		.4byte	0xb37
 1508 0a6a 0D       		.uleb128 0xd
 1509 0a6b F5080000 		.4byte	.LASF159
 1510 0a6f 0D       		.byte	0xd
 1511 0a70 1D       		.byte	0x1d
 1512 0a71 F6090000 		.4byte	0x9f6
 1513 0a75 00       		.byte	0
 1514 0a76 0D       		.uleb128 0xd
 1515 0a77 100C0000 		.4byte	.LASF160
 1516 0a7b 0D       		.byte	0xd
 1517 0a7c 1E       		.byte	0x1e
 1518 0a7d E0090000 		.4byte	0x9e0
 1519 0a81 02       		.byte	0x2
 1520 0a82 0D       		.uleb128 0xd
 1521 0a83 3C0B0000 		.4byte	.LASF161
 1522 0a87 0D       		.byte	0xd
 1523 0a88 1F       		.byte	0x1f
 1524 0a89 170A0000 		.4byte	0xa17
 1525 0a8d 04       		.byte	0x4
 1526 0a8e 0D       		.uleb128 0xd
 1527 0a8f 96080000 		.4byte	.LASF162
 1528 0a93 0D       		.byte	0xd
 1529 0a94 20       		.byte	0x20
 1530 0a95 220A0000 		.4byte	0xa22
 1531 0a99 08       		.byte	0x8
 1532 0a9a 0D       		.uleb128 0xd
 1533 0a9b D8030000 		.4byte	.LASF163
 1534 0a9f 0D       		.byte	0xd
 1535 0aa0 21       		.byte	0x21
 1536 0aa1 010A0000 		.4byte	0xa01
 1537 0aa5 0A       		.byte	0xa
 1538 0aa6 0D       		.uleb128 0xd
 1539 0aa7 B8050000 		.4byte	.LASF164
ARM GAS  /tmp/ccSpsmCg.s 			page 28


 1540 0aab 0D       		.byte	0xd
 1541 0aac 22       		.byte	0x22
 1542 0aad 0C0A0000 		.4byte	0xa0c
 1543 0ab1 0C       		.byte	0xc
 1544 0ab2 0D       		.uleb128 0xd
 1545 0ab3 1B040000 		.4byte	.LASF165
 1546 0ab7 0D       		.byte	0xd
 1547 0ab8 23       		.byte	0x23
 1548 0ab9 F6090000 		.4byte	0x9f6
 1549 0abd 0E       		.byte	0xe
 1550 0abe 0D       		.uleb128 0xd
 1551 0abf 0A060000 		.4byte	.LASF166
 1552 0ac3 0D       		.byte	0xd
 1553 0ac4 24       		.byte	0x24
 1554 0ac5 EB090000 		.4byte	0x9eb
 1555 0ac9 10       		.byte	0x10
 1556 0aca 0D       		.uleb128 0xd
 1557 0acb BF080000 		.4byte	.LASF167
 1558 0acf 0D       		.byte	0xd
 1559 0ad0 32       		.byte	0x32
 1560 0ad1 B4090000 		.4byte	0x9b4
 1561 0ad5 18       		.byte	0x18
 1562 0ad6 0D       		.uleb128 0xd
 1563 0ad7 CE030000 		.4byte	.LASF168
 1564 0adb 0D       		.byte	0xd
 1565 0adc 33       		.byte	0x33
 1566 0add 7B000000 		.4byte	0x7b
 1567 0ae1 20       		.byte	0x20
 1568 0ae2 0D       		.uleb128 0xd
 1569 0ae3 450A0000 		.4byte	.LASF169
 1570 0ae7 0D       		.byte	0xd
 1571 0ae8 34       		.byte	0x34
 1572 0ae9 B4090000 		.4byte	0x9b4
 1573 0aed 28       		.byte	0x28
 1574 0aee 0D       		.uleb128 0xd
 1575 0aef 73060000 		.4byte	.LASF170
 1576 0af3 0D       		.byte	0xd
 1577 0af4 35       		.byte	0x35
 1578 0af5 7B000000 		.4byte	0x7b
 1579 0af9 30       		.byte	0x30
 1580 0afa 0D       		.uleb128 0xd
 1581 0afb 3A050000 		.4byte	.LASF171
 1582 0aff 0D       		.byte	0xd
 1583 0b00 36       		.byte	0x36
 1584 0b01 B4090000 		.4byte	0x9b4
 1585 0b05 38       		.byte	0x38
 1586 0b06 0D       		.uleb128 0xd
 1587 0b07 DF030000 		.4byte	.LASF172
 1588 0b0b 0D       		.byte	0xd
 1589 0b0c 37       		.byte	0x37
 1590 0b0d 7B000000 		.4byte	0x7b
 1591 0b11 40       		.byte	0x40
 1592 0b12 0D       		.uleb128 0xd
 1593 0b13 DA060000 		.4byte	.LASF173
 1594 0b17 0D       		.byte	0xd
 1595 0b18 38       		.byte	0x38
 1596 0b19 CA090000 		.4byte	0x9ca
ARM GAS  /tmp/ccSpsmCg.s 			page 29


 1597 0b1d 44       		.byte	0x44
 1598 0b1e 0D       		.uleb128 0xd
 1599 0b1f 57000000 		.4byte	.LASF174
 1600 0b23 0D       		.byte	0xd
 1601 0b24 39       		.byte	0x39
 1602 0b25 BF090000 		.4byte	0x9bf
 1603 0b29 48       		.byte	0x48
 1604 0b2a 0D       		.uleb128 0xd
 1605 0b2b E9030000 		.4byte	.LASF175
 1606 0b2f 0D       		.byte	0xd
 1607 0b30 3A       		.byte	0x3a
 1608 0b31 370B0000 		.4byte	0xb37
 1609 0b35 4C       		.byte	0x4c
 1610 0b36 00       		.byte	0
 1611 0b37 0A       		.uleb128 0xa
 1612 0b38 7B000000 		.4byte	0x7b
 1613 0b3c 470B0000 		.4byte	0xb47
 1614 0b40 0B       		.uleb128 0xb
 1615 0b41 30000000 		.4byte	0x30
 1616 0b45 01       		.byte	0x1
 1617 0b46 00       		.byte	0
 1618 0b47 02       		.uleb128 0x2
 1619 0b48 D3070000 		.4byte	.LASF176
 1620 0b4c 0E       		.byte	0xe
 1621 0b4d 45       		.byte	0x45
 1622 0b4e 9E090000 		.4byte	0x99e
 1623 0b52 02       		.uleb128 0x2
 1624 0b53 3D0A0000 		.4byte	.LASF177
 1625 0b57 0E       		.byte	0xe
 1626 0b58 48       		.byte	0x48
 1627 0b59 78090000 		.4byte	0x978
 1628 0b5d 02       		.uleb128 0x2
 1629 0b5e 53030000 		.4byte	.LASF178
 1630 0b62 0E       		.byte	0xe
 1631 0b63 49       		.byte	0x49
 1632 0b64 78090000 		.4byte	0x978
 1633 0b68 02       		.uleb128 0x2
 1634 0b69 32050000 		.4byte	.LASF179
 1635 0b6d 0E       		.byte	0xe
 1636 0b6e 4A       		.byte	0x4a
 1637 0b6f 78090000 		.4byte	0x978
 1638 0b73 02       		.uleb128 0x2
 1639 0b74 B3090000 		.4byte	.LASF180
 1640 0b78 0E       		.byte	0xe
 1641 0b79 4B       		.byte	0x4b
 1642 0b7a 78090000 		.4byte	0x978
 1643 0b7e 02       		.uleb128 0x2
 1644 0b7f 4F000000 		.4byte	.LASF181
 1645 0b83 0E       		.byte	0xe
 1646 0b84 4C       		.byte	0x4c
 1647 0b85 9E090000 		.4byte	0x99e
 1648 0b89 02       		.uleb128 0x2
 1649 0b8a 7F090000 		.4byte	.LASF182
 1650 0b8e 0E       		.byte	0xe
 1651 0b8f 4D       		.byte	0x4d
 1652 0b90 8E090000 		.4byte	0x98e
 1653 0b94 02       		.uleb128 0x2
ARM GAS  /tmp/ccSpsmCg.s 			page 30


 1654 0b95 F3030000 		.4byte	.LASF183
 1655 0b99 0E       		.byte	0xe
 1656 0b9a 4F       		.byte	0x4f
 1657 0b9b 9E090000 		.4byte	0x99e
 1658 0b9f 02       		.uleb128 0x2
 1659 0ba0 48050000 		.4byte	.LASF184
 1660 0ba4 0E       		.byte	0xe
 1661 0ba5 51       		.byte	0x51
 1662 0ba6 8E090000 		.4byte	0x98e
 1663 0baa 02       		.uleb128 0x2
 1664 0bab 26000000 		.4byte	.LASF185
 1665 0baf 0F       		.byte	0xf
 1666 0bb0 33       		.byte	0x33
 1667 0bb1 9E090000 		.4byte	0x99e
 1668 0bb5 1A       		.uleb128 0x1a
 1669 0bb6 AA0B0000 		.4byte	0xbaa
 1670 0bba 02       		.uleb128 0x2
 1671 0bbb B6080000 		.4byte	.LASF186
 1672 0bbf 0F       		.byte	0xf
 1673 0bc0 3F       		.byte	0x3f
 1674 0bc1 C50B0000 		.4byte	0xbc5
 1675 0bc5 10       		.uleb128 0x10
 1676 0bc6 2F060000 		.4byte	.LASF187
 1677 0bca 50       		.byte	0x50
 1678 0bcb 10       		.byte	0x10
 1679 0bcc C2       		.byte	0xc2
 1680 0bcd E30C0000 		.4byte	0xce3
 1681 0bd1 0D       		.uleb128 0xd
 1682 0bd2 FC020000 		.4byte	.LASF188
 1683 0bd6 10       		.byte	0x10
 1684 0bd7 C3       		.byte	0xc3
 1685 0bd8 EE0C0000 		.4byte	0xcee
 1686 0bdc 00       		.byte	0
 1687 0bdd 0D       		.uleb128 0xd
 1688 0bde 2C030000 		.4byte	.LASF189
 1689 0be2 10       		.byte	0x10
 1690 0be3 C5       		.byte	0xc5
 1691 0be4 EE0C0000 		.4byte	0xcee
 1692 0be8 04       		.byte	0x4
 1693 0be9 0D       		.uleb128 0xd
 1694 0bea BB040000 		.4byte	.LASF190
 1695 0bee 10       		.byte	0x10
 1696 0bef C7       		.byte	0xc7
 1697 0bf0 7E0B0000 		.4byte	0xb7e
 1698 0bf4 08       		.byte	0x8
 1699 0bf5 0D       		.uleb128 0xd
 1700 0bf6 43000000 		.4byte	.LASF191
 1701 0bfa 10       		.byte	0x10
 1702 0bfb C8       		.byte	0xc8
 1703 0bfc 2C0F0000 		.4byte	0xf2c
 1704 0c00 0C       		.byte	0xc
 1705 0c01 0D       		.uleb128 0xd
 1706 0c02 DD020000 		.4byte	.LASF192
 1707 0c06 10       		.byte	0x10
 1708 0c07 CA       		.byte	0xca
 1709 0c08 EE0C0000 		.4byte	0xcee
 1710 0c0c 10       		.byte	0x10
ARM GAS  /tmp/ccSpsmCg.s 			page 31


 1711 0c0d 0D       		.uleb128 0xd
 1712 0c0e 5A090000 		.4byte	.LASF193
 1713 0c12 10       		.byte	0x10
 1714 0c13 CB       		.byte	0xcb
 1715 0c14 EE0C0000 		.4byte	0xcee
 1716 0c18 14       		.byte	0x14
 1717 0c19 0D       		.uleb128 0xd
 1718 0c1a 3E0C0000 		.4byte	.LASF194
 1719 0c1e 10       		.byte	0x10
 1720 0c1f D2       		.byte	0xd2
 1721 0c20 39060000 		.4byte	0x639
 1722 0c24 18       		.byte	0x18
 1723 0c25 0D       		.uleb128 0xd
 1724 0c26 F30B0000 		.4byte	.LASF195
 1725 0c2a 10       		.byte	0x10
 1726 0c2b D8       		.byte	0xd8
 1727 0c2c 71110000 		.4byte	0x1171
 1728 0c30 1C       		.byte	0x1c
 1729 0c31 0D       		.uleb128 0xd
 1730 0c32 7C0C0000 		.4byte	.LASF196
 1731 0c36 10       		.byte	0x10
 1732 0c37 DD       		.byte	0xdd
 1733 0c38 5D0B0000 		.4byte	0xb5d
 1734 0c3c 20       		.byte	0x20
 1735 0c3d 0D       		.uleb128 0xd
 1736 0c3e 57010000 		.4byte	.LASF197
 1737 0c42 10       		.byte	0x10
 1738 0c43 E1       		.byte	0xe1
 1739 0c44 520B0000 		.4byte	0xb52
 1740 0c48 21       		.byte	0x21
 1741 0c49 0D       		.uleb128 0xd
 1742 0c4a F1070000 		.4byte	.LASF198
 1743 0c4e 10       		.byte	0x10
 1744 0c4f E6       		.byte	0xe6
 1745 0c50 680B0000 		.4byte	0xb68
 1746 0c54 22       		.byte	0x22
 1747 0c55 0D       		.uleb128 0xd
 1748 0c56 B0030000 		.4byte	.LASF199
 1749 0c5a 10       		.byte	0x10
 1750 0c5b EC       		.byte	0xec
 1751 0c5c 730B0000 		.4byte	0xb73
 1752 0c60 23       		.byte	0x23
 1753 0c61 0D       		.uleb128 0xd
 1754 0c62 7B080000 		.4byte	.LASF200
 1755 0c66 10       		.byte	0x10
 1756 0c67 F3       		.byte	0xf3
 1757 0c68 B50B0000 		.4byte	0xbb5
 1758 0c6c 24       		.byte	0x24
 1759 0c6d 23       		.uleb128 0x23
 1760 0c6e 705F7500 		.ascii	"p_u\000"
 1761 0c72 10       		.byte	0x10
 1762 0c73 3101     		.2byte	0x131
 1763 0c75 AC100000 		.4byte	0x10ac
 1764 0c79 28       		.byte	0x28
 1765 0c7a 18       		.uleb128 0x18
 1766 0c7b 93070000 		.4byte	.LASF201
 1767 0c7f 10       		.byte	0x10
ARM GAS  /tmp/ccSpsmCg.s 			page 32


 1768 0c80 3601     		.2byte	0x136
 1769 0c82 F40C0000 		.4byte	0xcf4
 1770 0c86 2C       		.byte	0x2c
 1771 0c87 18       		.uleb128 0x18
 1772 0c88 74000000 		.4byte	.LASF202
 1773 0c8c 10       		.byte	0x10
 1774 0c8d 3C01     		.2byte	0x13c
 1775 0c8f 180D0000 		.4byte	0xd18
 1776 0c93 30       		.byte	0x30
 1777 0c94 18       		.uleb128 0x18
 1778 0c95 6F0C0000 		.4byte	.LASF203
 1779 0c99 10       		.byte	0x10
 1780 0c9a 4001     		.2byte	0x140
 1781 0c9c 890B0000 		.4byte	0xb89
 1782 0ca0 38       		.byte	0x38
 1783 0ca1 18       		.uleb128 0x18
 1784 0ca2 72050000 		.4byte	.LASF204
 1785 0ca6 10       		.byte	0x10
 1786 0ca7 4601     		.2byte	0x146
 1787 0ca9 940B0000 		.4byte	0xb94
 1788 0cad 3C       		.byte	0x3c
 1789 0cae 18       		.uleb128 0x18
 1790 0caf 6C030000 		.4byte	.LASF205
 1791 0cb3 10       		.byte	0x10
 1792 0cb4 4D01     		.2byte	0x14d
 1793 0cb6 6B110000 		.4byte	0x116b
 1794 0cba 40       		.byte	0x40
 1795 0cbb 18       		.uleb128 0x18
 1796 0cbc D2080000 		.4byte	.LASF206
 1797 0cc0 10       		.byte	0x10
 1798 0cc1 5101     		.2byte	0x151
 1799 0cc3 7E0B0000 		.4byte	0xb7e
 1800 0cc7 44       		.byte	0x44
 1801 0cc8 18       		.uleb128 0x18
 1802 0cc9 DB070000 		.4byte	.LASF207
 1803 0ccd 10       		.byte	0x10
 1804 0cce 5801     		.2byte	0x158
 1805 0cd0 AE010000 		.4byte	0x1ae
 1806 0cd4 48       		.byte	0x48
 1807 0cd5 18       		.uleb128 0x18
 1808 0cd6 84070000 		.4byte	.LASF208
 1809 0cda 10       		.byte	0x10
 1810 0cdb 6201     		.2byte	0x162
 1811 0cdd 37000000 		.4byte	0x37
 1812 0ce1 4C       		.byte	0x4c
 1813 0ce2 00       		.byte	0
 1814 0ce3 02       		.uleb128 0x2
 1815 0ce4 60080000 		.4byte	.LASF209
 1816 0ce8 0F       		.byte	0xf
 1817 0ce9 44       		.byte	0x44
 1818 0cea EE0C0000 		.4byte	0xcee
 1819 0cee 05       		.uleb128 0x5
 1820 0cef 04       		.byte	0x4
 1821 0cf0 BA0B0000 		.4byte	0xbba
 1822 0cf4 02       		.uleb128 0x2
 1823 0cf5 76030000 		.4byte	.LASF210
 1824 0cf9 0F       		.byte	0xf
ARM GAS  /tmp/ccSpsmCg.s 			page 33


 1825 0cfa 49       		.byte	0x49
 1826 0cfb FF0C0000 		.4byte	0xcff
 1827 0cff 10       		.uleb128 0x10
 1828 0d00 9A060000 		.4byte	.LASF211
 1829 0d04 04       		.byte	0x4
 1830 0d05 10       		.byte	0x10
 1831 0d06 B0       		.byte	0xb0
 1832 0d07 180D0000 		.4byte	0xd18
 1833 0d0b 0D       		.uleb128 0xd
 1834 0d0c FC020000 		.4byte	.LASF188
 1835 0d10 10       		.byte	0x10
 1836 0d11 B1       		.byte	0xb1
 1837 0d12 EE0C0000 		.4byte	0xcee
 1838 0d16 00       		.byte	0
 1839 0d17 00       		.byte	0
 1840 0d18 02       		.uleb128 0x2
 1841 0d19 5C030000 		.4byte	.LASF212
 1842 0d1d 0F       		.byte	0xf
 1843 0d1e 50       		.byte	0x50
 1844 0d1f 230D0000 		.4byte	0xd23
 1845 0d23 10       		.uleb128 0x10
 1846 0d24 85090000 		.4byte	.LASF213
 1847 0d28 08       		.byte	0x8
 1848 0d29 10       		.byte	0x10
 1849 0d2a B7       		.byte	0xb7
 1850 0d2b 480D0000 		.4byte	0xd48
 1851 0d2f 0D       		.uleb128 0xd
 1852 0d30 FC020000 		.4byte	.LASF188
 1853 0d34 10       		.byte	0x10
 1854 0d35 B8       		.byte	0xb8
 1855 0d36 EE0C0000 		.4byte	0xcee
 1856 0d3a 00       		.byte	0
 1857 0d3b 0D       		.uleb128 0xd
 1858 0d3c 2C030000 		.4byte	.LASF189
 1859 0d40 10       		.byte	0x10
 1860 0d41 B9       		.byte	0xb9
 1861 0d42 EE0C0000 		.4byte	0xcee
 1862 0d46 04       		.byte	0x4
 1863 0d47 00       		.byte	0
 1864 0d48 02       		.uleb128 0x2
 1865 0d49 66060000 		.4byte	.LASF214
 1866 0d4d 0F       		.byte	0xf
 1867 0d4e 57       		.byte	0x57
 1868 0d4f 530D0000 		.4byte	0xd53
 1869 0d53 1B       		.uleb128 0x1b
 1870 0d54 89050000 		.4byte	.LASF215
 1871 0d58 1C       		.byte	0x1c
 1872 0d59 10       		.byte	0x10
 1873 0d5a 9001     		.2byte	0x190
 1874 0d5c AF0D0000 		.4byte	0xdaf
 1875 0d60 18       		.uleb128 0x18
 1876 0d61 170A0000 		.4byte	.LASF216
 1877 0d65 10       		.byte	0x10
 1878 0d66 9101     		.2byte	0x191
 1879 0d68 180D0000 		.4byte	0xd18
 1880 0d6c 00       		.byte	0
 1881 0d6d 18       		.uleb128 0x18
ARM GAS  /tmp/ccSpsmCg.s 			page 34


 1882 0d6e 750C0000 		.4byte	.LASF217
 1883 0d72 10       		.byte	0x10
 1884 0d73 9201     		.2byte	0x192
 1885 0d75 7E0B0000 		.4byte	0xb7e
 1886 0d79 08       		.byte	0x8
 1887 0d7a 18       		.uleb128 0x18
 1888 0d7b 86000000 		.4byte	.LASF218
 1889 0d7f 10       		.byte	0x10
 1890 0d80 9401     		.2byte	0x194
 1891 0d82 2C0F0000 		.4byte	0xf2c
 1892 0d86 0C       		.byte	0xc
 1893 0d87 18       		.uleb128 0x18
 1894 0d88 55040000 		.4byte	.LASF219
 1895 0d8c 10       		.byte	0x10
 1896 0d8d 9701     		.2byte	0x197
 1897 0d8f EE0C0000 		.4byte	0xcee
 1898 0d93 10       		.byte	0x10
 1899 0d94 18       		.uleb128 0x18
 1900 0d95 590A0000 		.4byte	.LASF220
 1901 0d99 10       		.byte	0x10
 1902 0d9a 9801     		.2byte	0x198
 1903 0d9c EE0C0000 		.4byte	0xcee
 1904 0da0 14       		.byte	0x14
 1905 0da1 18       		.uleb128 0x18
 1906 0da2 170C0000 		.4byte	.LASF221
 1907 0da6 10       		.byte	0x10
 1908 0da7 9B01     		.2byte	0x19b
 1909 0da9 EE0C0000 		.4byte	0xcee
 1910 0dad 18       		.byte	0x18
 1911 0dae 00       		.byte	0
 1912 0daf 02       		.uleb128 0x2
 1913 0db0 B4000000 		.4byte	.LASF222
 1914 0db4 0F       		.byte	0xf
 1915 0db5 5C       		.byte	0x5c
 1916 0db6 BA0D0000 		.4byte	0xdba
 1917 0dba 05       		.uleb128 0x5
 1918 0dbb 04       		.byte	0x4
 1919 0dbc C00D0000 		.4byte	0xdc0
 1920 0dc0 1F       		.uleb128 0x1f
 1921 0dc1 CB0D0000 		.4byte	0xdcb
 1922 0dc5 16       		.uleb128 0x16
 1923 0dc6 AE010000 		.4byte	0x1ae
 1924 0dca 00       		.byte	0
 1925 0dcb 02       		.uleb128 0x2
 1926 0dcc 56060000 		.4byte	.LASF223
 1927 0dd0 0F       		.byte	0xf
 1928 0dd1 61       		.byte	0x61
 1929 0dd2 D60D0000 		.4byte	0xdd6
 1930 0dd6 1B       		.uleb128 0x1b
 1931 0dd7 14090000 		.4byte	.LASF224
 1932 0ddb 14       		.byte	0x14
 1933 0ddc 10       		.byte	0x10
 1934 0ddd 6B01     		.2byte	0x16b
 1935 0ddf 250E0000 		.4byte	0xe25
 1936 0de3 18       		.uleb128 0x18
 1937 0de4 2B070000 		.4byte	.LASF225
 1938 0de8 10       		.byte	0x10
ARM GAS  /tmp/ccSpsmCg.s 			page 35


 1939 0de9 6C01     		.2byte	0x16c
 1940 0deb 77110000 		.4byte	0x1177
 1941 0def 00       		.byte	0
 1942 0df0 18       		.uleb128 0x18
 1943 0df1 44070000 		.4byte	.LASF226
 1944 0df5 10       		.byte	0x10
 1945 0df6 6D01     		.2byte	0x16d
 1946 0df8 77110000 		.4byte	0x1177
 1947 0dfc 04       		.byte	0x4
 1948 0dfd 18       		.uleb128 0x18
 1949 0dfe FC080000 		.4byte	.LASF227
 1950 0e02 10       		.byte	0x10
 1951 0e03 6E01     		.2byte	0x16e
 1952 0e05 AA0B0000 		.4byte	0xbaa
 1953 0e09 08       		.byte	0x8
 1954 0e0a 18       		.uleb128 0x18
 1955 0e0b 4E050000 		.4byte	.LASF228
 1956 0e0f 10       		.byte	0x10
 1957 0e10 6F01     		.2byte	0x16f
 1958 0e12 AF0D0000 		.4byte	0xdaf
 1959 0e16 0C       		.byte	0xc
 1960 0e17 18       		.uleb128 0x18
 1961 0e18 50010000 		.4byte	.LASF229
 1962 0e1c 10       		.byte	0x10
 1963 0e1d 7101     		.2byte	0x171
 1964 0e1f AE010000 		.4byte	0x1ae
 1965 0e23 10       		.byte	0x10
 1966 0e24 00       		.byte	0
 1967 0e25 02       		.uleb128 0x2
 1968 0e26 39060000 		.4byte	.LASF230
 1969 0e2a 0F       		.byte	0xf
 1970 0e2b 66       		.byte	0x66
 1971 0e2c 300E0000 		.4byte	0xe30
 1972 0e30 1B       		.uleb128 0x1b
 1973 0e31 C6000000 		.4byte	.LASF231
 1974 0e35 10       		.byte	0x10
 1975 0e36 10       		.byte	0x10
 1976 0e37 7B01     		.2byte	0x17b
 1977 0e39 720E0000 		.4byte	0xe72
 1978 0e3d 18       		.uleb128 0x18
 1979 0e3e 2B070000 		.4byte	.LASF225
 1980 0e42 10       		.byte	0x10
 1981 0e43 7C01     		.2byte	0x17c
 1982 0e45 77110000 		.4byte	0x1177
 1983 0e49 00       		.byte	0
 1984 0e4a 18       		.uleb128 0x18
 1985 0e4b 44070000 		.4byte	.LASF226
 1986 0e4f 10       		.byte	0x10
 1987 0e50 7E01     		.2byte	0x17e
 1988 0e52 77110000 		.4byte	0x1177
 1989 0e56 04       		.byte	0x4
 1990 0e57 18       		.uleb128 0x18
 1991 0e58 FC080000 		.4byte	.LASF227
 1992 0e5c 10       		.byte	0x10
 1993 0e5d 8001     		.2byte	0x180
 1994 0e5f AA0B0000 		.4byte	0xbaa
 1995 0e63 08       		.byte	0x8
ARM GAS  /tmp/ccSpsmCg.s 			page 36


 1996 0e64 18       		.uleb128 0x18
 1997 0e65 4E0A0000 		.4byte	.LASF232
 1998 0e69 10       		.byte	0x10
 1999 0e6a 8201     		.2byte	0x182
 2000 0e6c B50B0000 		.4byte	0xbb5
 2001 0e70 0C       		.byte	0xc
 2002 0e71 00       		.byte	0
 2003 0e72 02       		.uleb128 0x2
 2004 0e73 70040000 		.4byte	.LASF233
 2005 0e77 0F       		.byte	0xf
 2006 0e78 6B       		.byte	0x6b
 2007 0e79 7D0E0000 		.4byte	0xe7d
 2008 0e7d 1B       		.uleb128 0x1b
 2009 0e7e C60A0000 		.4byte	.LASF234
 2010 0e82 04       		.byte	0x4
 2011 0e83 10       		.byte	0x10
 2012 0e84 A201     		.2byte	0x1a2
 2013 0e86 980E0000 		.4byte	0xe98
 2014 0e8a 18       		.uleb128 0x18
 2015 0e8b 23040000 		.4byte	.LASF235
 2016 0e8f 10       		.byte	0x10
 2017 0e90 AA01     		.2byte	0x1aa
 2018 0e92 44060000 		.4byte	0x644
 2019 0e96 00       		.byte	0
 2020 0e97 00       		.byte	0
 2021 0e98 02       		.uleb128 0x2
 2022 0e99 C40B0000 		.4byte	.LASF236
 2023 0e9d 0F       		.byte	0xf
 2024 0e9e 70       		.byte	0x70
 2025 0e9f A30E0000 		.4byte	0xea3
 2026 0ea3 17       		.uleb128 0x17
 2027 0ea4 690B0000 		.4byte	.LASF237
 2028 0ea8 6802     		.2byte	0x268
 2029 0eaa 10       		.byte	0x10
 2030 0eab C201     		.2byte	0x1c2
 2031 0ead FF0E0000 		.4byte	0xeff
 2032 0eb1 18       		.uleb128 0x18
 2033 0eb2 370A0000 		.4byte	.LASF238
 2034 0eb6 10       		.byte	0x10
 2035 0eb7 C601     		.2byte	0x1c6
 2036 0eb9 480D0000 		.4byte	0xd48
 2037 0ebd 00       		.byte	0
 2038 0ebe 18       		.uleb128 0x18
 2039 0ebf 030B0000 		.4byte	.LASF239
 2040 0ec3 10       		.byte	0x10
 2041 0ec4 CA01     		.2byte	0x1ca
 2042 0ec6 250E0000 		.4byte	0xe25
 2043 0eca 1C       		.byte	0x1c
 2044 0ecb 23       		.uleb128 0x23
 2045 0ecc 64626700 		.ascii	"dbg\000"
 2046 0ed0 10       		.byte	0x10
 2047 0ed1 CE01     		.2byte	0x1ce
 2048 0ed3 720E0000 		.4byte	0xe72
 2049 0ed7 2C       		.byte	0x2c
 2050 0ed8 18       		.uleb128 0x18
 2051 0ed9 F1090000 		.4byte	.LASF240
 2052 0edd 10       		.byte	0x10
ARM GAS  /tmp/ccSpsmCg.s 			page 37


 2053 0ede D201     		.2byte	0x1d2
 2054 0ee0 BA0B0000 		.4byte	0xbba
 2055 0ee4 30       		.byte	0x30
 2056 0ee5 23       		.uleb128 0x23
 2057 0ee6 746D00   		.ascii	"tm\000"
 2058 0ee9 10       		.byte	0x10
 2059 0eea D701     		.2byte	0x1d7
 2060 0eec A1100000 		.4byte	0x10a1
 2061 0ef0 80       		.byte	0x80
 2062 0ef1 18       		.uleb128 0x18
 2063 0ef2 9D070000 		.4byte	.LASF241
 2064 0ef6 10       		.byte	0x10
 2065 0ef7 E301     		.2byte	0x1e3
 2066 0ef9 7D110000 		.4byte	0x117d
 2067 0efd 88       		.byte	0x88
 2068 0efe 00       		.byte	0
 2069 0eff 20       		.uleb128 0x20
 2070 0f00 71070000 		.4byte	.LASF242
 2071 0f04 11       		.byte	0x11
 2072 0f05 A706     		.2byte	0x6a7
 2073 0f07 99090000 		.4byte	0x999
 2074 0f0b 21       		.uleb128 0x21
 2075 0f0c 12060000 		.4byte	.LASF243
 2076 0f10 12       		.byte	0x12
 2077 0f11 4C       		.byte	0x4c
 2078 0f12 9E090000 		.4byte	0x99e
 2079 0f16 02       		.uleb128 0x2
 2080 0f17 85030000 		.4byte	.LASF244
 2081 0f1b 13       		.byte	0x13
 2082 0f1c 65       		.byte	0x65
 2083 0f1d AE010000 		.4byte	0x1ae
 2084 0f21 02       		.uleb128 0x2
 2085 0f22 07050000 		.4byte	.LASF245
 2086 0f26 13       		.byte	0x13
 2087 0f27 6D       		.byte	0x6d
 2088 0f28 A9090000 		.4byte	0x9a9
 2089 0f2c 10       		.uleb128 0x10
 2090 0f2d FF030000 		.4byte	.LASF246
 2091 0f31 04       		.byte	0x4
 2092 0f32 13       		.byte	0x13
 2093 0f33 89       		.byte	0x89
 2094 0f34 450F0000 		.4byte	0xf45
 2095 0f38 11       		.uleb128 0x11
 2096 0f39 72313300 		.ascii	"r13\000"
 2097 0f3d 13       		.byte	0x13
 2098 0f3e 8A       		.byte	0x8a
 2099 0f3f 86100000 		.4byte	0x1086
 2100 0f43 00       		.byte	0
 2101 0f44 00       		.byte	0
 2102 0f45 10       		.uleb128 0x10
 2103 0f46 DD080000 		.4byte	.LASF247
 2104 0f4a 64       		.byte	0x64
 2105 0f4b 14       		.byte	0x14
 2106 0f4c F4       		.byte	0xf4
 2107 0f4d 86100000 		.4byte	0x1086
 2108 0f51 11       		.uleb128 0x11
 2109 0f52 73313600 		.ascii	"s16\000"
ARM GAS  /tmp/ccSpsmCg.s 			page 38


 2110 0f56 14       		.byte	0x14
 2111 0f57 F6       		.byte	0xf6
 2112 0f58 160F0000 		.4byte	0xf16
 2113 0f5c 00       		.byte	0
 2114 0f5d 11       		.uleb128 0x11
 2115 0f5e 73313700 		.ascii	"s17\000"
 2116 0f62 14       		.byte	0x14
 2117 0f63 F7       		.byte	0xf7
 2118 0f64 160F0000 		.4byte	0xf16
 2119 0f68 04       		.byte	0x4
 2120 0f69 11       		.uleb128 0x11
 2121 0f6a 73313800 		.ascii	"s18\000"
 2122 0f6e 14       		.byte	0x14
 2123 0f6f F8       		.byte	0xf8
 2124 0f70 160F0000 		.4byte	0xf16
 2125 0f74 08       		.byte	0x8
 2126 0f75 11       		.uleb128 0x11
 2127 0f76 73313900 		.ascii	"s19\000"
 2128 0f7a 14       		.byte	0x14
 2129 0f7b F9       		.byte	0xf9
 2130 0f7c 160F0000 		.4byte	0xf16
 2131 0f80 0C       		.byte	0xc
 2132 0f81 11       		.uleb128 0x11
 2133 0f82 73323000 		.ascii	"s20\000"
 2134 0f86 14       		.byte	0x14
 2135 0f87 FA       		.byte	0xfa
 2136 0f88 160F0000 		.4byte	0xf16
 2137 0f8c 10       		.byte	0x10
 2138 0f8d 11       		.uleb128 0x11
 2139 0f8e 73323100 		.ascii	"s21\000"
 2140 0f92 14       		.byte	0x14
 2141 0f93 FB       		.byte	0xfb
 2142 0f94 160F0000 		.4byte	0xf16
 2143 0f98 14       		.byte	0x14
 2144 0f99 11       		.uleb128 0x11
 2145 0f9a 73323200 		.ascii	"s22\000"
 2146 0f9e 14       		.byte	0x14
 2147 0f9f FC       		.byte	0xfc
 2148 0fa0 160F0000 		.4byte	0xf16
 2149 0fa4 18       		.byte	0x18
 2150 0fa5 11       		.uleb128 0x11
 2151 0fa6 73323300 		.ascii	"s23\000"
 2152 0faa 14       		.byte	0x14
 2153 0fab FD       		.byte	0xfd
 2154 0fac 160F0000 		.4byte	0xf16
 2155 0fb0 1C       		.byte	0x1c
 2156 0fb1 11       		.uleb128 0x11
 2157 0fb2 73323400 		.ascii	"s24\000"
 2158 0fb6 14       		.byte	0x14
 2159 0fb7 FE       		.byte	0xfe
 2160 0fb8 160F0000 		.4byte	0xf16
 2161 0fbc 20       		.byte	0x20
 2162 0fbd 11       		.uleb128 0x11
 2163 0fbe 73323500 		.ascii	"s25\000"
 2164 0fc2 14       		.byte	0x14
 2165 0fc3 FF       		.byte	0xff
 2166 0fc4 160F0000 		.4byte	0xf16
ARM GAS  /tmp/ccSpsmCg.s 			page 39


 2167 0fc8 24       		.byte	0x24
 2168 0fc9 23       		.uleb128 0x23
 2169 0fca 73323600 		.ascii	"s26\000"
 2170 0fce 14       		.byte	0x14
 2171 0fcf 0001     		.2byte	0x100
 2172 0fd1 160F0000 		.4byte	0xf16
 2173 0fd5 28       		.byte	0x28
 2174 0fd6 23       		.uleb128 0x23
 2175 0fd7 73323700 		.ascii	"s27\000"
 2176 0fdb 14       		.byte	0x14
 2177 0fdc 0101     		.2byte	0x101
 2178 0fde 160F0000 		.4byte	0xf16
 2179 0fe2 2C       		.byte	0x2c
 2180 0fe3 23       		.uleb128 0x23
 2181 0fe4 73323800 		.ascii	"s28\000"
 2182 0fe8 14       		.byte	0x14
 2183 0fe9 0201     		.2byte	0x102
 2184 0feb 160F0000 		.4byte	0xf16
 2185 0fef 30       		.byte	0x30
 2186 0ff0 23       		.uleb128 0x23
 2187 0ff1 73323900 		.ascii	"s29\000"
 2188 0ff5 14       		.byte	0x14
 2189 0ff6 0301     		.2byte	0x103
 2190 0ff8 160F0000 		.4byte	0xf16
 2191 0ffc 34       		.byte	0x34
 2192 0ffd 23       		.uleb128 0x23
 2193 0ffe 73333000 		.ascii	"s30\000"
 2194 1002 14       		.byte	0x14
 2195 1003 0401     		.2byte	0x104
 2196 1005 160F0000 		.4byte	0xf16
 2197 1009 38       		.byte	0x38
 2198 100a 23       		.uleb128 0x23
 2199 100b 73333100 		.ascii	"s31\000"
 2200 100f 14       		.byte	0x14
 2201 1010 0501     		.2byte	0x105
 2202 1012 160F0000 		.4byte	0xf16
 2203 1016 3C       		.byte	0x3c
 2204 1017 23       		.uleb128 0x23
 2205 1018 723400   		.ascii	"r4\000"
 2206 101b 14       		.byte	0x14
 2207 101c 0701     		.2byte	0x107
 2208 101e 160F0000 		.4byte	0xf16
 2209 1022 40       		.byte	0x40
 2210 1023 23       		.uleb128 0x23
 2211 1024 723500   		.ascii	"r5\000"
 2212 1027 14       		.byte	0x14
 2213 1028 0801     		.2byte	0x108
 2214 102a 160F0000 		.4byte	0xf16
 2215 102e 44       		.byte	0x44
 2216 102f 23       		.uleb128 0x23
 2217 1030 723600   		.ascii	"r6\000"
 2218 1033 14       		.byte	0x14
 2219 1034 0901     		.2byte	0x109
 2220 1036 160F0000 		.4byte	0xf16
 2221 103a 48       		.byte	0x48
 2222 103b 23       		.uleb128 0x23
 2223 103c 723700   		.ascii	"r7\000"
ARM GAS  /tmp/ccSpsmCg.s 			page 40


 2224 103f 14       		.byte	0x14
 2225 1040 0A01     		.2byte	0x10a
 2226 1042 160F0000 		.4byte	0xf16
 2227 1046 4C       		.byte	0x4c
 2228 1047 23       		.uleb128 0x23
 2229 1048 723800   		.ascii	"r8\000"
 2230 104b 14       		.byte	0x14
 2231 104c 0B01     		.2byte	0x10b
 2232 104e 160F0000 		.4byte	0xf16
 2233 1052 50       		.byte	0x50
 2234 1053 23       		.uleb128 0x23
 2235 1054 723900   		.ascii	"r9\000"
 2236 1057 14       		.byte	0x14
 2237 1058 0C01     		.2byte	0x10c
 2238 105a 160F0000 		.4byte	0xf16
 2239 105e 54       		.byte	0x54
 2240 105f 23       		.uleb128 0x23
 2241 1060 72313000 		.ascii	"r10\000"
 2242 1064 14       		.byte	0x14
 2243 1065 0D01     		.2byte	0x10d
 2244 1067 160F0000 		.4byte	0xf16
 2245 106b 58       		.byte	0x58
 2246 106c 23       		.uleb128 0x23
 2247 106d 72313100 		.ascii	"r11\000"
 2248 1071 14       		.byte	0x14
 2249 1072 0E01     		.2byte	0x10e
 2250 1074 160F0000 		.4byte	0xf16
 2251 1078 5C       		.byte	0x5c
 2252 1079 23       		.uleb128 0x23
 2253 107a 6C7200   		.ascii	"lr\000"
 2254 107d 14       		.byte	0x14
 2255 107e 0F01     		.2byte	0x10f
 2256 1080 160F0000 		.4byte	0xf16
 2257 1084 60       		.byte	0x60
 2258 1085 00       		.byte	0
 2259 1086 05       		.uleb128 0x5
 2260 1087 04       		.byte	0x4
 2261 1088 450F0000 		.4byte	0xf45
 2262 108c 0C       		.uleb128 0xc
 2263 108d 04       		.byte	0x4
 2264 108e 15       		.byte	0x15
 2265 108f 38       		.byte	0x38
 2266 1090 A1100000 		.4byte	0x10a1
 2267 1094 0D       		.uleb128 0xd
 2268 1095 59080000 		.4byte	.LASF248
 2269 1099 15       		.byte	0x15
 2270 109a 3C       		.byte	0x3c
 2271 109b 470B0000 		.4byte	0xb47
 2272 109f 00       		.byte	0
 2273 10a0 00       		.byte	0
 2274 10a1 02       		.uleb128 0x2
 2275 10a2 610A0000 		.4byte	.LASF249
 2276 10a6 15       		.byte	0x15
 2277 10a7 3D       		.byte	0x3d
 2278 10a8 8C100000 		.4byte	0x108c
 2279 10ac 08       		.uleb128 0x8
 2280 10ad 04       		.byte	0x4
ARM GAS  /tmp/ccSpsmCg.s 			page 41


 2281 10ae 10       		.byte	0x10
 2282 10af FA       		.byte	0xfa
 2283 10b0 09110000 		.4byte	0x1109
 2284 10b4 1E       		.uleb128 0x1e
 2285 10b5 9B0B0000 		.4byte	.LASF250
 2286 10b9 10       		.byte	0x10
 2287 10ba 0101     		.2byte	0x101
 2288 10bc 890B0000 		.4byte	0xb89
 2289 10c0 1E       		.uleb128 0x1e
 2290 10c1 65010000 		.4byte	.LASF251
 2291 10c5 10       		.byte	0x10
 2292 10c6 0801     		.2byte	0x108
 2293 10c8 890B0000 		.4byte	0xb89
 2294 10cc 1E       		.uleb128 0x1e
 2295 10cd CD040000 		.4byte	.LASF252
 2296 10d1 10       		.byte	0x10
 2297 10d2 0F01     		.2byte	0x10f
 2298 10d4 AE010000 		.4byte	0x1ae
 2299 10d8 1E       		.uleb128 0x1e
 2300 10d9 07040000 		.4byte	.LASF253
 2301 10dd 10       		.byte	0x10
 2302 10de 1601     		.2byte	0x116
 2303 10e0 09110000 		.4byte	0x1109
 2304 10e4 1E       		.uleb128 0x1e
 2305 10e5 680C0000 		.4byte	.LASF254
 2306 10e9 10       		.byte	0x10
 2307 10ea 1E01     		.2byte	0x11e
 2308 10ec 34110000 		.4byte	0x1134
 2309 10f0 1E       		.uleb128 0x1e
 2310 10f1 7D050000 		.4byte	.LASF255
 2311 10f5 10       		.byte	0x10
 2312 10f6 2701     		.2byte	0x127
 2313 10f8 6B110000 		.4byte	0x116b
 2314 10fc 1E       		.uleb128 0x1e
 2315 10fd 80010000 		.4byte	.LASF256
 2316 1101 10       		.byte	0x10
 2317 1102 2F01     		.2byte	0x12f
 2318 1104 940B0000 		.4byte	0xb94
 2319 1108 00       		.byte	0
 2320 1109 05       		.uleb128 0x5
 2321 110a 04       		.byte	0x4
 2322 110b E30C0000 		.4byte	0xce3
 2323 110f 10       		.uleb128 0x10
 2324 1110 22060000 		.4byte	.LASF257
 2325 1114 0C       		.byte	0xc
 2326 1115 16       		.byte	0x16
 2327 1116 34       		.byte	0x34
 2328 1117 34110000 		.4byte	0x1134
 2329 111b 0D       		.uleb128 0xd
 2330 111c 720A0000 		.4byte	.LASF258
 2331 1120 16       		.byte	0x16
 2332 1121 35       		.byte	0x35
 2333 1122 180D0000 		.4byte	0xd18
 2334 1126 00       		.byte	0
 2335 1127 0D       		.uleb128 0xd
 2336 1128 25090000 		.4byte	.LASF259
 2337 112c 16       		.byte	0x16
ARM GAS  /tmp/ccSpsmCg.s 			page 42


 2338 112d 37       		.byte	0x37
 2339 112e 9F0B0000 		.4byte	0xb9f
 2340 1132 08       		.byte	0x8
 2341 1133 00       		.byte	0
 2342 1134 05       		.uleb128 0x5
 2343 1135 04       		.byte	0x4
 2344 1136 0F110000 		.4byte	0x110f
 2345 113a 10       		.uleb128 0x10
 2346 113b 9A0A0000 		.4byte	.LASF260
 2347 113f 10       		.byte	0x10
 2348 1140 17       		.byte	0x17
 2349 1141 39       		.byte	0x39
 2350 1142 6B110000 		.4byte	0x116b
 2351 1146 0D       		.uleb128 0xd
 2352 1147 1C070000 		.4byte	.LASF261
 2353 114b 17       		.byte	0x17
 2354 114c 3A       		.byte	0x3a
 2355 114d 180D0000 		.4byte	0xd18
 2356 1151 00       		.byte	0
 2357 1152 0D       		.uleb128 0xd
 2358 1153 48010000 		.4byte	.LASF262
 2359 1157 17       		.byte	0x17
 2360 1158 3C       		.byte	0x3c
 2361 1159 EE0C0000 		.4byte	0xcee
 2362 115d 08       		.byte	0x8
 2363 115e 0D       		.uleb128 0xd
 2364 115f 4B0C0000 		.4byte	.LASF263
 2365 1163 17       		.byte	0x17
 2366 1164 3E       		.byte	0x3e
 2367 1165 AF120000 		.4byte	0x12af
 2368 1169 0C       		.byte	0xc
 2369 116a 00       		.byte	0
 2370 116b 05       		.uleb128 0x5
 2371 116c 04       		.byte	0x4
 2372 116d 3A110000 		.4byte	0x113a
 2373 1171 05       		.uleb128 0x5
 2374 1172 04       		.byte	0x4
 2375 1173 210F0000 		.4byte	0xf21
 2376 1177 05       		.uleb128 0x5
 2377 1178 04       		.byte	0x4
 2378 1179 CB0D0000 		.4byte	0xdcb
 2379 117d 0A       		.uleb128 0xa
 2380 117e 210F0000 		.4byte	0xf21
 2381 1182 8D110000 		.4byte	0x118d
 2382 1186 0B       		.uleb128 0xb
 2383 1187 30000000 		.4byte	0x30
 2384 118b 3B       		.byte	0x3b
 2385 118c 00       		.byte	0
 2386 118d 24       		.uleb128 0x24
 2387 118e 636800   		.ascii	"ch\000"
 2388 1191 10       		.byte	0x10
 2389 1192 0902     		.2byte	0x209
 2390 1194 980E0000 		.4byte	0xe98
 2391 1198 0C       		.uleb128 0xc
 2392 1199 16       		.byte	0x16
 2393 119a 18       		.byte	0x18
 2394 119b 34       		.byte	0x34
ARM GAS  /tmp/ccSpsmCg.s 			page 43


 2395 119c 79120000 		.4byte	0x1279
 2396 11a0 0D       		.uleb128 0xd
 2397 11a1 35000000 		.4byte	.LASF264
 2398 11a5 18       		.byte	0x18
 2399 11a6 35       		.byte	0x35
 2400 11a7 79120000 		.4byte	0x1279
 2401 11ab 00       		.byte	0
 2402 11ac 0D       		.uleb128 0xd
 2403 11ad E7050000 		.4byte	.LASF265
 2404 11b1 18       		.byte	0x18
 2405 11b2 36       		.byte	0x36
 2406 11b3 78090000 		.4byte	0x978
 2407 11b7 04       		.byte	0x4
 2408 11b8 0D       		.uleb128 0xd
 2409 11b9 DA0B0000 		.4byte	.LASF266
 2410 11bd 18       		.byte	0x18
 2411 11be 37       		.byte	0x37
 2412 11bf 78090000 		.4byte	0x978
 2413 11c3 05       		.byte	0x5
 2414 11c4 0D       		.uleb128 0xd
 2415 11c5 11070000 		.4byte	.LASF267
 2416 11c9 18       		.byte	0x18
 2417 11ca 38       		.byte	0x38
 2418 11cb 83090000 		.4byte	0x983
 2419 11cf 06       		.byte	0x6
 2420 11d0 0D       		.uleb128 0xd
 2421 11d1 37010000 		.4byte	.LASF268
 2422 11d5 18       		.byte	0x18
 2423 11d6 39       		.byte	0x39
 2424 11d7 78090000 		.4byte	0x978
 2425 11db 08       		.byte	0x8
 2426 11dc 0D       		.uleb128 0xd
 2427 11dd F8070000 		.4byte	.LASF269
 2428 11e1 18       		.byte	0x18
 2429 11e2 3A       		.byte	0x3a
 2430 11e3 78090000 		.4byte	0x978
 2431 11e7 09       		.byte	0x9
 2432 11e8 0D       		.uleb128 0xd
 2433 11e9 93010000 		.4byte	.LASF270
 2434 11ed 18       		.byte	0x18
 2435 11ee 3B       		.byte	0x3b
 2436 11ef 78090000 		.4byte	0x978
 2437 11f3 0A       		.byte	0xa
 2438 11f4 0D       		.uleb128 0xd
 2439 11f5 26050000 		.4byte	.LASF271
 2440 11f9 18       		.byte	0x18
 2441 11fa 3C       		.byte	0x3c
 2442 11fb 78090000 		.4byte	0x978
 2443 11ff 0B       		.byte	0xb
 2444 1200 0D       		.uleb128 0xd
 2445 1201 A9000000 		.4byte	.LASF272
 2446 1205 18       		.byte	0x18
 2447 1206 3D       		.byte	0x3d
 2448 1207 78090000 		.4byte	0x978
 2449 120b 0C       		.byte	0xc
 2450 120c 0D       		.uleb128 0xd
 2451 120d E7040000 		.4byte	.LASF273
ARM GAS  /tmp/ccSpsmCg.s 			page 44


 2452 1211 18       		.byte	0x18
 2453 1212 3E       		.byte	0x3e
 2454 1213 78090000 		.4byte	0x978
 2455 1217 0D       		.byte	0xd
 2456 1218 0D       		.uleb128 0xd
 2457 1219 ED0A0000 		.4byte	.LASF274
 2458 121d 18       		.byte	0x18
 2459 121e 3F       		.byte	0x3f
 2460 121f 78090000 		.4byte	0x978
 2461 1223 0E       		.byte	0xe
 2462 1224 0D       		.uleb128 0xd
 2463 1225 1A000000 		.4byte	.LASF275
 2464 1229 18       		.byte	0x18
 2465 122a 40       		.byte	0x40
 2466 122b 78090000 		.4byte	0x978
 2467 122f 0F       		.byte	0xf
 2468 1230 0D       		.uleb128 0xd
 2469 1231 530B0000 		.4byte	.LASF276
 2470 1235 18       		.byte	0x18
 2471 1236 41       		.byte	0x41
 2472 1237 78090000 		.4byte	0x978
 2473 123b 10       		.byte	0x10
 2474 123c 0D       		.uleb128 0xd
 2475 123d 19030000 		.4byte	.LASF277
 2476 1241 18       		.byte	0x18
 2477 1242 43       		.byte	0x43
 2478 1243 78090000 		.4byte	0x978
 2479 1247 11       		.byte	0x11
 2480 1248 0D       		.uleb128 0xd
 2481 1249 9E090000 		.4byte	.LASF278
 2482 124d 18       		.byte	0x18
 2483 124e 44       		.byte	0x44
 2484 124f 78090000 		.4byte	0x978
 2485 1253 12       		.byte	0x12
 2486 1254 0D       		.uleb128 0xd
 2487 1255 82080000 		.4byte	.LASF279
 2488 1259 18       		.byte	0x18
 2489 125a 45       		.byte	0x45
 2490 125b 78090000 		.4byte	0x978
 2491 125f 13       		.byte	0x13
 2492 1260 0D       		.uleb128 0xd
 2493 1261 CB060000 		.4byte	.LASF280
 2494 1265 18       		.byte	0x18
 2495 1266 46       		.byte	0x46
 2496 1267 78090000 		.4byte	0x978
 2497 126b 14       		.byte	0x14
 2498 126c 0D       		.uleb128 0xd
 2499 126d D4040000 		.4byte	.LASF281
 2500 1271 18       		.byte	0x18
 2501 1272 48       		.byte	0x48
 2502 1273 78090000 		.4byte	0x978
 2503 1277 15       		.byte	0x15
 2504 1278 00       		.byte	0
 2505 1279 0A       		.uleb128 0xa
 2506 127a C1010000 		.4byte	0x1c1
 2507 127e 89120000 		.4byte	0x1289
 2508 1282 0B       		.uleb128 0xb
ARM GAS  /tmp/ccSpsmCg.s 			page 45


 2509 1283 30000000 		.4byte	0x30
 2510 1287 03       		.byte	0x3
 2511 1288 00       		.byte	0
 2512 1289 02       		.uleb128 0x2
 2513 128a D00B0000 		.4byte	.LASF282
 2514 128e 18       		.byte	0x18
 2515 128f 49       		.byte	0x49
 2516 1290 98110000 		.4byte	0x1198
 2517 1294 0F       		.uleb128 0xf
 2518 1295 89120000 		.4byte	0x1289
 2519 1299 21       		.uleb128 0x21
 2520 129a 61000000 		.4byte	.LASF283
 2521 129e 18       		.byte	0x18
 2522 129f 6E       		.byte	0x6e
 2523 12a0 94120000 		.4byte	0x1294
 2524 12a4 02       		.uleb128 0x2
 2525 12a5 340B0000 		.4byte	.LASF284
 2526 12a9 17       		.byte	0x17
 2527 12aa 34       		.byte	0x34
 2528 12ab 3A110000 		.4byte	0x113a
 2529 12af 05       		.uleb128 0x5
 2530 12b0 04       		.byte	0x4
 2531 12b1 A4120000 		.4byte	0x12a4
 2532 12b5 25       		.uleb128 0x25
 2533 12b6 FD040000 		.4byte	.LASF285
 2534 12ba 01       		.byte	0x1
 2535 12bb A4       		.byte	0xa4
 2536 12bc 37000000 		.4byte	0x37
 2537 12c0 00000000 		.4byte	.LFB225
 2538 12c4 04000000 		.4byte	.LFE225-.LFB225
 2539 12c8 01       		.uleb128 0x1
 2540 12c9 9C       		.byte	0x9c
 2541 12ca E8120000 		.4byte	0x12e8
 2542 12ce 26       		.uleb128 0x26
 2543 12cf 7200     		.ascii	"r\000"
 2544 12d1 01       		.byte	0x1
 2545 12d2 A4       		.byte	0xa4
 2546 12d3 D8040000 		.4byte	0x4d8
 2547 12d7 00000000 		.4byte	.LLST11
 2548 12db 27       		.uleb128 0x27
 2549 12dc 666400   		.ascii	"fd\000"
 2550 12df 01       		.byte	0x1
 2551 12e0 A4       		.byte	0xa4
 2552 12e1 37000000 		.4byte	0x37
 2553 12e5 01       		.uleb128 0x1
 2554 12e6 51       		.byte	0x51
 2555 12e7 00       		.byte	0
 2556 12e8 25       		.uleb128 0x25
 2557 12e9 CC090000 		.4byte	.LASF286
 2558 12ed 01       		.byte	0x1
 2559 12ee 98       		.byte	0x98
 2560 12ef 37000000 		.4byte	0x37
 2561 12f3 00000000 		.4byte	.LFB224
 2562 12f7 16000000 		.4byte	.LFE224-.LFB224
 2563 12fb 01       		.uleb128 0x1
 2564 12fc 9C       		.byte	0x9c
 2565 12fd 48130000 		.4byte	0x1348
ARM GAS  /tmp/ccSpsmCg.s 			page 46


 2566 1301 26       		.uleb128 0x26
 2567 1302 7200     		.ascii	"r\000"
 2568 1304 01       		.byte	0x1
 2569 1305 98       		.byte	0x98
 2570 1306 D8040000 		.4byte	0x4d8
 2571 130a 21000000 		.4byte	.LLST8
 2572 130e 28       		.uleb128 0x28
 2573 130f 43050000 		.4byte	.LASF287
 2574 1313 01       		.byte	0x1
 2575 1314 98       		.byte	0x98
 2576 1315 37000000 		.4byte	0x37
 2577 1319 42000000 		.4byte	.LLST9
 2578 131d 26       		.uleb128 0x26
 2579 131e 737400   		.ascii	"st\000"
 2580 1321 01       		.byte	0x1
 2581 1322 98       		.byte	0x98
 2582 1323 48130000 		.4byte	0x1348
 2583 1327 63000000 		.4byte	.LLST10
 2584 132b 29       		.uleb128 0x29
 2585 132c 0C000000 		.4byte	.LVL18
 2586 1330 E0140000 		.4byte	0x14e0
 2587 1334 2A       		.uleb128 0x2a
 2588 1335 01       		.uleb128 0x1
 2589 1336 50       		.byte	0x50
 2590 1337 03       		.uleb128 0x3
 2591 1338 F3       		.byte	0xf3
 2592 1339 01       		.uleb128 0x1
 2593 133a 52       		.byte	0x52
 2594 133b 2A       		.uleb128 0x2a
 2595 133c 01       		.uleb128 0x1
 2596 133d 51       		.byte	0x51
 2597 133e 01       		.uleb128 0x1
 2598 133f 30       		.byte	0x30
 2599 1340 2A       		.uleb128 0x2a
 2600 1341 01       		.uleb128 0x1
 2601 1342 52       		.byte	0x52
 2602 1343 02       		.uleb128 0x2
 2603 1344 08       		.byte	0x8
 2604 1345 58       		.byte	0x58
 2605 1346 00       		.byte	0
 2606 1347 00       		.byte	0
 2607 1348 05       		.uleb128 0x5
 2608 1349 04       		.byte	0x4
 2609 134a 5E0A0000 		.4byte	0xa5e
 2610 134e 25       		.uleb128 0x25
 2611 134f 2D040000 		.4byte	.LASF288
 2612 1353 01       		.byte	0x1
 2613 1354 82       		.byte	0x82
 2614 1355 D5090000 		.4byte	0x9d5
 2615 1359 00000000 		.4byte	.LFB223
 2616 135d 18000000 		.4byte	.LFE223-.LFB223
 2617 1361 01       		.uleb128 0x1
 2618 1362 9C       		.byte	0x9c
 2619 1363 AB130000 		.4byte	0x13ab
 2620 1367 26       		.uleb128 0x26
 2621 1368 7200     		.ascii	"r\000"
 2622 136a 01       		.byte	0x1
ARM GAS  /tmp/ccSpsmCg.s 			page 47


 2623 136b 82       		.byte	0x82
 2624 136c D8040000 		.4byte	0x4d8
 2625 1370 8F000000 		.4byte	.LLST5
 2626 1374 28       		.uleb128 0x28
 2627 1375 EC070000 		.4byte	.LASF289
 2628 1379 01       		.byte	0x1
 2629 137a 82       		.byte	0x82
 2630 137b 37000000 		.4byte	0x37
 2631 137f AD000000 		.4byte	.LLST6
 2632 1383 2B       		.uleb128 0x2b
 2633 1384 7000     		.ascii	"p\000"
 2634 1386 01       		.byte	0x1
 2635 1387 85       		.byte	0x85
 2636 1388 AE010000 		.4byte	0x1ae
 2637 138c CE000000 		.4byte	.LLST7
 2638 1390 2C       		.uleb128 0x2c
 2639 1391 BD000000 		.4byte	.LASF297
 2640 1395 BB130000 		.4byte	0x13bb
 2641 1399 29       		.uleb128 0x29
 2642 139a 0A000000 		.4byte	.LVL11
 2643 139e EF140000 		.4byte	0x14ef
 2644 13a2 2A       		.uleb128 0x2a
 2645 13a3 01       		.uleb128 0x1
 2646 13a4 50       		.byte	0x50
 2647 13a5 03       		.uleb128 0x3
 2648 13a6 F3       		.byte	0xf3
 2649 13a7 01       		.uleb128 0x1
 2650 13a8 51       		.byte	0x51
 2651 13a9 00       		.byte	0
 2652 13aa 00       		.byte	0
 2653 13ab 0A       		.uleb128 0xa
 2654 13ac C8010000 		.4byte	0x1c8
 2655 13b0 BB130000 		.4byte	0x13bb
 2656 13b4 0B       		.uleb128 0xb
 2657 13b5 30000000 		.4byte	0x30
 2658 13b9 07       		.byte	0x7
 2659 13ba 00       		.byte	0
 2660 13bb 0F       		.uleb128 0xf
 2661 13bc AB130000 		.4byte	0x13ab
 2662 13c0 25       		.uleb128 0x25
 2663 13c1 89060000 		.4byte	.LASF290
 2664 13c5 01       		.byte	0x1
 2665 13c6 78       		.byte	0x78
 2666 13c7 37000000 		.4byte	0x37
 2667 13cb 00000000 		.4byte	.LFB222
 2668 13cf 04000000 		.4byte	.LFE222-.LFB222
 2669 13d3 01       		.uleb128 0x1
 2670 13d4 9C       		.byte	0x9c
 2671 13d5 F4130000 		.4byte	0x13f4
 2672 13d9 26       		.uleb128 0x26
 2673 13da 7200     		.ascii	"r\000"
 2674 13dc 01       		.byte	0x1
 2675 13dd 78       		.byte	0x78
 2676 13de D8040000 		.4byte	0x4d8
 2677 13e2 E1000000 		.4byte	.LLST4
 2678 13e6 2D       		.uleb128 0x2d
 2679 13e7 43050000 		.4byte	.LASF287
ARM GAS  /tmp/ccSpsmCg.s 			page 48


 2680 13eb 01       		.byte	0x1
 2681 13ec 78       		.byte	0x78
 2682 13ed 37000000 		.4byte	0x37
 2683 13f1 01       		.uleb128 0x1
 2684 13f2 51       		.byte	0x51
 2685 13f3 00       		.byte	0
 2686 13f4 25       		.uleb128 0x25
 2687 13f5 B9070000 		.4byte	.LASF291
 2688 13f9 01       		.byte	0x1
 2689 13fa 67       		.byte	0x67
 2690 13fb 37000000 		.4byte	0x37
 2691 13ff 00000000 		.4byte	.LFB221
 2692 1403 04000000 		.4byte	.LFE221-.LFB221
 2693 1407 01       		.uleb128 0x1
 2694 1408 9C       		.byte	0x9c
 2695 1409 42140000 		.4byte	0x1442
 2696 140d 26       		.uleb128 0x26
 2697 140e 7200     		.ascii	"r\000"
 2698 1410 01       		.byte	0x1
 2699 1411 67       		.byte	0x67
 2700 1412 D8040000 		.4byte	0x4d8
 2701 1416 02010000 		.4byte	.LLST3
 2702 141a 2D       		.uleb128 0x2d
 2703 141b 43050000 		.4byte	.LASF287
 2704 141f 01       		.byte	0x1
 2705 1420 67       		.byte	0x67
 2706 1421 37000000 		.4byte	0x37
 2707 1425 01       		.uleb128 0x1
 2708 1426 51       		.byte	0x51
 2709 1427 27       		.uleb128 0x27
 2710 1428 70747200 		.ascii	"ptr\000"
 2711 142c 01       		.byte	0x1
 2712 142d 67       		.byte	0x67
 2713 142e BB010000 		.4byte	0x1bb
 2714 1432 01       		.uleb128 0x1
 2715 1433 52       		.byte	0x52
 2716 1434 27       		.uleb128 0x27
 2717 1435 6C656E00 		.ascii	"len\000"
 2718 1439 01       		.byte	0x1
 2719 143a 67       		.byte	0x67
 2720 143b 37000000 		.4byte	0x37
 2721 143f 01       		.uleb128 0x1
 2722 1440 53       		.byte	0x53
 2723 1441 00       		.byte	0
 2724 1442 25       		.uleb128 0x25
 2725 1443 1B0B0000 		.4byte	.LASF292
 2726 1447 01       		.byte	0x1
 2727 1448 5B       		.byte	0x5b
 2728 1449 37000000 		.4byte	0x37
 2729 144d 00000000 		.4byte	.LFB220
 2730 1451 04000000 		.4byte	.LFE220-.LFB220
 2731 1455 01       		.uleb128 0x1
 2732 1456 9C       		.byte	0x9c
 2733 1457 90140000 		.4byte	0x1490
 2734 145b 26       		.uleb128 0x26
 2735 145c 7200     		.ascii	"r\000"
 2736 145e 01       		.byte	0x1
ARM GAS  /tmp/ccSpsmCg.s 			page 49


 2737 145f 5B       		.byte	0x5b
 2738 1460 D8040000 		.4byte	0x4d8
 2739 1464 23010000 		.4byte	.LLST2
 2740 1468 2D       		.uleb128 0x2d
 2741 1469 43050000 		.4byte	.LASF287
 2742 146d 01       		.byte	0x1
 2743 146e 5B       		.byte	0x5b
 2744 146f 37000000 		.4byte	0x37
 2745 1473 01       		.uleb128 0x1
 2746 1474 51       		.byte	0x51
 2747 1475 27       		.uleb128 0x27
 2748 1476 70747200 		.ascii	"ptr\000"
 2749 147a 01       		.byte	0x1
 2750 147b 5B       		.byte	0x5b
 2751 147c 37000000 		.4byte	0x37
 2752 1480 01       		.uleb128 0x1
 2753 1481 52       		.byte	0x52
 2754 1482 27       		.uleb128 0x27
 2755 1483 64697200 		.ascii	"dir\000"
 2756 1487 01       		.byte	0x1
 2757 1488 5B       		.byte	0x5b
 2758 1489 37000000 		.4byte	0x37
 2759 148d 01       		.uleb128 0x1
 2760 148e 53       		.byte	0x53
 2761 148f 00       		.byte	0
 2762 1490 25       		.uleb128 0x25
 2763 1491 080C0000 		.4byte	.LASF293
 2764 1495 01       		.byte	0x1
 2765 1496 46       		.byte	0x46
 2766 1497 37000000 		.4byte	0x37
 2767 149b 00000000 		.4byte	.LFB219
 2768 149f 0A000000 		.4byte	.LFE219-.LFB219
 2769 14a3 01       		.uleb128 0x1
 2770 14a4 9C       		.byte	0x9c
 2771 14a5 E0140000 		.4byte	0x14e0
 2772 14a9 26       		.uleb128 0x26
 2773 14aa 7200     		.ascii	"r\000"
 2774 14ac 01       		.byte	0x1
 2775 14ad 46       		.byte	0x46
 2776 14ae D8040000 		.4byte	0x4d8
 2777 14b2 44010000 		.4byte	.LLST0
 2778 14b6 2D       		.uleb128 0x2d
 2779 14b7 43050000 		.4byte	.LASF287
 2780 14bb 01       		.byte	0x1
 2781 14bc 46       		.byte	0x46
 2782 14bd 37000000 		.4byte	0x37
 2783 14c1 01       		.uleb128 0x1
 2784 14c2 51       		.byte	0x51
 2785 14c3 27       		.uleb128 0x27
 2786 14c4 70747200 		.ascii	"ptr\000"
 2787 14c8 01       		.byte	0x1
 2788 14c9 46       		.byte	0x46
 2789 14ca BB010000 		.4byte	0x1bb
 2790 14ce 01       		.uleb128 0x1
 2791 14cf 52       		.byte	0x52
 2792 14d0 26       		.uleb128 0x26
 2793 14d1 6C656E00 		.ascii	"len\000"
ARM GAS  /tmp/ccSpsmCg.s 			page 50


 2794 14d5 01       		.byte	0x1
 2795 14d6 46       		.byte	0x46
 2796 14d7 37000000 		.4byte	0x37
 2797 14db 65010000 		.4byte	.LLST1
 2798 14df 00       		.byte	0
 2799 14e0 2E       		.uleb128 0x2e
 2800 14e1 A8040000 		.4byte	.LASF298
 2801 14e5 33030000 		.4byte	.LASF299
 2802 14e9 19       		.byte	0x19
 2803 14ea 00       		.byte	0
 2804 14eb A8040000 		.4byte	.LASF298
 2805 14ef 2F       		.uleb128 0x2f
 2806 14f0 66050000 		.4byte	.LASF300
 2807 14f4 66050000 		.4byte	.LASF300
 2808 14f8 1A       		.byte	0x1a
 2809 14f9 62       		.byte	0x62
 2810 14fa 00       		.byte	0
 2811              		.section	.debug_abbrev,"",%progbits
 2812              	.Ldebug_abbrev0:
 2813 0000 01       		.uleb128 0x1
 2814 0001 11       		.uleb128 0x11
 2815 0002 01       		.byte	0x1
 2816 0003 25       		.uleb128 0x25
 2817 0004 0E       		.uleb128 0xe
 2818 0005 13       		.uleb128 0x13
 2819 0006 0B       		.uleb128 0xb
 2820 0007 03       		.uleb128 0x3
 2821 0008 0E       		.uleb128 0xe
 2822 0009 1B       		.uleb128 0x1b
 2823 000a 0E       		.uleb128 0xe
 2824 000b 55       		.uleb128 0x55
 2825 000c 17       		.uleb128 0x17
 2826 000d 11       		.uleb128 0x11
 2827 000e 01       		.uleb128 0x1
 2828 000f 10       		.uleb128 0x10
 2829 0010 17       		.uleb128 0x17
 2830 0011 00       		.byte	0
 2831 0012 00       		.byte	0
 2832 0013 02       		.uleb128 0x2
 2833 0014 16       		.uleb128 0x16
 2834 0015 00       		.byte	0
 2835 0016 03       		.uleb128 0x3
 2836 0017 0E       		.uleb128 0xe
 2837 0018 3A       		.uleb128 0x3a
 2838 0019 0B       		.uleb128 0xb
 2839 001a 3B       		.uleb128 0x3b
 2840 001b 0B       		.uleb128 0xb
 2841 001c 49       		.uleb128 0x49
 2842 001d 13       		.uleb128 0x13
 2843 001e 00       		.byte	0
 2844 001f 00       		.byte	0
 2845 0020 03       		.uleb128 0x3
 2846 0021 24       		.uleb128 0x24
 2847 0022 00       		.byte	0
 2848 0023 0B       		.uleb128 0xb
 2849 0024 0B       		.uleb128 0xb
 2850 0025 3E       		.uleb128 0x3e
ARM GAS  /tmp/ccSpsmCg.s 			page 51


 2851 0026 0B       		.uleb128 0xb
 2852 0027 03       		.uleb128 0x3
 2853 0028 0E       		.uleb128 0xe
 2854 0029 00       		.byte	0
 2855 002a 00       		.byte	0
 2856 002b 04       		.uleb128 0x4
 2857 002c 24       		.uleb128 0x24
 2858 002d 00       		.byte	0
 2859 002e 0B       		.uleb128 0xb
 2860 002f 0B       		.uleb128 0xb
 2861 0030 3E       		.uleb128 0x3e
 2862 0031 0B       		.uleb128 0xb
 2863 0032 03       		.uleb128 0x3
 2864 0033 08       		.uleb128 0x8
 2865 0034 00       		.byte	0
 2866 0035 00       		.byte	0
 2867 0036 05       		.uleb128 0x5
 2868 0037 0F       		.uleb128 0xf
 2869 0038 00       		.byte	0
 2870 0039 0B       		.uleb128 0xb
 2871 003a 0B       		.uleb128 0xb
 2872 003b 49       		.uleb128 0x49
 2873 003c 13       		.uleb128 0x13
 2874 003d 00       		.byte	0
 2875 003e 00       		.byte	0
 2876 003f 06       		.uleb128 0x6
 2877 0040 13       		.uleb128 0x13
 2878 0041 00       		.byte	0
 2879 0042 03       		.uleb128 0x3
 2880 0043 0E       		.uleb128 0xe
 2881 0044 3C       		.uleb128 0x3c
 2882 0045 19       		.uleb128 0x19
 2883 0046 00       		.byte	0
 2884 0047 00       		.byte	0
 2885 0048 07       		.uleb128 0x7
 2886 0049 16       		.uleb128 0x16
 2887 004a 00       		.byte	0
 2888 004b 03       		.uleb128 0x3
 2889 004c 0E       		.uleb128 0xe
 2890 004d 3A       		.uleb128 0x3a
 2891 004e 0B       		.uleb128 0xb
 2892 004f 3B       		.uleb128 0x3b
 2893 0050 05       		.uleb128 0x5
 2894 0051 49       		.uleb128 0x49
 2895 0052 13       		.uleb128 0x13
 2896 0053 00       		.byte	0
 2897 0054 00       		.byte	0
 2898 0055 08       		.uleb128 0x8
 2899 0056 17       		.uleb128 0x17
 2900 0057 01       		.byte	0x1
 2901 0058 0B       		.uleb128 0xb
 2902 0059 0B       		.uleb128 0xb
 2903 005a 3A       		.uleb128 0x3a
 2904 005b 0B       		.uleb128 0xb
 2905 005c 3B       		.uleb128 0x3b
 2906 005d 0B       		.uleb128 0xb
 2907 005e 01       		.uleb128 0x1
ARM GAS  /tmp/ccSpsmCg.s 			page 52


 2908 005f 13       		.uleb128 0x13
 2909 0060 00       		.byte	0
 2910 0061 00       		.byte	0
 2911 0062 09       		.uleb128 0x9
 2912 0063 0D       		.uleb128 0xd
 2913 0064 00       		.byte	0
 2914 0065 03       		.uleb128 0x3
 2915 0066 0E       		.uleb128 0xe
 2916 0067 3A       		.uleb128 0x3a
 2917 0068 0B       		.uleb128 0xb
 2918 0069 3B       		.uleb128 0x3b
 2919 006a 0B       		.uleb128 0xb
 2920 006b 49       		.uleb128 0x49
 2921 006c 13       		.uleb128 0x13
 2922 006d 00       		.byte	0
 2923 006e 00       		.byte	0
 2924 006f 0A       		.uleb128 0xa
 2925 0070 01       		.uleb128 0x1
 2926 0071 01       		.byte	0x1
 2927 0072 49       		.uleb128 0x49
 2928 0073 13       		.uleb128 0x13
 2929 0074 01       		.uleb128 0x1
 2930 0075 13       		.uleb128 0x13
 2931 0076 00       		.byte	0
 2932 0077 00       		.byte	0
 2933 0078 0B       		.uleb128 0xb
 2934 0079 21       		.uleb128 0x21
 2935 007a 00       		.byte	0
 2936 007b 49       		.uleb128 0x49
 2937 007c 13       		.uleb128 0x13
 2938 007d 2F       		.uleb128 0x2f
 2939 007e 0B       		.uleb128 0xb
 2940 007f 00       		.byte	0
 2941 0080 00       		.byte	0
 2942 0081 0C       		.uleb128 0xc
 2943 0082 13       		.uleb128 0x13
 2944 0083 01       		.byte	0x1
 2945 0084 0B       		.uleb128 0xb
 2946 0085 0B       		.uleb128 0xb
 2947 0086 3A       		.uleb128 0x3a
 2948 0087 0B       		.uleb128 0xb
 2949 0088 3B       		.uleb128 0x3b
 2950 0089 0B       		.uleb128 0xb
 2951 008a 01       		.uleb128 0x1
 2952 008b 13       		.uleb128 0x13
 2953 008c 00       		.byte	0
 2954 008d 00       		.byte	0
 2955 008e 0D       		.uleb128 0xd
 2956 008f 0D       		.uleb128 0xd
 2957 0090 00       		.byte	0
 2958 0091 03       		.uleb128 0x3
 2959 0092 0E       		.uleb128 0xe
 2960 0093 3A       		.uleb128 0x3a
 2961 0094 0B       		.uleb128 0xb
 2962 0095 3B       		.uleb128 0x3b
 2963 0096 0B       		.uleb128 0xb
 2964 0097 49       		.uleb128 0x49
ARM GAS  /tmp/ccSpsmCg.s 			page 53


 2965 0098 13       		.uleb128 0x13
 2966 0099 38       		.uleb128 0x38
 2967 009a 0B       		.uleb128 0xb
 2968 009b 00       		.byte	0
 2969 009c 00       		.byte	0
 2970 009d 0E       		.uleb128 0xe
 2971 009e 0F       		.uleb128 0xf
 2972 009f 00       		.byte	0
 2973 00a0 0B       		.uleb128 0xb
 2974 00a1 0B       		.uleb128 0xb
 2975 00a2 00       		.byte	0
 2976 00a3 00       		.byte	0
 2977 00a4 0F       		.uleb128 0xf
 2978 00a5 26       		.uleb128 0x26
 2979 00a6 00       		.byte	0
 2980 00a7 49       		.uleb128 0x49
 2981 00a8 13       		.uleb128 0x13
 2982 00a9 00       		.byte	0
 2983 00aa 00       		.byte	0
 2984 00ab 10       		.uleb128 0x10
 2985 00ac 13       		.uleb128 0x13
 2986 00ad 01       		.byte	0x1
 2987 00ae 03       		.uleb128 0x3
 2988 00af 0E       		.uleb128 0xe
 2989 00b0 0B       		.uleb128 0xb
 2990 00b1 0B       		.uleb128 0xb
 2991 00b2 3A       		.uleb128 0x3a
 2992 00b3 0B       		.uleb128 0xb
 2993 00b4 3B       		.uleb128 0x3b
 2994 00b5 0B       		.uleb128 0xb
 2995 00b6 01       		.uleb128 0x1
 2996 00b7 13       		.uleb128 0x13
 2997 00b8 00       		.byte	0
 2998 00b9 00       		.byte	0
 2999 00ba 11       		.uleb128 0x11
 3000 00bb 0D       		.uleb128 0xd
 3001 00bc 00       		.byte	0
 3002 00bd 03       		.uleb128 0x3
 3003 00be 08       		.uleb128 0x8
 3004 00bf 3A       		.uleb128 0x3a
 3005 00c0 0B       		.uleb128 0xb
 3006 00c1 3B       		.uleb128 0x3b
 3007 00c2 0B       		.uleb128 0xb
 3008 00c3 49       		.uleb128 0x49
 3009 00c4 13       		.uleb128 0x13
 3010 00c5 38       		.uleb128 0x38
 3011 00c6 0B       		.uleb128 0xb
 3012 00c7 00       		.byte	0
 3013 00c8 00       		.byte	0
 3014 00c9 12       		.uleb128 0x12
 3015 00ca 13       		.uleb128 0x13
 3016 00cb 01       		.byte	0x1
 3017 00cc 03       		.uleb128 0x3
 3018 00cd 0E       		.uleb128 0xe
 3019 00ce 0B       		.uleb128 0xb
 3020 00cf 05       		.uleb128 0x5
 3021 00d0 3A       		.uleb128 0x3a
ARM GAS  /tmp/ccSpsmCg.s 			page 54


 3022 00d1 0B       		.uleb128 0xb
 3023 00d2 3B       		.uleb128 0x3b
 3024 00d3 0B       		.uleb128 0xb
 3025 00d4 01       		.uleb128 0x1
 3026 00d5 13       		.uleb128 0x13
 3027 00d6 00       		.byte	0
 3028 00d7 00       		.byte	0
 3029 00d8 13       		.uleb128 0x13
 3030 00d9 0D       		.uleb128 0xd
 3031 00da 00       		.byte	0
 3032 00db 03       		.uleb128 0x3
 3033 00dc 0E       		.uleb128 0xe
 3034 00dd 3A       		.uleb128 0x3a
 3035 00de 0B       		.uleb128 0xb
 3036 00df 3B       		.uleb128 0x3b
 3037 00e0 0B       		.uleb128 0xb
 3038 00e1 49       		.uleb128 0x49
 3039 00e2 13       		.uleb128 0x13
 3040 00e3 38       		.uleb128 0x38
 3041 00e4 05       		.uleb128 0x5
 3042 00e5 00       		.byte	0
 3043 00e6 00       		.byte	0
 3044 00e7 14       		.uleb128 0x14
 3045 00e8 15       		.uleb128 0x15
 3046 00e9 00       		.byte	0
 3047 00ea 27       		.uleb128 0x27
 3048 00eb 19       		.uleb128 0x19
 3049 00ec 00       		.byte	0
 3050 00ed 00       		.byte	0
 3051 00ee 15       		.uleb128 0x15
 3052 00ef 15       		.uleb128 0x15
 3053 00f0 01       		.byte	0x1
 3054 00f1 27       		.uleb128 0x27
 3055 00f2 19       		.uleb128 0x19
 3056 00f3 49       		.uleb128 0x49
 3057 00f4 13       		.uleb128 0x13
 3058 00f5 01       		.uleb128 0x1
 3059 00f6 13       		.uleb128 0x13
 3060 00f7 00       		.byte	0
 3061 00f8 00       		.byte	0
 3062 00f9 16       		.uleb128 0x16
 3063 00fa 05       		.uleb128 0x5
 3064 00fb 00       		.byte	0
 3065 00fc 49       		.uleb128 0x49
 3066 00fd 13       		.uleb128 0x13
 3067 00fe 00       		.byte	0
 3068 00ff 00       		.byte	0
 3069 0100 17       		.uleb128 0x17
 3070 0101 13       		.uleb128 0x13
 3071 0102 01       		.byte	0x1
 3072 0103 03       		.uleb128 0x3
 3073 0104 0E       		.uleb128 0xe
 3074 0105 0B       		.uleb128 0xb
 3075 0106 05       		.uleb128 0x5
 3076 0107 3A       		.uleb128 0x3a
 3077 0108 0B       		.uleb128 0xb
 3078 0109 3B       		.uleb128 0x3b
ARM GAS  /tmp/ccSpsmCg.s 			page 55


 3079 010a 05       		.uleb128 0x5
 3080 010b 01       		.uleb128 0x1
 3081 010c 13       		.uleb128 0x13
 3082 010d 00       		.byte	0
 3083 010e 00       		.byte	0
 3084 010f 18       		.uleb128 0x18
 3085 0110 0D       		.uleb128 0xd
 3086 0111 00       		.byte	0
 3087 0112 03       		.uleb128 0x3
 3088 0113 0E       		.uleb128 0xe
 3089 0114 3A       		.uleb128 0x3a
 3090 0115 0B       		.uleb128 0xb
 3091 0116 3B       		.uleb128 0x3b
 3092 0117 05       		.uleb128 0x5
 3093 0118 49       		.uleb128 0x49
 3094 0119 13       		.uleb128 0x13
 3095 011a 38       		.uleb128 0x38
 3096 011b 0B       		.uleb128 0xb
 3097 011c 00       		.byte	0
 3098 011d 00       		.byte	0
 3099 011e 19       		.uleb128 0x19
 3100 011f 0D       		.uleb128 0xd
 3101 0120 00       		.byte	0
 3102 0121 03       		.uleb128 0x3
 3103 0122 0E       		.uleb128 0xe
 3104 0123 3A       		.uleb128 0x3a
 3105 0124 0B       		.uleb128 0xb
 3106 0125 3B       		.uleb128 0x3b
 3107 0126 05       		.uleb128 0x5
 3108 0127 49       		.uleb128 0x49
 3109 0128 13       		.uleb128 0x13
 3110 0129 38       		.uleb128 0x38
 3111 012a 05       		.uleb128 0x5
 3112 012b 00       		.byte	0
 3113 012c 00       		.byte	0
 3114 012d 1A       		.uleb128 0x1a
 3115 012e 35       		.uleb128 0x35
 3116 012f 00       		.byte	0
 3117 0130 49       		.uleb128 0x49
 3118 0131 13       		.uleb128 0x13
 3119 0132 00       		.byte	0
 3120 0133 00       		.byte	0
 3121 0134 1B       		.uleb128 0x1b
 3122 0135 13       		.uleb128 0x13
 3123 0136 01       		.byte	0x1
 3124 0137 03       		.uleb128 0x3
 3125 0138 0E       		.uleb128 0xe
 3126 0139 0B       		.uleb128 0xb
 3127 013a 0B       		.uleb128 0xb
 3128 013b 3A       		.uleb128 0x3a
 3129 013c 0B       		.uleb128 0xb
 3130 013d 3B       		.uleb128 0x3b
 3131 013e 05       		.uleb128 0x5
 3132 013f 01       		.uleb128 0x1
 3133 0140 13       		.uleb128 0x13
 3134 0141 00       		.byte	0
 3135 0142 00       		.byte	0
ARM GAS  /tmp/ccSpsmCg.s 			page 56


 3136 0143 1C       		.uleb128 0x1c
 3137 0144 13       		.uleb128 0x13
 3138 0145 01       		.byte	0x1
 3139 0146 0B       		.uleb128 0xb
 3140 0147 0B       		.uleb128 0xb
 3141 0148 3A       		.uleb128 0x3a
 3142 0149 0B       		.uleb128 0xb
 3143 014a 3B       		.uleb128 0x3b
 3144 014b 05       		.uleb128 0x5
 3145 014c 01       		.uleb128 0x1
 3146 014d 13       		.uleb128 0x13
 3147 014e 00       		.byte	0
 3148 014f 00       		.byte	0
 3149 0150 1D       		.uleb128 0x1d
 3150 0151 17       		.uleb128 0x17
 3151 0152 01       		.byte	0x1
 3152 0153 0B       		.uleb128 0xb
 3153 0154 0B       		.uleb128 0xb
 3154 0155 3A       		.uleb128 0x3a
 3155 0156 0B       		.uleb128 0xb
 3156 0157 3B       		.uleb128 0x3b
 3157 0158 05       		.uleb128 0x5
 3158 0159 01       		.uleb128 0x1
 3159 015a 13       		.uleb128 0x13
 3160 015b 00       		.byte	0
 3161 015c 00       		.byte	0
 3162 015d 1E       		.uleb128 0x1e
 3163 015e 0D       		.uleb128 0xd
 3164 015f 00       		.byte	0
 3165 0160 03       		.uleb128 0x3
 3166 0161 0E       		.uleb128 0xe
 3167 0162 3A       		.uleb128 0x3a
 3168 0163 0B       		.uleb128 0xb
 3169 0164 3B       		.uleb128 0x3b
 3170 0165 05       		.uleb128 0x5
 3171 0166 49       		.uleb128 0x49
 3172 0167 13       		.uleb128 0x13
 3173 0168 00       		.byte	0
 3174 0169 00       		.byte	0
 3175 016a 1F       		.uleb128 0x1f
 3176 016b 15       		.uleb128 0x15
 3177 016c 01       		.byte	0x1
 3178 016d 27       		.uleb128 0x27
 3179 016e 19       		.uleb128 0x19
 3180 016f 01       		.uleb128 0x1
 3181 0170 13       		.uleb128 0x13
 3182 0171 00       		.byte	0
 3183 0172 00       		.byte	0
 3184 0173 20       		.uleb128 0x20
 3185 0174 34       		.uleb128 0x34
 3186 0175 00       		.byte	0
 3187 0176 03       		.uleb128 0x3
 3188 0177 0E       		.uleb128 0xe
 3189 0178 3A       		.uleb128 0x3a
 3190 0179 0B       		.uleb128 0xb
 3191 017a 3B       		.uleb128 0x3b
 3192 017b 05       		.uleb128 0x5
ARM GAS  /tmp/ccSpsmCg.s 			page 57


 3193 017c 49       		.uleb128 0x49
 3194 017d 13       		.uleb128 0x13
 3195 017e 3F       		.uleb128 0x3f
 3196 017f 19       		.uleb128 0x19
 3197 0180 3C       		.uleb128 0x3c
 3198 0181 19       		.uleb128 0x19
 3199 0182 00       		.byte	0
 3200 0183 00       		.byte	0
 3201 0184 21       		.uleb128 0x21
 3202 0185 34       		.uleb128 0x34
 3203 0186 00       		.byte	0
 3204 0187 03       		.uleb128 0x3
 3205 0188 0E       		.uleb128 0xe
 3206 0189 3A       		.uleb128 0x3a
 3207 018a 0B       		.uleb128 0xb
 3208 018b 3B       		.uleb128 0x3b
 3209 018c 0B       		.uleb128 0xb
 3210 018d 49       		.uleb128 0x49
 3211 018e 13       		.uleb128 0x13
 3212 018f 3F       		.uleb128 0x3f
 3213 0190 19       		.uleb128 0x19
 3214 0191 3C       		.uleb128 0x3c
 3215 0192 19       		.uleb128 0x19
 3216 0193 00       		.byte	0
 3217 0194 00       		.byte	0
 3218 0195 22       		.uleb128 0x22
 3219 0196 21       		.uleb128 0x21
 3220 0197 00       		.byte	0
 3221 0198 00       		.byte	0
 3222 0199 00       		.byte	0
 3223 019a 23       		.uleb128 0x23
 3224 019b 0D       		.uleb128 0xd
 3225 019c 00       		.byte	0
 3226 019d 03       		.uleb128 0x3
 3227 019e 08       		.uleb128 0x8
 3228 019f 3A       		.uleb128 0x3a
 3229 01a0 0B       		.uleb128 0xb
 3230 01a1 3B       		.uleb128 0x3b
 3231 01a2 05       		.uleb128 0x5
 3232 01a3 49       		.uleb128 0x49
 3233 01a4 13       		.uleb128 0x13
 3234 01a5 38       		.uleb128 0x38
 3235 01a6 0B       		.uleb128 0xb
 3236 01a7 00       		.byte	0
 3237 01a8 00       		.byte	0
 3238 01a9 24       		.uleb128 0x24
 3239 01aa 34       		.uleb128 0x34
 3240 01ab 00       		.byte	0
 3241 01ac 03       		.uleb128 0x3
 3242 01ad 08       		.uleb128 0x8
 3243 01ae 3A       		.uleb128 0x3a
 3244 01af 0B       		.uleb128 0xb
 3245 01b0 3B       		.uleb128 0x3b
 3246 01b1 05       		.uleb128 0x5
 3247 01b2 49       		.uleb128 0x49
 3248 01b3 13       		.uleb128 0x13
 3249 01b4 3F       		.uleb128 0x3f
ARM GAS  /tmp/ccSpsmCg.s 			page 58


 3250 01b5 19       		.uleb128 0x19
 3251 01b6 3C       		.uleb128 0x3c
 3252 01b7 19       		.uleb128 0x19
 3253 01b8 00       		.byte	0
 3254 01b9 00       		.byte	0
 3255 01ba 25       		.uleb128 0x25
 3256 01bb 2E       		.uleb128 0x2e
 3257 01bc 01       		.byte	0x1
 3258 01bd 3F       		.uleb128 0x3f
 3259 01be 19       		.uleb128 0x19
 3260 01bf 03       		.uleb128 0x3
 3261 01c0 0E       		.uleb128 0xe
 3262 01c1 3A       		.uleb128 0x3a
 3263 01c2 0B       		.uleb128 0xb
 3264 01c3 3B       		.uleb128 0x3b
 3265 01c4 0B       		.uleb128 0xb
 3266 01c5 27       		.uleb128 0x27
 3267 01c6 19       		.uleb128 0x19
 3268 01c7 49       		.uleb128 0x49
 3269 01c8 13       		.uleb128 0x13
 3270 01c9 11       		.uleb128 0x11
 3271 01ca 01       		.uleb128 0x1
 3272 01cb 12       		.uleb128 0x12
 3273 01cc 06       		.uleb128 0x6
 3274 01cd 40       		.uleb128 0x40
 3275 01ce 18       		.uleb128 0x18
 3276 01cf 9742     		.uleb128 0x2117
 3277 01d1 19       		.uleb128 0x19
 3278 01d2 01       		.uleb128 0x1
 3279 01d3 13       		.uleb128 0x13
 3280 01d4 00       		.byte	0
 3281 01d5 00       		.byte	0
 3282 01d6 26       		.uleb128 0x26
 3283 01d7 05       		.uleb128 0x5
 3284 01d8 00       		.byte	0
 3285 01d9 03       		.uleb128 0x3
 3286 01da 08       		.uleb128 0x8
 3287 01db 3A       		.uleb128 0x3a
 3288 01dc 0B       		.uleb128 0xb
 3289 01dd 3B       		.uleb128 0x3b
 3290 01de 0B       		.uleb128 0xb
 3291 01df 49       		.uleb128 0x49
 3292 01e0 13       		.uleb128 0x13
 3293 01e1 02       		.uleb128 0x2
 3294 01e2 17       		.uleb128 0x17
 3295 01e3 00       		.byte	0
 3296 01e4 00       		.byte	0
 3297 01e5 27       		.uleb128 0x27
 3298 01e6 05       		.uleb128 0x5
 3299 01e7 00       		.byte	0
 3300 01e8 03       		.uleb128 0x3
 3301 01e9 08       		.uleb128 0x8
 3302 01ea 3A       		.uleb128 0x3a
 3303 01eb 0B       		.uleb128 0xb
 3304 01ec 3B       		.uleb128 0x3b
 3305 01ed 0B       		.uleb128 0xb
 3306 01ee 49       		.uleb128 0x49
ARM GAS  /tmp/ccSpsmCg.s 			page 59


 3307 01ef 13       		.uleb128 0x13
 3308 01f0 02       		.uleb128 0x2
 3309 01f1 18       		.uleb128 0x18
 3310 01f2 00       		.byte	0
 3311 01f3 00       		.byte	0
 3312 01f4 28       		.uleb128 0x28
 3313 01f5 05       		.uleb128 0x5
 3314 01f6 00       		.byte	0
 3315 01f7 03       		.uleb128 0x3
 3316 01f8 0E       		.uleb128 0xe
 3317 01f9 3A       		.uleb128 0x3a
 3318 01fa 0B       		.uleb128 0xb
 3319 01fb 3B       		.uleb128 0x3b
 3320 01fc 0B       		.uleb128 0xb
 3321 01fd 49       		.uleb128 0x49
 3322 01fe 13       		.uleb128 0x13
 3323 01ff 02       		.uleb128 0x2
 3324 0200 17       		.uleb128 0x17
 3325 0201 00       		.byte	0
 3326 0202 00       		.byte	0
 3327 0203 29       		.uleb128 0x29
 3328 0204 898201   		.uleb128 0x4109
 3329 0207 01       		.byte	0x1
 3330 0208 11       		.uleb128 0x11
 3331 0209 01       		.uleb128 0x1
 3332 020a 31       		.uleb128 0x31
 3333 020b 13       		.uleb128 0x13
 3334 020c 00       		.byte	0
 3335 020d 00       		.byte	0
 3336 020e 2A       		.uleb128 0x2a
 3337 020f 8A8201   		.uleb128 0x410a
 3338 0212 00       		.byte	0
 3339 0213 02       		.uleb128 0x2
 3340 0214 18       		.uleb128 0x18
 3341 0215 9142     		.uleb128 0x2111
 3342 0217 18       		.uleb128 0x18
 3343 0218 00       		.byte	0
 3344 0219 00       		.byte	0
 3345 021a 2B       		.uleb128 0x2b
 3346 021b 34       		.uleb128 0x34
 3347 021c 00       		.byte	0
 3348 021d 03       		.uleb128 0x3
 3349 021e 08       		.uleb128 0x8
 3350 021f 3A       		.uleb128 0x3a
 3351 0220 0B       		.uleb128 0xb
 3352 0221 3B       		.uleb128 0x3b
 3353 0222 0B       		.uleb128 0xb
 3354 0223 49       		.uleb128 0x49
 3355 0224 13       		.uleb128 0x13
 3356 0225 02       		.uleb128 0x2
 3357 0226 17       		.uleb128 0x17
 3358 0227 00       		.byte	0
 3359 0228 00       		.byte	0
 3360 0229 2C       		.uleb128 0x2c
 3361 022a 34       		.uleb128 0x34
 3362 022b 00       		.byte	0
 3363 022c 03       		.uleb128 0x3
ARM GAS  /tmp/ccSpsmCg.s 			page 60


 3364 022d 0E       		.uleb128 0xe
 3365 022e 49       		.uleb128 0x49
 3366 022f 13       		.uleb128 0x13
 3367 0230 34       		.uleb128 0x34
 3368 0231 19       		.uleb128 0x19
 3369 0232 00       		.byte	0
 3370 0233 00       		.byte	0
 3371 0234 2D       		.uleb128 0x2d
 3372 0235 05       		.uleb128 0x5
 3373 0236 00       		.byte	0
 3374 0237 03       		.uleb128 0x3
 3375 0238 0E       		.uleb128 0xe
 3376 0239 3A       		.uleb128 0x3a
 3377 023a 0B       		.uleb128 0xb
 3378 023b 3B       		.uleb128 0x3b
 3379 023c 0B       		.uleb128 0xb
 3380 023d 49       		.uleb128 0x49
 3381 023e 13       		.uleb128 0x13
 3382 023f 02       		.uleb128 0x2
 3383 0240 18       		.uleb128 0x18
 3384 0241 00       		.byte	0
 3385 0242 00       		.byte	0
 3386 0243 2E       		.uleb128 0x2e
 3387 0244 2E       		.uleb128 0x2e
 3388 0245 00       		.byte	0
 3389 0246 3F       		.uleb128 0x3f
 3390 0247 19       		.uleb128 0x19
 3391 0248 3C       		.uleb128 0x3c
 3392 0249 19       		.uleb128 0x19
 3393 024a 6E       		.uleb128 0x6e
 3394 024b 0E       		.uleb128 0xe
 3395 024c 03       		.uleb128 0x3
 3396 024d 0E       		.uleb128 0xe
 3397 024e 3A       		.uleb128 0x3a
 3398 024f 0B       		.uleb128 0xb
 3399 0250 3B       		.uleb128 0x3b
 3400 0251 0B       		.uleb128 0xb
 3401 0252 6E       		.uleb128 0x6e
 3402 0253 0E       		.uleb128 0xe
 3403 0254 00       		.byte	0
 3404 0255 00       		.byte	0
 3405 0256 2F       		.uleb128 0x2f
 3406 0257 2E       		.uleb128 0x2e
 3407 0258 00       		.byte	0
 3408 0259 3F       		.uleb128 0x3f
 3409 025a 19       		.uleb128 0x19
 3410 025b 3C       		.uleb128 0x3c
 3411 025c 19       		.uleb128 0x19
 3412 025d 6E       		.uleb128 0x6e
 3413 025e 0E       		.uleb128 0xe
 3414 025f 03       		.uleb128 0x3
 3415 0260 0E       		.uleb128 0xe
 3416 0261 3A       		.uleb128 0x3a
 3417 0262 0B       		.uleb128 0xb
 3418 0263 3B       		.uleb128 0x3b
 3419 0264 0B       		.uleb128 0xb
 3420 0265 00       		.byte	0
ARM GAS  /tmp/ccSpsmCg.s 			page 61


 3421 0266 00       		.byte	0
 3422 0267 00       		.byte	0
 3423              		.section	.debug_loc,"",%progbits
 3424              	.Ldebug_loc0:
 3425              	.LLST11:
 3426 0000 00000000 		.4byte	.LVL19
 3427 0004 02000000 		.4byte	.LVL20
 3428 0008 0100     		.2byte	0x1
 3429 000a 50       		.byte	0x50
 3430 000b 02000000 		.4byte	.LVL20
 3431 000f 04000000 		.4byte	.LFE225
 3432 0013 0400     		.2byte	0x4
 3433 0015 F3       		.byte	0xf3
 3434 0016 01       		.uleb128 0x1
 3435 0017 50       		.byte	0x50
 3436 0018 9F       		.byte	0x9f
 3437 0019 00000000 		.4byte	0
 3438 001d 00000000 		.4byte	0
 3439              	.LLST8:
 3440 0021 00000000 		.4byte	.LVL14
 3441 0025 04000000 		.4byte	.LVL15
 3442 0029 0100     		.2byte	0x1
 3443 002b 50       		.byte	0x50
 3444 002c 04000000 		.4byte	.LVL15
 3445 0030 16000000 		.4byte	.LFE224
 3446 0034 0400     		.2byte	0x4
 3447 0036 F3       		.byte	0xf3
 3448 0037 01       		.uleb128 0x1
 3449 0038 50       		.byte	0x50
 3450 0039 9F       		.byte	0x9f
 3451 003a 00000000 		.4byte	0
 3452 003e 00000000 		.4byte	0
 3453              	.LLST9:
 3454 0042 00000000 		.4byte	.LVL14
 3455 0046 06000000 		.4byte	.LVL16
 3456 004a 0100     		.2byte	0x1
 3457 004c 51       		.byte	0x51
 3458 004d 06000000 		.4byte	.LVL16
 3459 0051 16000000 		.4byte	.LFE224
 3460 0055 0400     		.2byte	0x4
 3461 0057 F3       		.byte	0xf3
 3462 0058 01       		.uleb128 0x1
 3463 0059 51       		.byte	0x51
 3464 005a 9F       		.byte	0x9f
 3465 005b 00000000 		.4byte	0
 3466 005f 00000000 		.4byte	0
 3467              	.LLST10:
 3468 0063 00000000 		.4byte	.LVL14
 3469 0067 08000000 		.4byte	.LVL17
 3470 006b 0100     		.2byte	0x1
 3471 006d 52       		.byte	0x52
 3472 006e 08000000 		.4byte	.LVL17
 3473 0072 0B000000 		.4byte	.LVL18-1
 3474 0076 0100     		.2byte	0x1
 3475 0078 50       		.byte	0x50
 3476 0079 0B000000 		.4byte	.LVL18-1
 3477 007d 16000000 		.4byte	.LFE224
ARM GAS  /tmp/ccSpsmCg.s 			page 62


 3478 0081 0400     		.2byte	0x4
 3479 0083 F3       		.byte	0xf3
 3480 0084 01       		.uleb128 0x1
 3481 0085 52       		.byte	0x52
 3482 0086 9F       		.byte	0x9f
 3483 0087 00000000 		.4byte	0
 3484 008b 00000000 		.4byte	0
 3485              	.LLST5:
 3486 008f 00000000 		.4byte	.LVL9
 3487 0093 06000000 		.4byte	.LVL10
 3488 0097 0100     		.2byte	0x1
 3489 0099 50       		.byte	0x50
 3490 009a 06000000 		.4byte	.LVL10
 3491 009e 18000000 		.4byte	.LFE223
 3492 00a2 0100     		.2byte	0x1
 3493 00a4 54       		.byte	0x54
 3494 00a5 00000000 		.4byte	0
 3495 00a9 00000000 		.4byte	0
 3496              	.LLST6:
 3497 00ad 00000000 		.4byte	.LVL9
 3498 00b1 09000000 		.4byte	.LVL11-1
 3499 00b5 0100     		.2byte	0x1
 3500 00b7 51       		.byte	0x51
 3501 00b8 09000000 		.4byte	.LVL11-1
 3502 00bc 18000000 		.4byte	.LFE223
 3503 00c0 0400     		.2byte	0x4
 3504 00c2 F3       		.byte	0xf3
 3505 00c3 01       		.uleb128 0x1
 3506 00c4 51       		.byte	0x51
 3507 00c5 9F       		.byte	0x9f
 3508 00c6 00000000 		.4byte	0
 3509 00ca 00000000 		.4byte	0
 3510              	.LLST7:
 3511 00ce 0A000000 		.4byte	.LVL11
 3512 00d2 16000000 		.4byte	.LVL13
 3513 00d6 0100     		.2byte	0x1
 3514 00d8 50       		.byte	0x50
 3515 00d9 00000000 		.4byte	0
 3516 00dd 00000000 		.4byte	0
 3517              	.LLST4:
 3518 00e1 00000000 		.4byte	.LVL7
 3519 00e5 02000000 		.4byte	.LVL8
 3520 00e9 0100     		.2byte	0x1
 3521 00eb 50       		.byte	0x50
 3522 00ec 02000000 		.4byte	.LVL8
 3523 00f0 04000000 		.4byte	.LFE222
 3524 00f4 0400     		.2byte	0x4
 3525 00f6 F3       		.byte	0xf3
 3526 00f7 01       		.uleb128 0x1
 3527 00f8 50       		.byte	0x50
 3528 00f9 9F       		.byte	0x9f
 3529 00fa 00000000 		.4byte	0
 3530 00fe 00000000 		.4byte	0
 3531              	.LLST3:
 3532 0102 00000000 		.4byte	.LVL5
 3533 0106 02000000 		.4byte	.LVL6
 3534 010a 0100     		.2byte	0x1
ARM GAS  /tmp/ccSpsmCg.s 			page 63


 3535 010c 50       		.byte	0x50
 3536 010d 02000000 		.4byte	.LVL6
 3537 0111 04000000 		.4byte	.LFE221
 3538 0115 0400     		.2byte	0x4
 3539 0117 F3       		.byte	0xf3
 3540 0118 01       		.uleb128 0x1
 3541 0119 50       		.byte	0x50
 3542 011a 9F       		.byte	0x9f
 3543 011b 00000000 		.4byte	0
 3544 011f 00000000 		.4byte	0
 3545              	.LLST2:
 3546 0123 00000000 		.4byte	.LVL3
 3547 0127 02000000 		.4byte	.LVL4
 3548 012b 0100     		.2byte	0x1
 3549 012d 50       		.byte	0x50
 3550 012e 02000000 		.4byte	.LVL4
 3551 0132 04000000 		.4byte	.LFE220
 3552 0136 0400     		.2byte	0x4
 3553 0138 F3       		.byte	0xf3
 3554 0139 01       		.uleb128 0x1
 3555 013a 50       		.byte	0x50
 3556 013b 9F       		.byte	0x9f
 3557 013c 00000000 		.4byte	0
 3558 0140 00000000 		.4byte	0
 3559              	.LLST0:
 3560 0144 00000000 		.4byte	.LVL0
 3561 0148 08000000 		.4byte	.LVL2
 3562 014c 0100     		.2byte	0x1
 3563 014e 50       		.byte	0x50
 3564 014f 08000000 		.4byte	.LVL2
 3565 0153 0A000000 		.4byte	.LFE219
 3566 0157 0400     		.2byte	0x4
 3567 0159 F3       		.byte	0xf3
 3568 015a 01       		.uleb128 0x1
 3569 015b 50       		.byte	0x50
 3570 015c 9F       		.byte	0x9f
 3571 015d 00000000 		.4byte	0
 3572 0161 00000000 		.4byte	0
 3573              	.LLST1:
 3574 0165 00000000 		.4byte	.LVL0
 3575 0169 02000000 		.4byte	.LVL1
 3576 016d 0100     		.2byte	0x1
 3577 016f 53       		.byte	0x53
 3578 0170 02000000 		.4byte	.LVL1
 3579 0174 0A000000 		.4byte	.LFE219
 3580 0178 0400     		.2byte	0x4
 3581 017a F3       		.byte	0xf3
 3582 017b 01       		.uleb128 0x1
 3583 017c 53       		.byte	0x53
 3584 017d 9F       		.byte	0x9f
 3585 017e 00000000 		.4byte	0
 3586 0182 00000000 		.4byte	0
 3587              		.section	.debug_aranges,"",%progbits
 3588 0000 4C000000 		.4byte	0x4c
 3589 0004 0200     		.2byte	0x2
 3590 0006 00000000 		.4byte	.Ldebug_info0
 3591 000a 04       		.byte	0x4
ARM GAS  /tmp/ccSpsmCg.s 			page 64


 3592 000b 00       		.byte	0
 3593 000c 0000     		.2byte	0
 3594 000e 0000     		.2byte	0
 3595 0010 00000000 		.4byte	.LFB219
 3596 0014 0A000000 		.4byte	.LFE219-.LFB219
 3597 0018 00000000 		.4byte	.LFB220
 3598 001c 04000000 		.4byte	.LFE220-.LFB220
 3599 0020 00000000 		.4byte	.LFB221
 3600 0024 04000000 		.4byte	.LFE221-.LFB221
 3601 0028 00000000 		.4byte	.LFB222
 3602 002c 04000000 		.4byte	.LFE222-.LFB222
 3603 0030 00000000 		.4byte	.LFB223
 3604 0034 18000000 		.4byte	.LFE223-.LFB223
 3605 0038 00000000 		.4byte	.LFB224
 3606 003c 16000000 		.4byte	.LFE224-.LFB224
 3607 0040 00000000 		.4byte	.LFB225
 3608 0044 04000000 		.4byte	.LFE225-.LFB225
 3609 0048 00000000 		.4byte	0
 3610 004c 00000000 		.4byte	0
 3611              		.section	.debug_ranges,"",%progbits
 3612              	.Ldebug_ranges0:
 3613 0000 00000000 		.4byte	.LFB219
 3614 0004 0A000000 		.4byte	.LFE219
 3615 0008 00000000 		.4byte	.LFB220
 3616 000c 04000000 		.4byte	.LFE220
 3617 0010 00000000 		.4byte	.LFB221
 3618 0014 04000000 		.4byte	.LFE221
 3619 0018 00000000 		.4byte	.LFB222
 3620 001c 04000000 		.4byte	.LFE222
 3621 0020 00000000 		.4byte	.LFB223
 3622 0024 18000000 		.4byte	.LFE223
 3623 0028 00000000 		.4byte	.LFB224
 3624 002c 16000000 		.4byte	.LFE224
 3625 0030 00000000 		.4byte	.LFB225
 3626 0034 04000000 		.4byte	.LFE225
 3627 0038 00000000 		.4byte	0
 3628 003c 00000000 		.4byte	0
 3629              		.section	.debug_line,"",%progbits
 3630              	.Ldebug_line0:
 3631 0000 43030000 		.section	.debug_str,"MS",%progbits,1
 3631      0200B502 
 3631      00000201 
 3631      FB0E0D00 
 3631      01010101 
 3632              	.LASF2:
 3633 0000 73697A65 		.ascii	"size_t\000"
 3633      5F7400
 3634              	.LASF133:
 3635 0007 5F5F6C6F 		.ascii	"__locale_t\000"
 3635      63616C65 
 3635      5F7400
 3636              	.LASF31:
 3637 0012 5F5F7661 		.ascii	"__value\000"
 3637      6C756500 
 3638              	.LASF275:
 3639 001a 63665F6F 		.ascii	"cf_off_name\000"
 3639      66665F6E 
ARM GAS  /tmp/ccSpsmCg.s 			page 65


 3639      616D6500 
 3640              	.LASF185:
 3641 0026 73797374 		.ascii	"systime_t\000"
 3641      696D655F 
 3641      7400
 3642              	.LASF101:
 3643 0030 5F5F7366 		.ascii	"__sf\000"
 3643      00
 3644              	.LASF264:
 3645 0035 63685F69 		.ascii	"ch_identifier\000"
 3645      64656E74 
 3645      69666965 
 3645      7200
 3646              	.LASF191:
 3647 0043 705F6374 		.ascii	"p_ctx\000"
 3647      7800
 3648              	.LASF68:
 3649 0049 5F726561 		.ascii	"_read\000"
 3649      6400
 3650              	.LASF181:
 3651 004f 74707269 		.ascii	"tprio_t\000"
 3651      6F5F7400 
 3652              	.LASF174:
 3653 0057 73745F62 		.ascii	"st_blocks\000"
 3653      6C6F636B 
 3653      7300
 3654              	.LASF283:
 3655 0061 63685F64 		.ascii	"ch_debug\000"
 3655      65627567 
 3655      00
 3656              	.LASF90:
 3657 006a 5F5F636C 		.ascii	"__cleanup\000"
 3657      65616E75 
 3657      7000
 3658              	.LASF202:
 3659 0074 705F6D73 		.ascii	"p_msgqueue\000"
 3659      67717565 
 3659      756500
 3660              	.LASF69:
 3661 007f 5F777269 		.ascii	"_write\000"
 3661      746500
 3662              	.LASF218:
 3663 0086 725F6374 		.ascii	"r_ctx\000"
 3663      7800
 3664              	.LASF141:
 3665 008c 696E7433 		.ascii	"int32_t\000"
 3665      325F7400 
 3666              	.LASF112:
 3667 0094 5F617363 		.ascii	"_asctime_buf\000"
 3667      74696D65 
 3667      5F627566 
 3667      00
 3668              	.LASF95:
 3669 00a1 5F637674 		.ascii	"_cvtlen\000"
 3669      6C656E00 
 3670              	.LASF272:
 3671 00a9 63665F6F 		.ascii	"cf_off_ctx\000"
ARM GAS  /tmp/ccSpsmCg.s 			page 66


 3671      66665F63 
 3671      747800
 3672              	.LASF222:
 3673 00b4 76746675 		.ascii	"vtfunc_t\000"
 3673      6E635F74 
 3673      00
 3674              	.LASF297:
 3675 00bd 5F5F6675 		.ascii	"__func__\000"
 3675      6E635F5F 
 3675      00
 3676              	.LASF231:
 3677 00c6 63685F76 		.ascii	"ch_virtual_timers_list\000"
 3677      69727475 
 3677      616C5F74 
 3677      696D6572 
 3677      735F6C69 
 3678              	.LASF150:
 3679 00dd 6465765F 		.ascii	"dev_t\000"
 3679      7400
 3680              	.LASF154:
 3681 00e3 6E6C696E 		.ascii	"nlink_t\000"
 3681      6B5F7400 
 3682              	.LASF22:
 3683 00eb 5F5F6769 		.ascii	"__gid_t\000"
 3683      645F7400 
 3684              	.LASF131:
 3685 00f3 5F756E75 		.ascii	"_unused\000"
 3685      73656400 
 3686              	.LASF42:
 3687 00fb 5F5F746D 		.ascii	"__tm\000"
 3687      00
 3688              	.LASF127:
 3689 0100 5F776373 		.ascii	"_wcsrtombs_state\000"
 3689      72746F6D 
 3689      62735F73 
 3689      74617465 
 3689      00
 3690              	.LASF73:
 3691 0111 5F6E6275 		.ascii	"_nbuf\000"
 3691      6600
 3692              	.LASF43:
 3693 0117 5F5F746D 		.ascii	"__tm_sec\000"
 3693      5F736563 
 3693      00
 3694              	.LASF120:
 3695 0120 5F6C3634 		.ascii	"_l64a_buf\000"
 3695      615F6275 
 3695      6600
 3696              	.LASF144:
 3697 012a 74696D65 		.ascii	"time_t\000"
 3697      5F7400
 3698              	.LASF77:
 3699 0131 5F6C6F63 		.ascii	"_lock\000"
 3699      6B00
 3700              	.LASF268:
 3701 0137 63685F70 		.ascii	"ch_ptrsize\000"
 3701      74727369 
ARM GAS  /tmp/ccSpsmCg.s 			page 67


 3701      7A6500
 3702              	.LASF108:
 3703 0142 5F6D756C 		.ascii	"_mult\000"
 3703      7400
 3704              	.LASF262:
 3705 0148 6D5F6F77 		.ascii	"m_owner\000"
 3705      6E657200 
 3706              	.LASF229:
 3707 0150 76745F70 		.ascii	"vt_par\000"
 3707      617200
 3708              	.LASF197:
 3709 0157 705F666C 		.ascii	"p_flags\000"
 3709      61677300 
 3710              	.LASF28:
 3711 015f 5F5F7763 		.ascii	"__wch\000"
 3711      6800
 3712              	.LASF251:
 3713 0165 65786974 		.ascii	"exitcode\000"
 3713      636F6465 
 3713      00
 3714              	.LASF3:
 3715 016e 5F5F7569 		.ascii	"__uint8_t\000"
 3715      6E74385F 
 3715      7400
 3716              	.LASF20:
 3717 0178 5F5F6465 		.ascii	"__dev_t\000"
 3717      765F7400 
 3718              	.LASF256:
 3719 0180 65776D61 		.ascii	"ewmask\000"
 3719      736B00
 3720              	.LASF151:
 3721 0187 7569645F 		.ascii	"uid_t\000"
 3721      7400
 3722              	.LASF65:
 3723 018d 5F66696C 		.ascii	"_file\000"
 3723      6500
 3724              	.LASF270:
 3725 0193 63685F74 		.ascii	"ch_threadsize\000"
 3725      68726561 
 3725      6473697A 
 3725      6500
 3726              	.LASF52:
 3727 01a1 5F6F6E5F 		.ascii	"_on_exit_args\000"
 3727      65786974 
 3727      5F617267 
 3727      7300
 3728              	.LASF138:
 3729 01af 5F737973 		.ascii	"_sys_nerr\000"
 3729      5F6E6572 
 3729      7200
 3730              	.LASF294:
 3731 01b9 474E5520 		.ascii	"GNU C99 7.3.1 20180622 (release) [ARM/embedded-7-br"
 3731      43393920 
 3731      372E332E 
 3731      31203230 
 3731      31383036 
 3732 01ec 616E6368 		.ascii	"anch revision 261907] -mcpu=cortex-m4 -mfloat-abi=h"
ARM GAS  /tmp/ccSpsmCg.s 			page 68


 3732      20726576 
 3732      6973696F 
 3732      6E203236 
 3732      31393037 
 3733 021f 61726420 		.ascii	"ard -mfpu=fpv4-sp-d16 -mno-thumb-interwork -mthumb "
 3733      2D6D6670 
 3733      753D6670 
 3733      76342D73 
 3733      702D6431 
 3734 0252 2D676764 		.ascii	"-ggdb -O2 -std=gnu99 -fomit-frame-pointer -falign-f"
 3734      62202D4F 
 3734      32202D73 
 3734      74643D67 
 3734      6E753939 
 3735 0285 756E6374 		.ascii	"unctions=16 -ffunction-sections -fdata-sections -fn"
 3735      696F6E73 
 3735      3D313620 
 3735      2D666675 
 3735      6E637469 
 3736 02b8 6F2D636F 		.ascii	"o-common -fsingle-precision-constant\000"
 3736      6D6D6F6E 
 3736      202D6673 
 3736      696E676C 
 3736      652D7072 
 3737              	.LASF192:
 3738 02dd 705F6E65 		.ascii	"p_newer\000"
 3738      77657200 
 3739              	.LASF123:
 3740 02e5 5F6D6272 		.ascii	"_mbrlen_state\000"
 3740      6C656E5F 
 3740      73746174 
 3740      6500
 3741              	.LASF9:
 3742 02f3 6C6F6E67 		.ascii	"long int\000"
 3742      20696E74 
 3742      00
 3743              	.LASF188:
 3744 02fc 705F6E65 		.ascii	"p_next\000"
 3744      787400
 3745              	.LASF134:
 3746 0303 5F696D70 		.ascii	"_impure_ptr\000"
 3746      7572655F 
 3746      70747200 
 3747              	.LASF92:
 3748 030f 5F726573 		.ascii	"_result_k\000"
 3748      756C745F 
 3748      6B00
 3749              	.LASF277:
 3750 0319 63665F6F 		.ascii	"cf_off_state\000"
 3750      66665F73 
 3750      74617465 
 3750      00
 3751              	.LASF62:
 3752 0326 5F73697A 		.ascii	"_size\000"
 3752      6500
 3753              	.LASF189:
 3754 032c 705F7072 		.ascii	"p_prev\000"
ARM GAS  /tmp/ccSpsmCg.s 			page 69


 3754      657600
 3755              	.LASF299:
 3756 0333 5F5F6275 		.ascii	"__builtin_memset\000"
 3756      696C7469 
 3756      6E5F6D65 
 3756      6D736574 
 3756      00
 3757              	.LASF113:
 3758 0344 5F6C6F63 		.ascii	"_localtime_buf\000"
 3758      616C7469 
 3758      6D655F62 
 3758      756600
 3759              	.LASF178:
 3760 0353 74737461 		.ascii	"tstate_t\000"
 3760      74655F74 
 3760      00
 3761              	.LASF212:
 3762 035c 74687265 		.ascii	"threads_queue_t\000"
 3762      6164735F 
 3762      71756575 
 3762      655F7400 
 3763              	.LASF205:
 3764 036c 705F6D74 		.ascii	"p_mtxlist\000"
 3764      786C6973 
 3764      7400
 3765              	.LASF210:
 3766 0376 74687265 		.ascii	"threads_list_t\000"
 3766      6164735F 
 3766      6C697374 
 3766      5F7400
 3767              	.LASF244:
 3768 0385 72656761 		.ascii	"regarm_t\000"
 3768      726D5F74 
 3768      00
 3769              	.LASF47:
 3770 038e 5F5F746D 		.ascii	"__tm_mon\000"
 3770      5F6D6F6E 
 3770      00
 3771              	.LASF110:
 3772 0397 5F756E75 		.ascii	"_unused_rand\000"
 3772      7365645F 
 3772      72616E64 
 3772      00
 3773              	.LASF1:
 3774 03a4 7369676E 		.ascii	"signed char\000"
 3774      65642063 
 3774      68617200 
 3775              	.LASF199:
 3776 03b0 705F7072 		.ascii	"p_preempt\000"
 3776      65656D70 
 3776      7400
 3777              	.LASF18:
 3778 03ba 5F5F626C 		.ascii	"__blksize_t\000"
 3778      6B73697A 
 3778      655F7400 
 3779              	.LASF139:
 3780 03c6 75696E74 		.ascii	"uint8_t\000"
ARM GAS  /tmp/ccSpsmCg.s 			page 70


 3780      385F7400 
 3781              	.LASF168:
 3782 03ce 73745F73 		.ascii	"st_spare1\000"
 3782      70617265 
 3782      3100
 3783              	.LASF163:
 3784 03d8 73745F75 		.ascii	"st_uid\000"
 3784      696400
 3785              	.LASF172:
 3786 03df 73745F73 		.ascii	"st_spare3\000"
 3786      70617265 
 3786      3300
 3787              	.LASF175:
 3788 03e9 73745F73 		.ascii	"st_spare4\000"
 3788      70617265 
 3788      3400
 3789              	.LASF183:
 3790 03f3 6576656E 		.ascii	"eventmask_t\000"
 3790      746D6173 
 3790      6B5F7400 
 3791              	.LASF246:
 3792 03ff 636F6E74 		.ascii	"context\000"
 3792      65787400 
 3793              	.LASF253:
 3794 0407 77747472 		.ascii	"wttrp\000"
 3794      7000
 3795              	.LASF4:
 3796 040d 756E7369 		.ascii	"unsigned char\000"
 3796      676E6564 
 3796      20636861 
 3796      7200
 3797              	.LASF165:
 3798 041b 73745F72 		.ascii	"st_rdev\000"
 3798      64657600 
 3799              	.LASF235:
 3800 0423 70616E69 		.ascii	"panic_msg\000"
 3800      635F6D73 
 3800      6700
 3801              	.LASF288:
 3802 042d 5F736272 		.ascii	"_sbrk_r\000"
 3802      6B5F7200 
 3803              	.LASF87:
 3804 0435 5F756E73 		.ascii	"_unspecified_locale_info\000"
 3804      70656369 
 3804      66696564 
 3804      5F6C6F63 
 3804      616C655F 
 3805              	.LASF80:
 3806 044e 5F726565 		.ascii	"_reent\000"
 3806      6E7400
 3807              	.LASF219:
 3808 0455 725F6E65 		.ascii	"r_newer\000"
 3808      77657200 
 3809              	.LASF135:
 3810 045d 5F676C6F 		.ascii	"_global_impure_ptr\000"
 3810      62616C5F 
 3810      696D7075 
ARM GAS  /tmp/ccSpsmCg.s 			page 71


 3810      72655F70 
 3810      747200
 3811              	.LASF233:
 3812 0470 73797374 		.ascii	"system_debug_t\000"
 3812      656D5F64 
 3812      65627567 
 3812      5F7400
 3813              	.LASF295:
 3814 047f 43686962 		.ascii	"ChibiOS_3.0.5/os/various/syscalls.c\000"
 3814      694F535F 
 3814      332E302E 
 3814      352F6F73 
 3814      2F766172 
 3815              	.LASF35:
 3816 04a3 63686172 		.ascii	"char\000"
 3816      00
 3817              	.LASF298:
 3818 04a8 6D656D73 		.ascii	"memset\000"
 3818      657400
 3819              	.LASF59:
 3820 04af 5F666E73 		.ascii	"_fns\000"
 3820      00
 3821              	.LASF71:
 3822 04b4 5F636C6F 		.ascii	"_close\000"
 3822      736500
 3823              	.LASF190:
 3824 04bb 705F7072 		.ascii	"p_prio\000"
 3824      696F00
 3825              	.LASF6:
 3826 04c2 5F5F7569 		.ascii	"__uint16_t\000"
 3826      6E743136 
 3826      5F7400
 3827              	.LASF252:
 3828 04cd 77746F62 		.ascii	"wtobjp\000"
 3828      6A7000
 3829              	.LASF281:
 3830 04d4 63665F6F 		.ascii	"cf_off_time\000"
 3830      66665F74 
 3830      696D6500 
 3831              	.LASF82:
 3832 04e0 5F737464 		.ascii	"_stdin\000"
 3832      696E00
 3833              	.LASF273:
 3834 04e7 63665F6F 		.ascii	"cf_off_newer\000"
 3834      66665F6E 
 3834      65776572 
 3834      00
 3835              	.LASF24:
 3836 04f4 5F5F6D6F 		.ascii	"__mode_t\000"
 3836      64655F74 
 3836      00
 3837              	.LASF285:
 3838 04fd 5F697361 		.ascii	"_isatty_r\000"
 3838      7474795F 
 3838      7200
 3839              	.LASF245:
 3840 0507 73746B61 		.ascii	"stkalign_t\000"
ARM GAS  /tmp/ccSpsmCg.s 			page 72


 3840      6C69676E 
 3840      5F7400
 3841              	.LASF156:
 3842 0512 5F646179 		.ascii	"_daylight\000"
 3842      6C696768 
 3842      7400
 3843              	.LASF155:
 3844 051c 5F74696D 		.ascii	"_timezone\000"
 3844      657A6F6E 
 3844      6500
 3845              	.LASF271:
 3846 0526 63665F6F 		.ascii	"cf_off_prio\000"
 3846      66665F70 
 3846      72696F00 
 3847              	.LASF179:
 3848 0532 74726566 		.ascii	"trefs_t\000"
 3848      735F7400 
 3849              	.LASF171:
 3850 053a 73745F63 		.ascii	"st_ctime\000"
 3850      74696D65 
 3850      00
 3851              	.LASF287:
 3852 0543 66696C65 		.ascii	"file\000"
 3852      00
 3853              	.LASF184:
 3854 0548 636E745F 		.ascii	"cnt_t\000"
 3854      7400
 3855              	.LASF228:
 3856 054e 76745F66 		.ascii	"vt_func\000"
 3856      756E6300 
 3857              	.LASF157:
 3858 0556 5F747A6E 		.ascii	"_tzname\000"
 3858      616D6500 
 3859              	.LASF67:
 3860 055e 5F636F6F 		.ascii	"_cookie\000"
 3860      6B696500 
 3861              	.LASF300:
 3862 0566 6368436F 		.ascii	"chCoreAlloc\000"
 3862      7265416C 
 3862      6C6F6300 
 3863              	.LASF204:
 3864 0572 705F6570 		.ascii	"p_epending\000"
 3864      656E6469 
 3864      6E6700
 3865              	.LASF255:
 3866 057d 77746D74 		.ascii	"wtmtxp\000"
 3866      787000
 3867              	.LASF40:
 3868 0584 5F776473 		.ascii	"_wds\000"
 3868      00
 3869              	.LASF215:
 3870 0589 63685F72 		.ascii	"ch_ready_list\000"
 3870      65616479 
 3870      5F6C6973 
 3870      7400
 3871              	.LASF132:
 3872 0597 5F5F6C6F 		.ascii	"__lock\000"
ARM GAS  /tmp/ccSpsmCg.s 			page 73


 3872      636B00
 3873              	.LASF99:
 3874 059e 5F736967 		.ascii	"_sig_func\000"
 3874      5F66756E 
 3874      6300
 3875              	.LASF75:
 3876 05a8 5F6F6666 		.ascii	"_offset\000"
 3876      73657400 
 3877              	.LASF96:
 3878 05b0 5F637674 		.ascii	"_cvtbuf\000"
 3878      62756600 
 3879              	.LASF164:
 3880 05b8 73745F67 		.ascii	"st_gid\000"
 3880      696400
 3881              	.LASF13:
 3882 05bf 5F5F7569 		.ascii	"__uint64_t\000"
 3882      6E743634 
 3882      5F7400
 3883              	.LASF148:
 3884 05ca 696E6F5F 		.ascii	"ino_t\000"
 3884      7400
 3885              	.LASF93:
 3886 05d0 5F703573 		.ascii	"_p5s\000"
 3886      00
 3887              	.LASF11:
 3888 05d5 6C6F6E67 		.ascii	"long unsigned int\000"
 3888      20756E73 
 3888      69676E65 
 3888      6420696E 
 3888      7400
 3889              	.LASF265:
 3890 05e7 63685F7A 		.ascii	"ch_zero\000"
 3890      65726F00 
 3891              	.LASF63:
 3892 05ef 5F5F7346 		.ascii	"__sFILE\000"
 3892      494C4500 
 3893              	.LASF89:
 3894 05f7 5F5F7364 		.ascii	"__sdidinit\000"
 3894      6964696E 
 3894      697400
 3895              	.LASF79:
 3896 0602 5F666C61 		.ascii	"_flags2\000"
 3896      67733200 
 3897              	.LASF166:
 3898 060a 73745F73 		.ascii	"st_size\000"
 3898      697A6500 
 3899              	.LASF243:
 3900 0612 53797374 		.ascii	"SystemCoreClock\000"
 3900      656D436F 
 3900      7265436C 
 3900      6F636B00 
 3901              	.LASF257:
 3902 0622 63685F73 		.ascii	"ch_semaphore\000"
 3902      656D6170 
 3902      686F7265 
 3902      00
 3903              	.LASF187:
ARM GAS  /tmp/ccSpsmCg.s 			page 74


 3904 062f 63685F74 		.ascii	"ch_thread\000"
 3904      68726561 
 3904      6400
 3905              	.LASF230:
 3906 0639 76697274 		.ascii	"virtual_timers_list_t\000"
 3906      75616C5F 
 3906      74696D65 
 3906      72735F6C 
 3906      6973745F 
 3907              	.LASF81:
 3908 064f 5F657272 		.ascii	"_errno\000"
 3908      6E6F00
 3909              	.LASF223:
 3910 0656 76697274 		.ascii	"virtual_timer_t\000"
 3910      75616C5F 
 3910      74696D65 
 3910      725F7400 
 3911              	.LASF214:
 3912 0666 72656164 		.ascii	"ready_list_t\000"
 3912      795F6C69 
 3912      73745F74 
 3912      00
 3913              	.LASF170:
 3914 0673 73745F73 		.ascii	"st_spare2\000"
 3914      70617265 
 3914      3200
 3915              	.LASF121:
 3916 067d 5F736967 		.ascii	"_signal_buf\000"
 3916      6E616C5F 
 3916      62756600 
 3917              	.LASF290:
 3918 0689 5F636C6F 		.ascii	"_close_r\000"
 3918      73655F72 
 3918      00
 3919              	.LASF41:
 3920 0692 5F426967 		.ascii	"_Bigint\000"
 3920      696E7400 
 3921              	.LASF211:
 3922 069a 63685F74 		.ascii	"ch_threads_list\000"
 3922      68726561 
 3922      64735F6C 
 3922      69737400 
 3923              	.LASF38:
 3924 06aa 5F6D6178 		.ascii	"_maxwds\000"
 3924      77647300 
 3925              	.LASF17:
 3926 06b2 5F5F626C 		.ascii	"__blkcnt_t\000"
 3926      6B636E74 
 3926      5F7400
 3927              	.LASF98:
 3928 06bd 5F617465 		.ascii	"_atexit0\000"
 3928      78697430 
 3928      00
 3929              	.LASF158:
 3930 06c6 73746174 		.ascii	"stat\000"
 3930      00
 3931              	.LASF280:
ARM GAS  /tmp/ccSpsmCg.s 			page 75


 3932 06cb 63665F6F 		.ascii	"cf_off_preempt\000"
 3932      66665F70 
 3932      7265656D 
 3932      707400
 3933              	.LASF173:
 3934 06da 73745F62 		.ascii	"st_blksize\000"
 3934      6C6B7369 
 3934      7A6500
 3935              	.LASF23:
 3936 06e5 5F5F696E 		.ascii	"__ino_t\000"
 3936      6F5F7400 
 3937              	.LASF10:
 3938 06ed 5F5F7569 		.ascii	"__uint32_t\000"
 3938      6E743332 
 3938      5F7400
 3939              	.LASF86:
 3940 06f8 5F656D65 		.ascii	"_emergency\000"
 3940      7267656E 
 3940      637900
 3941              	.LASF12:
 3942 0703 6C6F6E67 		.ascii	"long long int\000"
 3942      206C6F6E 
 3942      6720696E 
 3942      7400
 3943              	.LASF267:
 3944 0711 63685F76 		.ascii	"ch_version\000"
 3944      65727369 
 3944      6F6E00
 3945              	.LASF261:
 3946 071c 6D5F7175 		.ascii	"m_queue\000"
 3946      65756500 
 3947              	.LASF104:
 3948 0724 5F6E696F 		.ascii	"_niobs\000"
 3948      627300
 3949              	.LASF225:
 3950 072b 76745F6E 		.ascii	"vt_next\000"
 3950      65787400 
 3951              	.LASF100:
 3952 0733 5F5F7367 		.ascii	"__sglue\000"
 3952      6C756500 
 3953              	.LASF130:
 3954 073b 5F6E6D61 		.ascii	"_nmalloc\000"
 3954      6C6C6F63 
 3954      00
 3955              	.LASF226:
 3956 0744 76745F70 		.ascii	"vt_prev\000"
 3956      72657600 
 3957              	.LASF114:
 3958 074c 5F67616D 		.ascii	"_gamma_signgam\000"
 3958      6D615F73 
 3958      69676E67 
 3958      616D00
 3959              	.LASF94:
 3960 075b 5F667265 		.ascii	"_freelist\000"
 3960      656C6973 
 3960      7400
 3961              	.LASF105:
ARM GAS  /tmp/ccSpsmCg.s 			page 76


 3962 0765 5F696F62 		.ascii	"_iobs\000"
 3962      7300
 3963              	.LASF103:
 3964 076b 5F676C75 		.ascii	"_glue\000"
 3964      6500
 3965              	.LASF242:
 3966 0771 49544D5F 		.ascii	"ITM_RxBuffer\000"
 3966      52784275 
 3966      66666572 
 3966      00
 3967              	.LASF39:
 3968 077e 5F736967 		.ascii	"_sign\000"
 3968      6E00
 3969              	.LASF208:
 3970 0784 6D6F746F 		.ascii	"motor_selected\000"
 3970      725F7365 
 3970      6C656374 
 3970      656400
 3971              	.LASF201:
 3972 0793 705F7761 		.ascii	"p_waiting\000"
 3972      6974696E 
 3972      6700
 3973              	.LASF241:
 3974 079d 69646C65 		.ascii	"idle_thread_wa\000"
 3974      5F746872 
 3974      6561645F 
 3974      776100
 3975              	.LASF0:
 3976 07ac 756E7369 		.ascii	"unsigned int\000"
 3976      676E6564 
 3976      20696E74 
 3976      00
 3977              	.LASF291:
 3978 07b9 5F777269 		.ascii	"_write_r\000"
 3978      74655F72 
 3978      00
 3979              	.LASF145:
 3980 07c2 626C6B63 		.ascii	"blkcnt_t\000"
 3980      6E745F74 
 3980      00
 3981              	.LASF147:
 3982 07cb 63616464 		.ascii	"caddr_t\000"
 3982      725F7400 
 3983              	.LASF176:
 3984 07d3 7274636E 		.ascii	"rtcnt_t\000"
 3984      745F7400 
 3985              	.LASF207:
 3986 07db 705F6D70 		.ascii	"p_mpool\000"
 3986      6F6F6C00 
 3987              	.LASF128:
 3988 07e3 5F685F65 		.ascii	"_h_errno\000"
 3988      72726E6F 
 3988      00
 3989              	.LASF289:
 3990 07ec 696E6372 		.ascii	"incr\000"
 3990      00
 3991              	.LASF198:
ARM GAS  /tmp/ccSpsmCg.s 			page 77


 3992 07f1 705F7265 		.ascii	"p_refs\000"
 3992      667300
 3993              	.LASF269:
 3994 07f8 63685F74 		.ascii	"ch_timesize\000"
 3994      696D6573 
 3994      697A6500 
 3995              	.LASF126:
 3996 0804 5F776372 		.ascii	"_wcrtomb_state\000"
 3996      746F6D62 
 3996      5F737461 
 3996      746500
 3997              	.LASF46:
 3998 0813 5F5F746D 		.ascii	"__tm_mday\000"
 3998      5F6D6461 
 3998      7900
 3999              	.LASF97:
 4000 081d 5F6E6577 		.ascii	"_new\000"
 4000      00
 4001              	.LASF72:
 4002 0822 5F756275 		.ascii	"_ubuf\000"
 4002      6600
 4003              	.LASF84:
 4004 0828 5F737464 		.ascii	"_stderr\000"
 4004      65727200 
 4005              	.LASF119:
 4006 0830 5F776374 		.ascii	"_wctomb_state\000"
 4006      6F6D625F 
 4006      73746174 
 4006      6500
 4007              	.LASF78:
 4008 083e 5F6D6273 		.ascii	"_mbstate\000"
 4008      74617465 
 4008      00
 4009              	.LASF115:
 4010 0847 5F72616E 		.ascii	"_rand_next\000"
 4010      645F6E65 
 4010      787400
 4011              	.LASF64:
 4012 0852 5F666C61 		.ascii	"_flags\000"
 4012      677300
 4013              	.LASF248:
 4014 0859 6F666673 		.ascii	"offset\000"
 4014      657400
 4015              	.LASF209:
 4016 0860 74687265 		.ascii	"thread_reference_t\000"
 4016      61645F72 
 4016      65666572 
 4016      656E6365 
 4016      5F7400
 4017              	.LASF57:
 4018 0873 5F617465 		.ascii	"_atexit\000"
 4018      78697400 
 4019              	.LASF200:
 4020 087b 705F7469 		.ascii	"p_time\000"
 4020      6D6500
 4021              	.LASF279:
 4022 0882 63665F6F 		.ascii	"cf_off_refs\000"
ARM GAS  /tmp/ccSpsmCg.s 			page 78


 4022      66665F72 
 4022      65667300 
 4023              	.LASF30:
 4024 088e 5F5F636F 		.ascii	"__count\000"
 4024      756E7400 
 4025              	.LASF162:
 4026 0896 73745F6E 		.ascii	"st_nlink\000"
 4026      6C696E6B 
 4026      00
 4027              	.LASF149:
 4028 089f 6F66665F 		.ascii	"off_t\000"
 4028      7400
 4029              	.LASF153:
 4030 08a5 6D6F6465 		.ascii	"mode_t\000"
 4030      5F7400
 4031              	.LASF49:
 4032 08ac 5F5F746D 		.ascii	"__tm_wday\000"
 4032      5F776461 
 4032      7900
 4033              	.LASF186:
 4034 08b6 74687265 		.ascii	"thread_t\000"
 4034      61645F74 
 4034      00
 4035              	.LASF167:
 4036 08bf 73745F61 		.ascii	"st_atime\000"
 4036      74696D65 
 4036      00
 4037              	.LASF50:
 4038 08c8 5F5F746D 		.ascii	"__tm_yday\000"
 4038      5F796461 
 4038      7900
 4039              	.LASF206:
 4040 08d2 705F7265 		.ascii	"p_realprio\000"
 4040      616C7072 
 4040      696F00
 4041              	.LASF247:
 4042 08dd 706F7274 		.ascii	"port_intctx\000"
 4042      5F696E74 
 4042      63747800 
 4043              	.LASF107:
 4044 08e9 5F736565 		.ascii	"_seed\000"
 4044      6400
 4045              	.LASF70:
 4046 08ef 5F736565 		.ascii	"_seek\000"
 4046      6B00
 4047              	.LASF159:
 4048 08f5 73745F64 		.ascii	"st_dev\000"
 4048      657600
 4049              	.LASF227:
 4050 08fc 76745F64 		.ascii	"vt_delta\000"
 4050      656C7461 
 4050      00
 4051              	.LASF26:
 4052 0905 5F66706F 		.ascii	"_fpos_t\000"
 4052      735F7400 
 4053              	.LASF29:
 4054 090d 5F5F7763 		.ascii	"__wchb\000"
ARM GAS  /tmp/ccSpsmCg.s 			page 79


 4054      686200
 4055              	.LASF224:
 4056 0914 63685F76 		.ascii	"ch_virtual_timer\000"
 4056      69727475 
 4056      616C5F74 
 4056      696D6572 
 4056      00
 4057              	.LASF259:
 4058 0925 735F636E 		.ascii	"s_cnt\000"
 4058      7400
 4059              	.LASF118:
 4060 092b 5F6D6274 		.ascii	"_mbtowc_state\000"
 4060      6F77635F 
 4060      73746174 
 4060      6500
 4061              	.LASF146:
 4062 0939 626C6B73 		.ascii	"blksize_t\000"
 4062      697A655F 
 4062      7400
 4063              	.LASF14:
 4064 0943 6C6F6E67 		.ascii	"long long unsigned int\000"
 4064      206C6F6E 
 4064      6720756E 
 4064      7369676E 
 4064      65642069 
 4065              	.LASF193:
 4066 095a 705F6F6C 		.ascii	"p_older\000"
 4066      64657200 
 4067              	.LASF140:
 4068 0962 75696E74 		.ascii	"uint16_t\000"
 4068      31365F74 
 4068      00
 4069              	.LASF25:
 4070 096b 5F5F6F66 		.ascii	"__off_t\000"
 4070      665F7400 
 4071              	.LASF54:
 4072 0973 5F64736F 		.ascii	"_dso_handle\000"
 4072      5F68616E 
 4072      646C6500 
 4073              	.LASF182:
 4074 097f 6D73675F 		.ascii	"msg_t\000"
 4074      7400
 4075              	.LASF213:
 4076 0985 63685F74 		.ascii	"ch_threads_queue\000"
 4076      68726561 
 4076      64735F71 
 4076      75657565 
 4076      00
 4077              	.LASF106:
 4078 0996 5F72616E 		.ascii	"_rand48\000"
 4078      64343800 
 4079              	.LASF278:
 4080 099e 63665F6F 		.ascii	"cf_off_flags\000"
 4080      66665F66 
 4080      6C616773 
 4080      00
 4081              	.LASF83:
ARM GAS  /tmp/ccSpsmCg.s 			page 80


 4082 09ab 5F737464 		.ascii	"_stdout\000"
 4082      6F757400 
 4083              	.LASF180:
 4084 09b3 74736C69 		.ascii	"tslices_t\000"
 4084      6365735F 
 4084      7400
 4085              	.LASF74:
 4086 09bd 5F626C6B 		.ascii	"_blksize\000"
 4086      73697A65 
 4086      00
 4087              	.LASF61:
 4088 09c6 5F626173 		.ascii	"_base\000"
 4088      6500
 4089              	.LASF286:
 4090 09cc 5F667374 		.ascii	"_fstat_r\000"
 4090      61745F72 
 4090      00
 4091              	.LASF111:
 4092 09d5 5F737472 		.ascii	"_strtok_last\000"
 4092      746F6B5F 
 4092      6C617374 
 4092      00
 4093              	.LASF124:
 4094 09e2 5F6D6272 		.ascii	"_mbrtowc_state\000"
 4094      746F7763 
 4094      5F737461 
 4094      746500
 4095              	.LASF240:
 4096 09f1 6D61696E 		.ascii	"mainthread\000"
 4096      74687265 
 4096      616400
 4097              	.LASF33:
 4098 09fc 5F666C6F 		.ascii	"_flock_t\000"
 4098      636B5F74 
 4098      00
 4099              	.LASF102:
 4100 0a05 5F5F4649 		.ascii	"__FILE\000"
 4100      4C4500
 4101              	.LASF32:
 4102 0a0c 5F6D6273 		.ascii	"_mbstate_t\000"
 4102      74617465 
 4102      5F7400
 4103              	.LASF216:
 4104 0a17 725F7175 		.ascii	"r_queue\000"
 4104      65756500 
 4105              	.LASF116:
 4106 0a1f 5F723438 		.ascii	"_r48\000"
 4106      00
 4107              	.LASF27:
 4108 0a24 77696E74 		.ascii	"wint_t\000"
 4108      5F7400
 4109              	.LASF37:
 4110 0a2b 5F6E6578 		.ascii	"_next\000"
 4110      7400
 4111              	.LASF76:
 4112 0a31 5F646174 		.ascii	"_data\000"
 4112      6100
ARM GAS  /tmp/ccSpsmCg.s 			page 81


 4113              	.LASF238:
 4114 0a37 726C6973 		.ascii	"rlist\000"
 4114      7400
 4115              	.LASF177:
 4116 0a3d 746D6F64 		.ascii	"tmode_t\000"
 4116      655F7400 
 4117              	.LASF169:
 4118 0a45 73745F6D 		.ascii	"st_mtime\000"
 4118      74696D65 
 4118      00
 4119              	.LASF232:
 4120 0a4e 76745F73 		.ascii	"vt_systime\000"
 4120      79737469 
 4120      6D6500
 4121              	.LASF220:
 4122 0a59 725F6F6C 		.ascii	"r_older\000"
 4122      64657200 
 4123              	.LASF249:
 4124 0a61 746D5F63 		.ascii	"tm_calibration_t\000"
 4124      616C6962 
 4124      72617469 
 4124      6F6E5F74 
 4124      00
 4125              	.LASF258:
 4126 0a72 735F7175 		.ascii	"s_queue\000"
 4126      65756500 
 4127              	.LASF117:
 4128 0a7a 5F6D626C 		.ascii	"_mblen_state\000"
 4128      656E5F73 
 4128      74617465 
 4128      00
 4129              	.LASF5:
 4130 0a87 73686F72 		.ascii	"short int\000"
 4130      7420696E 
 4130      7400
 4131              	.LASF143:
 4132 0a91 75696E74 		.ascii	"uint64_t\000"
 4132      36345F74 
 4132      00
 4133              	.LASF260:
 4134 0a9a 63685F6D 		.ascii	"ch_mutex\000"
 4134      75746578 
 4134      00
 4135              	.LASF136:
 4136 0aa3 7375626F 		.ascii	"suboptarg\000"
 4136      70746172 
 4136      6700
 4137              	.LASF55:
 4138 0aad 5F666E74 		.ascii	"_fntypes\000"
 4138      79706573 
 4138      00
 4139              	.LASF15:
 4140 0ab6 5F5F696E 		.ascii	"__int_least64_t\000"
 4140      745F6C65 
 4140      61737436 
 4140      345F7400 
 4141              	.LASF234:
ARM GAS  /tmp/ccSpsmCg.s 			page 82


 4142 0ac6 63685F73 		.ascii	"ch_system_debug\000"
 4142      79737465 
 4142      6D5F6465 
 4142      62756700 
 4143              	.LASF137:
 4144 0ad6 5F737973 		.ascii	"_sys_errlist\000"
 4144      5F657272 
 4144      6C697374 
 4144      00
 4145              	.LASF48:
 4146 0ae3 5F5F746D 		.ascii	"__tm_year\000"
 4146      5F796561 
 4146      7200
 4147              	.LASF274:
 4148 0aed 63665F6F 		.ascii	"cf_off_older\000"
 4148      66665F6F 
 4148      6C646572 
 4148      00
 4149              	.LASF66:
 4150 0afa 5F6C6266 		.ascii	"_lbfsize\000"
 4150      73697A65 
 4150      00
 4151              	.LASF239:
 4152 0b03 76746C69 		.ascii	"vtlist\000"
 4152      737400
 4153              	.LASF85:
 4154 0b0a 5F696E63 		.ascii	"_inc\000"
 4154      00
 4155              	.LASF58:
 4156 0b0f 5F696E64 		.ascii	"_ind\000"
 4156      00
 4157              	.LASF60:
 4158 0b14 5F5F7362 		.ascii	"__sbuf\000"
 4158      756600
 4159              	.LASF292:
 4160 0b1b 5F6C7365 		.ascii	"_lseek_r\000"
 4160      656B5F72 
 4160      00
 4161              	.LASF56:
 4162 0b24 5F69735F 		.ascii	"_is_cxa\000"
 4162      63786100 
 4163              	.LASF16:
 4164 0b2c 5F4C4F43 		.ascii	"_LOCK_T\000"
 4164      4B5F5400 
 4165              	.LASF284:
 4166 0b34 6D757465 		.ascii	"mutex_t\000"
 4166      785F7400 
 4167              	.LASF161:
 4168 0b3c 73745F6D 		.ascii	"st_mode\000"
 4168      6F646500 
 4169              	.LASF21:
 4170 0b44 5F5F7569 		.ascii	"__uid_t\000"
 4170      645F7400 
 4171              	.LASF129:
 4172 0b4c 5F6E6578 		.ascii	"_nextf\000"
 4172      746600
 4173              	.LASF276:
ARM GAS  /tmp/ccSpsmCg.s 			page 83


 4174 0b53 63665F6F 		.ascii	"cf_off_stklimit\000"
 4174      66665F73 
 4174      746B6C69 
 4174      6D697400 
 4175              	.LASF296:
 4176 0b63 2F626C64 		.ascii	"/bldc\000"
 4176      6300
 4177              	.LASF237:
 4178 0b69 63685F73 		.ascii	"ch_system\000"
 4178      79737465 
 4178      6D00
 4179              	.LASF88:
 4180 0b73 5F6C6F63 		.ascii	"_locale\000"
 4180      616C6500 
 4181              	.LASF36:
 4182 0b7b 5F5F554C 		.ascii	"__ULong\000"
 4182      6F6E6700 
 4183              	.LASF142:
 4184 0b83 75696E74 		.ascii	"uint32_t\000"
 4184      33325F74 
 4184      00
 4185              	.LASF91:
 4186 0b8c 5F726573 		.ascii	"_result\000"
 4186      756C7400 
 4187              	.LASF19:
 4188 0b94 5F6F6666 		.ascii	"_off_t\000"
 4188      5F7400
 4189              	.LASF250:
 4190 0b9b 7264796D 		.ascii	"rdymsg\000"
 4190      736700
 4191              	.LASF109:
 4192 0ba2 5F616464 		.ascii	"_add\000"
 4192      00
 4193              	.LASF7:
 4194 0ba7 73686F72 		.ascii	"short unsigned int\000"
 4194      7420756E 
 4194      7369676E 
 4194      65642069 
 4194      6E7400
 4195              	.LASF45:
 4196 0bba 5F5F746D 		.ascii	"__tm_hour\000"
 4196      5F686F75 
 4196      7200
 4197              	.LASF236:
 4198 0bc4 63685F73 		.ascii	"ch_system_t\000"
 4198      79737465 
 4198      6D5F7400 
 4199              	.LASF282:
 4200 0bd0 63686465 		.ascii	"chdebug_t\000"
 4200      6275675F 
 4200      7400
 4201              	.LASF266:
 4202 0bda 63685F73 		.ascii	"ch_size\000"
 4202      697A6500 
 4203              	.LASF125:
 4204 0be2 5F6D6273 		.ascii	"_mbsrtowcs_state\000"
 4204      72746F77 
ARM GAS  /tmp/ccSpsmCg.s 			page 84


 4204      63735F73 
 4204      74617465 
 4204      00
 4205              	.LASF195:
 4206 0bf3 705F7374 		.ascii	"p_stklimit\000"
 4206      6B6C696D 
 4206      697400
 4207              	.LASF8:
 4208 0bfe 5F5F696E 		.ascii	"__int32_t\000"
 4208      7433325F 
 4208      7400
 4209              	.LASF293:
 4210 0c08 5F726561 		.ascii	"_read_r\000"
 4210      645F7200 
 4211              	.LASF160:
 4212 0c10 73745F69 		.ascii	"st_ino\000"
 4212      6E6F00
 4213              	.LASF221:
 4214 0c17 725F6375 		.ascii	"r_current\000"
 4214      7272656E 
 4214      7400
 4215              	.LASF34:
 4216 0c21 5F5F6E6C 		.ascii	"__nlink_t\000"
 4216      696E6B5F 
 4216      7400
 4217              	.LASF53:
 4218 0c2b 5F666E61 		.ascii	"_fnargs\000"
 4218      72677300 
 4219              	.LASF51:
 4220 0c33 5F5F746D 		.ascii	"__tm_isdst\000"
 4220      5F697364 
 4220      737400
 4221              	.LASF194:
 4222 0c3e 705F6E61 		.ascii	"p_name\000"
 4222      6D6500
 4223              	.LASF152:
 4224 0c45 6769645F 		.ascii	"gid_t\000"
 4224      7400
 4225              	.LASF263:
 4226 0c4b 6D5F6E65 		.ascii	"m_next\000"
 4226      787400
 4227              	.LASF44:
 4228 0c52 5F5F746D 		.ascii	"__tm_min\000"
 4228      5F6D696E 
 4228      00
 4229              	.LASF122:
 4230 0c5b 5F676574 		.ascii	"_getdate_err\000"
 4230      64617465 
 4230      5F657272 
 4230      00
 4231              	.LASF254:
 4232 0c68 77747365 		.ascii	"wtsemp\000"
 4232      6D7000
 4233              	.LASF203:
 4234 0c6f 705F6D73 		.ascii	"p_msg\000"
 4234      6700
 4235              	.LASF217:
ARM GAS  /tmp/ccSpsmCg.s 			page 85


 4236 0c75 725F7072 		.ascii	"r_prio\000"
 4236      696F00
 4237              	.LASF196:
 4238 0c7c 705F7374 		.ascii	"p_state\000"
 4238      61746500 
 4239              		.ident	"GCC: (GNU Tools for Arm Embedded Processors 7-2018-q3-update) 7.3.1 20180622 (release) [AR
ARM GAS  /tmp/ccSpsmCg.s 			page 86


DEFINED SYMBOLS
                            *ABS*:0000000000000000 syscalls.c
     /tmp/ccSpsmCg.s:18     .text._read_r:0000000000000000 $t
     /tmp/ccSpsmCg.s:26     .text._read_r:0000000000000000 _read_r
     /tmp/ccSpsmCg.s:47     .text._lseek_r:0000000000000000 $t
     /tmp/ccSpsmCg.s:55     .text._lseek_r:0000000000000000 _lseek_r
     /tmp/ccSpsmCg.s:71     .text._write_r:0000000000000000 $t
     /tmp/ccSpsmCg.s:79     .text._write_r:0000000000000000 _write_r
     /tmp/ccSpsmCg.s:95     .text._close_r:0000000000000000 $t
     /tmp/ccSpsmCg.s:103    .text._close_r:0000000000000000 _close_r
     /tmp/ccSpsmCg.s:119    .text._sbrk_r:0000000000000000 $t
     /tmp/ccSpsmCg.s:127    .text._sbrk_r:0000000000000000 _sbrk_r
     /tmp/ccSpsmCg.s:163    .text._fstat_r:0000000000000000 $t
     /tmp/ccSpsmCg.s:171    .text._fstat_r:0000000000000000 _fstat_r
     /tmp/ccSpsmCg.s:201    .text._isatty_r:0000000000000000 $t
     /tmp/ccSpsmCg.s:209    .text._isatty_r:0000000000000000 _isatty_r

UNDEFINED SYMBOLS
chCoreAlloc
memset
