ARM GAS  /tmp/cctsMulU.s 			page 1


   1              		.cpu cortex-m4
   2              		.eabi_attribute 27, 1
   3              		.eabi_attribute 28, 1
   4              		.eabi_attribute 20, 1
   5              		.eabi_attribute 21, 1
   6              		.eabi_attribute 23, 3
   7              		.eabi_attribute 24, 1
   8              		.eabi_attribute 25, 1
   9              		.eabi_attribute 26, 1
  10              		.eabi_attribute 30, 2
  11              		.eabi_attribute 34, 1
  12              		.eabi_attribute 18, 4
  13              		.file	"timeout.c"
  14              		.text
  15              	.Ltext0:
  16              		.cfi_sections	.debug_frame
  17              		.section	.text.timeout_thread,"ax",%progbits
  18              		.align	1
  19              		.p2align 4,,15
  20              		.syntax unified
  21              		.thumb
  22              		.thumb_func
  23              		.fpu fpv4-sp-d16
  24              		.type	timeout_thread, %function
  25              	timeout_thread:
  26              	.LFB268:
  27              		.file 1 "timeout.c"
  28              		.loc 1 182 0
  29              		.cfi_startproc
  30              		@ args = 0, pretend = 0, frame = 0
  31              		@ frame_needed = 0, uses_anonymous_args = 0
  32              	.LVL0:
  33 0000 2DE9F84F 		push	{r3, r4, r5, r6, r7, r8, r9, r10, fp, lr}
  34              		.cfi_def_cfa_offset 40
  35              		.cfi_offset 3, -40
  36              		.cfi_offset 4, -36
  37              		.cfi_offset 5, -32
  38              		.cfi_offset 6, -28
  39              		.cfi_offset 7, -24
  40              		.cfi_offset 8, -20
  41              		.cfi_offset 9, -16
  42              		.cfi_offset 10, -12
  43              		.cfi_offset 11, -8
  44              		.cfi_offset 14, -4
  45              	.LBB49:
  46              	.LBB50:
  47              		.file 2 "ChibiOS_3.0.5/os/rt/include/chregistry.h"
  48              		.loc 2 135 0
  49 0004 654B     		ldr	r3, .L46
  50 0006 6649     		ldr	r1, .L46+4
  51 0008 9B69     		ldr	r3, [r3, #24]
  52 000a DFF8C0A1 		ldr	r10, .L46+48
  53 000e DFF8C081 		ldr	r8, .L46+52
  54 0012 644C     		ldr	r4, .L46+8
  55 0014 644D     		ldr	r5, .L46+12
  56 0016 DFF8BCB1 		ldr	fp, .L46+56
  57 001a 644E     		ldr	r6, .L46+16
ARM GAS  /tmp/cctsMulU.s 			page 2


  58              	.LBE50:
  59              	.LBE49:
  60              		.loc 1 182 0
  61 001c 2DED048B 		vpush.64	{d8, d9}
  62              		.cfi_def_cfa_offset 56
  63              		.cfi_offset 80, -56
  64              		.cfi_offset 81, -52
  65              		.cfi_offset 82, -48
  66              		.cfi_offset 83, -44
  67              	.LBB52:
  68              		.loc 1 204 0
  69 0020 9FED639A 		vldr.32	s18, .L46+20
  70 0024 DFED638A 		vldr.32	s17, .L46+24
  71 0028 9FED638A 		vldr.32	s16, .L46+28
  72              	.LBE52:
  73              	.LBB60:
  74              	.LBB51:
  75              		.loc 2 135 0
  76 002c 9961     		str	r1, [r3, #24]
  77              	.LBE51:
  78              	.LBE60:
  79              	.LBB61:
  80              		.loc 1 227 0
  81 002e 0027     		movs	r7, #0
  82              	.LVL1:
  83              	.L16:
  84              		.loc 1 190 0
  85 0030 9AF80030 		ldrb	r3, [r10]	@ zero_extendqisi2
  86 0034 013B     		subs	r3, r3, #1
  87 0036 032B     		cmp	r3, #3
  88 0038 5FD8     		bhi	.L2
  89 003a DFE803F0 		tbb	[pc, r3]
  90              	.L4:
  91 003e 95       		.byte	(.L3-.L4)/2
  92 003f 9C       		.byte	(.L5-.L4)/2
  93 0040 48       		.byte	(.L6-.L4)/2
  94 0041 02       		.byte	(.L7-.L4)/2
  95              		.p2align 1
  96              	.L7:
  97              		.loc 1 204 0
  98 0042 5E4B     		ldr	r3, .L46+32
  99 0044 DB89     		ldrh	r3, [r3, #14]
 100 0046 07EE903A 		vmov	s15, r3	@ int
 101 004a F8EE677A 		vcvt.f32.u32	s15, s15
 102 004e 67EE897A 		vmul.f32	s15, s15, s18
 103 0052 67EEA87A 		vmul.f32	s15, s15, s17
 104 0056 F4EEC87A 		vcmpe.f32	s15, s16
 105 005a F1EE10FA 		vmrs	APSR_nzcv, FPSCR
 106 005e CCBF     		ite	gt
 107 0060 4FF00109 		movgt	r9, #1
 108 0064 4FF00009 		movle	r9, #0
 109              	.LVL2:
 110              	.L8:
 111              		.loc 1 211 0
 112 0068 B9F1000F 		cmp	r9, #0
 113 006c 45D0     		beq	.L2
 114              	.L9:
ARM GAS  /tmp/cctsMulU.s 			page 3


 115              		.loc 1 212 0
 116 006e 2378     		ldrb	r3, [r4]	@ zero_extendqisi2
 117 0070 1BB9     		cbnz	r3, .L40
 118 0072 2B78     		ldrb	r3, [r5]	@ zero_extendqisi2
 119 0074 0BB9     		cbnz	r3, .L40
 120              		.loc 1 213 0
 121 0076 FFF7FEFF 		bl	mc_interface_release_motor_override
 122              	.LVL3:
 123              	.L40:
 124              		.loc 1 215 0
 125 007a FFF7FEFF 		bl	mc_interface_unlock
 126              	.LVL4:
 127              		.loc 1 216 0
 128 007e 0120     		movs	r0, #1
 129 0080 FFF7FEFF 		bl	mc_interface_select_motor_thread
 130              	.LVL5:
 131              		.loc 1 217 0
 132 0084 96ED000A 		vldr.32	s0, [r6]
 133 0088 FFF7FEFF 		bl	mc_interface_set_brake_current
 134              	.LVL6:
 135              		.loc 1 218 0
 136 008c 0220     		movs	r0, #2
 137 008e FFF7FEFF 		bl	mc_interface_select_motor_thread
 138              	.LVL7:
 139              		.loc 1 219 0
 140 0092 96ED000A 		vldr.32	s0, [r6]
 141 0096 FFF7FEFF 		bl	mc_interface_set_brake_current
 142              	.LVL8:
 143              		.loc 1 222 0
 144 009a 1420     		movs	r0, #20
 145 009c FFF7FEFF 		bl	mc_interface_ignore_input_both
 146              	.LVL9:
 147              	.L12:
 148              		.loc 1 230 0
 149 00a0 85F80090 		strb	r9, [r5]
 150              	.LVL10:
 151              		.loc 1 237 0
 152 00a4 DBF80020 		ldr	r2, [fp]
 153              	.LVL11:
 154              		.loc 1 242 0
 155 00a8 DBF80430 		ldr	r3, [fp, #4]
 156 00ac 002B     		cmp	r3, #0
 157 00ae 59D0     		beq	.L27
 158              	.LVL12:
 159              	.L45:
 160              		.loc 1 237 0
 161 00b0 0032     		adds	r2, r2, #0
 162 00b2 18BF     		it	ne
 163 00b4 0122     		movne	r2, #1
 164              	.L13:
 165              	.LVL13:
 166              	.LBB53:
 167              		.loc 1 247 0
 168 00b6 0023     		movs	r3, #0
 169              	.LVL14:
 170              	.L14:
 171              		.loc 1 248 0 discriminator 3
ARM GAS  /tmp/cctsMulU.s 			page 4


 172 00b8 4BF82370 		str	r7, [fp, r3, lsl #2]
 173              		.loc 1 247 0 discriminator 3
 174 00bc 0133     		adds	r3, r3, #1
 175              	.LVL15:
 176 00be 0A2B     		cmp	r3, #10
 177 00c0 FAD1     		bne	.L14
 178              	.LBE53:
 179              		.loc 1 251 0
 180 00c2 002A     		cmp	r2, #0
 181 00c4 60D1     		bne	.L43
 182              	.LVL16:
 183              	.L15:
 184              		.loc 1 260 0
 185 00c6 6420     		movs	r0, #100
 186 00c8 FFF7FEFF 		bl	chThdSleep
 187              	.LVL17:
 188              	.LBE61:
 189              		.loc 1 187 0
 190 00cc B0E7     		b	.L16
 191              	.LVL18:
 192              	.L6:
 193              	.LBB62:
 194              		.loc 1 200 0
 195 00ce 3B4B     		ldr	r3, .L46+32
 196 00d0 DB89     		ldrh	r3, [r3, #14]
 197 00d2 07EE903A 		vmov	s15, r3	@ int
 198 00d6 F8EE677A 		vcvt.f32.u32	s15, s15
 199 00da 67EE897A 		vmul.f32	s15, s15, s18
 200 00de 67EEA87A 		vmul.f32	s15, s15, s17
 201 00e2 F4EEC87A 		vcmpe.f32	s15, s16
 202 00e6 F1EE10FA 		vmrs	APSR_nzcv, FPSCR
 203 00ea 4CBF     		ite	mi
 204 00ec 4FF00109 		movmi	r9, #1
 205 00f0 4FF00009 		movpl	r9, #0
 206              	.LVL19:
 207              		.loc 1 211 0
 208 00f4 B9F1000F 		cmp	r9, #0
 209 00f8 B9D1     		bne	.L9
 210              	.LVL20:
 211              	.L2:
 212              		.loc 1 211 0 is_stmt 0 discriminator 1
 213 00fa D8F80030 		ldr	r3, [r8]
 214 00fe 002B     		cmp	r3, #0
 215 0100 3ED0     		beq	.L10
 216              		.loc 1 211 0 discriminator 2
 217 0102 2F4B     		ldr	r3, .L46+36
 218 0104 1968     		ldr	r1, [r3]
 219              	.LVL21:
 220              	.LBB54:
 221              	.LBB55:
 222              	.LBB56:
 223              	.LBB57:
 224              		.file 3 "ChibiOS_3.0.5/os/rt/include/chvt.h"
 225              		.loc 3 231 0 is_stmt 1 discriminator 2
 226 0106 254B     		ldr	r3, .L46
 227 0108 9A6A     		ldr	r2, [r3, #40]
 228              	.LVL22:
ARM GAS  /tmp/cctsMulU.s 			page 5


 229              	.LBE57:
 230              	.LBE56:
 231              	.LBE55:
 232              	.LBE54:
 233              		.loc 1 211 0 discriminator 2
 234 010a D8F80000 		ldr	r0, [r8]
 235 010e 42F21073 		movw	r3, #10000
 236              	.LBB59:
 237              	.LBB58:
 238              		.loc 3 267 0 discriminator 2
 239 0112 521A     		subs	r2, r2, r1
 240              	.LBE58:
 241              	.LBE59:
 242              		.loc 1 211 0 discriminator 2
 243 0114 03FB00F3 		mul	r3, r3, r0
 244 0118 2A49     		ldr	r1, .L46+40
 245 011a 03F2E733 		addw	r3, r3, #999
 246 011e A1FB0313 		umull	r1, r3, r1, r3
 247 0122 B2EB931F 		cmp	r2, r3, lsr #6
 248 0126 2BD9     		bls	.L10
 249              		.loc 1 212 0
 250 0128 2378     		ldrb	r3, [r4]	@ zero_extendqisi2
 251 012a 83B3     		cbz	r3, .L44
 252              	.L41:
 253              		.loc 1 215 0
 254 012c FFF7FEFF 		bl	mc_interface_unlock
 255              	.LVL23:
 256              		.loc 1 216 0
 257 0130 0120     		movs	r0, #1
 258 0132 FFF7FEFF 		bl	mc_interface_select_motor_thread
 259              	.LVL24:
 260              		.loc 1 217 0
 261 0136 96ED000A 		vldr.32	s0, [r6]
 262 013a FFF7FEFF 		bl	mc_interface_set_brake_current
 263              	.LVL25:
 264              		.loc 1 218 0
 265 013e 0220     		movs	r0, #2
 266 0140 FFF7FEFF 		bl	mc_interface_select_motor_thread
 267              	.LVL26:
 268              		.loc 1 219 0
 269 0144 96ED000A 		vldr.32	s0, [r6]
 270 0148 FFF7FEFF 		bl	mc_interface_set_brake_current
 271              	.LVL27:
 272              		.loc 1 224 0
 273 014c 4FF00009 		mov	r9, #0
 274 0150 0123     		movs	r3, #1
 275 0152 2370     		strb	r3, [r4]
 276              		.loc 1 230 0
 277 0154 85F80090 		strb	r9, [r5]
 278              	.LVL28:
 279              		.loc 1 237 0
 280 0158 DBF80020 		ldr	r2, [fp]
 281              	.LVL29:
 282              		.loc 1 242 0
 283 015c DBF80430 		ldr	r3, [fp, #4]
 284 0160 002B     		cmp	r3, #0
 285 0162 A5D1     		bne	.L45
ARM GAS  /tmp/cctsMulU.s 			page 6


 286              	.LVL30:
 287              	.L27:
 288              		.loc 1 243 0
 289 0164 1A46     		mov	r2, r3
 290 0166 A6E7     		b	.L13
 291              	.LVL31:
 292              	.L3:
 293              		.loc 1 192 0
 294 0168 174B     		ldr	r3, .L46+44
 295 016a 1B69     		ldr	r3, [r3, #16]
 296 016c 6FEA9319 		mvn	r9, r3, lsr #6
 297 0170 09F00109 		and	r9, r9, #1
 298              	.LVL32:
 299              		.loc 1 193 0
 300 0174 78E7     		b	.L8
 301              	.LVL33:
 302              	.L5:
 303              		.loc 1 196 0
 304 0176 144B     		ldr	r3, .L46+44
 305 0178 1B69     		ldr	r3, [r3, #16]
 306 017a C3F38019 		ubfx	r9, r3, #6, #1
 307              	.LVL34:
 308              		.loc 1 197 0
 309 017e 73E7     		b	.L8
 310              	.LVL35:
 311              	.L10:
 312              		.loc 1 227 0
 313 0180 2770     		strb	r7, [r4]
 314 0182 4FF00009 		mov	r9, #0
 315 0186 8BE7     		b	.L12
 316              	.LVL36:
 317              	.L43:
 318              		.loc 1 253 0
 319 0188 FFF7FEFF 		bl	IWDG_ReloadCounter
 320              	.LVL37:
 321 018c 9BE7     		b	.L15
 322              	.L44:
 323              		.loc 1 212 0
 324 018e 2B78     		ldrb	r3, [r5]	@ zero_extendqisi2
 325 0190 002B     		cmp	r3, #0
 326 0192 CBD1     		bne	.L41
 327              		.loc 1 213 0
 328 0194 FFF7FEFF 		bl	mc_interface_release_motor_override
 329              	.LVL38:
 330 0198 C8E7     		b	.L41
 331              	.L47:
 332 019a 00BF     		.align	2
 333              	.L46:
 334 019c 00000000 		.word	ch
 335 01a0 00000000 		.word	.LC0
 336 01a4 00000000 		.word	.LANCHOR3
 337 01a8 00000000 		.word	.LANCHOR4
 338 01ac 00000000 		.word	.LANCHOR6
 339 01b0 00008039 		.word	964689920
 340 01b4 33335340 		.word	1079194419
 341 01b8 3333D33F 		.word	1070805811
 342 01bc 00000000 		.word	ADC_Value
ARM GAS  /tmp/cctsMulU.s 			page 7


 343 01c0 00000000 		.word	.LANCHOR2
 344 01c4 D34D6210 		.word	274877907
 345 01c8 00040240 		.word	1073873920
 346 01cc 00000000 		.word	.LANCHOR0
 347 01d0 00000000 		.word	.LANCHOR1
 348 01d4 00000000 		.word	.LANCHOR5
 349              	.LBE62:
 350              		.cfi_endproc
 351              	.LFE268:
 352              		.size	timeout_thread, .-timeout_thread
 353              		.section	.text.timeout_init,"ax",%progbits
 354              		.align	1
 355              		.p2align 4,,15
 356              		.global	timeout_init
 357              		.syntax unified
 358              		.thumb
 359              		.thumb_func
 360              		.fpu fpv4-sp-d16
 361              		.type	timeout_init, %function
 362              	timeout_init:
 363              	.LFB256:
 364              		.loc 1 39 0
 365              		.cfi_startproc
 366              		@ args = 0, pretend = 0, frame = 0
 367              		@ frame_needed = 0, uses_anonymous_args = 0
 368 0000 F0B5     		push	{r4, r5, r6, r7, lr}
 369              		.cfi_def_cfa_offset 20
 370              		.cfi_offset 4, -20
 371              		.cfi_offset 5, -16
 372              		.cfi_offset 6, -12
 373              		.cfi_offset 7, -8
 374              		.cfi_offset 14, -4
 375              		.loc 1 40 0
 376 0002 174C     		ldr	r4, .L50
 377              		.loc 1 41 0
 378 0004 174E     		ldr	r6, .L50+4
 379              		.loc 1 42 0
 380 0006 184B     		ldr	r3, .L50+8
 381              		.loc 1 43 0
 382 0008 184A     		ldr	r2, .L50+12
 383              		.loc 1 45 0
 384 000a 1949     		ldr	r1, .L50+16
 385              		.loc 1 44 0
 386 000c 194D     		ldr	r5, .L50+20
 387              		.loc 1 40 0
 388 000e 4FF47A77 		mov	r7, #1000
 389 0012 2760     		str	r7, [r4]
 390              		.loc 1 42 0
 391 0014 0020     		movs	r0, #0
 392              		.loc 1 41 0
 393 0016 0024     		movs	r4, #0
 394 0018 3460     		str	r4, [r6]
 395              		.loc 1 42 0
 396 001a 1860     		str	r0, [r3]	@ float
 397              		.loc 1 46 0
 398 001c 164B     		ldr	r3, .L50+24
 399              		.loc 1 43 0
ARM GAS  /tmp/cctsMulU.s 			page 8


 400 001e 1470     		strb	r4, [r2]
 401              		.loc 1 39 0
 402 0020 83B0     		sub	sp, sp, #12
 403              		.cfi_def_cfa_offset 32
 404              		.loc 1 46 0
 405 0022 0122     		movs	r2, #1
 406              		.loc 1 48 0
 407 0024 45F25550 		movw	r0, #21845
 408              		.loc 1 44 0
 409 0028 2C70     		strb	r4, [r5]
 410              		.loc 1 45 0
 411 002a 0C70     		strb	r4, [r1]
 412              		.loc 1 46 0
 413 002c 1A70     		strb	r2, [r3]
 414              		.loc 1 48 0
 415 002e FFF7FEFF 		bl	IWDG_WriteAccessCmd
 416              	.LVL39:
 417              		.loc 1 51 0
 418 0032 2046     		mov	r0, r4
 419 0034 FFF7FEFF 		bl	IWDG_SetPrescaler
 420              	.LVL40:
 421              		.loc 1 72 0
 422 0038 8C20     		movs	r0, #140
 423 003a FFF7FEFF 		bl	IWDG_SetReload
 424              	.LVL41:
 425              		.loc 1 74 0
 426 003e FFF7FEFF 		bl	IWDG_ReloadCounter
 427              	.LVL42:
 428              		.loc 1 77 0
 429 0042 FFF7FEFF 		bl	IWDG_Enable
 430              	.LVL43:
 431              		.loc 1 79 0
 432 0046 6420     		movs	r0, #100
 433 0048 FFF7FEFF 		bl	chThdSleep
 434              	.LVL44:
 435              		.loc 1 81 0
 436 004c 0094     		str	r4, [sp]
 437 004e 0B4B     		ldr	r3, .L50+28
 438 0050 0B48     		ldr	r0, .L50+32
 439 0052 4022     		movs	r2, #64
 440 0054 4FF42871 		mov	r1, #672
 441 0058 FFF7FEFF 		bl	chThdCreateStatic
 442              	.LVL45:
 443              		.loc 1 82 0
 444 005c 03B0     		add	sp, sp, #12
 445              		.cfi_def_cfa_offset 20
 446              		@ sp needed
 447 005e F0BD     		pop	{r4, r5, r6, r7, pc}
 448              	.L51:
 449              		.align	2
 450              	.L50:
 451 0060 00000000 		.word	.LANCHOR1
 452 0064 00000000 		.word	.LANCHOR2
 453 0068 00000000 		.word	.LANCHOR6
 454 006c 00000000 		.word	.LANCHOR0
 455 0070 00000000 		.word	.LANCHOR4
 456 0074 00000000 		.word	.LANCHOR3
ARM GAS  /tmp/cctsMulU.s 			page 9


 457 0078 00000000 		.word	.LANCHOR7
 458 007c 00000000 		.word	timeout_thread
 459 0080 00000000 		.word	.LANCHOR8
 460              		.cfi_endproc
 461              	.LFE256:
 462              		.size	timeout_init, .-timeout_init
 463              		.section	.text.timeout_configure,"ax",%progbits
 464              		.align	1
 465              		.p2align 4,,15
 466              		.global	timeout_configure
 467              		.syntax unified
 468              		.thumb
 469              		.thumb_func
 470              		.fpu fpv4-sp-d16
 471              		.type	timeout_configure, %function
 472              	timeout_configure:
 473              	.LFB257:
 474              		.loc 1 84 0
 475              		.cfi_startproc
 476              		@ args = 0, pretend = 0, frame = 0
 477              		@ frame_needed = 0, uses_anonymous_args = 0
 478              		@ link register save eliminated.
 479              	.LVL46:
 480 0000 10B4     		push	{r4}
 481              		.cfi_def_cfa_offset 4
 482              		.cfi_offset 4, -4
 483              		.loc 1 86 0
 484 0002 054A     		ldr	r2, .L54
 485              		.loc 1 85 0
 486 0004 054C     		ldr	r4, .L54+4
 487              		.loc 1 87 0
 488 0006 064B     		ldr	r3, .L54+8
 489              		.loc 1 85 0
 490 0008 2060     		str	r0, [r4]
 491              		.loc 1 86 0
 492 000a 82ED000A 		vstr.32	s0, [r2]
 493              		.loc 1 88 0
 494 000e 5DF8044B 		ldr	r4, [sp], #4
 495              		.cfi_restore 4
 496              		.cfi_def_cfa_offset 0
 497              		.loc 1 87 0
 498 0012 1970     		strb	r1, [r3]
 499              		.loc 1 88 0
 500 0014 7047     		bx	lr
 501              	.L55:
 502 0016 00BF     		.align	2
 503              	.L54:
 504 0018 00000000 		.word	.LANCHOR6
 505 001c 00000000 		.word	.LANCHOR1
 506 0020 00000000 		.word	.LANCHOR0
 507              		.cfi_endproc
 508              	.LFE257:
 509              		.size	timeout_configure, .-timeout_configure
 510              		.section	.text.timeout_reset,"ax",%progbits
 511              		.align	1
 512              		.p2align 4,,15
 513              		.global	timeout_reset
ARM GAS  /tmp/cctsMulU.s 			page 10


 514              		.syntax unified
 515              		.thumb
 516              		.thumb_func
 517              		.fpu fpv4-sp-d16
 518              		.type	timeout_reset, %function
 519              	timeout_reset:
 520              	.LFB258:
 521              		.loc 1 90 0
 522              		.cfi_startproc
 523              		@ args = 0, pretend = 0, frame = 0
 524              		@ frame_needed = 0, uses_anonymous_args = 0
 525              		@ link register save eliminated.
 526              	.LBB63:
 527              	.LBB64:
 528              	.LBB65:
 529              	.LBB66:
 530              	.LBB67:
 531              	.LBB68:
 532              		.file 4 "ChibiOS_3.0.5/os/ext/CMSIS/include/core_cmFunc.h"
 533              		.loc 4 342 0
 534              		.syntax unified
 535              	@ 342 "ChibiOS_3.0.5/os/ext/CMSIS/include/core_cmFunc.h" 1
 536 0000 72B6     		cpsid i
 537              	@ 0 "" 2
 538              		.thumb
 539              		.syntax unified
 540              	.LBE68:
 541              	.LBE67:
 542              	.LBE66:
 543              	.LBE65:
 544              	.LBB69:
 545              	.LBB70:
 546              		.loc 3 231 0
 547 0002 034B     		ldr	r3, .L57
 548 0004 9A6A     		ldr	r2, [r3, #40]
 549              	.LBE70:
 550              	.LBE69:
 551              	.LBB71:
 552              	.LBB72:
 553              	.LBB73:
 554              	.LBB74:
 555              	.LBB75:
 556              		.loc 4 331 0
 557              		.syntax unified
 558              	@ 331 "ChibiOS_3.0.5/os/ext/CMSIS/include/core_cmFunc.h" 1
 559 0006 62B6     		cpsie i
 560              	@ 0 "" 2
 561              		.thumb
 562              		.syntax unified
 563              	.LBE75:
 564              	.LBE74:
 565              	.LBE73:
 566              	.LBE72:
 567              	.LBE71:
 568              	.LBE64:
 569              	.LBE63:
 570              		.loc 1 91 0
ARM GAS  /tmp/cctsMulU.s 			page 11


 571 0008 024B     		ldr	r3, .L57+4
 572 000a 1A60     		str	r2, [r3]
 573              		.loc 1 92 0
 574 000c 7047     		bx	lr
 575              	.L58:
 576 000e 00BF     		.align	2
 577              	.L57:
 578 0010 00000000 		.word	ch
 579 0014 00000000 		.word	.LANCHOR2
 580              		.cfi_endproc
 581              	.LFE258:
 582              		.size	timeout_reset, .-timeout_reset
 583              		.section	.text.timeout_has_timeout,"ax",%progbits
 584              		.align	1
 585              		.p2align 4,,15
 586              		.global	timeout_has_timeout
 587              		.syntax unified
 588              		.thumb
 589              		.thumb_func
 590              		.fpu fpv4-sp-d16
 591              		.type	timeout_has_timeout, %function
 592              	timeout_has_timeout:
 593              	.LFB259:
 594              		.loc 1 94 0
 595              		.cfi_startproc
 596              		@ args = 0, pretend = 0, frame = 0
 597              		@ frame_needed = 0, uses_anonymous_args = 0
 598              		@ link register save eliminated.
 599              		.loc 1 95 0
 600 0000 014B     		ldr	r3, .L60
 601 0002 1878     		ldrb	r0, [r3]	@ zero_extendqisi2
 602              		.loc 1 96 0
 603 0004 7047     		bx	lr
 604              	.L61:
 605 0006 00BF     		.align	2
 606              	.L60:
 607 0008 00000000 		.word	.LANCHOR3
 608              		.cfi_endproc
 609              	.LFE259:
 610              		.size	timeout_has_timeout, .-timeout_has_timeout
 611              		.section	.text.timeout_kill_sw_active,"ax",%progbits
 612              		.align	1
 613              		.p2align 4,,15
 614              		.global	timeout_kill_sw_active
 615              		.syntax unified
 616              		.thumb
 617              		.thumb_func
 618              		.fpu fpv4-sp-d16
 619              		.type	timeout_kill_sw_active, %function
 620              	timeout_kill_sw_active:
 621              	.LFB260:
 622              		.loc 1 98 0
 623              		.cfi_startproc
 624              		@ args = 0, pretend = 0, frame = 0
 625              		@ frame_needed = 0, uses_anonymous_args = 0
 626              		@ link register save eliminated.
 627              		.loc 1 99 0
ARM GAS  /tmp/cctsMulU.s 			page 12


 628 0000 014B     		ldr	r3, .L63
 629 0002 1878     		ldrb	r0, [r3]	@ zero_extendqisi2
 630              		.loc 1 100 0
 631 0004 7047     		bx	lr
 632              	.L64:
 633 0006 00BF     		.align	2
 634              	.L63:
 635 0008 00000000 		.word	.LANCHOR4
 636              		.cfi_endproc
 637              	.LFE260:
 638              		.size	timeout_kill_sw_active, .-timeout_kill_sw_active
 639              		.section	.text.timeout_get_timeout_msec,"ax",%progbits
 640              		.align	1
 641              		.p2align 4,,15
 642              		.global	timeout_get_timeout_msec
 643              		.syntax unified
 644              		.thumb
 645              		.thumb_func
 646              		.fpu fpv4-sp-d16
 647              		.type	timeout_get_timeout_msec, %function
 648              	timeout_get_timeout_msec:
 649              	.LFB261:
 650              		.loc 1 102 0
 651              		.cfi_startproc
 652              		@ args = 0, pretend = 0, frame = 0
 653              		@ frame_needed = 0, uses_anonymous_args = 0
 654              		@ link register save eliminated.
 655              		.loc 1 103 0
 656 0000 014B     		ldr	r3, .L66
 657 0002 1868     		ldr	r0, [r3]
 658              		.loc 1 104 0
 659 0004 7047     		bx	lr
 660              	.L67:
 661 0006 00BF     		.align	2
 662              	.L66:
 663 0008 00000000 		.word	.LANCHOR1
 664              		.cfi_endproc
 665              	.LFE261:
 666              		.size	timeout_get_timeout_msec, .-timeout_get_timeout_msec
 667              		.section	.text.timeout_get_brake_current,"ax",%progbits
 668              		.align	1
 669              		.p2align 4,,15
 670              		.global	timeout_get_brake_current
 671              		.syntax unified
 672              		.thumb
 673              		.thumb_func
 674              		.fpu fpv4-sp-d16
 675              		.type	timeout_get_brake_current, %function
 676              	timeout_get_brake_current:
 677              	.LFB262:
 678              		.loc 1 106 0
 679              		.cfi_startproc
 680              		@ args = 0, pretend = 0, frame = 0
 681              		@ frame_needed = 0, uses_anonymous_args = 0
 682              		@ link register save eliminated.
 683              		.loc 1 107 0
 684 0000 014B     		ldr	r3, .L69
ARM GAS  /tmp/cctsMulU.s 			page 13


 685 0002 93ED000A 		vldr.32	s0, [r3]
 686              		.loc 1 108 0
 687 0006 7047     		bx	lr
 688              	.L70:
 689              		.align	2
 690              	.L69:
 691 0008 00000000 		.word	.LANCHOR6
 692              		.cfi_endproc
 693              	.LFE262:
 694              		.size	timeout_get_brake_current, .-timeout_get_brake_current
 695              		.section	.text.timeout_get_kill_sw_mode,"ax",%progbits
 696              		.align	1
 697              		.p2align 4,,15
 698              		.global	timeout_get_kill_sw_mode
 699              		.syntax unified
 700              		.thumb
 701              		.thumb_func
 702              		.fpu fpv4-sp-d16
 703              		.type	timeout_get_kill_sw_mode, %function
 704              	timeout_get_kill_sw_mode:
 705              	.LFB263:
 706              		.loc 1 110 0
 707              		.cfi_startproc
 708              		@ args = 0, pretend = 0, frame = 0
 709              		@ frame_needed = 0, uses_anonymous_args = 0
 710              		@ link register save eliminated.
 711              		.loc 1 111 0
 712 0000 014B     		ldr	r3, .L72
 713 0002 1878     		ldrb	r0, [r3]	@ zero_extendqisi2
 714              		.loc 1 112 0
 715 0004 7047     		bx	lr
 716              	.L73:
 717 0006 00BF     		.align	2
 718              	.L72:
 719 0008 00000000 		.word	.LANCHOR0
 720              		.cfi_endproc
 721              	.LFE263:
 722              		.size	timeout_get_kill_sw_mode, .-timeout_get_kill_sw_mode
 723              		.section	.text.timeout_feed_WDT,"ax",%progbits
 724              		.align	1
 725              		.p2align 4,,15
 726              		.global	timeout_feed_WDT
 727              		.syntax unified
 728              		.thumb
 729              		.thumb_func
 730              		.fpu fpv4-sp-d16
 731              		.type	timeout_feed_WDT, %function
 732              	timeout_feed_WDT:
 733              	.LFB264:
 734              		.loc 1 114 0
 735              		.cfi_startproc
 736              		@ args = 0, pretend = 0, frame = 0
 737              		@ frame_needed = 0, uses_anonymous_args = 0
 738              		@ link register save eliminated.
 739              	.LVL47:
 740              		.loc 1 115 0
 741 0000 034A     		ldr	r2, .L75
ARM GAS  /tmp/cctsMulU.s 			page 14


 742 0002 52F82030 		ldr	r3, [r2, r0, lsl #2]
 743 0006 0133     		adds	r3, r3, #1
 744 0008 42F82030 		str	r3, [r2, r0, lsl #2]
 745              		.loc 1 116 0
 746 000c 7047     		bx	lr
 747              	.L76:
 748 000e 00BF     		.align	2
 749              	.L75:
 750 0010 00000000 		.word	.LANCHOR5
 751              		.cfi_endproc
 752              	.LFE264:
 753              		.size	timeout_feed_WDT, .-timeout_feed_WDT
 754              		.section	.text.timeout_configure_IWDT_slowest,"ax",%progbits
 755              		.align	1
 756              		.p2align 4,,15
 757              		.global	timeout_configure_IWDT_slowest
 758              		.syntax unified
 759              		.thumb
 760              		.thumb_func
 761              		.fpu fpv4-sp-d16
 762              		.type	timeout_configure_IWDT_slowest, %function
 763              	timeout_configure_IWDT_slowest:
 764              	.LFB265:
 765              		.loc 1 118 0
 766              		.cfi_startproc
 767              		@ args = 0, pretend = 0, frame = 0
 768              		@ frame_needed = 0, uses_anonymous_args = 0
 769              		.loc 1 119 0
 770 0000 124B     		ldr	r3, .L88
 771 0002 1B78     		ldrb	r3, [r3]	@ zero_extendqisi2
 772 0004 03B3     		cbz	r3, .L85
 773              		.loc 1 118 0
 774 0006 10B5     		push	{r4, lr}
 775              		.cfi_def_cfa_offset 8
 776              		.cfi_offset 4, -8
 777              		.cfi_offset 14, -4
 778              		.loc 1 127 0
 779 0008 114C     		ldr	r4, .L88+4
 780 000a 01E0     		b	.L78
 781              	.L79:
 782              		.loc 1 129 0
 783 000c FFF7FEFF 		bl	IWDG_ReloadCounter
 784              	.LVL48:
 785              	.L78:
 786              		.loc 1 127 0
 787 0010 E368     		ldr	r3, [r4, #12]
 788 0012 9807     		lsls	r0, r3, #30
 789 0014 FAD4     		bmi	.L79
 790              		.loc 1 127 0 is_stmt 0 discriminator 1
 791 0016 E368     		ldr	r3, [r4, #12]
 792 0018 D907     		lsls	r1, r3, #31
 793 001a F7D4     		bmi	.L79
 794              		.loc 1 133 0 is_stmt 1
 795 001c 45F25550 		movw	r0, #21845
 796 0020 FFF7FEFF 		bl	IWDG_WriteAccessCmd
 797              	.LVL49:
 798              		.loc 1 135 0
ARM GAS  /tmp/cctsMulU.s 			page 15


 799 0024 4FF47A60 		mov	r0, #4000
 800 0028 FFF7FEFF 		bl	IWDG_SetReload
 801              	.LVL50:
 802              		.loc 1 136 0
 803 002c 0620     		movs	r0, #6
 804 002e FFF7FEFF 		bl	IWDG_SetPrescaler
 805              	.LVL51:
 806              		.loc 1 139 0
 807 0032 074C     		ldr	r4, .L88+4
 808 0034 01E0     		b	.L80
 809              	.L81:
 810              		.loc 1 141 0
 811 0036 FFF7FEFF 		bl	IWDG_ReloadCounter
 812              	.LVL52:
 813              	.L80:
 814              		.loc 1 139 0
 815 003a E368     		ldr	r3, [r4, #12]
 816 003c 9A07     		lsls	r2, r3, #30
 817 003e FAD4     		bmi	.L81
 818              		.loc 1 139 0 is_stmt 0 discriminator 1
 819 0040 E368     		ldr	r3, [r4, #12]
 820 0042 DB07     		lsls	r3, r3, #31
 821 0044 F7D4     		bmi	.L81
 822              		.loc 1 143 0 is_stmt 1
 823 0046 10BD     		pop	{r4, pc}
 824              	.L85:
 825              		.cfi_def_cfa_offset 0
 826              		.cfi_restore 4
 827              		.cfi_restore 14
 828 0048 7047     		bx	lr
 829              	.L89:
 830 004a 00BF     		.align	2
 831              	.L88:
 832 004c 00000000 		.word	.LANCHOR7
 833 0050 00300040 		.word	1073754112
 834              		.cfi_endproc
 835              	.LFE265:
 836              		.size	timeout_configure_IWDT_slowest, .-timeout_configure_IWDT_slowest
 837              		.section	.text.timeout_configure_IWDT,"ax",%progbits
 838              		.align	1
 839              		.p2align 4,,15
 840              		.global	timeout_configure_IWDT
 841              		.syntax unified
 842              		.thumb
 843              		.thumb_func
 844              		.fpu fpv4-sp-d16
 845              		.type	timeout_configure_IWDT, %function
 846              	timeout_configure_IWDT:
 847              	.LFB266:
 848              		.loc 1 145 0
 849              		.cfi_startproc
 850              		@ args = 0, pretend = 0, frame = 0
 851              		@ frame_needed = 0, uses_anonymous_args = 0
 852 0000 38B5     		push	{r3, r4, r5, lr}
 853              		.cfi_def_cfa_offset 16
 854              		.cfi_offset 3, -16
 855              		.cfi_offset 4, -12
ARM GAS  /tmp/cctsMulU.s 			page 16


 856              		.cfi_offset 5, -8
 857              		.cfi_offset 14, -4
 858              		.loc 1 146 0
 859 0002 114B     		ldr	r3, .L98
 860 0004 1B78     		ldrb	r3, [r3]	@ zero_extendqisi2
 861 0006 F3B1     		cbz	r3, .L90
 862              		.loc 1 152 0
 863 0008 104D     		ldr	r5, .L98+4
 864 000a 01E0     		b	.L91
 865              	.L92:
 866              		.loc 1 154 0
 867 000c FFF7FEFF 		bl	IWDG_ReloadCounter
 868              	.LVL53:
 869              	.L91:
 870              		.loc 1 152 0
 871 0010 EB68     		ldr	r3, [r5, #12]
 872 0012 9907     		lsls	r1, r3, #30
 873 0014 FAD4     		bmi	.L92
 874              		.loc 1 152 0 is_stmt 0 discriminator 1
 875 0016 EC68     		ldr	r4, [r5, #12]
 876 0018 14F00104 		ands	r4, r4, #1
 877 001c F6D1     		bne	.L92
 878              		.loc 1 158 0 is_stmt 1
 879 001e 45F25550 		movw	r0, #21845
 880 0022 FFF7FEFF 		bl	IWDG_WriteAccessCmd
 881              	.LVL54:
 882              		.loc 1 160 0
 883 0026 8C20     		movs	r0, #140
 884 0028 FFF7FEFF 		bl	IWDG_SetReload
 885              	.LVL55:
 886              		.loc 1 161 0
 887 002c 2046     		mov	r0, r4
 888 002e FFF7FEFF 		bl	IWDG_SetPrescaler
 889              	.LVL56:
 890              		.loc 1 164 0
 891 0032 064C     		ldr	r4, .L98+4
 892 0034 01E0     		b	.L93
 893              	.L94:
 894              		.loc 1 166 0
 895 0036 FFF7FEFF 		bl	IWDG_ReloadCounter
 896              	.LVL57:
 897              	.L93:
 898              		.loc 1 164 0
 899 003a E368     		ldr	r3, [r4, #12]
 900 003c 9A07     		lsls	r2, r3, #30
 901 003e FAD4     		bmi	.L94
 902              		.loc 1 164 0 is_stmt 0 discriminator 1
 903 0040 E368     		ldr	r3, [r4, #12]
 904 0042 DB07     		lsls	r3, r3, #31
 905 0044 F7D4     		bmi	.L94
 906              	.L90:
 907              		.loc 1 168 0 is_stmt 1
 908 0046 38BD     		pop	{r3, r4, r5, pc}
 909              	.L99:
 910              		.align	2
 911              	.L98:
 912 0048 00000000 		.word	.LANCHOR7
ARM GAS  /tmp/cctsMulU.s 			page 17


 913 004c 00300040 		.word	1073754112
 914              		.cfi_endproc
 915              	.LFE266:
 916              		.size	timeout_configure_IWDT, .-timeout_configure_IWDT
 917              		.section	.text.timeout_had_IWDG_reset,"ax",%progbits
 918              		.align	1
 919              		.p2align 4,,15
 920              		.global	timeout_had_IWDG_reset
 921              		.syntax unified
 922              		.thumb
 923              		.thumb_func
 924              		.fpu fpv4-sp-d16
 925              		.type	timeout_had_IWDG_reset, %function
 926              	timeout_had_IWDG_reset:
 927              	.LFB267:
 928              		.loc 1 170 0
 929              		.cfi_startproc
 930              		@ args = 0, pretend = 0, frame = 0
 931              		@ frame_needed = 0, uses_anonymous_args = 0
 932 0000 08B5     		push	{r3, lr}
 933              		.cfi_def_cfa_offset 8
 934              		.cfi_offset 3, -8
 935              		.cfi_offset 14, -4
 936              		.loc 1 172 0
 937 0002 7D20     		movs	r0, #125
 938 0004 FFF7FEFF 		bl	RCC_GetFlagStatus
 939              	.LVL58:
 940 0008 00B9     		cbnz	r0, .L104
 941              		.loc 1 180 0
 942 000a 08BD     		pop	{r3, pc}
 943              	.L104:
 944              		.loc 1 175 0
 945 000c FFF7FEFF 		bl	RCC_ClearFlag
 946              	.LVL59:
 947              		.loc 1 176 0
 948 0010 0120     		movs	r0, #1
 949              		.loc 1 180 0
 950 0012 08BD     		pop	{r3, pc}
 951              		.cfi_endproc
 952              	.LFE267:
 953              		.size	timeout_had_IWDG_reset, .-timeout_had_IWDG_reset
 954              		.section	.bss.feed_counter,"aw",%nobits
 955              		.align	2
 956              		.set	.LANCHOR5,. + 0
 957              		.type	feed_counter, %object
 958              		.size	feed_counter, 40
 959              	feed_counter:
 960 0000 00000000 		.space	40
 960      00000000 
 960      00000000 
 960      00000000 
 960      00000000 
 961              		.section	.bss.has_timeout,"aw",%nobits
 962              		.set	.LANCHOR3,. + 0
 963              		.type	has_timeout, %object
 964              		.size	has_timeout, 1
 965              	has_timeout:
ARM GAS  /tmp/cctsMulU.s 			page 18


 966 0000 00       		.space	1
 967              		.section	.bss.init_done,"aw",%nobits
 968              		.set	.LANCHOR7,. + 0
 969              		.type	init_done, %object
 970              		.size	init_done, 1
 971              	init_done:
 972 0000 00       		.space	1
 973              		.section	.bss.kill_sw_active,"aw",%nobits
 974              		.set	.LANCHOR4,. + 0
 975              		.type	kill_sw_active, %object
 976              		.size	kill_sw_active, 1
 977              	kill_sw_active:
 978 0000 00       		.space	1
 979              		.section	.bss.last_update_time,"aw",%nobits
 980              		.align	2
 981              		.set	.LANCHOR2,. + 0
 982              		.type	last_update_time, %object
 983              		.size	last_update_time, 4
 984              	last_update_time:
 985 0000 00000000 		.space	4
 986              		.section	.bss.timeout_brake_current,"aw",%nobits
 987              		.align	2
 988              		.set	.LANCHOR6,. + 0
 989              		.type	timeout_brake_current, %object
 990              		.size	timeout_brake_current, 4
 991              	timeout_brake_current:
 992 0000 00000000 		.space	4
 993              		.section	.bss.timeout_kill_sw_mode,"aw",%nobits
 994              		.set	.LANCHOR0,. + 0
 995              		.type	timeout_kill_sw_mode, %object
 996              		.size	timeout_kill_sw_mode, 1
 997              	timeout_kill_sw_mode:
 998 0000 00       		.space	1
 999              		.section	.bss.timeout_msec,"aw",%nobits
 1000              		.align	2
 1001              		.set	.LANCHOR1,. + 0
 1002              		.type	timeout_msec, %object
 1003              		.size	timeout_msec, 4
 1004              	timeout_msec:
 1005 0000 00000000 		.space	4
 1006              		.section	.bss.timeout_thread_wa,"aw",%nobits
 1007              		.align	3
 1008              		.set	.LANCHOR8,. + 0
 1009              		.type	timeout_thread_wa, %object
 1010              		.size	timeout_thread_wa, 672
 1011              	timeout_thread_wa:
 1012 0000 00000000 		.space	672
 1012      00000000 
 1012      00000000 
 1012      00000000 
 1012      00000000 
 1013              		.section	.rodata.timeout_thread.str1.4,"aMS",%progbits,1
 1014              		.align	2
 1015              	.LC0:
 1016 0000 54696D65 		.ascii	"Timeout\000"
 1016      6F757400 
 1017              		.text
ARM GAS  /tmp/cctsMulU.s 			page 19


 1018              	.Letext0:
 1019              		.file 5 "/usr/lib/gcc/arm-none-eabi/7.3.1/include/stddef.h"
 1020              		.file 6 "/usr/arm-none-eabi/include/machine/_default_types.h"
 1021              		.file 7 "/usr/arm-none-eabi/include/sys/_stdint.h"
 1022              		.file 8 "ChibiOS_3.0.5/os/rt/ports/ARMCMx/compilers/GCC/chtypes.h"
 1023              		.file 9 "ChibiOS_3.0.5/os/rt/include/chsystypes.h"
 1024              		.file 10 "ChibiOS_3.0.5/os/rt/include/chschd.h"
 1025              		.file 11 "ChibiOS_3.0.5/os/ext/CMSIS/include/core_cm4.h"
 1026              		.file 12 "ChibiOS_3.0.5/os/ext/CMSIS/ST/system_stm32f4xx.h"
 1027              		.file 13 "ChibiOS_3.0.5/os/ext/CMSIS/ST/stm32f407xx.h"
 1028              		.file 14 "ChibiOS_3.0.5/os/rt/ports/ARMCMx/chcore.h"
 1029              		.file 15 "ChibiOS_3.0.5/os/rt/ports/ARMCMx/chcore_v7m.h"
 1030              		.file 16 "ChibiOS_3.0.5/os/rt/include/chtm.h"
 1031              		.file 17 "ChibiOS_3.0.5/os/rt/include/chsem.h"
 1032              		.file 18 "ChibiOS_3.0.5/os/rt/include/chmtx.h"
 1033              		.file 19 "ChibiOS_3.0.5/os/rt/include/chevents.h"
 1034              		.file 20 "ChibiOS_3.0.5/os/rt/include/chqueues.h"
 1035              		.file 21 "ChibiOS_3.0.5/os/ext/CMSIS/ST/stm32f4xx.h"
 1036              		.file 22 "datatypes.h"
 1037              		.file 23 "timeout.h"
 1038              		.file 24 "conf_general.h"
 1039              		.file 25 "mc_interface.h"
 1040              		.file 26 "ChibiOS_3.0.5/os/hal/ports/STM32/STM32F4xx/stm32_dma.h"
 1041              		.file 27 "ChibiOS_3.0.5/os/hal/ports/STM32/LLD/GPIOv2/pal_lld.h"
 1042              		.file 28 "ChibiOS_3.0.5/os/hal/include/can.h"
 1043              		.file 29 "ChibiOS_3.0.5/os/hal/ports/STM32/LLD/can_lld.h"
 1044              		.file 30 "ChibiOS_3.0.5/os/hal/include/i2c.h"
 1045              		.file 31 "ChibiOS_3.0.5/os/hal/ports/STM32/LLD/I2Cv1/i2c_lld.h"
 1046              		.file 32 "ChibiOS_3.0.5/os/hal/include/icu.h"
 1047              		.file 33 "ChibiOS_3.0.5/os/hal/ports/STM32/LLD/TIMv1/icu_lld.h"
 1048              		.file 34 "ChibiOS_3.0.5/os/hal/ports/STM32/LLD/TIMv1/stm32_tim.h"
 1049              		.file 35 "ChibiOS_3.0.5/os/hal/include/serial.h"
 1050              		.file 36 "ChibiOS_3.0.5/os/hal/ports/STM32/LLD/USARTv1/serial_lld.h"
 1051              		.file 37 "ChibiOS_3.0.5/os/hal/include/spi.h"
 1052              		.file 38 "ChibiOS_3.0.5/os/hal/ports/STM32/LLD/SPIv1/spi_lld.h"
 1053              		.file 39 "ChibiOS_3.0.5/os/hal/include/usb.h"
 1054              		.file 40 "ChibiOS_3.0.5/os/hal/ports/STM32/LLD/OTGv1/usb_lld.h"
 1055              		.file 41 "ChibiOS_3.0.5/os/hal/ports/STM32/LLD/OTGv1/stm32_otg.h"
 1056              		.file 42 "ChibiOS_3.0.5/os/rt/include/chsys.h"
 1057              		.file 43 "ChibiOS_3.0.5/os/rt/include/chthreads.h"
 1058              		.file 44 "ChibiOS_3.0.5/ext/stdperiph_stm32f4/inc/stm32f4xx_iwdg.h"
 1059              		.file 45 "ChibiOS_3.0.5/ext/stdperiph_stm32f4/inc/stm32f4xx_rcc.h"