ARM GAS  /tmp/ccUc3O3E.s 			page 1


   1              		.cpu cortex-m4
   2              		.eabi_attribute 27, 1
   3              		.eabi_attribute 28, 1
   4              		.eabi_attribute 20, 1
   5              		.eabi_attribute 21, 1
   6              		.eabi_attribute 23, 3
   7              		.eabi_attribute 24, 1
   8              		.eabi_attribute 25, 1
   9              		.eabi_attribute 26, 1
  10              		.eabi_attribute 30, 2
  11              		.eabi_attribute 34, 1
  12              		.eabi_attribute 18, 4
  13              		.file	"tokpar.c"
  14              		.text
  15              	.Ltext0:
  16              		.cfi_sections	.debug_frame
  17              		.section	.text.more_string,"ax",%progbits
  18              		.align	1
  19              		.p2align 4,,15
  20              		.global	more_string
  21              		.syntax unified
  22              		.thumb
  23              		.thumb_func
  24              		.fpu fpv4-sp-d16
  25              		.type	more_string, %function
  26              	more_string:
  27              	.LFB53:
  28              		.file 1 "lispBM/lispBM/src/tokpar.c"
  29              		.loc 1 602 0
  30              		.cfi_startproc
  31              		@ args = 0, pretend = 0, frame = 0
  32              		@ frame_needed = 0, uses_anonymous_args = 0
  33              		@ link register save eliminated.
  34              	.LVL0:
  35              		.loc 1 603 0
  36 0000 0368     		ldr	r3, [r0]
  37              	.LVL1:
  38              		.loc 1 605 0
  39 0002 D3E90023 		ldrd	r2, r3, [r3]
  40              	.LVL2:
  41 0006 D05C     		ldrb	r0, [r2, r3]	@ zero_extendqisi2
  42              	.LVL3:
  43              		.loc 1 606 0
  44 0008 0030     		adds	r0, r0, #0
  45 000a 18BF     		it	ne
  46 000c 0120     		movne	r0, #1
  47 000e 7047     		bx	lr
  48              		.cfi_endproc
  49              	.LFE53:
  50              		.size	more_string, .-more_string
  51              		.section	.text.get_string,"ax",%progbits
  52              		.align	1
  53              		.p2align 4,,15
  54              		.global	get_string
  55              		.syntax unified
  56              		.thumb
  57              		.thumb_func
ARM GAS  /tmp/ccUc3O3E.s 			page 2


  58              		.fpu fpv4-sp-d16
  59              		.type	get_string, %function
  60              	get_string:
  61              	.LFB54:
  62              		.loc 1 608 0
  63              		.cfi_startproc
  64              		@ args = 0, pretend = 0, frame = 0
  65              		@ frame_needed = 0, uses_anonymous_args = 0
  66              		@ link register save eliminated.
  67              	.LVL4:
  68              		.loc 1 609 0
  69 0000 0268     		ldr	r2, [r0]
  70              	.LVL5:
  71              		.loc 1 611 0
  72 0002 D2E90013 		ldrd	r1, r3, [r2]
  73 0006 C85C     		ldrb	r0, [r1, r3]	@ zero_extendqisi2
  74              	.LVL6:
  75              		.loc 1 612 0
  76 0008 0133     		adds	r3, r3, #1
  77 000a 5360     		str	r3, [r2, #4]
  78              		.loc 1 614 0
  79 000c 7047     		bx	lr
  80              		.cfi_endproc
  81              	.LFE54:
  82              		.size	get_string, .-get_string
  83 000e 00BF     		.section	.text.peek_string,"ax",%progbits
  84              		.align	1
  85              		.p2align 4,,15
  86              		.global	peek_string
  87              		.syntax unified
  88              		.thumb
  89              		.thumb_func
  90              		.fpu fpv4-sp-d16
  91              		.type	peek_string, %function
  92              	peek_string:
  93              	.LFB55:
  94              		.loc 1 616 0
  95              		.cfi_startproc
  96              		@ args = 0, pretend = 0, frame = 0
  97              		@ frame_needed = 0, uses_anonymous_args = 0
  98              		@ link register save eliminated.
  99              	.LVL7:
 100              		.loc 1 617 0
 101 0000 0268     		ldr	r2, [r0]
 102              	.LVL8:
 103              		.loc 1 620 0
 104 0002 D2E90032 		ldrd	r3, r2, [r2]
 105              	.LVL9:
 106 0006 1944     		add	r1, r1, r3
 107              	.LVL10:
 108              		.loc 1 622 0
 109 0008 885C     		ldrb	r0, [r1, r2]	@ zero_extendqisi2
 110              	.LVL11:
 111 000a 7047     		bx	lr
 112              		.cfi_endproc
 113              	.LFE55:
 114              		.size	peek_string, .-peek_string
ARM GAS  /tmp/ccUc3O3E.s 			page 3


 115              		.section	.text.drop_string,"ax",%progbits
 116              		.align	1
 117              		.p2align 4,,15
 118              		.global	drop_string
 119              		.syntax unified
 120              		.thumb
 121              		.thumb_func
 122              		.fpu fpv4-sp-d16
 123              		.type	drop_string, %function
 124              	drop_string:
 125              	.LFB56:
 126              		.loc 1 624 0
 127              		.cfi_startproc
 128              		@ args = 0, pretend = 0, frame = 0
 129              		@ frame_needed = 0, uses_anonymous_args = 0
 130              		@ link register save eliminated.
 131              	.LVL12:
 132              		.loc 1 625 0
 133 0000 0268     		ldr	r2, [r0]
 134              	.LVL13:
 135              		.loc 1 627 0
 136 0002 5368     		ldr	r3, [r2, #4]
 137 0004 1944     		add	r1, r1, r3
 138              	.LVL14:
 139 0006 5160     		str	r1, [r2, #4]
 140              		.loc 1 628 0
 141 0008 7047     		bx	lr
 142              		.cfi_endproc
 143              	.LFE56:
 144              		.size	drop_string, .-drop_string
 145 000a 00BF     		.section	.text.more,"ax",%progbits
 146              		.align	1
 147              		.p2align 4,,15
 148              		.global	more
 149              		.syntax unified
 150              		.thumb
 151              		.thumb_func
 152              		.fpu fpv4-sp-d16
 153              		.type	more, %function
 154              	more:
 155              	.LFB37:
 156              		.loc 1 110 0
 157              		.cfi_startproc
 158              		@ args = 0, pretend = 0, frame = 0
 159              		@ frame_needed = 0, uses_anonymous_args = 0
 160              		@ link register save eliminated.
 161              	.LVL15:
 162              		.loc 1 111 0
 163 0000 4368     		ldr	r3, [r0, #4]
 164 0002 1847     		bx	r3
 165              	.LVL16:
 166              		.cfi_endproc
 167              	.LFE37:
 168              		.size	more, .-more
 169              		.section	.text.get,"ax",%progbits
 170              		.align	1
 171              		.p2align 4,,15
ARM GAS  /tmp/ccUc3O3E.s 			page 4


 172              		.global	get
 173              		.syntax unified
 174              		.thumb
 175              		.thumb_func
 176              		.fpu fpv4-sp-d16
 177              		.type	get, %function
 178              	get:
 179              	.LFB38:
 180              		.loc 1 114 0
 181              		.cfi_startproc
 182              		@ args = 0, pretend = 0, frame = 0
 183              		@ frame_needed = 0, uses_anonymous_args = 0
 184              		@ link register save eliminated.
 185              	.LVL17:
 186              		.loc 1 115 0
 187 0000 8368     		ldr	r3, [r0, #8]
 188 0002 1847     		bx	r3
 189              	.LVL18:
 190              		.cfi_endproc
 191              	.LFE38:
 192              		.size	get, .-get
 193              		.section	.text.peek,"ax",%progbits
 194              		.align	1
 195              		.p2align 4,,15
 196              		.global	peek
 197              		.syntax unified
 198              		.thumb
 199              		.thumb_func
 200              		.fpu fpv4-sp-d16
 201              		.type	peek, %function
 202              	peek:
 203              	.LFB39:
 204              		.loc 1 118 0
 205              		.cfi_startproc
 206              		@ args = 0, pretend = 0, frame = 0
 207              		@ frame_needed = 0, uses_anonymous_args = 0
 208              		@ link register save eliminated.
 209              	.LVL19:
 210              		.loc 1 119 0
 211 0000 C368     		ldr	r3, [r0, #12]
 212 0002 1847     		bx	r3
 213              	.LVL20:
 214              		.cfi_endproc
 215              	.LFE39:
 216              		.size	peek, .-peek
 217              		.section	.text.drop,"ax",%progbits
 218              		.align	1
 219              		.p2align 4,,15
 220              		.global	drop
 221              		.syntax unified
 222              		.thumb
 223              		.thumb_func
 224              		.fpu fpv4-sp-d16
 225              		.type	drop, %function
 226              	drop:
 227              	.LFB40:
 228              		.loc 1 122 0
ARM GAS  /tmp/ccUc3O3E.s 			page 5


 229              		.cfi_startproc
 230              		@ args = 0, pretend = 0, frame = 0
 231              		@ frame_needed = 0, uses_anonymous_args = 0
 232              		@ link register save eliminated.
 233              	.LVL21:
 234              		.loc 1 123 0
 235 0000 0369     		ldr	r3, [r0, #16]
 236 0002 1847     		bx	r3	@ indirect register sibling call
 237              	.LVL22:
 238              		.cfi_endproc
 239              	.LFE40:
 240              		.size	drop, .-drop
 241              		.section	.text.tok_match_fixed_size_tokens,"ax",%progbits
 242              		.align	1
 243              		.p2align 4,,15
 244              		.global	tok_match_fixed_size_tokens
 245              		.syntax unified
 246              		.thumb
 247              		.thumb_func
 248              		.fpu fpv4-sp-d16
 249              		.type	tok_match_fixed_size_tokens, %function
 250              	tok_match_fixed_size_tokens:
 251              	.LFB41:
 252              		.loc 1 127 0
 253              		.cfi_startproc
 254              		@ args = 0, pretend = 0, frame = 0
 255              		@ frame_needed = 0, uses_anonymous_args = 0
 256              	.LVL23:
 257 0000 2DE9F047 		push	{r4, r5, r6, r7, r8, r9, r10, lr}
 258              		.cfi_def_cfa_offset 32
 259              		.cfi_offset 4, -32
 260              		.cfi_offset 5, -28
 261              		.cfi_offset 6, -24
 262              		.cfi_offset 7, -20
 263              		.cfi_offset 8, -16
 264              		.cfi_offset 9, -12
 265              		.cfi_offset 10, -8
 266              		.cfi_offset 14, -4
 267 0004 174F     		ldr	r7, .L23
 268              		.loc 1 127 0
 269 0006 184D     		ldr	r5, .L23+4
 270 0008 4FF00108 		mov	r8, #1
 271 000c 8246     		mov	r10, r0
 272 000e 07F1A809 		add	r9, r7, #168
 273              	.LVL24:
 274 0012 4646     		mov	r6, r8
 275              	.LVL25:
 276              	.L16:
 277 0014 013D     		subs	r5, r5, #1
 278              	.LBB306:
 279              	.LBB307:
 280              		.loc 1 135 0
 281 0016 0024     		movs	r4, #0
 282 0018 02E0     		b	.L12
 283              	.LVL26:
 284              	.L22:
 285              		.loc 1 135 0 is_stmt 0 discriminator 2
ARM GAS  /tmp/ccUc3O3E.s 			page 6


 286 001a 0134     		adds	r4, r4, #1
 287              	.LVL27:
 288 001c B442     		cmp	r4, r6
 289 001e 1FD0     		beq	.L13
 290              	.LVL28:
 291              	.L12:
 292              	.LBB308:
 293              	.LBB309:
 294              		.loc 1 119 0 is_stmt 1
 295 0020 DAF80C30 		ldr	r3, [r10, #12]
 296 0024 2146     		mov	r1, r4
 297 0026 5046     		mov	r0, r10
 298 0028 9847     		blx	r3
 299              	.LVL29:
 300              	.LBE309:
 301              	.LBE308:
 302              		.loc 1 136 0
 303 002a 15F8013F 		ldrb	r3, [r5, #1]!	@ zero_extendqisi2
 304 002e 8342     		cmp	r3, r0
 305 0030 F3D0     		beq	.L22
 306              		.loc 1 138 0
 307 0032 B442     		cmp	r4, r6
 308 0034 14D0     		beq	.L13
 309              	.LBE307:
 310              		.loc 1 129 0 discriminator 2
 311 0036 B945     		cmp	r9, r7
 312 0038 0DD0     		beq	.L18
 313 003a 7E69     		ldr	r6, [r7, #20]
 314 003c D7E90358 		ldrd	r5, r8, [r7, #12]
 315 0040 0C37     		adds	r7, r7, #12
 316              	.LVL30:
 317              	.LBB312:
 318              		.loc 1 135 0
 319 0042 002E     		cmp	r6, #0
 320 0044 E6D1     		bne	.L16
 321              	.LVL31:
 322              	.L17:
 323              	.LBB310:
 324              	.LBB311:
 325              		.loc 1 123 0
 326 0046 5046     		mov	r0, r10
 327 0048 3146     		mov	r1, r6
 328 004a DAF81030 		ldr	r3, [r10, #16]
 329 004e 9847     		blx	r3
 330              	.LVL32:
 331              	.LBE311:
 332              	.LBE310:
 333              	.LBE312:
 334              	.LBE306:
 335              		.loc 1 144 0
 336 0050 4046     		mov	r0, r8
 337 0052 BDE8F087 		pop	{r4, r5, r6, r7, r8, r9, r10, pc}
 338              	.LVL33:
 339              	.L18:
 340              		.loc 1 143 0
 341 0056 4FF00008 		mov	r8, #0
 342              		.loc 1 144 0
ARM GAS  /tmp/ccUc3O3E.s 			page 7


 343 005a 4046     		mov	r0, r8
 344 005c BDE8F087 		pop	{r4, r5, r6, r7, r8, r9, r10, pc}
 345              	.LVL34:
 346              	.L13:
 347              	.LBB314:
 348              	.LBB313:
 349              		.loc 1 135 0
 350 0060 2646     		mov	r6, r4
 351 0062 F0E7     		b	.L17
 352              	.L24:
 353              		.align	2
 354              	.L23:
 355 0064 00000000 		.word	.LANCHOR0
 356 0068 00000000 		.word	.LC0
 357              	.LBE313:
 358              	.LBE314:
 359              		.cfi_endproc
 360              	.LFE41:
 361              		.size	tok_match_fixed_size_tokens, .-tok_match_fixed_size_tokens
 362              		.section	.text.symchar0,"ax",%progbits
 363              		.align	1
 364              		.p2align 4,,15
 365              		.global	symchar0
 366              		.syntax unified
 367              		.thumb
 368              		.thumb_func
 369              		.fpu fpv4-sp-d16
 370              		.type	symchar0, %function
 371              	symchar0:
 372              	.LFB42:
 373              		.loc 1 146 0
 374              		.cfi_startproc
 375              		@ args = 0, pretend = 0, frame = 0
 376              		@ frame_needed = 0, uses_anonymous_args = 0
 377              		@ link register save eliminated.
 378              	.LVL35:
 379 0000 054A     		ldr	r2, .L30
 380              		.loc 1 150 0
 381 0002 6123     		movs	r3, #97
 382              	.LVL36:
 383              	.L27:
 384              		.loc 1 151 0
 385 0004 9842     		cmp	r0, r3
 386 0006 05D0     		beq	.L28
 387              		.loc 1 150 0
 388 0008 12F8013F 		ldrb	r3, [r2, #1]!	@ zero_extendqisi2
 389              	.LVL37:
 390 000c 002B     		cmp	r3, #0
 391 000e F9D1     		bne	.L27
 392              		.loc 1 153 0
 393 0010 1846     		mov	r0, r3
 394              	.LVL38:
 395 0012 7047     		bx	lr
 396              	.LVL39:
 397              	.L28:
 398              		.loc 1 151 0
 399 0014 0120     		movs	r0, #1
ARM GAS  /tmp/ccUc3O3E.s 			page 8


 400              	.LVL40:
 401              		.loc 1 154 0
 402 0016 7047     		bx	lr
 403              	.L31:
 404              		.align	2
 405              	.L30:
 406 0018 00000000 		.word	.LC1
 407              		.cfi_endproc
 408              	.LFE42:
 409              		.size	symchar0, .-symchar0
 410              		.section	.text.symchar,"ax",%progbits
 411              		.align	1
 412              		.p2align 4,,15
 413              		.global	symchar
 414              		.syntax unified
 415              		.thumb
 416              		.thumb_func
 417              		.fpu fpv4-sp-d16
 418              		.type	symchar, %function
 419              	symchar:
 420              	.LFB43:
 421              		.loc 1 156 0
 422              		.cfi_startproc
 423              		@ args = 0, pretend = 0, frame = 0
 424              		@ frame_needed = 0, uses_anonymous_args = 0
 425              		@ link register save eliminated.
 426              	.LVL41:
 427 0000 054A     		ldr	r2, .L37
 428              		.loc 1 160 0
 429 0002 6123     		movs	r3, #97
 430              	.LVL42:
 431              	.L34:
 432              		.loc 1 161 0
 433 0004 9842     		cmp	r0, r3
 434 0006 05D0     		beq	.L35
 435              		.loc 1 160 0
 436 0008 12F8013F 		ldrb	r3, [r2, #1]!	@ zero_extendqisi2
 437              	.LVL43:
 438 000c 002B     		cmp	r3, #0
 439 000e F9D1     		bne	.L34
 440              		.loc 1 163 0
 441 0010 1846     		mov	r0, r3
 442              	.LVL44:
 443 0012 7047     		bx	lr
 444              	.LVL45:
 445              	.L35:
 446              		.loc 1 161 0
 447 0014 0120     		movs	r0, #1
 448              	.LVL46:
 449              		.loc 1 164 0
 450 0016 7047     		bx	lr
 451              	.L38:
 452              		.align	2
 453              	.L37:
 454 0018 00000000 		.word	.LC2
 455              		.cfi_endproc
 456              	.LFE43:
ARM GAS  /tmp/ccUc3O3E.s 			page 9


 457              		.size	symchar, .-symchar
 458              		.section	.text.tok_symbol,"ax",%progbits
 459              		.align	1
 460              		.p2align 4,,15
 461              		.global	tok_symbol
 462              		.syntax unified
 463              		.thumb
 464              		.thumb_func
 465              		.fpu fpv4-sp-d16
 466              		.type	tok_symbol, %function
 467              	tok_symbol:
 468              	.LFB44:
 469              		.loc 1 166 0
 470              		.cfi_startproc
 471              		@ args = 0, pretend = 0, frame = 0
 472              		@ frame_needed = 0, uses_anonymous_args = 0
 473              	.LVL47:
 474 0000 2DE9F041 		push	{r4, r5, r6, r7, r8, lr}
 475              		.cfi_def_cfa_offset 24
 476              		.cfi_offset 4, -24
 477              		.cfi_offset 5, -20
 478              		.cfi_offset 6, -16
 479              		.cfi_offset 7, -12
 480              		.cfi_offset 8, -8
 481              		.cfi_offset 14, -4
 482              	.LBB334:
 483              	.LBB335:
 484              		.loc 1 119 0
 485 0004 C368     		ldr	r3, [r0, #12]
 486 0006 0021     		movs	r1, #0
 487              	.LBE335:
 488              	.LBE334:
 489              		.loc 1 166 0
 490 0008 0646     		mov	r6, r0
 491              	.LVL48:
 492              	.LBB337:
 493              	.LBB336:
 494              		.loc 1 119 0
 495 000a 9847     		blx	r3
 496              	.LVL49:
 497 000c 204A     		ldr	r2, .L62
 498              	.LBE336:
 499              	.LBE337:
 500              	.LBB338:
 501              	.LBB339:
 502              		.loc 1 150 0
 503 000e 6123     		movs	r3, #97
 504              	.LVL50:
 505              	.L41:
 506              		.loc 1 151 0
 507 0010 8342     		cmp	r3, r0
 508 0012 07D0     		beq	.L52
 509              		.loc 1 150 0
 510 0014 12F8013F 		ldrb	r3, [r2, #1]!	@ zero_extendqisi2
 511              	.LVL51:
 512 0018 002B     		cmp	r3, #0
 513 001a F9D1     		bne	.L41
ARM GAS  /tmp/ccUc3O3E.s 			page 10


 514              	.LVL52:
 515              	.L42:
 516              	.LBE339:
 517              	.LBE338:
 518              		.loc 1 168 0
 519 001c 0024     		movs	r4, #0
 520              	.L39:
 521              		.loc 1 195 0
 522 001e 2046     		mov	r0, r4
 523 0020 BDE8F081 		pop	{r4, r5, r6, r7, r8, pc}
 524              	.LVL53:
 525              	.L52:
 526              	.LBB340:
 527              	.LBB341:
 528              		.loc 1 171 0
 529 0024 0127     		movs	r7, #1
 530              	.LVL54:
 531              	.L40:
 532              	.LBB342:
 533              	.LBB343:
 534              		.loc 1 119 0
 535 0026 F368     		ldr	r3, [r6, #12]
 536 0028 3946     		mov	r1, r7
 537 002a 3046     		mov	r0, r6
 538 002c 9847     		blx	r3
 539              	.LVL55:
 540 002e 194B     		ldr	r3, .L62+4
 541              	.LBE343:
 542              	.LBE342:
 543              	.LBB344:
 544              	.LBB345:
 545              		.loc 1 160 0
 546 0030 6124     		movs	r4, #97
 547              	.LVL56:
 548              	.L44:
 549              		.loc 1 161 0
 550 0032 8442     		cmp	r4, r0
 551 0034 2AD0     		beq	.L43
 552              		.loc 1 160 0
 553 0036 13F8014F 		ldrb	r4, [r3, #1]!	@ zero_extendqisi2
 554              	.LVL57:
 555 003a 002C     		cmp	r4, #0
 556 003c F9D1     		bne	.L44
 557              	.LVL58:
 558              	.LBE345:
 559              	.LBE344:
 560              		.loc 1 178 0
 561 003e B7F5807F 		cmp	r7, #256
 562 0042 1ED8     		bhi	.L50
 563              	.LBB346:
 564              	.LBB347:
 565              		.loc 1 68 0
 566 0044 4FF48072 		mov	r2, #256
 567 0048 2146     		mov	r1, r4
 568 004a 1348     		ldr	r0, .L62+8
 569 004c FFF7FEFF 		bl	memset
 570              	.LVL59:
ARM GAS  /tmp/ccUc3O3E.s 			page 11


 571              	.LBE347:
 572              	.LBE346:
 573              		.loc 1 185 0
 574 0050 002F     		cmp	r7, #0
 575 0052 E3D0     		beq	.L42
 576 0054 DFF84080 		ldr	r8, .L62+8
 577 0058 03E0     		b	.L49
 578              	.LVL60:
 579              	.L47:
 580 005a A742     		cmp	r7, r4
 581              		.loc 1 188 0
 582 005c 08F8015B 		strb	r5, [r8], #1
 583              		.loc 1 185 0
 584 0060 DDD0     		beq	.L39
 585              	.LVL61:
 586              	.L49:
 587              	.LBB348:
 588              	.LBB349:
 589              	.LBB350:
 590              		.loc 1 115 0
 591 0062 B368     		ldr	r3, [r6, #8]
 592 0064 3046     		mov	r0, r6
 593 0066 9847     		blx	r3
 594              	.LVL62:
 595 0068 0546     		mov	r5, r0
 596              	.LVL63:
 597              	.LBE350:
 598              	.LBE349:
 599              		.loc 1 186 0
 600 006a FFF7FEFF 		bl	__locale_ctype_ptr
 601              	.LVL64:
 602 006e 2844     		add	r0, r0, r5
 603              	.LBE348:
 604              		.loc 1 189 0
 605 0070 0134     		adds	r4, r4, #1
 606              	.LVL65:
 607              	.LBB351:
 608              		.loc 1 186 0
 609 0072 4378     		ldrb	r3, [r0, #1]	@ zero_extendqisi2
 610 0074 03F00303 		and	r3, r3, #3
 611 0078 012B     		cmp	r3, #1
 612 007a EED1     		bne	.L47
 613 007c 2035     		adds	r5, r5, #32
 614              	.LVL66:
 615              	.LBE351:
 616              		.loc 1 187 0
 617 007e FF2D     		cmp	r5, #255
 618 0080 EBDD     		ble	.L47
 619              	.LVL67:
 620              	.L50:
 621              		.loc 1 191 0
 622 0082 4FF0FF34 		mov	r4, #-1
 623              	.LBE341:
 624              	.LBE340:
 625              		.loc 1 195 0
 626 0086 2046     		mov	r0, r4
 627 0088 BDE8F081 		pop	{r4, r5, r6, r7, r8, pc}
ARM GAS  /tmp/ccUc3O3E.s 			page 12


 628              	.LVL68:
 629              	.L43:
 630              	.LBB353:
 631              	.LBB352:
 632              		.loc 1 175 0
 633 008c 0137     		adds	r7, r7, #1
 634              	.LVL69:
 635 008e CAE7     		b	.L40
 636              	.L63:
 637              		.align	2
 638              	.L62:
 639 0090 00000000 		.word	.LC1
 640 0094 00000000 		.word	.LC2
 641 0098 00000000 		.word	.LANCHOR1
 642              	.LBE352:
 643              	.LBE353:
 644              		.cfi_endproc
 645              	.LFE44:
 646              		.size	tok_symbol, .-tok_symbol
 647              		.section	.text.tok_string,"ax",%progbits
 648              		.align	1
 649              		.p2align 4,,15
 650              		.global	tok_string
 651              		.syntax unified
 652              		.thumb
 653              		.thumb_func
 654              		.fpu fpv4-sp-d16
 655              		.type	tok_string, %function
 656              	tok_string:
 657              	.LFB45:
 658              		.loc 1 197 0
 659              		.cfi_startproc
 660              		@ args = 0, pretend = 0, frame = 0
 661              		@ frame_needed = 0, uses_anonymous_args = 0
 662              	.LVL70:
 663 0000 F8B5     		push	{r3, r4, r5, r6, r7, lr}
 664              		.cfi_def_cfa_offset 24
 665              		.cfi_offset 3, -24
 666              		.cfi_offset 4, -20
 667              		.cfi_offset 5, -16
 668              		.cfi_offset 6, -12
 669              		.cfi_offset 7, -8
 670              		.cfi_offset 14, -4
 671              	.LBB376:
 672              	.LBB377:
 673              		.loc 1 119 0
 674 0002 0021     		movs	r1, #0
 675 0004 C368     		ldr	r3, [r0, #12]
 676              	.LBE377:
 677              	.LBE376:
 678              		.loc 1 197 0
 679 0006 0446     		mov	r4, r0
 680              	.LVL71:
 681              	.LBB379:
 682              	.LBB378:
 683              		.loc 1 119 0
 684 0008 9847     		blx	r3
ARM GAS  /tmp/ccUc3O3E.s 			page 13


 685              	.LVL72:
 686              	.LBE378:
 687              	.LBE379:
 688              		.loc 1 202 0
 689 000a 2228     		cmp	r0, #34
 690 000c 1AD1     		bne	.L72
 691              	.LVL73:
 692              	.LBB380:
 693              	.LBB381:
 694              		.loc 1 115 0
 695 000e A368     		ldr	r3, [r4, #8]
 696 0010 2046     		mov	r0, r4
 697 0012 9847     		blx	r3
 698              	.LVL74:
 699              	.LBE381:
 700              	.LBE380:
 701              	.LBB382:
 702              	.LBB383:
 703              		.loc 1 201 0
 704 0014 0025     		movs	r5, #0
 705 0016 05E0     		b	.L67
 706              	.LVL75:
 707              	.L68:
 708              	.LBB384:
 709              	.LBB385:
 710              		.loc 1 119 0
 711 0018 E368     		ldr	r3, [r4, #12]
 712 001a 2046     		mov	r0, r4
 713 001c 9847     		blx	r3
 714              	.LVL76:
 715              	.LBE385:
 716              	.LBE384:
 717              		.loc 1 208 0
 718 001e 2228     		cmp	r0, #34
 719 0020 07D0     		beq	.L71
 720              		.loc 1 210 0
 721 0022 0135     		adds	r5, r5, #1
 722              	.LVL77:
 723              	.L67:
 724              	.LBB387:
 725              	.LBB388:
 726              		.loc 1 119 0
 727 0024 2946     		mov	r1, r5
 728 0026 E368     		ldr	r3, [r4, #12]
 729 0028 2046     		mov	r0, r4
 730 002a 9847     		blx	r3
 731              	.LVL78:
 732              	.LBE388:
 733              	.LBE387:
 734              	.LBB389:
 735              	.LBB386:
 736 002c 2946     		mov	r1, r5
 737              	.LBE386:
 738              	.LBE389:
 739              		.loc 1 208 0
 740 002e 0028     		cmp	r0, #0
 741 0030 F2D1     		bne	.L68
ARM GAS  /tmp/ccUc3O3E.s 			page 14


 742              	.LVL79:
 743              	.L71:
 744              		.loc 1 213 0
 745 0032 B5F5807F 		cmp	r5, #256
 746 0036 20D8     		bhi	.L80
 747              	.LVL80:
 748              	.LBB390:
 749              	.LBB391:
 750              		.loc 1 119 0
 751 0038 E368     		ldr	r3, [r4, #12]
 752 003a 2946     		mov	r1, r5
 753 003c 2046     		mov	r0, r4
 754 003e 9847     		blx	r3
 755              	.LVL81:
 756              	.LBE391:
 757              	.LBE390:
 758              		.loc 1 217 0
 759 0040 2228     		cmp	r0, #34
 760 0042 02D0     		beq	.L81
 761              	.LVL82:
 762              	.L72:
 763              	.LBE383:
 764              	.LBE382:
 765              		.loc 1 202 0
 766 0044 0025     		movs	r5, #0
 767              	.L64:
 768              		.loc 1 230 0
 769 0046 2846     		mov	r0, r5
 770 0048 F8BD     		pop	{r3, r4, r5, r6, r7, pc}
 771              	.LVL83:
 772              	.L81:
 773              	.LBB400:
 774              	.LBB398:
 775              	.LBB392:
 776              	.LBB393:
 777              		.loc 1 68 0
 778 004a 0D4E     		ldr	r6, .L82
 779 004c 4FF48072 		mov	r2, #256
 780 0050 3046     		mov	r0, r6
 781 0052 0021     		movs	r1, #0
 782 0054 FFF7FEFF 		bl	memset
 783              	.LVL84:
 784              	.LBE393:
 785              	.LBE392:
 786              		.loc 1 223 0
 787 0058 6DB1     		cbz	r5, .L76
 788 005a 7719     		adds	r7, r6, r5
 789              	.LVL85:
 790              	.L74:
 791              	.LBB394:
 792              	.LBB395:
 793              		.loc 1 115 0
 794 005c A368     		ldr	r3, [r4, #8]
 795 005e 2046     		mov	r0, r4
 796 0060 9847     		blx	r3
 797              	.LVL86:
 798              	.LBE395:
ARM GAS  /tmp/ccUc3O3E.s 			page 15


 799              	.LBE394:
 800              		.loc 1 224 0
 801 0062 06F8010B 		strb	r0, [r6], #1
 802              	.LVL87:
 803              		.loc 1 223 0
 804 0066 BE42     		cmp	r6, r7
 805 0068 F8D1     		bne	.L74
 806 006a 0235     		adds	r5, r5, #2
 807              	.LVL88:
 808              	.L73:
 809              	.LBB396:
 810              	.LBB397:
 811              		.loc 1 115 0
 812 006c A368     		ldr	r3, [r4, #8]
 813 006e 2046     		mov	r0, r4
 814 0070 9847     		blx	r3
 815              	.LVL89:
 816              	.LBE397:
 817              	.LBE396:
 818              	.LBE398:
 819              	.LBE400:
 820              		.loc 1 230 0
 821 0072 2846     		mov	r0, r5
 822 0074 F8BD     		pop	{r3, r4, r5, r6, r7, pc}
 823              	.LVL90:
 824              	.L76:
 825              	.LBB401:
 826              	.LBB399:
 827              		.loc 1 223 0
 828 0076 0225     		movs	r5, #2
 829              	.LVL91:
 830 0078 F8E7     		b	.L73
 831              	.LVL92:
 832              	.L80:
 833              		.loc 1 214 0
 834 007a 4FF0FF35 		mov	r5, #-1
 835              	.LVL93:
 836 007e E2E7     		b	.L64
 837              	.L83:
 838              		.align	2
 839              	.L82:
 840 0080 00000000 		.word	.LANCHOR1
 841              	.LBE399:
 842              	.LBE401:
 843              		.cfi_endproc
 844              	.LFE45:
 845              		.size	tok_string, .-tok_string
 846              		.section	.text.tok_char,"ax",%progbits
 847              		.align	1
 848              		.p2align 4,,15
 849              		.global	tok_char
 850              		.syntax unified
 851              		.thumb
 852              		.thumb_func
 853              		.fpu fpv4-sp-d16
 854              		.type	tok_char, %function
 855              	tok_char:
ARM GAS  /tmp/ccUc3O3E.s 			page 16


 856              	.LFB46:
 857              		.loc 1 232 0
 858              		.cfi_startproc
 859              		@ args = 0, pretend = 0, frame = 0
 860              		@ frame_needed = 0, uses_anonymous_args = 0
 861              	.LVL94:
 862 0000 70B5     		push	{r4, r5, r6, lr}
 863              		.cfi_def_cfa_offset 16
 864              		.cfi_offset 4, -16
 865              		.cfi_offset 5, -12
 866              		.cfi_offset 6, -8
 867              		.cfi_offset 14, -4
 868              	.LBB402:
 869              	.LBB403:
 870              		.loc 1 119 0
 871 0002 C368     		ldr	r3, [r0, #12]
 872              	.LBE403:
 873              	.LBE402:
 874              		.loc 1 232 0
 875 0004 0D46     		mov	r5, r1
 876              	.LBB406:
 877              	.LBB404:
 878              		.loc 1 119 0
 879 0006 0021     		movs	r1, #0
 880              	.LVL95:
 881              	.LBE404:
 882              	.LBE406:
 883              		.loc 1 232 0
 884 0008 0446     		mov	r4, r0
 885              	.LVL96:
 886              	.LBB407:
 887              	.LBB405:
 888              		.loc 1 119 0
 889 000a 9847     		blx	r3
 890              	.LVL97:
 891              	.LBE405:
 892              	.LBE407:
 893              		.loc 1 235 0
 894 000c 5C28     		cmp	r0, #92
 895 000e 0DD0     		beq	.L93
 896              	.L85:
 897              	.LVL98:
 898              	.LBB408:
 899              	.LBB409:
 900              		.loc 1 119 0
 901 0010 E368     		ldr	r3, [r4, #12]
 902 0012 0021     		movs	r1, #0
 903 0014 2046     		mov	r0, r4
 904 0016 9847     		blx	r3
 905              	.LVL99:
 906              	.LBE409:
 907              	.LBE408:
 908              		.loc 1 247 0
 909 0018 5C28     		cmp	r0, #92
 910 001a 05D1     		bne	.L88
 911              	.LVL100:
 912              	.LBB410:
ARM GAS  /tmp/ccUc3O3E.s 			page 17


 913              	.LBB411:
 914              		.loc 1 119 0
 915 001c E368     		ldr	r3, [r4, #12]
 916 001e 0121     		movs	r1, #1
 917 0020 2046     		mov	r0, r4
 918 0022 9847     		blx	r3
 919              	.LVL101:
 920              	.LBE411:
 921              	.LBE410:
 922              		.loc 1 247 0
 923 0024 2328     		cmp	r0, #35
 924 0026 39D0     		beq	.L94
 925              	.L88:
 926              		.loc 1 234 0
 927 0028 0020     		movs	r0, #0
 928              		.loc 1 255 0
 929 002a 70BD     		pop	{r4, r5, r6, pc}
 930              	.LVL102:
 931              	.L93:
 932              	.LBB412:
 933              	.LBB413:
 934              		.loc 1 119 0
 935 002c E368     		ldr	r3, [r4, #12]
 936 002e 0121     		movs	r1, #1
 937 0030 2046     		mov	r0, r4
 938 0032 9847     		blx	r3
 939              	.LVL103:
 940              	.LBE413:
 941              	.LBE412:
 942              		.loc 1 235 0
 943 0034 2328     		cmp	r0, #35
 944 0036 EBD1     		bne	.L85
 945              	.LVL104:
 946              	.LBB414:
 947              	.LBB415:
 948              		.loc 1 119 0
 949 0038 E368     		ldr	r3, [r4, #12]
 950 003a 0221     		movs	r1, #2
 951 003c 2046     		mov	r0, r4
 952 003e 9847     		blx	r3
 953              	.LVL105:
 954              	.LBE415:
 955              	.LBE414:
 956              		.loc 1 236 0
 957 0040 6E28     		cmp	r0, #110
 958 0042 E5D1     		bne	.L85
 959              	.LVL106:
 960              	.LBB416:
 961              	.LBB417:
 962              		.loc 1 119 0
 963 0044 E368     		ldr	r3, [r4, #12]
 964 0046 0321     		movs	r1, #3
 965 0048 2046     		mov	r0, r4
 966 004a 9847     		blx	r3
 967              	.LVL107:
 968              	.LBE417:
 969              	.LBE416:
ARM GAS  /tmp/ccUc3O3E.s 			page 18


 970              		.loc 1 237 0
 971 004c 6528     		cmp	r0, #101
 972 004e DFD1     		bne	.L85
 973              	.LVL108:
 974              	.LBB418:
 975              	.LBB419:
 976              		.loc 1 119 0
 977 0050 E368     		ldr	r3, [r4, #12]
 978 0052 0421     		movs	r1, #4
 979 0054 2046     		mov	r0, r4
 980 0056 9847     		blx	r3
 981              	.LVL109:
 982              	.LBE419:
 983              	.LBE418:
 984              		.loc 1 238 0
 985 0058 7728     		cmp	r0, #119
 986 005a D9D1     		bne	.L85
 987              	.LVL110:
 988              	.LBB420:
 989              	.LBB421:
 990              		.loc 1 119 0
 991 005c E368     		ldr	r3, [r4, #12]
 992 005e 0521     		movs	r1, #5
 993 0060 2046     		mov	r0, r4
 994 0062 9847     		blx	r3
 995              	.LVL111:
 996              	.LBE421:
 997              	.LBE420:
 998              		.loc 1 239 0
 999 0064 6C28     		cmp	r0, #108
 1000 0066 D3D1     		bne	.L85
 1001              	.LVL112:
 1002              	.LBB422:
 1003              	.LBB423:
 1004              		.loc 1 119 0
 1005 0068 E368     		ldr	r3, [r4, #12]
 1006 006a 0621     		movs	r1, #6
 1007 006c 2046     		mov	r0, r4
 1008 006e 9847     		blx	r3
 1009              	.LVL113:
 1010              	.LBE423:
 1011              	.LBE422:
 1012              		.loc 1 240 0
 1013 0070 6928     		cmp	r0, #105
 1014 0072 CDD1     		bne	.L85
 1015              	.LVL114:
 1016              	.LBB424:
 1017              	.LBB425:
 1018              		.loc 1 119 0
 1019 0074 E368     		ldr	r3, [r4, #12]
 1020 0076 0721     		movs	r1, #7
 1021 0078 2046     		mov	r0, r4
 1022 007a 9847     		blx	r3
 1023              	.LVL115:
 1024              	.LBE425:
 1025              	.LBE424:
 1026              		.loc 1 241 0
ARM GAS  /tmp/ccUc3O3E.s 			page 19


 1027 007c 6E28     		cmp	r0, #110
 1028 007e C7D1     		bne	.L85
 1029              	.LVL116:
 1030              	.LBB426:
 1031              	.LBB427:
 1032              		.loc 1 119 0
 1033 0080 E368     		ldr	r3, [r4, #12]
 1034 0082 0821     		movs	r1, #8
 1035 0084 2046     		mov	r0, r4
 1036 0086 9847     		blx	r3
 1037              	.LVL117:
 1038              	.LBE427:
 1039              	.LBE426:
 1040              		.loc 1 242 0
 1041 0088 6528     		cmp	r0, #101
 1042 008a C1D1     		bne	.L85
 1043              		.loc 1 244 0
 1044 008c 0A23     		movs	r3, #10
 1045 008e 2B70     		strb	r3, [r5]
 1046              	.LVL118:
 1047              	.LBB428:
 1048              	.LBB429:
 1049              		.loc 1 123 0
 1050 0090 2046     		mov	r0, r4
 1051 0092 2369     		ldr	r3, [r4, #16]
 1052 0094 0921     		movs	r1, #9
 1053 0096 9847     		blx	r3
 1054              	.LVL119:
 1055              	.LBE429:
 1056              	.LBE428:
 1057              		.loc 1 246 0
 1058 0098 0920     		movs	r0, #9
 1059              		.loc 1 255 0
 1060 009a 70BD     		pop	{r4, r5, r6, pc}
 1061              	.LVL120:
 1062              	.L94:
 1063              		.loc 1 249 0
 1064 009c FFF7FEFF 		bl	__locale_ctype_ptr
 1065              	.LVL121:
 1066              	.LBB430:
 1067              	.LBB431:
 1068              		.loc 1 119 0
 1069 00a0 E368     		ldr	r3, [r4, #12]
 1070              	.LBE431:
 1071              	.LBE430:
 1072              		.loc 1 249 0
 1073 00a2 0646     		mov	r6, r0
 1074              	.LVL122:
 1075              	.LBB433:
 1076              	.LBB432:
 1077              		.loc 1 119 0
 1078 00a4 0221     		movs	r1, #2
 1079 00a6 2046     		mov	r0, r4
 1080 00a8 9847     		blx	r3
 1081              	.LVL123:
 1082              	.LBE432:
 1083              	.LBE433:
ARM GAS  /tmp/ccUc3O3E.s 			page 20


 1084              		.loc 1 249 0
 1085 00aa 3044     		add	r0, r0, r6
 1086              		.loc 1 248 0
 1087 00ac 4378     		ldrb	r3, [r0, #1]	@ zero_extendqisi2
 1088 00ae 13F0170F 		tst	r3, #23
 1089 00b2 B9D0     		beq	.L88
 1090              	.LVL124:
 1091              	.LBB434:
 1092              	.LBB435:
 1093              		.loc 1 119 0
 1094 00b4 E368     		ldr	r3, [r4, #12]
 1095 00b6 0221     		movs	r1, #2
 1096 00b8 2046     		mov	r0, r4
 1097 00ba 9847     		blx	r3
 1098              	.LVL125:
 1099              	.LBE435:
 1100              	.LBE434:
 1101              		.loc 1 250 0
 1102 00bc 2870     		strb	r0, [r5]
 1103              	.LVL126:
 1104              	.LBB436:
 1105              	.LBB437:
 1106              		.loc 1 123 0
 1107 00be 2369     		ldr	r3, [r4, #16]
 1108 00c0 2046     		mov	r0, r4
 1109 00c2 0321     		movs	r1, #3
 1110 00c4 9847     		blx	r3
 1111              	.LVL127:
 1112              	.LBE437:
 1113              	.LBE436:
 1114              		.loc 1 252 0
 1115 00c6 0320     		movs	r0, #3
 1116              		.loc 1 255 0
 1117 00c8 70BD     		pop	{r4, r5, r6, pc}
 1118              		.cfi_endproc
 1119              	.LFE46:
 1120              		.size	tok_char, .-tok_char
 1121 00ca 00BF     		.section	.text.tok_i,"ax",%progbits
 1122              		.align	1
 1123              		.p2align 4,,15
 1124              		.global	tok_i
 1125              		.syntax unified
 1126              		.thumb
 1127              		.thumb_func
 1128              		.fpu fpv4-sp-d16
 1129              		.type	tok_i, %function
 1130              	tok_i:
 1131              	.LFB47:
 1132              		.loc 1 257 0
 1133              		.cfi_startproc
 1134              		@ args = 0, pretend = 0, frame = 0
 1135              		@ frame_needed = 0, uses_anonymous_args = 0
 1136              	.LVL128:
 1137 0000 2DE9F843 		push	{r3, r4, r5, r6, r7, r8, r9, lr}
 1138              		.cfi_def_cfa_offset 32
 1139              		.cfi_offset 3, -32
 1140              		.cfi_offset 4, -28
ARM GAS  /tmp/ccUc3O3E.s 			page 21


 1141              		.cfi_offset 5, -24
 1142              		.cfi_offset 6, -20
 1143              		.cfi_offset 7, -16
 1144              		.cfi_offset 8, -12
 1145              		.cfi_offset 9, -8
 1146              		.cfi_offset 14, -4
 1147              		.loc 1 257 0
 1148 0004 8946     		mov	r9, r1
 1149              	.LBB438:
 1150              	.LBB439:
 1151              		.loc 1 119 0
 1152 0006 C368     		ldr	r3, [r0, #12]
 1153 0008 0021     		movs	r1, #0
 1154              	.LVL129:
 1155              	.LBE439:
 1156              	.LBE438:
 1157              		.loc 1 257 0
 1158 000a 0446     		mov	r4, r0
 1159              	.LVL130:
 1160              	.LBB441:
 1161              	.LBB440:
 1162              		.loc 1 119 0
 1163 000c 9847     		blx	r3
 1164              	.LVL131:
 1165              	.LBE440:
 1166              	.LBE441:
 1167              		.loc 1 264 0
 1168 000e 2D28     		cmp	r0, #45
 1169 0010 5FD0     		beq	.L130
 1170              		.loc 1 261 0
 1171 0012 4FF00008 		mov	r8, #0
 1172              		.loc 1 260 0
 1173 0016 4546     		mov	r5, r8
 1174              	.L96:
 1175 0018 0027     		movs	r7, #0
 1176 001a 0EE0     		b	.L97
 1177              	.LVL132:
 1178              	.L98:
 1179              	.LBB442:
 1180              	.LBB443:
 1181              		.loc 1 119 0
 1182 001c E368     		ldr	r3, [r4, #12]
 1183 001e 9847     		blx	r3
 1184              	.LVL133:
 1185              	.LBE443:
 1186              	.LBE442:
 1187              		.loc 1 270 0
 1188 0020 07EB8703 		add	r3, r7, r7, lsl #2
 1189              		.loc 1 269 0
 1190 0024 3928     		cmp	r0, #57
 1191              	.LBB445:
 1192              	.LBB446:
 1193              		.loc 1 119 0
 1194 0026 2946     		mov	r1, r5
 1195              	.LBE446:
 1196              	.LBE445:
 1197              		.loc 1 270 0
ARM GAS  /tmp/ccUc3O3E.s 			page 22


 1198 0028 4FEA4306 		lsl	r6, r3, #1
 1199              	.LVL134:
 1200              	.LBB449:
 1201              	.LBB447:
 1202              		.loc 1 119 0
 1203 002c 2046     		mov	r0, r4
 1204              	.LBE447:
 1205              	.LBE449:
 1206              		.loc 1 269 0
 1207 002e 0CD8     		bhi	.L102
 1208              	.LVL135:
 1209              	.LBB450:
 1210              	.LBB448:
 1211              		.loc 1 119 0
 1212 0030 E368     		ldr	r3, [r4, #12]
 1213 0032 9847     		blx	r3
 1214              	.LVL136:
 1215              	.LBE448:
 1216              	.LBE450:
 1217              		.loc 1 270 0
 1218 0034 3038     		subs	r0, r0, #48
 1219              		.loc 1 271 0
 1220 0036 0135     		adds	r5, r5, #1
 1221              	.LVL137:
 1222              		.loc 1 270 0
 1223 0038 8719     		adds	r7, r0, r6
 1224              	.LVL138:
 1225              	.L97:
 1226              	.LBB451:
 1227              	.LBB452:
 1228              		.loc 1 119 0
 1229 003a 2946     		mov	r1, r5
 1230 003c E368     		ldr	r3, [r4, #12]
 1231 003e 2046     		mov	r0, r4
 1232 0040 9847     		blx	r3
 1233              	.LVL139:
 1234              	.LBE452:
 1235              	.LBE451:
 1236              		.loc 1 269 0
 1237 0042 2F28     		cmp	r0, #47
 1238              	.LBB453:
 1239              	.LBB444:
 1240              		.loc 1 119 0
 1241 0044 2946     		mov	r1, r5
 1242 0046 2046     		mov	r0, r4
 1243              	.LBE444:
 1244              	.LBE453:
 1245              		.loc 1 269 0
 1246 0048 E8D8     		bhi	.L98
 1247              	.LVL140:
 1248              	.L102:
 1249              		.loc 1 273 0
 1250 004a B8F1000F 		cmp	r8, #0
 1251 004e 39D1     		bne	.L99
 1252              		.loc 1 274 0
 1253 0050 2E1C     		adds	r6, r5, #0
 1254 0052 18BF     		it	ne
ARM GAS  /tmp/ccUc3O3E.s 			page 23


 1255 0054 0126     		movne	r6, #1
 1256              	.LVL141:
 1257              	.L103:
 1258              	.LBB454:
 1259              	.LBB455:
 1260              		.loc 1 119 0
 1261 0056 E368     		ldr	r3, [r4, #12]
 1262 0058 2946     		mov	r1, r5
 1263              	.LVL142:
 1264 005a 2046     		mov	r0, r4
 1265              	.LVL143:
 1266 005c 9847     		blx	r3
 1267              	.LVL144:
 1268              	.LBE455:
 1269              	.LBE454:
 1270              		.loc 1 277 0
 1271 005e 5528     		cmp	r0, #85
 1272 0060 3BD0     		beq	.L106
 1273              	.LVL145:
 1274              	.LBB456:
 1275              	.LBB457:
 1276              		.loc 1 119 0
 1277 0062 E368     		ldr	r3, [r4, #12]
 1278 0064 2946     		mov	r1, r5
 1279 0066 2046     		mov	r0, r4
 1280 0068 9847     		blx	r3
 1281              	.LVL146:
 1282              	.LBE457:
 1283              	.LBE456:
 1284              		.loc 1 277 0
 1285 006a 7528     		cmp	r0, #117
 1286 006c 35D0     		beq	.L106
 1287              	.LVL147:
 1288              	.LBB458:
 1289              	.LBB459:
 1290              		.loc 1 119 0
 1291 006e E368     		ldr	r3, [r4, #12]
 1292 0070 2946     		mov	r1, r5
 1293 0072 2046     		mov	r0, r4
 1294 0074 9847     		blx	r3
 1295              	.LVL148:
 1296              	.LBE459:
 1297              	.LBE458:
 1298              		.loc 1 278 0
 1299 0076 2E28     		cmp	r0, #46
 1300 0078 2FD0     		beq	.L106
 1301              	.LVL149:
 1302              	.LBB460:
 1303              	.LBB461:
 1304              		.loc 1 119 0
 1305 007a E368     		ldr	r3, [r4, #12]
 1306 007c 2946     		mov	r1, r5
 1307 007e 2046     		mov	r0, r4
 1308 0080 9847     		blx	r3
 1309              	.LVL150:
 1310              	.LBE461:
 1311              	.LBE460:
ARM GAS  /tmp/ccUc3O3E.s 			page 24


 1312              		.loc 1 279 0
 1313 0082 4928     		cmp	r0, #73
 1314 0084 29D0     		beq	.L106
 1315              	.LVL151:
 1316              	.LBB462:
 1317              	.LBB463:
 1318              		.loc 1 119 0
 1319 0086 E368     		ldr	r3, [r4, #12]
 1320 0088 2946     		mov	r1, r5
 1321 008a 2046     		mov	r0, r4
 1322 008c 9847     		blx	r3
 1323              	.LVL152:
 1324              	.LBE463:
 1325              	.LBE462:
 1326              		.loc 1 283 0
 1327 008e 6928     		cmp	r0, #105
 1328 0090 0BD1     		bne	.L112
 1329              	.LVL153:
 1330              	.LBB464:
 1331              	.LBB465:
 1332              		.loc 1 119 0 discriminator 1
 1333 0092 E368     		ldr	r3, [r4, #12]
 1334 0094 691C     		adds	r1, r5, #1
 1335              	.LVL154:
 1336 0096 2046     		mov	r0, r4
 1337 0098 9847     		blx	r3
 1338              	.LVL155:
 1339              	.LBE465:
 1340              	.LBE464:
 1341              		.loc 1 283 0 discriminator 1
 1342 009a 3228     		cmp	r0, #50
 1343 009c 05D1     		bne	.L112
 1344              	.LVL156:
 1345              	.LBB466:
 1346              	.LBB467:
 1347              		.loc 1 119 0
 1348 009e E368     		ldr	r3, [r4, #12]
 1349 00a0 A91C     		adds	r1, r5, #2
 1350              	.LVL157:
 1351 00a2 2046     		mov	r0, r4
 1352 00a4 9847     		blx	r3
 1353              	.LVL158:
 1354              	.LBE467:
 1355              	.LBE466:
 1356              		.loc 1 284 0
 1357 00a6 3828     		cmp	r0, #56
 1358 00a8 1AD0     		beq	.L131
 1359              	.L112:
 1360 00aa 2946     		mov	r1, r5
 1361              	.LVL159:
 1362              	.L107:
 1363              		.loc 1 288 0
 1364 00ac AEB1     		cbz	r6, .L106
 1365              	.LVL160:
 1366              	.LBB468:
 1367              	.LBB469:
 1368              		.loc 1 123 0
ARM GAS  /tmp/ccUc3O3E.s 			page 25


 1369 00ae 2369     		ldr	r3, [r4, #16]
 1370 00b0 2046     		mov	r0, r4
 1371 00b2 9847     		blx	r3
 1372              	.LVL161:
 1373              	.LBE469:
 1374              	.LBE468:
 1375              		.loc 1 290 0
 1376 00b4 B8F1000F 		cmp	r8, #0
 1377 00b8 09D1     		bne	.L132
 1378              	.LVL162:
 1379              	.L108:
 1380              		.loc 1 290 0 is_stmt 0 discriminator 4
 1381 00ba C9F80070 		str	r7, [r9]
 1382              		.loc 1 291 0 is_stmt 1 discriminator 4
 1383 00be 2846     		mov	r0, r5
 1384              		.loc 1 294 0 discriminator 4
 1385 00c0 BDE8F883 		pop	{r3, r4, r5, r6, r7, r8, r9, pc}
 1386              	.LVL163:
 1387              	.L99:
 1388              		.loc 1 273 0 discriminator 1
 1389 00c4 012D     		cmp	r5, #1
 1390 00c6 94BF     		ite	ls
 1391 00c8 0026     		movls	r6, #0
 1392 00ca 0126     		movhi	r6, #1
 1393 00cc C3E7     		b	.L103
 1394              	.LVL164:
 1395              	.L132:
 1396              		.loc 1 290 0 discriminator 1
 1397 00ce 7F42     		negs	r7, r7
 1398              	.LVL165:
 1399 00d0 F3E7     		b	.L108
 1400              	.LVL166:
 1401              	.L130:
 1402              		.loc 1 266 0
 1403 00d2 4FF00108 		mov	r8, #1
 1404              		.loc 1 265 0
 1405 00d6 4546     		mov	r5, r8
 1406 00d8 9EE7     		b	.L96
 1407              	.LVL167:
 1408              	.L106:
 1409              		.loc 1 280 0
 1410 00da 0020     		movs	r0, #0
 1411              		.loc 1 294 0
 1412 00dc BDE8F883 		pop	{r3, r4, r5, r6, r7, r8, r9, pc}
 1413              	.LVL168:
 1414              	.L131:
 1415              		.loc 1 286 0
 1416 00e0 E91C     		adds	r1, r5, #3
 1417              	.LVL169:
 1418 00e2 E3E7     		b	.L107
 1419              		.cfi_endproc
 1420              	.LFE47:
 1421              		.size	tok_i, .-tok_i
 1422              		.section	.text.tok_I,"ax",%progbits
 1423              		.align	1
 1424              		.p2align 4,,15
 1425              		.global	tok_I
ARM GAS  /tmp/ccUc3O3E.s 			page 26


 1426              		.syntax unified
 1427              		.thumb
 1428              		.thumb_func
 1429              		.fpu fpv4-sp-d16
 1430              		.type	tok_I, %function
 1431              	tok_I:
 1432              	.LFB48:
 1433              		.loc 1 296 0
 1434              		.cfi_startproc
 1435              		@ args = 0, pretend = 0, frame = 0
 1436              		@ frame_needed = 0, uses_anonymous_args = 0
 1437              	.LVL170:
 1438 0000 2DE9F843 		push	{r3, r4, r5, r6, r7, r8, r9, lr}
 1439              		.cfi_def_cfa_offset 32
 1440              		.cfi_offset 3, -32
 1441              		.cfi_offset 4, -28
 1442              		.cfi_offset 5, -24
 1443              		.cfi_offset 6, -20
 1444              		.cfi_offset 7, -16
 1445              		.cfi_offset 8, -12
 1446              		.cfi_offset 9, -8
 1447              		.cfi_offset 14, -4
 1448              		.loc 1 296 0
 1449 0004 8846     		mov	r8, r1
 1450              	.LBB470:
 1451              	.LBB471:
 1452              		.loc 1 119 0
 1453 0006 C368     		ldr	r3, [r0, #12]
 1454 0008 0021     		movs	r1, #0
 1455              	.LVL171:
 1456              	.LBE471:
 1457              	.LBE470:
 1458              		.loc 1 296 0
 1459 000a 0446     		mov	r4, r0
 1460              	.LVL172:
 1461              	.LBB473:
 1462              	.LBB472:
 1463              		.loc 1 119 0
 1464 000c 9847     		blx	r3
 1465              	.LVL173:
 1466              	.LBE472:
 1467              	.LBE473:
 1468              		.loc 1 302 0
 1469 000e 2D28     		cmp	r0, #45
 1470 0010 4BD0     		beq	.L155
 1471              		.loc 1 299 0
 1472 0012 4FF00009 		mov	r9, #0
 1473              		.loc 1 298 0
 1474 0016 4D46     		mov	r5, r9
 1475              	.L134:
 1476 0018 0027     		movs	r7, #0
 1477 001a 0EE0     		b	.L135
 1478              	.LVL174:
 1479              	.L136:
 1480              	.LBB474:
 1481              	.LBB475:
 1482              		.loc 1 119 0
ARM GAS  /tmp/ccUc3O3E.s 			page 27


 1483 001c E368     		ldr	r3, [r4, #12]
 1484 001e 9847     		blx	r3
 1485              	.LVL175:
 1486              	.LBE475:
 1487              	.LBE474:
 1488              		.loc 1 308 0
 1489 0020 07EB8703 		add	r3, r7, r7, lsl #2
 1490              		.loc 1 307 0
 1491 0024 3928     		cmp	r0, #57
 1492              	.LBB477:
 1493              	.LBB478:
 1494              		.loc 1 119 0
 1495 0026 2946     		mov	r1, r5
 1496              	.LBE478:
 1497              	.LBE477:
 1498              		.loc 1 308 0
 1499 0028 4FEA4306 		lsl	r6, r3, #1
 1500              	.LVL176:
 1501              	.LBB481:
 1502              	.LBB479:
 1503              		.loc 1 119 0
 1504 002c 2046     		mov	r0, r4
 1505              	.LBE479:
 1506              	.LBE481:
 1507              		.loc 1 307 0
 1508 002e 0CD8     		bhi	.L140
 1509              	.LVL177:
 1510              	.LBB482:
 1511              	.LBB480:
 1512              		.loc 1 119 0
 1513 0030 E368     		ldr	r3, [r4, #12]
 1514 0032 9847     		blx	r3
 1515              	.LVL178:
 1516              	.LBE480:
 1517              	.LBE482:
 1518              		.loc 1 308 0
 1519 0034 3038     		subs	r0, r0, #48
 1520              		.loc 1 309 0
 1521 0036 0135     		adds	r5, r5, #1
 1522              	.LVL179:
 1523              		.loc 1 308 0
 1524 0038 8719     		adds	r7, r0, r6
 1525              	.LVL180:
 1526              	.L135:
 1527              	.LBB483:
 1528              	.LBB484:
 1529              		.loc 1 119 0
 1530 003a 2946     		mov	r1, r5
 1531 003c E368     		ldr	r3, [r4, #12]
 1532 003e 2046     		mov	r0, r4
 1533 0040 9847     		blx	r3
 1534              	.LVL181:
 1535              	.LBE484:
 1536              	.LBE483:
 1537              		.loc 1 307 0
 1538 0042 2F28     		cmp	r0, #47
 1539              	.LBB485:
ARM GAS  /tmp/ccUc3O3E.s 			page 28


 1540              	.LBB476:
 1541              		.loc 1 119 0
 1542 0044 2946     		mov	r1, r5
 1543 0046 2046     		mov	r0, r4
 1544              	.LBE476:
 1545              	.LBE485:
 1546              		.loc 1 307 0
 1547 0048 E8D8     		bhi	.L136
 1548              	.LVL182:
 1549              	.L140:
 1550              		.loc 1 311 0
 1551 004a B9F1000F 		cmp	r9, #0
 1552 004e 17D1     		bne	.L137
 1553              		.loc 1 312 0
 1554 0050 2E1C     		adds	r6, r5, #0
 1555 0052 18BF     		it	ne
 1556 0054 0126     		movne	r6, #1
 1557              	.LVL183:
 1558              	.L141:
 1559              	.LBB486:
 1560              	.LBB487:
 1561              		.loc 1 119 0
 1562 0056 E368     		ldr	r3, [r4, #12]
 1563 0058 2946     		mov	r1, r5
 1564              	.LVL184:
 1565 005a 2046     		mov	r0, r4
 1566              	.LVL185:
 1567 005c 9847     		blx	r3
 1568              	.LVL186:
 1569              	.LBE487:
 1570              	.LBE486:
 1571              		.loc 1 314 0
 1572 005e 6928     		cmp	r0, #105
 1573 0060 0BD1     		bne	.L144
 1574              	.LVL187:
 1575              	.LBB488:
 1576              	.LBB489:
 1577              		.loc 1 119 0 discriminator 1
 1578 0062 E368     		ldr	r3, [r4, #12]
 1579 0064 691C     		adds	r1, r5, #1
 1580              	.LVL188:
 1581 0066 2046     		mov	r0, r4
 1582 0068 9847     		blx	r3
 1583              	.LVL189:
 1584              	.LBE489:
 1585              	.LBE488:
 1586              		.loc 1 314 0 discriminator 1
 1587 006a 3328     		cmp	r0, #51
 1588 006c 05D1     		bne	.L144
 1589              	.LVL190:
 1590              	.LBB490:
 1591              	.LBB491:
 1592              		.loc 1 119 0
 1593 006e E368     		ldr	r3, [r4, #12]
 1594 0070 A91C     		adds	r1, r5, #2
 1595              	.LVL191:
 1596 0072 2046     		mov	r0, r4
ARM GAS  /tmp/ccUc3O3E.s 			page 29


 1597 0074 9847     		blx	r3
 1598              	.LVL192:
 1599              	.LBE491:
 1600              	.LBE490:
 1601              		.loc 1 315 0
 1602 0076 3228     		cmp	r0, #50
 1603 0078 07D0     		beq	.L156
 1604              	.L144:
 1605              		.loc 1 322 0
 1606 007a 0020     		movs	r0, #0
 1607              		.loc 1 323 0
 1608 007c BDE8F883 		pop	{r3, r4, r5, r6, r7, r8, r9, pc}
 1609              	.LVL193:
 1610              	.L137:
 1611              		.loc 1 311 0 discriminator 1
 1612 0080 012D     		cmp	r5, #1
 1613 0082 94BF     		ite	ls
 1614 0084 0026     		movls	r6, #0
 1615 0086 0126     		movhi	r6, #1
 1616 0088 E5E7     		b	.L141
 1617              	.LVL194:
 1618              	.L156:
 1619              		.loc 1 316 0
 1620 008a 002E     		cmp	r6, #0
 1621 008c F5D0     		beq	.L144
 1622              		.loc 1 318 0
 1623 008e B9F1000F 		cmp	r9, #0
 1624 0092 00D0     		beq	.L145
 1625              		.loc 1 318 0 is_stmt 0 discriminator 1
 1626 0094 7F42     		negs	r7, r7
 1627              	.LVL195:
 1628              	.L145:
 1629              		.loc 1 319 0 is_stmt 1 discriminator 4
 1630 0096 0335     		adds	r5, r5, #3
 1631              	.LVL196:
 1632              	.LBB492:
 1633              	.LBB493:
 1634              		.loc 1 123 0 discriminator 4
 1635 0098 2046     		mov	r0, r4
 1636              	.LBE493:
 1637              	.LBE492:
 1638              		.loc 1 318 0 discriminator 4
 1639 009a C8F80070 		str	r7, [r8]
 1640              	.LBB495:
 1641              	.LBB494:
 1642              		.loc 1 123 0 discriminator 4
 1643 009e 2946     		mov	r1, r5
 1644 00a0 2369     		ldr	r3, [r4, #16]
 1645 00a2 9847     		blx	r3
 1646              	.LVL197:
 1647              	.LBE494:
 1648              	.LBE495:
 1649              		.loc 1 320 0 discriminator 4
 1650 00a4 2846     		mov	r0, r5
 1651              		.loc 1 323 0 discriminator 4
 1652 00a6 BDE8F883 		pop	{r3, r4, r5, r6, r7, r8, r9, pc}
 1653              	.LVL198:
ARM GAS  /tmp/ccUc3O3E.s 			page 30


 1654              	.L155:
 1655              		.loc 1 304 0
 1656 00aa 4FF00109 		mov	r9, #1
 1657              		.loc 1 303 0
 1658 00ae 4D46     		mov	r5, r9
 1659 00b0 B2E7     		b	.L134
 1660              		.cfi_endproc
 1661              	.LFE48:
 1662              		.size	tok_I, .-tok_I
 1663 00b2 00BF     		.section	.text.tok_u,"ax",%progbits
 1664              		.align	1
 1665              		.p2align 4,,15
 1666              		.global	tok_u
 1667              		.syntax unified
 1668              		.thumb
 1669              		.thumb_func
 1670              		.fpu fpv4-sp-d16
 1671              		.type	tok_u, %function
 1672              	tok_u:
 1673              	.LFB49:
 1674              		.loc 1 325 0
 1675              		.cfi_startproc
 1676              		@ args = 0, pretend = 0, frame = 0
 1677              		@ frame_needed = 0, uses_anonymous_args = 0
 1678              	.LVL199:
 1679 0000 2DE9F843 		push	{r3, r4, r5, r6, r7, r8, r9, lr}
 1680              		.cfi_def_cfa_offset 32
 1681              		.cfi_offset 3, -32
 1682              		.cfi_offset 4, -28
 1683              		.cfi_offset 5, -24
 1684              		.cfi_offset 6, -20
 1685              		.cfi_offset 7, -16
 1686              		.cfi_offset 8, -12
 1687              		.cfi_offset 9, -8
 1688              		.cfi_offset 14, -4
 1689              		.loc 1 325 0
 1690 0004 0F46     		mov	r7, r1
 1691              	.LBB496:
 1692              	.LBB497:
 1693              		.loc 1 119 0
 1694 0006 C368     		ldr	r3, [r0, #12]
 1695 0008 0021     		movs	r1, #0
 1696              	.LVL200:
 1697              	.LBE497:
 1698              	.LBE496:
 1699              		.loc 1 325 0
 1700 000a 0446     		mov	r4, r0
 1701              	.LVL201:
 1702              	.LBB499:
 1703              	.LBB498:
 1704              		.loc 1 119 0
 1705 000c 9847     		blx	r3
 1706              	.LVL202:
 1707              	.LBE498:
 1708              	.LBE499:
 1709              		.loc 1 331 0
 1710 000e 2D28     		cmp	r0, #45
ARM GAS  /tmp/ccUc3O3E.s 			page 31


 1711 0010 4ED0     		beq	.L179
 1712              		.loc 1 328 0
 1713 0012 4FF00008 		mov	r8, #0
 1714              		.loc 1 327 0
 1715 0016 4646     		mov	r6, r8
 1716              	.L158:
 1717 0018 0025     		movs	r5, #0
 1718 001a 0DE0     		b	.L159
 1719              	.LVL203:
 1720              	.L160:
 1721              	.LBB500:
 1722              	.LBB501:
 1723              		.loc 1 119 0
 1724 001c E368     		ldr	r3, [r4, #12]
 1725 001e 9847     		blx	r3
 1726              	.LVL204:
 1727              	.LBE501:
 1728              	.LBE500:
 1729              		.loc 1 336 0
 1730 0020 3928     		cmp	r0, #57
 1731              	.LBB503:
 1732              	.LBB504:
 1733              		.loc 1 119 0
 1734 0022 3146     		mov	r1, r6
 1735 0024 2046     		mov	r0, r4
 1736              	.LBE504:
 1737              	.LBE503:
 1738              		.loc 1 336 0
 1739 0026 0FD8     		bhi	.L164
 1740              	.LVL205:
 1741              	.LBB506:
 1742              	.LBB505:
 1743              		.loc 1 119 0
 1744 0028 E368     		ldr	r3, [r4, #12]
 1745 002a 9847     		blx	r3
 1746              	.LVL206:
 1747              	.LBE505:
 1748              	.LBE506:
 1749              		.loc 1 337 0
 1750 002c 05EB8505 		add	r5, r5, r5, lsl #2
 1751              	.LVL207:
 1752 0030 00EB4505 		add	r5, r0, r5, lsl #1
 1753              		.loc 1 338 0
 1754 0034 0136     		adds	r6, r6, #1
 1755              	.LVL208:
 1756              		.loc 1 337 0
 1757 0036 303D     		subs	r5, r5, #48
 1758              	.LVL209:
 1759              	.L159:
 1760              	.LBB507:
 1761              	.LBB508:
 1762              		.loc 1 119 0
 1763 0038 3146     		mov	r1, r6
 1764 003a E368     		ldr	r3, [r4, #12]
 1765 003c 2046     		mov	r0, r4
 1766 003e 9847     		blx	r3
 1767              	.LVL210:
ARM GAS  /tmp/ccUc3O3E.s 			page 32


 1768              	.LBE508:
 1769              	.LBE507:
 1770              		.loc 1 336 0
 1771 0040 2F28     		cmp	r0, #47
 1772              	.LBB509:
 1773              	.LBB502:
 1774              		.loc 1 119 0
 1775 0042 3146     		mov	r1, r6
 1776 0044 2046     		mov	r0, r4
 1777              	.LBE502:
 1778              	.LBE509:
 1779              		.loc 1 336 0
 1780 0046 E9D8     		bhi	.L160
 1781              	.LVL211:
 1782              	.L164:
 1783              		.loc 1 340 0
 1784 0048 B8F1000F 		cmp	r8, #0
 1785 004c 19D1     		bne	.L161
 1786              		.loc 1 341 0
 1787 004e 16F10009 		adds	r9, r6, #0
 1788 0052 18BF     		it	ne
 1789 0054 4FF00109 		movne	r9, #1
 1790              	.LVL212:
 1791              	.L165:
 1792              	.LBB510:
 1793              	.LBB511:
 1794              		.loc 1 119 0
 1795 0058 E368     		ldr	r3, [r4, #12]
 1796 005a 3146     		mov	r1, r6
 1797              	.LVL213:
 1798 005c 2046     		mov	r0, r4
 1799              	.LVL214:
 1800 005e 9847     		blx	r3
 1801              	.LVL215:
 1802              	.LBE511:
 1803              	.LBE510:
 1804              		.loc 1 343 0
 1805 0060 7528     		cmp	r0, #117
 1806 0062 0BD1     		bne	.L168
 1807              	.LVL216:
 1808              	.LBB512:
 1809              	.LBB513:
 1810              		.loc 1 119 0 discriminator 1
 1811 0064 E368     		ldr	r3, [r4, #12]
 1812 0066 711C     		adds	r1, r6, #1
 1813              	.LVL217:
 1814 0068 2046     		mov	r0, r4
 1815 006a 9847     		blx	r3
 1816              	.LVL218:
 1817              	.LBE513:
 1818              	.LBE512:
 1819              		.loc 1 343 0 discriminator 1
 1820 006c 3228     		cmp	r0, #50
 1821 006e 05D1     		bne	.L168
 1822              	.LVL219:
 1823              	.LBB514:
 1824              	.LBB515:
ARM GAS  /tmp/ccUc3O3E.s 			page 33


 1825              		.loc 1 119 0
 1826 0070 E368     		ldr	r3, [r4, #12]
 1827 0072 B11C     		adds	r1, r6, #2
 1828              	.LVL220:
 1829 0074 2046     		mov	r0, r4
 1830 0076 9847     		blx	r3
 1831              	.LVL221:
 1832              	.LBE515:
 1833              	.LBE514:
 1834              		.loc 1 344 0
 1835 0078 3828     		cmp	r0, #56
 1836 007a 09D0     		beq	.L180
 1837              	.L168:
 1838              		.loc 1 351 0
 1839 007c 0020     		movs	r0, #0
 1840              		.loc 1 352 0
 1841 007e BDE8F883 		pop	{r3, r4, r5, r6, r7, r8, r9, pc}
 1842              	.LVL222:
 1843              	.L161:
 1844              		.loc 1 340 0 discriminator 1
 1845 0082 012E     		cmp	r6, #1
 1846 0084 94BF     		ite	ls
 1847 0086 4FF00009 		movls	r9, #0
 1848 008a 4FF00109 		movhi	r9, #1
 1849 008e E3E7     		b	.L165
 1850              	.LVL223:
 1851              	.L180:
 1852              		.loc 1 345 0
 1853 0090 B9F1000F 		cmp	r9, #0
 1854 0094 F2D0     		beq	.L168
 1855              		.loc 1 347 0
 1856 0096 B8F1000F 		cmp	r8, #0
 1857 009a 00D0     		beq	.L169
 1858              		.loc 1 347 0 is_stmt 0 discriminator 1
 1859 009c 6D42     		negs	r5, r5
 1860              	.LVL224:
 1861              	.L169:
 1862              		.loc 1 348 0 is_stmt 1 discriminator 4
 1863 009e 0336     		adds	r6, r6, #3
 1864              	.LVL225:
 1865              	.LBB516:
 1866              	.LBB517:
 1867              		.loc 1 123 0 discriminator 4
 1868 00a0 2046     		mov	r0, r4
 1869              	.LBE517:
 1870              	.LBE516:
 1871              		.loc 1 347 0 discriminator 4
 1872 00a2 3D60     		str	r5, [r7]
 1873              	.LBB519:
 1874              	.LBB518:
 1875              		.loc 1 123 0 discriminator 4
 1876 00a4 3146     		mov	r1, r6
 1877 00a6 2369     		ldr	r3, [r4, #16]
 1878 00a8 9847     		blx	r3
 1879              	.LVL226:
 1880              	.LBE518:
 1881              	.LBE519:
ARM GAS  /tmp/ccUc3O3E.s 			page 34


 1882              		.loc 1 349 0 discriminator 4
 1883 00aa 3046     		mov	r0, r6
 1884              		.loc 1 352 0 discriminator 4
 1885 00ac BDE8F883 		pop	{r3, r4, r5, r6, r7, r8, r9, pc}
 1886              	.LVL227:
 1887              	.L179:
 1888              		.loc 1 333 0
 1889 00b0 4FF00108 		mov	r8, #1
 1890              		.loc 1 332 0
 1891 00b4 4646     		mov	r6, r8
 1892 00b6 AFE7     		b	.L158
 1893              		.cfi_endproc
 1894              	.LFE49:
 1895              		.size	tok_u, .-tok_u
 1896              		.section	.text.tok_U,"ax",%progbits
 1897              		.align	1
 1898              		.p2align 4,,15
 1899              		.global	tok_U
 1900              		.syntax unified
 1901              		.thumb
 1902              		.thumb_func
 1903              		.fpu fpv4-sp-d16
 1904              		.type	tok_U, %function
 1905              	tok_U:
 1906              	.LFB50:
 1907              		.loc 1 354 0
 1908              		.cfi_startproc
 1909              		@ args = 0, pretend = 0, frame = 0
 1910              		@ frame_needed = 0, uses_anonymous_args = 0
 1911              	.LVL228:
 1912 0000 2DE9F843 		push	{r3, r4, r5, r6, r7, r8, r9, lr}
 1913              		.cfi_def_cfa_offset 32
 1914              		.cfi_offset 3, -32
 1915              		.cfi_offset 4, -28
 1916              		.cfi_offset 5, -24
 1917              		.cfi_offset 6, -20
 1918              		.cfi_offset 7, -16
 1919              		.cfi_offset 8, -12
 1920              		.cfi_offset 9, -8
 1921              		.cfi_offset 14, -4
 1922              	.LBB520:
 1923              	.LBB521:
 1924              		.loc 1 119 0
 1925 0004 C368     		ldr	r3, [r0, #12]
 1926              	.LBE521:
 1927              	.LBE520:
 1928              		.loc 1 354 0
 1929 0006 0F46     		mov	r7, r1
 1930              	.LBB524:
 1931              	.LBB522:
 1932              		.loc 1 119 0
 1933 0008 0021     		movs	r1, #0
 1934              	.LVL229:
 1935              	.LBE522:
 1936              	.LBE524:
 1937              		.loc 1 354 0
 1938 000a 0446     		mov	r4, r0
ARM GAS  /tmp/ccUc3O3E.s 			page 35


 1939              	.LVL230:
 1940              	.LBB525:
 1941              	.LBB523:
 1942              		.loc 1 119 0
 1943 000c 9847     		blx	r3
 1944              	.LVL231:
 1945              	.LBE523:
 1946              	.LBE525:
 1947              	.LBB526:
 1948              	.LBB527:
 1949 000e E368     		ldr	r3, [r4, #12]
 1950              	.LBE527:
 1951              	.LBE526:
 1952              		.loc 1 360 0
 1953 0010 2D28     		cmp	r0, #45
 1954              	.LBB530:
 1955              	.LBB528:
 1956              		.loc 1 119 0
 1957 0012 4FF00001 		mov	r1, #0
 1958 0016 2046     		mov	r0, r4
 1959              	.LBE528:
 1960              	.LBE530:
 1961              		.loc 1 362 0
 1962 0018 0CBF     		ite	eq
 1963 001a 4FF00108 		moveq	r8, #1
 1964              		.loc 1 357 0
 1965 001e 4FF00008 		movne	r8, #0
 1966              	.LVL232:
 1967              	.LBB531:
 1968              	.LBB529:
 1969              		.loc 1 119 0
 1970 0022 9847     		blx	r3
 1971              	.LVL233:
 1972              	.LBE529:
 1973              	.LBE531:
 1974              		.loc 1 366 0
 1975 0024 3028     		cmp	r0, #48
 1976              		.loc 1 356 0
 1977 0026 4546     		mov	r5, r8
 1978              		.loc 1 366 0
 1979 0028 0BD1     		bne	.L214
 1980              	.LVL234:
 1981              	.LBB532:
 1982              	.LBB533:
 1983              		.loc 1 119 0
 1984 002a E368     		ldr	r3, [r4, #12]
 1985 002c 0121     		movs	r1, #1
 1986 002e 2046     		mov	r0, r4
 1987 0030 9847     		blx	r3
 1988              	.LVL235:
 1989              	.LBE533:
 1990              	.LBE532:
 1991              		.loc 1 366 0
 1992 0032 7828     		cmp	r0, #120
 1993 0034 41D0     		beq	.L186
 1994              	.LVL236:
 1995              	.LBB534:
ARM GAS  /tmp/ccUc3O3E.s 			page 36


 1996              	.LBB535:
 1997              		.loc 1 119 0
 1998 0036 E368     		ldr	r3, [r4, #12]
 1999 0038 0121     		movs	r1, #1
 2000 003a 2046     		mov	r0, r4
 2001 003c 9847     		blx	r3
 2002              	.LVL237:
 2003              	.LBE535:
 2004              	.LBE534:
 2005              		.loc 1 367 0
 2006 003e 5828     		cmp	r0, #88
 2007 0040 3BD0     		beq	.L186
 2008              	.L214:
 2009              		.loc 1 355 0
 2010 0042 0026     		movs	r6, #0
 2011 0044 0DE0     		b	.L202
 2012              	.LVL238:
 2013              	.L203:
 2014              	.LBB536:
 2015              	.LBB537:
 2016              		.loc 1 119 0
 2017 0046 E368     		ldr	r3, [r4, #12]
 2018 0048 9847     		blx	r3
 2019              	.LVL239:
 2020              	.LBE537:
 2021              	.LBE536:
 2022              		.loc 1 394 0
 2023 004a 3928     		cmp	r0, #57
 2024              	.LBB539:
 2025              	.LBB540:
 2026              		.loc 1 119 0
 2027 004c 2946     		mov	r1, r5
 2028 004e 2046     		mov	r0, r4
 2029              	.LBE540:
 2030              	.LBE539:
 2031              		.loc 1 394 0
 2032 0050 0FD8     		bhi	.L207
 2033              	.LVL240:
 2034              	.LBB542:
 2035              	.LBB541:
 2036              		.loc 1 119 0
 2037 0052 E368     		ldr	r3, [r4, #12]
 2038 0054 9847     		blx	r3
 2039              	.LVL241:
 2040              	.LBE541:
 2041              	.LBE542:
 2042              		.loc 1 395 0
 2043 0056 06EB8606 		add	r6, r6, r6, lsl #2
 2044              	.LVL242:
 2045 005a 00EB4606 		add	r6, r0, r6, lsl #1
 2046              		.loc 1 396 0
 2047 005e 0135     		adds	r5, r5, #1
 2048              	.LVL243:
 2049              		.loc 1 395 0
 2050 0060 303E     		subs	r6, r6, #48
 2051              	.LVL244:
 2052              	.L202:
ARM GAS  /tmp/ccUc3O3E.s 			page 37


 2053              	.LBB543:
 2054              	.LBB544:
 2055              		.loc 1 119 0
 2056 0062 2946     		mov	r1, r5
 2057 0064 E368     		ldr	r3, [r4, #12]
 2058 0066 2046     		mov	r0, r4
 2059 0068 9847     		blx	r3
 2060              	.LVL245:
 2061              	.LBE544:
 2062              	.LBE543:
 2063              		.loc 1 394 0
 2064 006a 2F28     		cmp	r0, #47
 2065              	.LBB545:
 2066              	.LBB538:
 2067              		.loc 1 119 0
 2068 006c 2946     		mov	r1, r5
 2069 006e 2046     		mov	r0, r4
 2070              	.LBE538:
 2071              	.LBE545:
 2072              		.loc 1 394 0
 2073 0070 E9D8     		bhi	.L203
 2074              	.LVL246:
 2075              	.L207:
 2076              		.loc 1 398 0
 2077 0072 B8F1000F 		cmp	r8, #0
 2078 0076 1AD0     		beq	.L227
 2079              		.loc 1 398 0 is_stmt 0 discriminator 1
 2080 0078 012D     		cmp	r5, #1
 2081 007a 94BF     		ite	ls
 2082 007c 4FF00009 		movls	r9, #0
 2083 0080 4FF00109 		movhi	r9, #1
 2084              	.L208:
 2085              	.LVL247:
 2086              	.LBB546:
 2087              	.LBB547:
 2088              		.loc 1 119 0 is_stmt 1
 2089 0084 E368     		ldr	r3, [r4, #12]
 2090 0086 2946     		mov	r1, r5
 2091              	.LVL248:
 2092 0088 2046     		mov	r0, r4
 2093              	.LVL249:
 2094 008a 9847     		blx	r3
 2095              	.LVL250:
 2096              	.LBE547:
 2097              	.LBE546:
 2098              		.loc 1 401 0
 2099 008c 7528     		cmp	r0, #117
 2100 008e 0BD1     		bne	.L210
 2101              	.LVL251:
 2102              	.LBB548:
 2103              	.LBB549:
 2104              		.loc 1 119 0 discriminator 1
 2105 0090 E368     		ldr	r3, [r4, #12]
 2106 0092 691C     		adds	r1, r5, #1
 2107              	.LVL252:
 2108 0094 2046     		mov	r0, r4
 2109 0096 9847     		blx	r3
ARM GAS  /tmp/ccUc3O3E.s 			page 38


 2110              	.LVL253:
 2111              	.LBE549:
 2112              	.LBE548:
 2113              		.loc 1 401 0 discriminator 1
 2114 0098 3328     		cmp	r0, #51
 2115 009a 05D1     		bne	.L210
 2116              	.LVL254:
 2117              	.LBB550:
 2118              	.LBB551:
 2119              		.loc 1 119 0
 2120 009c E368     		ldr	r3, [r4, #12]
 2121 009e A91C     		adds	r1, r5, #2
 2122              	.LVL255:
 2123 00a0 2046     		mov	r0, r4
 2124 00a2 9847     		blx	r3
 2125              	.LVL256:
 2126              	.LBE551:
 2127              	.LBE550:
 2128              		.loc 1 402 0
 2129 00a4 3228     		cmp	r0, #50
 2130 00a6 6AD0     		beq	.L228
 2131              	.L210:
 2132              		.loc 1 409 0
 2133 00a8 0020     		movs	r0, #0
 2134              		.loc 1 410 0
 2135 00aa BDE8F883 		pop	{r3, r4, r5, r6, r7, r8, r9, pc}
 2136              	.LVL257:
 2137              	.L227:
 2138              		.loc 1 399 0
 2139 00ae 15F10009 		adds	r9, r5, #0
 2140 00b2 18BF     		it	ne
 2141 00b4 4FF00109 		movne	r9, #1
 2142 00b8 E4E7     		b	.L208
 2143              	.LVL258:
 2144              	.L186:
 2145              		.loc 1 368 0
 2146 00ba 0235     		adds	r5, r5, #2
 2147              	.LVL259:
 2148              		.loc 1 355 0
 2149 00bc 0026     		movs	r6, #0
 2150              		.loc 1 369 0
 2151 00be 0DE0     		b	.L185
 2152              	.LVL260:
 2153              	.L229:
 2154              	.LBB552:
 2155              	.LBB553:
 2156              	.LBB554:
 2157              		.loc 1 119 0
 2158 00c0 E368     		ldr	r3, [r4, #12]
 2159 00c2 2946     		mov	r1, r5
 2160 00c4 2046     		mov	r0, r4
 2161 00c6 9847     		blx	r3
 2162              	.LVL261:
 2163              	.LBE554:
 2164              	.LBE553:
 2165              		.loc 1 373 0
 2166 00c8 6628     		cmp	r0, #102
ARM GAS  /tmp/ccUc3O3E.s 			page 39


 2167 00ca 31D8     		bhi	.L187
 2168              	.LVL262:
 2169              	.LBB555:
 2170              	.LBB556:
 2171              		.loc 1 119 0
 2172 00cc E368     		ldr	r3, [r4, #12]
 2173 00ce 2946     		mov	r1, r5
 2174 00d0 2046     		mov	r0, r4
 2175 00d2 9847     		blx	r3
 2176              	.LVL263:
 2177              	.LBE556:
 2178              	.LBE555:
 2179              		.loc 1 374 0
 2180 00d4 5738     		subs	r0, r0, #87
 2181              	.LVL264:
 2182              	.L188:
 2183              		.loc 1 380 0
 2184 00d6 00EB0616 		add	r6, r0, r6, lsl #4
 2185              	.LVL265:
 2186              		.loc 1 381 0
 2187 00da 0135     		adds	r5, r5, #1
 2188              	.LVL266:
 2189              	.L185:
 2190              	.LBE552:
 2191              	.LBB567:
 2192              	.LBB568:
 2193              		.loc 1 119 0
 2194 00dc E368     		ldr	r3, [r4, #12]
 2195 00de 2946     		mov	r1, r5
 2196 00e0 2046     		mov	r0, r4
 2197 00e2 9847     		blx	r3
 2198              	.LVL267:
 2199              	.LBE568:
 2200              	.LBE567:
 2201              		.loc 1 369 0
 2202 00e4 2F28     		cmp	r0, #47
 2203 00e6 05D9     		bls	.L194
 2204              	.LVL268:
 2205              	.LBB569:
 2206              	.LBB570:
 2207              		.loc 1 119 0
 2208 00e8 E368     		ldr	r3, [r4, #12]
 2209 00ea 2946     		mov	r1, r5
 2210 00ec 2046     		mov	r0, r4
 2211 00ee 9847     		blx	r3
 2212              	.LVL269:
 2213              	.LBE570:
 2214              	.LBE569:
 2215              		.loc 1 369 0
 2216 00f0 3928     		cmp	r0, #57
 2217 00f2 17D9     		bls	.L193
 2218              	.L194:
 2219              	.LVL270:
 2220              	.LBB571:
 2221              	.LBB572:
 2222              		.loc 1 119 0
 2223 00f4 E368     		ldr	r3, [r4, #12]
ARM GAS  /tmp/ccUc3O3E.s 			page 40


 2224 00f6 2946     		mov	r1, r5
 2225 00f8 2046     		mov	r0, r4
 2226 00fa 9847     		blx	r3
 2227              	.LVL271:
 2228              	.LBE572:
 2229              	.LBE571:
 2230              		.loc 1 369 0
 2231 00fc 6028     		cmp	r0, #96
 2232 00fe 05D9     		bls	.L192
 2233              	.LVL272:
 2234              	.LBB573:
 2235              	.LBB574:
 2236              		.loc 1 119 0
 2237 0100 E368     		ldr	r3, [r4, #12]
 2238 0102 2946     		mov	r1, r5
 2239 0104 2046     		mov	r0, r4
 2240 0106 9847     		blx	r3
 2241              	.LVL273:
 2242              	.LBE574:
 2243              	.LBE573:
 2244              		.loc 1 370 0
 2245 0108 6628     		cmp	r0, #102
 2246 010a 0BD9     		bls	.L193
 2247              	.L192:
 2248              	.LVL274:
 2249              	.LBB575:
 2250              	.LBB576:
 2251              		.loc 1 119 0
 2252 010c E368     		ldr	r3, [r4, #12]
 2253 010e 2946     		mov	r1, r5
 2254 0110 2046     		mov	r0, r4
 2255 0112 9847     		blx	r3
 2256              	.LVL275:
 2257              	.LBE576:
 2258              	.LBE575:
 2259              		.loc 1 370 0
 2260 0114 4028     		cmp	r0, #64
 2261 0116 23D9     		bls	.L196
 2262              	.LVL276:
 2263              	.LBB577:
 2264              	.LBB578:
 2265              		.loc 1 119 0
 2266 0118 E368     		ldr	r3, [r4, #12]
 2267 011a 2946     		mov	r1, r5
 2268 011c 2046     		mov	r0, r4
 2269 011e 9847     		blx	r3
 2270              	.LVL277:
 2271              	.LBE578:
 2272              	.LBE577:
 2273              		.loc 1 371 0
 2274 0120 4628     		cmp	r0, #70
 2275 0122 1DD8     		bhi	.L196
 2276              	.L193:
 2277              	.LVL278:
 2278              	.LBB579:
 2279              	.LBB557:
 2280              	.LBB558:
ARM GAS  /tmp/ccUc3O3E.s 			page 41


 2281              		.loc 1 119 0
 2282 0124 E368     		ldr	r3, [r4, #12]
 2283 0126 2946     		mov	r1, r5
 2284 0128 2046     		mov	r0, r4
 2285 012a 9847     		blx	r3
 2286              	.LVL279:
 2287              	.LBE558:
 2288              	.LBE557:
 2289              		.loc 1 373 0
 2290 012c 6028     		cmp	r0, #96
 2291 012e C7D8     		bhi	.L229
 2292              	.L187:
 2293              	.LVL280:
 2294              	.LBB559:
 2295              	.LBB560:
 2296              		.loc 1 119 0
 2297 0130 E368     		ldr	r3, [r4, #12]
 2298 0132 2946     		mov	r1, r5
 2299 0134 2046     		mov	r0, r4
 2300 0136 9847     		blx	r3
 2301              	.LVL281:
 2302              	.LBE560:
 2303              	.LBE559:
 2304              		.loc 1 375 0
 2305 0138 4028     		cmp	r0, #64
 2306 013a 0BD9     		bls	.L189
 2307              	.LVL282:
 2308              	.LBB561:
 2309              	.LBB562:
 2310              		.loc 1 119 0
 2311 013c E368     		ldr	r3, [r4, #12]
 2312 013e 2946     		mov	r1, r5
 2313 0140 2046     		mov	r0, r4
 2314 0142 9847     		blx	r3
 2315              	.LVL283:
 2316              	.LBE562:
 2317              	.LBE561:
 2318              		.loc 1 375 0
 2319 0144 4628     		cmp	r0, #70
 2320 0146 05D8     		bhi	.L189
 2321              	.LVL284:
 2322              	.LBB563:
 2323              	.LBB564:
 2324              		.loc 1 119 0
 2325 0148 E368     		ldr	r3, [r4, #12]
 2326 014a 2946     		mov	r1, r5
 2327 014c 2046     		mov	r0, r4
 2328 014e 9847     		blx	r3
 2329              	.LVL285:
 2330              	.LBE564:
 2331              	.LBE563:
 2332              		.loc 1 376 0
 2333 0150 3738     		subs	r0, r0, #55
 2334              	.LVL286:
 2335 0152 C0E7     		b	.L188
 2336              	.LVL287:
 2337              	.L189:
ARM GAS  /tmp/ccUc3O3E.s 			page 42


 2338              	.LBB565:
 2339              	.LBB566:
 2340              		.loc 1 119 0
 2341 0154 E368     		ldr	r3, [r4, #12]
 2342 0156 2946     		mov	r1, r5
 2343 0158 2046     		mov	r0, r4
 2344 015a 9847     		blx	r3
 2345              	.LVL288:
 2346              	.LBE566:
 2347              	.LBE565:
 2348              		.loc 1 378 0
 2349 015c 3038     		subs	r0, r0, #48
 2350              	.LVL289:
 2351 015e BAE7     		b	.L188
 2352              	.LVL290:
 2353              	.L196:
 2354              	.LBE579:
 2355              		.loc 1 383 0
 2356 0160 B8F1000F 		cmp	r8, #0
 2357 0164 1BD0     		beq	.L230
 2358              		.loc 1 383 0 is_stmt 0 discriminator 1
 2359 0166 012D     		cmp	r5, #1
 2360 0168 7FF67BAF 		bls	.L202
 2361              	.LVL291:
 2362              	.LBB580:
 2363              	.LBB581:
 2364              		.loc 1 123 0 is_stmt 1
 2365 016c 2369     		ldr	r3, [r4, #16]
 2366 016e 2046     		mov	r0, r4
 2367 0170 2946     		mov	r1, r5
 2368              	.LBE581:
 2369              	.LBE580:
 2370              		.loc 1 388 0
 2371 0172 7642     		negs	r6, r6
 2372              	.LVL292:
 2373              	.LBB584:
 2374              	.LBB582:
 2375              		.loc 1 123 0
 2376 0174 9847     		blx	r3
 2377              	.LVL293:
 2378              	.L212:
 2379              	.LBE582:
 2380              	.LBE584:
 2381              		.loc 1 388 0 discriminator 4
 2382 0176 3E60     		str	r6, [r7]
 2383              		.loc 1 389 0 discriminator 4
 2384 0178 2846     		mov	r0, r5
 2385              		.loc 1 410 0 discriminator 4
 2386 017a BDE8F883 		pop	{r3, r4, r5, r6, r7, r8, r9, pc}
 2387              	.LVL294:
 2388              	.L228:
 2389              		.loc 1 403 0
 2390 017e B9F1000F 		cmp	r9, #0
 2391 0182 91D0     		beq	.L210
 2392              		.loc 1 405 0
 2393 0184 B8F1000F 		cmp	r8, #0
 2394 0188 00D0     		beq	.L211
ARM GAS  /tmp/ccUc3O3E.s 			page 43


 2395              		.loc 1 405 0 is_stmt 0 discriminator 1
 2396 018a 7642     		negs	r6, r6
 2397              	.LVL295:
 2398              	.L211:
 2399              		.loc 1 406 0 is_stmt 1 discriminator 4
 2400 018c 0335     		adds	r5, r5, #3
 2401              	.LVL296:
 2402              	.LBB585:
 2403              	.LBB586:
 2404              		.loc 1 123 0 discriminator 4
 2405 018e 2046     		mov	r0, r4
 2406              	.LBE586:
 2407              	.LBE585:
 2408              		.loc 1 405 0 discriminator 4
 2409 0190 3E60     		str	r6, [r7]
 2410              	.LBB588:
 2411              	.LBB587:
 2412              		.loc 1 123 0 discriminator 4
 2413 0192 2946     		mov	r1, r5
 2414 0194 2369     		ldr	r3, [r4, #16]
 2415 0196 9847     		blx	r3
 2416              	.LVL297:
 2417              	.LBE587:
 2418              	.LBE588:
 2419              		.loc 1 407 0 discriminator 4
 2420 0198 2846     		mov	r0, r5
 2421              		.loc 1 410 0 discriminator 4
 2422 019a BDE8F883 		pop	{r3, r4, r5, r6, r7, r8, r9, pc}
 2423              	.LVL298:
 2424              	.L230:
 2425              		.loc 1 384 0
 2426 019e 002D     		cmp	r5, #0
 2427 01a0 3FF45FAF 		beq	.L202
 2428              	.LVL299:
 2429              	.LBB589:
 2430              	.LBB583:
 2431              		.loc 1 123 0
 2432 01a4 2369     		ldr	r3, [r4, #16]
 2433 01a6 2046     		mov	r0, r4
 2434 01a8 2946     		mov	r1, r5
 2435 01aa 9847     		blx	r3
 2436              	.LVL300:
 2437 01ac E3E7     		b	.L212
 2438              	.LBE583:
 2439              	.LBE589:
 2440              		.cfi_endproc
 2441              	.LFE50:
 2442              		.size	tok_U, .-tok_U
 2443              		.global	__aeabi_d2f
 2444 01ae 00BF     		.section	.text.tok_F,"ax",%progbits
 2445              		.align	1
 2446              		.p2align 4,,15
 2447              		.global	tok_F
 2448              		.syntax unified
 2449              		.thumb
 2450              		.thumb_func
 2451              		.fpu fpv4-sp-d16
ARM GAS  /tmp/ccUc3O3E.s 			page 44


 2452              		.type	tok_F, %function
 2453              	tok_F:
 2454              	.LFB51:
 2455              		.loc 1 412 0
 2456              		.cfi_startproc
 2457              		@ args = 0, pretend = 0, frame = 128
 2458              		@ frame_needed = 0, uses_anonymous_args = 0
 2459              	.LVL301:
 2460 0000 2DE9F043 		push	{r4, r5, r6, r7, r8, r9, lr}
 2461              		.cfi_def_cfa_offset 28
 2462              		.cfi_offset 4, -28
 2463              		.cfi_offset 5, -24
 2464              		.cfi_offset 6, -20
 2465              		.cfi_offset 7, -16
 2466              		.cfi_offset 8, -12
 2467              		.cfi_offset 9, -8
 2468              		.cfi_offset 14, -4
 2469              	.LBB590:
 2470              	.LBB591:
 2471              		.loc 1 119 0
 2472 0004 C368     		ldr	r3, [r0, #12]
 2473              	.LBE591:
 2474              	.LBE590:
 2475              		.loc 1 412 0
 2476 0006 A1B0     		sub	sp, sp, #132
 2477              		.cfi_def_cfa_offset 160
 2478              		.loc 1 412 0
 2479 0008 0E46     		mov	r6, r1
 2480              	.LBB594:
 2481              	.LBB592:
 2482              		.loc 1 119 0
 2483 000a 0021     		movs	r1, #0
 2484              	.LVL302:
 2485              	.LBE592:
 2486              	.LBE594:
 2487              		.loc 1 412 0
 2488 000c 0446     		mov	r4, r0
 2489              	.LVL303:
 2490              	.LBB595:
 2491              	.LBB593:
 2492              		.loc 1 119 0
 2493 000e 9847     		blx	r3
 2494              	.LVL304:
 2495              	.LBE593:
 2496              	.LBE595:
 2497              		.loc 1 420 0
 2498 0010 2D28     		cmp	r0, #45
 2499 0012 5BD0     		beq	.L256
 2500              		.loc 1 417 0
 2501 0014 0027     		movs	r7, #0
 2502              		.loc 1 414 0
 2503 0016 3D46     		mov	r5, r7
 2504 0018 04E0     		b	.L233
 2505              	.LVL305:
 2506              	.L234:
 2507              	.LBB596:
 2508              	.LBB597:
ARM GAS  /tmp/ccUc3O3E.s 			page 45


 2509              		.loc 1 119 0
 2510 001a E368     		ldr	r3, [r4, #12]
 2511 001c 9847     		blx	r3
 2512              	.LVL306:
 2513              	.LBE597:
 2514              	.LBE596:
 2515              		.loc 1 425 0
 2516 001e 3928     		cmp	r0, #57
 2517 0020 08D8     		bhi	.L238
 2518              		.loc 1 425 0 is_stmt 0 discriminator 3
 2519 0022 0135     		adds	r5, r5, #1
 2520              	.LVL307:
 2521              	.L233:
 2522              	.LBB599:
 2523              	.LBB600:
 2524              		.loc 1 119 0 is_stmt 1 discriminator 1
 2525 0024 2946     		mov	r1, r5
 2526 0026 E368     		ldr	r3, [r4, #12]
 2527 0028 2046     		mov	r0, r4
 2528 002a 9847     		blx	r3
 2529              	.LVL308:
 2530              	.LBE600:
 2531              	.LBE599:
 2532              		.loc 1 425 0 discriminator 1
 2533 002c 2F28     		cmp	r0, #47
 2534              	.LBB601:
 2535              	.LBB598:
 2536              		.loc 1 119 0 discriminator 1
 2537 002e 2946     		mov	r1, r5
 2538 0030 2046     		mov	r0, r4
 2539              	.LBE598:
 2540              	.LBE601:
 2541              		.loc 1 425 0 discriminator 1
 2542 0032 F2D8     		bhi	.L234
 2543              	.LVL309:
 2544              	.L238:
 2545              	.LBB602:
 2546              	.LBB603:
 2547              		.loc 1 119 0
 2548 0034 E368     		ldr	r3, [r4, #12]
 2549 0036 2946     		mov	r1, r5
 2550 0038 2046     		mov	r0, r4
 2551 003a 9847     		blx	r3
 2552              	.LVL310:
 2553              	.LBE603:
 2554              	.LBE602:
 2555              		.loc 1 427 0
 2556 003c 2E28     		cmp	r0, #46
 2557 003e 0CD1     		bne	.L236
 2558              		.loc 1 427 0 is_stmt 0 discriminator 1
 2559 0040 0135     		adds	r5, r5, #1
 2560              	.LVL311:
 2561              	.LBB604:
 2562              	.LBB605:
 2563              		.loc 1 119 0 is_stmt 1 discriminator 1
 2564 0042 2946     		mov	r1, r5
 2565 0044 E368     		ldr	r3, [r4, #12]
ARM GAS  /tmp/ccUc3O3E.s 			page 46


 2566 0046 2046     		mov	r0, r4
 2567 0048 9847     		blx	r3
 2568              	.LVL312:
 2569              	.LBE605:
 2570              	.LBE604:
 2571              		.loc 1 430 0 discriminator 1
 2572 004a 2F28     		cmp	r0, #47
 2573 004c 05D9     		bls	.L236
 2574              	.LVL313:
 2575              	.LBB606:
 2576              	.LBB607:
 2577              		.loc 1 119 0
 2578 004e E368     		ldr	r3, [r4, #12]
 2579 0050 2946     		mov	r1, r5
 2580 0052 2046     		mov	r0, r4
 2581 0054 9847     		blx	r3
 2582              	.LVL314:
 2583              	.LBE607:
 2584              	.LBE606:
 2585              		.loc 1 430 0
 2586 0056 3928     		cmp	r0, #57
 2587 0058 09D9     		bls	.L240
 2588              	.LVL315:
 2589              	.L236:
 2590              		.loc 1 428 0
 2591 005a 0025     		movs	r5, #0
 2592              	.LVL316:
 2593              		.loc 1 449 0
 2594 005c 2846     		mov	r0, r5
 2595 005e 21B0     		add	sp, sp, #132
 2596              		.cfi_remember_state
 2597              		.cfi_def_cfa_offset 28
 2598              		@ sp needed
 2599 0060 BDE8F083 		pop	{r4, r5, r6, r7, r8, r9, pc}
 2600              	.LVL317:
 2601              	.L241:
 2602              		.cfi_restore_state
 2603              	.LBB608:
 2604              	.LBB609:
 2605              		.loc 1 119 0
 2606 0064 E368     		ldr	r3, [r4, #12]
 2607 0066 9847     		blx	r3
 2608              	.LVL318:
 2609              	.LBE609:
 2610              	.LBE608:
 2611              		.loc 1 431 0
 2612 0068 3928     		cmp	r0, #57
 2613 006a 08D8     		bhi	.L245
 2614              		.loc 1 431 0 is_stmt 0 discriminator 3
 2615 006c 0135     		adds	r5, r5, #1
 2616              	.LVL319:
 2617              	.L240:
 2618              	.LBB611:
 2619              	.LBB612:
 2620              		.loc 1 119 0 is_stmt 1 discriminator 1
 2621 006e 2946     		mov	r1, r5
 2622 0070 E368     		ldr	r3, [r4, #12]
ARM GAS  /tmp/ccUc3O3E.s 			page 47


 2623 0072 2046     		mov	r0, r4
 2624 0074 9847     		blx	r3
 2625              	.LVL320:
 2626              	.LBE612:
 2627              	.LBE611:
 2628              		.loc 1 431 0 discriminator 1
 2629 0076 2F28     		cmp	r0, #47
 2630              	.LBB613:
 2631              	.LBB610:
 2632              		.loc 1 119 0 discriminator 1
 2633 0078 2946     		mov	r1, r5
 2634 007a 2046     		mov	r0, r4
 2635              	.LBE610:
 2636              	.LBE613:
 2637              		.loc 1 431 0 discriminator 1
 2638 007c F2D8     		bhi	.L241
 2639              	.LVL321:
 2640              	.L245:
 2641              		.loc 1 433 0
 2642 007e 17BB     		cbnz	r7, .L242
 2643              		.loc 1 434 0
 2644 0080 002D     		cmp	r5, #0
 2645 0082 EAD0     		beq	.L236
 2646              	.LVL322:
 2647              	.L255:
 2648 0084 7F2D     		cmp	r5, #127
 2649 0086 A946     		mov	r9, r5
 2650 0088 28BF     		it	cs
 2651 008a 4FF07F09 		movcs	r9, #127
 2652              	.LVL323:
 2653 008e 6F46     		mov	r7, sp
 2654 0090 0DEB0908 		add	r8, sp, r9
 2655              	.LVL324:
 2656              	.L247:
 2657              	.LBB614:
 2658              	.LBB615:
 2659              	.LBB616:
 2660              		.loc 1 115 0
 2661 0094 A368     		ldr	r3, [r4, #8]
 2662 0096 2046     		mov	r0, r4
 2663 0098 9847     		blx	r3
 2664              	.LVL325:
 2665              	.LBE616:
 2666              	.LBE615:
 2667              		.loc 1 441 0
 2668 009a 07F8010B 		strb	r0, [r7], #1
 2669              	.LVL326:
 2670              		.loc 1 440 0
 2671 009e B845     		cmp	r8, r7
 2672 00a0 F8D1     		bne	.L247
 2673              		.loc 1 444 0
 2674 00a2 20AB     		add	r3, sp, #128
 2675 00a4 9944     		add	r9, r9, r3
 2676              	.LVL327:
 2677 00a6 0023     		movs	r3, #0
 2678              		.loc 1 445 0
 2679 00a8 1946     		mov	r1, r3
ARM GAS  /tmp/ccUc3O3E.s 			page 48


 2680 00aa 6846     		mov	r0, sp
 2681              		.loc 1 444 0
 2682 00ac 09F8803C 		strb	r3, [r9, #-128]
 2683              		.loc 1 445 0
 2684 00b0 FFF7FEFF 		bl	strtod
 2685              	.LVL328:
 2686 00b4 51EC100B 		vmov	r0, r1, d0
 2687 00b8 FFF7FEFF 		bl	__aeabi_d2f
 2688              	.LVL329:
 2689 00bc 3060     		str	r0, [r6]	@ float
 2690              	.LBE614:
 2691              		.loc 1 449 0
 2692 00be 2846     		mov	r0, r5
 2693 00c0 21B0     		add	sp, sp, #132
 2694              		.cfi_remember_state
 2695              		.cfi_def_cfa_offset 28
 2696              		@ sp needed
 2697 00c2 BDE8F083 		pop	{r4, r5, r6, r7, r8, r9, pc}
 2698              	.LVL330:
 2699              	.L242:
 2700              		.cfi_restore_state
 2701              		.loc 1 438 0 discriminator 1
 2702 00c6 012D     		cmp	r5, #1
 2703 00c8 DCD8     		bhi	.L255
 2704 00ca C6E7     		b	.L236
 2705              	.LVL331:
 2706              	.L256:
 2707              		.loc 1 422 0
 2708 00cc 0127     		movs	r7, #1
 2709              		.loc 1 421 0
 2710 00ce 3D46     		mov	r5, r7
 2711 00d0 A8E7     		b	.L233
 2712              		.cfi_endproc
 2713              	.LFE51:
 2714              		.size	tok_F, .-tok_F
 2715 00d2 00BF     		.section	.text.lbm_get_next_token,"ax",%progbits
 2716              		.align	1
 2717              		.p2align 4,,15
 2718              		.global	lbm_get_next_token
 2719              		.syntax unified
 2720              		.thumb
 2721              		.thumb_func
 2722              		.fpu fpv4-sp-d16
 2723              		.type	lbm_get_next_token, %function
 2724              	lbm_get_next_token:
 2725              	.LFB52:
 2726              		.loc 1 452 0
 2727              		.cfi_startproc
 2728              		@ args = 0, pretend = 0, frame = 24
 2729              		@ frame_needed = 0, uses_anonymous_args = 0
 2730              	.LVL332:
 2731 0000 70B5     		push	{r4, r5, r6, lr}
 2732              		.cfi_def_cfa_offset 16
 2733              		.cfi_offset 4, -16
 2734              		.cfi_offset 5, -12
 2735              		.cfi_offset 6, -8
 2736              		.cfi_offset 14, -4
ARM GAS  /tmp/ccUc3O3E.s 			page 49


 2737              	.LBB663:
 2738              	.LBB664:
 2739              		.loc 1 111 0
 2740 0002 4368     		ldr	r3, [r0, #4]
 2741              	.LBE664:
 2742              	.LBE663:
 2743              		.loc 1 452 0
 2744 0004 86B0     		sub	sp, sp, #24
 2745              		.cfi_def_cfa_offset 40
 2746              		.loc 1 452 0
 2747 0006 0446     		mov	r4, r0
 2748              	.LVL333:
 2749              	.LBB666:
 2750              	.LBB665:
 2751              		.loc 1 111 0
 2752 0008 9847     		blx	r3
 2753              	.LVL334:
 2754              	.LBE665:
 2755              	.LBE666:
 2756              		.loc 1 460 0
 2757 000a 0028     		cmp	r0, #0
 2758 000c 42D0     		beq	.L266
 2759              	.L258:
 2760              	.LVL335:
 2761              	.LBB667:
 2762              	.LBB668:
 2763              		.loc 1 119 0
 2764 000e E368     		ldr	r3, [r4, #12]
 2765 0010 0021     		movs	r1, #0
 2766 0012 2046     		mov	r0, r4
 2767 0014 9847     		blx	r3
 2768              	.LVL336:
 2769              	.LBE668:
 2770              	.LBE667:
 2771              		.loc 1 467 0
 2772 0016 3B28     		cmp	r0, #59
 2773 0018 19D0     		beq	.L267
 2774              		.loc 1 471 0
 2775 001a FFF7FEFF 		bl	__locale_ctype_ptr
 2776              	.LVL337:
 2777              	.LBB669:
 2778              	.LBB670:
 2779              		.loc 1 119 0
 2780 001e E368     		ldr	r3, [r4, #12]
 2781              	.LBE670:
 2782              	.LBE669:
 2783              		.loc 1 471 0
 2784 0020 0546     		mov	r5, r0
 2785              	.LVL338:
 2786              	.LBB672:
 2787              	.LBB671:
 2788              		.loc 1 119 0
 2789 0022 0021     		movs	r1, #0
 2790 0024 2046     		mov	r0, r4
 2791 0026 9847     		blx	r3
 2792              	.LVL339:
 2793              	.LBE671:
ARM GAS  /tmp/ccUc3O3E.s 			page 50


 2794              	.LBE672:
 2795              		.loc 1 471 0
 2796 0028 2844     		add	r0, r0, r5
 2797 002a 4378     		ldrb	r3, [r0, #1]	@ zero_extendqisi2
 2798 002c 1807     		lsls	r0, r3, #28
 2799 002e 15D5     		bpl	.L321
 2800              	.LVL340:
 2801              	.LBB673:
 2802              	.LBB674:
 2803              		.loc 1 123 0
 2804 0030 2369     		ldr	r3, [r4, #16]
 2805 0032 0121     		movs	r1, #1
 2806 0034 2046     		mov	r0, r4
 2807 0036 9847     		blx	r3
 2808              	.LVL341:
 2809 0038 E9E7     		b	.L258
 2810              	.LVL342:
 2811              	.L322:
 2812              	.LBE674:
 2813              	.LBE673:
 2814              	.LBB675:
 2815              	.LBB676:
 2816              		.loc 1 119 0
 2817 003a E368     		ldr	r3, [r4, #12]
 2818 003c 2046     		mov	r0, r4
 2819 003e 9847     		blx	r3
 2820              	.LVL343:
 2821              	.LBE676:
 2822              	.LBE675:
 2823              		.loc 1 468 0
 2824 0040 0A28     		cmp	r0, #10
 2825              	.LBB678:
 2826              	.LBB679:
 2827              		.loc 1 123 0
 2828 0042 4FF00101 		mov	r1, #1
 2829 0046 2046     		mov	r0, r4
 2830              	.LBE679:
 2831              	.LBE678:
 2832              		.loc 1 468 0
 2833 0048 E1D0     		beq	.L258
 2834              	.LVL344:
 2835              	.LBB681:
 2836              	.LBB680:
 2837              		.loc 1 123 0
 2838 004a 2369     		ldr	r3, [r4, #16]
 2839 004c 9847     		blx	r3
 2840              	.LVL345:
 2841              	.L267:
 2842              	.LBE680:
 2843              	.LBE681:
 2844              	.LBB682:
 2845              	.LBB683:
 2846              		.loc 1 111 0
 2847 004e 6368     		ldr	r3, [r4, #4]
 2848 0050 2046     		mov	r0, r4
 2849 0052 9847     		blx	r3
 2850              	.LVL346:
ARM GAS  /tmp/ccUc3O3E.s 			page 51


 2851              	.LBE683:
 2852              	.LBE682:
 2853              	.LBB684:
 2854              	.LBB677:
 2855              		.loc 1 119 0
 2856 0054 0021     		movs	r1, #0
 2857              	.LBE677:
 2858              	.LBE684:
 2859              		.loc 1 468 0
 2860 0056 0028     		cmp	r0, #0
 2861 0058 EFD1     		bne	.L322
 2862 005a D8E7     		b	.L258
 2863              	.LVL347:
 2864              	.L321:
 2865              	.LBB685:
 2866              	.LBB686:
 2867              		.loc 1 111 0
 2868 005c 6368     		ldr	r3, [r4, #4]
 2869 005e 2046     		mov	r0, r4
 2870 0060 9847     		blx	r3
 2871              	.LVL348:
 2872              	.LBE686:
 2873              	.LBE685:
 2874              		.loc 1 479 0
 2875 0062 B8B1     		cbz	r0, .L266
 2876              		.loc 1 483 0
 2877 0064 7023     		movs	r3, #112
 2878              		.loc 1 485 0
 2879 0066 2046     		mov	r0, r4
 2880              		.loc 1 483 0
 2881 0068 0493     		str	r3, [sp, #16]
 2882              		.loc 1 485 0
 2883 006a FFF7FEFF 		bl	tok_match_fixed_size_tokens
 2884              	.LVL349:
 2885              		.loc 1 486 0
 2886 006e 0546     		mov	r5, r0
 2887 0070 A0B1     		cbz	r0, .L269
 2888              		.loc 1 487 0
 2889 0072 451E     		subs	r5, r0, #1
 2890 0074 162D     		cmp	r5, #22
 2891 0076 4ED8     		bhi	.L305
 2892 0078 DFE805F0 		tbb	[pc, r5]
 2893              	.L272:
 2894 007c 78       		.byte	(.L271-.L272)/2
 2895 007d 4F       		.byte	(.L306-.L272)/2
 2896 007e 52       		.byte	(.L274-.L272)/2
 2897 007f 4D       		.byte	(.L305-.L272)/2
 2898 0080 4D       		.byte	(.L305-.L272)/2
 2899 0081 4D       		.byte	(.L305-.L272)/2
 2900 0082 4D       		.byte	(.L305-.L272)/2
 2901 0083 4D       		.byte	(.L305-.L272)/2
 2902 0084 4D       		.byte	(.L305-.L272)/2
 2903 0085 4D       		.byte	(.L305-.L272)/2
 2904 0086 4D       		.byte	(.L305-.L272)/2
 2905 0087 6C       		.byte	(.L275-.L272)/2
 2906 0088 6F       		.byte	(.L276-.L272)/2
 2907 0089 72       		.byte	(.L277-.L272)/2
ARM GAS  /tmp/ccUc3O3E.s 			page 52


 2908 008a 75       		.byte	(.L278-.L272)/2
 2909 008b 54       		.byte	(.L279-.L272)/2
 2910 008c 57       		.byte	(.L280-.L272)/2
 2911 008d 5A       		.byte	(.L281-.L272)/2
 2912 008e 5D       		.byte	(.L282-.L272)/2
 2913 008f 60       		.byte	(.L283-.L272)/2
 2914 0090 63       		.byte	(.L284-.L272)/2
 2915 0091 66       		.byte	(.L285-.L272)/2
 2916 0092 69       		.byte	(.L286-.L272)/2
 2917              	.LVL350:
 2918 0093 00       		.p2align 1
 2919              	.L266:
 2920              		.loc 1 461 0
 2921 0094 4FF4EA60 		mov	r0, #1872
 2922              	.LVL351:
 2923              	.L257:
 2924              		.loc 1 600 0
 2925 0098 06B0     		add	sp, sp, #24
 2926              		.cfi_remember_state
 2927              		.cfi_def_cfa_offset 16
 2928              		@ sp needed
 2929 009a 70BD     		pop	{r4, r5, r6, pc}
 2930              	.LVL352:
 2931              	.L269:
 2932              		.cfi_restore_state
 2933              		.loc 1 539 0
 2934 009c 2046     		mov	r0, r4
 2935              	.LVL353:
 2936 009e FFF7FEFF 		bl	tok_string
 2937              	.LVL354:
 2938              		.loc 1 540 0
 2939 00a2 0128     		cmp	r0, #1
 2940              		.loc 1 539 0
 2941 00a4 0646     		mov	r6, r0
 2942              	.LVL355:
 2943              		.loc 1 540 0
 2944 00a6 18DC     		bgt	.L323
 2945              		.loc 1 548 0
 2946 00a8 0028     		cmp	r0, #0
 2947 00aa 34DB     		blt	.L305
 2948              		.loc 1 553 0
 2949 00ac 03A9     		add	r1, sp, #12
 2950 00ae 2046     		mov	r0, r4
 2951              	.LVL356:
 2952 00b0 FFF7FEFF 		bl	tok_F
 2953              	.LVL357:
 2954 00b4 0028     		cmp	r0, #0
 2955 00b6 5CD1     		bne	.L324
 2956              		.loc 1 558 0
 2957 00b8 02A9     		add	r1, sp, #8
 2958 00ba 2046     		mov	r0, r4
 2959 00bc FFF7FEFF 		bl	tok_U
 2960              	.LVL358:
 2961 00c0 0028     		cmp	r0, #0
 2962 00c2 6CD1     		bne	.L325
 2963              		.loc 1 563 0
 2964 00c4 02A9     		add	r1, sp, #8
ARM GAS  /tmp/ccUc3O3E.s 			page 53


 2965 00c6 2046     		mov	r0, r4
 2966 00c8 FFF7FEFF 		bl	tok_u
 2967              	.LVL359:
 2968 00cc 0028     		cmp	r0, #0
 2969 00ce 7DD0     		beq	.L295
 2970              	.LVL360:
 2971              	.LBB687:
 2972              	.LBB688:
 2973              		.file 2 "lispBM/lispBM/include/heap.h"
 2974              		.loc 2 489 0
 2975 00d0 029B     		ldr	r3, [sp, #8]
 2976 00d2 1B01     		lsls	r3, r3, #4
 2977 00d4 43F00800 		orr	r0, r3, #8
 2978              	.LVL361:
 2979              	.LBE688:
 2980              	.LBE687:
 2981              		.loc 1 564 0
 2982 00d8 DEE7     		b	.L257
 2983              	.LVL362:
 2984              	.L323:
 2985              	.LBB689:
 2986              		.loc 1 542 0
 2987 00da 441E     		subs	r4, r0, #1
 2988              	.LVL363:
 2989 00dc 2146     		mov	r1, r4
 2990 00de 0422     		movs	r2, #4
 2991 00e0 04A8     		add	r0, sp, #16
 2992              	.LVL364:
 2993 00e2 FFF7FEFF 		bl	lbm_heap_allocate_array
 2994              	.LVL365:
 2995              		.loc 1 543 0
 2996 00e6 0498     		ldr	r0, [sp, #16]
 2997 00e8 FFF7FEFF 		bl	lbm_car
 2998              	.LVL366:
 2999              		.loc 1 544 0
 3000 00ec 8368     		ldr	r3, [r0, #8]
 3001              	.LVL367:
 3002              		.loc 1 545 0
 3003 00ee 2246     		mov	r2, r4
 3004 00f0 2946     		mov	r1, r5
 3005 00f2 1846     		mov	r0, r3
 3006              	.LVL368:
 3007 00f4 FFF7FEFF 		bl	memset
 3008              	.LVL369:
 3009              		.loc 1 546 0
 3010 00f8 B21E     		subs	r2, r6, #2
 3011 00fa 5749     		ldr	r1, .L328
 3012 00fc FFF7FEFF 		bl	memcpy
 3013              	.LVL370:
 3014              		.loc 1 547 0
 3015 0100 0498     		ldr	r0, [sp, #16]
 3016 0102 C9E7     		b	.L257
 3017              	.LVL371:
 3018              	.L301:
 3019              	.LBE689:
 3020              	.LBB690:
 3021              		.loc 1 584 0
ARM GAS  /tmp/ccUc3O3E.s 			page 54


 3022 0104 05A9     		add	r1, sp, #20
 3023 0106 5448     		ldr	r0, .L328
 3024 0108 FFF7FEFF 		bl	lbm_add_symbol
 3025              	.LVL372:
 3026 010c 0028     		cmp	r0, #0
 3027 010e 40F09E80 		bne	.L320
 3028              		.loc 1 587 0
 3029 0112 7023     		movs	r3, #112
 3030 0114 0493     		str	r3, [sp, #16]
 3031              	.LVL373:
 3032              	.L305:
 3033              	.LBE690:
 3034              		.loc 1 599 0
 3035 0116 0498     		ldr	r0, [sp, #16]
 3036 0118 BEE7     		b	.L257
 3037              	.LVL374:
 3038              	.L306:
 3039              		.loc 1 487 0
 3040 011a 4FF4E260 		mov	r0, #1808
 3041              	.LVL375:
 3042              		.loc 1 536 0
 3043 011e BBE7     		b	.L257
 3044              	.LVL376:
 3045              	.L274:
 3046              		.loc 1 502 0
 3047 0120 1020     		movs	r0, #16
 3048              	.LVL377:
 3049 0122 B9E7     		b	.L257
 3050              	.LVL378:
 3051              	.L279:
 3052              		.loc 1 499 0
 3053 0124 4FF49070 		mov	r0, #288
 3054              	.LVL379:
 3055 0128 B6E7     		b	.L257
 3056              	.LVL380:
 3057              	.L280:
 3058              		.loc 1 532 0
 3059 012a 4FF42C70 		mov	r0, #688
 3060              	.LVL381:
 3061 012e B3E7     		b	.L257
 3062              	.LVL382:
 3063              	.L281:
 3064              		.loc 1 514 0
 3065 0130 4FF43070 		mov	r0, #704
 3066              	.LVL383:
 3067 0134 B0E7     		b	.L257
 3068              	.LVL384:
 3069              	.L282:
 3070              		.loc 1 517 0
 3071 0136 4FF43470 		mov	r0, #720
 3072              	.LVL385:
 3073 013a ADE7     		b	.L257
 3074              	.LVL386:
 3075              	.L283:
 3076              		.loc 1 523 0
 3077 013c 4FF43870 		mov	r0, #736
 3078              	.LVL387:
ARM GAS  /tmp/ccUc3O3E.s 			page 55


 3079 0140 AAE7     		b	.L257
 3080              	.LVL388:
 3081              	.L284:
 3082              		.loc 1 520 0
 3083 0142 4FF43C70 		mov	r0, #752
 3084              	.LVL389:
 3085 0146 A7E7     		b	.L257
 3086              	.LVL390:
 3087              	.L285:
 3088              		.loc 1 526 0
 3089 0148 4FF44070 		mov	r0, #768
 3090              	.LVL391:
 3091 014c A4E7     		b	.L257
 3092              	.LVL392:
 3093              	.L286:
 3094              		.loc 1 529 0
 3095 014e 4FF44470 		mov	r0, #784
 3096              	.LVL393:
 3097 0152 A1E7     		b	.L257
 3098              	.LVL394:
 3099              	.L275:
 3100              		.loc 1 505 0
 3101 0154 4FF4E460 		mov	r0, #1824
 3102              	.LVL395:
 3103 0158 9EE7     		b	.L257
 3104              	.LVL396:
 3105              	.L276:
 3106              		.loc 1 511 0
 3107 015a 4FF4E660 		mov	r0, #1840
 3108              	.LVL397:
 3109 015e 9BE7     		b	.L257
 3110              	.LVL398:
 3111              	.L277:
 3112              		.loc 1 508 0
 3113 0160 4FF4E860 		mov	r0, #1856
 3114              	.LVL399:
 3115 0164 98E7     		b	.L257
 3116              	.LVL400:
 3117              	.L278:
 3118              		.loc 1 496 0
 3119 0166 4FF4EC60 		mov	r0, #1888
 3120              	.LVL401:
 3121 016a 95E7     		b	.L257
 3122              	.LVL402:
 3123              	.L271:
 3124              		.loc 1 487 0
 3125 016c 4FF4E060 		mov	r0, #1792
 3126              	.LVL403:
 3127 0170 92E7     		b	.L257
 3128              	.LVL404:
 3129              	.L324:
 3130              	.LBB693:
 3131              	.LBB694:
 3132              		.loc 2 507 0
 3133 0172 4FF40C71 		mov	r1, #560
 3134 0176 0398     		ldr	r0, [sp, #12]
 3135 0178 FFF7FEFF 		bl	lbm_cons
ARM GAS  /tmp/ccUc3O3E.s 			page 56


 3136              	.LVL405:
 3137              	.LBB695:
 3138              	.LBB696:
 3139              		.loc 2 461 0
 3140 017c C107     		lsls	r1, r0, #31
 3141 017e 4CBF     		ite	mi
 3142 0180 00F07C43 		andmi	r3, r0, #-67108864
 3143 0184 00F00C03 		andpl	r3, r0, #12
 3144              	.LBE696:
 3145              	.LBE695:
 3146              		.loc 2 508 0
 3147 0188 002B     		cmp	r3, #0
 3148 018a 85D0     		beq	.L257
 3149              	.LVL406:
 3150              	.LBB697:
 3151              	.LBB698:
 3152              		.loc 2 477 0
 3153 018c 20F07C40 		bic	r0, r0, #-67108864
 3154              	.LVL407:
 3155 0190 20F00700 		bic	r0, r0, #7
 3156 0194 40F08040 		orr	r0, r0, #1073741824
 3157 0198 40F00100 		orr	r0, r0, #1
 3158              	.LVL408:
 3159 019c 7CE7     		b	.L257
 3160              	.L325:
 3161              	.LVL409:
 3162              	.LBE698:
 3163              	.LBE697:
 3164              	.LBE694:
 3165              	.LBE693:
 3166              	.LBB699:
 3167              	.LBB700:
 3168              		.loc 2 499 0
 3169 019e 4FF40871 		mov	r1, #544
 3170 01a2 0298     		ldr	r0, [sp, #8]
 3171 01a4 FFF7FEFF 		bl	lbm_cons
 3172              	.LVL410:
 3173              	.LBB701:
 3174              	.LBB702:
 3175              		.loc 2 461 0
 3176 01a8 C207     		lsls	r2, r0, #31
 3177 01aa 4CBF     		ite	mi
 3178 01ac 00F07C43 		andmi	r3, r0, #-67108864
 3179 01b0 00F00C03 		andpl	r3, r0, #12
 3180              	.LBE702:
 3181              	.LBE701:
 3182              		.loc 2 500 0
 3183 01b4 002B     		cmp	r3, #0
 3184 01b6 3FF46FAF 		beq	.L257
 3185              	.LVL411:
 3186              	.LBB703:
 3187              	.LBB704:
 3188              		.loc 2 477 0
 3189 01ba 20F07C40 		bic	r0, r0, #-67108864
 3190              	.LVL412:
 3191 01be 20F00700 		bic	r0, r0, #7
 3192 01c2 40F00050 		orr	r0, r0, #536870912
ARM GAS  /tmp/ccUc3O3E.s 			page 57


 3193 01c6 40F00100 		orr	r0, r0, #1
 3194              	.LVL413:
 3195 01ca 65E7     		b	.L257
 3196              	.L295:
 3197              	.LBE704:
 3198              	.LBE703:
 3199              	.LBE700:
 3200              	.LBE699:
 3201              		.loc 1 567 0
 3202 01cc 01A9     		add	r1, sp, #4
 3203 01ce 2046     		mov	r0, r4
 3204 01d0 FFF7FEFF 		bl	tok_I
 3205              	.LVL414:
 3206 01d4 48B9     		cbnz	r0, .L326
 3207              		.loc 1 572 0
 3208 01d6 01A9     		add	r1, sp, #4
 3209 01d8 2046     		mov	r0, r4
 3210 01da FFF7FEFF 		bl	tok_i
 3211              	.LVL415:
 3212 01de D8B1     		cbz	r0, .L299
 3213              	.LVL416:
 3214              	.LBB705:
 3215              	.LBB706:
 3216              		.loc 2 485 0
 3217 01e0 019B     		ldr	r3, [sp, #4]
 3218 01e2 1B01     		lsls	r3, r3, #4
 3219 01e4 43F00C00 		orr	r0, r3, #12
 3220              	.LVL417:
 3221              	.LBE706:
 3222              	.LBE705:
 3223              		.loc 1 573 0
 3224 01e8 56E7     		b	.L257
 3225              	.L326:
 3226              	.LVL418:
 3227              	.LBB707:
 3228              	.LBB708:
 3229              		.loc 2 493 0
 3230 01ea 4FF40471 		mov	r1, #528
 3231 01ee 0198     		ldr	r0, [sp, #4]
 3232 01f0 FFF7FEFF 		bl	lbm_cons
 3233              	.LVL419:
 3234              	.LBB709:
 3235              	.LBB710:
 3236              		.loc 2 461 0
 3237 01f4 C307     		lsls	r3, r0, #31
 3238 01f6 4CBF     		ite	mi
 3239 01f8 00F07C43 		andmi	r3, r0, #-67108864
 3240 01fc 00F00C03 		andpl	r3, r0, #12
 3241              	.LBE710:
 3242              	.LBE709:
 3243              		.loc 2 494 0
 3244 0200 002B     		cmp	r3, #0
 3245 0202 3FF449AF 		beq	.L257
 3246              	.LVL420:
 3247              	.LBB711:
 3248              	.LBB712:
 3249              		.loc 2 477 0
ARM GAS  /tmp/ccUc3O3E.s 			page 58


 3250 0206 20F07C40 		bic	r0, r0, #-67108864
 3251              	.LVL421:
 3252 020a 20F00700 		bic	r0, r0, #7
 3253 020e 40F04050 		orr	r0, r0, #805306368
 3254 0212 40F00100 		orr	r0, r0, #1
 3255              	.LVL422:
 3256 0216 3FE7     		b	.L257
 3257              	.L299:
 3258              	.LBE712:
 3259              	.LBE711:
 3260              	.LBE708:
 3261              	.LBE707:
 3262              		.loc 1 576 0
 3263 0218 2046     		mov	r0, r4
 3264 021a FFF7FEFF 		bl	tok_symbol
 3265              	.LVL423:
 3266              		.loc 1 577 0
 3267 021e 0028     		cmp	r0, #0
 3268 0220 0EDC     		bgt	.L327
 3269              		.loc 1 590 0
 3270 0222 7FF478AF 		bne	.L305
 3271              		.loc 1 595 0
 3272 0226 2046     		mov	r0, r4
 3273              	.LVL424:
 3274 0228 05A9     		add	r1, sp, #20
 3275 022a FFF7FEFF 		bl	tok_char
 3276              	.LVL425:
 3277 022e 0028     		cmp	r0, #0
 3278 0230 3FF471AF 		beq	.L305
 3279              	.LVL426:
 3280              	.LBB713:
 3281              	.LBB714:
 3282              		.loc 2 513 0
 3283 0234 9DF81400 		ldrb	r0, [sp, #20]	@ zero_extendqisi2
 3284 0238 0001     		lsls	r0, r0, #4
 3285 023a 40F00400 		orr	r0, r0, #4
 3286              	.LVL427:
 3287              	.LBE714:
 3288              	.LBE713:
 3289              		.loc 1 596 0
 3290 023e 2BE7     		b	.L257
 3291              	.LVL428:
 3292              	.L327:
 3293              	.LBB715:
 3294              		.loc 1 581 0
 3295 0240 05A9     		add	r1, sp, #20
 3296 0242 0548     		ldr	r0, .L328
 3297              	.LVL429:
 3298 0244 FFF7FEFF 		bl	lbm_get_symbol_by_name
 3299              	.LVL430:
 3300 0248 0028     		cmp	r0, #0
 3301 024a 3FF45BAF 		beq	.L301
 3302              	.L320:
 3303              	.LBB691:
 3304              	.LBB692:
 3305              		.loc 2 481 0
 3306 024e 059B     		ldr	r3, [sp, #20]
ARM GAS  /tmp/ccUc3O3E.s 			page 59


 3307 0250 1B01     		lsls	r3, r3, #4
 3308              	.LBE692:
 3309              	.LBE691:
 3310              		.loc 1 585 0
 3311 0252 0493     		str	r3, [sp, #16]
 3312 0254 5FE7     		b	.L305
 3313              	.L329:
 3314 0256 00BF     		.align	2
 3315              	.L328:
 3316 0258 00000000 		.word	.LANCHOR1
 3317              	.LBE715:
 3318              		.cfi_endproc
 3319              	.LFE52:
 3320              		.size	lbm_get_next_token, .-lbm_get_next_token
 3321              		.section	.text.lbm_create_char_stream_from_string,"ax",%progbits
 3322              		.align	1
 3323              		.p2align 4,,15
 3324              		.global	lbm_create_char_stream_from_string
 3325              		.syntax unified
 3326              		.thumb
 3327              		.thumb_func
 3328              		.fpu fpv4-sp-d16
 3329              		.type	lbm_create_char_stream_from_string, %function
 3330              	lbm_create_char_stream_from_string:
 3331              	.LFB57:
 3332              		.loc 1 632 0
 3333              		.cfi_startproc
 3334              		@ args = 0, pretend = 0, frame = 0
 3335              		@ frame_needed = 0, uses_anonymous_args = 0
 3336              		@ link register save eliminated.
 3337              	.LVL431:
 3338 0000 30B4     		push	{r4, r5}
 3339              		.cfi_def_cfa_offset 8
 3340              		.cfi_offset 4, -8
 3341              		.cfi_offset 5, -4
 3342              		.loc 1 633 0
 3343 0002 0260     		str	r2, [r0]
 3344              		.loc 1 634 0
 3345 0004 0023     		movs	r3, #0
 3346              		.loc 1 637 0
 3347 0006 064D     		ldr	r5, .L332
 3348              		.loc 1 638 0
 3349 0008 064C     		ldr	r4, .L332+4
 3350              		.loc 1 639 0
 3351 000a 074A     		ldr	r2, .L332+8
 3352              	.LVL432:
 3353              		.loc 1 634 0
 3354 000c 4360     		str	r3, [r0, #4]
 3355              		.loc 1 640 0
 3356 000e 074B     		ldr	r3, .L332+12
 3357 0010 8B60     		str	r3, [r1, #8]
 3358              		.loc 1 637 0
 3359 0012 C1E90005 		strd	r0, r5, [r1]
 3360              		.loc 1 639 0
 3361 0016 C1E90342 		strd	r4, r2, [r1, #12]
 3362              		.loc 1 641 0
 3363 001a 30BC     		pop	{r4, r5}
ARM GAS  /tmp/ccUc3O3E.s 			page 60


 3364              		.cfi_restore 5
 3365              		.cfi_restore 4
 3366              		.cfi_def_cfa_offset 0
 3367 001c 7047     		bx	lr
 3368              	.L333:
 3369 001e 00BF     		.align	2
 3370              	.L332:
 3371 0020 00000000 		.word	more_string
 3372 0024 00000000 		.word	peek_string
 3373 0028 00000000 		.word	drop_string
 3374 002c 00000000 		.word	get_string
 3375              		.cfi_endproc
 3376              	.LFE57:
 3377              		.size	lbm_create_char_stream_from_string, .-lbm_create_char_stream_from_string
 3378              		.global	match_table
 3379              		.section	.bss.sym_str,"aw",%nobits
 3380              		.align	2
 3381              		.set	.LANCHOR1,. + 0
 3382              		.type	sym_str, %object
 3383              		.size	sym_str, 256
 3384              	sym_str:
 3385 0000 00000000 		.space	256
 3385      00000000 
 3385      00000000 
 3385      00000000 
 3385      00000000 
 3386              		.section	.rodata.match_table,"a",%progbits
 3387              		.align	2
 3388              		.set	.LANCHOR0,. + 0
 3389              		.type	match_table, %object
 3390              		.size	match_table, 180
 3391              	match_table:
 3392 0000 00000000 		.word	.LC0
 3393 0004 01000000 		.word	1
 3394 0008 01000000 		.word	1
 3395 000c 00000000 		.word	.LC3
 3396 0010 02000000 		.word	2
 3397 0014 01000000 		.word	1
 3398 0018 04000000 		.word	.LC4
 3399 001c 0F000000 		.word	15
 3400 0020 01000000 		.word	1
 3401 0024 08000000 		.word	.LC5
 3402 0028 10000000 		.word	16
 3403 002c 01000000 		.word	1
 3404 0030 0C000000 		.word	.LC6
 3405 0034 03000000 		.word	3
 3406 0038 01000000 		.word	1
 3407 003c 10000000 		.word	.LC7
 3408 0040 0C000000 		.word	12
 3409 0044 01000000 		.word	1
 3410 0048 14000000 		.word	.LC8
 3411 004c 0E000000 		.word	14
 3412 0050 02000000 		.word	2
 3413 0054 18000000 		.word	.LC9
 3414 0058 0D000000 		.word	13
 3415 005c 01000000 		.word	1
 3416 0060 1C000000 		.word	.LC10
ARM GAS  /tmp/ccUc3O3E.s 			page 61


 3417 0064 12000000 		.word	18
 3418 0068 04000000 		.word	4
 3419 006c 24000000 		.word	.LC11
 3420 0070 13000000 		.word	19
 3421 0074 04000000 		.word	4
 3422 0078 2C000000 		.word	.LC12
 3423 007c 14000000 		.word	20
 3424 0080 04000000 		.word	4
 3425 0084 34000000 		.word	.LC13
 3426 0088 15000000 		.word	21
 3427 008c 04000000 		.word	4
 3428 0090 3C000000 		.word	.LC14
 3429 0094 16000000 		.word	22
 3430 0098 06000000 		.word	6
 3431 009c 44000000 		.word	.LC15
 3432 00a0 17000000 		.word	23
 3433 00a4 05000000 		.word	5
 3434 00a8 4C000000 		.word	.LC16
 3435 00ac 11000000 		.word	17
 3436 00b0 01000000 		.word	1
 3437              		.section	.rodata.str1.4,"aMS",%progbits,1
 3438              		.align	2
 3439              	.LC3:
 3440 0000 2900     		.ascii	")\000"
 3441 0002 0000     		.space	2
 3442              	.LC4:
 3443 0004 2E00     		.ascii	".\000"
 3444 0006 0000     		.space	2
 3445              	.LC5:
 3446 0008 5F00     		.ascii	"_\000"
 3447 000a 0000     		.space	2
 3448              	.LC6:
 3449 000c 2700     		.ascii	"'\000"
 3450 000e 0000     		.space	2
 3451              	.LC7:
 3452 0010 6000     		.ascii	"`\000"
 3453 0012 0000     		.space	2
 3454              	.LC8:
 3455 0014 2C4000   		.ascii	",@\000"
 3456 0017 00       		.space	1
 3457              	.LC9:
 3458 0018 2C00     		.ascii	",\000"
 3459 001a 0000     		.space	2
 3460              	.LC10:
 3461 001c 3F693238 		.ascii	"?i28\000"
 3461      00
 3462 0021 000000   		.space	3
 3463              	.LC11:
 3464 0024 3F753238 		.ascii	"?u28\000"
 3464      00
 3465 0029 000000   		.space	3
 3466              	.LC12:
 3467 002c 3F753332 		.ascii	"?u32\000"
 3467      00
 3468 0031 000000   		.space	3
 3469              	.LC13:
 3470 0034 3F693332 		.ascii	"?i32\000"
ARM GAS  /tmp/ccUc3O3E.s 			page 62


 3470      00
 3471 0039 000000   		.space	3
 3472              	.LC14:
 3473 003c 3F666C6F 		.ascii	"?float\000"
 3473      617400
 3474 0043 00       		.space	1
 3475              	.LC15:
 3476 0044 3F636F6E 		.ascii	"?cons\000"
 3476      7300
 3477 004a 0000     		.space	2
 3478              	.LC16:
 3479 004c 3F00     		.ascii	"?\000"
 3480              		.section	.rodata.symchar.str1.4,"aMS",%progbits,1
 3481              		.align	2
 3482              	.LC2:
 3483 0000 61626364 		.ascii	"abcdefghijklmnopqrstuvwxyzABCDEFGHIJKLMNOPQRSTUVWXY"
 3483      65666768 
 3483      696A6B6C 
 3483      6D6E6F70 
 3483      71727374 
 3484 0033 5A303132 		.ascii	"Z0123456789+-*/=<>\000"
 3484      33343536 
 3484      3738392B 
 3484      2D2A2F3D 
 3484      3C3E00
 3485              		.section	.rodata.symchar0.str1.4,"aMS",%progbits,1
 3486              		.align	2
 3487              	.LC1:
 3488 0000 61626364 		.ascii	"abcdefghijklmnopqrstuvwxyzABCDEFGHIJKLMNOPQRSTUVWXY"
 3488      65666768 
 3488      696A6B6C 
 3488      6D6E6F70 
 3488      71727374 
 3489 0033 5A2B2D2A 		.ascii	"Z+-*/=<>\000"
 3489      2F3D3C3E 
 3489      00
 3490              		.section	.rodata.tok_match_fixed_size_tokens.str1.4,"aMS",%progbits,1
 3491              		.align	2
 3492              	.LC0:
 3493 0000 2800     		.ascii	"(\000"
 3494              		.text
 3495              	.Letext0:
 3496              		.file 3 "/usr/arm-none-eabi/include/machine/_default_types.h"
 3497              		.file 4 "/usr/arm-none-eabi/include/sys/lock.h"
 3498              		.file 5 "/usr/arm-none-eabi/include/sys/_types.h"
 3499              		.file 6 "/usr/lib/gcc/arm-none-eabi/7.3.1/include/stddef.h"
 3500              		.file 7 "/usr/arm-none-eabi/include/sys/reent.h"
 3501              		.file 8 "/usr/arm-none-eabi/include/sys/_stdint.h"
 3502              		.file 9 "/usr/arm-none-eabi/include/ctype.h"
 3503              		.file 10 "lispBM/lispBM/include/lbm_types.h"
 3504              		.file 11 "/usr/arm-none-eabi/include/stdlib.h"
 3505              		.file 12 "lispBM/lispBM/include/tokpar.h"
 3506              		.file 13 "<built-in>"
 3507              		.file 14 "lispBM/lispBM/include/symrepr.h"
 3508              		.section	.debug_info,"",%progbits
 3509              	.Ldebug_info0:
 3510 0000 5D2E0000 		.4byte	0x2e5d
ARM GAS  /tmp/ccUc3O3E.s 			page 63


 3511 0004 0400     		.2byte	0x4
 3512 0006 00000000 		.4byte	.Ldebug_abbrev0
 3513 000a 04       		.byte	0x4
 3514 000b 01       		.uleb128 0x1
 3515 000c F7010000 		.4byte	.LASF203
 3516 0010 0C       		.byte	0xc
 3517 0011 0D010000 		.4byte	.LASF204
 3518 0015 C8050000 		.4byte	.LASF205
 3519 0019 A8030000 		.4byte	.Ldebug_ranges0+0x3a8
 3520 001d 00000000 		.4byte	0
 3521 0021 00000000 		.4byte	.Ldebug_line0
 3522 0025 02       		.uleb128 0x2
 3523 0026 01       		.byte	0x1
 3524 0027 06       		.byte	0x6
 3525 0028 4B080000 		.4byte	.LASF0
 3526 002c 02       		.uleb128 0x2
 3527 002d 01       		.byte	0x1
 3528 002e 08       		.byte	0x8
 3529 002f 81070000 		.4byte	.LASF1
 3530 0033 02       		.uleb128 0x2
 3531 0034 02       		.byte	0x2
 3532 0035 05       		.byte	0x5
 3533 0036 27060000 		.4byte	.LASF2
 3534 003a 02       		.uleb128 0x2
 3535 003b 02       		.byte	0x2
 3536 003c 07       		.byte	0x7
 3537 003d 6A080000 		.4byte	.LASF3
 3538 0041 03       		.uleb128 0x3
 3539 0042 92000000 		.4byte	.LASF5
 3540 0046 03       		.byte	0x3
 3541 0047 4D       		.byte	0x4d
 3542 0048 4C000000 		.4byte	0x4c
 3543 004c 02       		.uleb128 0x2
 3544 004d 04       		.byte	0x4
 3545 004e 05       		.byte	0x5
 3546 004f 44060000 		.4byte	.LASF4
 3547 0053 03       		.uleb128 0x3
 3548 0054 8F070000 		.4byte	.LASF6
 3549 0058 03       		.byte	0x3
 3550 0059 4F       		.byte	0x4f
 3551 005a 5E000000 		.4byte	0x5e
 3552 005e 02       		.uleb128 0x2
 3553 005f 04       		.byte	0x4
 3554 0060 07       		.byte	0x7
 3555 0061 1E070000 		.4byte	.LASF7
 3556 0065 02       		.uleb128 0x2
 3557 0066 08       		.byte	0x8
 3558 0067 05       		.byte	0x5
 3559 0068 1B050000 		.4byte	.LASF8
 3560 006c 02       		.uleb128 0x2
 3561 006d 08       		.byte	0x8
 3562 006e 07       		.byte	0x7
 3563 006f 55030000 		.4byte	.LASF9
 3564 0073 04       		.uleb128 0x4
 3565 0074 04       		.byte	0x4
 3566 0075 05       		.byte	0x5
 3567 0076 696E7400 		.ascii	"int\000"
ARM GAS  /tmp/ccUc3O3E.s 			page 64


 3568 007a 02       		.uleb128 0x2
 3569 007b 04       		.byte	0x4
 3570 007c 07       		.byte	0x7
 3571 007d 6B000000 		.4byte	.LASF10
 3572 0081 05       		.uleb128 0x5
 3573 0082 04       		.byte	0x4
 3574 0083 03       		.uleb128 0x3
 3575 0084 F4050000 		.4byte	.LASF11
 3576 0088 04       		.byte	0x4
 3577 0089 22       		.byte	0x22
 3578 008a 8E000000 		.4byte	0x8e
 3579 008e 06       		.uleb128 0x6
 3580 008f 04       		.byte	0x4
 3581 0090 94000000 		.4byte	0x94
 3582 0094 07       		.uleb128 0x7
 3583 0095 5B070000 		.4byte	.LASF118
 3584 0099 03       		.uleb128 0x3
 3585 009a 93080000 		.4byte	.LASF12
 3586 009e 05       		.byte	0x5
 3587 009f 2C       		.byte	0x2c
 3588 00a0 4C000000 		.4byte	0x4c
 3589 00a4 03       		.uleb128 0x3
 3590 00a5 28010000 		.4byte	.LASF13
 3591 00a9 05       		.byte	0x5
 3592 00aa 72       		.byte	0x72
 3593 00ab 4C000000 		.4byte	0x4c
 3594 00af 08       		.uleb128 0x8
 3595 00b0 37070000 		.4byte	.LASF14
 3596 00b4 06       		.byte	0x6
 3597 00b5 6501     		.2byte	0x165
 3598 00b7 7A000000 		.4byte	0x7a
 3599 00bb 09       		.uleb128 0x9
 3600 00bc 04       		.byte	0x4
 3601 00bd 05       		.byte	0x5
 3602 00be A6       		.byte	0xa6
 3603 00bf DA000000 		.4byte	0xda
 3604 00c3 0A       		.uleb128 0xa
 3605 00c4 D3040000 		.4byte	.LASF15
 3606 00c8 05       		.byte	0x5
 3607 00c9 A8       		.byte	0xa8
 3608 00ca AF000000 		.4byte	0xaf
 3609 00ce 0A       		.uleb128 0xa
 3610 00cf 7B060000 		.4byte	.LASF16
 3611 00d3 05       		.byte	0x5
 3612 00d4 A9       		.byte	0xa9
 3613 00d5 DA000000 		.4byte	0xda
 3614 00d9 00       		.byte	0
 3615 00da 0B       		.uleb128 0xb
 3616 00db 2C000000 		.4byte	0x2c
 3617 00df EA000000 		.4byte	0xea
 3618 00e3 0C       		.uleb128 0xc
 3619 00e4 7A000000 		.4byte	0x7a
 3620 00e8 03       		.byte	0x3
 3621 00e9 00       		.byte	0
 3622 00ea 0D       		.uleb128 0xd
 3623 00eb 08       		.byte	0x8
 3624 00ec 05       		.byte	0x5
ARM GAS  /tmp/ccUc3O3E.s 			page 65


 3625 00ed A3       		.byte	0xa3
 3626 00ee 0B010000 		.4byte	0x10b
 3627 00f2 0E       		.uleb128 0xe
 3628 00f3 92010000 		.4byte	.LASF17
 3629 00f7 05       		.byte	0x5
 3630 00f8 A5       		.byte	0xa5
 3631 00f9 73000000 		.4byte	0x73
 3632 00fd 00       		.byte	0
 3633 00fe 0E       		.uleb128 0xe
 3634 00ff 47040000 		.4byte	.LASF18
 3635 0103 05       		.byte	0x5
 3636 0104 AA       		.byte	0xaa
 3637 0105 BB000000 		.4byte	0xbb
 3638 0109 04       		.byte	0x4
 3639 010a 00       		.byte	0
 3640 010b 03       		.uleb128 0x3
 3641 010c 90050000 		.4byte	.LASF19
 3642 0110 05       		.byte	0x5
 3643 0111 AB       		.byte	0xab
 3644 0112 EA000000 		.4byte	0xea
 3645 0116 03       		.uleb128 0x3
 3646 0117 CA040000 		.4byte	.LASF20
 3647 011b 05       		.byte	0x5
 3648 011c AF       		.byte	0xaf
 3649 011d 83000000 		.4byte	0x83
 3650 0121 03       		.uleb128 0x3
 3651 0122 45050000 		.4byte	.LASF21
 3652 0126 07       		.byte	0x7
 3653 0127 16       		.byte	0x16
 3654 0128 5E000000 		.4byte	0x5e
 3655 012c 0F       		.uleb128 0xf
 3656 012d 3D010000 		.4byte	.LASF26
 3657 0131 18       		.byte	0x18
 3658 0132 07       		.byte	0x7
 3659 0133 2F       		.byte	0x2f
 3660 0134 7F010000 		.4byte	0x17f
 3661 0138 0E       		.uleb128 0xe
 3662 0139 30040000 		.4byte	.LASF22
 3663 013d 07       		.byte	0x7
 3664 013e 31       		.byte	0x31
 3665 013f 7F010000 		.4byte	0x17f
 3666 0143 00       		.byte	0
 3667 0144 10       		.uleb128 0x10
 3668 0145 5F6B00   		.ascii	"_k\000"
 3669 0148 07       		.byte	0x7
 3670 0149 32       		.byte	0x32
 3671 014a 73000000 		.4byte	0x73
 3672 014e 04       		.byte	0x4
 3673 014f 0E       		.uleb128 0xe
 3674 0150 E1060000 		.4byte	.LASF23
 3675 0154 07       		.byte	0x7
 3676 0155 32       		.byte	0x32
 3677 0156 73000000 		.4byte	0x73
 3678 015a 08       		.byte	0x8
 3679 015b 0E       		.uleb128 0xe
 3680 015c 5B060000 		.4byte	.LASF24
 3681 0160 07       		.byte	0x7
ARM GAS  /tmp/ccUc3O3E.s 			page 66


 3682 0161 32       		.byte	0x32
 3683 0162 73000000 		.4byte	0x73
 3684 0166 0C       		.byte	0xc
 3685 0167 0E       		.uleb128 0xe
 3686 0168 8D030000 		.4byte	.LASF25
 3687 016c 07       		.byte	0x7
 3688 016d 32       		.byte	0x32
 3689 016e 73000000 		.4byte	0x73
 3690 0172 10       		.byte	0x10
 3691 0173 10       		.uleb128 0x10
 3692 0174 5F7800   		.ascii	"_x\000"
 3693 0177 07       		.byte	0x7
 3694 0178 33       		.byte	0x33
 3695 0179 85010000 		.4byte	0x185
 3696 017d 14       		.byte	0x14
 3697 017e 00       		.byte	0
 3698 017f 06       		.uleb128 0x6
 3699 0180 04       		.byte	0x4
 3700 0181 2C010000 		.4byte	0x12c
 3701 0185 0B       		.uleb128 0xb
 3702 0186 21010000 		.4byte	0x121
 3703 018a 95010000 		.4byte	0x195
 3704 018e 0C       		.uleb128 0xc
 3705 018f 7A000000 		.4byte	0x7a
 3706 0193 00       		.byte	0
 3707 0194 00       		.byte	0
 3708 0195 0F       		.uleb128 0xf
 3709 0196 13070000 		.4byte	.LASF27
 3710 019a 24       		.byte	0x24
 3711 019b 07       		.byte	0x7
 3712 019c 37       		.byte	0x37
 3713 019d 0E020000 		.4byte	0x20e
 3714 01a1 0E       		.uleb128 0xe
 3715 01a2 EB030000 		.4byte	.LASF28
 3716 01a6 07       		.byte	0x7
 3717 01a7 39       		.byte	0x39
 3718 01a8 73000000 		.4byte	0x73
 3719 01ac 00       		.byte	0
 3720 01ad 0E       		.uleb128 0xe
 3721 01ae CB010000 		.4byte	.LASF29
 3722 01b2 07       		.byte	0x7
 3723 01b3 3A       		.byte	0x3a
 3724 01b4 73000000 		.4byte	0x73
 3725 01b8 04       		.byte	0x4
 3726 01b9 0E       		.uleb128 0xe
 3727 01ba 82010000 		.4byte	.LASF30
 3728 01be 07       		.byte	0x7
 3729 01bf 3B       		.byte	0x3b
 3730 01c0 73000000 		.4byte	0x73
 3731 01c4 08       		.byte	0x8
 3732 01c5 0E       		.uleb128 0xe
 3733 01c6 8B040000 		.4byte	.LASF31
 3734 01ca 07       		.byte	0x7
 3735 01cb 3C       		.byte	0x3c
 3736 01cc 73000000 		.4byte	0x73
 3737 01d0 0C       		.byte	0xc
 3738 01d1 0E       		.uleb128 0xe
ARM GAS  /tmp/ccUc3O3E.s 			page 67


 3739 01d2 CE050000 		.4byte	.LASF32
 3740 01d6 07       		.byte	0x7
 3741 01d7 3D       		.byte	0x3d
 3742 01d8 73000000 		.4byte	0x73
 3743 01dc 10       		.byte	0x10
 3744 01dd 0E       		.uleb128 0xe
 3745 01de 9D060000 		.4byte	.LASF33
 3746 01e2 07       		.byte	0x7
 3747 01e3 3E       		.byte	0x3e
 3748 01e4 73000000 		.4byte	0x73
 3749 01e8 14       		.byte	0x14
 3750 01e9 0E       		.uleb128 0xe
 3751 01ea 61010000 		.4byte	.LASF34
 3752 01ee 07       		.byte	0x7
 3753 01ef 3F       		.byte	0x3f
 3754 01f0 73000000 		.4byte	0x73
 3755 01f4 18       		.byte	0x18
 3756 01f5 0E       		.uleb128 0xe
 3757 01f6 FE030000 		.4byte	.LASF35
 3758 01fa 07       		.byte	0x7
 3759 01fb 40       		.byte	0x40
 3760 01fc 73000000 		.4byte	0x73
 3761 0200 1C       		.byte	0x1c
 3762 0201 0E       		.uleb128 0xe
 3763 0202 A0050000 		.4byte	.LASF36
 3764 0206 07       		.byte	0x7
 3765 0207 41       		.byte	0x41
 3766 0208 73000000 		.4byte	0x73
 3767 020c 20       		.byte	0x20
 3768 020d 00       		.byte	0
 3769 020e 11       		.uleb128 0x11
 3770 020f 1F000000 		.4byte	.LASF37
 3771 0213 0801     		.2byte	0x108
 3772 0215 07       		.byte	0x7
 3773 0216 4A       		.byte	0x4a
 3774 0217 4E020000 		.4byte	0x24e
 3775 021b 0E       		.uleb128 0xe
 3776 021c 43080000 		.4byte	.LASF38
 3777 0220 07       		.byte	0x7
 3778 0221 4B       		.byte	0x4b
 3779 0222 4E020000 		.4byte	0x24e
 3780 0226 00       		.byte	0
 3781 0227 0E       		.uleb128 0xe
 3782 0228 4F070000 		.4byte	.LASF39
 3783 022c 07       		.byte	0x7
 3784 022d 4C       		.byte	0x4c
 3785 022e 4E020000 		.4byte	0x24e
 3786 0232 80       		.byte	0x80
 3787 0233 12       		.uleb128 0x12
 3788 0234 84080000 		.4byte	.LASF40
 3789 0238 07       		.byte	0x7
 3790 0239 4E       		.byte	0x4e
 3791 023a 21010000 		.4byte	0x121
 3792 023e 0001     		.2byte	0x100
 3793 0240 12       		.uleb128 0x12
 3794 0241 EA080000 		.4byte	.LASF41
 3795 0245 07       		.byte	0x7
ARM GAS  /tmp/ccUc3O3E.s 			page 68


 3796 0246 51       		.byte	0x51
 3797 0247 21010000 		.4byte	0x121
 3798 024b 0401     		.2byte	0x104
 3799 024d 00       		.byte	0
 3800 024e 0B       		.uleb128 0xb
 3801 024f 81000000 		.4byte	0x81
 3802 0253 5E020000 		.4byte	0x25e
 3803 0257 0C       		.uleb128 0xc
 3804 0258 7A000000 		.4byte	0x7a
 3805 025c 1F       		.byte	0x1f
 3806 025d 00       		.byte	0
 3807 025e 11       		.uleb128 0x11
 3808 025f 1F060000 		.4byte	.LASF42
 3809 0263 9001     		.2byte	0x190
 3810 0265 07       		.byte	0x7
 3811 0266 5D       		.byte	0x5d
 3812 0267 9C020000 		.4byte	0x29c
 3813 026b 0E       		.uleb128 0xe
 3814 026c 30040000 		.4byte	.LASF22
 3815 0270 07       		.byte	0x7
 3816 0271 5E       		.byte	0x5e
 3817 0272 9C020000 		.4byte	0x29c
 3818 0276 00       		.byte	0
 3819 0277 0E       		.uleb128 0xe
 3820 0278 0D040000 		.4byte	.LASF43
 3821 027c 07       		.byte	0x7
 3822 027d 5F       		.byte	0x5f
 3823 027e 73000000 		.4byte	0x73
 3824 0282 04       		.byte	0x4
 3825 0283 0E       		.uleb128 0xe
 3826 0284 30010000 		.4byte	.LASF44
 3827 0288 07       		.byte	0x7
 3828 0289 61       		.byte	0x61
 3829 028a A2020000 		.4byte	0x2a2
 3830 028e 08       		.byte	0x8
 3831 028f 0E       		.uleb128 0xe
 3832 0290 1F000000 		.4byte	.LASF37
 3833 0294 07       		.byte	0x7
 3834 0295 62       		.byte	0x62
 3835 0296 0E020000 		.4byte	0x20e
 3836 029a 88       		.byte	0x88
 3837 029b 00       		.byte	0
 3838 029c 06       		.uleb128 0x6
 3839 029d 04       		.byte	0x4
 3840 029e 5E020000 		.4byte	0x25e
 3841 02a2 0B       		.uleb128 0xb
 3842 02a3 B2020000 		.4byte	0x2b2
 3843 02a7 B2020000 		.4byte	0x2b2
 3844 02ab 0C       		.uleb128 0xc
 3845 02ac 7A000000 		.4byte	0x7a
 3846 02b0 1F       		.byte	0x1f
 3847 02b1 00       		.byte	0
 3848 02b2 06       		.uleb128 0x6
 3849 02b3 04       		.byte	0x4
 3850 02b4 B8020000 		.4byte	0x2b8
 3851 02b8 13       		.uleb128 0x13
 3852 02b9 0F       		.uleb128 0xf
ARM GAS  /tmp/ccUc3O3E.s 			page 69


 3853 02ba CB070000 		.4byte	.LASF45
 3854 02be 08       		.byte	0x8
 3855 02bf 07       		.byte	0x7
 3856 02c0 75       		.byte	0x75
 3857 02c1 DE020000 		.4byte	0x2de
 3858 02c5 0E       		.uleb128 0xe
 3859 02c6 2F050000 		.4byte	.LASF46
 3860 02ca 07       		.byte	0x7
 3861 02cb 76       		.byte	0x76
 3862 02cc DE020000 		.4byte	0x2de
 3863 02d0 00       		.byte	0
 3864 02d1 0E       		.uleb128 0xe
 3865 02d2 8D080000 		.4byte	.LASF47
 3866 02d6 07       		.byte	0x7
 3867 02d7 77       		.byte	0x77
 3868 02d8 73000000 		.4byte	0x73
 3869 02dc 04       		.byte	0x4
 3870 02dd 00       		.byte	0
 3871 02de 06       		.uleb128 0x6
 3872 02df 04       		.byte	0x4
 3873 02e0 2C000000 		.4byte	0x2c
 3874 02e4 0F       		.uleb128 0xf
 3875 02e5 85030000 		.4byte	.LASF48
 3876 02e9 68       		.byte	0x68
 3877 02ea 07       		.byte	0x7
 3878 02eb B5       		.byte	0xb5
 3879 02ec 0E040000 		.4byte	0x40e
 3880 02f0 10       		.uleb128 0x10
 3881 02f1 5F7000   		.ascii	"_p\000"
 3882 02f4 07       		.byte	0x7
 3883 02f5 B6       		.byte	0xb6
 3884 02f6 DE020000 		.4byte	0x2de
 3885 02fa 00       		.byte	0
 3886 02fb 10       		.uleb128 0x10
 3887 02fc 5F7200   		.ascii	"_r\000"
 3888 02ff 07       		.byte	0x7
 3889 0300 B7       		.byte	0xb7
 3890 0301 73000000 		.4byte	0x73
 3891 0305 04       		.byte	0x4
 3892 0306 10       		.uleb128 0x10
 3893 0307 5F7700   		.ascii	"_w\000"
 3894 030a 07       		.byte	0x7
 3895 030b B8       		.byte	0xb8
 3896 030c 73000000 		.4byte	0x73
 3897 0310 08       		.byte	0x8
 3898 0311 0E       		.uleb128 0xe
 3899 0312 8B000000 		.4byte	.LASF49
 3900 0316 07       		.byte	0x7
 3901 0317 B9       		.byte	0xb9
 3902 0318 33000000 		.4byte	0x33
 3903 031c 0C       		.byte	0xc
 3904 031d 0E       		.uleb128 0xe
 3905 031e 64050000 		.4byte	.LASF50
 3906 0322 07       		.byte	0x7
 3907 0323 BA       		.byte	0xba
 3908 0324 33000000 		.4byte	0x33
 3909 0328 0E       		.byte	0xe
ARM GAS  /tmp/ccUc3O3E.s 			page 70


 3910 0329 10       		.uleb128 0x10
 3911 032a 5F626600 		.ascii	"_bf\000"
 3912 032e 07       		.byte	0x7
 3913 032f BB       		.byte	0xbb
 3914 0330 B9020000 		.4byte	0x2b9
 3915 0334 10       		.byte	0x10
 3916 0335 0E       		.uleb128 0xe
 3917 0336 82000000 		.4byte	.LASF51
 3918 033a 07       		.byte	0x7
 3919 033b BC       		.byte	0xbc
 3920 033c 73000000 		.4byte	0x73
 3921 0340 18       		.byte	0x18
 3922 0341 0E       		.uleb128 0xe
 3923 0342 35010000 		.4byte	.LASF52
 3924 0346 07       		.byte	0x7
 3925 0347 C3       		.byte	0xc3
 3926 0348 81000000 		.4byte	0x81
 3927 034c 1C       		.byte	0x1c
 3928 034d 0E       		.uleb128 0xe
 3929 034e D0000000 		.4byte	.LASF53
 3930 0352 07       		.byte	0x7
 3931 0353 C5       		.byte	0xc5
 3932 0354 7B050000 		.4byte	0x57b
 3933 0358 20       		.byte	0x20
 3934 0359 0E       		.uleb128 0xe
 3935 035a 02060000 		.4byte	.LASF54
 3936 035e 07       		.byte	0x7
 3937 035f C7       		.byte	0xc7
 3938 0360 A5050000 		.4byte	0x5a5
 3939 0364 24       		.byte	0x24
 3940 0365 0E       		.uleb128 0xe
 3941 0366 0E090000 		.4byte	.LASF55
 3942 036a 07       		.byte	0x7
 3943 036b CA       		.byte	0xca
 3944 036c C9050000 		.4byte	0x5c9
 3945 0370 28       		.byte	0x28
 3946 0371 0E       		.uleb128 0xe
 3947 0372 E7040000 		.4byte	.LASF56
 3948 0376 07       		.byte	0x7
 3949 0377 CB       		.byte	0xcb
 3950 0378 E3050000 		.4byte	0x5e3
 3951 037c 2C       		.byte	0x2c
 3952 037d 10       		.uleb128 0x10
 3953 037e 5F756200 		.ascii	"_ub\000"
 3954 0382 07       		.byte	0x7
 3955 0383 CE       		.byte	0xce
 3956 0384 B9020000 		.4byte	0x2b9
 3957 0388 30       		.byte	0x30
 3958 0389 10       		.uleb128 0x10
 3959 038a 5F757000 		.ascii	"_up\000"
 3960 038e 07       		.byte	0x7
 3961 038f CF       		.byte	0xcf
 3962 0390 DE020000 		.4byte	0x2de
 3963 0394 38       		.byte	0x38
 3964 0395 10       		.uleb128 0x10
 3965 0396 5F757200 		.ascii	"_ur\000"
 3966 039a 07       		.byte	0x7
ARM GAS  /tmp/ccUc3O3E.s 			page 71


 3967 039b D0       		.byte	0xd0
 3968 039c 73000000 		.4byte	0x73
 3969 03a0 3C       		.byte	0x3c
 3970 03a1 0E       		.uleb128 0xe
 3971 03a2 25090000 		.4byte	.LASF57
 3972 03a6 07       		.byte	0x7
 3973 03a7 D3       		.byte	0xd3
 3974 03a8 E9050000 		.4byte	0x5e9
 3975 03ac 40       		.byte	0x40
 3976 03ad 0E       		.uleb128 0xe
 3977 03ae 9A080000 		.4byte	.LASF58
 3978 03b2 07       		.byte	0x7
 3979 03b3 D4       		.byte	0xd4
 3980 03b4 F9050000 		.4byte	0x5f9
 3981 03b8 43       		.byte	0x43
 3982 03b9 10       		.uleb128 0x10
 3983 03ba 5F6C6200 		.ascii	"_lb\000"
 3984 03be 07       		.byte	0x7
 3985 03bf D7       		.byte	0xd7
 3986 03c0 B9020000 		.4byte	0x2b9
 3987 03c4 44       		.byte	0x44
 3988 03c5 0E       		.uleb128 0xe
 3989 03c6 0A070000 		.4byte	.LASF59
 3990 03ca 07       		.byte	0x7
 3991 03cb DA       		.byte	0xda
 3992 03cc 73000000 		.4byte	0x73
 3993 03d0 4C       		.byte	0x4c
 3994 03d1 0E       		.uleb128 0xe
 3995 03d2 A7030000 		.4byte	.LASF60
 3996 03d6 07       		.byte	0x7
 3997 03d7 DB       		.byte	0xdb
 3998 03d8 99000000 		.4byte	0x99
 3999 03dc 50       		.byte	0x50
 4000 03dd 0E       		.uleb128 0xe
 4001 03de 75060000 		.4byte	.LASF61
 4002 03e2 07       		.byte	0x7
 4003 03e3 DE       		.byte	0xde
 4004 03e4 2C040000 		.4byte	0x42c
 4005 03e8 54       		.byte	0x54
 4006 03e9 0E       		.uleb128 0xe
 4007 03ea 18070000 		.4byte	.LASF62
 4008 03ee 07       		.byte	0x7
 4009 03ef E2       		.byte	0xe2
 4010 03f0 16010000 		.4byte	0x116
 4011 03f4 58       		.byte	0x58
 4012 03f5 0E       		.uleb128 0xe
 4013 03f6 B4000000 		.4byte	.LASF63
 4014 03fa 07       		.byte	0x7
 4015 03fb E4       		.byte	0xe4
 4016 03fc 0B010000 		.4byte	0x10b
 4017 0400 5C       		.byte	0x5c
 4018 0401 0E       		.uleb128 0xe
 4019 0402 E2080000 		.4byte	.LASF64
 4020 0406 07       		.byte	0x7
 4021 0407 E5       		.byte	0xe5
 4022 0408 73000000 		.4byte	0x73
 4023 040c 64       		.byte	0x64
ARM GAS  /tmp/ccUc3O3E.s 			page 72


 4024 040d 00       		.byte	0
 4025 040e 14       		.uleb128 0x14
 4026 040f 73000000 		.4byte	0x73
 4027 0413 2C040000 		.4byte	0x42c
 4028 0417 15       		.uleb128 0x15
 4029 0418 2C040000 		.4byte	0x42c
 4030 041c 15       		.uleb128 0x15
 4031 041d 81000000 		.4byte	0x81
 4032 0421 15       		.uleb128 0x15
 4033 0422 69050000 		.4byte	0x569
 4034 0426 15       		.uleb128 0x15
 4035 0427 73000000 		.4byte	0x73
 4036 042b 00       		.byte	0
 4037 042c 06       		.uleb128 0x6
 4038 042d 04       		.byte	0x4
 4039 042e 37040000 		.4byte	0x437
 4040 0432 16       		.uleb128 0x16
 4041 0433 2C040000 		.4byte	0x42c
 4042 0437 17       		.uleb128 0x17
 4043 0438 63080000 		.4byte	.LASF65
 4044 043c 2804     		.2byte	0x428
 4045 043e 07       		.byte	0x7
 4046 043f 6002     		.2byte	0x260
 4047 0441 69050000 		.4byte	0x569
 4048 0445 18       		.uleb128 0x18
 4049 0446 AD000000 		.4byte	.LASF66
 4050 044a 07       		.byte	0x7
 4051 044b 6202     		.2byte	0x262
 4052 044d 73000000 		.4byte	0x73
 4053 0451 00       		.byte	0
 4054 0452 18       		.uleb128 0x18
 4055 0453 05050000 		.4byte	.LASF67
 4056 0457 07       		.byte	0x7
 4057 0458 6702     		.2byte	0x267
 4058 045a 50060000 		.4byte	0x650
 4059 045e 04       		.byte	0x4
 4060 045f 18       		.uleb128 0x18
 4061 0460 05010000 		.4byte	.LASF68
 4062 0464 07       		.byte	0x7
 4063 0465 6702     		.2byte	0x267
 4064 0467 50060000 		.4byte	0x650
 4065 046b 08       		.byte	0x8
 4066 046c 18       		.uleb128 0x18
 4067 046d 14090000 		.4byte	.LASF69
 4068 0471 07       		.byte	0x7
 4069 0472 6702     		.2byte	0x267
 4070 0474 50060000 		.4byte	0x650
 4071 0478 0C       		.byte	0xc
 4072 0479 18       		.uleb128 0x18
 4073 047a 08040000 		.4byte	.LASF70
 4074 047e 07       		.byte	0x7
 4075 047f 6902     		.2byte	0x269
 4076 0481 73000000 		.4byte	0x73
 4077 0485 10       		.byte	0x10
 4078 0486 18       		.uleb128 0x18
 4079 0487 C0030000 		.4byte	.LASF71
 4080 048b 07       		.byte	0x7
ARM GAS  /tmp/ccUc3O3E.s 			page 73


 4081 048c 6A02     		.2byte	0x26a
 4082 048e 32080000 		.4byte	0x832
 4083 0492 14       		.byte	0x14
 4084 0493 18       		.uleb128 0x18
 4085 0494 C9080000 		.4byte	.LASF72
 4086 0498 07       		.byte	0x7
 4087 0499 6D02     		.2byte	0x26d
 4088 049b 73000000 		.4byte	0x73
 4089 049f 30       		.byte	0x30
 4090 04a0 18       		.uleb128 0x18
 4091 04a1 33080000 		.4byte	.LASF73
 4092 04a5 07       		.byte	0x7
 4093 04a6 6E02     		.2byte	0x26e
 4094 04a8 47080000 		.4byte	0x847
 4095 04ac 34       		.byte	0x34
 4096 04ad 18       		.uleb128 0x18
 4097 04ae EE040000 		.4byte	.LASF74
 4098 04b2 07       		.byte	0x7
 4099 04b3 7002     		.2byte	0x270
 4100 04b5 73000000 		.4byte	0x73
 4101 04b9 38       		.byte	0x38
 4102 04ba 18       		.uleb128 0x18
 4103 04bb 86050000 		.4byte	.LASF75
 4104 04bf 07       		.byte	0x7
 4105 04c0 7202     		.2byte	0x272
 4106 04c2 58080000 		.4byte	0x858
 4107 04c6 3C       		.byte	0x3c
 4108 04c7 18       		.uleb128 0x18
 4109 04c8 6B010000 		.4byte	.LASF76
 4110 04cc 07       		.byte	0x7
 4111 04cd 7502     		.2byte	0x275
 4112 04cf 7F010000 		.4byte	0x17f
 4113 04d3 40       		.byte	0x40
 4114 04d4 18       		.uleb128 0x18
 4115 04d5 45030000 		.4byte	.LASF77
 4116 04d9 07       		.byte	0x7
 4117 04da 7602     		.2byte	0x276
 4118 04dc 73000000 		.4byte	0x73
 4119 04e0 44       		.byte	0x44
 4120 04e1 18       		.uleb128 0x18
 4121 04e2 4F040000 		.4byte	.LASF78
 4122 04e6 07       		.byte	0x7
 4123 04e7 7702     		.2byte	0x277
 4124 04e9 7F010000 		.4byte	0x17f
 4125 04ed 48       		.byte	0x48
 4126 04ee 18       		.uleb128 0x18
 4127 04ef 35050000 		.4byte	.LASF79
 4128 04f3 07       		.byte	0x7
 4129 04f4 7802     		.2byte	0x278
 4130 04f6 5E080000 		.4byte	0x85e
 4131 04fa 4C       		.byte	0x4c
 4132 04fb 18       		.uleb128 0x18
 4133 04fc D9060000 		.4byte	.LASF80
 4134 0500 07       		.byte	0x7
 4135 0501 7B02     		.2byte	0x27b
 4136 0503 73000000 		.4byte	0x73
 4137 0507 50       		.byte	0x50
ARM GAS  /tmp/ccUc3O3E.s 			page 74


 4138 0508 18       		.uleb128 0x18
 4139 0509 79070000 		.4byte	.LASF81
 4140 050d 07       		.byte	0x7
 4141 050e 7C02     		.2byte	0x27c
 4142 0510 69050000 		.4byte	0x569
 4143 0514 54       		.byte	0x54
 4144 0515 18       		.uleb128 0x18
 4145 0516 D4060000 		.4byte	.LASF82
 4146 051a 07       		.byte	0x7
 4147 051b 9F02     		.2byte	0x29f
 4148 051d 10080000 		.4byte	0x810
 4149 0521 58       		.byte	0x58
 4150 0522 19       		.uleb128 0x19
 4151 0523 1F060000 		.4byte	.LASF42
 4152 0527 07       		.byte	0x7
 4153 0528 A302     		.2byte	0x2a3
 4154 052a 9C020000 		.4byte	0x29c
 4155 052e 4801     		.2byte	0x148
 4156 0530 19       		.uleb128 0x19
 4157 0531 AE040000 		.4byte	.LASF83
 4158 0535 07       		.byte	0x7
 4159 0536 A402     		.2byte	0x2a4
 4160 0538 5E020000 		.4byte	0x25e
 4161 053c 4C01     		.2byte	0x14c
 4162 053e 19       		.uleb128 0x19
 4163 053f 95040000 		.4byte	.LASF84
 4164 0543 07       		.byte	0x7
 4165 0544 A802     		.2byte	0x2a8
 4166 0546 6F080000 		.4byte	0x86f
 4167 054a DC02     		.2byte	0x2dc
 4168 054c 19       		.uleb128 0x19
 4169 054d 03080000 		.4byte	.LASF85
 4170 0551 07       		.byte	0x7
 4171 0552 AD02     		.2byte	0x2ad
 4172 0554 15060000 		.4byte	0x615
 4173 0558 E002     		.2byte	0x2e0
 4174 055a 19       		.uleb128 0x19
 4175 055b 56060000 		.4byte	.LASF86
 4176 055f 07       		.byte	0x7
 4177 0560 AF02     		.2byte	0x2af
 4178 0562 7B080000 		.4byte	0x87b
 4179 0566 EC02     		.2byte	0x2ec
 4180 0568 00       		.byte	0
 4181 0569 06       		.uleb128 0x6
 4182 056a 04       		.byte	0x4
 4183 056b 6F050000 		.4byte	0x56f
 4184 056f 02       		.uleb128 0x2
 4185 0570 01       		.byte	0x1
 4186 0571 08       		.byte	0x8
 4187 0572 86040000 		.4byte	.LASF87
 4188 0576 16       		.uleb128 0x16
 4189 0577 6F050000 		.4byte	0x56f
 4190 057b 06       		.uleb128 0x6
 4191 057c 04       		.byte	0x4
 4192 057d 0E040000 		.4byte	0x40e
 4193 0581 14       		.uleb128 0x14
 4194 0582 73000000 		.4byte	0x73
ARM GAS  /tmp/ccUc3O3E.s 			page 75


 4195 0586 9F050000 		.4byte	0x59f
 4196 058a 15       		.uleb128 0x15
 4197 058b 2C040000 		.4byte	0x42c
 4198 058f 15       		.uleb128 0x15
 4199 0590 81000000 		.4byte	0x81
 4200 0594 15       		.uleb128 0x15
 4201 0595 9F050000 		.4byte	0x59f
 4202 0599 15       		.uleb128 0x15
 4203 059a 73000000 		.4byte	0x73
 4204 059e 00       		.byte	0
 4205 059f 06       		.uleb128 0x6
 4206 05a0 04       		.byte	0x4
 4207 05a1 76050000 		.4byte	0x576
 4208 05a5 06       		.uleb128 0x6
 4209 05a6 04       		.byte	0x4
 4210 05a7 81050000 		.4byte	0x581
 4211 05ab 14       		.uleb128 0x14
 4212 05ac A4000000 		.4byte	0xa4
 4213 05b0 C9050000 		.4byte	0x5c9
 4214 05b4 15       		.uleb128 0x15
 4215 05b5 2C040000 		.4byte	0x42c
 4216 05b9 15       		.uleb128 0x15
 4217 05ba 81000000 		.4byte	0x81
 4218 05be 15       		.uleb128 0x15
 4219 05bf A4000000 		.4byte	0xa4
 4220 05c3 15       		.uleb128 0x15
 4221 05c4 73000000 		.4byte	0x73
 4222 05c8 00       		.byte	0
 4223 05c9 06       		.uleb128 0x6
 4224 05ca 04       		.byte	0x4
 4225 05cb AB050000 		.4byte	0x5ab
 4226 05cf 14       		.uleb128 0x14
 4227 05d0 73000000 		.4byte	0x73
 4228 05d4 E3050000 		.4byte	0x5e3
 4229 05d8 15       		.uleb128 0x15
 4230 05d9 2C040000 		.4byte	0x42c
 4231 05dd 15       		.uleb128 0x15
 4232 05de 81000000 		.4byte	0x81
 4233 05e2 00       		.byte	0
 4234 05e3 06       		.uleb128 0x6
 4235 05e4 04       		.byte	0x4
 4236 05e5 CF050000 		.4byte	0x5cf
 4237 05e9 0B       		.uleb128 0xb
 4238 05ea 2C000000 		.4byte	0x2c
 4239 05ee F9050000 		.4byte	0x5f9
 4240 05f2 0C       		.uleb128 0xc
 4241 05f3 7A000000 		.4byte	0x7a
 4242 05f7 02       		.byte	0x2
 4243 05f8 00       		.byte	0
 4244 05f9 0B       		.uleb128 0xb
 4245 05fa 2C000000 		.4byte	0x2c
 4246 05fe 09060000 		.4byte	0x609
 4247 0602 0C       		.uleb128 0xc
 4248 0603 7A000000 		.4byte	0x7a
 4249 0607 00       		.byte	0
 4250 0608 00       		.byte	0
 4251 0609 08       		.uleb128 0x8
ARM GAS  /tmp/ccUc3O3E.s 			page 76


 4252 060a 9A030000 		.4byte	.LASF88
 4253 060e 07       		.byte	0x7
 4254 060f 1F01     		.2byte	0x11f
 4255 0611 E4020000 		.4byte	0x2e4
 4256 0615 1A       		.uleb128 0x1a
 4257 0616 FD070000 		.4byte	.LASF89
 4258 061a 0C       		.byte	0xc
 4259 061b 07       		.byte	0x7
 4260 061c 2301     		.2byte	0x123
 4261 061e 4A060000 		.4byte	0x64a
 4262 0622 18       		.uleb128 0x18
 4263 0623 30040000 		.4byte	.LASF22
 4264 0627 07       		.byte	0x7
 4265 0628 2501     		.2byte	0x125
 4266 062a 4A060000 		.4byte	0x64a
 4267 062e 00       		.byte	0
 4268 062f 18       		.uleb128 0x18
 4269 0630 30070000 		.4byte	.LASF90
 4270 0634 07       		.byte	0x7
 4271 0635 2601     		.2byte	0x126
 4272 0637 73000000 		.4byte	0x73
 4273 063b 04       		.byte	0x4
 4274 063c 18       		.uleb128 0x18
 4275 063d D9040000 		.4byte	.LASF91
 4276 0641 07       		.byte	0x7
 4277 0642 2701     		.2byte	0x127
 4278 0644 50060000 		.4byte	0x650
 4279 0648 08       		.byte	0x8
 4280 0649 00       		.byte	0
 4281 064a 06       		.uleb128 0x6
 4282 064b 04       		.byte	0x4
 4283 064c 15060000 		.4byte	0x615
 4284 0650 06       		.uleb128 0x6
 4285 0651 04       		.byte	0x4
 4286 0652 09060000 		.4byte	0x609
 4287 0656 1A       		.uleb128 0x1a
 4288 0657 1B030000 		.4byte	.LASF92
 4289 065b 0E       		.byte	0xe
 4290 065c 07       		.byte	0x7
 4291 065d 3F01     		.2byte	0x13f
 4292 065f 8B060000 		.4byte	0x68b
 4293 0663 18       		.uleb128 0x18
 4294 0664 F2080000 		.4byte	.LASF93
 4295 0668 07       		.byte	0x7
 4296 0669 4001     		.2byte	0x140
 4297 066b 8B060000 		.4byte	0x68b
 4298 066f 00       		.byte	0
 4299 0670 18       		.uleb128 0x18
 4300 0671 3F050000 		.4byte	.LASF94
 4301 0675 07       		.byte	0x7
 4302 0676 4101     		.2byte	0x141
 4303 0678 8B060000 		.4byte	0x68b
 4304 067c 06       		.byte	0x6
 4305 067d 18       		.uleb128 0x18
 4306 067e C1070000 		.4byte	.LASF95
 4307 0682 07       		.byte	0x7
 4308 0683 4201     		.2byte	0x142
ARM GAS  /tmp/ccUc3O3E.s 			page 77


 4309 0685 3A000000 		.4byte	0x3a
 4310 0689 0C       		.byte	0xc
 4311 068a 00       		.byte	0
 4312 068b 0B       		.uleb128 0xb
 4313 068c 3A000000 		.4byte	0x3a
 4314 0690 9B060000 		.4byte	0x69b
 4315 0694 0C       		.uleb128 0xc
 4316 0695 7A000000 		.4byte	0x7a
 4317 0699 02       		.byte	0x2
 4318 069a 00       		.byte	0
 4319 069b 1B       		.uleb128 0x1b
 4320 069c D0       		.byte	0xd0
 4321 069d 07       		.byte	0x7
 4322 069e 8002     		.2byte	0x280
 4323 06a0 9C070000 		.4byte	0x79c
 4324 06a4 18       		.uleb128 0x18
 4325 06a5 A0080000 		.4byte	.LASF96
 4326 06a9 07       		.byte	0x7
 4327 06aa 8202     		.2byte	0x282
 4328 06ac 7A000000 		.4byte	0x7a
 4329 06b0 00       		.byte	0
 4330 06b1 18       		.uleb128 0x18
 4331 06b2 0B080000 		.4byte	.LASF97
 4332 06b6 07       		.byte	0x7
 4333 06b7 8302     		.2byte	0x283
 4334 06b9 69050000 		.4byte	0x569
 4335 06bd 04       		.byte	0x4
 4336 06be 18       		.uleb128 0x18
 4337 06bf 78030000 		.4byte	.LASF98
 4338 06c3 07       		.byte	0x7
 4339 06c4 8402     		.2byte	0x284
 4340 06c6 9C070000 		.4byte	0x79c
 4341 06ca 08       		.byte	0x8
 4342 06cb 18       		.uleb128 0x18
 4343 06cc B3060000 		.4byte	.LASF99
 4344 06d0 07       		.byte	0x7
 4345 06d1 8502     		.2byte	0x285
 4346 06d3 95010000 		.4byte	0x195
 4347 06d7 24       		.byte	0x24
 4348 06d8 18       		.uleb128 0x18
 4349 06d9 0C050000 		.4byte	.LASF100
 4350 06dd 07       		.byte	0x7
 4351 06de 8602     		.2byte	0x286
 4352 06e0 73000000 		.4byte	0x73
 4353 06e4 48       		.byte	0x48
 4354 06e5 18       		.uleb128 0x18
 4355 06e6 F8080000 		.4byte	.LASF101
 4356 06ea 07       		.byte	0x7
 4357 06eb 8702     		.2byte	0x287
 4358 06ed 6C000000 		.4byte	0x6c
 4359 06f1 50       		.byte	0x50
 4360 06f2 18       		.uleb128 0x18
 4361 06f3 55000000 		.4byte	.LASF102
 4362 06f7 07       		.byte	0x7
 4363 06f8 8802     		.2byte	0x288
 4364 06fa 56060000 		.4byte	0x656
 4365 06fe 58       		.byte	0x58
ARM GAS  /tmp/ccUc3O3E.s 			page 78


 4366 06ff 18       		.uleb128 0x18
 4367 0700 79040000 		.4byte	.LASF103
 4368 0704 07       		.byte	0x7
 4369 0705 8902     		.2byte	0x289
 4370 0707 0B010000 		.4byte	0x10b
 4371 070b 68       		.byte	0x68
 4372 070c 18       		.uleb128 0x18
 4373 070d 18080000 		.4byte	.LASF104
 4374 0711 07       		.byte	0x7
 4375 0712 8A02     		.2byte	0x28a
 4376 0714 0B010000 		.4byte	0x10b
 4377 0718 70       		.byte	0x70
 4378 0719 18       		.uleb128 0x18
 4379 071a 36000000 		.4byte	.LASF105
 4380 071e 07       		.byte	0x7
 4381 071f 8B02     		.2byte	0x28b
 4382 0721 0B010000 		.4byte	0x10b
 4383 0725 78       		.byte	0x78
 4384 0726 18       		.uleb128 0x18
 4385 0727 E9060000 		.4byte	.LASF106
 4386 072b 07       		.byte	0x7
 4387 072c 8C02     		.2byte	0x28c
 4388 072e AC070000 		.4byte	0x7ac
 4389 0732 80       		.byte	0x80
 4390 0733 18       		.uleb128 0x18
 4391 0734 5F000000 		.4byte	.LASF107
 4392 0738 07       		.byte	0x7
 4393 0739 8D02     		.2byte	0x28d
 4394 073b BC070000 		.4byte	0x7bc
 4395 073f 88       		.byte	0x88
 4396 0740 18       		.uleb128 0x18
 4397 0741 9A070000 		.4byte	.LASF108
 4398 0745 07       		.byte	0x7
 4399 0746 8E02     		.2byte	0x28e
 4400 0748 73000000 		.4byte	0x73
 4401 074c A0       		.byte	0xa0
 4402 074d 18       		.uleb128 0x18
 4403 074e D6000000 		.4byte	.LASF109
 4404 0752 07       		.byte	0x7
 4405 0753 8F02     		.2byte	0x28f
 4406 0755 0B010000 		.4byte	0x10b
 4407 0759 A4       		.byte	0xa4
 4408 075a 18       		.uleb128 0x18
 4409 075b 9F040000 		.4byte	.LASF110
 4410 075f 07       		.byte	0x7
 4411 0760 9002     		.2byte	0x290
 4412 0762 0B010000 		.4byte	0x10b
 4413 0766 AC       		.byte	0xac
 4414 0767 18       		.uleb128 0x18
 4415 0768 36040000 		.4byte	.LASF111
 4416 076c 07       		.byte	0x7
 4417 076d 9102     		.2byte	0x291
 4418 076f 0B010000 		.4byte	0x10b
 4419 0773 B4       		.byte	0xb4
 4420 0774 18       		.uleb128 0x18
 4421 0775 4D050000 		.4byte	.LASF112
 4422 0779 07       		.byte	0x7
ARM GAS  /tmp/ccUc3O3E.s 			page 79


 4423 077a 9202     		.2byte	0x292
 4424 077c 0B010000 		.4byte	0x10b
 4425 0780 BC       		.byte	0xbc
 4426 0781 18       		.uleb128 0x18
 4427 0782 68040000 		.4byte	.LASF113
 4428 0786 07       		.byte	0x7
 4429 0787 9302     		.2byte	0x293
 4430 0789 0B010000 		.4byte	0x10b
 4431 078d C4       		.byte	0xc4
 4432 078e 18       		.uleb128 0x18
 4433 078f AB050000 		.4byte	.LASF114
 4434 0793 07       		.byte	0x7
 4435 0794 9402     		.2byte	0x294
 4436 0796 73000000 		.4byte	0x73
 4437 079a CC       		.byte	0xcc
 4438 079b 00       		.byte	0
 4439 079c 0B       		.uleb128 0xb
 4440 079d 6F050000 		.4byte	0x56f
 4441 07a1 AC070000 		.4byte	0x7ac
 4442 07a5 0C       		.uleb128 0xc
 4443 07a6 7A000000 		.4byte	0x7a
 4444 07aa 19       		.byte	0x19
 4445 07ab 00       		.byte	0
 4446 07ac 0B       		.uleb128 0xb
 4447 07ad 6F050000 		.4byte	0x56f
 4448 07b1 BC070000 		.4byte	0x7bc
 4449 07b5 0C       		.uleb128 0xc
 4450 07b6 7A000000 		.4byte	0x7a
 4451 07ba 07       		.byte	0x7
 4452 07bb 00       		.byte	0
 4453 07bc 0B       		.uleb128 0xb
 4454 07bd 6F050000 		.4byte	0x56f
 4455 07c1 CC070000 		.4byte	0x7cc
 4456 07c5 0C       		.uleb128 0xc
 4457 07c6 7A000000 		.4byte	0x7a
 4458 07ca 17       		.byte	0x17
 4459 07cb 00       		.byte	0
 4460 07cc 1B       		.uleb128 0x1b
 4461 07cd F0       		.byte	0xf0
 4462 07ce 07       		.byte	0x7
 4463 07cf 9902     		.2byte	0x299
 4464 07d1 F0070000 		.4byte	0x7f0
 4465 07d5 18       		.uleb128 0x18
 4466 07d6 EA010000 		.4byte	.LASF115
 4467 07da 07       		.byte	0x7
 4468 07db 9C02     		.2byte	0x29c
 4469 07dd F0070000 		.4byte	0x7f0
 4470 07e1 00       		.byte	0
 4471 07e2 18       		.uleb128 0x18
 4472 07e3 1C090000 		.4byte	.LASF116
 4473 07e7 07       		.byte	0x7
 4474 07e8 9D02     		.2byte	0x29d
 4475 07ea 00080000 		.4byte	0x800
 4476 07ee 78       		.byte	0x78
 4477 07ef 00       		.byte	0
 4478 07f0 0B       		.uleb128 0xb
 4479 07f1 DE020000 		.4byte	0x2de
ARM GAS  /tmp/ccUc3O3E.s 			page 80


 4480 07f5 00080000 		.4byte	0x800
 4481 07f9 0C       		.uleb128 0xc
 4482 07fa 7A000000 		.4byte	0x7a
 4483 07fe 1D       		.byte	0x1d
 4484 07ff 00       		.byte	0
 4485 0800 0B       		.uleb128 0xb
 4486 0801 7A000000 		.4byte	0x7a
 4487 0805 10080000 		.4byte	0x810
 4488 0809 0C       		.uleb128 0xc
 4489 080a 7A000000 		.4byte	0x7a
 4490 080e 1D       		.byte	0x1d
 4491 080f 00       		.byte	0
 4492 0810 1C       		.uleb128 0x1c
 4493 0811 F0       		.byte	0xf0
 4494 0812 07       		.byte	0x7
 4495 0813 7E02     		.2byte	0x27e
 4496 0815 32080000 		.4byte	0x832
 4497 0819 1D       		.uleb128 0x1d
 4498 081a 63080000 		.4byte	.LASF65
 4499 081e 07       		.byte	0x7
 4500 081f 9502     		.2byte	0x295
 4501 0821 9B060000 		.4byte	0x69b
 4502 0825 1D       		.uleb128 0x1d
 4503 0826 CC060000 		.4byte	.LASF117
 4504 082a 07       		.byte	0x7
 4505 082b 9E02     		.2byte	0x29e
 4506 082d CC070000 		.4byte	0x7cc
 4507 0831 00       		.byte	0
 4508 0832 0B       		.uleb128 0xb
 4509 0833 6F050000 		.4byte	0x56f
 4510 0837 42080000 		.4byte	0x842
 4511 083b 0C       		.uleb128 0xc
 4512 083c 7A000000 		.4byte	0x7a
 4513 0840 18       		.byte	0x18
 4514 0841 00       		.byte	0
 4515 0842 07       		.uleb128 0x7
 4516 0843 03090000 		.4byte	.LASF119
 4517 0847 06       		.uleb128 0x6
 4518 0848 04       		.byte	0x4
 4519 0849 42080000 		.4byte	0x842
 4520 084d 1E       		.uleb128 0x1e
 4521 084e 58080000 		.4byte	0x858
 4522 0852 15       		.uleb128 0x15
 4523 0853 2C040000 		.4byte	0x42c
 4524 0857 00       		.byte	0
 4525 0858 06       		.uleb128 0x6
 4526 0859 04       		.byte	0x4
 4527 085a 4D080000 		.4byte	0x84d
 4528 085e 06       		.uleb128 0x6
 4529 085f 04       		.byte	0x4
 4530 0860 7F010000 		.4byte	0x17f
 4531 0864 1E       		.uleb128 0x1e
 4532 0865 6F080000 		.4byte	0x86f
 4533 0869 15       		.uleb128 0x15
 4534 086a 73000000 		.4byte	0x73
 4535 086e 00       		.byte	0
 4536 086f 06       		.uleb128 0x6
ARM GAS  /tmp/ccUc3O3E.s 			page 81


 4537 0870 04       		.byte	0x4
 4538 0871 75080000 		.4byte	0x875
 4539 0875 06       		.uleb128 0x6
 4540 0876 04       		.byte	0x4
 4541 0877 64080000 		.4byte	0x864
 4542 087b 0B       		.uleb128 0xb
 4543 087c 09060000 		.4byte	0x609
 4544 0880 8B080000 		.4byte	0x88b
 4545 0884 0C       		.uleb128 0xc
 4546 0885 7A000000 		.4byte	0x7a
 4547 0889 02       		.byte	0x2
 4548 088a 00       		.byte	0
 4549 088b 1F       		.uleb128 0x1f
 4550 088c D4010000 		.4byte	.LASF120
 4551 0890 07       		.byte	0x7
 4552 0891 2E03     		.2byte	0x32e
 4553 0893 2C040000 		.4byte	0x42c
 4554 0897 1F       		.uleb128 0x1f
 4555 0898 82060000 		.4byte	.LASF121
 4556 089c 07       		.byte	0x7
 4557 089d 2F03     		.2byte	0x32f
 4558 089f 32040000 		.4byte	0x432
 4559 08a3 03       		.uleb128 0x3
 4560 08a4 3E070000 		.4byte	.LASF122
 4561 08a8 08       		.byte	0x8
 4562 08a9 2C       		.byte	0x2c
 4563 08aa 41000000 		.4byte	0x41
 4564 08ae 03       		.uleb128 0x3
 4565 08af 73010000 		.4byte	.LASF123
 4566 08b3 08       		.byte	0x8
 4567 08b4 30       		.byte	0x30
 4568 08b5 53000000 		.4byte	0x53
 4569 08b9 0B       		.uleb128 0xb
 4570 08ba 76050000 		.4byte	0x576
 4571 08be C4080000 		.4byte	0x8c4
 4572 08c2 20       		.uleb128 0x20
 4573 08c3 00       		.byte	0
 4574 08c4 16       		.uleb128 0x16
 4575 08c5 B9080000 		.4byte	0x8b9
 4576 08c9 21       		.uleb128 0x21
 4577 08ca 3B080000 		.4byte	.LASF124
 4578 08ce 09       		.byte	0x9
 4579 08cf A5       		.byte	0xa5
 4580 08d0 C4080000 		.4byte	0x8c4
 4581 08d4 03       		.uleb128 0x3
 4582 08d5 E1030000 		.4byte	.LASF125
 4583 08d9 0A       		.byte	0xa
 4584 08da 1E       		.byte	0x1e
 4585 08db AE080000 		.4byte	0x8ae
 4586 08df 03       		.uleb128 0x3
 4587 08e0 6A050000 		.4byte	.LASF126
 4588 08e4 0A       		.byte	0xa
 4589 08e5 20       		.byte	0x20
 4590 08e6 AE080000 		.4byte	0x8ae
 4591 08ea 03       		.uleb128 0x3
 4592 08eb 09060000 		.4byte	.LASF127
 4593 08ef 0A       		.byte	0xa
ARM GAS  /tmp/ccUc3O3E.s 			page 82


 4594 08f0 22       		.byte	0x22
 4595 08f1 AE080000 		.4byte	0x8ae
 4596 08f5 03       		.uleb128 0x3
 4597 08f6 F5070000 		.4byte	.LASF128
 4598 08fa 0A       		.byte	0xa
 4599 08fb 23       		.byte	0x23
 4600 08fc A3080000 		.4byte	0x8a3
 4601 0900 03       		.uleb128 0x3
 4602 0901 E4000000 		.4byte	.LASF129
 4603 0905 0A       		.byte	0xa
 4604 0906 24       		.byte	0x24
 4605 0907 0B090000 		.4byte	0x90b
 4606 090b 02       		.uleb128 0x2
 4607 090c 04       		.byte	0x4
 4608 090d 04       		.byte	0x4
 4609 090e A9010000 		.4byte	.LASF130
 4610 0912 0F       		.uleb128 0xf
 4611 0913 5C050000 		.4byte	.LASF131
 4612 0917 14       		.byte	0x14
 4613 0918 0A       		.byte	0xa
 4614 0919 34       		.byte	0x34
 4615 091a 5B090000 		.4byte	0x95b
 4616 091e 0E       		.uleb128 0xe
 4617 091f F3060000 		.4byte	.LASF132
 4618 0923 0A       		.byte	0xa
 4619 0924 35       		.byte	0x35
 4620 0925 81000000 		.4byte	0x81
 4621 0929 00       		.byte	0
 4622 092a 0E       		.uleb128 0xe
 4623 092b 50000000 		.4byte	.LASF133
 4624 092f 0A       		.byte	0xa
 4625 0930 36       		.byte	0x36
 4626 0931 77090000 		.4byte	0x977
 4627 0935 04       		.byte	0x4
 4628 0936 10       		.uleb128 0x10
 4629 0937 67657400 		.ascii	"get\000"
 4630 093b 0A       		.byte	0xa
 4631 093c 37       		.byte	0x37
 4632 093d 8C090000 		.4byte	0x98c
 4633 0941 08       		.byte	0x8
 4634 0942 0E       		.uleb128 0xe
 4635 0943 1A060000 		.4byte	.LASF134
 4636 0947 0A       		.byte	0xa
 4637 0948 38       		.byte	0x38
 4638 0949 A6090000 		.4byte	0x9a6
 4639 094d 0C       		.byte	0xc
 4640 094e 0E       		.uleb128 0xe
 4641 094f C6070000 		.4byte	.LASF135
 4642 0953 0A       		.byte	0xa
 4643 0954 39       		.byte	0x39
 4644 0955 BC090000 		.4byte	0x9bc
 4645 0959 10       		.byte	0x10
 4646 095a 00       		.byte	0
 4647 095b 14       		.uleb128 0x14
 4648 095c 6A090000 		.4byte	0x96a
 4649 0960 6A090000 		.4byte	0x96a
 4650 0964 15       		.uleb128 0x15
ARM GAS  /tmp/ccUc3O3E.s 			page 83


 4651 0965 71090000 		.4byte	0x971
 4652 0969 00       		.byte	0
 4653 096a 02       		.uleb128 0x2
 4654 096b 01       		.byte	0x1
 4655 096c 02       		.byte	0x2
 4656 096d BD050000 		.4byte	.LASF136
 4657 0971 06       		.uleb128 0x6
 4658 0972 04       		.byte	0x4
 4659 0973 12090000 		.4byte	0x912
 4660 0977 06       		.uleb128 0x6
 4661 0978 04       		.byte	0x4
 4662 0979 5B090000 		.4byte	0x95b
 4663 097d 14       		.uleb128 0x14
 4664 097e 6F050000 		.4byte	0x56f
 4665 0982 8C090000 		.4byte	0x98c
 4666 0986 15       		.uleb128 0x15
 4667 0987 71090000 		.4byte	0x971
 4668 098b 00       		.byte	0
 4669 098c 06       		.uleb128 0x6
 4670 098d 04       		.byte	0x4
 4671 098e 7D090000 		.4byte	0x97d
 4672 0992 14       		.uleb128 0x14
 4673 0993 6F050000 		.4byte	0x56f
 4674 0997 A6090000 		.4byte	0x9a6
 4675 099b 15       		.uleb128 0x15
 4676 099c 71090000 		.4byte	0x971
 4677 09a0 15       		.uleb128 0x15
 4678 09a1 7A000000 		.4byte	0x7a
 4679 09a5 00       		.byte	0
 4680 09a6 06       		.uleb128 0x6
 4681 09a7 04       		.byte	0x4
 4682 09a8 92090000 		.4byte	0x992
 4683 09ac 1E       		.uleb128 0x1e
 4684 09ad BC090000 		.4byte	0x9bc
 4685 09b1 15       		.uleb128 0x15
 4686 09b2 71090000 		.4byte	0x971
 4687 09b6 15       		.uleb128 0x15
 4688 09b7 7A000000 		.4byte	0x7a
 4689 09bb 00       		.byte	0
 4690 09bc 06       		.uleb128 0x6
 4691 09bd 04       		.byte	0x4
 4692 09be AC090000 		.4byte	0x9ac
 4693 09c2 03       		.uleb128 0x3
 4694 09c3 45010000 		.4byte	.LASF137
 4695 09c7 0A       		.byte	0xa
 4696 09c8 3D       		.byte	0x3d
 4697 09c9 12090000 		.4byte	0x912
 4698 09cd 21       		.uleb128 0x21
 4699 09ce F4030000 		.4byte	.LASF138
 4700 09d2 0B       		.byte	0xb
 4701 09d3 63       		.byte	0x63
 4702 09d4 69050000 		.4byte	0x569
 4703 09d8 0D       		.uleb128 0xd
 4704 09d9 08       		.byte	0x8
 4705 09da 0C       		.byte	0xc
 4706 09db 1B       		.byte	0x1b
 4707 09dc F9090000 		.4byte	0x9f9
ARM GAS  /tmp/ccUc3O3E.s 			page 84


 4708 09e0 10       		.uleb128 0x10
 4709 09e1 73747200 		.ascii	"str\000"
 4710 09e5 0C       		.byte	0xc
 4711 09e6 1C       		.byte	0x1c
 4712 09e7 69050000 		.4byte	0x569
 4713 09eb 00       		.byte	0
 4714 09ec 10       		.uleb128 0x10
 4715 09ed 706F7300 		.ascii	"pos\000"
 4716 09f1 0C       		.byte	0xc
 4717 09f2 1D       		.byte	0x1d
 4718 09f3 7A000000 		.4byte	0x7a
 4719 09f7 04       		.byte	0x4
 4720 09f8 00       		.byte	0
 4721 09f9 03       		.uleb128 0x3
 4722 09fa D7050000 		.4byte	.LASF139
 4723 09fe 0C       		.byte	0xc
 4724 09ff 1E       		.byte	0x1e
 4725 0a00 D8090000 		.4byte	0x9d8
 4726 0a04 0D       		.uleb128 0xd
 4727 0a05 0C       		.byte	0xc
 4728 0a06 02       		.byte	0x2
 4729 0a07 FB       		.byte	0xfb
 4730 0a08 310A0000 		.4byte	0xa31
 4731 0a0c 0E       		.uleb128 0xe
 4732 0a0d 46070000 		.4byte	.LASF140
 4733 0a11 02       		.byte	0x2
 4734 0a12 FC       		.byte	0xfc
 4735 0a13 DF080000 		.4byte	0x8df
 4736 0a17 00       		.byte	0
 4737 0a18 0E       		.uleb128 0xe
 4738 0a19 9B050000 		.4byte	.LASF141
 4739 0a1d 02       		.byte	0x2
 4740 0a1e FD       		.byte	0xfd
 4741 0a1f AE080000 		.4byte	0x8ae
 4742 0a23 04       		.byte	0x4
 4743 0a24 0E       		.uleb128 0xe
 4744 0a25 C3050000 		.4byte	.LASF142
 4745 0a29 02       		.byte	0x2
 4746 0a2a FE       		.byte	0xfe
 4747 0a2b 310A0000 		.4byte	0xa31
 4748 0a2f 08       		.byte	0x8
 4749 0a30 00       		.byte	0
 4750 0a31 06       		.uleb128 0x6
 4751 0a32 04       		.byte	0x4
 4752 0a33 AE080000 		.4byte	0x8ae
 4753 0a37 03       		.uleb128 0x3
 4754 0a38 BD000000 		.4byte	.LASF143
 4755 0a3c 02       		.byte	0x2
 4756 0a3d FF       		.byte	0xff
 4757 0a3e 040A0000 		.4byte	0xa04
 4758 0a42 0B       		.uleb128 0xb
 4759 0a43 6F050000 		.4byte	0x56f
 4760 0a47 520A0000 		.4byte	0xa52
 4761 0a4b 0C       		.uleb128 0xc
 4762 0a4c 7A000000 		.4byte	0x7a
 4763 0a50 FF       		.byte	0xff
 4764 0a51 00       		.byte	0
ARM GAS  /tmp/ccUc3O3E.s 			page 85


 4765 0a52 22       		.uleb128 0x22
 4766 0a53 17000000 		.4byte	.LASF151
 4767 0a57 01       		.byte	0x1
 4768 0a58 41       		.byte	0x41
 4769 0a59 420A0000 		.4byte	0xa42
 4770 0a5d 05       		.uleb128 0x5
 4771 0a5e 03       		.byte	0x3
 4772 0a5f 00000000 		.4byte	sym_str
 4773 0a63 0D       		.uleb128 0xd
 4774 0a64 0C       		.byte	0xc
 4775 0a65 01       		.byte	0x1
 4776 0a66 55       		.byte	0x55
 4777 0a67 900A0000 		.4byte	0xa90
 4778 0a6b 10       		.uleb128 0x10
 4779 0a6c 73747200 		.ascii	"str\000"
 4780 0a70 01       		.byte	0x1
 4781 0a71 56       		.byte	0x56
 4782 0a72 9F050000 		.4byte	0x59f
 4783 0a76 00       		.byte	0
 4784 0a77 0E       		.uleb128 0xe
 4785 0a78 FC050000 		.4byte	.LASF144
 4786 0a7c 01       		.byte	0x1
 4787 0a7d 57       		.byte	0x57
 4788 0a7e AE080000 		.4byte	0x8ae
 4789 0a82 04       		.byte	0x4
 4790 0a83 10       		.uleb128 0x10
 4791 0a84 6C656E00 		.ascii	"len\000"
 4792 0a88 01       		.byte	0x1
 4793 0a89 58       		.byte	0x58
 4794 0a8a AE080000 		.4byte	0x8ae
 4795 0a8e 08       		.byte	0x8
 4796 0a8f 00       		.byte	0
 4797 0a90 03       		.uleb128 0x3
 4798 0a91 31060000 		.4byte	.LASF145
 4799 0a95 01       		.byte	0x1
 4800 0a96 59       		.byte	0x59
 4801 0a97 630A0000 		.4byte	0xa63
 4802 0a9b 16       		.uleb128 0x16
 4803 0a9c 900A0000 		.4byte	0xa90
 4804 0aa0 0B       		.uleb128 0xb
 4805 0aa1 9B0A0000 		.4byte	0xa9b
 4806 0aa5 B00A0000 		.4byte	0xab0
 4807 0aa9 0C       		.uleb128 0xc
 4808 0aaa 7A000000 		.4byte	0x7a
 4809 0aae 0E       		.byte	0xe
 4810 0aaf 00       		.byte	0
 4811 0ab0 16       		.uleb128 0x16
 4812 0ab1 A00A0000 		.4byte	0xaa0
 4813 0ab5 23       		.uleb128 0x23
 4814 0ab6 6C030000 		.4byte	.LASF146
 4815 0aba 01       		.byte	0x1
 4816 0abb 5C       		.byte	0x5c
 4817 0abc B00A0000 		.4byte	0xab0
 4818 0ac0 05       		.uleb128 0x5
 4819 0ac1 03       		.byte	0x3
 4820 0ac2 00000000 		.4byte	match_table
 4821 0ac6 24       		.uleb128 0x24
ARM GAS  /tmp/ccUc3O3E.s 			page 86


 4822 0ac7 D2070000 		.4byte	.LASF149
 4823 0acb 01       		.byte	0x1
 4824 0acc 7602     		.2byte	0x276
 4825 0ace 00000000 		.4byte	.LFB57
 4826 0ad2 30000000 		.4byte	.LFE57-.LFB57
 4827 0ad6 01       		.uleb128 0x1
 4828 0ad7 9C       		.byte	0x9c
 4829 0ad8 090B0000 		.4byte	0xb09
 4830 0adc 25       		.uleb128 0x25
 4831 0add F3060000 		.4byte	.LASF132
 4832 0ae1 01       		.byte	0x1
 4833 0ae2 7602     		.2byte	0x276
 4834 0ae4 090B0000 		.4byte	0xb09
 4835 0ae8 01       		.uleb128 0x1
 4836 0ae9 50       		.byte	0x50
 4837 0aea 25       		.uleb128 0x25
 4838 0aeb A7060000 		.4byte	.LASF147
 4839 0aef 01       		.byte	0x1
 4840 0af0 7702     		.2byte	0x277
 4841 0af2 0F0B0000 		.4byte	0xb0f
 4842 0af6 01       		.uleb128 0x1
 4843 0af7 51       		.byte	0x51
 4844 0af8 26       		.uleb128 0x26
 4845 0af9 BD040000 		.4byte	.LASF148
 4846 0afd 01       		.byte	0x1
 4847 0afe 7802     		.2byte	0x278
 4848 0b00 69050000 		.4byte	0x569
 4849 0b04 00000000 		.4byte	.LLST273
 4850 0b08 00       		.byte	0
 4851 0b09 06       		.uleb128 0x6
 4852 0b0a 04       		.byte	0x4
 4853 0b0b F9090000 		.4byte	0x9f9
 4854 0b0f 06       		.uleb128 0x6
 4855 0b10 04       		.byte	0x4
 4856 0b11 C2090000 		.4byte	0x9c2
 4857 0b15 24       		.uleb128 0x24
 4858 0b16 57080000 		.4byte	.LASF150
 4859 0b1a 01       		.byte	0x1
 4860 0b1b 7002     		.2byte	0x270
 4861 0b1d 00000000 		.4byte	.LFB56
 4862 0b21 0A000000 		.4byte	.LFE56-.LFB56
 4863 0b25 01       		.uleb128 0x1
 4864 0b26 9C       		.byte	0x9c
 4865 0b27 540B0000 		.4byte	0xb54
 4866 0b2b 27       		.uleb128 0x27
 4867 0b2c 73747200 		.ascii	"str\000"
 4868 0b30 01       		.byte	0x1
 4869 0b31 7002     		.2byte	0x270
 4870 0b33 0F0B0000 		.4byte	0xb0f
 4871 0b37 01       		.uleb128 0x1
 4872 0b38 50       		.byte	0x50
 4873 0b39 28       		.uleb128 0x28
 4874 0b3a 6E00     		.ascii	"n\000"
 4875 0b3c 01       		.byte	0x1
 4876 0b3d 7002     		.2byte	0x270
 4877 0b3f 7A000000 		.4byte	0x7a
 4878 0b43 1F000000 		.4byte	.LLST7
ARM GAS  /tmp/ccUc3O3E.s 			page 87


 4879 0b47 29       		.uleb128 0x29
 4880 0b48 7300     		.ascii	"s\000"
 4881 0b4a 01       		.byte	0x1
 4882 0b4b 7102     		.2byte	0x271
 4883 0b4d 090B0000 		.4byte	0xb09
 4884 0b51 01       		.uleb128 0x1
 4885 0b52 52       		.byte	0x52
 4886 0b53 00       		.byte	0
 4887 0b54 2A       		.uleb128 0x2a
 4888 0b55 0B000000 		.4byte	.LASF152
 4889 0b59 01       		.byte	0x1
 4890 0b5a 6802     		.2byte	0x268
 4891 0b5c 6F050000 		.4byte	0x56f
 4892 0b60 00000000 		.4byte	.LFB55
 4893 0b64 0C000000 		.4byte	.LFE55-.LFB55
 4894 0b68 01       		.uleb128 0x1
 4895 0b69 9C       		.byte	0x9c
 4896 0b6a A90B0000 		.4byte	0xba9
 4897 0b6e 28       		.uleb128 0x28
 4898 0b6f 73747200 		.ascii	"str\000"
 4899 0b73 01       		.byte	0x1
 4900 0b74 6802     		.2byte	0x268
 4901 0b76 0F0B0000 		.4byte	0xb0f
 4902 0b7a 40000000 		.4byte	.LLST3
 4903 0b7e 28       		.uleb128 0x28
 4904 0b7f 6E00     		.ascii	"n\000"
 4905 0b81 01       		.byte	0x1
 4906 0b82 6802     		.2byte	0x268
 4907 0b84 7A000000 		.4byte	0x7a
 4908 0b88 61000000 		.4byte	.LLST4
 4909 0b8c 2B       		.uleb128 0x2b
 4910 0b8d 7300     		.ascii	"s\000"
 4911 0b8f 01       		.byte	0x1
 4912 0b90 6902     		.2byte	0x269
 4913 0b92 090B0000 		.4byte	0xb09
 4914 0b96 82000000 		.4byte	.LLST5
 4915 0b9a 2B       		.uleb128 0x2b
 4916 0b9b 6300     		.ascii	"c\000"
 4917 0b9d 01       		.byte	0x1
 4918 0b9e 6C02     		.2byte	0x26c
 4919 0ba0 6F050000 		.4byte	0x56f
 4920 0ba4 AE000000 		.4byte	.LLST6
 4921 0ba8 00       		.byte	0
 4922 0ba9 2A       		.uleb128 0x2a
 4923 0baa 39060000 		.4byte	.LASF153
 4924 0bae 01       		.byte	0x1
 4925 0baf 6002     		.2byte	0x260
 4926 0bb1 6F050000 		.4byte	0x56f
 4927 0bb5 00000000 		.4byte	.LFB54
 4928 0bb9 0E000000 		.4byte	.LFE54-.LFB54
 4929 0bbd 01       		.uleb128 0x1
 4930 0bbe 9C       		.byte	0x9c
 4931 0bbf EC0B0000 		.4byte	0xbec
 4932 0bc3 28       		.uleb128 0x28
 4933 0bc4 73747200 		.ascii	"str\000"
 4934 0bc8 01       		.byte	0x1
 4935 0bc9 6002     		.2byte	0x260
ARM GAS  /tmp/ccUc3O3E.s 			page 88


 4936 0bcb 0F0B0000 		.4byte	0xb0f
 4937 0bcf 13010000 		.4byte	.LLST2
 4938 0bd3 29       		.uleb128 0x29
 4939 0bd4 7300     		.ascii	"s\000"
 4940 0bd6 01       		.byte	0x1
 4941 0bd7 6102     		.2byte	0x261
 4942 0bd9 090B0000 		.4byte	0xb09
 4943 0bdd 01       		.uleb128 0x1
 4944 0bde 52       		.byte	0x52
 4945 0bdf 29       		.uleb128 0x29
 4946 0be0 6300     		.ascii	"c\000"
 4947 0be2 01       		.byte	0x1
 4948 0be3 6302     		.2byte	0x263
 4949 0be5 6F050000 		.4byte	0x56f
 4950 0be9 01       		.uleb128 0x1
 4951 0bea 50       		.byte	0x50
 4952 0beb 00       		.byte	0
 4953 0bec 2A       		.uleb128 0x2a
 4954 0bed F9040000 		.4byte	.LASF154
 4955 0bf1 01       		.byte	0x1
 4956 0bf2 5A02     		.2byte	0x25a
 4957 0bf4 6A090000 		.4byte	0x96a
 4958 0bf8 00000000 		.4byte	.LFB53
 4959 0bfc 10000000 		.4byte	.LFE53-.LFB53
 4960 0c00 01       		.uleb128 0x1
 4961 0c01 9C       		.byte	0x9c
 4962 0c02 250C0000 		.4byte	0xc25
 4963 0c06 28       		.uleb128 0x28
 4964 0c07 73747200 		.ascii	"str\000"
 4965 0c0b 01       		.byte	0x1
 4966 0c0c 5A02     		.2byte	0x25a
 4967 0c0e 0F0B0000 		.4byte	0xb0f
 4968 0c12 34010000 		.4byte	.LLST0
 4969 0c16 2B       		.uleb128 0x2b
 4970 0c17 7300     		.ascii	"s\000"
 4971 0c19 01       		.byte	0x1
 4972 0c1a 5B02     		.2byte	0x25b
 4973 0c1c 090B0000 		.4byte	0xb09
 4974 0c20 55010000 		.4byte	.LLST1
 4975 0c24 00       		.byte	0
 4976 0c25 2A       		.uleb128 0x2a
 4977 0c26 1D040000 		.4byte	.LASF155
 4978 0c2a 01       		.byte	0x1
 4979 0c2b C401     		.2byte	0x1c4
 4980 0c2d D4080000 		.4byte	0x8d4
 4981 0c31 00000000 		.4byte	.LFB52
 4982 0c35 5C020000 		.4byte	.LFE52-.LFB52
 4983 0c39 01       		.uleb128 0x1
 4984 0c3a 9C       		.byte	0x9c
 4985 0c3b 16120000 		.4byte	0x1216
 4986 0c3f 28       		.uleb128 0x28
 4987 0c40 73747200 		.ascii	"str\000"
 4988 0c44 01       		.byte	0x1
 4989 0c45 C401     		.2byte	0x1c4
 4990 0c47 0F0B0000 		.4byte	0xb0f
 4991 0c4b 81010000 		.4byte	.LLST237
 4992 0c4f 2C       		.uleb128 0x2c
ARM GAS  /tmp/ccUc3O3E.s 			page 89


 4993 0c50 C4040000 		.4byte	.LASF156
 4994 0c54 01       		.byte	0x1
 4995 0c55 C601     		.2byte	0x1c6
 4996 0c57 F5080000 		.4byte	0x8f5
 4997 0c5b 02       		.uleb128 0x2
 4998 0c5c 91       		.byte	0x91
 4999 0c5d 5C       		.sleb128 -36
 5000 0c5e 2C       		.uleb128 0x2c
 5001 0c5f FF000000 		.4byte	.LASF157
 5002 0c63 01       		.byte	0x1
 5003 0c64 C701     		.2byte	0x1c7
 5004 0c66 EA080000 		.4byte	0x8ea
 5005 0c6a 02       		.uleb128 0x2
 5006 0c6b 91       		.byte	0x91
 5007 0c6c 60       		.sleb128 -32
 5008 0c6d 2C       		.uleb128 0x2c
 5009 0c6e 73050000 		.4byte	.LASF158
 5010 0c72 01       		.byte	0x1
 5011 0c73 C801     		.2byte	0x1c8
 5012 0c75 6F050000 		.4byte	0x56f
 5013 0c79 02       		.uleb128 0x2
 5014 0c7a 91       		.byte	0x91
 5015 0c7b 6C       		.sleb128 -20
 5016 0c7c 2C       		.uleb128 0x2c
 5017 0c7d A1030000 		.4byte	.LASF159
 5018 0c81 01       		.byte	0x1
 5019 0c82 C901     		.2byte	0x1c9
 5020 0c84 00090000 		.4byte	0x900
 5021 0c88 02       		.uleb128 0x2
 5022 0c89 91       		.byte	0x91
 5023 0c8a 64       		.sleb128 -28
 5024 0c8b 2B       		.uleb128 0x2b
 5025 0c8c 6E00     		.ascii	"n\000"
 5026 0c8e 01       		.byte	0x1
 5027 0c8f CA01     		.2byte	0x1ca
 5028 0c91 73000000 		.4byte	0x73
 5029 0c95 E7010000 		.4byte	.LLST238
 5030 0c99 2D       		.uleb128 0x2d
 5031 0c9a 9C000000 		.4byte	.LASF160
 5032 0c9e 01       		.byte	0x1
 5033 0c9f D101     		.2byte	0x1d1
 5034 0ca1 6A090000 		.4byte	0x96a
 5035 0ca5 60020000 		.4byte	.LLST239
 5036 0ca9 2B       		.uleb128 0x2b
 5037 0caa 72657300 		.ascii	"res\000"
 5038 0cae 01       		.byte	0x1
 5039 0caf E301     		.2byte	0x1e3
 5040 0cb1 D4080000 		.4byte	0x8d4
 5041 0cb5 8C020000 		.4byte	.LLST240
 5042 0cb9 2D       		.uleb128 0x2d
 5043 0cba 79050000 		.4byte	.LASF161
 5044 0cbe 01       		.byte	0x1
 5045 0cbf E401     		.2byte	0x1e4
 5046 0cc1 AE080000 		.4byte	0x8ae
 5047 0cc5 48030000 		.4byte	.LLST241
 5048 0cc9 2E       		.uleb128 0x2e
 5049 0cca DA000000 		.4byte	.LBB689
ARM GAS  /tmp/ccUc3O3E.s 			page 90


 5050 0cce 2A000000 		.4byte	.LBE689-.LBB689
 5051 0cd2 520D0000 		.4byte	0xd52
 5052 0cd6 2B       		.uleb128 0x2b
 5053 0cd7 61727200 		.ascii	"arr\000"
 5054 0cdb 01       		.byte	0x1
 5055 0cdc 1F02     		.2byte	0x21f
 5056 0cde 16120000 		.4byte	0x1216
 5057 0ce2 E4040000 		.4byte	.LLST256
 5058 0ce6 2D       		.uleb128 0x2d
 5059 0ce7 C3050000 		.4byte	.LASF142
 5060 0ceb 01       		.byte	0x1
 5061 0cec 2002     		.2byte	0x220
 5062 0cee 69050000 		.4byte	0x569
 5063 0cf2 F7040000 		.4byte	.LLST257
 5064 0cf6 2F       		.uleb128 0x2f
 5065 0cf7 E6000000 		.4byte	.LVL365
 5066 0cfb F22D0000 		.4byte	0x2df2
 5067 0cff 150D0000 		.4byte	0xd15
 5068 0d03 30       		.uleb128 0x30
 5069 0d04 01       		.uleb128 0x1
 5070 0d05 50       		.byte	0x50
 5071 0d06 02       		.uleb128 0x2
 5072 0d07 91       		.byte	0x91
 5073 0d08 68       		.sleb128 -24
 5074 0d09 30       		.uleb128 0x30
 5075 0d0a 01       		.uleb128 0x1
 5076 0d0b 51       		.byte	0x51
 5077 0d0c 02       		.uleb128 0x2
 5078 0d0d 74       		.byte	0x74
 5079 0d0e 00       		.sleb128 0
 5080 0d0f 30       		.uleb128 0x30
 5081 0d10 01       		.uleb128 0x1
 5082 0d11 52       		.byte	0x52
 5083 0d12 01       		.uleb128 0x1
 5084 0d13 34       		.byte	0x34
 5085 0d14 00       		.byte	0
 5086 0d15 31       		.uleb128 0x31
 5087 0d16 EC000000 		.4byte	.LVL366
 5088 0d1a FE2D0000 		.4byte	0x2dfe
 5089 0d1e 2F       		.uleb128 0x2f
 5090 0d1f F8000000 		.4byte	.LVL369
 5091 0d23 0A2E0000 		.4byte	0x2e0a
 5092 0d27 380D0000 		.4byte	0xd38
 5093 0d2b 30       		.uleb128 0x30
 5094 0d2c 01       		.uleb128 0x1
 5095 0d2d 51       		.byte	0x51
 5096 0d2e 02       		.uleb128 0x2
 5097 0d2f 75       		.byte	0x75
 5098 0d30 00       		.sleb128 0
 5099 0d31 30       		.uleb128 0x30
 5100 0d32 01       		.uleb128 0x1
 5101 0d33 52       		.byte	0x52
 5102 0d34 02       		.uleb128 0x2
 5103 0d35 74       		.byte	0x74
 5104 0d36 00       		.sleb128 0
 5105 0d37 00       		.byte	0
 5106 0d38 32       		.uleb128 0x32
ARM GAS  /tmp/ccUc3O3E.s 			page 91


 5107 0d39 00010000 		.4byte	.LVL370
 5108 0d3d 192E0000 		.4byte	0x2e19
 5109 0d41 30       		.uleb128 0x30
 5110 0d42 01       		.uleb128 0x1
 5111 0d43 51       		.byte	0x51
 5112 0d44 05       		.uleb128 0x5
 5113 0d45 03       		.byte	0x3
 5114 0d46 00000000 		.4byte	.LANCHOR1
 5115 0d4a 30       		.uleb128 0x30
 5116 0d4b 01       		.uleb128 0x1
 5117 0d4c 52       		.byte	0x52
 5118 0d4d 02       		.uleb128 0x2
 5119 0d4e 76       		.byte	0x76
 5120 0d4f 7E       		.sleb128 -2
 5121 0d50 00       		.byte	0
 5122 0d51 00       		.byte	0
 5123 0d52 33       		.uleb128 0x33
 5124 0d53 90030000 		.4byte	.Ldebug_ranges0+0x390
 5125 0d57 BB0D0000 		.4byte	0xdbb
 5126 0d5b 2C       		.uleb128 0x2c
 5127 0d5c E0010000 		.4byte	.LASF162
 5128 0d60 01       		.byte	0x1
 5129 0d61 4302     		.2byte	0x243
 5130 0d63 EA080000 		.4byte	0x8ea
 5131 0d67 02       		.uleb128 0x2
 5132 0d68 91       		.byte	0x91
 5133 0d69 6C       		.sleb128 -20
 5134 0d6a 34       		.uleb128 0x34
 5135 0d6b E8280000 		.4byte	0x28e8
 5136 0d6f 4E020000 		.4byte	.LBB691
 5137 0d73 04000000 		.4byte	.LBE691-.LBB691
 5138 0d77 01       		.byte	0x1
 5139 0d78 4902     		.2byte	0x249
 5140 0d7a 840D0000 		.4byte	0xd84
 5141 0d7e 35       		.uleb128 0x35
 5142 0d7f F9280000 		.4byte	0x28f9
 5143 0d83 00       		.byte	0
 5144 0d84 2F       		.uleb128 0x2f
 5145 0d85 0C010000 		.4byte	.LVL372
 5146 0d89 282E0000 		.4byte	0x2e28
 5147 0d8d A10D0000 		.4byte	0xda1
 5148 0d91 30       		.uleb128 0x30
 5149 0d92 01       		.uleb128 0x1
 5150 0d93 50       		.byte	0x50
 5151 0d94 05       		.uleb128 0x5
 5152 0d95 03       		.byte	0x3
 5153 0d96 00000000 		.4byte	.LANCHOR1
 5154 0d9a 30       		.uleb128 0x30
 5155 0d9b 01       		.uleb128 0x1
 5156 0d9c 51       		.byte	0x51
 5157 0d9d 02       		.uleb128 0x2
 5158 0d9e 91       		.byte	0x91
 5159 0d9f 6C       		.sleb128 -20
 5160 0da0 00       		.byte	0
 5161 0da1 32       		.uleb128 0x32
 5162 0da2 48020000 		.4byte	.LVL430
 5163 0da6 332E0000 		.4byte	0x2e33
ARM GAS  /tmp/ccUc3O3E.s 			page 92


 5164 0daa 30       		.uleb128 0x30
 5165 0dab 01       		.uleb128 0x1
 5166 0dac 50       		.byte	0x50
 5167 0dad 05       		.uleb128 0x5
 5168 0dae 03       		.byte	0x3
 5169 0daf 00000000 		.4byte	.LANCHOR1
 5170 0db3 30       		.uleb128 0x30
 5171 0db4 01       		.uleb128 0x1
 5172 0db5 51       		.byte	0x51
 5173 0db6 02       		.uleb128 0x2
 5174 0db7 91       		.byte	0x91
 5175 0db8 6C       		.sleb128 -20
 5176 0db9 00       		.byte	0
 5177 0dba 00       		.byte	0
 5178 0dbb 36       		.uleb128 0x36
 5179 0dbc F4270000 		.4byte	0x27f4
 5180 0dc0 02000000 		.4byte	.LBB663
 5181 0dc4 30030000 		.4byte	.Ldebug_ranges0+0x330
 5182 0dc8 01       		.byte	0x1
 5183 0dc9 CC01     		.2byte	0x1cc
 5184 0dcb E50D0000 		.4byte	0xde5
 5185 0dcf 37       		.uleb128 0x37
 5186 0dd0 04280000 		.4byte	0x2804
 5187 0dd4 0A050000 		.4byte	.LLST242
 5188 0dd8 38       		.uleb128 0x38
 5189 0dd9 0A000000 		.4byte	.LVL334
 5190 0ddd 30       		.uleb128 0x30
 5191 0dde 01       		.uleb128 0x1
 5192 0ddf 50       		.byte	0x50
 5193 0de0 02       		.uleb128 0x2
 5194 0de1 74       		.byte	0x74
 5195 0de2 00       		.sleb128 0
 5196 0de3 00       		.byte	0
 5197 0de4 00       		.byte	0
 5198 0de5 34       		.uleb128 0x34
 5199 0de6 B3270000 		.4byte	0x27b3
 5200 0dea 0E000000 		.4byte	.LBB667
 5201 0dee 08000000 		.4byte	.LBE667-.LBB667
 5202 0df2 01       		.byte	0x1
 5203 0df3 D301     		.2byte	0x1d3
 5204 0df5 1D0E0000 		.4byte	0xe1d
 5205 0df9 37       		.uleb128 0x37
 5206 0dfa CE270000 		.4byte	0x27ce
 5207 0dfe 28050000 		.4byte	.LLST243
 5208 0e02 37       		.uleb128 0x37
 5209 0e03 C3270000 		.4byte	0x27c3
 5210 0e07 3C050000 		.4byte	.LLST244
 5211 0e0b 38       		.uleb128 0x38
 5212 0e0c 16000000 		.4byte	.LVL336
 5213 0e10 30       		.uleb128 0x30
 5214 0e11 01       		.uleb128 0x1
 5215 0e12 50       		.byte	0x50
 5216 0e13 02       		.uleb128 0x2
 5217 0e14 74       		.byte	0x74
 5218 0e15 00       		.sleb128 0
 5219 0e16 30       		.uleb128 0x30
 5220 0e17 01       		.uleb128 0x1
ARM GAS  /tmp/ccUc3O3E.s 			page 93


 5221 0e18 51       		.byte	0x51
 5222 0e19 01       		.uleb128 0x1
 5223 0e1a 30       		.byte	0x30
 5224 0e1b 00       		.byte	0
 5225 0e1c 00       		.byte	0
 5226 0e1d 36       		.uleb128 0x36
 5227 0e1e B3270000 		.4byte	0x27b3
 5228 0e22 1E000000 		.4byte	.LBB669
 5229 0e26 48030000 		.4byte	.Ldebug_ranges0+0x348
 5230 0e2a 01       		.byte	0x1
 5231 0e2b D701     		.2byte	0x1d7
 5232 0e2d 550E0000 		.4byte	0xe55
 5233 0e31 37       		.uleb128 0x37
 5234 0e32 CE270000 		.4byte	0x27ce
 5235 0e36 4F050000 		.4byte	.LLST245
 5236 0e3a 37       		.uleb128 0x37
 5237 0e3b C3270000 		.4byte	0x27c3
 5238 0e3f 63050000 		.4byte	.LLST246
 5239 0e43 38       		.uleb128 0x38
 5240 0e44 28000000 		.4byte	.LVL339
 5241 0e48 30       		.uleb128 0x30
 5242 0e49 01       		.uleb128 0x1
 5243 0e4a 50       		.byte	0x50
 5244 0e4b 02       		.uleb128 0x2
 5245 0e4c 74       		.byte	0x74
 5246 0e4d 00       		.sleb128 0
 5247 0e4e 30       		.uleb128 0x30
 5248 0e4f 01       		.uleb128 0x1
 5249 0e50 51       		.byte	0x51
 5250 0e51 01       		.uleb128 0x1
 5251 0e52 30       		.byte	0x30
 5252 0e53 00       		.byte	0
 5253 0e54 00       		.byte	0
 5254 0e55 34       		.uleb128 0x34
 5255 0e56 92270000 		.4byte	0x2792
 5256 0e5a 30000000 		.4byte	.LBB673
 5257 0e5e 0A000000 		.4byte	.LBE673-.LBB673
 5258 0e62 01       		.byte	0x1
 5259 0e63 D801     		.2byte	0x1d8
 5260 0e65 8D0E0000 		.4byte	0xe8d
 5261 0e69 37       		.uleb128 0x37
 5262 0e6a A9270000 		.4byte	0x27a9
 5263 0e6e 76050000 		.4byte	.LLST247
 5264 0e72 37       		.uleb128 0x37
 5265 0e73 9E270000 		.4byte	0x279e
 5266 0e77 8A050000 		.4byte	.LLST248
 5267 0e7b 38       		.uleb128 0x38
 5268 0e7c 38000000 		.4byte	.LVL341
 5269 0e80 30       		.uleb128 0x30
 5270 0e81 01       		.uleb128 0x1
 5271 0e82 50       		.byte	0x50
 5272 0e83 02       		.uleb128 0x2
 5273 0e84 74       		.byte	0x74
 5274 0e85 00       		.sleb128 0
 5275 0e86 30       		.uleb128 0x30
 5276 0e87 01       		.uleb128 0x1
 5277 0e88 51       		.byte	0x51
ARM GAS  /tmp/ccUc3O3E.s 			page 94


 5278 0e89 01       		.uleb128 0x1
 5279 0e8a 31       		.byte	0x31
 5280 0e8b 00       		.byte	0
 5281 0e8c 00       		.byte	0
 5282 0e8d 36       		.uleb128 0x36
 5283 0e8e B3270000 		.4byte	0x27b3
 5284 0e92 3A000000 		.4byte	.LBB675
 5285 0e96 60030000 		.4byte	.Ldebug_ranges0+0x360
 5286 0e9a 01       		.byte	0x1
 5287 0e9b D401     		.2byte	0x1d4
 5288 0e9d C00E0000 		.4byte	0xec0
 5289 0ea1 37       		.uleb128 0x37
 5290 0ea2 CE270000 		.4byte	0x27ce
 5291 0ea6 9D050000 		.4byte	.LLST249
 5292 0eaa 37       		.uleb128 0x37
 5293 0eab C3270000 		.4byte	0x27c3
 5294 0eaf BD050000 		.4byte	.LLST250
 5295 0eb3 38       		.uleb128 0x38
 5296 0eb4 40000000 		.4byte	.LVL343
 5297 0eb8 30       		.uleb128 0x30
 5298 0eb9 01       		.uleb128 0x1
 5299 0eba 50       		.byte	0x50
 5300 0ebb 02       		.uleb128 0x2
 5301 0ebc 74       		.byte	0x74
 5302 0ebd 00       		.sleb128 0
 5303 0ebe 00       		.byte	0
 5304 0ebf 00       		.byte	0
 5305 0ec0 36       		.uleb128 0x36
 5306 0ec1 92270000 		.4byte	0x2792
 5307 0ec5 42000000 		.4byte	.LBB678
 5308 0ec9 78030000 		.4byte	.Ldebug_ranges0+0x378
 5309 0ecd 01       		.byte	0x1
 5310 0ece D501     		.2byte	0x1d5
 5311 0ed0 F80E0000 		.4byte	0xef8
 5312 0ed4 37       		.uleb128 0x37
 5313 0ed5 A9270000 		.4byte	0x27a9
 5314 0ed9 DB050000 		.4byte	.LLST251
 5315 0edd 37       		.uleb128 0x37
 5316 0ede 9E270000 		.4byte	0x279e
 5317 0ee2 EF050000 		.4byte	.LLST252
 5318 0ee6 38       		.uleb128 0x38
 5319 0ee7 4E000000 		.4byte	.LVL345
 5320 0eeb 30       		.uleb128 0x30
 5321 0eec 01       		.uleb128 0x1
 5322 0eed 50       		.byte	0x50
 5323 0eee 02       		.uleb128 0x2
 5324 0eef 74       		.byte	0x74
 5325 0ef0 00       		.sleb128 0
 5326 0ef1 30       		.uleb128 0x30
 5327 0ef2 01       		.uleb128 0x1
 5328 0ef3 51       		.byte	0x51
 5329 0ef4 01       		.uleb128 0x1
 5330 0ef5 31       		.byte	0x31
 5331 0ef6 00       		.byte	0
 5332 0ef7 00       		.byte	0
 5333 0ef8 34       		.uleb128 0x34
 5334 0ef9 F4270000 		.4byte	0x27f4
ARM GAS  /tmp/ccUc3O3E.s 			page 95


 5335 0efd 4E000000 		.4byte	.LBB682
 5336 0f01 06000000 		.4byte	.LBE682-.LBB682
 5337 0f05 01       		.byte	0x1
 5338 0f06 D401     		.2byte	0x1d4
 5339 0f08 220F0000 		.4byte	0xf22
 5340 0f0c 37       		.uleb128 0x37
 5341 0f0d 04280000 		.4byte	0x2804
 5342 0f11 18060000 		.4byte	.LLST253
 5343 0f15 38       		.uleb128 0x38
 5344 0f16 54000000 		.4byte	.LVL346
 5345 0f1a 30       		.uleb128 0x30
 5346 0f1b 01       		.uleb128 0x1
 5347 0f1c 50       		.byte	0x50
 5348 0f1d 02       		.uleb128 0x2
 5349 0f1e 74       		.byte	0x74
 5350 0f1f 00       		.sleb128 0
 5351 0f20 00       		.byte	0
 5352 0f21 00       		.byte	0
 5353 0f22 34       		.uleb128 0x34
 5354 0f23 F4270000 		.4byte	0x27f4
 5355 0f27 5C000000 		.4byte	.LBB685
 5356 0f2b 06000000 		.4byte	.LBE685-.LBB685
 5357 0f2f 01       		.byte	0x1
 5358 0f30 DF01     		.2byte	0x1df
 5359 0f32 4C0F0000 		.4byte	0xf4c
 5360 0f36 37       		.uleb128 0x37
 5361 0f37 04280000 		.4byte	0x2804
 5362 0f3b 2B060000 		.4byte	.LLST254
 5363 0f3f 38       		.uleb128 0x38
 5364 0f40 62000000 		.4byte	.LVL348
 5365 0f44 30       		.uleb128 0x30
 5366 0f45 01       		.uleb128 0x1
 5367 0f46 50       		.byte	0x50
 5368 0f47 02       		.uleb128 0x2
 5369 0f48 74       		.byte	0x74
 5370 0f49 00       		.sleb128 0
 5371 0f4a 00       		.byte	0
 5372 0f4b 00       		.byte	0
 5373 0f4c 34       		.uleb128 0x34
 5374 0f4d B0280000 		.4byte	0x28b0
 5375 0f51 D0000000 		.4byte	.LBB687
 5376 0f55 08000000 		.4byte	.LBE687-.LBB687
 5377 0f59 01       		.byte	0x1
 5378 0f5a 3402     		.2byte	0x234
 5379 0f5c 6A0F0000 		.4byte	0xf6a
 5380 0f60 37       		.uleb128 0x37
 5381 0f61 C1280000 		.4byte	0x28c1
 5382 0f65 3E060000 		.4byte	.LLST255
 5383 0f69 00       		.byte	0
 5384 0f6a 34       		.uleb128 0x34
 5385 0f6b 34280000 		.4byte	0x2834
 5386 0f6f 72010000 		.4byte	.LBB693
 5387 0f73 2C000000 		.4byte	.LBE693-.LBB693
 5388 0f77 01       		.byte	0x1
 5389 0f78 2B02     		.2byte	0x22b
 5390 0f7a F60F0000 		.4byte	0xff6
 5391 0f7e 37       		.uleb128 0x37
ARM GAS  /tmp/ccUc3O3E.s 			page 96


 5392 0f7f 45280000 		.4byte	0x2845
 5393 0f83 52060000 		.4byte	.LLST258
 5394 0f87 39       		.uleb128 0x39
 5395 0f88 72010000 		.4byte	.LBB694
 5396 0f8c 2C000000 		.4byte	.LBE694-.LBB694
 5397 0f90 3A       		.uleb128 0x3a
 5398 0f91 4F280000 		.4byte	0x284f
 5399 0f95 52060000 		.4byte	.LLST258
 5400 0f99 3A       		.uleb128 0x3a
 5401 0f9a 59280000 		.4byte	0x2859
 5402 0f9e 66060000 		.4byte	.LLST260
 5403 0fa2 34       		.uleb128 0x34
 5404 0fa3 2A290000 		.4byte	0x292a
 5405 0fa7 7C010000 		.4byte	.LBB695
 5406 0fab 0C000000 		.4byte	.LBE695-.LBB695
 5407 0faf 02       		.byte	0x2
 5408 0fb0 FC01     		.2byte	0x1fc
 5409 0fb2 BC0F0000 		.4byte	0xfbc
 5410 0fb6 35       		.uleb128 0x35
 5411 0fb7 3B290000 		.4byte	0x293b
 5412 0fbb 00       		.byte	0
 5413 0fbc 34       		.uleb128 0x34
 5414 0fbd 04290000 		.4byte	0x2904
 5415 0fc1 8C010000 		.4byte	.LBB697
 5416 0fc5 12000000 		.4byte	.LBE697-.LBB697
 5417 0fc9 02       		.byte	0x2
 5418 0fca FD01     		.2byte	0x1fd
 5419 0fcc E30F0000 		.4byte	0xfe3
 5420 0fd0 37       		.uleb128 0x37
 5421 0fd1 1F290000 		.4byte	0x291f
 5422 0fd5 79060000 		.4byte	.LLST261
 5423 0fd9 37       		.uleb128 0x37
 5424 0fda 15290000 		.4byte	0x2915
 5425 0fde 8F060000 		.4byte	.LLST262
 5426 0fe2 00       		.byte	0
 5427 0fe3 32       		.uleb128 0x32
 5428 0fe4 7C010000 		.4byte	.LVL405
 5429 0fe8 3E2E0000 		.4byte	0x2e3e
 5430 0fec 30       		.uleb128 0x30
 5431 0fed 01       		.uleb128 0x1
 5432 0fee 51       		.byte	0x51
 5433 0fef 03       		.uleb128 0x3
 5434 0ff0 0A       		.byte	0xa
 5435 0ff1 3002     		.2byte	0x230
 5436 0ff3 00       		.byte	0
 5437 0ff4 00       		.byte	0
 5438 0ff5 00       		.byte	0
 5439 0ff6 34       		.uleb128 0x34
 5440 0ff7 64280000 		.4byte	0x2864
 5441 0ffb 9E010000 		.4byte	.LBB699
 5442 0fff 2E000000 		.4byte	.LBE699-.LBB699
 5443 1003 01       		.byte	0x1
 5444 1004 3002     		.2byte	0x230
 5445 1006 79100000 		.4byte	0x1079
 5446 100a 37       		.uleb128 0x37
 5447 100b 75280000 		.4byte	0x2875
 5448 100f A2060000 		.4byte	.LLST263
ARM GAS  /tmp/ccUc3O3E.s 			page 97


 5449 1013 39       		.uleb128 0x39
 5450 1014 9E010000 		.4byte	.LBB700
 5451 1018 2E000000 		.4byte	.LBE700-.LBB700
 5452 101c 3A       		.uleb128 0x3a
 5453 101d 7F280000 		.4byte	0x287f
 5454 1021 B6060000 		.4byte	.LLST264
 5455 1025 34       		.uleb128 0x34
 5456 1026 2A290000 		.4byte	0x292a
 5457 102a A8010000 		.4byte	.LBB701
 5458 102e 0C000000 		.4byte	.LBE701-.LBB701
 5459 1032 02       		.byte	0x2
 5460 1033 F401     		.2byte	0x1f4
 5461 1035 3F100000 		.4byte	0x103f
 5462 1039 35       		.uleb128 0x35
 5463 103a 3B290000 		.4byte	0x293b
 5464 103e 00       		.byte	0
 5465 103f 34       		.uleb128 0x34
 5466 1040 04290000 		.4byte	0x2904
 5467 1044 BA010000 		.4byte	.LBB703
 5468 1048 12000000 		.4byte	.LBE703-.LBB703
 5469 104c 02       		.byte	0x2
 5470 104d F501     		.2byte	0x1f5
 5471 104f 66100000 		.4byte	0x1066
 5472 1053 37       		.uleb128 0x37
 5473 1054 1F290000 		.4byte	0x291f
 5474 1058 C9060000 		.4byte	.LLST265
 5475 105c 37       		.uleb128 0x37
 5476 105d 15290000 		.4byte	0x2915
 5477 1061 DF060000 		.4byte	.LLST266
 5478 1065 00       		.byte	0
 5479 1066 32       		.uleb128 0x32
 5480 1067 A8010000 		.4byte	.LVL410
 5481 106b 3E2E0000 		.4byte	0x2e3e
 5482 106f 30       		.uleb128 0x30
 5483 1070 01       		.uleb128 0x1
 5484 1071 51       		.byte	0x51
 5485 1072 03       		.uleb128 0x3
 5486 1073 0A       		.byte	0xa
 5487 1074 2002     		.2byte	0x220
 5488 1076 00       		.byte	0
 5489 1077 00       		.byte	0
 5490 1078 00       		.byte	0
 5491 1079 34       		.uleb128 0x34
 5492 107a CC280000 		.4byte	0x28cc
 5493 107e E0010000 		.4byte	.LBB705
 5494 1082 08000000 		.4byte	.LBE705-.LBB705
 5495 1086 01       		.byte	0x1
 5496 1087 3D02     		.2byte	0x23d
 5497 1089 97100000 		.4byte	0x1097
 5498 108d 37       		.uleb128 0x37
 5499 108e DD280000 		.4byte	0x28dd
 5500 1092 F2060000 		.4byte	.LLST267
 5501 1096 00       		.byte	0
 5502 1097 34       		.uleb128 0x34
 5503 1098 8A280000 		.4byte	0x288a
 5504 109c EA010000 		.4byte	.LBB707
 5505 10a0 2E000000 		.4byte	.LBE707-.LBB707
ARM GAS  /tmp/ccUc3O3E.s 			page 98


 5506 10a4 01       		.byte	0x1
 5507 10a5 3802     		.2byte	0x238
 5508 10a7 1A110000 		.4byte	0x111a
 5509 10ab 37       		.uleb128 0x37
 5510 10ac 9B280000 		.4byte	0x289b
 5511 10b0 06070000 		.4byte	.LLST268
 5512 10b4 39       		.uleb128 0x39
 5513 10b5 EA010000 		.4byte	.LBB708
 5514 10b9 2E000000 		.4byte	.LBE708-.LBB708
 5515 10bd 3A       		.uleb128 0x3a
 5516 10be A5280000 		.4byte	0x28a5
 5517 10c2 1A070000 		.4byte	.LLST269
 5518 10c6 34       		.uleb128 0x34
 5519 10c7 2A290000 		.4byte	0x292a
 5520 10cb F4010000 		.4byte	.LBB709
 5521 10cf 0C000000 		.4byte	.LBE709-.LBB709
 5522 10d3 02       		.byte	0x2
 5523 10d4 EE01     		.2byte	0x1ee
 5524 10d6 E0100000 		.4byte	0x10e0
 5525 10da 35       		.uleb128 0x35
 5526 10db 3B290000 		.4byte	0x293b
 5527 10df 00       		.byte	0
 5528 10e0 34       		.uleb128 0x34
 5529 10e1 04290000 		.4byte	0x2904
 5530 10e5 06020000 		.4byte	.LBB711
 5531 10e9 12000000 		.4byte	.LBE711-.LBB711
 5532 10ed 02       		.byte	0x2
 5533 10ee EF01     		.2byte	0x1ef
 5534 10f0 07110000 		.4byte	0x1107
 5535 10f4 37       		.uleb128 0x37
 5536 10f5 1F290000 		.4byte	0x291f
 5537 10f9 2D070000 		.4byte	.LLST270
 5538 10fd 37       		.uleb128 0x37
 5539 10fe 15290000 		.4byte	0x2915
 5540 1102 43070000 		.4byte	.LLST271
 5541 1106 00       		.byte	0
 5542 1107 32       		.uleb128 0x32
 5543 1108 F4010000 		.4byte	.LVL419
 5544 110c 3E2E0000 		.4byte	0x2e3e
 5545 1110 30       		.uleb128 0x30
 5546 1111 01       		.uleb128 0x1
 5547 1112 51       		.byte	0x51
 5548 1113 03       		.uleb128 0x3
 5549 1114 0A       		.byte	0xa
 5550 1115 1002     		.2byte	0x210
 5551 1117 00       		.byte	0
 5552 1118 00       		.byte	0
 5553 1119 00       		.byte	0
 5554 111a 34       		.uleb128 0x34
 5555 111b 18280000 		.4byte	0x2818
 5556 111f 34020000 		.4byte	.LBB713
 5557 1123 0A000000 		.4byte	.LBE713-.LBB713
 5558 1127 01       		.byte	0x1
 5559 1128 5402     		.2byte	0x254
 5560 112a 38110000 		.4byte	0x1138
 5561 112e 37       		.uleb128 0x37
 5562 112f 29280000 		.4byte	0x2829
ARM GAS  /tmp/ccUc3O3E.s 			page 99


 5563 1133 56070000 		.4byte	.LLST272
 5564 1137 00       		.byte	0
 5565 1138 31       		.uleb128 0x31
 5566 1139 1E000000 		.4byte	.LVL337
 5567 113d 4A2E0000 		.4byte	0x2e4a
 5568 1141 2F       		.uleb128 0x2f
 5569 1142 6E000000 		.4byte	.LVL349
 5570 1146 B4260000 		.4byte	0x26b4
 5571 114a 55110000 		.4byte	0x1155
 5572 114e 30       		.uleb128 0x30
 5573 114f 01       		.uleb128 0x1
 5574 1150 50       		.byte	0x50
 5575 1151 02       		.uleb128 0x2
 5576 1152 74       		.byte	0x74
 5577 1153 00       		.sleb128 0
 5578 1154 00       		.byte	0
 5579 1155 2F       		.uleb128 0x2f
 5580 1156 A2000000 		.4byte	.LVL354
 5581 115a D0250000 		.4byte	0x25d0
 5582 115e 69110000 		.4byte	0x1169
 5583 1162 30       		.uleb128 0x30
 5584 1163 01       		.uleb128 0x1
 5585 1164 50       		.byte	0x50
 5586 1165 02       		.uleb128 0x2
 5587 1166 74       		.byte	0x74
 5588 1167 00       		.sleb128 0
 5589 1168 00       		.byte	0
 5590 1169 2F       		.uleb128 0x2f
 5591 116a B4000000 		.4byte	.LVL357
 5592 116e 1C120000 		.4byte	0x121c
 5593 1172 83110000 		.4byte	0x1183
 5594 1176 30       		.uleb128 0x30
 5595 1177 01       		.uleb128 0x1
 5596 1178 50       		.byte	0x50
 5597 1179 02       		.uleb128 0x2
 5598 117a 74       		.byte	0x74
 5599 117b 00       		.sleb128 0
 5600 117c 30       		.uleb128 0x30
 5601 117d 01       		.uleb128 0x1
 5602 117e 51       		.byte	0x51
 5603 117f 02       		.uleb128 0x2
 5604 1180 91       		.byte	0x91
 5605 1181 64       		.sleb128 -28
 5606 1182 00       		.byte	0
 5607 1183 2F       		.uleb128 0x2f
 5608 1184 C0000000 		.4byte	.LVL358
 5609 1188 B3140000 		.4byte	0x14b3
 5610 118c 9D110000 		.4byte	0x119d
 5611 1190 30       		.uleb128 0x30
 5612 1191 01       		.uleb128 0x1
 5613 1192 50       		.byte	0x50
 5614 1193 02       		.uleb128 0x2
 5615 1194 74       		.byte	0x74
 5616 1195 00       		.sleb128 0
 5617 1196 30       		.uleb128 0x30
 5618 1197 01       		.uleb128 0x1
 5619 1198 51       		.byte	0x51
ARM GAS  /tmp/ccUc3O3E.s 			page 100


 5620 1199 02       		.uleb128 0x2
 5621 119a 91       		.byte	0x91
 5622 119b 60       		.sleb128 -32
 5623 119c 00       		.byte	0
 5624 119d 2F       		.uleb128 0x2f
 5625 119e CC000000 		.4byte	.LVL359
 5626 11a2 D51A0000 		.4byte	0x1ad5
 5627 11a6 B7110000 		.4byte	0x11b7
 5628 11aa 30       		.uleb128 0x30
 5629 11ab 01       		.uleb128 0x1
 5630 11ac 50       		.byte	0x50
 5631 11ad 02       		.uleb128 0x2
 5632 11ae 74       		.byte	0x74
 5633 11af 00       		.sleb128 0
 5634 11b0 30       		.uleb128 0x30
 5635 11b1 01       		.uleb128 0x1
 5636 11b2 51       		.byte	0x51
 5637 11b3 02       		.uleb128 0x2
 5638 11b4 91       		.byte	0x91
 5639 11b5 60       		.sleb128 -32
 5640 11b6 00       		.byte	0
 5641 11b7 2F       		.uleb128 0x2f
 5642 11b8 D4010000 		.4byte	.LVL414
 5643 11bc FF1C0000 		.4byte	0x1cff
 5644 11c0 D1110000 		.4byte	0x11d1
 5645 11c4 30       		.uleb128 0x30
 5646 11c5 01       		.uleb128 0x1
 5647 11c6 50       		.byte	0x50
 5648 11c7 02       		.uleb128 0x2
 5649 11c8 74       		.byte	0x74
 5650 11c9 00       		.sleb128 0
 5651 11ca 30       		.uleb128 0x30
 5652 11cb 01       		.uleb128 0x1
 5653 11cc 51       		.byte	0x51
 5654 11cd 02       		.uleb128 0x2
 5655 11ce 91       		.byte	0x91
 5656 11cf 5C       		.sleb128 -36
 5657 11d0 00       		.byte	0
 5658 11d1 2F       		.uleb128 0x2f
 5659 11d2 DE010000 		.4byte	.LVL415
 5660 11d6 2F1F0000 		.4byte	0x1f2f
 5661 11da EB110000 		.4byte	0x11eb
 5662 11de 30       		.uleb128 0x30
 5663 11df 01       		.uleb128 0x1
 5664 11e0 50       		.byte	0x50
 5665 11e1 02       		.uleb128 0x2
 5666 11e2 74       		.byte	0x74
 5667 11e3 00       		.sleb128 0
 5668 11e4 30       		.uleb128 0x30
 5669 11e5 01       		.uleb128 0x1
 5670 11e6 51       		.byte	0x51
 5671 11e7 02       		.uleb128 0x2
 5672 11e8 91       		.byte	0x91
 5673 11e9 5C       		.sleb128 -36
 5674 11ea 00       		.byte	0
 5675 11eb 2F       		.uleb128 0x2f
 5676 11ec 1E020000 		.4byte	.LVL423
ARM GAS  /tmp/ccUc3O3E.s 			page 101


 5677 11f0 09260000 		.4byte	0x2609
 5678 11f4 FF110000 		.4byte	0x11ff
 5679 11f8 30       		.uleb128 0x30
 5680 11f9 01       		.uleb128 0x1
 5681 11fa 50       		.byte	0x50
 5682 11fb 02       		.uleb128 0x2
 5683 11fc 74       		.byte	0x74
 5684 11fd 00       		.sleb128 0
 5685 11fe 00       		.byte	0
 5686 11ff 32       		.uleb128 0x32
 5687 1200 2E020000 		.4byte	.LVL425
 5688 1204 47220000 		.4byte	0x2247
 5689 1208 30       		.uleb128 0x30
 5690 1209 01       		.uleb128 0x1
 5691 120a 50       		.byte	0x50
 5692 120b 02       		.uleb128 0x2
 5693 120c 74       		.byte	0x74
 5694 120d 00       		.sleb128 0
 5695 120e 30       		.uleb128 0x30
 5696 120f 01       		.uleb128 0x1
 5697 1210 51       		.byte	0x51
 5698 1211 02       		.uleb128 0x2
 5699 1212 91       		.byte	0x91
 5700 1213 6C       		.sleb128 -20
 5701 1214 00       		.byte	0
 5702 1215 00       		.byte	0
 5703 1216 06       		.uleb128 0x6
 5704 1217 04       		.byte	0x4
 5705 1218 370A0000 		.4byte	0xa37
 5706 121c 3B       		.uleb128 0x3b
 5707 121d 7C010000 		.4byte	.LASF163
 5708 1221 01       		.byte	0x1
 5709 1222 9C01     		.2byte	0x19c
 5710 1224 73000000 		.4byte	0x73
 5711 1228 00000000 		.4byte	.LFB51
 5712 122c D2000000 		.4byte	.LFE51-.LFB51
 5713 1230 01       		.uleb128 0x1
 5714 1231 9C       		.byte	0x9c
 5715 1232 9D140000 		.4byte	0x149d
 5716 1236 28       		.uleb128 0x28
 5717 1237 73747200 		.ascii	"str\000"
 5718 123b 01       		.byte	0x1
 5719 123c 9C01     		.2byte	0x19c
 5720 123e 0F0B0000 		.4byte	0xb0f
 5721 1242 6A070000 		.4byte	.LLST213
 5722 1246 28       		.uleb128 0x28
 5723 1247 72657300 		.ascii	"res\000"
 5724 124b 01       		.byte	0x1
 5725 124c 9C01     		.2byte	0x19c
 5726 124e 9D140000 		.4byte	0x149d
 5727 1252 B4070000 		.4byte	.LLST214
 5728 1256 2B       		.uleb128 0x2b
 5729 1257 6E00     		.ascii	"n\000"
 5730 1259 01       		.byte	0x1
 5731 125a 9E01     		.2byte	0x19e
 5732 125c 7A000000 		.4byte	0x7a
 5733 1260 D2070000 		.4byte	.LLST215
ARM GAS  /tmp/ccUc3O3E.s 			page 102


 5734 1264 2B       		.uleb128 0x2b
 5735 1265 6D00     		.ascii	"m\000"
 5736 1267 01       		.byte	0x1
 5737 1268 9F01     		.2byte	0x19f
 5738 126a 7A000000 		.4byte	0x7a
 5739 126e 1E080000 		.4byte	.LLST216
 5740 1272 2C       		.uleb128 0x2c
 5741 1273 5A000000 		.4byte	.LASF164
 5742 1277 01       		.byte	0x1
 5743 1278 A001     		.2byte	0x1a0
 5744 127a A3140000 		.4byte	0x14a3
 5745 127e 03       		.uleb128 0x3
 5746 127f 91       		.byte	0x91
 5747 1280 E07E     		.sleb128 -160
 5748 1282 2D       		.uleb128 0x2d
 5749 1283 4D060000 		.4byte	.LASF165
 5750 1287 01       		.byte	0x1
 5751 1288 A101     		.2byte	0x1a1
 5752 128a 6A090000 		.4byte	0x96a
 5753 128e 95080000 		.4byte	.LLST217
 5754 1292 2D       		.uleb128 0x2d
 5755 1293 B0070000 		.4byte	.LASF166
 5756 1297 01       		.byte	0x1
 5757 1298 A201     		.2byte	0x1a2
 5758 129a 6A090000 		.4byte	0x96a
 5759 129e B5080000 		.4byte	.LLST218
 5760 12a2 2E       		.uleb128 0x2e
 5761 12a3 94000000 		.4byte	.LBB614
 5762 12a7 2A000000 		.4byte	.LBE614-.LBB614
 5763 12ab FD120000 		.4byte	0x12fd
 5764 12af 2B       		.uleb128 0x2b
 5765 12b0 6900     		.ascii	"i\000"
 5766 12b2 01       		.byte	0x1
 5767 12b3 B701     		.2byte	0x1b7
 5768 12b5 7A000000 		.4byte	0x7a
 5769 12b9 04090000 		.4byte	.LLST235
 5770 12bd 34       		.uleb128 0x34
 5771 12be D8270000 		.4byte	0x27d8
 5772 12c2 94000000 		.4byte	.LBB615
 5773 12c6 06000000 		.4byte	.LBE615-.LBB615
 5774 12ca 01       		.byte	0x1
 5775 12cb B901     		.2byte	0x1b9
 5776 12cd E7120000 		.4byte	0x12e7
 5777 12d1 37       		.uleb128 0x37
 5778 12d2 E8270000 		.4byte	0x27e8
 5779 12d6 2B090000 		.4byte	.LLST236
 5780 12da 38       		.uleb128 0x38
 5781 12db 9A000000 		.4byte	.LVL325
 5782 12df 30       		.uleb128 0x30
 5783 12e0 01       		.uleb128 0x1
 5784 12e1 50       		.byte	0x50
 5785 12e2 02       		.uleb128 0x2
 5786 12e3 74       		.byte	0x74
 5787 12e4 00       		.sleb128 0
 5788 12e5 00       		.byte	0
 5789 12e6 00       		.byte	0
 5790 12e7 32       		.uleb128 0x32
ARM GAS  /tmp/ccUc3O3E.s 			page 103


 5791 12e8 B4000000 		.4byte	.LVL328
 5792 12ec 552E0000 		.4byte	0x2e55
 5793 12f0 30       		.uleb128 0x30
 5794 12f1 01       		.uleb128 0x1
 5795 12f2 50       		.byte	0x50
 5796 12f3 02       		.uleb128 0x2
 5797 12f4 7D       		.byte	0x7d
 5798 12f5 00       		.sleb128 0
 5799 12f6 30       		.uleb128 0x30
 5800 12f7 01       		.uleb128 0x1
 5801 12f8 51       		.byte	0x51
 5802 12f9 01       		.uleb128 0x1
 5803 12fa 30       		.byte	0x30
 5804 12fb 00       		.byte	0
 5805 12fc 00       		.byte	0
 5806 12fd 36       		.uleb128 0x36
 5807 12fe B3270000 		.4byte	0x27b3
 5808 1302 04000000 		.4byte	.LBB590
 5809 1306 E0020000 		.4byte	.Ldebug_ranges0+0x2e0
 5810 130a 01       		.byte	0x1
 5811 130b A401     		.2byte	0x1a4
 5812 130d 35130000 		.4byte	0x1335
 5813 1311 37       		.uleb128 0x37
 5814 1312 CE270000 		.4byte	0x27ce
 5815 1316 3E090000 		.4byte	.LLST219
 5816 131a 37       		.uleb128 0x37
 5817 131b C3270000 		.4byte	0x27c3
 5818 131f 52090000 		.4byte	.LLST220
 5819 1323 38       		.uleb128 0x38
 5820 1324 10000000 		.4byte	.LVL304
 5821 1328 30       		.uleb128 0x30
 5822 1329 01       		.uleb128 0x1
 5823 132a 50       		.byte	0x50
 5824 132b 02       		.uleb128 0x2
 5825 132c 74       		.byte	0x74
 5826 132d 00       		.sleb128 0
 5827 132e 30       		.uleb128 0x30
 5828 132f 01       		.uleb128 0x1
 5829 1330 51       		.byte	0x51
 5830 1331 01       		.uleb128 0x1
 5831 1332 30       		.byte	0x30
 5832 1333 00       		.byte	0
 5833 1334 00       		.byte	0
 5834 1335 36       		.uleb128 0x36
 5835 1336 B3270000 		.4byte	0x27b3
 5836 133a 1A000000 		.4byte	.LBB596
 5837 133e 00030000 		.4byte	.Ldebug_ranges0+0x300
 5838 1342 01       		.byte	0x1
 5839 1343 A901     		.2byte	0x1a9
 5840 1345 5C130000 		.4byte	0x135c
 5841 1349 37       		.uleb128 0x37
 5842 134a CE270000 		.4byte	0x27ce
 5843 134e 70090000 		.4byte	.LLST221
 5844 1352 37       		.uleb128 0x37
 5845 1353 C3270000 		.4byte	0x27c3
 5846 1357 99090000 		.4byte	.LLST222
 5847 135b 00       		.byte	0
ARM GAS  /tmp/ccUc3O3E.s 			page 104


 5848 135c 34       		.uleb128 0x34
 5849 135d B3270000 		.4byte	0x27b3
 5850 1361 24000000 		.4byte	.LBB599
 5851 1365 08000000 		.4byte	.LBE599-.LBB599
 5852 1369 01       		.byte	0x1
 5853 136a A901     		.2byte	0x1a9
 5854 136c 95130000 		.4byte	0x1395
 5855 1370 37       		.uleb128 0x37
 5856 1371 CE270000 		.4byte	0x27ce
 5857 1375 C2090000 		.4byte	.LLST223
 5858 1379 37       		.uleb128 0x37
 5859 137a C3270000 		.4byte	0x27c3
 5860 137e D5090000 		.4byte	.LLST224
 5861 1382 38       		.uleb128 0x38
 5862 1383 2C000000 		.4byte	.LVL308
 5863 1387 30       		.uleb128 0x30
 5864 1388 01       		.uleb128 0x1
 5865 1389 50       		.byte	0x50
 5866 138a 02       		.uleb128 0x2
 5867 138b 74       		.byte	0x74
 5868 138c 00       		.sleb128 0
 5869 138d 30       		.uleb128 0x30
 5870 138e 01       		.uleb128 0x1
 5871 138f 51       		.byte	0x51
 5872 1390 02       		.uleb128 0x2
 5873 1391 75       		.byte	0x75
 5874 1392 00       		.sleb128 0
 5875 1393 00       		.byte	0
 5876 1394 00       		.byte	0
 5877 1395 34       		.uleb128 0x34
 5878 1396 B3270000 		.4byte	0x27b3
 5879 139a 34000000 		.4byte	.LBB602
 5880 139e 08000000 		.4byte	.LBE602-.LBB602
 5881 13a2 01       		.byte	0x1
 5882 13a3 AB01     		.2byte	0x1ab
 5883 13a5 CE130000 		.4byte	0x13ce
 5884 13a9 37       		.uleb128 0x37
 5885 13aa CE270000 		.4byte	0x27ce
 5886 13ae E8090000 		.4byte	.LLST225
 5887 13b2 37       		.uleb128 0x37
 5888 13b3 C3270000 		.4byte	0x27c3
 5889 13b7 FB090000 		.4byte	.LLST226
 5890 13bb 38       		.uleb128 0x38
 5891 13bc 3C000000 		.4byte	.LVL310
 5892 13c0 30       		.uleb128 0x30
 5893 13c1 01       		.uleb128 0x1
 5894 13c2 50       		.byte	0x50
 5895 13c3 02       		.uleb128 0x2
 5896 13c4 74       		.byte	0x74
 5897 13c5 00       		.sleb128 0
 5898 13c6 30       		.uleb128 0x30
 5899 13c7 01       		.uleb128 0x1
 5900 13c8 51       		.byte	0x51
 5901 13c9 02       		.uleb128 0x2
 5902 13ca 75       		.byte	0x75
 5903 13cb 00       		.sleb128 0
 5904 13cc 00       		.byte	0
ARM GAS  /tmp/ccUc3O3E.s 			page 105


 5905 13cd 00       		.byte	0
 5906 13ce 34       		.uleb128 0x34
 5907 13cf B3270000 		.4byte	0x27b3
 5908 13d3 42000000 		.4byte	.LBB604
 5909 13d7 08000000 		.4byte	.LBE604-.LBB604
 5910 13db 01       		.byte	0x1
 5911 13dc AE01     		.2byte	0x1ae
 5912 13de 07140000 		.4byte	0x1407
 5913 13e2 37       		.uleb128 0x37
 5914 13e3 CE270000 		.4byte	0x27ce
 5915 13e7 0E0A0000 		.4byte	.LLST227
 5916 13eb 37       		.uleb128 0x37
 5917 13ec C3270000 		.4byte	0x27c3
 5918 13f0 210A0000 		.4byte	.LLST228
 5919 13f4 38       		.uleb128 0x38
 5920 13f5 4A000000 		.4byte	.LVL312
 5921 13f9 30       		.uleb128 0x30
 5922 13fa 01       		.uleb128 0x1
 5923 13fb 50       		.byte	0x50
 5924 13fc 02       		.uleb128 0x2
 5925 13fd 74       		.byte	0x74
 5926 13fe 00       		.sleb128 0
 5927 13ff 30       		.uleb128 0x30
 5928 1400 01       		.uleb128 0x1
 5929 1401 51       		.byte	0x51
 5930 1402 02       		.uleb128 0x2
 5931 1403 75       		.byte	0x75
 5932 1404 00       		.sleb128 0
 5933 1405 00       		.byte	0
 5934 1406 00       		.byte	0
 5935 1407 34       		.uleb128 0x34
 5936 1408 B3270000 		.4byte	0x27b3
 5937 140c 4E000000 		.4byte	.LBB606
 5938 1410 08000000 		.4byte	.LBE606-.LBB606
 5939 1414 01       		.byte	0x1
 5940 1415 AE01     		.2byte	0x1ae
 5941 1417 40140000 		.4byte	0x1440
 5942 141b 37       		.uleb128 0x37
 5943 141c CE270000 		.4byte	0x27ce
 5944 1420 340A0000 		.4byte	.LLST229
 5945 1424 37       		.uleb128 0x37
 5946 1425 C3270000 		.4byte	0x27c3
 5947 1429 470A0000 		.4byte	.LLST230
 5948 142d 38       		.uleb128 0x38
 5949 142e 56000000 		.4byte	.LVL314
 5950 1432 30       		.uleb128 0x30
 5951 1433 01       		.uleb128 0x1
 5952 1434 50       		.byte	0x50
 5953 1435 02       		.uleb128 0x2
 5954 1436 74       		.byte	0x74
 5955 1437 00       		.sleb128 0
 5956 1438 30       		.uleb128 0x30
 5957 1439 01       		.uleb128 0x1
 5958 143a 51       		.byte	0x51
 5959 143b 02       		.uleb128 0x2
 5960 143c 75       		.byte	0x75
 5961 143d 00       		.sleb128 0
ARM GAS  /tmp/ccUc3O3E.s 			page 106


 5962 143e 00       		.byte	0
 5963 143f 00       		.byte	0
 5964 1440 36       		.uleb128 0x36
 5965 1441 B3270000 		.4byte	0x27b3
 5966 1445 64000000 		.4byte	.LBB608
 5967 1449 18030000 		.4byte	.Ldebug_ranges0+0x318
 5968 144d 01       		.byte	0x1
 5969 144e AF01     		.2byte	0x1af
 5970 1450 67140000 		.4byte	0x1467
 5971 1454 37       		.uleb128 0x37
 5972 1455 CE270000 		.4byte	0x27ce
 5973 1459 5A0A0000 		.4byte	.LLST231
 5974 145d 37       		.uleb128 0x37
 5975 145e C3270000 		.4byte	0x27c3
 5976 1462 830A0000 		.4byte	.LLST232
 5977 1466 00       		.byte	0
 5978 1467 3C       		.uleb128 0x3c
 5979 1468 B3270000 		.4byte	0x27b3
 5980 146c 6E000000 		.4byte	.LBB611
 5981 1470 08000000 		.4byte	.LBE611-.LBB611
 5982 1474 01       		.byte	0x1
 5983 1475 AF01     		.2byte	0x1af
 5984 1477 37       		.uleb128 0x37
 5985 1478 CE270000 		.4byte	0x27ce
 5986 147c AC0A0000 		.4byte	.LLST233
 5987 1480 37       		.uleb128 0x37
 5988 1481 C3270000 		.4byte	0x27c3
 5989 1485 BF0A0000 		.4byte	.LLST234
 5990 1489 38       		.uleb128 0x38
 5991 148a 76000000 		.4byte	.LVL320
 5992 148e 30       		.uleb128 0x30
 5993 148f 01       		.uleb128 0x1
 5994 1490 50       		.byte	0x50
 5995 1491 02       		.uleb128 0x2
 5996 1492 74       		.byte	0x74
 5997 1493 00       		.sleb128 0
 5998 1494 30       		.uleb128 0x30
 5999 1495 01       		.uleb128 0x1
 6000 1496 51       		.byte	0x51
 6001 1497 02       		.uleb128 0x2
 6002 1498 75       		.byte	0x75
 6003 1499 00       		.sleb128 0
 6004 149a 00       		.byte	0
 6005 149b 00       		.byte	0
 6006 149c 00       		.byte	0
 6007 149d 06       		.uleb128 0x6
 6008 149e 04       		.byte	0x4
 6009 149f 00090000 		.4byte	0x900
 6010 14a3 0B       		.uleb128 0xb
 6011 14a4 6F050000 		.4byte	0x56f
 6012 14a8 B3140000 		.4byte	0x14b3
 6013 14ac 0C       		.uleb128 0xc
 6014 14ad 7A000000 		.4byte	0x7a
 6015 14b1 7F       		.byte	0x7f
 6016 14b2 00       		.byte	0
 6017 14b3 3B       		.uleb128 0x3b
 6018 14b4 B7040000 		.4byte	.LASF167
ARM GAS  /tmp/ccUc3O3E.s 			page 107


 6019 14b8 01       		.byte	0x1
 6020 14b9 6201     		.2byte	0x162
 6021 14bb 73000000 		.4byte	0x73
 6022 14bf 00000000 		.4byte	.LFB50
 6023 14c3 AE010000 		.4byte	.LFE50-.LFB50
 6024 14c7 01       		.uleb128 0x1
 6025 14c8 9C       		.byte	0x9c
 6026 14c9 CF1A0000 		.4byte	0x1acf
 6027 14cd 28       		.uleb128 0x28
 6028 14ce 73747200 		.ascii	"str\000"
 6029 14d2 01       		.byte	0x1
 6030 14d3 6201     		.2byte	0x162
 6031 14d5 0F0B0000 		.4byte	0xb0f
 6032 14d9 D20A0000 		.4byte	.LLST156
 6033 14dd 28       		.uleb128 0x28
 6034 14de 72657300 		.ascii	"res\000"
 6035 14e2 01       		.byte	0x1
 6036 14e3 6201     		.2byte	0x162
 6037 14e5 CF1A0000 		.4byte	0x1acf
 6038 14e9 480B0000 		.4byte	.LLST157
 6039 14ed 2B       		.uleb128 0x2b
 6040 14ee 61636300 		.ascii	"acc\000"
 6041 14f2 01       		.byte	0x1
 6042 14f3 6301     		.2byte	0x163
 6043 14f5 EA080000 		.4byte	0x8ea
 6044 14f9 660B0000 		.4byte	.LLST158
 6045 14fd 2B       		.uleb128 0x2b
 6046 14fe 6E00     		.ascii	"n\000"
 6047 1500 01       		.byte	0x1
 6048 1501 6401     		.2byte	0x164
 6049 1503 7A000000 		.4byte	0x7a
 6050 1507 CB0B0000 		.4byte	.LLST159
 6051 150b 2D       		.uleb128 0x2d
 6052 150c 4D060000 		.4byte	.LASF165
 6053 1510 01       		.byte	0x1
 6054 1511 6501     		.2byte	0x165
 6055 1513 6A090000 		.4byte	0x96a
 6056 1517 720C0000 		.4byte	.LLST160
 6057 151b 2D       		.uleb128 0x2d
 6058 151c B0070000 		.4byte	.LASF166
 6059 1520 01       		.byte	0x1
 6060 1521 6601     		.2byte	0x166
 6061 1523 6A090000 		.4byte	0x96a
 6062 1527 910C0000 		.4byte	.LLST161
 6063 152b 33       		.uleb128 0x33
 6064 152c 90020000 		.4byte	.Ldebug_ranges0+0x290
 6065 1530 D0160000 		.4byte	0x16d0
 6066 1534 2B       		.uleb128 0x2b
 6067 1535 76616C00 		.ascii	"val\000"
 6068 1539 01       		.byte	0x1
 6069 153a 7401     		.2byte	0x174
 6070 153c EA080000 		.4byte	0x8ea
 6071 1540 EB0C0000 		.4byte	.LLST182
 6072 1544 34       		.uleb128 0x34
 6073 1545 B3270000 		.4byte	0x27b3
 6074 1549 C0000000 		.4byte	.LBB553
 6075 154d 08000000 		.4byte	.LBE553-.LBB553
ARM GAS  /tmp/ccUc3O3E.s 			page 108


 6076 1551 01       		.byte	0x1
 6077 1552 7501     		.2byte	0x175
 6078 1554 7D150000 		.4byte	0x157d
 6079 1558 37       		.uleb128 0x37
 6080 1559 CE270000 		.4byte	0x27ce
 6081 155d 140D0000 		.4byte	.LLST183
 6082 1561 37       		.uleb128 0x37
 6083 1562 C3270000 		.4byte	0x27c3
 6084 1566 270D0000 		.4byte	.LLST184
 6085 156a 38       		.uleb128 0x38
 6086 156b C8000000 		.4byte	.LVL261
 6087 156f 30       		.uleb128 0x30
 6088 1570 01       		.uleb128 0x1
 6089 1571 50       		.byte	0x50
 6090 1572 02       		.uleb128 0x2
 6091 1573 74       		.byte	0x74
 6092 1574 00       		.sleb128 0
 6093 1575 30       		.uleb128 0x30
 6094 1576 01       		.uleb128 0x1
 6095 1577 51       		.byte	0x51
 6096 1578 02       		.uleb128 0x2
 6097 1579 75       		.byte	0x75
 6098 157a 00       		.sleb128 0
 6099 157b 00       		.byte	0
 6100 157c 00       		.byte	0
 6101 157d 34       		.uleb128 0x34
 6102 157e B3270000 		.4byte	0x27b3
 6103 1582 CC000000 		.4byte	.LBB555
 6104 1586 08000000 		.4byte	.LBE555-.LBB555
 6105 158a 01       		.byte	0x1
 6106 158b 7601     		.2byte	0x176
 6107 158d B6150000 		.4byte	0x15b6
 6108 1591 37       		.uleb128 0x37
 6109 1592 CE270000 		.4byte	0x27ce
 6110 1596 3A0D0000 		.4byte	.LLST185
 6111 159a 37       		.uleb128 0x37
 6112 159b C3270000 		.4byte	0x27c3
 6113 159f 4D0D0000 		.4byte	.LLST186
 6114 15a3 38       		.uleb128 0x38
 6115 15a4 D4000000 		.4byte	.LVL263
 6116 15a8 30       		.uleb128 0x30
 6117 15a9 01       		.uleb128 0x1
 6118 15aa 50       		.byte	0x50
 6119 15ab 02       		.uleb128 0x2
 6120 15ac 74       		.byte	0x74
 6121 15ad 00       		.sleb128 0
 6122 15ae 30       		.uleb128 0x30
 6123 15af 01       		.uleb128 0x1
 6124 15b0 51       		.byte	0x51
 6125 15b1 02       		.uleb128 0x2
 6126 15b2 75       		.byte	0x75
 6127 15b3 00       		.sleb128 0
 6128 15b4 00       		.byte	0
 6129 15b5 00       		.byte	0
 6130 15b6 34       		.uleb128 0x34
 6131 15b7 B3270000 		.4byte	0x27b3
 6132 15bb 24010000 		.4byte	.LBB557
ARM GAS  /tmp/ccUc3O3E.s 			page 109


 6133 15bf 08000000 		.4byte	.LBE557-.LBB557
 6134 15c3 01       		.byte	0x1
 6135 15c4 7501     		.2byte	0x175
 6136 15c6 EF150000 		.4byte	0x15ef
 6137 15ca 37       		.uleb128 0x37
 6138 15cb CE270000 		.4byte	0x27ce
 6139 15cf 600D0000 		.4byte	.LLST187
 6140 15d3 37       		.uleb128 0x37
 6141 15d4 C3270000 		.4byte	0x27c3
 6142 15d8 730D0000 		.4byte	.LLST188
 6143 15dc 38       		.uleb128 0x38
 6144 15dd 2C010000 		.4byte	.LVL279
 6145 15e1 30       		.uleb128 0x30
 6146 15e2 01       		.uleb128 0x1
 6147 15e3 50       		.byte	0x50
 6148 15e4 02       		.uleb128 0x2
 6149 15e5 74       		.byte	0x74
 6150 15e6 00       		.sleb128 0
 6151 15e7 30       		.uleb128 0x30
 6152 15e8 01       		.uleb128 0x1
 6153 15e9 51       		.byte	0x51
 6154 15ea 02       		.uleb128 0x2
 6155 15eb 75       		.byte	0x75
 6156 15ec 00       		.sleb128 0
 6157 15ed 00       		.byte	0
 6158 15ee 00       		.byte	0
 6159 15ef 34       		.uleb128 0x34
 6160 15f0 B3270000 		.4byte	0x27b3
 6161 15f4 30010000 		.4byte	.LBB559
 6162 15f8 08000000 		.4byte	.LBE559-.LBB559
 6163 15fc 01       		.byte	0x1
 6164 15fd 7701     		.2byte	0x177
 6165 15ff 28160000 		.4byte	0x1628
 6166 1603 37       		.uleb128 0x37
 6167 1604 CE270000 		.4byte	0x27ce
 6168 1608 860D0000 		.4byte	.LLST189
 6169 160c 37       		.uleb128 0x37
 6170 160d C3270000 		.4byte	0x27c3
 6171 1611 990D0000 		.4byte	.LLST190
 6172 1615 38       		.uleb128 0x38
 6173 1616 38010000 		.4byte	.LVL281
 6174 161a 30       		.uleb128 0x30
 6175 161b 01       		.uleb128 0x1
 6176 161c 50       		.byte	0x50
 6177 161d 02       		.uleb128 0x2
 6178 161e 74       		.byte	0x74
 6179 161f 00       		.sleb128 0
 6180 1620 30       		.uleb128 0x30
 6181 1621 01       		.uleb128 0x1
 6182 1622 51       		.byte	0x51
 6183 1623 02       		.uleb128 0x2
 6184 1624 75       		.byte	0x75
 6185 1625 00       		.sleb128 0
 6186 1626 00       		.byte	0
 6187 1627 00       		.byte	0
 6188 1628 34       		.uleb128 0x34
 6189 1629 B3270000 		.4byte	0x27b3
ARM GAS  /tmp/ccUc3O3E.s 			page 110


 6190 162d 3C010000 		.4byte	.LBB561
 6191 1631 08000000 		.4byte	.LBE561-.LBB561
 6192 1635 01       		.byte	0x1
 6193 1636 7701     		.2byte	0x177
 6194 1638 61160000 		.4byte	0x1661
 6195 163c 37       		.uleb128 0x37
 6196 163d CE270000 		.4byte	0x27ce
 6197 1641 AC0D0000 		.4byte	.LLST191
 6198 1645 37       		.uleb128 0x37
 6199 1646 C3270000 		.4byte	0x27c3
 6200 164a BF0D0000 		.4byte	.LLST192
 6201 164e 38       		.uleb128 0x38
 6202 164f 44010000 		.4byte	.LVL283
 6203 1653 30       		.uleb128 0x30
 6204 1654 01       		.uleb128 0x1
 6205 1655 50       		.byte	0x50
 6206 1656 02       		.uleb128 0x2
 6207 1657 74       		.byte	0x74
 6208 1658 00       		.sleb128 0
 6209 1659 30       		.uleb128 0x30
 6210 165a 01       		.uleb128 0x1
 6211 165b 51       		.byte	0x51
 6212 165c 02       		.uleb128 0x2
 6213 165d 75       		.byte	0x75
 6214 165e 00       		.sleb128 0
 6215 165f 00       		.byte	0
 6216 1660 00       		.byte	0
 6217 1661 34       		.uleb128 0x34
 6218 1662 B3270000 		.4byte	0x27b3
 6219 1666 48010000 		.4byte	.LBB563
 6220 166a 08000000 		.4byte	.LBE563-.LBB563
 6221 166e 01       		.byte	0x1
 6222 166f 7801     		.2byte	0x178
 6223 1671 9A160000 		.4byte	0x169a
 6224 1675 37       		.uleb128 0x37
 6225 1676 CE270000 		.4byte	0x27ce
 6226 167a D20D0000 		.4byte	.LLST193
 6227 167e 37       		.uleb128 0x37
 6228 167f C3270000 		.4byte	0x27c3
 6229 1683 E50D0000 		.4byte	.LLST194
 6230 1687 38       		.uleb128 0x38
 6231 1688 50010000 		.4byte	.LVL285
 6232 168c 30       		.uleb128 0x30
 6233 168d 01       		.uleb128 0x1
 6234 168e 50       		.byte	0x50
 6235 168f 02       		.uleb128 0x2
 6236 1690 74       		.byte	0x74
 6237 1691 00       		.sleb128 0
 6238 1692 30       		.uleb128 0x30
 6239 1693 01       		.uleb128 0x1
 6240 1694 51       		.byte	0x51
 6241 1695 02       		.uleb128 0x2
 6242 1696 75       		.byte	0x75
 6243 1697 00       		.sleb128 0
 6244 1698 00       		.byte	0
 6245 1699 00       		.byte	0
 6246 169a 3C       		.uleb128 0x3c
ARM GAS  /tmp/ccUc3O3E.s 			page 111


 6247 169b B3270000 		.4byte	0x27b3
 6248 169f 54010000 		.4byte	.LBB565
 6249 16a3 08000000 		.4byte	.LBE565-.LBB565
 6250 16a7 01       		.byte	0x1
 6251 16a8 7A01     		.2byte	0x17a
 6252 16aa 37       		.uleb128 0x37
 6253 16ab CE270000 		.4byte	0x27ce
 6254 16af F80D0000 		.4byte	.LLST195
 6255 16b3 37       		.uleb128 0x37
 6256 16b4 C3270000 		.4byte	0x27c3
 6257 16b8 0B0E0000 		.4byte	.LLST196
 6258 16bc 38       		.uleb128 0x38
 6259 16bd 5C010000 		.4byte	.LVL288
 6260 16c1 30       		.uleb128 0x30
 6261 16c2 01       		.uleb128 0x1
 6262 16c3 50       		.byte	0x50
 6263 16c4 02       		.uleb128 0x2
 6264 16c5 74       		.byte	0x74
 6265 16c6 00       		.sleb128 0
 6266 16c7 30       		.uleb128 0x30
 6267 16c8 01       		.uleb128 0x1
 6268 16c9 51       		.byte	0x51
 6269 16ca 02       		.uleb128 0x2
 6270 16cb 75       		.byte	0x75
 6271 16cc 00       		.sleb128 0
 6272 16cd 00       		.byte	0
 6273 16ce 00       		.byte	0
 6274 16cf 00       		.byte	0
 6275 16d0 36       		.uleb128 0x36
 6276 16d1 B3270000 		.4byte	0x27b3
 6277 16d5 04000000 		.4byte	.LBB520
 6278 16d9 20020000 		.4byte	.Ldebug_ranges0+0x220
 6279 16dd 01       		.byte	0x1
 6280 16de 6801     		.2byte	0x168
 6281 16e0 08170000 		.4byte	0x1708
 6282 16e4 37       		.uleb128 0x37
 6283 16e5 CE270000 		.4byte	0x27ce
 6284 16e9 1E0E0000 		.4byte	.LLST162
 6285 16ed 37       		.uleb128 0x37
 6286 16ee C3270000 		.4byte	0x27c3
 6287 16f2 320E0000 		.4byte	.LLST163
 6288 16f6 38       		.uleb128 0x38
 6289 16f7 0E000000 		.4byte	.LVL231
 6290 16fb 30       		.uleb128 0x30
 6291 16fc 01       		.uleb128 0x1
 6292 16fd 50       		.byte	0x50
 6293 16fe 02       		.uleb128 0x2
 6294 16ff 74       		.byte	0x74
 6295 1700 00       		.sleb128 0
 6296 1701 30       		.uleb128 0x30
 6297 1702 01       		.uleb128 0x1
 6298 1703 51       		.byte	0x51
 6299 1704 01       		.uleb128 0x1
 6300 1705 30       		.byte	0x30
 6301 1706 00       		.byte	0
 6302 1707 00       		.byte	0
 6303 1708 36       		.uleb128 0x36
ARM GAS  /tmp/ccUc3O3E.s 			page 112


 6304 1709 B3270000 		.4byte	0x27b3
 6305 170d 0E000000 		.4byte	.LBB526
 6306 1711 40020000 		.4byte	.Ldebug_ranges0+0x240
 6307 1715 01       		.byte	0x1
 6308 1716 6E01     		.2byte	0x16e
 6309 1718 40170000 		.4byte	0x1740
 6310 171c 37       		.uleb128 0x37
 6311 171d CE270000 		.4byte	0x27ce
 6312 1721 500E0000 		.4byte	.LLST164
 6313 1725 37       		.uleb128 0x37
 6314 1726 C3270000 		.4byte	0x27c3
 6315 172a 640E0000 		.4byte	.LLST165
 6316 172e 38       		.uleb128 0x38
 6317 172f 24000000 		.4byte	.LVL233
 6318 1733 30       		.uleb128 0x30
 6319 1734 01       		.uleb128 0x1
 6320 1735 50       		.byte	0x50
 6321 1736 02       		.uleb128 0x2
 6322 1737 74       		.byte	0x74
 6323 1738 00       		.sleb128 0
 6324 1739 30       		.uleb128 0x30
 6325 173a 01       		.uleb128 0x1
 6326 173b 51       		.byte	0x51
 6327 173c 01       		.uleb128 0x1
 6328 173d 30       		.byte	0x30
 6329 173e 00       		.byte	0
 6330 173f 00       		.byte	0
 6331 1740 34       		.uleb128 0x34
 6332 1741 B3270000 		.4byte	0x27b3
 6333 1745 2A000000 		.4byte	.LBB532
 6334 1749 08000000 		.4byte	.LBE532-.LBB532
 6335 174d 01       		.byte	0x1
 6336 174e 6F01     		.2byte	0x16f
 6337 1750 78170000 		.4byte	0x1778
 6338 1754 37       		.uleb128 0x37
 6339 1755 CE270000 		.4byte	0x27ce
 6340 1759 770E0000 		.4byte	.LLST166
 6341 175d 37       		.uleb128 0x37
 6342 175e C3270000 		.4byte	0x27c3
 6343 1762 8B0E0000 		.4byte	.LLST167
 6344 1766 38       		.uleb128 0x38
 6345 1767 32000000 		.4byte	.LVL235
 6346 176b 30       		.uleb128 0x30
 6347 176c 01       		.uleb128 0x1
 6348 176d 50       		.byte	0x50
 6349 176e 02       		.uleb128 0x2
 6350 176f 74       		.byte	0x74
 6351 1770 00       		.sleb128 0
 6352 1771 30       		.uleb128 0x30
 6353 1772 01       		.uleb128 0x1
 6354 1773 51       		.byte	0x51
 6355 1774 01       		.uleb128 0x1
 6356 1775 31       		.byte	0x31
 6357 1776 00       		.byte	0
 6358 1777 00       		.byte	0
 6359 1778 34       		.uleb128 0x34
 6360 1779 B3270000 		.4byte	0x27b3
ARM GAS  /tmp/ccUc3O3E.s 			page 113


 6361 177d 36000000 		.4byte	.LBB534
 6362 1781 08000000 		.4byte	.LBE534-.LBB534
 6363 1785 01       		.byte	0x1
 6364 1786 6F01     		.2byte	0x16f
 6365 1788 B0170000 		.4byte	0x17b0
 6366 178c 37       		.uleb128 0x37
 6367 178d CE270000 		.4byte	0x27ce
 6368 1791 9E0E0000 		.4byte	.LLST168
 6369 1795 37       		.uleb128 0x37
 6370 1796 C3270000 		.4byte	0x27c3
 6371 179a B20E0000 		.4byte	.LLST169
 6372 179e 38       		.uleb128 0x38
 6373 179f 3E000000 		.4byte	.LVL237
 6374 17a3 30       		.uleb128 0x30
 6375 17a4 01       		.uleb128 0x1
 6376 17a5 50       		.byte	0x50
 6377 17a6 02       		.uleb128 0x2
 6378 17a7 74       		.byte	0x74
 6379 17a8 00       		.sleb128 0
 6380 17a9 30       		.uleb128 0x30
 6381 17aa 01       		.uleb128 0x1
 6382 17ab 51       		.byte	0x51
 6383 17ac 01       		.uleb128 0x1
 6384 17ad 31       		.byte	0x31
 6385 17ae 00       		.byte	0
 6386 17af 00       		.byte	0
 6387 17b0 36       		.uleb128 0x36
 6388 17b1 B3270000 		.4byte	0x27b3
 6389 17b5 46000000 		.4byte	.LBB536
 6390 17b9 60020000 		.4byte	.Ldebug_ranges0+0x260
 6391 17bd 01       		.byte	0x1
 6392 17be 8A01     		.2byte	0x18a
 6393 17c0 D7170000 		.4byte	0x17d7
 6394 17c4 37       		.uleb128 0x37
 6395 17c5 CE270000 		.4byte	0x27ce
 6396 17c9 C50E0000 		.4byte	.LLST170
 6397 17cd 37       		.uleb128 0x37
 6398 17ce C3270000 		.4byte	0x27c3
 6399 17d2 EE0E0000 		.4byte	.LLST171
 6400 17d6 00       		.byte	0
 6401 17d7 36       		.uleb128 0x36
 6402 17d8 B3270000 		.4byte	0x27b3
 6403 17dc 4C000000 		.4byte	.LBB539
 6404 17e0 78020000 		.4byte	.Ldebug_ranges0+0x278
 6405 17e4 01       		.byte	0x1
 6406 17e5 8B01     		.2byte	0x18b
 6407 17e7 10180000 		.4byte	0x1810
 6408 17eb 37       		.uleb128 0x37
 6409 17ec CE270000 		.4byte	0x27ce
 6410 17f0 170F0000 		.4byte	.LLST172
 6411 17f4 37       		.uleb128 0x37
 6412 17f5 C3270000 		.4byte	0x27c3
 6413 17f9 400F0000 		.4byte	.LLST173
 6414 17fd 38       		.uleb128 0x38
 6415 17fe 56000000 		.4byte	.LVL241
 6416 1802 30       		.uleb128 0x30
 6417 1803 01       		.uleb128 0x1
ARM GAS  /tmp/ccUc3O3E.s 			page 114


 6418 1804 50       		.byte	0x50
 6419 1805 02       		.uleb128 0x2
 6420 1806 74       		.byte	0x74
 6421 1807 00       		.sleb128 0
 6422 1808 30       		.uleb128 0x30
 6423 1809 01       		.uleb128 0x1
 6424 180a 51       		.byte	0x51
 6425 180b 02       		.uleb128 0x2
 6426 180c 75       		.byte	0x75
 6427 180d 00       		.sleb128 0
 6428 180e 00       		.byte	0
 6429 180f 00       		.byte	0
 6430 1810 34       		.uleb128 0x34
 6431 1811 B3270000 		.4byte	0x27b3
 6432 1815 62000000 		.4byte	.LBB543
 6433 1819 08000000 		.4byte	.LBE543-.LBB543
 6434 181d 01       		.byte	0x1
 6435 181e 8A01     		.2byte	0x18a
 6436 1820 49180000 		.4byte	0x1849
 6437 1824 37       		.uleb128 0x37
 6438 1825 CE270000 		.4byte	0x27ce
 6439 1829 690F0000 		.4byte	.LLST174
 6440 182d 37       		.uleb128 0x37
 6441 182e C3270000 		.4byte	0x27c3
 6442 1832 7C0F0000 		.4byte	.LLST175
 6443 1836 38       		.uleb128 0x38
 6444 1837 6A000000 		.4byte	.LVL245
 6445 183b 30       		.uleb128 0x30
 6446 183c 01       		.uleb128 0x1
 6447 183d 50       		.byte	0x50
 6448 183e 02       		.uleb128 0x2
 6449 183f 74       		.byte	0x74
 6450 1840 00       		.sleb128 0
 6451 1841 30       		.uleb128 0x30
 6452 1842 01       		.uleb128 0x1
 6453 1843 51       		.byte	0x51
 6454 1844 02       		.uleb128 0x2
 6455 1845 75       		.byte	0x75
 6456 1846 00       		.sleb128 0
 6457 1847 00       		.byte	0
 6458 1848 00       		.byte	0
 6459 1849 34       		.uleb128 0x34
 6460 184a B3270000 		.4byte	0x27b3
 6461 184e 84000000 		.4byte	.LBB546
 6462 1852 08000000 		.4byte	.LBE546-.LBB546
 6463 1856 01       		.byte	0x1
 6464 1857 9101     		.2byte	0x191
 6465 1859 82180000 		.4byte	0x1882
 6466 185d 37       		.uleb128 0x37
 6467 185e CE270000 		.4byte	0x27ce
 6468 1862 8F0F0000 		.4byte	.LLST176
 6469 1866 37       		.uleb128 0x37
 6470 1867 C3270000 		.4byte	0x27c3
 6471 186b AD0F0000 		.4byte	.LLST177
 6472 186f 38       		.uleb128 0x38
 6473 1870 8C000000 		.4byte	.LVL250
 6474 1874 30       		.uleb128 0x30
ARM GAS  /tmp/ccUc3O3E.s 			page 115


 6475 1875 01       		.uleb128 0x1
 6476 1876 50       		.byte	0x50
 6477 1877 02       		.uleb128 0x2
 6478 1878 74       		.byte	0x74
 6479 1879 00       		.sleb128 0
 6480 187a 30       		.uleb128 0x30
 6481 187b 01       		.uleb128 0x1
 6482 187c 51       		.byte	0x51
 6483 187d 02       		.uleb128 0x2
 6484 187e 75       		.byte	0x75
 6485 187f 00       		.sleb128 0
 6486 1880 00       		.byte	0
 6487 1881 00       		.byte	0
 6488 1882 34       		.uleb128 0x34
 6489 1883 B3270000 		.4byte	0x27b3
 6490 1887 90000000 		.4byte	.LBB548
 6491 188b 08000000 		.4byte	.LBE548-.LBB548
 6492 188f 01       		.byte	0x1
 6493 1890 9201     		.2byte	0x192
 6494 1892 BB180000 		.4byte	0x18bb
 6495 1896 37       		.uleb128 0x37
 6496 1897 CE270000 		.4byte	0x27ce
 6497 189b CB0F0000 		.4byte	.LLST178
 6498 189f 37       		.uleb128 0x37
 6499 18a0 C3270000 		.4byte	0x27c3
 6500 18a4 F80F0000 		.4byte	.LLST179
 6501 18a8 38       		.uleb128 0x38
 6502 18a9 98000000 		.4byte	.LVL253
 6503 18ad 30       		.uleb128 0x30
 6504 18ae 01       		.uleb128 0x1
 6505 18af 50       		.byte	0x50
 6506 18b0 02       		.uleb128 0x2
 6507 18b1 74       		.byte	0x74
 6508 18b2 00       		.sleb128 0
 6509 18b3 30       		.uleb128 0x30
 6510 18b4 01       		.uleb128 0x1
 6511 18b5 51       		.byte	0x51
 6512 18b6 02       		.uleb128 0x2
 6513 18b7 75       		.byte	0x75
 6514 18b8 01       		.sleb128 1
 6515 18b9 00       		.byte	0
 6516 18ba 00       		.byte	0
 6517 18bb 34       		.uleb128 0x34
 6518 18bc B3270000 		.4byte	0x27b3
 6519 18c0 9C000000 		.4byte	.LBB550
 6520 18c4 08000000 		.4byte	.LBE550-.LBB550
 6521 18c8 01       		.byte	0x1
 6522 18c9 9301     		.2byte	0x193
 6523 18cb F4180000 		.4byte	0x18f4
 6524 18cf 37       		.uleb128 0x37
 6525 18d0 CE270000 		.4byte	0x27ce
 6526 18d4 0B100000 		.4byte	.LLST180
 6527 18d8 37       		.uleb128 0x37
 6528 18d9 C3270000 		.4byte	0x27c3
 6529 18dd 38100000 		.4byte	.LLST181
 6530 18e1 38       		.uleb128 0x38
 6531 18e2 A4000000 		.4byte	.LVL256
ARM GAS  /tmp/ccUc3O3E.s 			page 116


 6532 18e6 30       		.uleb128 0x30
 6533 18e7 01       		.uleb128 0x1
 6534 18e8 50       		.byte	0x50
 6535 18e9 02       		.uleb128 0x2
 6536 18ea 74       		.byte	0x74
 6537 18eb 00       		.sleb128 0
 6538 18ec 30       		.uleb128 0x30
 6539 18ed 01       		.uleb128 0x1
 6540 18ee 51       		.byte	0x51
 6541 18ef 02       		.uleb128 0x2
 6542 18f0 75       		.byte	0x75
 6543 18f1 02       		.sleb128 2
 6544 18f2 00       		.byte	0
 6545 18f3 00       		.byte	0
 6546 18f4 34       		.uleb128 0x34
 6547 18f5 B3270000 		.4byte	0x27b3
 6548 18f9 DC000000 		.4byte	.LBB567
 6549 18fd 08000000 		.4byte	.LBE567-.LBB567
 6550 1901 01       		.byte	0x1
 6551 1902 7101     		.2byte	0x171
 6552 1904 2D190000 		.4byte	0x192d
 6553 1908 37       		.uleb128 0x37
 6554 1909 CE270000 		.4byte	0x27ce
 6555 190d 4B100000 		.4byte	.LLST197
 6556 1911 37       		.uleb128 0x37
 6557 1912 C3270000 		.4byte	0x27c3
 6558 1916 5E100000 		.4byte	.LLST198
 6559 191a 38       		.uleb128 0x38
 6560 191b E4000000 		.4byte	.LVL267
 6561 191f 30       		.uleb128 0x30
 6562 1920 01       		.uleb128 0x1
 6563 1921 50       		.byte	0x50
 6564 1922 02       		.uleb128 0x2
 6565 1923 74       		.byte	0x74
 6566 1924 00       		.sleb128 0
 6567 1925 30       		.uleb128 0x30
 6568 1926 01       		.uleb128 0x1
 6569 1927 51       		.byte	0x51
 6570 1928 02       		.uleb128 0x2
 6571 1929 75       		.byte	0x75
 6572 192a 00       		.sleb128 0
 6573 192b 00       		.byte	0
 6574 192c 00       		.byte	0
 6575 192d 34       		.uleb128 0x34
 6576 192e B3270000 		.4byte	0x27b3
 6577 1932 E8000000 		.4byte	.LBB569
 6578 1936 08000000 		.4byte	.LBE569-.LBB569
 6579 193a 01       		.byte	0x1
 6580 193b 7101     		.2byte	0x171
 6581 193d 66190000 		.4byte	0x1966
 6582 1941 37       		.uleb128 0x37
 6583 1942 CE270000 		.4byte	0x27ce
 6584 1946 71100000 		.4byte	.LLST199
 6585 194a 37       		.uleb128 0x37
 6586 194b C3270000 		.4byte	0x27c3
 6587 194f 84100000 		.4byte	.LLST200
 6588 1953 38       		.uleb128 0x38
ARM GAS  /tmp/ccUc3O3E.s 			page 117


 6589 1954 F0000000 		.4byte	.LVL269
 6590 1958 30       		.uleb128 0x30
 6591 1959 01       		.uleb128 0x1
 6592 195a 50       		.byte	0x50
 6593 195b 02       		.uleb128 0x2
 6594 195c 74       		.byte	0x74
 6595 195d 00       		.sleb128 0
 6596 195e 30       		.uleb128 0x30
 6597 195f 01       		.uleb128 0x1
 6598 1960 51       		.byte	0x51
 6599 1961 02       		.uleb128 0x2
 6600 1962 75       		.byte	0x75
 6601 1963 00       		.sleb128 0
 6602 1964 00       		.byte	0
 6603 1965 00       		.byte	0
 6604 1966 34       		.uleb128 0x34
 6605 1967 B3270000 		.4byte	0x27b3
 6606 196b F4000000 		.4byte	.LBB571
 6607 196f 08000000 		.4byte	.LBE571-.LBB571
 6608 1973 01       		.byte	0x1
 6609 1974 7201     		.2byte	0x172
 6610 1976 9F190000 		.4byte	0x199f
 6611 197a 37       		.uleb128 0x37
 6612 197b CE270000 		.4byte	0x27ce
 6613 197f 97100000 		.4byte	.LLST201
 6614 1983 37       		.uleb128 0x37
 6615 1984 C3270000 		.4byte	0x27c3
 6616 1988 AA100000 		.4byte	.LLST202
 6617 198c 38       		.uleb128 0x38
 6618 198d FC000000 		.4byte	.LVL271
 6619 1991 30       		.uleb128 0x30
 6620 1992 01       		.uleb128 0x1
 6621 1993 50       		.byte	0x50
 6622 1994 02       		.uleb128 0x2
 6623 1995 74       		.byte	0x74
 6624 1996 00       		.sleb128 0
 6625 1997 30       		.uleb128 0x30
 6626 1998 01       		.uleb128 0x1
 6627 1999 51       		.byte	0x51
 6628 199a 02       		.uleb128 0x2
 6629 199b 75       		.byte	0x75
 6630 199c 00       		.sleb128 0
 6631 199d 00       		.byte	0
 6632 199e 00       		.byte	0
 6633 199f 34       		.uleb128 0x34
 6634 19a0 B3270000 		.4byte	0x27b3
 6635 19a4 00010000 		.4byte	.LBB573
 6636 19a8 08000000 		.4byte	.LBE573-.LBB573
 6637 19ac 01       		.byte	0x1
 6638 19ad 7201     		.2byte	0x172
 6639 19af D8190000 		.4byte	0x19d8
 6640 19b3 37       		.uleb128 0x37
 6641 19b4 CE270000 		.4byte	0x27ce
 6642 19b8 BD100000 		.4byte	.LLST203
 6643 19bc 37       		.uleb128 0x37
 6644 19bd C3270000 		.4byte	0x27c3
 6645 19c1 D0100000 		.4byte	.LLST204
ARM GAS  /tmp/ccUc3O3E.s 			page 118


 6646 19c5 38       		.uleb128 0x38
 6647 19c6 08010000 		.4byte	.LVL273
 6648 19ca 30       		.uleb128 0x30
 6649 19cb 01       		.uleb128 0x1
 6650 19cc 50       		.byte	0x50
 6651 19cd 02       		.uleb128 0x2
 6652 19ce 74       		.byte	0x74
 6653 19cf 00       		.sleb128 0
 6654 19d0 30       		.uleb128 0x30
 6655 19d1 01       		.uleb128 0x1
 6656 19d2 51       		.byte	0x51
 6657 19d3 02       		.uleb128 0x2
 6658 19d4 75       		.byte	0x75
 6659 19d5 00       		.sleb128 0
 6660 19d6 00       		.byte	0
 6661 19d7 00       		.byte	0
 6662 19d8 34       		.uleb128 0x34
 6663 19d9 B3270000 		.4byte	0x27b3
 6664 19dd 0C010000 		.4byte	.LBB575
 6665 19e1 08000000 		.4byte	.LBE575-.LBB575
 6666 19e5 01       		.byte	0x1
 6667 19e6 7301     		.2byte	0x173
 6668 19e8 111A0000 		.4byte	0x1a11
 6669 19ec 37       		.uleb128 0x37
 6670 19ed CE270000 		.4byte	0x27ce
 6671 19f1 E3100000 		.4byte	.LLST205
 6672 19f5 37       		.uleb128 0x37
 6673 19f6 C3270000 		.4byte	0x27c3
 6674 19fa F6100000 		.4byte	.LLST206
 6675 19fe 38       		.uleb128 0x38
 6676 19ff 14010000 		.4byte	.LVL275
 6677 1a03 30       		.uleb128 0x30
 6678 1a04 01       		.uleb128 0x1
 6679 1a05 50       		.byte	0x50
 6680 1a06 02       		.uleb128 0x2
 6681 1a07 74       		.byte	0x74
 6682 1a08 00       		.sleb128 0
 6683 1a09 30       		.uleb128 0x30
 6684 1a0a 01       		.uleb128 0x1
 6685 1a0b 51       		.byte	0x51
 6686 1a0c 02       		.uleb128 0x2
 6687 1a0d 75       		.byte	0x75
 6688 1a0e 00       		.sleb128 0
 6689 1a0f 00       		.byte	0
 6690 1a10 00       		.byte	0
 6691 1a11 34       		.uleb128 0x34
 6692 1a12 B3270000 		.4byte	0x27b3
 6693 1a16 18010000 		.4byte	.LBB577
 6694 1a1a 08000000 		.4byte	.LBE577-.LBB577
 6695 1a1e 01       		.byte	0x1
 6696 1a1f 7301     		.2byte	0x173
 6697 1a21 4A1A0000 		.4byte	0x1a4a
 6698 1a25 37       		.uleb128 0x37
 6699 1a26 CE270000 		.4byte	0x27ce
 6700 1a2a 09110000 		.4byte	.LLST207
 6701 1a2e 37       		.uleb128 0x37
 6702 1a2f C3270000 		.4byte	0x27c3
ARM GAS  /tmp/ccUc3O3E.s 			page 119


 6703 1a33 1C110000 		.4byte	.LLST208
 6704 1a37 38       		.uleb128 0x38
 6705 1a38 20010000 		.4byte	.LVL277
 6706 1a3c 30       		.uleb128 0x30
 6707 1a3d 01       		.uleb128 0x1
 6708 1a3e 50       		.byte	0x50
 6709 1a3f 02       		.uleb128 0x2
 6710 1a40 74       		.byte	0x74
 6711 1a41 00       		.sleb128 0
 6712 1a42 30       		.uleb128 0x30
 6713 1a43 01       		.uleb128 0x1
 6714 1a44 51       		.byte	0x51
 6715 1a45 02       		.uleb128 0x2
 6716 1a46 75       		.byte	0x75
 6717 1a47 00       		.sleb128 0
 6718 1a48 00       		.byte	0
 6719 1a49 00       		.byte	0
 6720 1a4a 36       		.uleb128 0x36
 6721 1a4b 92270000 		.4byte	0x2792
 6722 1a4f 6C010000 		.4byte	.LBB580
 6723 1a53 A8020000 		.4byte	.Ldebug_ranges0+0x2a8
 6724 1a57 01       		.byte	0x1
 6725 1a58 8301     		.2byte	0x183
 6726 1a5a 991A0000 		.4byte	0x1a99
 6727 1a5e 37       		.uleb128 0x37
 6728 1a5f A9270000 		.4byte	0x27a9
 6729 1a63 2F110000 		.4byte	.LLST209
 6730 1a67 37       		.uleb128 0x37
 6731 1a68 9E270000 		.4byte	0x279e
 6732 1a6c 4D110000 		.4byte	.LLST210
 6733 1a70 3D       		.uleb128 0x3d
 6734 1a71 76010000 		.4byte	.LVL293
 6735 1a75 861A0000 		.4byte	0x1a86
 6736 1a79 30       		.uleb128 0x30
 6737 1a7a 01       		.uleb128 0x1
 6738 1a7b 50       		.byte	0x50
 6739 1a7c 02       		.uleb128 0x2
 6740 1a7d 74       		.byte	0x74
 6741 1a7e 00       		.sleb128 0
 6742 1a7f 30       		.uleb128 0x30
 6743 1a80 01       		.uleb128 0x1
 6744 1a81 51       		.byte	0x51
 6745 1a82 02       		.uleb128 0x2
 6746 1a83 75       		.byte	0x75
 6747 1a84 00       		.sleb128 0
 6748 1a85 00       		.byte	0
 6749 1a86 38       		.uleb128 0x38
 6750 1a87 AC010000 		.4byte	.LVL300
 6751 1a8b 30       		.uleb128 0x30
 6752 1a8c 01       		.uleb128 0x1
 6753 1a8d 50       		.byte	0x50
 6754 1a8e 02       		.uleb128 0x2
 6755 1a8f 74       		.byte	0x74
 6756 1a90 00       		.sleb128 0
 6757 1a91 30       		.uleb128 0x30
 6758 1a92 01       		.uleb128 0x1
 6759 1a93 51       		.byte	0x51
ARM GAS  /tmp/ccUc3O3E.s 			page 120


 6760 1a94 02       		.uleb128 0x2
 6761 1a95 75       		.byte	0x75
 6762 1a96 00       		.sleb128 0
 6763 1a97 00       		.byte	0
 6764 1a98 00       		.byte	0
 6765 1a99 3E       		.uleb128 0x3e
 6766 1a9a 92270000 		.4byte	0x2792
 6767 1a9e 8E010000 		.4byte	.LBB585
 6768 1aa2 C8020000 		.4byte	.Ldebug_ranges0+0x2c8
 6769 1aa6 01       		.byte	0x1
 6770 1aa7 9601     		.2byte	0x196
 6771 1aa9 37       		.uleb128 0x37
 6772 1aaa A9270000 		.4byte	0x27a9
 6773 1aae 6B110000 		.4byte	.LLST211
 6774 1ab2 37       		.uleb128 0x37
 6775 1ab3 9E270000 		.4byte	0x279e
 6776 1ab7 7E110000 		.4byte	.LLST212
 6777 1abb 38       		.uleb128 0x38
 6778 1abc 98010000 		.4byte	.LVL297
 6779 1ac0 30       		.uleb128 0x30
 6780 1ac1 01       		.uleb128 0x1
 6781 1ac2 50       		.byte	0x50
 6782 1ac3 02       		.uleb128 0x2
 6783 1ac4 74       		.byte	0x74
 6784 1ac5 00       		.sleb128 0
 6785 1ac6 30       		.uleb128 0x30
 6786 1ac7 01       		.uleb128 0x1
 6787 1ac8 51       		.byte	0x51
 6788 1ac9 02       		.uleb128 0x2
 6789 1aca 75       		.byte	0x75
 6790 1acb 00       		.sleb128 0
 6791 1acc 00       		.byte	0
 6792 1acd 00       		.byte	0
 6793 1ace 00       		.byte	0
 6794 1acf 06       		.uleb128 0x6
 6795 1ad0 04       		.byte	0x4
 6796 1ad1 EA080000 		.4byte	0x8ea
 6797 1ad5 3B       		.uleb128 0x3b
 6798 1ad6 4F030000 		.4byte	.LASF168
 6799 1ada 01       		.byte	0x1
 6800 1adb 4501     		.2byte	0x145
 6801 1add 73000000 		.4byte	0x73
 6802 1ae1 00000000 		.4byte	.LFB49
 6803 1ae5 B8000000 		.4byte	.LFE49-.LFB49
 6804 1ae9 01       		.uleb128 0x1
 6805 1aea 9C       		.byte	0x9c
 6806 1aeb FF1C0000 		.4byte	0x1cff
 6807 1aef 28       		.uleb128 0x28
 6808 1af0 73747200 		.ascii	"str\000"
 6809 1af4 01       		.byte	0x1
 6810 1af5 4501     		.2byte	0x145
 6811 1af7 0F0B0000 		.4byte	0xb0f
 6812 1afb 91110000 		.4byte	.LLST134
 6813 1aff 28       		.uleb128 0x28
 6814 1b00 72657300 		.ascii	"res\000"
 6815 1b04 01       		.byte	0x1
 6816 1b05 4501     		.2byte	0x145
ARM GAS  /tmp/ccUc3O3E.s 			page 121


 6817 1b07 CF1A0000 		.4byte	0x1acf
 6818 1b0b 07120000 		.4byte	.LLST135
 6819 1b0f 2B       		.uleb128 0x2b
 6820 1b10 61636300 		.ascii	"acc\000"
 6821 1b14 01       		.byte	0x1
 6822 1b15 4601     		.2byte	0x146
 6823 1b17 EA080000 		.4byte	0x8ea
 6824 1b1b 25120000 		.4byte	.LLST136
 6825 1b1f 2B       		.uleb128 0x2b
 6826 1b20 6E00     		.ascii	"n\000"
 6827 1b22 01       		.byte	0x1
 6828 1b23 4701     		.2byte	0x147
 6829 1b25 7A000000 		.4byte	0x7a
 6830 1b29 5B120000 		.4byte	.LLST137
 6831 1b2d 2D       		.uleb128 0x2d
 6832 1b2e 4D060000 		.4byte	.LASF165
 6833 1b32 01       		.byte	0x1
 6834 1b33 4801     		.2byte	0x148
 6835 1b35 6A090000 		.4byte	0x96a
 6836 1b39 F8120000 		.4byte	.LLST138
 6837 1b3d 2D       		.uleb128 0x2d
 6838 1b3e B0070000 		.4byte	.LASF166
 6839 1b42 01       		.byte	0x1
 6840 1b43 4901     		.2byte	0x149
 6841 1b45 6A090000 		.4byte	0x96a
 6842 1b49 18130000 		.4byte	.LLST139
 6843 1b4d 36       		.uleb128 0x36
 6844 1b4e B3270000 		.4byte	0x27b3
 6845 1b52 06000000 		.4byte	.LBB496
 6846 1b56 C0010000 		.4byte	.Ldebug_ranges0+0x1c0
 6847 1b5a 01       		.byte	0x1
 6848 1b5b 4B01     		.2byte	0x14b
 6849 1b5d 851B0000 		.4byte	0x1b85
 6850 1b61 37       		.uleb128 0x37
 6851 1b62 CE270000 		.4byte	0x27ce
 6852 1b66 5A130000 		.4byte	.LLST140
 6853 1b6a 37       		.uleb128 0x37
 6854 1b6b C3270000 		.4byte	0x27c3
 6855 1b6f 6E130000 		.4byte	.LLST141
 6856 1b73 38       		.uleb128 0x38
 6857 1b74 0E000000 		.4byte	.LVL202
 6858 1b78 30       		.uleb128 0x30
 6859 1b79 01       		.uleb128 0x1
 6860 1b7a 50       		.byte	0x50
 6861 1b7b 02       		.uleb128 0x2
 6862 1b7c 74       		.byte	0x74
 6863 1b7d 00       		.sleb128 0
 6864 1b7e 30       		.uleb128 0x30
 6865 1b7f 01       		.uleb128 0x1
 6866 1b80 51       		.byte	0x51
 6867 1b81 01       		.uleb128 0x1
 6868 1b82 30       		.byte	0x30
 6869 1b83 00       		.byte	0
 6870 1b84 00       		.byte	0
 6871 1b85 36       		.uleb128 0x36
 6872 1b86 B3270000 		.4byte	0x27b3
 6873 1b8a 1C000000 		.4byte	.LBB500
ARM GAS  /tmp/ccUc3O3E.s 			page 122


 6874 1b8e D8010000 		.4byte	.Ldebug_ranges0+0x1d8
 6875 1b92 01       		.byte	0x1
 6876 1b93 5001     		.2byte	0x150
 6877 1b95 AC1B0000 		.4byte	0x1bac
 6878 1b99 37       		.uleb128 0x37
 6879 1b9a CE270000 		.4byte	0x27ce
 6880 1b9e 8C130000 		.4byte	.LLST142
 6881 1ba2 37       		.uleb128 0x37
 6882 1ba3 C3270000 		.4byte	0x27c3
 6883 1ba7 B5130000 		.4byte	.LLST143
 6884 1bab 00       		.byte	0
 6885 1bac 36       		.uleb128 0x36
 6886 1bad B3270000 		.4byte	0x27b3
 6887 1bb1 22000000 		.4byte	.LBB503
 6888 1bb5 F0010000 		.4byte	.Ldebug_ranges0+0x1f0
 6889 1bb9 01       		.byte	0x1
 6890 1bba 5101     		.2byte	0x151
 6891 1bbc E51B0000 		.4byte	0x1be5
 6892 1bc0 37       		.uleb128 0x37
 6893 1bc1 CE270000 		.4byte	0x27ce
 6894 1bc5 DE130000 		.4byte	.LLST144
 6895 1bc9 37       		.uleb128 0x37
 6896 1bca C3270000 		.4byte	0x27c3
 6897 1bce 07140000 		.4byte	.LLST145
 6898 1bd2 38       		.uleb128 0x38
 6899 1bd3 2C000000 		.4byte	.LVL206
 6900 1bd7 30       		.uleb128 0x30
 6901 1bd8 01       		.uleb128 0x1
 6902 1bd9 50       		.byte	0x50
 6903 1bda 02       		.uleb128 0x2
 6904 1bdb 74       		.byte	0x74
 6905 1bdc 00       		.sleb128 0
 6906 1bdd 30       		.uleb128 0x30
 6907 1bde 01       		.uleb128 0x1
 6908 1bdf 51       		.byte	0x51
 6909 1be0 02       		.uleb128 0x2
 6910 1be1 76       		.byte	0x76
 6911 1be2 00       		.sleb128 0
 6912 1be3 00       		.byte	0
 6913 1be4 00       		.byte	0
 6914 1be5 34       		.uleb128 0x34
 6915 1be6 B3270000 		.4byte	0x27b3
 6916 1bea 38000000 		.4byte	.LBB507
 6917 1bee 08000000 		.4byte	.LBE507-.LBB507
 6918 1bf2 01       		.byte	0x1
 6919 1bf3 5001     		.2byte	0x150
 6920 1bf5 1E1C0000 		.4byte	0x1c1e
 6921 1bf9 37       		.uleb128 0x37
 6922 1bfa CE270000 		.4byte	0x27ce
 6923 1bfe 30140000 		.4byte	.LLST146
 6924 1c02 37       		.uleb128 0x37
 6925 1c03 C3270000 		.4byte	0x27c3
 6926 1c07 43140000 		.4byte	.LLST147
 6927 1c0b 38       		.uleb128 0x38
 6928 1c0c 40000000 		.4byte	.LVL210
 6929 1c10 30       		.uleb128 0x30
 6930 1c11 01       		.uleb128 0x1
ARM GAS  /tmp/ccUc3O3E.s 			page 123


 6931 1c12 50       		.byte	0x50
 6932 1c13 02       		.uleb128 0x2
 6933 1c14 74       		.byte	0x74
 6934 1c15 00       		.sleb128 0
 6935 1c16 30       		.uleb128 0x30
 6936 1c17 01       		.uleb128 0x1
 6937 1c18 51       		.byte	0x51
 6938 1c19 02       		.uleb128 0x2
 6939 1c1a 76       		.byte	0x76
 6940 1c1b 00       		.sleb128 0
 6941 1c1c 00       		.byte	0
 6942 1c1d 00       		.byte	0
 6943 1c1e 34       		.uleb128 0x34
 6944 1c1f B3270000 		.4byte	0x27b3
 6945 1c23 58000000 		.4byte	.LBB510
 6946 1c27 08000000 		.4byte	.LBE510-.LBB510
 6947 1c2b 01       		.byte	0x1
 6948 1c2c 5701     		.2byte	0x157
 6949 1c2e 571C0000 		.4byte	0x1c57
 6950 1c32 37       		.uleb128 0x37
 6951 1c33 CE270000 		.4byte	0x27ce
 6952 1c37 56140000 		.4byte	.LLST148
 6953 1c3b 37       		.uleb128 0x37
 6954 1c3c C3270000 		.4byte	0x27c3
 6955 1c40 74140000 		.4byte	.LLST149
 6956 1c44 38       		.uleb128 0x38
 6957 1c45 60000000 		.4byte	.LVL215
 6958 1c49 30       		.uleb128 0x30
 6959 1c4a 01       		.uleb128 0x1
 6960 1c4b 50       		.byte	0x50
 6961 1c4c 02       		.uleb128 0x2
 6962 1c4d 74       		.byte	0x74
 6963 1c4e 00       		.sleb128 0
 6964 1c4f 30       		.uleb128 0x30
 6965 1c50 01       		.uleb128 0x1
 6966 1c51 51       		.byte	0x51
 6967 1c52 02       		.uleb128 0x2
 6968 1c53 76       		.byte	0x76
 6969 1c54 00       		.sleb128 0
 6970 1c55 00       		.byte	0
 6971 1c56 00       		.byte	0
 6972 1c57 34       		.uleb128 0x34
 6973 1c58 B3270000 		.4byte	0x27b3
 6974 1c5c 64000000 		.4byte	.LBB512
 6975 1c60 08000000 		.4byte	.LBE512-.LBB512
 6976 1c64 01       		.byte	0x1
 6977 1c65 5801     		.2byte	0x158
 6978 1c67 901C0000 		.4byte	0x1c90
 6979 1c6b 37       		.uleb128 0x37
 6980 1c6c CE270000 		.4byte	0x27ce
 6981 1c70 92140000 		.4byte	.LLST150
 6982 1c74 37       		.uleb128 0x37
 6983 1c75 C3270000 		.4byte	0x27c3
 6984 1c79 BF140000 		.4byte	.LLST151
 6985 1c7d 38       		.uleb128 0x38
 6986 1c7e 6C000000 		.4byte	.LVL218
 6987 1c82 30       		.uleb128 0x30
ARM GAS  /tmp/ccUc3O3E.s 			page 124


 6988 1c83 01       		.uleb128 0x1
 6989 1c84 50       		.byte	0x50
 6990 1c85 02       		.uleb128 0x2
 6991 1c86 74       		.byte	0x74
 6992 1c87 00       		.sleb128 0
 6993 1c88 30       		.uleb128 0x30
 6994 1c89 01       		.uleb128 0x1
 6995 1c8a 51       		.byte	0x51
 6996 1c8b 02       		.uleb128 0x2
 6997 1c8c 76       		.byte	0x76
 6998 1c8d 01       		.sleb128 1
 6999 1c8e 00       		.byte	0
 7000 1c8f 00       		.byte	0
 7001 1c90 34       		.uleb128 0x34
 7002 1c91 B3270000 		.4byte	0x27b3
 7003 1c95 70000000 		.4byte	.LBB514
 7004 1c99 08000000 		.4byte	.LBE514-.LBB514
 7005 1c9d 01       		.byte	0x1
 7006 1c9e 5901     		.2byte	0x159
 7007 1ca0 C91C0000 		.4byte	0x1cc9
 7008 1ca4 37       		.uleb128 0x37
 7009 1ca5 CE270000 		.4byte	0x27ce
 7010 1ca9 D2140000 		.4byte	.LLST152
 7011 1cad 37       		.uleb128 0x37
 7012 1cae C3270000 		.4byte	0x27c3
 7013 1cb2 FF140000 		.4byte	.LLST153
 7014 1cb6 38       		.uleb128 0x38
 7015 1cb7 78000000 		.4byte	.LVL221
 7016 1cbb 30       		.uleb128 0x30
 7017 1cbc 01       		.uleb128 0x1
 7018 1cbd 50       		.byte	0x50
 7019 1cbe 02       		.uleb128 0x2
 7020 1cbf 74       		.byte	0x74
 7021 1cc0 00       		.sleb128 0
 7022 1cc1 30       		.uleb128 0x30
 7023 1cc2 01       		.uleb128 0x1
 7024 1cc3 51       		.byte	0x51
 7025 1cc4 02       		.uleb128 0x2
 7026 1cc5 76       		.byte	0x76
 7027 1cc6 02       		.sleb128 2
 7028 1cc7 00       		.byte	0
 7029 1cc8 00       		.byte	0
 7030 1cc9 3E       		.uleb128 0x3e
 7031 1cca 92270000 		.4byte	0x2792
 7032 1cce A0000000 		.4byte	.LBB516
 7033 1cd2 08020000 		.4byte	.Ldebug_ranges0+0x208
 7034 1cd6 01       		.byte	0x1
 7035 1cd7 5C01     		.2byte	0x15c
 7036 1cd9 37       		.uleb128 0x37
 7037 1cda A9270000 		.4byte	0x27a9
 7038 1cde 12150000 		.4byte	.LLST154
 7039 1ce2 37       		.uleb128 0x37
 7040 1ce3 9E270000 		.4byte	0x279e
 7041 1ce7 25150000 		.4byte	.LLST155
 7042 1ceb 38       		.uleb128 0x38
 7043 1cec AA000000 		.4byte	.LVL226
 7044 1cf0 30       		.uleb128 0x30
ARM GAS  /tmp/ccUc3O3E.s 			page 125


 7045 1cf1 01       		.uleb128 0x1
 7046 1cf2 50       		.byte	0x50
 7047 1cf3 02       		.uleb128 0x2
 7048 1cf4 74       		.byte	0x74
 7049 1cf5 00       		.sleb128 0
 7050 1cf6 30       		.uleb128 0x30
 7051 1cf7 01       		.uleb128 0x1
 7052 1cf8 51       		.byte	0x51
 7053 1cf9 02       		.uleb128 0x2
 7054 1cfa 76       		.byte	0x76
 7055 1cfb 00       		.sleb128 0
 7056 1cfc 00       		.byte	0
 7057 1cfd 00       		.byte	0
 7058 1cfe 00       		.byte	0
 7059 1cff 3B       		.uleb128 0x3b
 7060 1d00 8C010000 		.4byte	.LASF169
 7061 1d04 01       		.byte	0x1
 7062 1d05 2801     		.2byte	0x128
 7063 1d07 73000000 		.4byte	0x73
 7064 1d0b 00000000 		.4byte	.LFB48
 7065 1d0f B2000000 		.4byte	.LFE48-.LFB48
 7066 1d13 01       		.uleb128 0x1
 7067 1d14 9C       		.byte	0x9c
 7068 1d15 291F0000 		.4byte	0x1f29
 7069 1d19 28       		.uleb128 0x28
 7070 1d1a 73747200 		.ascii	"str\000"
 7071 1d1e 01       		.byte	0x1
 7072 1d1f 2801     		.2byte	0x128
 7073 1d21 0F0B0000 		.4byte	0xb0f
 7074 1d25 38150000 		.4byte	.LLST112
 7075 1d29 28       		.uleb128 0x28
 7076 1d2a 72657300 		.ascii	"res\000"
 7077 1d2e 01       		.byte	0x1
 7078 1d2f 2801     		.2byte	0x128
 7079 1d31 291F0000 		.4byte	0x1f29
 7080 1d35 AE150000 		.4byte	.LLST113
 7081 1d39 2B       		.uleb128 0x2b
 7082 1d3a 61636300 		.ascii	"acc\000"
 7083 1d3e 01       		.byte	0x1
 7084 1d3f 2901     		.2byte	0x129
 7085 1d41 F5080000 		.4byte	0x8f5
 7086 1d45 CC150000 		.4byte	.LLST114
 7087 1d49 2B       		.uleb128 0x2b
 7088 1d4a 6E00     		.ascii	"n\000"
 7089 1d4c 01       		.byte	0x1
 7090 1d4d 2A01     		.2byte	0x12a
 7091 1d4f 7A000000 		.4byte	0x7a
 7092 1d53 F7150000 		.4byte	.LLST115
 7093 1d57 2D       		.uleb128 0x2d
 7094 1d58 4D060000 		.4byte	.LASF165
 7095 1d5c 01       		.byte	0x1
 7096 1d5d 2B01     		.2byte	0x12b
 7097 1d5f 6A090000 		.4byte	0x96a
 7098 1d63 94160000 		.4byte	.LLST116
 7099 1d67 2D       		.uleb128 0x2d
 7100 1d68 B0070000 		.4byte	.LASF166
 7101 1d6c 01       		.byte	0x1
ARM GAS  /tmp/ccUc3O3E.s 			page 126


 7102 1d6d 2C01     		.2byte	0x12c
 7103 1d6f 6A090000 		.4byte	0x96a
 7104 1d73 B4160000 		.4byte	.LLST117
 7105 1d77 36       		.uleb128 0x36
 7106 1d78 B3270000 		.4byte	0x27b3
 7107 1d7c 06000000 		.4byte	.LBB470
 7108 1d80 58010000 		.4byte	.Ldebug_ranges0+0x158
 7109 1d84 01       		.byte	0x1
 7110 1d85 2E01     		.2byte	0x12e
 7111 1d87 AF1D0000 		.4byte	0x1daf
 7112 1d8b 37       		.uleb128 0x37
 7113 1d8c CE270000 		.4byte	0x27ce
 7114 1d90 F6160000 		.4byte	.LLST118
 7115 1d94 37       		.uleb128 0x37
 7116 1d95 C3270000 		.4byte	0x27c3
 7117 1d99 0A170000 		.4byte	.LLST119
 7118 1d9d 38       		.uleb128 0x38
 7119 1d9e 0E000000 		.4byte	.LVL173
 7120 1da2 30       		.uleb128 0x30
 7121 1da3 01       		.uleb128 0x1
 7122 1da4 50       		.byte	0x50
 7123 1da5 02       		.uleb128 0x2
 7124 1da6 74       		.byte	0x74
 7125 1da7 00       		.sleb128 0
 7126 1da8 30       		.uleb128 0x30
 7127 1da9 01       		.uleb128 0x1
 7128 1daa 51       		.byte	0x51
 7129 1dab 01       		.uleb128 0x1
 7130 1dac 30       		.byte	0x30
 7131 1dad 00       		.byte	0
 7132 1dae 00       		.byte	0
 7133 1daf 36       		.uleb128 0x36
 7134 1db0 B3270000 		.4byte	0x27b3
 7135 1db4 1C000000 		.4byte	.LBB474
 7136 1db8 70010000 		.4byte	.Ldebug_ranges0+0x170
 7137 1dbc 01       		.byte	0x1
 7138 1dbd 3301     		.2byte	0x133
 7139 1dbf D61D0000 		.4byte	0x1dd6
 7140 1dc3 37       		.uleb128 0x37
 7141 1dc4 CE270000 		.4byte	0x27ce
 7142 1dc8 28170000 		.4byte	.LLST120
 7143 1dcc 37       		.uleb128 0x37
 7144 1dcd C3270000 		.4byte	0x27c3
 7145 1dd1 51170000 		.4byte	.LLST121
 7146 1dd5 00       		.byte	0
 7147 1dd6 36       		.uleb128 0x36
 7148 1dd7 B3270000 		.4byte	0x27b3
 7149 1ddb 26000000 		.4byte	.LBB477
 7150 1ddf 88010000 		.4byte	.Ldebug_ranges0+0x188
 7151 1de3 01       		.byte	0x1
 7152 1de4 3401     		.2byte	0x134
 7153 1de6 0F1E0000 		.4byte	0x1e0f
 7154 1dea 37       		.uleb128 0x37
 7155 1deb CE270000 		.4byte	0x27ce
 7156 1def 7A170000 		.4byte	.LLST122
 7157 1df3 37       		.uleb128 0x37
 7158 1df4 C3270000 		.4byte	0x27c3
ARM GAS  /tmp/ccUc3O3E.s 			page 127


 7159 1df8 98170000 		.4byte	.LLST123
 7160 1dfc 38       		.uleb128 0x38
 7161 1dfd 34000000 		.4byte	.LVL178
 7162 1e01 30       		.uleb128 0x30
 7163 1e02 01       		.uleb128 0x1
 7164 1e03 50       		.byte	0x50
 7165 1e04 02       		.uleb128 0x2
 7166 1e05 74       		.byte	0x74
 7167 1e06 00       		.sleb128 0
 7168 1e07 30       		.uleb128 0x30
 7169 1e08 01       		.uleb128 0x1
 7170 1e09 51       		.byte	0x51
 7171 1e0a 02       		.uleb128 0x2
 7172 1e0b 75       		.byte	0x75
 7173 1e0c 00       		.sleb128 0
 7174 1e0d 00       		.byte	0
 7175 1e0e 00       		.byte	0
 7176 1e0f 34       		.uleb128 0x34
 7177 1e10 B3270000 		.4byte	0x27b3
 7178 1e14 3A000000 		.4byte	.LBB483
 7179 1e18 08000000 		.4byte	.LBE483-.LBB483
 7180 1e1c 01       		.byte	0x1
 7181 1e1d 3301     		.2byte	0x133
 7182 1e1f 481E0000 		.4byte	0x1e48
 7183 1e23 37       		.uleb128 0x37
 7184 1e24 CE270000 		.4byte	0x27ce
 7185 1e28 C1170000 		.4byte	.LLST124
 7186 1e2c 37       		.uleb128 0x37
 7187 1e2d C3270000 		.4byte	0x27c3
 7188 1e31 D4170000 		.4byte	.LLST125
 7189 1e35 38       		.uleb128 0x38
 7190 1e36 42000000 		.4byte	.LVL181
 7191 1e3a 30       		.uleb128 0x30
 7192 1e3b 01       		.uleb128 0x1
 7193 1e3c 50       		.byte	0x50
 7194 1e3d 02       		.uleb128 0x2
 7195 1e3e 74       		.byte	0x74
 7196 1e3f 00       		.sleb128 0
 7197 1e40 30       		.uleb128 0x30
 7198 1e41 01       		.uleb128 0x1
 7199 1e42 51       		.byte	0x51
 7200 1e43 02       		.uleb128 0x2
 7201 1e44 75       		.byte	0x75
 7202 1e45 00       		.sleb128 0
 7203 1e46 00       		.byte	0
 7204 1e47 00       		.byte	0
 7205 1e48 34       		.uleb128 0x34
 7206 1e49 B3270000 		.4byte	0x27b3
 7207 1e4d 56000000 		.4byte	.LBB486
 7208 1e51 08000000 		.4byte	.LBE486-.LBB486
 7209 1e55 01       		.byte	0x1
 7210 1e56 3A01     		.2byte	0x13a
 7211 1e58 811E0000 		.4byte	0x1e81
 7212 1e5c 37       		.uleb128 0x37
 7213 1e5d CE270000 		.4byte	0x27ce
 7214 1e61 E7170000 		.4byte	.LLST126
 7215 1e65 37       		.uleb128 0x37
ARM GAS  /tmp/ccUc3O3E.s 			page 128


 7216 1e66 C3270000 		.4byte	0x27c3
 7217 1e6a 05180000 		.4byte	.LLST127
 7218 1e6e 38       		.uleb128 0x38
 7219 1e6f 5E000000 		.4byte	.LVL186
 7220 1e73 30       		.uleb128 0x30
 7221 1e74 01       		.uleb128 0x1
 7222 1e75 50       		.byte	0x50
 7223 1e76 02       		.uleb128 0x2
 7224 1e77 74       		.byte	0x74
 7225 1e78 00       		.sleb128 0
 7226 1e79 30       		.uleb128 0x30
 7227 1e7a 01       		.uleb128 0x1
 7228 1e7b 51       		.byte	0x51
 7229 1e7c 02       		.uleb128 0x2
 7230 1e7d 75       		.byte	0x75
 7231 1e7e 00       		.sleb128 0
 7232 1e7f 00       		.byte	0
 7233 1e80 00       		.byte	0
 7234 1e81 34       		.uleb128 0x34
 7235 1e82 B3270000 		.4byte	0x27b3
 7236 1e86 62000000 		.4byte	.LBB488
 7237 1e8a 08000000 		.4byte	.LBE488-.LBB488
 7238 1e8e 01       		.byte	0x1
 7239 1e8f 3B01     		.2byte	0x13b
 7240 1e91 BA1E0000 		.4byte	0x1eba
 7241 1e95 37       		.uleb128 0x37
 7242 1e96 CE270000 		.4byte	0x27ce
 7243 1e9a 23180000 		.4byte	.LLST128
 7244 1e9e 37       		.uleb128 0x37
 7245 1e9f C3270000 		.4byte	0x27c3
 7246 1ea3 50180000 		.4byte	.LLST129
 7247 1ea7 38       		.uleb128 0x38
 7248 1ea8 6A000000 		.4byte	.LVL189
 7249 1eac 30       		.uleb128 0x30
 7250 1ead 01       		.uleb128 0x1
 7251 1eae 50       		.byte	0x50
 7252 1eaf 02       		.uleb128 0x2
 7253 1eb0 74       		.byte	0x74
 7254 1eb1 00       		.sleb128 0
 7255 1eb2 30       		.uleb128 0x30
 7256 1eb3 01       		.uleb128 0x1
 7257 1eb4 51       		.byte	0x51
 7258 1eb5 02       		.uleb128 0x2
 7259 1eb6 75       		.byte	0x75
 7260 1eb7 01       		.sleb128 1
 7261 1eb8 00       		.byte	0
 7262 1eb9 00       		.byte	0
 7263 1eba 34       		.uleb128 0x34
 7264 1ebb B3270000 		.4byte	0x27b3
 7265 1ebf 6E000000 		.4byte	.LBB490
 7266 1ec3 08000000 		.4byte	.LBE490-.LBB490
 7267 1ec7 01       		.byte	0x1
 7268 1ec8 3C01     		.2byte	0x13c
 7269 1eca F31E0000 		.4byte	0x1ef3
 7270 1ece 37       		.uleb128 0x37
 7271 1ecf CE270000 		.4byte	0x27ce
 7272 1ed3 63180000 		.4byte	.LLST130
ARM GAS  /tmp/ccUc3O3E.s 			page 129


 7273 1ed7 37       		.uleb128 0x37
 7274 1ed8 C3270000 		.4byte	0x27c3
 7275 1edc 90180000 		.4byte	.LLST131
 7276 1ee0 38       		.uleb128 0x38
 7277 1ee1 76000000 		.4byte	.LVL192
 7278 1ee5 30       		.uleb128 0x30
 7279 1ee6 01       		.uleb128 0x1
 7280 1ee7 50       		.byte	0x50
 7281 1ee8 02       		.uleb128 0x2
 7282 1ee9 74       		.byte	0x74
 7283 1eea 00       		.sleb128 0
 7284 1eeb 30       		.uleb128 0x30
 7285 1eec 01       		.uleb128 0x1
 7286 1eed 51       		.byte	0x51
 7287 1eee 02       		.uleb128 0x2
 7288 1eef 75       		.byte	0x75
 7289 1ef0 02       		.sleb128 2
 7290 1ef1 00       		.byte	0
 7291 1ef2 00       		.byte	0
 7292 1ef3 3E       		.uleb128 0x3e
 7293 1ef4 92270000 		.4byte	0x2792
 7294 1ef8 98000000 		.4byte	.LBB492
 7295 1efc A8010000 		.4byte	.Ldebug_ranges0+0x1a8
 7296 1f00 01       		.byte	0x1
 7297 1f01 3F01     		.2byte	0x13f
 7298 1f03 37       		.uleb128 0x37
 7299 1f04 A9270000 		.4byte	0x27a9
 7300 1f08 A3180000 		.4byte	.LLST132
 7301 1f0c 37       		.uleb128 0x37
 7302 1f0d 9E270000 		.4byte	0x279e
 7303 1f11 B6180000 		.4byte	.LLST133
 7304 1f15 38       		.uleb128 0x38
 7305 1f16 A4000000 		.4byte	.LVL197
 7306 1f1a 30       		.uleb128 0x30
 7307 1f1b 01       		.uleb128 0x1
 7308 1f1c 50       		.byte	0x50
 7309 1f1d 02       		.uleb128 0x2
 7310 1f1e 74       		.byte	0x74
 7311 1f1f 00       		.sleb128 0
 7312 1f20 30       		.uleb128 0x30
 7313 1f21 01       		.uleb128 0x1
 7314 1f22 51       		.byte	0x51
 7315 1f23 02       		.uleb128 0x2
 7316 1f24 75       		.byte	0x75
 7317 1f25 00       		.sleb128 0
 7318 1f26 00       		.byte	0
 7319 1f27 00       		.byte	0
 7320 1f28 00       		.byte	0
 7321 1f29 06       		.uleb128 0x6
 7322 1f2a 04       		.byte	0x4
 7323 1f2b F5080000 		.4byte	0x8f5
 7324 1f2f 3B       		.uleb128 0x3b
 7325 1f30 F1010000 		.4byte	.LASF170
 7326 1f34 01       		.byte	0x1
 7327 1f35 0101     		.2byte	0x101
 7328 1f37 73000000 		.4byte	0x73
 7329 1f3b 00000000 		.4byte	.LFB47
ARM GAS  /tmp/ccUc3O3E.s 			page 130


 7330 1f3f E4000000 		.4byte	.LFE47-.LFB47
 7331 1f43 01       		.uleb128 0x1
 7332 1f44 9C       		.byte	0x9c
 7333 1f45 47220000 		.4byte	0x2247
 7334 1f49 28       		.uleb128 0x28
 7335 1f4a 73747200 		.ascii	"str\000"
 7336 1f4e 01       		.byte	0x1
 7337 1f4f 0101     		.2byte	0x101
 7338 1f51 0F0B0000 		.4byte	0xb0f
 7339 1f55 C9180000 		.4byte	.LLST81
 7340 1f59 28       		.uleb128 0x28
 7341 1f5a 72657300 		.ascii	"res\000"
 7342 1f5e 01       		.byte	0x1
 7343 1f5f 0101     		.2byte	0x101
 7344 1f61 291F0000 		.4byte	0x1f29
 7345 1f65 3F190000 		.4byte	.LLST82
 7346 1f69 2B       		.uleb128 0x2b
 7347 1f6a 61636300 		.ascii	"acc\000"
 7348 1f6e 01       		.byte	0x1
 7349 1f6f 0301     		.2byte	0x103
 7350 1f71 F5080000 		.4byte	0x8f5
 7351 1f75 5D190000 		.4byte	.LLST83
 7352 1f79 2B       		.uleb128 0x2b
 7353 1f7a 6E00     		.ascii	"n\000"
 7354 1f7c 01       		.byte	0x1
 7355 1f7d 0401     		.2byte	0x104
 7356 1f7f 7A000000 		.4byte	0x7a
 7357 1f83 AC190000 		.4byte	.LLST84
 7358 1f87 2D       		.uleb128 0x2d
 7359 1f88 4D060000 		.4byte	.LASF165
 7360 1f8c 01       		.byte	0x1
 7361 1f8d 0501     		.2byte	0x105
 7362 1f8f 6A090000 		.4byte	0x96a
 7363 1f93 471A0000 		.4byte	.LLST85
 7364 1f97 2D       		.uleb128 0x2d
 7365 1f98 B0070000 		.4byte	.LASF166
 7366 1f9c 01       		.byte	0x1
 7367 1f9d 0601     		.2byte	0x106
 7368 1f9f 6A090000 		.4byte	0x96a
 7369 1fa3 671A0000 		.4byte	.LLST86
 7370 1fa7 2D       		.uleb128 0x2d
 7371 1fa8 29050000 		.4byte	.LASF171
 7372 1fac 01       		.byte	0x1
 7373 1fad 1A01     		.2byte	0x11a
 7374 1faf 7A000000 		.4byte	0x7a
 7375 1fb3 B41A0000 		.4byte	.LLST87
 7376 1fb7 36       		.uleb128 0x36
 7377 1fb8 B3270000 		.4byte	0x27b3
 7378 1fbc 06000000 		.4byte	.LBB438
 7379 1fc0 08010000 		.4byte	.Ldebug_ranges0+0x108
 7380 1fc4 01       		.byte	0x1
 7381 1fc5 0801     		.2byte	0x108
 7382 1fc7 EF1F0000 		.4byte	0x1fef
 7383 1fcb 37       		.uleb128 0x37
 7384 1fcc CE270000 		.4byte	0x27ce
 7385 1fd0 E81A0000 		.4byte	.LLST88
 7386 1fd4 37       		.uleb128 0x37
ARM GAS  /tmp/ccUc3O3E.s 			page 131


 7387 1fd5 C3270000 		.4byte	0x27c3
 7388 1fd9 FC1A0000 		.4byte	.LLST89
 7389 1fdd 38       		.uleb128 0x38
 7390 1fde 0E000000 		.4byte	.LVL131
 7391 1fe2 30       		.uleb128 0x30
 7392 1fe3 01       		.uleb128 0x1
 7393 1fe4 50       		.byte	0x50
 7394 1fe5 02       		.uleb128 0x2
 7395 1fe6 74       		.byte	0x74
 7396 1fe7 00       		.sleb128 0
 7397 1fe8 30       		.uleb128 0x30
 7398 1fe9 01       		.uleb128 0x1
 7399 1fea 51       		.byte	0x51
 7400 1feb 01       		.uleb128 0x1
 7401 1fec 30       		.byte	0x30
 7402 1fed 00       		.byte	0
 7403 1fee 00       		.byte	0
 7404 1fef 36       		.uleb128 0x36
 7405 1ff0 B3270000 		.4byte	0x27b3
 7406 1ff4 1C000000 		.4byte	.LBB442
 7407 1ff8 20010000 		.4byte	.Ldebug_ranges0+0x120
 7408 1ffc 01       		.byte	0x1
 7409 1ffd 0D01     		.2byte	0x10d
 7410 1fff 16200000 		.4byte	0x2016
 7411 2003 37       		.uleb128 0x37
 7412 2004 CE270000 		.4byte	0x27ce
 7413 2008 1A1B0000 		.4byte	.LLST90
 7414 200c 37       		.uleb128 0x37
 7415 200d C3270000 		.4byte	0x27c3
 7416 2011 431B0000 		.4byte	.LLST91
 7417 2015 00       		.byte	0
 7418 2016 36       		.uleb128 0x36
 7419 2017 B3270000 		.4byte	0x27b3
 7420 201b 26000000 		.4byte	.LBB445
 7421 201f 38010000 		.4byte	.Ldebug_ranges0+0x138
 7422 2023 01       		.byte	0x1
 7423 2024 0E01     		.2byte	0x10e
 7424 2026 4F200000 		.4byte	0x204f
 7425 202a 37       		.uleb128 0x37
 7426 202b CE270000 		.4byte	0x27ce
 7427 202f 6C1B0000 		.4byte	.LLST92
 7428 2033 37       		.uleb128 0x37
 7429 2034 C3270000 		.4byte	0x27c3
 7430 2038 8A1B0000 		.4byte	.LLST93
 7431 203c 38       		.uleb128 0x38
 7432 203d 34000000 		.4byte	.LVL136
 7433 2041 30       		.uleb128 0x30
 7434 2042 01       		.uleb128 0x1
 7435 2043 50       		.byte	0x50
 7436 2044 02       		.uleb128 0x2
 7437 2045 74       		.byte	0x74
 7438 2046 00       		.sleb128 0
 7439 2047 30       		.uleb128 0x30
 7440 2048 01       		.uleb128 0x1
 7441 2049 51       		.byte	0x51
 7442 204a 02       		.uleb128 0x2
 7443 204b 75       		.byte	0x75
ARM GAS  /tmp/ccUc3O3E.s 			page 132


 7444 204c 00       		.sleb128 0
 7445 204d 00       		.byte	0
 7446 204e 00       		.byte	0
 7447 204f 34       		.uleb128 0x34
 7448 2050 B3270000 		.4byte	0x27b3
 7449 2054 3A000000 		.4byte	.LBB451
 7450 2058 08000000 		.4byte	.LBE451-.LBB451
 7451 205c 01       		.byte	0x1
 7452 205d 0D01     		.2byte	0x10d
 7453 205f 88200000 		.4byte	0x2088
 7454 2063 37       		.uleb128 0x37
 7455 2064 CE270000 		.4byte	0x27ce
 7456 2068 B31B0000 		.4byte	.LLST94
 7457 206c 37       		.uleb128 0x37
 7458 206d C3270000 		.4byte	0x27c3
 7459 2071 C61B0000 		.4byte	.LLST95
 7460 2075 38       		.uleb128 0x38
 7461 2076 42000000 		.4byte	.LVL139
 7462 207a 30       		.uleb128 0x30
 7463 207b 01       		.uleb128 0x1
 7464 207c 50       		.byte	0x50
 7465 207d 02       		.uleb128 0x2
 7466 207e 74       		.byte	0x74
 7467 207f 00       		.sleb128 0
 7468 2080 30       		.uleb128 0x30
 7469 2081 01       		.uleb128 0x1
 7470 2082 51       		.byte	0x51
 7471 2083 02       		.uleb128 0x2
 7472 2084 75       		.byte	0x75
 7473 2085 00       		.sleb128 0
 7474 2086 00       		.byte	0
 7475 2087 00       		.byte	0
 7476 2088 34       		.uleb128 0x34
 7477 2089 B3270000 		.4byte	0x27b3
 7478 208d 56000000 		.4byte	.LBB454
 7479 2091 08000000 		.4byte	.LBE454-.LBB454
 7480 2095 01       		.byte	0x1
 7481 2096 1501     		.2byte	0x115
 7482 2098 C1200000 		.4byte	0x20c1
 7483 209c 37       		.uleb128 0x37
 7484 209d CE270000 		.4byte	0x27ce
 7485 20a1 D91B0000 		.4byte	.LLST96
 7486 20a5 37       		.uleb128 0x37
 7487 20a6 C3270000 		.4byte	0x27c3
 7488 20aa F71B0000 		.4byte	.LLST97
 7489 20ae 38       		.uleb128 0x38
 7490 20af 5E000000 		.4byte	.LVL144
 7491 20b3 30       		.uleb128 0x30
 7492 20b4 01       		.uleb128 0x1
 7493 20b5 50       		.byte	0x50
 7494 20b6 02       		.uleb128 0x2
 7495 20b7 74       		.byte	0x74
 7496 20b8 00       		.sleb128 0
 7497 20b9 30       		.uleb128 0x30
 7498 20ba 01       		.uleb128 0x1
 7499 20bb 51       		.byte	0x51
 7500 20bc 02       		.uleb128 0x2
ARM GAS  /tmp/ccUc3O3E.s 			page 133


 7501 20bd 75       		.byte	0x75
 7502 20be 00       		.sleb128 0
 7503 20bf 00       		.byte	0
 7504 20c0 00       		.byte	0
 7505 20c1 34       		.uleb128 0x34
 7506 20c2 B3270000 		.4byte	0x27b3
 7507 20c6 62000000 		.4byte	.LBB456
 7508 20ca 08000000 		.4byte	.LBE456-.LBB456
 7509 20ce 01       		.byte	0x1
 7510 20cf 1601     		.2byte	0x116
 7511 20d1 FA200000 		.4byte	0x20fa
 7512 20d5 37       		.uleb128 0x37
 7513 20d6 CE270000 		.4byte	0x27ce
 7514 20da 151C0000 		.4byte	.LLST98
 7515 20de 37       		.uleb128 0x37
 7516 20df C3270000 		.4byte	0x27c3
 7517 20e3 281C0000 		.4byte	.LLST99
 7518 20e7 38       		.uleb128 0x38
 7519 20e8 6A000000 		.4byte	.LVL146
 7520 20ec 30       		.uleb128 0x30
 7521 20ed 01       		.uleb128 0x1
 7522 20ee 50       		.byte	0x50
 7523 20ef 02       		.uleb128 0x2
 7524 20f0 74       		.byte	0x74
 7525 20f1 00       		.sleb128 0
 7526 20f2 30       		.uleb128 0x30
 7527 20f3 01       		.uleb128 0x1
 7528 20f4 51       		.byte	0x51
 7529 20f5 02       		.uleb128 0x2
 7530 20f6 75       		.byte	0x75
 7531 20f7 00       		.sleb128 0
 7532 20f8 00       		.byte	0
 7533 20f9 00       		.byte	0
 7534 20fa 34       		.uleb128 0x34
 7535 20fb B3270000 		.4byte	0x27b3
 7536 20ff 6E000000 		.4byte	.LBB458
 7537 2103 08000000 		.4byte	.LBE458-.LBB458
 7538 2107 01       		.byte	0x1
 7539 2108 1701     		.2byte	0x117
 7540 210a 33210000 		.4byte	0x2133
 7541 210e 37       		.uleb128 0x37
 7542 210f CE270000 		.4byte	0x27ce
 7543 2113 3B1C0000 		.4byte	.LLST100
 7544 2117 37       		.uleb128 0x37
 7545 2118 C3270000 		.4byte	0x27c3
 7546 211c 4E1C0000 		.4byte	.LLST101
 7547 2120 38       		.uleb128 0x38
 7548 2121 76000000 		.4byte	.LVL148
 7549 2125 30       		.uleb128 0x30
 7550 2126 01       		.uleb128 0x1
 7551 2127 50       		.byte	0x50
 7552 2128 02       		.uleb128 0x2
 7553 2129 74       		.byte	0x74
 7554 212a 00       		.sleb128 0
 7555 212b 30       		.uleb128 0x30
 7556 212c 01       		.uleb128 0x1
 7557 212d 51       		.byte	0x51
ARM GAS  /tmp/ccUc3O3E.s 			page 134


 7558 212e 02       		.uleb128 0x2
 7559 212f 75       		.byte	0x75
 7560 2130 00       		.sleb128 0
 7561 2131 00       		.byte	0
 7562 2132 00       		.byte	0
 7563 2133 34       		.uleb128 0x34
 7564 2134 B3270000 		.4byte	0x27b3
 7565 2138 7A000000 		.4byte	.LBB460
 7566 213c 08000000 		.4byte	.LBE460-.LBB460
 7567 2140 01       		.byte	0x1
 7568 2141 1801     		.2byte	0x118
 7569 2143 6C210000 		.4byte	0x216c
 7570 2147 37       		.uleb128 0x37
 7571 2148 CE270000 		.4byte	0x27ce
 7572 214c 611C0000 		.4byte	.LLST102
 7573 2150 37       		.uleb128 0x37
 7574 2151 C3270000 		.4byte	0x27c3
 7575 2155 741C0000 		.4byte	.LLST103
 7576 2159 38       		.uleb128 0x38
 7577 215a 82000000 		.4byte	.LVL150
 7578 215e 30       		.uleb128 0x30
 7579 215f 01       		.uleb128 0x1
 7580 2160 50       		.byte	0x50
 7581 2161 02       		.uleb128 0x2
 7582 2162 74       		.byte	0x74
 7583 2163 00       		.sleb128 0
 7584 2164 30       		.uleb128 0x30
 7585 2165 01       		.uleb128 0x1
 7586 2166 51       		.byte	0x51
 7587 2167 02       		.uleb128 0x2
 7588 2168 75       		.byte	0x75
 7589 2169 00       		.sleb128 0
 7590 216a 00       		.byte	0
 7591 216b 00       		.byte	0
 7592 216c 34       		.uleb128 0x34
 7593 216d B3270000 		.4byte	0x27b3
 7594 2171 86000000 		.4byte	.LBB462
 7595 2175 08000000 		.4byte	.LBE462-.LBB462
 7596 2179 01       		.byte	0x1
 7597 217a 1B01     		.2byte	0x11b
 7598 217c A5210000 		.4byte	0x21a5
 7599 2180 37       		.uleb128 0x37
 7600 2181 CE270000 		.4byte	0x27ce
 7601 2185 871C0000 		.4byte	.LLST104
 7602 2189 37       		.uleb128 0x37
 7603 218a C3270000 		.4byte	0x27c3
 7604 218e 9A1C0000 		.4byte	.LLST105
 7605 2192 38       		.uleb128 0x38
 7606 2193 8E000000 		.4byte	.LVL152
 7607 2197 30       		.uleb128 0x30
 7608 2198 01       		.uleb128 0x1
 7609 2199 50       		.byte	0x50
 7610 219a 02       		.uleb128 0x2
 7611 219b 74       		.byte	0x74
 7612 219c 00       		.sleb128 0
 7613 219d 30       		.uleb128 0x30
 7614 219e 01       		.uleb128 0x1
ARM GAS  /tmp/ccUc3O3E.s 			page 135


 7615 219f 51       		.byte	0x51
 7616 21a0 02       		.uleb128 0x2
 7617 21a1 75       		.byte	0x75
 7618 21a2 00       		.sleb128 0
 7619 21a3 00       		.byte	0
 7620 21a4 00       		.byte	0
 7621 21a5 34       		.uleb128 0x34
 7622 21a6 B3270000 		.4byte	0x27b3
 7623 21aa 92000000 		.4byte	.LBB464
 7624 21ae 08000000 		.4byte	.LBE464-.LBB464
 7625 21b2 01       		.byte	0x1
 7626 21b3 1C01     		.2byte	0x11c
 7627 21b5 DE210000 		.4byte	0x21de
 7628 21b9 37       		.uleb128 0x37
 7629 21ba CE270000 		.4byte	0x27ce
 7630 21be AD1C0000 		.4byte	.LLST106
 7631 21c2 37       		.uleb128 0x37
 7632 21c3 C3270000 		.4byte	0x27c3
 7633 21c7 DA1C0000 		.4byte	.LLST107
 7634 21cb 38       		.uleb128 0x38
 7635 21cc 9A000000 		.4byte	.LVL155
 7636 21d0 30       		.uleb128 0x30
 7637 21d1 01       		.uleb128 0x1
 7638 21d2 50       		.byte	0x50
 7639 21d3 02       		.uleb128 0x2
 7640 21d4 74       		.byte	0x74
 7641 21d5 00       		.sleb128 0
 7642 21d6 30       		.uleb128 0x30
 7643 21d7 01       		.uleb128 0x1
 7644 21d8 51       		.byte	0x51
 7645 21d9 02       		.uleb128 0x2
 7646 21da 75       		.byte	0x75
 7647 21db 01       		.sleb128 1
 7648 21dc 00       		.byte	0
 7649 21dd 00       		.byte	0
 7650 21de 34       		.uleb128 0x34
 7651 21df B3270000 		.4byte	0x27b3
 7652 21e3 9E000000 		.4byte	.LBB466
 7653 21e7 08000000 		.4byte	.LBE466-.LBB466
 7654 21eb 01       		.byte	0x1
 7655 21ec 1D01     		.2byte	0x11d
 7656 21ee 17220000 		.4byte	0x2217
 7657 21f2 37       		.uleb128 0x37
 7658 21f3 CE270000 		.4byte	0x27ce
 7659 21f7 ED1C0000 		.4byte	.LLST108
 7660 21fb 37       		.uleb128 0x37
 7661 21fc C3270000 		.4byte	0x27c3
 7662 2200 1A1D0000 		.4byte	.LLST109
 7663 2204 38       		.uleb128 0x38
 7664 2205 A6000000 		.4byte	.LVL158
 7665 2209 30       		.uleb128 0x30
 7666 220a 01       		.uleb128 0x1
 7667 220b 50       		.byte	0x50
 7668 220c 02       		.uleb128 0x2
 7669 220d 74       		.byte	0x74
 7670 220e 00       		.sleb128 0
 7671 220f 30       		.uleb128 0x30
ARM GAS  /tmp/ccUc3O3E.s 			page 136


 7672 2210 01       		.uleb128 0x1
 7673 2211 51       		.byte	0x51
 7674 2212 02       		.uleb128 0x2
 7675 2213 75       		.byte	0x75
 7676 2214 02       		.sleb128 2
 7677 2215 00       		.byte	0
 7678 2216 00       		.byte	0
 7679 2217 3C       		.uleb128 0x3c
 7680 2218 92270000 		.4byte	0x2792
 7681 221c AE000000 		.4byte	.LBB468
 7682 2220 06000000 		.4byte	.LBE468-.LBB468
 7683 2224 01       		.byte	0x1
 7684 2225 2101     		.2byte	0x121
 7685 2227 37       		.uleb128 0x37
 7686 2228 A9270000 		.4byte	0x27a9
 7687 222c 2D1D0000 		.4byte	.LLST110
 7688 2230 37       		.uleb128 0x37
 7689 2231 9E270000 		.4byte	0x279e
 7690 2235 401D0000 		.4byte	.LLST111
 7691 2239 38       		.uleb128 0x38
 7692 223a B4000000 		.4byte	.LVL161
 7693 223e 30       		.uleb128 0x30
 7694 223f 01       		.uleb128 0x1
 7695 2240 50       		.byte	0x50
 7696 2241 02       		.uleb128 0x2
 7697 2242 74       		.byte	0x74
 7698 2243 00       		.sleb128 0
 7699 2244 00       		.byte	0
 7700 2245 00       		.byte	0
 7701 2246 00       		.byte	0
 7702 2247 3F       		.uleb128 0x3f
 7703 2248 AD080000 		.4byte	.LASF172
 7704 224c 01       		.byte	0x1
 7705 224d E8       		.byte	0xe8
 7706 224e 73000000 		.4byte	0x73
 7707 2252 00000000 		.4byte	.LFB46
 7708 2256 CA000000 		.4byte	.LFE46-.LFB46
 7709 225a 01       		.uleb128 0x1
 7710 225b 9C       		.byte	0x9c
 7711 225c D0250000 		.4byte	0x25d0
 7712 2260 40       		.uleb128 0x40
 7713 2261 73747200 		.ascii	"str\000"
 7714 2265 01       		.byte	0x1
 7715 2266 E8       		.byte	0xe8
 7716 2267 0F0B0000 		.4byte	0xb0f
 7717 226b 531D0000 		.4byte	.LLST48
 7718 226f 40       		.uleb128 0x40
 7719 2270 72657300 		.ascii	"res\000"
 7720 2274 01       		.byte	0x1
 7721 2275 E8       		.byte	0xe8
 7722 2276 69050000 		.4byte	0x569
 7723 227a 711D0000 		.4byte	.LLST49
 7724 227e 41       		.uleb128 0x41
 7725 227f 54040000 		.4byte	.LASF173
 7726 2283 01       		.byte	0x1
 7727 2284 EA       		.byte	0xea
 7728 2285 73000000 		.4byte	0x73
ARM GAS  /tmp/ccUc3O3E.s 			page 137


 7729 2289 8F1D0000 		.4byte	.LLST50
 7730 228d 42       		.uleb128 0x42
 7731 228e B3270000 		.4byte	0x27b3
 7732 2292 02000000 		.4byte	.LBB402
 7733 2296 D0000000 		.4byte	.Ldebug_ranges0+0xd0
 7734 229a 01       		.byte	0x1
 7735 229b EB       		.byte	0xeb
 7736 229c C4220000 		.4byte	0x22c4
 7737 22a0 37       		.uleb128 0x37
 7738 22a1 CE270000 		.4byte	0x27ce
 7739 22a5 C71D0000 		.4byte	.LLST51
 7740 22a9 37       		.uleb128 0x37
 7741 22aa C3270000 		.4byte	0x27c3
 7742 22ae DB1D0000 		.4byte	.LLST52
 7743 22b2 38       		.uleb128 0x38
 7744 22b3 0C000000 		.4byte	.LVL97
 7745 22b7 30       		.uleb128 0x30
 7746 22b8 01       		.uleb128 0x1
 7747 22b9 50       		.byte	0x50
 7748 22ba 02       		.uleb128 0x2
 7749 22bb 74       		.byte	0x74
 7750 22bc 00       		.sleb128 0
 7751 22bd 30       		.uleb128 0x30
 7752 22be 01       		.uleb128 0x1
 7753 22bf 51       		.byte	0x51
 7754 22c0 01       		.uleb128 0x1
 7755 22c1 30       		.byte	0x30
 7756 22c2 00       		.byte	0
 7757 22c3 00       		.byte	0
 7758 22c4 43       		.uleb128 0x43
 7759 22c5 B3270000 		.4byte	0x27b3
 7760 22c9 10000000 		.4byte	.LBB408
 7761 22cd 08000000 		.4byte	.LBE408-.LBB408
 7762 22d1 01       		.byte	0x1
 7763 22d2 F7       		.byte	0xf7
 7764 22d3 FB220000 		.4byte	0x22fb
 7765 22d7 37       		.uleb128 0x37
 7766 22d8 CE270000 		.4byte	0x27ce
 7767 22dc F91D0000 		.4byte	.LLST53
 7768 22e0 37       		.uleb128 0x37
 7769 22e1 C3270000 		.4byte	0x27c3
 7770 22e5 0D1E0000 		.4byte	.LLST54
 7771 22e9 38       		.uleb128 0x38
 7772 22ea 18000000 		.4byte	.LVL99
 7773 22ee 30       		.uleb128 0x30
 7774 22ef 01       		.uleb128 0x1
 7775 22f0 50       		.byte	0x50
 7776 22f1 02       		.uleb128 0x2
 7777 22f2 74       		.byte	0x74
 7778 22f3 00       		.sleb128 0
 7779 22f4 30       		.uleb128 0x30
 7780 22f5 01       		.uleb128 0x1
 7781 22f6 51       		.byte	0x51
 7782 22f7 01       		.uleb128 0x1
 7783 22f8 30       		.byte	0x30
 7784 22f9 00       		.byte	0
 7785 22fa 00       		.byte	0
ARM GAS  /tmp/ccUc3O3E.s 			page 138


 7786 22fb 43       		.uleb128 0x43
 7787 22fc B3270000 		.4byte	0x27b3
 7788 2300 1C000000 		.4byte	.LBB410
 7789 2304 08000000 		.4byte	.LBE410-.LBB410
 7790 2308 01       		.byte	0x1
 7791 2309 F8       		.byte	0xf8
 7792 230a 32230000 		.4byte	0x2332
 7793 230e 37       		.uleb128 0x37
 7794 230f CE270000 		.4byte	0x27ce
 7795 2313 201E0000 		.4byte	.LLST55
 7796 2317 37       		.uleb128 0x37
 7797 2318 C3270000 		.4byte	0x27c3
 7798 231c 341E0000 		.4byte	.LLST56
 7799 2320 38       		.uleb128 0x38
 7800 2321 24000000 		.4byte	.LVL101
 7801 2325 30       		.uleb128 0x30
 7802 2326 01       		.uleb128 0x1
 7803 2327 50       		.byte	0x50
 7804 2328 02       		.uleb128 0x2
 7805 2329 74       		.byte	0x74
 7806 232a 00       		.sleb128 0
 7807 232b 30       		.uleb128 0x30
 7808 232c 01       		.uleb128 0x1
 7809 232d 51       		.byte	0x51
 7810 232e 01       		.uleb128 0x1
 7811 232f 31       		.byte	0x31
 7812 2330 00       		.byte	0
 7813 2331 00       		.byte	0
 7814 2332 43       		.uleb128 0x43
 7815 2333 B3270000 		.4byte	0x27b3
 7816 2337 2C000000 		.4byte	.LBB412
 7817 233b 08000000 		.4byte	.LBE412-.LBB412
 7818 233f 01       		.byte	0x1
 7819 2340 EC       		.byte	0xec
 7820 2341 69230000 		.4byte	0x2369
 7821 2345 37       		.uleb128 0x37
 7822 2346 CE270000 		.4byte	0x27ce
 7823 234a 471E0000 		.4byte	.LLST57
 7824 234e 37       		.uleb128 0x37
 7825 234f C3270000 		.4byte	0x27c3
 7826 2353 5B1E0000 		.4byte	.LLST58
 7827 2357 38       		.uleb128 0x38
 7828 2358 34000000 		.4byte	.LVL103
 7829 235c 30       		.uleb128 0x30
 7830 235d 01       		.uleb128 0x1
 7831 235e 50       		.byte	0x50
 7832 235f 02       		.uleb128 0x2
 7833 2360 74       		.byte	0x74
 7834 2361 00       		.sleb128 0
 7835 2362 30       		.uleb128 0x30
 7836 2363 01       		.uleb128 0x1
 7837 2364 51       		.byte	0x51
 7838 2365 01       		.uleb128 0x1
 7839 2366 31       		.byte	0x31
 7840 2367 00       		.byte	0
 7841 2368 00       		.byte	0
 7842 2369 43       		.uleb128 0x43
ARM GAS  /tmp/ccUc3O3E.s 			page 139


 7843 236a B3270000 		.4byte	0x27b3
 7844 236e 38000000 		.4byte	.LBB414
 7845 2372 08000000 		.4byte	.LBE414-.LBB414
 7846 2376 01       		.byte	0x1
 7847 2377 ED       		.byte	0xed
 7848 2378 A0230000 		.4byte	0x23a0
 7849 237c 37       		.uleb128 0x37
 7850 237d CE270000 		.4byte	0x27ce
 7851 2381 6E1E0000 		.4byte	.LLST59
 7852 2385 37       		.uleb128 0x37
 7853 2386 C3270000 		.4byte	0x27c3
 7854 238a 821E0000 		.4byte	.LLST60
 7855 238e 38       		.uleb128 0x38
 7856 238f 40000000 		.4byte	.LVL105
 7857 2393 30       		.uleb128 0x30
 7858 2394 01       		.uleb128 0x1
 7859 2395 50       		.byte	0x50
 7860 2396 02       		.uleb128 0x2
 7861 2397 74       		.byte	0x74
 7862 2398 00       		.sleb128 0
 7863 2399 30       		.uleb128 0x30
 7864 239a 01       		.uleb128 0x1
 7865 239b 51       		.byte	0x51
 7866 239c 01       		.uleb128 0x1
 7867 239d 32       		.byte	0x32
 7868 239e 00       		.byte	0
 7869 239f 00       		.byte	0
 7870 23a0 43       		.uleb128 0x43
 7871 23a1 B3270000 		.4byte	0x27b3
 7872 23a5 44000000 		.4byte	.LBB416
 7873 23a9 08000000 		.4byte	.LBE416-.LBB416
 7874 23ad 01       		.byte	0x1
 7875 23ae EE       		.byte	0xee
 7876 23af D7230000 		.4byte	0x23d7
 7877 23b3 37       		.uleb128 0x37
 7878 23b4 CE270000 		.4byte	0x27ce
 7879 23b8 951E0000 		.4byte	.LLST61
 7880 23bc 37       		.uleb128 0x37
 7881 23bd C3270000 		.4byte	0x27c3
 7882 23c1 A91E0000 		.4byte	.LLST62
 7883 23c5 38       		.uleb128 0x38
 7884 23c6 4C000000 		.4byte	.LVL107
 7885 23ca 30       		.uleb128 0x30
 7886 23cb 01       		.uleb128 0x1
 7887 23cc 50       		.byte	0x50
 7888 23cd 02       		.uleb128 0x2
 7889 23ce 74       		.byte	0x74
 7890 23cf 00       		.sleb128 0
 7891 23d0 30       		.uleb128 0x30
 7892 23d1 01       		.uleb128 0x1
 7893 23d2 51       		.byte	0x51
 7894 23d3 01       		.uleb128 0x1
 7895 23d4 33       		.byte	0x33
 7896 23d5 00       		.byte	0
 7897 23d6 00       		.byte	0
 7898 23d7 43       		.uleb128 0x43
 7899 23d8 B3270000 		.4byte	0x27b3
ARM GAS  /tmp/ccUc3O3E.s 			page 140


 7900 23dc 50000000 		.4byte	.LBB418
 7901 23e0 08000000 		.4byte	.LBE418-.LBB418
 7902 23e4 01       		.byte	0x1
 7903 23e5 EF       		.byte	0xef
 7904 23e6 0E240000 		.4byte	0x240e
 7905 23ea 37       		.uleb128 0x37
 7906 23eb CE270000 		.4byte	0x27ce
 7907 23ef BC1E0000 		.4byte	.LLST63
 7908 23f3 37       		.uleb128 0x37
 7909 23f4 C3270000 		.4byte	0x27c3
 7910 23f8 D01E0000 		.4byte	.LLST64
 7911 23fc 38       		.uleb128 0x38
 7912 23fd 58000000 		.4byte	.LVL109
 7913 2401 30       		.uleb128 0x30
 7914 2402 01       		.uleb128 0x1
 7915 2403 50       		.byte	0x50
 7916 2404 02       		.uleb128 0x2
 7917 2405 74       		.byte	0x74
 7918 2406 00       		.sleb128 0
 7919 2407 30       		.uleb128 0x30
 7920 2408 01       		.uleb128 0x1
 7921 2409 51       		.byte	0x51
 7922 240a 01       		.uleb128 0x1
 7923 240b 34       		.byte	0x34
 7924 240c 00       		.byte	0
 7925 240d 00       		.byte	0
 7926 240e 43       		.uleb128 0x43
 7927 240f B3270000 		.4byte	0x27b3
 7928 2413 5C000000 		.4byte	.LBB420
 7929 2417 08000000 		.4byte	.LBE420-.LBB420
 7930 241b 01       		.byte	0x1
 7931 241c F0       		.byte	0xf0
 7932 241d 45240000 		.4byte	0x2445
 7933 2421 37       		.uleb128 0x37
 7934 2422 CE270000 		.4byte	0x27ce
 7935 2426 E31E0000 		.4byte	.LLST65
 7936 242a 37       		.uleb128 0x37
 7937 242b C3270000 		.4byte	0x27c3
 7938 242f F71E0000 		.4byte	.LLST66
 7939 2433 38       		.uleb128 0x38
 7940 2434 64000000 		.4byte	.LVL111
 7941 2438 30       		.uleb128 0x30
 7942 2439 01       		.uleb128 0x1
 7943 243a 50       		.byte	0x50
 7944 243b 02       		.uleb128 0x2
 7945 243c 74       		.byte	0x74
 7946 243d 00       		.sleb128 0
 7947 243e 30       		.uleb128 0x30
 7948 243f 01       		.uleb128 0x1
 7949 2440 51       		.byte	0x51
 7950 2441 01       		.uleb128 0x1
 7951 2442 35       		.byte	0x35
 7952 2443 00       		.byte	0
 7953 2444 00       		.byte	0
 7954 2445 43       		.uleb128 0x43
 7955 2446 B3270000 		.4byte	0x27b3
 7956 244a 68000000 		.4byte	.LBB422
ARM GAS  /tmp/ccUc3O3E.s 			page 141


 7957 244e 08000000 		.4byte	.LBE422-.LBB422
 7958 2452 01       		.byte	0x1
 7959 2453 F1       		.byte	0xf1
 7960 2454 7C240000 		.4byte	0x247c
 7961 2458 37       		.uleb128 0x37
 7962 2459 CE270000 		.4byte	0x27ce
 7963 245d 0A1F0000 		.4byte	.LLST67
 7964 2461 37       		.uleb128 0x37
 7965 2462 C3270000 		.4byte	0x27c3
 7966 2466 1E1F0000 		.4byte	.LLST68
 7967 246a 38       		.uleb128 0x38
 7968 246b 70000000 		.4byte	.LVL113
 7969 246f 30       		.uleb128 0x30
 7970 2470 01       		.uleb128 0x1
 7971 2471 50       		.byte	0x50
 7972 2472 02       		.uleb128 0x2
 7973 2473 74       		.byte	0x74
 7974 2474 00       		.sleb128 0
 7975 2475 30       		.uleb128 0x30
 7976 2476 01       		.uleb128 0x1
 7977 2477 51       		.byte	0x51
 7978 2478 01       		.uleb128 0x1
 7979 2479 36       		.byte	0x36
 7980 247a 00       		.byte	0
 7981 247b 00       		.byte	0
 7982 247c 43       		.uleb128 0x43
 7983 247d B3270000 		.4byte	0x27b3
 7984 2481 74000000 		.4byte	.LBB424
 7985 2485 08000000 		.4byte	.LBE424-.LBB424
 7986 2489 01       		.byte	0x1
 7987 248a F2       		.byte	0xf2
 7988 248b B3240000 		.4byte	0x24b3
 7989 248f 37       		.uleb128 0x37
 7990 2490 CE270000 		.4byte	0x27ce
 7991 2494 311F0000 		.4byte	.LLST69
 7992 2498 37       		.uleb128 0x37
 7993 2499 C3270000 		.4byte	0x27c3
 7994 249d 451F0000 		.4byte	.LLST70
 7995 24a1 38       		.uleb128 0x38
 7996 24a2 7C000000 		.4byte	.LVL115
 7997 24a6 30       		.uleb128 0x30
 7998 24a7 01       		.uleb128 0x1
 7999 24a8 50       		.byte	0x50
 8000 24a9 02       		.uleb128 0x2
 8001 24aa 74       		.byte	0x74
 8002 24ab 00       		.sleb128 0
 8003 24ac 30       		.uleb128 0x30
 8004 24ad 01       		.uleb128 0x1
 8005 24ae 51       		.byte	0x51
 8006 24af 01       		.uleb128 0x1
 8007 24b0 37       		.byte	0x37
 8008 24b1 00       		.byte	0
 8009 24b2 00       		.byte	0
 8010 24b3 43       		.uleb128 0x43
 8011 24b4 B3270000 		.4byte	0x27b3
 8012 24b8 80000000 		.4byte	.LBB426
 8013 24bc 08000000 		.4byte	.LBE426-.LBB426
ARM GAS  /tmp/ccUc3O3E.s 			page 142


 8014 24c0 01       		.byte	0x1
 8015 24c1 F3       		.byte	0xf3
 8016 24c2 EA240000 		.4byte	0x24ea
 8017 24c6 37       		.uleb128 0x37
 8018 24c7 CE270000 		.4byte	0x27ce
 8019 24cb 581F0000 		.4byte	.LLST71
 8020 24cf 37       		.uleb128 0x37
 8021 24d0 C3270000 		.4byte	0x27c3
 8022 24d4 6C1F0000 		.4byte	.LLST72
 8023 24d8 38       		.uleb128 0x38
 8024 24d9 88000000 		.4byte	.LVL117
 8025 24dd 30       		.uleb128 0x30
 8026 24de 01       		.uleb128 0x1
 8027 24df 50       		.byte	0x50
 8028 24e0 02       		.uleb128 0x2
 8029 24e1 74       		.byte	0x74
 8030 24e2 00       		.sleb128 0
 8031 24e3 30       		.uleb128 0x30
 8032 24e4 01       		.uleb128 0x1
 8033 24e5 51       		.byte	0x51
 8034 24e6 01       		.uleb128 0x1
 8035 24e7 38       		.byte	0x38
 8036 24e8 00       		.byte	0
 8037 24e9 00       		.byte	0
 8038 24ea 43       		.uleb128 0x43
 8039 24eb 92270000 		.4byte	0x2792
 8040 24ef 90000000 		.4byte	.LBB428
 8041 24f3 08000000 		.4byte	.LBE428-.LBB428
 8042 24f7 01       		.byte	0x1
 8043 24f8 F5       		.byte	0xf5
 8044 24f9 21250000 		.4byte	0x2521
 8045 24fd 37       		.uleb128 0x37
 8046 24fe A9270000 		.4byte	0x27a9
 8047 2502 7F1F0000 		.4byte	.LLST73
 8048 2506 37       		.uleb128 0x37
 8049 2507 9E270000 		.4byte	0x279e
 8050 250b 931F0000 		.4byte	.LLST74
 8051 250f 38       		.uleb128 0x38
 8052 2510 98000000 		.4byte	.LVL119
 8053 2514 30       		.uleb128 0x30
 8054 2515 01       		.uleb128 0x1
 8055 2516 50       		.byte	0x50
 8056 2517 02       		.uleb128 0x2
 8057 2518 74       		.byte	0x74
 8058 2519 00       		.sleb128 0
 8059 251a 30       		.uleb128 0x30
 8060 251b 01       		.uleb128 0x1
 8061 251c 51       		.byte	0x51
 8062 251d 01       		.uleb128 0x1
 8063 251e 39       		.byte	0x39
 8064 251f 00       		.byte	0
 8065 2520 00       		.byte	0
 8066 2521 42       		.uleb128 0x42
 8067 2522 B3270000 		.4byte	0x27b3
 8068 2526 A0000000 		.4byte	.LBB430
 8069 252a F0000000 		.4byte	.Ldebug_ranges0+0xf0
 8070 252e 01       		.byte	0x1
ARM GAS  /tmp/ccUc3O3E.s 			page 143


 8071 252f F9       		.byte	0xf9
 8072 2530 58250000 		.4byte	0x2558
 8073 2534 37       		.uleb128 0x37
 8074 2535 CE270000 		.4byte	0x27ce
 8075 2539 A61F0000 		.4byte	.LLST75
 8076 253d 37       		.uleb128 0x37
 8077 253e C3270000 		.4byte	0x27c3
 8078 2542 BA1F0000 		.4byte	.LLST76
 8079 2546 38       		.uleb128 0x38
 8080 2547 AA000000 		.4byte	.LVL123
 8081 254b 30       		.uleb128 0x30
 8082 254c 01       		.uleb128 0x1
 8083 254d 50       		.byte	0x50
 8084 254e 02       		.uleb128 0x2
 8085 254f 74       		.byte	0x74
 8086 2550 00       		.sleb128 0
 8087 2551 30       		.uleb128 0x30
 8088 2552 01       		.uleb128 0x1
 8089 2553 51       		.byte	0x51
 8090 2554 01       		.uleb128 0x1
 8091 2555 32       		.byte	0x32
 8092 2556 00       		.byte	0
 8093 2557 00       		.byte	0
 8094 2558 43       		.uleb128 0x43
 8095 2559 B3270000 		.4byte	0x27b3
 8096 255d B4000000 		.4byte	.LBB434
 8097 2561 08000000 		.4byte	.LBE434-.LBB434
 8098 2565 01       		.byte	0x1
 8099 2566 FA       		.byte	0xfa
 8100 2567 8F250000 		.4byte	0x258f
 8101 256b 37       		.uleb128 0x37
 8102 256c CE270000 		.4byte	0x27ce
 8103 2570 CD1F0000 		.4byte	.LLST77
 8104 2574 37       		.uleb128 0x37
 8105 2575 C3270000 		.4byte	0x27c3
 8106 2579 E11F0000 		.4byte	.LLST78
 8107 257d 38       		.uleb128 0x38
 8108 257e BC000000 		.4byte	.LVL125
 8109 2582 30       		.uleb128 0x30
 8110 2583 01       		.uleb128 0x1
 8111 2584 50       		.byte	0x50
 8112 2585 02       		.uleb128 0x2
 8113 2586 74       		.byte	0x74
 8114 2587 00       		.sleb128 0
 8115 2588 30       		.uleb128 0x30
 8116 2589 01       		.uleb128 0x1
 8117 258a 51       		.byte	0x51
 8118 258b 01       		.uleb128 0x1
 8119 258c 32       		.byte	0x32
 8120 258d 00       		.byte	0
 8121 258e 00       		.byte	0
 8122 258f 43       		.uleb128 0x43
 8123 2590 92270000 		.4byte	0x2792
 8124 2594 BE000000 		.4byte	.LBB436
 8125 2598 08000000 		.4byte	.LBE436-.LBB436
 8126 259c 01       		.byte	0x1
 8127 259d FB       		.byte	0xfb
ARM GAS  /tmp/ccUc3O3E.s 			page 144


 8128 259e C6250000 		.4byte	0x25c6
 8129 25a2 37       		.uleb128 0x37
 8130 25a3 A9270000 		.4byte	0x27a9
 8131 25a7 F41F0000 		.4byte	.LLST79
 8132 25ab 37       		.uleb128 0x37
 8133 25ac 9E270000 		.4byte	0x279e
 8134 25b0 08200000 		.4byte	.LLST80
 8135 25b4 38       		.uleb128 0x38
 8136 25b5 C6000000 		.4byte	.LVL127
 8137 25b9 30       		.uleb128 0x30
 8138 25ba 01       		.uleb128 0x1
 8139 25bb 50       		.byte	0x50
 8140 25bc 02       		.uleb128 0x2
 8141 25bd 74       		.byte	0x74
 8142 25be 00       		.sleb128 0
 8143 25bf 30       		.uleb128 0x30
 8144 25c0 01       		.uleb128 0x1
 8145 25c1 51       		.byte	0x51
 8146 25c2 01       		.uleb128 0x1
 8147 25c3 33       		.byte	0x33
 8148 25c4 00       		.byte	0
 8149 25c5 00       		.byte	0
 8150 25c6 31       		.uleb128 0x31
 8151 25c7 A0000000 		.4byte	.LVL121
 8152 25cb 4A2E0000 		.4byte	0x2e4a
 8153 25cf 00       		.byte	0
 8154 25d0 44       		.uleb128 0x44
 8155 25d1 12040000 		.4byte	.LASF174
 8156 25d5 01       		.byte	0x1
 8157 25d6 C5       		.byte	0xc5
 8158 25d7 73000000 		.4byte	0x73
 8159 25db 01       		.byte	0x1
 8160 25dc 09260000 		.4byte	0x2609
 8161 25e0 45       		.uleb128 0x45
 8162 25e1 73747200 		.ascii	"str\000"
 8163 25e5 01       		.byte	0x1
 8164 25e6 C5       		.byte	0xc5
 8165 25e7 0F0B0000 		.4byte	0xb0f
 8166 25eb 46       		.uleb128 0x46
 8167 25ec 6900     		.ascii	"i\000"
 8168 25ee 01       		.byte	0x1
 8169 25ef C7       		.byte	0xc7
 8170 25f0 7A000000 		.4byte	0x7a
 8171 25f4 46       		.uleb128 0x46
 8172 25f5 6E00     		.ascii	"n\000"
 8173 25f7 01       		.byte	0x1
 8174 25f8 C8       		.byte	0xc8
 8175 25f9 73000000 		.4byte	0x73
 8176 25fd 46       		.uleb128 0x46
 8177 25fe 6C656E00 		.ascii	"len\000"
 8178 2602 01       		.byte	0x1
 8179 2603 C9       		.byte	0xc9
 8180 2604 7A000000 		.4byte	0x7a
 8181 2608 00       		.byte	0
 8182 2609 44       		.uleb128 0x44
 8183 260a 00000000 		.4byte	.LASF175
 8184 260e 01       		.byte	0x1
ARM GAS  /tmp/ccUc3O3E.s 			page 145


 8185 260f A6       		.byte	0xa6
 8186 2610 73000000 		.4byte	0x73
 8187 2614 01       		.byte	0x1
 8188 2615 58260000 		.4byte	0x2658
 8189 2619 45       		.uleb128 0x45
 8190 261a 73747200 		.ascii	"str\000"
 8191 261e 01       		.byte	0x1
 8192 261f A6       		.byte	0xa6
 8193 2620 0F0B0000 		.4byte	0xb0f
 8194 2624 46       		.uleb128 0x46
 8195 2625 6900     		.ascii	"i\000"
 8196 2627 01       		.byte	0x1
 8197 2628 AA       		.byte	0xaa
 8198 2629 7A000000 		.4byte	0x7a
 8199 262d 46       		.uleb128 0x46
 8200 262e 6C656E00 		.ascii	"len\000"
 8201 2632 01       		.byte	0x1
 8202 2633 AB       		.byte	0xab
 8203 2634 7A000000 		.4byte	0x7a
 8204 2638 46       		.uleb128 0x46
 8205 2639 6E00     		.ascii	"n\000"
 8206 263b 01       		.byte	0x1
 8207 263c AC       		.byte	0xac
 8208 263d 73000000 		.4byte	0x73
 8209 2641 46       		.uleb128 0x46
 8210 2642 6300     		.ascii	"c\000"
 8211 2644 01       		.byte	0x1
 8212 2645 B7       		.byte	0xb7
 8213 2646 73000000 		.4byte	0x73
 8214 264a 47       		.uleb128 0x47
 8215 264b 46       		.uleb128 0x46
 8216 264c 5F5F7800 		.ascii	"__x\000"
 8217 2650 01       		.byte	0x1
 8218 2651 BA       		.byte	0xba
 8219 2652 6F050000 		.4byte	0x56f
 8220 2656 00       		.byte	0
 8221 2657 00       		.byte	0
 8222 2658 44       		.uleb128 0x44
 8223 2659 95060000 		.4byte	.LASF176
 8224 265d 01       		.byte	0x1
 8225 265e 9C       		.byte	0x9c
 8226 265f 6A090000 		.4byte	0x96a
 8227 2663 01       		.byte	0x1
 8228 2664 86260000 		.4byte	0x2686
 8229 2668 45       		.uleb128 0x45
 8230 2669 6300     		.ascii	"c\000"
 8231 266b 01       		.byte	0x1
 8232 266c 9C       		.byte	0x9c
 8233 266d 6F050000 		.4byte	0x56f
 8234 2671 48       		.uleb128 0x48
 8235 2672 92030000 		.4byte	.LASF177
 8236 2676 01       		.byte	0x1
 8237 2677 9D       		.byte	0x9d
 8238 2678 9F050000 		.4byte	0x59f
 8239 267c 46       		.uleb128 0x46
 8240 267d 6900     		.ascii	"i\000"
 8241 267f 01       		.byte	0x1
ARM GAS  /tmp/ccUc3O3E.s 			page 146


 8242 2680 9F       		.byte	0x9f
 8243 2681 73000000 		.4byte	0x73
 8244 2685 00       		.byte	0
 8245 2686 44       		.uleb128 0x44
 8246 2687 A7070000 		.4byte	.LASF178
 8247 268b 01       		.byte	0x1
 8248 268c 92       		.byte	0x92
 8249 268d 6A090000 		.4byte	0x96a
 8250 2691 01       		.byte	0x1
 8251 2692 B4260000 		.4byte	0x26b4
 8252 2696 45       		.uleb128 0x45
 8253 2697 6300     		.ascii	"c\000"
 8254 2699 01       		.byte	0x1
 8255 269a 92       		.byte	0x92
 8256 269b 6F050000 		.4byte	0x56f
 8257 269f 48       		.uleb128 0x48
 8258 26a0 92030000 		.4byte	.LASF177
 8259 26a4 01       		.byte	0x1
 8260 26a5 93       		.byte	0x93
 8261 26a6 9F050000 		.4byte	0x59f
 8262 26aa 46       		.uleb128 0x46
 8263 26ab 6900     		.ascii	"i\000"
 8264 26ad 01       		.byte	0x1
 8265 26ae 95       		.byte	0x95
 8266 26af 73000000 		.4byte	0x73
 8267 26b3 00       		.byte	0
 8268 26b4 3F       		.uleb128 0x3f
 8269 26b5 AF010000 		.4byte	.LASF179
 8270 26b9 01       		.byte	0x1
 8271 26ba 7F       		.byte	0x7f
 8272 26bb AE080000 		.4byte	0x8ae
 8273 26bf 00000000 		.4byte	.LFB41
 8274 26c3 6C000000 		.4byte	.LFE41-.LFB41
 8275 26c7 01       		.uleb128 0x1
 8276 26c8 9C       		.byte	0x9c
 8277 26c9 92270000 		.4byte	0x2792
 8278 26cd 40       		.uleb128 0x40
 8279 26ce 73747200 		.ascii	"str\000"
 8280 26d2 01       		.byte	0x1
 8281 26d3 7F       		.byte	0x7f
 8282 26d4 0F0B0000 		.4byte	0xb0f
 8283 26d8 1B200000 		.4byte	.LLST14
 8284 26dc 49       		.uleb128 0x49
 8285 26dd 00000000 		.4byte	.Ldebug_ranges0+0
 8286 26e1 4A       		.uleb128 0x4a
 8287 26e2 6900     		.ascii	"i\000"
 8288 26e4 01       		.byte	0x1
 8289 26e5 81       		.byte	0x81
 8290 26e6 73000000 		.4byte	0x73
 8291 26ea 39200000 		.4byte	.LLST15
 8292 26ee 49       		.uleb128 0x49
 8293 26ef 18000000 		.4byte	.Ldebug_ranges0+0x18
 8294 26f3 48       		.uleb128 0x48
 8295 26f4 DF040000 		.4byte	.LASF180
 8296 26f8 01       		.byte	0x1
 8297 26f9 82       		.byte	0x82
 8298 26fa AE080000 		.4byte	0x8ae
ARM GAS  /tmp/ccUc3O3E.s 			page 147


 8299 26fe 48       		.uleb128 0x48
 8300 26ff 78000000 		.4byte	.LASF181
 8301 2703 01       		.byte	0x1
 8302 2704 83       		.byte	0x83
 8303 2705 9F050000 		.4byte	0x59f
 8304 2709 46       		.uleb128 0x46
 8305 270a 746F6B00 		.ascii	"tok\000"
 8306 270e 01       		.byte	0x1
 8307 270f 84       		.byte	0x84
 8308 2710 AE080000 		.4byte	0x8ae
 8309 2714 41       		.uleb128 0x41
 8310 2715 2D000000 		.4byte	.LASF182
 8311 2719 01       		.byte	0x1
 8312 271a 86       		.byte	0x86
 8313 271b AE080000 		.4byte	0x8ae
 8314 271f 4D200000 		.4byte	.LLST16
 8315 2723 43       		.uleb128 0x43
 8316 2724 B3270000 		.4byte	0x27b3
 8317 2728 20000000 		.4byte	.LBB308
 8318 272c 0A000000 		.4byte	.LBE308-.LBB308
 8319 2730 01       		.byte	0x1
 8320 2731 88       		.byte	0x88
 8321 2732 5B270000 		.4byte	0x275b
 8322 2736 37       		.uleb128 0x37
 8323 2737 CE270000 		.4byte	0x27ce
 8324 273b 83200000 		.4byte	.LLST17
 8325 273f 37       		.uleb128 0x37
 8326 2740 C3270000 		.4byte	0x27c3
 8327 2744 96200000 		.4byte	.LLST18
 8328 2748 38       		.uleb128 0x38
 8329 2749 2A000000 		.4byte	.LVL29
 8330 274d 30       		.uleb128 0x30
 8331 274e 01       		.uleb128 0x1
 8332 274f 50       		.byte	0x50
 8333 2750 02       		.uleb128 0x2
 8334 2751 7A       		.byte	0x7a
 8335 2752 00       		.sleb128 0
 8336 2753 30       		.uleb128 0x30
 8337 2754 01       		.uleb128 0x1
 8338 2755 51       		.byte	0x51
 8339 2756 02       		.uleb128 0x2
 8340 2757 74       		.byte	0x74
 8341 2758 00       		.sleb128 0
 8342 2759 00       		.byte	0
 8343 275a 00       		.byte	0
 8344 275b 4B       		.uleb128 0x4b
 8345 275c 92270000 		.4byte	0x2792
 8346 2760 46000000 		.4byte	.LBB310
 8347 2764 0A000000 		.4byte	.LBE310-.LBB310
 8348 2768 01       		.byte	0x1
 8349 2769 8B       		.byte	0x8b
 8350 276a 37       		.uleb128 0x37
 8351 276b A9270000 		.4byte	0x27a9
 8352 276f A9200000 		.4byte	.LLST19
 8353 2773 37       		.uleb128 0x37
 8354 2774 9E270000 		.4byte	0x279e
 8355 2778 BC200000 		.4byte	.LLST20
ARM GAS  /tmp/ccUc3O3E.s 			page 148


 8356 277c 38       		.uleb128 0x38
 8357 277d 50000000 		.4byte	.LVL32
 8358 2781 30       		.uleb128 0x30
 8359 2782 01       		.uleb128 0x1
 8360 2783 50       		.byte	0x50
 8361 2784 02       		.uleb128 0x2
 8362 2785 7A       		.byte	0x7a
 8363 2786 00       		.sleb128 0
 8364 2787 30       		.uleb128 0x30
 8365 2788 01       		.uleb128 0x1
 8366 2789 51       		.byte	0x51
 8367 278a 02       		.uleb128 0x2
 8368 278b 76       		.byte	0x76
 8369 278c 00       		.sleb128 0
 8370 278d 00       		.byte	0
 8371 278e 00       		.byte	0
 8372 278f 00       		.byte	0
 8373 2790 00       		.byte	0
 8374 2791 00       		.byte	0
 8375 2792 4C       		.uleb128 0x4c
 8376 2793 C6070000 		.4byte	.LASF135
 8377 2797 01       		.byte	0x1
 8378 2798 7A       		.byte	0x7a
 8379 2799 01       		.byte	0x1
 8380 279a B3270000 		.4byte	0x27b3
 8381 279e 45       		.uleb128 0x45
 8382 279f 73747200 		.ascii	"str\000"
 8383 27a3 01       		.byte	0x1
 8384 27a4 7A       		.byte	0x7a
 8385 27a5 0F0B0000 		.4byte	0xb0f
 8386 27a9 45       		.uleb128 0x45
 8387 27aa 6E00     		.ascii	"n\000"
 8388 27ac 01       		.byte	0x1
 8389 27ad 7A       		.byte	0x7a
 8390 27ae 7A000000 		.4byte	0x7a
 8391 27b2 00       		.byte	0
 8392 27b3 44       		.uleb128 0x44
 8393 27b4 1A060000 		.4byte	.LASF134
 8394 27b8 01       		.byte	0x1
 8395 27b9 76       		.byte	0x76
 8396 27ba 6F050000 		.4byte	0x56f
 8397 27be 01       		.byte	0x1
 8398 27bf D8270000 		.4byte	0x27d8
 8399 27c3 45       		.uleb128 0x45
 8400 27c4 73747200 		.ascii	"str\000"
 8401 27c8 01       		.byte	0x1
 8402 27c9 76       		.byte	0x76
 8403 27ca 0F0B0000 		.4byte	0xb0f
 8404 27ce 45       		.uleb128 0x45
 8405 27cf 6E00     		.ascii	"n\000"
 8406 27d1 01       		.byte	0x1
 8407 27d2 76       		.byte	0x76
 8408 27d3 7A000000 		.4byte	0x7a
 8409 27d7 00       		.byte	0
 8410 27d8 4D       		.uleb128 0x4d
 8411 27d9 67657400 		.ascii	"get\000"
 8412 27dd 01       		.byte	0x1
ARM GAS  /tmp/ccUc3O3E.s 			page 149


 8413 27de 72       		.byte	0x72
 8414 27df 6F050000 		.4byte	0x56f
 8415 27e3 01       		.byte	0x1
 8416 27e4 F4270000 		.4byte	0x27f4
 8417 27e8 45       		.uleb128 0x45
 8418 27e9 73747200 		.ascii	"str\000"
 8419 27ed 01       		.byte	0x1
 8420 27ee 72       		.byte	0x72
 8421 27ef 0F0B0000 		.4byte	0xb0f
 8422 27f3 00       		.byte	0
 8423 27f4 44       		.uleb128 0x44
 8424 27f5 50000000 		.4byte	.LASF133
 8425 27f9 01       		.byte	0x1
 8426 27fa 6E       		.byte	0x6e
 8427 27fb 6A090000 		.4byte	0x96a
 8428 27ff 01       		.byte	0x1
 8429 2800 10280000 		.4byte	0x2810
 8430 2804 45       		.uleb128 0x45
 8431 2805 73747200 		.ascii	"str\000"
 8432 2809 01       		.byte	0x1
 8433 280a 6E       		.byte	0x6e
 8434 280b 0F0B0000 		.4byte	0xb0f
 8435 280f 00       		.byte	0
 8436 2810 4E       		.uleb128 0x4e
 8437 2811 5A040000 		.4byte	.LASF206
 8438 2815 01       		.byte	0x1
 8439 2816 43       		.byte	0x43
 8440 2817 01       		.byte	0x1
 8441 2818 4F       		.uleb128 0x4f
 8442 2819 26080000 		.4byte	.LASF183
 8443 281d 02       		.byte	0x2
 8444 281e 0002     		.2byte	0x200
 8445 2820 D4080000 		.4byte	0x8d4
 8446 2824 03       		.byte	0x3
 8447 2825 34280000 		.4byte	0x2834
 8448 2829 50       		.uleb128 0x50
 8449 282a 7800     		.ascii	"x\000"
 8450 282c 02       		.byte	0x2
 8451 282d 0002     		.2byte	0x200
 8452 282f 6F050000 		.4byte	0x56f
 8453 2833 00       		.byte	0
 8454 2834 4F       		.uleb128 0x4f
 8455 2835 61060000 		.4byte	.LASF184
 8456 2839 02       		.byte	0x2
 8457 283a F801     		.2byte	0x1f8
 8458 283c D4080000 		.4byte	0x8d4
 8459 2840 03       		.byte	0x3
 8460 2841 64280000 		.4byte	0x2864
 8461 2845 50       		.uleb128 0x50
 8462 2846 7800     		.ascii	"x\000"
 8463 2848 02       		.byte	0x2
 8464 2849 F801     		.2byte	0x1f8
 8465 284b 00090000 		.4byte	0x900
 8466 284f 51       		.uleb128 0x51
 8467 2850 7400     		.ascii	"t\000"
 8468 2852 02       		.byte	0x2
 8469 2853 F901     		.2byte	0x1f9
ARM GAS  /tmp/ccUc3O3E.s 			page 150


 8470 2855 EA080000 		.4byte	0x8ea
 8471 2859 51       		.uleb128 0x51
 8472 285a 6600     		.ascii	"f\000"
 8473 285c 02       		.byte	0x2
 8474 285d FB01     		.2byte	0x1fb
 8475 285f D4080000 		.4byte	0x8d4
 8476 2863 00       		.byte	0
 8477 2864 4F       		.uleb128 0x4f
 8478 2865 23030000 		.4byte	.LASF185
 8479 2869 02       		.byte	0x2
 8480 286a F201     		.2byte	0x1f2
 8481 286c D4080000 		.4byte	0x8d4
 8482 2870 03       		.byte	0x3
 8483 2871 8A280000 		.4byte	0x288a
 8484 2875 50       		.uleb128 0x50
 8485 2876 7800     		.ascii	"x\000"
 8486 2878 02       		.byte	0x2
 8487 2879 F201     		.2byte	0x1f2
 8488 287b EA080000 		.4byte	0x8ea
 8489 287f 51       		.uleb128 0x51
 8490 2880 7500     		.ascii	"u\000"
 8491 2882 02       		.byte	0x2
 8492 2883 F301     		.2byte	0x1f3
 8493 2885 D4080000 		.4byte	0x8d4
 8494 2889 00       		.byte	0
 8495 288a 4F       		.uleb128 0x4f
 8496 288b 6B060000 		.4byte	.LASF186
 8497 288f 02       		.byte	0x2
 8498 2890 EC01     		.2byte	0x1ec
 8499 2892 D4080000 		.4byte	0x8d4
 8500 2896 03       		.byte	0x3
 8501 2897 B0280000 		.4byte	0x28b0
 8502 289b 50       		.uleb128 0x50
 8503 289c 7800     		.ascii	"x\000"
 8504 289e 02       		.byte	0x2
 8505 289f EC01     		.2byte	0x1ec
 8506 28a1 F5080000 		.4byte	0x8f5
 8507 28a5 51       		.uleb128 0x51
 8508 28a6 6900     		.ascii	"i\000"
 8509 28a8 02       		.byte	0x2
 8510 28a9 ED01     		.2byte	0x1ed
 8511 28ab D4080000 		.4byte	0x8d4
 8512 28af 00       		.byte	0
 8513 28b0 4F       		.uleb128 0x4f
 8514 28b1 CB030000 		.4byte	.LASF187
 8515 28b5 02       		.byte	0x2
 8516 28b6 E801     		.2byte	0x1e8
 8517 28b8 D4080000 		.4byte	0x8d4
 8518 28bc 03       		.byte	0x3
 8519 28bd CC280000 		.4byte	0x28cc
 8520 28c1 50       		.uleb128 0x50
 8521 28c2 7800     		.ascii	"x\000"
 8522 28c4 02       		.byte	0x2
 8523 28c5 E801     		.2byte	0x1e8
 8524 28c7 EA080000 		.4byte	0x8ea
 8525 28cb 00       		.byte	0
 8526 28cc 4F       		.uleb128 0x4f
ARM GAS  /tmp/ccUc3O3E.s 			page 151


 8527 28cd C2060000 		.4byte	.LASF188
 8528 28d1 02       		.byte	0x2
 8529 28d2 E401     		.2byte	0x1e4
 8530 28d4 D4080000 		.4byte	0x8d4
 8531 28d8 03       		.byte	0x3
 8532 28d9 E8280000 		.4byte	0x28e8
 8533 28dd 50       		.uleb128 0x50
 8534 28de 7800     		.ascii	"x\000"
 8535 28e0 02       		.byte	0x2
 8536 28e1 E401     		.2byte	0x1e4
 8537 28e3 F5080000 		.4byte	0x8f5
 8538 28e7 00       		.byte	0
 8539 28e8 4F       		.uleb128 0x4f
 8540 28e9 44000000 		.4byte	.LASF189
 8541 28ed 02       		.byte	0x2
 8542 28ee E001     		.2byte	0x1e0
 8543 28f0 D4080000 		.4byte	0x8d4
 8544 28f4 03       		.byte	0x3
 8545 28f5 04290000 		.4byte	0x2904
 8546 28f9 50       		.uleb128 0x50
 8547 28fa 7300     		.ascii	"s\000"
 8548 28fc 02       		.byte	0x2
 8549 28fd E001     		.2byte	0x1e0
 8550 28ff AE080000 		.4byte	0x8ae
 8551 2903 00       		.byte	0
 8552 2904 4F       		.uleb128 0x4f
 8553 2905 AF030000 		.4byte	.LASF190
 8554 2909 02       		.byte	0x2
 8555 290a DC01     		.2byte	0x1dc
 8556 290c D4080000 		.4byte	0x8d4
 8557 2910 03       		.byte	0x3
 8558 2911 2A290000 		.4byte	0x292a
 8559 2915 50       		.uleb128 0x50
 8560 2916 7000     		.ascii	"p\000"
 8561 2918 02       		.byte	0x2
 8562 2919 DC01     		.2byte	0x1dc
 8563 291b D4080000 		.4byte	0x8d4
 8564 291f 50       		.uleb128 0x50
 8565 2920 7400     		.ascii	"t\000"
 8566 2922 02       		.byte	0x2
 8567 2923 DC01     		.2byte	0x1dc
 8568 2925 DF080000 		.4byte	0x8df
 8569 2929 00       		.byte	0
 8570 292a 4F       		.uleb128 0x4f
 8571 292b D5030000 		.4byte	.LASF191
 8572 292f 02       		.byte	0x2
 8573 2930 CC01     		.2byte	0x1cc
 8574 2932 DF080000 		.4byte	0x8df
 8575 2936 03       		.byte	0x3
 8576 2937 46290000 		.4byte	0x2946
 8577 293b 50       		.uleb128 0x50
 8578 293c 7800     		.ascii	"x\000"
 8579 293e 02       		.byte	0x2
 8580 293f CC01     		.2byte	0x1cc
 8581 2941 D4080000 		.4byte	0x8d4
 8582 2945 00       		.byte	0
 8583 2946 52       		.uleb128 0x52
ARM GAS  /tmp/ccUc3O3E.s 			page 152


 8584 2947 F4270000 		.4byte	0x27f4
 8585 294b 00000000 		.4byte	.LFB37
 8586 294f 04000000 		.4byte	.LFE37-.LFB37
 8587 2953 01       		.uleb128 0x1
 8588 2954 9C       		.byte	0x9c
 8589 2955 70290000 		.4byte	0x2970
 8590 2959 37       		.uleb128 0x37
 8591 295a 04280000 		.4byte	0x2804
 8592 295e CF200000 		.4byte	.LLST8
 8593 2962 53       		.uleb128 0x53
 8594 2963 04000000 		.4byte	.LVL16
 8595 2967 30       		.uleb128 0x30
 8596 2968 01       		.uleb128 0x1
 8597 2969 50       		.byte	0x50
 8598 296a 03       		.uleb128 0x3
 8599 296b F3       		.byte	0xf3
 8600 296c 01       		.uleb128 0x1
 8601 296d 50       		.byte	0x50
 8602 296e 00       		.byte	0
 8603 296f 00       		.byte	0
 8604 2970 52       		.uleb128 0x52
 8605 2971 D8270000 		.4byte	0x27d8
 8606 2975 00000000 		.4byte	.LFB38
 8607 2979 04000000 		.4byte	.LFE38-.LFB38
 8608 297d 01       		.uleb128 0x1
 8609 297e 9C       		.byte	0x9c
 8610 297f 9A290000 		.4byte	0x299a
 8611 2983 37       		.uleb128 0x37
 8612 2984 E8270000 		.4byte	0x27e8
 8613 2988 F0200000 		.4byte	.LLST9
 8614 298c 53       		.uleb128 0x53
 8615 298d 04000000 		.4byte	.LVL18
 8616 2991 30       		.uleb128 0x30
 8617 2992 01       		.uleb128 0x1
 8618 2993 50       		.byte	0x50
 8619 2994 03       		.uleb128 0x3
 8620 2995 F3       		.byte	0xf3
 8621 2996 01       		.uleb128 0x1
 8622 2997 50       		.byte	0x50
 8623 2998 00       		.byte	0
 8624 2999 00       		.byte	0
 8625 299a 52       		.uleb128 0x52
 8626 299b B3270000 		.4byte	0x27b3
 8627 299f 00000000 		.4byte	.LFB39
 8628 29a3 04000000 		.4byte	.LFE39-.LFB39
 8629 29a7 01       		.uleb128 0x1
 8630 29a8 9C       		.byte	0x9c
 8631 29a9 D4290000 		.4byte	0x29d4
 8632 29ad 37       		.uleb128 0x37
 8633 29ae C3270000 		.4byte	0x27c3
 8634 29b2 11210000 		.4byte	.LLST10
 8635 29b6 37       		.uleb128 0x37
 8636 29b7 CE270000 		.4byte	0x27ce
 8637 29bb 32210000 		.4byte	.LLST11
 8638 29bf 53       		.uleb128 0x53
 8639 29c0 04000000 		.4byte	.LVL20
 8640 29c4 30       		.uleb128 0x30
ARM GAS  /tmp/ccUc3O3E.s 			page 153


 8641 29c5 01       		.uleb128 0x1
 8642 29c6 50       		.byte	0x50
 8643 29c7 03       		.uleb128 0x3
 8644 29c8 F3       		.byte	0xf3
 8645 29c9 01       		.uleb128 0x1
 8646 29ca 50       		.byte	0x50
 8647 29cb 30       		.uleb128 0x30
 8648 29cc 01       		.uleb128 0x1
 8649 29cd 51       		.byte	0x51
 8650 29ce 03       		.uleb128 0x3
 8651 29cf F3       		.byte	0xf3
 8652 29d0 01       		.uleb128 0x1
 8653 29d1 51       		.byte	0x51
 8654 29d2 00       		.byte	0
 8655 29d3 00       		.byte	0
 8656 29d4 52       		.uleb128 0x52
 8657 29d5 92270000 		.4byte	0x2792
 8658 29d9 00000000 		.4byte	.LFB40
 8659 29dd 04000000 		.4byte	.LFE40-.LFB40
 8660 29e1 01       		.uleb128 0x1
 8661 29e2 9C       		.byte	0x9c
 8662 29e3 0E2A0000 		.4byte	0x2a0e
 8663 29e7 37       		.uleb128 0x37
 8664 29e8 9E270000 		.4byte	0x279e
 8665 29ec 53210000 		.4byte	.LLST12
 8666 29f0 37       		.uleb128 0x37
 8667 29f1 A9270000 		.4byte	0x27a9
 8668 29f5 74210000 		.4byte	.LLST13
 8669 29f9 53       		.uleb128 0x53
 8670 29fa 04000000 		.4byte	.LVL22
 8671 29fe 30       		.uleb128 0x30
 8672 29ff 01       		.uleb128 0x1
 8673 2a00 50       		.byte	0x50
 8674 2a01 03       		.uleb128 0x3
 8675 2a02 F3       		.byte	0xf3
 8676 2a03 01       		.uleb128 0x1
 8677 2a04 50       		.byte	0x50
 8678 2a05 30       		.uleb128 0x30
 8679 2a06 01       		.uleb128 0x1
 8680 2a07 51       		.byte	0x51
 8681 2a08 03       		.uleb128 0x3
 8682 2a09 F3       		.byte	0xf3
 8683 2a0a 01       		.uleb128 0x1
 8684 2a0b 51       		.byte	0x51
 8685 2a0c 00       		.byte	0
 8686 2a0d 00       		.byte	0
 8687 2a0e 52       		.uleb128 0x52
 8688 2a0f 86260000 		.4byte	0x2686
 8689 2a13 00000000 		.4byte	.LFB42
 8690 2a17 1C000000 		.4byte	.LFE42-.LFB42
 8691 2a1b 01       		.uleb128 0x1
 8692 2a1c 9C       		.byte	0x9c
 8693 2a1d 402A0000 		.4byte	0x2a40
 8694 2a21 37       		.uleb128 0x37
 8695 2a22 96260000 		.4byte	0x2696
 8696 2a26 95210000 		.4byte	.LLST21
 8697 2a2a 54       		.uleb128 0x54
ARM GAS  /tmp/ccUc3O3E.s 			page 154


 8698 2a2b 9F260000 		.4byte	0x269f
 8699 2a2f 06       		.uleb128 0x6
 8700 2a30 03       		.byte	0x3
 8701 2a31 00000000 		.4byte	.LC1
 8702 2a35 9F       		.byte	0x9f
 8703 2a36 3A       		.uleb128 0x3a
 8704 2a37 AA260000 		.4byte	0x26aa
 8705 2a3b CF210000 		.4byte	.LLST22
 8706 2a3f 00       		.byte	0
 8707 2a40 52       		.uleb128 0x52
 8708 2a41 58260000 		.4byte	0x2658
 8709 2a45 00000000 		.4byte	.LFB43
 8710 2a49 1C000000 		.4byte	.LFE43-.LFB43
 8711 2a4d 01       		.uleb128 0x1
 8712 2a4e 9C       		.byte	0x9c
 8713 2a4f 722A0000 		.4byte	0x2a72
 8714 2a53 37       		.uleb128 0x37
 8715 2a54 68260000 		.4byte	0x2668
 8716 2a58 1C220000 		.4byte	.LLST23
 8717 2a5c 54       		.uleb128 0x54
 8718 2a5d 71260000 		.4byte	0x2671
 8719 2a61 06       		.uleb128 0x6
 8720 2a62 03       		.byte	0x3
 8721 2a63 00000000 		.4byte	.LC2
 8722 2a67 9F       		.byte	0x9f
 8723 2a68 3A       		.uleb128 0x3a
 8724 2a69 7C260000 		.4byte	0x267c
 8725 2a6d 56220000 		.4byte	.LLST24
 8726 2a71 00       		.byte	0
 8727 2a72 52       		.uleb128 0x52
 8728 2a73 09260000 		.4byte	0x2609
 8729 2a77 00000000 		.4byte	.LFB44
 8730 2a7b 9C000000 		.4byte	.LFE44-.LFB44
 8731 2a7f 01       		.uleb128 0x1
 8732 2a80 9C       		.byte	0x9c
 8733 2a81 182C0000 		.4byte	0x2c18
 8734 2a85 37       		.uleb128 0x37
 8735 2a86 19260000 		.4byte	0x2619
 8736 2a8a A3220000 		.4byte	.LLST25
 8737 2a8e 55       		.uleb128 0x55
 8738 2a8f 24260000 		.4byte	0x2624
 8739 2a93 55       		.uleb128 0x55
 8740 2a94 2D260000 		.4byte	0x262d
 8741 2a98 55       		.uleb128 0x55
 8742 2a99 38260000 		.4byte	0x2638
 8743 2a9d 55       		.uleb128 0x55
 8744 2a9e 41260000 		.4byte	0x2641
 8745 2aa2 42       		.uleb128 0x42
 8746 2aa3 B3270000 		.4byte	0x27b3
 8747 2aa7 04000000 		.4byte	.LBB334
 8748 2aab 38000000 		.4byte	.Ldebug_ranges0+0x38
 8749 2aaf 01       		.byte	0x1
 8750 2ab0 A8       		.byte	0xa8
 8751 2ab1 D92A0000 		.4byte	0x2ad9
 8752 2ab5 37       		.uleb128 0x37
 8753 2ab6 CE270000 		.4byte	0x27ce
 8754 2aba C1220000 		.4byte	.LLST26
ARM GAS  /tmp/ccUc3O3E.s 			page 155


 8755 2abe 37       		.uleb128 0x37
 8756 2abf C3270000 		.4byte	0x27c3
 8757 2ac3 D5220000 		.4byte	.LLST27
 8758 2ac7 38       		.uleb128 0x38
 8759 2ac8 0C000000 		.4byte	.LVL49
 8760 2acc 30       		.uleb128 0x30
 8761 2acd 01       		.uleb128 0x1
 8762 2ace 50       		.byte	0x50
 8763 2acf 02       		.uleb128 0x2
 8764 2ad0 76       		.byte	0x76
 8765 2ad1 00       		.sleb128 0
 8766 2ad2 30       		.uleb128 0x30
 8767 2ad3 01       		.uleb128 0x1
 8768 2ad4 51       		.byte	0x51
 8769 2ad5 01       		.uleb128 0x1
 8770 2ad6 30       		.byte	0x30
 8771 2ad7 00       		.byte	0
 8772 2ad8 00       		.byte	0
 8773 2ad9 43       		.uleb128 0x43
 8774 2ada 86260000 		.4byte	0x2686
 8775 2ade 0E000000 		.4byte	.LBB338
 8776 2ae2 0E000000 		.4byte	.LBE338-.LBB338
 8777 2ae6 01       		.byte	0x1
 8778 2ae7 A8       		.byte	0xa8
 8779 2ae8 062B0000 		.4byte	0x2b06
 8780 2aec 35       		.uleb128 0x35
 8781 2aed 96260000 		.4byte	0x2696
 8782 2af1 39       		.uleb128 0x39
 8783 2af2 0E000000 		.4byte	.LBB339
 8784 2af6 0E000000 		.4byte	.LBE339-.LBB339
 8785 2afa 55       		.uleb128 0x55
 8786 2afb 2A2A0000 		.4byte	0x2a2a
 8787 2aff 55       		.uleb128 0x55
 8788 2b00 362A0000 		.4byte	0x2a36
 8789 2b04 00       		.byte	0
 8790 2b05 00       		.byte	0
 8791 2b06 56       		.uleb128 0x56
 8792 2b07 09260000 		.4byte	0x2609
 8793 2b0b 50000000 		.4byte	.Ldebug_ranges0+0x50
 8794 2b0f 35       		.uleb128 0x35
 8795 2b10 19260000 		.4byte	0x2619
 8796 2b14 49       		.uleb128 0x49
 8797 2b15 50000000 		.4byte	.Ldebug_ranges0+0x50
 8798 2b19 3A       		.uleb128 0x3a
 8799 2b1a 8E2A0000 		.4byte	0x2a8e
 8800 2b1e F3220000 		.4byte	.LLST28
 8801 2b22 54       		.uleb128 0x54
 8802 2b23 932A0000 		.4byte	0x2a93
 8803 2b27 01       		.uleb128 0x1
 8804 2b28 57       		.byte	0x57
 8805 2b29 3A       		.uleb128 0x3a
 8806 2b2a 982A0000 		.4byte	0x2a98
 8807 2b2e F3220000 		.4byte	.LLST28
 8808 2b32 3A       		.uleb128 0x3a
 8809 2b33 9D2A0000 		.4byte	0x2a9d
 8810 2b37 1F230000 		.4byte	.LLST30
 8811 2b3b 43       		.uleb128 0x43
ARM GAS  /tmp/ccUc3O3E.s 			page 156


 8812 2b3c B3270000 		.4byte	0x27b3
 8813 2b40 26000000 		.4byte	.LBB342
 8814 2b44 0A000000 		.4byte	.LBE342-.LBB342
 8815 2b48 01       		.byte	0x1
 8816 2b49 AE       		.byte	0xae
 8817 2b4a 732B0000 		.4byte	0x2b73
 8818 2b4e 37       		.uleb128 0x37
 8819 2b4f CE270000 		.4byte	0x27ce
 8820 2b53 49230000 		.4byte	.LLST31
 8821 2b57 37       		.uleb128 0x37
 8822 2b58 C3270000 		.4byte	0x27c3
 8823 2b5c 5C230000 		.4byte	.LLST32
 8824 2b60 38       		.uleb128 0x38
 8825 2b61 2E000000 		.4byte	.LVL55
 8826 2b65 30       		.uleb128 0x30
 8827 2b66 01       		.uleb128 0x1
 8828 2b67 50       		.byte	0x50
 8829 2b68 02       		.uleb128 0x2
 8830 2b69 76       		.byte	0x76
 8831 2b6a 00       		.sleb128 0
 8832 2b6b 30       		.uleb128 0x30
 8833 2b6c 01       		.uleb128 0x1
 8834 2b6d 51       		.byte	0x51
 8835 2b6e 02       		.uleb128 0x2
 8836 2b6f 77       		.byte	0x77
 8837 2b70 00       		.sleb128 0
 8838 2b71 00       		.byte	0
 8839 2b72 00       		.byte	0
 8840 2b73 43       		.uleb128 0x43
 8841 2b74 58260000 		.4byte	0x2658
 8842 2b78 30000000 		.4byte	.LBB344
 8843 2b7c 0E000000 		.4byte	.LBE344-.LBB344
 8844 2b80 01       		.byte	0x1
 8845 2b81 AE       		.byte	0xae
 8846 2b82 A02B0000 		.4byte	0x2ba0
 8847 2b86 35       		.uleb128 0x35
 8848 2b87 68260000 		.4byte	0x2668
 8849 2b8b 39       		.uleb128 0x39
 8850 2b8c 30000000 		.4byte	.LBB345
 8851 2b90 0E000000 		.4byte	.LBE345-.LBB345
 8852 2b94 55       		.uleb128 0x55
 8853 2b95 5C2A0000 		.4byte	0x2a5c
 8854 2b99 55       		.uleb128 0x55
 8855 2b9a 682A0000 		.4byte	0x2a68
 8856 2b9e 00       		.byte	0
 8857 2b9f 00       		.byte	0
 8858 2ba0 43       		.uleb128 0x43
 8859 2ba1 10280000 		.4byte	0x2810
 8860 2ba5 44000000 		.4byte	.LBB346
 8861 2ba9 0C000000 		.4byte	.LBE346-.LBB346
 8862 2bad 01       		.byte	0x1
 8863 2bae B5       		.byte	0xb5
 8864 2baf D42B0000 		.4byte	0x2bd4
 8865 2bb3 32       		.uleb128 0x32
 8866 2bb4 50000000 		.4byte	.LVL59
 8867 2bb8 0A2E0000 		.4byte	0x2e0a
 8868 2bbc 30       		.uleb128 0x30
ARM GAS  /tmp/ccUc3O3E.s 			page 157


 8869 2bbd 01       		.uleb128 0x1
 8870 2bbe 50       		.byte	0x50
 8871 2bbf 05       		.uleb128 0x5
 8872 2bc0 03       		.byte	0x3
 8873 2bc1 00000000 		.4byte	.LANCHOR1
 8874 2bc5 30       		.uleb128 0x30
 8875 2bc6 01       		.uleb128 0x1
 8876 2bc7 51       		.byte	0x51
 8877 2bc8 02       		.uleb128 0x2
 8878 2bc9 74       		.byte	0x74
 8879 2bca 00       		.sleb128 0
 8880 2bcb 30       		.uleb128 0x30
 8881 2bcc 01       		.uleb128 0x1
 8882 2bcd 52       		.byte	0x52
 8883 2bce 03       		.uleb128 0x3
 8884 2bcf 0A       		.byte	0xa
 8885 2bd0 0001     		.2byte	0x100
 8886 2bd2 00       		.byte	0
 8887 2bd3 00       		.byte	0
 8888 2bd4 56       		.uleb128 0x56
 8889 2bd5 4A260000 		.4byte	0x264a
 8890 2bd9 68000000 		.4byte	.Ldebug_ranges0+0x68
 8891 2bdd 55       		.uleb128 0x55
 8892 2bde 4B260000 		.4byte	0x264b
 8893 2be2 43       		.uleb128 0x43
 8894 2be3 D8270000 		.4byte	0x27d8
 8895 2be7 62000000 		.4byte	.LBB349
 8896 2beb 08000000 		.4byte	.LBE349-.LBB349
 8897 2bef 01       		.byte	0x1
 8898 2bf0 BA       		.byte	0xba
 8899 2bf1 0B2C0000 		.4byte	0x2c0b
 8900 2bf5 37       		.uleb128 0x37
 8901 2bf6 E8270000 		.4byte	0x27e8
 8902 2bfa 6F230000 		.4byte	.LLST33
 8903 2bfe 38       		.uleb128 0x38
 8904 2bff 68000000 		.4byte	.LVL62
 8905 2c03 30       		.uleb128 0x30
 8906 2c04 01       		.uleb128 0x1
 8907 2c05 50       		.byte	0x50
 8908 2c06 02       		.uleb128 0x2
 8909 2c07 76       		.byte	0x76
 8910 2c08 00       		.sleb128 0
 8911 2c09 00       		.byte	0
 8912 2c0a 00       		.byte	0
 8913 2c0b 31       		.uleb128 0x31
 8914 2c0c 6E000000 		.4byte	.LVL64
 8915 2c10 4A2E0000 		.4byte	0x2e4a
 8916 2c14 00       		.byte	0
 8917 2c15 00       		.byte	0
 8918 2c16 00       		.byte	0
 8919 2c17 00       		.byte	0
 8920 2c18 52       		.uleb128 0x52
 8921 2c19 D0250000 		.4byte	0x25d0
 8922 2c1d 00000000 		.4byte	.LFB45
 8923 2c21 84000000 		.4byte	.LFE45-.LFB45
 8924 2c25 01       		.uleb128 0x1
 8925 2c26 9C       		.byte	0x9c
ARM GAS  /tmp/ccUc3O3E.s 			page 158


 8926 2c27 F22D0000 		.4byte	0x2df2
 8927 2c2b 37       		.uleb128 0x37
 8928 2c2c E0250000 		.4byte	0x25e0
 8929 2c30 82230000 		.4byte	.LLST34
 8930 2c34 57       		.uleb128 0x57
 8931 2c35 EB250000 		.4byte	0x25eb
 8932 2c39 00       		.byte	0
 8933 2c3a 3A       		.uleb128 0x3a
 8934 2c3b F4250000 		.4byte	0x25f4
 8935 2c3f A0230000 		.4byte	.LLST35
 8936 2c43 57       		.uleb128 0x57
 8937 2c44 FD250000 		.4byte	0x25fd
 8938 2c48 00       		.byte	0
 8939 2c49 42       		.uleb128 0x42
 8940 2c4a B3270000 		.4byte	0x27b3
 8941 2c4e 02000000 		.4byte	.LBB376
 8942 2c52 80000000 		.4byte	.Ldebug_ranges0+0x80
 8943 2c56 01       		.byte	0x1
 8944 2c57 CA       		.byte	0xca
 8945 2c58 802C0000 		.4byte	0x2c80
 8946 2c5c 37       		.uleb128 0x37
 8947 2c5d CE270000 		.4byte	0x27ce
 8948 2c61 CC230000 		.4byte	.LLST36
 8949 2c65 37       		.uleb128 0x37
 8950 2c66 C3270000 		.4byte	0x27c3
 8951 2c6a E0230000 		.4byte	.LLST37
 8952 2c6e 38       		.uleb128 0x38
 8953 2c6f 0A000000 		.4byte	.LVL72
 8954 2c73 30       		.uleb128 0x30
 8955 2c74 01       		.uleb128 0x1
 8956 2c75 50       		.byte	0x50
 8957 2c76 02       		.uleb128 0x2
 8958 2c77 74       		.byte	0x74
 8959 2c78 00       		.sleb128 0
 8960 2c79 30       		.uleb128 0x30
 8961 2c7a 01       		.uleb128 0x1
 8962 2c7b 51       		.byte	0x51
 8963 2c7c 01       		.uleb128 0x1
 8964 2c7d 30       		.byte	0x30
 8965 2c7e 00       		.byte	0
 8966 2c7f 00       		.byte	0
 8967 2c80 43       		.uleb128 0x43
 8968 2c81 D8270000 		.4byte	0x27d8
 8969 2c85 0E000000 		.4byte	.LBB380
 8970 2c89 06000000 		.4byte	.LBE380-.LBB380
 8971 2c8d 01       		.byte	0x1
 8972 2c8e CC       		.byte	0xcc
 8973 2c8f A92C0000 		.4byte	0x2ca9
 8974 2c93 37       		.uleb128 0x37
 8975 2c94 E8270000 		.4byte	0x27e8
 8976 2c98 FE230000 		.4byte	.LLST38
 8977 2c9c 38       		.uleb128 0x38
 8978 2c9d 14000000 		.4byte	.LVL74
 8979 2ca1 30       		.uleb128 0x30
 8980 2ca2 01       		.uleb128 0x1
 8981 2ca3 50       		.byte	0x50
 8982 2ca4 02       		.uleb128 0x2
ARM GAS  /tmp/ccUc3O3E.s 			page 159


 8983 2ca5 74       		.byte	0x74
 8984 2ca6 00       		.sleb128 0
 8985 2ca7 00       		.byte	0
 8986 2ca8 00       		.byte	0
 8987 2ca9 56       		.uleb128 0x56
 8988 2caa D0250000 		.4byte	0x25d0
 8989 2cae 98000000 		.4byte	.Ldebug_ranges0+0x98
 8990 2cb2 37       		.uleb128 0x37
 8991 2cb3 E0250000 		.4byte	0x25e0
 8992 2cb7 11240000 		.4byte	.LLST39
 8993 2cbb 49       		.uleb128 0x49
 8994 2cbc 98000000 		.4byte	.Ldebug_ranges0+0x98
 8995 2cc0 55       		.uleb128 0x55
 8996 2cc1 342C0000 		.4byte	0x2c34
 8997 2cc5 55       		.uleb128 0x55
 8998 2cc6 3A2C0000 		.4byte	0x2c3a
 8999 2cca 55       		.uleb128 0x55
 9000 2ccb 432C0000 		.4byte	0x2c43
 9001 2ccf 42       		.uleb128 0x42
 9002 2cd0 B3270000 		.4byte	0x27b3
 9003 2cd4 18000000 		.4byte	.LBB384
 9004 2cd8 B8000000 		.4byte	.Ldebug_ranges0+0xb8
 9005 2cdc 01       		.byte	0x1
 9006 2cdd D1       		.byte	0xd1
 9007 2cde 012D0000 		.4byte	0x2d01
 9008 2ce2 37       		.uleb128 0x37
 9009 2ce3 CE270000 		.4byte	0x27ce
 9010 2ce7 2F240000 		.4byte	.LLST40
 9011 2ceb 37       		.uleb128 0x37
 9012 2cec C3270000 		.4byte	0x27c3
 9013 2cf0 58240000 		.4byte	.LLST41
 9014 2cf4 38       		.uleb128 0x38
 9015 2cf5 1E000000 		.4byte	.LVL76
 9016 2cf9 30       		.uleb128 0x30
 9017 2cfa 01       		.uleb128 0x1
 9018 2cfb 50       		.byte	0x50
 9019 2cfc 02       		.uleb128 0x2
 9020 2cfd 74       		.byte	0x74
 9021 2cfe 00       		.sleb128 0
 9022 2cff 00       		.byte	0
 9023 2d00 00       		.byte	0
 9024 2d01 43       		.uleb128 0x43
 9025 2d02 B3270000 		.4byte	0x27b3
 9026 2d06 24000000 		.4byte	.LBB387
 9027 2d0a 08000000 		.4byte	.LBE387-.LBB387
 9028 2d0e 01       		.byte	0x1
 9029 2d0f D0       		.byte	0xd0
 9030 2d10 392D0000 		.4byte	0x2d39
 9031 2d14 37       		.uleb128 0x37
 9032 2d15 CE270000 		.4byte	0x27ce
 9033 2d19 76240000 		.4byte	.LLST42
 9034 2d1d 37       		.uleb128 0x37
 9035 2d1e C3270000 		.4byte	0x27c3
 9036 2d22 89240000 		.4byte	.LLST43
 9037 2d26 38       		.uleb128 0x38
 9038 2d27 2C000000 		.4byte	.LVL78
 9039 2d2b 30       		.uleb128 0x30
ARM GAS  /tmp/ccUc3O3E.s 			page 160


 9040 2d2c 01       		.uleb128 0x1
 9041 2d2d 50       		.byte	0x50
 9042 2d2e 02       		.uleb128 0x2
 9043 2d2f 74       		.byte	0x74
 9044 2d30 00       		.sleb128 0
 9045 2d31 30       		.uleb128 0x30
 9046 2d32 01       		.uleb128 0x1
 9047 2d33 51       		.byte	0x51
 9048 2d34 02       		.uleb128 0x2
 9049 2d35 75       		.byte	0x75
 9050 2d36 00       		.sleb128 0
 9051 2d37 00       		.byte	0
 9052 2d38 00       		.byte	0
 9053 2d39 43       		.uleb128 0x43
 9054 2d3a B3270000 		.4byte	0x27b3
 9055 2d3e 38000000 		.4byte	.LBB390
 9056 2d42 08000000 		.4byte	.LBE390-.LBB390
 9057 2d46 01       		.byte	0x1
 9058 2d47 D9       		.byte	0xd9
 9059 2d48 712D0000 		.4byte	0x2d71
 9060 2d4c 37       		.uleb128 0x37
 9061 2d4d CE270000 		.4byte	0x27ce
 9062 2d51 9C240000 		.4byte	.LLST44
 9063 2d55 37       		.uleb128 0x37
 9064 2d56 C3270000 		.4byte	0x27c3
 9065 2d5a AF240000 		.4byte	.LLST45
 9066 2d5e 38       		.uleb128 0x38
 9067 2d5f 40000000 		.4byte	.LVL81
 9068 2d63 30       		.uleb128 0x30
 9069 2d64 01       		.uleb128 0x1
 9070 2d65 50       		.byte	0x50
 9071 2d66 02       		.uleb128 0x2
 9072 2d67 74       		.byte	0x74
 9073 2d68 00       		.sleb128 0
 9074 2d69 30       		.uleb128 0x30
 9075 2d6a 01       		.uleb128 0x1
 9076 2d6b 51       		.byte	0x51
 9077 2d6c 02       		.uleb128 0x2
 9078 2d6d 75       		.byte	0x75
 9079 2d6e 00       		.sleb128 0
 9080 2d6f 00       		.byte	0
 9081 2d70 00       		.byte	0
 9082 2d71 43       		.uleb128 0x43
 9083 2d72 10280000 		.4byte	0x2810
 9084 2d76 4A000000 		.4byte	.LBB392
 9085 2d7a 0E000000 		.4byte	.LBE392-.LBB392
 9086 2d7e 01       		.byte	0x1
 9087 2d7f DD       		.byte	0xdd
 9088 2d80 A12D0000 		.4byte	0x2da1
 9089 2d84 32       		.uleb128 0x32
 9090 2d85 58000000 		.4byte	.LVL84
 9091 2d89 0A2E0000 		.4byte	0x2e0a
 9092 2d8d 30       		.uleb128 0x30
 9093 2d8e 01       		.uleb128 0x1
 9094 2d8f 50       		.byte	0x50
 9095 2d90 02       		.uleb128 0x2
 9096 2d91 76       		.byte	0x76
ARM GAS  /tmp/ccUc3O3E.s 			page 161


 9097 2d92 00       		.sleb128 0
 9098 2d93 30       		.uleb128 0x30
 9099 2d94 01       		.uleb128 0x1
 9100 2d95 51       		.byte	0x51
 9101 2d96 01       		.uleb128 0x1
 9102 2d97 30       		.byte	0x30
 9103 2d98 30       		.uleb128 0x30
 9104 2d99 01       		.uleb128 0x1
 9105 2d9a 52       		.byte	0x52
 9106 2d9b 03       		.uleb128 0x3
 9107 2d9c 0A       		.byte	0xa
 9108 2d9d 0001     		.2byte	0x100
 9109 2d9f 00       		.byte	0
 9110 2da0 00       		.byte	0
 9111 2da1 43       		.uleb128 0x43
 9112 2da2 D8270000 		.4byte	0x27d8
 9113 2da6 5C000000 		.4byte	.LBB394
 9114 2daa 06000000 		.4byte	.LBE394-.LBB394
 9115 2dae 01       		.byte	0x1
 9116 2daf E0       		.byte	0xe0
 9117 2db0 CA2D0000 		.4byte	0x2dca
 9118 2db4 37       		.uleb128 0x37
 9119 2db5 E8270000 		.4byte	0x27e8
 9120 2db9 C2240000 		.4byte	.LLST46
 9121 2dbd 38       		.uleb128 0x38
 9122 2dbe 62000000 		.4byte	.LVL86
 9123 2dc2 30       		.uleb128 0x30
 9124 2dc3 01       		.uleb128 0x1
 9125 2dc4 50       		.byte	0x50
 9126 2dc5 02       		.uleb128 0x2
 9127 2dc6 74       		.byte	0x74
 9128 2dc7 00       		.sleb128 0
 9129 2dc8 00       		.byte	0
 9130 2dc9 00       		.byte	0
 9131 2dca 4B       		.uleb128 0x4b
 9132 2dcb D8270000 		.4byte	0x27d8
 9133 2dcf 6C000000 		.4byte	.LBB396
 9134 2dd3 06000000 		.4byte	.LBE396-.LBB396
 9135 2dd7 01       		.byte	0x1
 9136 2dd8 E4       		.byte	0xe4
 9137 2dd9 37       		.uleb128 0x37
 9138 2dda E8270000 		.4byte	0x27e8
 9139 2dde D5240000 		.4byte	.LLST47
 9140 2de2 38       		.uleb128 0x38
 9141 2de3 72000000 		.4byte	.LVL89
 9142 2de7 30       		.uleb128 0x30
 9143 2de8 01       		.uleb128 0x1
 9144 2de9 50       		.byte	0x50
 9145 2dea 02       		.uleb128 0x2
 9146 2deb 74       		.byte	0x74
 9147 2dec 00       		.sleb128 0
 9148 2ded 00       		.byte	0
 9149 2dee 00       		.byte	0
 9150 2def 00       		.byte	0
 9151 2df0 00       		.byte	0
 9152 2df1 00       		.byte	0
 9153 2df2 58       		.uleb128 0x58
ARM GAS  /tmp/ccUc3O3E.s 			page 162


 9154 2df3 2D030000 		.4byte	.LASF192
 9155 2df7 2D030000 		.4byte	.LASF192
 9156 2dfb 02       		.byte	0x2
 9157 2dfc C501     		.2byte	0x1c5
 9158 2dfe 58       		.uleb128 0x58
 9159 2dff 12060000 		.4byte	.LASF193
 9160 2e03 12060000 		.4byte	.LASF193
 9161 2e07 02       		.byte	0x2
 9162 2e08 5C01     		.2byte	0x15c
 9163 2e0a 59       		.uleb128 0x59
 9164 2e0b 7F050000 		.4byte	.LASF194
 9165 2e0f F9060000 		.4byte	.LASF196
 9166 2e13 0D       		.byte	0xd
 9167 2e14 00       		.byte	0
 9168 2e15 7F050000 		.4byte	.LASF194
 9169 2e19 59       		.uleb128 0x59
 9170 2e1a 7D080000 		.4byte	.LASF195
 9171 2e1e EE000000 		.4byte	.LASF197
 9172 2e22 0D       		.byte	0xd
 9173 2e23 00       		.byte	0
 9174 2e24 7D080000 		.4byte	.LASF195
 9175 2e28 5A       		.uleb128 0x5a
 9176 2e29 9A010000 		.4byte	.LASF198
 9177 2e2d 9A010000 		.4byte	.LASF198
 9178 2e31 0E       		.byte	0xe
 9179 2e32 A9       		.byte	0xa9
 9180 2e33 5A       		.uleb128 0x5a
 9181 2e34 62070000 		.4byte	.LASF199
 9182 2e38 62070000 		.4byte	.LASF199
 9183 2e3c 0E       		.byte	0xe
 9184 2e3d B7       		.byte	0xb7
 9185 2e3e 58       		.uleb128 0x58
 9186 2e3f B4050000 		.4byte	.LASF200
 9187 2e43 B4050000 		.4byte	.LASF200
 9188 2e47 02       		.byte	0x2
 9189 2e48 5301     		.2byte	0x153
 9190 2e4a 5A       		.uleb128 0x5a
 9191 2e4b B6080000 		.4byte	.LASF201
 9192 2e4f B6080000 		.4byte	.LASF201
 9193 2e53 09       		.byte	0x9
 9194 2e54 45       		.byte	0x45
 9195 2e55 5A       		.uleb128 0x5a
 9196 2e56 BA070000 		.4byte	.LASF202
 9197 2e5a BA070000 		.4byte	.LASF202
 9198 2e5e 0B       		.byte	0xb
 9199 2e5f 9D       		.byte	0x9d
 9200 2e60 00       		.byte	0
 9201              		.section	.debug_abbrev,"",%progbits
 9202              	.Ldebug_abbrev0:
 9203 0000 01       		.uleb128 0x1
 9204 0001 11       		.uleb128 0x11
 9205 0002 01       		.byte	0x1
 9206 0003 25       		.uleb128 0x25
 9207 0004 0E       		.uleb128 0xe
 9208 0005 13       		.uleb128 0x13
 9209 0006 0B       		.uleb128 0xb
 9210 0007 03       		.uleb128 0x3
ARM GAS  /tmp/ccUc3O3E.s 			page 163


 9211 0008 0E       		.uleb128 0xe
 9212 0009 1B       		.uleb128 0x1b
 9213 000a 0E       		.uleb128 0xe
 9214 000b 55       		.uleb128 0x55
 9215 000c 17       		.uleb128 0x17
 9216 000d 11       		.uleb128 0x11
 9217 000e 01       		.uleb128 0x1
 9218 000f 10       		.uleb128 0x10
 9219 0010 17       		.uleb128 0x17
 9220 0011 00       		.byte	0
 9221 0012 00       		.byte	0
 9222 0013 02       		.uleb128 0x2
 9223 0014 24       		.uleb128 0x24
 9224 0015 00       		.byte	0
 9225 0016 0B       		.uleb128 0xb
 9226 0017 0B       		.uleb128 0xb
 9227 0018 3E       		.uleb128 0x3e
 9228 0019 0B       		.uleb128 0xb
 9229 001a 03       		.uleb128 0x3
 9230 001b 0E       		.uleb128 0xe
 9231 001c 00       		.byte	0
 9232 001d 00       		.byte	0
 9233 001e 03       		.uleb128 0x3
 9234 001f 16       		.uleb128 0x16
 9235 0020 00       		.byte	0
 9236 0021 03       		.uleb128 0x3
 9237 0022 0E       		.uleb128 0xe
 9238 0023 3A       		.uleb128 0x3a
 9239 0024 0B       		.uleb128 0xb
 9240 0025 3B       		.uleb128 0x3b
 9241 0026 0B       		.uleb128 0xb
 9242 0027 49       		.uleb128 0x49
 9243 0028 13       		.uleb128 0x13
 9244 0029 00       		.byte	0
 9245 002a 00       		.byte	0
 9246 002b 04       		.uleb128 0x4
 9247 002c 24       		.uleb128 0x24
 9248 002d 00       		.byte	0
 9249 002e 0B       		.uleb128 0xb
 9250 002f 0B       		.uleb128 0xb
 9251 0030 3E       		.uleb128 0x3e
 9252 0031 0B       		.uleb128 0xb
 9253 0032 03       		.uleb128 0x3
 9254 0033 08       		.uleb128 0x8
 9255 0034 00       		.byte	0
 9256 0035 00       		.byte	0
 9257 0036 05       		.uleb128 0x5
 9258 0037 0F       		.uleb128 0xf
 9259 0038 00       		.byte	0
 9260 0039 0B       		.uleb128 0xb
 9261 003a 0B       		.uleb128 0xb
 9262 003b 00       		.byte	0
 9263 003c 00       		.byte	0
 9264 003d 06       		.uleb128 0x6
 9265 003e 0F       		.uleb128 0xf
 9266 003f 00       		.byte	0
 9267 0040 0B       		.uleb128 0xb
ARM GAS  /tmp/ccUc3O3E.s 			page 164


 9268 0041 0B       		.uleb128 0xb
 9269 0042 49       		.uleb128 0x49
 9270 0043 13       		.uleb128 0x13
 9271 0044 00       		.byte	0
 9272 0045 00       		.byte	0
 9273 0046 07       		.uleb128 0x7
 9274 0047 13       		.uleb128 0x13
 9275 0048 00       		.byte	0
 9276 0049 03       		.uleb128 0x3
 9277 004a 0E       		.uleb128 0xe
 9278 004b 3C       		.uleb128 0x3c
 9279 004c 19       		.uleb128 0x19
 9280 004d 00       		.byte	0
 9281 004e 00       		.byte	0
 9282 004f 08       		.uleb128 0x8
 9283 0050 16       		.uleb128 0x16
 9284 0051 00       		.byte	0
 9285 0052 03       		.uleb128 0x3
 9286 0053 0E       		.uleb128 0xe
 9287 0054 3A       		.uleb128 0x3a
 9288 0055 0B       		.uleb128 0xb
 9289 0056 3B       		.uleb128 0x3b
 9290 0057 05       		.uleb128 0x5
 9291 0058 49       		.uleb128 0x49
 9292 0059 13       		.uleb128 0x13
 9293 005a 00       		.byte	0
 9294 005b 00       		.byte	0
 9295 005c 09       		.uleb128 0x9
 9296 005d 17       		.uleb128 0x17
 9297 005e 01       		.byte	0x1
 9298 005f 0B       		.uleb128 0xb
 9299 0060 0B       		.uleb128 0xb
 9300 0061 3A       		.uleb128 0x3a
 9301 0062 0B       		.uleb128 0xb
 9302 0063 3B       		.uleb128 0x3b
 9303 0064 0B       		.uleb128 0xb
 9304 0065 01       		.uleb128 0x1
 9305 0066 13       		.uleb128 0x13
 9306 0067 00       		.byte	0
 9307 0068 00       		.byte	0
 9308 0069 0A       		.uleb128 0xa
 9309 006a 0D       		.uleb128 0xd
 9310 006b 00       		.byte	0
 9311 006c 03       		.uleb128 0x3
 9312 006d 0E       		.uleb128 0xe
 9313 006e 3A       		.uleb128 0x3a
 9314 006f 0B       		.uleb128 0xb
 9315 0070 3B       		.uleb128 0x3b
 9316 0071 0B       		.uleb128 0xb
 9317 0072 49       		.uleb128 0x49
 9318 0073 13       		.uleb128 0x13
 9319 0074 00       		.byte	0
 9320 0075 00       		.byte	0
 9321 0076 0B       		.uleb128 0xb
 9322 0077 01       		.uleb128 0x1
 9323 0078 01       		.byte	0x1
 9324 0079 49       		.uleb128 0x49
ARM GAS  /tmp/ccUc3O3E.s 			page 165


 9325 007a 13       		.uleb128 0x13
 9326 007b 01       		.uleb128 0x1
 9327 007c 13       		.uleb128 0x13
 9328 007d 00       		.byte	0
 9329 007e 00       		.byte	0
 9330 007f 0C       		.uleb128 0xc
 9331 0080 21       		.uleb128 0x21
 9332 0081 00       		.byte	0
 9333 0082 49       		.uleb128 0x49
 9334 0083 13       		.uleb128 0x13
 9335 0084 2F       		.uleb128 0x2f
 9336 0085 0B       		.uleb128 0xb
 9337 0086 00       		.byte	0
 9338 0087 00       		.byte	0
 9339 0088 0D       		.uleb128 0xd
 9340 0089 13       		.uleb128 0x13
 9341 008a 01       		.byte	0x1
 9342 008b 0B       		.uleb128 0xb
 9343 008c 0B       		.uleb128 0xb
 9344 008d 3A       		.uleb128 0x3a
 9345 008e 0B       		.uleb128 0xb
 9346 008f 3B       		.uleb128 0x3b
 9347 0090 0B       		.uleb128 0xb
 9348 0091 01       		.uleb128 0x1
 9349 0092 13       		.uleb128 0x13
 9350 0093 00       		.byte	0
 9351 0094 00       		.byte	0
 9352 0095 0E       		.uleb128 0xe
 9353 0096 0D       		.uleb128 0xd
 9354 0097 00       		.byte	0
 9355 0098 03       		.uleb128 0x3
 9356 0099 0E       		.uleb128 0xe
 9357 009a 3A       		.uleb128 0x3a
 9358 009b 0B       		.uleb128 0xb
 9359 009c 3B       		.uleb128 0x3b
 9360 009d 0B       		.uleb128 0xb
 9361 009e 49       		.uleb128 0x49
 9362 009f 13       		.uleb128 0x13
 9363 00a0 38       		.uleb128 0x38
 9364 00a1 0B       		.uleb128 0xb
 9365 00a2 00       		.byte	0
 9366 00a3 00       		.byte	0
 9367 00a4 0F       		.uleb128 0xf
 9368 00a5 13       		.uleb128 0x13
 9369 00a6 01       		.byte	0x1
 9370 00a7 03       		.uleb128 0x3
 9371 00a8 0E       		.uleb128 0xe
 9372 00a9 0B       		.uleb128 0xb
 9373 00aa 0B       		.uleb128 0xb
 9374 00ab 3A       		.uleb128 0x3a
 9375 00ac 0B       		.uleb128 0xb
 9376 00ad 3B       		.uleb128 0x3b
 9377 00ae 0B       		.uleb128 0xb
 9378 00af 01       		.uleb128 0x1
 9379 00b0 13       		.uleb128 0x13
 9380 00b1 00       		.byte	0
 9381 00b2 00       		.byte	0
ARM GAS  /tmp/ccUc3O3E.s 			page 166


 9382 00b3 10       		.uleb128 0x10
 9383 00b4 0D       		.uleb128 0xd
 9384 00b5 00       		.byte	0
 9385 00b6 03       		.uleb128 0x3
 9386 00b7 08       		.uleb128 0x8
 9387 00b8 3A       		.uleb128 0x3a
 9388 00b9 0B       		.uleb128 0xb
 9389 00ba 3B       		.uleb128 0x3b
 9390 00bb 0B       		.uleb128 0xb
 9391 00bc 49       		.uleb128 0x49
 9392 00bd 13       		.uleb128 0x13
 9393 00be 38       		.uleb128 0x38
 9394 00bf 0B       		.uleb128 0xb
 9395 00c0 00       		.byte	0
 9396 00c1 00       		.byte	0
 9397 00c2 11       		.uleb128 0x11
 9398 00c3 13       		.uleb128 0x13
 9399 00c4 01       		.byte	0x1
 9400 00c5 03       		.uleb128 0x3
 9401 00c6 0E       		.uleb128 0xe
 9402 00c7 0B       		.uleb128 0xb
 9403 00c8 05       		.uleb128 0x5
 9404 00c9 3A       		.uleb128 0x3a
 9405 00ca 0B       		.uleb128 0xb
 9406 00cb 3B       		.uleb128 0x3b
 9407 00cc 0B       		.uleb128 0xb
 9408 00cd 01       		.uleb128 0x1
 9409 00ce 13       		.uleb128 0x13
 9410 00cf 00       		.byte	0
 9411 00d0 00       		.byte	0
 9412 00d1 12       		.uleb128 0x12
 9413 00d2 0D       		.uleb128 0xd
 9414 00d3 00       		.byte	0
 9415 00d4 03       		.uleb128 0x3
 9416 00d5 0E       		.uleb128 0xe
 9417 00d6 3A       		.uleb128 0x3a
 9418 00d7 0B       		.uleb128 0xb
 9419 00d8 3B       		.uleb128 0x3b
 9420 00d9 0B       		.uleb128 0xb
 9421 00da 49       		.uleb128 0x49
 9422 00db 13       		.uleb128 0x13
 9423 00dc 38       		.uleb128 0x38
 9424 00dd 05       		.uleb128 0x5
 9425 00de 00       		.byte	0
 9426 00df 00       		.byte	0
 9427 00e0 13       		.uleb128 0x13
 9428 00e1 15       		.uleb128 0x15
 9429 00e2 00       		.byte	0
 9430 00e3 27       		.uleb128 0x27
 9431 00e4 19       		.uleb128 0x19
 9432 00e5 00       		.byte	0
 9433 00e6 00       		.byte	0
 9434 00e7 14       		.uleb128 0x14
 9435 00e8 15       		.uleb128 0x15
 9436 00e9 01       		.byte	0x1
 9437 00ea 27       		.uleb128 0x27
 9438 00eb 19       		.uleb128 0x19
ARM GAS  /tmp/ccUc3O3E.s 			page 167


 9439 00ec 49       		.uleb128 0x49
 9440 00ed 13       		.uleb128 0x13
 9441 00ee 01       		.uleb128 0x1
 9442 00ef 13       		.uleb128 0x13
 9443 00f0 00       		.byte	0
 9444 00f1 00       		.byte	0
 9445 00f2 15       		.uleb128 0x15
 9446 00f3 05       		.uleb128 0x5
 9447 00f4 00       		.byte	0
 9448 00f5 49       		.uleb128 0x49
 9449 00f6 13       		.uleb128 0x13
 9450 00f7 00       		.byte	0
 9451 00f8 00       		.byte	0
 9452 00f9 16       		.uleb128 0x16
 9453 00fa 26       		.uleb128 0x26
 9454 00fb 00       		.byte	0
 9455 00fc 49       		.uleb128 0x49
 9456 00fd 13       		.uleb128 0x13
 9457 00fe 00       		.byte	0
 9458 00ff 00       		.byte	0
 9459 0100 17       		.uleb128 0x17
 9460 0101 13       		.uleb128 0x13
 9461 0102 01       		.byte	0x1
 9462 0103 03       		.uleb128 0x3
 9463 0104 0E       		.uleb128 0xe
 9464 0105 0B       		.uleb128 0xb
 9465 0106 05       		.uleb128 0x5
 9466 0107 3A       		.uleb128 0x3a
 9467 0108 0B       		.uleb128 0xb
 9468 0109 3B       		.uleb128 0x3b
 9469 010a 05       		.uleb128 0x5
 9470 010b 01       		.uleb128 0x1
 9471 010c 13       		.uleb128 0x13
 9472 010d 00       		.byte	0
 9473 010e 00       		.byte	0
 9474 010f 18       		.uleb128 0x18
 9475 0110 0D       		.uleb128 0xd
 9476 0111 00       		.byte	0
 9477 0112 03       		.uleb128 0x3
 9478 0113 0E       		.uleb128 0xe
 9479 0114 3A       		.uleb128 0x3a
 9480 0115 0B       		.uleb128 0xb
 9481 0116 3B       		.uleb128 0x3b
 9482 0117 05       		.uleb128 0x5
 9483 0118 49       		.uleb128 0x49
 9484 0119 13       		.uleb128 0x13
 9485 011a 38       		.uleb128 0x38
 9486 011b 0B       		.uleb128 0xb
 9487 011c 00       		.byte	0
 9488 011d 00       		.byte	0
 9489 011e 19       		.uleb128 0x19
 9490 011f 0D       		.uleb128 0xd
 9491 0120 00       		.byte	0
 9492 0121 03       		.uleb128 0x3
 9493 0122 0E       		.uleb128 0xe
 9494 0123 3A       		.uleb128 0x3a
 9495 0124 0B       		.uleb128 0xb
ARM GAS  /tmp/ccUc3O3E.s 			page 168


 9496 0125 3B       		.uleb128 0x3b
 9497 0126 05       		.uleb128 0x5
 9498 0127 49       		.uleb128 0x49
 9499 0128 13       		.uleb128 0x13
 9500 0129 38       		.uleb128 0x38
 9501 012a 05       		.uleb128 0x5
 9502 012b 00       		.byte	0
 9503 012c 00       		.byte	0
 9504 012d 1A       		.uleb128 0x1a
 9505 012e 13       		.uleb128 0x13
 9506 012f 01       		.byte	0x1
 9507 0130 03       		.uleb128 0x3
 9508 0131 0E       		.uleb128 0xe
 9509 0132 0B       		.uleb128 0xb
 9510 0133 0B       		.uleb128 0xb
 9511 0134 3A       		.uleb128 0x3a
 9512 0135 0B       		.uleb128 0xb
 9513 0136 3B       		.uleb128 0x3b
 9514 0137 05       		.uleb128 0x5
 9515 0138 01       		.uleb128 0x1
 9516 0139 13       		.uleb128 0x13
 9517 013a 00       		.byte	0
 9518 013b 00       		.byte	0
 9519 013c 1B       		.uleb128 0x1b
 9520 013d 13       		.uleb128 0x13
 9521 013e 01       		.byte	0x1
 9522 013f 0B       		.uleb128 0xb
 9523 0140 0B       		.uleb128 0xb
 9524 0141 3A       		.uleb128 0x3a
 9525 0142 0B       		.uleb128 0xb
 9526 0143 3B       		.uleb128 0x3b
 9527 0144 05       		.uleb128 0x5
 9528 0145 01       		.uleb128 0x1
 9529 0146 13       		.uleb128 0x13
 9530 0147 00       		.byte	0
 9531 0148 00       		.byte	0
 9532 0149 1C       		.uleb128 0x1c
 9533 014a 17       		.uleb128 0x17
 9534 014b 01       		.byte	0x1
 9535 014c 0B       		.uleb128 0xb
 9536 014d 0B       		.uleb128 0xb
 9537 014e 3A       		.uleb128 0x3a
 9538 014f 0B       		.uleb128 0xb
 9539 0150 3B       		.uleb128 0x3b
 9540 0151 05       		.uleb128 0x5
 9541 0152 01       		.uleb128 0x1
 9542 0153 13       		.uleb128 0x13
 9543 0154 00       		.byte	0
 9544 0155 00       		.byte	0
 9545 0156 1D       		.uleb128 0x1d
 9546 0157 0D       		.uleb128 0xd
 9547 0158 00       		.byte	0
 9548 0159 03       		.uleb128 0x3
 9549 015a 0E       		.uleb128 0xe
 9550 015b 3A       		.uleb128 0x3a
 9551 015c 0B       		.uleb128 0xb
 9552 015d 3B       		.uleb128 0x3b
ARM GAS  /tmp/ccUc3O3E.s 			page 169


 9553 015e 05       		.uleb128 0x5
 9554 015f 49       		.uleb128 0x49
 9555 0160 13       		.uleb128 0x13
 9556 0161 00       		.byte	0
 9557 0162 00       		.byte	0
 9558 0163 1E       		.uleb128 0x1e
 9559 0164 15       		.uleb128 0x15
 9560 0165 01       		.byte	0x1
 9561 0166 27       		.uleb128 0x27
 9562 0167 19       		.uleb128 0x19
 9563 0168 01       		.uleb128 0x1
 9564 0169 13       		.uleb128 0x13
 9565 016a 00       		.byte	0
 9566 016b 00       		.byte	0
 9567 016c 1F       		.uleb128 0x1f
 9568 016d 34       		.uleb128 0x34
 9569 016e 00       		.byte	0
 9570 016f 03       		.uleb128 0x3
 9571 0170 0E       		.uleb128 0xe
 9572 0171 3A       		.uleb128 0x3a
 9573 0172 0B       		.uleb128 0xb
 9574 0173 3B       		.uleb128 0x3b
 9575 0174 05       		.uleb128 0x5
 9576 0175 49       		.uleb128 0x49
 9577 0176 13       		.uleb128 0x13
 9578 0177 3F       		.uleb128 0x3f
 9579 0178 19       		.uleb128 0x19
 9580 0179 3C       		.uleb128 0x3c
 9581 017a 19       		.uleb128 0x19
 9582 017b 00       		.byte	0
 9583 017c 00       		.byte	0
 9584 017d 20       		.uleb128 0x20
 9585 017e 21       		.uleb128 0x21
 9586 017f 00       		.byte	0
 9587 0180 00       		.byte	0
 9588 0181 00       		.byte	0
 9589 0182 21       		.uleb128 0x21
 9590 0183 34       		.uleb128 0x34
 9591 0184 00       		.byte	0
 9592 0185 03       		.uleb128 0x3
 9593 0186 0E       		.uleb128 0xe
 9594 0187 3A       		.uleb128 0x3a
 9595 0188 0B       		.uleb128 0xb
 9596 0189 3B       		.uleb128 0x3b
 9597 018a 0B       		.uleb128 0xb
 9598 018b 49       		.uleb128 0x49
 9599 018c 13       		.uleb128 0x13
 9600 018d 3F       		.uleb128 0x3f
 9601 018e 19       		.uleb128 0x19
 9602 018f 3C       		.uleb128 0x3c
 9603 0190 19       		.uleb128 0x19
 9604 0191 00       		.byte	0
 9605 0192 00       		.byte	0
 9606 0193 22       		.uleb128 0x22
 9607 0194 34       		.uleb128 0x34
 9608 0195 00       		.byte	0
 9609 0196 03       		.uleb128 0x3
ARM GAS  /tmp/ccUc3O3E.s 			page 170


 9610 0197 0E       		.uleb128 0xe
 9611 0198 3A       		.uleb128 0x3a
 9612 0199 0B       		.uleb128 0xb
 9613 019a 3B       		.uleb128 0x3b
 9614 019b 0B       		.uleb128 0xb
 9615 019c 49       		.uleb128 0x49
 9616 019d 13       		.uleb128 0x13
 9617 019e 02       		.uleb128 0x2
 9618 019f 18       		.uleb128 0x18
 9619 01a0 00       		.byte	0
 9620 01a1 00       		.byte	0
 9621 01a2 23       		.uleb128 0x23
 9622 01a3 34       		.uleb128 0x34
 9623 01a4 00       		.byte	0
 9624 01a5 03       		.uleb128 0x3
 9625 01a6 0E       		.uleb128 0xe
 9626 01a7 3A       		.uleb128 0x3a
 9627 01a8 0B       		.uleb128 0xb
 9628 01a9 3B       		.uleb128 0x3b
 9629 01aa 0B       		.uleb128 0xb
 9630 01ab 49       		.uleb128 0x49
 9631 01ac 13       		.uleb128 0x13
 9632 01ad 3F       		.uleb128 0x3f
 9633 01ae 19       		.uleb128 0x19
 9634 01af 02       		.uleb128 0x2
 9635 01b0 18       		.uleb128 0x18
 9636 01b1 00       		.byte	0
 9637 01b2 00       		.byte	0
 9638 01b3 24       		.uleb128 0x24
 9639 01b4 2E       		.uleb128 0x2e
 9640 01b5 01       		.byte	0x1
 9641 01b6 3F       		.uleb128 0x3f
 9642 01b7 19       		.uleb128 0x19
 9643 01b8 03       		.uleb128 0x3
 9644 01b9 0E       		.uleb128 0xe
 9645 01ba 3A       		.uleb128 0x3a
 9646 01bb 0B       		.uleb128 0xb
 9647 01bc 3B       		.uleb128 0x3b
 9648 01bd 05       		.uleb128 0x5
 9649 01be 27       		.uleb128 0x27
 9650 01bf 19       		.uleb128 0x19
 9651 01c0 11       		.uleb128 0x11
 9652 01c1 01       		.uleb128 0x1
 9653 01c2 12       		.uleb128 0x12
 9654 01c3 06       		.uleb128 0x6
 9655 01c4 40       		.uleb128 0x40
 9656 01c5 18       		.uleb128 0x18
 9657 01c6 9742     		.uleb128 0x2117
 9658 01c8 19       		.uleb128 0x19
 9659 01c9 01       		.uleb128 0x1
 9660 01ca 13       		.uleb128 0x13
 9661 01cb 00       		.byte	0
 9662 01cc 00       		.byte	0
 9663 01cd 25       		.uleb128 0x25
 9664 01ce 05       		.uleb128 0x5
 9665 01cf 00       		.byte	0
 9666 01d0 03       		.uleb128 0x3
ARM GAS  /tmp/ccUc3O3E.s 			page 171


 9667 01d1 0E       		.uleb128 0xe
 9668 01d2 3A       		.uleb128 0x3a
 9669 01d3 0B       		.uleb128 0xb
 9670 01d4 3B       		.uleb128 0x3b
 9671 01d5 05       		.uleb128 0x5
 9672 01d6 49       		.uleb128 0x49
 9673 01d7 13       		.uleb128 0x13
 9674 01d8 02       		.uleb128 0x2
 9675 01d9 18       		.uleb128 0x18
 9676 01da 00       		.byte	0
 9677 01db 00       		.byte	0
 9678 01dc 26       		.uleb128 0x26
 9679 01dd 05       		.uleb128 0x5
 9680 01de 00       		.byte	0
 9681 01df 03       		.uleb128 0x3
 9682 01e0 0E       		.uleb128 0xe
 9683 01e1 3A       		.uleb128 0x3a
 9684 01e2 0B       		.uleb128 0xb
 9685 01e3 3B       		.uleb128 0x3b
 9686 01e4 05       		.uleb128 0x5
 9687 01e5 49       		.uleb128 0x49
 9688 01e6 13       		.uleb128 0x13
 9689 01e7 02       		.uleb128 0x2
 9690 01e8 17       		.uleb128 0x17
 9691 01e9 00       		.byte	0
 9692 01ea 00       		.byte	0
 9693 01eb 27       		.uleb128 0x27
 9694 01ec 05       		.uleb128 0x5
 9695 01ed 00       		.byte	0
 9696 01ee 03       		.uleb128 0x3
 9697 01ef 08       		.uleb128 0x8
 9698 01f0 3A       		.uleb128 0x3a
 9699 01f1 0B       		.uleb128 0xb
 9700 01f2 3B       		.uleb128 0x3b
 9701 01f3 05       		.uleb128 0x5
 9702 01f4 49       		.uleb128 0x49
 9703 01f5 13       		.uleb128 0x13
 9704 01f6 02       		.uleb128 0x2
 9705 01f7 18       		.uleb128 0x18
 9706 01f8 00       		.byte	0
 9707 01f9 00       		.byte	0
 9708 01fa 28       		.uleb128 0x28
 9709 01fb 05       		.uleb128 0x5
 9710 01fc 00       		.byte	0
 9711 01fd 03       		.uleb128 0x3
 9712 01fe 08       		.uleb128 0x8
 9713 01ff 3A       		.uleb128 0x3a
 9714 0200 0B       		.uleb128 0xb
 9715 0201 3B       		.uleb128 0x3b
 9716 0202 05       		.uleb128 0x5
 9717 0203 49       		.uleb128 0x49
 9718 0204 13       		.uleb128 0x13
 9719 0205 02       		.uleb128 0x2
 9720 0206 17       		.uleb128 0x17
 9721 0207 00       		.byte	0
 9722 0208 00       		.byte	0
 9723 0209 29       		.uleb128 0x29
ARM GAS  /tmp/ccUc3O3E.s 			page 172


 9724 020a 34       		.uleb128 0x34
 9725 020b 00       		.byte	0
 9726 020c 03       		.uleb128 0x3
 9727 020d 08       		.uleb128 0x8
 9728 020e 3A       		.uleb128 0x3a
 9729 020f 0B       		.uleb128 0xb
 9730 0210 3B       		.uleb128 0x3b
 9731 0211 05       		.uleb128 0x5
 9732 0212 49       		.uleb128 0x49
 9733 0213 13       		.uleb128 0x13
 9734 0214 02       		.uleb128 0x2
 9735 0215 18       		.uleb128 0x18
 9736 0216 00       		.byte	0
 9737 0217 00       		.byte	0
 9738 0218 2A       		.uleb128 0x2a
 9739 0219 2E       		.uleb128 0x2e
 9740 021a 01       		.byte	0x1
 9741 021b 3F       		.uleb128 0x3f
 9742 021c 19       		.uleb128 0x19
 9743 021d 03       		.uleb128 0x3
 9744 021e 0E       		.uleb128 0xe
 9745 021f 3A       		.uleb128 0x3a
 9746 0220 0B       		.uleb128 0xb
 9747 0221 3B       		.uleb128 0x3b
 9748 0222 05       		.uleb128 0x5
 9749 0223 27       		.uleb128 0x27
 9750 0224 19       		.uleb128 0x19
 9751 0225 49       		.uleb128 0x49
 9752 0226 13       		.uleb128 0x13
 9753 0227 11       		.uleb128 0x11
 9754 0228 01       		.uleb128 0x1
 9755 0229 12       		.uleb128 0x12
 9756 022a 06       		.uleb128 0x6
 9757 022b 40       		.uleb128 0x40
 9758 022c 18       		.uleb128 0x18
 9759 022d 9742     		.uleb128 0x2117
 9760 022f 19       		.uleb128 0x19
 9761 0230 01       		.uleb128 0x1
 9762 0231 13       		.uleb128 0x13
 9763 0232 00       		.byte	0
 9764 0233 00       		.byte	0
 9765 0234 2B       		.uleb128 0x2b
 9766 0235 34       		.uleb128 0x34
 9767 0236 00       		.byte	0
 9768 0237 03       		.uleb128 0x3
 9769 0238 08       		.uleb128 0x8
 9770 0239 3A       		.uleb128 0x3a
 9771 023a 0B       		.uleb128 0xb
 9772 023b 3B       		.uleb128 0x3b
 9773 023c 05       		.uleb128 0x5
 9774 023d 49       		.uleb128 0x49
 9775 023e 13       		.uleb128 0x13
 9776 023f 02       		.uleb128 0x2
 9777 0240 17       		.uleb128 0x17
 9778 0241 00       		.byte	0
 9779 0242 00       		.byte	0
 9780 0243 2C       		.uleb128 0x2c
ARM GAS  /tmp/ccUc3O3E.s 			page 173


 9781 0244 34       		.uleb128 0x34
 9782 0245 00       		.byte	0
 9783 0246 03       		.uleb128 0x3
 9784 0247 0E       		.uleb128 0xe
 9785 0248 3A       		.uleb128 0x3a
 9786 0249 0B       		.uleb128 0xb
 9787 024a 3B       		.uleb128 0x3b
 9788 024b 05       		.uleb128 0x5
 9789 024c 49       		.uleb128 0x49
 9790 024d 13       		.uleb128 0x13
 9791 024e 02       		.uleb128 0x2
 9792 024f 18       		.uleb128 0x18
 9793 0250 00       		.byte	0
 9794 0251 00       		.byte	0
 9795 0252 2D       		.uleb128 0x2d
 9796 0253 34       		.uleb128 0x34
 9797 0254 00       		.byte	0
 9798 0255 03       		.uleb128 0x3
 9799 0256 0E       		.uleb128 0xe
 9800 0257 3A       		.uleb128 0x3a
 9801 0258 0B       		.uleb128 0xb
 9802 0259 3B       		.uleb128 0x3b
 9803 025a 05       		.uleb128 0x5
 9804 025b 49       		.uleb128 0x49
 9805 025c 13       		.uleb128 0x13
 9806 025d 02       		.uleb128 0x2
 9807 025e 17       		.uleb128 0x17
 9808 025f 00       		.byte	0
 9809 0260 00       		.byte	0
 9810 0261 2E       		.uleb128 0x2e
 9811 0262 0B       		.uleb128 0xb
 9812 0263 01       		.byte	0x1
 9813 0264 11       		.uleb128 0x11
 9814 0265 01       		.uleb128 0x1
 9815 0266 12       		.uleb128 0x12
 9816 0267 06       		.uleb128 0x6
 9817 0268 01       		.uleb128 0x1
 9818 0269 13       		.uleb128 0x13
 9819 026a 00       		.byte	0
 9820 026b 00       		.byte	0
 9821 026c 2F       		.uleb128 0x2f
 9822 026d 898201   		.uleb128 0x4109
 9823 0270 01       		.byte	0x1
 9824 0271 11       		.uleb128 0x11
 9825 0272 01       		.uleb128 0x1
 9826 0273 31       		.uleb128 0x31
 9827 0274 13       		.uleb128 0x13
 9828 0275 01       		.uleb128 0x1
 9829 0276 13       		.uleb128 0x13
 9830 0277 00       		.byte	0
 9831 0278 00       		.byte	0
 9832 0279 30       		.uleb128 0x30
 9833 027a 8A8201   		.uleb128 0x410a
 9834 027d 00       		.byte	0
 9835 027e 02       		.uleb128 0x2
 9836 027f 18       		.uleb128 0x18
 9837 0280 9142     		.uleb128 0x2111
ARM GAS  /tmp/ccUc3O3E.s 			page 174


 9838 0282 18       		.uleb128 0x18
 9839 0283 00       		.byte	0
 9840 0284 00       		.byte	0
 9841 0285 31       		.uleb128 0x31
 9842 0286 898201   		.uleb128 0x4109
 9843 0289 00       		.byte	0
 9844 028a 11       		.uleb128 0x11
 9845 028b 01       		.uleb128 0x1
 9846 028c 31       		.uleb128 0x31
 9847 028d 13       		.uleb128 0x13
 9848 028e 00       		.byte	0
 9849 028f 00       		.byte	0
 9850 0290 32       		.uleb128 0x32
 9851 0291 898201   		.uleb128 0x4109
 9852 0294 01       		.byte	0x1
 9853 0295 11       		.uleb128 0x11
 9854 0296 01       		.uleb128 0x1
 9855 0297 31       		.uleb128 0x31
 9856 0298 13       		.uleb128 0x13
 9857 0299 00       		.byte	0
 9858 029a 00       		.byte	0
 9859 029b 33       		.uleb128 0x33
 9860 029c 0B       		.uleb128 0xb
 9861 029d 01       		.byte	0x1
 9862 029e 55       		.uleb128 0x55
 9863 029f 17       		.uleb128 0x17
 9864 02a0 01       		.uleb128 0x1
 9865 02a1 13       		.uleb128 0x13
 9866 02a2 00       		.byte	0
 9867 02a3 00       		.byte	0
 9868 02a4 34       		.uleb128 0x34
 9869 02a5 1D       		.uleb128 0x1d
 9870 02a6 01       		.byte	0x1
 9871 02a7 31       		.uleb128 0x31
 9872 02a8 13       		.uleb128 0x13
 9873 02a9 11       		.uleb128 0x11
 9874 02aa 01       		.uleb128 0x1
 9875 02ab 12       		.uleb128 0x12
 9876 02ac 06       		.uleb128 0x6
 9877 02ad 58       		.uleb128 0x58
 9878 02ae 0B       		.uleb128 0xb
 9879 02af 59       		.uleb128 0x59
 9880 02b0 05       		.uleb128 0x5
 9881 02b1 01       		.uleb128 0x1
 9882 02b2 13       		.uleb128 0x13
 9883 02b3 00       		.byte	0
 9884 02b4 00       		.byte	0
 9885 02b5 35       		.uleb128 0x35
 9886 02b6 05       		.uleb128 0x5
 9887 02b7 00       		.byte	0
 9888 02b8 31       		.uleb128 0x31
 9889 02b9 13       		.uleb128 0x13
 9890 02ba 00       		.byte	0
 9891 02bb 00       		.byte	0
 9892 02bc 36       		.uleb128 0x36
 9893 02bd 1D       		.uleb128 0x1d
 9894 02be 01       		.byte	0x1
ARM GAS  /tmp/ccUc3O3E.s 			page 175


 9895 02bf 31       		.uleb128 0x31
 9896 02c0 13       		.uleb128 0x13
 9897 02c1 52       		.uleb128 0x52
 9898 02c2 01       		.uleb128 0x1
 9899 02c3 55       		.uleb128 0x55
 9900 02c4 17       		.uleb128 0x17
 9901 02c5 58       		.uleb128 0x58
 9902 02c6 0B       		.uleb128 0xb
 9903 02c7 59       		.uleb128 0x59
 9904 02c8 05       		.uleb128 0x5
 9905 02c9 01       		.uleb128 0x1
 9906 02ca 13       		.uleb128 0x13
 9907 02cb 00       		.byte	0
 9908 02cc 00       		.byte	0
 9909 02cd 37       		.uleb128 0x37
 9910 02ce 05       		.uleb128 0x5
 9911 02cf 00       		.byte	0
 9912 02d0 31       		.uleb128 0x31
 9913 02d1 13       		.uleb128 0x13
 9914 02d2 02       		.uleb128 0x2
 9915 02d3 17       		.uleb128 0x17
 9916 02d4 00       		.byte	0
 9917 02d5 00       		.byte	0
 9918 02d6 38       		.uleb128 0x38
 9919 02d7 898201   		.uleb128 0x4109
 9920 02da 01       		.byte	0x1
 9921 02db 11       		.uleb128 0x11
 9922 02dc 01       		.uleb128 0x1
 9923 02dd 00       		.byte	0
 9924 02de 00       		.byte	0
 9925 02df 39       		.uleb128 0x39
 9926 02e0 0B       		.uleb128 0xb
 9927 02e1 01       		.byte	0x1
 9928 02e2 11       		.uleb128 0x11
 9929 02e3 01       		.uleb128 0x1
 9930 02e4 12       		.uleb128 0x12
 9931 02e5 06       		.uleb128 0x6
 9932 02e6 00       		.byte	0
 9933 02e7 00       		.byte	0
 9934 02e8 3A       		.uleb128 0x3a
 9935 02e9 34       		.uleb128 0x34
 9936 02ea 00       		.byte	0
 9937 02eb 31       		.uleb128 0x31
 9938 02ec 13       		.uleb128 0x13
 9939 02ed 02       		.uleb128 0x2
 9940 02ee 17       		.uleb128 0x17
 9941 02ef 00       		.byte	0
 9942 02f0 00       		.byte	0
 9943 02f1 3B       		.uleb128 0x3b
 9944 02f2 2E       		.uleb128 0x2e
 9945 02f3 01       		.byte	0x1
 9946 02f4 3F       		.uleb128 0x3f
 9947 02f5 19       		.uleb128 0x19
 9948 02f6 03       		.uleb128 0x3
 9949 02f7 0E       		.uleb128 0xe
 9950 02f8 3A       		.uleb128 0x3a
 9951 02f9 0B       		.uleb128 0xb
ARM GAS  /tmp/ccUc3O3E.s 			page 176


 9952 02fa 3B       		.uleb128 0x3b
 9953 02fb 05       		.uleb128 0x5
 9954 02fc 27       		.uleb128 0x27
 9955 02fd 19       		.uleb128 0x19
 9956 02fe 49       		.uleb128 0x49
 9957 02ff 13       		.uleb128 0x13
 9958 0300 11       		.uleb128 0x11
 9959 0301 01       		.uleb128 0x1
 9960 0302 12       		.uleb128 0x12
 9961 0303 06       		.uleb128 0x6
 9962 0304 40       		.uleb128 0x40
 9963 0305 18       		.uleb128 0x18
 9964 0306 9642     		.uleb128 0x2116
 9965 0308 19       		.uleb128 0x19
 9966 0309 01       		.uleb128 0x1
 9967 030a 13       		.uleb128 0x13
 9968 030b 00       		.byte	0
 9969 030c 00       		.byte	0
 9970 030d 3C       		.uleb128 0x3c
 9971 030e 1D       		.uleb128 0x1d
 9972 030f 01       		.byte	0x1
 9973 0310 31       		.uleb128 0x31
 9974 0311 13       		.uleb128 0x13
 9975 0312 11       		.uleb128 0x11
 9976 0313 01       		.uleb128 0x1
 9977 0314 12       		.uleb128 0x12
 9978 0315 06       		.uleb128 0x6
 9979 0316 58       		.uleb128 0x58
 9980 0317 0B       		.uleb128 0xb
 9981 0318 59       		.uleb128 0x59
 9982 0319 05       		.uleb128 0x5
 9983 031a 00       		.byte	0
 9984 031b 00       		.byte	0
 9985 031c 3D       		.uleb128 0x3d
 9986 031d 898201   		.uleb128 0x4109
 9987 0320 01       		.byte	0x1
 9988 0321 11       		.uleb128 0x11
 9989 0322 01       		.uleb128 0x1
 9990 0323 01       		.uleb128 0x1
 9991 0324 13       		.uleb128 0x13
 9992 0325 00       		.byte	0
 9993 0326 00       		.byte	0
 9994 0327 3E       		.uleb128 0x3e
 9995 0328 1D       		.uleb128 0x1d
 9996 0329 01       		.byte	0x1
 9997 032a 31       		.uleb128 0x31
 9998 032b 13       		.uleb128 0x13
 9999 032c 52       		.uleb128 0x52
 10000 032d 01       		.uleb128 0x1
 10001 032e 55       		.uleb128 0x55
 10002 032f 17       		.uleb128 0x17
 10003 0330 58       		.uleb128 0x58
 10004 0331 0B       		.uleb128 0xb
 10005 0332 59       		.uleb128 0x59
 10006 0333 05       		.uleb128 0x5
 10007 0334 00       		.byte	0
 10008 0335 00       		.byte	0
ARM GAS  /tmp/ccUc3O3E.s 			page 177


 10009 0336 3F       		.uleb128 0x3f
 10010 0337 2E       		.uleb128 0x2e
 10011 0338 01       		.byte	0x1
 10012 0339 3F       		.uleb128 0x3f
 10013 033a 19       		.uleb128 0x19
 10014 033b 03       		.uleb128 0x3
 10015 033c 0E       		.uleb128 0xe
 10016 033d 3A       		.uleb128 0x3a
 10017 033e 0B       		.uleb128 0xb
 10018 033f 3B       		.uleb128 0x3b
 10019 0340 0B       		.uleb128 0xb
 10020 0341 27       		.uleb128 0x27
 10021 0342 19       		.uleb128 0x19
 10022 0343 49       		.uleb128 0x49
 10023 0344 13       		.uleb128 0x13
 10024 0345 11       		.uleb128 0x11
 10025 0346 01       		.uleb128 0x1
 10026 0347 12       		.uleb128 0x12
 10027 0348 06       		.uleb128 0x6
 10028 0349 40       		.uleb128 0x40
 10029 034a 18       		.uleb128 0x18
 10030 034b 9742     		.uleb128 0x2117
 10031 034d 19       		.uleb128 0x19
 10032 034e 01       		.uleb128 0x1
 10033 034f 13       		.uleb128 0x13
 10034 0350 00       		.byte	0
 10035 0351 00       		.byte	0
 10036 0352 40       		.uleb128 0x40
 10037 0353 05       		.uleb128 0x5
 10038 0354 00       		.byte	0
 10039 0355 03       		.uleb128 0x3
 10040 0356 08       		.uleb128 0x8
 10041 0357 3A       		.uleb128 0x3a
 10042 0358 0B       		.uleb128 0xb
 10043 0359 3B       		.uleb128 0x3b
 10044 035a 0B       		.uleb128 0xb
 10045 035b 49       		.uleb128 0x49
 10046 035c 13       		.uleb128 0x13
 10047 035d 02       		.uleb128 0x2
 10048 035e 17       		.uleb128 0x17
 10049 035f 00       		.byte	0
 10050 0360 00       		.byte	0
 10051 0361 41       		.uleb128 0x41
 10052 0362 34       		.uleb128 0x34
 10053 0363 00       		.byte	0
 10054 0364 03       		.uleb128 0x3
 10055 0365 0E       		.uleb128 0xe
 10056 0366 3A       		.uleb128 0x3a
 10057 0367 0B       		.uleb128 0xb
 10058 0368 3B       		.uleb128 0x3b
 10059 0369 0B       		.uleb128 0xb
 10060 036a 49       		.uleb128 0x49
 10061 036b 13       		.uleb128 0x13
 10062 036c 02       		.uleb128 0x2
 10063 036d 17       		.uleb128 0x17
 10064 036e 00       		.byte	0
 10065 036f 00       		.byte	0
ARM GAS  /tmp/ccUc3O3E.s 			page 178


 10066 0370 42       		.uleb128 0x42
 10067 0371 1D       		.uleb128 0x1d
 10068 0372 01       		.byte	0x1
 10069 0373 31       		.uleb128 0x31
 10070 0374 13       		.uleb128 0x13
 10071 0375 52       		.uleb128 0x52
 10072 0376 01       		.uleb128 0x1
 10073 0377 55       		.uleb128 0x55
 10074 0378 17       		.uleb128 0x17
 10075 0379 58       		.uleb128 0x58
 10076 037a 0B       		.uleb128 0xb
 10077 037b 59       		.uleb128 0x59
 10078 037c 0B       		.uleb128 0xb
 10079 037d 01       		.uleb128 0x1
 10080 037e 13       		.uleb128 0x13
 10081 037f 00       		.byte	0
 10082 0380 00       		.byte	0
 10083 0381 43       		.uleb128 0x43
 10084 0382 1D       		.uleb128 0x1d
 10085 0383 01       		.byte	0x1
 10086 0384 31       		.uleb128 0x31
 10087 0385 13       		.uleb128 0x13
 10088 0386 11       		.uleb128 0x11
 10089 0387 01       		.uleb128 0x1
 10090 0388 12       		.uleb128 0x12
 10091 0389 06       		.uleb128 0x6
 10092 038a 58       		.uleb128 0x58
 10093 038b 0B       		.uleb128 0xb
 10094 038c 59       		.uleb128 0x59
 10095 038d 0B       		.uleb128 0xb
 10096 038e 01       		.uleb128 0x1
 10097 038f 13       		.uleb128 0x13
 10098 0390 00       		.byte	0
 10099 0391 00       		.byte	0
 10100 0392 44       		.uleb128 0x44
 10101 0393 2E       		.uleb128 0x2e
 10102 0394 01       		.byte	0x1
 10103 0395 3F       		.uleb128 0x3f
 10104 0396 19       		.uleb128 0x19
 10105 0397 03       		.uleb128 0x3
 10106 0398 0E       		.uleb128 0xe
 10107 0399 3A       		.uleb128 0x3a
 10108 039a 0B       		.uleb128 0xb
 10109 039b 3B       		.uleb128 0x3b
 10110 039c 0B       		.uleb128 0xb
 10111 039d 27       		.uleb128 0x27
 10112 039e 19       		.uleb128 0x19
 10113 039f 49       		.uleb128 0x49
 10114 03a0 13       		.uleb128 0x13
 10115 03a1 20       		.uleb128 0x20
 10116 03a2 0B       		.uleb128 0xb
 10117 03a3 01       		.uleb128 0x1
 10118 03a4 13       		.uleb128 0x13
 10119 03a5 00       		.byte	0
 10120 03a6 00       		.byte	0
 10121 03a7 45       		.uleb128 0x45
 10122 03a8 05       		.uleb128 0x5
ARM GAS  /tmp/ccUc3O3E.s 			page 179


 10123 03a9 00       		.byte	0
 10124 03aa 03       		.uleb128 0x3
 10125 03ab 08       		.uleb128 0x8
 10126 03ac 3A       		.uleb128 0x3a
 10127 03ad 0B       		.uleb128 0xb
 10128 03ae 3B       		.uleb128 0x3b
 10129 03af 0B       		.uleb128 0xb
 10130 03b0 49       		.uleb128 0x49
 10131 03b1 13       		.uleb128 0x13
 10132 03b2 00       		.byte	0
 10133 03b3 00       		.byte	0
 10134 03b4 46       		.uleb128 0x46
 10135 03b5 34       		.uleb128 0x34
 10136 03b6 00       		.byte	0
 10137 03b7 03       		.uleb128 0x3
 10138 03b8 08       		.uleb128 0x8
 10139 03b9 3A       		.uleb128 0x3a
 10140 03ba 0B       		.uleb128 0xb
 10141 03bb 3B       		.uleb128 0x3b
 10142 03bc 0B       		.uleb128 0xb
 10143 03bd 49       		.uleb128 0x49
 10144 03be 13       		.uleb128 0x13
 10145 03bf 00       		.byte	0
 10146 03c0 00       		.byte	0
 10147 03c1 47       		.uleb128 0x47
 10148 03c2 0B       		.uleb128 0xb
 10149 03c3 01       		.byte	0x1
 10150 03c4 00       		.byte	0
 10151 03c5 00       		.byte	0
 10152 03c6 48       		.uleb128 0x48
 10153 03c7 34       		.uleb128 0x34
 10154 03c8 00       		.byte	0
 10155 03c9 03       		.uleb128 0x3
 10156 03ca 0E       		.uleb128 0xe
 10157 03cb 3A       		.uleb128 0x3a
 10158 03cc 0B       		.uleb128 0xb
 10159 03cd 3B       		.uleb128 0x3b
 10160 03ce 0B       		.uleb128 0xb
 10161 03cf 49       		.uleb128 0x49
 10162 03d0 13       		.uleb128 0x13
 10163 03d1 00       		.byte	0
 10164 03d2 00       		.byte	0
 10165 03d3 49       		.uleb128 0x49
 10166 03d4 0B       		.uleb128 0xb
 10167 03d5 01       		.byte	0x1
 10168 03d6 55       		.uleb128 0x55
 10169 03d7 17       		.uleb128 0x17
 10170 03d8 00       		.byte	0
 10171 03d9 00       		.byte	0
 10172 03da 4A       		.uleb128 0x4a
 10173 03db 34       		.uleb128 0x34
 10174 03dc 00       		.byte	0
 10175 03dd 03       		.uleb128 0x3
 10176 03de 08       		.uleb128 0x8
 10177 03df 3A       		.uleb128 0x3a
 10178 03e0 0B       		.uleb128 0xb
 10179 03e1 3B       		.uleb128 0x3b
ARM GAS  /tmp/ccUc3O3E.s 			page 180


 10180 03e2 0B       		.uleb128 0xb
 10181 03e3 49       		.uleb128 0x49
 10182 03e4 13       		.uleb128 0x13
 10183 03e5 02       		.uleb128 0x2
 10184 03e6 17       		.uleb128 0x17
 10185 03e7 00       		.byte	0
 10186 03e8 00       		.byte	0
 10187 03e9 4B       		.uleb128 0x4b
 10188 03ea 1D       		.uleb128 0x1d
 10189 03eb 01       		.byte	0x1
 10190 03ec 31       		.uleb128 0x31
 10191 03ed 13       		.uleb128 0x13
 10192 03ee 11       		.uleb128 0x11
 10193 03ef 01       		.uleb128 0x1
 10194 03f0 12       		.uleb128 0x12
 10195 03f1 06       		.uleb128 0x6
 10196 03f2 58       		.uleb128 0x58
 10197 03f3 0B       		.uleb128 0xb
 10198 03f4 59       		.uleb128 0x59
 10199 03f5 0B       		.uleb128 0xb
 10200 03f6 00       		.byte	0
 10201 03f7 00       		.byte	0
 10202 03f8 4C       		.uleb128 0x4c
 10203 03f9 2E       		.uleb128 0x2e
 10204 03fa 01       		.byte	0x1
 10205 03fb 3F       		.uleb128 0x3f
 10206 03fc 19       		.uleb128 0x19
 10207 03fd 03       		.uleb128 0x3
 10208 03fe 0E       		.uleb128 0xe
 10209 03ff 3A       		.uleb128 0x3a
 10210 0400 0B       		.uleb128 0xb
 10211 0401 3B       		.uleb128 0x3b
 10212 0402 0B       		.uleb128 0xb
 10213 0403 27       		.uleb128 0x27
 10214 0404 19       		.uleb128 0x19
 10215 0405 20       		.uleb128 0x20
 10216 0406 0B       		.uleb128 0xb
 10217 0407 01       		.uleb128 0x1
 10218 0408 13       		.uleb128 0x13
 10219 0409 00       		.byte	0
 10220 040a 00       		.byte	0
 10221 040b 4D       		.uleb128 0x4d
 10222 040c 2E       		.uleb128 0x2e
 10223 040d 01       		.byte	0x1
 10224 040e 3F       		.uleb128 0x3f
 10225 040f 19       		.uleb128 0x19
 10226 0410 03       		.uleb128 0x3
 10227 0411 08       		.uleb128 0x8
 10228 0412 3A       		.uleb128 0x3a
 10229 0413 0B       		.uleb128 0xb
 10230 0414 3B       		.uleb128 0x3b
 10231 0415 0B       		.uleb128 0xb
 10232 0416 27       		.uleb128 0x27
 10233 0417 19       		.uleb128 0x19
 10234 0418 49       		.uleb128 0x49
 10235 0419 13       		.uleb128 0x13
 10236 041a 20       		.uleb128 0x20
ARM GAS  /tmp/ccUc3O3E.s 			page 181


 10237 041b 0B       		.uleb128 0xb
 10238 041c 01       		.uleb128 0x1
 10239 041d 13       		.uleb128 0x13
 10240 041e 00       		.byte	0
 10241 041f 00       		.byte	0
 10242 0420 4E       		.uleb128 0x4e
 10243 0421 2E       		.uleb128 0x2e
 10244 0422 00       		.byte	0
 10245 0423 03       		.uleb128 0x3
 10246 0424 0E       		.uleb128 0xe
 10247 0425 3A       		.uleb128 0x3a
 10248 0426 0B       		.uleb128 0xb
 10249 0427 3B       		.uleb128 0x3b
 10250 0428 0B       		.uleb128 0xb
 10251 0429 27       		.uleb128 0x27
 10252 042a 19       		.uleb128 0x19
 10253 042b 20       		.uleb128 0x20
 10254 042c 0B       		.uleb128 0xb
 10255 042d 00       		.byte	0
 10256 042e 00       		.byte	0
 10257 042f 4F       		.uleb128 0x4f
 10258 0430 2E       		.uleb128 0x2e
 10259 0431 01       		.byte	0x1
 10260 0432 03       		.uleb128 0x3
 10261 0433 0E       		.uleb128 0xe
 10262 0434 3A       		.uleb128 0x3a
 10263 0435 0B       		.uleb128 0xb
 10264 0436 3B       		.uleb128 0x3b
 10265 0437 05       		.uleb128 0x5
 10266 0438 27       		.uleb128 0x27
 10267 0439 19       		.uleb128 0x19
 10268 043a 49       		.uleb128 0x49
 10269 043b 13       		.uleb128 0x13
 10270 043c 20       		.uleb128 0x20
 10271 043d 0B       		.uleb128 0xb
 10272 043e 01       		.uleb128 0x1
 10273 043f 13       		.uleb128 0x13
 10274 0440 00       		.byte	0
 10275 0441 00       		.byte	0
 10276 0442 50       		.uleb128 0x50
 10277 0443 05       		.uleb128 0x5
 10278 0444 00       		.byte	0
 10279 0445 03       		.uleb128 0x3
 10280 0446 08       		.uleb128 0x8
 10281 0447 3A       		.uleb128 0x3a
 10282 0448 0B       		.uleb128 0xb
 10283 0449 3B       		.uleb128 0x3b
 10284 044a 05       		.uleb128 0x5
 10285 044b 49       		.uleb128 0x49
 10286 044c 13       		.uleb128 0x13
 10287 044d 00       		.byte	0
 10288 044e 00       		.byte	0
 10289 044f 51       		.uleb128 0x51
 10290 0450 34       		.uleb128 0x34
 10291 0451 00       		.byte	0
 10292 0452 03       		.uleb128 0x3
 10293 0453 08       		.uleb128 0x8
ARM GAS  /tmp/ccUc3O3E.s 			page 182


 10294 0454 3A       		.uleb128 0x3a
 10295 0455 0B       		.uleb128 0xb
 10296 0456 3B       		.uleb128 0x3b
 10297 0457 05       		.uleb128 0x5
 10298 0458 49       		.uleb128 0x49
 10299 0459 13       		.uleb128 0x13
 10300 045a 00       		.byte	0
 10301 045b 00       		.byte	0
 10302 045c 52       		.uleb128 0x52
 10303 045d 2E       		.uleb128 0x2e
 10304 045e 01       		.byte	0x1
 10305 045f 31       		.uleb128 0x31
 10306 0460 13       		.uleb128 0x13
 10307 0461 11       		.uleb128 0x11
 10308 0462 01       		.uleb128 0x1
 10309 0463 12       		.uleb128 0x12
 10310 0464 06       		.uleb128 0x6
 10311 0465 40       		.uleb128 0x40
 10312 0466 18       		.uleb128 0x18
 10313 0467 9742     		.uleb128 0x2117
 10314 0469 19       		.uleb128 0x19
 10315 046a 01       		.uleb128 0x1
 10316 046b 13       		.uleb128 0x13
 10317 046c 00       		.byte	0
 10318 046d 00       		.byte	0
 10319 046e 53       		.uleb128 0x53
 10320 046f 898201   		.uleb128 0x4109
 10321 0472 01       		.byte	0x1
 10322 0473 11       		.uleb128 0x11
 10323 0474 01       		.uleb128 0x1
 10324 0475 9542     		.uleb128 0x2115
 10325 0477 19       		.uleb128 0x19
 10326 0478 00       		.byte	0
 10327 0479 00       		.byte	0
 10328 047a 54       		.uleb128 0x54
 10329 047b 34       		.uleb128 0x34
 10330 047c 00       		.byte	0
 10331 047d 31       		.uleb128 0x31
 10332 047e 13       		.uleb128 0x13
 10333 047f 02       		.uleb128 0x2
 10334 0480 18       		.uleb128 0x18
 10335 0481 00       		.byte	0
 10336 0482 00       		.byte	0
 10337 0483 55       		.uleb128 0x55
 10338 0484 34       		.uleb128 0x34
 10339 0485 00       		.byte	0
 10340 0486 31       		.uleb128 0x31
 10341 0487 13       		.uleb128 0x13
 10342 0488 00       		.byte	0
 10343 0489 00       		.byte	0
 10344 048a 56       		.uleb128 0x56
 10345 048b 0B       		.uleb128 0xb
 10346 048c 01       		.byte	0x1
 10347 048d 31       		.uleb128 0x31
 10348 048e 13       		.uleb128 0x13
 10349 048f 55       		.uleb128 0x55
 10350 0490 17       		.uleb128 0x17
ARM GAS  /tmp/ccUc3O3E.s 			page 183


 10351 0491 00       		.byte	0
 10352 0492 00       		.byte	0
 10353 0493 57       		.uleb128 0x57
 10354 0494 34       		.uleb128 0x34
 10355 0495 00       		.byte	0
 10356 0496 31       		.uleb128 0x31
 10357 0497 13       		.uleb128 0x13
 10358 0498 1C       		.uleb128 0x1c
 10359 0499 0B       		.uleb128 0xb
 10360 049a 00       		.byte	0
 10361 049b 00       		.byte	0
 10362 049c 58       		.uleb128 0x58
 10363 049d 2E       		.uleb128 0x2e
 10364 049e 00       		.byte	0
 10365 049f 3F       		.uleb128 0x3f
 10366 04a0 19       		.uleb128 0x19
 10367 04a1 3C       		.uleb128 0x3c
 10368 04a2 19       		.uleb128 0x19
 10369 04a3 6E       		.uleb128 0x6e
 10370 04a4 0E       		.uleb128 0xe
 10371 04a5 03       		.uleb128 0x3
 10372 04a6 0E       		.uleb128 0xe
 10373 04a7 3A       		.uleb128 0x3a
 10374 04a8 0B       		.uleb128 0xb
 10375 04a9 3B       		.uleb128 0x3b
 10376 04aa 05       		.uleb128 0x5
 10377 04ab 00       		.byte	0
 10378 04ac 00       		.byte	0
 10379 04ad 59       		.uleb128 0x59
 10380 04ae 2E       		.uleb128 0x2e
 10381 04af 00       		.byte	0
 10382 04b0 3F       		.uleb128 0x3f
 10383 04b1 19       		.uleb128 0x19
 10384 04b2 3C       		.uleb128 0x3c
 10385 04b3 19       		.uleb128 0x19
 10386 04b4 6E       		.uleb128 0x6e
 10387 04b5 0E       		.uleb128 0xe
 10388 04b6 03       		.uleb128 0x3
 10389 04b7 0E       		.uleb128 0xe
 10390 04b8 3A       		.uleb128 0x3a
 10391 04b9 0B       		.uleb128 0xb
 10392 04ba 3B       		.uleb128 0x3b
 10393 04bb 0B       		.uleb128 0xb
 10394 04bc 6E       		.uleb128 0x6e
 10395 04bd 0E       		.uleb128 0xe
 10396 04be 00       		.byte	0
 10397 04bf 00       		.byte	0
 10398 04c0 5A       		.uleb128 0x5a
 10399 04c1 2E       		.uleb128 0x2e
 10400 04c2 00       		.byte	0
 10401 04c3 3F       		.uleb128 0x3f
 10402 04c4 19       		.uleb128 0x19
 10403 04c5 3C       		.uleb128 0x3c
 10404 04c6 19       		.uleb128 0x19
 10405 04c7 6E       		.uleb128 0x6e
 10406 04c8 0E       		.uleb128 0xe
 10407 04c9 03       		.uleb128 0x3
ARM GAS  /tmp/ccUc3O3E.s 			page 184


 10408 04ca 0E       		.uleb128 0xe
 10409 04cb 3A       		.uleb128 0x3a
 10410 04cc 0B       		.uleb128 0xb
 10411 04cd 3B       		.uleb128 0x3b
 10412 04ce 0B       		.uleb128 0xb
 10413 04cf 00       		.byte	0
 10414 04d0 00       		.byte	0
 10415 04d1 00       		.byte	0
 10416              		.section	.debug_loc,"",%progbits
 10417              	.Ldebug_loc0:
 10418              	.LLST273:
 10419 0000 00000000 		.4byte	.LVL431
 10420 0004 0C000000 		.4byte	.LVL432
 10421 0008 0100     		.2byte	0x1
 10422 000a 52       		.byte	0x52
 10423 000b 0C000000 		.4byte	.LVL432
 10424 000f 30000000 		.4byte	.LFE57
 10425 0013 0200     		.2byte	0x2
 10426 0015 70       		.byte	0x70
 10427 0016 00       		.sleb128 0
 10428 0017 00000000 		.4byte	0
 10429 001b 00000000 		.4byte	0
 10430              	.LLST7:
 10431 001f 00000000 		.4byte	.LVL12
 10432 0023 06000000 		.4byte	.LVL14
 10433 0027 0100     		.2byte	0x1
 10434 0029 51       		.byte	0x51
 10435 002a 06000000 		.4byte	.LVL14
 10436 002e 0A000000 		.4byte	.LFE56
 10437 0032 0400     		.2byte	0x4
 10438 0034 F3       		.byte	0xf3
 10439 0035 01       		.uleb128 0x1
 10440 0036 51       		.byte	0x51
 10441 0037 9F       		.byte	0x9f
 10442 0038 00000000 		.4byte	0
 10443 003c 00000000 		.4byte	0
 10444              	.LLST3:
 10445 0040 00000000 		.4byte	.LVL7
 10446 0044 0A000000 		.4byte	.LVL11
 10447 0048 0100     		.2byte	0x1
 10448 004a 50       		.byte	0x50
 10449 004b 0A000000 		.4byte	.LVL11
 10450 004f 0C000000 		.4byte	.LFE55
 10451 0053 0400     		.2byte	0x4
 10452 0055 F3       		.byte	0xf3
 10453 0056 01       		.uleb128 0x1
 10454 0057 50       		.byte	0x50
 10455 0058 9F       		.byte	0x9f
 10456 0059 00000000 		.4byte	0
 10457 005d 00000000 		.4byte	0
 10458              	.LLST4:
 10459 0061 00000000 		.4byte	.LVL7
 10460 0065 08000000 		.4byte	.LVL10
 10461 0069 0100     		.2byte	0x1
 10462 006b 51       		.byte	0x51
 10463 006c 08000000 		.4byte	.LVL10
 10464 0070 0C000000 		.4byte	.LFE55
ARM GAS  /tmp/ccUc3O3E.s 			page 185


 10465 0074 0400     		.2byte	0x4
 10466 0076 F3       		.byte	0xf3
 10467 0077 01       		.uleb128 0x1
 10468 0078 51       		.byte	0x51
 10469 0079 9F       		.byte	0x9f
 10470 007a 00000000 		.4byte	0
 10471 007e 00000000 		.4byte	0
 10472              	.LLST5:
 10473 0082 02000000 		.4byte	.LVL8
 10474 0086 06000000 		.4byte	.LVL9
 10475 008a 0100     		.2byte	0x1
 10476 008c 52       		.byte	0x52
 10477 008d 06000000 		.4byte	.LVL9
 10478 0091 0A000000 		.4byte	.LVL11
 10479 0095 0200     		.2byte	0x2
 10480 0097 70       		.byte	0x70
 10481 0098 00       		.sleb128 0
 10482 0099 0A000000 		.4byte	.LVL11
 10483 009d 0C000000 		.4byte	.LFE55
 10484 00a1 0300     		.2byte	0x3
 10485 00a3 F3       		.byte	0xf3
 10486 00a4 01       		.uleb128 0x1
 10487 00a5 50       		.byte	0x50
 10488 00a6 00000000 		.4byte	0
 10489 00aa 00000000 		.4byte	0
 10490              	.LLST6:
 10491 00ae 02000000 		.4byte	.LVL8
 10492 00b2 06000000 		.4byte	.LVL9
 10493 00b6 0A00     		.2byte	0xa
 10494 00b8 72       		.byte	0x72
 10495 00b9 00       		.sleb128 0
 10496 00ba 06       		.byte	0x6
 10497 00bb 72       		.byte	0x72
 10498 00bc 04       		.sleb128 4
 10499 00bd 06       		.byte	0x6
 10500 00be 22       		.byte	0x22
 10501 00bf 71       		.byte	0x71
 10502 00c0 00       		.sleb128 0
 10503 00c1 22       		.byte	0x22
 10504 00c2 06000000 		.4byte	.LVL9
 10505 00c6 08000000 		.4byte	.LVL10
 10506 00ca 0E00     		.2byte	0xe
 10507 00cc 70       		.byte	0x70
 10508 00cd 00       		.sleb128 0
 10509 00ce 06       		.byte	0x6
 10510 00cf 06       		.byte	0x6
 10511 00d0 70       		.byte	0x70
 10512 00d1 00       		.sleb128 0
 10513 00d2 06       		.byte	0x6
 10514 00d3 23       		.byte	0x23
 10515 00d4 04       		.uleb128 0x4
 10516 00d5 06       		.byte	0x6
 10517 00d6 22       		.byte	0x22
 10518 00d7 71       		.byte	0x71
 10519 00d8 00       		.sleb128 0
 10520 00d9 22       		.byte	0x22
 10521 00da 08000000 		.4byte	.LVL10
ARM GAS  /tmp/ccUc3O3E.s 			page 186


 10522 00de 0A000000 		.4byte	.LVL11
 10523 00e2 0F00     		.2byte	0xf
 10524 00e4 70       		.byte	0x70
 10525 00e5 00       		.sleb128 0
 10526 00e6 06       		.byte	0x6
 10527 00e7 06       		.byte	0x6
 10528 00e8 70       		.byte	0x70
 10529 00e9 00       		.sleb128 0
 10530 00ea 06       		.byte	0x6
 10531 00eb 23       		.byte	0x23
 10532 00ec 04       		.uleb128 0x4
 10533 00ed 06       		.byte	0x6
 10534 00ee 22       		.byte	0x22
 10535 00ef F3       		.byte	0xf3
 10536 00f0 01       		.uleb128 0x1
 10537 00f1 51       		.byte	0x51
 10538 00f2 22       		.byte	0x22
 10539 00f3 0A000000 		.4byte	.LVL11
 10540 00f7 0C000000 		.4byte	.LFE55
 10541 00fb 0E00     		.2byte	0xe
 10542 00fd 73       		.byte	0x73
 10543 00fe 00       		.sleb128 0
 10544 00ff F3       		.byte	0xf3
 10545 0100 01       		.uleb128 0x1
 10546 0101 50       		.byte	0x50
 10547 0102 06       		.byte	0x6
 10548 0103 23       		.byte	0x23
 10549 0104 04       		.uleb128 0x4
 10550 0105 06       		.byte	0x6
 10551 0106 22       		.byte	0x22
 10552 0107 F3       		.byte	0xf3
 10553 0108 01       		.uleb128 0x1
 10554 0109 51       		.byte	0x51
 10555 010a 22       		.byte	0x22
 10556 010b 00000000 		.4byte	0
 10557 010f 00000000 		.4byte	0
 10558              	.LLST2:
 10559 0113 00000000 		.4byte	.LVL4
 10560 0117 08000000 		.4byte	.LVL6
 10561 011b 0100     		.2byte	0x1
 10562 011d 50       		.byte	0x50
 10563 011e 08000000 		.4byte	.LVL6
 10564 0122 0E000000 		.4byte	.LFE54
 10565 0126 0400     		.2byte	0x4
 10566 0128 F3       		.byte	0xf3
 10567 0129 01       		.uleb128 0x1
 10568 012a 50       		.byte	0x50
 10569 012b 9F       		.byte	0x9f
 10570 012c 00000000 		.4byte	0
 10571 0130 00000000 		.4byte	0
 10572              	.LLST0:
 10573 0134 00000000 		.4byte	.LVL0
 10574 0138 08000000 		.4byte	.LVL3
 10575 013c 0100     		.2byte	0x1
 10576 013e 50       		.byte	0x50
 10577 013f 08000000 		.4byte	.LVL3
 10578 0143 10000000 		.4byte	.LFE53
ARM GAS  /tmp/ccUc3O3E.s 			page 187


 10579 0147 0400     		.2byte	0x4
 10580 0149 F3       		.byte	0xf3
 10581 014a 01       		.uleb128 0x1
 10582 014b 50       		.byte	0x50
 10583 014c 9F       		.byte	0x9f
 10584 014d 00000000 		.4byte	0
 10585 0151 00000000 		.4byte	0
 10586              	.LLST1:
 10587 0155 02000000 		.4byte	.LVL1
 10588 0159 06000000 		.4byte	.LVL2
 10589 015d 0100     		.2byte	0x1
 10590 015f 53       		.byte	0x53
 10591 0160 06000000 		.4byte	.LVL2
 10592 0164 08000000 		.4byte	.LVL3
 10593 0168 0200     		.2byte	0x2
 10594 016a 70       		.byte	0x70
 10595 016b 00       		.sleb128 0
 10596 016c 08000000 		.4byte	.LVL3
 10597 0170 10000000 		.4byte	.LFE53
 10598 0174 0300     		.2byte	0x3
 10599 0176 F3       		.byte	0xf3
 10600 0177 01       		.uleb128 0x1
 10601 0178 50       		.byte	0x50
 10602 0179 00000000 		.4byte	0
 10603 017d 00000000 		.4byte	0
 10604              	.LLST237:
 10605 0181 00000000 		.4byte	.LVL332
 10606 0185 09000000 		.4byte	.LVL334-1
 10607 0189 0100     		.2byte	0x1
 10608 018b 50       		.byte	0x50
 10609 018c 09000000 		.4byte	.LVL334-1
 10610 0190 4A000000 		.4byte	.LVL344
 10611 0194 0100     		.2byte	0x1
 10612 0196 54       		.byte	0x54
 10613 0197 4A000000 		.4byte	.LVL344
 10614 019b 4D000000 		.4byte	.LVL345-1
 10615 019f 0100     		.2byte	0x1
 10616 01a1 50       		.byte	0x50
 10617 01a2 4D000000 		.4byte	.LVL345-1
 10618 01a6 98000000 		.4byte	.LVL351
 10619 01aa 0100     		.2byte	0x1
 10620 01ac 54       		.byte	0x54
 10621 01ad 98000000 		.4byte	.LVL351
 10622 01b1 9C000000 		.4byte	.LVL352
 10623 01b5 0400     		.2byte	0x4
 10624 01b7 F3       		.byte	0xf3
 10625 01b8 01       		.uleb128 0x1
 10626 01b9 50       		.byte	0x50
 10627 01ba 9F       		.byte	0x9f
 10628 01bb 9C000000 		.4byte	.LVL352
 10629 01bf DC000000 		.4byte	.LVL363
 10630 01c3 0100     		.2byte	0x1
 10631 01c5 54       		.byte	0x54
 10632 01c6 DC000000 		.4byte	.LVL363
 10633 01ca 04010000 		.4byte	.LVL371
 10634 01ce 0400     		.2byte	0x4
 10635 01d0 F3       		.byte	0xf3
ARM GAS  /tmp/ccUc3O3E.s 			page 188


 10636 01d1 01       		.uleb128 0x1
 10637 01d2 50       		.byte	0x50
 10638 01d3 9F       		.byte	0x9f
 10639 01d4 04010000 		.4byte	.LVL371
 10640 01d8 5C020000 		.4byte	.LFE52
 10641 01dc 0100     		.2byte	0x1
 10642 01de 54       		.byte	0x54
 10643 01df 00000000 		.4byte	0
 10644 01e3 00000000 		.4byte	0
 10645              	.LLST238:
 10646 01e7 00000000 		.4byte	.LVL332
 10647 01eb 98000000 		.4byte	.LVL351
 10648 01ef 0200     		.2byte	0x2
 10649 01f1 30       		.byte	0x30
 10650 01f2 9F       		.byte	0x9f
 10651 01f3 9C000000 		.4byte	.LVL352
 10652 01f7 A6000000 		.4byte	.LVL355
 10653 01fb 0200     		.2byte	0x2
 10654 01fd 30       		.byte	0x30
 10655 01fe 9F       		.byte	0x9f
 10656 01ff A6000000 		.4byte	.LVL355
 10657 0203 B0000000 		.4byte	.LVL356
 10658 0207 0100     		.2byte	0x1
 10659 0209 50       		.byte	0x50
 10660 020a B0000000 		.4byte	.LVL356
 10661 020e DA000000 		.4byte	.LVL362
 10662 0212 0100     		.2byte	0x1
 10663 0214 56       		.byte	0x56
 10664 0215 DA000000 		.4byte	.LVL362
 10665 0219 E2000000 		.4byte	.LVL364
 10666 021d 0100     		.2byte	0x1
 10667 021f 50       		.byte	0x50
 10668 0220 E2000000 		.4byte	.LVL364
 10669 0224 04010000 		.4byte	.LVL371
 10670 0228 0100     		.2byte	0x1
 10671 022a 56       		.byte	0x56
 10672 022b 1A010000 		.4byte	.LVL374
 10673 022f 72010000 		.4byte	.LVL404
 10674 0233 0200     		.2byte	0x2
 10675 0235 30       		.byte	0x30
 10676 0236 9F       		.byte	0x9f
 10677 0237 72010000 		.4byte	.LVL404
 10678 023b 1E020000 		.4byte	.LVL423
 10679 023f 0100     		.2byte	0x1
 10680 0241 56       		.byte	0x56
 10681 0242 1E020000 		.4byte	.LVL423
 10682 0246 28020000 		.4byte	.LVL424
 10683 024a 0100     		.2byte	0x1
 10684 024c 50       		.byte	0x50
 10685 024d 40020000 		.4byte	.LVL428
 10686 0251 44020000 		.4byte	.LVL429
 10687 0255 0100     		.2byte	0x1
 10688 0257 50       		.byte	0x50
 10689 0258 00000000 		.4byte	0
 10690 025c 00000000 		.4byte	0
 10691              	.LLST239:
 10692 0260 0E000000 		.4byte	.LVL335
ARM GAS  /tmp/ccUc3O3E.s 			page 189


 10693 0264 5C000000 		.4byte	.LVL347
 10694 0268 0200     		.2byte	0x2
 10695 026a 31       		.byte	0x31
 10696 026b 9F       		.byte	0x9f
 10697 026c 5C000000 		.4byte	.LVL347
 10698 0270 93000000 		.4byte	.LVL350
 10699 0274 0200     		.2byte	0x2
 10700 0276 30       		.byte	0x30
 10701 0277 9F       		.byte	0x9f
 10702 0278 9C000000 		.4byte	.LVL352
 10703 027c 5C020000 		.4byte	.LFE52
 10704 0280 0200     		.2byte	0x2
 10705 0282 30       		.byte	0x30
 10706 0283 9F       		.byte	0x9f
 10707 0284 00000000 		.4byte	0
 10708 0288 00000000 		.4byte	0
 10709              	.LLST240:
 10710 028c 20010000 		.4byte	.LVL376
 10711 0290 24010000 		.4byte	.LVL378
 10712 0294 0200     		.2byte	0x2
 10713 0296 40       		.byte	0x40
 10714 0297 9F       		.byte	0x9f
 10715 0298 24010000 		.4byte	.LVL378
 10716 029c 2A010000 		.4byte	.LVL380
 10717 02a0 0400     		.2byte	0x4
 10718 02a2 0A       		.byte	0xa
 10719 02a3 2001     		.2byte	0x120
 10720 02a5 9F       		.byte	0x9f
 10721 02a6 2A010000 		.4byte	.LVL380
 10722 02aa 30010000 		.4byte	.LVL382
 10723 02ae 0400     		.2byte	0x4
 10724 02b0 0A       		.byte	0xa
 10725 02b1 B002     		.2byte	0x2b0
 10726 02b3 9F       		.byte	0x9f
 10727 02b4 30010000 		.4byte	.LVL382
 10728 02b8 36010000 		.4byte	.LVL384
 10729 02bc 0400     		.2byte	0x4
 10730 02be 0A       		.byte	0xa
 10731 02bf C002     		.2byte	0x2c0
 10732 02c1 9F       		.byte	0x9f
 10733 02c2 36010000 		.4byte	.LVL384
 10734 02c6 3C010000 		.4byte	.LVL386
 10735 02ca 0400     		.2byte	0x4
 10736 02cc 0A       		.byte	0xa
 10737 02cd D002     		.2byte	0x2d0
 10738 02cf 9F       		.byte	0x9f
 10739 02d0 3C010000 		.4byte	.LVL386
 10740 02d4 42010000 		.4byte	.LVL388
 10741 02d8 0400     		.2byte	0x4
 10742 02da 0A       		.byte	0xa
 10743 02db E002     		.2byte	0x2e0
 10744 02dd 9F       		.byte	0x9f
 10745 02de 42010000 		.4byte	.LVL388
 10746 02e2 48010000 		.4byte	.LVL390
 10747 02e6 0400     		.2byte	0x4
 10748 02e8 0A       		.byte	0xa
 10749 02e9 F002     		.2byte	0x2f0
ARM GAS  /tmp/ccUc3O3E.s 			page 190


 10750 02eb 9F       		.byte	0x9f
 10751 02ec 48010000 		.4byte	.LVL390
 10752 02f0 4E010000 		.4byte	.LVL392
 10753 02f4 0400     		.2byte	0x4
 10754 02f6 0A       		.byte	0xa
 10755 02f7 0003     		.2byte	0x300
 10756 02f9 9F       		.byte	0x9f
 10757 02fa 4E010000 		.4byte	.LVL392
 10758 02fe 54010000 		.4byte	.LVL394
 10759 0302 0400     		.2byte	0x4
 10760 0304 0A       		.byte	0xa
 10761 0305 1003     		.2byte	0x310
 10762 0307 9F       		.byte	0x9f
 10763 0308 54010000 		.4byte	.LVL394
 10764 030c 5A010000 		.4byte	.LVL396
 10765 0310 0400     		.2byte	0x4
 10766 0312 0A       		.byte	0xa
 10767 0313 2007     		.2byte	0x720
 10768 0315 9F       		.byte	0x9f
 10769 0316 5A010000 		.4byte	.LVL396
 10770 031a 60010000 		.4byte	.LVL398
 10771 031e 0400     		.2byte	0x4
 10772 0320 0A       		.byte	0xa
 10773 0321 3007     		.2byte	0x730
 10774 0323 9F       		.byte	0x9f
 10775 0324 60010000 		.4byte	.LVL398
 10776 0328 66010000 		.4byte	.LVL400
 10777 032c 0400     		.2byte	0x4
 10778 032e 0A       		.byte	0xa
 10779 032f 4007     		.2byte	0x740
 10780 0331 9F       		.byte	0x9f
 10781 0332 66010000 		.4byte	.LVL400
 10782 0336 6C010000 		.4byte	.LVL402
 10783 033a 0400     		.2byte	0x4
 10784 033c 0A       		.byte	0xa
 10785 033d 6007     		.2byte	0x760
 10786 033f 9F       		.byte	0x9f
 10787 0340 00000000 		.4byte	0
 10788 0344 00000000 		.4byte	0
 10789              	.LLST241:
 10790 0348 6E000000 		.4byte	.LVL349
 10791 034c 93000000 		.4byte	.LVL350
 10792 0350 0100     		.2byte	0x1
 10793 0352 50       		.byte	0x50
 10794 0353 9C000000 		.4byte	.LVL352
 10795 0357 9E000000 		.4byte	.LVL353
 10796 035b 0100     		.2byte	0x1
 10797 035d 50       		.byte	0x50
 10798 035e 9E000000 		.4byte	.LVL353
 10799 0362 16010000 		.4byte	.LVL373
 10800 0366 0100     		.2byte	0x1
 10801 0368 55       		.byte	0x55
 10802 0369 1A010000 		.4byte	.LVL374
 10803 036d 1E010000 		.4byte	.LVL375
 10804 0371 0100     		.2byte	0x1
 10805 0373 50       		.byte	0x50
 10806 0374 1E010000 		.4byte	.LVL375
ARM GAS  /tmp/ccUc3O3E.s 			page 191


 10807 0378 20010000 		.4byte	.LVL376
 10808 037c 0300     		.2byte	0x3
 10809 037e 75       		.byte	0x75
 10810 037f 01       		.sleb128 1
 10811 0380 9F       		.byte	0x9f
 10812 0381 20010000 		.4byte	.LVL376
 10813 0385 22010000 		.4byte	.LVL377
 10814 0389 0100     		.2byte	0x1
 10815 038b 50       		.byte	0x50
 10816 038c 22010000 		.4byte	.LVL377
 10817 0390 24010000 		.4byte	.LVL378
 10818 0394 0300     		.2byte	0x3
 10819 0396 75       		.byte	0x75
 10820 0397 01       		.sleb128 1
 10821 0398 9F       		.byte	0x9f
 10822 0399 24010000 		.4byte	.LVL378
 10823 039d 28010000 		.4byte	.LVL379
 10824 03a1 0100     		.2byte	0x1
 10825 03a3 50       		.byte	0x50
 10826 03a4 28010000 		.4byte	.LVL379
 10827 03a8 2A010000 		.4byte	.LVL380
 10828 03ac 0300     		.2byte	0x3
 10829 03ae 75       		.byte	0x75
 10830 03af 01       		.sleb128 1
 10831 03b0 9F       		.byte	0x9f
 10832 03b1 2A010000 		.4byte	.LVL380
 10833 03b5 2E010000 		.4byte	.LVL381
 10834 03b9 0100     		.2byte	0x1
 10835 03bb 50       		.byte	0x50
 10836 03bc 2E010000 		.4byte	.LVL381
 10837 03c0 30010000 		.4byte	.LVL382
 10838 03c4 0300     		.2byte	0x3
 10839 03c6 75       		.byte	0x75
 10840 03c7 01       		.sleb128 1
 10841 03c8 9F       		.byte	0x9f
 10842 03c9 30010000 		.4byte	.LVL382
 10843 03cd 34010000 		.4byte	.LVL383
 10844 03d1 0100     		.2byte	0x1
 10845 03d3 50       		.byte	0x50
 10846 03d4 34010000 		.4byte	.LVL383
 10847 03d8 36010000 		.4byte	.LVL384
 10848 03dc 0300     		.2byte	0x3
 10849 03de 75       		.byte	0x75
 10850 03df 01       		.sleb128 1
 10851 03e0 9F       		.byte	0x9f
 10852 03e1 36010000 		.4byte	.LVL384
 10853 03e5 3A010000 		.4byte	.LVL385
 10854 03e9 0100     		.2byte	0x1
 10855 03eb 50       		.byte	0x50
 10856 03ec 3A010000 		.4byte	.LVL385
 10857 03f0 3C010000 		.4byte	.LVL386
 10858 03f4 0300     		.2byte	0x3
 10859 03f6 75       		.byte	0x75
 10860 03f7 01       		.sleb128 1
 10861 03f8 9F       		.byte	0x9f
 10862 03f9 3C010000 		.4byte	.LVL386
 10863 03fd 40010000 		.4byte	.LVL387
ARM GAS  /tmp/ccUc3O3E.s 			page 192


 10864 0401 0100     		.2byte	0x1
 10865 0403 50       		.byte	0x50
 10866 0404 40010000 		.4byte	.LVL387
 10867 0408 42010000 		.4byte	.LVL388
 10868 040c 0300     		.2byte	0x3
 10869 040e 75       		.byte	0x75
 10870 040f 01       		.sleb128 1
 10871 0410 9F       		.byte	0x9f
 10872 0411 42010000 		.4byte	.LVL388
 10873 0415 46010000 		.4byte	.LVL389
 10874 0419 0100     		.2byte	0x1
 10875 041b 50       		.byte	0x50
 10876 041c 46010000 		.4byte	.LVL389
 10877 0420 48010000 		.4byte	.LVL390
 10878 0424 0300     		.2byte	0x3
 10879 0426 75       		.byte	0x75
 10880 0427 01       		.sleb128 1
 10881 0428 9F       		.byte	0x9f
 10882 0429 48010000 		.4byte	.LVL390
 10883 042d 4C010000 		.4byte	.LVL391
 10884 0431 0100     		.2byte	0x1
 10885 0433 50       		.byte	0x50
 10886 0434 4C010000 		.4byte	.LVL391
 10887 0438 4E010000 		.4byte	.LVL392
 10888 043c 0300     		.2byte	0x3
 10889 043e 75       		.byte	0x75
 10890 043f 01       		.sleb128 1
 10891 0440 9F       		.byte	0x9f
 10892 0441 4E010000 		.4byte	.LVL392
 10893 0445 52010000 		.4byte	.LVL393
 10894 0449 0100     		.2byte	0x1
 10895 044b 50       		.byte	0x50
 10896 044c 52010000 		.4byte	.LVL393
 10897 0450 54010000 		.4byte	.LVL394
 10898 0454 0300     		.2byte	0x3
 10899 0456 75       		.byte	0x75
 10900 0457 01       		.sleb128 1
 10901 0458 9F       		.byte	0x9f
 10902 0459 54010000 		.4byte	.LVL394
 10903 045d 58010000 		.4byte	.LVL395
 10904 0461 0100     		.2byte	0x1
 10905 0463 50       		.byte	0x50
 10906 0464 58010000 		.4byte	.LVL395
 10907 0468 5A010000 		.4byte	.LVL396
 10908 046c 0300     		.2byte	0x3
 10909 046e 75       		.byte	0x75
 10910 046f 01       		.sleb128 1
 10911 0470 9F       		.byte	0x9f
 10912 0471 5A010000 		.4byte	.LVL396
 10913 0475 5E010000 		.4byte	.LVL397
 10914 0479 0100     		.2byte	0x1
 10915 047b 50       		.byte	0x50
 10916 047c 5E010000 		.4byte	.LVL397
 10917 0480 60010000 		.4byte	.LVL398
 10918 0484 0300     		.2byte	0x3
 10919 0486 75       		.byte	0x75
 10920 0487 01       		.sleb128 1
ARM GAS  /tmp/ccUc3O3E.s 			page 193


 10921 0488 9F       		.byte	0x9f
 10922 0489 60010000 		.4byte	.LVL398
 10923 048d 64010000 		.4byte	.LVL399
 10924 0491 0100     		.2byte	0x1
 10925 0493 50       		.byte	0x50
 10926 0494 64010000 		.4byte	.LVL399
 10927 0498 66010000 		.4byte	.LVL400
 10928 049c 0300     		.2byte	0x3
 10929 049e 75       		.byte	0x75
 10930 049f 01       		.sleb128 1
 10931 04a0 9F       		.byte	0x9f
 10932 04a1 66010000 		.4byte	.LVL400
 10933 04a5 6A010000 		.4byte	.LVL401
 10934 04a9 0100     		.2byte	0x1
 10935 04ab 50       		.byte	0x50
 10936 04ac 6A010000 		.4byte	.LVL401
 10937 04b0 6C010000 		.4byte	.LVL402
 10938 04b4 0300     		.2byte	0x3
 10939 04b6 75       		.byte	0x75
 10940 04b7 01       		.sleb128 1
 10941 04b8 9F       		.byte	0x9f
 10942 04b9 6C010000 		.4byte	.LVL402
 10943 04bd 70010000 		.4byte	.LVL403
 10944 04c1 0100     		.2byte	0x1
 10945 04c3 50       		.byte	0x50
 10946 04c4 70010000 		.4byte	.LVL403
 10947 04c8 72010000 		.4byte	.LVL404
 10948 04cc 0300     		.2byte	0x3
 10949 04ce 75       		.byte	0x75
 10950 04cf 01       		.sleb128 1
 10951 04d0 9F       		.byte	0x9f
 10952 04d1 72010000 		.4byte	.LVL404
 10953 04d5 5C020000 		.4byte	.LFE52
 10954 04d9 0100     		.2byte	0x1
 10955 04db 55       		.byte	0x55
 10956 04dc 00000000 		.4byte	0
 10957 04e0 00000000 		.4byte	0
 10958              	.LLST256:
 10959 04e4 EC000000 		.4byte	.LVL366
 10960 04e8 F4000000 		.4byte	.LVL368
 10961 04ec 0100     		.2byte	0x1
 10962 04ee 50       		.byte	0x50
 10963 04ef 00000000 		.4byte	0
 10964 04f3 00000000 		.4byte	0
 10965              	.LLST257:
 10966 04f7 EE000000 		.4byte	.LVL367
 10967 04fb F7000000 		.4byte	.LVL369-1
 10968 04ff 0100     		.2byte	0x1
 10969 0501 53       		.byte	0x53
 10970 0502 00000000 		.4byte	0
 10971 0506 00000000 		.4byte	0
 10972              	.LLST242:
 10973 050a 08000000 		.4byte	.LVL333
 10974 050e 09000000 		.4byte	.LVL334-1
 10975 0512 0100     		.2byte	0x1
 10976 0514 50       		.byte	0x50
 10977 0515 09000000 		.4byte	.LVL334-1
ARM GAS  /tmp/ccUc3O3E.s 			page 194


 10978 0519 0A000000 		.4byte	.LVL334
 10979 051d 0100     		.2byte	0x1
 10980 051f 54       		.byte	0x54
 10981 0520 00000000 		.4byte	0
 10982 0524 00000000 		.4byte	0
 10983              	.LLST243:
 10984 0528 0E000000 		.4byte	.LVL335
 10985 052c 16000000 		.4byte	.LVL336
 10986 0530 0200     		.2byte	0x2
 10987 0532 30       		.byte	0x30
 10988 0533 9F       		.byte	0x9f
 10989 0534 00000000 		.4byte	0
 10990 0538 00000000 		.4byte	0
 10991              	.LLST244:
 10992 053c 0E000000 		.4byte	.LVL335
 10993 0540 16000000 		.4byte	.LVL336
 10994 0544 0100     		.2byte	0x1
 10995 0546 54       		.byte	0x54
 10996 0547 00000000 		.4byte	0
 10997 054b 00000000 		.4byte	0
 10998              	.LLST245:
 10999 054f 22000000 		.4byte	.LVL338
 11000 0553 28000000 		.4byte	.LVL339
 11001 0557 0200     		.2byte	0x2
 11002 0559 30       		.byte	0x30
 11003 055a 9F       		.byte	0x9f
 11004 055b 00000000 		.4byte	0
 11005 055f 00000000 		.4byte	0
 11006              	.LLST246:
 11007 0563 22000000 		.4byte	.LVL338
 11008 0567 28000000 		.4byte	.LVL339
 11009 056b 0100     		.2byte	0x1
 11010 056d 54       		.byte	0x54
 11011 056e 00000000 		.4byte	0
 11012 0572 00000000 		.4byte	0
 11013              	.LLST247:
 11014 0576 30000000 		.4byte	.LVL340
 11015 057a 3A000000 		.4byte	.LVL342
 11016 057e 0200     		.2byte	0x2
 11017 0580 31       		.byte	0x31
 11018 0581 9F       		.byte	0x9f
 11019 0582 00000000 		.4byte	0
 11020 0586 00000000 		.4byte	0
 11021              	.LLST248:
 11022 058a 30000000 		.4byte	.LVL340
 11023 058e 3A000000 		.4byte	.LVL342
 11024 0592 0100     		.2byte	0x1
 11025 0594 54       		.byte	0x54
 11026 0595 00000000 		.4byte	0
 11027 0599 00000000 		.4byte	0
 11028              	.LLST249:
 11029 059d 3A000000 		.4byte	.LVL342
 11030 05a1 40000000 		.4byte	.LVL343
 11031 05a5 0200     		.2byte	0x2
 11032 05a7 30       		.byte	0x30
 11033 05a8 9F       		.byte	0x9f
 11034 05a9 54000000 		.4byte	.LVL346
ARM GAS  /tmp/ccUc3O3E.s 			page 195


 11035 05ad 5C000000 		.4byte	.LVL347
 11036 05b1 0200     		.2byte	0x2
 11037 05b3 30       		.byte	0x30
 11038 05b4 9F       		.byte	0x9f
 11039 05b5 00000000 		.4byte	0
 11040 05b9 00000000 		.4byte	0
 11041              	.LLST250:
 11042 05bd 3A000000 		.4byte	.LVL342
 11043 05c1 40000000 		.4byte	.LVL343
 11044 05c5 0100     		.2byte	0x1
 11045 05c7 54       		.byte	0x54
 11046 05c8 54000000 		.4byte	.LVL346
 11047 05cc 5C000000 		.4byte	.LVL347
 11048 05d0 0100     		.2byte	0x1
 11049 05d2 54       		.byte	0x54
 11050 05d3 00000000 		.4byte	0
 11051 05d7 00000000 		.4byte	0
 11052              	.LLST251:
 11053 05db 40000000 		.4byte	.LVL343
 11054 05df 4E000000 		.4byte	.LVL345
 11055 05e3 0200     		.2byte	0x2
 11056 05e5 31       		.byte	0x31
 11057 05e6 9F       		.byte	0x9f
 11058 05e7 00000000 		.4byte	0
 11059 05eb 00000000 		.4byte	0
 11060              	.LLST252:
 11061 05ef 40000000 		.4byte	.LVL343
 11062 05f3 4A000000 		.4byte	.LVL344
 11063 05f7 0100     		.2byte	0x1
 11064 05f9 54       		.byte	0x54
 11065 05fa 4A000000 		.4byte	.LVL344
 11066 05fe 4D000000 		.4byte	.LVL345-1
 11067 0602 0100     		.2byte	0x1
 11068 0604 50       		.byte	0x50
 11069 0605 4D000000 		.4byte	.LVL345-1
 11070 0609 4E000000 		.4byte	.LVL345
 11071 060d 0100     		.2byte	0x1
 11072 060f 54       		.byte	0x54
 11073 0610 00000000 		.4byte	0
 11074 0614 00000000 		.4byte	0
 11075              	.LLST253:
 11076 0618 4E000000 		.4byte	.LVL345
 11077 061c 54000000 		.4byte	.LVL346
 11078 0620 0100     		.2byte	0x1
 11079 0622 54       		.byte	0x54
 11080 0623 00000000 		.4byte	0
 11081 0627 00000000 		.4byte	0
 11082              	.LLST254:
 11083 062b 5C000000 		.4byte	.LVL347
 11084 062f 62000000 		.4byte	.LVL348
 11085 0633 0100     		.2byte	0x1
 11086 0635 54       		.byte	0x54
 11087 0636 00000000 		.4byte	0
 11088 063a 00000000 		.4byte	0
 11089              	.LLST255:
 11090 063e D0000000 		.4byte	.LVL360
 11091 0642 D8000000 		.4byte	.LVL361
ARM GAS  /tmp/ccUc3O3E.s 			page 196


 11092 0646 0200     		.2byte	0x2
 11093 0648 91       		.byte	0x91
 11094 0649 60       		.sleb128 -32
 11095 064a 00000000 		.4byte	0
 11096 064e 00000000 		.4byte	0
 11097              	.LLST258:
 11098 0652 72010000 		.4byte	.LVL404
 11099 0656 7B010000 		.4byte	.LVL405-1
 11100 065a 0200     		.2byte	0x2
 11101 065c 91       		.byte	0x91
 11102 065d 64       		.sleb128 -28
 11103 065e 00000000 		.4byte	0
 11104 0662 00000000 		.4byte	0
 11105              	.LLST260:
 11106 0666 7C010000 		.4byte	.LVL405
 11107 066a 90010000 		.4byte	.LVL407
 11108 066e 0100     		.2byte	0x1
 11109 0670 50       		.byte	0x50
 11110 0671 00000000 		.4byte	0
 11111 0675 00000000 		.4byte	0
 11112              	.LLST261:
 11113 0679 8C010000 		.4byte	.LVL406
 11114 067d 9C010000 		.4byte	.LVL408
 11115 0681 0400     		.2byte	0x4
 11116 0683 40       		.byte	0x40
 11117 0684 4A       		.byte	0x4a
 11118 0685 24       		.byte	0x24
 11119 0686 9F       		.byte	0x9f
 11120 0687 00000000 		.4byte	0
 11121 068b 00000000 		.4byte	0
 11122              	.LLST262:
 11123 068f 8C010000 		.4byte	.LVL406
 11124 0693 90010000 		.4byte	.LVL407
 11125 0697 0100     		.2byte	0x1
 11126 0699 50       		.byte	0x50
 11127 069a 00000000 		.4byte	0
 11128 069e 00000000 		.4byte	0
 11129              	.LLST263:
 11130 06a2 9E010000 		.4byte	.LVL409
 11131 06a6 A7010000 		.4byte	.LVL410-1
 11132 06aa 0200     		.2byte	0x2
 11133 06ac 91       		.byte	0x91
 11134 06ad 60       		.sleb128 -32
 11135 06ae 00000000 		.4byte	0
 11136 06b2 00000000 		.4byte	0
 11137              	.LLST264:
 11138 06b6 A8010000 		.4byte	.LVL410
 11139 06ba BE010000 		.4byte	.LVL412
 11140 06be 0100     		.2byte	0x1
 11141 06c0 50       		.byte	0x50
 11142 06c1 00000000 		.4byte	0
 11143 06c5 00000000 		.4byte	0
 11144              	.LLST265:
 11145 06c9 BA010000 		.4byte	.LVL411
 11146 06cd CA010000 		.4byte	.LVL413
 11147 06d1 0400     		.2byte	0x4
 11148 06d3 40       		.byte	0x40
ARM GAS  /tmp/ccUc3O3E.s 			page 197


 11149 06d4 49       		.byte	0x49
 11150 06d5 24       		.byte	0x24
 11151 06d6 9F       		.byte	0x9f
 11152 06d7 00000000 		.4byte	0
 11153 06db 00000000 		.4byte	0
 11154              	.LLST266:
 11155 06df BA010000 		.4byte	.LVL411
 11156 06e3 BE010000 		.4byte	.LVL412
 11157 06e7 0100     		.2byte	0x1
 11158 06e9 50       		.byte	0x50
 11159 06ea 00000000 		.4byte	0
 11160 06ee 00000000 		.4byte	0
 11161              	.LLST267:
 11162 06f2 E0010000 		.4byte	.LVL416
 11163 06f6 E8010000 		.4byte	.LVL417
 11164 06fa 0200     		.2byte	0x2
 11165 06fc 91       		.byte	0x91
 11166 06fd 5C       		.sleb128 -36
 11167 06fe 00000000 		.4byte	0
 11168 0702 00000000 		.4byte	0
 11169              	.LLST268:
 11170 0706 EA010000 		.4byte	.LVL418
 11171 070a F3010000 		.4byte	.LVL419-1
 11172 070e 0200     		.2byte	0x2
 11173 0710 91       		.byte	0x91
 11174 0711 5C       		.sleb128 -36
 11175 0712 00000000 		.4byte	0
 11176 0716 00000000 		.4byte	0
 11177              	.LLST269:
 11178 071a F4010000 		.4byte	.LVL419
 11179 071e 0A020000 		.4byte	.LVL421
 11180 0722 0100     		.2byte	0x1
 11181 0724 50       		.byte	0x50
 11182 0725 00000000 		.4byte	0
 11183 0729 00000000 		.4byte	0
 11184              	.LLST270:
 11185 072d 06020000 		.4byte	.LVL420
 11186 0731 16020000 		.4byte	.LVL422
 11187 0735 0400     		.2byte	0x4
 11188 0737 48       		.byte	0x48
 11189 0738 49       		.byte	0x49
 11190 0739 24       		.byte	0x24
 11191 073a 9F       		.byte	0x9f
 11192 073b 00000000 		.4byte	0
 11193 073f 00000000 		.4byte	0
 11194              	.LLST271:
 11195 0743 06020000 		.4byte	.LVL420
 11196 0747 0A020000 		.4byte	.LVL421
 11197 074b 0100     		.2byte	0x1
 11198 074d 50       		.byte	0x50
 11199 074e 00000000 		.4byte	0
 11200 0752 00000000 		.4byte	0
 11201              	.LLST272:
 11202 0756 34020000 		.4byte	.LVL426
 11203 075a 3E020000 		.4byte	.LVL427
 11204 075e 0200     		.2byte	0x2
 11205 0760 91       		.byte	0x91
ARM GAS  /tmp/ccUc3O3E.s 			page 198


 11206 0761 6C       		.sleb128 -20
 11207 0762 00000000 		.4byte	0
 11208 0766 00000000 		.4byte	0
 11209              	.LLST213:
 11210 076a 00000000 		.4byte	.LVL301
 11211 076e 0F000000 		.4byte	.LVL304-1
 11212 0772 0100     		.2byte	0x1
 11213 0774 50       		.byte	0x50
 11214 0775 0F000000 		.4byte	.LVL304-1
 11215 0779 1A000000 		.4byte	.LVL305
 11216 077d 0100     		.2byte	0x1
 11217 077f 54       		.byte	0x54
 11218 0780 1A000000 		.4byte	.LVL305
 11219 0784 1D000000 		.4byte	.LVL306-1
 11220 0788 0100     		.2byte	0x1
 11221 078a 50       		.byte	0x50
 11222 078b 1D000000 		.4byte	.LVL306-1
 11223 078f 64000000 		.4byte	.LVL317
 11224 0793 0100     		.2byte	0x1
 11225 0795 54       		.byte	0x54
 11226 0796 64000000 		.4byte	.LVL317
 11227 079a 67000000 		.4byte	.LVL318-1
 11228 079e 0100     		.2byte	0x1
 11229 07a0 50       		.byte	0x50
 11230 07a1 67000000 		.4byte	.LVL318-1
 11231 07a5 D2000000 		.4byte	.LFE51
 11232 07a9 0100     		.2byte	0x1
 11233 07ab 54       		.byte	0x54
 11234 07ac 00000000 		.4byte	0
 11235 07b0 00000000 		.4byte	0
 11236              	.LLST214:
 11237 07b4 00000000 		.4byte	.LVL301
 11238 07b8 0C000000 		.4byte	.LVL302
 11239 07bc 0100     		.2byte	0x1
 11240 07be 51       		.byte	0x51
 11241 07bf 0C000000 		.4byte	.LVL302
 11242 07c3 D2000000 		.4byte	.LFE51
 11243 07c7 0100     		.2byte	0x1
 11244 07c9 56       		.byte	0x56
 11245 07ca 00000000 		.4byte	0
 11246 07ce 00000000 		.4byte	0
 11247              	.LLST215:
 11248 07d2 00000000 		.4byte	.LVL301
 11249 07d6 1A000000 		.4byte	.LVL305
 11250 07da 0200     		.2byte	0x2
 11251 07dc 30       		.byte	0x30
 11252 07dd 9F       		.byte	0x9f
 11253 07de 1A000000 		.4byte	.LVL305
 11254 07e2 1D000000 		.4byte	.LVL306-1
 11255 07e6 0100     		.2byte	0x1
 11256 07e8 51       		.byte	0x51
 11257 07e9 1D000000 		.4byte	.LVL306-1
 11258 07ed 5C000000 		.4byte	.LVL316
 11259 07f1 0100     		.2byte	0x1
 11260 07f3 55       		.byte	0x55
 11261 07f4 64000000 		.4byte	.LVL317
 11262 07f8 67000000 		.4byte	.LVL318-1
ARM GAS  /tmp/ccUc3O3E.s 			page 199


 11263 07fc 0100     		.2byte	0x1
 11264 07fe 51       		.byte	0x51
 11265 07ff 67000000 		.4byte	.LVL318-1
 11266 0803 CC000000 		.4byte	.LVL331
 11267 0807 0100     		.2byte	0x1
 11268 0809 55       		.byte	0x55
 11269 080a CC000000 		.4byte	.LVL331
 11270 080e D2000000 		.4byte	.LFE51
 11271 0812 0200     		.2byte	0x2
 11272 0814 30       		.byte	0x30
 11273 0815 9F       		.byte	0x9f
 11274 0816 00000000 		.4byte	0
 11275 081a 00000000 		.4byte	0
 11276              	.LLST216:
 11277 081e 00000000 		.4byte	.LVL301
 11278 0822 5A000000 		.4byte	.LVL315
 11279 0826 0200     		.2byte	0x2
 11280 0828 30       		.byte	0x30
 11281 0829 9F       		.byte	0x9f
 11282 082a 64000000 		.4byte	.LVL317
 11283 082e 84000000 		.4byte	.LVL322
 11284 0832 0200     		.2byte	0x2
 11285 0834 30       		.byte	0x30
 11286 0835 9F       		.byte	0x9f
 11287 0836 8E000000 		.4byte	.LVL323
 11288 083a A6000000 		.4byte	.LVL327
 11289 083e 0100     		.2byte	0x1
 11290 0840 59       		.byte	0x59
 11291 0841 A6000000 		.4byte	.LVL327
 11292 0845 C6000000 		.4byte	.LVL330
 11293 0849 1600     		.2byte	0x16
 11294 084b 08       		.byte	0x8
 11295 084c 7F       		.byte	0x7f
 11296 084d 75       		.byte	0x75
 11297 084e 00       		.sleb128 0
 11298 084f 75       		.byte	0x75
 11299 0850 00       		.sleb128 0
 11300 0851 40       		.byte	0x40
 11301 0852 4B       		.byte	0x4b
 11302 0853 24       		.byte	0x24
 11303 0854 22       		.byte	0x22
 11304 0855 0C       		.byte	0xc
 11305 0856 7F000080 		.4byte	0x8000007f
 11306 085a 2A       		.byte	0x2a
 11307 085b 28       		.byte	0x28
 11308 085c 0100     		.2byte	0x1
 11309 085e 16       		.byte	0x16
 11310 085f 13       		.byte	0x13
 11311 0860 9F       		.byte	0x9f
 11312 0861 C6000000 		.4byte	.LVL330
 11313 0865 CC000000 		.4byte	.LVL331
 11314 0869 1600     		.2byte	0x16
 11315 086b 75       		.byte	0x75
 11316 086c 00       		.sleb128 0
 11317 086d 12       		.byte	0x12
 11318 086e 40       		.byte	0x40
 11319 086f 4B       		.byte	0x4b
ARM GAS  /tmp/ccUc3O3E.s 			page 200


 11320 0870 24       		.byte	0x24
 11321 0871 22       		.byte	0x22
 11322 0872 08       		.byte	0x8
 11323 0873 7F       		.byte	0x7f
 11324 0874 16       		.byte	0x16
 11325 0875 14       		.byte	0x14
 11326 0876 40       		.byte	0x40
 11327 0877 4B       		.byte	0x4b
 11328 0878 24       		.byte	0x24
 11329 0879 22       		.byte	0x22
 11330 087a 2D       		.byte	0x2d
 11331 087b 28       		.byte	0x28
 11332 087c 0100     		.2byte	0x1
 11333 087e 16       		.byte	0x16
 11334 087f 13       		.byte	0x13
 11335 0880 9F       		.byte	0x9f
 11336 0881 CC000000 		.4byte	.LVL331
 11337 0885 D2000000 		.4byte	.LFE51
 11338 0889 0200     		.2byte	0x2
 11339 088b 30       		.byte	0x30
 11340 088c 9F       		.byte	0x9f
 11341 088d 00000000 		.4byte	0
 11342 0891 00000000 		.4byte	0
 11343              	.LLST217:
 11344 0895 00000000 		.4byte	.LVL301
 11345 0899 1A000000 		.4byte	.LVL305
 11346 089d 0200     		.2byte	0x2
 11347 089f 30       		.byte	0x30
 11348 08a0 9F       		.byte	0x9f
 11349 08a1 CC000000 		.4byte	.LVL331
 11350 08a5 D2000000 		.4byte	.LFE51
 11351 08a9 0200     		.2byte	0x2
 11352 08ab 30       		.byte	0x30
 11353 08ac 9F       		.byte	0x9f
 11354 08ad 00000000 		.4byte	0
 11355 08b1 00000000 		.4byte	0
 11356              	.LLST218:
 11357 08b5 00000000 		.4byte	.LVL301
 11358 08b9 5A000000 		.4byte	.LVL315
 11359 08bd 0200     		.2byte	0x2
 11360 08bf 30       		.byte	0x30
 11361 08c0 9F       		.byte	0x9f
 11362 08c1 64000000 		.4byte	.LVL317
 11363 08c5 84000000 		.4byte	.LVL322
 11364 08c9 0200     		.2byte	0x2
 11365 08cb 30       		.byte	0x30
 11366 08cc 9F       		.byte	0x9f
 11367 08cd 84000000 		.4byte	.LVL322
 11368 08d1 C6000000 		.4byte	.LVL330
 11369 08d5 0200     		.2byte	0x2
 11370 08d7 31       		.byte	0x31
 11371 08d8 9F       		.byte	0x9f
 11372 08d9 C6000000 		.4byte	.LVL330
 11373 08dd CC000000 		.4byte	.LVL331
 11374 08e1 0D00     		.2byte	0xd
 11375 08e3 75       		.byte	0x75
 11376 08e4 00       		.sleb128 0
ARM GAS  /tmp/ccUc3O3E.s 			page 201


 11377 08e5 40       		.byte	0x40
 11378 08e6 4B       		.byte	0x4b
 11379 08e7 24       		.byte	0x24
 11380 08e8 22       		.byte	0x22
 11381 08e9 0C       		.byte	0xc
 11382 08ea 01000080 		.4byte	0x80000001
 11383 08ee 2B       		.byte	0x2b
 11384 08ef 9F       		.byte	0x9f
 11385 08f0 CC000000 		.4byte	.LVL331
 11386 08f4 D2000000 		.4byte	.LFE51
 11387 08f8 0200     		.2byte	0x2
 11388 08fa 30       		.byte	0x30
 11389 08fb 9F       		.byte	0x9f
 11390 08fc 00000000 		.4byte	0
 11391 0900 00000000 		.4byte	0
 11392              	.LLST235:
 11393 0904 8E000000 		.4byte	.LVL323
 11394 0908 94000000 		.4byte	.LVL324
 11395 090c 0200     		.2byte	0x2
 11396 090e 30       		.byte	0x30
 11397 090f 9F       		.byte	0x9f
 11398 0910 94000000 		.4byte	.LVL324
 11399 0914 C6000000 		.4byte	.LVL330
 11400 0918 0900     		.2byte	0x9
 11401 091a 77       		.byte	0x77
 11402 091b 00       		.sleb128 0
 11403 091c 91       		.byte	0x91
 11404 091d 00       		.sleb128 0
 11405 091e 1C       		.byte	0x1c
 11406 091f 23       		.byte	0x23
 11407 0920 A001     		.uleb128 0xa0
 11408 0922 9F       		.byte	0x9f
 11409 0923 00000000 		.4byte	0
 11410 0927 00000000 		.4byte	0
 11411              	.LLST236:
 11412 092b 94000000 		.4byte	.LVL324
 11413 092f 9A000000 		.4byte	.LVL325
 11414 0933 0100     		.2byte	0x1
 11415 0935 54       		.byte	0x54
 11416 0936 00000000 		.4byte	0
 11417 093a 00000000 		.4byte	0
 11418              	.LLST219:
 11419 093e 0E000000 		.4byte	.LVL303
 11420 0942 10000000 		.4byte	.LVL304
 11421 0946 0200     		.2byte	0x2
 11422 0948 30       		.byte	0x30
 11423 0949 9F       		.byte	0x9f
 11424 094a 00000000 		.4byte	0
 11425 094e 00000000 		.4byte	0
 11426              	.LLST220:
 11427 0952 0E000000 		.4byte	.LVL303
 11428 0956 0F000000 		.4byte	.LVL304-1
 11429 095a 0100     		.2byte	0x1
 11430 095c 50       		.byte	0x50
 11431 095d 0F000000 		.4byte	.LVL304-1
 11432 0961 10000000 		.4byte	.LVL304
 11433 0965 0100     		.2byte	0x1
ARM GAS  /tmp/ccUc3O3E.s 			page 202


 11434 0967 54       		.byte	0x54
 11435 0968 00000000 		.4byte	0
 11436 096c 00000000 		.4byte	0
 11437              	.LLST221:
 11438 0970 1A000000 		.4byte	.LVL305
 11439 0974 1D000000 		.4byte	.LVL306-1
 11440 0978 0100     		.2byte	0x1
 11441 097a 51       		.byte	0x51
 11442 097b 1D000000 		.4byte	.LVL306-1
 11443 097f 1E000000 		.4byte	.LVL306
 11444 0983 0100     		.2byte	0x1
 11445 0985 55       		.byte	0x55
 11446 0986 2C000000 		.4byte	.LVL308
 11447 098a 34000000 		.4byte	.LVL309
 11448 098e 0100     		.2byte	0x1
 11449 0990 55       		.byte	0x55
 11450 0991 00000000 		.4byte	0
 11451 0995 00000000 		.4byte	0
 11452              	.LLST222:
 11453 0999 1A000000 		.4byte	.LVL305
 11454 099d 1D000000 		.4byte	.LVL306-1
 11455 09a1 0100     		.2byte	0x1
 11456 09a3 50       		.byte	0x50
 11457 09a4 1D000000 		.4byte	.LVL306-1
 11458 09a8 1E000000 		.4byte	.LVL306
 11459 09ac 0100     		.2byte	0x1
 11460 09ae 54       		.byte	0x54
 11461 09af 2C000000 		.4byte	.LVL308
 11462 09b3 34000000 		.4byte	.LVL309
 11463 09b7 0100     		.2byte	0x1
 11464 09b9 54       		.byte	0x54
 11465 09ba 00000000 		.4byte	0
 11466 09be 00000000 		.4byte	0
 11467              	.LLST223:
 11468 09c2 24000000 		.4byte	.LVL307
 11469 09c6 2C000000 		.4byte	.LVL308
 11470 09ca 0100     		.2byte	0x1
 11471 09cc 55       		.byte	0x55
 11472 09cd 00000000 		.4byte	0
 11473 09d1 00000000 		.4byte	0
 11474              	.LLST224:
 11475 09d5 24000000 		.4byte	.LVL307
 11476 09d9 2C000000 		.4byte	.LVL308
 11477 09dd 0100     		.2byte	0x1
 11478 09df 54       		.byte	0x54
 11479 09e0 00000000 		.4byte	0
 11480 09e4 00000000 		.4byte	0
 11481              	.LLST225:
 11482 09e8 34000000 		.4byte	.LVL309
 11483 09ec 3C000000 		.4byte	.LVL310
 11484 09f0 0100     		.2byte	0x1
 11485 09f2 55       		.byte	0x55
 11486 09f3 00000000 		.4byte	0
 11487 09f7 00000000 		.4byte	0
 11488              	.LLST226:
 11489 09fb 34000000 		.4byte	.LVL309
 11490 09ff 3C000000 		.4byte	.LVL310
ARM GAS  /tmp/ccUc3O3E.s 			page 203


 11491 0a03 0100     		.2byte	0x1
 11492 0a05 54       		.byte	0x54
 11493 0a06 00000000 		.4byte	0
 11494 0a0a 00000000 		.4byte	0
 11495              	.LLST227:
 11496 0a0e 42000000 		.4byte	.LVL311
 11497 0a12 4A000000 		.4byte	.LVL312
 11498 0a16 0100     		.2byte	0x1
 11499 0a18 55       		.byte	0x55
 11500 0a19 00000000 		.4byte	0
 11501 0a1d 00000000 		.4byte	0
 11502              	.LLST228:
 11503 0a21 42000000 		.4byte	.LVL311
 11504 0a25 4A000000 		.4byte	.LVL312
 11505 0a29 0100     		.2byte	0x1
 11506 0a2b 54       		.byte	0x54
 11507 0a2c 00000000 		.4byte	0
 11508 0a30 00000000 		.4byte	0
 11509              	.LLST229:
 11510 0a34 4E000000 		.4byte	.LVL313
 11511 0a38 56000000 		.4byte	.LVL314
 11512 0a3c 0100     		.2byte	0x1
 11513 0a3e 55       		.byte	0x55
 11514 0a3f 00000000 		.4byte	0
 11515 0a43 00000000 		.4byte	0
 11516              	.LLST230:
 11517 0a47 4E000000 		.4byte	.LVL313
 11518 0a4b 56000000 		.4byte	.LVL314
 11519 0a4f 0100     		.2byte	0x1
 11520 0a51 54       		.byte	0x54
 11521 0a52 00000000 		.4byte	0
 11522 0a56 00000000 		.4byte	0
 11523              	.LLST231:
 11524 0a5a 64000000 		.4byte	.LVL317
 11525 0a5e 67000000 		.4byte	.LVL318-1
 11526 0a62 0100     		.2byte	0x1
 11527 0a64 51       		.byte	0x51
 11528 0a65 67000000 		.4byte	.LVL318-1
 11529 0a69 68000000 		.4byte	.LVL318
 11530 0a6d 0100     		.2byte	0x1
 11531 0a6f 55       		.byte	0x55
 11532 0a70 76000000 		.4byte	.LVL320
 11533 0a74 7E000000 		.4byte	.LVL321
 11534 0a78 0100     		.2byte	0x1
 11535 0a7a 55       		.byte	0x55
 11536 0a7b 00000000 		.4byte	0
 11537 0a7f 00000000 		.4byte	0
 11538              	.LLST232:
 11539 0a83 64000000 		.4byte	.LVL317
 11540 0a87 67000000 		.4byte	.LVL318-1
 11541 0a8b 0100     		.2byte	0x1
 11542 0a8d 50       		.byte	0x50
 11543 0a8e 67000000 		.4byte	.LVL318-1
 11544 0a92 68000000 		.4byte	.LVL318
 11545 0a96 0100     		.2byte	0x1
 11546 0a98 54       		.byte	0x54
 11547 0a99 76000000 		.4byte	.LVL320
ARM GAS  /tmp/ccUc3O3E.s 			page 204


 11548 0a9d 7E000000 		.4byte	.LVL321
 11549 0aa1 0100     		.2byte	0x1
 11550 0aa3 54       		.byte	0x54
 11551 0aa4 00000000 		.4byte	0
 11552 0aa8 00000000 		.4byte	0
 11553              	.LLST233:
 11554 0aac 6E000000 		.4byte	.LVL319
 11555 0ab0 76000000 		.4byte	.LVL320
 11556 0ab4 0100     		.2byte	0x1
 11557 0ab6 55       		.byte	0x55
 11558 0ab7 00000000 		.4byte	0
 11559 0abb 00000000 		.4byte	0
 11560              	.LLST234:
 11561 0abf 6E000000 		.4byte	.LVL319
 11562 0ac3 76000000 		.4byte	.LVL320
 11563 0ac7 0100     		.2byte	0x1
 11564 0ac9 54       		.byte	0x54
 11565 0aca 00000000 		.4byte	0
 11566 0ace 00000000 		.4byte	0
 11567              	.LLST156:
 11568 0ad2 00000000 		.4byte	.LVL228
 11569 0ad6 0D000000 		.4byte	.LVL231-1
 11570 0ada 0100     		.2byte	0x1
 11571 0adc 50       		.byte	0x50
 11572 0add 0D000000 		.4byte	.LVL231-1
 11573 0ae1 46000000 		.4byte	.LVL238
 11574 0ae5 0100     		.2byte	0x1
 11575 0ae7 54       		.byte	0x54
 11576 0ae8 46000000 		.4byte	.LVL238
 11577 0aec 49000000 		.4byte	.LVL239-1
 11578 0af0 0100     		.2byte	0x1
 11579 0af2 50       		.byte	0x50
 11580 0af3 49000000 		.4byte	.LVL239-1
 11581 0af7 52000000 		.4byte	.LVL240
 11582 0afb 0100     		.2byte	0x1
 11583 0afd 54       		.byte	0x54
 11584 0afe 52000000 		.4byte	.LVL240
 11585 0b02 55000000 		.4byte	.LVL241-1
 11586 0b06 0100     		.2byte	0x1
 11587 0b08 50       		.byte	0x50
 11588 0b09 55000000 		.4byte	.LVL241-1
 11589 0b0d 72000000 		.4byte	.LVL246
 11590 0b11 0100     		.2byte	0x1
 11591 0b13 54       		.byte	0x54
 11592 0b14 72000000 		.4byte	.LVL246
 11593 0b18 8A000000 		.4byte	.LVL249
 11594 0b1c 0100     		.2byte	0x1
 11595 0b1e 50       		.byte	0x50
 11596 0b1f 8A000000 		.4byte	.LVL249
 11597 0b23 AE000000 		.4byte	.LVL257
 11598 0b27 0100     		.2byte	0x1
 11599 0b29 54       		.byte	0x54
 11600 0b2a AE000000 		.4byte	.LVL257
 11601 0b2e BA000000 		.4byte	.LVL258
 11602 0b32 0100     		.2byte	0x1
 11603 0b34 50       		.byte	0x50
 11604 0b35 BA000000 		.4byte	.LVL258
ARM GAS  /tmp/ccUc3O3E.s 			page 205


 11605 0b39 AE010000 		.4byte	.LFE50
 11606 0b3d 0100     		.2byte	0x1
 11607 0b3f 54       		.byte	0x54
 11608 0b40 00000000 		.4byte	0
 11609 0b44 00000000 		.4byte	0
 11610              	.LLST157:
 11611 0b48 00000000 		.4byte	.LVL228
 11612 0b4c 0A000000 		.4byte	.LVL229
 11613 0b50 0100     		.2byte	0x1
 11614 0b52 51       		.byte	0x51
 11615 0b53 0A000000 		.4byte	.LVL229
 11616 0b57 AE010000 		.4byte	.LFE50
 11617 0b5b 0100     		.2byte	0x1
 11618 0b5d 57       		.byte	0x57
 11619 0b5e 00000000 		.4byte	0
 11620 0b62 00000000 		.4byte	0
 11621              	.LLST158:
 11622 0b66 00000000 		.4byte	.LVL228
 11623 0b6a 46000000 		.4byte	.LVL238
 11624 0b6e 0200     		.2byte	0x2
 11625 0b70 30       		.byte	0x30
 11626 0b71 9F       		.byte	0x9f
 11627 0b72 46000000 		.4byte	.LVL238
 11628 0b76 5A000000 		.4byte	.LVL242
 11629 0b7a 0100     		.2byte	0x1
 11630 0b7c 56       		.byte	0x56
 11631 0b7d 62000000 		.4byte	.LVL244
 11632 0b81 BA000000 		.4byte	.LVL258
 11633 0b85 0100     		.2byte	0x1
 11634 0b87 56       		.byte	0x56
 11635 0b88 BA000000 		.4byte	.LVL258
 11636 0b8c C0000000 		.4byte	.LVL260
 11637 0b90 0200     		.2byte	0x2
 11638 0b92 30       		.byte	0x30
 11639 0b93 9F       		.byte	0x9f
 11640 0b94 C0000000 		.4byte	.LVL260
 11641 0b98 74010000 		.4byte	.LVL292
 11642 0b9c 0100     		.2byte	0x1
 11643 0b9e 56       		.byte	0x56
 11644 0b9f 74010000 		.4byte	.LVL292
 11645 0ba3 76010000 		.4byte	.LVL293
 11646 0ba7 0400     		.2byte	0x4
 11647 0ba9 76       		.byte	0x76
 11648 0baa 00       		.sleb128 0
 11649 0bab 1F       		.byte	0x1f
 11650 0bac 9F       		.byte	0x9f
 11651 0bad 7E010000 		.4byte	.LVL294
 11652 0bb1 8C010000 		.4byte	.LVL295
 11653 0bb5 0100     		.2byte	0x1
 11654 0bb7 56       		.byte	0x56
 11655 0bb8 9E010000 		.4byte	.LVL298
 11656 0bbc AE010000 		.4byte	.LFE50
 11657 0bc0 0100     		.2byte	0x1
 11658 0bc2 56       		.byte	0x56
 11659 0bc3 00000000 		.4byte	0
 11660 0bc7 00000000 		.4byte	0
 11661              	.LLST159:
ARM GAS  /tmp/ccUc3O3E.s 			page 206


 11662 0bcb 00000000 		.4byte	.LVL228
 11663 0bcf 22000000 		.4byte	.LVL232
 11664 0bd3 0200     		.2byte	0x2
 11665 0bd5 30       		.byte	0x30
 11666 0bd6 9F       		.byte	0x9f
 11667 0bd7 22000000 		.4byte	.LVL232
 11668 0bdb 46000000 		.4byte	.LVL238
 11669 0bdf 0100     		.2byte	0x1
 11670 0be1 58       		.byte	0x58
 11671 0be2 46000000 		.4byte	.LVL238
 11672 0be6 49000000 		.4byte	.LVL239-1
 11673 0bea 0100     		.2byte	0x1
 11674 0bec 51       		.byte	0x51
 11675 0bed 49000000 		.4byte	.LVL239-1
 11676 0bf1 52000000 		.4byte	.LVL240
 11677 0bf5 0100     		.2byte	0x1
 11678 0bf7 55       		.byte	0x55
 11679 0bf8 52000000 		.4byte	.LVL240
 11680 0bfc 55000000 		.4byte	.LVL241-1
 11681 0c00 0100     		.2byte	0x1
 11682 0c02 51       		.byte	0x51
 11683 0c03 55000000 		.4byte	.LVL241-1
 11684 0c07 60000000 		.4byte	.LVL243
 11685 0c0b 0100     		.2byte	0x1
 11686 0c0d 55       		.byte	0x55
 11687 0c0e 60000000 		.4byte	.LVL243
 11688 0c12 62000000 		.4byte	.LVL244
 11689 0c16 0300     		.2byte	0x3
 11690 0c18 75       		.byte	0x75
 11691 0c19 7F       		.sleb128 -1
 11692 0c1a 9F       		.byte	0x9f
 11693 0c1b 62000000 		.4byte	.LVL244
 11694 0c1f 72000000 		.4byte	.LVL246
 11695 0c23 0100     		.2byte	0x1
 11696 0c25 55       		.byte	0x55
 11697 0c26 72000000 		.4byte	.LVL246
 11698 0c2a 88000000 		.4byte	.LVL248
 11699 0c2e 0100     		.2byte	0x1
 11700 0c30 51       		.byte	0x51
 11701 0c31 88000000 		.4byte	.LVL248
 11702 0c35 AE000000 		.4byte	.LVL257
 11703 0c39 0100     		.2byte	0x1
 11704 0c3b 55       		.byte	0x55
 11705 0c3c AE000000 		.4byte	.LVL257
 11706 0c40 BA000000 		.4byte	.LVL258
 11707 0c44 0100     		.2byte	0x1
 11708 0c46 51       		.byte	0x51
 11709 0c47 BA000000 		.4byte	.LVL258
 11710 0c4b 8E010000 		.4byte	.LVL296
 11711 0c4f 0100     		.2byte	0x1
 11712 0c51 55       		.byte	0x55
 11713 0c52 8E010000 		.4byte	.LVL296
 11714 0c56 9E010000 		.4byte	.LVL298
 11715 0c5a 0300     		.2byte	0x3
 11716 0c5c 75       		.byte	0x75
 11717 0c5d 7D       		.sleb128 -3
 11718 0c5e 9F       		.byte	0x9f
ARM GAS  /tmp/ccUc3O3E.s 			page 207


 11719 0c5f 9E010000 		.4byte	.LVL298
 11720 0c63 AE010000 		.4byte	.LFE50
 11721 0c67 0100     		.2byte	0x1
 11722 0c69 55       		.byte	0x55
 11723 0c6a 00000000 		.4byte	0
 11724 0c6e 00000000 		.4byte	0
 11725              	.LLST160:
 11726 0c72 00000000 		.4byte	.LVL228
 11727 0c76 22000000 		.4byte	.LVL232
 11728 0c7a 0200     		.2byte	0x2
 11729 0c7c 30       		.byte	0x30
 11730 0c7d 9F       		.byte	0x9f
 11731 0c7e 22000000 		.4byte	.LVL232
 11732 0c82 AE010000 		.4byte	.LFE50
 11733 0c86 0100     		.2byte	0x1
 11734 0c88 58       		.byte	0x58
 11735 0c89 00000000 		.4byte	0
 11736 0c8d 00000000 		.4byte	0
 11737              	.LLST161:
 11738 0c91 00000000 		.4byte	.LVL228
 11739 0c95 84000000 		.4byte	.LVL247
 11740 0c99 0200     		.2byte	0x2
 11741 0c9b 30       		.byte	0x30
 11742 0c9c 9F       		.byte	0x9f
 11743 0c9d 84000000 		.4byte	.LVL247
 11744 0ca1 AE000000 		.4byte	.LVL257
 11745 0ca5 0100     		.2byte	0x1
 11746 0ca7 59       		.byte	0x59
 11747 0ca8 AE000000 		.4byte	.LVL257
 11748 0cac 6C010000 		.4byte	.LVL291
 11749 0cb0 0200     		.2byte	0x2
 11750 0cb2 30       		.byte	0x30
 11751 0cb3 9F       		.byte	0x9f
 11752 0cb4 6C010000 		.4byte	.LVL291
 11753 0cb8 7E010000 		.4byte	.LVL294
 11754 0cbc 0200     		.2byte	0x2
 11755 0cbe 31       		.byte	0x31
 11756 0cbf 9F       		.byte	0x9f
 11757 0cc0 7E010000 		.4byte	.LVL294
 11758 0cc4 9E010000 		.4byte	.LVL298
 11759 0cc8 0100     		.2byte	0x1
 11760 0cca 59       		.byte	0x59
 11761 0ccb 9E010000 		.4byte	.LVL298
 11762 0ccf A4010000 		.4byte	.LVL299
 11763 0cd3 0200     		.2byte	0x2
 11764 0cd5 30       		.byte	0x30
 11765 0cd6 9F       		.byte	0x9f
 11766 0cd7 A4010000 		.4byte	.LVL299
 11767 0cdb AE010000 		.4byte	.LFE50
 11768 0cdf 0200     		.2byte	0x2
 11769 0ce1 31       		.byte	0x31
 11770 0ce2 9F       		.byte	0x9f
 11771 0ce3 00000000 		.4byte	0
 11772 0ce7 00000000 		.4byte	0
 11773              	.LLST182:
 11774 0ceb D6000000 		.4byte	.LVL264
 11775 0cef DC000000 		.4byte	.LVL266
ARM GAS  /tmp/ccUc3O3E.s 			page 208


 11776 0cf3 0100     		.2byte	0x1
 11777 0cf5 50       		.byte	0x50
 11778 0cf6 52010000 		.4byte	.LVL286
 11779 0cfa 54010000 		.4byte	.LVL287
 11780 0cfe 0100     		.2byte	0x1
 11781 0d00 50       		.byte	0x50
 11782 0d01 5E010000 		.4byte	.LVL289
 11783 0d05 60010000 		.4byte	.LVL290
 11784 0d09 0100     		.2byte	0x1
 11785 0d0b 50       		.byte	0x50
 11786 0d0c 00000000 		.4byte	0
 11787 0d10 00000000 		.4byte	0
 11788              	.LLST183:
 11789 0d14 C0000000 		.4byte	.LVL260
 11790 0d18 C8000000 		.4byte	.LVL261
 11791 0d1c 0100     		.2byte	0x1
 11792 0d1e 55       		.byte	0x55
 11793 0d1f 00000000 		.4byte	0
 11794 0d23 00000000 		.4byte	0
 11795              	.LLST184:
 11796 0d27 C0000000 		.4byte	.LVL260
 11797 0d2b C8000000 		.4byte	.LVL261
 11798 0d2f 0100     		.2byte	0x1
 11799 0d31 54       		.byte	0x54
 11800 0d32 00000000 		.4byte	0
 11801 0d36 00000000 		.4byte	0
 11802              	.LLST185:
 11803 0d3a CC000000 		.4byte	.LVL262
 11804 0d3e D4000000 		.4byte	.LVL263
 11805 0d42 0100     		.2byte	0x1
 11806 0d44 55       		.byte	0x55
 11807 0d45 00000000 		.4byte	0
 11808 0d49 00000000 		.4byte	0
 11809              	.LLST186:
 11810 0d4d CC000000 		.4byte	.LVL262
 11811 0d51 D4000000 		.4byte	.LVL263
 11812 0d55 0100     		.2byte	0x1
 11813 0d57 54       		.byte	0x54
 11814 0d58 00000000 		.4byte	0
 11815 0d5c 00000000 		.4byte	0
 11816              	.LLST187:
 11817 0d60 24010000 		.4byte	.LVL278
 11818 0d64 2C010000 		.4byte	.LVL279
 11819 0d68 0100     		.2byte	0x1
 11820 0d6a 55       		.byte	0x55
 11821 0d6b 00000000 		.4byte	0
 11822 0d6f 00000000 		.4byte	0
 11823              	.LLST188:
 11824 0d73 24010000 		.4byte	.LVL278
 11825 0d77 2C010000 		.4byte	.LVL279
 11826 0d7b 0100     		.2byte	0x1
 11827 0d7d 54       		.byte	0x54
 11828 0d7e 00000000 		.4byte	0
 11829 0d82 00000000 		.4byte	0
 11830              	.LLST189:
 11831 0d86 30010000 		.4byte	.LVL280
 11832 0d8a 38010000 		.4byte	.LVL281
ARM GAS  /tmp/ccUc3O3E.s 			page 209


 11833 0d8e 0100     		.2byte	0x1
 11834 0d90 55       		.byte	0x55
 11835 0d91 00000000 		.4byte	0
 11836 0d95 00000000 		.4byte	0
 11837              	.LLST190:
 11838 0d99 30010000 		.4byte	.LVL280
 11839 0d9d 38010000 		.4byte	.LVL281
 11840 0da1 0100     		.2byte	0x1
 11841 0da3 54       		.byte	0x54
 11842 0da4 00000000 		.4byte	0
 11843 0da8 00000000 		.4byte	0
 11844              	.LLST191:
 11845 0dac 3C010000 		.4byte	.LVL282
 11846 0db0 44010000 		.4byte	.LVL283
 11847 0db4 0100     		.2byte	0x1
 11848 0db6 55       		.byte	0x55
 11849 0db7 00000000 		.4byte	0
 11850 0dbb 00000000 		.4byte	0
 11851              	.LLST192:
 11852 0dbf 3C010000 		.4byte	.LVL282
 11853 0dc3 44010000 		.4byte	.LVL283
 11854 0dc7 0100     		.2byte	0x1
 11855 0dc9 54       		.byte	0x54
 11856 0dca 00000000 		.4byte	0
 11857 0dce 00000000 		.4byte	0
 11858              	.LLST193:
 11859 0dd2 48010000 		.4byte	.LVL284
 11860 0dd6 50010000 		.4byte	.LVL285
 11861 0dda 0100     		.2byte	0x1
 11862 0ddc 55       		.byte	0x55
 11863 0ddd 00000000 		.4byte	0
 11864 0de1 00000000 		.4byte	0
 11865              	.LLST194:
 11866 0de5 48010000 		.4byte	.LVL284
 11867 0de9 50010000 		.4byte	.LVL285
 11868 0ded 0100     		.2byte	0x1
 11869 0def 54       		.byte	0x54
 11870 0df0 00000000 		.4byte	0
 11871 0df4 00000000 		.4byte	0
 11872              	.LLST195:
 11873 0df8 54010000 		.4byte	.LVL287
 11874 0dfc 5C010000 		.4byte	.LVL288
 11875 0e00 0100     		.2byte	0x1
 11876 0e02 55       		.byte	0x55
 11877 0e03 00000000 		.4byte	0
 11878 0e07 00000000 		.4byte	0
 11879              	.LLST196:
 11880 0e0b 54010000 		.4byte	.LVL287
 11881 0e0f 5C010000 		.4byte	.LVL288
 11882 0e13 0100     		.2byte	0x1
 11883 0e15 54       		.byte	0x54
 11884 0e16 00000000 		.4byte	0
 11885 0e1a 00000000 		.4byte	0
 11886              	.LLST162:
 11887 0e1e 0C000000 		.4byte	.LVL230
 11888 0e22 0E000000 		.4byte	.LVL231
 11889 0e26 0200     		.2byte	0x2
ARM GAS  /tmp/ccUc3O3E.s 			page 210


 11890 0e28 30       		.byte	0x30
 11891 0e29 9F       		.byte	0x9f
 11892 0e2a 00000000 		.4byte	0
 11893 0e2e 00000000 		.4byte	0
 11894              	.LLST163:
 11895 0e32 0C000000 		.4byte	.LVL230
 11896 0e36 0D000000 		.4byte	.LVL231-1
 11897 0e3a 0100     		.2byte	0x1
 11898 0e3c 50       		.byte	0x50
 11899 0e3d 0D000000 		.4byte	.LVL231-1
 11900 0e41 0E000000 		.4byte	.LVL231
 11901 0e45 0100     		.2byte	0x1
 11902 0e47 54       		.byte	0x54
 11903 0e48 00000000 		.4byte	0
 11904 0e4c 00000000 		.4byte	0
 11905              	.LLST164:
 11906 0e50 22000000 		.4byte	.LVL232
 11907 0e54 24000000 		.4byte	.LVL233
 11908 0e58 0200     		.2byte	0x2
 11909 0e5a 30       		.byte	0x30
 11910 0e5b 9F       		.byte	0x9f
 11911 0e5c 00000000 		.4byte	0
 11912 0e60 00000000 		.4byte	0
 11913              	.LLST165:
 11914 0e64 22000000 		.4byte	.LVL232
 11915 0e68 24000000 		.4byte	.LVL233
 11916 0e6c 0100     		.2byte	0x1
 11917 0e6e 54       		.byte	0x54
 11918 0e6f 00000000 		.4byte	0
 11919 0e73 00000000 		.4byte	0
 11920              	.LLST166:
 11921 0e77 2A000000 		.4byte	.LVL234
 11922 0e7b 32000000 		.4byte	.LVL235
 11923 0e7f 0200     		.2byte	0x2
 11924 0e81 31       		.byte	0x31
 11925 0e82 9F       		.byte	0x9f
 11926 0e83 00000000 		.4byte	0
 11927 0e87 00000000 		.4byte	0
 11928              	.LLST167:
 11929 0e8b 2A000000 		.4byte	.LVL234
 11930 0e8f 32000000 		.4byte	.LVL235
 11931 0e93 0100     		.2byte	0x1
 11932 0e95 54       		.byte	0x54
 11933 0e96 00000000 		.4byte	0
 11934 0e9a 00000000 		.4byte	0
 11935              	.LLST168:
 11936 0e9e 36000000 		.4byte	.LVL236
 11937 0ea2 3E000000 		.4byte	.LVL237
 11938 0ea6 0200     		.2byte	0x2
 11939 0ea8 31       		.byte	0x31
 11940 0ea9 9F       		.byte	0x9f
 11941 0eaa 00000000 		.4byte	0
 11942 0eae 00000000 		.4byte	0
 11943              	.LLST169:
 11944 0eb2 36000000 		.4byte	.LVL236
 11945 0eb6 3E000000 		.4byte	.LVL237
 11946 0eba 0100     		.2byte	0x1
ARM GAS  /tmp/ccUc3O3E.s 			page 211


 11947 0ebc 54       		.byte	0x54
 11948 0ebd 00000000 		.4byte	0
 11949 0ec1 00000000 		.4byte	0
 11950              	.LLST170:
 11951 0ec5 46000000 		.4byte	.LVL238
 11952 0ec9 49000000 		.4byte	.LVL239-1
 11953 0ecd 0100     		.2byte	0x1
 11954 0ecf 51       		.byte	0x51
 11955 0ed0 49000000 		.4byte	.LVL239-1
 11956 0ed4 4A000000 		.4byte	.LVL239
 11957 0ed8 0100     		.2byte	0x1
 11958 0eda 55       		.byte	0x55
 11959 0edb 6A000000 		.4byte	.LVL245
 11960 0edf 72000000 		.4byte	.LVL246
 11961 0ee3 0100     		.2byte	0x1
 11962 0ee5 55       		.byte	0x55
 11963 0ee6 00000000 		.4byte	0
 11964 0eea 00000000 		.4byte	0
 11965              	.LLST171:
 11966 0eee 46000000 		.4byte	.LVL238
 11967 0ef2 49000000 		.4byte	.LVL239-1
 11968 0ef6 0100     		.2byte	0x1
 11969 0ef8 50       		.byte	0x50
 11970 0ef9 49000000 		.4byte	.LVL239-1
 11971 0efd 4A000000 		.4byte	.LVL239
 11972 0f01 0100     		.2byte	0x1
 11973 0f03 54       		.byte	0x54
 11974 0f04 6A000000 		.4byte	.LVL245
 11975 0f08 72000000 		.4byte	.LVL246
 11976 0f0c 0100     		.2byte	0x1
 11977 0f0e 54       		.byte	0x54
 11978 0f0f 00000000 		.4byte	0
 11979 0f13 00000000 		.4byte	0
 11980              	.LLST172:
 11981 0f17 4A000000 		.4byte	.LVL239
 11982 0f1b 52000000 		.4byte	.LVL240
 11983 0f1f 0100     		.2byte	0x1
 11984 0f21 55       		.byte	0x55
 11985 0f22 52000000 		.4byte	.LVL240
 11986 0f26 55000000 		.4byte	.LVL241-1
 11987 0f2a 0100     		.2byte	0x1
 11988 0f2c 51       		.byte	0x51
 11989 0f2d 55000000 		.4byte	.LVL241-1
 11990 0f31 56000000 		.4byte	.LVL241
 11991 0f35 0100     		.2byte	0x1
 11992 0f37 55       		.byte	0x55
 11993 0f38 00000000 		.4byte	0
 11994 0f3c 00000000 		.4byte	0
 11995              	.LLST173:
 11996 0f40 4A000000 		.4byte	.LVL239
 11997 0f44 52000000 		.4byte	.LVL240
 11998 0f48 0100     		.2byte	0x1
 11999 0f4a 54       		.byte	0x54
 12000 0f4b 52000000 		.4byte	.LVL240
 12001 0f4f 55000000 		.4byte	.LVL241-1
 12002 0f53 0100     		.2byte	0x1
 12003 0f55 50       		.byte	0x50
ARM GAS  /tmp/ccUc3O3E.s 			page 212


 12004 0f56 55000000 		.4byte	.LVL241-1
 12005 0f5a 56000000 		.4byte	.LVL241
 12006 0f5e 0100     		.2byte	0x1
 12007 0f60 54       		.byte	0x54
 12008 0f61 00000000 		.4byte	0
 12009 0f65 00000000 		.4byte	0
 12010              	.LLST174:
 12011 0f69 62000000 		.4byte	.LVL244
 12012 0f6d 6A000000 		.4byte	.LVL245
 12013 0f71 0100     		.2byte	0x1
 12014 0f73 55       		.byte	0x55
 12015 0f74 00000000 		.4byte	0
 12016 0f78 00000000 		.4byte	0
 12017              	.LLST175:
 12018 0f7c 62000000 		.4byte	.LVL244
 12019 0f80 6A000000 		.4byte	.LVL245
 12020 0f84 0100     		.2byte	0x1
 12021 0f86 54       		.byte	0x54
 12022 0f87 00000000 		.4byte	0
 12023 0f8b 00000000 		.4byte	0
 12024              	.LLST176:
 12025 0f8f 84000000 		.4byte	.LVL247
 12026 0f93 8B000000 		.4byte	.LVL250-1
 12027 0f97 0100     		.2byte	0x1
 12028 0f99 51       		.byte	0x51
 12029 0f9a 8B000000 		.4byte	.LVL250-1
 12030 0f9e 8C000000 		.4byte	.LVL250
 12031 0fa2 0100     		.2byte	0x1
 12032 0fa4 55       		.byte	0x55
 12033 0fa5 00000000 		.4byte	0
 12034 0fa9 00000000 		.4byte	0
 12035              	.LLST177:
 12036 0fad 84000000 		.4byte	.LVL247
 12037 0fb1 8B000000 		.4byte	.LVL250-1
 12038 0fb5 0100     		.2byte	0x1
 12039 0fb7 50       		.byte	0x50
 12040 0fb8 8B000000 		.4byte	.LVL250-1
 12041 0fbc 8C000000 		.4byte	.LVL250
 12042 0fc0 0100     		.2byte	0x1
 12043 0fc2 54       		.byte	0x54
 12044 0fc3 00000000 		.4byte	0
 12045 0fc7 00000000 		.4byte	0
 12046              	.LLST178:
 12047 0fcb 90000000 		.4byte	.LVL251
 12048 0fcf 94000000 		.4byte	.LVL252
 12049 0fd3 0300     		.2byte	0x3
 12050 0fd5 75       		.byte	0x75
 12051 0fd6 01       		.sleb128 1
 12052 0fd7 9F       		.byte	0x9f
 12053 0fd8 94000000 		.4byte	.LVL252
 12054 0fdc 97000000 		.4byte	.LVL253-1
 12055 0fe0 0100     		.2byte	0x1
 12056 0fe2 51       		.byte	0x51
 12057 0fe3 97000000 		.4byte	.LVL253-1
 12058 0fe7 98000000 		.4byte	.LVL253
 12059 0feb 0300     		.2byte	0x3
 12060 0fed 75       		.byte	0x75
ARM GAS  /tmp/ccUc3O3E.s 			page 213


 12061 0fee 01       		.sleb128 1
 12062 0fef 9F       		.byte	0x9f
 12063 0ff0 00000000 		.4byte	0
 12064 0ff4 00000000 		.4byte	0
 12065              	.LLST179:
 12066 0ff8 90000000 		.4byte	.LVL251
 12067 0ffc 98000000 		.4byte	.LVL253
 12068 1000 0100     		.2byte	0x1
 12069 1002 54       		.byte	0x54
 12070 1003 00000000 		.4byte	0
 12071 1007 00000000 		.4byte	0
 12072              	.LLST180:
 12073 100b 9C000000 		.4byte	.LVL254
 12074 100f A0000000 		.4byte	.LVL255
 12075 1013 0300     		.2byte	0x3
 12076 1015 75       		.byte	0x75
 12077 1016 02       		.sleb128 2
 12078 1017 9F       		.byte	0x9f
 12079 1018 A0000000 		.4byte	.LVL255
 12080 101c A3000000 		.4byte	.LVL256-1
 12081 1020 0100     		.2byte	0x1
 12082 1022 51       		.byte	0x51
 12083 1023 A3000000 		.4byte	.LVL256-1
 12084 1027 A4000000 		.4byte	.LVL256
 12085 102b 0300     		.2byte	0x3
 12086 102d 75       		.byte	0x75
 12087 102e 02       		.sleb128 2
 12088 102f 9F       		.byte	0x9f
 12089 1030 00000000 		.4byte	0
 12090 1034 00000000 		.4byte	0
 12091              	.LLST181:
 12092 1038 9C000000 		.4byte	.LVL254
 12093 103c A4000000 		.4byte	.LVL256
 12094 1040 0100     		.2byte	0x1
 12095 1042 54       		.byte	0x54
 12096 1043 00000000 		.4byte	0
 12097 1047 00000000 		.4byte	0
 12098              	.LLST197:
 12099 104b DC000000 		.4byte	.LVL266
 12100 104f E4000000 		.4byte	.LVL267
 12101 1053 0100     		.2byte	0x1
 12102 1055 55       		.byte	0x55
 12103 1056 00000000 		.4byte	0
 12104 105a 00000000 		.4byte	0
 12105              	.LLST198:
 12106 105e DC000000 		.4byte	.LVL266
 12107 1062 E4000000 		.4byte	.LVL267
 12108 1066 0100     		.2byte	0x1
 12109 1068 54       		.byte	0x54
 12110 1069 00000000 		.4byte	0
 12111 106d 00000000 		.4byte	0
 12112              	.LLST199:
 12113 1071 E8000000 		.4byte	.LVL268
 12114 1075 F0000000 		.4byte	.LVL269
 12115 1079 0100     		.2byte	0x1
 12116 107b 55       		.byte	0x55
 12117 107c 00000000 		.4byte	0
ARM GAS  /tmp/ccUc3O3E.s 			page 214


 12118 1080 00000000 		.4byte	0
 12119              	.LLST200:
 12120 1084 E8000000 		.4byte	.LVL268
 12121 1088 F0000000 		.4byte	.LVL269
 12122 108c 0100     		.2byte	0x1
 12123 108e 54       		.byte	0x54
 12124 108f 00000000 		.4byte	0
 12125 1093 00000000 		.4byte	0
 12126              	.LLST201:
 12127 1097 F4000000 		.4byte	.LVL270
 12128 109b FC000000 		.4byte	.LVL271
 12129 109f 0100     		.2byte	0x1
 12130 10a1 55       		.byte	0x55
 12131 10a2 00000000 		.4byte	0
 12132 10a6 00000000 		.4byte	0
 12133              	.LLST202:
 12134 10aa F4000000 		.4byte	.LVL270
 12135 10ae FC000000 		.4byte	.LVL271
 12136 10b2 0100     		.2byte	0x1
 12137 10b4 54       		.byte	0x54
 12138 10b5 00000000 		.4byte	0
 12139 10b9 00000000 		.4byte	0
 12140              	.LLST203:
 12141 10bd 00010000 		.4byte	.LVL272
 12142 10c1 08010000 		.4byte	.LVL273
 12143 10c5 0100     		.2byte	0x1
 12144 10c7 55       		.byte	0x55
 12145 10c8 00000000 		.4byte	0
 12146 10cc 00000000 		.4byte	0
 12147              	.LLST204:
 12148 10d0 00010000 		.4byte	.LVL272
 12149 10d4 08010000 		.4byte	.LVL273
 12150 10d8 0100     		.2byte	0x1
 12151 10da 54       		.byte	0x54
 12152 10db 00000000 		.4byte	0
 12153 10df 00000000 		.4byte	0
 12154              	.LLST205:
 12155 10e3 0C010000 		.4byte	.LVL274
 12156 10e7 14010000 		.4byte	.LVL275
 12157 10eb 0100     		.2byte	0x1
 12158 10ed 55       		.byte	0x55
 12159 10ee 00000000 		.4byte	0
 12160 10f2 00000000 		.4byte	0
 12161              	.LLST206:
 12162 10f6 0C010000 		.4byte	.LVL274
 12163 10fa 14010000 		.4byte	.LVL275
 12164 10fe 0100     		.2byte	0x1
 12165 1100 54       		.byte	0x54
 12166 1101 00000000 		.4byte	0
 12167 1105 00000000 		.4byte	0
 12168              	.LLST207:
 12169 1109 18010000 		.4byte	.LVL276
 12170 110d 20010000 		.4byte	.LVL277
 12171 1111 0100     		.2byte	0x1
 12172 1113 55       		.byte	0x55
 12173 1114 00000000 		.4byte	0
 12174 1118 00000000 		.4byte	0
ARM GAS  /tmp/ccUc3O3E.s 			page 215


 12175              	.LLST208:
 12176 111c 18010000 		.4byte	.LVL276
 12177 1120 20010000 		.4byte	.LVL277
 12178 1124 0100     		.2byte	0x1
 12179 1126 54       		.byte	0x54
 12180 1127 00000000 		.4byte	0
 12181 112b 00000000 		.4byte	0
 12182              	.LLST209:
 12183 112f 6C010000 		.4byte	.LVL291
 12184 1133 76010000 		.4byte	.LVL293
 12185 1137 0100     		.2byte	0x1
 12186 1139 55       		.byte	0x55
 12187 113a A4010000 		.4byte	.LVL299
 12188 113e AC010000 		.4byte	.LVL300
 12189 1142 0100     		.2byte	0x1
 12190 1144 55       		.byte	0x55
 12191 1145 00000000 		.4byte	0
 12192 1149 00000000 		.4byte	0
 12193              	.LLST210:
 12194 114d 6C010000 		.4byte	.LVL291
 12195 1151 76010000 		.4byte	.LVL293
 12196 1155 0100     		.2byte	0x1
 12197 1157 54       		.byte	0x54
 12198 1158 A4010000 		.4byte	.LVL299
 12199 115c AC010000 		.4byte	.LVL300
 12200 1160 0100     		.2byte	0x1
 12201 1162 54       		.byte	0x54
 12202 1163 00000000 		.4byte	0
 12203 1167 00000000 		.4byte	0
 12204              	.LLST211:
 12205 116b 8E010000 		.4byte	.LVL296
 12206 116f 98010000 		.4byte	.LVL297
 12207 1173 0100     		.2byte	0x1
 12208 1175 55       		.byte	0x55
 12209 1176 00000000 		.4byte	0
 12210 117a 00000000 		.4byte	0
 12211              	.LLST212:
 12212 117e 8E010000 		.4byte	.LVL296
 12213 1182 98010000 		.4byte	.LVL297
 12214 1186 0100     		.2byte	0x1
 12215 1188 54       		.byte	0x54
 12216 1189 00000000 		.4byte	0
 12217 118d 00000000 		.4byte	0
 12218              	.LLST134:
 12219 1191 00000000 		.4byte	.LVL199
 12220 1195 0D000000 		.4byte	.LVL202-1
 12221 1199 0100     		.2byte	0x1
 12222 119b 50       		.byte	0x50
 12223 119c 0D000000 		.4byte	.LVL202-1
 12224 11a0 1C000000 		.4byte	.LVL203
 12225 11a4 0100     		.2byte	0x1
 12226 11a6 54       		.byte	0x54
 12227 11a7 1C000000 		.4byte	.LVL203
 12228 11ab 1F000000 		.4byte	.LVL204-1
 12229 11af 0100     		.2byte	0x1
 12230 11b1 50       		.byte	0x50
 12231 11b2 1F000000 		.4byte	.LVL204-1
ARM GAS  /tmp/ccUc3O3E.s 			page 216


 12232 11b6 28000000 		.4byte	.LVL205
 12233 11ba 0100     		.2byte	0x1
 12234 11bc 54       		.byte	0x54
 12235 11bd 28000000 		.4byte	.LVL205
 12236 11c1 2B000000 		.4byte	.LVL206-1
 12237 11c5 0100     		.2byte	0x1
 12238 11c7 50       		.byte	0x50
 12239 11c8 2B000000 		.4byte	.LVL206-1
 12240 11cc 48000000 		.4byte	.LVL211
 12241 11d0 0100     		.2byte	0x1
 12242 11d2 54       		.byte	0x54
 12243 11d3 48000000 		.4byte	.LVL211
 12244 11d7 5E000000 		.4byte	.LVL214
 12245 11db 0100     		.2byte	0x1
 12246 11dd 50       		.byte	0x50
 12247 11de 5E000000 		.4byte	.LVL214
 12248 11e2 82000000 		.4byte	.LVL222
 12249 11e6 0100     		.2byte	0x1
 12250 11e8 54       		.byte	0x54
 12251 11e9 82000000 		.4byte	.LVL222
 12252 11ed 90000000 		.4byte	.LVL223
 12253 11f1 0100     		.2byte	0x1
 12254 11f3 50       		.byte	0x50
 12255 11f4 90000000 		.4byte	.LVL223
 12256 11f8 B8000000 		.4byte	.LFE49
 12257 11fc 0100     		.2byte	0x1
 12258 11fe 54       		.byte	0x54
 12259 11ff 00000000 		.4byte	0
 12260 1203 00000000 		.4byte	0
 12261              	.LLST135:
 12262 1207 00000000 		.4byte	.LVL199
 12263 120b 0A000000 		.4byte	.LVL200
 12264 120f 0100     		.2byte	0x1
 12265 1211 51       		.byte	0x51
 12266 1212 0A000000 		.4byte	.LVL200
 12267 1216 B8000000 		.4byte	.LFE49
 12268 121a 0100     		.2byte	0x1
 12269 121c 57       		.byte	0x57
 12270 121d 00000000 		.4byte	0
 12271 1221 00000000 		.4byte	0
 12272              	.LLST136:
 12273 1225 00000000 		.4byte	.LVL199
 12274 1229 1C000000 		.4byte	.LVL203
 12275 122d 0200     		.2byte	0x2
 12276 122f 30       		.byte	0x30
 12277 1230 9F       		.byte	0x9f
 12278 1231 1C000000 		.4byte	.LVL203
 12279 1235 30000000 		.4byte	.LVL207
 12280 1239 0100     		.2byte	0x1
 12281 123b 55       		.byte	0x55
 12282 123c 38000000 		.4byte	.LVL209
 12283 1240 9E000000 		.4byte	.LVL224
 12284 1244 0100     		.2byte	0x1
 12285 1246 55       		.byte	0x55
 12286 1247 B0000000 		.4byte	.LVL227
 12287 124b B8000000 		.4byte	.LFE49
 12288 124f 0200     		.2byte	0x2
ARM GAS  /tmp/ccUc3O3E.s 			page 217


 12289 1251 30       		.byte	0x30
 12290 1252 9F       		.byte	0x9f
 12291 1253 00000000 		.4byte	0
 12292 1257 00000000 		.4byte	0
 12293              	.LLST137:
 12294 125b 00000000 		.4byte	.LVL199
 12295 125f 1C000000 		.4byte	.LVL203
 12296 1263 0200     		.2byte	0x2
 12297 1265 30       		.byte	0x30
 12298 1266 9F       		.byte	0x9f
 12299 1267 1C000000 		.4byte	.LVL203
 12300 126b 1F000000 		.4byte	.LVL204-1
 12301 126f 0100     		.2byte	0x1
 12302 1271 51       		.byte	0x51
 12303 1272 1F000000 		.4byte	.LVL204-1
 12304 1276 28000000 		.4byte	.LVL205
 12305 127a 0100     		.2byte	0x1
 12306 127c 56       		.byte	0x56
 12307 127d 28000000 		.4byte	.LVL205
 12308 1281 2B000000 		.4byte	.LVL206-1
 12309 1285 0100     		.2byte	0x1
 12310 1287 51       		.byte	0x51
 12311 1288 2B000000 		.4byte	.LVL206-1
 12312 128c 36000000 		.4byte	.LVL208
 12313 1290 0100     		.2byte	0x1
 12314 1292 56       		.byte	0x56
 12315 1293 36000000 		.4byte	.LVL208
 12316 1297 38000000 		.4byte	.LVL209
 12317 129b 0300     		.2byte	0x3
 12318 129d 76       		.byte	0x76
 12319 129e 7F       		.sleb128 -1
 12320 129f 9F       		.byte	0x9f
 12321 12a0 38000000 		.4byte	.LVL209
 12322 12a4 58000000 		.4byte	.LVL212
 12323 12a8 0100     		.2byte	0x1
 12324 12aa 56       		.byte	0x56
 12325 12ab 58000000 		.4byte	.LVL212
 12326 12af 5C000000 		.4byte	.LVL213
 12327 12b3 0100     		.2byte	0x1
 12328 12b5 51       		.byte	0x51
 12329 12b6 5C000000 		.4byte	.LVL213
 12330 12ba 82000000 		.4byte	.LVL222
 12331 12be 0100     		.2byte	0x1
 12332 12c0 56       		.byte	0x56
 12333 12c1 82000000 		.4byte	.LVL222
 12334 12c5 90000000 		.4byte	.LVL223
 12335 12c9 0100     		.2byte	0x1
 12336 12cb 51       		.byte	0x51
 12337 12cc 90000000 		.4byte	.LVL223
 12338 12d0 A0000000 		.4byte	.LVL225
 12339 12d4 0100     		.2byte	0x1
 12340 12d6 56       		.byte	0x56
 12341 12d7 A0000000 		.4byte	.LVL225
 12342 12db B0000000 		.4byte	.LVL227
 12343 12df 0300     		.2byte	0x3
 12344 12e1 76       		.byte	0x76
 12345 12e2 7D       		.sleb128 -3
ARM GAS  /tmp/ccUc3O3E.s 			page 218


 12346 12e3 9F       		.byte	0x9f
 12347 12e4 B0000000 		.4byte	.LVL227
 12348 12e8 B8000000 		.4byte	.LFE49
 12349 12ec 0200     		.2byte	0x2
 12350 12ee 30       		.byte	0x30
 12351 12ef 9F       		.byte	0x9f
 12352 12f0 00000000 		.4byte	0
 12353 12f4 00000000 		.4byte	0
 12354              	.LLST138:
 12355 12f8 00000000 		.4byte	.LVL199
 12356 12fc 1C000000 		.4byte	.LVL203
 12357 1300 0200     		.2byte	0x2
 12358 1302 30       		.byte	0x30
 12359 1303 9F       		.byte	0x9f
 12360 1304 B0000000 		.4byte	.LVL227
 12361 1308 B8000000 		.4byte	.LFE49
 12362 130c 0200     		.2byte	0x2
 12363 130e 30       		.byte	0x30
 12364 130f 9F       		.byte	0x9f
 12365 1310 00000000 		.4byte	0
 12366 1314 00000000 		.4byte	0
 12367              	.LLST139:
 12368 1318 00000000 		.4byte	.LVL199
 12369 131c 58000000 		.4byte	.LVL212
 12370 1320 0200     		.2byte	0x2
 12371 1322 30       		.byte	0x30
 12372 1323 9F       		.byte	0x9f
 12373 1324 58000000 		.4byte	.LVL212
 12374 1328 82000000 		.4byte	.LVL222
 12375 132c 0100     		.2byte	0x1
 12376 132e 59       		.byte	0x59
 12377 132f 82000000 		.4byte	.LVL222
 12378 1333 90000000 		.4byte	.LVL223
 12379 1337 0200     		.2byte	0x2
 12380 1339 30       		.byte	0x30
 12381 133a 9F       		.byte	0x9f
 12382 133b 90000000 		.4byte	.LVL223
 12383 133f B0000000 		.4byte	.LVL227
 12384 1343 0100     		.2byte	0x1
 12385 1345 59       		.byte	0x59
 12386 1346 B0000000 		.4byte	.LVL227
 12387 134a B8000000 		.4byte	.LFE49
 12388 134e 0200     		.2byte	0x2
 12389 1350 30       		.byte	0x30
 12390 1351 9F       		.byte	0x9f
 12391 1352 00000000 		.4byte	0
 12392 1356 00000000 		.4byte	0
 12393              	.LLST140:
 12394 135a 0C000000 		.4byte	.LVL201
 12395 135e 0E000000 		.4byte	.LVL202
 12396 1362 0200     		.2byte	0x2
 12397 1364 30       		.byte	0x30
 12398 1365 9F       		.byte	0x9f
 12399 1366 00000000 		.4byte	0
 12400 136a 00000000 		.4byte	0
 12401              	.LLST141:
 12402 136e 0C000000 		.4byte	.LVL201
ARM GAS  /tmp/ccUc3O3E.s 			page 219


 12403 1372 0D000000 		.4byte	.LVL202-1
 12404 1376 0100     		.2byte	0x1
 12405 1378 50       		.byte	0x50
 12406 1379 0D000000 		.4byte	.LVL202-1
 12407 137d 0E000000 		.4byte	.LVL202
 12408 1381 0100     		.2byte	0x1
 12409 1383 54       		.byte	0x54
 12410 1384 00000000 		.4byte	0
 12411 1388 00000000 		.4byte	0
 12412              	.LLST142:
 12413 138c 1C000000 		.4byte	.LVL203
 12414 1390 1F000000 		.4byte	.LVL204-1
 12415 1394 0100     		.2byte	0x1
 12416 1396 51       		.byte	0x51
 12417 1397 1F000000 		.4byte	.LVL204-1
 12418 139b 20000000 		.4byte	.LVL204
 12419 139f 0100     		.2byte	0x1
 12420 13a1 56       		.byte	0x56
 12421 13a2 40000000 		.4byte	.LVL210
 12422 13a6 48000000 		.4byte	.LVL211
 12423 13aa 0100     		.2byte	0x1
 12424 13ac 56       		.byte	0x56
 12425 13ad 00000000 		.4byte	0
 12426 13b1 00000000 		.4byte	0
 12427              	.LLST143:
 12428 13b5 1C000000 		.4byte	.LVL203
 12429 13b9 1F000000 		.4byte	.LVL204-1
 12430 13bd 0100     		.2byte	0x1
 12431 13bf 50       		.byte	0x50
 12432 13c0 1F000000 		.4byte	.LVL204-1
 12433 13c4 20000000 		.4byte	.LVL204
 12434 13c8 0100     		.2byte	0x1
 12435 13ca 54       		.byte	0x54
 12436 13cb 40000000 		.4byte	.LVL210
 12437 13cf 48000000 		.4byte	.LVL211
 12438 13d3 0100     		.2byte	0x1
 12439 13d5 54       		.byte	0x54
 12440 13d6 00000000 		.4byte	0
 12441 13da 00000000 		.4byte	0
 12442              	.LLST144:
 12443 13de 20000000 		.4byte	.LVL204
 12444 13e2 28000000 		.4byte	.LVL205
 12445 13e6 0100     		.2byte	0x1
 12446 13e8 56       		.byte	0x56
 12447 13e9 28000000 		.4byte	.LVL205
 12448 13ed 2B000000 		.4byte	.LVL206-1
 12449 13f1 0100     		.2byte	0x1
 12450 13f3 51       		.byte	0x51
 12451 13f4 2B000000 		.4byte	.LVL206-1
 12452 13f8 2C000000 		.4byte	.LVL206
 12453 13fc 0100     		.2byte	0x1
 12454 13fe 56       		.byte	0x56
 12455 13ff 00000000 		.4byte	0
 12456 1403 00000000 		.4byte	0
 12457              	.LLST145:
 12458 1407 20000000 		.4byte	.LVL204
 12459 140b 28000000 		.4byte	.LVL205
ARM GAS  /tmp/ccUc3O3E.s 			page 220


 12460 140f 0100     		.2byte	0x1
 12461 1411 54       		.byte	0x54
 12462 1412 28000000 		.4byte	.LVL205
 12463 1416 2B000000 		.4byte	.LVL206-1
 12464 141a 0100     		.2byte	0x1
 12465 141c 50       		.byte	0x50
 12466 141d 2B000000 		.4byte	.LVL206-1
 12467 1421 2C000000 		.4byte	.LVL206
 12468 1425 0100     		.2byte	0x1
 12469 1427 54       		.byte	0x54
 12470 1428 00000000 		.4byte	0
 12471 142c 00000000 		.4byte	0
 12472              	.LLST146:
 12473 1430 38000000 		.4byte	.LVL209
 12474 1434 40000000 		.4byte	.LVL210
 12475 1438 0100     		.2byte	0x1
 12476 143a 56       		.byte	0x56
 12477 143b 00000000 		.4byte	0
 12478 143f 00000000 		.4byte	0
 12479              	.LLST147:
 12480 1443 38000000 		.4byte	.LVL209
 12481 1447 40000000 		.4byte	.LVL210
 12482 144b 0100     		.2byte	0x1
 12483 144d 54       		.byte	0x54
 12484 144e 00000000 		.4byte	0
 12485 1452 00000000 		.4byte	0
 12486              	.LLST148:
 12487 1456 58000000 		.4byte	.LVL212
 12488 145a 5F000000 		.4byte	.LVL215-1
 12489 145e 0100     		.2byte	0x1
 12490 1460 51       		.byte	0x51
 12491 1461 5F000000 		.4byte	.LVL215-1
 12492 1465 60000000 		.4byte	.LVL215
 12493 1469 0100     		.2byte	0x1
 12494 146b 56       		.byte	0x56
 12495 146c 00000000 		.4byte	0
 12496 1470 00000000 		.4byte	0
 12497              	.LLST149:
 12498 1474 58000000 		.4byte	.LVL212
 12499 1478 5F000000 		.4byte	.LVL215-1
 12500 147c 0100     		.2byte	0x1
 12501 147e 50       		.byte	0x50
 12502 147f 5F000000 		.4byte	.LVL215-1
 12503 1483 60000000 		.4byte	.LVL215
 12504 1487 0100     		.2byte	0x1
 12505 1489 54       		.byte	0x54
 12506 148a 00000000 		.4byte	0
 12507 148e 00000000 		.4byte	0
 12508              	.LLST150:
 12509 1492 64000000 		.4byte	.LVL216
 12510 1496 68000000 		.4byte	.LVL217
 12511 149a 0300     		.2byte	0x3
 12512 149c 76       		.byte	0x76
 12513 149d 01       		.sleb128 1
 12514 149e 9F       		.byte	0x9f
 12515 149f 68000000 		.4byte	.LVL217
 12516 14a3 6B000000 		.4byte	.LVL218-1
ARM GAS  /tmp/ccUc3O3E.s 			page 221


 12517 14a7 0100     		.2byte	0x1
 12518 14a9 51       		.byte	0x51
 12519 14aa 6B000000 		.4byte	.LVL218-1
 12520 14ae 6C000000 		.4byte	.LVL218
 12521 14b2 0300     		.2byte	0x3
 12522 14b4 76       		.byte	0x76
 12523 14b5 01       		.sleb128 1
 12524 14b6 9F       		.byte	0x9f
 12525 14b7 00000000 		.4byte	0
 12526 14bb 00000000 		.4byte	0
 12527              	.LLST151:
 12528 14bf 64000000 		.4byte	.LVL216
 12529 14c3 6C000000 		.4byte	.LVL218
 12530 14c7 0100     		.2byte	0x1
 12531 14c9 54       		.byte	0x54
 12532 14ca 00000000 		.4byte	0
 12533 14ce 00000000 		.4byte	0
 12534              	.LLST152:
 12535 14d2 70000000 		.4byte	.LVL219
 12536 14d6 74000000 		.4byte	.LVL220
 12537 14da 0300     		.2byte	0x3
 12538 14dc 76       		.byte	0x76
 12539 14dd 02       		.sleb128 2
 12540 14de 9F       		.byte	0x9f
 12541 14df 74000000 		.4byte	.LVL220
 12542 14e3 77000000 		.4byte	.LVL221-1
 12543 14e7 0100     		.2byte	0x1
 12544 14e9 51       		.byte	0x51
 12545 14ea 77000000 		.4byte	.LVL221-1
 12546 14ee 78000000 		.4byte	.LVL221
 12547 14f2 0300     		.2byte	0x3
 12548 14f4 76       		.byte	0x76
 12549 14f5 02       		.sleb128 2
 12550 14f6 9F       		.byte	0x9f
 12551 14f7 00000000 		.4byte	0
 12552 14fb 00000000 		.4byte	0
 12553              	.LLST153:
 12554 14ff 70000000 		.4byte	.LVL219
 12555 1503 78000000 		.4byte	.LVL221
 12556 1507 0100     		.2byte	0x1
 12557 1509 54       		.byte	0x54
 12558 150a 00000000 		.4byte	0
 12559 150e 00000000 		.4byte	0
 12560              	.LLST154:
 12561 1512 A0000000 		.4byte	.LVL225
 12562 1516 AA000000 		.4byte	.LVL226
 12563 151a 0100     		.2byte	0x1
 12564 151c 56       		.byte	0x56
 12565 151d 00000000 		.4byte	0
 12566 1521 00000000 		.4byte	0
 12567              	.LLST155:
 12568 1525 A0000000 		.4byte	.LVL225
 12569 1529 AA000000 		.4byte	.LVL226
 12570 152d 0100     		.2byte	0x1
 12571 152f 54       		.byte	0x54
 12572 1530 00000000 		.4byte	0
 12573 1534 00000000 		.4byte	0
ARM GAS  /tmp/ccUc3O3E.s 			page 222


 12574              	.LLST112:
 12575 1538 00000000 		.4byte	.LVL170
 12576 153c 0D000000 		.4byte	.LVL173-1
 12577 1540 0100     		.2byte	0x1
 12578 1542 50       		.byte	0x50
 12579 1543 0D000000 		.4byte	.LVL173-1
 12580 1547 1C000000 		.4byte	.LVL174
 12581 154b 0100     		.2byte	0x1
 12582 154d 54       		.byte	0x54
 12583 154e 1C000000 		.4byte	.LVL174
 12584 1552 1F000000 		.4byte	.LVL175-1
 12585 1556 0100     		.2byte	0x1
 12586 1558 50       		.byte	0x50
 12587 1559 1F000000 		.4byte	.LVL175-1
 12588 155d 30000000 		.4byte	.LVL177
 12589 1561 0100     		.2byte	0x1
 12590 1563 54       		.byte	0x54
 12591 1564 30000000 		.4byte	.LVL177
 12592 1568 33000000 		.4byte	.LVL178-1
 12593 156c 0100     		.2byte	0x1
 12594 156e 50       		.byte	0x50
 12595 156f 33000000 		.4byte	.LVL178-1
 12596 1573 4A000000 		.4byte	.LVL182
 12597 1577 0100     		.2byte	0x1
 12598 1579 54       		.byte	0x54
 12599 157a 4A000000 		.4byte	.LVL182
 12600 157e 5C000000 		.4byte	.LVL185
 12601 1582 0100     		.2byte	0x1
 12602 1584 50       		.byte	0x50
 12603 1585 5C000000 		.4byte	.LVL185
 12604 1589 80000000 		.4byte	.LVL193
 12605 158d 0100     		.2byte	0x1
 12606 158f 54       		.byte	0x54
 12607 1590 80000000 		.4byte	.LVL193
 12608 1594 8A000000 		.4byte	.LVL194
 12609 1598 0100     		.2byte	0x1
 12610 159a 50       		.byte	0x50
 12611 159b 8A000000 		.4byte	.LVL194
 12612 159f B2000000 		.4byte	.LFE48
 12613 15a3 0100     		.2byte	0x1
 12614 15a5 54       		.byte	0x54
 12615 15a6 00000000 		.4byte	0
 12616 15aa 00000000 		.4byte	0
 12617              	.LLST113:
 12618 15ae 00000000 		.4byte	.LVL170
 12619 15b2 0A000000 		.4byte	.LVL171
 12620 15b6 0100     		.2byte	0x1
 12621 15b8 51       		.byte	0x51
 12622 15b9 0A000000 		.4byte	.LVL171
 12623 15bd B2000000 		.4byte	.LFE48
 12624 15c1 0100     		.2byte	0x1
 12625 15c3 58       		.byte	0x58
 12626 15c4 00000000 		.4byte	0
 12627 15c8 00000000 		.4byte	0
 12628              	.LLST114:
 12629 15cc 00000000 		.4byte	.LVL170
 12630 15d0 1C000000 		.4byte	.LVL174
ARM GAS  /tmp/ccUc3O3E.s 			page 223


 12631 15d4 0200     		.2byte	0x2
 12632 15d6 30       		.byte	0x30
 12633 15d7 9F       		.byte	0x9f
 12634 15d8 1C000000 		.4byte	.LVL174
 12635 15dc 96000000 		.4byte	.LVL195
 12636 15e0 0100     		.2byte	0x1
 12637 15e2 57       		.byte	0x57
 12638 15e3 AA000000 		.4byte	.LVL198
 12639 15e7 B2000000 		.4byte	.LFE48
 12640 15eb 0200     		.2byte	0x2
 12641 15ed 30       		.byte	0x30
 12642 15ee 9F       		.byte	0x9f
 12643 15ef 00000000 		.4byte	0
 12644 15f3 00000000 		.4byte	0
 12645              	.LLST115:
 12646 15f7 00000000 		.4byte	.LVL170
 12647 15fb 1C000000 		.4byte	.LVL174
 12648 15ff 0200     		.2byte	0x2
 12649 1601 30       		.byte	0x30
 12650 1602 9F       		.byte	0x9f
 12651 1603 1C000000 		.4byte	.LVL174
 12652 1607 1F000000 		.4byte	.LVL175-1
 12653 160b 0100     		.2byte	0x1
 12654 160d 51       		.byte	0x51
 12655 160e 1F000000 		.4byte	.LVL175-1
 12656 1612 30000000 		.4byte	.LVL177
 12657 1616 0100     		.2byte	0x1
 12658 1618 55       		.byte	0x55
 12659 1619 30000000 		.4byte	.LVL177
 12660 161d 33000000 		.4byte	.LVL178-1
 12661 1621 0100     		.2byte	0x1
 12662 1623 51       		.byte	0x51
 12663 1624 33000000 		.4byte	.LVL178-1
 12664 1628 38000000 		.4byte	.LVL179
 12665 162c 0100     		.2byte	0x1
 12666 162e 55       		.byte	0x55
 12667 162f 38000000 		.4byte	.LVL179
 12668 1633 3A000000 		.4byte	.LVL180
 12669 1637 0300     		.2byte	0x3
 12670 1639 75       		.byte	0x75
 12671 163a 7F       		.sleb128 -1
 12672 163b 9F       		.byte	0x9f
 12673 163c 3A000000 		.4byte	.LVL180
 12674 1640 56000000 		.4byte	.LVL183
 12675 1644 0100     		.2byte	0x1
 12676 1646 55       		.byte	0x55
 12677 1647 56000000 		.4byte	.LVL183
 12678 164b 5A000000 		.4byte	.LVL184
 12679 164f 0100     		.2byte	0x1
 12680 1651 51       		.byte	0x51
 12681 1652 5A000000 		.4byte	.LVL184
 12682 1656 80000000 		.4byte	.LVL193
 12683 165a 0100     		.2byte	0x1
 12684 165c 55       		.byte	0x55
 12685 165d 80000000 		.4byte	.LVL193
 12686 1661 8A000000 		.4byte	.LVL194
 12687 1665 0100     		.2byte	0x1
ARM GAS  /tmp/ccUc3O3E.s 			page 224


 12688 1667 51       		.byte	0x51
 12689 1668 8A000000 		.4byte	.LVL194
 12690 166c 98000000 		.4byte	.LVL196
 12691 1670 0100     		.2byte	0x1
 12692 1672 55       		.byte	0x55
 12693 1673 98000000 		.4byte	.LVL196
 12694 1677 AA000000 		.4byte	.LVL198
 12695 167b 0300     		.2byte	0x3
 12696 167d 75       		.byte	0x75
 12697 167e 7D       		.sleb128 -3
 12698 167f 9F       		.byte	0x9f
 12699 1680 AA000000 		.4byte	.LVL198
 12700 1684 B2000000 		.4byte	.LFE48
 12701 1688 0200     		.2byte	0x2
 12702 168a 30       		.byte	0x30
 12703 168b 9F       		.byte	0x9f
 12704 168c 00000000 		.4byte	0
 12705 1690 00000000 		.4byte	0
 12706              	.LLST116:
 12707 1694 00000000 		.4byte	.LVL170
 12708 1698 1C000000 		.4byte	.LVL174
 12709 169c 0200     		.2byte	0x2
 12710 169e 30       		.byte	0x30
 12711 169f 9F       		.byte	0x9f
 12712 16a0 AA000000 		.4byte	.LVL198
 12713 16a4 B2000000 		.4byte	.LFE48
 12714 16a8 0200     		.2byte	0x2
 12715 16aa 30       		.byte	0x30
 12716 16ab 9F       		.byte	0x9f
 12717 16ac 00000000 		.4byte	0
 12718 16b0 00000000 		.4byte	0
 12719              	.LLST117:
 12720 16b4 00000000 		.4byte	.LVL170
 12721 16b8 56000000 		.4byte	.LVL183
 12722 16bc 0200     		.2byte	0x2
 12723 16be 30       		.byte	0x30
 12724 16bf 9F       		.byte	0x9f
 12725 16c0 56000000 		.4byte	.LVL183
 12726 16c4 80000000 		.4byte	.LVL193
 12727 16c8 0100     		.2byte	0x1
 12728 16ca 56       		.byte	0x56
 12729 16cb 80000000 		.4byte	.LVL193
 12730 16cf 8A000000 		.4byte	.LVL194
 12731 16d3 0200     		.2byte	0x2
 12732 16d5 30       		.byte	0x30
 12733 16d6 9F       		.byte	0x9f
 12734 16d7 8A000000 		.4byte	.LVL194
 12735 16db AA000000 		.4byte	.LVL198
 12736 16df 0100     		.2byte	0x1
 12737 16e1 56       		.byte	0x56
 12738 16e2 AA000000 		.4byte	.LVL198
 12739 16e6 B2000000 		.4byte	.LFE48
 12740 16ea 0200     		.2byte	0x2
 12741 16ec 30       		.byte	0x30
 12742 16ed 9F       		.byte	0x9f
 12743 16ee 00000000 		.4byte	0
 12744 16f2 00000000 		.4byte	0
ARM GAS  /tmp/ccUc3O3E.s 			page 225


 12745              	.LLST118:
 12746 16f6 0C000000 		.4byte	.LVL172
 12747 16fa 0E000000 		.4byte	.LVL173
 12748 16fe 0200     		.2byte	0x2
 12749 1700 30       		.byte	0x30
 12750 1701 9F       		.byte	0x9f
 12751 1702 00000000 		.4byte	0
 12752 1706 00000000 		.4byte	0
 12753              	.LLST119:
 12754 170a 0C000000 		.4byte	.LVL172
 12755 170e 0D000000 		.4byte	.LVL173-1
 12756 1712 0100     		.2byte	0x1
 12757 1714 50       		.byte	0x50
 12758 1715 0D000000 		.4byte	.LVL173-1
 12759 1719 0E000000 		.4byte	.LVL173
 12760 171d 0100     		.2byte	0x1
 12761 171f 54       		.byte	0x54
 12762 1720 00000000 		.4byte	0
 12763 1724 00000000 		.4byte	0
 12764              	.LLST120:
 12765 1728 1C000000 		.4byte	.LVL174
 12766 172c 1F000000 		.4byte	.LVL175-1
 12767 1730 0100     		.2byte	0x1
 12768 1732 51       		.byte	0x51
 12769 1733 1F000000 		.4byte	.LVL175-1
 12770 1737 20000000 		.4byte	.LVL175
 12771 173b 0100     		.2byte	0x1
 12772 173d 55       		.byte	0x55
 12773 173e 42000000 		.4byte	.LVL181
 12774 1742 4A000000 		.4byte	.LVL182
 12775 1746 0100     		.2byte	0x1
 12776 1748 55       		.byte	0x55
 12777 1749 00000000 		.4byte	0
 12778 174d 00000000 		.4byte	0
 12779              	.LLST121:
 12780 1751 1C000000 		.4byte	.LVL174
 12781 1755 1F000000 		.4byte	.LVL175-1
 12782 1759 0100     		.2byte	0x1
 12783 175b 50       		.byte	0x50
 12784 175c 1F000000 		.4byte	.LVL175-1
 12785 1760 20000000 		.4byte	.LVL175
 12786 1764 0100     		.2byte	0x1
 12787 1766 54       		.byte	0x54
 12788 1767 42000000 		.4byte	.LVL181
 12789 176b 4A000000 		.4byte	.LVL182
 12790 176f 0100     		.2byte	0x1
 12791 1771 54       		.byte	0x54
 12792 1772 00000000 		.4byte	0
 12793 1776 00000000 		.4byte	0
 12794              	.LLST122:
 12795 177a 2C000000 		.4byte	.LVL176
 12796 177e 33000000 		.4byte	.LVL178-1
 12797 1782 0100     		.2byte	0x1
 12798 1784 51       		.byte	0x51
 12799 1785 33000000 		.4byte	.LVL178-1
 12800 1789 34000000 		.4byte	.LVL178
 12801 178d 0100     		.2byte	0x1
ARM GAS  /tmp/ccUc3O3E.s 			page 226


 12802 178f 55       		.byte	0x55
 12803 1790 00000000 		.4byte	0
 12804 1794 00000000 		.4byte	0
 12805              	.LLST123:
 12806 1798 2C000000 		.4byte	.LVL176
 12807 179c 30000000 		.4byte	.LVL177
 12808 17a0 0100     		.2byte	0x1
 12809 17a2 54       		.byte	0x54
 12810 17a3 30000000 		.4byte	.LVL177
 12811 17a7 33000000 		.4byte	.LVL178-1
 12812 17ab 0100     		.2byte	0x1
 12813 17ad 50       		.byte	0x50
 12814 17ae 33000000 		.4byte	.LVL178-1
 12815 17b2 34000000 		.4byte	.LVL178
 12816 17b6 0100     		.2byte	0x1
 12817 17b8 54       		.byte	0x54
 12818 17b9 00000000 		.4byte	0
 12819 17bd 00000000 		.4byte	0
 12820              	.LLST124:
 12821 17c1 3A000000 		.4byte	.LVL180
 12822 17c5 42000000 		.4byte	.LVL181
 12823 17c9 0100     		.2byte	0x1
 12824 17cb 55       		.byte	0x55
 12825 17cc 00000000 		.4byte	0
 12826 17d0 00000000 		.4byte	0
 12827              	.LLST125:
 12828 17d4 3A000000 		.4byte	.LVL180
 12829 17d8 42000000 		.4byte	.LVL181
 12830 17dc 0100     		.2byte	0x1
 12831 17de 54       		.byte	0x54
 12832 17df 00000000 		.4byte	0
 12833 17e3 00000000 		.4byte	0
 12834              	.LLST126:
 12835 17e7 56000000 		.4byte	.LVL183
 12836 17eb 5D000000 		.4byte	.LVL186-1
 12837 17ef 0100     		.2byte	0x1
 12838 17f1 51       		.byte	0x51
 12839 17f2 5D000000 		.4byte	.LVL186-1
 12840 17f6 5E000000 		.4byte	.LVL186
 12841 17fa 0100     		.2byte	0x1
 12842 17fc 55       		.byte	0x55
 12843 17fd 00000000 		.4byte	0
 12844 1801 00000000 		.4byte	0
 12845              	.LLST127:
 12846 1805 56000000 		.4byte	.LVL183
 12847 1809 5D000000 		.4byte	.LVL186-1
 12848 180d 0100     		.2byte	0x1
 12849 180f 50       		.byte	0x50
 12850 1810 5D000000 		.4byte	.LVL186-1
 12851 1814 5E000000 		.4byte	.LVL186
 12852 1818 0100     		.2byte	0x1
 12853 181a 54       		.byte	0x54
 12854 181b 00000000 		.4byte	0
 12855 181f 00000000 		.4byte	0
 12856              	.LLST128:
 12857 1823 62000000 		.4byte	.LVL187
 12858 1827 66000000 		.4byte	.LVL188
ARM GAS  /tmp/ccUc3O3E.s 			page 227


 12859 182b 0300     		.2byte	0x3
 12860 182d 75       		.byte	0x75
 12861 182e 01       		.sleb128 1
 12862 182f 9F       		.byte	0x9f
 12863 1830 66000000 		.4byte	.LVL188
 12864 1834 69000000 		.4byte	.LVL189-1
 12865 1838 0100     		.2byte	0x1
 12866 183a 51       		.byte	0x51
 12867 183b 69000000 		.4byte	.LVL189-1
 12868 183f 6A000000 		.4byte	.LVL189
 12869 1843 0300     		.2byte	0x3
 12870 1845 75       		.byte	0x75
 12871 1846 01       		.sleb128 1
 12872 1847 9F       		.byte	0x9f
 12873 1848 00000000 		.4byte	0
 12874 184c 00000000 		.4byte	0
 12875              	.LLST129:
 12876 1850 62000000 		.4byte	.LVL187
 12877 1854 6A000000 		.4byte	.LVL189
 12878 1858 0100     		.2byte	0x1
 12879 185a 54       		.byte	0x54
 12880 185b 00000000 		.4byte	0
 12881 185f 00000000 		.4byte	0
 12882              	.LLST130:
 12883 1863 6E000000 		.4byte	.LVL190
 12884 1867 72000000 		.4byte	.LVL191
 12885 186b 0300     		.2byte	0x3
 12886 186d 75       		.byte	0x75
 12887 186e 02       		.sleb128 2
 12888 186f 9F       		.byte	0x9f
 12889 1870 72000000 		.4byte	.LVL191
 12890 1874 75000000 		.4byte	.LVL192-1
 12891 1878 0100     		.2byte	0x1
 12892 187a 51       		.byte	0x51
 12893 187b 75000000 		.4byte	.LVL192-1
 12894 187f 76000000 		.4byte	.LVL192
 12895 1883 0300     		.2byte	0x3
 12896 1885 75       		.byte	0x75
 12897 1886 02       		.sleb128 2
 12898 1887 9F       		.byte	0x9f
 12899 1888 00000000 		.4byte	0
 12900 188c 00000000 		.4byte	0
 12901              	.LLST131:
 12902 1890 6E000000 		.4byte	.LVL190
 12903 1894 76000000 		.4byte	.LVL192
 12904 1898 0100     		.2byte	0x1
 12905 189a 54       		.byte	0x54
 12906 189b 00000000 		.4byte	0
 12907 189f 00000000 		.4byte	0
 12908              	.LLST132:
 12909 18a3 98000000 		.4byte	.LVL196
 12910 18a7 A4000000 		.4byte	.LVL197
 12911 18ab 0100     		.2byte	0x1
 12912 18ad 55       		.byte	0x55
 12913 18ae 00000000 		.4byte	0
 12914 18b2 00000000 		.4byte	0
 12915              	.LLST133:
ARM GAS  /tmp/ccUc3O3E.s 			page 228


 12916 18b6 98000000 		.4byte	.LVL196
 12917 18ba A4000000 		.4byte	.LVL197
 12918 18be 0100     		.2byte	0x1
 12919 18c0 54       		.byte	0x54
 12920 18c1 00000000 		.4byte	0
 12921 18c5 00000000 		.4byte	0
 12922              	.LLST81:
 12923 18c9 00000000 		.4byte	.LVL128
 12924 18cd 0D000000 		.4byte	.LVL131-1
 12925 18d1 0100     		.2byte	0x1
 12926 18d3 50       		.byte	0x50
 12927 18d4 0D000000 		.4byte	.LVL131-1
 12928 18d8 1C000000 		.4byte	.LVL132
 12929 18dc 0100     		.2byte	0x1
 12930 18de 54       		.byte	0x54
 12931 18df 1C000000 		.4byte	.LVL132
 12932 18e3 1F000000 		.4byte	.LVL133-1
 12933 18e7 0100     		.2byte	0x1
 12934 18e9 50       		.byte	0x50
 12935 18ea 1F000000 		.4byte	.LVL133-1
 12936 18ee 30000000 		.4byte	.LVL135
 12937 18f2 0100     		.2byte	0x1
 12938 18f4 54       		.byte	0x54
 12939 18f5 30000000 		.4byte	.LVL135
 12940 18f9 33000000 		.4byte	.LVL136-1
 12941 18fd 0100     		.2byte	0x1
 12942 18ff 50       		.byte	0x50
 12943 1900 33000000 		.4byte	.LVL136-1
 12944 1904 4A000000 		.4byte	.LVL140
 12945 1908 0100     		.2byte	0x1
 12946 190a 54       		.byte	0x54
 12947 190b 4A000000 		.4byte	.LVL140
 12948 190f 5C000000 		.4byte	.LVL143
 12949 1913 0100     		.2byte	0x1
 12950 1915 50       		.byte	0x50
 12951 1916 5C000000 		.4byte	.LVL143
 12952 191a C4000000 		.4byte	.LVL163
 12953 191e 0100     		.2byte	0x1
 12954 1920 54       		.byte	0x54
 12955 1921 C4000000 		.4byte	.LVL163
 12956 1925 CE000000 		.4byte	.LVL164
 12957 1929 0100     		.2byte	0x1
 12958 192b 50       		.byte	0x50
 12959 192c CE000000 		.4byte	.LVL164
 12960 1930 E4000000 		.4byte	.LFE47
 12961 1934 0100     		.2byte	0x1
 12962 1936 54       		.byte	0x54
 12963 1937 00000000 		.4byte	0
 12964 193b 00000000 		.4byte	0
 12965              	.LLST82:
 12966 193f 00000000 		.4byte	.LVL128
 12967 1943 0A000000 		.4byte	.LVL129
 12968 1947 0100     		.2byte	0x1
 12969 1949 51       		.byte	0x51
 12970 194a 0A000000 		.4byte	.LVL129
 12971 194e E4000000 		.4byte	.LFE47
 12972 1952 0100     		.2byte	0x1
ARM GAS  /tmp/ccUc3O3E.s 			page 229


 12973 1954 59       		.byte	0x59
 12974 1955 00000000 		.4byte	0
 12975 1959 00000000 		.4byte	0
 12976              	.LLST83:
 12977 195d 00000000 		.4byte	.LVL128
 12978 1961 1C000000 		.4byte	.LVL132
 12979 1965 0200     		.2byte	0x2
 12980 1967 30       		.byte	0x30
 12981 1968 9F       		.byte	0x9f
 12982 1969 1C000000 		.4byte	.LVL132
 12983 196d BA000000 		.4byte	.LVL162
 12984 1971 0100     		.2byte	0x1
 12985 1973 57       		.byte	0x57
 12986 1974 C4000000 		.4byte	.LVL163
 12987 1978 D0000000 		.4byte	.LVL165
 12988 197c 0100     		.2byte	0x1
 12989 197e 57       		.byte	0x57
 12990 197f D0000000 		.4byte	.LVL165
 12991 1983 D2000000 		.4byte	.LVL166
 12992 1987 0400     		.2byte	0x4
 12993 1989 77       		.byte	0x77
 12994 198a 00       		.sleb128 0
 12995 198b 1F       		.byte	0x1f
 12996 198c 9F       		.byte	0x9f
 12997 198d D2000000 		.4byte	.LVL166
 12998 1991 DA000000 		.4byte	.LVL167
 12999 1995 0200     		.2byte	0x2
 13000 1997 30       		.byte	0x30
 13001 1998 9F       		.byte	0x9f
 13002 1999 DA000000 		.4byte	.LVL167
 13003 199d E4000000 		.4byte	.LFE47
 13004 19a1 0100     		.2byte	0x1
 13005 19a3 57       		.byte	0x57
 13006 19a4 00000000 		.4byte	0
 13007 19a8 00000000 		.4byte	0
 13008              	.LLST84:
 13009 19ac 00000000 		.4byte	.LVL128
 13010 19b0 1C000000 		.4byte	.LVL132
 13011 19b4 0200     		.2byte	0x2
 13012 19b6 30       		.byte	0x30
 13013 19b7 9F       		.byte	0x9f
 13014 19b8 1C000000 		.4byte	.LVL132
 13015 19bc 1F000000 		.4byte	.LVL133-1
 13016 19c0 0100     		.2byte	0x1
 13017 19c2 51       		.byte	0x51
 13018 19c3 1F000000 		.4byte	.LVL133-1
 13019 19c7 30000000 		.4byte	.LVL135
 13020 19cb 0100     		.2byte	0x1
 13021 19cd 55       		.byte	0x55
 13022 19ce 30000000 		.4byte	.LVL135
 13023 19d2 33000000 		.4byte	.LVL136-1
 13024 19d6 0100     		.2byte	0x1
 13025 19d8 51       		.byte	0x51
 13026 19d9 33000000 		.4byte	.LVL136-1
 13027 19dd 38000000 		.4byte	.LVL137
 13028 19e1 0100     		.2byte	0x1
 13029 19e3 55       		.byte	0x55
ARM GAS  /tmp/ccUc3O3E.s 			page 230


 13030 19e4 38000000 		.4byte	.LVL137
 13031 19e8 3A000000 		.4byte	.LVL138
 13032 19ec 0300     		.2byte	0x3
 13033 19ee 75       		.byte	0x75
 13034 19ef 7F       		.sleb128 -1
 13035 19f0 9F       		.byte	0x9f
 13036 19f1 3A000000 		.4byte	.LVL138
 13037 19f5 56000000 		.4byte	.LVL141
 13038 19f9 0100     		.2byte	0x1
 13039 19fb 55       		.byte	0x55
 13040 19fc 56000000 		.4byte	.LVL141
 13041 1a00 5A000000 		.4byte	.LVL142
 13042 1a04 0100     		.2byte	0x1
 13043 1a06 51       		.byte	0x51
 13044 1a07 5A000000 		.4byte	.LVL142
 13045 1a0b C4000000 		.4byte	.LVL163
 13046 1a0f 0100     		.2byte	0x1
 13047 1a11 55       		.byte	0x55
 13048 1a12 C4000000 		.4byte	.LVL163
 13049 1a16 CE000000 		.4byte	.LVL164
 13050 1a1a 0100     		.2byte	0x1
 13051 1a1c 51       		.byte	0x51
 13052 1a1d CE000000 		.4byte	.LVL164
 13053 1a21 D2000000 		.4byte	.LVL166
 13054 1a25 0100     		.2byte	0x1
 13055 1a27 55       		.byte	0x55
 13056 1a28 D2000000 		.4byte	.LVL166
 13057 1a2c DA000000 		.4byte	.LVL167
 13058 1a30 0200     		.2byte	0x2
 13059 1a32 30       		.byte	0x30
 13060 1a33 9F       		.byte	0x9f
 13061 1a34 DA000000 		.4byte	.LVL167
 13062 1a38 E4000000 		.4byte	.LFE47
 13063 1a3c 0100     		.2byte	0x1
 13064 1a3e 55       		.byte	0x55
 13065 1a3f 00000000 		.4byte	0
 13066 1a43 00000000 		.4byte	0
 13067              	.LLST85:
 13068 1a47 00000000 		.4byte	.LVL128
 13069 1a4b 1C000000 		.4byte	.LVL132
 13070 1a4f 0200     		.2byte	0x2
 13071 1a51 30       		.byte	0x30
 13072 1a52 9F       		.byte	0x9f
 13073 1a53 D2000000 		.4byte	.LVL166
 13074 1a57 DA000000 		.4byte	.LVL167
 13075 1a5b 0200     		.2byte	0x2
 13076 1a5d 30       		.byte	0x30
 13077 1a5e 9F       		.byte	0x9f
 13078 1a5f 00000000 		.4byte	0
 13079 1a63 00000000 		.4byte	0
 13080              	.LLST86:
 13081 1a67 00000000 		.4byte	.LVL128
 13082 1a6b 56000000 		.4byte	.LVL141
 13083 1a6f 0200     		.2byte	0x2
 13084 1a71 30       		.byte	0x30
 13085 1a72 9F       		.byte	0x9f
 13086 1a73 56000000 		.4byte	.LVL141
ARM GAS  /tmp/ccUc3O3E.s 			page 231


 13087 1a77 C4000000 		.4byte	.LVL163
 13088 1a7b 0100     		.2byte	0x1
 13089 1a7d 56       		.byte	0x56
 13090 1a7e C4000000 		.4byte	.LVL163
 13091 1a82 CE000000 		.4byte	.LVL164
 13092 1a86 0200     		.2byte	0x2
 13093 1a88 30       		.byte	0x30
 13094 1a89 9F       		.byte	0x9f
 13095 1a8a CE000000 		.4byte	.LVL164
 13096 1a8e D2000000 		.4byte	.LVL166
 13097 1a92 0100     		.2byte	0x1
 13098 1a94 56       		.byte	0x56
 13099 1a95 D2000000 		.4byte	.LVL166
 13100 1a99 DA000000 		.4byte	.LVL167
 13101 1a9d 0200     		.2byte	0x2
 13102 1a9f 30       		.byte	0x30
 13103 1aa0 9F       		.byte	0x9f
 13104 1aa1 DA000000 		.4byte	.LVL167
 13105 1aa5 E4000000 		.4byte	.LFE47
 13106 1aa9 0100     		.2byte	0x1
 13107 1aab 56       		.byte	0x56
 13108 1aac 00000000 		.4byte	0
 13109 1ab0 00000000 		.4byte	0
 13110              	.LLST87:
 13111 1ab4 86000000 		.4byte	.LVL151
 13112 1ab8 AC000000 		.4byte	.LVL159
 13113 1abc 0100     		.2byte	0x1
 13114 1abe 55       		.byte	0x55
 13115 1abf AC000000 		.4byte	.LVL159
 13116 1ac3 B3000000 		.4byte	.LVL161-1
 13117 1ac7 0100     		.2byte	0x1
 13118 1ac9 51       		.byte	0x51
 13119 1aca E0000000 		.4byte	.LVL168
 13120 1ace E2000000 		.4byte	.LVL169
 13121 1ad2 0100     		.2byte	0x1
 13122 1ad4 55       		.byte	0x55
 13123 1ad5 E2000000 		.4byte	.LVL169
 13124 1ad9 E4000000 		.4byte	.LFE47
 13125 1add 0100     		.2byte	0x1
 13126 1adf 51       		.byte	0x51
 13127 1ae0 00000000 		.4byte	0
 13128 1ae4 00000000 		.4byte	0
 13129              	.LLST88:
 13130 1ae8 0C000000 		.4byte	.LVL130
 13131 1aec 0E000000 		.4byte	.LVL131
 13132 1af0 0200     		.2byte	0x2
 13133 1af2 30       		.byte	0x30
 13134 1af3 9F       		.byte	0x9f
 13135 1af4 00000000 		.4byte	0
 13136 1af8 00000000 		.4byte	0
 13137              	.LLST89:
 13138 1afc 0C000000 		.4byte	.LVL130
 13139 1b00 0D000000 		.4byte	.LVL131-1
 13140 1b04 0100     		.2byte	0x1
 13141 1b06 50       		.byte	0x50
 13142 1b07 0D000000 		.4byte	.LVL131-1
 13143 1b0b 0E000000 		.4byte	.LVL131
ARM GAS  /tmp/ccUc3O3E.s 			page 232


 13144 1b0f 0100     		.2byte	0x1
 13145 1b11 54       		.byte	0x54
 13146 1b12 00000000 		.4byte	0
 13147 1b16 00000000 		.4byte	0
 13148              	.LLST90:
 13149 1b1a 1C000000 		.4byte	.LVL132
 13150 1b1e 1F000000 		.4byte	.LVL133-1
 13151 1b22 0100     		.2byte	0x1
 13152 1b24 51       		.byte	0x51
 13153 1b25 1F000000 		.4byte	.LVL133-1
 13154 1b29 20000000 		.4byte	.LVL133
 13155 1b2d 0100     		.2byte	0x1
 13156 1b2f 55       		.byte	0x55
 13157 1b30 42000000 		.4byte	.LVL139
 13158 1b34 4A000000 		.4byte	.LVL140
 13159 1b38 0100     		.2byte	0x1
 13160 1b3a 55       		.byte	0x55
 13161 1b3b 00000000 		.4byte	0
 13162 1b3f 00000000 		.4byte	0
 13163              	.LLST91:
 13164 1b43 1C000000 		.4byte	.LVL132
 13165 1b47 1F000000 		.4byte	.LVL133-1
 13166 1b4b 0100     		.2byte	0x1
 13167 1b4d 50       		.byte	0x50
 13168 1b4e 1F000000 		.4byte	.LVL133-1
 13169 1b52 20000000 		.4byte	.LVL133
 13170 1b56 0100     		.2byte	0x1
 13171 1b58 54       		.byte	0x54
 13172 1b59 42000000 		.4byte	.LVL139
 13173 1b5d 4A000000 		.4byte	.LVL140
 13174 1b61 0100     		.2byte	0x1
 13175 1b63 54       		.byte	0x54
 13176 1b64 00000000 		.4byte	0
 13177 1b68 00000000 		.4byte	0
 13178              	.LLST92:
 13179 1b6c 2C000000 		.4byte	.LVL134
 13180 1b70 33000000 		.4byte	.LVL136-1
 13181 1b74 0100     		.2byte	0x1
 13182 1b76 51       		.byte	0x51
 13183 1b77 33000000 		.4byte	.LVL136-1
 13184 1b7b 34000000 		.4byte	.LVL136
 13185 1b7f 0100     		.2byte	0x1
 13186 1b81 55       		.byte	0x55
 13187 1b82 00000000 		.4byte	0
 13188 1b86 00000000 		.4byte	0
 13189              	.LLST93:
 13190 1b8a 2C000000 		.4byte	.LVL134
 13191 1b8e 30000000 		.4byte	.LVL135
 13192 1b92 0100     		.2byte	0x1
 13193 1b94 54       		.byte	0x54
 13194 1b95 30000000 		.4byte	.LVL135
 13195 1b99 33000000 		.4byte	.LVL136-1
 13196 1b9d 0100     		.2byte	0x1
 13197 1b9f 50       		.byte	0x50
 13198 1ba0 33000000 		.4byte	.LVL136-1
 13199 1ba4 34000000 		.4byte	.LVL136
 13200 1ba8 0100     		.2byte	0x1
ARM GAS  /tmp/ccUc3O3E.s 			page 233


 13201 1baa 54       		.byte	0x54
 13202 1bab 00000000 		.4byte	0
 13203 1baf 00000000 		.4byte	0
 13204              	.LLST94:
 13205 1bb3 3A000000 		.4byte	.LVL138
 13206 1bb7 42000000 		.4byte	.LVL139
 13207 1bbb 0100     		.2byte	0x1
 13208 1bbd 55       		.byte	0x55
 13209 1bbe 00000000 		.4byte	0
 13210 1bc2 00000000 		.4byte	0
 13211              	.LLST95:
 13212 1bc6 3A000000 		.4byte	.LVL138
 13213 1bca 42000000 		.4byte	.LVL139
 13214 1bce 0100     		.2byte	0x1
 13215 1bd0 54       		.byte	0x54
 13216 1bd1 00000000 		.4byte	0
 13217 1bd5 00000000 		.4byte	0
 13218              	.LLST96:
 13219 1bd9 56000000 		.4byte	.LVL141
 13220 1bdd 5D000000 		.4byte	.LVL144-1
 13221 1be1 0100     		.2byte	0x1
 13222 1be3 51       		.byte	0x51
 13223 1be4 5D000000 		.4byte	.LVL144-1
 13224 1be8 5E000000 		.4byte	.LVL144
 13225 1bec 0100     		.2byte	0x1
 13226 1bee 55       		.byte	0x55
 13227 1bef 00000000 		.4byte	0
 13228 1bf3 00000000 		.4byte	0
 13229              	.LLST97:
 13230 1bf7 56000000 		.4byte	.LVL141
 13231 1bfb 5D000000 		.4byte	.LVL144-1
 13232 1bff 0100     		.2byte	0x1
 13233 1c01 50       		.byte	0x50
 13234 1c02 5D000000 		.4byte	.LVL144-1
 13235 1c06 5E000000 		.4byte	.LVL144
 13236 1c0a 0100     		.2byte	0x1
 13237 1c0c 54       		.byte	0x54
 13238 1c0d 00000000 		.4byte	0
 13239 1c11 00000000 		.4byte	0
 13240              	.LLST98:
 13241 1c15 62000000 		.4byte	.LVL145
 13242 1c19 6A000000 		.4byte	.LVL146
 13243 1c1d 0100     		.2byte	0x1
 13244 1c1f 55       		.byte	0x55
 13245 1c20 00000000 		.4byte	0
 13246 1c24 00000000 		.4byte	0
 13247              	.LLST99:
 13248 1c28 62000000 		.4byte	.LVL145
 13249 1c2c 6A000000 		.4byte	.LVL146
 13250 1c30 0100     		.2byte	0x1
 13251 1c32 54       		.byte	0x54
 13252 1c33 00000000 		.4byte	0
 13253 1c37 00000000 		.4byte	0
 13254              	.LLST100:
 13255 1c3b 6E000000 		.4byte	.LVL147
 13256 1c3f 76000000 		.4byte	.LVL148
 13257 1c43 0100     		.2byte	0x1
ARM GAS  /tmp/ccUc3O3E.s 			page 234


 13258 1c45 55       		.byte	0x55
 13259 1c46 00000000 		.4byte	0
 13260 1c4a 00000000 		.4byte	0
 13261              	.LLST101:
 13262 1c4e 6E000000 		.4byte	.LVL147
 13263 1c52 76000000 		.4byte	.LVL148
 13264 1c56 0100     		.2byte	0x1
 13265 1c58 54       		.byte	0x54
 13266 1c59 00000000 		.4byte	0
 13267 1c5d 00000000 		.4byte	0
 13268              	.LLST102:
 13269 1c61 7A000000 		.4byte	.LVL149
 13270 1c65 82000000 		.4byte	.LVL150
 13271 1c69 0100     		.2byte	0x1
 13272 1c6b 55       		.byte	0x55
 13273 1c6c 00000000 		.4byte	0
 13274 1c70 00000000 		.4byte	0
 13275              	.LLST103:
 13276 1c74 7A000000 		.4byte	.LVL149
 13277 1c78 82000000 		.4byte	.LVL150
 13278 1c7c 0100     		.2byte	0x1
 13279 1c7e 54       		.byte	0x54
 13280 1c7f 00000000 		.4byte	0
 13281 1c83 00000000 		.4byte	0
 13282              	.LLST104:
 13283 1c87 86000000 		.4byte	.LVL151
 13284 1c8b 8E000000 		.4byte	.LVL152
 13285 1c8f 0100     		.2byte	0x1
 13286 1c91 55       		.byte	0x55
 13287 1c92 00000000 		.4byte	0
 13288 1c96 00000000 		.4byte	0
 13289              	.LLST105:
 13290 1c9a 86000000 		.4byte	.LVL151
 13291 1c9e 8E000000 		.4byte	.LVL152
 13292 1ca2 0100     		.2byte	0x1
 13293 1ca4 54       		.byte	0x54
 13294 1ca5 00000000 		.4byte	0
 13295 1ca9 00000000 		.4byte	0
 13296              	.LLST106:
 13297 1cad 92000000 		.4byte	.LVL153
 13298 1cb1 96000000 		.4byte	.LVL154
 13299 1cb5 0300     		.2byte	0x3
 13300 1cb7 75       		.byte	0x75
 13301 1cb8 01       		.sleb128 1
 13302 1cb9 9F       		.byte	0x9f
 13303 1cba 96000000 		.4byte	.LVL154
 13304 1cbe 99000000 		.4byte	.LVL155-1
 13305 1cc2 0100     		.2byte	0x1
 13306 1cc4 51       		.byte	0x51
 13307 1cc5 99000000 		.4byte	.LVL155-1
 13308 1cc9 9A000000 		.4byte	.LVL155
 13309 1ccd 0300     		.2byte	0x3
 13310 1ccf 75       		.byte	0x75
 13311 1cd0 01       		.sleb128 1
 13312 1cd1 9F       		.byte	0x9f
 13313 1cd2 00000000 		.4byte	0
 13314 1cd6 00000000 		.4byte	0
ARM GAS  /tmp/ccUc3O3E.s 			page 235


 13315              	.LLST107:
 13316 1cda 92000000 		.4byte	.LVL153
 13317 1cde 9A000000 		.4byte	.LVL155
 13318 1ce2 0100     		.2byte	0x1
 13319 1ce4 54       		.byte	0x54
 13320 1ce5 00000000 		.4byte	0
 13321 1ce9 00000000 		.4byte	0
 13322              	.LLST108:
 13323 1ced 9E000000 		.4byte	.LVL156
 13324 1cf1 A2000000 		.4byte	.LVL157
 13325 1cf5 0300     		.2byte	0x3
 13326 1cf7 75       		.byte	0x75
 13327 1cf8 02       		.sleb128 2
 13328 1cf9 9F       		.byte	0x9f
 13329 1cfa A2000000 		.4byte	.LVL157
 13330 1cfe A5000000 		.4byte	.LVL158-1
 13331 1d02 0100     		.2byte	0x1
 13332 1d04 51       		.byte	0x51
 13333 1d05 A5000000 		.4byte	.LVL158-1
 13334 1d09 A6000000 		.4byte	.LVL158
 13335 1d0d 0300     		.2byte	0x3
 13336 1d0f 75       		.byte	0x75
 13337 1d10 02       		.sleb128 2
 13338 1d11 9F       		.byte	0x9f
 13339 1d12 00000000 		.4byte	0
 13340 1d16 00000000 		.4byte	0
 13341              	.LLST109:
 13342 1d1a 9E000000 		.4byte	.LVL156
 13343 1d1e A6000000 		.4byte	.LVL158
 13344 1d22 0100     		.2byte	0x1
 13345 1d24 54       		.byte	0x54
 13346 1d25 00000000 		.4byte	0
 13347 1d29 00000000 		.4byte	0
 13348              	.LLST110:
 13349 1d2d AE000000 		.4byte	.LVL160
 13350 1d31 B3000000 		.4byte	.LVL161-1
 13351 1d35 0100     		.2byte	0x1
 13352 1d37 51       		.byte	0x51
 13353 1d38 00000000 		.4byte	0
 13354 1d3c 00000000 		.4byte	0
 13355              	.LLST111:
 13356 1d40 AE000000 		.4byte	.LVL160
 13357 1d44 B4000000 		.4byte	.LVL161
 13358 1d48 0100     		.2byte	0x1
 13359 1d4a 54       		.byte	0x54
 13360 1d4b 00000000 		.4byte	0
 13361 1d4f 00000000 		.4byte	0
 13362              	.LLST48:
 13363 1d53 00000000 		.4byte	.LVL94
 13364 1d57 0B000000 		.4byte	.LVL97-1
 13365 1d5b 0100     		.2byte	0x1
 13366 1d5d 50       		.byte	0x50
 13367 1d5e 0B000000 		.4byte	.LVL97-1
 13368 1d62 CA000000 		.4byte	.LFE46
 13369 1d66 0100     		.2byte	0x1
 13370 1d68 54       		.byte	0x54
 13371 1d69 00000000 		.4byte	0
ARM GAS  /tmp/ccUc3O3E.s 			page 236


 13372 1d6d 00000000 		.4byte	0
 13373              	.LLST49:
 13374 1d71 00000000 		.4byte	.LVL94
 13375 1d75 08000000 		.4byte	.LVL95
 13376 1d79 0100     		.2byte	0x1
 13377 1d7b 51       		.byte	0x51
 13378 1d7c 08000000 		.4byte	.LVL95
 13379 1d80 CA000000 		.4byte	.LFE46
 13380 1d84 0100     		.2byte	0x1
 13381 1d86 55       		.byte	0x55
 13382 1d87 00000000 		.4byte	0
 13383 1d8b 00000000 		.4byte	0
 13384              	.LLST50:
 13385 1d8f 00000000 		.4byte	.LVL94
 13386 1d93 98000000 		.4byte	.LVL119
 13387 1d97 0200     		.2byte	0x2
 13388 1d99 30       		.byte	0x30
 13389 1d9a 9F       		.byte	0x9f
 13390 1d9b 98000000 		.4byte	.LVL119
 13391 1d9f 9C000000 		.4byte	.LVL120
 13392 1da3 0200     		.2byte	0x2
 13393 1da5 39       		.byte	0x39
 13394 1da6 9F       		.byte	0x9f
 13395 1da7 9C000000 		.4byte	.LVL120
 13396 1dab C6000000 		.4byte	.LVL127
 13397 1daf 0200     		.2byte	0x2
 13398 1db1 30       		.byte	0x30
 13399 1db2 9F       		.byte	0x9f
 13400 1db3 C6000000 		.4byte	.LVL127
 13401 1db7 CA000000 		.4byte	.LFE46
 13402 1dbb 0200     		.2byte	0x2
 13403 1dbd 33       		.byte	0x33
 13404 1dbe 9F       		.byte	0x9f
 13405 1dbf 00000000 		.4byte	0
 13406 1dc3 00000000 		.4byte	0
 13407              	.LLST51:
 13408 1dc7 0A000000 		.4byte	.LVL96
 13409 1dcb 0C000000 		.4byte	.LVL97
 13410 1dcf 0200     		.2byte	0x2
 13411 1dd1 30       		.byte	0x30
 13412 1dd2 9F       		.byte	0x9f
 13413 1dd3 00000000 		.4byte	0
 13414 1dd7 00000000 		.4byte	0
 13415              	.LLST52:
 13416 1ddb 0A000000 		.4byte	.LVL96
 13417 1ddf 0B000000 		.4byte	.LVL97-1
 13418 1de3 0100     		.2byte	0x1
 13419 1de5 50       		.byte	0x50
 13420 1de6 0B000000 		.4byte	.LVL97-1
 13421 1dea 0C000000 		.4byte	.LVL97
 13422 1dee 0100     		.2byte	0x1
 13423 1df0 54       		.byte	0x54
 13424 1df1 00000000 		.4byte	0
 13425 1df5 00000000 		.4byte	0
 13426              	.LLST53:
 13427 1df9 10000000 		.4byte	.LVL98
 13428 1dfd 18000000 		.4byte	.LVL99
ARM GAS  /tmp/ccUc3O3E.s 			page 237


 13429 1e01 0200     		.2byte	0x2
 13430 1e03 30       		.byte	0x30
 13431 1e04 9F       		.byte	0x9f
 13432 1e05 00000000 		.4byte	0
 13433 1e09 00000000 		.4byte	0
 13434              	.LLST54:
 13435 1e0d 10000000 		.4byte	.LVL98
 13436 1e11 18000000 		.4byte	.LVL99
 13437 1e15 0100     		.2byte	0x1
 13438 1e17 54       		.byte	0x54
 13439 1e18 00000000 		.4byte	0
 13440 1e1c 00000000 		.4byte	0
 13441              	.LLST55:
 13442 1e20 1C000000 		.4byte	.LVL100
 13443 1e24 24000000 		.4byte	.LVL101
 13444 1e28 0200     		.2byte	0x2
 13445 1e2a 31       		.byte	0x31
 13446 1e2b 9F       		.byte	0x9f
 13447 1e2c 00000000 		.4byte	0
 13448 1e30 00000000 		.4byte	0
 13449              	.LLST56:
 13450 1e34 1C000000 		.4byte	.LVL100
 13451 1e38 24000000 		.4byte	.LVL101
 13452 1e3c 0100     		.2byte	0x1
 13453 1e3e 54       		.byte	0x54
 13454 1e3f 00000000 		.4byte	0
 13455 1e43 00000000 		.4byte	0
 13456              	.LLST57:
 13457 1e47 2C000000 		.4byte	.LVL102
 13458 1e4b 34000000 		.4byte	.LVL103
 13459 1e4f 0200     		.2byte	0x2
 13460 1e51 31       		.byte	0x31
 13461 1e52 9F       		.byte	0x9f
 13462 1e53 00000000 		.4byte	0
 13463 1e57 00000000 		.4byte	0
 13464              	.LLST58:
 13465 1e5b 2C000000 		.4byte	.LVL102
 13466 1e5f 34000000 		.4byte	.LVL103
 13467 1e63 0100     		.2byte	0x1
 13468 1e65 54       		.byte	0x54
 13469 1e66 00000000 		.4byte	0
 13470 1e6a 00000000 		.4byte	0
 13471              	.LLST59:
 13472 1e6e 38000000 		.4byte	.LVL104
 13473 1e72 40000000 		.4byte	.LVL105
 13474 1e76 0200     		.2byte	0x2
 13475 1e78 32       		.byte	0x32
 13476 1e79 9F       		.byte	0x9f
 13477 1e7a 00000000 		.4byte	0
 13478 1e7e 00000000 		.4byte	0
 13479              	.LLST60:
 13480 1e82 38000000 		.4byte	.LVL104
 13481 1e86 40000000 		.4byte	.LVL105
 13482 1e8a 0100     		.2byte	0x1
 13483 1e8c 54       		.byte	0x54
 13484 1e8d 00000000 		.4byte	0
 13485 1e91 00000000 		.4byte	0
ARM GAS  /tmp/ccUc3O3E.s 			page 238


 13486              	.LLST61:
 13487 1e95 44000000 		.4byte	.LVL106
 13488 1e99 4C000000 		.4byte	.LVL107
 13489 1e9d 0200     		.2byte	0x2
 13490 1e9f 33       		.byte	0x33
 13491 1ea0 9F       		.byte	0x9f
 13492 1ea1 00000000 		.4byte	0
 13493 1ea5 00000000 		.4byte	0
 13494              	.LLST62:
 13495 1ea9 44000000 		.4byte	.LVL106
 13496 1ead 4C000000 		.4byte	.LVL107
 13497 1eb1 0100     		.2byte	0x1
 13498 1eb3 54       		.byte	0x54
 13499 1eb4 00000000 		.4byte	0
 13500 1eb8 00000000 		.4byte	0
 13501              	.LLST63:
 13502 1ebc 50000000 		.4byte	.LVL108
 13503 1ec0 58000000 		.4byte	.LVL109
 13504 1ec4 0200     		.2byte	0x2
 13505 1ec6 34       		.byte	0x34
 13506 1ec7 9F       		.byte	0x9f
 13507 1ec8 00000000 		.4byte	0
 13508 1ecc 00000000 		.4byte	0
 13509              	.LLST64:
 13510 1ed0 50000000 		.4byte	.LVL108
 13511 1ed4 58000000 		.4byte	.LVL109
 13512 1ed8 0100     		.2byte	0x1
 13513 1eda 54       		.byte	0x54
 13514 1edb 00000000 		.4byte	0
 13515 1edf 00000000 		.4byte	0
 13516              	.LLST65:
 13517 1ee3 5C000000 		.4byte	.LVL110
 13518 1ee7 64000000 		.4byte	.LVL111
 13519 1eeb 0200     		.2byte	0x2
 13520 1eed 35       		.byte	0x35
 13521 1eee 9F       		.byte	0x9f
 13522 1eef 00000000 		.4byte	0
 13523 1ef3 00000000 		.4byte	0
 13524              	.LLST66:
 13525 1ef7 5C000000 		.4byte	.LVL110
 13526 1efb 64000000 		.4byte	.LVL111
 13527 1eff 0100     		.2byte	0x1
 13528 1f01 54       		.byte	0x54
 13529 1f02 00000000 		.4byte	0
 13530 1f06 00000000 		.4byte	0
 13531              	.LLST67:
 13532 1f0a 68000000 		.4byte	.LVL112
 13533 1f0e 70000000 		.4byte	.LVL113
 13534 1f12 0200     		.2byte	0x2
 13535 1f14 36       		.byte	0x36
 13536 1f15 9F       		.byte	0x9f
 13537 1f16 00000000 		.4byte	0
 13538 1f1a 00000000 		.4byte	0
 13539              	.LLST68:
 13540 1f1e 68000000 		.4byte	.LVL112
 13541 1f22 70000000 		.4byte	.LVL113
 13542 1f26 0100     		.2byte	0x1
ARM GAS  /tmp/ccUc3O3E.s 			page 239


 13543 1f28 54       		.byte	0x54
 13544 1f29 00000000 		.4byte	0
 13545 1f2d 00000000 		.4byte	0
 13546              	.LLST69:
 13547 1f31 74000000 		.4byte	.LVL114
 13548 1f35 7C000000 		.4byte	.LVL115
 13549 1f39 0200     		.2byte	0x2
 13550 1f3b 37       		.byte	0x37
 13551 1f3c 9F       		.byte	0x9f
 13552 1f3d 00000000 		.4byte	0
 13553 1f41 00000000 		.4byte	0
 13554              	.LLST70:
 13555 1f45 74000000 		.4byte	.LVL114
 13556 1f49 7C000000 		.4byte	.LVL115
 13557 1f4d 0100     		.2byte	0x1
 13558 1f4f 54       		.byte	0x54
 13559 1f50 00000000 		.4byte	0
 13560 1f54 00000000 		.4byte	0
 13561              	.LLST71:
 13562 1f58 80000000 		.4byte	.LVL116
 13563 1f5c 88000000 		.4byte	.LVL117
 13564 1f60 0200     		.2byte	0x2
 13565 1f62 38       		.byte	0x38
 13566 1f63 9F       		.byte	0x9f
 13567 1f64 00000000 		.4byte	0
 13568 1f68 00000000 		.4byte	0
 13569              	.LLST72:
 13570 1f6c 80000000 		.4byte	.LVL116
 13571 1f70 88000000 		.4byte	.LVL117
 13572 1f74 0100     		.2byte	0x1
 13573 1f76 54       		.byte	0x54
 13574 1f77 00000000 		.4byte	0
 13575 1f7b 00000000 		.4byte	0
 13576              	.LLST73:
 13577 1f7f 90000000 		.4byte	.LVL118
 13578 1f83 98000000 		.4byte	.LVL119
 13579 1f87 0200     		.2byte	0x2
 13580 1f89 39       		.byte	0x39
 13581 1f8a 9F       		.byte	0x9f
 13582 1f8b 00000000 		.4byte	0
 13583 1f8f 00000000 		.4byte	0
 13584              	.LLST74:
 13585 1f93 90000000 		.4byte	.LVL118
 13586 1f97 98000000 		.4byte	.LVL119
 13587 1f9b 0100     		.2byte	0x1
 13588 1f9d 54       		.byte	0x54
 13589 1f9e 00000000 		.4byte	0
 13590 1fa2 00000000 		.4byte	0
 13591              	.LLST75:
 13592 1fa6 A4000000 		.4byte	.LVL122
 13593 1faa AA000000 		.4byte	.LVL123
 13594 1fae 0200     		.2byte	0x2
 13595 1fb0 32       		.byte	0x32
 13596 1fb1 9F       		.byte	0x9f
 13597 1fb2 00000000 		.4byte	0
 13598 1fb6 00000000 		.4byte	0
 13599              	.LLST76:
ARM GAS  /tmp/ccUc3O3E.s 			page 240


 13600 1fba A4000000 		.4byte	.LVL122
 13601 1fbe AA000000 		.4byte	.LVL123
 13602 1fc2 0100     		.2byte	0x1
 13603 1fc4 54       		.byte	0x54
 13604 1fc5 00000000 		.4byte	0
 13605 1fc9 00000000 		.4byte	0
 13606              	.LLST77:
 13607 1fcd B4000000 		.4byte	.LVL124
 13608 1fd1 BC000000 		.4byte	.LVL125
 13609 1fd5 0200     		.2byte	0x2
 13610 1fd7 32       		.byte	0x32
 13611 1fd8 9F       		.byte	0x9f
 13612 1fd9 00000000 		.4byte	0
 13613 1fdd 00000000 		.4byte	0
 13614              	.LLST78:
 13615 1fe1 B4000000 		.4byte	.LVL124
 13616 1fe5 BC000000 		.4byte	.LVL125
 13617 1fe9 0100     		.2byte	0x1
 13618 1feb 54       		.byte	0x54
 13619 1fec 00000000 		.4byte	0
 13620 1ff0 00000000 		.4byte	0
 13621              	.LLST79:
 13622 1ff4 BE000000 		.4byte	.LVL126
 13623 1ff8 C6000000 		.4byte	.LVL127
 13624 1ffc 0200     		.2byte	0x2
 13625 1ffe 33       		.byte	0x33
 13626 1fff 9F       		.byte	0x9f
 13627 2000 00000000 		.4byte	0
 13628 2004 00000000 		.4byte	0
 13629              	.LLST80:
 13630 2008 BE000000 		.4byte	.LVL126
 13631 200c C6000000 		.4byte	.LVL127
 13632 2010 0100     		.2byte	0x1
 13633 2012 54       		.byte	0x54
 13634 2013 00000000 		.4byte	0
 13635 2017 00000000 		.4byte	0
 13636              	.LLST14:
 13637 201b 00000000 		.4byte	.LVL23
 13638 201f 14000000 		.4byte	.LVL25
 13639 2023 0100     		.2byte	0x1
 13640 2025 50       		.byte	0x50
 13641 2026 14000000 		.4byte	.LVL25
 13642 202a 6C000000 		.4byte	.LFE41
 13643 202e 0100     		.2byte	0x1
 13644 2030 5A       		.byte	0x5a
 13645 2031 00000000 		.4byte	0
 13646 2035 00000000 		.4byte	0
 13647              	.LLST15:
 13648 2039 00000000 		.4byte	.LVL23
 13649 203d 12000000 		.4byte	.LVL24
 13650 2041 0200     		.2byte	0x2
 13651 2043 30       		.byte	0x30
 13652 2044 9F       		.byte	0x9f
 13653 2045 00000000 		.4byte	0
 13654 2049 00000000 		.4byte	0
 13655              	.LLST16:
 13656 204d 12000000 		.4byte	.LVL24
ARM GAS  /tmp/ccUc3O3E.s 			page 241


 13657 2051 1A000000 		.4byte	.LVL26
 13658 2055 0200     		.2byte	0x2
 13659 2057 30       		.byte	0x30
 13660 2058 9F       		.byte	0x9f
 13661 2059 1A000000 		.4byte	.LVL26
 13662 205d 42000000 		.4byte	.LVL30
 13663 2061 0100     		.2byte	0x1
 13664 2063 54       		.byte	0x54
 13665 2064 42000000 		.4byte	.LVL30
 13666 2068 46000000 		.4byte	.LVL31
 13667 206c 0200     		.2byte	0x2
 13668 206e 30       		.byte	0x30
 13669 206f 9F       		.byte	0x9f
 13670 2070 56000000 		.4byte	.LVL33
 13671 2074 6C000000 		.4byte	.LFE41
 13672 2078 0100     		.2byte	0x1
 13673 207a 54       		.byte	0x54
 13674 207b 00000000 		.4byte	0
 13675 207f 00000000 		.4byte	0
 13676              	.LLST17:
 13677 2083 20000000 		.4byte	.LVL28
 13678 2087 2A000000 		.4byte	.LVL29
 13679 208b 0100     		.2byte	0x1
 13680 208d 54       		.byte	0x54
 13681 208e 00000000 		.4byte	0
 13682 2092 00000000 		.4byte	0
 13683              	.LLST18:
 13684 2096 20000000 		.4byte	.LVL28
 13685 209a 2A000000 		.4byte	.LVL29
 13686 209e 0100     		.2byte	0x1
 13687 20a0 5A       		.byte	0x5a
 13688 20a1 00000000 		.4byte	0
 13689 20a5 00000000 		.4byte	0
 13690              	.LLST19:
 13691 20a9 46000000 		.4byte	.LVL31
 13692 20ad 50000000 		.4byte	.LVL32
 13693 20b1 0100     		.2byte	0x1
 13694 20b3 56       		.byte	0x56
 13695 20b4 00000000 		.4byte	0
 13696 20b8 00000000 		.4byte	0
 13697              	.LLST20:
 13698 20bc 46000000 		.4byte	.LVL31
 13699 20c0 50000000 		.4byte	.LVL32
 13700 20c4 0100     		.2byte	0x1
 13701 20c6 5A       		.byte	0x5a
 13702 20c7 00000000 		.4byte	0
 13703 20cb 00000000 		.4byte	0
 13704              	.LLST8:
 13705 20cf 00000000 		.4byte	.LVL15
 13706 20d3 03000000 		.4byte	.LVL16-1
 13707 20d7 0100     		.2byte	0x1
 13708 20d9 50       		.byte	0x50
 13709 20da 03000000 		.4byte	.LVL16-1
 13710 20de 04000000 		.4byte	.LFE37
 13711 20e2 0400     		.2byte	0x4
 13712 20e4 F3       		.byte	0xf3
 13713 20e5 01       		.uleb128 0x1
ARM GAS  /tmp/ccUc3O3E.s 			page 242


 13714 20e6 50       		.byte	0x50
 13715 20e7 9F       		.byte	0x9f
 13716 20e8 00000000 		.4byte	0
 13717 20ec 00000000 		.4byte	0
 13718              	.LLST9:
 13719 20f0 00000000 		.4byte	.LVL17
 13720 20f4 03000000 		.4byte	.LVL18-1
 13721 20f8 0100     		.2byte	0x1
 13722 20fa 50       		.byte	0x50
 13723 20fb 03000000 		.4byte	.LVL18-1
 13724 20ff 04000000 		.4byte	.LFE38
 13725 2103 0400     		.2byte	0x4
 13726 2105 F3       		.byte	0xf3
 13727 2106 01       		.uleb128 0x1
 13728 2107 50       		.byte	0x50
 13729 2108 9F       		.byte	0x9f
 13730 2109 00000000 		.4byte	0
 13731 210d 00000000 		.4byte	0
 13732              	.LLST10:
 13733 2111 00000000 		.4byte	.LVL19
 13734 2115 03000000 		.4byte	.LVL20-1
 13735 2119 0100     		.2byte	0x1
 13736 211b 50       		.byte	0x50
 13737 211c 03000000 		.4byte	.LVL20-1
 13738 2120 04000000 		.4byte	.LFE39
 13739 2124 0400     		.2byte	0x4
 13740 2126 F3       		.byte	0xf3
 13741 2127 01       		.uleb128 0x1
 13742 2128 50       		.byte	0x50
 13743 2129 9F       		.byte	0x9f
 13744 212a 00000000 		.4byte	0
 13745 212e 00000000 		.4byte	0
 13746              	.LLST11:
 13747 2132 00000000 		.4byte	.LVL19
 13748 2136 03000000 		.4byte	.LVL20-1
 13749 213a 0100     		.2byte	0x1
 13750 213c 51       		.byte	0x51
 13751 213d 03000000 		.4byte	.LVL20-1
 13752 2141 04000000 		.4byte	.LFE39
 13753 2145 0400     		.2byte	0x4
 13754 2147 F3       		.byte	0xf3
 13755 2148 01       		.uleb128 0x1
 13756 2149 51       		.byte	0x51
 13757 214a 9F       		.byte	0x9f
 13758 214b 00000000 		.4byte	0
 13759 214f 00000000 		.4byte	0
 13760              	.LLST12:
 13761 2153 00000000 		.4byte	.LVL21
 13762 2157 03000000 		.4byte	.LVL22-1
 13763 215b 0100     		.2byte	0x1
 13764 215d 50       		.byte	0x50
 13765 215e 03000000 		.4byte	.LVL22-1
 13766 2162 04000000 		.4byte	.LFE40
 13767 2166 0400     		.2byte	0x4
 13768 2168 F3       		.byte	0xf3
 13769 2169 01       		.uleb128 0x1
 13770 216a 50       		.byte	0x50
ARM GAS  /tmp/ccUc3O3E.s 			page 243


 13771 216b 9F       		.byte	0x9f
 13772 216c 00000000 		.4byte	0
 13773 2170 00000000 		.4byte	0
 13774              	.LLST13:
 13775 2174 00000000 		.4byte	.LVL21
 13776 2178 03000000 		.4byte	.LVL22-1
 13777 217c 0100     		.2byte	0x1
 13778 217e 51       		.byte	0x51
 13779 217f 03000000 		.4byte	.LVL22-1
 13780 2183 04000000 		.4byte	.LFE40
 13781 2187 0400     		.2byte	0x4
 13782 2189 F3       		.byte	0xf3
 13783 218a 01       		.uleb128 0x1
 13784 218b 51       		.byte	0x51
 13785 218c 9F       		.byte	0x9f
 13786 218d 00000000 		.4byte	0
 13787 2191 00000000 		.4byte	0
 13788              	.LLST21:
 13789 2195 00000000 		.4byte	.LVL35
 13790 2199 12000000 		.4byte	.LVL38
 13791 219d 0100     		.2byte	0x1
 13792 219f 50       		.byte	0x50
 13793 21a0 12000000 		.4byte	.LVL38
 13794 21a4 14000000 		.4byte	.LVL39
 13795 21a8 0400     		.2byte	0x4
 13796 21aa F3       		.byte	0xf3
 13797 21ab 01       		.uleb128 0x1
 13798 21ac 50       		.byte	0x50
 13799 21ad 9F       		.byte	0x9f
 13800 21ae 14000000 		.4byte	.LVL39
 13801 21b2 16000000 		.4byte	.LVL40
 13802 21b6 0100     		.2byte	0x1
 13803 21b8 50       		.byte	0x50
 13804 21b9 16000000 		.4byte	.LVL40
 13805 21bd 1C000000 		.4byte	.LFE42
 13806 21c1 0400     		.2byte	0x4
 13807 21c3 F3       		.byte	0xf3
 13808 21c4 01       		.uleb128 0x1
 13809 21c5 50       		.byte	0x50
 13810 21c6 9F       		.byte	0x9f
 13811 21c7 00000000 		.4byte	0
 13812 21cb 00000000 		.4byte	0
 13813              	.LLST22:
 13814 21cf 00000000 		.4byte	.LVL35
 13815 21d3 04000000 		.4byte	.LVL36
 13816 21d7 0200     		.2byte	0x2
 13817 21d9 30       		.byte	0x30
 13818 21da 9F       		.byte	0x9f
 13819 21db 04000000 		.4byte	.LVL36
 13820 21df 0C000000 		.4byte	.LVL37
 13821 21e3 0900     		.2byte	0x9
 13822 21e5 72       		.byte	0x72
 13823 21e6 00       		.sleb128 0
 13824 21e7 03       		.byte	0x3
 13825 21e8 FFFFFFFF 		.4byte	.LC1-1
 13826 21ec 1C       		.byte	0x1c
 13827 21ed 9F       		.byte	0x9f
ARM GAS  /tmp/ccUc3O3E.s 			page 244


 13828 21ee 0C000000 		.4byte	.LVL37
 13829 21f2 14000000 		.4byte	.LVL39
 13830 21f6 0900     		.2byte	0x9
 13831 21f8 72       		.byte	0x72
 13832 21f9 00       		.sleb128 0
 13833 21fa 03       		.byte	0x3
 13834 21fb 00000000 		.4byte	.LC1
 13835 21ff 1C       		.byte	0x1c
 13836 2200 9F       		.byte	0x9f
 13837 2201 14000000 		.4byte	.LVL39
 13838 2205 1C000000 		.4byte	.LFE42
 13839 2209 0900     		.2byte	0x9
 13840 220b 72       		.byte	0x72
 13841 220c 00       		.sleb128 0
 13842 220d 03       		.byte	0x3
 13843 220e FFFFFFFF 		.4byte	.LC1-1
 13844 2212 1C       		.byte	0x1c
 13845 2213 9F       		.byte	0x9f
 13846 2214 00000000 		.4byte	0
 13847 2218 00000000 		.4byte	0
 13848              	.LLST23:
 13849 221c 00000000 		.4byte	.LVL41
 13850 2220 12000000 		.4byte	.LVL44
 13851 2224 0100     		.2byte	0x1
 13852 2226 50       		.byte	0x50
 13853 2227 12000000 		.4byte	.LVL44
 13854 222b 14000000 		.4byte	.LVL45
 13855 222f 0400     		.2byte	0x4
 13856 2231 F3       		.byte	0xf3
 13857 2232 01       		.uleb128 0x1
 13858 2233 50       		.byte	0x50
 13859 2234 9F       		.byte	0x9f
 13860 2235 14000000 		.4byte	.LVL45
 13861 2239 16000000 		.4byte	.LVL46
 13862 223d 0100     		.2byte	0x1
 13863 223f 50       		.byte	0x50
 13864 2240 16000000 		.4byte	.LVL46
 13865 2244 1C000000 		.4byte	.LFE43
 13866 2248 0400     		.2byte	0x4
 13867 224a F3       		.byte	0xf3
 13868 224b 01       		.uleb128 0x1
 13869 224c 50       		.byte	0x50
 13870 224d 9F       		.byte	0x9f
 13871 224e 00000000 		.4byte	0
 13872 2252 00000000 		.4byte	0
 13873              	.LLST24:
 13874 2256 00000000 		.4byte	.LVL41
 13875 225a 04000000 		.4byte	.LVL42
 13876 225e 0200     		.2byte	0x2
 13877 2260 30       		.byte	0x30
 13878 2261 9F       		.byte	0x9f
 13879 2262 04000000 		.4byte	.LVL42
 13880 2266 0C000000 		.4byte	.LVL43
 13881 226a 0900     		.2byte	0x9
 13882 226c 72       		.byte	0x72
 13883 226d 00       		.sleb128 0
 13884 226e 03       		.byte	0x3
ARM GAS  /tmp/ccUc3O3E.s 			page 245


 13885 226f FFFFFFFF 		.4byte	.LC2-1
 13886 2273 1C       		.byte	0x1c
 13887 2274 9F       		.byte	0x9f
 13888 2275 0C000000 		.4byte	.LVL43
 13889 2279 14000000 		.4byte	.LVL45
 13890 227d 0900     		.2byte	0x9
 13891 227f 72       		.byte	0x72
 13892 2280 00       		.sleb128 0
 13893 2281 03       		.byte	0x3
 13894 2282 00000000 		.4byte	.LC2
 13895 2286 1C       		.byte	0x1c
 13896 2287 9F       		.byte	0x9f
 13897 2288 14000000 		.4byte	.LVL45
 13898 228c 1C000000 		.4byte	.LFE43
 13899 2290 0900     		.2byte	0x9
 13900 2292 72       		.byte	0x72
 13901 2293 00       		.sleb128 0
 13902 2294 03       		.byte	0x3
 13903 2295 FFFFFFFF 		.4byte	.LC2-1
 13904 2299 1C       		.byte	0x1c
 13905 229a 9F       		.byte	0x9f
 13906 229b 00000000 		.4byte	0
 13907 229f 00000000 		.4byte	0
 13908              	.LLST25:
 13909 22a3 00000000 		.4byte	.LVL47
 13910 22a7 0B000000 		.4byte	.LVL49-1
 13911 22ab 0100     		.2byte	0x1
 13912 22ad 50       		.byte	0x50
 13913 22ae 0B000000 		.4byte	.LVL49-1
 13914 22b2 9C000000 		.4byte	.LFE44
 13915 22b6 0100     		.2byte	0x1
 13916 22b8 56       		.byte	0x56
 13917 22b9 00000000 		.4byte	0
 13918 22bd 00000000 		.4byte	0
 13919              	.LLST26:
 13920 22c1 0A000000 		.4byte	.LVL48
 13921 22c5 0C000000 		.4byte	.LVL49
 13922 22c9 0200     		.2byte	0x2
 13923 22cb 30       		.byte	0x30
 13924 22cc 9F       		.byte	0x9f
 13925 22cd 00000000 		.4byte	0
 13926 22d1 00000000 		.4byte	0
 13927              	.LLST27:
 13928 22d5 0A000000 		.4byte	.LVL48
 13929 22d9 0B000000 		.4byte	.LVL49-1
 13930 22dd 0100     		.2byte	0x1
 13931 22df 50       		.byte	0x50
 13932 22e0 0B000000 		.4byte	.LVL49-1
 13933 22e4 0C000000 		.4byte	.LVL49
 13934 22e8 0100     		.2byte	0x1
 13935 22ea 56       		.byte	0x56
 13936 22eb 00000000 		.4byte	0
 13937 22ef 00000000 		.4byte	0
 13938              	.LLST28:
 13939 22f3 50000000 		.4byte	.LVL59
 13940 22f7 5A000000 		.4byte	.LVL60
 13941 22fb 0200     		.2byte	0x2
ARM GAS  /tmp/ccUc3O3E.s 			page 246


 13942 22fd 30       		.byte	0x30
 13943 22fe 9F       		.byte	0x9f
 13944 22ff 5A000000 		.4byte	.LVL60
 13945 2303 72000000 		.4byte	.LVL65
 13946 2307 0100     		.2byte	0x1
 13947 2309 54       		.byte	0x54
 13948 230a 72000000 		.4byte	.LVL65
 13949 230e 82000000 		.4byte	.LVL67
 13950 2312 0300     		.2byte	0x3
 13951 2314 74       		.byte	0x74
 13952 2315 7F       		.sleb128 -1
 13953 2316 9F       		.byte	0x9f
 13954 2317 00000000 		.4byte	0
 13955 231b 00000000 		.4byte	0
 13956              	.LLST30:
 13957 231f 50000000 		.4byte	.LVL59
 13958 2323 5A000000 		.4byte	.LVL60
 13959 2327 0200     		.2byte	0x2
 13960 2329 30       		.byte	0x30
 13961 232a 9F       		.byte	0x9f
 13962 232b 5A000000 		.4byte	.LVL60
 13963 232f 62000000 		.4byte	.LVL61
 13964 2333 0100     		.2byte	0x1
 13965 2335 55       		.byte	0x55
 13966 2336 7E000000 		.4byte	.LVL66
 13967 233a 82000000 		.4byte	.LVL67
 13968 233e 0100     		.2byte	0x1
 13969 2340 55       		.byte	0x55
 13970 2341 00000000 		.4byte	0
 13971 2345 00000000 		.4byte	0
 13972              	.LLST31:
 13973 2349 26000000 		.4byte	.LVL54
 13974 234d 2E000000 		.4byte	.LVL55
 13975 2351 0100     		.2byte	0x1
 13976 2353 57       		.byte	0x57
 13977 2354 00000000 		.4byte	0
 13978 2358 00000000 		.4byte	0
 13979              	.LLST32:
 13980 235c 26000000 		.4byte	.LVL54
 13981 2360 2E000000 		.4byte	.LVL55
 13982 2364 0100     		.2byte	0x1
 13983 2366 56       		.byte	0x56
 13984 2367 00000000 		.4byte	0
 13985 236b 00000000 		.4byte	0
 13986              	.LLST33:
 13987 236f 62000000 		.4byte	.LVL61
 13988 2373 6A000000 		.4byte	.LVL63
 13989 2377 0100     		.2byte	0x1
 13990 2379 56       		.byte	0x56
 13991 237a 00000000 		.4byte	0
 13992 237e 00000000 		.4byte	0
 13993              	.LLST34:
 13994 2382 00000000 		.4byte	.LVL70
 13995 2386 09000000 		.4byte	.LVL72-1
 13996 238a 0100     		.2byte	0x1
 13997 238c 50       		.byte	0x50
 13998 238d 09000000 		.4byte	.LVL72-1
ARM GAS  /tmp/ccUc3O3E.s 			page 247


 13999 2391 84000000 		.4byte	.LFE45
 14000 2395 0100     		.2byte	0x1
 14001 2397 54       		.byte	0x54
 14002 2398 00000000 		.4byte	0
 14003 239c 00000000 		.4byte	0
 14004              	.LLST35:
 14005 23a0 00000000 		.4byte	.LVL70
 14006 23a4 14000000 		.4byte	.LVL74
 14007 23a8 0200     		.2byte	0x2
 14008 23aa 30       		.byte	0x30
 14009 23ab 9F       		.byte	0x9f
 14010 23ac 14000000 		.4byte	.LVL74
 14011 23b0 44000000 		.4byte	.LVL82
 14012 23b4 0200     		.2byte	0x2
 14013 23b6 31       		.byte	0x31
 14014 23b7 9F       		.byte	0x9f
 14015 23b8 4A000000 		.4byte	.LVL83
 14016 23bc 84000000 		.4byte	.LFE45
 14017 23c0 0200     		.2byte	0x2
 14018 23c2 31       		.byte	0x31
 14019 23c3 9F       		.byte	0x9f
 14020 23c4 00000000 		.4byte	0
 14021 23c8 00000000 		.4byte	0
 14022              	.LLST36:
 14023 23cc 08000000 		.4byte	.LVL71
 14024 23d0 0A000000 		.4byte	.LVL72
 14025 23d4 0200     		.2byte	0x2
 14026 23d6 30       		.byte	0x30
 14027 23d7 9F       		.byte	0x9f
 14028 23d8 00000000 		.4byte	0
 14029 23dc 00000000 		.4byte	0
 14030              	.LLST37:
 14031 23e0 08000000 		.4byte	.LVL71
 14032 23e4 09000000 		.4byte	.LVL72-1
 14033 23e8 0100     		.2byte	0x1
 14034 23ea 50       		.byte	0x50
 14035 23eb 09000000 		.4byte	.LVL72-1
 14036 23ef 0A000000 		.4byte	.LVL72
 14037 23f3 0100     		.2byte	0x1
 14038 23f5 54       		.byte	0x54
 14039 23f6 00000000 		.4byte	0
 14040 23fa 00000000 		.4byte	0
 14041              	.LLST38:
 14042 23fe 0E000000 		.4byte	.LVL73
 14043 2402 14000000 		.4byte	.LVL74
 14044 2406 0100     		.2byte	0x1
 14045 2408 54       		.byte	0x54
 14046 2409 00000000 		.4byte	0
 14047 240d 00000000 		.4byte	0
 14048              	.LLST39:
 14049 2411 14000000 		.4byte	.LVL74
 14050 2415 44000000 		.4byte	.LVL82
 14051 2419 0100     		.2byte	0x1
 14052 241b 54       		.byte	0x54
 14053 241c 4A000000 		.4byte	.LVL83
 14054 2420 84000000 		.4byte	.LFE45
 14055 2424 0100     		.2byte	0x1
ARM GAS  /tmp/ccUc3O3E.s 			page 248


 14056 2426 54       		.byte	0x54
 14057 2427 00000000 		.4byte	0
 14058 242b 00000000 		.4byte	0
 14059              	.LLST40:
 14060 242f 18000000 		.4byte	.LVL75
 14061 2433 1D000000 		.4byte	.LVL76-1
 14062 2437 0100     		.2byte	0x1
 14063 2439 51       		.byte	0x51
 14064 243a 1D000000 		.4byte	.LVL76-1
 14065 243e 1E000000 		.4byte	.LVL76
 14066 2442 0100     		.2byte	0x1
 14067 2444 55       		.byte	0x55
 14068 2445 2C000000 		.4byte	.LVL78
 14069 2449 32000000 		.4byte	.LVL79
 14070 244d 0100     		.2byte	0x1
 14071 244f 55       		.byte	0x55
 14072 2450 00000000 		.4byte	0
 14073 2454 00000000 		.4byte	0
 14074              	.LLST41:
 14075 2458 18000000 		.4byte	.LVL75
 14076 245c 1E000000 		.4byte	.LVL76
 14077 2460 0100     		.2byte	0x1
 14078 2462 54       		.byte	0x54
 14079 2463 2C000000 		.4byte	.LVL78
 14080 2467 32000000 		.4byte	.LVL79
 14081 246b 0100     		.2byte	0x1
 14082 246d 54       		.byte	0x54
 14083 246e 00000000 		.4byte	0
 14084 2472 00000000 		.4byte	0
 14085              	.LLST42:
 14086 2476 24000000 		.4byte	.LVL77
 14087 247a 2C000000 		.4byte	.LVL78
 14088 247e 0100     		.2byte	0x1
 14089 2480 55       		.byte	0x55
 14090 2481 00000000 		.4byte	0
 14091 2485 00000000 		.4byte	0
 14092              	.LLST43:
 14093 2489 24000000 		.4byte	.LVL77
 14094 248d 2C000000 		.4byte	.LVL78
 14095 2491 0100     		.2byte	0x1
 14096 2493 54       		.byte	0x54
 14097 2494 00000000 		.4byte	0
 14098 2498 00000000 		.4byte	0
 14099              	.LLST44:
 14100 249c 38000000 		.4byte	.LVL80
 14101 24a0 40000000 		.4byte	.LVL81
 14102 24a4 0100     		.2byte	0x1
 14103 24a6 55       		.byte	0x55
 14104 24a7 00000000 		.4byte	0
 14105 24ab 00000000 		.4byte	0
 14106              	.LLST45:
 14107 24af 38000000 		.4byte	.LVL80
 14108 24b3 40000000 		.4byte	.LVL81
 14109 24b7 0100     		.2byte	0x1
 14110 24b9 54       		.byte	0x54
 14111 24ba 00000000 		.4byte	0
 14112 24be 00000000 		.4byte	0
ARM GAS  /tmp/ccUc3O3E.s 			page 249


 14113              	.LLST46:
 14114 24c2 5C000000 		.4byte	.LVL85
 14115 24c6 62000000 		.4byte	.LVL86
 14116 24ca 0100     		.2byte	0x1
 14117 24cc 54       		.byte	0x54
 14118 24cd 00000000 		.4byte	0
 14119 24d1 00000000 		.4byte	0
 14120              	.LLST47:
 14121 24d5 6C000000 		.4byte	.LVL88
 14122 24d9 72000000 		.4byte	.LVL89
 14123 24dd 0100     		.2byte	0x1
 14124 24df 54       		.byte	0x54
 14125 24e0 00000000 		.4byte	0
 14126 24e4 00000000 		.4byte	0
 14127              		.section	.debug_aranges,"",%progbits
 14128 0000 BC000000 		.4byte	0xbc
 14129 0004 0200     		.2byte	0x2
 14130 0006 00000000 		.4byte	.Ldebug_info0
 14131 000a 04       		.byte	0x4
 14132 000b 00       		.byte	0
 14133 000c 0000     		.2byte	0
 14134 000e 0000     		.2byte	0
 14135 0010 00000000 		.4byte	.LFB53
 14136 0014 10000000 		.4byte	.LFE53-.LFB53
 14137 0018 00000000 		.4byte	.LFB54
 14138 001c 0E000000 		.4byte	.LFE54-.LFB54
 14139 0020 00000000 		.4byte	.LFB55
 14140 0024 0C000000 		.4byte	.LFE55-.LFB55
 14141 0028 00000000 		.4byte	.LFB56
 14142 002c 0A000000 		.4byte	.LFE56-.LFB56
 14143 0030 00000000 		.4byte	.LFB37
 14144 0034 04000000 		.4byte	.LFE37-.LFB37
 14145 0038 00000000 		.4byte	.LFB38
 14146 003c 04000000 		.4byte	.LFE38-.LFB38
 14147 0040 00000000 		.4byte	.LFB39
 14148 0044 04000000 		.4byte	.LFE39-.LFB39
 14149 0048 00000000 		.4byte	.LFB40
 14150 004c 04000000 		.4byte	.LFE40-.LFB40
 14151 0050 00000000 		.4byte	.LFB41
 14152 0054 6C000000 		.4byte	.LFE41-.LFB41
 14153 0058 00000000 		.4byte	.LFB42
 14154 005c 1C000000 		.4byte	.LFE42-.LFB42
 14155 0060 00000000 		.4byte	.LFB43
 14156 0064 1C000000 		.4byte	.LFE43-.LFB43
 14157 0068 00000000 		.4byte	.LFB44
 14158 006c 9C000000 		.4byte	.LFE44-.LFB44
 14159 0070 00000000 		.4byte	.LFB45
 14160 0074 84000000 		.4byte	.LFE45-.LFB45
 14161 0078 00000000 		.4byte	.LFB46
 14162 007c CA000000 		.4byte	.LFE46-.LFB46
 14163 0080 00000000 		.4byte	.LFB47
 14164 0084 E4000000 		.4byte	.LFE47-.LFB47
 14165 0088 00000000 		.4byte	.LFB48
 14166 008c B2000000 		.4byte	.LFE48-.LFB48
 14167 0090 00000000 		.4byte	.LFB49
 14168 0094 B8000000 		.4byte	.LFE49-.LFB49
 14169 0098 00000000 		.4byte	.LFB50
ARM GAS  /tmp/ccUc3O3E.s 			page 250


 14170 009c AE010000 		.4byte	.LFE50-.LFB50
 14171 00a0 00000000 		.4byte	.LFB51
 14172 00a4 D2000000 		.4byte	.LFE51-.LFB51
 14173 00a8 00000000 		.4byte	.LFB52
 14174 00ac 5C020000 		.4byte	.LFE52-.LFB52
 14175 00b0 00000000 		.4byte	.LFB57
 14176 00b4 30000000 		.4byte	.LFE57-.LFB57
 14177 00b8 00000000 		.4byte	0
 14178 00bc 00000000 		.4byte	0
 14179              		.section	.debug_ranges,"",%progbits
 14180              	.Ldebug_ranges0:
 14181 0000 16000000 		.4byte	.LBB306
 14182 0004 50000000 		.4byte	.LBE306
 14183 0008 60000000 		.4byte	.LBB314
 14184 000c 6C000000 		.4byte	.LBE314
 14185 0010 00000000 		.4byte	0
 14186 0014 00000000 		.4byte	0
 14187 0018 16000000 		.4byte	.LBB307
 14188 001c 36000000 		.4byte	.LBE307
 14189 0020 42000000 		.4byte	.LBB312
 14190 0024 50000000 		.4byte	.LBE312
 14191 0028 60000000 		.4byte	.LBB313
 14192 002c 6C000000 		.4byte	.LBE313
 14193 0030 00000000 		.4byte	0
 14194 0034 00000000 		.4byte	0
 14195 0038 04000000 		.4byte	.LBB334
 14196 003c 08000000 		.4byte	.LBE334
 14197 0040 0A000000 		.4byte	.LBB337
 14198 0044 0E000000 		.4byte	.LBE337
 14199 0048 00000000 		.4byte	0
 14200 004c 00000000 		.4byte	0
 14201 0050 24000000 		.4byte	.LBB340
 14202 0054 86000000 		.4byte	.LBE340
 14203 0058 8C000000 		.4byte	.LBB353
 14204 005c 9C000000 		.4byte	.LBE353
 14205 0060 00000000 		.4byte	0
 14206 0064 00000000 		.4byte	0
 14207 0068 62000000 		.4byte	.LBB348
 14208 006c 70000000 		.4byte	.LBE348
 14209 0070 72000000 		.4byte	.LBB351
 14210 0074 7E000000 		.4byte	.LBE351
 14211 0078 00000000 		.4byte	0
 14212 007c 00000000 		.4byte	0
 14213 0080 02000000 		.4byte	.LBB376
 14214 0084 06000000 		.4byte	.LBE376
 14215 0088 08000000 		.4byte	.LBB379
 14216 008c 0A000000 		.4byte	.LBE379
 14217 0090 00000000 		.4byte	0
 14218 0094 00000000 		.4byte	0
 14219 0098 14000000 		.4byte	.LBB382
 14220 009c 44000000 		.4byte	.LBE382
 14221 00a0 4A000000 		.4byte	.LBB400
 14222 00a4 72000000 		.4byte	.LBE400
 14223 00a8 76000000 		.4byte	.LBB401
 14224 00ac 84000000 		.4byte	.LBE401
 14225 00b0 00000000 		.4byte	0
 14226 00b4 00000000 		.4byte	0
ARM GAS  /tmp/ccUc3O3E.s 			page 251


 14227 00b8 18000000 		.4byte	.LBB384
 14228 00bc 1E000000 		.4byte	.LBE384
 14229 00c0 2C000000 		.4byte	.LBB389
 14230 00c4 2E000000 		.4byte	.LBE389
 14231 00c8 00000000 		.4byte	0
 14232 00cc 00000000 		.4byte	0
 14233 00d0 02000000 		.4byte	.LBB402
 14234 00d4 04000000 		.4byte	.LBE402
 14235 00d8 06000000 		.4byte	.LBB406
 14236 00dc 08000000 		.4byte	.LBE406
 14237 00e0 0A000000 		.4byte	.LBB407
 14238 00e4 0C000000 		.4byte	.LBE407
 14239 00e8 00000000 		.4byte	0
 14240 00ec 00000000 		.4byte	0
 14241 00f0 A0000000 		.4byte	.LBB430
 14242 00f4 A2000000 		.4byte	.LBE430
 14243 00f8 A4000000 		.4byte	.LBB433
 14244 00fc AA000000 		.4byte	.LBE433
 14245 0100 00000000 		.4byte	0
 14246 0104 00000000 		.4byte	0
 14247 0108 06000000 		.4byte	.LBB438
 14248 010c 0A000000 		.4byte	.LBE438
 14249 0110 0C000000 		.4byte	.LBB441
 14250 0114 0E000000 		.4byte	.LBE441
 14251 0118 00000000 		.4byte	0
 14252 011c 00000000 		.4byte	0
 14253 0120 1C000000 		.4byte	.LBB442
 14254 0124 20000000 		.4byte	.LBE442
 14255 0128 44000000 		.4byte	.LBB453
 14256 012c 48000000 		.4byte	.LBE453
 14257 0130 00000000 		.4byte	0
 14258 0134 00000000 		.4byte	0
 14259 0138 26000000 		.4byte	.LBB445
 14260 013c 28000000 		.4byte	.LBE445
 14261 0140 2C000000 		.4byte	.LBB449
 14262 0144 2E000000 		.4byte	.LBE449
 14263 0148 30000000 		.4byte	.LBB450
 14264 014c 34000000 		.4byte	.LBE450
 14265 0150 00000000 		.4byte	0
 14266 0154 00000000 		.4byte	0
 14267 0158 06000000 		.4byte	.LBB470
 14268 015c 0A000000 		.4byte	.LBE470
 14269 0160 0C000000 		.4byte	.LBB473
 14270 0164 0E000000 		.4byte	.LBE473
 14271 0168 00000000 		.4byte	0
 14272 016c 00000000 		.4byte	0
 14273 0170 1C000000 		.4byte	.LBB474
 14274 0174 20000000 		.4byte	.LBE474
 14275 0178 44000000 		.4byte	.LBB485
 14276 017c 48000000 		.4byte	.LBE485
 14277 0180 00000000 		.4byte	0
 14278 0184 00000000 		.4byte	0
 14279 0188 26000000 		.4byte	.LBB477
 14280 018c 28000000 		.4byte	.LBE477
 14281 0190 2C000000 		.4byte	.LBB481
 14282 0194 2E000000 		.4byte	.LBE481
 14283 0198 30000000 		.4byte	.LBB482
ARM GAS  /tmp/ccUc3O3E.s 			page 252


 14284 019c 34000000 		.4byte	.LBE482
 14285 01a0 00000000 		.4byte	0
 14286 01a4 00000000 		.4byte	0
 14287 01a8 98000000 		.4byte	.LBB492
 14288 01ac 9A000000 		.4byte	.LBE492
 14289 01b0 9E000000 		.4byte	.LBB495
 14290 01b4 A4000000 		.4byte	.LBE495
 14291 01b8 00000000 		.4byte	0
 14292 01bc 00000000 		.4byte	0
 14293 01c0 06000000 		.4byte	.LBB496
 14294 01c4 0A000000 		.4byte	.LBE496
 14295 01c8 0C000000 		.4byte	.LBB499
 14296 01cc 0E000000 		.4byte	.LBE499
 14297 01d0 00000000 		.4byte	0
 14298 01d4 00000000 		.4byte	0
 14299 01d8 1C000000 		.4byte	.LBB500
 14300 01dc 20000000 		.4byte	.LBE500
 14301 01e0 42000000 		.4byte	.LBB509
 14302 01e4 46000000 		.4byte	.LBE509
 14303 01e8 00000000 		.4byte	0
 14304 01ec 00000000 		.4byte	0
 14305 01f0 22000000 		.4byte	.LBB503
 14306 01f4 26000000 		.4byte	.LBE503
 14307 01f8 28000000 		.4byte	.LBB506
 14308 01fc 2C000000 		.4byte	.LBE506
 14309 0200 00000000 		.4byte	0
 14310 0204 00000000 		.4byte	0
 14311 0208 A0000000 		.4byte	.LBB516
 14312 020c A2000000 		.4byte	.LBE516
 14313 0210 A4000000 		.4byte	.LBB519
 14314 0214 AA000000 		.4byte	.LBE519
 14315 0218 00000000 		.4byte	0
 14316 021c 00000000 		.4byte	0
 14317 0220 04000000 		.4byte	.LBB520
 14318 0224 06000000 		.4byte	.LBE520
 14319 0228 08000000 		.4byte	.LBB524
 14320 022c 0A000000 		.4byte	.LBE524
 14321 0230 0C000000 		.4byte	.LBB525
 14322 0234 0E000000 		.4byte	.LBE525
 14323 0238 00000000 		.4byte	0
 14324 023c 00000000 		.4byte	0
 14325 0240 0E000000 		.4byte	.LBB526
 14326 0244 10000000 		.4byte	.LBE526
 14327 0248 12000000 		.4byte	.LBB530
 14328 024c 18000000 		.4byte	.LBE530
 14329 0250 22000000 		.4byte	.LBB531
 14330 0254 24000000 		.4byte	.LBE531
 14331 0258 00000000 		.4byte	0
 14332 025c 00000000 		.4byte	0
 14333 0260 46000000 		.4byte	.LBB536
 14334 0264 4A000000 		.4byte	.LBE536
 14335 0268 6C000000 		.4byte	.LBB545
 14336 026c 70000000 		.4byte	.LBE545
 14337 0270 00000000 		.4byte	0
 14338 0274 00000000 		.4byte	0
 14339 0278 4C000000 		.4byte	.LBB539
 14340 027c 50000000 		.4byte	.LBE539
ARM GAS  /tmp/ccUc3O3E.s 			page 253


 14341 0280 52000000 		.4byte	.LBB542
 14342 0284 56000000 		.4byte	.LBE542
 14343 0288 00000000 		.4byte	0
 14344 028c 00000000 		.4byte	0
 14345 0290 C0000000 		.4byte	.LBB552
 14346 0294 DC000000 		.4byte	.LBE552
 14347 0298 24010000 		.4byte	.LBB579
 14348 029c 60010000 		.4byte	.LBE579
 14349 02a0 00000000 		.4byte	0
 14350 02a4 00000000 		.4byte	0
 14351 02a8 6C010000 		.4byte	.LBB580
 14352 02ac 72010000 		.4byte	.LBE580
 14353 02b0 74010000 		.4byte	.LBB584
 14354 02b4 76010000 		.4byte	.LBE584
 14355 02b8 A4010000 		.4byte	.LBB589
 14356 02bc AE010000 		.4byte	.LBE589
 14357 02c0 00000000 		.4byte	0
 14358 02c4 00000000 		.4byte	0
 14359 02c8 8E010000 		.4byte	.LBB585
 14360 02cc 90010000 		.4byte	.LBE585
 14361 02d0 92010000 		.4byte	.LBB588
 14362 02d4 98010000 		.4byte	.LBE588
 14363 02d8 00000000 		.4byte	0
 14364 02dc 00000000 		.4byte	0
 14365 02e0 04000000 		.4byte	.LBB590
 14366 02e4 06000000 		.4byte	.LBE590
 14367 02e8 0A000000 		.4byte	.LBB594
 14368 02ec 0C000000 		.4byte	.LBE594
 14369 02f0 0E000000 		.4byte	.LBB595
 14370 02f4 10000000 		.4byte	.LBE595
 14371 02f8 00000000 		.4byte	0
 14372 02fc 00000000 		.4byte	0
 14373 0300 1A000000 		.4byte	.LBB596
 14374 0304 1E000000 		.4byte	.LBE596
 14375 0308 2E000000 		.4byte	.LBB601
 14376 030c 32000000 		.4byte	.LBE601
 14377 0310 00000000 		.4byte	0
 14378 0314 00000000 		.4byte	0
 14379 0318 64000000 		.4byte	.LBB608
 14380 031c 68000000 		.4byte	.LBE608
 14381 0320 78000000 		.4byte	.LBB613
 14382 0324 7C000000 		.4byte	.LBE613
 14383 0328 00000000 		.4byte	0
 14384 032c 00000000 		.4byte	0
 14385 0330 02000000 		.4byte	.LBB663
 14386 0334 04000000 		.4byte	.LBE663
 14387 0338 08000000 		.4byte	.LBB666
 14388 033c 0A000000 		.4byte	.LBE666
 14389 0340 00000000 		.4byte	0
 14390 0344 00000000 		.4byte	0
 14391 0348 1E000000 		.4byte	.LBB669
 14392 034c 20000000 		.4byte	.LBE669
 14393 0350 22000000 		.4byte	.LBB672
 14394 0354 28000000 		.4byte	.LBE672
 14395 0358 00000000 		.4byte	0
 14396 035c 00000000 		.4byte	0
 14397 0360 3A000000 		.4byte	.LBB675
ARM GAS  /tmp/ccUc3O3E.s 			page 254


 14398 0364 40000000 		.4byte	.LBE675
 14399 0368 54000000 		.4byte	.LBB684
 14400 036c 56000000 		.4byte	.LBE684
 14401 0370 00000000 		.4byte	0
 14402 0374 00000000 		.4byte	0
 14403 0378 42000000 		.4byte	.LBB678
 14404 037c 48000000 		.4byte	.LBE678
 14405 0380 4A000000 		.4byte	.LBB681
 14406 0384 4E000000 		.4byte	.LBE681
 14407 0388 00000000 		.4byte	0
 14408 038c 00000000 		.4byte	0
 14409 0390 04010000 		.4byte	.LBB690
 14410 0394 16010000 		.4byte	.LBE690
 14411 0398 40020000 		.4byte	.LBB715
 14412 039c 5C020000 		.4byte	.LBE715
 14413 03a0 00000000 		.4byte	0
 14414 03a4 00000000 		.4byte	0
 14415 03a8 00000000 		.4byte	.LFB53
 14416 03ac 10000000 		.4byte	.LFE53
 14417 03b0 00000000 		.4byte	.LFB54
 14418 03b4 0E000000 		.4byte	.LFE54
 14419 03b8 00000000 		.4byte	.LFB55
 14420 03bc 0C000000 		.4byte	.LFE55
 14421 03c0 00000000 		.4byte	.LFB56
 14422 03c4 0A000000 		.4byte	.LFE56
 14423 03c8 00000000 		.4byte	.LFB37
 14424 03cc 04000000 		.4byte	.LFE37
 14425 03d0 00000000 		.4byte	.LFB38
 14426 03d4 04000000 		.4byte	.LFE38
 14427 03d8 00000000 		.4byte	.LFB39
 14428 03dc 04000000 		.4byte	.LFE39
 14429 03e0 00000000 		.4byte	.LFB40
 14430 03e4 04000000 		.4byte	.LFE40
 14431 03e8 00000000 		.4byte	.LFB41
 14432 03ec 6C000000 		.4byte	.LFE41
 14433 03f0 00000000 		.4byte	.LFB42
 14434 03f4 1C000000 		.4byte	.LFE42
 14435 03f8 00000000 		.4byte	.LFB43
 14436 03fc 1C000000 		.4byte	.LFE43
 14437 0400 00000000 		.4byte	.LFB44
 14438 0404 9C000000 		.4byte	.LFE44
 14439 0408 00000000 		.4byte	.LFB45
 14440 040c 84000000 		.4byte	.LFE45
 14441 0410 00000000 		.4byte	.LFB46
 14442 0414 CA000000 		.4byte	.LFE46
 14443 0418 00000000 		.4byte	.LFB47
 14444 041c E4000000 		.4byte	.LFE47
 14445 0420 00000000 		.4byte	.LFB48
 14446 0424 B2000000 		.4byte	.LFE48
 14447 0428 00000000 		.4byte	.LFB49
 14448 042c B8000000 		.4byte	.LFE49
 14449 0430 00000000 		.4byte	.LFB50
 14450 0434 AE010000 		.4byte	.LFE50
 14451 0438 00000000 		.4byte	.LFB51
 14452 043c D2000000 		.4byte	.LFE51
 14453 0440 00000000 		.4byte	.LFB52
 14454 0444 5C020000 		.4byte	.LFE52
ARM GAS  /tmp/ccUc3O3E.s 			page 255


 14455 0448 00000000 		.4byte	.LFB57
 14456 044c 30000000 		.4byte	.LFE57
 14457 0450 00000000 		.4byte	0
 14458 0454 00000000 		.4byte	0
 14459              		.section	.debug_line,"",%progbits
 14460              	.Ldebug_line0:
 14461 0000 7C090000 		.section	.debug_str,"MS",%progbits,1
 14461      02007201 
 14461      00000201 
 14461      FB0E0D00 
 14461      01010101 
 14462              	.LASF175:
 14463 0000 746F6B5F 		.ascii	"tok_symbol\000"
 14463      73796D62 
 14463      6F6C00
 14464              	.LASF152:
 14465 000b 7065656B 		.ascii	"peek_string\000"
 14465      5F737472 
 14465      696E6700 
 14466              	.LASF151:
 14467 0017 73796D5F 		.ascii	"sym_str\000"
 14467      73747200 
 14468              	.LASF37:
 14469 001f 5F6F6E5F 		.ascii	"_on_exit_args\000"
 14469      65786974 
 14469      5F617267 
 14469      7300
 14470              	.LASF182:
 14471 002d 63686172 		.ascii	"char_pos\000"
 14471      5F706F73 
 14471      00
 14472              	.LASF105:
 14473 0036 5F776374 		.ascii	"_wctomb_state\000"
 14473      6F6D625F 
 14473      73746174 
 14473      6500
 14474              	.LASF189:
 14475 0044 6C626D5F 		.ascii	"lbm_enc_sym\000"
 14475      656E635F 
 14475      73796D00 
 14476              	.LASF133:
 14477 0050 6D6F7265 		.ascii	"more\000"
 14477      00
 14478              	.LASF102:
 14479 0055 5F723438 		.ascii	"_r48\000"
 14479      00
 14480              	.LASF164:
 14481 005a 66627566 		.ascii	"fbuf\000"
 14481      00
 14482              	.LASF107:
 14483 005f 5F736967 		.ascii	"_signal_buf\000"
 14483      6E616C5F 
 14483      62756600 
 14484              	.LASF10:
 14485 006b 756E7369 		.ascii	"unsigned int\000"
 14485      676E6564 
 14485      20696E74 
ARM GAS  /tmp/ccUc3O3E.s 			page 256


 14485      00
 14486              	.LASF181:
 14487 0078 6D617463 		.ascii	"match_str\000"
 14487      685F7374 
 14487      7200
 14488              	.LASF51:
 14489 0082 5F6C6266 		.ascii	"_lbfsize\000"
 14489      73697A65 
 14489      00
 14490              	.LASF49:
 14491 008b 5F666C61 		.ascii	"_flags\000"
 14491      677300
 14492              	.LASF5:
 14493 0092 5F5F696E 		.ascii	"__int32_t\000"
 14493      7433325F 
 14493      7400
 14494              	.LASF160:
 14495 009c 636C6561 		.ascii	"clean_whitespace\000"
 14495      6E5F7768 
 14495      69746573 
 14495      70616365 
 14495      00
 14496              	.LASF66:
 14497 00ad 5F657272 		.ascii	"_errno\000"
 14497      6E6F00
 14498              	.LASF63:
 14499 00b4 5F6D6273 		.ascii	"_mbstate\000"
 14499      74617465 
 14499      00
 14500              	.LASF143:
 14501 00bd 6C626D5F 		.ascii	"lbm_array_header_t\000"
 14501      61727261 
 14501      795F6865 
 14501      61646572 
 14501      5F7400
 14502              	.LASF53:
 14503 00d0 5F726561 		.ascii	"_read\000"
 14503      6400
 14504              	.LASF109:
 14505 00d6 5F6D6272 		.ascii	"_mbrlen_state\000"
 14505      6C656E5F 
 14505      73746174 
 14505      6500
 14506              	.LASF129:
 14507 00e4 6C626D5F 		.ascii	"lbm_float\000"
 14507      666C6F61 
 14507      7400
 14508              	.LASF197:
 14509 00ee 5F5F6275 		.ascii	"__builtin_memcpy\000"
 14509      696C7469 
 14509      6E5F6D65 
 14509      6D637079 
 14509      00
 14510              	.LASF157:
 14511 00ff 755F7661 		.ascii	"u_val\000"
 14511      6C00
 14512              	.LASF68:
ARM GAS  /tmp/ccUc3O3E.s 			page 257


 14513 0105 5F737464 		.ascii	"_stdout\000"
 14513      6F757400 
 14514              	.LASF204:
 14515 010d 6C697370 		.ascii	"lispBM/lispBM/src/tokpar.c\000"
 14515      424D2F6C 
 14515      69737042 
 14515      4D2F7372 
 14515      632F746F 
 14516              	.LASF13:
 14517 0128 5F66706F 		.ascii	"_fpos_t\000"
 14517      735F7400 
 14518              	.LASF44:
 14519 0130 5F666E73 		.ascii	"_fns\000"
 14519      00
 14520              	.LASF52:
 14521 0135 5F636F6F 		.ascii	"_cookie\000"
 14521      6B696500 
 14522              	.LASF26:
 14523 013d 5F426967 		.ascii	"_Bigint\000"
 14523      696E7400 
 14524              	.LASF137:
 14525 0145 6C626D5F 		.ascii	"lbm_tokenizer_char_stream_t\000"
 14525      746F6B65 
 14525      6E697A65 
 14525      725F6368 
 14525      61725F73 
 14526              	.LASF34:
 14527 0161 5F5F746D 		.ascii	"__tm_wday\000"
 14527      5F776461 
 14527      7900
 14528              	.LASF76:
 14529 016b 5F726573 		.ascii	"_result\000"
 14529      756C7400 
 14530              	.LASF123:
 14531 0173 75696E74 		.ascii	"uint32_t\000"
 14531      33325F74 
 14531      00
 14532              	.LASF163:
 14533 017c 746F6B5F 		.ascii	"tok_F\000"
 14533      4600
 14534              	.LASF30:
 14535 0182 5F5F746D 		.ascii	"__tm_hour\000"
 14535      5F686F75 
 14535      7200
 14536              	.LASF169:
 14537 018c 746F6B5F 		.ascii	"tok_I\000"
 14537      4900
 14538              	.LASF17:
 14539 0192 5F5F636F 		.ascii	"__count\000"
 14539      756E7400 
 14540              	.LASF198:
 14541 019a 6C626D5F 		.ascii	"lbm_add_symbol\000"
 14541      6164645F 
 14541      73796D62 
 14541      6F6C00
 14542              	.LASF130:
 14543 01a9 666C6F61 		.ascii	"float\000"
ARM GAS  /tmp/ccUc3O3E.s 			page 258


 14543      7400
 14544              	.LASF179:
 14545 01af 746F6B5F 		.ascii	"tok_match_fixed_size_tokens\000"
 14545      6D617463 
 14545      685F6669 
 14545      7865645F 
 14545      73697A65 
 14546              	.LASF29:
 14547 01cb 5F5F746D 		.ascii	"__tm_min\000"
 14547      5F6D696E 
 14547      00
 14548              	.LASF120:
 14549 01d4 5F696D70 		.ascii	"_impure_ptr\000"
 14549      7572655F 
 14549      70747200 
 14550              	.LASF162:
 14551 01e0 73796D62 		.ascii	"symbol_id\000"
 14551      6F6C5F69 
 14551      6400
 14552              	.LASF115:
 14553 01ea 5F6E6578 		.ascii	"_nextf\000"
 14553      746600
 14554              	.LASF170:
 14555 01f1 746F6B5F 		.ascii	"tok_i\000"
 14555      6900
 14556              	.LASF203:
 14557 01f7 474E5520 		.ascii	"GNU C99 7.3.1 20180622 (release) [ARM/embedded-7-br"
 14557      43393920 
 14557      372E332E 
 14557      31203230 
 14557      31383036 
 14558 022a 616E6368 		.ascii	"anch revision 261907] -mcpu=cortex-m4 -mfloat-abi=h"
 14558      20726576 
 14558      6973696F 
 14558      6E203236 
 14558      31393037 
 14559 025d 61726420 		.ascii	"ard -mfpu=fpv4-sp-d16 -mno-thumb-interwork -mthumb "
 14559      2D6D6670 
 14559      753D6670 
 14559      76342D73 
 14559      702D6431 
 14560 0290 2D676764 		.ascii	"-ggdb -O2 -std=gnu99 -fomit-frame-pointer -falign-f"
 14560      62202D4F 
 14560      32202D73 
 14560      74643D67 
 14560      6E753939 
 14561 02c3 756E6374 		.ascii	"unctions=16 -ffunction-sections -fdata-sections -fn"
 14561      696F6E73 
 14561      3D313620 
 14561      2D666675 
 14561      6E637469 
 14562 02f6 6F2D636F 		.ascii	"o-common -fsingle-precision-constant\000"
 14562      6D6D6F6E 
 14562      202D6673 
 14562      696E676C 
 14562      652D7072 
 14563              	.LASF92:
ARM GAS  /tmp/ccUc3O3E.s 			page 259


 14564 031b 5F72616E 		.ascii	"_rand48\000"
 14564      64343800 
 14565              	.LASF185:
 14566 0323 6C626D5F 		.ascii	"lbm_enc_U\000"
 14566      656E635F 
 14566      5500
 14567              	.LASF192:
 14568 032d 6C626D5F 		.ascii	"lbm_heap_allocate_array\000"
 14568      68656170 
 14568      5F616C6C 
 14568      6F636174 
 14568      655F6172 
 14569              	.LASF77:
 14570 0345 5F726573 		.ascii	"_result_k\000"
 14570      756C745F 
 14570      6B00
 14571              	.LASF168:
 14572 034f 746F6B5F 		.ascii	"tok_u\000"
 14572      7500
 14573              	.LASF9:
 14574 0355 6C6F6E67 		.ascii	"long long unsigned int\000"
 14574      206C6F6E 
 14574      6720756E 
 14574      7369676E 
 14574      65642069 
 14575              	.LASF146:
 14576 036c 6D617463 		.ascii	"match_table\000"
 14576      685F7461 
 14576      626C6500 
 14577              	.LASF98:
 14578 0378 5F617363 		.ascii	"_asctime_buf\000"
 14578      74696D65 
 14578      5F627566 
 14578      00
 14579              	.LASF48:
 14580 0385 5F5F7346 		.ascii	"__sFILE\000"
 14580      494C4500 
 14581              	.LASF25:
 14582 038d 5F776473 		.ascii	"_wds\000"
 14582      00
 14583              	.LASF177:
 14584 0392 616C6C6F 		.ascii	"allowed\000"
 14584      77656400 
 14585              	.LASF88:
 14586 039a 5F5F4649 		.ascii	"__FILE\000"
 14586      4C4500
 14587              	.LASF159:
 14588 03a1 665F7661 		.ascii	"f_val\000"
 14588      6C00
 14589              	.LASF60:
 14590 03a7 5F6F6666 		.ascii	"_offset\000"
 14590      73657400 
 14591              	.LASF190:
 14592 03af 6C626D5F 		.ascii	"lbm_set_ptr_type\000"
 14592      7365745F 
 14592      7074725F 
 14592      74797065 
ARM GAS  /tmp/ccUc3O3E.s 			page 260


 14592      00
 14593              	.LASF71:
 14594 03c0 5F656D65 		.ascii	"_emergency\000"
 14594      7267656E 
 14594      637900
 14595              	.LASF187:
 14596 03cb 6C626D5F 		.ascii	"lbm_enc_u\000"
 14596      656E635F 
 14596      7500
 14597              	.LASF191:
 14598 03d5 6C626D5F 		.ascii	"lbm_type_of\000"
 14598      74797065 
 14598      5F6F6600 
 14599              	.LASF125:
 14600 03e1 6C626D5F 		.ascii	"lbm_value\000"
 14600      76616C75 
 14600      6500
 14601              	.LASF28:
 14602 03eb 5F5F746D 		.ascii	"__tm_sec\000"
 14602      5F736563 
 14602      00
 14603              	.LASF138:
 14604 03f4 7375626F 		.ascii	"suboptarg\000"
 14604      70746172 
 14604      6700
 14605              	.LASF35:
 14606 03fe 5F5F746D 		.ascii	"__tm_yday\000"
 14606      5F796461 
 14606      7900
 14607              	.LASF70:
 14608 0408 5F696E63 		.ascii	"_inc\000"
 14608      00
 14609              	.LASF43:
 14610 040d 5F696E64 		.ascii	"_ind\000"
 14610      00
 14611              	.LASF174:
 14612 0412 746F6B5F 		.ascii	"tok_string\000"
 14612      73747269 
 14612      6E6700
 14613              	.LASF155:
 14614 041d 6C626D5F 		.ascii	"lbm_get_next_token\000"
 14614      6765745F 
 14614      6E657874 
 14614      5F746F6B 
 14614      656E00
 14615              	.LASF22:
 14616 0430 5F6E6578 		.ascii	"_next\000"
 14616      7400
 14617              	.LASF111:
 14618 0436 5F6D6273 		.ascii	"_mbsrtowcs_state\000"
 14618      72746F77 
 14618      63735F73 
 14618      74617465 
 14618      00
 14619              	.LASF18:
 14620 0447 5F5F7661 		.ascii	"__value\000"
 14620      6C756500 
ARM GAS  /tmp/ccUc3O3E.s 			page 261


 14621              	.LASF78:
 14622 044f 5F703573 		.ascii	"_p5s\000"
 14622      00
 14623              	.LASF173:
 14624 0454 636F756E 		.ascii	"count\000"
 14624      7400
 14625              	.LASF206:
 14626 045a 636C6561 		.ascii	"clear_sym_str\000"
 14626      725F7379 
 14626      6D5F7374 
 14626      7200
 14627              	.LASF113:
 14628 0468 5F776373 		.ascii	"_wcsrtombs_state\000"
 14628      72746F6D 
 14628      62735F73 
 14628      74617465 
 14628      00
 14629              	.LASF103:
 14630 0479 5F6D626C 		.ascii	"_mblen_state\000"
 14630      656E5F73 
 14630      74617465 
 14630      00
 14631              	.LASF87:
 14632 0486 63686172 		.ascii	"char\000"
 14632      00
 14633              	.LASF31:
 14634 048b 5F5F746D 		.ascii	"__tm_mday\000"
 14634      5F6D6461 
 14634      7900
 14635              	.LASF84:
 14636 0495 5F736967 		.ascii	"_sig_func\000"
 14636      5F66756E 
 14636      6300
 14637              	.LASF110:
 14638 049f 5F6D6272 		.ascii	"_mbrtowc_state\000"
 14638      746F7763 
 14638      5F737461 
 14638      746500
 14639              	.LASF83:
 14640 04ae 5F617465 		.ascii	"_atexit0\000"
 14640      78697430 
 14640      00
 14641              	.LASF167:
 14642 04b7 746F6B5F 		.ascii	"tok_U\000"
 14642      5500
 14643              	.LASF148:
 14644 04bd 73747269 		.ascii	"string\000"
 14644      6E6700
 14645              	.LASF156:
 14646 04c4 695F7661 		.ascii	"i_val\000"
 14646      6C00
 14647              	.LASF20:
 14648 04ca 5F666C6F 		.ascii	"_flock_t\000"
 14648      636B5F74 
 14648      00
 14649              	.LASF15:
 14650 04d3 5F5F7763 		.ascii	"__wch\000"
ARM GAS  /tmp/ccUc3O3E.s 			page 262


 14650      6800
 14651              	.LASF91:
 14652 04d9 5F696F62 		.ascii	"_iobs\000"
 14652      7300
 14653              	.LASF180:
 14654 04df 746F6B5F 		.ascii	"tok_len\000"
 14654      6C656E00 
 14655              	.LASF56:
 14656 04e7 5F636C6F 		.ascii	"_close\000"
 14656      736500
 14657              	.LASF74:
 14658 04ee 5F5F7364 		.ascii	"__sdidinit\000"
 14658      6964696E 
 14658      697400
 14659              	.LASF154:
 14660 04f9 6D6F7265 		.ascii	"more_string\000"
 14660      5F737472 
 14660      696E6700 
 14661              	.LASF67:
 14662 0505 5F737464 		.ascii	"_stdin\000"
 14662      696E00
 14663              	.LASF100:
 14664 050c 5F67616D 		.ascii	"_gamma_signgam\000"
 14664      6D615F73 
 14664      69676E67 
 14664      616D00
 14665              	.LASF8:
 14666 051b 6C6F6E67 		.ascii	"long long int\000"
 14666      206C6F6E 
 14666      6720696E 
 14666      7400
 14667              	.LASF171:
 14668 0529 6E64726F 		.ascii	"ndrop\000"
 14668      7000
 14669              	.LASF46:
 14670 052f 5F626173 		.ascii	"_base\000"
 14670      6500
 14671              	.LASF79:
 14672 0535 5F667265 		.ascii	"_freelist\000"
 14672      656C6973 
 14672      7400
 14673              	.LASF94:
 14674 053f 5F6D756C 		.ascii	"_mult\000"
 14674      7400
 14675              	.LASF21:
 14676 0545 5F5F554C 		.ascii	"__ULong\000"
 14676      6F6E6700 
 14677              	.LASF112:
 14678 054d 5F776372 		.ascii	"_wcrtomb_state\000"
 14678      746F6D62 
 14678      5F737461 
 14678      746500
 14679              	.LASF131:
 14680 055c 6C626D5F 		.ascii	"lbm_tcs\000"
 14680      74637300 
 14681              	.LASF50:
 14682 0564 5F66696C 		.ascii	"_file\000"
ARM GAS  /tmp/ccUc3O3E.s 			page 263


 14682      6500
 14683              	.LASF126:
 14684 056a 6C626D5F 		.ascii	"lbm_type\000"
 14684      74797065 
 14684      00
 14685              	.LASF158:
 14686 0573 635F7661 		.ascii	"c_val\000"
 14686      6C00
 14687              	.LASF161:
 14688 0579 6D617463 		.ascii	"match\000"
 14688      6800
 14689              	.LASF194:
 14690 057f 6D656D73 		.ascii	"memset\000"
 14690      657400
 14691              	.LASF75:
 14692 0586 5F5F636C 		.ascii	"__cleanup\000"
 14692      65616E75 
 14692      7000
 14693              	.LASF19:
 14694 0590 5F6D6273 		.ascii	"_mbstate_t\000"
 14694      74617465 
 14694      5F7400
 14695              	.LASF141:
 14696 059b 73697A65 		.ascii	"size\000"
 14696      00
 14697              	.LASF36:
 14698 05a0 5F5F746D 		.ascii	"__tm_isdst\000"
 14698      5F697364 
 14698      737400
 14699              	.LASF114:
 14700 05ab 5F685F65 		.ascii	"_h_errno\000"
 14700      72726E6F 
 14700      00
 14701              	.LASF200:
 14702 05b4 6C626D5F 		.ascii	"lbm_cons\000"
 14702      636F6E73 
 14702      00
 14703              	.LASF136:
 14704 05bd 5F426F6F 		.ascii	"_Bool\000"
 14704      6C00
 14705              	.LASF142:
 14706 05c3 64617461 		.ascii	"data\000"
 14706      00
 14707              	.LASF205:
 14708 05c8 2F626C64 		.ascii	"/bldc\000"
 14708      6300
 14709              	.LASF32:
 14710 05ce 5F5F746D 		.ascii	"__tm_mon\000"
 14710      5F6D6F6E 
 14710      00
 14711              	.LASF139:
 14712 05d7 6C626D5F 		.ascii	"lbm_tokenizer_string_state_t\000"
 14712      746F6B65 
 14712      6E697A65 
 14712      725F7374 
 14712      72696E67 
 14713              	.LASF11:
ARM GAS  /tmp/ccUc3O3E.s 			page 264


 14714 05f4 5F4C4F43 		.ascii	"_LOCK_T\000"
 14714      4B5F5400 
 14715              	.LASF144:
 14716 05fc 746F6B65 		.ascii	"token\000"
 14716      6E00
 14717              	.LASF54:
 14718 0602 5F777269 		.ascii	"_write\000"
 14718      746500
 14719              	.LASF127:
 14720 0609 6C626D5F 		.ascii	"lbm_uint\000"
 14720      75696E74 
 14720      00
 14721              	.LASF193:
 14722 0612 6C626D5F 		.ascii	"lbm_car\000"
 14722      63617200 
 14723              	.LASF134:
 14724 061a 7065656B 		.ascii	"peek\000"
 14724      00
 14725              	.LASF42:
 14726 061f 5F617465 		.ascii	"_atexit\000"
 14726      78697400 
 14727              	.LASF2:
 14728 0627 73686F72 		.ascii	"short int\000"
 14728      7420696E 
 14728      7400
 14729              	.LASF145:
 14730 0631 6D617463 		.ascii	"matcher\000"
 14730      68657200 
 14731              	.LASF153:
 14732 0639 6765745F 		.ascii	"get_string\000"
 14732      73747269 
 14732      6E6700
 14733              	.LASF4:
 14734 0644 6C6F6E67 		.ascii	"long int\000"
 14734      20696E74 
 14734      00
 14735              	.LASF165:
 14736 064d 6E656761 		.ascii	"negative\000"
 14736      74697665 
 14736      00
 14737              	.LASF86:
 14738 0656 5F5F7366 		.ascii	"__sf\000"
 14738      00
 14739              	.LASF24:
 14740 065b 5F736967 		.ascii	"_sign\000"
 14740      6E00
 14741              	.LASF184:
 14742 0661 6C626D5F 		.ascii	"lbm_enc_F\000"
 14742      656E635F 
 14742      4600
 14743              	.LASF186:
 14744 066b 6C626D5F 		.ascii	"lbm_enc_I\000"
 14744      656E635F 
 14744      4900
 14745              	.LASF61:
 14746 0675 5F646174 		.ascii	"_data\000"
 14746      6100
ARM GAS  /tmp/ccUc3O3E.s 			page 265


 14747              	.LASF16:
 14748 067b 5F5F7763 		.ascii	"__wchb\000"
 14748      686200
 14749              	.LASF121:
 14750 0682 5F676C6F 		.ascii	"_global_impure_ptr\000"
 14750      62616C5F 
 14750      696D7075 
 14750      72655F70 
 14750      747200
 14751              	.LASF176:
 14752 0695 73796D63 		.ascii	"symchar\000"
 14752      68617200 
 14753              	.LASF33:
 14754 069d 5F5F746D 		.ascii	"__tm_year\000"
 14754      5F796561 
 14754      7200
 14755              	.LASF147:
 14756 06a7 63686172 		.ascii	"char_stream\000"
 14756      5F737472 
 14756      65616D00 
 14757              	.LASF99:
 14758 06b3 5F6C6F63 		.ascii	"_localtime_buf\000"
 14758      616C7469 
 14758      6D655F62 
 14758      756600
 14759              	.LASF188:
 14760 06c2 6C626D5F 		.ascii	"lbm_enc_i\000"
 14760      656E635F 
 14760      6900
 14761              	.LASF117:
 14762 06cc 5F756E75 		.ascii	"_unused\000"
 14762      73656400 
 14763              	.LASF82:
 14764 06d4 5F6E6577 		.ascii	"_new\000"
 14764      00
 14765              	.LASF80:
 14766 06d9 5F637674 		.ascii	"_cvtlen\000"
 14766      6C656E00 
 14767              	.LASF23:
 14768 06e1 5F6D6178 		.ascii	"_maxwds\000"
 14768      77647300 
 14769              	.LASF106:
 14770 06e9 5F6C3634 		.ascii	"_l64a_buf\000"
 14770      615F6275 
 14770      6600
 14771              	.LASF132:
 14772 06f3 73746174 		.ascii	"state\000"
 14772      6500
 14773              	.LASF196:
 14774 06f9 5F5F6275 		.ascii	"__builtin_memset\000"
 14774      696C7469 
 14774      6E5F6D65 
 14774      6D736574 
 14774      00
 14775              	.LASF59:
 14776 070a 5F626C6B 		.ascii	"_blksize\000"
 14776      73697A65 
ARM GAS  /tmp/ccUc3O3E.s 			page 266


 14776      00
 14777              	.LASF27:
 14778 0713 5F5F746D 		.ascii	"__tm\000"
 14778      00
 14779              	.LASF62:
 14780 0718 5F6C6F63 		.ascii	"_lock\000"
 14780      6B00
 14781              	.LASF7:
 14782 071e 6C6F6E67 		.ascii	"long unsigned int\000"
 14782      20756E73 
 14782      69676E65 
 14782      6420696E 
 14782      7400
 14783              	.LASF90:
 14784 0730 5F6E696F 		.ascii	"_niobs\000"
 14784      627300
 14785              	.LASF14:
 14786 0737 77696E74 		.ascii	"wint_t\000"
 14786      5F7400
 14787              	.LASF122:
 14788 073e 696E7433 		.ascii	"int32_t\000"
 14788      325F7400 
 14789              	.LASF140:
 14790 0746 656C745F 		.ascii	"elt_type\000"
 14790      74797065 
 14790      00
 14791              	.LASF39:
 14792 074f 5F64736F 		.ascii	"_dso_handle\000"
 14792      5F68616E 
 14792      646C6500 
 14793              	.LASF118:
 14794 075b 5F5F6C6F 		.ascii	"__lock\000"
 14794      636B00
 14795              	.LASF199:
 14796 0762 6C626D5F 		.ascii	"lbm_get_symbol_by_name\000"
 14796      6765745F 
 14796      73796D62 
 14796      6F6C5F62 
 14796      795F6E61 
 14797              	.LASF81:
 14798 0779 5F637674 		.ascii	"_cvtbuf\000"
 14798      62756600 
 14799              	.LASF1:
 14800 0781 756E7369 		.ascii	"unsigned char\000"
 14800      676E6564 
 14800      20636861 
 14800      7200
 14801              	.LASF6:
 14802 078f 5F5F7569 		.ascii	"__uint32_t\000"
 14802      6E743332 
 14802      5F7400
 14803              	.LASF108:
 14804 079a 5F676574 		.ascii	"_getdate_err\000"
 14804      64617465 
 14804      5F657272 
 14804      00
 14805              	.LASF178:
ARM GAS  /tmp/ccUc3O3E.s 			page 267


 14806 07a7 73796D63 		.ascii	"symchar0\000"
 14806      68617230 
 14806      00
 14807              	.LASF166:
 14808 07b0 76616C69 		.ascii	"valid_num\000"
 14808      645F6E75 
 14808      6D00
 14809              	.LASF202:
 14810 07ba 73747274 		.ascii	"strtod\000"
 14810      6F6400
 14811              	.LASF95:
 14812 07c1 5F616464 		.ascii	"_add\000"
 14812      00
 14813              	.LASF135:
 14814 07c6 64726F70 		.ascii	"drop\000"
 14814      00
 14815              	.LASF45:
 14816 07cb 5F5F7362 		.ascii	"__sbuf\000"
 14816      756600
 14817              	.LASF149:
 14818 07d2 6C626D5F 		.ascii	"lbm_create_char_stream_from_string\000"
 14818      63726561 
 14818      74655F63 
 14818      6861725F 
 14818      73747265 
 14819              	.LASF128:
 14820 07f5 6C626D5F 		.ascii	"lbm_int\000"
 14820      696E7400 
 14821              	.LASF89:
 14822 07fd 5F676C75 		.ascii	"_glue\000"
 14822      6500
 14823              	.LASF85:
 14824 0803 5F5F7367 		.ascii	"__sglue\000"
 14824      6C756500 
 14825              	.LASF97:
 14826 080b 5F737472 		.ascii	"_strtok_last\000"
 14826      746F6B5F 
 14826      6C617374 
 14826      00
 14827              	.LASF104:
 14828 0818 5F6D6274 		.ascii	"_mbtowc_state\000"
 14828      6F77635F 
 14828      73746174 
 14828      6500
 14829              	.LASF183:
 14830 0826 6C626D5F 		.ascii	"lbm_enc_char\000"
 14830      656E635F 
 14830      63686172 
 14830      00
 14831              	.LASF73:
 14832 0833 5F6C6F63 		.ascii	"_locale\000"
 14832      616C6500 
 14833              	.LASF124:
 14834 083b 5F637479 		.ascii	"_ctype_\000"
 14834      70655F00 
 14835              	.LASF38:
 14836 0843 5F666E61 		.ascii	"_fnargs\000"
ARM GAS  /tmp/ccUc3O3E.s 			page 268


 14836      72677300 
 14837              	.LASF0:
 14838 084b 7369676E 		.ascii	"signed char\000"
 14838      65642063 
 14838      68617200 
 14839              	.LASF150:
 14840 0857 64726F70 		.ascii	"drop_string\000"
 14840      5F737472 
 14840      696E6700 
 14841              	.LASF65:
 14842 0863 5F726565 		.ascii	"_reent\000"
 14842      6E7400
 14843              	.LASF3:
 14844 086a 73686F72 		.ascii	"short unsigned int\000"
 14844      7420756E 
 14844      7369676E 
 14844      65642069 
 14844      6E7400
 14845              	.LASF195:
 14846 087d 6D656D63 		.ascii	"memcpy\000"
 14846      707900
 14847              	.LASF40:
 14848 0884 5F666E74 		.ascii	"_fntypes\000"
 14848      79706573 
 14848      00
 14849              	.LASF47:
 14850 088d 5F73697A 		.ascii	"_size\000"
 14850      6500
 14851              	.LASF12:
 14852 0893 5F6F6666 		.ascii	"_off_t\000"
 14852      5F7400
 14853              	.LASF58:
 14854 089a 5F6E6275 		.ascii	"_nbuf\000"
 14854      6600
 14855              	.LASF96:
 14856 08a0 5F756E75 		.ascii	"_unused_rand\000"
 14856      7365645F 
 14856      72616E64 
 14856      00
 14857              	.LASF172:
 14858 08ad 746F6B5F 		.ascii	"tok_char\000"
 14858      63686172 
 14858      00
 14859              	.LASF201:
 14860 08b6 5F5F6C6F 		.ascii	"__locale_ctype_ptr\000"
 14860      63616C65 
 14860      5F637479 
 14860      70655F70 
 14860      747200
 14861              	.LASF72:
 14862 08c9 5F756E73 		.ascii	"_unspecified_locale_info\000"
 14862      70656369 
 14862      66696564 
 14862      5F6C6F63 
 14862      616C655F 
 14863              	.LASF64:
 14864 08e2 5F666C61 		.ascii	"_flags2\000"
ARM GAS  /tmp/ccUc3O3E.s 			page 269


 14864      67733200 
 14865              	.LASF41:
 14866 08ea 5F69735F 		.ascii	"_is_cxa\000"
 14866      63786100 
 14867              	.LASF93:
 14868 08f2 5F736565 		.ascii	"_seed\000"
 14868      6400
 14869              	.LASF101:
 14870 08f8 5F72616E 		.ascii	"_rand_next\000"
 14870      645F6E65 
 14870      787400
 14871              	.LASF119:
 14872 0903 5F5F6C6F 		.ascii	"__locale_t\000"
 14872      63616C65 
 14872      5F7400
 14873              	.LASF55:
 14874 090e 5F736565 		.ascii	"_seek\000"
 14874      6B00
 14875              	.LASF69:
 14876 0914 5F737464 		.ascii	"_stderr\000"
 14876      65727200 
 14877              	.LASF116:
 14878 091c 5F6E6D61 		.ascii	"_nmalloc\000"
 14878      6C6C6F63 
 14878      00
 14879              	.LASF57:
 14880 0925 5F756275 		.ascii	"_ubuf\000"
 14880      6600
 14881              		.ident	"GCC: (GNU Tools for Arm Embedded Processors 7-2018-q3-update) 7.3.1 20180622 (release) [AR
ARM GAS  /tmp/ccUc3O3E.s 			page 270


DEFINED SYMBOLS
                            *ABS*:0000000000000000 tokpar.c
     /tmp/ccUc3O3E.s:18     .text.more_string:0000000000000000 $t
     /tmp/ccUc3O3E.s:26     .text.more_string:0000000000000000 more_string
     /tmp/ccUc3O3E.s:52     .text.get_string:0000000000000000 $t
     /tmp/ccUc3O3E.s:60     .text.get_string:0000000000000000 get_string
     /tmp/ccUc3O3E.s:84     .text.peek_string:0000000000000000 $t
     /tmp/ccUc3O3E.s:92     .text.peek_string:0000000000000000 peek_string
     /tmp/ccUc3O3E.s:116    .text.drop_string:0000000000000000 $t
     /tmp/ccUc3O3E.s:124    .text.drop_string:0000000000000000 drop_string
     /tmp/ccUc3O3E.s:146    .text.more:0000000000000000 $t
     /tmp/ccUc3O3E.s:154    .text.more:0000000000000000 more
     /tmp/ccUc3O3E.s:170    .text.get:0000000000000000 $t
     /tmp/ccUc3O3E.s:178    .text.get:0000000000000000 get
     /tmp/ccUc3O3E.s:194    .text.peek:0000000000000000 $t
     /tmp/ccUc3O3E.s:202    .text.peek:0000000000000000 peek
     /tmp/ccUc3O3E.s:218    .text.drop:0000000000000000 $t
     /tmp/ccUc3O3E.s:226    .text.drop:0000000000000000 drop
     /tmp/ccUc3O3E.s:242    .text.tok_match_fixed_size_tokens:0000000000000000 $t
     /tmp/ccUc3O3E.s:250    .text.tok_match_fixed_size_tokens:0000000000000000 tok_match_fixed_size_tokens
     /tmp/ccUc3O3E.s:355    .text.tok_match_fixed_size_tokens:0000000000000064 $d
     /tmp/ccUc3O3E.s:363    .text.symchar0:0000000000000000 $t
     /tmp/ccUc3O3E.s:371    .text.symchar0:0000000000000000 symchar0
     /tmp/ccUc3O3E.s:406    .text.symchar0:0000000000000018 $d
     /tmp/ccUc3O3E.s:411    .text.symchar:0000000000000000 $t
     /tmp/ccUc3O3E.s:419    .text.symchar:0000000000000000 symchar
     /tmp/ccUc3O3E.s:454    .text.symchar:0000000000000018 $d
     /tmp/ccUc3O3E.s:459    .text.tok_symbol:0000000000000000 $t
     /tmp/ccUc3O3E.s:467    .text.tok_symbol:0000000000000000 tok_symbol
     /tmp/ccUc3O3E.s:639    .text.tok_symbol:0000000000000090 $d
     /tmp/ccUc3O3E.s:648    .text.tok_string:0000000000000000 $t
     /tmp/ccUc3O3E.s:656    .text.tok_string:0000000000000000 tok_string
     /tmp/ccUc3O3E.s:840    .text.tok_string:0000000000000080 $d
     /tmp/ccUc3O3E.s:847    .text.tok_char:0000000000000000 $t
     /tmp/ccUc3O3E.s:855    .text.tok_char:0000000000000000 tok_char
     /tmp/ccUc3O3E.s:1122   .text.tok_i:0000000000000000 $t
     /tmp/ccUc3O3E.s:1130   .text.tok_i:0000000000000000 tok_i
     /tmp/ccUc3O3E.s:1423   .text.tok_I:0000000000000000 $t
     /tmp/ccUc3O3E.s:1431   .text.tok_I:0000000000000000 tok_I
     /tmp/ccUc3O3E.s:1664   .text.tok_u:0000000000000000 $t
     /tmp/ccUc3O3E.s:1672   .text.tok_u:0000000000000000 tok_u
     /tmp/ccUc3O3E.s:1897   .text.tok_U:0000000000000000 $t
     /tmp/ccUc3O3E.s:1905   .text.tok_U:0000000000000000 tok_U
     /tmp/ccUc3O3E.s:2445   .text.tok_F:0000000000000000 $t
     /tmp/ccUc3O3E.s:2453   .text.tok_F:0000000000000000 tok_F
     /tmp/ccUc3O3E.s:2716   .text.lbm_get_next_token:0000000000000000 $t
     /tmp/ccUc3O3E.s:2724   .text.lbm_get_next_token:0000000000000000 lbm_get_next_token
     /tmp/ccUc3O3E.s:2894   .text.lbm_get_next_token:000000000000007c $d
     /tmp/ccUc3O3E.s:3316   .text.lbm_get_next_token:0000000000000258 $d
     /tmp/ccUc3O3E.s:3322   .text.lbm_create_char_stream_from_string:0000000000000000 $t
     /tmp/ccUc3O3E.s:3330   .text.lbm_create_char_stream_from_string:0000000000000000 lbm_create_char_stream_from_string
     /tmp/ccUc3O3E.s:3371   .text.lbm_create_char_stream_from_string:0000000000000020 $d
     /tmp/ccUc3O3E.s:3391   .rodata.match_table:0000000000000000 match_table
     /tmp/ccUc3O3E.s:3380   .bss.sym_str:0000000000000000 $d
     /tmp/ccUc3O3E.s:3384   .bss.sym_str:0000000000000000 sym_str
     /tmp/ccUc3O3E.s:3387   .rodata.match_table:0000000000000000 $d
     /tmp/ccUc3O3E.s:3438   .rodata.str1.4:0000000000000000 $d
ARM GAS  /tmp/ccUc3O3E.s 			page 271


     /tmp/ccUc3O3E.s:3481   .rodata.symchar.str1.4:0000000000000000 $d
     /tmp/ccUc3O3E.s:3482   .rodata.symchar.str1.4:0000000000000000 .LC2
     /tmp/ccUc3O3E.s:3486   .rodata.symchar0.str1.4:0000000000000000 $d
     /tmp/ccUc3O3E.s:3487   .rodata.symchar0.str1.4:0000000000000000 .LC1
     /tmp/ccUc3O3E.s:3491   .rodata.tok_match_fixed_size_tokens.str1.4:0000000000000000 $d
     /tmp/ccUc3O3E.s:2918   .text.lbm_get_next_token:0000000000000093 $d
     /tmp/ccUc3O3E.s:2918   .text.lbm_get_next_token:0000000000000094 $t

UNDEFINED SYMBOLS
memset
__locale_ctype_ptr
__aeabi_d2f
strtod
lbm_heap_allocate_array
lbm_car
memcpy
lbm_add_symbol
lbm_cons
lbm_get_symbol_by_name
