ARM GAS  /tmp/ccUc3O3E.s 			page 1


   1              		.cpu cortex-m4
   2              		.eabi_attribute 27, 1
   3              		.eabi_attribute 28, 1
   4              		.eabi_attribute 20, 1
   5              		.eabi_attribute 21, 1
   6              		.eabi_attribute 23, 3
   7              		.eabi_attribute 24, 1
   8              		.eabi_attribute 25, 1
   9              		.eabi_attribute 26, 1
  10              		.eabi_attribute 30, 2
  11              		.eabi_attribute 34, 1
  12              		.eabi_attribute 18, 4
  13              		.file	"tokpar.c"
  14              		.text
  15              	.Ltext0:
  16              		.cfi_sections	.debug_frame
  17              		.section	.text.more_string,"ax",%progbits
  18              		.align	1
  19              		.p2align 4,,15
  20              		.global	more_string
  21              		.syntax unified
  22              		.thumb
  23              		.thumb_func
  24              		.fpu fpv4-sp-d16
  25              		.type	more_string, %function
  26              	more_string:
  27              	.LFB53:
  28              		.file 1 "lispBM/lispBM/src/tokpar.c"
  29              		.loc 1 602 0
  30              		.cfi_startproc
  31              		@ args = 0, pretend = 0, frame = 0
  32              		@ frame_needed = 0, uses_anonymous_args = 0
  33              		@ link register save eliminated.
  34              	.LVL0:
  35              		.loc 1 603 0
  36 0000 0368     		ldr	r3, [r0]
  37              	.LVL1:
  38              		.loc 1 605 0
  39 0002 D3E90023 		ldrd	r2, r3, [r3]
  40              	.LVL2:
  41 0006 D05C     		ldrb	r0, [r2, r3]	@ zero_extendqisi2
  42              	.LVL3:
  43              		.loc 1 606 0
  44 0008 0030     		adds	r0, r0, #0
  45 000a 18BF     		it	ne
  46 000c 0120     		movne	r0, #1
  47 000e 7047     		bx	lr
  48              		.cfi_endproc
  49              	.LFE53:
  50              		.size	more_string, .-more_string
  51              		.section	.text.get_string,"ax",%progbits
  52              		.align	1
  53              		.p2align 4,,15
  54              		.global	get_string
  55              		.syntax unified
  56              		.thumb
  57              		.thumb_func
ARM GAS  /tmp/ccUc3O3E.s 			page 2


  58              		.fpu fpv4-sp-d16
  59              		.type	get_string, %function
  60              	get_string:
  61              	.LFB54:
  62              		.loc 1 608 0
  63              		.cfi_startproc
  64              		@ args = 0, pretend = 0, frame = 0
  65              		@ frame_needed = 0, uses_anonymous_args = 0
  66              		@ link register save eliminated.
  67              	.LVL4:
  68              		.loc 1 609 0
  69 0000 0268     		ldr	r2, [r0]
  70              	.LVL5:
  71              		.loc 1 611 0
  72 0002 D2E90013 		ldrd	r1, r3, [r2]
  73 0006 C85C     		ldrb	r0, [r1, r3]	@ zero_extendqisi2
  74              	.LVL6:
  75              		.loc 1 612 0
  76 0008 0133     		adds	r3, r3, #1
  77 000a 5360     		str	r3, [r2, #4]
  78              		.loc 1 614 0
  79 000c 7047     		bx	lr
  80              		.cfi_endproc
  81              	.LFE54:
  82              		.size	get_string, .-get_string
  83 000e 00BF     		.section	.text.peek_string,"ax",%progbits
  84              		.align	1
  85              		.p2align 4,,15
  86              		.global	peek_string
  87              		.syntax unified
  88              		.thumb
  89              		.thumb_func
  90              		.fpu fpv4-sp-d16
  91              		.type	peek_string, %function
  92              	peek_string:
  93              	.LFB55:
  94              		.loc 1 616 0
  95              		.cfi_startproc
  96              		@ args = 0, pretend = 0, frame = 0
  97              		@ frame_needed = 0, uses_anonymous_args = 0
  98              		@ link register save eliminated.
  99              	.LVL7:
 100              		.loc 1 617 0
 101 0000 0268     		ldr	r2, [r0]
 102              	.LVL8:
 103              		.loc 1 620 0
 104 0002 D2E90032 		ldrd	r3, r2, [r2]
 105              	.LVL9:
 106 0006 1944     		add	r1, r1, r3
 107              	.LVL10:
 108              		.loc 1 622 0
 109 0008 885C     		ldrb	r0, [r1, r2]	@ zero_extendqisi2
 110              	.LVL11:
 111 000a 7047     		bx	lr
 112              		.cfi_endproc
 113              	.LFE55:
 114              		.size	peek_string, .-peek_string
ARM GAS  /tmp/ccUc3O3E.s 			page 3


 115              		.section	.text.drop_string,"ax",%progbits
 116              		.align	1
 117              		.p2align 4,,15
 118              		.global	drop_string
 119              		.syntax unified
 120              		.thumb
 121              		.thumb_func
 122              		.fpu fpv4-sp-d16
 123              		.type	drop_string, %function
 124              	drop_string:
 125              	.LFB56:
 126              		.loc 1 624 0
 127              		.cfi_startproc
 128              		@ args = 0, pretend = 0, frame = 0
 129              		@ frame_needed = 0, uses_anonymous_args = 0
 130              		@ link register save eliminated.
 131              	.LVL12:
 132              		.loc 1 625 0
 133 0000 0268     		ldr	r2, [r0]
 134              	.LVL13:
 135              		.loc 1 627 0
 136 0002 5368     		ldr	r3, [r2, #4]
 137 0004 1944     		add	r1, r1, r3
 138              	.LVL14:
 139 0006 5160     		str	r1, [r2, #4]
 140              		.loc 1 628 0
 141 0008 7047     		bx	lr
 142              		.cfi_endproc
 143              	.LFE56:
 144              		.size	drop_string, .-drop_string
 145 000a 00BF     		.section	.text.more,"ax",%progbits
 146              		.align	1
 147              		.p2align 4,,15
 148              		.global	more
 149              		.syntax unified
 150              		.thumb
 151              		.thumb_func
 152              		.fpu fpv4-sp-d16
 153              		.type	more, %function
 154              	more:
 155              	.LFB37:
 156              		.loc 1 110 0
 157              		.cfi_startproc
 158              		@ args = 0, pretend = 0, frame = 0
 159              		@ frame_needed = 0, uses_anonymous_args = 0
 160              		@ link register save eliminated.
 161              	.LVL15:
 162              		.loc 1 111 0
 163 0000 4368     		ldr	r3, [r0, #4]
 164 0002 1847     		bx	r3
 165              	.LVL16:
 166              		.cfi_endproc
 167              	.LFE37:
 168              		.size	more, .-more
 169              		.section	.text.get,"ax",%progbits
 170              		.align	1
 171              		.p2align 4,,15
ARM GAS  /tmp/ccUc3O3E.s 			page 4


 172              		.global	get
 173              		.syntax unified
 174              		.thumb
 175              		.thumb_func
 176              		.fpu fpv4-sp-d16
 177              		.type	get, %function
 178              	get:
 179              	.LFB38:
 180              		.loc 1 114 0
 181              		.cfi_startproc
 182              		@ args = 0, pretend = 0, frame = 0
 183              		@ frame_needed = 0, uses_anonymous_args = 0
 184              		@ link register save eliminated.
 185              	.LVL17:
 186              		.loc 1 115 0
 187 0000 8368     		ldr	r3, [r0, #8]
 188 0002 1847     		bx	r3
 189              	.LVL18:
 190              		.cfi_endproc
 191              	.LFE38:
 192              		.size	get, .-get
 193              		.section	.text.peek,"ax",%progbits
 194              		.align	1
 195              		.p2align 4,,15
 196              		.global	peek
 197              		.syntax unified
 198              		.thumb
 199              		.thumb_func
 200              		.fpu fpv4-sp-d16
 201              		.type	peek, %function
 202              	peek:
 203              	.LFB39:
 204              		.loc 1 118 0
 205              		.cfi_startproc
 206              		@ args = 0, pretend = 0, frame = 0
 207              		@ frame_needed = 0, uses_anonymous_args = 0
 208              		@ link register save eliminated.
 209              	.LVL19:
 210              		.loc 1 119 0
 211 0000 C368     		ldr	r3, [r0, #12]
 212 0002 1847     		bx	r3
 213              	.LVL20:
 214              		.cfi_endproc
 215              	.LFE39:
 216              		.size	peek, .-peek
 217              		.section	.text.drop,"ax",%progbits
 218              		.align	1
 219              		.p2align 4,,15
 220              		.global	drop
 221              		.syntax unified
 222              		.thumb
 223              		.thumb_func
 224              		.fpu fpv4-sp-d16
 225              		.type	drop, %function
 226              	drop:
 227              	.LFB40:
 228              		.loc 1 122 0
ARM GAS  /tmp/ccUc3O3E.s 			page 5


 229              		.cfi_startproc
 230              		@ args = 0, pretend = 0, frame = 0
 231              		@ frame_needed = 0, uses_anonymous_args = 0
 232              		@ link register save eliminated.
 233              	.LVL21:
 234              		.loc 1 123 0
 235 0000 0369     		ldr	r3, [r0, #16]
 236 0002 1847     		bx	r3	@ indirect register sibling call
 237              	.LVL22:
 238              		.cfi_endproc
 239              	.LFE40:
 240              		.size	drop, .-drop
 241              		.section	.text.tok_match_fixed_size_tokens,"ax",%progbits
 242              		.align	1
 243              		.p2align 4,,15
 244              		.global	tok_match_fixed_size_tokens
 245              		.syntax unified
 246              		.thumb
 247              		.thumb_func
 248              		.fpu fpv4-sp-d16
 249              		.type	tok_match_fixed_size_tokens, %function
 250              	tok_match_fixed_size_tokens:
 251              	.LFB41:
 252              		.loc 1 127 0
 253              		.cfi_startproc
 254              		@ args = 0, pretend = 0, frame = 0
 255              		@ frame_needed = 0, uses_anonymous_args = 0
 256              	.LVL23:
 257 0000 2DE9F047 		push	{r4, r5, r6, r7, r8, r9, r10, lr}
 258              		.cfi_def_cfa_offset 32
 259              		.cfi_offset 4, -32
 260              		.cfi_offset 5, -28
 261              		.cfi_offset 6, -24
 262              		.cfi_offset 7, -20
 263              		.cfi_offset 8, -16
 264              		.cfi_offset 9, -12
 265              		.cfi_offset 10, -8
 266              		.cfi_offset 14, -4
 267 0004 174F     		ldr	r7, .L23
 268              		.loc 1 127 0
 269 0006 184D     		ldr	r5, .L23+4
 270 0008 4FF00108 		mov	r8, #1
 271 000c 8246     		mov	r10, r0
 272 000e 07F1A809 		add	r9, r7, #168
 273              	.LVL24:
 274 0012 4646     		mov	r6, r8
 275              	.LVL25:
 276              	.L16:
 277 0014 013D     		subs	r5, r5, #1
 278              	.LBB306:
 279              	.LBB307:
 280              		.loc 1 135 0
 281 0016 0024     		movs	r4, #0
 282 0018 02E0     		b	.L12
 283              	.LVL26:
 284              	.L22:
 285              		.loc 1 135 0 is_stmt 0 discriminator 2
ARM GAS  /tmp/ccUc3O3E.s 			page 6


 286 001a 0134     		adds	r4, r4, #1
 287              	.LVL27:
 288 001c B442     		cmp	r4, r6
 289 001e 1FD0     		beq	.L13
 290              	.LVL28:
 291              	.L12:
 292              	.LBB308:
 293              	.LBB309:
 294              		.loc 1 119 0 is_stmt 1
 295 0020 DAF80C30 		ldr	r3, [r10, #12]
 296 0024 2146     		mov	r1, r4
 297 0026 5046     		mov	r0, r10
 298 0028 9847     		blx	r3
 299              	.LVL29:
 300              	.LBE309:
 301              	.LBE308:
 302              		.loc 1 136 0
 303 002a 15F8013F 		ldrb	r3, [r5, #1]!	@ zero_extendqisi2
 304 002e 8342     		cmp	r3, r0
 305 0030 F3D0     		beq	.L22
 306              		.loc 1 138 0
 307 0032 B442     		cmp	r4, r6
 308 0034 14D0     		beq	.L13
 309              	.LBE307:
 310              		.loc 1 129 0 discriminator 2
 311 0036 B945     		cmp	r9, r7
 312 0038 0DD0     		beq	.L18
 313 003a 7E69     		ldr	r6, [r7, #20]
 314 003c D7E90358 		ldrd	r5, r8, [r7, #12]
 315 0040 0C37     		adds	r7, r7, #12
 316              	.LVL30:
 317              	.LBB312:
 318              		.loc 1 135 0
 319 0042 002E     		cmp	r6, #0
 320 0044 E6D1     		bne	.L16
 321              	.LVL31:
 322              	.L17:
 323              	.LBB310:
 324              	.LBB311:
 325              		.loc 1 123 0
 326 0046 5046     		mov	r0, r10
 327 0048 3146     		mov	r1, r6
 328 004a DAF81030 		ldr	r3, [r10, #16]
 329 004e 9847     		blx	r3
 330              	.LVL32:
 331              	.LBE311:
 332              	.LBE310:
 333              	.LBE312:
 334              	.LBE306:
 335              		.loc 1 144 0
 336 0050 4046     		mov	r0, r8
 337 0052 BDE8F087 		pop	{r4, r5, r6, r7, r8, r9, r10, pc}
 338              	.LVL33:
 339              	.L18:
 340              		.loc 1 143 0
 341 0056 4FF00008 		mov	r8, #0
 342              		.loc 1 144 0
ARM GAS  /tmp/ccUc3O3E.s 			page 7


 343 005a 4046     		mov	r0, r8
 344 005c BDE8F087 		pop	{r4, r5, r6, r7, r8, r9, r10, pc}
 345              	.LVL34:
 346              	.L13:
 347              	.LBB314:
 348              	.LBB313:
 349              		.loc 1 135 0
 350 0060 2646     		mov	r6, r4
 351 0062 F0E7     		b	.L17
 352              	.L24:
 353              		.align	2
 354              	.L23:
 355 0064 00000000 		.word	.LANCHOR0
 356 0068 00000000 		.word	.LC0
 357              	.LBE313:
 358              	.LBE314:
 359              		.cfi_endproc
 360              	.LFE41:
 361              		.size	tok_match_fixed_size_tokens, .-tok_match_fixed_size_tokens
 362              		.section	.text.symchar0,"ax",%progbits
 363              		.align	1
 364              		.p2align 4,,15
 365              		.global	symchar0
 366              		.syntax unified
 367              		.thumb
 368              		.thumb_func
 369              		.fpu fpv4-sp-d16
 370              		.type	symchar0, %function
 371              	symchar0:
 372              	.LFB42:
 373              		.loc 1 146 0
 374              		.cfi_startproc
 375              		@ args = 0, pretend = 0, frame = 0
 376              		@ frame_needed = 0, uses_anonymous_args = 0
 377              		@ link register save eliminated.
 378              	.LVL35:
 379 0000 054A     		ldr	r2, .L30
 380              		.loc 1 150 0
 381 0002 6123     		movs	r3, #97
 382              	.LVL36:
 383              	.L27:
 384              		.loc 1 151 0
 385 0004 9842     		cmp	r0, r3
 386 0006 05D0     		beq	.L28
 387              		.loc 1 150 0
 388 0008 12F8013F 		ldrb	r3, [r2, #1]!	@ zero_extendqisi2
 389              	.LVL37:
 390 000c 002B     		cmp	r3, #0
 391 000e F9D1     		bne	.L27
 392              		.loc 1 153 0
 393 0010 1846     		mov	r0, r3
 394              	.LVL38:
 395 0012 7047     		bx	lr
 396              	.LVL39:
 397              	.L28:
 398              		.loc 1 151 0
 399 0014 0120     		movs	r0, #1
ARM GAS  /tmp/ccUc3O3E.s 			page 8


 400              	.LVL40:
 401              		.loc 1 154 0
 402 0016 7047     		bx	lr
 403              	.L31:
 404              		.align	2
 405              	.L30:
 406 0018 00000000 		.word	.LC1
 407              		.cfi_endproc
 408              	.LFE42:
 409              		.size	symchar0, .-symchar0
 410              		.section	.text.symchar,"ax",%progbits
 411              		.align	1
 412              		.p2align 4,,15
 413              		.global	symchar
 414              		.syntax unified
 415              		.thumb
 416              		.thumb_func
 417              		.fpu fpv4-sp-d16
 418              		.type	symchar, %function
 419              	symchar:
 420              	.LFB43:
 421              		.loc 1 156 0
 422              		.cfi_startproc
 423              		@ args = 0, pretend = 0, frame = 0
 424              		@ frame_needed = 0, uses_anonymous_args = 0
 425              		@ link register save eliminated.
 426              	.LVL41:
 427 0000 054A     		ldr	r2, .L37
 428              		.loc 1 160 0
 429 0002 6123     		movs	r3, #97
 430              	.LVL42:
 431              	.L34:
 432              		.loc 1 161 0
 433 0004 9842     		cmp	r0, r3
 434 0006 05D0     		beq	.L35
 435              		.loc 1 160 0
 436 0008 12F8013F 		ldrb	r3, [r2, #1]!	@ zero_extendqisi2
 437              	.LVL43:
 438 000c 002B     		cmp	r3, #0
 439 000e F9D1     		bne	.L34
 440              		.loc 1 163 0
 441 0010 1846     		mov	r0, r3
 442              	.LVL44:
 443 0012 7047     		bx	lr
 444              	.LVL45:
 445              	.L35:
 446              		.loc 1 161 0
 447 0014 0120     		movs	r0, #1
 448              	.LVL46:
 449              		.loc 1 164 0
 450 0016 7047     		bx	lr
 451              	.L38:
 452              		.align	2
 453              	.L37:
 454 0018 00000000 		.word	.LC2
 455              		.cfi_endproc
 456              	.LFE43:
ARM GAS  /tmp/ccUc3O3E.s 			page 9


 457              		.size	symchar, .-symchar
 458              		.section	.text.tok_symbol,"ax",%progbits
 459              		.align	1
 460              		.p2align 4,,15
 461              		.global	tok_symbol
 462              		.syntax unified
 463              		.thumb
 464              		.thumb_func
 465              		.fpu fpv4-sp-d16
 466              		.type	tok_symbol, %function
 467              	tok_symbol:
 468              	.LFB44:
 469              		.loc 1 166 0
 470              		.cfi_startproc
 471              		@ args = 0, pretend = 0, frame = 0
 472              		@ frame_needed = 0, uses_anonymous_args = 0
 473              	.LVL47:
 474 0000 2DE9F041 		push	{r4, r5, r6, r7, r8, lr}
 475              		.cfi_def_cfa_offset 24
 476              		.cfi_offset 4, -24
 477              		.cfi_offset 5, -20
 478              		.cfi_offset 6, -16
 479              		.cfi_offset 7, -12
 480              		.cfi_offset 8, -8
 481              		.cfi_offset 14, -4
 482              	.LBB334:
 483              	.LBB335:
 484              		.loc 1 119 0
 485 0004 C368     		ldr	r3, [r0, #12]
 486 0006 0021     		movs	r1, #0
 487              	.LBE335:
 488              	.LBE334:
 489              		.loc 1 166 0
 490 0008 0646     		mov	r6, r0
 491              	.LVL48:
 492              	.LBB337:
 493              	.LBB336:
 494              		.loc 1 119 0
 495 000a 9847     		blx	r3
 496              	.LVL49:
 497 000c 204A     		ldr	r2, .L62
 498              	.LBE336:
 499              	.LBE337:
 500              	.LBB338:
 501              	.LBB339:
 502              		.loc 1 150 0
 503 000e 6123     		movs	r3, #97
 504              	.LVL50:
 505              	.L41:
 506              		.loc 1 151 0
 507 0010 8342     		cmp	r3, r0
 508 0012 07D0     		beq	.L52
 509              		.loc 1 150 0
 510 0014 12F8013F 		ldrb	r3, [r2, #1]!	@ zero_extendqisi2
 511              	.LVL51:
 512 0018 002B     		cmp	r3, #0
 513 001a F9D1     		bne	.L41
ARM GAS  /tmp/ccUc3O3E.s 			page 10


 514              	.LVL52:
 515              	.L42:
 516              	.LBE339:
 517              	.LBE338:
 518              		.loc 1 168 0
 519 001c 0024     		movs	r4, #0
 520              	.L39:
 521              		.loc 1 195 0
 522 001e 2046     		mov	r0, r4
 523 0020 BDE8F081 		pop	{r4, r5, r6, r7, r8, pc}
 524              	.LVL53:
 525              	.L52:
 526              	.LBB340:
 527              	.LBB341:
 528              		.loc 1 171 0
 529 0024 0127     		movs	r7, #1
 530              	.LVL54:
 531              	.L40:
 532              	.LBB342:
 533              	.LBB343:
 534              		.loc 1 119 0
 535 0026 F368     		ldr	r3, [r6, #12]
 536 0028 3946     		mov	r1, r7
 537 002a 3046     		mov	r0, r6
 538 002c 9847     		blx	r3
 539              	.LVL55:
 540 002e 194B     		ldr	r3, .L62+4
 541              	.LBE343:
 542              	.LBE342:
 543              	.LBB344:
 544              	.LBB345:
 545              		.loc 1 160 0
 546 0030 6124     		movs	r4, #97
 547              	.LVL56:
 548              	.L44:
 549              		.loc 1 161 0
 550 0032 8442     		cmp	r4, r0
 551 0034 2AD0     		beq	.L43
 552              		.loc 1 160 0
 553 0036 13F8014F 		ldrb	r4, [r3, #1]!	@ zero_extendqisi2
 554              	.LVL57:
 555 003a 002C     		cmp	r4, #0
 556 003c F9D1     		bne	.L44
 557              	.LVL58:
 558              	.LBE345:
 559              	.LBE344:
 560              		.loc 1 178 0
 561 003e B7F5807F 		cmp	r7, #256
 562 0042 1ED8     		bhi	.L50
 563              	.LBB346:
 564              	.LBB347:
 565              		.loc 1 68 0
 566 0044 4FF48072 		mov	r2, #256
 567 0048 2146     		mov	r1, r4
 568 004a 1348     		ldr	r0, .L62+8
 569 004c FFF7FEFF 		bl	memset
 570              	.LVL59:
ARM GAS  /tmp/ccUc3O3E.s 			page 11


 571              	.LBE347:
 572              	.LBE346:
 573              		.loc 1 185 0
 574 0050 002F     		cmp	r7, #0
 575 0052 E3D0     		beq	.L42
 576 0054 DFF84080 		ldr	r8, .L62+8
 577 0058 03E0     		b	.L49
 578              	.LVL60:
 579              	.L47:
 580 005a A742     		cmp	r7, r4
 581              		.loc 1 188 0
 582 005c 08F8015B 		strb	r5, [r8], #1
 583              		.loc 1 185 0
 584 0060 DDD0     		beq	.L39
 585              	.LVL61:
 586              	.L49:
 587              	.LBB348:
 588              	.LBB349:
 589              	.LBB350:
 590              		.loc 1 115 0
 591 0062 B368     		ldr	r3, [r6, #8]
 592 0064 3046     		mov	r0, r6
 593 0066 9847     		blx	r3
 594              	.LVL62:
 595 0068 0546     		mov	r5, r0
 596              	.LVL63:
 597              	.LBE350:
 598              	.LBE349:
 599              		.loc 1 186 0
 600 006a FFF7FEFF 		bl	__locale_ctype_ptr
 601              	.LVL64:
 602 006e 2844     		add	r0, r0, r5
 603              	.LBE348:
 604              		.loc 1 189 0
 605 0070 0134     		adds	r4, r4, #1
 606              	.LVL65:
 607              	.LBB351:
 608              		.loc 1 186 0
 609 0072 4378     		ldrb	r3, [r0, #1]	@ zero_extendqisi2
 610 0074 03F00303 		and	r3, r3, #3
 611 0078 012B     		cmp	r3, #1
 612 007a EED1     		bne	.L47
 613 007c 2035     		adds	r5, r5, #32
 614              	.LVL66:
 615              	.LBE351:
 616              		.loc 1 187 0
 617 007e FF2D     		cmp	r5, #255
 618 0080 EBDD     		ble	.L47
 619              	.LVL67:
 620              	.L50:
 621              		.loc 1 191 0
 622 0082 4FF0FF34 		mov	r4, #-1
 623              	.LBE341:
 624              	.LBE340:
 625              		.loc 1 195 0
 626 0086 2046     		mov	r0, r4
 627 0088 BDE8F081 		pop	{r4, r5, r6, r7, r8, pc}
ARM GAS  /tmp/ccUc3O3E.s 			page 12


 628              	.LVL68:
 629              	.L43:
 630              	.LBB353:
 631              	.LBB352:
 632              		.loc 1 175 0
 633 008c 0137     		adds	r7, r7, #1
 634              	.LVL69:
 635 008e CAE7     		b	.L40
 636              	.L63:
 637              		.align	2
 638              	.L62:
 639 0090 00000000 		.word	.LC1
 640 0094 00000000 		.word	.LC2
 641 0098 00000000 		.word	.LANCHOR1
 642              	.LBE352:
 643              	.LBE353:
 644              		.cfi_endproc
 645              	.LFE44:
 646              		.size	tok_symbol, .-tok_symbol
 647              		.section	.text.tok_string,"ax",%progbits
 648              		.align	1
 649              		.p2align 4,,15
 650              		.global	tok_string
 651              		.syntax unified
 652              		.thumb
 653              		.thumb_func
 654              		.fpu fpv4-sp-d16
 655              		.type	tok_string, %function
 656              	tok_string:
 657              	.LFB45:
 658              		.loc 1 197 0
 659              		.cfi_startproc
 660              		@ args = 0, pretend = 0, frame = 0
 661              		@ frame_needed = 0, uses_anonymous_args = 0
 662              	.LVL70:
 663 0000 F8B5     		push	{r3, r4, r5, r6, r7, lr}
 664              		.cfi_def_cfa_offset 24
 665              		.cfi_offset 3, -24
 666              		.cfi_offset 4, -20
 667              		.cfi_offset 5, -16
 668              		.cfi_offset 6, -12
 669              		.cfi_offset 7, -8
 670              		.cfi_offset 14, -4
 671              	.LBB376:
 672              	.LBB377:
 673              		.loc 1 119 0
 674 0002 0021     		movs	r1, #0
 675 0004 C368     		ldr	r3, [r0, #12]
 676              	.LBE377:
 677              	.LBE376:
 678              		.loc 1 197 0
 679 0006 0446     		mov	r4, r0
 680              	.LVL71:
 681              	.LBB379:
 682              	.LBB378:
 683              		.loc 1 119 0
 684 0008 9847     		blx	r3
ARM GAS  /tmp/ccUc3O3E.s 			page 13


 685              	.LVL72:
 686              	.LBE378:
 687              	.LBE379:
 688              		.loc 1 202 0
 689 000a 2228     		cmp	r0, #34
 690 000c 1AD1     		bne	.L72
 691              	.LVL73:
 692              	.LBB380:
 693              	.LBB381:
 694              		.loc 1 115 0
 695 000e A368     		ldr	r3, [r4, #8]
 696 0010 2046     		mov	r0, r4
 697 0012 9847     		blx	r3
 698              	.LVL74:
 699              	.LBE381:
 700              	.LBE380:
 701              	.LBB382:
 702              	.LBB383:
 703              		.loc 1 201 0
 704 0014 0025     		movs	r5, #0
 705 0016 05E0     		b	.L67
 706              	.LVL75:
 707              	.L68:
 708              	.LBB384:
 709              	.LBB385:
 710              		.loc 1 119 0
 711 0018 E368     		ldr	r3, [r4, #12]
 712 001a 2046     		mov	r0, r4
 713 001c 9847     		blx	r3
 714              	.LVL76:
 715              	.LBE385:
 716              	.LBE384:
 717              		.loc 1 208 0
 718 001e 2228     		cmp	r0, #34
 719 0020 07D0     		beq	.L71
 720              		.loc 1 210 0
 721 0022 0135     		adds	r5, r5, #1
 722              	.LVL77:
 723              	.L67:
 724              	.LBB387:
 725              	.LBB388:
 726              		.loc 1 119 0
 727 0024 2946     		mov	r1, r5
 728 0026 E368     		ldr	r3, [r4, #12]
 729 0028 2046     		mov	r0, r4
 730 002a 9847     		blx	r3
 731              	.LVL78:
 732              	.LBE388:
 733              	.LBE387:
 734              	.LBB389:
 735              	.LBB386:
 736 002c 2946     		mov	r1, r5
 737              	.LBE386:
 738              	.LBE389:
 739              		.loc 1 208 0
 740 002e 0028     		cmp	r0, #0
 741 0030 F2D1     		bne	.L68
ARM GAS  /tmp/ccUc3O3E.s 			page 14


 742              	.LVL79:
 743              	.L71:
 744              		.loc 1 213 0
 745 0032 B5F5807F 		cmp	r5, #256
 746 0036 20D8     		bhi	.L80
 747              	.LVL80:
 748              	.LBB390:
 749              	.LBB391:
 750              		.loc 1 119 0
 751 0038 E368     		ldr	r3, [r4, #12]
 752 003a 2946     		mov	r1, r5
 753 003c 2046     		mov	r0, r4
 754 003e 9847     		blx	r3
 755              	.LVL81:
 756              	.LBE391:
 757              	.LBE390:
 758              		.loc 1 217 0
 759 0040 2228     		cmp	r0, #34
 760 0042 02D0     		beq	.L81
 761              	.LVL82:
 762              	.L72:
 763              	.LBE383:
 764              	.LBE382:
 765              		.loc 1 202 0
 766 0044 0025     		movs	r5, #0
 767              	.L64:
 768              		.loc 1 230 0
 769 0046 2846     		mov	r0, r5
 770 0048 F8BD     		pop	{r3, r4, r5, r6, r7, pc}
 771              	.LVL83:
 772              	.L81:
 773              	.LBB400:
 774              	.LBB398:
 775              	.LBB392:
 776              	.LBB393:
 777              		.loc 1 68 0
 778 004a 0D4E     		ldr	r6, .L82
 779 004c 4FF48072 		mov	r2, #256
 780 0050 3046     		mov	r0, r6
 781 0052 0021     		movs	r1, #0
 782 0054 FFF7FEFF 		bl	memset
 783              	.LVL84:
 784              	.LBE393:
 785              	.LBE392:
 786              		.loc 1 223 0
 787 0058 6DB1     		cbz	r5, .L76
 788 005a 7719     		adds	r7, r6, r5
 789              	.LVL85:
 790              	.L74:
 791              	.LBB394:
 792              	.LBB395:
 793              		.loc 1 115 0
 794 005c A368     		ldr	r3, [r4, #8]
 795 005e 2046     		mov	r0, r4
 796 0060 9847     		blx	r3
 797              	.LVL86:
 798              	.LBE395:
ARM GAS  /tmp/ccUc3O3E.s 			page 15


 799              	.LBE394:
 800              		.loc 1 224 0
 801 0062 06F8010B 		strb	r0, [r6], #1
 802              	.LVL87:
 803              		.loc 1 223 0
 804 0066 BE42     		cmp	r6, r7
 805 0068 F8D1     		bne	.L74
 806 006a 0235     		adds	r5, r5, #2
 807              	.LVL88:
 808              	.L73:
 809              	.LBB396:
 810              	.LBB397:
 811              		.loc 1 115 0
 812 006c A368     		ldr	r3, [r4, #8]
 813 006e 2046     		mov	r0, r4
 814 0070 9847     		blx	r3
 815              	.LVL89:
 816              	.LBE397:
 817              	.LBE396:
 818              	.LBE398:
 819              	.LBE400:
 820              		.loc 1 230 0
 821 0072 2846     		mov	r0, r5
 822 0074 F8BD     		pop	{r3, r4, r5, r6, r7, pc}
 823              	.LVL90:
 824              	.L76:
 825              	.LBB401:
 826              	.LBB399:
 827              		.loc 1 223 0
 828 0076 0225     		movs	r5, #2
 829              	.LVL91:
 830 0078 F8E7     		b	.L73
 831              	.LVL92:
 832              	.L80:
 833              		.loc 1 214 0
 834 007a 4FF0FF35 		mov	r5, #-1
 835              	.LVL93:
 836 007e E2E7     		b	.L64
 837              	.L83:
 838              		.align	2
 839              	.L82:
 840 0080 00000000 		.word	.LANCHOR1
 841              	.LBE399:
 842              	.LBE401:
 843              		.cfi_endproc
 844              	.LFE45:
 845              		.size	tok_string, .-tok_string
 846              		.section	.text.tok_char,"ax",%progbits
 847              		.align	1
 848              		.p2align 4,,15
 849              		.global	tok_char
 850              		.syntax unified
 851              		.thumb
 852              		.thumb_func
 853              		.fpu fpv4-sp-d16
 854              		.type	tok_char, %function
 855              	tok_char:
ARM GAS  /tmp/ccUc3O3E.s 			page 16


 856              	.LFB46:
 857              		.loc 1 232 0
 858              		.cfi_startproc
 859              		@ args = 0, pretend = 0, frame = 0
 860              		@ frame_needed = 0, uses_anonymous_args = 0
 861              	.LVL94:
 862 0000 70B5     		push	{r4, r5, r6, lr}
 863              		.cfi_def_cfa_offset 16
 864              		.cfi_offset 4, -16
 865              		.cfi_offset 5, -12
 866              		.cfi_offset 6, -8
 867              		.cfi_offset 14, -4
 868              	.LBB402:
 869              	.LBB403:
 870              		.loc 1 119 0
 871 0002 C368     		ldr	r3, [r0, #12]
 872              	.LBE403:
 873              	.LBE402:
 874              		.loc 1 232 0
 875 0004 0D46     		mov	r5, r1
 876              	.LBB406:
 877              	.LBB404:
 878              		.loc 1 119 0
 879 0006 0021     		movs	r1, #0
 880              	.LVL95:
 881              	.LBE404:
 882              	.LBE406:
 883              		.loc 1 232 0
 884 0008 0446     		mov	r4, r0
 885              	.LVL96:
 886              	.LBB407:
 887              	.LBB405:
 888              		.loc 1 119 0
 889 000a 9847     		blx	r3
 890              	.LVL97:
 891              	.LBE405:
 892              	.LBE407:
 893              		.loc 1 235 0
 894 000c 5C28     		cmp	r0, #92
 895 000e 0DD0     		beq	.L93
 896              	.L85:
 897              	.LVL98:
 898              	.LBB408:
 899              	.LBB409:
 900              		.loc 1 119 0
 901 0010 E368     		ldr	r3, [r4, #12]
 902 0012 0021     		movs	r1, #0
 903 0014 2046     		mov	r0, r4
 904 0016 9847     		blx	r3
 905              	.LVL99:
 906              	.LBE409:
 907              	.LBE408:
 908              		.loc 1 247 0
 909 0018 5C28     		cmp	r0, #92
 910 001a 05D1     		bne	.L88
 911              	.LVL100:
 912              	.LBB410:
ARM GAS  /tmp/ccUc3O3E.s 			page 17


 913              	.LBB411:
 914              		.loc 1 119 0
 915 001c E368     		ldr	r3, [r4, #12]
 916 001e 0121     		movs	r1, #1
 917 0020 2046     		mov	r0, r4
 918 0022 9847     		blx	r3
 919              	.LVL101:
 920              	.LBE411:
 921              	.LBE410:
 922              		.loc 1 247 0
 923 0024 2328     		cmp	r0, #35
 924 0026 39D0     		beq	.L94
 925              	.L88:
 926              		.loc 1 234 0
 927 0028 0020     		movs	r0, #0
 928              		.loc 1 255 0
 929 002a 70BD     		pop	{r4, r5, r6, pc}
 930              	.LVL102:
 931              	.L93:
 932              	.LBB412:
 933              	.LBB413:
 934              		.loc 1 119 0
 935 002c E368     		ldr	r3, [r4, #12]
 936 002e 0121     		movs	r1, #1
 937 0030 2046     		mov	r0, r4
 938 0032 9847     		blx	r3
 939              	.LVL103:
 940              	.LBE413:
 941              	.LBE412:
 942              		.loc 1 235 0
 943 0034 2328     		cmp	r0, #35
 944 0036 EBD1     		bne	.L85
 945              	.LVL104:
 946              	.LBB414:
 947              	.LBB415:
 948              		.loc 1 119 0
 949 0038 E368     		ldr	r3, [r4, #12]
 950 003a 0221     		movs	r1, #2
 951 003c 2046     		mov	r0, r4
 952 003e 9847     		blx	r3
 953              	.LVL105:
 954              	.LBE415:
 955              	.LBE414:
 956              		.loc 1 236 0
 957 0040 6E28     		cmp	r0, #110
 958 0042 E5D1     		bne	.L85
 959              	.LVL106:
 960              	.LBB416:
 961              	.LBB417:
 962              		.loc 1 119 0
 963 0044 E368     		ldr	r3, [r4, #12]
 964 0046 0321     		movs	r1, #3
 965 0048 2046     		mov	r0, r4
 966 004a 9847     		blx	r3
 967              	.LVL107:
 968              	.LBE417:
 969              	.LBE416:
ARM GAS  /tmp/ccUc3O3E.s 			page 18


 970              		.loc 1 237 0
 971 004c 6528     		cmp	r0, #101
 972 004e DFD1     		bne	.L85
 973              	.LVL108:
 974              	.LBB418:
 975              	.LBB419:
 976              		.loc 1 119 0
 977 0050 E368     		ldr	r3, [r4, #12]
 978 0052 0421     		movs	r1, #4
 979 0054 2046     		mov	r0, r4
 980 0056 9847     		blx	r3
 981              	.LVL109:
 982              	.LBE419:
 983              	.LBE418:
 984              		.loc 1 238 0
 985 0058 7728     		cmp	r0, #119
 986 005a D9D1     		bne	.L85
 987              	.LVL110:
 988              	.LBB420:
 989              	.LBB421:
 990              		.loc 1 119 0
 991 005c E368     		ldr	r3, [r4, #12]
 992 005e 0521     		movs	r1, #5
 993 0060 2046     		mov	r0, r4
 994 0062 9847     		blx	r3
 995              	.LVL111:
 996              	.LBE421:
 997              	.LBE420:
 998              		.loc 1 239 0
 999 0064 6C28     		cmp	r0, #108
 1000 0066 D3D1     		bne	.L85
 1001              	.LVL112:
 1002              	.LBB422:
 1003              	.LBB423:
 1004              		.loc 1 119 0
 1005 0068 E368     		ldr	r3, [r4, #12]
 1006 006a 0621     		movs	r1, #6
 1007 006c 2046     		mov	r0, r4
 1008 006e 9847     		blx	r3
 1009              	.LVL113:
 1010              	.LBE423:
 1011              	.LBE422:
 1012              		.loc 1 240 0
 1013 0070 6928     		cmp	r0, #105
 1014 0072 CDD1     		bne	.L85
 1015              	.LVL114:
 1016              	.LBB424:
 1017              	.LBB425:
 1018              		.loc 1 119 0
 1019 0074 E368     		ldr	r3, [r4, #12]
 1020 0076 0721     		movs	r1, #7
 1021 0078 2046     		mov	r0, r4
 1022 007a 9847     		blx	r3
 1023              	.LVL115:
 1024              	.LBE425:
 1025              	.LBE424:
 1026              		.loc 1 241 0
ARM GAS  /tmp/ccUc3O3E.s 			page 19


 1027 007c 6E28     		cmp	r0, #110
 1028 007e C7D1     		bne	.L85
 1029              	.LVL116:
 1030              	.LBB426:
 1031              	.LBB427:
 1032              		.loc 1 119 0
 1033 0080 E368     		ldr	r3, [r4, #12]
 1034 0082 0821     		movs	r1, #8
 1035 0084 2046     		mov	r0, r4
 1036 0086 9847     		blx	r3
 1037              	.LVL117:
 1038              	.LBE427:
 1039              	.LBE426:
 1040              		.loc 1 242 0
 1041 0088 6528     		cmp	r0, #101
 1042 008a C1D1     		bne	.L85
 1043              		.loc 1 244 0
 1044 008c 0A23     		movs	r3, #10
 1045 008e 2B70     		strb	r3, [r5]
 1046              	.LVL118:
 1047              	.LBB428:
 1048              	.LBB429:
 1049              		.loc 1 123 0
 1050 0090 2046     		mov	r0, r4
 1051 0092 2369     		ldr	r3, [r4, #16]
 1052 0094 0921     		movs	r1, #9
 1053 0096 9847     		blx	r3
 1054              	.LVL119:
 1055              	.LBE429:
 1056              	.LBE428:
 1057              		.loc 1 246 0
 1058 0098 0920     		movs	r0, #9
 1059              		.loc 1 255 0
 1060 009a 70BD     		pop	{r4, r5, r6, pc}
 1061              	.LVL120:
 1062              	.L94:
 1063              		.loc 1 249 0
 1064 009c FFF7FEFF 		bl	__locale_ctype_ptr
 1065              	.LVL121:
 1066              	.LBB430:
 1067              	.LBB431:
 1068              		.loc 1 119 0
 1069 00a0 E368     		ldr	r3, [r4, #12]
 1070              	.LBE431:
 1071              	.LBE430:
 1072              		.loc 1 249 0
 1073 00a2 0646     		mov	r6, r0
 1074              	.LVL122:
 1075              	.LBB433:
 1076              	.LBB432:
 1077              		.loc 1 119 0
 1078 00a4 0221     		movs	r1, #2
 1079 00a6 2046     		mov	r0, r4
 1080 00a8 9847     		blx	r3
 1081              	.LVL123:
 1082              	.LBE432:
 1083              	.LBE433:
ARM GAS  /tmp/ccUc3O3E.s 			page 20


 1084              		.loc 1 249 0
 1085 00aa 3044     		add	r0, r0, r6
 1086              		.loc 1 248 0
 1087 00ac 4378     		ldrb	r3, [r0, #1]	@ zero_extendqisi2
 1088 00ae 13F0170F 		tst	r3, #23
 1089 00b2 B9D0     		beq	.L88
 1090              	.LVL124:
 1091              	.LBB434:
 1092              	.LBB435:
 1093              		.loc 1 119 0
 1094 00b4 E368     		ldr	r3, [r4, #12]
 1095 00b6 0221     		movs	r1, #2
 1096 00b8 2046     		mov	r0, r4
 1097 00ba 9847     		blx	r3
 1098              	.LVL125:
 1099              	.LBE435:
 1100              	.LBE434:
 1101              		.loc 1 250 0
 1102 00bc 2870     		strb	r0, [r5]
 1103              	.LVL126:
 1104              	.LBB436:
 1105              	.LBB437:
 1106              		.loc 1 123 0
 1107 00be 2369     		ldr	r3, [r4, #16]
 1108 00c0 2046     		mov	r0, r4
 1109 00c2 0321     		movs	r1, #3
 1110 00c4 9847     		blx	r3
 1111              	.LVL127:
 1112              	.LBE437:
 1113              	.LBE436:
 1114              		.loc 1 252 0
 1115 00c6 0320     		movs	r0, #3
 1116              		.loc 1 255 0
 1117 00c8 70BD     		pop	{r4, r5, r6, pc}
 1118              		.cfi_endproc
 1119              	.LFE46:
 1120              		.size	tok_char, .-tok_char
 1121 00ca 00BF     		.section	.text.tok_i,"ax",%progbits
 1122              		.align	1
 1123              		.p2align 4,,15
 1124              		.global	tok_i
 1125              		.syntax unified
 1126              		.thumb
 1127              		.thumb_func
 1128              		.fpu fpv4-sp-d16
 1129              		.type	tok_i, %function
 1130              	tok_i:
 1131              	.LFB47:
 1132              		.loc 1 257 0
 1133              		.cfi_startproc
 1134              		@ args = 0, pretend = 0, frame = 0
 1135              		@ frame_needed = 0, uses_anonymous_args = 0
 1136              	.LVL128:
 1137 0000 2DE9F843 		push	{r3, r4, r5, r6, r7, r8, r9, lr}
 1138              		.cfi_def_cfa_offset 32
 1139              		.cfi_offset 3, -32
 1140              		.cfi_offset 4, -28
ARM GAS  /tmp/ccUc3O3E.s 			page 21


 1141              		.cfi_offset 5, -24
 1142              		.cfi_offset 6, -20
 1143              		.cfi_offset 7, -16
 1144              		.cfi_offset 8, -12
 1145              		.cfi_offset 9, -8
 1146              		.cfi_offset 14, -4
 1147              		.loc 1 257 0
 1148 0004 8946     		mov	r9, r1
 1149              	.LBB438:
 1150              	.LBB439:
 1151              		.loc 1 119 0
 1152 0006 C368     		ldr	r3, [r0, #12]
 1153 0008 0021     		movs	r1, #0
 1154              	.LVL129:
 1155              	.LBE439:
 1156              	.LBE438:
 1157              		.loc 1 257 0
 1158 000a 0446     		mov	r4, r0
 1159              	.LVL130:
 1160              	.LBB441:
 1161              	.LBB440:
 1162              		.loc 1 119 0
 1163 000c 9847     		blx	r3
 1164              	.LVL131:
 1165              	.LBE440:
 1166              	.LBE441:
 1167              		.loc 1 264 0
 1168 000e 2D28     		cmp	r0, #45
 1169 0010 5FD0     		beq	.L130
 1170              		.loc 1 261 0
 1171 0012 4FF00008 		mov	r8, #0
 1172              		.loc 1 260 0
 1173 0016 4546     		mov	r5, r8
 1174              	.L96:
 1175 0018 0027     		movs	r7, #0
 1176 001a 0EE0     		b	.L97
 1177              	.LVL132:
 1178              	.L98:
 1179              	.LBB442:
 1180              	.LBB443:
 1181              		.loc 1 119 0
 1182 001c E368     		ldr	r3, [r4, #12]
 1183 001e 9847     		blx	r3
 1184              	.LVL133:
 1185              	.LBE443:
 1186              	.LBE442:
 1187              		.loc 1 270 0
 1188 0020 07EB8703 		add	r3, r7, r7, lsl #2
 1189              		.loc 1 269 0
 1190 0024 3928     		cmp	r0, #57
 1191              	.LBB445:
 1192              	.LBB446:
 1193              		.loc 1 119 0
 1194 0026 2946     		mov	r1, r5
 1195              	.LBE446:
 1196              	.LBE445:
 1197              		.loc 1 270 0
ARM GAS  /tmp/ccUc3O3E.s 			page 22


 1198 0028 4FEA4306 		lsl	r6, r3, #1
 1199              	.LVL134:
 1200              	.LBB449:
 1201              	.LBB447:
 1202              		.loc 1 119 0
 1203 002c 2046     		mov	r0, r4
 1204              	.LBE447:
 1205              	.LBE449:
 1206              		.loc 1 269 0
 1207 002e 0CD8     		bhi	.L102
 1208              	.LVL135:
 1209              	.LBB450:
 1210              	.LBB448:
 1211              		.loc 1 119 0
 1212 0030 E368     		ldr	r3, [r4, #12]
 1213 0032 9847     		blx	r3
 1214              	.LVL136:
 1215              	.LBE448:
 1216              	.LBE450:
 1217              		.loc 1 270 0
 1218 0034 3038     		subs	r0, r0, #48
 1219              		.loc 1 271 0
 1220 0036 0135     		adds	r5, r5, #1
 1221              	.LVL137:
 1222              		.loc 1 270 0
 1223 0038 8719     		adds	r7, r0, r6
 1224              	.LVL138:
 1225              	.L97:
 1226              	.LBB451:
 1227              	.LBB452:
 1228              		.loc 1 119 0
 1229 003a 2946     		mov	r1, r5
 1230 003c E368     		ldr	r3, [r4, #12]
 1231 003e 2046     		mov	r0, r4
 1232 0040 9847     		blx	r3
 1233              	.LVL139:
 1234              	.LBE452:
 1235              	.LBE451:
 1236              		.loc 1 269 0
 1237 0042 2F28     		cmp	r0, #47
 1238              	.LBB453:
 1239              	.LBB444:
 1240              		.loc 1 119 0
 1241 0044 2946     		mov	r1, r5
 1242 0046 2046     		mov	r0, r4
 1243              	.LBE444:
 1244              	.LBE453:
 1245              		.loc 1 269 0
 1246 0048 E8D8     		bhi	.L98
 1247              	.LVL140:
 1248              	.L102:
 1249              		.loc 1 273 0
 1250 004a B8F1000F 		cmp	r8, #0
 1251 004e 39D1     		bne	.L99
 1252              		.loc 1 274 0
 1253 0050 2E1C     		adds	r6, r5, #0
 1254 0052 18BF     		it	ne
ARM GAS  /tmp/ccUc3O3E.s 			page 23


 1255 0054 0126     		movne	r6, #1
 1256              	.LVL141:
 1257              	.L103:
 1258              	.LBB454:
 1259              	.LBB455:
 1260              		.loc 1 119 0
 1261 0056 E368     		ldr	r3, [r4, #12]
 1262 0058 2946     		mov	r1, r5
 1263              	.LVL142:
 1264 005a 2046     		mov	r0, r4
 1265              	.LVL143:
 1266 005c 9847     		blx	r3
 1267              	.LVL144:
 1268              	.LBE455:
 1269              	.LBE454:
 1270              		.loc 1 277 0
 1271 005e 5528     		cmp	r0, #85
 1272 0060 3BD0     		beq	.L106
 1273              	.LVL145:
 1274              	.LBB456:
 1275              	.LBB457:
 1276              		.loc 1 119 0
 1277 0062 E368     		ldr	r3, [r4, #12]
 1278 0064 2946     		mov	r1, r5
 1279 0066 2046     		mov	r0, r4
 1280 0068 9847     		blx	r3
 1281              	.LVL146:
 1282              	.LBE457:
 1283              	.LBE456:
 1284              		.loc 1 277 0
 1285 006a 7528     		cmp	r0, #117
 1286 006c 35D0     		beq	.L106
 1287              	.LVL147:
 1288              	.LBB458:
 1289              	.LBB459:
 1290              		.loc 1 119 0
 1291 006e E368     		ldr	r3, [r4, #12]
 1292 0070 2946     		mov	r1, r5
 1293 0072 2046     		mov	r0, r4
 1294 0074 9847     		blx	r3
 1295              	.LVL148:
 1296              	.LBE459:
 1297              	.LBE458:
 1298              		.loc 1 278 0
 1299 0076 2E28     		cmp	r0, #46
 1300 0078 2FD0     		beq	.L106
 1301              	.LVL149:
 1302              	.LBB460:
 1303              	.LBB461:
 1304              		.loc 1 119 0
 1305 007a E368     		ldr	r3, [r4, #12]
 1306 007c 2946     		mov	r1, r5
 1307 007e 2046     		mov	r0, r4
 1308 0080 9847     		blx	r3
 1309              	.LVL150:
 1310              	.LBE461:
 1311              	.LBE460:
ARM GAS  /tmp/ccUc3O3E.s 			page 24


 1312              		.loc 1 279 0
 1313 0082 4928     		cmp	r0, #73
 1314 0084 29D0     		beq	.L106
 1315              	.LVL151:
 1316              	.LBB462:
 1317              	.LBB463:
 1318              		.loc 1 119 0
 1319 0086 E368     		ldr	r3, [r4, #12]
 1320 0088 2946     		mov	r1, r5
 1321 008a 2046     		mov	r0, r4
 1322 008c 9847     		blx	r3
 1323              	.LVL152:
 1324              	.LBE463:
 1325              	.LBE462:
 1326              		.loc 1 283 0
 1327 008e 6928     		cmp	r0, #105
 1328 0090 0BD1     		bne	.L112
 1329              	.LVL153:
 1330              	.LBB464:
 1331              	.LBB465:
 1332              		.loc 1 119 0 discriminator 1
 1333 0092 E368     		ldr	r3, [r4, #12]
 1334 0094 691C     		adds	r1, r5, #1
 1335              	.LVL154:
 1336 0096 2046     		mov	r0, r4
 1337 0098 9847     		blx	r3
 1338              	.LVL155:
 1339              	.LBE465:
 1340              	.LBE464:
 1341              		.loc 1 283 0 discriminator 1
 1342 009a 3228     		cmp	r0, #50
 1343 009c 05D1     		bne	.L112
 1344              	.LVL156:
 1345              	.LBB466:
 1346              	.LBB467:
 1347              		.loc 1 119 0
 1348 009e E368     		ldr	r3, [r4, #12]
 1349 00a0 A91C     		adds	r1, r5, #2
 1350              	.LVL157:
 1351 00a2 2046     		mov	r0, r4
 1352 00a4 9847     		blx	r3
 1353              	.LVL158:
 1354              	.LBE467:
 1355              	.LBE466:
 1356              		.loc 1 284 0
 1357 00a6 3828     		cmp	r0, #56
 1358 00a8 1AD0     		beq	.L131
 1359              	.L112:
 1360 00aa 2946     		mov	r1, r5
 1361              	.LVL159:
 1362              	.L107:
 1363              		.loc 1 288 0
 1364 00ac AEB1     		cbz	r6, .L106
 1365              	.LVL160:
 1366              	.LBB468:
 1367              	.LBB469:
 1368              		.loc 1 123 0
ARM GAS  /tmp/ccUc3O3E.s 			page 25


 1369 00ae 2369     		ldr	r3, [r4, #16]
 1370 00b0 2046     		mov	r0, r4
 1371 00b2 9847     		blx	r3
 1372              	.LVL161:
 1373              	.LBE469:
 1374              	.LBE468:
 1375              		.loc 1 290 0
 1376 00b4 B8F1000F 		cmp	r8, #0
 1377 00b8 09D1     		bne	.L132
 1378              	.LVL162:
 1379              	.L108:
 1380              		.loc 1 290 0 is_stmt 0 discriminator 4
 1381 00ba C9F80070 		str	r7, [r9]
 1382              		.loc 1 291 0 is_stmt 1 discriminator 4
 1383 00be 2846     		mov	r0, r5
 1384              		.loc 1 294 0 discriminator 4
 1385 00c0 BDE8F883 		pop	{r3, r4, r5, r6, r7, r8, r9, pc}
 1386              	.LVL163:
 1387              	.L99:
 1388              		.loc 1 273 0 discriminator 1
 1389 00c4 012D     		cmp	r5, #1
 1390 00c6 94BF     		ite	ls
 1391 00c8 0026     		movls	r6, #0
 1392 00ca 0126     		movhi	r6, #1
 1393 00cc C3E7     		b	.L103
 1394              	.LVL164:
 1395              	.L132:
 1396              		.loc 1 290 0 discriminator 1
 1397 00ce 7F42     		negs	r7, r7
 1398              	.LVL165:
 1399 00d0 F3E7     		b	.L108
 1400              	.LVL166:
 1401              	.L130:
 1402              		.loc 1 266 0
 1403 00d2 4FF00108 		mov	r8, #1
 1404              		.loc 1 265 0
 1405 00d6 4546     		mov	r5, r8
 1406 00d8 9EE7     		b	.L96
 1407              	.LVL167:
 1408              	.L106:
 1409              		.loc 1 280 0
 1410 00da 0020     		movs	r0, #0
 1411              		.loc 1 294 0
 1412 00dc BDE8F883 		pop	{r3, r4, r5, r6, r7, r8, r9, pc}
 1413              	.LVL168:
 1414              	.L131:
 1415              		.loc 1 286 0
 1416 00e0 E91C     		adds	r1, r5, #3
 1417              	.LVL169:
 1418 00e2 E3E7     		b	.L107
 1419              		.cfi_endproc
 1420              	.LFE47:
 1421              		.size	tok_i, .-tok_i
 1422              		.section	.text.tok_I,"ax",%progbits
 1423              		.align	1
 1424              		.p2align 4,,15
 1425              		.global	tok_I
ARM GAS  /tmp/ccUc3O3E.s 			page 26


 1426              		.syntax unified
 1427              		.thumb
 1428              		.thumb_func
 1429              		.fpu fpv4-sp-d16
 1430              		.type	tok_I, %function
 1431              	tok_I:
 1432              	.LFB48:
 1433              		.loc 1 296 0
 1434              		.cfi_startproc
 1435              		@ args = 0, pretend = 0, frame = 0
 1436              		@ frame_needed = 0, uses_anonymous_args = 0
 1437              	.LVL170:
 1438 0000 2DE9F843 		push	{r3, r4, r5, r6, r7, r8, r9, lr}
 1439              		.cfi_def_cfa_offset 32
 1440              		.cfi_offset 3, -32
 1441              		.cfi_offset 4, -28
 1442              		.cfi_offset 5, -24
 1443              		.cfi_offset 6, -20
 1444              		.cfi_offset 7, -16
 1445              		.cfi_offset 8, -12
 1446              		.cfi_offset 9, -8
 1447              		.cfi_offset 14, -4
 1448              		.loc 1 296 0
 1449 0004 8846     		mov	r8, r1
 1450              	.LBB470:
 1451              	.LBB471:
 1452              		.loc 1 119 0
 1453 0006 C368     		ldr	r3, [r0, #12]
 1454 0008 0021     		movs	r1, #0
 1455              	.LVL171:
 1456              	.LBE471:
 1457              	.LBE470:
 1458              		.loc 1 296 0
 1459 000a 0446     		mov	r4, r0
 1460              	.LVL172:
 1461              	.LBB473:
 1462              	.LBB472:
 1463              		.loc 1 119 0
 1464 000c 9847     		blx	r3
 1465              	.LVL173:
 1466              	.LBE472:
 1467              	.LBE473:
 1468              		.loc 1 302 0
 1469 000e 2D28     		cmp	r0, #45
 1470 0010 4BD0     		beq	.L155
 1471              		.loc 1 299 0
 1472 0012 4FF00009 		mov	r9, #0
 1473              		.loc 1 298 0
 1474 0016 4D46     		mov	r5, r9
 1475              	.L134:
 1476 0018 0027     		movs	r7, #0
 1477 001a 0EE0     		b	.L135
 1478              	.LVL174:
 1479              	.L136:
 1480              	.LBB474:
 1481              	.LBB475:
 1482              		.loc 1 119 0
ARM GAS  /tmp/ccUc3O3E.s 			page 27


 1483 001c E368     		ldr	r3, [r4, #12]
 1484 001e 9847     		blx	r3
 1485              	.LVL175:
 1486              	.LBE475:
 1487              	.LBE474:
 1488              		.loc 1 308 0
 1489 0020 07EB8703 		add	r3, r7, r7, lsl #2
 1490              		.loc 1 307 0
 1491 0024 3928     		cmp	r0, #57
 1492              	.LBB477:
 1493              	.LBB478:
 1494              		.loc 1 119 0
 1495 0026 2946     		mov	r1, r5
 1496              	.LBE478:
 1497              	.LBE477:
 1498              		.loc 1 308 0
 1499 0028 4FEA4306 		lsl	r6, r3, #1
 1500              	.LVL176:
 1501              	.LBB481:
 1502              	.LBB479:
 1503              		.loc 1 119 0
 1504 002c 2046     		mov	r0, r4
 1505              	.LBE479:
 1506              	.LBE481:
 1507              		.loc 1 307 0
 1508 002e 0CD8     		bhi	.L140
 1509              	.LVL177:
 1510              	.LBB482:
 1511              	.LBB480:
 1512              		.loc 1 119 0
 1513 0030 E368     		ldr	r3, [r4, #12]
 1514 0032 9847     		blx	r3
 1515              	.LVL178:
 1516              	.LBE480:
 1517              	.LBE482:
 1518              		.loc 1 308 0
 1519 0034 3038     		subs	r0, r0, #48
 1520              		.loc 1 309 0
 1521 0036 0135     		adds	r5, r5, #1
 1522              	.LVL179:
 1523              		.loc 1 308 0
 1524 0038 8719     		adds	r7, r0, r6
 1525              	.LVL180:
 1526              	.L135:
 1527              	.LBB483:
 1528              	.LBB484:
 1529              		.loc 1 119 0
 1530 003a 2946     		mov	r1, r5
 1531 003c E368     		ldr	r3, [r4, #12]
 1532 003e 2046     		mov	r0, r4
 1533 0040 9847     		blx	r3
 1534              	.LVL181:
 1535              	.LBE484:
 1536              	.LBE483:
 1537              		.loc 1 307 0
 1538 0042 2F28     		cmp	r0, #47
 1539              	.LBB485:
ARM GAS  /tmp/ccUc3O3E.s 			page 28


 1540              	.LBB476:
 1541              		.loc 1 119 0
 1542 0044 2946     		mov	r1, r5
 1543 0046 2046     		mov	r0, r4
 1544              	.LBE476:
 1545              	.LBE485:
 1546              		.loc 1 307 0
 1547 0048 E8D8     		bhi	.L136
 1548              	.LVL182:
 1549              	.L140:
 1550              		.loc 1 311 0
 1551 004a B9F1000F 		cmp	r9, #0
 1552 004e 17D1     		bne	.L137
 1553              		.loc 1 312 0
 1554 0050 2E1C     		adds	r6, r5, #0
 1555 0052 18BF     		it	ne
 1556 0054 0126     		movne	r6, #1
 1557              	.LVL183:
 1558              	.L141:
 1559              	.LBB486:
 1560              	.LBB487:
 1561              		.loc 1 119 0
 1562 0056 E368     		ldr	r3, [r4, #12]
 1563 0058 2946     		mov	r1, r5
 1564              	.LVL184:
 1565 005a 2046     		mov	r0, r4
 1566              	.LVL185:
 1567 005c 9847     		blx	r3
 1568              	.LVL186:
 1569              	.LBE487:
 1570              	.LBE486:
 1571              		.loc 1 314 0
 1572 005e 6928     		cmp	r0, #105
 1573 0060 0BD1     		bne	.L144
 1574              	.LVL187:
 1575              	.LBB488:
 1576              	.LBB489:
 1577              		.loc 1 119 0 discriminator 1
 1578 0062 E368     		ldr	r3, [r4, #12]
 1579 0064 691C     		adds	r1, r5, #1
 1580              	.LVL188:
 1581 0066 2046     		mov	r0, r4
 1582 0068 9847     		blx	r3
 1583              	.LVL189:
 1584              	.LBE489:
 1585              	.LBE488:
 1586              		.loc 1 314 0 discriminator 1
 1587 006a 3328     		cmp	r0, #51
 1588 006c 05D1     		bne	.L144
 1589              	.LVL190:
 1590              	.LBB490:
 1591              	.LBB491:
 1592              		.loc 1 119 0
 1593 006e E368     		ldr	r3, [r4, #12]
 1594 0070 A91C     		adds	r1, r5, #2
 1595              	.LVL191:
 1596 0072 2046     		mov	r0, r4
ARM GAS  /tmp/ccUc3O3E.s 			page 29


 1597 0074 9847     		blx	r3
 1598              	.LVL192:
 1599              	.LBE491:
 1600              	.LBE490:
 1601              		.loc 1 315 0
 1602 0076 3228     		cmp	r0, #50
 1603 0078 07D0     		beq	.L156
 1604              	.L144:
 1605              		.loc 1 322 0
 1606 007a 0020     		movs	r0, #0
 1607              		.loc 1 323 0
 1608 007c BDE8F883 		pop	{r3, r4, r5, r6, r7, r8, r9, pc}
 1609              	.LVL193:
 1610              	.L137:
 1611              		.loc 1 311 0 discriminator 1
 1612 0080 012D     		cmp	r5, #1
 1613 0082 94BF     		ite	ls
 1614 0084 0026     		movls	r6, #0
 1615 0086 0126     		movhi	r6, #1
 1616 0088 E5E7     		b	.L141
 1617              	.LVL194:
 1618              	.L156:
 1619              		.loc 1 316 0
 1620 008a 002E     		cmp	r6, #0
 1621 008c F5D0     		beq	.L144
 1622              		.loc 1 318 0
 1623 008e B9F1000F 		cmp	r9, #0
 1624 0092 00D0     		beq	.L145
 1625              		.loc 1 318 0 is_stmt 0 discriminator 1
 1626 0094 7F42     		negs	r7, r7
 1627              	.LVL195:
 1628              	.L145:
 1629              		.loc 1 319 0 is_stmt 1 discriminator 4
 1630 0096 0335     		adds	r5, r5, #3
 1631              	.LVL196:
 1632              	.LBB492:
 1633              	.LBB493:
 1634              		.loc 1 123 0 discriminator 4
 1635 0098 2046     		mov	r0, r4
 1636              	.LBE493:
 1637              	.LBE492:
 1638              		.loc 1 318 0 discriminator 4
 1639 009a C8F80070 		str	r7, [r8]
 1640              	.LBB495:
 1641              	.LBB494:
 1642              		.loc 1 123 0 discriminator 4
 1643 009e 2946     		mov	r1, r5
 1644 00a0 2369     		ldr	r3, [r4, #16]
 1645 00a2 9847     		blx	r3
 1646              	.LVL197:
 1647              	.LBE494:
 1648              	.LBE495:
 1649              		.loc 1 320 0 discriminator 4
 1650 00a4 2846     		mov	r0, r5
 1651              		.loc 1 323 0 discriminator 4
 1652 00a6 BDE8F883 		pop	{r3, r4, r5, r6, r7, r8, r9, pc}
 1653              	.LVL198:
ARM GAS  /tmp/ccUc3O3E.s 			page 30


 1654              	.L155:
 1655              		.loc 1 304 0
 1656 00aa 4FF00109 		mov	r9, #1
 1657              		.loc 1 303 0
 1658 00ae 4D46     		mov	r5, r9
 1659 00b0 B2E7     		b	.L134
 1660              		.cfi_endproc
 1661              	.LFE48:
 1662              		.size	tok_I, .-tok_I
 1663 00b2 00BF     		.section	.text.tok_u,"ax",%progbits
 1664              		.align	1
 1665              		.p2align 4,,15
 1666              		.global	tok_u
 1667              		.syntax unified
 1668              		.thumb
 1669              		.thumb_func
 1670              		.fpu fpv4-sp-d16
 1671              		.type	tok_u, %function
 1672              	tok_u:
 1673              	.LFB49:
 1674              		.loc 1 325 0
 1675              		.cfi_startproc
 1676              		@ args = 0, pretend = 0, frame = 0
 1677              		@ frame_needed = 0, uses_anonymous_args = 0
 1678              	.LVL199:
 1679 0000 2DE9F843 		push	{r3, r4, r5, r6, r7, r8, r9, lr}
 1680              		.cfi_def_cfa_offset 32
 1681              		.cfi_offset 3, -32
 1682              		.cfi_offset 4, -28
 1683              		.cfi_offset 5, -24
 1684              		.cfi_offset 6, -20
 1685              		.cfi_offset 7, -16
 1686              		.cfi_offset 8, -12
 1687              		.cfi_offset 9, -8
 1688              		.cfi_offset 14, -4
 1689              		.loc 1 325 0
 1690 0004 0F46     		mov	r7, r1
 1691              	.LBB496:
 1692              	.LBB497:
 1693              		.loc 1 119 0
 1694 0006 C368     		ldr	r3, [r0, #12]
 1695 0008 0021     		movs	r1, #0
 1696              	.LVL200:
 1697              	.LBE497:
 1698              	.LBE496:
 1699              		.loc 1 325 0
 1700 000a 0446     		mov	r4, r0
 1701              	.LVL201:
 1702              	.LBB499:
 1703              	.LBB498:
 1704              		.loc 1 119 0
 1705 000c 9847     		blx	r3
 1706              	.LVL202:
 1707              	.LBE498:
 1708              	.LBE499:
 1709              		.loc 1 331 0
 1710 000e 2D28     		cmp	r0, #45
ARM GAS  /tmp/ccUc3O3E.s 			page 31


 1711 0010 4ED0     		beq	.L179
 1712              		.loc 1 328 0
 1713 0012 4FF00008 		mov	r8, #0
 1714              		.loc 1 327 0
 1715 0016 4646     		mov	r6, r8
 1716              	.L158:
 1717 0018 0025     		movs	r5, #0
 1718 001a 0DE0     		b	.L159
 1719              	.LVL203:
 1720              	.L160:
 1721              	.LBB500:
 1722              	.LBB501:
 1723              		.loc 1 119 0
 1724 001c E368     		ldr	r3, [r4, #12]
 1725 001e 9847     		blx	r3
 1726              	.LVL204:
 1727              	.LBE501:
 1728              	.LBE500:
 1729              		.loc 1 336 0
 1730 0020 3928     		cmp	r0, #57
 1731              	.LBB503:
 1732              	.LBB504:
 1733              		.loc 1 119 0
 1734 0022 3146     		mov	r1, r6
 1735 0024 2046     		mov	r0, r4
 1736              	.LBE504:
 1737              	.LBE503:
 1738              		.loc 1 336 0
 1739 0026 0FD8     		bhi	.L164
 1740              	.LVL205:
 1741              	.LBB506:
 1742              	.LBB505:
 1743              		.loc 1 119 0
 1744 0028 E368     		ldr	r3, [r4, #12]
 1745 002a 9847     		blx	r3
 1746              	.LVL206:
 1747              	.LBE505:
 1748              	.LBE506:
 1749              		.loc 1 337 0
 1750 002c 05EB8505 		add	r5, r5, r5, lsl #2
 1751              	.LVL207:
 1752 0030 00EB4505 		add	r5, r0, r5, lsl #1
 1753              		.loc 1 338 0
 1754 0034 0136     		adds	r6, r6, #1
 1755              	.LVL208:
 1756              		.loc 1 337 0
 1757 0036 303D     		subs	r5, r5, #48
 1758              	.LVL209:
 1759              	.L159:
 1760              	.LBB507:
 1761              	.LBB508:
 1762              		.loc 1 119 0
 1763 0038 3146     		mov	r1, r6
 1764 003a E368     		ldr	r3, [r4, #12]
 1765 003c 2046     		mov	r0, r4
 1766 003e 9847     		blx	r3
 1767              	.LVL210:
ARM GAS  /tmp/ccUc3O3E.s 			page 32


 1768              	.LBE508:
 1769              	.LBE507:
 1770              		.loc 1 336 0
 1771 0040 2F28     		cmp	r0, #47
 1772              	.LBB509:
 1773              	.LBB502:
 1774              		.loc 1 119 0
 1775 0042 3146     		mov	r1, r6
 1776 0044 2046     		mov	r0, r4
 1777              	.LBE502:
 1778              	.LBE509:
 1779              		.loc 1 336 0
 1780 0046 E9D8     		bhi	.L160
 1781              	.LVL211:
 1782              	.L164:
 1783              		.loc 1 340 0
 1784 0048 B8F1000F 		cmp	r8, #0
 1785 004c 19D1     		bne	.L161
 1786              		.loc 1 341 0
 1787 004e 16F10009 		adds	r9, r6, #0
 1788 0052 18BF     		it	ne
 1789 0054 4FF00109 		movne	r9, #1
 1790              	.LVL212:
 1791              	.L165:
 1792              	.LBB510:
 1793              	.LBB511:
 1794              		.loc 1 119 0
 1795 0058 E368     		ldr	r3, [r4, #12]
 1796 005a 3146     		mov	r1, r6
 1797              	.LVL213:
 1798 005c 2046     		mov	r0, r4
 1799              	.LVL214:
 1800 005e 9847     		blx	r3
 1801              	.LVL215:
 1802              	.LBE511:
 1803              	.LBE510:
 1804              		.loc 1 343 0
 1805 0060 7528     		cmp	r0, #117
 1806 0062 0BD1     		bne	.L168
 1807              	.LVL216:
 1808              	.LBB512:
 1809              	.LBB513:
 1810              		.loc 1 119 0 discriminator 1
 1811 0064 E368     		ldr	r3, [r4, #12]
 1812 0066 711C     		adds	r1, r6, #1
 1813              	.LVL217:
 1814 0068 2046     		mov	r0, r4
 1815 006a 9847     		blx	r3
 1816              	.LVL218:
 1817              	.LBE513:
 1818              	.LBE512:
 1819              		.loc 1 343 0 discriminator 1
 1820 006c 3228     		cmp	r0, #50
 1821 006e 05D1     		bne	.L168
 1822              	.LVL219:
 1823              	.LBB514:
 1824              	.LBB515:
ARM GAS  /tmp/ccUc3O3E.s 			page 33


 1825              		.loc 1 119 0
 1826 0070 E368     		ldr	r3, [r4, #12]
 1827 0072 B11C     		adds	r1, r6, #2
 1828              	.LVL220:
 1829 0074 2046     		mov	r0, r4
 1830 0076 9847     		blx	r3
 1831              	.LVL221:
 1832              	.LBE515:
 1833              	.LBE514:
 1834              		.loc 1 344 0
 1835 0078 3828     		cmp	r0, #56
 1836 007a 09D0     		beq	.L180
 1837              	.L168:
 1838              		.loc 1 351 0
 1839 007c 0020     		movs	r0, #0
 1840              		.loc 1 352 0
 1841 007e BDE8F883 		pop	{r3, r4, r5, r6, r7, r8, r9, pc}
 1842              	.LVL222:
 1843              	.L161:
 1844              		.loc 1 340 0 discriminator 1
 1845 0082 012E     		cmp	r6, #1
 1846 0084 94BF     		ite	ls
 1847 0086 4FF00009 		movls	r9, #0
 1848 008a 4FF00109 		movhi	r9, #1
 1849 008e E3E7     		b	.L165
 1850              	.LVL223:
 1851              	.L180:
 1852              		.loc 1 345 0
 1853 0090 B9F1000F 		cmp	r9, #0
 1854 0094 F2D0     		beq	.L168
 1855              		.loc 1 347 0
 1856 0096 B8F1000F 		cmp	r8, #0
 1857 009a 00D0     		beq	.L169
 1858              		.loc 1 347 0 is_stmt 0 discriminator 1
 1859 009c 6D42     		negs	r5, r5
 1860              	.LVL224:
 1861              	.L169:
 1862              		.loc 1 348 0 is_stmt 1 discriminator 4
 1863 009e 0336     		adds	r6, r6, #3
 1864              	.LVL225:
 1865              	.LBB516:
 1866              	.LBB517:
 1867              		.loc 1 123 0 discriminator 4
 1868 00a0 2046     		mov	r0, r4
 1869              	.LBE517:
 1870              	.LBE516:
 1871              		.loc 1 347 0 discriminator 4
 1872 00a2 3D60     		str	r5, [r7]
 1873              	.LBB519:
 1874              	.LBB518:
 1875              		.loc 1 123 0 discriminator 4
 1876 00a4 3146     		mov	r1, r6
 1877 00a6 2369     		ldr	r3, [r4, #16]
 1878 00a8 9847     		blx	r3
 1879              	.LVL226:
 1880              	.LBE518:
 1881              	.LBE519:
ARM GAS  /tmp/ccUc3O3E.s 			page 34


 1882              		.loc 1 349 0 discriminator 4
 1883 00aa 3046     		mov	r0, r6
 1884              		.loc 1 352 0 discriminator 4
 1885 00ac BDE8F883 		pop	{r3, r4, r5, r6, r7, r8, r9, pc}
 1886              	.LVL227:
 1887              	.L179:
 1888              		.loc 1 333 0
 1889 00b0 4FF00108 		mov	r8, #1
 1890              		.loc 1 332 0
 1891 00b4 4646     		mov	r6, r8
 1892 00b6 AFE7     		b	.L158
 1893              		.cfi_endproc
 1894              	.LFE49:
 1895              		.size	tok_u, .-tok_u
 1896              		.section	.text.tok_U,"ax",%progbits
 1897              		.align	1
 1898              		.p2align 4,,15
 1899              		.global	tok_U
 1900              		.syntax unified
 1901              		.thumb
 1902              		.thumb_func
 1903              		.fpu fpv4-sp-d16
 1904              		.type	tok_U, %function
 1905              	tok_U:
 1906              	.LFB50:
 1907              		.loc 1 354 0
 1908              		.cfi_startproc
 1909              		@ args = 0, pretend = 0, frame = 0
 1910              		@ frame_needed = 0, uses_anonymous_args = 0
 1911              	.LVL228:
 1912 0000 2DE9F843 		push	{r3, r4, r5, r6, r7, r8, r9, lr}
 1913              		.cfi_def_cfa_offset 32
 1914              		.cfi_offset 3, -32
 1915              		.cfi_offset 4, -28
 1916              		.cfi_offset 5, -24
 1917              		.cfi_offset 6, -20
 1918              		.cfi_offset 7, -16
 1919              		.cfi_offset 8, -12
 1920              		.cfi_offset 9, -8
 1921              		.cfi_offset 14, -4
 1922              	.LBB520:
 1923              	.LBB521:
 1924              		.loc 1 119 0
 1925 0004 C368     		ldr	r3, [r0, #12]
 1926              	.LBE521:
 1927              	.LBE520:
 1928              		.loc 1 354 0
 1929 0006 0F46     		mov	r7, r1
 1930              	.LBB524:
 1931              	.LBB522:
 1932              		.loc 1 119 0
 1933 0008 0021     		movs	r1, #0
 1934              	.LVL229:
 1935              	.LBE522:
 1936              	.LBE524:
 1937              		.loc 1 354 0
 1938 000a 0446     		mov	r4, r0
ARM GAS  /tmp/ccUc3O3E.s 			page 35


 1939              	.LVL230:
 1940              	.LBB525:
 1941              	.LBB523:
 1942              		.loc 1 119 0
 1943 000c 9847     		blx	r3
 1944              	.LVL231:
 1945              	.LBE523:
 1946              	.LBE525:
 1947              	.LBB526:
 1948              	.LBB527:
 1949 000e E368     		ldr	r3, [r4, #12]
 1950              	.LBE527:
 1951              	.LBE526:
 1952              		.loc 1 360 0
 1953 0010 2D28     		cmp	r0, #45
 1954              	.LBB530:
 1955              	.LBB528:
 1956              		.loc 1 119 0
 1957 0012 4FF00001 		mov	r1, #0
 1958 0016 2046     		mov	r0, r4
 1959              	.LBE528:
 1960              	.LBE530:
 1961              		.loc 1 362 0
 1962 0018 0CBF     		ite	eq
 1963 001a 4FF00108 		moveq	r8, #1
 1964              		.loc 1 357 0
 1965 001e 4FF00008 		movne	r8, #0
 1966              	.LVL232:
 1967              	.LBB531:
 1968              	.LBB529:
 1969              		.loc 1 119 0
 1970 0022 9847     		blx	r3
 1971              	.LVL233:
 1972              	.LBE529:
 1973              	.LBE531:
 1974              		.loc 1 366 0
 1975 0024 3028     		cmp	r0, #48
 1976              		.loc 1 356 0
 1977 0026 4546     		mov	r5, r8
 1978              		.loc 1 366 0
 1979 0028 0BD1     		bne	.L214
 1980              	.LVL234:
 1981              	.LBB532:
 1982              	.LBB533:
 1983              		.loc 1 119 0
 1984 002a E368     		ldr	r3, [r4, #12]
 1985 002c 0121     		movs	r1, #1
 1986 002e 2046     		mov	r0, r4
 1987 0030 9847     		blx	r3
 1988              	.LVL235:
 1989              	.LBE533:
 1990              	.LBE532:
 1991              		.loc 1 366 0
 1992 0032 7828     		cmp	r0, #120
 1993 0034 41D0     		beq	.L186
 1994              	.LVL236:
 1995              	.LBB534:
ARM GAS  /tmp/ccUc3O3E.s 			page 36


 1996              	.LBB535:
 1997              		.loc 1 119 0
 1998 0036 E368     		ldr	r3, [r4, #12]
 1999 0038 0121     		movs	r1, #1
 2000 003a 2046     		mov	r0, r4
 2001 003c 9847     		blx	r3
 2002              	.LVL237:
 2003              	.LBE535:
 2004              	.LBE534:
 2005              		.loc 1 367 0
 2006 003e 5828     		cmp	r0, #88
 2007 0040 3BD0     		beq	.L186
 2008              	.L214:
 2009              		.loc 1 355 0
 2010 0042 0026     		movs	r6, #0
 2011 0044 0DE0     		b	.L202
 2012              	.LVL238:
 2013              	.L203:
 2014              	.LBB536:
 2015              	.LBB537:
 2016              		.loc 1 119 0
 2017 0046 E368     		ldr	r3, [r4, #12]
 2018 0048 9847     		blx	r3
 2019              	.LVL239:
 2020              	.LBE537:
 2021              	.LBE536:
 2022              		.loc 1 394 0
 2023 004a 3928     		cmp	r0, #57
 2024              	.LBB539:
 2025              	.LBB540:
 2026              		.loc 1 119 0
 2027 004c 2946     		mov	r1, r5
 2028 004e 2046     		mov	r0, r4
 2029              	.LBE540:
 2030              	.LBE539:
 2031              		.loc 1 394 0
 2032 0050 0FD8     		bhi	.L207
 2033              	.LVL240:
 2034              	.LBB542:
 2035              	.LBB541:
 2036              		.loc 1 119 0
 2037 0052 E368     		ldr	r3, [r4, #12]
 2038 0054 9847     		blx	r3
 2039              	.LVL241:
 2040              	.LBE541:
 2041              	.LBE542:
 2042              		.loc 1 395 0
 2043 0056 06EB8606 		add	r6, r6, r6, lsl #2
 2044              	.LVL242:
 2045 005a 00EB4606 		add	r6, r0, r6, lsl #1
 2046              		.loc 1 396 0
 2047 005e 0135     		adds	r5, r5, #1
 2048              	.LVL243:
 2049              		.loc 1 395 0
 2050 0060 303E     		subs	r6, r6, #48
 2051              	.LVL244:
 2052              	.L202:
ARM GAS  /tmp/ccUc3O3E.s 			page 37


 2053              	.LBB543:
 2054              	.LBB544:
 2055              		.loc 1 119 0
 2056 0062 2946     		mov	r1, r5
 2057 0064 E368     		ldr	r3, [r4, #12]
 2058 0066 2046     		mov	r0, r4
 2059 0068 9847     		blx	r3
 2060              	.LVL245:
 2061              	.LBE544:
 2062              	.LBE543:
 2063              		.loc 1 394 0
 2064 006a 2F28     		cmp	r0, #47
 2065              	.LBB545:
 2066              	.LBB538:
 2067              		.loc 1 119 0
 2068 006c 2946     		mov	r1, r5
 2069 006e 2046     		mov	r0, r4
 2070              	.LBE538:
 2071              	.LBE545:
 2072              		.loc 1 394 0
 2073 0070 E9D8     		bhi	.L203
 2074              	.LVL246:
 2075              	.L207:
 2076              		.loc 1 398 0
 2077 0072 B8F1000F 		cmp	r8, #0
 2078 0076 1AD0     		beq	.L227
 2079              		.loc 1 398 0 is_stmt 0 discriminator 1
 2080 0078 012D     		cmp	r5, #1
 2081 007a 94BF     		ite	ls
 2082 007c 4FF00009 		movls	r9, #0
 2083 0080 4FF00109 		movhi	r9, #1
 2084              	.L208:
 2085              	.LVL247:
 2086              	.LBB546:
 2087              	.LBB547:
 2088              		.loc 1 119 0 is_stmt 1
 2089 0084 E368     		ldr	r3, [r4, #12]
 2090 0086 2946     		mov	r1, r5
 2091              	.LVL248:
 2092 0088 2046     		mov	r0, r4
 2093              	.LVL249:
 2094 008a 9847     		blx	r3
 2095              	.LVL250:
 2096              	.LBE547:
 2097              	.LBE546:
 2098              		.loc 1 401 0
 2099 008c 7528     		cmp	r0, #117
 2100 008e 0BD1     		bne	.L210
 2101              	.LVL251:
 2102              	.LBB548:
 2103              	.LBB549:
 2104              		.loc 1 119 0 discriminator 1
 2105 0090 E368     		ldr	r3, [r4, #12]
 2106 0092 691C     		adds	r1, r5, #1
 2107              	.LVL252:
 2108 0094 2046     		mov	r0, r4
 2109 0096 9847     		blx	r3
ARM GAS  /tmp/ccUc3O3E.s 			page 38


 2110              	.LVL253:
 2111              	.LBE549:
 2112              	.LBE548:
 2113              		.loc 1 401 0 discriminator 1
 2114 0098 3328     		cmp	r0, #51
 2115 009a 05D1     		bne	.L210
 2116              	.LVL254:
 2117              	.LBB550:
 2118              	.LBB551:
 2119              		.loc 1 119 0
 2120 009c E368     		ldr	r3, [r4, #12]
 2121 009e A91C     		adds	r1, r5, #2
 2122              	.LVL255:
 2123 00a0 2046     		mov	r0, r4
 2124 00a2 9847     		blx	r3
 2125              	.LVL256:
 2126              	.LBE551:
 2127              	.LBE550:
 2128              		.loc 1 402 0
 2129 00a4 3228     		cmp	r0, #50
 2130 00a6 6AD0     		beq	.L228
 2131              	.L210:
 2132              		.loc 1 409 0
 2133 00a8 0020     		movs	r0, #0
 2134              		.loc 1 410 0
 2135 00aa BDE8F883 		pop	{r3, r4, r5, r6, r7, r8, r9, pc}
 2136              	.LVL257:
 2137              	.L227:
 2138              		.loc 1 399 0
 2139 00ae 15F10009 		adds	r9, r5, #0
 2140 00b2 18BF     		it	ne
 2141 00b4 4FF00109 		movne	r9, #1
 2142 00b8 E4E7     		b	.L208
 2143              	.LVL258:
 2144              	.L186:
 2145              		.loc 1 368 0
 2146 00ba 0235     		adds	r5, r5, #2
 2147              	.LVL259:
 2148              		.loc 1 355 0
 2149 00bc 0026     		movs	r6, #0
 2150              		.loc 1 369 0
 2151 00be 0DE0     		b	.L185
 2152              	.LVL260:
 2153              	.L229:
 2154              	.LBB552:
 2155              	.LBB553:
 2156              	.LBB554:
 2157              		.loc 1 119 0
 2158 00c0 E368     		ldr	r3, [r4, #12]
 2159 00c2 2946     		mov	r1, r5
 2160 00c4 2046     		mov	r0, r4
 2161 00c6 9847     		blx	r3
 2162              	.LVL261:
 2163              	.LBE554:
 2164              	.LBE553:
 2165              		.loc 1 373 0
 2166 00c8 6628     		cmp	r0, #102
ARM GAS  /tmp/ccUc3O3E.s 			page 39


 2167 00ca 31D8     		bhi	.L187
 2168              	.LVL262:
 2169              	.LBB555:
 2170              	.LBB556:
 2171              		.loc 1 119 0
 2172 00cc E368     		ldr	r3, [r4, #12]
 2173 00ce 2946     		mov	r1, r5
 2174 00d0 2046     		mov	r0, r4
 2175 00d2 9847     		blx	r3
 2176              	.LVL263:
 2177              	.LBE556:
 2178              	.LBE555:
 2179              		.loc 1 374 0
 2180 00d4 5738     		subs	r0, r0, #87
 2181              	.LVL264:
 2182              	.L188:
 2183              		.loc 1 380 0
 2184 00d6 00EB0616 		add	r6, r0, r6, lsl #4
 2185              	.LVL265:
 2186              		.loc 1 381 0
 2187 00da 0135     		adds	r5, r5, #1
 2188              	.LVL266:
 2189              	.L185:
 2190              	.LBE552:
 2191              	.LBB567:
 2192              	.LBB568:
 2193              		.loc 1 119 0
 2194 00dc E368     		ldr	r3, [r4, #12]
 2195 00de 2946     		mov	r1, r5
 2196 00e0 2046     		mov	r0, r4
 2197 00e2 9847     		blx	r3
 2198              	.LVL267:
 2199              	.LBE568:
 2200              	.LBE567:
 2201              		.loc 1 369 0
 2202 00e4 2F28     		cmp	r0, #47
 2203 00e6 05D9     		bls	.L194
 2204              	.LVL268:
 2205              	.LBB569:
 2206              	.LBB570:
 2207              		.loc 1 119 0
 2208 00e8 E368     		ldr	r3, [r4, #12]
 2209 00ea 2946     		mov	r1, r5
 2210 00ec 2046     		mov	r0, r4
 2211 00ee 9847     		blx	r3
 2212              	.LVL269:
 2213              	.LBE570:
 2214              	.LBE569:
 2215              		.loc 1 369 0
 2216 00f0 3928     		cmp	r0, #57
 2217 00f2 17D9     		bls	.L193
 2218              	.L194:
 2219              	.LVL270:
 2220              	.LBB571:
 2221              	.LBB572:
 2222              		.loc 1 119 0
 2223 00f4 E368     		ldr	r3, [r4, #12]
ARM GAS  /tmp/ccUc3O3E.s 			page 40


 2224 00f6 2946     		mov	r1, r5
 2225 00f8 2046     		mov	r0, r4
 2226 00fa 9847     		blx	r3
 2227              	.LVL271:
 2228              	.LBE572:
 2229              	.LBE571:
 2230              		.loc 1 369 0
 2231 00fc 6028     		cmp	r0, #96
 2232 00fe 05D9     		bls	.L192
 2233              	.LVL272:
 2234              	.LBB573:
 2235              	.LBB574:
 2236              		.loc 1 119 0
 2237 0100 E368     		ldr	r3, [r4, #12]
 2238 0102 2946     		mov	r1, r5
 2239 0104 2046     		mov	r0, r4
 2240 0106 9847     		blx	r3
 2241              	.LVL273:
 2242              	.LBE574:
 2243              	.LBE573:
 2244              		.loc 1 370 0
 2245 0108 6628     		cmp	r0, #102
 2246 010a 0BD9     		bls	.L193
 2247              	.L192:
 2248              	.LVL274:
 2249              	.LBB575:
 2250              	.LBB576:
 2251              		.loc 1 119 0
 2252 010c E368     		ldr	r3, [r4, #12]
 2253 010e 2946     		mov	r1, r5
 2254 0110 2046     		mov	r0, r4
 2255 0112 9847     		blx	r3
 2256              	.LVL275:
 2257              	.LBE576:
 2258              	.LBE575:
 2259              		.loc 1 370 0
 2260 0114 4028     		cmp	r0, #64
 2261 0116 23D9     		bls	.L196
 2262              	.LVL276:
 2263              	.LBB577:
 2264              	.LBB578:
 2265              		.loc 1 119 0
 2266 0118 E368     		ldr	r3, [r4, #12]
 2267 011a 2946     		mov	r1, r5
 2268 011c 2046     		mov	r0, r4
 2269 011e 9847     		blx	r3
 2270              	.LVL277:
 2271              	.LBE578:
 2272              	.LBE577:
 2273              		.loc 1 371 0
 2274 0120 4628     		cmp	r0, #70
 2275 0122 1DD8     		bhi	.L196
 2276              	.L193:
 2277              	.LVL278:
 2278              	.LBB579:
 2279              	.LBB557:
 2280              	.LBB558:
ARM GAS  /tmp/ccUc3O3E.s 			page 41


 2281              		.loc 1 119 0
 2282 0124 E368     		ldr	r3, [r4, #12]
 2283 0126 2946     		mov	r1, r5
 2284 0128 2046     		mov	r0, r4
 2285 012a 9847     		blx	r3
 2286              	.LVL279:
 2287              	.LBE558:
 2288              	.LBE557:
 2289              		.loc 1 373 0
 2290 012c 6028     		cmp	r0, #96
 2291 012e C7D8     		bhi	.L229
 2292              	.L187:
 2293              	.LVL280:
 2294              	.LBB559:
 2295              	.LBB560:
 2296              		.loc 1 119 0
 2297 0130 E368     		ldr	r3, [r4, #12]
 2298 0132 2946     		mov	r1, r5
 2299 0134 2046     		mov	r0, r4
 2300 0136 9847     		blx	r3
 2301              	.LVL281:
 2302              	.LBE560:
 2303              	.LBE559:
 2304              		.loc 1 375 0
 2305 0138 4028     		cmp	r0, #64
 2306 013a 0BD9     		bls	.L189
 2307              	.LVL282:
 2308              	.LBB561:
 2309              	.LBB562:
 2310              		.loc 1 119 0
 2311 013c E368     		ldr	r3, [r4, #12]
 2312 013e 2946     		mov	r1, r5
 2313 0140 2046     		mov	r0, r4
 2314 0142 9847     		blx	r3
 2315              	.LVL283:
 2316              	.LBE562:
 2317              	.LBE561:
 2318              		.loc 1 375 0
 2319 0144 4628     		cmp	r0, #70
 2320 0146 05D8     		bhi	.L189
 2321              	.LVL284:
 2322              	.LBB563:
 2323              	.LBB564:
 2324              		.loc 1 119 0
 2325 0148 E368     		ldr	r3, [r4, #12]
 2326 014a 2946     		mov	r1, r5
 2327 014c 2046     		mov	r0, r4
 2328 014e 9847     		blx	r3
 2329              	.LVL285:
 2330              	.LBE564:
 2331              	.LBE563:
 2332              		.loc 1 376 0
 2333 0150 3738     		subs	r0, r0, #55
 2334              	.LVL286:
 2335 0152 C0E7     		b	.L188
 2336              	.LVL287:
 2337              	.L189:
ARM GAS  /tmp/ccUc3O3E.s 			page 42


 2338              	.LBB565:
 2339              	.LBB566:
 2340              		.loc 1 119 0
 2341 0154 E368     		ldr	r3, [r4, #12]
 2342 0156 2946     		mov	r1, r5
 2343 0158 2046     		mov	r0, r4
 2344 015a 9847     		blx	r3
 2345              	.LVL288:
 2346              	.LBE566:
 2347              	.LBE565:
 2348              		.loc 1 378 0
 2349 015c 3038     		subs	r0, r0, #48
 2350              	.LVL289:
 2351 015e BAE7     		b	.L188
 2352              	.LVL290:
 2353              	.L196:
 2354              	.LBE579:
 2355              		.loc 1 383 0
 2356 0160 B8F1000F 		cmp	r8, #0
 2357 0164 1BD0     		beq	.L230
 2358              		.loc 1 383 0 is_stmt 0 discriminator 1
 2359 0166 012D     		cmp	r5, #1
 2360 0168 7FF67BAF 		bls	.L202
 2361              	.LVL291:
 2362              	.LBB580:
 2363              	.LBB581:
 2364              		.loc 1 123 0 is_stmt 1
 2365 016c 2369     		ldr	r3, [r4, #16]
 2366 016e 2046     		mov	r0, r4
 2367 0170 2946     		mov	r1, r5
 2368              	.LBE581:
 2369              	.LBE580:
 2370              		.loc 1 388 0
 2371 0172 7642     		negs	r6, r6
 2372              	.LVL292:
 2373              	.LBB584:
 2374              	.LBB582:
 2375              		.loc 1 123 0
 2376 0174 9847     		blx	r3
 2377              	.LVL293:
 2378              	.L212:
 2379              	.LBE582:
 2380              	.LBE584:
 2381              		.loc 1 388 0 discriminator 4
 2382 0176 3E60     		str	r6, [r7]
 2383              		.loc 1 389 0 discriminator 4
 2384 0178 2846     		mov	r0, r5
 2385              		.loc 1 410 0 discriminator 4
 2386 017a BDE8F883 		pop	{r3, r4, r5, r6, r7, r8, r9, pc}
 2387              	.LVL294:
 2388              	.L228:
 2389              		.loc 1 403 0
 2390 017e B9F1000F 		cmp	r9, #0
 2391 0182 91D0     		beq	.L210
 2392              		.loc 1 405 0
 2393 0184 B8F1000F 		cmp	r8, #0
 2394 0188 00D0     		beq	.L211
ARM GAS  /tmp/ccUc3O3E.s 			page 43


 2395              		.loc 1 405 0 is_stmt 0 discriminator 1
 2396 018a 7642     		negs	r6, r6
 2397              	.LVL295:
 2398              	.L211:
 2399              		.loc 1 406 0 is_stmt 1 discriminator 4
 2400 018c 0335     		adds	r5, r5, #3
 2401              	.LVL296:
 2402              	.LBB585:
 2403              	.LBB586:
 2404              		.loc 1 123 0 discriminator 4
 2405 018e 2046     		mov	r0, r4
 2406              	.LBE586:
 2407              	.LBE585:
 2408              		.loc 1 405 0 discriminator 4
 2409 0190 3E60     		str	r6, [r7]
 2410              	.LBB588:
 2411              	.LBB587:
 2412              		.loc 1 123 0 discriminator 4
 2413 0192 2946     		mov	r1, r5
 2414 0194 2369     		ldr	r3, [r4, #16]
 2415 0196 9847     		blx	r3
 2416              	.LVL297:
 2417              	.LBE587:
 2418              	.LBE588:
 2419              		.loc 1 407 0 discriminator 4
 2420 0198 2846     		mov	r0, r5
 2421              		.loc 1 410 0 discriminator 4
 2422 019a BDE8F883 		pop	{r3, r4, r5, r6, r7, r8, r9, pc}
 2423              	.LVL298:
 2424              	.L230:
 2425              		.loc 1 384 0
 2426 019e 002D     		cmp	r5, #0
 2427 01a0 3FF45FAF 		beq	.L202
 2428              	.LVL299:
 2429              	.LBB589:
 2430              	.LBB583:
 2431              		.loc 1 123 0
 2432 01a4 2369     		ldr	r3, [r4, #16]
 2433 01a6 2046     		mov	r0, r4
 2434 01a8 2946     		mov	r1, r5
 2435 01aa 9847     		blx	r3
 2436              	.LVL300:
 2437 01ac E3E7     		b	.L212
 2438              	.LBE583:
 2439              	.LBE589:
 2440              		.cfi_endproc
 2441              	.LFE50:
 2442              		.size	tok_U, .-tok_U
 2443              		.global	__aeabi_d2f
 2444 01ae 00BF     		.section	.text.tok_F,"ax",%progbits
 2445              		.align	1
 2446              		.p2align 4,,15
 2447              		.global	tok_F
 2448              		.syntax unified
 2449              		.thumb
 2450              		.thumb_func
 2451              		.fpu fpv4-sp-d16
ARM GAS  /tmp/ccUc3O3E.s 			page 44


 2452              		.type	tok_F, %function
 2453              	tok_F:
 2454              	.LFB51:
 2455              		.loc 1 412 0
 2456              		.cfi_startproc
 2457              		@ args = 0, pretend = 0, frame = 128
 2458              		@ frame_needed = 0, uses_anonymous_args = 0
 2459              	.LVL301:
 2460 0000 2DE9F043 		push	{r4, r5, r6, r7, r8, r9, lr}
 2461              		.cfi_def_cfa_offset 28
 2462              		.cfi_offset 4, -28
 2463              		.cfi_offset 5, -24
 2464              		.cfi_offset 6, -20
 2465              		.cfi_offset 7, -16
 2466              		.cfi_offset 8, -12
 2467              		.cfi_offset 9, -8
 2468              		.cfi_offset 14, -4
 2469              	.LBB590:
 2470              	.LBB591:
 2471              		.loc 1 119 0
 2472 0004 C368     		ldr	r3, [r0, #12]
 2473              	.LBE591:
 2474              	.LBE590:
 2475              		.loc 1 412 0
 2476 0006 A1B0     		sub	sp, sp, #132
 2477              		.cfi_def_cfa_offset 160
 2478              		.loc 1 412 0
 2479 0008 0E46     		mov	r6, r1
 2480              	.LBB594:
 2481              	.LBB592:
 2482              		.loc 1 119 0
 2483 000a 0021     		movs	r1, #0
 2484              	.LVL302:
 2485              	.LBE592:
 2486              	.LBE594:
 2487              		.loc 1 412 0
 2488 000c 0446     		mov	r4, r0
 2489              	.LVL303:
 2490              	.LBB595:
 2491              	.LBB593:
 2492              		.loc 1 119 0
 2493 000e 9847     		blx	r3
 2494              	.LVL304:
 2495              	.LBE593:
 2496              	.LBE595:
 2497              		.loc 1 420 0
 2498 0010 2D28     		cmp	r0, #45
 2499 0012 5BD0     		beq	.L256
 2500              		.loc 1 417 0
 2501 0014 0027     		movs	r7, #0
 2502              		.loc 1 414 0
 2503 0016 3D46     		mov	r5, r7
 2504 0018 04E0     		b	.L233
 2505              	.LVL305:
 2506              	.L234:
 2507              	.LBB596:
 2508              	.LBB597:
ARM GAS  /tmp/ccUc3O3E.s 			page 45


 2509              		.loc 1 119 0
 2510 001a E368     		ldr	r3, [r4, #12]
 2511 001c 9847     		blx	r3
 2512              	.LVL306:
 2513              	.LBE597:
 2514              	.LBE596:
 2515              		.loc 1 425 0
 2516 001e 3928     		cmp	r0, #57
 2517 0020 08D8     		bhi	.L238
 2518              		.loc 1 425 0 is_stmt 0 discriminator 3
 2519 0022 0135     		adds	r5, r5, #1
 2520              	.LVL307:
 2521              	.L233:
 2522              	.LBB599:
 2523              	.LBB600:
 2524              		.loc 1 119 0 is_stmt 1 discriminator 1
 2525 0024 2946     		mov	r1, r5
 2526 0026 E368     		ldr	r3, [r4, #12]
 2527 0028 2046     		mov	r0, r4
 2528 002a 9847     		blx	r3
 2529              	.LVL308:
 2530              	.LBE600:
 2531              	.LBE599:
 2532              		.loc 1 425 0 discriminator 1
 2533 002c 2F28     		cmp	r0, #47
 2534              	.LBB601:
 2535              	.LBB598:
 2536              		.loc 1 119 0 discriminator 1
 2537 002e 2946     		mov	r1, r5
 2538 0030 2046     		mov	r0, r4
 2539              	.LBE598:
 2540              	.LBE601:
 2541              		.loc 1 425 0 discriminator 1
 2542 0032 F2D8     		bhi	.L234
 2543              	.LVL309:
 2544              	.L238:
 2545              	.LBB602:
 2546              	.LBB603:
 2547              		.loc 1 119 0
 2548 0034 E368     		ldr	r3, [r4, #12]
 2549 0036 2946     		mov	r1, r5
 2550 0038 2046     		mov	r0, r4
 2551 003a 9847     		blx	r3
 2552              	.LVL310:
 2553              	.LBE603:
 2554              	.LBE602:
 2555              		.loc 1 427 0
 2556 003c 2E28     		cmp	r0, #46
 2557 003e 0CD1     		bne	.L236
 2558              		.loc 1 427 0 is_stmt 0 discriminator 1
 2559 0040 0135     		adds	r5, r5, #1
 2560              	.LVL311:
 2561              	.LBB604:
 2562              	.LBB605:
 2563              		.loc 1 119 0 is_stmt 1 discriminator 1
 2564 0042 2946     		mov	r1, r5
 2565 0044 E368     		ldr	r3, [r4, #12]
ARM GAS  /tmp/ccUc3O3E.s 			page 46


 2566 0046 2046     		mov	r0, r4
 2567 0048 9847     		blx	r3
 2568              	.LVL312:
 2569              	.LBE605:
 2570              	.LBE604:
 2571              		.loc 1 430 0 discriminator 1
 2572 004a 2F28     		cmp	r0, #47
 2573 004c 05D9     		bls	.L236
 2574              	.LVL313:
 2575              	.LBB606:
 2576              	.LBB607:
 2577              		.loc 1 119 0
 2578 004e E368     		ldr	r3, [r4, #12]
 2579 0050 2946     		mov	r1, r5
 2580 0052 2046     		mov	r0, r4
 2581 0054 9847     		blx	r3
 2582              	.LVL314:
 2583              	.LBE607:
 2584              	.LBE606:
 2585              		.loc 1 430 0
 2586 0056 3928     		cmp	r0, #57
 2587 0058 09D9     		bls	.L240
 2588              	.LVL315:
 2589              	.L236:
 2590              		.loc 1 428 0
 2591 005a 0025     		movs	r5, #0
 2592              	.LVL316:
 2593              		.loc 1 449 0
 2594 005c 2846     		mov	r0, r5
 2595 005e 21B0     		add	sp, sp, #132
 2596              		.cfi_remember_state
 2597              		.cfi_def_cfa_offset 28
 2598              		@ sp needed
 2599 0060 BDE8F083 		pop	{r4, r5, r6, r7, r8, r9, pc}
 2600              	.LVL317:
 2601              	.L241:
 2602              		.cfi_restore_state
 2603              	.LBB608:
 2604              	.LBB609:
 2605              		.loc 1 119 0
 2606 0064 E368     		ldr	r3, [r4, #12]
 2607 0066 9847     		blx	r3
 2608              	.LVL318:
 2609              	.LBE609:
 2610              	.LBE608:
 2611              		.loc 1 431 0
 2612 0068 3928     		cmp	r0, #57
 2613 006a 08D8     		bhi	.L245
 2614              		.loc 1 431 0 is_stmt 0 discriminator 3
 2615 006c 0135     		adds	r5, r5, #1
 2616              	.LVL319:
 2617              	.L240:
 2618              	.LBB611:
 2619              	.LBB612:
 2620              		.loc 1 119 0 is_stmt 1 discriminator 1
 2621 006e 2946     		mov	r1, r5
 2622 0070 E368     		ldr	r3, [r4, #12]
ARM GAS  /tmp/ccUc3O3E.s 			page 47


 2623 0072 2046     		mov	r0, r4
 2624 0074 9847     		blx	r3
 2625              	.LVL320:
 2626              	.LBE612:
 2627              	.LBE611:
 2628              		.loc 1 431 0 discriminator 1
 2629 0076 2F28     		cmp	r0, #47
 2630              	.LBB613:
 2631              	.LBB610:
 2632              		.loc 1 119 0 discriminator 1
 2633 0078 2946     		mov	r1, r5
 2634 007a 2046     		mov	r0, r4
 2635              	.LBE610:
 2636              	.LBE613:
 2637              		.loc 1 431 0 discriminator 1
 2638 007c F2D8     		bhi	.L241
 2639              	.LVL321:
 2640              	.L245:
 2641              		.loc 1 433 0
 2642 007e 17BB     		cbnz	r7, .L242
 2643              		.loc 1 434 0
 2644 0080 002D     		cmp	r5, #0
 2645 0082 EAD0     		beq	.L236
 2646              	.LVL322:
 2647              	.L255:
 2648 0084 7F2D     		cmp	r5, #127
 2649 0086 A946     		mov	r9, r5
 2650 0088 28BF     		it	cs
 2651 008a 4FF07F09 		movcs	r9, #127
 2652              	.LVL323:
 2653 008e 6F46     		mov	r7, sp
 2654 0090 0DEB0908 		add	r8, sp, r9
 2655              	.LVL324:
 2656              	.L247:
 2657              	.LBB614:
 2658              	.LBB615:
 2659              	.LBB616:
 2660              		.loc 1 115 0
 2661 0094 A368     		ldr	r3, [r4, #8]
 2662 0096 2046     		mov	r0, r4
 2663 0098 9847     		blx	r3
 2664              	.LVL325:
 2665              	.LBE616:
 2666              	.LBE615:
 2667              		.loc 1 441 0
 2668 009a 07F8010B 		strb	r0, [r7], #1
 2669              	.LVL326:
 2670              		.loc 1 440 0
 2671 009e B845     		cmp	r8, r7
 2672 00a0 F8D1     		bne	.L247
 2673              		.loc 1 444 0
 2674 00a2 20AB     		add	r3, sp, #128
 2675 00a4 9944     		add	r9, r9, r3
 2676              	.LVL327:
 2677 00a6 0023     		movs	r3, #0
 2678              		.loc 1 445 0
 2679 00a8 1946     		mov	r1, r3
ARM GAS  /tmp/ccUc3O3E.s 			page 48


 2680 00aa 6846     		mov	r0, sp
 2681              		.loc 1 444 0
 2682 00ac 09F8803C 		strb	r3, [r9, #-128]
 2683              		.loc 1 445 0
 2684 00b0 FFF7FEFF 		bl	strtod
 2685              	.LVL328:
 2686 00b4 51EC100B 		vmov	r0, r1, d0
 2687 00b8 FFF7FEFF 		bl	__aeabi_d2f
 2688              	.LVL329:
 2689 00bc 3060     		str	r0, [r6]	@ float
 2690              	.LBE614:
 2691              		.loc 1 449 0
 2692 00be 2846     		mov	r0, r5
 2693 00c0 21B0     		add	sp, sp, #132
 2694              		.cfi_remember_state
 2695              		.cfi_def_cfa_offset 28
 2696              		@ sp needed
 2697 00c2 BDE8F083 		pop	{r4, r5, r6, r7, r8, r9, pc}
 2698              	.LVL330:
 2699              	.L242:
 2700              		.cfi_restore_state
 2701              		.loc 1 438 0 discriminator 1
 2702 00c6 012D     		cmp	r5, #1
 2703 00c8 DCD8     		bhi	.L255
 2704 00ca C6E7     		b	.L236
 2705              	.LVL331:
 2706              	.L256:
 2707              		.loc 1 422 0
 2708 00cc 0127     		movs	r7, #1
 2709              		.loc 1 421 0
 2710 00ce 3D46     		mov	r5, r7
 2711 00d0 A8E7     		b	.L233
 2712              		.cfi_endproc
 2713              	.LFE51:
 2714              		.size	tok_F, .-tok_F
 2715 00d2 00BF     		.section	.text.lbm_get_next_token,"ax",%progbits
 2716              		.align	1
 2717              		.p2align 4,,15
 2718              		.global	lbm_get_next_token
 2719              		.syntax unified
 2720              		.thumb
 2721              		.thumb_func
 2722              		.fpu fpv4-sp-d16
 2723              		.type	lbm_get_next_token, %function
 2724              	lbm_get_next_token:
 2725              	.LFB52:
 2726              		.loc 1 452 0
 2727              		.cfi_startproc
 2728              		@ args = 0, pretend = 0, frame = 24
 2729              		@ frame_needed = 0, uses_anonymous_args = 0
 2730              	.LVL332:
 2731 0000 70B5     		push	{r4, r5, r6, lr}
 2732              		.cfi_def_cfa_offset 16
 2733              		.cfi_offset 4, -16
 2734              		.cfi_offset 5, -12
 2735              		.cfi_offset 6, -8
 2736              		.cfi_offset 14, -4
ARM GAS  /tmp/ccUc3O3E.s 			page 49


 2737              	.LBB663:
 2738              	.LBB664:
 2739              		.loc 1 111 0
 2740 0002 4368     		ldr	r3, [r0, #4]
 2741              	.LBE664:
 2742              	.LBE663:
 2743              		.loc 1 452 0
 2744 0004 86B0     		sub	sp, sp, #24
 2745              		.cfi_def_cfa_offset 40
 2746              		.loc 1 452 0
 2747 0006 0446     		mov	r4, r0
 2748              	.LVL333:
 2749              	.LBB666:
 2750              	.LBB665:
 2751              		.loc 1 111 0
 2752 0008 9847     		blx	r3
 2753              	.LVL334:
 2754              	.LBE665:
 2755              	.LBE666:
 2756              		.loc 1 460 0
 2757 000a 0028     		cmp	r0, #0
 2758 000c 42D0     		beq	.L266
 2759              	.L258:
 2760              	.LVL335:
 2761              	.LBB667:
 2762              	.LBB668:
 2763              		.loc 1 119 0
 2764 000e E368     		ldr	r3, [r4, #12]
 2765 0010 0021     		movs	r1, #0
 2766 0012 2046     		mov	r0, r4
 2767 0014 9847     		blx	r3
 2768              	.LVL336:
 2769              	.LBE668:
 2770              	.LBE667:
 2771              		.loc 1 467 0
 2772 0016 3B28     		cmp	r0, #59
 2773 0018 19D0     		beq	.L267
 2774              		.loc 1 471 0
 2775 001a FFF7FEFF 		bl	__locale_ctype_ptr
 2776              	.LVL337:
 2777              	.LBB669:
 2778              	.LBB670:
 2779              		.loc 1 119 0
 2780 001e E368     		ldr	r3, [r4, #12]
 2781              	.LBE670:
 2782              	.LBE669:
 2783              		.loc 1 471 0
 2784 0020 0546     		mov	r5, r0
 2785              	.LVL338:
 2786              	.LBB672:
 2787              	.LBB671:
 2788              		.loc 1 119 0
 2789 0022 0021     		movs	r1, #0
 2790 0024 2046     		mov	r0, r4
 2791 0026 9847     		blx	r3
 2792              	.LVL339:
 2793              	.LBE671:
ARM GAS  /tmp/ccUc3O3E.s 			page 50


 2794              	.LBE672:
 2795              		.loc 1 471 0
 2796 0028 2844     		add	r0, r0, r5
 2797 002a 4378     		ldrb	r3, [r0, #1]	@ zero_extendqisi2
 2798 002c 1807     		lsls	r0, r3, #28
 2799 002e 15D5     		bpl	.L321
 2800              	.LVL340:
 2801              	.LBB673:
 2802              	.LBB674:
 2803              		.loc 1 123 0
 2804 0030 2369     		ldr	r3, [r4, #16]
 2805 0032 0121     		movs	r1, #1
 2806 0034 2046     		mov	r0, r4
 2807 0036 9847     		blx	r3
 2808              	.LVL341:
 2809 0038 E9E7     		b	.L258
 2810              	.LVL342:
 2811              	.L322:
 2812              	.LBE674:
 2813              	.LBE673:
 2814              	.LBB675:
 2815              	.LBB676:
 2816              		.loc 1 119 0
 2817 003a E368     		ldr	r3, [r4, #12]
 2818 003c 2046     		mov	r0, r4
 2819 003e 9847     		blx	r3
 2820              	.LVL343:
 2821              	.LBE676:
 2822              	.LBE675:
 2823              		.loc 1 468 0
 2824 0040 0A28     		cmp	r0, #10
 2825              	.LBB678:
 2826              	.LBB679:
 2827              		.loc 1 123 0
 2828 0042 4FF00101 		mov	r1, #1
 2829 0046 2046     		mov	r0, r4
 2830              	.LBE679:
 2831              	.LBE678:
 2832              		.loc 1 468 0
 2833 0048 E1D0     		beq	.L258
 2834              	.LVL344:
 2835              	.LBB681:
 2836              	.LBB680:
 2837              		.loc 1 123 0
 2838 004a 2369     		ldr	r3, [r4, #16]
 2839 004c 9847     		blx	r3
 2840              	.LVL345:
 2841              	.L267:
 2842              	.LBE680:
 2843              	.LBE681:
 2844              	.LBB682:
 2845              	.LBB683:
 2846              		.loc 1 111 0
 2847 004e 6368     		ldr	r3, [r4, #4]
 2848 0050 2046     		mov	r0, r4
 2849 0052 9847     		blx	r3
 2850              	.LVL346:
ARM GAS  /tmp/ccUc3O3E.s 			page 51


 2851              	.LBE683:
 2852              	.LBE682:
 2853              	.LBB684:
 2854              	.LBB677:
 2855              		.loc 1 119 0
 2856 0054 0021     		movs	r1, #0
 2857              	.LBE677:
 2858              	.LBE684:
 2859              		.loc 1 468 0
 2860 0056 0028     		cmp	r0, #0
 2861 0058 EFD1     		bne	.L322
 2862 005a D8E7     		b	.L258
 2863              	.LVL347:
 2864              	.L321:
 2865              	.LBB685:
 2866              	.LBB686:
 2867              		.loc 1 111 0
 2868 005c 6368     		ldr	r3, [r4, #4]
 2869 005e 2046     		mov	r0, r4
 2870 0060 9847     		blx	r3
 2871              	.LVL348:
 2872              	.LBE686:
 2873              	.LBE685:
 2874              		.loc 1 479 0
 2875 0062 B8B1     		cbz	r0, .L266
 2876              		.loc 1 483 0
 2877 0064 7023     		movs	r3, #112
 2878              		.loc 1 485 0
 2879 0066 2046     		mov	r0, r4
 2880              		.loc 1 483 0
 2881 0068 0493     		str	r3, [sp, #16]
 2882              		.loc 1 485 0
 2883 006a FFF7FEFF 		bl	tok_match_fixed_size_tokens
 2884              	.LVL349:
 2885              		.loc 1 486 0
 2886 006e 0546     		mov	r5, r0
 2887 0070 A0B1     		cbz	r0, .L269
 2888              		.loc 1 487 0
 2889 0072 451E     		subs	r5, r0, #1
 2890 0074 162D     		cmp	r5, #22
 2891 0076 4ED8     		bhi	.L305
 2892 0078 DFE805F0 		tbb	[pc, r5]
 2893              	.L272:
 2894 007c 78       		.byte	(.L271-.L272)/2
 2895 007d 4F       		.byte	(.L306-.L272)/2
 2896 007e 52       		.byte	(.L274-.L272)/2
 2897 007f 4D       		.byte	(.L305-.L272)/2
 2898 0080 4D       		.byte	(.L305-.L272)/2
 2899 0081 4D       		.byte	(.L305-.L272)/2
 2900 0082 4D       		.byte	(.L305-.L272)/2
 2901 0083 4D       		.byte	(.L305-.L272)/2
 2902 0084 4D       		.byte	(.L305-.L272)/2
 2903 0085 4D       		.byte	(.L305-.L272)/2
 2904 0086 4D       		.byte	(.L305-.L272)/2
 2905 0087 6C       		.byte	(.L275-.L272)/2
 2906 0088 6F       		.byte	(.L276-.L272)/2
 2907 0089 72       		.byte	(.L277-.L272)/2
ARM GAS  /tmp/ccUc3O3E.s 			page 52


 2908 008a 75       		.byte	(.L278-.L272)/2
 2909 008b 54       		.byte	(.L279-.L272)/2
 2910 008c 57       		.byte	(.L280-.L272)/2
 2911 008d 5A       		.byte	(.L281-.L272)/2
 2912 008e 5D       		.byte	(.L282-.L272)/2
 2913 008f 60       		.byte	(.L283-.L272)/2
 2914 0090 63       		.byte	(.L284-.L272)/2
 2915 0091 66       		.byte	(.L285-.L272)/2
 2916 0092 69       		.byte	(.L286-.L272)/2
 2917              	.LVL350:
 2918 0093 00       		.p2align 1
 2919              	.L266:
 2920              		.loc 1 461 0
 2921 0094 4FF4EA60 		mov	r0, #1872
 2922              	.LVL351:
 2923              	.L257:
 2924              		.loc 1 600 0
 2925 0098 06B0     		add	sp, sp, #24
 2926              		.cfi_remember_state
 2927              		.cfi_def_cfa_offset 16
 2928              		@ sp needed
 2929 009a 70BD     		pop	{r4, r5, r6, pc}
 2930              	.LVL352:
 2931              	.L269:
 2932              		.cfi_restore_state
 2933              		.loc 1 539 0
 2934 009c 2046     		mov	r0, r4
 2935              	.LVL353:
 2936 009e FFF7FEFF 		bl	tok_string
 2937              	.LVL354:
 2938              		.loc 1 540 0
 2939 00a2 0128     		cmp	r0, #1
 2940              		.loc 1 539 0
 2941 00a4 0646     		mov	r6, r0
 2942              	.LVL355:
 2943              		.loc 1 540 0
 2944 00a6 18DC     		bgt	.L323
 2945              		.loc 1 548 0
 2946 00a8 0028     		cmp	r0, #0
 2947 00aa 34DB     		blt	.L305
 2948              		.loc 1 553 0
 2949 00ac 03A9     		add	r1, sp, #12
 2950 00ae 2046     		mov	r0, r4
 2951              	.LVL356:
 2952 00b0 FFF7FEFF 		bl	tok_F
 2953              	.LVL357:
 2954 00b4 0028     		cmp	r0, #0
 2955 00b6 5CD1     		bne	.L324
 2956              		.loc 1 558 0
 2957 00b8 02A9     		add	r1, sp, #8
 2958 00ba 2046     		mov	r0, r4
 2959 00bc FFF7FEFF 		bl	tok_U
 2960              	.LVL358:
 2961 00c0 0028     		cmp	r0, #0
 2962 00c2 6CD1     		bne	.L325
 2963              		.loc 1 563 0
 2964 00c4 02A9     		add	r1, sp, #8
ARM GAS  /tmp/ccUc3O3E.s 			page 53


 2965 00c6 2046     		mov	r0, r4
 2966 00c8 FFF7FEFF 		bl	tok_u
 2967              	.LVL359:
 2968 00cc 0028     		cmp	r0, #0
 2969 00ce 7DD0     		beq	.L295
 2970              	.LVL360:
 2971              	.LBB687:
 2972              	.LBB688:
 2973              		.file 2 "lispBM/lispBM/include/heap.h"
 2974              		.loc 2 489 0
 2975 00d0 029B     		ldr	r3, [sp, #8]
 2976 00d2 1B01     		lsls	r3, r3, #4
 2977 00d4 43F00800 		orr	r0, r3, #8
 2978              	.LVL361:
 2979              	.LBE688:
 2980              	.LBE687:
 2981              		.loc 1 564 0
 2982 00d8 DEE7     		b	.L257
 2983              	.LVL362:
 2984              	.L323:
 2985              	.LBB689:
 2986              		.loc 1 542 0
 2987 00da 441E     		subs	r4, r0, #1
 2988              	.LVL363:
 2989 00dc 2146     		mov	r1, r4
 2990 00de 0422     		movs	r2, #4
 2991 00e0 04A8     		add	r0, sp, #16
 2992              	.LVL364:
 2993 00e2 FFF7FEFF 		bl	lbm_heap_allocate_array
 2994              	.LVL365:
 2995              		.loc 1 543 0
 2996 00e6 0498     		ldr	r0, [sp, #16]
 2997 00e8 FFF7FEFF 		bl	lbm_car
 2998              	.LVL366:
 2999              		.loc 1 544 0
 3000 00ec 8368     		ldr	r3, [r0, #8]
 3001              	.LVL367:
 3002              		.loc 1 545 0
 3003 00ee 2246     		mov	r2, r4
 3004 00f0 2946     		mov	r1, r5
 3005 00f2 1846     		mov	r0, r3
 3006              	.LVL368:
 3007 00f4 FFF7FEFF 		bl	memset
 3008              	.LVL369:
 3009              		.loc 1 546 0
 3010 00f8 B21E     		subs	r2, r6, #2
 3011 00fa 5749     		ldr	r1, .L328
 3012 00fc FFF7FEFF 		bl	memcpy
 3013              	.LVL370:
 3014              		.loc 1 547 0
 3015 0100 0498     		ldr	r0, [sp, #16]
 3016 0102 C9E7     		b	.L257
 3017              	.LVL371:
 3018              	.L301:
 3019              	.LBE689:
 3020              	.LBB690:
 3021              		.loc 1 584 0
ARM GAS  /tmp/ccUc3O3E.s 			page 54


 3022 0104 05A9     		add	r1, sp, #20
 3023 0106 5448     		ldr	r0, .L328
 3024 0108 FFF7FEFF 		bl	lbm_add_symbol
 3025              	.LVL372:
 3026 010c 0028     		cmp	r0, #0
 3027 010e 40F09E80 		bne	.L320
 3028              		.loc 1 587 0
 3029 0112 7023     		movs	r3, #112
 3030 0114 0493     		str	r3, [sp, #16]
 3031              	.LVL373:
 3032              	.L305:
 3033              	.LBE690:
 3034              		.loc 1 599 0
 3035 0116 0498     		ldr	r0, [sp, #16]
 3036 0118 BEE7     		b	.L257
 3037              	.LVL374:
 3038              	.L306:
 3039              		.loc 1 487 0
 3040 011a 4FF4E260 		mov	r0, #1808
 3041              	.LVL375:
 3042              		.loc 1 536 0
 3043 011e BBE7     		b	.L257
 3044              	.LVL376:
 3045              	.L274:
 3046              		.loc 1 502 0
 3047 0120 1020     		movs	r0, #16
 3048              	.LVL377:
 3049 0122 B9E7     		b	.L257
 3050              	.LVL378:
 3051              	.L279:
 3052              		.loc 1 499 0
 3053 0124 4FF49070 		mov	r0, #288
 3054              	.LVL379:
 3055 0128 B6E7     		b	.L257
 3056              	.LVL380:
 3057              	.L280:
 3058              		.loc 1 532 0
 3059 012a 4FF42C70 		mov	r0, #688
 3060              	.LVL381:
 3061 012e B3E7     		b	.L257
 3062              	.LVL382:
 3063              	.L281:
 3064              		.loc 1 514 0
 3065 0130 4FF43070 		mov	r0, #704
 3066              	.LVL383:
 3067 0134 B0E7     		b	.L257
 3068              	.LVL384:
 3069              	.L282:
 3070              		.loc 1 517 0
 3071 0136 4FF43470 		mov	r0, #720
 3072              	.LVL385:
 3073 013a ADE7     		b	.L257
 3074              	.LVL386:
 3075              	.L283:
 3076              		.loc 1 523 0
 3077 013c 4FF43870 		mov	r0, #736
 3078              	.LVL387:
ARM GAS  /tmp/ccUc3O3E.s 			page 55


 3079 0140 AAE7     		b	.L257
 3080              	.LVL388:
 3081              	.L284:
 3082              		.loc 1 520 0
 3083 0142 4FF43C70 		mov	r0, #752
 3084              	.LVL389:
 3085 0146 A7E7     		b	.L257
 3086              	.LVL390:
 3087              	.L285:
 3088              		.loc 1 526 0
 3089 0148 4FF44070 		mov	r0, #768
 3090              	.LVL391:
 3091 014c A4E7     		b	.L257
 3092              	.LVL392:
 3093              	.L286:
 3094              		.loc 1 529 0
 3095 014e 4FF44470 		mov	r0, #784
 3096              	.LVL393:
 3097 0152 A1E7     		b	.L257
 3098              	.LVL394:
 3099              	.L275:
 3100              		.loc 1 505 0
 3101 0154 4FF4E460 		mov	r0, #1824
 3102              	.LVL395:
 3103 0158 9EE7     		b	.L257
 3104              	.LVL396:
 3105              	.L276:
 3106              		.loc 1 511 0
 3107 015a 4FF4E660 		mov	r0, #1840
 3108              	.LVL397:
 3109 015e 9BE7     		b	.L257
 3110              	.LVL398:
 3111              	.L277:
 3112              		.loc 1 508 0
 3113 0160 4FF4E860 		mov	r0, #1856
 3114              	.LVL399:
 3115 0164 98E7     		b	.L257
 3116              	.LVL400:
 3117              	.L278:
 3118              		.loc 1 496 0
 3119 0166 4FF4EC60 		mov	r0, #1888
 3120              	.LVL401:
 3121 016a 95E7     		b	.L257
 3122              	.LVL402:
 3123              	.L271:
 3124              		.loc 1 487 0
 3125 016c 4FF4E060 		mov	r0, #1792
 3126              	.LVL403:
 3127 0170 92E7     		b	.L257
 3128              	.LVL404:
 3129              	.L324:
 3130              	.LBB693:
 3131              	.LBB694:
 3132              		.loc 2 507 0
 3133 0172 4FF40C71 		mov	r1, #560
 3134 0176 0398     		ldr	r0, [sp, #12]
 3135 0178 FFF7FEFF 		bl	lbm_cons
ARM GAS  /tmp/ccUc3O3E.s 			page 56


 3136              	.LVL405:
 3137              	.LBB695:
 3138              	.LBB696:
 3139              		.loc 2 461 0
 3140 017c C107     		lsls	r1, r0, #31
 3141 017e 4CBF     		ite	mi
 3142 0180 00F07C43 		andmi	r3, r0, #-67108864
 3143 0184 00F00C03 		andpl	r3, r0, #12
 3144              	.LBE696:
 3145              	.LBE695:
 3146              		.loc 2 508 0
 3147 0188 002B     		cmp	r3, #0
 3148 018a 85D0     		beq	.L257
 3149              	.LVL406:
 3150              	.LBB697:
 3151              	.LBB698:
 3152              		.loc 2 477 0
 3153 018c 20F07C40 		bic	r0, r0, #-67108864
 3154              	.LVL407:
 3155 0190 20F00700 		bic	r0, r0, #7
 3156 0194 40F08040 		orr	r0, r0, #1073741824
 3157 0198 40F00100 		orr	r0, r0, #1
 3158              	.LVL408:
 3159 019c 7CE7     		b	.L257
 3160              	.L325:
 3161              	.LVL409:
 3162              	.LBE698:
 3163              	.LBE697:
 3164              	.LBE694:
 3165              	.LBE693:
 3166              	.LBB699:
 3167              	.LBB700:
 3168              		.loc 2 499 0
 3169 019e 4FF40871 		mov	r1, #544
 3170 01a2 0298     		ldr	r0, [sp, #8]
 3171 01a4 FFF7FEFF 		bl	lbm_cons
 3172              	.LVL410:
 3173              	.LBB701:
 3174              	.LBB702:
 3175              		.loc 2 461 0
 3176 01a8 C207     		lsls	r2, r0, #31
 3177 01aa 4CBF     		ite	mi
 3178 01ac 00F07C43 		andmi	r3, r0, #-67108864
 3179 01b0 00F00C03 		andpl	r3, r0, #12
 3180              	.LBE702:
 3181              	.LBE701:
 3182              		.loc 2 500 0
 3183 01b4 002B     		cmp	r3, #0
 3184 01b6 3FF46FAF 		beq	.L257
 3185              	.LVL411:
 3186              	.LBB703:
 3187              	.LBB704:
 3188              		.loc 2 477 0
 3189 01ba 20F07C40 		bic	r0, r0, #-67108864
 3190              	.LVL412:
 3191 01be 20F00700 		bic	r0, r0, #7
 3192 01c2 40F00050 		orr	r0, r0, #536870912
ARM GAS  /tmp/ccUc3O3E.s 			page 57


 3193 01c6 40F00100 		orr	r0, r0, #1
 3194              	.LVL413:
 3195 01ca 65E7     		b	.L257
 3196              	.L295:
 3197              	.LBE704:
 3198              	.LBE703:
 3199              	.LBE700:
 3200              	.LBE699:
 3201              		.loc 1 567 0
 3202 01cc 01A9     		add	r1, sp, #4
 3203 01ce 2046     		mov	r0, r4
 3204 01d0 FFF7FEFF 		bl	tok_I
 3205              	.LVL414:
 3206 01d4 48B9     		cbnz	r0, .L326
 3207              		.loc 1 572 0
 3208 01d6 01A9     		add	r1, sp, #4
 3209 01d8 2046     		mov	r0, r4
 3210 01da FFF7FEFF 		bl	tok_i
 3211              	.LVL415:
 3212 01de D8B1     		cbz	r0, .L299
 3213              	.LVL416:
 3214              	.LBB705:
 3215              	.LBB706:
 3216              		.loc 2 485 0
 3217 01e0 019B     		ldr	r3, [sp, #4]
 3218 01e2 1B01     		lsls	r3, r3, #4
 3219 01e4 43F00C00 		orr	r0, r3, #12
 3220              	.LVL417:
 3221              	.LBE706:
 3222              	.LBE705:
 3223              		.loc 1 573 0
 3224 01e8 56E7     		b	.L257
 3225              	.L326:
 3226              	.LVL418:
 3227              	.LBB707:
 3228              	.LBB708:
 3229              		.loc 2 493 0
 3230 01ea 4FF40471 		mov	r1, #528
 3231 01ee 0198     		ldr	r0, [sp, #4]
 3232 01f0 FFF7FEFF 		bl	lbm_cons
 3233              	.LVL419:
 3234              	.LBB709:
 3235              	.LBB710:
 3236              		.loc 2 461 0
 3237 01f4 C307     		lsls	r3, r0, #31
 3238 01f6 4CBF     		ite	mi
 3239 01f8 00F07C43 		andmi	r3, r0, #-67108864
 3240 01fc 00F00C03 		andpl	r3, r0, #12
 3241              	.LBE710:
 3242              	.LBE709:
 3243              		.loc 2 494 0
 3244 0200 002B     		cmp	r3, #0
 3245 0202 3FF449AF 		beq	.L257
 3246              	.LVL420:
 3247              	.LBB711:
 3248              	.LBB712:
 3249              		.loc 2 477 0
ARM GAS  /tmp/ccUc3O3E.s 			page 58


 3250 0206 20F07C40 		bic	r0, r0, #-67108864
 3251              	.LVL421:
 3252 020a 20F00700 		bic	r0, r0, #7
 3253 020e 40F04050 		orr	r0, r0, #805306368
 3254 0212 40F00100 		orr	r0, r0, #1
 3255              	.LVL422:
 3256 0216 3FE7     		b	.L257
 3257              	.L299:
 3258              	.LBE712:
 3259              	.LBE711:
 3260              	.LBE708:
 3261              	.LBE707:
 3262              		.loc 1 576 0
 3263 0218 2046     		mov	r0, r4
 3264 021a FFF7FEFF 		bl	tok_symbol
 3265              	.LVL423:
 3266              		.loc 1 577 0
 3267 021e 0028     		cmp	r0, #0
 3268 0220 0EDC     		bgt	.L327
 3269              		.loc 1 590 0
 3270 0222 7FF478AF 		bne	.L305
 3271              		.loc 1 595 0
 3272 0226 2046     		mov	r0, r4
 3273              	.LVL424:
 3274 0228 05A9     		add	r1, sp, #20
 3275 022a FFF7FEFF 		bl	tok_char
 3276              	.LVL425:
 3277 022e 0028     		cmp	r0, #0
 3278 0230 3FF471AF 		beq	.L305
 3279              	.LVL426:
 3280              	.LBB713:
 3281              	.LBB714:
 3282              		.loc 2 513 0
 3283 0234 9DF81400 		ldrb	r0, [sp, #20]	@ zero_extendqisi2
 3284 0238 0001     		lsls	r0, r0, #4
 3285 023a 40F00400 		orr	r0, r0, #4
 3286              	.LVL427:
 3287              	.LBE714:
 3288              	.LBE713:
 3289              		.loc 1 596 0
 3290 023e 2BE7     		b	.L257
 3291              	.LVL428:
 3292              	.L327:
 3293              	.LBB715:
 3294              		.loc 1 581 0
 3295 0240 05A9     		add	r1, sp, #20
 3296 0242 0548     		ldr	r0, .L328
 3297              	.LVL429:
 3298 0244 FFF7FEFF 		bl	lbm_get_symbol_by_name
 3299              	.LVL430:
 3300 0248 0028     		cmp	r0, #0
 3301 024a 3FF45BAF 		beq	.L301
 3302              	.L320:
 3303              	.LBB691:
 3304              	.LBB692:
 3305              		.loc 2 481 0
 3306 024e 059B     		ldr	r3, [sp, #20]
ARM GAS  /tmp/ccUc3O3E.s 			page 59


 3307 0250 1B01     		lsls	r3, r3, #4
 3308              	.LBE692:
 3309              	.LBE691:
 3310              		.loc 1 585 0
 3311 0252 0493     		str	r3, [sp, #16]
 3312 0254 5FE7     		b	.L305
 3313              	.L329:
 3314 0256 00BF     		.align	2
 3315              	.L328:
 3316 0258 00000000 		.word	.LANCHOR1
 3317              	.LBE715:
 3318              		.cfi_endproc
 3319              	.LFE52:
 3320              		.size	lbm_get_next_token, .-lbm_get_next_token
 3321              		.section	.text.lbm_create_char_stream_from_string,"ax",%progbits
 3322              		.align	1
 3323              		.p2align 4,,15
 3324              		.global	lbm_create_char_stream_from_string
 3325              		.syntax unified
 3326              		.thumb
 3327              		.thumb_func
 3328              		.fpu fpv4-sp-d16
 3329              		.type	lbm_create_char_stream_from_string, %function
 3330              	lbm_create_char_stream_from_string:
 3331              	.LFB57:
 3332              		.loc 1 632 0
 3333              		.cfi_startproc
 3334              		@ args = 0, pretend = 0, frame = 0
 3335              		@ frame_needed = 0, uses_anonymous_args = 0
 3336              		@ link register save eliminated.
 3337              	.LVL431:
 3338 0000 30B4     		push	{r4, r5}
 3339              		.cfi_def_cfa_offset 8
 3340              		.cfi_offset 4, -8
 3341              		.cfi_offset 5, -4
 3342              		.loc 1 633 0
 3343 0002 0260     		str	r2, [r0]
 3344              		.loc 1 634 0
 3345 0004 0023     		movs	r3, #0
 3346              		.loc 1 637 0
 3347 0006 064D     		ldr	r5, .L332
 3348              		.loc 1 638 0
 3349 0008 064C     		ldr	r4, .L332+4
 3350              		.loc 1 639 0
 3351 000a 074A     		ldr	r2, .L332+8
 3352              	.LVL432:
 3353              		.loc 1 634 0
 3354 000c 4360     		str	r3, [r0, #4]
 3355              		.loc 1 640 0
 3356 000e 074B     		ldr	r3, .L332+12
 3357 0010 8B60     		str	r3, [r1, #8]
 3358              		.loc 1 637 0
 3359 0012 C1E90005 		strd	r0, r5, [r1]
 3360              		.loc 1 639 0
 3361 0016 C1E90342 		strd	r4, r2, [r1, #12]
 3362              		.loc 1 641 0
 3363 001a 30BC     		pop	{r4, r5}
ARM GAS  /tmp/ccUc3O3E.s 			page 60


 3364              		.cfi_restore 5
 3365              		.cfi_restore 4
 3366              		.cfi_def_cfa_offset 0
 3367 001c 7047     		bx	lr
 3368              	.L333:
 3369 001e 00BF     		.align	2
 3370              	.L332:
 3371 0020 00000000 		.word	more_string
 3372 0024 00000000 		.word	peek_string
 3373 0028 00000000 		.word	drop_string
 3374 002c 00000000 		.word	get_string
 3375              		.cfi_endproc
 3376              	.LFE57:
 3377              		.size	lbm_create_char_stream_from_string, .-lbm_create_char_stream_from_string
 3378              		.global	match_table
 3379              		.section	.bss.sym_str,"aw",%nobits
 3380              		.align	2
 3381              		.set	.LANCHOR1,. + 0
 3382              		.type	sym_str, %object
 3383              		.size	sym_str, 256
 3384              	sym_str:
 3385 0000 00000000 		.space	256
 3385      00000000 
 3385      00000000 
 3385      00000000 
 3385      00000000 
 3386              		.section	.rodata.match_table,"a",%progbits
 3387              		.align	2
 3388              		.set	.LANCHOR0,. + 0
 3389              		.type	match_table, %object
 3390              		.size	match_table, 180
 3391              	match_table:
 3392 0000 00000000 		.word	.LC0
 3393 0004 01000000 		.word	1
 3394 0008 01000000 		.word	1
 3395 000c 00000000 		.word	.LC3
 3396 0010 02000000 		.word	2
 3397 0014 01000000 		.word	1
 3398 0018 04000000 		.word	.LC4
 3399 001c 0F000000 		.word	15
 3400 0020 01000000 		.word	1
 3401 0024 08000000 		.word	.LC5
 3402 0028 10000000 		.word	16
 3403 002c 01000000 		.word	1
 3404 0030 0C000000 		.word	.LC6
 3405 0034 03000000 		.word	3
 3406 0038 01000000 		.word	1
 3407 003c 10000000 		.word	.LC7
 3408 0040 0C000000 		.word	12
 3409 0044 01000000 		.word	1
 3410 0048 14000000 		.word	.LC8
 3411 004c 0E000000 		.word	14
 3412 0050 02000000 		.word	2
 3413 0054 18000000 		.word	.LC9
 3414 0058 0D000000 		.word	13
 3415 005c 01000000 		.word	1
 3416 0060 1C000000 		.word	.LC10
ARM GAS  /tmp/ccUc3O3E.s 			page 61


 3417 0064 12000000 		.word	18
 3418 0068 04000000 		.word	4
 3419 006c 24000000 		.word	.LC11
 3420 0070 13000000 		.word	19
 3421 0074 04000000 		.word	4
 3422 0078 2C000000 		.word	.LC12
 3423 007c 14000000 		.word	20
 3424 0080 04000000 		.word	4
 3425 0084 34000000 		.word	.LC13
 3426 0088 15000000 		.word	21
 3427 008c 04000000 		.word	4
 3428 0090 3C000000 		.word	.LC14
 3429 0094 16000000 		.word	22
 3430 0098 06000000 		.word	6
 3431 009c 44000000 		.word	.LC15
 3432 00a0 17000000 		.word	23
 3433 00a4 05000000 		.word	5
 3434 00a8 4C000000 		.word	.LC16
 3435 00ac 11000000 		.word	17
 3436 00b0 01000000 		.word	1
 3437              		.section	.rodata.str1.4,"aMS",%progbits,1
 3438              		.align	2
 3439              	.LC3:
 3440 0000 2900     		.ascii	")\000"
 3441 0002 0000     		.space	2
 3442              	.LC4:
 3443 0004 2E00     		.ascii	".\000"
 3444 0006 0000     		.space	2
 3445              	.LC5:
 3446 0008 5F00     		.ascii	"_\000"
 3447 000a 0000     		.space	2
 3448              	.LC6:
 3449 000c 2700     		.ascii	"'\000"
 3450 000e 0000     		.space	2
 3451              	.LC7:
 3452 0010 6000     		.ascii	"`\000"
 3453 0012 0000     		.space	2
 3454              	.LC8:
 3455 0014 2C4000   		.ascii	",@\000"
 3456 0017 00       		.space	1
 3457              	.LC9:
 3458 0018 2C00     		.ascii	",\000"
 3459 001a 0000     		.space	2
 3460              	.LC10:
 3461 001c 3F693238 		.ascii	"?i28\000"
 3461      00
 3462 0021 000000   		.space	3
 3463              	.LC11:
 3464 0024 3F753238 		.ascii	"?u28\000"
 3464      00
 3465 0029 000000   		.space	3
 3466              	.LC12:
 3467 002c 3F753332 		.ascii	"?u32\000"
 3467      00
 3468 0031 000000   		.space	3
 3469              	.LC13:
 3470 0034 3F693332 		.ascii	"?i32\000"
ARM GAS  /tmp/ccUc3O3E.s 			page 62


 3470      00
 3471 0039 000000   		.space	3
 3472              	.LC14:
 3473 003c 3F666C6F 		.ascii	"?float\000"
 3473      617400
 3474 0043 00       		.space	1
 3475              	.LC15:
 3476 0044 3F636F6E 		.ascii	"?cons\000"
 3476      7300
 3477 004a 0000     		.space	2
 3478              	.LC16:
 3479 004c 3F00     		.ascii	"?\000"
 3480              		.section	.rodata.symchar.str1.4,"aMS",%progbits,1
 3481              		.align	2
 3482              	.LC2:
 3483 0000 61626364 		.ascii	"abcdefghijklmnopqrstuvwxyzABCDEFGHIJKLMNOPQRSTUVWXY"
 3483      65666768 
 3483      696A6B6C 
 3483      6D6E6F70 
 3483      71727374 
 3484 0033 5A303132 		.ascii	"Z0123456789+-*/=<>\000"
 3484      33343536 
 3484      3738392B 
 3484      2D2A2F3D 
 3484      3C3E00
 3485              		.section	.rodata.symchar0.str1.4,"aMS",%progbits,1
 3486              		.align	2
 3487              	.LC1:
 3488 0000 61626364 		.ascii	"abcdefghijklmnopqrstuvwxyzABCDEFGHIJKLMNOPQRSTUVWXY"
 3488      65666768 
 3488      696A6B6C 
 3488      6D6E6F70 
 3488      71727374 
 3489 0033 5A2B2D2A 		.ascii	"Z+-*/=<>\000"
 3489      2F3D3C3E 
 3489      00
 3490              		.section	.rodata.tok_match_fixed_size_tokens.str1.4,"aMS",%progbits,1
 3491              		.align	2
 3492              	.LC0:
 3493 0000 2800     		.ascii	"(\000"
 3494              		.text
 3495              	.Letext0:
 3496              		.file 3 "/usr/arm-none-eabi/include/machine/_default_types.h"
 3497              		.file 4 "/usr/arm-none-eabi/include/sys/lock.h"
 3498              		.file 5 "/usr/arm-none-eabi/include/sys/_types.h"
 3499              		.file 6 "/usr/lib/gcc/arm-none-eabi/7.3.1/include/stddef.h"
 3500              		.file 7 "/usr/arm-none-eabi/include/sys/reent.h"
 3501              		.file 8 "/usr/arm-none-eabi/include/sys/_stdint.h"
 3502              		.file 9 "/usr/arm-none-eabi/include/ctype.h"
 3503              		.file 10 "lispBM/lispBM/include/lbm_types.h"
 3504              		.file 11 "/usr/arm-none-eabi/include/stdlib.h"
 3505              		.file 12 "lispBM/lispBM/include/tokpar.h"
 3506              		.file 13 "<built-in>"
 3507              		.file 14 "lispBM/lispBM/include/symrepr.h"