ARM GAS  /tmp/ccNcjvhv.s 			page 1


   1              		.cpu cortex-m4
   2              		.eabi_attribute 27, 1
   3              		.eabi_attribute 28, 1
   4              		.eabi_attribute 20, 1
   5              		.eabi_attribute 21, 1
   6              		.eabi_attribute 23, 3
   7              		.eabi_attribute 24, 1
   8              		.eabi_attribute 25, 1
   9              		.eabi_attribute 26, 1
  10              		.eabi_attribute 30, 2
  11              		.eabi_attribute 34, 1
  12              		.eabi_attribute 18, 4
  13              		.file	"usb.c"
  14              		.text
  15              	.Ltext0:
  16              		.cfi_sections	.debug_frame
  17              		.section	.text.usbInit,"ax",%progbits
  18              		.align	1
  19              		.p2align 4,,15
  20              		.global	usbInit
  21              		.syntax unified
  22              		.thumb
  23              		.thumb_func
  24              		.fpu fpv4-sp-d16
  25              		.type	usbInit, %function
  26              	usbInit:
  27              	.LFB259:
  28              		.file 1 "ChibiOS_3.0.5/os/hal/src/usb.c"
  29              		.loc 1 254 0
  30              		.cfi_startproc
  31              		@ args = 0, pretend = 0, frame = 0
  32              		@ frame_needed = 0, uses_anonymous_args = 0
  33              		@ link register save eliminated.
  34              		.loc 1 256 0
  35 0000 FFF7FEBF 		b	usb_lld_init
  36              	.LVL0:
  37              		.cfi_endproc
  38              	.LFE259:
  39              		.size	usbInit, .-usbInit
  40              		.section	.text.usbObjectInit,"ax",%progbits
  41              		.align	1
  42              		.p2align 4,,15
  43              		.global	usbObjectInit
  44              		.syntax unified
  45              		.thumb
  46              		.thumb_func
  47              		.fpu fpv4-sp-d16
  48              		.type	usbObjectInit, %function
  49              	usbObjectInit:
  50              	.LFB260:
  51              		.loc 1 266 0
  52              		.cfi_startproc
  53              		@ args = 0, pretend = 0, frame = 0
  54              		@ frame_needed = 0, uses_anonymous_args = 0
  55              		@ link register save eliminated.
  56              	.LVL1:
  57              		.loc 1 272 0
ARM GAS  /tmp/ccNcjvhv.s 			page 2


  58 0000 0023     		movs	r3, #0
  59              		.loc 1 269 0
  60 0002 0122     		movs	r2, #1
  61 0004 0270     		strb	r2, [r0]
  62              	.LVL2:
  63              		.loc 1 272 0
  64 0006 C361     		str	r3, [r0, #28]
  65              		.loc 1 273 0
  66 0008 8362     		str	r3, [r0, #40]
  67              	.LVL3:
  68              		.loc 1 272 0
  69 000a 0362     		str	r3, [r0, #32]
  70              		.loc 1 273 0
  71 000c C362     		str	r3, [r0, #44]
  72              	.LVL4:
  73              		.loc 1 272 0
  74 000e 4362     		str	r3, [r0, #36]
  75              		.loc 1 273 0
  76 0010 0363     		str	r3, [r0, #48]
  77              	.LVL5:
  78              		.loc 1 270 0
  79 0012 C0E90133 		strd	r3, r3, [r0, #4]
  80              		.loc 1 277 0
  81 0016 7047     		bx	lr
  82              		.cfi_endproc
  83              	.LFE260:
  84              		.size	usbObjectInit, .-usbObjectInit
  85              		.section	.text.usbStart,"ax",%progbits
  86              		.align	1
  87              		.p2align 4,,15
  88              		.global	usbStart
  89              		.syntax unified
  90              		.thumb
  91              		.thumb_func
  92              		.fpu fpv4-sp-d16
  93              		.type	usbStart, %function
  94              	usbStart:
  95              	.LFB261:
  96              		.loc 1 287 0
  97              		.cfi_startproc
  98              		@ args = 0, pretend = 0, frame = 0
  99              		@ frame_needed = 0, uses_anonymous_args = 0
 100              	.LVL6:
 101 0000 10B5     		push	{r4, lr}
 102              		.cfi_def_cfa_offset 8
 103              		.cfi_offset 4, -8
 104              		.cfi_offset 14, -4
 105              		.loc 1 287 0
 106 0002 0446     		mov	r4, r0
 107              	.LBB212:
 108              	.LBB213:
 109              	.LBB214:
 110              	.LBB215:
 111              	.LBB216:
 112              		.file 2 "ChibiOS_3.0.5/os/ext/CMSIS/include/core_cmFunc.h"
 113              		.loc 2 342 0
 114              		.syntax unified
ARM GAS  /tmp/ccNcjvhv.s 			page 3


 115              	@ 342 "ChibiOS_3.0.5/os/ext/CMSIS/include/core_cmFunc.h" 1
 116 0004 72B6     		cpsid i
 117              	@ 0 "" 2
 118              		.thumb
 119              		.syntax unified
 120              	.LBE216:
 121              	.LBE215:
 122              	.LBE214:
 123              	.LBE213:
 124              	.LBE212:
 125              		.loc 1 297 0
 126 0006 0023     		movs	r3, #0
 127 0008 C0E90333 		strd	r3, r3, [r0, #12]
 128 000c C0E90533 		strd	r3, r3, [r0, #20]
 129              		.loc 1 295 0
 130 0010 4160     		str	r1, [r0, #4]
 131              	.LVL7:
 132              		.loc 1 299 0
 133 0012 FFF7FEFF 		bl	usb_lld_start
 134              	.LVL8:
 135              		.loc 1 300 0
 136 0016 0223     		movs	r3, #2
 137 0018 2370     		strb	r3, [r4]
 138              	.LBB217:
 139              	.LBB218:
 140              	.LBB219:
 141              	.LBB220:
 142              	.LBB221:
 143              	.LBB222:
 144              		.loc 2 331 0
 145              		.syntax unified
 146              	@ 331 "ChibiOS_3.0.5/os/ext/CMSIS/include/core_cmFunc.h" 1
 147 001a 62B6     		cpsie i
 148              	@ 0 "" 2
 149              		.thumb
 150              		.syntax unified
 151              	.LBE222:
 152              	.LBE221:
 153              	.LBE220:
 154              	.LBE219:
 155              	.LBE218:
 156              	.LBE217:
 157              		.loc 1 302 0
 158 001c 10BD     		pop	{r4, pc}
 159              		.cfi_endproc
 160              	.LFE261:
 161              		.size	usbStart, .-usbStart
 162 001e 00BF     		.section	.text.usbStop,"ax",%progbits
 163              		.align	1
 164              		.p2align 4,,15
 165              		.global	usbStop
 166              		.syntax unified
 167              		.thumb
 168              		.thumb_func
 169              		.fpu fpv4-sp-d16
 170              		.type	usbStop, %function
 171              	usbStop:
ARM GAS  /tmp/ccNcjvhv.s 			page 4


 172              	.LFB262:
 173              		.loc 1 311 0
 174              		.cfi_startproc
 175              		@ args = 0, pretend = 0, frame = 0
 176              		@ frame_needed = 0, uses_anonymous_args = 0
 177              	.LVL9:
 178 0000 10B5     		push	{r4, lr}
 179              		.cfi_def_cfa_offset 8
 180              		.cfi_offset 4, -8
 181              		.cfi_offset 14, -4
 182              		.loc 1 311 0
 183 0002 0446     		mov	r4, r0
 184              	.LBB223:
 185              	.LBB224:
 186              	.LBB225:
 187              	.LBB226:
 188              	.LBB227:
 189              		.loc 2 342 0
 190              		.syntax unified
 191              	@ 342 "ChibiOS_3.0.5/os/ext/CMSIS/include/core_cmFunc.h" 1
 192 0004 72B6     		cpsid i
 193              	@ 0 "" 2
 194              		.thumb
 195              		.syntax unified
 196              	.LBE227:
 197              	.LBE226:
 198              	.LBE225:
 199              	.LBE224:
 200              	.LBE223:
 201              		.loc 1 320 0
 202 0006 FFF7FEFF 		bl	usb_lld_stop
 203              	.LVL10:
 204              		.loc 1 321 0
 205 000a 0123     		movs	r3, #1
 206 000c 2370     		strb	r3, [r4]
 207              	.LBB228:
 208              	.LBB229:
 209              	.LBB230:
 210              	.LBB231:
 211              	.LBB232:
 212              	.LBB233:
 213              		.loc 2 331 0
 214              		.syntax unified
 215              	@ 331 "ChibiOS_3.0.5/os/ext/CMSIS/include/core_cmFunc.h" 1
 216 000e 62B6     		cpsie i
 217              	@ 0 "" 2
 218              		.thumb
 219              		.syntax unified
 220              	.LBE233:
 221              	.LBE232:
 222              	.LBE231:
 223              	.LBE230:
 224              	.LBE229:
 225              	.LBE228:
 226              		.loc 1 323 0
 227 0010 10BD     		pop	{r4, pc}
 228              		.cfi_endproc
ARM GAS  /tmp/ccNcjvhv.s 			page 5


 229              	.LFE262:
 230              		.size	usbStop, .-usbStop
 231 0012 00BF     		.section	.text.usbInitEndpointI,"ax",%progbits
 232              		.align	1
 233              		.p2align 4,,15
 234              		.global	usbInitEndpointI
 235              		.syntax unified
 236              		.thumb
 237              		.thumb_func
 238              		.fpu fpv4-sp-d16
 239              		.type	usbInitEndpointI, %function
 240              	usbInitEndpointI:
 241              	.LFB263:
 242              		.loc 1 339 0
 243              		.cfi_startproc
 244              		@ args = 0, pretend = 0, frame = 0
 245              		@ frame_needed = 0, uses_anonymous_args = 0
 246              		@ link register save eliminated.
 247              	.LVL11:
 248              		.loc 1 348 0
 249 0000 5369     		ldr	r3, [r2, #20]
 250              		.loc 1 339 0
 251 0002 10B4     		push	{r4}
 252              		.cfi_def_cfa_offset 4
 253              		.cfi_offset 4, -4
 254              		.loc 1 348 0
 255 0004 2BB1     		cbz	r3, .L9
 256              		.loc 1 349 0
 257 0006 0024     		movs	r4, #0
 258 0008 1C60     		str	r4, [r3]	@ unaligned
 259 000a 5C60     		str	r4, [r3, #4]	@ unaligned
 260 000c 9C60     		str	r4, [r3, #8]	@ unaligned
 261 000e DC60     		str	r4, [r3, #12]	@ unaligned
 262 0010 1C61     		str	r4, [r3, #16]	@ unaligned
 263              	.L9:
 264              		.loc 1 351 0
 265 0012 9369     		ldr	r3, [r2, #24]
 266 0014 2BB1     		cbz	r3, .L10
 267              		.loc 1 352 0
 268 0016 0024     		movs	r4, #0
 269 0018 1C60     		str	r4, [r3]	@ unaligned
 270 001a 5C60     		str	r4, [r3, #4]	@ unaligned
 271 001c 9C60     		str	r4, [r3, #8]	@ unaligned
 272 001e DC60     		str	r4, [r3, #12]	@ unaligned
 273 0020 1C61     		str	r4, [r3, #16]	@ unaligned
 274              	.L10:
 275              		.loc 1 355 0
 276 0022 00EB8103 		add	r3, r0, r1, lsl #2
 277              		.loc 1 359 0
 278 0026 5DF8044B 		ldr	r4, [sp], #4
 279              		.cfi_restore 4
 280              		.cfi_def_cfa_offset 0
 281              		.loc 1 355 0
 282 002a DA60     		str	r2, [r3, #12]
 283              		.loc 1 358 0
 284 002c FFF7FEBF 		b	usb_lld_init_endpoint
 285              	.LVL12:
ARM GAS  /tmp/ccNcjvhv.s 			page 6


 286              		.cfi_endproc
 287              	.LFE263:
 288              		.size	usbInitEndpointI, .-usbInitEndpointI
 289              		.section	.text.usbDisableEndpointsI,"ax",%progbits
 290              		.align	1
 291              		.p2align 4,,15
 292              		.global	usbDisableEndpointsI
 293              		.syntax unified
 294              		.thumb
 295              		.thumb_func
 296              		.fpu fpv4-sp-d16
 297              		.type	usbDisableEndpointsI, %function
 298              	usbDisableEndpointsI:
 299              	.LFB264:
 300              		.loc 1 372 0
 301              		.cfi_startproc
 302              		@ args = 0, pretend = 0, frame = 0
 303              		@ frame_needed = 0, uses_anonymous_args = 0
 304              		@ link register save eliminated.
 305              	.LVL13:
 306 0000 10B4     		push	{r4}
 307              		.cfi_def_cfa_offset 4
 308              		.cfi_offset 4, -4
 309              		.loc 1 380 0
 310 0002 4189     		ldrh	r1, [r0, #10]
 311              		.loc 1 379 0
 312 0004 0489     		ldrh	r4, [r0, #8]
 313              		.loc 1 382 0
 314 0006 0022     		movs	r2, #0
 315              		.loc 1 379 0
 316 0008 24F00104 		bic	r4, r4, #1
 317              		.loc 1 380 0
 318 000c 21F00101 		bic	r1, r1, #1
 319              		.loc 1 379 0
 320 0010 0481     		strh	r4, [r0, #8]	@ movhi
 321              		.loc 1 382 0
 322 0012 0261     		str	r2, [r0, #16]
 323              		.loc 1 380 0
 324 0014 4181     		strh	r1, [r0, #10]	@ movhi
 325              	.LVL14:
 326              		.loc 1 382 0
 327 0016 C0E90522 		strd	r2, r2, [r0, #20]
 328              	.LVL15:
 329              		.loc 1 387 0
 330 001a 5DF8044B 		ldr	r4, [sp], #4
 331              		.cfi_restore 4
 332              		.cfi_def_cfa_offset 0
 333              		.loc 1 386 0
 334 001e FFF7FEBF 		b	usb_lld_disable_endpoints
 335              	.LVL16:
 336              		.cfi_endproc
 337              	.LFE264:
 338              		.size	usbDisableEndpointsI, .-usbDisableEndpointsI
 339 0022 00BF     		.section	.text.usbPrepareReceive,"ax",%progbits
 340              		.align	1
 341              		.p2align 4,,15
 342              		.global	usbPrepareReceive
ARM GAS  /tmp/ccNcjvhv.s 			page 7


 343              		.syntax unified
 344              		.thumb
 345              		.thumb_func
 346              		.fpu fpv4-sp-d16
 347              		.type	usbPrepareReceive, %function
 348              	usbPrepareReceive:
 349              	.LFB265:
 350              		.loc 1 401 0
 351              		.cfi_startproc
 352              		@ args = 0, pretend = 0, frame = 0
 353              		@ frame_needed = 0, uses_anonymous_args = 0
 354              		@ link register save eliminated.
 355              	.LVL17:
 356 0000 30B4     		push	{r4, r5}
 357              		.cfi_def_cfa_offset 8
 358              		.cfi_offset 4, -8
 359              		.cfi_offset 5, -4
 360              		.loc 1 402 0
 361 0002 00EB8104 		add	r4, r0, r1, lsl #2
 362              		.loc 1 404 0
 363 0006 0025     		movs	r5, #0
 364              		.loc 1 402 0
 365 0008 E468     		ldr	r4, [r4, #12]
 366 000a A469     		ldr	r4, [r4, #24]
 367              	.LVL18:
 368              		.loc 1 405 0
 369 000c E260     		str	r2, [r4, #12]
 370              		.loc 1 406 0
 371 000e 6360     		str	r3, [r4, #4]
 372              		.loc 1 404 0
 373 0010 2570     		strb	r5, [r4]
 374              		.loc 1 407 0
 375 0012 A560     		str	r5, [r4, #8]
 376              		.loc 1 410 0
 377 0014 30BC     		pop	{r4, r5}
 378              		.cfi_restore 5
 379              		.cfi_restore 4
 380              		.cfi_def_cfa_offset 0
 381              	.LVL19:
 382              		.loc 1 409 0
 383 0016 FFF7FEBF 		b	usb_lld_prepare_receive
 384              	.LVL20:
 385              		.cfi_endproc
 386              	.LFE265:
 387              		.size	usbPrepareReceive, .-usbPrepareReceive
 388 001a 00BF     		.section	.text.usbPrepareTransmit,"ax",%progbits
 389              		.align	1
 390              		.p2align 4,,15
 391              		.global	usbPrepareTransmit
 392              		.syntax unified
 393              		.thumb
 394              		.thumb_func
 395              		.fpu fpv4-sp-d16
 396              		.type	usbPrepareTransmit, %function
 397              	usbPrepareTransmit:
 398              	.LFB266:
 399              		.loc 1 427 0
ARM GAS  /tmp/ccNcjvhv.s 			page 8


 400              		.cfi_startproc
 401              		@ args = 0, pretend = 0, frame = 0
 402              		@ frame_needed = 0, uses_anonymous_args = 0
 403              		@ link register save eliminated.
 404              	.LVL21:
 405 0000 30B4     		push	{r4, r5}
 406              		.cfi_def_cfa_offset 8
 407              		.cfi_offset 4, -8
 408              		.cfi_offset 5, -4
 409              		.loc 1 428 0
 410 0002 00EB8104 		add	r4, r0, r1, lsl #2
 411              		.loc 1 430 0
 412 0006 0025     		movs	r5, #0
 413              		.loc 1 428 0
 414 0008 E468     		ldr	r4, [r4, #12]
 415 000a 6469     		ldr	r4, [r4, #20]
 416              	.LVL22:
 417              		.loc 1 431 0
 418 000c E260     		str	r2, [r4, #12]
 419              		.loc 1 432 0
 420 000e 6360     		str	r3, [r4, #4]
 421              		.loc 1 430 0
 422 0010 2570     		strb	r5, [r4]
 423              		.loc 1 433 0
 424 0012 A560     		str	r5, [r4, #8]
 425              		.loc 1 436 0
 426 0014 30BC     		pop	{r4, r5}
 427              		.cfi_restore 5
 428              		.cfi_restore 4
 429              		.cfi_def_cfa_offset 0
 430              	.LVL23:
 431              		.loc 1 435 0
 432 0016 FFF7FEBF 		b	usb_lld_prepare_transmit
 433              	.LVL24:
 434              		.cfi_endproc
 435              	.LFE266:
 436              		.size	usbPrepareTransmit, .-usbPrepareTransmit
 437 001a 00BF     		.section	.text.usbPrepareQueuedReceive,"ax",%progbits
 438              		.align	1
 439              		.p2align 4,,15
 440              		.global	usbPrepareQueuedReceive
 441              		.syntax unified
 442              		.thumb
 443              		.thumb_func
 444              		.fpu fpv4-sp-d16
 445              		.type	usbPrepareQueuedReceive, %function
 446              	usbPrepareQueuedReceive:
 447              	.LFB267:
 448              		.loc 1 456 0
 449              		.cfi_startproc
 450              		@ args = 0, pretend = 0, frame = 0
 451              		@ frame_needed = 0, uses_anonymous_args = 0
 452              		@ link register save eliminated.
 453              	.LVL25:
 454 0000 30B4     		push	{r4, r5}
 455              		.cfi_def_cfa_offset 8
 456              		.cfi_offset 4, -8
ARM GAS  /tmp/ccNcjvhv.s 			page 9


 457              		.cfi_offset 5, -4
 458              		.loc 1 457 0
 459 0002 00EB8104 		add	r4, r0, r1, lsl #2
 460              		.loc 1 459 0
 461 0006 0125     		movs	r5, #1
 462              		.loc 1 457 0
 463 0008 E468     		ldr	r4, [r4, #12]
 464 000a A469     		ldr	r4, [r4, #24]
 465              	.LVL26:
 466              		.loc 1 460 0
 467 000c E260     		str	r2, [r4, #12]
 468              		.loc 1 462 0
 469 000e 0022     		movs	r2, #0
 470              	.LVL27:
 471              		.loc 1 461 0
 472 0010 6360     		str	r3, [r4, #4]
 473              		.loc 1 459 0
 474 0012 2570     		strb	r5, [r4]
 475              		.loc 1 462 0
 476 0014 A260     		str	r2, [r4, #8]
 477              		.loc 1 465 0
 478 0016 30BC     		pop	{r4, r5}
 479              		.cfi_restore 5
 480              		.cfi_restore 4
 481              		.cfi_def_cfa_offset 0
 482              	.LVL28:
 483              		.loc 1 464 0
 484 0018 FFF7FEBF 		b	usb_lld_prepare_receive
 485              	.LVL29:
 486              		.cfi_endproc
 487              	.LFE267:
 488              		.size	usbPrepareQueuedReceive, .-usbPrepareQueuedReceive
 489              		.section	.text.usbPrepareQueuedTransmit,"ax",%progbits
 490              		.align	1
 491              		.p2align 4,,15
 492              		.global	usbPrepareQueuedTransmit
 493              		.syntax unified
 494              		.thumb
 495              		.thumb_func
 496              		.fpu fpv4-sp-d16
 497              		.type	usbPrepareQueuedTransmit, %function
 498              	usbPrepareQueuedTransmit:
 499              	.LFB268:
 500              		.loc 1 482 0
 501              		.cfi_startproc
 502              		@ args = 0, pretend = 0, frame = 0
 503              		@ frame_needed = 0, uses_anonymous_args = 0
 504              		@ link register save eliminated.
 505              	.LVL30:
 506 0000 30B4     		push	{r4, r5}
 507              		.cfi_def_cfa_offset 8
 508              		.cfi_offset 4, -8
 509              		.cfi_offset 5, -4
 510              		.loc 1 483 0
 511 0002 00EB8104 		add	r4, r0, r1, lsl #2
 512              		.loc 1 485 0
 513 0006 0125     		movs	r5, #1
ARM GAS  /tmp/ccNcjvhv.s 			page 10


 514              		.loc 1 483 0
 515 0008 E468     		ldr	r4, [r4, #12]
 516 000a 6469     		ldr	r4, [r4, #20]
 517              	.LVL31:
 518              		.loc 1 486 0
 519 000c E260     		str	r2, [r4, #12]
 520              		.loc 1 488 0
 521 000e 0022     		movs	r2, #0
 522              	.LVL32:
 523              		.loc 1 487 0
 524 0010 6360     		str	r3, [r4, #4]
 525              		.loc 1 485 0
 526 0012 2570     		strb	r5, [r4]
 527              		.loc 1 488 0
 528 0014 A260     		str	r2, [r4, #8]
 529              		.loc 1 491 0
 530 0016 30BC     		pop	{r4, r5}
 531              		.cfi_restore 5
 532              		.cfi_restore 4
 533              		.cfi_def_cfa_offset 0
 534              	.LVL33:
 535              		.loc 1 490 0
 536 0018 FFF7FEBF 		b	usb_lld_prepare_transmit
 537              	.LVL34:
 538              		.cfi_endproc
 539              	.LFE268:
 540              		.size	usbPrepareQueuedTransmit, .-usbPrepareQueuedTransmit
 541              		.section	.text.usbStartReceiveI,"ax",%progbits
 542              		.align	1
 543              		.p2align 4,,15
 544              		.global	usbStartReceiveI
 545              		.syntax unified
 546              		.thumb
 547              		.thumb_func
 548              		.fpu fpv4-sp-d16
 549              		.type	usbStartReceiveI, %function
 550              	usbStartReceiveI:
 551              	.LFB269:
 552              		.loc 1 507 0
 553              		.cfi_startproc
 554              		@ args = 0, pretend = 0, frame = 0
 555              		@ frame_needed = 0, uses_anonymous_args = 0
 556              	.LVL35:
 557              		.loc 1 512 0
 558 0000 0122     		movs	r2, #1
 559              		.loc 1 507 0
 560 0002 70B5     		push	{r4, r5, r6, lr}
 561              		.cfi_def_cfa_offset 16
 562              		.cfi_offset 4, -16
 563              		.cfi_offset 5, -12
 564              		.cfi_offset 6, -8
 565              		.cfi_offset 14, -4
 566              		.loc 1 512 0
 567 0004 02FA01F3 		lsl	r3, r2, r1
 568 0008 4489     		ldrh	r4, [r0, #10]
 569 000a 9BB2     		uxth	r3, r3
 570 000c 14EA0306 		ands	r6, r4, r3
ARM GAS  /tmp/ccNcjvhv.s 			page 11


 571 0010 01D0     		beq	.L32
 572              		.loc 1 513 0
 573 0012 1046     		mov	r0, r2
 574              	.LVL36:
 575              		.loc 1 519 0
 576 0014 70BD     		pop	{r4, r5, r6, pc}
 577              	.LVL37:
 578              	.L32:
 579              		.loc 1 516 0
 580 0016 2343     		orrs	r3, r3, r4
 581 0018 4381     		strh	r3, [r0, #10]	@ movhi
 582              		.loc 1 517 0
 583 001a FFF7FEFF 		bl	usb_lld_start_out
 584              	.LVL38:
 585              		.loc 1 518 0
 586 001e 3046     		mov	r0, r6
 587              		.loc 1 519 0
 588 0020 70BD     		pop	{r4, r5, r6, pc}
 589              		.cfi_endproc
 590              	.LFE269:
 591              		.size	usbStartReceiveI, .-usbStartReceiveI
 592 0022 00BF     		.section	.text.usbStartTransmitI,"ax",%progbits
 593              		.align	1
 594              		.p2align 4,,15
 595              		.global	usbStartTransmitI
 596              		.syntax unified
 597              		.thumb
 598              		.thumb_func
 599              		.fpu fpv4-sp-d16
 600              		.type	usbStartTransmitI, %function
 601              	usbStartTransmitI:
 602              	.LFB270:
 603              		.loc 1 535 0
 604              		.cfi_startproc
 605              		@ args = 0, pretend = 0, frame = 0
 606              		@ frame_needed = 0, uses_anonymous_args = 0
 607              	.LVL39:
 608              		.loc 1 540 0
 609 0000 0122     		movs	r2, #1
 610              		.loc 1 535 0
 611 0002 70B5     		push	{r4, r5, r6, lr}
 612              		.cfi_def_cfa_offset 16
 613              		.cfi_offset 4, -16
 614              		.cfi_offset 5, -12
 615              		.cfi_offset 6, -8
 616              		.cfi_offset 14, -4
 617              		.loc 1 540 0
 618 0004 02FA01F3 		lsl	r3, r2, r1
 619 0008 0489     		ldrh	r4, [r0, #8]
 620 000a 9BB2     		uxth	r3, r3
 621 000c 14EA0306 		ands	r6, r4, r3
 622 0010 01D0     		beq	.L37
 623              		.loc 1 541 0
 624 0012 1046     		mov	r0, r2
 625              	.LVL40:
 626              		.loc 1 547 0
 627 0014 70BD     		pop	{r4, r5, r6, pc}
ARM GAS  /tmp/ccNcjvhv.s 			page 12


 628              	.LVL41:
 629              	.L37:
 630              		.loc 1 544 0
 631 0016 2343     		orrs	r3, r3, r4
 632 0018 0381     		strh	r3, [r0, #8]	@ movhi
 633              		.loc 1 545 0
 634 001a FFF7FEFF 		bl	usb_lld_start_in
 635              	.LVL42:
 636              		.loc 1 546 0
 637 001e 3046     		mov	r0, r6
 638              		.loc 1 547 0
 639 0020 70BD     		pop	{r4, r5, r6, pc}
 640              		.cfi_endproc
 641              	.LFE270:
 642              		.size	usbStartTransmitI, .-usbStartTransmitI
 643 0022 00BF     		.section	.text.usbStallReceiveI,"ax",%progbits
 644              		.align	1
 645              		.p2align 4,,15
 646              		.global	usbStallReceiveI
 647              		.syntax unified
 648              		.thumb
 649              		.thumb_func
 650              		.fpu fpv4-sp-d16
 651              		.type	usbStallReceiveI, %function
 652              	usbStallReceiveI:
 653              	.LFB271:
 654              		.loc 1 561 0
 655              		.cfi_startproc
 656              		@ args = 0, pretend = 0, frame = 0
 657              		@ frame_needed = 0, uses_anonymous_args = 0
 658              	.LVL43:
 659 0000 10B5     		push	{r4, lr}
 660              		.cfi_def_cfa_offset 8
 661              		.cfi_offset 4, -8
 662              		.cfi_offset 14, -4
 663              		.loc 1 566 0
 664 0002 0123     		movs	r3, #1
 665 0004 4489     		ldrh	r4, [r0, #10]
 666 0006 03FA01F2 		lsl	r2, r3, r1
 667 000a 1440     		ands	r4, r2, r4
 668 000c 01D0     		beq	.L42
 669              		.loc 1 567 0
 670 000e 1846     		mov	r0, r3
 671              	.LVL44:
 672              		.loc 1 572 0
 673 0010 10BD     		pop	{r4, pc}
 674              	.LVL45:
 675              	.L42:
 676              		.loc 1 570 0
 677 0012 FFF7FEFF 		bl	usb_lld_stall_out
 678              	.LVL46:
 679              		.loc 1 571 0
 680 0016 2046     		mov	r0, r4
 681              		.loc 1 572 0
 682 0018 10BD     		pop	{r4, pc}
 683              		.cfi_endproc
 684              	.LFE271:
ARM GAS  /tmp/ccNcjvhv.s 			page 13


 685              		.size	usbStallReceiveI, .-usbStallReceiveI
 686 001a 00BF     		.section	.text.usbStallTransmitI,"ax",%progbits
 687              		.align	1
 688              		.p2align 4,,15
 689              		.global	usbStallTransmitI
 690              		.syntax unified
 691              		.thumb
 692              		.thumb_func
 693              		.fpu fpv4-sp-d16
 694              		.type	usbStallTransmitI, %function
 695              	usbStallTransmitI:
 696              	.LFB272:
 697              		.loc 1 586 0
 698              		.cfi_startproc
 699              		@ args = 0, pretend = 0, frame = 0
 700              		@ frame_needed = 0, uses_anonymous_args = 0
 701              	.LVL47:
 702 0000 10B5     		push	{r4, lr}
 703              		.cfi_def_cfa_offset 8
 704              		.cfi_offset 4, -8
 705              		.cfi_offset 14, -4
 706              		.loc 1 591 0
 707 0002 0123     		movs	r3, #1
 708 0004 0489     		ldrh	r4, [r0, #8]
 709 0006 03FA01F2 		lsl	r2, r3, r1
 710 000a 1440     		ands	r4, r2, r4
 711 000c 01D0     		beq	.L47
 712              		.loc 1 592 0
 713 000e 1846     		mov	r0, r3
 714              	.LVL48:
 715              		.loc 1 597 0
 716 0010 10BD     		pop	{r4, pc}
 717              	.LVL49:
 718              	.L47:
 719              		.loc 1 595 0
 720 0012 FFF7FEFF 		bl	usb_lld_stall_in
 721              	.LVL50:
 722              		.loc 1 596 0
 723 0016 2046     		mov	r0, r4
 724              		.loc 1 597 0
 725 0018 10BD     		pop	{r4, pc}
 726              		.cfi_endproc
 727              	.LFE272:
 728              		.size	usbStallTransmitI, .-usbStallTransmitI
 729 001a 00BF     		.section	.text._usb_reset,"ax",%progbits
 730              		.align	1
 731              		.p2align 4,,15
 732              		.global	_usb_reset
 733              		.syntax unified
 734              		.thumb
 735              		.thumb_func
 736              		.fpu fpv4-sp-d16
 737              		.type	_usb_reset, %function
 738              	_usb_reset:
 739              	.LFB273:
 740              		.loc 1 608 0
 741              		.cfi_startproc
ARM GAS  /tmp/ccNcjvhv.s 			page 14


 742              		@ args = 0, pretend = 0, frame = 0
 743              		@ frame_needed = 0, uses_anonymous_args = 0
 744              	.LVL51:
 745 0000 70B5     		push	{r4, r5, r6, lr}
 746              		.cfi_def_cfa_offset 16
 747              		.cfi_offset 4, -16
 748              		.cfi_offset 5, -12
 749              		.cfi_offset 6, -8
 750              		.cfi_offset 14, -4
 751              		.loc 1 612 0
 752 0002 0223     		movs	r3, #2
 753              		.loc 1 615 0
 754 0004 0025     		movs	r5, #0
 755              		.loc 1 608 0
 756 0006 0446     		mov	r4, r0
 757              		.loc 1 612 0
 758 0008 0370     		strb	r3, [r0]
 759              		.loc 1 615 0
 760 000a C564     		str	r5, [r0, #76]
 761              	.LVL52:
 762              		.loc 1 619 0
 763 000c C0E90255 		strd	r5, r5, [r0, #8]
 764              		.loc 1 623 0
 765 0010 C0E90455 		strd	r5, r5, [r0, #16]
 766 0014 8561     		str	r5, [r0, #24]
 767              	.LVL53:
 768              		.loc 1 627 0
 769 0016 80F83450 		strb	r5, [r0, #52]
 770              		.loc 1 630 0
 771 001a FFF7FEFF 		bl	usb_lld_reset
 772              	.LVL54:
 773              		.loc 1 633 0
 774 001e 6368     		ldr	r3, [r4, #4]
 775 0020 1B68     		ldr	r3, [r3]
 776 0022 23B1     		cbz	r3, .L48
 777              		.loc 1 633 0 is_stmt 0 discriminator 1
 778 0024 2946     		mov	r1, r5
 779 0026 2046     		mov	r0, r4
 780              		.loc 1 634 0 is_stmt 1 discriminator 1
 781 0028 BDE87040 		pop	{r4, r5, r6, lr}
 782              		.cfi_remember_state
 783              		.cfi_restore 14
 784              		.cfi_restore 6
 785              		.cfi_restore 5
 786              		.cfi_restore 4
 787              		.cfi_def_cfa_offset 0
 788              	.LVL55:
 789              		.loc 1 633 0 discriminator 1
 790 002c 1847     		bx	r3	@ indirect register sibling call
 791              	.LVL56:
 792              	.L48:
 793              		.cfi_restore_state
 794              		.loc 1 634 0
 795 002e 70BD     		pop	{r4, r5, r6, pc}
 796              		.cfi_endproc
 797              	.LFE273:
 798              		.size	_usb_reset, .-_usb_reset
ARM GAS  /tmp/ccNcjvhv.s 			page 15


 799              		.section	.text._usb_suspend,"ax",%progbits
 800              		.align	1
 801              		.p2align 4,,15
 802              		.global	_usb_suspend
 803              		.syntax unified
 804              		.thumb
 805              		.thumb_func
 806              		.fpu fpv4-sp-d16
 807              		.type	_usb_suspend, %function
 808              	_usb_suspend:
 809              	.LFB274:
 810              		.loc 1 645 0
 811              		.cfi_startproc
 812              		@ args = 0, pretend = 0, frame = 0
 813              		@ frame_needed = 0, uses_anonymous_args = 0
 814              		@ link register save eliminated.
 815              	.LVL57:
 816              		.loc 1 651 0
 817 0000 4268     		ldr	r2, [r0, #4]
 818 0002 1368     		ldr	r3, [r2]
 819              		.loc 1 648 0
 820 0004 0521     		movs	r1, #5
 821 0006 0170     		strb	r1, [r0]
 822              		.loc 1 651 0
 823 0008 0BB1     		cbz	r3, .L51
 824              		.loc 1 651 0 is_stmt 0 discriminator 1
 825 000a 0321     		movs	r1, #3
 826 000c 1847     		bx	r3	@ indirect register sibling call
 827              	.LVL58:
 828              	.L51:
 829              		.loc 1 652 0 is_stmt 1
 830 000e 7047     		bx	lr
 831              		.cfi_endproc
 832              	.LFE274:
 833              		.size	_usb_suspend, .-_usb_suspend
 834              		.section	.text._usb_wakeup,"ax",%progbits
 835              		.align	1
 836              		.p2align 4,,15
 837              		.global	_usb_wakeup
 838              		.syntax unified
 839              		.thumb
 840              		.thumb_func
 841              		.fpu fpv4-sp-d16
 842              		.type	_usb_wakeup, %function
 843              	_usb_wakeup:
 844              	.LFB275:
 845              		.loc 1 663 0
 846              		.cfi_startproc
 847              		@ args = 0, pretend = 0, frame = 0
 848              		@ frame_needed = 0, uses_anonymous_args = 0
 849              		@ link register save eliminated.
 850              	.LVL59:
 851              		.loc 1 669 0
 852 0000 4268     		ldr	r2, [r0, #4]
 853 0002 1368     		ldr	r3, [r2]
 854              		.loc 1 666 0
 855 0004 0421     		movs	r1, #4
ARM GAS  /tmp/ccNcjvhv.s 			page 16


 856 0006 0170     		strb	r1, [r0]
 857              		.loc 1 669 0
 858 0008 03B1     		cbz	r3, .L53
 859              		.loc 1 669 0 is_stmt 0 discriminator 1
 860 000a 1847     		bx	r3	@ indirect register sibling call
 861              	.LVL60:
 862              	.L53:
 863              		.loc 1 670 0 is_stmt 1
 864 000c 7047     		bx	lr
 865              		.cfi_endproc
 866              	.LFE275:
 867              		.size	_usb_wakeup, .-_usb_wakeup
 868 000e 00BF     		.section	.text._usb_ep0setup,"ax",%progbits
 869              		.align	1
 870              		.p2align 4,,15
 871              		.global	_usb_ep0setup
 872              		.syntax unified
 873              		.thumb
 874              		.thumb_func
 875              		.fpu fpv4-sp-d16
 876              		.type	_usb_ep0setup, %function
 877              	_usb_ep0setup:
 878              	.LFB276:
 879              		.loc 1 682 0
 880              		.cfi_startproc
 881              		@ args = 0, pretend = 0, frame = 0
 882              		@ frame_needed = 0, uses_anonymous_args = 0
 883              	.LVL61:
 884 0000 70B5     		push	{r4, r5, r6, lr}
 885              		.cfi_def_cfa_offset 16
 886              		.cfi_offset 4, -16
 887              		.cfi_offset 5, -12
 888              		.cfi_offset 6, -8
 889              		.cfi_offset 14, -4
 890              		.loc 1 685 0
 891 0002 0023     		movs	r3, #0
 892              		.loc 1 682 0
 893 0004 0446     		mov	r4, r0
 894              		.loc 1 685 0
 895 0006 80F83430 		strb	r3, [r0, #52]
 896              		.loc 1 686 0
 897 000a 00F14402 		add	r2, r0, #68
 898 000e FFF7FEFF 		bl	usb_lld_read_setup
 899              	.LVL62:
 900              		.loc 1 691 0
 901 0012 6368     		ldr	r3, [r4, #4]
 902 0014 9B68     		ldr	r3, [r3, #8]
 903 0016 002B     		cmp	r3, #0
 904 0018 2FD0     		beq	.L60
 905              		.loc 1 692 0 discriminator 1
 906 001a 2046     		mov	r0, r4
 907 001c 9847     		blx	r3
 908              	.LVL63:
 909              		.loc 1 691 0 discriminator 1
 910 001e 60B3     		cbz	r0, .L60
 911 0020 E16B     		ldr	r1, [r4, #60]
 912 0022 94F84430 		ldrb	r3, [r4, #68]	@ zero_extendqisi2
ARM GAS  /tmp/ccNcjvhv.s 			page 17


 913              	.L77:
 914              	.LBB306:
 915              	.LBB307:
 916              		.loc 1 55 0
 917 0026 94F84B00 		ldrb	r0, [r4, #75]	@ zero_extendqisi2
 918 002a 94F84A20 		ldrb	r2, [r4, #74]	@ zero_extendqisi2
 919              	.LBE307:
 920              	.LBE306:
 921              		.loc 1 719 0
 922 002e 42EA0022 		orr	r2, r2, r0, lsl #8
 923              	.LVL64:
 924              		.loc 1 721 0
 925 0032 8A42     		cmp	r2, r1
 926 0034 2CBF     		ite	cs
 927 0036 0A46     		movcs	r2, r1
 928              	.LVL65:
 929              		.loc 1 722 0
 930 0038 E263     		strcc	r2, [r4, #60]
 931              		.loc 1 724 0
 932 003a 1806     		lsls	r0, r3, #24
 933              	.LVL66:
 934 003c E168     		ldr	r1, [r4, #12]
 935 003e 00F19380 		bmi	.L147
 936              		.loc 1 750 0
 937 0042 002A     		cmp	r2, #0
 938 0044 77D0     		beq	.L99
 939              	.LBB308:
 940              	.LBB309:
 941              		.loc 1 402 0
 942 0046 8B69     		ldr	r3, [r1, #24]
 943              	.LBE309:
 944              	.LBE308:
 945              		.loc 1 753 0
 946 0048 A06B     		ldr	r0, [r4, #56]
 947              	.LVL67:
 948              	.LBB312:
 949              	.LBB310:
 950              		.loc 1 404 0
 951 004a 0021     		movs	r1, #0
 952              	.LBE310:
 953              	.LBE312:
 954              		.loc 1 752 0
 955 004c 0425     		movs	r5, #4
 956 004e 84F83450 		strb	r5, [r4, #52]
 957              	.LBB313:
 958              	.LBB311:
 959              		.loc 1 405 0
 960 0052 D860     		str	r0, [r3, #12]
 961              	.LVL68:
 962              		.loc 1 406 0
 963 0054 5A60     		str	r2, [r3, #4]
 964              		.loc 1 404 0
 965 0056 1970     		strb	r1, [r3]
 966              		.loc 1 407 0
 967 0058 9960     		str	r1, [r3, #8]
 968              	.LVL69:
 969              	.L146:
ARM GAS  /tmp/ccNcjvhv.s 			page 18


 970              		.loc 1 409 0
 971 005a 2046     		mov	r0, r4
 972 005c FFF7FEFF 		bl	usb_lld_prepare_receive
 973              	.LVL70:
 974              	.LBE311:
 975              	.LBE313:
 976              	.LBB314:
 977              	.LBB315:
 978              	.LBB316:
 979              	.LBB317:
 980              	.LBB318:
 981              	.LBB319:
 982              		.loc 2 342 0
 983              		.syntax unified
 984              	@ 342 "ChibiOS_3.0.5/os/ext/CMSIS/include/core_cmFunc.h" 1
 985 0060 72B6     		cpsid i
 986              	@ 0 "" 2
 987              	.LVL71:
 988              		.thumb
 989              		.syntax unified
 990              	.LBE319:
 991              	.LBE318:
 992              	.LBE317:
 993              	.LBE316:
 994              	.LBE315:
 995              	.LBE314:
 996              	.LBB320:
 997              	.LBB321:
 998              		.loc 1 512 0
 999 0062 6389     		ldrh	r3, [r4, #10]
 1000 0064 13F00101 		ands	r1, r3, #1
 1001 0068 05D1     		bne	.L101
 1002              		.loc 1 516 0
 1003 006a 43F00103 		orr	r3, r3, #1
 1004 006e 6381     		strh	r3, [r4, #10]	@ movhi
 1005              		.loc 1 517 0
 1006 0070 2046     		mov	r0, r4
 1007 0072 FFF7FEFF 		bl	usb_lld_start_out
 1008              	.LVL72:
 1009              	.L101:
 1010              	.LBE321:
 1011              	.LBE320:
 1012              	.LBB322:
 1013              	.LBB323:
 1014              	.LBB324:
 1015              	.LBB325:
 1016              	.LBB326:
 1017              	.LBB327:
 1018              		.loc 2 331 0
 1019              		.syntax unified
 1020              	@ 331 "ChibiOS_3.0.5/os/ext/CMSIS/include/core_cmFunc.h" 1
 1021 0076 62B6     		cpsie i
 1022              	@ 0 "" 2
 1023              		.thumb
 1024              		.syntax unified
 1025              	.LBE327:
 1026              	.LBE326:
ARM GAS  /tmp/ccNcjvhv.s 			page 19


 1027              	.LBE325:
 1028              	.LBE324:
 1029              	.LBE323:
 1030              	.LBE322:
 1031              		.loc 1 772 0
 1032 0078 70BD     		pop	{r4, r5, r6, pc}
 1033              	.LVL73:
 1034              	.L60:
 1035              		.loc 1 697 0
 1036 007a 94F84430 		ldrb	r3, [r4, #68]	@ zero_extendqisi2
 1037 007e 13F06005 		ands	r5, r3, #96
 1038 0082 1846     		mov	r0, r3
 1039 0084 11D0     		beq	.L148
 1040              	.L76:
 1041              		.loc 1 703 0
 1042 0086 0021     		movs	r1, #0
 1043 0088 2046     		mov	r0, r4
 1044 008a FFF7FEFF 		bl	usb_lld_stall_in
 1045              	.LVL74:
 1046              		.loc 1 704 0
 1047 008e 0021     		movs	r1, #0
 1048 0090 2046     		mov	r0, r4
 1049 0092 FFF7FEFF 		bl	usb_lld_stall_out
 1050              	.LVL75:
 1051              		.loc 1 705 0
 1052 0096 6368     		ldr	r3, [r4, #4]
 1053 0098 1B68     		ldr	r3, [r3]
 1054 009a 13B1     		cbz	r3, .L91
 1055              		.loc 1 705 0 is_stmt 0 discriminator 1
 1056 009c 0521     		movs	r1, #5
 1057 009e 2046     		mov	r0, r4
 1058 00a0 9847     		blx	r3
 1059              	.LVL76:
 1060              	.L91:
 1061              		.loc 1 706 0 is_stmt 1
 1062 00a2 0623     		movs	r3, #6
 1063 00a4 84F83430 		strb	r3, [r4, #52]
 1064              		.loc 1 772 0
 1065 00a8 70BD     		pop	{r4, r5, r6, pc}
 1066              	.LVL77:
 1067              	.L148:
 1068              	.LBB328:
 1069              	.LBB329:
 1070              		.loc 1 90 0
 1071 00aa 94F84510 		ldrb	r1, [r4, #69]	@ zero_extendqisi2
 1072              		.loc 1 88 0
 1073 00ae 03F07F02 		and	r2, r3, #127
 1074              		.loc 1 89 0
 1075 00b2 42EA0122 		orr	r2, r2, r1, lsl #8
 1076              		.loc 1 88 0
 1077 00b6 B2F5407F 		cmp	r2, #768
 1078 00ba 00F01081 		beq	.L62
 1079 00be 17D9     		bls	.L149
 1080 00c0 B2F5C06F 		cmp	r2, #1536
 1081 00c4 00F0F280 		beq	.L70
 1082 00c8 40F29580 		bls	.L150
 1083 00cc B2F5106F 		cmp	r2, #2304
ARM GAS  /tmp/ccNcjvhv.s 			page 20


 1084 00d0 6FD0     		beq	.L74
 1085 00d2 40F60241 		movw	r1, #3074
 1086 00d6 8A42     		cmp	r2, r1
 1087 00d8 00F0CE80 		beq	.L67
 1088 00dc B2F5006F 		cmp	r2, #2048
 1089 00e0 D1D1     		bne	.L76
 1090              		.loc 1 141 0
 1091 00e2 04F14F02 		add	r2, r4, #79
 1092 00e6 0121     		movs	r1, #1
 1093 00e8 2564     		str	r5, [r4, #64]
 1094              	.LVL78:
 1095 00ea C4E90E21 		strd	r2, r1, [r4, #56]
 1096 00ee 9AE7     		b	.L77
 1097              	.LVL79:
 1098              	.L149:
 1099              		.loc 1 88 0
 1100 00f0 022A     		cmp	r2, #2
 1101 00f2 00F0A780 		beq	.L64
 1102 00f6 40F29D80 		bls	.L151
 1103 00fa B2F5807F 		cmp	r2, #256
 1104 00fe 6BD0     		beq	.L68
 1105 0100 B2F5817F 		cmp	r2, #258
 1106 0104 BFD1     		bne	.L76
 1107              		.loc 1 201 0
 1108 0106 94F84630 		ldrb	r3, [r4, #70]	@ zero_extendqisi2
 1109 010a 002B     		cmp	r3, #0
 1110 010c BBD1     		bne	.L76
 1111              		.loc 1 205 0
 1112 010e 94F84830 		ldrb	r3, [r4, #72]	@ zero_extendqisi2
 1113 0112 13F00F01 		ands	r1, r3, #15
 1114 0116 07D0     		beq	.L89
 1115              		.loc 1 206 0
 1116 0118 1E06     		lsls	r6, r3, #24
 1117              		.loc 1 207 0
 1118 011a 2046     		mov	r0, r4
 1119              		.loc 1 206 0
 1120 011c 00F1F780 		bmi	.L152
 1121              	.LVL80:
 1122              		.loc 1 210 0
 1123 0120 FFF7FEFF 		bl	usb_lld_clear_out
 1124              	.LVL81:
 1125 0124 94F84400 		ldrb	r0, [r4, #68]	@ zero_extendqisi2
 1126              	.L89:
 1127              		.loc 1 229 0
 1128 0128 0023     		movs	r3, #0
 1129 012a C4E90E33 		strd	r3, r3, [r4, #56]
 1130 012e 2364     		str	r3, [r4, #64]
 1131              	.LVL82:
 1132              	.L78:
 1133              	.LBE329:
 1134              	.LBE328:
 1135              		.loc 1 724 0
 1136 0130 0306     		lsls	r3, r0, #24
 1137 0132 E168     		ldr	r1, [r4, #12]
 1138 0134 32D4     		bmi	.L96
 1139              	.LVL83:
 1140              	.L99:
ARM GAS  /tmp/ccNcjvhv.s 			page 21


 1141              	.LBB337:
 1142              	.LBB338:
 1143              		.loc 1 428 0
 1144 0136 4A69     		ldr	r2, [r1, #20]
 1145              		.loc 1 430 0
 1146 0138 0023     		movs	r3, #0
 1147              	.LBE338:
 1148              	.LBE337:
 1149              		.loc 1 761 0
 1150 013a 0521     		movs	r1, #5
 1151 013c 84F83410 		strb	r1, [r4, #52]
 1152              	.LVL84:
 1153              	.LBB340:
 1154              	.LBB339:
 1155              		.loc 1 435 0
 1156 0140 2046     		mov	r0, r4
 1157 0142 1946     		mov	r1, r3
 1158              		.loc 1 430 0
 1159 0144 1370     		strb	r3, [r2]
 1160              		.loc 1 431 0
 1161 0146 D360     		str	r3, [r2, #12]
 1162              		.loc 1 433 0
 1163 0148 C2E90133 		strd	r3, r3, [r2, #4]
 1164              		.loc 1 435 0
 1165 014c FFF7FEFF 		bl	usb_lld_prepare_transmit
 1166              	.LVL85:
 1167              	.LBE339:
 1168              	.LBE340:
 1169              	.LBB341:
 1170              	.LBB342:
 1171              	.LBB343:
 1172              	.LBB344:
 1173              	.LBB345:
 1174              	.LBB346:
 1175              		.loc 2 342 0
 1176              		.syntax unified
 1177              	@ 342 "ChibiOS_3.0.5/os/ext/CMSIS/include/core_cmFunc.h" 1
 1178 0150 72B6     		cpsid i
 1179              	@ 0 "" 2
 1180              	.LVL86:
 1181              		.thumb
 1182              		.syntax unified
 1183              	.LBE346:
 1184              	.LBE345:
 1185              	.LBE344:
 1186              	.LBE343:
 1187              	.LBE342:
 1188              	.LBE341:
 1189              	.LBB347:
 1190              	.LBB348:
 1191              		.loc 1 540 0
 1192 0152 2389     		ldrh	r3, [r4, #8]
 1193 0154 13F00101 		ands	r1, r3, #1
 1194 0158 8DD1     		bne	.L101
 1195              		.loc 1 544 0
 1196 015a 43F00103 		orr	r3, r3, #1
 1197 015e 2381     		strh	r3, [r4, #8]	@ movhi
ARM GAS  /tmp/ccNcjvhv.s 			page 22


 1198              		.loc 1 545 0
 1199 0160 2046     		mov	r0, r4
 1200 0162 FFF7FEFF 		bl	usb_lld_start_in
 1201              	.LVL87:
 1202 0166 86E7     		b	.L101
 1203              	.LVL88:
 1204              	.L147:
 1205              	.LBE348:
 1206              	.LBE347:
 1207              		.loc 1 726 0
 1208 0168 C2B1     		cbz	r2, .L96
 1209              	.LBB349:
 1210              	.LBB350:
 1211              		.loc 1 428 0
 1212 016a 4B69     		ldr	r3, [r1, #20]
 1213              	.LBE350:
 1214              	.LBE349:
 1215              		.loc 1 729 0
 1216 016c A06B     		ldr	r0, [r4, #56]
 1217              	.LVL89:
 1218              	.LBB353:
 1219              	.LBB351:
 1220              		.loc 1 430 0
 1221 016e 0021     		movs	r1, #0
 1222              	.LBE351:
 1223              	.LBE353:
 1224              		.loc 1 728 0
 1225 0170 0125     		movs	r5, #1
 1226 0172 84F83450 		strb	r5, [r4, #52]
 1227              	.LBB354:
 1228              	.LBB352:
 1229              		.loc 1 431 0
 1230 0176 D860     		str	r0, [r3, #12]
 1231              	.LVL90:
 1232              		.loc 1 432 0
 1233 0178 5A60     		str	r2, [r3, #4]
 1234              		.loc 1 430 0
 1235 017a 1970     		strb	r1, [r3]
 1236              		.loc 1 433 0
 1237 017c 9960     		str	r1, [r3, #8]
 1238              		.loc 1 435 0
 1239 017e 2046     		mov	r0, r4
 1240              	.LVL91:
 1241 0180 FFF7FEFF 		bl	usb_lld_prepare_transmit
 1242              	.LVL92:
 1243              	.LBE352:
 1244              	.LBE354:
 1245              	.LBB355:
 1246              	.LBB356:
 1247              	.LBB357:
 1248              	.LBB358:
 1249              	.LBB359:
 1250              	.LBB360:
 1251              		.loc 2 342 0
 1252              		.syntax unified
 1253              	@ 342 "ChibiOS_3.0.5/os/ext/CMSIS/include/core_cmFunc.h" 1
 1254 0184 72B6     		cpsid i
ARM GAS  /tmp/ccNcjvhv.s 			page 23


 1255              	@ 0 "" 2
 1256              	.LVL93:
 1257              		.thumb
 1258              		.syntax unified
 1259              	.LBE360:
 1260              	.LBE359:
 1261              	.LBE358:
 1262              	.LBE357:
 1263              	.LBE356:
 1264              	.LBE355:
 1265              	.LBB361:
 1266              	.LBB362:
 1267              		.loc 1 540 0
 1268 0186 2389     		ldrh	r3, [r4, #8]
 1269 0188 13EA0501 		ands	r1, r3, r5
 1270 018c 7FF473AF 		bne	.L101
 1271              		.loc 1 544 0
 1272 0190 2B43     		orrs	r3, r3, r5
 1273 0192 2381     		strh	r3, [r4, #8]	@ movhi
 1274              		.loc 1 545 0
 1275 0194 2046     		mov	r0, r4
 1276 0196 FFF7FEFF 		bl	usb_lld_start_in
 1277              	.LVL94:
 1278 019a 6CE7     		b	.L101
 1279              	.L96:
 1280              	.LBE362:
 1281              	.LBE361:
 1282              	.LBB363:
 1283              	.LBB364:
 1284              		.loc 1 402 0
 1285 019c 8A69     		ldr	r2, [r1, #24]
 1286              		.loc 1 404 0
 1287 019e 0023     		movs	r3, #0
 1288              	.LBE364:
 1289              	.LBE363:
 1290              		.loc 1 737 0
 1291 01a0 0321     		movs	r1, #3
 1292 01a2 84F83410 		strb	r1, [r4, #52]
 1293              	.LVL95:
 1294              	.LBB366:
 1295              	.LBB365:
 1296              		.loc 1 409 0
 1297 01a6 1946     		mov	r1, r3
 1298              		.loc 1 404 0
 1299 01a8 1370     		strb	r3, [r2]
 1300              		.loc 1 405 0
 1301 01aa D360     		str	r3, [r2, #12]
 1302              		.loc 1 407 0
 1303 01ac C2E90133 		strd	r3, r3, [r2, #4]
 1304 01b0 53E7     		b	.L146
 1305              	.LVL96:
 1306              	.L74:
 1307              	.LBE365:
 1308              	.LBE366:
 1309              	.LBB367:
 1310              	.LBB336:
 1311              		.loc 1 145 0
ARM GAS  /tmp/ccNcjvhv.s 			page 24


 1312 01b2 94F84630 		ldrb	r3, [r4, #70]	@ zero_extendqisi2
 1313 01b6 84F84F30 		strb	r3, [r4, #79]
 1314              		.loc 1 146 0
 1315 01ba 002B     		cmp	r3, #0
 1316 01bc 40F09E80 		bne	.L81
 1317              		.loc 1 147 0
 1318 01c0 0323     		movs	r3, #3
 1319 01c2 2370     		strb	r3, [r4]
 1320              	.L82:
 1321              		.loc 1 152 0
 1322 01c4 6368     		ldr	r3, [r4, #4]
 1323 01c6 1B68     		ldr	r3, [r3]
 1324 01c8 002B     		cmp	r3, #0
 1325 01ca ADD0     		beq	.L89
 1326 01cc 2046     		mov	r0, r4
 1327 01ce 0221     		movs	r1, #2
 1328 01d0 9847     		blx	r3
 1329              	.LVL97:
 1330 01d2 94F84400 		ldrb	r0, [r4, #68]	@ zero_extendqisi2
 1331 01d6 A7E7     		b	.L89
 1332              	.L68:
 1333              		.loc 1 98 0
 1334 01d8 94F84630 		ldrb	r3, [r4, #70]	@ zero_extendqisi2
 1335 01dc 012B     		cmp	r3, #1
 1336 01de 7FF452AF 		bne	.L76
 1337              		.loc 1 99 0
 1338 01e2 B4F84C30 		ldrh	r3, [r4, #76]
 1339              		.loc 1 100 0
 1340 01e6 A563     		str	r5, [r4, #56]
 1341              		.loc 1 99 0
 1342 01e8 23F00203 		bic	r3, r3, #2
 1343              		.loc 1 100 0
 1344 01ec C4E90F55 		strd	r5, r5, [r4, #60]
 1345              	.LVL98:
 1346              		.loc 1 99 0
 1347 01f0 A4F84C30 		strh	r3, [r4, #76]	@ movhi
 1348 01f4 9CE7     		b	.L78
 1349              	.LVL99:
 1350              	.L150:
 1351              		.loc 1 88 0
 1352 01f6 40F20233 		movw	r3, #770
 1353 01fa 9A42     		cmp	r2, r3
 1354 01fc 43D0     		beq	.L72
 1355 01fe B2F5A06F 		cmp	r2, #1280
 1356 0202 7FF440AF 		bne	.L76
 1357              		.loc 1 118 0
 1358 0206 B4F84430 		ldrh	r3, [r4, #68]
 1359 020a B3F5A06F 		cmp	r3, #1280
 1360 020e 8BD1     		bne	.L89
 1361              	.LVL100:
 1362              	.LBB330:
 1363              	.LBB331:
 1364              		.loc 1 66 0
 1365 0210 94F84630 		ldrb	r3, [r4, #70]	@ zero_extendqisi2
 1366 0214 84F84E30 		strb	r3, [r4, #78]
 1367              		.loc 1 67 0
 1368 0218 2046     		mov	r0, r4
ARM GAS  /tmp/ccNcjvhv.s 			page 25


 1369 021a FFF7FEFF 		bl	usb_lld_set_address
 1370              	.LVL101:
 1371              		.loc 1 68 0
 1372 021e 6368     		ldr	r3, [r4, #4]
 1373 0220 1B68     		ldr	r3, [r3]
 1374 0222 13B1     		cbz	r3, .L80
 1375 0224 0121     		movs	r1, #1
 1376 0226 2046     		mov	r0, r4
 1377 0228 9847     		blx	r3
 1378              	.LVL102:
 1379              	.L80:
 1380              		.loc 1 69 0
 1381 022a 0323     		movs	r3, #3
 1382 022c 94F84400 		ldrb	r0, [r4, #68]	@ zero_extendqisi2
 1383 0230 2370     		strb	r3, [r4]
 1384 0232 79E7     		b	.L89
 1385              	.LVL103:
 1386              	.L151:
 1387              	.LBE331:
 1388              	.LBE330:
 1389              		.loc 1 88 0
 1390 0234 EAB9     		cbnz	r2, .L153
 1391              		.loc 1 93 0
 1392 0236 04F14C00 		add	r0, r4, #76
 1393 023a 0221     		movs	r1, #2
 1394 023c 2264     		str	r2, [r4, #64]
 1395              	.LVL104:
 1396 023e C4E90E01 		strd	r0, r1, [r4, #56]
 1397 0242 F0E6     		b	.L77
 1398              	.LVL105:
 1399              	.L64:
 1400              		.loc 1 165 0
 1401 0244 94F84830 		ldrb	r3, [r4, #72]	@ zero_extendqisi2
 1402 0248 03F00F01 		and	r1, r3, #15
 1403 024c 1B06     		lsls	r3, r3, #24
 1404              		.loc 1 166 0
 1405 024e 2046     		mov	r0, r4
 1406              		.loc 1 165 0
 1407 0250 57D4     		bmi	.L154
 1408              	.LVL106:
 1409              		.loc 1 183 0
 1410 0252 FFF7FEFF 		bl	usb_lld_get_status_out
 1411              	.LVL107:
 1412 0256 0128     		cmp	r0, #1
 1413 0258 57D0     		beq	.L85
 1414              	.L143:
 1415 025a 0228     		cmp	r0, #2
 1416 025c 7FF413AF 		bne	.L76
 1417              		.loc 1 174 0
 1418 0260 304B     		ldr	r3, .L156
 1419              	.L144:
 1420 0262 A363     		str	r3, [r4, #56]
 1421 0264 0221     		movs	r1, #2
 1422 0266 0023     		movs	r3, #0
 1423 0268 C4E90F13 		strd	r1, r3, [r4, #60]
 1424              	.LVL108:
 1425 026c 94F84430 		ldrb	r3, [r4, #68]	@ zero_extendqisi2
ARM GAS  /tmp/ccNcjvhv.s 			page 26


 1426 0270 D9E6     		b	.L77
 1427              	.LVL109:
 1428              	.L153:
 1429              		.loc 1 88 0
 1430 0272 012A     		cmp	r2, #1
 1431 0274 7FF407AF 		bne	.L76
 1432              	.L67:
 1433              		.loc 1 160 0
 1434 0278 2B4A     		ldr	r2, .L156+4
 1435 027a A263     		str	r2, [r4, #56]
 1436 027c 0221     		movs	r1, #2
 1437 027e 0022     		movs	r2, #0
 1438 0280 C4E90F12 		strd	r1, r2, [r4, #60]
 1439              	.LVL110:
 1440 0284 CFE6     		b	.L77
 1441              	.LVL111:
 1442              	.L72:
 1443              		.loc 1 217 0
 1444 0286 94F84630 		ldrb	r3, [r4, #70]	@ zero_extendqisi2
 1445 028a 002B     		cmp	r3, #0
 1446 028c 7FF4FBAE 		bne	.L76
 1447              		.loc 1 221 0
 1448 0290 94F84830 		ldrb	r3, [r4, #72]	@ zero_extendqisi2
 1449 0294 13F00F01 		ands	r1, r3, #15
 1450 0298 3FF446AF 		beq	.L89
 1451              		.loc 1 222 0
 1452 029c 1D06     		lsls	r5, r3, #24
 1453              		.loc 1 223 0
 1454 029e 2046     		mov	r0, r4
 1455              		.loc 1 222 0
 1456 02a0 3AD4     		bmi	.L155
 1457              	.LVL112:
 1458              		.loc 1 226 0
 1459 02a2 FFF7FEFF 		bl	usb_lld_stall_out
 1460              	.LVL113:
 1461 02a6 94F84400 		ldrb	r0, [r4, #68]	@ zero_extendqisi2
 1462 02aa 3DE7     		b	.L89
 1463              	.L70:
 1464              	.LBB332:
 1465              	.LBB333:
 1466              		.loc 1 55 0
 1467 02ac 94F84900 		ldrb	r0, [r4, #73]	@ zero_extendqisi2
 1468              	.LBE333:
 1469              	.LBE332:
 1470              		.loc 1 129 0
 1471 02b0 6168     		ldr	r1, [r4, #4]
 1472              	.LBB335:
 1473              	.LBB334:
 1474              		.loc 1 55 0
 1475 02b2 94F84830 		ldrb	r3, [r4, #72]	@ zero_extendqisi2
 1476              	.LBE334:
 1477              	.LBE335:
 1478              		.loc 1 129 0
 1479 02b6 4E68     		ldr	r6, [r1, #4]
 1480 02b8 94F84620 		ldrb	r2, [r4, #70]	@ zero_extendqisi2
 1481 02bc 94F84710 		ldrb	r1, [r4, #71]	@ zero_extendqisi2
 1482 02c0 43EA0023 		orr	r3, r3, r0, lsl #8
ARM GAS  /tmp/ccNcjvhv.s 			page 27


 1483 02c4 2046     		mov	r0, r4
 1484 02c6 B047     		blx	r6
 1485              	.LVL114:
 1486              		.loc 1 132 0
 1487 02c8 0028     		cmp	r0, #0
 1488 02ca 3FF4DCAE 		beq	.L76
 1489              		.loc 1 136 0
 1490 02ce D0E90013 		ldrd	r1, r3, [r0]
 1491 02d2 2564     		str	r5, [r4, #64]
 1492              	.LVL115:
 1493 02d4 C4E90E31 		strd	r3, r1, [r4, #56]
 1494 02d8 94F84430 		ldrb	r3, [r4, #68]	@ zero_extendqisi2
 1495 02dc A3E6     		b	.L77
 1496              	.LVL116:
 1497              	.L62:
 1498              		.loc 1 107 0
 1499 02de 94F84630 		ldrb	r3, [r4, #70]	@ zero_extendqisi2
 1500 02e2 012B     		cmp	r3, #1
 1501 02e4 7FF4CFAE 		bne	.L76
 1502              		.loc 1 108 0
 1503 02e8 B4F84C30 		ldrh	r3, [r4, #76]
 1504              		.loc 1 109 0
 1505 02ec A563     		str	r5, [r4, #56]
 1506              		.loc 1 108 0
 1507 02ee 43F00203 		orr	r3, r3, #2
 1508              		.loc 1 109 0
 1509 02f2 C4E90F55 		strd	r5, r5, [r4, #60]
 1510              	.LVL117:
 1511              		.loc 1 108 0
 1512 02f6 A4F84C30 		strh	r3, [r4, #76]	@ movhi
 1513 02fa 19E7     		b	.L78
 1514              	.LVL118:
 1515              	.L81:
 1516              		.loc 1 150 0
 1517 02fc 0423     		movs	r3, #4
 1518 02fe 2370     		strb	r3, [r4]
 1519 0300 60E7     		b	.L82
 1520              	.LVL119:
 1521              	.L154:
 1522              		.loc 1 166 0
 1523 0302 FFF7FEFF 		bl	usb_lld_get_status_in
 1524              	.LVL120:
 1525 0306 0128     		cmp	r0, #1
 1526 0308 A7D1     		bne	.L143
 1527              	.L85:
 1528              		.loc 1 169 0
 1529 030a 084B     		ldr	r3, .L156+8
 1530 030c A9E7     		b	.L144
 1531              	.LVL121:
 1532              	.L152:
 1533              		.loc 1 207 0
 1534 030e FFF7FEFF 		bl	usb_lld_clear_in
 1535              	.LVL122:
 1536 0312 94F84400 		ldrb	r0, [r4, #68]	@ zero_extendqisi2
 1537 0316 07E7     		b	.L89
 1538              	.LVL123:
 1539              	.L155:
ARM GAS  /tmp/ccNcjvhv.s 			page 28


 1540              		.loc 1 223 0
 1541 0318 FFF7FEFF 		bl	usb_lld_stall_in
 1542              	.LVL124:
 1543 031c 94F84400 		ldrb	r0, [r4, #68]	@ zero_extendqisi2
 1544 0320 02E7     		b	.L89
 1545              	.L157:
 1546 0322 00BF     		.align	2
 1547              	.L156:
 1548 0324 00000000 		.word	.LANCHOR2
 1549 0328 00000000 		.word	.LANCHOR0
 1550 032c 00000000 		.word	.LANCHOR1
 1551              	.LBE336:
 1552              	.LBE367:
 1553              		.cfi_endproc
 1554              	.LFE276:
 1555              		.size	_usb_ep0setup, .-_usb_ep0setup
 1556              		.section	.text._usb_ep0in,"ax",%progbits
 1557              		.align	1
 1558              		.p2align 4,,15
 1559              		.global	_usb_ep0in
 1560              		.syntax unified
 1561              		.thumb
 1562              		.thumb_func
 1563              		.fpu fpv4-sp-d16
 1564              		.type	_usb_ep0in, %function
 1565              	_usb_ep0in:
 1566              	.LFB277:
 1567              		.loc 1 784 0
 1568              		.cfi_startproc
 1569              		@ args = 0, pretend = 0, frame = 0
 1570              		@ frame_needed = 0, uses_anonymous_args = 0
 1571              	.LVL125:
 1572              		.loc 1 788 0
 1573 0000 90F83430 		ldrb	r3, [r0, #52]	@ zero_extendqisi2
 1574              		.loc 1 784 0
 1575 0004 10B5     		push	{r4, lr}
 1576              		.cfi_def_cfa_offset 8
 1577              		.cfi_offset 4, -8
 1578              		.cfi_offset 14, -4
 1579              		.loc 1 784 0
 1580 0006 0446     		mov	r4, r0
 1581              		.loc 1 788 0
 1582 0008 062B     		cmp	r3, #6
 1583 000a 1FD8     		bhi	.L158
 1584 000c DFE803F0 		tbb	[pc, r3]
 1585              	.L161:
 1586 0010 50       		.byte	(.L160-.L161)/2
 1587 0011 26       		.byte	(.L162-.L161)/2
 1588 0012 04       		.byte	(.L163-.L161)/2
 1589 0013 50       		.byte	(.L160-.L161)/2
 1590 0014 50       		.byte	(.L160-.L161)/2
 1591 0015 1F       		.byte	(.L164-.L161)/2
 1592 0016 50       		.byte	(.L160-.L161)/2
 1593 0017 00       		.p2align 1
 1594              	.L163:
 1595 0018 C368     		ldr	r3, [r0, #12]
 1596              	.LVL126:
ARM GAS  /tmp/ccNcjvhv.s 			page 29


 1597              	.L165:
 1598              	.LBB368:
 1599              	.LBB369:
 1600              		.loc 1 402 0
 1601 001a 9A69     		ldr	r2, [r3, #24]
 1602              	.LBE369:
 1603              	.LBE368:
 1604              		.loc 1 806 0
 1605 001c 0321     		movs	r1, #3
 1606              	.LBB372:
 1607              	.LBB370:
 1608              		.loc 1 404 0
 1609 001e 0023     		movs	r3, #0
 1610              	.LBE370:
 1611              	.LBE372:
 1612              		.loc 1 806 0
 1613 0020 84F83410 		strb	r1, [r4, #52]
 1614              	.LVL127:
 1615              	.LBB373:
 1616              	.LBB371:
 1617              		.loc 1 409 0
 1618 0024 2046     		mov	r0, r4
 1619 0026 1946     		mov	r1, r3
 1620              		.loc 1 404 0
 1621 0028 1370     		strb	r3, [r2]
 1622              		.loc 1 405 0
 1623 002a D360     		str	r3, [r2, #12]
 1624              		.loc 1 407 0
 1625 002c C2E90133 		strd	r3, r3, [r2, #4]
 1626              		.loc 1 409 0
 1627 0030 FFF7FEFF 		bl	usb_lld_prepare_receive
 1628              	.LVL128:
 1629              	.LBE371:
 1630              	.LBE373:
 1631              	.LBB374:
 1632              	.LBB375:
 1633              	.LBB376:
 1634              	.LBB377:
 1635              	.LBB378:
 1636              	.LBB379:
 1637              		.loc 2 342 0
 1638              		.syntax unified
 1639              	@ 342 "ChibiOS_3.0.5/os/ext/CMSIS/include/core_cmFunc.h" 1
 1640 0034 72B6     		cpsid i
 1641              	@ 0 "" 2
 1642              	.LVL129:
 1643              		.thumb
 1644              		.syntax unified
 1645              	.LBE379:
 1646              	.LBE378:
 1647              	.LBE377:
 1648              	.LBE376:
 1649              	.LBE375:
 1650              	.LBE374:
 1651              	.LBB380:
 1652              	.LBB381:
 1653              		.loc 1 512 0
ARM GAS  /tmp/ccNcjvhv.s 			page 30


 1654 0036 6389     		ldrh	r3, [r4, #10]
 1655 0038 13F00101 		ands	r1, r3, #1
 1656 003c 05D1     		bne	.L167
 1657              		.loc 1 516 0
 1658 003e 43F00103 		orr	r3, r3, #1
 1659 0042 6381     		strh	r3, [r4, #10]	@ movhi
 1660              		.loc 1 517 0
 1661 0044 2046     		mov	r0, r4
 1662 0046 FFF7FEFF 		bl	usb_lld_start_out
 1663              	.LVL130:
 1664              	.L167:
 1665              	.LBE381:
 1666              	.LBE380:
 1667              	.LBB382:
 1668              	.LBB383:
 1669              	.LBB384:
 1670              	.LBB385:
 1671              	.LBB386:
 1672              	.LBB387:
 1673              		.loc 2 331 0
 1674              		.syntax unified
 1675              	@ 331 "ChibiOS_3.0.5/os/ext/CMSIS/include/core_cmFunc.h" 1
 1676 004a 62B6     		cpsie i
 1677              	@ 0 "" 2
 1678              		.thumb
 1679              		.syntax unified
 1680              	.L158:
 1681              	.LBE387:
 1682              	.LBE386:
 1683              	.LBE385:
 1684              	.LBE384:
 1685              	.LBE383:
 1686              	.LBE382:
 1687              		.loc 1 841 0
 1688 004c 10BD     		pop	{r4, pc}
 1689              	.LVL131:
 1690              	.L164:
 1691              		.loc 1 818 0
 1692 004e 036C     		ldr	r3, [r0, #64]
 1693 0050 03B1     		cbz	r3, .L168
 1694              		.loc 1 819 0
 1695 0052 9847     		blx	r3
 1696              	.LVL132:
 1697              	.L168:
 1698              		.loc 1 821 0
 1699 0054 0023     		movs	r3, #0
 1700 0056 84F83430 		strb	r3, [r4, #52]
 1701              		.loc 1 841 0
 1702 005a 10BD     		pop	{r4, pc}
 1703              	.LVL133:
 1704              	.L162:
 1705              	.LBB388:
 1706              	.LBB389:
 1707              		.loc 1 55 0
 1708 005c 90F84B00 		ldrb	r0, [r0, #75]	@ zero_extendqisi2
 1709              	.LVL134:
 1710 0060 94F84A20 		ldrb	r2, [r4, #74]	@ zero_extendqisi2
ARM GAS  /tmp/ccNcjvhv.s 			page 31


 1711              	.LBE389:
 1712              	.LBE388:
 1713              		.loc 1 794 0
 1714 0064 E16B     		ldr	r1, [r4, #60]
 1715              	.LVL135:
 1716 0066 E368     		ldr	r3, [r4, #12]
 1717              		.loc 1 790 0
 1718 0068 42EA0022 		orr	r2, r2, r0, lsl #8
 1719              		.loc 1 794 0
 1720 006c 9142     		cmp	r1, r2
 1721 006e D4D2     		bcs	.L165
 1722              		.loc 1 795 0 discriminator 1
 1723 0070 188A     		ldrh	r0, [r3, #16]
 1724              	.LVL136:
 1725 0072 B1FBF0F2 		udiv	r2, r1, r0
 1726 0076 00FB1212 		mls	r2, r0, r2, r1
 1727              		.loc 1 794 0 discriminator 1
 1728 007a 002A     		cmp	r2, #0
 1729 007c CDD1     		bne	.L165
 1730              	.LVL137:
 1731              	.LBB390:
 1732              	.LBB391:
 1733              		.loc 1 428 0
 1734 007e 5B69     		ldr	r3, [r3, #20]
 1735              	.LVL138:
 1736              		.loc 1 435 0
 1737 0080 1146     		mov	r1, r2
 1738              		.loc 1 430 0
 1739 0082 1A70     		strb	r2, [r3]
 1740              	.LVL139:
 1741              		.loc 1 431 0
 1742 0084 DA60     		str	r2, [r3, #12]
 1743              		.loc 1 433 0
 1744 0086 C3E90122 		strd	r2, r2, [r3, #4]
 1745              		.loc 1 435 0
 1746 008a 2046     		mov	r0, r4
 1747 008c FFF7FEFF 		bl	usb_lld_prepare_transmit
 1748              	.LVL140:
 1749              	.LBE391:
 1750              	.LBE390:
 1751              	.LBB392:
 1752              	.LBB393:
 1753              	.LBB394:
 1754              	.LBB395:
 1755              	.LBB396:
 1756              	.LBB397:
 1757              		.loc 2 342 0
 1758              		.syntax unified
 1759              	@ 342 "ChibiOS_3.0.5/os/ext/CMSIS/include/core_cmFunc.h" 1
 1760 0090 72B6     		cpsid i
 1761              	@ 0 "" 2
 1762              	.LVL141:
 1763              		.thumb
 1764              		.syntax unified
 1765              	.LBE397:
 1766              	.LBE396:
 1767              	.LBE395:
ARM GAS  /tmp/ccNcjvhv.s 			page 32


 1768              	.LBE394:
 1769              	.LBE393:
 1770              	.LBE392:
 1771              	.LBB398:
 1772              	.LBB399:
 1773              		.loc 1 540 0
 1774 0092 2389     		ldrh	r3, [r4, #8]
 1775 0094 13F00101 		ands	r1, r3, #1
 1776 0098 05D1     		bne	.L166
 1777              		.loc 1 544 0
 1778 009a 43F00103 		orr	r3, r3, #1
 1779 009e 2381     		strh	r3, [r4, #8]	@ movhi
 1780              		.loc 1 545 0
 1781 00a0 2046     		mov	r0, r4
 1782 00a2 FFF7FEFF 		bl	usb_lld_start_in
 1783              	.LVL142:
 1784              	.L166:
 1785              	.LBE399:
 1786              	.LBE398:
 1787              	.LBB400:
 1788              	.LBB401:
 1789              	.LBB402:
 1790              	.LBB403:
 1791              	.LBB404:
 1792              	.LBB405:
 1793              		.loc 2 331 0
 1794              		.syntax unified
 1795              	@ 331 "ChibiOS_3.0.5/os/ext/CMSIS/include/core_cmFunc.h" 1
 1796 00a6 62B6     		cpsie i
 1797              	@ 0 "" 2
 1798              		.thumb
 1799              		.syntax unified
 1800              	.LBE405:
 1801              	.LBE404:
 1802              	.LBE403:
 1803              	.LBE402:
 1804              	.LBE401:
 1805              	.LBE400:
 1806              		.loc 1 800 0
 1807 00a8 0223     		movs	r3, #2
 1808 00aa 84F83430 		strb	r3, [r4, #52]
 1809              		.loc 1 841 0
 1810 00ae 10BD     		pop	{r4, pc}
 1811              	.LVL143:
 1812              	.L160:
 1813              		.loc 1 833 0
 1814 00b0 0021     		movs	r1, #0
 1815              	.LVL144:
 1816 00b2 FFF7FEFF 		bl	usb_lld_stall_in
 1817              	.LVL145:
 1818              		.loc 1 834 0
 1819 00b6 0021     		movs	r1, #0
 1820 00b8 2046     		mov	r0, r4
 1821 00ba FFF7FEFF 		bl	usb_lld_stall_out
 1822              	.LVL146:
 1823              		.loc 1 835 0
 1824 00be 6368     		ldr	r3, [r4, #4]
ARM GAS  /tmp/ccNcjvhv.s 			page 33


 1825 00c0 1B68     		ldr	r3, [r3]
 1826 00c2 13B1     		cbz	r3, .L169
 1827              		.loc 1 835 0 is_stmt 0 discriminator 1
 1828 00c4 0521     		movs	r1, #5
 1829 00c6 2046     		mov	r0, r4
 1830 00c8 9847     		blx	r3
 1831              	.LVL147:
 1832              	.L169:
 1833              		.loc 1 836 0 is_stmt 1
 1834 00ca 0623     		movs	r3, #6
 1835 00cc 84F83430 		strb	r3, [r4, #52]
 1836              		.loc 1 841 0
 1837 00d0 10BD     		pop	{r4, pc}
 1838              		.cfi_endproc
 1839              	.LFE277:
 1840              		.size	_usb_ep0in, .-_usb_ep0in
 1841              		.section	.text._usb_ep0out,"ax",%progbits
 1842              		.align	1
 1843              		.p2align 4,,15
 1844              		.global	_usb_ep0out
 1845              		.syntax unified
 1846              		.thumb
 1847              		.thumb_func
 1848              		.fpu fpv4-sp-d16
 1849              		.type	_usb_ep0out, %function
 1850              	_usb_ep0out:
 1851              	.LFB278:
 1852              		.loc 1 853 0
 1853              		.cfi_startproc
 1854              		@ args = 0, pretend = 0, frame = 0
 1855              		@ frame_needed = 0, uses_anonymous_args = 0
 1856              	.LVL148:
 1857              		.loc 1 856 0
 1858 0000 90F83420 		ldrb	r2, [r0, #52]	@ zero_extendqisi2
 1859 0004 062A     		cmp	r2, #6
 1860 0006 14D8     		bhi	.L194
 1861 0008 0123     		movs	r3, #1
 1862 000a 9340     		lsls	r3, r3, r2
 1863 000c 13F0670F 		tst	r3, #103
 1864              		.loc 1 853 0
 1865 0010 10B5     		push	{r4, lr}
 1866              		.cfi_def_cfa_offset 8
 1867              		.cfi_offset 4, -8
 1868              		.cfi_offset 14, -4
 1869 0012 0446     		mov	r4, r0
 1870 0014 23D1     		bne	.L179
 1871 0016 13F00802 		ands	r2, r3, #8
 1872 001a 0BD0     		beq	.L197
 1873              		.loc 1 873 0
 1874 001c C368     		ldr	r3, [r0, #12]
 1875 001e 9B69     		ldr	r3, [r3, #24]
 1876 0020 9B68     		ldr	r3, [r3, #8]
 1877 0022 2BB9     		cbnz	r3, .L177
 1878              		.loc 1 877 0
 1879 0024 036C     		ldr	r3, [r0, #64]
 1880 0026 03B1     		cbz	r3, .L182
 1881              		.loc 1 878 0
ARM GAS  /tmp/ccNcjvhv.s 			page 34


 1882 0028 9847     		blx	r3
 1883              	.LVL149:
 1884              	.L182:
 1885              		.loc 1 880 0
 1886 002a 0023     		movs	r3, #0
 1887 002c 84F83430 		strb	r3, [r4, #52]
 1888              	.L177:
 1889              		.loc 1 901 0
 1890 0030 10BD     		pop	{r4, pc}
 1891              	.LVL150:
 1892              	.L194:
 1893              		.cfi_def_cfa_offset 0
 1894              		.cfi_restore 4
 1895              		.cfi_restore 14
 1896 0032 7047     		bx	lr
 1897              	.L197:
 1898              		.cfi_def_cfa_offset 8
 1899              		.cfi_offset 4, -8
 1900              		.cfi_offset 14, -4
 1901 0034 DB06     		lsls	r3, r3, #27
 1902 0036 FBD5     		bpl	.L177
 1903              	.LBB406:
 1904              	.LBB407:
 1905              		.loc 1 428 0
 1906 0038 C368     		ldr	r3, [r0, #12]
 1907 003a 5B69     		ldr	r3, [r3, #20]
 1908              	.LBE407:
 1909              	.LBE406:
 1910              		.loc 1 859 0
 1911 003c 0521     		movs	r1, #5
 1912              	.LVL151:
 1913 003e 80F83410 		strb	r1, [r0, #52]
 1914              	.LVL152:
 1915              	.LBB409:
 1916              	.LBB408:
 1917              		.loc 1 435 0
 1918 0042 1146     		mov	r1, r2
 1919              		.loc 1 430 0
 1920 0044 1A70     		strb	r2, [r3]
 1921              		.loc 1 431 0
 1922 0046 DA60     		str	r2, [r3, #12]
 1923              		.loc 1 433 0
 1924 0048 C3E90122 		strd	r2, r2, [r3, #4]
 1925              		.loc 1 435 0
 1926 004c FFF7FEFF 		bl	usb_lld_prepare_transmit
 1927              	.LVL153:
 1928              	.LBE408:
 1929              	.LBE409:
 1930              	.LBB410:
 1931              	.LBB411:
 1932              	.LBB412:
 1933              	.LBB413:
 1934              	.LBB414:
 1935              	.LBB415:
 1936              		.loc 2 342 0
 1937              		.syntax unified
 1938              	@ 342 "ChibiOS_3.0.5/os/ext/CMSIS/include/core_cmFunc.h" 1
ARM GAS  /tmp/ccNcjvhv.s 			page 35


 1939 0050 72B6     		cpsid i
 1940              	@ 0 "" 2
 1941              	.LVL154:
 1942              		.thumb
 1943              		.syntax unified
 1944              	.LBE415:
 1945              	.LBE414:
 1946              	.LBE413:
 1947              	.LBE412:
 1948              	.LBE411:
 1949              	.LBE410:
 1950              	.LBB416:
 1951              	.LBB417:
 1952              		.loc 1 540 0
 1953 0052 2389     		ldrh	r3, [r4, #8]
 1954 0054 13F00101 		ands	r1, r3, #1
 1955 0058 12D0     		beq	.L198
 1956              	.L181:
 1957              	.LVL155:
 1958              	.LBE417:
 1959              	.LBE416:
 1960              	.LBB419:
 1961              	.LBB420:
 1962              	.LBB421:
 1963              	.LBB422:
 1964              	.LBB423:
 1965              	.LBB424:
 1966              		.loc 2 331 0
 1967              		.syntax unified
 1968              	@ 331 "ChibiOS_3.0.5/os/ext/CMSIS/include/core_cmFunc.h" 1
 1969 005a 62B6     		cpsie i
 1970              	@ 0 "" 2
 1971              		.thumb
 1972              		.syntax unified
 1973              	.LBE424:
 1974              	.LBE423:
 1975              	.LBE422:
 1976              	.LBE421:
 1977              	.LBE420:
 1978              	.LBE419:
 1979              		.loc 1 901 0
 1980 005c 10BD     		pop	{r4, pc}
 1981              	.LVL156:
 1982              	.L179:
 1983              		.loc 1 893 0
 1984 005e 0021     		movs	r1, #0
 1985              	.LVL157:
 1986 0060 FFF7FEFF 		bl	usb_lld_stall_in
 1987              	.LVL158:
 1988              		.loc 1 894 0
 1989 0064 0021     		movs	r1, #0
 1990 0066 2046     		mov	r0, r4
 1991 0068 FFF7FEFF 		bl	usb_lld_stall_out
 1992              	.LVL159:
 1993              		.loc 1 895 0
 1994 006c 6368     		ldr	r3, [r4, #4]
 1995 006e 1B68     		ldr	r3, [r3]
ARM GAS  /tmp/ccNcjvhv.s 			page 36


 1996 0070 13B1     		cbz	r3, .L183
 1997              		.loc 1 895 0 is_stmt 0 discriminator 1
 1998 0072 0521     		movs	r1, #5
 1999 0074 2046     		mov	r0, r4
 2000 0076 9847     		blx	r3
 2001              	.LVL160:
 2002              	.L183:
 2003              		.loc 1 896 0 is_stmt 1
 2004 0078 0623     		movs	r3, #6
 2005 007a 84F83430 		strb	r3, [r4, #52]
 2006              		.loc 1 901 0
 2007 007e 10BD     		pop	{r4, pc}
 2008              	.LVL161:
 2009              	.L198:
 2010              	.LBB425:
 2011              	.LBB418:
 2012              		.loc 1 544 0
 2013 0080 43F00103 		orr	r3, r3, #1
 2014 0084 2381     		strh	r3, [r4, #8]	@ movhi
 2015              		.loc 1 545 0
 2016 0086 2046     		mov	r0, r4
 2017 0088 FFF7FEFF 		bl	usb_lld_start_in
 2018              	.LVL162:
 2019 008c E5E7     		b	.L181
 2020              	.LBE418:
 2021              	.LBE425:
 2022              		.cfi_endproc
 2023              	.LFE278:
 2024              		.size	_usb_ep0out, .-_usb_ep0out
 2025 008e 00BF     		.section	.rodata.active_status,"a",%progbits
 2026              		.align	2
 2027              		.set	.LANCHOR2,. + 0
 2028              		.type	active_status, %object
 2029              		.size	active_status, 2
 2030              	active_status:
 2031 0000 0000     		.space	2
 2032              		.section	.rodata.halted_status,"a",%progbits
 2033              		.align	2
 2034              		.set	.LANCHOR1,. + 0
 2035              		.type	halted_status, %object
 2036              		.size	halted_status, 2
 2037              	halted_status:
 2038 0000 01       		.byte	1
 2039 0001 00       		.byte	0
 2040              		.section	.rodata.zero_status,"a",%progbits
 2041              		.align	2
 2042              		.set	.LANCHOR0,. + 0
 2043              		.type	zero_status, %object
 2044              		.size	zero_status, 2
 2045              	zero_status:
 2046 0000 0000     		.space	2
 2047              		.text
 2048              	.Letext0:
 2049              		.file 3 "/usr/lib/gcc/arm-none-eabi/7.3.1/include/stddef.h"
 2050              		.file 4 "/usr/arm-none-eabi/include/machine/_default_types.h"
 2051              		.file 5 "/usr/arm-none-eabi/include/sys/lock.h"
 2052              		.file 6 "/usr/arm-none-eabi/include/sys/_types.h"
ARM GAS  /tmp/ccNcjvhv.s 			page 37


 2053              		.file 7 "/usr/arm-none-eabi/include/sys/reent.h"
 2054              		.file 8 "/usr/arm-none-eabi/include/sys/_stdint.h"
 2055              		.file 9 "ChibiOS_3.0.5/os/rt/ports/ARMCMx/compilers/GCC/chtypes.h"
 2056              		.file 10 "ChibiOS_3.0.5/os/rt/include/chsystypes.h"
 2057              		.file 11 "ChibiOS_3.0.5/os/rt/include/chschd.h"
 2058              		.file 12 "ChibiOS_3.0.5/os/ext/CMSIS/include/core_cm4.h"
 2059              		.file 13 "ChibiOS_3.0.5/os/ext/CMSIS/ST/system_stm32f4xx.h"
 2060              		.file 14 "ChibiOS_3.0.5/os/ext/CMSIS/ST/stm32f407xx.h"
 2061              		.file 15 "ChibiOS_3.0.5/os/rt/ports/ARMCMx/chcore.h"
 2062              		.file 16 "ChibiOS_3.0.5/os/rt/ports/ARMCMx/chcore_v7m.h"
 2063              		.file 17 "ChibiOS_3.0.5/os/rt/include/chtm.h"
 2064              		.file 18 "ChibiOS_3.0.5/os/rt/include/chsem.h"
 2065              		.file 19 "ChibiOS_3.0.5/os/rt/include/chmtx.h"
 2066              		.file 20 "ChibiOS_3.0.5/os/rt/include/chregistry.h"
 2067              		.file 21 "ChibiOS_3.0.5/os/rt/include/chevents.h"
 2068              		.file 22 "ChibiOS_3.0.5/os/rt/include/chqueues.h"
 2069              		.file 23 "./datatypes.h"
 2070              		.file 24 "./conf_general.h"
 2071              		.file 25 "ChibiOS_3.0.5/os/hal/ports/STM32/STM32F4xx/stm32_dma.h"
 2072              		.file 26 "ChibiOS_3.0.5/os/hal/ports/STM32/LLD/GPIOv2/pal_lld.h"
 2073              		.file 27 "ChibiOS_3.0.5/os/hal/include/can.h"
 2074              		.file 28 "ChibiOS_3.0.5/os/hal/ports/STM32/LLD/can_lld.h"
 2075              		.file 29 "ChibiOS_3.0.5/os/hal/include/i2c.h"
 2076              		.file 30 "ChibiOS_3.0.5/os/hal/ports/STM32/LLD/I2Cv1/i2c_lld.h"
 2077              		.file 31 "ChibiOS_3.0.5/os/hal/include/icu.h"
 2078              		.file 32 "ChibiOS_3.0.5/os/hal/ports/STM32/LLD/TIMv1/icu_lld.h"
 2079              		.file 33 "ChibiOS_3.0.5/os/hal/ports/STM32/LLD/TIMv1/stm32_tim.h"
 2080              		.file 34 "ChibiOS_3.0.5/os/hal/include/serial.h"
 2081              		.file 35 "ChibiOS_3.0.5/os/hal/ports/STM32/LLD/USARTv1/serial_lld.h"
 2082              		.file 36 "ChibiOS_3.0.5/os/hal/include/spi.h"
 2083              		.file 37 "ChibiOS_3.0.5/os/hal/ports/STM32/LLD/SPIv1/spi_lld.h"
 2084              		.file 38 "ChibiOS_3.0.5/os/hal/include/usb.h"
 2085              		.file 39 "ChibiOS_3.0.5/os/hal/ports/STM32/LLD/OTGv1/usb_lld.h"
 2086              		.file 40 "ChibiOS_3.0.5/os/hal/ports/STM32/LLD/OTGv1/stm32_otg.h"
 2087              		.file 41 "ChibiOS_3.0.5/os/hal/osal/rt/osal.h"
 2088              		.file 42 "ChibiOS_3.0.5/os/rt/include/chsys.h"