ARM GAS  /tmp/ccqRaZSa.s 			page 1


   1              		.cpu cortex-m4
   2              		.eabi_attribute 27, 1
   3              		.eabi_attribute 28, 1
   4              		.eabi_attribute 20, 1
   5              		.eabi_attribute 21, 1
   6              		.eabi_attribute 23, 3
   7              		.eabi_attribute 24, 1
   8              		.eabi_attribute 25, 1
   9              		.eabi_attribute 26, 1
  10              		.eabi_attribute 30, 2
  11              		.eabi_attribute 34, 1
  12              		.eabi_attribute 18, 4
  13              		.file	"usb_lld.c"
  14              		.text
  15              	.Ltext0:
  16              		.cfi_sections	.debug_frame
  17              		.section	.text.usb_lld_pump,"ax",%progbits
  18              		.align	1
  19              		.p2align 4,,15
  20              		.global	usb_lld_pump
  21              		.syntax unified
  22              		.thumb
  23              		.thumb_func
  24              		.fpu fpv4-sp-d16
  25              		.type	usb_lld_pump, %function
  26              	usb_lld_pump:
  27              	.LFB292:
  28              		.file 1 "ChibiOS_3.0.5/os/hal/ports/STM32/LLD/OTGv1/usb_lld.c"
  29              		.loc 1 1282 0
  30              		.cfi_startproc
  31              		@ args = 0, pretend = 0, frame = 24
  32              		@ frame_needed = 0, uses_anonymous_args = 0
  33              	.LVL0:
  34 0000 2DE9F04F 		push	{r4, r5, r6, r7, r8, r9, r10, fp, lr}
  35              		.cfi_def_cfa_offset 36
  36              		.cfi_offset 4, -36
  37              		.cfi_offset 5, -32
  38              		.cfi_offset 6, -28
  39              		.cfi_offset 7, -24
  40              		.cfi_offset 8, -20
  41              		.cfi_offset 9, -16
  42              		.cfi_offset 10, -12
  43              		.cfi_offset 11, -8
  44              		.cfi_offset 14, -4
  45              	.LBB432:
  46              	.LBB433:
  47              		.file 2 "ChibiOS_3.0.5/os/rt/include/chregistry.h"
  48              		.loc 2 135 0
  49 0004 AC4B     		ldr	r3, .L115
  50 0006 AD4A     		ldr	r2, .L115+4
  51 0008 9B69     		ldr	r3, [r3, #24]
  52              	.LVL1:
  53              	.LBE433:
  54              	.LBE432:
  55              		.loc 1 1284 0
  56 000a 056D     		ldr	r5, [r0, #80]
  57              	.LVL2:
ARM GAS  /tmp/ccqRaZSa.s 			page 2


  58              	.LBB435:
  59              	.LBB434:
  60              		.loc 2 135 0
  61 000c 9A61     		str	r2, [r3, #24]
  62              	.LVL3:
  63              	.LBE434:
  64              	.LBE435:
  65              		.loc 1 1282 0
  66 000e 87B0     		sub	sp, sp, #28
  67              		.cfi_def_cfa_offset 64
  68              	.LBB436:
  69              	.LBB437:
  70              	.LBB438:
  71              	.LBB439:
  72              	.LBB440:
  73              		.file 3 "ChibiOS_3.0.5/os/ext/CMSIS/include/core_cmFunc.h"
  74              		.loc 3 342 0
  75              		.syntax unified
  76              	@ 342 "ChibiOS_3.0.5/os/ext/CMSIS/include/core_cmFunc.h" 1
  77 0010 72B6     		cpsid i
  78              	@ 0 "" 2
  79              		.thumb
  80              		.syntax unified
  81 0012 00F16003 		add	r3, r0, #96
  82 0016 A946     		mov	r9, r5
  83 0018 0593     		str	r3, [sp, #20]
  84 001a 0546     		mov	r5, r0
  85              	.LVL4:
  86              	.L51:
  87              	.LBE440:
  88              	.LBE439:
  89              	.LBE438:
  90              	.LBE437:
  91              	.LBE436:
  92              	.LBB441:
  93              		.loc 1 1295 0
  94 001c 2B78     		ldrb	r3, [r5]	@ zero_extendqisi2
  95 001e 012B     		cmp	r3, #1
  96 0020 05D0     		beq	.L2
  97              		.loc 1 1295 0 is_stmt 0 discriminator 1
  98 0022 EB6D     		ldr	r3, [r5, #92]
  99 0024 63B9     		cbnz	r3, .L3
 100              		.loc 1 1296 0 is_stmt 1
 101 0026 D9F81430 		ldr	r3, [r9, #20]
 102 002a DA06     		lsls	r2, r3, #27
 103 002c 08D4     		bmi	.L3
 104              	.L2:
 105              		.loc 1 1297 0
 106 002e D9F81830 		ldr	r3, [r9, #24]
 107              	.LBB442:
 108              	.LBB443:
 109              		.file 4 "ChibiOS_3.0.5/os/hal/osal/rt/osal.h"
 110              		.loc 4 688 0
 111 0032 0598     		ldr	r0, [sp, #20]
 112              	.LBE443:
 113              	.LBE442:
 114              		.loc 1 1297 0
ARM GAS  /tmp/ccqRaZSa.s 			page 3


 115 0034 43F01003 		orr	r3, r3, #16
 116 0038 C9F81830 		str	r3, [r9, #24]
 117              	.LBB445:
 118              	.LBB444:
 119              		.loc 4 688 0
 120 003c FFF7FEFF 		bl	chThdSuspendS
 121              	.LVL5:
 122              	.L3:
 123              	.LBE444:
 124              	.LBE445:
 125              	.LBB446:
 126              	.LBB447:
 127              	.LBB448:
 128              	.LBB449:
 129              	.LBB450:
 130              	.LBB451:
 131              		.loc 3 331 0
 132              		.syntax unified
 133              	@ 331 "ChibiOS_3.0.5/os/ext/CMSIS/include/core_cmFunc.h" 1
 134 0040 62B6     		cpsie i
 135              	@ 0 "" 2
 136              	.LVL6:
 137              		.thumb
 138              		.syntax unified
 139              	.LBE451:
 140              	.LBE450:
 141              	.LBE449:
 142              	.LBE448:
 143              	.LBE447:
 144              	.LBE446:
 145              		.loc 1 1303 0
 146 0042 4FF0000A 		mov	r10, #0
 147              	.LVL7:
 148              	.L5:
 149              		.loc 1 1306 0
 150 0046 D9F81430 		ldr	r3, [r9, #20]
 151 004a DB06     		lsls	r3, r3, #27
 152 004c 57D5     		bpl	.L108
 153              	.L25:
 154              	.LVL8:
 155              	.LBB452:
 156              	.LBB453:
 157              		.loc 1 416 0
 158 004e 2A6D     		ldr	r2, [r5, #80]
 159 0050 136A     		ldr	r3, [r2, #32]
 160              	.LVL9:
 161              		.loc 1 417 0
 162 0052 03F4F011 		and	r1, r3, #1966080
 163 0056 B1F5802F 		cmp	r1, #262144
 164 005a 24D0     		beq	.L6
 165 005c B1F5402F 		cmp	r1, #786432
 166 0060 F1D1     		bne	.L5
 167              	.LVL10:
 168              		.loc 1 422 0
 169 0062 03F00F01 		and	r1, r3, #15
 170              	.LVL11:
 171              		.loc 1 423 0
ARM GAS  /tmp/ccqRaZSa.s 			page 4


 172 0066 05EB8101 		add	r1, r5, r1, lsl #2
 173              	.LVL12:
 174              		.loc 1 421 0
 175 006a C3F30A13 		ubfx	r3, r3, #4, #11
 176              	.LVL13:
 177              		.loc 1 423 0
 178 006e C968     		ldr	r1, [r1, #12]
 179              	.LBB454:
 180              	.LBB455:
 181              		.loc 1 335 0
 182 0070 0333     		adds	r3, r3, #3
 183              		.loc 1 337 0
 184 0072 9B08     		lsrs	r3, r3, #2
 185              	.LBE455:
 186              	.LBE454:
 187              		.loc 1 423 0
 188 0074 0C6A     		ldr	r4, [r1, #32]
 189              	.LVL14:
 190              	.LBB460:
 191              	.LBB459:
 192              		.loc 1 337 0
 193 0076 E6D0     		beq	.L5
 194 0078 02F58052 		add	r2, r2, #4096
 195              	.LVL15:
 196              		.loc 1 336 0
 197 007c 0221     		movs	r1, #2
 198              	.LVL16:
 199              	.LBB456:
 200              		.loc 1 338 0
 201 007e 1668     		ldr	r6, [r2]
 202              	.LVL17:
 203 0080 581E     		subs	r0, r3, #1
 204              		.loc 1 339 0
 205 0082 49B1     		cbz	r1, .L109
 206              	.L10:
 207              		.loc 1 344 0
 208 0084 0346     		mov	r3, r0
 209              		.loc 1 342 0
 210 0086 44F8046B 		str	r6, [r4], #4
 211              	.LVL18:
 212              		.loc 1 344 0
 213 008a 0139     		subs	r1, r1, #1
 214              	.LVL19:
 215              	.LBE456:
 216              		.loc 1 337 0
 217 008c 002B     		cmp	r3, #0
 218 008e DAD0     		beq	.L5
 219              	.LVL20:
 220              	.L107:
 221              	.LBB457:
 222              		.loc 1 338 0
 223 0090 1668     		ldr	r6, [r2]
 224              	.LVL21:
 225 0092 581E     		subs	r0, r3, #1
 226              		.loc 1 339 0
 227 0094 0029     		cmp	r1, #0
 228 0096 F5D1     		bne	.L10
ARM GAS  /tmp/ccqRaZSa.s 			page 5


 229              	.L109:
 230              	.LVL22:
 231              	.LBE457:
 232              		.loc 1 337 0
 233 0098 0028     		cmp	r0, #0
 234 009a D4D0     		beq	.L5
 235 009c 023B     		subs	r3, r3, #2
 236              	.LBB458:
 237              		.loc 1 338 0
 238 009e 1068     		ldr	r0, [r2]
 239              	.LVL23:
 240              	.LBE458:
 241              		.loc 1 337 0
 242 00a0 002B     		cmp	r3, #0
 243 00a2 F5D1     		bne	.L107
 244 00a4 CFE7     		b	.L5
 245              	.LVL24:
 246              	.L6:
 247              	.LBE459:
 248              	.LBE460:
 249              		.loc 1 428 0
 250 00a6 03F00F06 		and	r6, r3, #15
 251 00aa 05EB8606 		add	r6, r5, r6, lsl #2
 252              		.loc 1 427 0
 253 00ae C3F30A14 		ubfx	r4, r3, #4, #11
 254              	.LVL25:
 255              		.loc 1 429 0
 256 00b2 F368     		ldr	r3, [r6, #12]
 257              	.LVL26:
 258 00b4 9F69     		ldr	r7, [r3, #24]
 259 00b6 3B78     		ldrb	r3, [r7]	@ zero_extendqisi2
 260 00b8 F868     		ldr	r0, [r7, #12]
 261 00ba 002B     		cmp	r3, #0
 262 00bc 38D1     		bne	.L110
 263              		.loc 1 440 0
 264 00be D7E9011C 		ldrd	r1, ip, [r7, #4]
 265              	.LVL27:
 266              	.LBB461:
 267              	.LBB462:
 268              		.loc 1 336 0
 269 00c2 CE1C     		adds	r6, r1, #3
 270              		.loc 1 335 0
 271 00c4 E11C     		adds	r1, r4, #3
 272              	.LVL28:
 273              		.loc 1 336 0
 274 00c6 A6EB0C06 		sub	r6, r6, ip
 275              		.loc 1 337 0
 276 00ca 8908     		lsrs	r1, r1, #2
 277              		.loc 1 336 0
 278 00cc 4FEA9606 		lsr	r6, r6, #2
 279              	.LVL29:
 280              		.loc 1 337 0
 281 00d0 0DD0     		beq	.L21
 282 00d2 02F58052 		add	r2, r2, #4096
 283              	.LVL30:
 284 00d6 8646     		mov	lr, r0
 285 00d8 9046     		mov	r8, r2
ARM GAS  /tmp/ccqRaZSa.s 			page 6


 286              	.LVL31:
 287              	.L24:
 288              	.LBB463:
 289              		.loc 1 338 0
 290 00da D8F80020 		ldr	r2, [r8]
 291              	.LVL32:
 292 00de 4B1E     		subs	r3, r1, #1
 293              		.loc 1 339 0
 294 00e0 F6B1     		cbz	r6, .L111
 295              		.loc 1 344 0
 296 00e2 1946     		mov	r1, r3
 297              	.LVL33:
 298              		.loc 1 342 0
 299 00e4 4EF8042B 		str	r2, [lr], #4
 300              	.LVL34:
 301              		.loc 1 344 0
 302 00e8 013E     		subs	r6, r6, #1
 303              	.LVL35:
 304              	.LBE463:
 305              		.loc 1 337 0
 306 00ea 0029     		cmp	r1, #0
 307 00ec F5D1     		bne	.L24
 308              	.LVL36:
 309              	.L21:
 310              	.LBE462:
 311              	.LBE461:
 312              		.loc 1 441 0
 313 00ee 2044     		add	r0, r0, r4
 314 00f0 F860     		str	r0, [r7, #12]
 315              	.L20:
 316              	.LBE453:
 317              	.LBE452:
 318              		.loc 1 1306 0
 319 00f2 D9F81430 		ldr	r3, [r9, #20]
 320              	.LBB489:
 321              	.LBB486:
 322              		.loc 1 443 0
 323 00f6 6444     		add	r4, r4, ip
 324              	.LVL37:
 325              	.LBE486:
 326              	.LBE489:
 327              		.loc 1 1306 0
 328 00f8 DB06     		lsls	r3, r3, #27
 329              	.LBB490:
 330              	.LBB487:
 331              		.loc 1 443 0
 332 00fa BC60     		str	r4, [r7, #8]
 333              	.LBE487:
 334              	.LBE490:
 335              		.loc 1 1306 0
 336 00fc A7D4     		bmi	.L25
 337              	.LVL38:
 338              	.L108:
 339              		.loc 1 1311 0
 340 00fe EB6D     		ldr	r3, [r5, #92]
 341              		.loc 1 1310 0
 342 0100 0122     		movs	r2, #1
ARM GAS  /tmp/ccqRaZSa.s 			page 7


 343 0102 02FA0AF6 		lsl	r6, r2, r10
 344              	.LVL39:
 345              		.loc 1 1311 0
 346 0106 1E42     		tst	r6, r3
 347 0108 4AD1     		bne	.L100
 348 010a 0AEB0203 		add	r3, r10, r2
 349 010e 0293     		str	r3, [sp, #8]
 350              	.LVL40:
 351              	.L26:
 352              		.loc 1 1303 0 discriminator 2
 353 0110 6B6D     		ldr	r3, [r5, #84]
 354 0112 9DF808A0 		ldrb	r10, [sp, #8]	@ zero_extendqisi2
 355              	.LVL41:
 356 0116 9B68     		ldr	r3, [r3, #8]
 357 0118 9A45     		cmp	r10, r3
 358 011a 94D9     		bls	.L5
 359              	.LBB491:
 360              	.LBB492:
 361              	.LBB493:
 362              	.LBB494:
 363              	.LBB495:
 364              		.loc 3 342 0
 365              		.syntax unified
 366              	@ 342 "ChibiOS_3.0.5/os/ext/CMSIS/include/core_cmFunc.h" 1
 367 011c 72B6     		cpsid i
 368              	@ 0 "" 2
 369              		.thumb
 370              		.syntax unified
 371 011e 7DE7     		b	.L51
 372              	.LVL42:
 373              	.L111:
 374              	.LBE495:
 375              	.LBE494:
 376              	.LBE493:
 377              	.LBE492:
 378              	.LBE491:
 379              	.LBB496:
 380              	.LBB488:
 381              	.LBB466:
 382              	.LBB465:
 383              		.loc 1 337 0
 384 0120 002B     		cmp	r3, #0
 385 0122 E4D0     		beq	.L21
 386 0124 0239     		subs	r1, r1, #2
 387              	.LVL43:
 388              	.LBB464:
 389              		.loc 1 338 0
 390 0126 D8F80030 		ldr	r3, [r8]
 391              	.LVL44:
 392              	.LBE464:
 393              		.loc 1 337 0
 394 012a 0029     		cmp	r1, #0
 395 012c D5D1     		bne	.L24
 396 012e DEE7     		b	.L21
 397              	.LVL45:
 398              	.L110:
 399              	.LBE465:
ARM GAS  /tmp/ccqRaZSa.s 			page 8


 400              	.LBE466:
 401              	.LBB467:
 402              	.LBB468:
 403              		.loc 1 365 0
 404 0130 3CB3     		cbz	r4, .L14
 405 0132 4169     		ldr	r1, [r0, #20]
 406 0134 02F58052 		add	r2, r2, #4096
 407              	.LVL46:
 408 0138 A446     		mov	ip, r4
 409              	.LVL47:
 410              	.L15:
 411              	.LBB469:
 412              		.loc 1 369 0
 413 013a BCF1030F 		cmp	ip, #3
 414 013e 07D9     		bls	.L16
 415              	.LVL48:
 416              	.L112:
 417              	.LBB470:
 418              		.loc 1 375 0
 419 0140 0369     		ldr	r3, [r0, #16]
 420 0142 8B42     		cmp	r3, r1
 421 0144 04D8     		bhi	.L16
 422              		.loc 1 376 0
 423 0146 C168     		ldr	r1, [r0, #12]
 424 0148 4161     		str	r1, [r0, #20]
 425              	.LVL49:
 426              	.LBE470:
 427              		.loc 1 369 0
 428 014a BCF1030F 		cmp	ip, #3
 429 014e F7D8     		bhi	.L112
 430              	.LVL50:
 431              	.L16:
 432              		.loc 1 387 0
 433 0150 D2F800E0 		ldr	lr, [r2]
 434              	.LVL51:
 435 0154 0023     		movs	r3, #0
 436              	.LVL52:
 437              	.L19:
 438              		.loc 1 390 0
 439 0156 2EFA03F7 		lsr	r7, lr, r3
 440 015a 01F10108 		add	r8, r1, #1
 441 015e C0F81480 		str	r8, [r0, #20]
 442 0162 0F70     		strb	r7, [r1]
 443              		.loc 1 391 0
 444 0164 D0E90417 		ldrd	r1, r7, [r0, #16]
 445 0168 8F42     		cmp	r7, r1
 446              		.loc 1 392 0
 447 016a 24BF     		itt	cs
 448 016c C168     		ldrcs	r1, [r0, #12]
 449 016e 4161     		strcs	r1, [r0, #20]
 450              		.loc 1 389 0
 451 0170 BCF1010C 		subs	ip, ip, #1
 452              	.LVL53:
 453 0174 03F10803 		add	r3, r3, #8
 454 0178 03D0     		beq	.L14
 455 017a 202B     		cmp	r3, #32
 456 017c 4169     		ldr	r1, [r0, #20]
ARM GAS  /tmp/ccqRaZSa.s 			page 9


 457 017e EAD1     		bne	.L19
 458 0180 DBE7     		b	.L15
 459              	.LVL54:
 460              	.L14:
 461              	.LBE469:
 462              	.LBB471:
 463              	.LBB472:
 464              	.LBB473:
 465              	.LBB474:
 466              	.LBB475:
 467              		.loc 3 342 0
 468              		.syntax unified
 469              	@ 342 "ChibiOS_3.0.5/os/ext/CMSIS/include/core_cmFunc.h" 1
 470 0182 72B6     		cpsid i
 471              	@ 0 "" 2
 472              		.thumb
 473              		.syntax unified
 474              	.LBE475:
 475              	.LBE474:
 476              	.LBE473:
 477              	.LBE472:
 478              	.LBE471:
 479              		.loc 1 400 0
 480 0184 8368     		ldr	r3, [r0, #8]
 481 0186 2344     		add	r3, r3, r4
 482 0188 8360     		str	r3, [r0, #8]
 483              	.LVL55:
 484              	.LBB476:
 485              	.LBB477:
 486              		.loc 4 810 0
 487 018a 0021     		movs	r1, #0
 488 018c FFF7FEFF 		bl	chThdDequeueAllI
 489              	.LVL56:
 490              	.LBE477:
 491              	.LBE476:
 492              	.LBB478:
 493              	.LBB479:
 494              		.loc 4 600 0
 495 0190 FFF7FEFF 		bl	chSchRescheduleS
 496              	.LVL57:
 497              	.LBE479:
 498              	.LBE478:
 499              	.LBB480:
 500              	.LBB481:
 501              	.LBB482:
 502              	.LBB483:
 503              	.LBB484:
 504              	.LBB485:
 505              		.loc 3 331 0
 506              		.syntax unified
 507              	@ 331 "ChibiOS_3.0.5/os/ext/CMSIS/include/core_cmFunc.h" 1
 508 0194 62B6     		cpsie i
 509              	@ 0 "" 2
 510              		.thumb
 511              		.syntax unified
 512 0196 F368     		ldr	r3, [r6, #12]
 513 0198 9F69     		ldr	r7, [r3, #24]
ARM GAS  /tmp/ccqRaZSa.s 			page 10


 514 019a D7F808C0 		ldr	ip, [r7, #8]
 515 019e A8E7     		b	.L20
 516              	.LVL58:
 517              	.L100:
 518              	.LBE485:
 519              	.LBE484:
 520              	.LBE483:
 521              	.LBE482:
 522              	.LBE481:
 523              	.LBE480:
 524              	.LBE468:
 525              	.LBE467:
 526              	.LBE488:
 527              	.LBE496:
 528              	.LBB497:
 529              	.LBB498:
 530              	.LBB499:
 531              	.LBB500:
 532              	.LBB501:
 533              	.LBB502:
 534              		.loc 3 342 0
 535              		.syntax unified
 536              	@ 342 "ChibiOS_3.0.5/os/ext/CMSIS/include/core_cmFunc.h" 1
 537 01a0 72B6     		cpsid i
 538              	@ 0 "" 2
 539              		.thumb
 540              		.syntax unified
 541              	.LBE502:
 542              	.LBE501:
 543              	.LBE500:
 544              	.LBE499:
 545              	.LBE498:
 546              		.loc 1 1322 0
 547 01a2 D9F80820 		ldr	r2, [r9, #8]
 548              		.loc 1 1323 0
 549 01a6 EB6D     		ldr	r3, [r5, #92]
 550              		.loc 1 1322 0
 551 01a8 22F00102 		bic	r2, r2, #1
 552              		.loc 1 1323 0
 553 01ac 23EA0603 		bic	r3, r3, r6
 554              		.loc 1 1322 0
 555 01b0 C9F80820 		str	r2, [r9, #8]
 556              		.loc 1 1323 0
 557 01b4 EB65     		str	r3, [r5, #92]
 558              	.LBB503:
 559              	.LBB504:
 560              	.LBB505:
 561              	.LBB506:
 562              	.LBB507:
 563              	.LBB508:
 564              		.loc 3 331 0
 565              		.syntax unified
 566              	@ 331 "ChibiOS_3.0.5/os/ext/CMSIS/include/core_cmFunc.h" 1
 567 01b6 62B6     		cpsie i
 568              	@ 0 "" 2
 569              	.LVL59:
 570              		.thumb
ARM GAS  /tmp/ccqRaZSa.s 			page 11


 571              		.syntax unified
 572 01b8 05EB8A03 		add	r3, r5, r10, lsl #2
 573 01bc 1F46     		mov	r7, r3
 574              	.LBE508:
 575              	.LBE507:
 576              	.LBE506:
 577              	.LBE505:
 578              	.LBE504:
 579              	.LBE503:
 580              	.LBB509:
 581              	.LBB510:
 582              		.loc 1 467 0
 583 01be D968     		ldr	r1, [r3, #12]
 584 01c0 4A69     		ldr	r2, [r1, #20]
 585 01c2 D2E90130 		ldrd	r3, r0, [r2, #4]
 586 01c6 9842     		cmp	r0, r3
 587 01c8 80F0AD80 		bcs	.L113
 588              		.loc 1 477 0
 589 01cc D5F850E0 		ldr	lr, [r5, #80]
 590              		.loc 1 472 0
 591 01d0 0C8A     		ldrh	r4, [r1, #16]
 592              		.loc 1 477 0
 593 01d2 4FEA4A18 		lsl	r8, r10, #5
 594 01d6 0EEB080C 		add	ip, lr, r8
 595              		.loc 1 471 0
 596 01da 1B1A     		subs	r3, r3, r0
 597              	.LVL60:
 598              		.loc 1 477 0
 599 01dc DCF81809 		ldr	r0, [ip, #2328]
 600 01e0 9C42     		cmp	r4, r3
 601 01e2 28BF     		it	cs
 602 01e4 1C46     		movcs	r4, r3
 603              	.LVL61:
 604 01e6 83B2     		uxth	r3, r0
 605 01e8 B4EB830F 		cmp	r4, r3, lsl #2
 606 01ec 00F2A680 		bhi	.L29
 607 01f0 0AF10103 		add	r3, r10, #1
 608 01f4 0293     		str	r3, [sp, #8]
 609 01f6 1B03     		lsls	r3, r3, #12
 610 01f8 CDE90396 		strd	r9, r6, [sp, #12]
 611 01fc 0193     		str	r3, [sp, #4]
 612 01fe B946     		mov	r9, r7
 613              	.LVL62:
 614              	.L30:
 615 0200 019E     		ldr	r6, [sp, #4]
 616              		.loc 1 484 0
 617 0202 1378     		ldrb	r3, [r2]	@ zero_extendqisi2
 618 0204 D068     		ldr	r0, [r2, #12]
 619 0206 B644     		add	lr, lr, r6
 620 0208 002B     		cmp	r3, #0
 621 020a 75D0     		beq	.L33
 622              	.LVL63:
 623              	.LBB511:
 624              	.LBB512:
 625              		.loc 1 253 0
 626 020c FCB1     		cbz	r4, .L34
 627 020e D0F810B0 		ldr	fp, [r0, #16]
ARM GAS  /tmp/ccqRaZSa.s 			page 12


 628              	.LBB513:
 629              	.LBB514:
 630              		.loc 1 259 0
 631 0212 2246     		mov	r2, r4
 632              	.LVL64:
 633              	.L44:
 634              	.LBE514:
 635              		.loc 1 257 0
 636 0214 9708     		lsrs	r7, r2, #2
 637              	.LVL65:
 638 0216 8369     		ldr	r3, [r0, #24]
 639 0218 55D0     		beq	.L35
 640              	.LVL66:
 641              	.LBB519:
 642              		.loc 1 259 0
 643 021a BBEB0301 		subs	r1, fp, r3
 644 021e 48BF     		it	mi
 645 0220 0331     		addmi	r1, r1, #3
 646 0222 8E10     		asrs	r6, r1, #2
 647              		.loc 1 261 0
 648 0224 BE42     		cmp	r6, r7
 649 0226 28BF     		it	cs
 650 0228 3E46     		movcs	r6, r7
 651              	.LVL67:
 652 022a B100     		lsls	r1, r6, #2
 653 022c 521A     		subs	r2, r2, r1
 654              	.LVL68:
 655              	.LBB515:
 656              	.LBB516:
 657              		.loc 1 212 0
 658 022e 002E     		cmp	r6, #0
 659 0230 73D0     		beq	.L54
 660 0232 1944     		add	r1, r1, r3
 661              	.LVL69:
 662              	.L38:
 663              		.loc 1 215 0
 664 0234 53F8046B 		ldr	r6, [r3], #4
 665              	.LVL70:
 666 0238 CEF80060 		str	r6, [lr]
 667              	.LVL71:
 668              		.loc 1 212 0
 669 023c 8B42     		cmp	r3, r1
 670 023e F9D1     		bne	.L38
 671              	.LVL72:
 672              	.L37:
 673              	.LBE516:
 674              	.LBE515:
 675              		.loc 1 263 0
 676 0240 5945     		cmp	r1, fp
 677              		.loc 1 262 0
 678 0242 8161     		str	r1, [r0, #24]
 679              	.LVL73:
 680              		.loc 1 263 0
 681 0244 3CD3     		bcc	.L39
 682              		.loc 1 264 0
 683 0246 C368     		ldr	r3, [r0, #12]
 684 0248 8361     		str	r3, [r0, #24]
ARM GAS  /tmp/ccqRaZSa.s 			page 13


 685              	.LBE519:
 686              	.LBE513:
 687              		.loc 1 253 0
 688 024a 002A     		cmp	r2, #0
 689 024c E2D1     		bne	.L44
 690              	.LVL74:
 691              	.L34:
 692              	.LBB521:
 693              	.LBB522:
 694              	.LBB523:
 695              	.LBB524:
 696              	.LBB525:
 697              		.loc 3 342 0
 698              		.syntax unified
 699              	@ 342 "ChibiOS_3.0.5/os/ext/CMSIS/include/core_cmFunc.h" 1
 700 024e 72B6     		cpsid i
 701              	@ 0 "" 2
 702              		.thumb
 703              		.syntax unified
 704              	.LBE525:
 705              	.LBE524:
 706              	.LBE523:
 707              	.LBE522:
 708              	.LBE521:
 709              		.loc 1 289 0
 710 0250 8368     		ldr	r3, [r0, #8]
 711 0252 2344     		add	r3, r3, r4
 712 0254 8360     		str	r3, [r0, #8]
 713              	.LVL75:
 714              	.LBB526:
 715              	.LBB527:
 716              		.loc 4 810 0
 717 0256 0021     		movs	r1, #0
 718 0258 FFF7FEFF 		bl	chThdDequeueAllI
 719              	.LVL76:
 720              	.LBE527:
 721              	.LBE526:
 722              	.LBB528:
 723              	.LBB529:
 724              		.loc 4 600 0
 725 025c FFF7FEFF 		bl	chSchRescheduleS
 726              	.LVL77:
 727              	.LBE529:
 728              	.LBE528:
 729              	.LBB530:
 730              	.LBB531:
 731              	.LBB532:
 732              	.LBB533:
 733              	.LBB534:
 734              	.LBB535:
 735              		.loc 3 331 0
 736              		.syntax unified
 737              	@ 331 "ChibiOS_3.0.5/os/ext/CMSIS/include/core_cmFunc.h" 1
 738 0260 62B6     		cpsie i
 739              	@ 0 "" 2
 740              		.thumb
 741              		.syntax unified
ARM GAS  /tmp/ccqRaZSa.s 			page 14


 742 0262 D9F80C10 		ldr	r1, [r9, #12]
 743              	.LVL78:
 744              	.L45:
 745              	.LBE535:
 746              	.LBE534:
 747              	.LBE533:
 748              	.LBE532:
 749              	.LBE531:
 750              	.LBE530:
 751              	.LBE512:
 752              	.LBE511:
 753              		.loc 1 500 0
 754 0266 4A69     		ldr	r2, [r1, #20]
 755              		.loc 1 467 0
 756 0268 D2E90103 		ldrd	r0, r3, [r2, #4]
 757              		.loc 1 500 0
 758 026c 1C44     		add	r4, r4, r3
 759              	.LVL79:
 760              		.loc 1 467 0
 761 026e A042     		cmp	r0, r4
 762              		.loc 1 500 0
 763 0270 9460     		str	r4, [r2, #8]
 764              		.loc 1 467 0
 765 0272 54D9     		bls	.L114
 766              		.loc 1 477 0
 767 0274 D5F850E0 		ldr	lr, [r5, #80]
 768              		.loc 1 472 0
 769 0278 B1F810C0 		ldrh	ip, [r1, #16]
 770              		.loc 1 477 0
 771 027c 0EEB080A 		add	r10, lr, r8
 772              		.loc 1 471 0
 773 0280 041B     		subs	r4, r0, r4
 774              	.LVL80:
 775              		.loc 1 477 0
 776 0282 DAF81839 		ldr	r3, [r10, #2328]
 777 0286 6445     		cmp	r4, ip
 778 0288 28BF     		it	cs
 779 028a 6446     		movcs	r4, ip
 780              	.LVL81:
 781 028c 9BB2     		uxth	r3, r3
 782 028e B4EB830F 		cmp	r4, r3, lsl #2
 783 0292 B5D9     		bls	.L30
 784 0294 DDE90396 		ldrd	r9, r6, [sp, #12]
 785              		.loc 1 478 0
 786 0298 0022     		movs	r2, #0
 787              	.LVL82:
 788              	.L32:
 789              	.LBE510:
 790              	.LBE509:
 791              	.LBB547:
 792              	.LBB548:
 793              	.LBB549:
 794              	.LBB550:
 795              	.LBB551:
 796              		.loc 3 342 0
 797              		.syntax unified
 798              	@ 342 "ChibiOS_3.0.5/os/ext/CMSIS/include/core_cmFunc.h" 1
ARM GAS  /tmp/ccqRaZSa.s 			page 15


 799 029a 72B6     		cpsid i
 800              	@ 0 "" 2
 801              		.thumb
 802              		.syntax unified
 803              	.LBE551:
 804              	.LBE550:
 805              	.LBE549:
 806              	.LBE548:
 807              	.LBE547:
 808              		.loc 1 1329 0
 809 029c D9F80830 		ldr	r3, [r9, #8]
 810 02a0 43F00103 		orr	r3, r3, #1
 811 02a4 C9F80830 		str	r3, [r9, #8]
 812              		.loc 1 1330 0
 813 02a8 22B9     		cbnz	r2, .L28
 814              	.LVL83:
 815              	.L31:
 816              		.loc 1 1331 0
 817 02aa D9F83438 		ldr	r3, [r9, #2100]
 818 02ae 1E43     		orrs	r6, r6, r3
 819 02b0 C9F83468 		str	r6, [r9, #2100]
 820              	.L28:
 821              	.LBB560:
 822              	.LBB561:
 823              	.LBB562:
 824              	.LBB563:
 825              	.LBB564:
 826              	.LBB565:
 827              		.loc 3 331 0
 828              		.syntax unified
 829              	@ 331 "ChibiOS_3.0.5/os/ext/CMSIS/include/core_cmFunc.h" 1
 830 02b4 62B6     		cpsie i
 831              	@ 0 "" 2
 832              		.thumb
 833              		.syntax unified
 834 02b6 2BE7     		b	.L26
 835              	.L116:
 836              		.align	2
 837              	.L115:
 838 02b8 00000000 		.word	ch
 839 02bc 00000000 		.word	.LC0
 840              	.LVL84:
 841              	.L39:
 842              	.LBE565:
 843              	.LBE564:
 844              	.LBE563:
 845              	.LBE562:
 846              	.LBE561:
 847              	.LBE560:
 848              	.LBB566:
 849              	.LBB546:
 850              	.LBB540:
 851              	.LBB538:
 852              	.LBB536:
 853              		.loc 1 271 0
 854 02c0 002A     		cmp	r2, #0
 855 02c2 C4D0     		beq	.L34
ARM GAS  /tmp/ccqRaZSa.s 			page 16


 856 02c4 0B46     		mov	r3, r1
 857              	.L35:
 858 02c6 0021     		movs	r1, #0
 859 02c8 0E46     		mov	r6, r1
 860              	.LVL85:
 861              	.L43:
 862              		.loc 1 278 0
 863 02ca 5F1C     		adds	r7, r3, #1
 864 02cc 8761     		str	r7, [r0, #24]
 865 02ce 1B78     		ldrb	r3, [r3]	@ zero_extendqisi2
 866              		.loc 1 279 0
 867 02d0 5F45     		cmp	r7, fp
 868              		.loc 1 278 0
 869 02d2 03FA01F3 		lsl	r3, r3, r1
 870 02d6 46EA0306 		orr	r6, r6, r3
 871              	.LVL86:
 872              		.loc 1 280 0
 873 02da 24BF     		itt	cs
 874 02dc C368     		ldrcs	r3, [r0, #12]
 875 02de 8361     		strcs	r3, [r0, #24]
 876              		.loc 1 277 0
 877 02e0 013A     		subs	r2, r2, #1
 878              	.LVL87:
 879 02e2 04D0     		beq	.L42
 880 02e4 1829     		cmp	r1, #24
 881 02e6 02D0     		beq	.L42
 882 02e8 0831     		adds	r1, r1, #8
 883 02ea 8369     		ldr	r3, [r0, #24]
 884 02ec EDE7     		b	.L43
 885              	.L42:
 886              		.loc 1 284 0
 887 02ee CEF80060 		str	r6, [lr]
 888              	.LBE536:
 889              		.loc 1 253 0
 890 02f2 002A     		cmp	r2, #0
 891 02f4 8ED1     		bne	.L44
 892 02f6 AAE7     		b	.L34
 893              	.LVL88:
 894              	.L33:
 895              	.LBE538:
 896              	.LBE540:
 897              	.LBB541:
 898              	.LBB542:
 899              		.loc 1 235 0
 900 02f8 E31C     		adds	r3, r4, #3
 901              	.LVL89:
 902              	.LBB543:
 903              	.LBB544:
 904              		.loc 1 212 0
 905 02fa 9B08     		lsrs	r3, r3, #2
 906              	.LVL90:
 907 02fc 0AD0     		beq	.L46
 908 02fe 00EB8301 		add	r1, r0, r3, lsl #2
 909 0302 0346     		mov	r3, r0
 910              	.LVL91:
 911              	.L47:
 912              		.loc 1 215 0
ARM GAS  /tmp/ccqRaZSa.s 			page 17


 913 0304 53F8046B 		ldr	r6, [r3], #4
 914              	.LVL92:
 915 0308 CEF80060 		str	r6, [lr]
 916              	.LVL93:
 917              		.loc 1 212 0
 918 030c 8B42     		cmp	r3, r1
 919 030e F9D1     		bne	.L47
 920 0310 D9F80C10 		ldr	r1, [r9, #12]
 921              	.LVL94:
 922              	.L46:
 923              	.LBE544:
 924              	.LBE543:
 925              	.LBE542:
 926              	.LBE541:
 927              		.loc 1 495 0
 928 0314 2044     		add	r0, r0, r4
 929 0316 D060     		str	r0, [r2, #12]
 930 0318 A5E7     		b	.L45
 931              	.LVL95:
 932              	.L54:
 933              	.LBB545:
 934              	.LBB539:
 935              	.LBB537:
 936              	.LBB520:
 937              	.LBB518:
 938              	.LBB517:
 939              		.loc 1 212 0
 940 031a 1946     		mov	r1, r3
 941 031c 90E7     		b	.L37
 942              	.LVL96:
 943              	.L114:
 944 031e DDE90396 		ldrd	r9, r6, [sp, #12]
 945              	.LBE517:
 946              	.LBE518:
 947              	.LBE520:
 948              	.LBE537:
 949              	.LBE539:
 950              	.LBE545:
 951              		.loc 1 468 0
 952 0322 0122     		movs	r2, #1
 953 0324 B9E7     		b	.L32
 954              	.LVL97:
 955              	.L113:
 956              	.LBE546:
 957              	.LBE566:
 958              	.LBB567:
 959              	.LBB558:
 960              	.LBB556:
 961              	.LBB554:
 962              	.LBB552:
 963              		.loc 3 342 0
 964              		.syntax unified
 965              	@ 342 "ChibiOS_3.0.5/os/ext/CMSIS/include/core_cmFunc.h" 1
 966 0326 72B6     		cpsid i
 967              	@ 0 "" 2
 968              		.thumb
 969              		.syntax unified
ARM GAS  /tmp/ccqRaZSa.s 			page 18


 970              	.LBE552:
 971              	.LBE554:
 972              	.LBE556:
 973              	.LBE558:
 974              	.LBE567:
 975              		.loc 1 1329 0
 976 0328 D9F80830 		ldr	r3, [r9, #8]
 977 032c 0AF10102 		add	r2, r10, #1
 978 0330 43F00103 		orr	r3, r3, #1
 979 0334 0292     		str	r2, [sp, #8]
 980 0336 C9F80830 		str	r3, [r9, #8]
 981 033a BBE7     		b	.L28
 982              	.LVL98:
 983              	.L29:
 984              	.LBB568:
 985              	.LBB559:
 986              	.LBB557:
 987              	.LBB555:
 988              	.LBB553:
 989              		.loc 3 342 0
 990              		.syntax unified
 991              	@ 342 "ChibiOS_3.0.5/os/ext/CMSIS/include/core_cmFunc.h" 1
 992 033c 72B6     		cpsid i
 993              	@ 0 "" 2
 994              		.thumb
 995              		.syntax unified
 996              	.LBE553:
 997              	.LBE555:
 998              	.LBE557:
 999              	.LBE559:
 1000              	.LBE568:
 1001              		.loc 1 1329 0
 1002 033e D9F80830 		ldr	r3, [r9, #8]
 1003 0342 0AF10102 		add	r2, r10, #1
 1004 0346 43F00103 		orr	r3, r3, #1
 1005 034a 0292     		str	r2, [sp, #8]
 1006 034c C9F80830 		str	r3, [r9, #8]
 1007 0350 ABE7     		b	.L31
 1008              	.LBE497:
 1009              	.LBE441:
 1010              		.cfi_endproc
 1011              	.LFE292:
 1012              		.size	usb_lld_pump, .-usb_lld_pump
 1013 0352 00BF     		.section	.text.usb_lld_init,"ax",%progbits
 1014              		.align	1
 1015              		.p2align 4,,15
 1016              		.global	usb_lld_init
 1017              		.syntax unified
 1018              		.thumb
 1019              		.thumb_func
 1020              		.fpu fpv4-sp-d16
 1021              		.type	usb_lld_init, %function
 1022              	usb_lld_init:
 1023              	.LFB274:
 1024              		.loc 1 729 0
 1025              		.cfi_startproc
 1026              		@ args = 0, pretend = 0, frame = 0
ARM GAS  /tmp/ccqRaZSa.s 			page 19


 1027              		@ frame_needed = 0, uses_anonymous_args = 0
 1028 0000 38B5     		push	{r3, r4, r5, lr}
 1029              		.cfi_def_cfa_offset 16
 1030              		.cfi_offset 3, -16
 1031              		.cfi_offset 4, -12
 1032              		.cfi_offset 5, -8
 1033              		.cfi_offset 14, -4
 1034              		.loc 1 733 0
 1035 0002 0E4C     		ldr	r4, .L119
 1036 0004 2046     		mov	r0, r4
 1037 0006 FFF7FEFF 		bl	usbObjectInit
 1038              	.LVL99:
 1039              	.LBB569:
 1040              		.loc 1 745 0
 1041 000a 04F1B805 		add	r5, r4, #184
 1042              	.LBE569:
 1043              		.loc 1 735 0
 1044 000e 4FF0A043 		mov	r3, #1342177280
 1045              		.loc 1 736 0
 1046 0012 0B4A     		ldr	r2, .L119+4
 1047              		.loc 1 735 0
 1048 0014 2365     		str	r3, [r4, #80]
 1049              	.LBB570:
 1050              		.loc 1 745 0
 1051 0016 2946     		mov	r1, r5
 1052 0018 04F16800 		add	r0, r4, #104
 1053              	.LBE570:
 1054              		.loc 1 734 0
 1055 001c 0023     		movs	r3, #0
 1056              		.loc 1 736 0
 1057 001e 6265     		str	r2, [r4, #84]
 1058              	.LBB571:
 1059              		.loc 1 745 0
 1060 0020 FF22     		movs	r2, #255
 1061              	.LBE571:
 1062              		.loc 1 739 0
 1063 0022 C4E91833 		strd	r3, r3, [r4, #96]
 1064              	.LVL100:
 1065              	.LBB572:
 1066              		.loc 1 745 0
 1067 0026 FFF7FEFF 		bl	_thread_memfill
 1068              	.LVL101:
 1069              		.loc 1 748 0
 1070 002a 2846     		mov	r0, r5
 1071 002c 04F52271 		add	r1, r4, #648
 1072 0030 5522     		movs	r2, #85
 1073              	.LBE572:
 1074              		.loc 1 779 0
 1075 0032 BDE83840 		pop	{r3, r4, r5, lr}
 1076              		.cfi_restore 14
 1077              		.cfi_restore 5
 1078              		.cfi_restore 4
 1079              		.cfi_restore 3
 1080              		.cfi_def_cfa_offset 0
 1081              	.LBB573:
 1082              		.loc 1 748 0
 1083 0036 FFF7FEBF 		b	_thread_memfill
ARM GAS  /tmp/ccqRaZSa.s 			page 20


 1084              	.LVL102:
 1085              	.L120:
 1086 003a 00BF     		.align	2
 1087              	.L119:
 1088 003c 00000000 		.word	.LANCHOR0
 1089 0040 00000000 		.word	.LANCHOR1
 1090              	.LBE573:
 1091              		.cfi_endproc
 1092              	.LFE274:
 1093              		.size	usb_lld_init, .-usb_lld_init
 1094              		.section	.text.usb_lld_start,"ax",%progbits
 1095              		.align	1
 1096              		.p2align 4,,15
 1097              		.global	usb_lld_start
 1098              		.syntax unified
 1099              		.thumb
 1100              		.thumb_func
 1101              		.fpu fpv4-sp-d16
 1102              		.type	usb_lld_start, %function
 1103              	usb_lld_start:
 1104              	.LFB275:
 1105              		.loc 1 791 0
 1106              		.cfi_startproc
 1107              		@ args = 0, pretend = 0, frame = 0
 1108              		@ frame_needed = 0, uses_anonymous_args = 0
 1109              	.LVL103:
 1110              		.loc 1 794 0
 1111 0000 0378     		ldrb	r3, [r0]	@ zero_extendqisi2
 1112 0002 012B     		cmp	r3, #1
 1113 0004 00D0     		beq	.L138
 1114 0006 7047     		bx	lr
 1115              	.L138:
 1116              		.loc 1 791 0
 1117 0008 F0B5     		push	{r4, r5, r6, r7, lr}
 1118              		.cfi_def_cfa_offset 20
 1119              		.cfi_offset 4, -20
 1120              		.cfi_offset 5, -16
 1121              		.cfi_offset 6, -12
 1122              		.cfi_offset 7, -8
 1123              		.cfi_offset 14, -4
 1124              		.loc 1 798 0
 1125 000a 3D4B     		ldr	r3, .L142
 1126              		.loc 1 792 0
 1127 000c 066D     		ldr	r6, [r0, #80]
 1128              		.loc 1 798 0
 1129 000e 9842     		cmp	r0, r3
 1130              		.loc 1 791 0
 1131 0010 83B0     		sub	sp, sp, #12
 1132              		.cfi_def_cfa_offset 32
 1133 0012 0546     		mov	r5, r0
 1134              		.loc 1 798 0
 1135 0014 54D0     		beq	.L139
 1136              		.loc 1 792 0
 1137 0016 3446     		mov	r4, r6
 1138              	.LVL104:
 1139              	.L123:
 1140              		.loc 1 824 0
ARM GAS  /tmp/ccqRaZSa.s 			page 21


 1141 0018 0023     		movs	r3, #0
 1142              		.loc 1 829 0
 1143 001a 3A4A     		ldr	r2, .L142+4
 1144              		.loc 1 824 0
 1145 001c EB65     		str	r3, [r5, #92]
 1146              		.loc 1 832 0
 1147 001e 3A49     		ldr	r1, .L142+8
 1148              		.loc 1 829 0
 1149 0020 F260     		str	r2, [r6, #12]
 1150              		.loc 1 839 0
 1151 0022 4FF43412 		mov	r2, #2949120
 1152              		.loc 1 832 0
 1153 0026 C6F80018 		str	r1, [r6, #2048]
 1154              	.LBB584:
 1155              	.LBB585:
 1156              	.LBB586:
 1157              	.LBB587:
 1158              		.loc 4 573 0
 1159 002a 2020     		movs	r0, #32
 1160              	.LBE587:
 1161              	.LBE586:
 1162              	.LBE585:
 1163              	.LBE584:
 1164              		.loc 1 835 0
 1165 002c C6F8003E 		str	r3, [r6, #3584]
 1166              		.loc 1 839 0
 1167 0030 B263     		str	r2, [r6, #56]
 1168              	.LVL105:
 1169              	.LBB593:
 1170              	.LBB592:
 1171              	.LBB589:
 1172              	.LBB588:
 1173              		.loc 4 573 0
 1174 0032 FFF7FEFF 		bl	chSysPolledDelayX
 1175              	.LVL106:
 1176              	.LBE588:
 1177              	.LBE589:
 1178              		.loc 1 121 0
 1179 0036 0123     		movs	r3, #1
 1180 0038 2361     		str	r3, [r4, #16]
 1181              	.L124:
 1182              		.loc 1 122 0
 1183 003a 2369     		ldr	r3, [r4, #16]
 1184 003c DB07     		lsls	r3, r3, #31
 1185 003e FCD4     		bmi	.L124
 1186              	.LVL107:
 1187              	.LBB590:
 1188              	.LBB591:
 1189              		.loc 4 573 0
 1190 0040 0C20     		movs	r0, #12
 1191 0042 FFF7FEFF 		bl	chSysPolledDelayX
 1192              	.LVL108:
 1193              	.L125:
 1194              	.LBE591:
 1195              	.LBE590:
 1196              		.loc 1 128 0
 1197 0046 2369     		ldr	r3, [r4, #16]
ARM GAS  /tmp/ccqRaZSa.s 			page 22


 1198 0048 002B     		cmp	r3, #0
 1199 004a FCDA     		bge	.L125
 1200              	.LBE592:
 1201              	.LBE593:
 1202              		.loc 1 852 0
 1203 004c D5E91473 		ldrd	r7, r3, [r5, #80]
 1204              	.LVL109:
 1205 0050 9C68     		ldr	r4, [r3, #8]
 1206              		.loc 1 849 0
 1207 0052 0023     		movs	r3, #0
 1208              	.LBB594:
 1209              	.LBB595:
 1210              		.loc 1 136 0
 1211 0054 1946     		mov	r1, r3
 1212 0056 0134     		adds	r4, r4, #1
 1213              	.LBE595:
 1214              	.LBE594:
 1215              		.loc 1 849 0
 1216 0058 B360     		str	r3, [r6, #8]
 1217              	.LBB598:
 1218              	.LBB596:
 1219              		.loc 1 137 0
 1220 005a 1A46     		mov	r2, r3
 1221              		.loc 1 139 0
 1222 005c 4FF0FF30 		mov	r0, #-1
 1223              	.LVL110:
 1224              	.L126:
 1225 0060 07EB4113 		add	r3, r7, r1, lsl #5
 1226              		.loc 1 136 0
 1227 0064 0131     		adds	r1, r1, #1
 1228              	.LVL111:
 1229 0066 A142     		cmp	r1, r4
 1230              		.loc 1 137 0
 1231 0068 C3F80029 		str	r2, [r3, #2304]
 1232              		.loc 1 138 0
 1233 006c C3F81029 		str	r2, [r3, #2320]
 1234              		.loc 1 139 0
 1235 0070 C3F80809 		str	r0, [r3, #2312]
 1236              		.loc 1 141 0
 1237 0074 C3F8002B 		str	r2, [r3, #2816]
 1238              		.loc 1 142 0
 1239 0078 C3F8102B 		str	r2, [r3, #2832]
 1240              		.loc 1 143 0
 1241 007c C3F8080B 		str	r0, [r3, #2824]
 1242              		.loc 1 136 0
 1243 0080 EED1     		bne	.L126
 1244              	.LBE596:
 1245              	.LBE598:
 1246              		.loc 1 859 0
 1247 0082 6B68     		ldr	r3, [r5, #4]
 1248 0084 DB68     		ldr	r3, [r3, #12]
 1249              	.LBB599:
 1250              	.LBB597:
 1251              		.loc 1 145 0
 1252 0086 4FF00111 		mov	r1, #65537
 1253              	.LVL112:
 1254 008a C7F81C18 		str	r1, [r7, #2076]
ARM GAS  /tmp/ccqRaZSa.s 			page 23


 1255              	.LVL113:
 1256              	.LBE597:
 1257              	.LBE599:
 1258              		.loc 1 856 0
 1259 008e C6F81028 		str	r2, [r6, #2064]
 1260              		.loc 1 857 0
 1261 0092 C6F81428 		str	r2, [r6, #2068]
 1262              		.loc 1 858 0
 1263 0096 C6F81C28 		str	r2, [r6, #2076]
 1264              		.loc 1 859 0
 1265 009a 6BB1     		cbz	r3, .L140
 1266              		.loc 1 863 0
 1267 009c 43F20803 		movw	r3, #12296
 1268 00a0 B361     		str	r3, [r6, #24]
 1269              	.L128:
 1270              		.loc 1 869 0
 1271 00a2 6B6E     		ldr	r3, [r5, #100]
 1272              		.loc 1 865 0
 1273 00a4 4FF0FF32 		mov	r2, #-1
 1274 00a8 7261     		str	r2, [r6, #20]
 1275              		.loc 1 869 0
 1276 00aa D3B1     		cbz	r3, .L141
 1277              	.L129:
 1278              		.loc 1 879 0
 1279 00ac B368     		ldr	r3, [r6, #8]
 1280 00ae 43F00103 		orr	r3, r3, #1
 1281 00b2 B360     		str	r3, [r6, #8]
 1282              		.loc 1 881 0
 1283 00b4 03B0     		add	sp, sp, #12
 1284              		.cfi_remember_state
 1285              		.cfi_def_cfa_offset 20
 1286              		@ sp needed
 1287 00b6 F0BD     		pop	{r4, r5, r6, r7, pc}
 1288              	.LVL114:
 1289              	.L140:
 1290              		.cfi_restore_state
 1291              		.loc 1 860 0
 1292 00b8 4FF44053 		mov	r3, #12288
 1293 00bc B361     		str	r3, [r6, #24]
 1294 00be F0E7     		b	.L128
 1295              	.LVL115:
 1296              	.L139:
 1297              		.loc 1 800 0
 1298 00c0 124B     		ldr	r3, .L142+12
 1299 00c2 5A6B     		ldr	r2, [r3, #52]
 1300 00c4 42F08002 		orr	r2, r2, #128
 1301 00c8 5A63     		str	r2, [r3, #52]
 1302              		.loc 1 801 0
 1303 00ca 5A69     		ldr	r2, [r3, #20]
 1304 00cc 0020     		movs	r0, #0
 1305              	.LVL116:
 1306 00ce 42F08002 		orr	r2, r2, #128
 1307 00d2 5A61     		str	r2, [r3, #20]
 1308              		.loc 1 804 0
 1309 00d4 0E21     		movs	r1, #14
 1310              		.loc 1 801 0
 1311 00d6 5861     		str	r0, [r3, #20]
ARM GAS  /tmp/ccqRaZSa.s 			page 24


 1312              		.loc 1 804 0
 1313 00d8 4320     		movs	r0, #67
 1314 00da FFF7FEFF 		bl	nvicEnableVector
 1315              	.LVL117:
 1316 00de 2C6D     		ldr	r4, [r5, #80]
 1317 00e0 9AE7     		b	.L123
 1318              	.LVL118:
 1319              	.L141:
 1320              		.loc 1 870 0
 1321 00e2 0B4B     		ldr	r3, .L142+16
 1322 00e4 0095     		str	r5, [sp]
 1323 00e6 7E22     		movs	r2, #126
 1324 00e8 4FF40871 		mov	r1, #544
 1325 00ec 05F16800 		add	r0, r5, #104
 1326 00f0 FFF7FEFF 		bl	chThdCreateI
 1327              	.LVL119:
 1328 00f4 6866     		str	r0, [r5, #100]
 1329              	.LVL120:
 1330              	.LBB600:
 1331              	.LBB601:
 1332              		.file 5 "ChibiOS_3.0.5/os/rt/include/chthreads.h"
 1333              		.loc 5 249 0
 1334 00f6 FFF7FEFF 		bl	chSchReadyI
 1335              	.LVL121:
 1336              	.LBE601:
 1337              	.LBE600:
 1338              		.loc 1 874 0
 1339 00fa FFF7FEFF 		bl	chSchRescheduleS
 1340              	.LVL122:
 1341 00fe D5E7     		b	.L129
 1342              	.L143:
 1343              		.align	2
 1344              	.L142:
 1345 0100 00000000 		.word	.LANCHOR0
 1346 0104 40140040 		.word	1073747008
 1347 0108 03002002 		.word	35651587
 1348 010c 00380240 		.word	1073887232
 1349 0110 00000000 		.word	usb_lld_pump
 1350              		.cfi_endproc
 1351              	.LFE275:
 1352              		.size	usb_lld_start, .-usb_lld_start
 1353              		.section	.text.usb_lld_stop,"ax",%progbits
 1354              		.align	1
 1355              		.p2align 4,,15
 1356              		.global	usb_lld_stop
 1357              		.syntax unified
 1358              		.thumb
 1359              		.thumb_func
 1360              		.fpu fpv4-sp-d16
 1361              		.type	usb_lld_stop, %function
 1362              	usb_lld_stop:
 1363              	.LFB276:
 1364              		.loc 1 890 0
 1365              		.cfi_startproc
 1366              		@ args = 0, pretend = 0, frame = 0
 1367              		@ frame_needed = 0, uses_anonymous_args = 0
 1368              	.LVL123:
ARM GAS  /tmp/ccqRaZSa.s 			page 25


 1369              		.loc 1 894 0
 1370 0000 0378     		ldrb	r3, [r0]	@ zero_extendqisi2
 1371 0002 012B     		cmp	r3, #1
 1372 0004 26D0     		beq	.L151
 1373              		.loc 1 890 0
 1374 0006 70B5     		push	{r4, r5, r6, lr}
 1375              		.cfi_def_cfa_offset 16
 1376              		.cfi_offset 4, -16
 1377              		.cfi_offset 5, -12
 1378              		.cfi_offset 6, -8
 1379              		.cfi_offset 14, -4
 1380              		.loc 1 891 0
 1381 0008 D0E91453 		ldrd	r5, r3, [r0, #80]
 1382              	.LVL124:
 1383 000c 9E68     		ldr	r6, [r3, #8]
 1384              	.LBB602:
 1385              	.LBB603:
 1386              		.loc 1 136 0
 1387 000e 0021     		movs	r1, #0
 1388 0010 0136     		adds	r6, r6, #1
 1389              		.loc 1 137 0
 1390 0012 0A46     		mov	r2, r1
 1391              		.loc 1 139 0
 1392 0014 4FF0FF34 		mov	r4, #-1
 1393              	.LVL125:
 1394              	.L147:
 1395 0018 05EB4113 		add	r3, r5, r1, lsl #5
 1396              		.loc 1 136 0
 1397 001c 0131     		adds	r1, r1, #1
 1398              	.LVL126:
 1399 001e B142     		cmp	r1, r6
 1400              		.loc 1 137 0
 1401 0020 C3F80029 		str	r2, [r3, #2304]
 1402              		.loc 1 138 0
 1403 0024 C3F81029 		str	r2, [r3, #2320]
 1404              		.loc 1 139 0
 1405 0028 C3F80849 		str	r4, [r3, #2312]
 1406              		.loc 1 141 0
 1407 002c C3F8002B 		str	r2, [r3, #2816]
 1408              		.loc 1 142 0
 1409 0030 C3F8102B 		str	r2, [r3, #2832]
 1410              		.loc 1 143 0
 1411 0034 C3F8084B 		str	r4, [r3, #2824]
 1412              		.loc 1 136 0
 1413 0038 EED1     		bne	.L147
 1414              	.LBE603:
 1415              	.LBE602:
 1416              		.loc 1 907 0
 1417 003a 0B4B     		ldr	r3, .L155
 1418              	.LBB606:
 1419              	.LBB604:
 1420              		.loc 1 145 0
 1421 003c 4FF00111 		mov	r1, #65537
 1422              	.LVL127:
 1423              	.LBE604:
 1424              	.LBE606:
 1425              		.loc 1 907 0
ARM GAS  /tmp/ccqRaZSa.s 			page 26


 1426 0040 9842     		cmp	r0, r3
 1427              	.LBB607:
 1428              	.LBB605:
 1429              		.loc 1 145 0
 1430 0042 C5F81C18 		str	r1, [r5, #2076]
 1431              	.LVL128:
 1432              	.LBE605:
 1433              	.LBE607:
 1434              		.loc 1 900 0
 1435 0046 C265     		str	r2, [r0, #92]
 1436              		.loc 1 902 0
 1437 0048 C5F81C28 		str	r2, [r5, #2076]
 1438              		.loc 1 903 0
 1439 004c AA60     		str	r2, [r5, #8]
 1440              		.loc 1 904 0
 1441 004e AA63     		str	r2, [r5, #56]
 1442              		.loc 1 907 0
 1443 0050 01D0     		beq	.L154
 1444              		.loc 1 920 0
 1445 0052 70BD     		pop	{r4, r5, r6, pc}
 1446              	.LVL129:
 1447              	.L151:
 1448              		.cfi_def_cfa_offset 0
 1449              		.cfi_restore 4
 1450              		.cfi_restore 5
 1451              		.cfi_restore 6
 1452              		.cfi_restore 14
 1453 0054 7047     		bx	lr
 1454              	.LVL130:
 1455              	.L154:
 1456              		.cfi_def_cfa_offset 16
 1457              		.cfi_offset 4, -16
 1458              		.cfi_offset 5, -12
 1459              		.cfi_offset 6, -8
 1460              		.cfi_offset 14, -4
 1461              		.loc 1 908 0
 1462 0056 4320     		movs	r0, #67
 1463              	.LVL131:
 1464 0058 FFF7FEFF 		bl	nvicDisableVector
 1465              	.LVL132:
 1466              		.loc 1 909 0
 1467 005c 034A     		ldr	r2, .L155+4
 1468 005e 536B     		ldr	r3, [r2, #52]
 1469 0060 23F08003 		bic	r3, r3, #128
 1470 0064 5363     		str	r3, [r2, #52]
 1471              		.loc 1 920 0
 1472 0066 70BD     		pop	{r4, r5, r6, pc}
 1473              	.L156:
 1474              		.align	2
 1475              	.L155:
 1476 0068 00000000 		.word	.LANCHOR0
 1477 006c 00380240 		.word	1073887232
 1478              		.cfi_endproc
 1479              	.LFE276:
 1480              		.size	usb_lld_stop, .-usb_lld_stop
 1481              		.section	.text.usb_lld_reset,"ax",%progbits
 1482              		.align	1
ARM GAS  /tmp/ccqRaZSa.s 			page 27


 1483              		.p2align 4,,15
 1484              		.global	usb_lld_reset
 1485              		.syntax unified
 1486              		.thumb
 1487              		.thumb_func
 1488              		.fpu fpv4-sp-d16
 1489              		.type	usb_lld_reset, %function
 1490              	usb_lld_reset:
 1491              	.LFB277:
 1492              		.loc 1 929 0
 1493              		.cfi_startproc
 1494              		@ args = 0, pretend = 0, frame = 0
 1495              		@ frame_needed = 0, uses_anonymous_args = 0
 1496              	.LVL133:
 1497 0000 F8B5     		push	{r3, r4, r5, r6, r7, lr}
 1498              		.cfi_def_cfa_offset 24
 1499              		.cfi_offset 3, -24
 1500              		.cfi_offset 4, -20
 1501              		.cfi_offset 5, -16
 1502              		.cfi_offset 6, -12
 1503              		.cfi_offset 7, -8
 1504              		.cfi_offset 14, -4
 1505              		.loc 1 931 0
 1506 0002 056D     		ldr	r5, [r0, #80]
 1507              	.LVL134:
 1508              	.LBB608:
 1509              	.LBB609:
 1510              		.loc 1 161 0
 1511 0004 2023     		movs	r3, #32
 1512              	.LBE609:
 1513              	.LBE608:
 1514              		.loc 1 929 0
 1515 0006 0646     		mov	r6, r0
 1516              	.LVL135:
 1517              	.LBB613:
 1518              	.LBB612:
 1519              		.loc 1 161 0
 1520 0008 2B61     		str	r3, [r5, #16]
 1521              	.L158:
 1522              		.loc 1 162 0
 1523 000a 2C69     		ldr	r4, [r5, #16]
 1524 000c 14F02004 		ands	r4, r4, #32
 1525 0010 FBD1     		bne	.L158
 1526              	.LVL136:
 1527              	.LBB610:
 1528              	.LBB611:
 1529              		.loc 4 573 0
 1530 0012 0C20     		movs	r0, #12
 1531              	.LVL137:
 1532 0014 FFF7FEFF 		bl	chSysPolledDelayX
 1533              	.LVL138:
 1534              	.LBE611:
 1535              	.LBE610:
 1536              	.LBE612:
 1537              	.LBE613:
 1538              		.loc 1 941 0
 1539 0018 776D     		ldr	r7, [r6, #84]
ARM GAS  /tmp/ccqRaZSa.s 			page 28


 1540              		.loc 1 937 0
 1541 001a C5F83448 		str	r4, [r5, #2100]
 1542 001e BA68     		ldr	r2, [r7, #8]
 1543              		.loc 1 938 0
 1544 0020 4FF00111 		mov	r1, #65537
 1545              		.loc 1 941 0
 1546 0024 2346     		mov	r3, r4
 1547              		.loc 1 938 0
 1548 0026 C5F81C18 		str	r1, [r5, #2076]
 1549              	.LVL139:
 1550 002a 541C     		adds	r4, r2, #1
 1551              		.loc 1 942 0
 1552 002c 4FF00060 		mov	r0, #134217728
 1553              		.loc 1 944 0
 1554 0030 4FF0FF31 		mov	r1, #-1
 1555              	.LVL140:
 1556              	.L159:
 1557 0034 05EB4312 		add	r2, r5, r3, lsl #5
 1558              		.loc 1 941 0 discriminator 3
 1559 0038 0133     		adds	r3, r3, #1
 1560              	.LVL141:
 1561 003a 9C42     		cmp	r4, r3
 1562              		.loc 1 942 0 discriminator 3
 1563 003c C2F80009 		str	r0, [r2, #2304]
 1564              		.loc 1 943 0 discriminator 3
 1565 0040 C2F8000B 		str	r0, [r2, #2816]
 1566              		.loc 1 944 0 discriminator 3
 1567 0044 C2F80819 		str	r1, [r2, #2312]
 1568              		.loc 1 945 0 discriminator 3
 1569 0048 C2F8081B 		str	r1, [r2, #2824]
 1570              		.loc 1 941 0 discriminator 3
 1571 004c F2D1     		bne	.L159
 1572              	.LVL142:
 1573              	.LBB614:
 1574              	.LBB615:
 1575              		.loc 1 177 0
 1576 004e 3B68     		ldr	r3, [r7]
 1577              	.LVL143:
 1578 0050 B365     		str	r3, [r6, #88]
 1579              	.LBE615:
 1580              	.LBE614:
 1581              		.loc 1 952 0
 1582 0052 3B68     		ldr	r3, [r7]
 1583              		.loc 1 953 0
 1584 0054 326D     		ldr	r2, [r6, #80]
 1585              	.LVL144:
 1586              		.loc 1 952 0
 1587 0056 6B62     		str	r3, [r5, #36]
 1588              	.LBB616:
 1589              	.LBB617:
 1590              		.loc 1 151 0
 1591 0058 1023     		movs	r3, #16
 1592 005a 1361     		str	r3, [r2, #16]
 1593              	.L160:
 1594              		.loc 1 152 0
 1595 005c 1469     		ldr	r4, [r2, #16]
 1596 005e 14F01004 		ands	r4, r4, #16
ARM GAS  /tmp/ccqRaZSa.s 			page 29


 1597 0062 FBD1     		bne	.L160
 1598              	.LVL145:
 1599              	.LBB618:
 1600              	.LBB619:
 1601              		.loc 4 573 0
 1602 0064 0C20     		movs	r0, #12
 1603 0066 FFF7FEFF 		bl	chSysPolledDelayX
 1604              	.LVL146:
 1605              	.LBE619:
 1606              	.LBE618:
 1607              	.LBE617:
 1608              	.LBE616:
 1609              		.loc 1 956 0
 1610 006a D5F80038 		ldr	r3, [r5, #2048]
 1611              		.loc 1 966 0
 1612 006e 114A     		ldr	r2, .L165
 1613              		.loc 1 964 0
 1614 0070 1149     		ldr	r1, .L165+4
 1615              		.loc 1 956 0
 1616 0072 23F4FE63 		bic	r3, r3, #2032
 1617 0076 C5F80038 		str	r3, [r5, #2048]
 1618              		.loc 1 959 0
 1619 007a AB69     		ldr	r3, [r5, #24]
 1620 007c 43F44023 		orr	r3, r3, #786432
 1621 0080 43F01003 		orr	r3, r3, #16
 1622 0084 AB61     		str	r3, [r5, #24]
 1623              		.loc 1 960 0
 1624 0086 0923     		movs	r3, #9
 1625 0088 C5F81038 		str	r3, [r5, #2064]
 1626              		.loc 1 961 0
 1627 008c C5F81438 		str	r3, [r5, #2068]
 1628              		.loc 1 964 0
 1629 0090 F160     		str	r1, [r6, #12]
 1630              		.loc 1 965 0
 1631 0092 C5F8104B 		str	r4, [r5, #2832]
 1632              		.loc 1 966 0
 1633 0096 C5F8002B 		str	r2, [r5, #2816]
 1634              		.loc 1 968 0
 1635 009a C5F81049 		str	r4, [r5, #2320]
 1636              		.loc 1 969 0
 1637 009e C5F80029 		str	r2, [r5, #2304]
 1638              	.LVL147:
 1639              	.LBB620:
 1640              	.LBB621:
 1641              		.loc 1 191 0
 1642 00a2 B36D     		ldr	r3, [r6, #88]
 1643              	.LVL148:
 1644              		.loc 1 192 0
 1645 00a4 03F11002 		add	r2, r3, #16
 1646              	.LBE621:
 1647              	.LBE620:
 1648              		.loc 1 971 0
 1649 00a8 43F48013 		orr	r3, r3, #1048576
 1650              	.LVL149:
 1651              	.LBB623:
 1652              	.LBB622:
 1653              		.loc 1 192 0
ARM GAS  /tmp/ccqRaZSa.s 			page 30


 1654 00ac B265     		str	r2, [r6, #88]
 1655              	.LVL150:
 1656              	.LBE622:
 1657              	.LBE623:
 1658              		.loc 1 971 0
 1659 00ae AB62     		str	r3, [r5, #40]
 1660              		.loc 1 974 0
 1661 00b0 F8BD     		pop	{r3, r4, r5, r6, r7, pc}
 1662              	.LVL151:
 1663              	.L166:
 1664 00b2 00BF     		.align	2
 1665              	.L165:
 1666 00b4 40800010 		.word	268468288
 1667 00b8 00000000 		.word	.LANCHOR2
 1668              		.cfi_endproc
 1669              	.LFE277:
 1670              		.size	usb_lld_reset, .-usb_lld_reset
 1671              		.section	.text.usb_lld_set_address,"ax",%progbits
 1672              		.align	1
 1673              		.p2align 4,,15
 1674              		.global	usb_lld_set_address
 1675              		.syntax unified
 1676              		.thumb
 1677              		.thumb_func
 1678              		.fpu fpv4-sp-d16
 1679              		.type	usb_lld_set_address, %function
 1680              	usb_lld_set_address:
 1681              	.LFB278:
 1682              		.loc 1 983 0
 1683              		.cfi_startproc
 1684              		@ args = 0, pretend = 0, frame = 0
 1685              		@ frame_needed = 0, uses_anonymous_args = 0
 1686              		@ link register save eliminated.
 1687              	.LVL152:
 1688              		.loc 1 984 0
 1689 0000 026D     		ldr	r2, [r0, #80]
 1690              	.LVL153:
 1691              		.loc 1 986 0
 1692 0002 90F84E10 		ldrb	r1, [r0, #78]	@ zero_extendqisi2
 1693 0006 D2F80038 		ldr	r3, [r2, #2048]
 1694 000a 23F4FE63 		bic	r3, r3, #2032
 1695 000e 43EA0113 		orr	r3, r3, r1, lsl #4
 1696 0012 C2F80038 		str	r3, [r2, #2048]
 1697              		.loc 1 987 0
 1698 0016 7047     		bx	lr
 1699              		.cfi_endproc
 1700              	.LFE278:
 1701              		.size	usb_lld_set_address, .-usb_lld_set_address
 1702              		.section	.text.usb_lld_init_endpoint,"ax",%progbits
 1703              		.align	1
 1704              		.p2align 4,,15
 1705              		.global	usb_lld_init_endpoint
 1706              		.syntax unified
 1707              		.thumb
 1708              		.thumb_func
 1709              		.fpu fpv4-sp-d16
 1710              		.type	usb_lld_init_endpoint, %function
ARM GAS  /tmp/ccqRaZSa.s 			page 31


 1711              	usb_lld_init_endpoint:
 1712              	.LFB279:
 1713              		.loc 1 997 0
 1714              		.cfi_startproc
 1715              		@ args = 0, pretend = 0, frame = 0
 1716              		@ frame_needed = 0, uses_anonymous_args = 0
 1717              	.LVL154:
 1718 0000 2DE9F843 		push	{r3, r4, r5, r6, r7, r8, r9, lr}
 1719              		.cfi_def_cfa_offset 32
 1720              		.cfi_offset 3, -32
 1721              		.cfi_offset 4, -28
 1722              		.cfi_offset 5, -24
 1723              		.cfi_offset 6, -20
 1724              		.cfi_offset 7, -16
 1725              		.cfi_offset 8, -12
 1726              		.cfi_offset 9, -8
 1727              		.cfi_offset 14, -4
 1728 0004 0FFA81F8 		sxth	r8, r1
 1729 0008 00EB8807 		add	r7, r0, r8, lsl #2
 1730              		.loc 1 997 0
 1731 000c 0D46     		mov	r5, r1
 1732              	.LVL155:
 1733              		.loc 1 1002 0
 1734 000e FB68     		ldr	r3, [r7, #12]
 1735 0010 1A68     		ldr	r2, [r3]
 1736 0012 02F00302 		and	r2, r2, #3
 1737 0016 022A     		cmp	r2, #2
 1738 0018 00F09780 		beq	.L170
 1739 001c 032A     		cmp	r2, #3
 1740 001e 00F09180 		beq	.L171
 1741              		.loc 1 1004 0
 1742 0022 4B4C     		ldr	r4, .L184
 1743 0024 4B49     		ldr	r1, .L184+4
 1744              	.LVL156:
 1745 0026 012A     		cmp	r2, #1
 1746 0028 0CBF     		ite	eq
 1747 002a A146     		moveq	r9, r4
 1748 002c 8946     		movne	r9, r1
 1749              	.L172:
 1750              		.loc 1 999 0
 1751 002e 046D     		ldr	r4, [r0, #80]
 1752              	.LVL157:
 1753              		.loc 1 1021 0
 1754 0030 DE68     		ldr	r6, [r3, #12]
 1755              		.loc 1 1020 0
 1756 0032 6901     		lsls	r1, r5, #5
 1757 0034 6218     		adds	r2, r4, r1
 1758 0036 4FF0000C 		mov	ip, #0
 1759 003a C2F810CB 		str	ip, [r2, #2832]
 1760 003e 05F11002 		add	r2, r5, #16
 1761 0042 4FF0010C 		mov	ip, #1
 1762 0046 0CFA02F2 		lsl	r2, ip, r2
 1763              		.loc 1 1021 0
 1764 004a 002E     		cmp	r6, #0
 1765 004c 4BD0     		beq	.L173
 1766              		.loc 1 1022 0
 1767 004e B3F812C0 		ldrh	ip, [r3, #18]
ARM GAS  /tmp/ccqRaZSa.s 			page 32


 1768 0052 05F15806 		add	r6, r5, #88
 1769 0056 7601     		lsls	r6, r6, #5
 1770 0058 4CEA090C 		orr	ip, ip, r9
 1771 005c 44F806C0 		str	ip, [r4, r6]
 1772              		.loc 1 1023 0
 1773 0060 D4F81C68 		ldr	r6, [r4, #2076]
 1774 0064 3243     		orrs	r2, r2, r6
 1775 0066 C4F81C28 		str	r2, [r4, #2076]
 1776              	.L174:
 1777              		.loc 1 1031 0
 1778 006a 6618     		adds	r6, r4, r1
 1779              		.loc 1 1032 0
 1780 006c D3F808C0 		ldr	ip, [r3, #8]
 1781              		.loc 1 1031 0
 1782 0070 0022     		movs	r2, #0
 1783 0072 A901     		lsls	r1, r5, #6
 1784 0074 C6F81029 		str	r2, [r6, #2320]
 1785 0078 41F02001 		orr	r1, r1, #32
 1786 007c 6A1E     		subs	r2, r5, #1
 1787              		.loc 1 1032 0
 1788 007e BCF1000F 		cmp	ip, #0
 1789 0082 3FD0     		beq	.L175
 1790              		.loc 1 1035 0
 1791 0084 B3F81CC0 		ldrh	ip, [r3, #28]
 1792              		.loc 1 1034 0
 1793 0088 1E8A     		ldrh	r6, [r3, #16]
 1794              		.loc 1 1035 0
 1795 008a BCF1010F 		cmp	ip, #1
 1796              		.loc 1 1034 0
 1797 008e 4FEA9603 		lsr	r3, r6, #2
 1798              	.LVL158:
 1799              		.loc 1 1037 0
 1800 0092 02F14002 		add	r2, r2, #64
 1801              	.LBB624:
 1802              	.LBB625:
 1803              		.loc 1 191 0
 1804 0096 866D     		ldr	r6, [r0, #88]
 1805              	.LBE625:
 1806              	.LBE624:
 1807              		.loc 1 1036 0
 1808 0098 88BF     		it	hi
 1809 009a 0CFB03F3 		mulhi	r3, ip, r3
 1810              	.LVL159:
 1811              		.loc 1 1037 0
 1812 009e 04EB8202 		add	r2, r4, r2, lsl #2
 1813              	.LBB628:
 1814              	.LBB626:
 1815              		.loc 1 192 0
 1816 00a2 03EB060C 		add	ip, r3, r6
 1817              	.LBE626:
 1818              	.LBE628:
 1819              		.loc 1 1037 0
 1820 00a6 46EA0343 		orr	r3, r6, r3, lsl #16
 1821              	.LVL160:
 1822              	.LBB629:
 1823              	.LBB627:
 1824              		.loc 1 192 0
ARM GAS  /tmp/ccqRaZSa.s 			page 33


 1825 00aa C0F858C0 		str	ip, [r0, #88]
 1826              	.LVL161:
 1827              	.LBE627:
 1828              	.LBE629:
 1829              		.loc 1 1037 0
 1830 00ae 5360     		str	r3, [r2, #4]
 1831              	.LVL162:
 1832              	.LBB630:
 1833              	.LBB631:
 1834              		.loc 1 161 0
 1835 00b0 2161     		str	r1, [r4, #16]
 1836              	.L177:
 1837              		.loc 1 162 0
 1838 00b2 2369     		ldr	r3, [r4, #16]
 1839 00b4 9A06     		lsls	r2, r3, #26
 1840 00b6 FCD4     		bmi	.L177
 1841              	.LVL163:
 1842              	.LBB632:
 1843              	.LBB633:
 1844              		.loc 4 573 0
 1845 00b8 0C20     		movs	r0, #12
 1846              	.LVL164:
 1847 00ba FFF7FEFF 		bl	chSysPolledDelayX
 1848              	.LVL165:
 1849              	.LBE633:
 1850              	.LBE632:
 1851              	.LBE631:
 1852              	.LBE630:
 1853              		.loc 1 1043 0
 1854 00be FB68     		ldr	r3, [r7, #12]
 1855 00c0 1A8A     		ldrh	r2, [r3, #16]
 1856              		.loc 1 1041 0
 1857 00c2 05F14803 		add	r3, r5, #72
 1858              		.loc 1 1042 0
 1859 00c6 42EA8552 		orr	r2, r2, r5, lsl #22
 1860              		.loc 1 1041 0
 1861 00ca 5B01     		lsls	r3, r3, #5
 1862              		.loc 1 1042 0
 1863 00cc 42EA0902 		orr	r2, r2, r9
 1864              		.loc 1 1041 0
 1865 00d0 E250     		str	r2, [r4, r3]
 1866              		.loc 1 1044 0
 1867 00d2 0121     		movs	r1, #1
 1868 00d4 D4F81C38 		ldr	r3, [r4, #2076]
 1869 00d8 01FA05F5 		lsl	r5, r1, r5
 1870 00dc 1D43     		orrs	r5, r5, r3
 1871 00de C4F81C58 		str	r5, [r4, #2076]
 1872              		.loc 1 1052 0
 1873 00e2 BDE8F883 		pop	{r3, r4, r5, r6, r7, r8, r9, pc}
 1874              	.LVL166:
 1875              	.L173:
 1876 00e6 04EB481C 		add	ip, r4, r8, lsl #5
 1877              		.loc 1 1026 0
 1878 00ea DCF8006B 		ldr	r6, [ip, #2816]
 1879 00ee 26F40046 		bic	r6, r6, #32768
 1880 00f2 CCF8006B 		str	r6, [ip, #2816]
 1881              		.loc 1 1027 0
ARM GAS  /tmp/ccqRaZSa.s 			page 34


 1882 00f6 D4F81C68 		ldr	r6, [r4, #2076]
 1883 00fa 26EA0202 		bic	r2, r6, r2
 1884 00fe C4F81C28 		str	r2, [r4, #2076]
 1885 0102 B2E7     		b	.L174
 1886              	.L175:
 1887              		.loc 1 1047 0
 1888 0104 05F13F03 		add	r3, r5, #63
 1889 0108 04EB8303 		add	r3, r4, r3, lsl #2
 1890 010c 124A     		ldr	r2, .L184+8
 1891 010e 5A60     		str	r2, [r3, #4]
 1892              	.LVL167:
 1893              	.LBB634:
 1894              	.LBB635:
 1895              		.loc 1 161 0
 1896 0110 2161     		str	r1, [r4, #16]
 1897              	.L179:
 1898              		.loc 1 162 0
 1899 0112 2369     		ldr	r3, [r4, #16]
 1900 0114 9B06     		lsls	r3, r3, #26
 1901 0116 FCD4     		bmi	.L179
 1902              	.LVL168:
 1903 0118 04EB4818 		add	r8, r4, r8, lsl #5
 1904              	.LBB636:
 1905              	.LBB637:
 1906              		.loc 4 573 0
 1907 011c 0C20     		movs	r0, #12
 1908              	.LVL169:
 1909 011e FFF7FEFF 		bl	chSysPolledDelayX
 1910              	.LVL170:
 1911              	.LBE637:
 1912              	.LBE636:
 1913              	.LBE635:
 1914              	.LBE634:
 1915              		.loc 1 1049 0
 1916 0122 D8F80039 		ldr	r3, [r8, #2304]
 1917 0126 23F40043 		bic	r3, r3, #32768
 1918 012a C8F80039 		str	r3, [r8, #2304]
 1919              		.loc 1 1050 0
 1920 012e D4F81C38 		ldr	r3, [r4, #2076]
 1921 0132 0121     		movs	r1, #1
 1922 0134 01FA05F5 		lsl	r5, r1, r5
 1923 0138 23EA0505 		bic	r5, r3, r5
 1924 013c C4F81C58 		str	r5, [r4, #2076]
 1925              		.loc 1 1052 0
 1926 0140 BDE8F883 		pop	{r3, r4, r5, r6, r7, r8, r9, pc}
 1927              	.LVL171:
 1928              	.L171:
 1929              		.loc 1 1013 0
 1930 0144 DFF81490 		ldr	r9, .L184+12
 1931              		.loc 1 1014 0
 1932 0148 71E7     		b	.L172
 1933              	.LVL172:
 1934              	.L170:
 1935              		.loc 1 1010 0
 1936 014a DFF81490 		ldr	r9, .L184+16
 1937              		.loc 1 1011 0
 1938 014e 6EE7     		b	.L172
ARM GAS  /tmp/ccqRaZSa.s 			page 35


 1939              	.L185:
 1940              		.align	2
 1941              	.L184:
 1942 0150 00800410 		.word	268730368
 1943 0154 00800010 		.word	268468224
 1944 0158 00040002 		.word	33555456
 1945 015c 00800C10 		.word	269254656
 1946 0160 00800810 		.word	268992512
 1947              		.cfi_endproc
 1948              	.LFE279:
 1949              		.size	usb_lld_init_endpoint, .-usb_lld_init_endpoint
 1950              		.section	.text.usb_lld_disable_endpoints,"ax",%progbits
 1951              		.align	1
 1952              		.p2align 4,,15
 1953              		.global	usb_lld_disable_endpoints
 1954              		.syntax unified
 1955              		.thumb
 1956              		.thumb_func
 1957              		.fpu fpv4-sp-d16
 1958              		.type	usb_lld_disable_endpoints, %function
 1959              	usb_lld_disable_endpoints:
 1960              	.LFB280:
 1961              		.loc 1 1061 0
 1962              		.cfi_startproc
 1963              		@ args = 0, pretend = 0, frame = 0
 1964              		@ frame_needed = 0, uses_anonymous_args = 0
 1965              		@ link register save eliminated.
 1966              	.LVL173:
 1967 0000 30B4     		push	{r4, r5}
 1968              		.cfi_def_cfa_offset 8
 1969              		.cfi_offset 4, -8
 1970              		.cfi_offset 5, -4
 1971              		.loc 1 1067 0
 1972 0002 D0E91453 		ldrd	r5, r3, [r0, #80]
 1973              	.LVL174:
 1974              	.LBB638:
 1975              	.LBB639:
 1976              		.loc 1 177 0
 1977 0006 1968     		ldr	r1, [r3]
 1978 0008 8165     		str	r1, [r0, #88]
 1979 000a 9C68     		ldr	r4, [r3, #8]
 1980              	.LBE639:
 1981              	.LBE638:
 1982              	.LBB640:
 1983              	.LBB641:
 1984              		.loc 1 136 0
 1985 000c 0022     		movs	r2, #0
 1986              		.loc 1 137 0
 1987 000e 1146     		mov	r1, r2
 1988 0010 0134     		adds	r4, r4, #1
 1989              		.loc 1 139 0
 1990 0012 4FF0FF30 		mov	r0, #-1
 1991              	.LVL175:
 1992              	.L187:
 1993 0016 05EB4213 		add	r3, r5, r2, lsl #5
 1994              		.loc 1 136 0
 1995 001a 0132     		adds	r2, r2, #1
ARM GAS  /tmp/ccqRaZSa.s 			page 36


 1996              	.LVL176:
 1997 001c A242     		cmp	r2, r4
 1998              		.loc 1 137 0
 1999 001e C3F80019 		str	r1, [r3, #2304]
 2000              		.loc 1 138 0
 2001 0022 C3F81019 		str	r1, [r3, #2320]
 2002              		.loc 1 139 0
 2003 0026 C3F80809 		str	r0, [r3, #2312]
 2004              		.loc 1 141 0
 2005 002a C3F8001B 		str	r1, [r3, #2816]
 2006              		.loc 1 142 0
 2007 002e C3F8101B 		str	r1, [r3, #2832]
 2008              		.loc 1 143 0
 2009 0032 C3F8080B 		str	r0, [r3, #2824]
 2010              		.loc 1 136 0
 2011 0036 EED1     		bne	.L187
 2012              		.loc 1 145 0
 2013 0038 4FF00113 		mov	r3, #65537
 2014 003c C5F81C38 		str	r3, [r5, #2076]
 2015              	.LVL177:
 2016              	.LBE641:
 2017              	.LBE640:
 2018              		.loc 1 1068 0
 2019 0040 30BC     		pop	{r4, r5}
 2020              		.cfi_restore 5
 2021              		.cfi_restore 4
 2022              		.cfi_def_cfa_offset 0
 2023 0042 7047     		bx	lr
 2024              		.cfi_endproc
 2025              	.LFE280:
 2026              		.size	usb_lld_disable_endpoints, .-usb_lld_disable_endpoints
 2027              		.section	.text.usb_lld_get_status_out,"ax",%progbits
 2028              		.align	1
 2029              		.p2align 4,,15
 2030              		.global	usb_lld_get_status_out
 2031              		.syntax unified
 2032              		.thumb
 2033              		.thumb_func
 2034              		.fpu fpv4-sp-d16
 2035              		.type	usb_lld_get_status_out, %function
 2036              	usb_lld_get_status_out:
 2037              	.LFB281:
 2038              		.loc 1 1082 0
 2039              		.cfi_startproc
 2040              		@ args = 0, pretend = 0, frame = 0
 2041              		@ frame_needed = 0, uses_anonymous_args = 0
 2042              		@ link register save eliminated.
 2043              	.LVL178:
 2044              		.loc 1 1087 0
 2045 0000 5831     		adds	r1, r1, #88
 2046              	.LVL179:
 2047 0002 036D     		ldr	r3, [r0, #80]
 2048 0004 4901     		lsls	r1, r1, #5
 2049 0006 5B58     		ldr	r3, [r3, r1]
 2050              	.LVL180:
 2051              		.loc 1 1088 0
 2052 0008 13F40040 		ands	r0, r3, #32768
ARM GAS  /tmp/ccqRaZSa.s 			page 37


 2053              	.LVL181:
 2054 000c 04D0     		beq	.L191
 2055              		.loc 1 1090 0
 2056 000e 13F4001F 		tst	r3, #2097152
 2057              		.loc 1 1092 0
 2058 0012 14BF     		ite	ne
 2059 0014 0120     		movne	r0, #1
 2060 0016 0220     		moveq	r0, #2
 2061              	.L191:
 2062              		.loc 1 1093 0
 2063 0018 7047     		bx	lr
 2064              		.cfi_endproc
 2065              	.LFE281:
 2066              		.size	usb_lld_get_status_out, .-usb_lld_get_status_out
 2067 001a 00BF     		.section	.text.usb_lld_get_status_in,"ax",%progbits
 2068              		.align	1
 2069              		.p2align 4,,15
 2070              		.global	usb_lld_get_status_in
 2071              		.syntax unified
 2072              		.thumb
 2073              		.thumb_func
 2074              		.fpu fpv4-sp-d16
 2075              		.type	usb_lld_get_status_in, %function
 2076              	usb_lld_get_status_in:
 2077              	.LFB282:
 2078              		.loc 1 1107 0
 2079              		.cfi_startproc
 2080              		@ args = 0, pretend = 0, frame = 0
 2081              		@ frame_needed = 0, uses_anonymous_args = 0
 2082              		@ link register save eliminated.
 2083              	.LVL182:
 2084              		.loc 1 1112 0
 2085 0000 4831     		adds	r1, r1, #72
 2086              	.LVL183:
 2087 0002 036D     		ldr	r3, [r0, #80]
 2088 0004 4901     		lsls	r1, r1, #5
 2089 0006 5B58     		ldr	r3, [r3, r1]
 2090              	.LVL184:
 2091              		.loc 1 1113 0
 2092 0008 13F40040 		ands	r0, r3, #32768
 2093              	.LVL185:
 2094 000c 04D0     		beq	.L195
 2095              		.loc 1 1115 0
 2096 000e 13F4001F 		tst	r3, #2097152
 2097              		.loc 1 1117 0
 2098 0012 14BF     		ite	ne
 2099 0014 0120     		movne	r0, #1
 2100 0016 0220     		moveq	r0, #2
 2101              	.L195:
 2102              		.loc 1 1118 0
 2103 0018 7047     		bx	lr
 2104              		.cfi_endproc
 2105              	.LFE282:
 2106              		.size	usb_lld_get_status_in, .-usb_lld_get_status_in
 2107 001a 00BF     		.section	.text.usb_lld_read_setup,"ax",%progbits
 2108              		.align	1
 2109              		.p2align 4,,15
ARM GAS  /tmp/ccqRaZSa.s 			page 38


 2110              		.global	usb_lld_read_setup
 2111              		.syntax unified
 2112              		.thumb
 2113              		.thumb_func
 2114              		.fpu fpv4-sp-d16
 2115              		.type	usb_lld_read_setup, %function
 2116              	usb_lld_read_setup:
 2117              	.LFB283:
 2118              		.loc 1 1134 0
 2119              		.cfi_startproc
 2120              		@ args = 0, pretend = 0, frame = 0
 2121              		@ frame_needed = 0, uses_anonymous_args = 0
 2122              		@ link register save eliminated.
 2123              	.LVL186:
 2124              		.loc 1 1136 0
 2125 0000 00EB8101 		add	r1, r0, r1, lsl #2
 2126              	.LVL187:
 2127 0004 CB68     		ldr	r3, [r1, #12]
 2128 0006 1B6A     		ldr	r3, [r3, #32]
 2129 0008 1968     		ldr	r1, [r3]	@ unaligned
 2130 000a 5B68     		ldr	r3, [r3, #4]	@ unaligned
 2131 000c 5360     		str	r3, [r2, #4]	@ unaligned
 2132 000e 1160     		str	r1, [r2]	@ unaligned
 2133              		.loc 1 1137 0
 2134 0010 7047     		bx	lr
 2135              		.cfi_endproc
 2136              	.LFE283:
 2137              		.size	usb_lld_read_setup, .-usb_lld_read_setup
 2138 0012 00BF     		.section	.text.usb_lld_prepare_receive,"ax",%progbits
 2139              		.align	1
 2140              		.p2align 4,,15
 2141              		.global	usb_lld_prepare_receive
 2142              		.syntax unified
 2143              		.thumb
 2144              		.thumb_func
 2145              		.fpu fpv4-sp-d16
 2146              		.type	usb_lld_prepare_receive, %function
 2147              	usb_lld_prepare_receive:
 2148              	.LFB284:
 2149              		.loc 1 1147 0
 2150              		.cfi_startproc
 2151              		@ args = 0, pretend = 0, frame = 0
 2152              		@ frame_needed = 0, uses_anonymous_args = 0
 2153              		@ link register save eliminated.
 2154              	.LVL188:
 2155              		.loc 1 1149 0
 2156 0000 00EB8103 		add	r3, r0, r1, lsl #2
 2157              		.loc 1 1147 0
 2158 0004 70B4     		push	{r4, r5, r6}
 2159              		.cfi_def_cfa_offset 12
 2160              		.cfi_offset 4, -12
 2161              		.cfi_offset 5, -8
 2162              		.cfi_offset 6, -4
 2163              		.loc 1 1149 0
 2164 0006 DE68     		ldr	r6, [r3, #12]
 2165 0008 B569     		ldr	r5, [r6, #24]
 2166              	.LVL189:
ARM GAS  /tmp/ccqRaZSa.s 			page 39


 2167              		.loc 1 1152 0
 2168 000a 6A68     		ldr	r2, [r5, #4]
 2169 000c 2A61     		str	r2, [r5, #16]
 2170              		.loc 1 1153 0
 2171 000e 29B9     		cbnz	r1, .L204
 2172              		.loc 1 1153 0 is_stmt 0 discriminator 1
 2173 0010 402A     		cmp	r2, #64
 2174 0012 03D9     		bls	.L204
 2175              		.loc 1 1154 0 is_stmt 1
 2176 0014 4022     		movs	r2, #64
 2177 0016 094C     		ldr	r4, .L205
 2178 0018 6A60     		str	r2, [r5, #4]
 2179 001a 01E0     		b	.L201
 2180              	.L204:
 2181 001c 42F0C044 		orr	r4, r2, #1610612736
 2182              	.L201:
 2183              		.loc 1 1156 0
 2184 0020 758A     		ldrh	r5, [r6, #18]
 2185              	.LVL190:
 2186              		.loc 1 1158 0
 2187 0022 006D     		ldr	r0, [r0, #80]
 2188              	.LVL191:
 2189              		.loc 1 1156 0
 2190 0024 6B1E     		subs	r3, r5, #1
 2191              		.loc 1 1158 0
 2192 0026 00EB4111 		add	r1, r0, r1, lsl #5
 2193              	.LVL192:
 2194              		.loc 1 1156 0
 2195 002a 1344     		add	r3, r3, r2
 2196 002c B3FBF5F3 		udiv	r3, r3, r5
 2197              		.loc 1 1158 0
 2198 0030 44EAC343 		orr	r3, r4, r3, lsl #19
 2199 0034 C1F8103B 		str	r3, [r1, #2832]
 2200              		.loc 1 1161 0
 2201 0038 70BC     		pop	{r4, r5, r6}
 2202              		.cfi_restore 6
 2203              		.cfi_restore 5
 2204              		.cfi_restore 4
 2205              		.cfi_def_cfa_offset 0
 2206              	.LVL193:
 2207 003a 7047     		bx	lr
 2208              	.L206:
 2209              		.align	2
 2210              	.L205:
 2211 003c 40000060 		.word	1610612800
 2212              		.cfi_endproc
 2213              	.LFE284:
 2214              		.size	usb_lld_prepare_receive, .-usb_lld_prepare_receive
 2215              		.section	.text.otg_epout_handler.constprop.7,"ax",%progbits
 2216              		.align	1
 2217              		.p2align 4,,15
 2218              		.syntax unified
 2219              		.thumb
 2220              		.thumb_func
 2221              		.fpu fpv4-sp-d16
 2222              		.type	otg_epout_handler.constprop.7, %function
 2223              	otg_epout_handler.constprop.7:
ARM GAS  /tmp/ccqRaZSa.s 			page 40


 2224              	.LFB300:
 2225              		.loc 1 560 0
 2226              		.cfi_startproc
 2227              		@ args = 0, pretend = 0, frame = 0
 2228              		@ frame_needed = 0, uses_anonymous_args = 0
 2229              	.LVL194:
 2230 0000 2DE9F041 		push	{r4, r5, r6, r7, r8, lr}
 2231              		.cfi_def_cfa_offset 24
 2232              		.cfi_offset 4, -24
 2233              		.cfi_offset 5, -20
 2234              		.cfi_offset 6, -16
 2235              		.cfi_offset 7, -12
 2236              		.cfi_offset 8, -8
 2237              		.cfi_offset 14, -4
 2238              		.loc 1 561 0
 2239 0004 224E     		ldr	r6, .L225
 2240 0006 376D     		ldr	r7, [r6, #80]
 2241              	.LVL195:
 2242              		.loc 1 562 0
 2243 0008 07EB4013 		add	r3, r7, r0, lsl #5
 2244              		.loc 1 560 0
 2245 000c 0546     		mov	r5, r0
 2246              		.loc 1 562 0
 2247 000e D3F8084B 		ldr	r4, [r3, #2824]
 2248              	.LVL196:
 2249              		.loc 1 565 0
 2250 0012 C3F8084B 		str	r4, [r3, #2824]
 2251              		.loc 1 567 0
 2252 0016 2007     		lsls	r0, r4, #28
 2253              	.LVL197:
 2254 0018 0AD5     		bpl	.L208
 2255 001a D7F81438 		ldr	r3, [r7, #2068]
 2256 001e 1907     		lsls	r1, r3, #28
 2257 0020 06D5     		bpl	.L208
 2258              		.loc 1 570 0
 2259 0022 06EB8503 		add	r3, r6, r5, lsl #2
 2260 0026 2946     		mov	r1, r5
 2261 0028 DB68     		ldr	r3, [r3, #12]
 2262 002a 3046     		mov	r0, r6
 2263 002c 5B68     		ldr	r3, [r3, #4]
 2264 002e 9847     		blx	r3
 2265              	.LVL198:
 2266              	.L208:
 2267              		.loc 1 573 0
 2268 0030 E207     		lsls	r2, r4, #31
 2269 0032 2BD5     		bpl	.L207
 2270 0034 D7F81438 		ldr	r3, [r7, #2068]
 2271 0038 DB07     		lsls	r3, r3, #31
 2272 003a 27D5     		bpl	.L207
 2273              	.LBB642:
 2274              		.loc 1 575 0
 2275 003c 06EB8503 		add	r3, r6, r5, lsl #2
 2276 0040 D968     		ldr	r1, [r3, #12]
 2277 0042 8B69     		ldr	r3, [r1, #24]
 2278              	.LVL199:
 2279              		.loc 1 577 0
 2280 0044 5868     		ldr	r0, [r3, #4]
ARM GAS  /tmp/ccqRaZSa.s 			page 41


 2281 0046 1A69     		ldr	r2, [r3, #16]
 2282 0048 9042     		cmp	r0, r2
 2283 004a 0CD3     		bcc	.L224
 2284              		.loc 1 590 0
 2285 004c 7389     		ldrh	r3, [r6, #10]
 2286              	.LVL200:
 2287 004e CC68     		ldr	r4, [r1, #12]
 2288              	.LVL201:
 2289 0050 0F48     		ldr	r0, .L225
 2290 0052 0122     		movs	r2, #1
 2291 0054 AA40     		lsls	r2, r2, r5
 2292 0056 23EA0203 		bic	r3, r3, r2
 2293 005a 7381     		strh	r3, [r6, #10]	@ movhi
 2294 005c 2946     		mov	r1, r5
 2295              	.LVL202:
 2296 005e 2346     		mov	r3, r4
 2297              	.LBE642:
 2298              		.loc 1 593 0
 2299 0060 BDE8F041 		pop	{r4, r5, r6, r7, r8, lr}
 2300              		.cfi_remember_state
 2301              		.cfi_restore 14
 2302              		.cfi_restore 8
 2303              		.cfi_restore 7
 2304              		.cfi_restore 6
 2305              		.cfi_restore 5
 2306              		.cfi_restore 4
 2307              		.cfi_def_cfa_offset 0
 2308              	.LVL203:
 2309              	.LBB657:
 2310              		.loc 1 590 0
 2311 0064 1847     		bx	r3	@ indirect register sibling call
 2312              	.LVL204:
 2313              	.L224:
 2314              		.cfi_restore_state
 2315              		.loc 1 581 0
 2316 0066 121A     		subs	r2, r2, r0
 2317              		.loc 1 582 0
 2318 0068 0021     		movs	r1, #0
 2319 006a C3E90121 		strd	r2, r1, [r3, #4]
 2320              		.loc 1 583 0
 2321 006e 0848     		ldr	r0, .L225
 2322 0070 2946     		mov	r1, r5
 2323 0072 FFF7FEFF 		bl	usb_lld_prepare_receive
 2324              	.LVL205:
 2325              	.LBB643:
 2326              	.LBB644:
 2327              	.LBB645:
 2328              	.LBB646:
 2329              	.LBB647:
 2330              	.LBB648:
 2331              		.loc 3 342 0
 2332              		.syntax unified
 2333              	@ 342 "ChibiOS_3.0.5/os/ext/CMSIS/include/core_cmFunc.h" 1
 2334 0076 72B6     		cpsid i
 2335              	@ 0 "" 2
 2336              	.LVL206:
 2337              		.thumb
ARM GAS  /tmp/ccqRaZSa.s 			page 42


 2338              		.syntax unified
 2339 0078 336D     		ldr	r3, [r6, #80]
 2340 007a 03EB4515 		add	r5, r3, r5, lsl #5
 2341              	.LVL207:
 2342              	.LBE648:
 2343              	.LBE647:
 2344              	.LBE646:
 2345              	.LBE645:
 2346              	.LBE644:
 2347              	.LBE643:
 2348              	.LBB649:
 2349              	.LBB650:
 2350              		.loc 1 1202 0
 2351 007e D5F8003B 		ldr	r3, [r5, #2816]
 2352 0082 43F08063 		orr	r3, r3, #67108864
 2353 0086 C5F8003B 		str	r3, [r5, #2816]
 2354              	.LVL208:
 2355              	.LBE650:
 2356              	.LBE649:
 2357              	.LBB651:
 2358              	.LBB652:
 2359              	.LBB653:
 2360              	.LBB654:
 2361              	.LBB655:
 2362              	.LBB656:
 2363              		.loc 3 331 0
 2364              		.syntax unified
 2365              	@ 331 "ChibiOS_3.0.5/os/ext/CMSIS/include/core_cmFunc.h" 1
 2366 008a 62B6     		cpsie i
 2367              	@ 0 "" 2
 2368              		.thumb
 2369              		.syntax unified
 2370              	.L207:
 2371              	.LBE656:
 2372              	.LBE655:
 2373              	.LBE654:
 2374              	.LBE653:
 2375              	.LBE652:
 2376              	.LBE651:
 2377              	.LBE657:
 2378              		.loc 1 593 0
 2379 008c BDE8F081 		pop	{r4, r5, r6, r7, r8, pc}
 2380              	.LVL209:
 2381              	.L226:
 2382              		.align	2
 2383              	.L225:
 2384 0090 00000000 		.word	.LANCHOR0
 2385              		.cfi_endproc
 2386              	.LFE300:
 2387              		.size	otg_epout_handler.constprop.7, .-otg_epout_handler.constprop.7
 2388              		.section	.text.usb_lld_prepare_transmit,"ax",%progbits
 2389              		.align	1
 2390              		.p2align 4,,15
 2391              		.global	usb_lld_prepare_transmit
 2392              		.syntax unified
 2393              		.thumb
 2394              		.thumb_func
ARM GAS  /tmp/ccqRaZSa.s 			page 43


 2395              		.fpu fpv4-sp-d16
 2396              		.type	usb_lld_prepare_transmit, %function
 2397              	usb_lld_prepare_transmit:
 2398              	.LFB285:
 2399              		.loc 1 1171 0
 2400              		.cfi_startproc
 2401              		@ args = 0, pretend = 0, frame = 0
 2402              		@ frame_needed = 0, uses_anonymous_args = 0
 2403              		@ link register save eliminated.
 2404              	.LVL210:
 2405              		.loc 1 1172 0
 2406 0000 00EB8103 		add	r3, r0, r1, lsl #2
 2407              		.loc 1 1171 0
 2408 0004 10B4     		push	{r4}
 2409              		.cfi_def_cfa_offset 4
 2410              		.cfi_offset 4, -4
 2411              		.loc 1 1172 0
 2412 0006 DC68     		ldr	r4, [r3, #12]
 2413 0008 026D     		ldr	r2, [r0, #80]
 2414 000a 6069     		ldr	r0, [r4, #20]
 2415              	.LVL211:
 2416              		.loc 1 1175 0
 2417 000c 4368     		ldr	r3, [r0, #4]
 2418 000e 0361     		str	r3, [r0, #16]
 2419              		.loc 1 1176 0
 2420 0010 9BB1     		cbz	r3, .L232
 2421              	.LBB658:
 2422              		.loc 1 1181 0
 2423 0012 69B1     		cbz	r1, .L233
 2424              	.L230:
 2425              		.loc 1 1185 0
 2426 0014 208A     		ldrh	r0, [r4, #16]
 2427              	.LVL212:
 2428              	.LBE658:
 2429              		.loc 1 1190 0
 2430 0016 5DF8044B 		ldr	r4, [sp], #4
 2431              		.cfi_remember_state
 2432              		.cfi_restore 4
 2433              		.cfi_def_cfa_offset 0
 2434              	.LVL213:
 2435              	.LBB659:
 2436              		.loc 1 1187 0
 2437 001a 02EB4112 		add	r2, r2, r1, lsl #5
 2438              		.loc 1 1185 0
 2439 001e 411E     		subs	r1, r0, #1
 2440              	.LVL214:
 2441 0020 1944     		add	r1, r1, r3
 2442 0022 B1FBF0F1 		udiv	r1, r1, r0
 2443              		.loc 1 1187 0
 2444 0026 43EAC143 		orr	r3, r3, r1, lsl #19
 2445              	.LVL215:
 2446 002a C2F81039 		str	r3, [r2, #2320]
 2447              	.LBE659:
 2448              		.loc 1 1190 0
 2449 002e 7047     		bx	lr
 2450              	.LVL216:
 2451              	.L233:
ARM GAS  /tmp/ccqRaZSa.s 			page 44


 2452              		.cfi_restore_state
 2453              	.LBB660:
 2454              		.loc 1 1181 0 discriminator 1
 2455 0030 402B     		cmp	r3, #64
 2456              		.loc 1 1182 0 discriminator 1
 2457 0032 84BF     		itt	hi
 2458 0034 4023     		movhi	r3, #64
 2459 0036 4360     		strhi	r3, [r0, #4]
 2460 0038 ECE7     		b	.L230
 2461              	.L232:
 2462              	.LBE660:
 2463              		.loc 1 1178 0
 2464 003a 02EB4112 		add	r2, r2, r1, lsl #5
 2465 003e 4FF40023 		mov	r3, #524288
 2466 0042 C2F81039 		str	r3, [r2, #2320]
 2467              		.loc 1 1190 0
 2468 0046 5DF8044B 		ldr	r4, [sp], #4
 2469              		.cfi_restore 4
 2470              		.cfi_def_cfa_offset 0
 2471 004a 7047     		bx	lr
 2472              		.cfi_endproc
 2473              	.LFE285:
 2474              		.size	usb_lld_prepare_transmit, .-usb_lld_prepare_transmit
 2475              		.section	.text.otg_epin_handler.constprop.8,"ax",%progbits
 2476              		.align	1
 2477              		.p2align 4,,15
 2478              		.syntax unified
 2479              		.thumb
 2480              		.thumb_func
 2481              		.fpu fpv4-sp-d16
 2482              		.type	otg_epin_handler.constprop.8, %function
 2483              	otg_epin_handler.constprop.8:
 2484              	.LFB299:
 2485              		.loc 1 512 0
 2486              		.cfi_startproc
 2487              		@ args = 0, pretend = 0, frame = 0
 2488              		@ frame_needed = 0, uses_anonymous_args = 0
 2489              	.LVL217:
 2490 0000 2DE9F041 		push	{r4, r5, r6, r7, r8, lr}
 2491              		.cfi_def_cfa_offset 24
 2492              		.cfi_offset 4, -24
 2493              		.cfi_offset 5, -20
 2494              		.cfi_offset 6, -16
 2495              		.cfi_offset 7, -12
 2496              		.cfi_offset 8, -8
 2497              		.cfi_offset 14, -4
 2498              		.loc 1 513 0
 2499 0004 2C4E     		ldr	r6, .L253
 2500 0006 356D     		ldr	r5, [r6, #80]
 2501              	.LVL218:
 2502              		.loc 1 514 0
 2503 0008 05EB4013 		add	r3, r5, r0, lsl #5
 2504              		.loc 1 512 0
 2505 000c 0746     		mov	r7, r0
 2506              		.loc 1 514 0
 2507 000e D3F80849 		ldr	r4, [r3, #2312]
 2508              	.LVL219:
ARM GAS  /tmp/ccqRaZSa.s 			page 45


 2509              		.loc 1 516 0
 2510 0012 C3F80849 		str	r4, [r3, #2312]
 2511              		.loc 1 521 0
 2512 0016 E107     		lsls	r1, r4, #31
 2513 0018 16D5     		bpl	.L235
 2514 001a D5F81038 		ldr	r3, [r5, #2064]
 2515 001e DA07     		lsls	r2, r3, #31
 2516 0020 12D5     		bpl	.L235
 2517              	.LBB661:
 2518              		.loc 1 523 0
 2519 0022 06EB8003 		add	r3, r6, r0, lsl #2
 2520 0026 D968     		ldr	r1, [r3, #12]
 2521 0028 4B69     		ldr	r3, [r1, #20]
 2522              	.LVL220:
 2523              		.loc 1 525 0
 2524 002a 5868     		ldr	r0, [r3, #4]
 2525              	.LVL221:
 2526 002c 1A69     		ldr	r2, [r3, #16]
 2527 002e 9042     		cmp	r0, r2
 2528 0030 26D3     		bcc	.L251
 2529              		.loc 1 538 0
 2530 0032 3389     		ldrh	r3, [r6, #8]
 2531              	.LVL222:
 2532 0034 D1F80880 		ldr	r8, [r1, #8]
 2533 0038 0122     		movs	r2, #1
 2534 003a BA40     		lsls	r2, r2, r7
 2535 003c 23EA0203 		bic	r3, r3, r2
 2536 0040 3381     		strh	r3, [r6, #8]	@ movhi
 2537 0042 3946     		mov	r1, r7
 2538              	.LVL223:
 2539 0044 3046     		mov	r0, r6
 2540 0046 C047     		blx	r8
 2541              	.LVL224:
 2542              	.L235:
 2543              	.LBE661:
 2544              		.loc 1 541 0
 2545 0048 2306     		lsls	r3, r4, #24
 2546 004a 06D5     		bpl	.L234
 2547              		.loc 1 542 0
 2548 004c 0123     		movs	r3, #1
 2549 004e D5F83428 		ldr	r2, [r5, #2100]
 2550 0052 03FA07F7 		lsl	r7, r3, r7
 2551              		.loc 1 541 0
 2552 0056 1742     		tst	r7, r2
 2553 0058 01D1     		bne	.L252
 2554              	.L234:
 2555              		.loc 1 550 0
 2556 005a BDE8F081 		pop	{r4, r5, r6, r7, r8, pc}
 2557              	.LVL225:
 2558              	.L252:
 2559              	.LBB676:
 2560              	.LBB677:
 2561              	.LBB678:
 2562              	.LBB679:
 2563              	.LBB680:
 2564              	.LBB681:
 2565              		.loc 3 342 0
ARM GAS  /tmp/ccqRaZSa.s 			page 46


 2566              		.syntax unified
 2567              	@ 342 "ChibiOS_3.0.5/os/ext/CMSIS/include/core_cmFunc.h" 1
 2568 005e 72B6     		cpsid i
 2569              	@ 0 "" 2
 2570              		.thumb
 2571              		.syntax unified
 2572              	.LBE681:
 2573              	.LBE680:
 2574              	.LBE679:
 2575              	.LBE678:
 2576              	.LBE677:
 2577              	.LBE676:
 2578              		.loc 1 546 0
 2579 0060 D5F83428 		ldr	r2, [r5, #2100]
 2580              		.loc 1 545 0
 2581 0064 F36D     		ldr	r3, [r6, #92]
 2582              	.LBB682:
 2583              	.LBB683:
 2584              		.loc 4 728 0
 2585 0066 1548     		ldr	r0, .L253+4
 2586              	.LBE683:
 2587              	.LBE682:
 2588              		.loc 1 546 0
 2589 0068 22EA0702 		bic	r2, r2, r7
 2590 006c C5F83428 		str	r2, [r5, #2100]
 2591              	.LVL226:
 2592              		.loc 1 545 0
 2593 0070 1F43     		orrs	r7, r7, r3
 2594              	.LBB686:
 2595              	.LBB684:
 2596              		.loc 4 728 0
 2597 0072 0021     		movs	r1, #0
 2598              	.LBE684:
 2599              	.LBE686:
 2600              		.loc 1 545 0
 2601 0074 F765     		str	r7, [r6, #92]
 2602              	.LBB687:
 2603              	.LBB685:
 2604              		.loc 4 728 0
 2605 0076 FFF7FEFF 		bl	chThdResumeI
 2606              	.LVL227:
 2607              	.LBE685:
 2608              	.LBE687:
 2609              	.LBB688:
 2610              	.LBB689:
 2611              	.LBB690:
 2612              	.LBB691:
 2613              	.LBB692:
 2614              	.LBB693:
 2615              		.loc 3 331 0
 2616              		.syntax unified
 2617              	@ 331 "ChibiOS_3.0.5/os/ext/CMSIS/include/core_cmFunc.h" 1
 2618 007a 62B6     		cpsie i
 2619              	@ 0 "" 2
 2620              		.thumb
 2621              		.syntax unified
 2622              	.LBE693:
ARM GAS  /tmp/ccqRaZSa.s 			page 47


 2623              	.LBE692:
 2624              	.LBE691:
 2625              	.LBE690:
 2626              	.LBE689:
 2627              	.LBE688:
 2628              		.loc 1 550 0
 2629 007c BDE8F081 		pop	{r4, r5, r6, r7, r8, pc}
 2630              	.LVL228:
 2631              	.L251:
 2632              	.LBB694:
 2633              		.loc 1 529 0
 2634 0080 121A     		subs	r2, r2, r0
 2635              		.loc 1 530 0
 2636 0082 0021     		movs	r1, #0
 2637 0084 C3E90121 		strd	r2, r1, [r3, #4]
 2638              		.loc 1 531 0
 2639 0088 3046     		mov	r0, r6
 2640 008a 3946     		mov	r1, r7
 2641 008c FFF7FEFF 		bl	usb_lld_prepare_transmit
 2642              	.LVL229:
 2643              	.LBB662:
 2644              	.LBB663:
 2645              	.LBB664:
 2646              	.LBB665:
 2647              	.LBB666:
 2648              	.LBB667:
 2649              		.loc 3 342 0
 2650              		.syntax unified
 2651              	@ 342 "ChibiOS_3.0.5/os/ext/CMSIS/include/core_cmFunc.h" 1
 2652 0090 72B6     		cpsid i
 2653              	@ 0 "" 2
 2654              	.LVL230:
 2655              		.thumb
 2656              		.syntax unified
 2657              	.LBE667:
 2658              	.LBE666:
 2659              	.LBE665:
 2660              	.LBE664:
 2661              	.LBE663:
 2662              	.LBE662:
 2663              	.LBB668:
 2664              	.LBB669:
 2665              		.loc 1 1215 0
 2666 0092 326D     		ldr	r2, [r6, #80]
 2667 0094 02EB4710 		add	r0, r2, r7, lsl #5
 2668              		.loc 1 1216 0
 2669 0098 0123     		movs	r3, #1
 2670              		.loc 1 1215 0
 2671 009a D0F80019 		ldr	r1, [r0, #2304]
 2672 009e 41F00441 		orr	r1, r1, #-2080374784
 2673 00a2 C0F80019 		str	r1, [r0, #2304]
 2674              		.loc 1 1216 0
 2675 00a6 D2F83418 		ldr	r1, [r2, #2100]
 2676 00aa BB40     		lsls	r3, r3, r7
 2677 00ac 0B43     		orrs	r3, r3, r1
 2678 00ae C2F83438 		str	r3, [r2, #2100]
 2679              	.LVL231:
ARM GAS  /tmp/ccqRaZSa.s 			page 48


 2680              	.LBE669:
 2681              	.LBE668:
 2682              	.LBB670:
 2683              	.LBB671:
 2684              	.LBB672:
 2685              	.LBB673:
 2686              	.LBB674:
 2687              	.LBB675:
 2688              		.loc 3 331 0
 2689              		.syntax unified
 2690              	@ 331 "ChibiOS_3.0.5/os/ext/CMSIS/include/core_cmFunc.h" 1
 2691 00b2 62B6     		cpsie i
 2692              	@ 0 "" 2
 2693              		.thumb
 2694              		.syntax unified
 2695 00b4 C8E7     		b	.L235
 2696              	.L254:
 2697 00b6 00BF     		.align	2
 2698              	.L253:
 2699 00b8 00000000 		.word	.LANCHOR0
 2700 00bc 60000000 		.word	.LANCHOR0+96
 2701              	.LBE675:
 2702              	.LBE674:
 2703              	.LBE673:
 2704              	.LBE672:
 2705              	.LBE671:
 2706              	.LBE670:
 2707              	.LBE694:
 2708              		.cfi_endproc
 2709              	.LFE299:
 2710              		.size	otg_epin_handler.constprop.8, .-otg_epin_handler.constprop.8
 2711              		.section	.text.Vector14C,"ax",%progbits
 2712              		.align	1
 2713              		.p2align 4,,15
 2714              		.global	Vector14C
 2715              		.syntax unified
 2716              		.thumb
 2717              		.thumb_func
 2718              		.fpu fpv4-sp-d16
 2719              		.type	Vector14C, %function
 2720              	Vector14C:
 2721              	.LFB273:
 2722              		.loc 1 691 0
 2723              		.cfi_startproc
 2724              		@ args = 0, pretend = 0, frame = 0
 2725              		@ frame_needed = 0, uses_anonymous_args = 0
 2726              	.LVL232:
 2727 0000 70B5     		push	{r4, r5, r6, lr}
 2728              		.cfi_def_cfa_offset 16
 2729              		.cfi_offset 4, -16
 2730              		.cfi_offset 5, -12
 2731              		.cfi_offset 6, -8
 2732              		.cfi_offset 14, -4
 2733              	.LBB711:
 2734              	.LBB712:
 2735              		.loc 1 603 0
 2736 0002 3A4E     		ldr	r6, .L324
ARM GAS  /tmp/ccqRaZSa.s 			page 49


 2737 0004 356D     		ldr	r5, [r6, #80]
 2738              	.LVL233:
 2739              		.loc 1 606 0
 2740 0006 6C69     		ldr	r4, [r5, #20]
 2741              	.LVL234:
 2742              		.loc 1 607 0
 2743 0008 AB69     		ldr	r3, [r5, #24]
 2744 000a 1C40     		ands	r4, r4, r3
 2745              	.LVL235:
 2746              		.loc 1 611 0
 2747 000c E104     		lsls	r1, r4, #19
 2748              		.loc 1 608 0
 2749 000e 6C61     		str	r4, [r5, #20]
 2750              		.loc 1 611 0
 2751 0010 35D4     		bmi	.L312
 2752              		.loc 1 623 0
 2753 0012 A204     		lsls	r2, r4, #18
 2754              		.loc 1 624 0
 2755 0014 48BF     		it	mi
 2756 0016 D5F80838 		ldrmi	r3, [r5, #2056]
 2757              		.loc 1 628 0
 2758 001a 2307     		lsls	r3, r4, #28
 2759 001c 04D5     		bpl	.L260
 2760              		.loc 1 629 0
 2761 001e 7368     		ldr	r3, [r6, #4]
 2762 0020 DB68     		ldr	r3, [r3, #12]
 2763 0022 0BB1     		cbz	r3, .L260
 2764 0024 3148     		ldr	r0, .L324
 2765 0026 9847     		blx	r3
 2766              	.LVL236:
 2767              	.L260:
 2768              		.loc 1 633 0
 2769 0028 E606     		lsls	r6, r4, #27
 2770 002a 19D4     		bmi	.L313
 2771              		.loc 1 644 0
 2772 002c 6003     		lsls	r0, r4, #13
 2773              		.loc 1 643 0
 2774 002e D5F81858 		ldr	r5, [r5, #2072]
 2775              	.LVL237:
 2776              		.loc 1 644 0
 2777 0032 07D5     		bpl	.L263
 2778              	.L322:
 2779              		.loc 1 645 0
 2780 0034 E907     		lsls	r1, r5, #31
 2781 0036 54D4     		bmi	.L314
 2782              	.L264:
 2783              		.loc 1 647 0
 2784 0038 AA07     		lsls	r2, r5, #30
 2785 003a 4ED4     		bmi	.L315
 2786              	.L265:
 2787              		.loc 1 649 0
 2788 003c 6B07     		lsls	r3, r5, #29
 2789 003e 48D4     		bmi	.L316
 2790              	.L266:
 2791              		.loc 1 651 0
 2792 0040 2E07     		lsls	r6, r5, #28
 2793 0042 33D4     		bmi	.L317
ARM GAS  /tmp/ccqRaZSa.s 			page 50


 2794              	.L263:
 2795              		.loc 1 660 0
 2796 0044 2403     		lsls	r4, r4, #12
 2797              	.LVL238:
 2798 0046 07D5     		bpl	.L258
 2799              	.L323:
 2800              		.loc 1 661 0
 2801 0048 E803     		lsls	r0, r5, #15
 2802 004a 3ED4     		bmi	.L318
 2803              	.L269:
 2804              		.loc 1 663 0
 2805 004c A903     		lsls	r1, r5, #14
 2806 004e 33D4     		bmi	.L319
 2807              		.loc 1 665 0
 2808 0050 6A03     		lsls	r2, r5, #13
 2809 0052 36D4     		bmi	.L320
 2810              	.L271:
 2811              		.loc 1 667 0
 2812 0054 2B03     		lsls	r3, r5, #12
 2813 0056 22D4     		bmi	.L321
 2814              	.LVL239:
 2815              	.L258:
 2816              	.LBE712:
 2817              	.LBE711:
 2818              		.loc 1 698 0
 2819 0058 BDE87040 		pop	{r4, r5, r6, lr}
 2820              		.cfi_remember_state
 2821              		.cfi_restore 14
 2822              		.cfi_restore 6
 2823              		.cfi_restore 5
 2824              		.cfi_restore 4
 2825              		.cfi_def_cfa_offset 0
 2826              		.loc 1 697 0
 2827 005c FFF7FEBF 		b	_port_irq_epilogue
 2828              	.LVL240:
 2829              	.L313:
 2830              		.cfi_restore_state
 2831              	.LBB732:
 2832              	.LBB729:
 2833              	.LBB713:
 2834              	.LBB714:
 2835              	.LBB715:
 2836              	.LBB716:
 2837              	.LBB717:
 2838              	.LBB718:
 2839              		.loc 3 342 0
 2840              		.syntax unified
 2841              	@ 342 "ChibiOS_3.0.5/os/ext/CMSIS/include/core_cmFunc.h" 1
 2842 0060 72B6     		cpsid i
 2843              	@ 0 "" 2
 2844              		.thumb
 2845              		.syntax unified
 2846              	.LBE718:
 2847              	.LBE717:
 2848              	.LBE716:
 2849              	.LBE715:
 2850              	.LBE714:
ARM GAS  /tmp/ccqRaZSa.s 			page 51


 2851              	.LBE713:
 2852              		.loc 1 637 0
 2853 0062 AB69     		ldr	r3, [r5, #24]
 2854              	.LBB719:
 2855              	.LBB720:
 2856              		.loc 4 728 0
 2857 0064 2248     		ldr	r0, .L324+4
 2858              	.LBE720:
 2859              	.LBE719:
 2860              		.loc 1 637 0
 2861 0066 23F01003 		bic	r3, r3, #16
 2862 006a AB61     		str	r3, [r5, #24]
 2863              	.LVL241:
 2864              	.LBB722:
 2865              	.LBB721:
 2866              		.loc 4 728 0
 2867 006c 0021     		movs	r1, #0
 2868 006e FFF7FEFF 		bl	chThdResumeI
 2869              	.LVL242:
 2870              	.LBE721:
 2871              	.LBE722:
 2872              	.LBB723:
 2873              	.LBB724:
 2874              	.LBB725:
 2875              	.LBB726:
 2876              	.LBB727:
 2877              	.LBB728:
 2878              		.loc 3 331 0
 2879              		.syntax unified
 2880              	@ 331 "ChibiOS_3.0.5/os/ext/CMSIS/include/core_cmFunc.h" 1
 2881 0072 62B6     		cpsie i
 2882              	@ 0 "" 2
 2883              		.thumb
 2884              		.syntax unified
 2885              	.LBE728:
 2886              	.LBE727:
 2887              	.LBE726:
 2888              	.LBE725:
 2889              	.LBE724:
 2890              	.LBE723:
 2891              		.loc 1 644 0
 2892 0074 6003     		lsls	r0, r4, #13
 2893              		.loc 1 643 0
 2894 0076 D5F81858 		ldr	r5, [r5, #2072]
 2895              	.LVL243:
 2896              		.loc 1 644 0
 2897 007a E3D5     		bpl	.L263
 2898 007c DAE7     		b	.L322
 2899              	.LVL244:
 2900              	.L312:
 2901              		.loc 1 614 0
 2902 007e 0024     		movs	r4, #0
 2903              	.LVL245:
 2904              		.loc 1 617 0
 2905 0080 3046     		mov	r0, r6
 2906              		.loc 1 614 0
 2907 0082 F465     		str	r4, [r6, #92]
ARM GAS  /tmp/ccqRaZSa.s 			page 52


 2908              		.loc 1 617 0
 2909 0084 FFF7FEFF 		bl	_usb_reset
 2910              	.LVL246:
 2911              		.loc 1 618 0
 2912 0088 7368     		ldr	r3, [r6, #4]
 2913 008a 1B68     		ldr	r3, [r3]
 2914 008c 002B     		cmp	r3, #0
 2915 008e E3D0     		beq	.L258
 2916 0090 2146     		mov	r1, r4
 2917 0092 3046     		mov	r0, r6
 2918 0094 9847     		blx	r3
 2919              	.LVL247:
 2920              	.LBE729:
 2921              	.LBE732:
 2922              		.loc 1 698 0
 2923 0096 BDE87040 		pop	{r4, r5, r6, lr}
 2924              		.cfi_remember_state
 2925              		.cfi_restore 14
 2926              		.cfi_restore 6
 2927              		.cfi_restore 5
 2928              		.cfi_restore 4
 2929              		.cfi_def_cfa_offset 0
 2930              		.loc 1 697 0
 2931 009a FFF7FEBF 		b	_port_irq_epilogue
 2932              	.LVL248:
 2933              	.L321:
 2934              		.cfi_restore_state
 2935              	.LBB733:
 2936              	.LBB730:
 2937              		.loc 1 668 0
 2938 009e 0320     		movs	r0, #3
 2939 00a0 FFF7FEFF 		bl	otg_epout_handler.constprop.7
 2940              	.LVL249:
 2941              	.LBE730:
 2942              	.LBE733:
 2943              		.loc 1 698 0
 2944 00a4 BDE87040 		pop	{r4, r5, r6, lr}
 2945              		.cfi_remember_state
 2946              		.cfi_restore 14
 2947              		.cfi_restore 6
 2948              		.cfi_restore 5
 2949              		.cfi_restore 4
 2950              		.cfi_def_cfa_offset 0
 2951              		.loc 1 697 0
 2952 00a8 FFF7FEBF 		b	_port_irq_epilogue
 2953              	.LVL250:
 2954              	.L317:
 2955              		.cfi_restore_state
 2956              	.LBB734:
 2957              	.LBB731:
 2958              		.loc 1 652 0
 2959 00ac 0320     		movs	r0, #3
 2960 00ae FFF7FEFF 		bl	otg_epin_handler.constprop.8
 2961              	.LVL251:
 2962              		.loc 1 660 0
 2963 00b2 2403     		lsls	r4, r4, #12
 2964              	.LVL252:
ARM GAS  /tmp/ccqRaZSa.s 			page 53


 2965 00b4 D0D5     		bpl	.L258
 2966 00b6 C7E7     		b	.L323
 2967              	.L319:
 2968              		.loc 1 664 0
 2969 00b8 0120     		movs	r0, #1
 2970 00ba FFF7FEFF 		bl	otg_epout_handler.constprop.7
 2971              	.LVL253:
 2972              		.loc 1 665 0
 2973 00be 6A03     		lsls	r2, r5, #13
 2974 00c0 C8D5     		bpl	.L271
 2975              	.L320:
 2976              		.loc 1 666 0
 2977 00c2 0220     		movs	r0, #2
 2978 00c4 FFF7FEFF 		bl	otg_epout_handler.constprop.7
 2979              	.LVL254:
 2980 00c8 C4E7     		b	.L271
 2981              	.L318:
 2982              		.loc 1 662 0
 2983 00ca 0020     		movs	r0, #0
 2984 00cc FFF7FEFF 		bl	otg_epout_handler.constprop.7
 2985              	.LVL255:
 2986 00d0 BCE7     		b	.L269
 2987              	.LVL256:
 2988              	.L316:
 2989              		.loc 1 650 0
 2990 00d2 0220     		movs	r0, #2
 2991 00d4 FFF7FEFF 		bl	otg_epin_handler.constprop.8
 2992              	.LVL257:
 2993 00d8 B2E7     		b	.L266
 2994              	.L315:
 2995              		.loc 1 648 0
 2996 00da 0120     		movs	r0, #1
 2997 00dc FFF7FEFF 		bl	otg_epin_handler.constprop.8
 2998              	.LVL258:
 2999 00e0 ACE7     		b	.L265
 3000              	.L314:
 3001              		.loc 1 646 0
 3002 00e2 0020     		movs	r0, #0
 3003 00e4 FFF7FEFF 		bl	otg_epin_handler.constprop.8
 3004              	.LVL259:
 3005 00e8 A6E7     		b	.L264
 3006              	.L325:
 3007 00ea 00BF     		.align	2
 3008              	.L324:
 3009 00ec 00000000 		.word	.LANCHOR0
 3010 00f0 60000000 		.word	.LANCHOR0+96
 3011              	.LBE731:
 3012              	.LBE734:
 3013              		.cfi_endproc
 3014              	.LFE273:
 3015              		.size	Vector14C, .-Vector14C
 3016              		.section	.text.usb_lld_start_out,"ax",%progbits
 3017              		.align	1
 3018              		.p2align 4,,15
 3019              		.global	usb_lld_start_out
 3020              		.syntax unified
 3021              		.thumb
ARM GAS  /tmp/ccqRaZSa.s 			page 54


 3022              		.thumb_func
 3023              		.fpu fpv4-sp-d16
 3024              		.type	usb_lld_start_out, %function
 3025              	usb_lld_start_out:
 3026              	.LFB286:
 3027              		.loc 1 1200 0
 3028              		.cfi_startproc
 3029              		@ args = 0, pretend = 0, frame = 0
 3030              		@ frame_needed = 0, uses_anonymous_args = 0
 3031              		@ link register save eliminated.
 3032              	.LVL260:
 3033 0000 036D     		ldr	r3, [r0, #80]
 3034 0002 03EB4111 		add	r1, r3, r1, lsl #5
 3035              	.LVL261:
 3036              		.loc 1 1202 0
 3037 0006 D1F8003B 		ldr	r3, [r1, #2816]
 3038 000a 43F08063 		orr	r3, r3, #67108864
 3039 000e C1F8003B 		str	r3, [r1, #2816]
 3040              		.loc 1 1203 0
 3041 0012 7047     		bx	lr
 3042              		.cfi_endproc
 3043              	.LFE286:
 3044              		.size	usb_lld_start_out, .-usb_lld_start_out
 3045              		.section	.text.usb_lld_start_in,"ax",%progbits
 3046              		.align	1
 3047              		.p2align 4,,15
 3048              		.global	usb_lld_start_in
 3049              		.syntax unified
 3050              		.thumb
 3051              		.thumb_func
 3052              		.fpu fpv4-sp-d16
 3053              		.type	usb_lld_start_in, %function
 3054              	usb_lld_start_in:
 3055              	.LFB287:
 3056              		.loc 1 1213 0
 3057              		.cfi_startproc
 3058              		@ args = 0, pretend = 0, frame = 0
 3059              		@ frame_needed = 0, uses_anonymous_args = 0
 3060              		@ link register save eliminated.
 3061              	.LVL262:
 3062              		.loc 1 1215 0
 3063 0000 026D     		ldr	r2, [r0, #80]
 3064              		.loc 1 1213 0
 3065 0002 10B4     		push	{r4}
 3066              		.cfi_def_cfa_offset 4
 3067              		.cfi_offset 4, -4
 3068 0004 02EB4114 		add	r4, r2, r1, lsl #5
 3069              		.loc 1 1216 0
 3070 0008 0123     		movs	r3, #1
 3071              		.loc 1 1215 0
 3072 000a D4F80009 		ldr	r0, [r4, #2304]
 3073              	.LVL263:
 3074 000e 40F00440 		orr	r0, r0, #-2080374784
 3075 0012 C4F80009 		str	r0, [r4, #2304]
 3076              		.loc 1 1216 0
 3077 0016 D2F83408 		ldr	r0, [r2, #2100]
 3078              		.loc 1 1217 0
ARM GAS  /tmp/ccqRaZSa.s 			page 55


 3079 001a 5DF8044B 		ldr	r4, [sp], #4
 3080              		.cfi_restore 4
 3081              		.cfi_def_cfa_offset 0
 3082              		.loc 1 1216 0
 3083 001e 03FA01F1 		lsl	r1, r3, r1
 3084              	.LVL264:
 3085 0022 0143     		orrs	r1, r1, r0
 3086 0024 C2F83418 		str	r1, [r2, #2100]
 3087              		.loc 1 1217 0
 3088 0028 7047     		bx	lr
 3089              		.cfi_endproc
 3090              	.LFE287:
 3091              		.size	usb_lld_start_in, .-usb_lld_start_in
 3092 002a 00BF     		.section	.text.usb_lld_stall_out,"ax",%progbits
 3093              		.align	1
 3094              		.p2align 4,,15
 3095              		.global	usb_lld_stall_out
 3096              		.syntax unified
 3097              		.thumb
 3098              		.thumb_func
 3099              		.fpu fpv4-sp-d16
 3100              		.type	usb_lld_stall_out, %function
 3101              	usb_lld_stall_out:
 3102              	.LFB288:
 3103              		.loc 1 1227 0
 3104              		.cfi_startproc
 3105              		@ args = 0, pretend = 0, frame = 0
 3106              		@ frame_needed = 0, uses_anonymous_args = 0
 3107              		@ link register save eliminated.
 3108              	.LVL265:
 3109 0000 036D     		ldr	r3, [r0, #80]
 3110 0002 03EB4111 		add	r1, r3, r1, lsl #5
 3111              	.LVL266:
 3112              		.loc 1 1229 0
 3113 0006 D1F8003B 		ldr	r3, [r1, #2816]
 3114 000a 43F40013 		orr	r3, r3, #2097152
 3115 000e C1F8003B 		str	r3, [r1, #2816]
 3116              		.loc 1 1230 0
 3117 0012 7047     		bx	lr
 3118              		.cfi_endproc
 3119              	.LFE288:
 3120              		.size	usb_lld_stall_out, .-usb_lld_stall_out
 3121              		.section	.text.usb_lld_stall_in,"ax",%progbits
 3122              		.align	1
 3123              		.p2align 4,,15
 3124              		.global	usb_lld_stall_in
 3125              		.syntax unified
 3126              		.thumb
 3127              		.thumb_func
 3128              		.fpu fpv4-sp-d16
 3129              		.type	usb_lld_stall_in, %function
 3130              	usb_lld_stall_in:
 3131              	.LFB289:
 3132              		.loc 1 1240 0
 3133              		.cfi_startproc
 3134              		@ args = 0, pretend = 0, frame = 0
 3135              		@ frame_needed = 0, uses_anonymous_args = 0
ARM GAS  /tmp/ccqRaZSa.s 			page 56


 3136              		@ link register save eliminated.
 3137              	.LVL267:
 3138 0000 036D     		ldr	r3, [r0, #80]
 3139 0002 03EB4111 		add	r1, r3, r1, lsl #5
 3140              	.LVL268:
 3141              		.loc 1 1242 0
 3142 0006 D1F80039 		ldr	r3, [r1, #2304]
 3143 000a 43F40013 		orr	r3, r3, #2097152
 3144 000e C1F80039 		str	r3, [r1, #2304]
 3145              		.loc 1 1243 0
 3146 0012 7047     		bx	lr
 3147              		.cfi_endproc
 3148              	.LFE289:
 3149              		.size	usb_lld_stall_in, .-usb_lld_stall_in
 3150              		.section	.text.usb_lld_clear_out,"ax",%progbits
 3151              		.align	1
 3152              		.p2align 4,,15
 3153              		.global	usb_lld_clear_out
 3154              		.syntax unified
 3155              		.thumb
 3156              		.thumb_func
 3157              		.fpu fpv4-sp-d16
 3158              		.type	usb_lld_clear_out, %function
 3159              	usb_lld_clear_out:
 3160              	.LFB290:
 3161              		.loc 1 1253 0
 3162              		.cfi_startproc
 3163              		@ args = 0, pretend = 0, frame = 0
 3164              		@ frame_needed = 0, uses_anonymous_args = 0
 3165              		@ link register save eliminated.
 3166              	.LVL269:
 3167 0000 036D     		ldr	r3, [r0, #80]
 3168 0002 03EB4111 		add	r1, r3, r1, lsl #5
 3169              	.LVL270:
 3170              		.loc 1 1255 0
 3171 0006 D1F8003B 		ldr	r3, [r1, #2816]
 3172 000a 23F40013 		bic	r3, r3, #2097152
 3173 000e C1F8003B 		str	r3, [r1, #2816]
 3174              		.loc 1 1256 0
 3175 0012 7047     		bx	lr
 3176              		.cfi_endproc
 3177              	.LFE290:
 3178              		.size	usb_lld_clear_out, .-usb_lld_clear_out
 3179              		.section	.text.usb_lld_clear_in,"ax",%progbits
 3180              		.align	1
 3181              		.p2align 4,,15
 3182              		.global	usb_lld_clear_in
 3183              		.syntax unified
 3184              		.thumb
 3185              		.thumb_func
 3186              		.fpu fpv4-sp-d16
 3187              		.type	usb_lld_clear_in, %function
 3188              	usb_lld_clear_in:
 3189              	.LFB291:
 3190              		.loc 1 1266 0
 3191              		.cfi_startproc
 3192              		@ args = 0, pretend = 0, frame = 0
ARM GAS  /tmp/ccqRaZSa.s 			page 57


 3193              		@ frame_needed = 0, uses_anonymous_args = 0
 3194              		@ link register save eliminated.
 3195              	.LVL271:
 3196 0000 036D     		ldr	r3, [r0, #80]
 3197 0002 03EB4111 		add	r1, r3, r1, lsl #5
 3198              	.LVL272:
 3199              		.loc 1 1268 0
 3200 0006 D1F80039 		ldr	r3, [r1, #2304]
 3201 000a 23F40013 		bic	r3, r3, #2097152
 3202 000e C1F80039 		str	r3, [r1, #2304]
 3203              		.loc 1 1269 0
 3204 0012 7047     		bx	lr
 3205              		.cfi_endproc
 3206              	.LFE291:
 3207              		.size	usb_lld_clear_in, .-usb_lld_clear_in
 3208              		.global	USBD1
 3209              		.section	.bss.USBD1,"aw",%nobits
 3210              		.align	3
 3211              		.set	.LANCHOR0,. + 0
 3212              		.type	USBD1, %object
 3213              		.size	USBD1, 648
 3214              	USBD1:
 3215 0000 00000000 		.space	648
 3215      00000000 
 3215      00000000 
 3215      00000000 
 3215      00000000 
 3216              		.section	.bss.ep0_state,"aw",%nobits
 3217              		.align	2
 3218              		.type	ep0_state, %object
 3219              		.size	ep0_state, 20
 3220              	ep0_state:
 3221 0000 00000000 		.space	20
 3221      00000000 
 3221      00000000 
 3221      00000000 
 3221      00000000 
 3222              		.section	.bss.ep0setup_buffer,"aw",%nobits
 3223              		.align	2
 3224              		.type	ep0setup_buffer, %object
 3225              		.size	ep0setup_buffer, 8
 3226              	ep0setup_buffer:
 3227 0000 00000000 		.space	8
 3227      00000000 
 3228              		.section	.rodata.ep0config,"a",%progbits
 3229              		.align	2
 3230              		.set	.LANCHOR2,. + 0
 3231              		.type	ep0config, %object
 3232              		.size	ep0config, 36
 3233              	ep0config:
 3234 0000 00000000 		.word	0
 3235 0004 00000000 		.word	_usb_ep0setup
 3236 0008 00000000 		.word	_usb_ep0in
 3237 000c 00000000 		.word	_usb_ep0out
 3238 0010 4000     		.short	64
 3239 0012 4000     		.short	64
 3240 0014 00000000 		.word	ep0_state
ARM GAS  /tmp/ccqRaZSa.s 			page 58


 3241 0018 00000000 		.word	ep0_state
 3242 001c 0100     		.short	1
 3243 001e 0000     		.space	2
 3244 0020 00000000 		.word	ep0setup_buffer
 3245              		.section	.rodata.fsparams,"a",%progbits
 3246              		.align	2
 3247              		.set	.LANCHOR1,. + 0
 3248              		.type	fsparams, %object
 3249              		.size	fsparams, 12
 3250              	fsparams:
 3251 0000 00010000 		.word	256
 3252 0004 40010000 		.word	320
 3253 0008 03000000 		.word	3
 3254              		.section	.rodata.usb_lld_pump.str1.4,"aMS",%progbits,1
 3255              		.align	2
 3256              	.LC0:
 3257 0000 7573625F 		.ascii	"usb_lld_pump\000"
 3257      6C6C645F 
 3257      70756D70 
 3257      00
 3258              		.text
 3259              	.Letext0:
 3260              		.file 6 "/usr/lib/gcc/arm-none-eabi/7.3.1/include/stddef.h"
 3261              		.file 7 "/usr/arm-none-eabi/include/machine/_default_types.h"
 3262              		.file 8 "/usr/arm-none-eabi/include/sys/lock.h"
 3263              		.file 9 "/usr/arm-none-eabi/include/sys/_types.h"
 3264              		.file 10 "/usr/arm-none-eabi/include/sys/reent.h"
 3265              		.file 11 "/usr/arm-none-eabi/include/sys/_stdint.h"
 3266              		.file 12 "ChibiOS_3.0.5/os/rt/ports/ARMCMx/compilers/GCC/chtypes.h"
 3267              		.file 13 "ChibiOS_3.0.5/os/rt/include/chsystypes.h"
 3268              		.file 14 "ChibiOS_3.0.5/os/rt/include/chschd.h"
 3269              		.file 15 "ChibiOS_3.0.5/os/ext/CMSIS/include/core_cm4.h"
 3270              		.file 16 "ChibiOS_3.0.5/os/ext/CMSIS/ST/system_stm32f4xx.h"
 3271              		.file 17 "ChibiOS_3.0.5/os/ext/CMSIS/ST/stm32f407xx.h"
 3272              		.file 18 "ChibiOS_3.0.5/os/rt/ports/ARMCMx/chcore.h"
 3273              		.file 19 "ChibiOS_3.0.5/os/rt/ports/ARMCMx/chcore_v7m.h"
 3274              		.file 20 "ChibiOS_3.0.5/os/rt/include/chtm.h"
 3275              		.file 21 "ChibiOS_3.0.5/os/rt/include/chsem.h"
 3276              		.file 22 "ChibiOS_3.0.5/os/rt/include/chmtx.h"
 3277              		.file 23 "ChibiOS_3.0.5/os/rt/include/chevents.h"
 3278              		.file 24 "ChibiOS_3.0.5/os/rt/include/chqueues.h"
 3279              		.file 25 "./datatypes.h"
 3280              		.file 26 "./conf_general.h"
 3281              		.file 27 "ChibiOS_3.0.5/os/hal/ports/STM32/STM32F4xx/stm32_dma.h"
 3282              		.file 28 "ChibiOS_3.0.5/os/hal/ports/STM32/LLD/GPIOv2/pal_lld.h"
 3283              		.file 29 "ChibiOS_3.0.5/os/hal/include/can.h"
 3284              		.file 30 "ChibiOS_3.0.5/os/hal/ports/STM32/LLD/can_lld.h"
 3285              		.file 31 "ChibiOS_3.0.5/os/hal/include/i2c.h"
 3286              		.file 32 "ChibiOS_3.0.5/os/hal/ports/STM32/LLD/I2Cv1/i2c_lld.h"
 3287              		.file 33 "ChibiOS_3.0.5/os/hal/include/icu.h"
 3288              		.file 34 "ChibiOS_3.0.5/os/hal/ports/STM32/LLD/TIMv1/icu_lld.h"
 3289              		.file 35 "ChibiOS_3.0.5/os/hal/ports/STM32/LLD/TIMv1/stm32_tim.h"
 3290              		.file 36 "ChibiOS_3.0.5/os/hal/include/serial.h"
 3291              		.file 37 "ChibiOS_3.0.5/os/hal/ports/STM32/LLD/USARTv1/serial_lld.h"
 3292              		.file 38 "ChibiOS_3.0.5/os/hal/include/spi.h"
 3293              		.file 39 "ChibiOS_3.0.5/os/hal/ports/STM32/LLD/SPIv1/spi_lld.h"
 3294              		.file 40 "ChibiOS_3.0.5/os/hal/include/usb.h"
ARM GAS  /tmp/ccqRaZSa.s 			page 59


 3295              		.file 41 "ChibiOS_3.0.5/os/hal/ports/STM32/LLD/OTGv1/usb_lld.h"
 3296              		.file 42 "ChibiOS_3.0.5/os/hal/ports/STM32/LLD/OTGv1/stm32_otg.h"
 3297              		.file 43 "ChibiOS_3.0.5/os/rt/include/chsys.h"
 3298              		.file 44 "ChibiOS_3.0.5/os/hal/ports/common/ARMCMx/nvic.h"
 3299              		.section	.debug_info,"",%progbits
 3300              	.Ldebug_info0:
 3301 0000 EC4B0000 		.4byte	0x4bec
 3302 0004 0400     		.2byte	0x4
 3303 0006 00000000 		.4byte	.Ldebug_abbrev0
 3304 000a 04       		.byte	0x4
 3305 000b 01       		.uleb128 0x1
 3306 000c C7090000 		.4byte	.LASF746
 3307 0010 0C       		.byte	0xc
 3308 0011 1B090000 		.4byte	.LASF747
 3309 0015 611E0000 		.4byte	.LASF748
 3310 0019 10030000 		.4byte	.Ldebug_ranges0+0x310
 3311 001d 00000000 		.4byte	0
 3312 0021 00000000 		.4byte	.Ldebug_line0
 3313 0025 02       		.uleb128 0x2
 3314 0026 04       		.byte	0x4
 3315 0027 07       		.byte	0x7
 3316 0028 9E1E0000 		.4byte	.LASF0
 3317 002c 03       		.uleb128 0x3
 3318 002d 04       		.byte	0x4
 3319 002e 05       		.byte	0x5
 3320 002f 696E7400 		.ascii	"int\000"
 3321 0033 04       		.uleb128 0x4
 3322 0034 D50B0000 		.4byte	.LASF2
 3323 0038 06       		.byte	0x6
 3324 0039 D8       		.byte	0xd8
 3325 003a 25000000 		.4byte	0x25
 3326 003e 05       		.uleb128 0x5
 3327 003f 33000000 		.4byte	0x33
 3328 0043 02       		.uleb128 0x2
 3329 0044 01       		.byte	0x1
 3330 0045 06       		.byte	0x6
 3331 0046 12120000 		.4byte	.LASF1
 3332 004a 04       		.uleb128 0x4
 3333 004b 9B000000 		.4byte	.LASF3
 3334 004f 07       		.byte	0x7
 3335 0050 2B       		.byte	0x2b
 3336 0051 55000000 		.4byte	0x55
 3337 0055 02       		.uleb128 0x2
 3338 0056 01       		.byte	0x1
 3339 0057 08       		.byte	0x8
 3340 0058 A9070000 		.4byte	.LASF4
 3341 005c 02       		.uleb128 0x2
 3342 005d 02       		.byte	0x2
 3343 005e 05       		.byte	0x5
 3344 005f FA1E0000 		.4byte	.LASF5
 3345 0063 04       		.uleb128 0x4
 3346 0064 3F060000 		.4byte	.LASF6
 3347 0068 07       		.byte	0x7
 3348 0069 39       		.byte	0x39
 3349 006a 6E000000 		.4byte	0x6e
 3350 006e 02       		.uleb128 0x2
 3351 006f 02       		.byte	0x2
ARM GAS  /tmp/ccqRaZSa.s 			page 60


 3352 0070 07       		.byte	0x7
 3353 0071 FF110000 		.4byte	.LASF7
 3354 0075 04       		.uleb128 0x4
 3355 0076 E7180000 		.4byte	.LASF8
 3356 007a 07       		.byte	0x7
 3357 007b 4D       		.byte	0x4d
 3358 007c 80000000 		.4byte	0x80
 3359 0080 02       		.uleb128 0x2
 3360 0081 04       		.byte	0x4
 3361 0082 05       		.byte	0x5
 3362 0083 0C140000 		.4byte	.LASF9
 3363 0087 04       		.uleb128 0x4
 3364 0088 F1180000 		.4byte	.LASF10
 3365 008c 07       		.byte	0x7
 3366 008d 4F       		.byte	0x4f
 3367 008e 92000000 		.4byte	0x92
 3368 0092 02       		.uleb128 0x2
 3369 0093 04       		.byte	0x4
 3370 0094 07       		.byte	0x7
 3371 0095 83150000 		.4byte	.LASF11
 3372 0099 02       		.uleb128 0x2
 3373 009a 08       		.byte	0x8
 3374 009b 05       		.byte	0x5
 3375 009c E81C0000 		.4byte	.LASF12
 3376 00a0 04       		.uleb128 0x4
 3377 00a1 C30E0000 		.4byte	.LASF13
 3378 00a5 07       		.byte	0x7
 3379 00a6 69       		.byte	0x69
 3380 00a7 AB000000 		.4byte	0xab
 3381 00ab 02       		.uleb128 0x2
 3382 00ac 08       		.byte	0x8
 3383 00ad 07       		.byte	0x7
 3384 00ae 861A0000 		.4byte	.LASF14
 3385 00b2 04       		.uleb128 0x4
 3386 00b3 10060000 		.4byte	.LASF15
 3387 00b7 08       		.byte	0x8
 3388 00b8 22       		.byte	0x22
 3389 00b9 BD000000 		.4byte	0xbd
 3390 00bd 06       		.uleb128 0x6
 3391 00be 04       		.byte	0x4
 3392 00bf C3000000 		.4byte	0xc3
 3393 00c3 07       		.uleb128 0x7
 3394 00c4 A0040000 		.4byte	.LASF122
 3395 00c8 04       		.uleb128 0x4
 3396 00c9 B80B0000 		.4byte	.LASF16
 3397 00cd 09       		.byte	0x9
 3398 00ce 2C       		.byte	0x2c
 3399 00cf 80000000 		.4byte	0x80
 3400 00d3 04       		.uleb128 0x4
 3401 00d4 44180000 		.4byte	.LASF17
 3402 00d8 09       		.byte	0x9
 3403 00d9 72       		.byte	0x72
 3404 00da 80000000 		.4byte	0x80
 3405 00de 08       		.uleb128 0x8
 3406 00df A30D0000 		.4byte	.LASF18
 3407 00e3 06       		.byte	0x6
 3408 00e4 6501     		.2byte	0x165
ARM GAS  /tmp/ccqRaZSa.s 			page 61


 3409 00e6 25000000 		.4byte	0x25
 3410 00ea 09       		.uleb128 0x9
 3411 00eb 04       		.byte	0x4
 3412 00ec 09       		.byte	0x9
 3413 00ed A6       		.byte	0xa6
 3414 00ee 09010000 		.4byte	0x109
 3415 00f2 0A       		.uleb128 0xa
 3416 00f3 90130000 		.4byte	.LASF19
 3417 00f7 09       		.byte	0x9
 3418 00f8 A8       		.byte	0xa8
 3419 00f9 DE000000 		.4byte	0xde
 3420 00fd 0A       		.uleb128 0xa
 3421 00fe 420D0000 		.4byte	.LASF20
 3422 0102 09       		.byte	0x9
 3423 0103 A9       		.byte	0xa9
 3424 0104 09010000 		.4byte	0x109
 3425 0108 00       		.byte	0
 3426 0109 0B       		.uleb128 0xb
 3427 010a 55000000 		.4byte	0x55
 3428 010e 19010000 		.4byte	0x119
 3429 0112 0C       		.uleb128 0xc
 3430 0113 25000000 		.4byte	0x25
 3431 0117 03       		.byte	0x3
 3432 0118 00       		.byte	0
 3433 0119 0D       		.uleb128 0xd
 3434 011a 08       		.byte	0x8
 3435 011b 09       		.byte	0x9
 3436 011c A3       		.byte	0xa3
 3437 011d 3A010000 		.4byte	0x13a
 3438 0121 0E       		.uleb128 0xe
 3439 0122 F40B0000 		.4byte	.LASF21
 3440 0126 09       		.byte	0x9
 3441 0127 A5       		.byte	0xa5
 3442 0128 2C000000 		.4byte	0x2c
 3443 012c 00       		.byte	0
 3444 012d 0E       		.uleb128 0xe
 3445 012e 1B190000 		.4byte	.LASF22
 3446 0132 09       		.byte	0x9
 3447 0133 AA       		.byte	0xaa
 3448 0134 EA000000 		.4byte	0xea
 3449 0138 04       		.byte	0x4
 3450 0139 00       		.byte	0
 3451 013a 04       		.uleb128 0x4
 3452 013b 9E180000 		.4byte	.LASF23
 3453 013f 09       		.byte	0x9
 3454 0140 AB       		.byte	0xab
 3455 0141 19010000 		.4byte	0x119
 3456 0145 04       		.uleb128 0x4
 3457 0146 6E1C0000 		.4byte	.LASF24
 3458 014a 09       		.byte	0x9
 3459 014b AF       		.byte	0xaf
 3460 014c B2000000 		.4byte	0xb2
 3461 0150 0F       		.uleb128 0xf
 3462 0151 04       		.byte	0x4
 3463 0152 06       		.uleb128 0x6
 3464 0153 04       		.byte	0x4
 3465 0154 58010000 		.4byte	0x158
ARM GAS  /tmp/ccqRaZSa.s 			page 62


 3466 0158 02       		.uleb128 0x2
 3467 0159 01       		.byte	0x1
 3468 015a 08       		.byte	0x8
 3469 015b 18160000 		.4byte	.LASF25
 3470 015f 10       		.uleb128 0x10
 3471 0160 58010000 		.4byte	0x158
 3472 0164 04       		.uleb128 0x4
 3473 0165 AA100000 		.4byte	.LASF26
 3474 0169 0A       		.byte	0xa
 3475 016a 16       		.byte	0x16
 3476 016b 92000000 		.4byte	0x92
 3477 016f 11       		.uleb128 0x11
 3478 0170 8E160000 		.4byte	.LASF31
 3479 0174 18       		.byte	0x18
 3480 0175 0A       		.byte	0xa
 3481 0176 2F       		.byte	0x2f
 3482 0177 C2010000 		.4byte	0x1c2
 3483 017b 0E       		.uleb128 0xe
 3484 017c DF0E0000 		.4byte	.LASF27
 3485 0180 0A       		.byte	0xa
 3486 0181 31       		.byte	0x31
 3487 0182 C2010000 		.4byte	0x1c2
 3488 0186 00       		.byte	0
 3489 0187 12       		.uleb128 0x12
 3490 0188 5F6B00   		.ascii	"_k\000"
 3491 018b 0A       		.byte	0xa
 3492 018c 32       		.byte	0x32
 3493 018d 2C000000 		.4byte	0x2c
 3494 0191 04       		.byte	0x4
 3495 0192 0E       		.uleb128 0xe
 3496 0193 04150000 		.4byte	.LASF28
 3497 0197 0A       		.byte	0xa
 3498 0198 32       		.byte	0x32
 3499 0199 2C000000 		.4byte	0x2c
 3500 019d 08       		.byte	0x8
 3501 019e 0E       		.uleb128 0xe
 3502 019f 491E0000 		.4byte	.LASF29
 3503 01a3 0A       		.byte	0xa
 3504 01a4 32       		.byte	0x32
 3505 01a5 2C000000 		.4byte	0x2c
 3506 01a9 0C       		.byte	0xc
 3507 01aa 0E       		.uleb128 0xe
 3508 01ab 30080000 		.4byte	.LASF30
 3509 01af 0A       		.byte	0xa
 3510 01b0 32       		.byte	0x32
 3511 01b1 2C000000 		.4byte	0x2c
 3512 01b5 10       		.byte	0x10
 3513 01b6 12       		.uleb128 0x12
 3514 01b7 5F7800   		.ascii	"_x\000"
 3515 01ba 0A       		.byte	0xa
 3516 01bb 33       		.byte	0x33
 3517 01bc C8010000 		.4byte	0x1c8
 3518 01c0 14       		.byte	0x14
 3519 01c1 00       		.byte	0
 3520 01c2 06       		.uleb128 0x6
 3521 01c3 04       		.byte	0x4
 3522 01c4 6F010000 		.4byte	0x16f
ARM GAS  /tmp/ccqRaZSa.s 			page 63


 3523 01c8 0B       		.uleb128 0xb
 3524 01c9 64010000 		.4byte	0x164
 3525 01cd D8010000 		.4byte	0x1d8
 3526 01d1 0C       		.uleb128 0xc
 3527 01d2 25000000 		.4byte	0x25
 3528 01d6 00       		.byte	0
 3529 01d7 00       		.byte	0
 3530 01d8 11       		.uleb128 0x11
 3531 01d9 7B050000 		.4byte	.LASF32
 3532 01dd 24       		.byte	0x24
 3533 01de 0A       		.byte	0xa
 3534 01df 37       		.byte	0x37
 3535 01e0 51020000 		.4byte	0x251
 3536 01e4 0E       		.uleb128 0xe
 3537 01e5 E50F0000 		.4byte	.LASF33
 3538 01e9 0A       		.byte	0xa
 3539 01ea 39       		.byte	0x39
 3540 01eb 2C000000 		.4byte	0x2c
 3541 01ef 00       		.byte	0
 3542 01f0 0E       		.uleb128 0xe
 3543 01f1 581E0000 		.4byte	.LASF34
 3544 01f5 0A       		.byte	0xa
 3545 01f6 3A       		.byte	0x3a
 3546 01f7 2C000000 		.4byte	0x2c
 3547 01fb 04       		.byte	0x4
 3548 01fc 0E       		.uleb128 0xe
 3549 01fd 6C0D0000 		.4byte	.LASF35
 3550 0201 0A       		.byte	0xa
 3551 0202 3B       		.byte	0x3b
 3552 0203 2C000000 		.4byte	0x2c
 3553 0207 08       		.byte	0x8
 3554 0208 0E       		.uleb128 0xe
 3555 0209 1D0E0000 		.4byte	.LASF36
 3556 020d 0A       		.byte	0xa
 3557 020e 3C       		.byte	0x3c
 3558 020f 2C000000 		.4byte	0x2c
 3559 0213 0C       		.byte	0xc
 3560 0214 0E       		.uleb128 0xe
 3561 0215 28010000 		.4byte	.LASF37
 3562 0219 0A       		.byte	0xa
 3563 021a 3D       		.byte	0x3d
 3564 021b 2C000000 		.4byte	0x2c
 3565 021f 10       		.byte	0x10
 3566 0220 0E       		.uleb128 0xe
 3567 0221 11090000 		.4byte	.LASF38
 3568 0225 0A       		.byte	0xa
 3569 0226 3E       		.byte	0x3e
 3570 0227 2C000000 		.4byte	0x2c
 3571 022b 14       		.byte	0x14
 3572 022c 0E       		.uleb128 0xe
 3573 022d 2D070000 		.4byte	.LASF39
 3574 0231 0A       		.byte	0xa
 3575 0232 3F       		.byte	0x3f
 3576 0233 2C000000 		.4byte	0x2c
 3577 0237 18       		.byte	0x18
 3578 0238 0E       		.uleb128 0xe
 3579 0239 E5050000 		.4byte	.LASF40
ARM GAS  /tmp/ccqRaZSa.s 			page 64


 3580 023d 0A       		.byte	0xa
 3581 023e 40       		.byte	0x40
 3582 023f 2C000000 		.4byte	0x2c
 3583 0243 1C       		.byte	0x1c
 3584 0244 0E       		.uleb128 0xe
 3585 0245 37070000 		.4byte	.LASF41
 3586 0249 0A       		.byte	0xa
 3587 024a 41       		.byte	0x41
 3588 024b 2C000000 		.4byte	0x2c
 3589 024f 20       		.byte	0x20
 3590 0250 00       		.byte	0
 3591 0251 13       		.uleb128 0x13
 3592 0252 FC0F0000 		.4byte	.LASF42
 3593 0256 0801     		.2byte	0x108
 3594 0258 0A       		.byte	0xa
 3595 0259 4A       		.byte	0x4a
 3596 025a 91020000 		.4byte	0x291
 3597 025e 0E       		.uleb128 0xe
 3598 025f 560E0000 		.4byte	.LASF43
 3599 0263 0A       		.byte	0xa
 3600 0264 4B       		.byte	0x4b
 3601 0265 91020000 		.4byte	0x291
 3602 0269 00       		.byte	0
 3603 026a 0E       		.uleb128 0xe
 3604 026b 11070000 		.4byte	.LASF44
 3605 026f 0A       		.byte	0xa
 3606 0270 4C       		.byte	0x4c
 3607 0271 91020000 		.4byte	0x291
 3608 0275 80       		.byte	0x80
 3609 0276 14       		.uleb128 0x14
 3610 0277 31010000 		.4byte	.LASF45
 3611 027b 0A       		.byte	0xa
 3612 027c 4E       		.byte	0x4e
 3613 027d 64010000 		.4byte	0x164
 3614 0281 0001     		.2byte	0x100
 3615 0283 14       		.uleb128 0x14
 3616 0284 39190000 		.4byte	.LASF46
 3617 0288 0A       		.byte	0xa
 3618 0289 51       		.byte	0x51
 3619 028a 64010000 		.4byte	0x164
 3620 028e 0401     		.2byte	0x104
 3621 0290 00       		.byte	0
 3622 0291 0B       		.uleb128 0xb
 3623 0292 50010000 		.4byte	0x150
 3624 0296 A1020000 		.4byte	0x2a1
 3625 029a 0C       		.uleb128 0xc
 3626 029b 25000000 		.4byte	0x25
 3627 029f 1F       		.byte	0x1f
 3628 02a0 00       		.byte	0
 3629 02a1 13       		.uleb128 0x13
 3630 02a2 C1000000 		.4byte	.LASF47
 3631 02a6 9001     		.2byte	0x190
 3632 02a8 0A       		.byte	0xa
 3633 02a9 5D       		.byte	0x5d
 3634 02aa DF020000 		.4byte	0x2df
 3635 02ae 0E       		.uleb128 0xe
 3636 02af DF0E0000 		.4byte	.LASF27
ARM GAS  /tmp/ccqRaZSa.s 			page 65


 3637 02b3 0A       		.byte	0xa
 3638 02b4 5E       		.byte	0x5e
 3639 02b5 DF020000 		.4byte	0x2df
 3640 02b9 00       		.byte	0
 3641 02ba 0E       		.uleb128 0xe
 3642 02bb 4D010000 		.4byte	.LASF48
 3643 02bf 0A       		.byte	0xa
 3644 02c0 5F       		.byte	0x5f
 3645 02c1 2C000000 		.4byte	0x2c
 3646 02c5 04       		.byte	0x4
 3647 02c6 0E       		.uleb128 0xe
 3648 02c7 7C180000 		.4byte	.LASF49
 3649 02cb 0A       		.byte	0xa
 3650 02cc 61       		.byte	0x61
 3651 02cd E5020000 		.4byte	0x2e5
 3652 02d1 08       		.byte	0x8
 3653 02d2 0E       		.uleb128 0xe
 3654 02d3 FC0F0000 		.4byte	.LASF42
 3655 02d7 0A       		.byte	0xa
 3656 02d8 62       		.byte	0x62
 3657 02d9 51020000 		.4byte	0x251
 3658 02dd 88       		.byte	0x88
 3659 02de 00       		.byte	0
 3660 02df 06       		.uleb128 0x6
 3661 02e0 04       		.byte	0x4
 3662 02e1 A1020000 		.4byte	0x2a1
 3663 02e5 0B       		.uleb128 0xb
 3664 02e6 F5020000 		.4byte	0x2f5
 3665 02ea F5020000 		.4byte	0x2f5
 3666 02ee 0C       		.uleb128 0xc
 3667 02ef 25000000 		.4byte	0x25
 3668 02f3 1F       		.byte	0x1f
 3669 02f4 00       		.byte	0
 3670 02f5 06       		.uleb128 0x6
 3671 02f6 04       		.byte	0x4
 3672 02f7 FB020000 		.4byte	0x2fb
 3673 02fb 15       		.uleb128 0x15
 3674 02fc 11       		.uleb128 0x11
 3675 02fd 0E130000 		.4byte	.LASF50
 3676 0301 08       		.byte	0x8
 3677 0302 0A       		.byte	0xa
 3678 0303 75       		.byte	0x75
 3679 0304 21030000 		.4byte	0x321
 3680 0308 0E       		.uleb128 0xe
 3681 0309 09050000 		.4byte	.LASF51
 3682 030d 0A       		.byte	0xa
 3683 030e 76       		.byte	0x76
 3684 030f 21030000 		.4byte	0x321
 3685 0313 00       		.byte	0
 3686 0314 0E       		.uleb128 0xe
 3687 0315 4D080000 		.4byte	.LASF52
 3688 0319 0A       		.byte	0xa
 3689 031a 77       		.byte	0x77
 3690 031b 2C000000 		.4byte	0x2c
 3691 031f 04       		.byte	0x4
 3692 0320 00       		.byte	0
 3693 0321 06       		.uleb128 0x6
ARM GAS  /tmp/ccqRaZSa.s 			page 66


 3694 0322 04       		.byte	0x4
 3695 0323 55000000 		.4byte	0x55
 3696 0327 11       		.uleb128 0x11
 3697 0328 6D180000 		.4byte	.LASF53
 3698 032c 68       		.byte	0x68
 3699 032d 0A       		.byte	0xa
 3700 032e B5       		.byte	0xb5
 3701 032f 51040000 		.4byte	0x451
 3702 0333 12       		.uleb128 0x12
 3703 0334 5F7000   		.ascii	"_p\000"
 3704 0337 0A       		.byte	0xa
 3705 0338 B6       		.byte	0xb6
 3706 0339 21030000 		.4byte	0x321
 3707 033d 00       		.byte	0
 3708 033e 12       		.uleb128 0x12
 3709 033f 5F7200   		.ascii	"_r\000"
 3710 0342 0A       		.byte	0xa
 3711 0343 B7       		.byte	0xb7
 3712 0344 2C000000 		.4byte	0x2c
 3713 0348 04       		.byte	0x4
 3714 0349 12       		.uleb128 0x12
 3715 034a 5F7700   		.ascii	"_w\000"
 3716 034d 0A       		.byte	0xa
 3717 034e B8       		.byte	0xb8
 3718 034f 2C000000 		.4byte	0x2c
 3719 0353 08       		.byte	0x8
 3720 0354 0E       		.uleb128 0xe
 3721 0355 94010000 		.4byte	.LASF54
 3722 0359 0A       		.byte	0xa
 3723 035a B9       		.byte	0xb9
 3724 035b 5C000000 		.4byte	0x5c
 3725 035f 0C       		.byte	0xc
 3726 0360 0E       		.uleb128 0xe
 3727 0361 4C180000 		.4byte	.LASF55
 3728 0365 0A       		.byte	0xa
 3729 0366 BA       		.byte	0xba
 3730 0367 5C000000 		.4byte	0x5c
 3731 036b 0E       		.byte	0xe
 3732 036c 12       		.uleb128 0x12
 3733 036d 5F626600 		.ascii	"_bf\000"
 3734 0371 0A       		.byte	0xa
 3735 0372 BB       		.byte	0xbb
 3736 0373 FC020000 		.4byte	0x2fc
 3737 0377 10       		.byte	0x10
 3738 0378 0E       		.uleb128 0xe
 3739 0379 B6030000 		.4byte	.LASF56
 3740 037d 0A       		.byte	0xa
 3741 037e BC       		.byte	0xbc
 3742 037f 2C000000 		.4byte	0x2c
 3743 0383 18       		.byte	0x18
 3744 0384 0E       		.uleb128 0xe
 3745 0385 1A0F0000 		.4byte	.LASF57
 3746 0389 0A       		.byte	0xa
 3747 038a C3       		.byte	0xc3
 3748 038b 50010000 		.4byte	0x150
 3749 038f 1C       		.byte	0x1c
 3750 0390 0E       		.uleb128 0xe
ARM GAS  /tmp/ccqRaZSa.s 			page 67


 3751 0391 121F0000 		.4byte	.LASF58
 3752 0395 0A       		.byte	0xa
 3753 0396 C5       		.byte	0xc5
 3754 0397 AC050000 		.4byte	0x5ac
 3755 039b 20       		.byte	0x20
 3756 039c 0E       		.uleb128 0xe
 3757 039d 7E080000 		.4byte	.LASF59
 3758 03a1 0A       		.byte	0xa
 3759 03a2 C7       		.byte	0xc7
 3760 03a3 DB050000 		.4byte	0x5db
 3761 03a7 24       		.byte	0x24
 3762 03a8 0E       		.uleb128 0xe
 3763 03a9 DF110000 		.4byte	.LASF60
 3764 03ad 0A       		.byte	0xa
 3765 03ae CA       		.byte	0xca
 3766 03af FF050000 		.4byte	0x5ff
 3767 03b3 28       		.byte	0x28
 3768 03b4 0E       		.uleb128 0xe
 3769 03b5 0C160000 		.4byte	.LASF61
 3770 03b9 0A       		.byte	0xa
 3771 03ba CB       		.byte	0xcb
 3772 03bb 19060000 		.4byte	0x619
 3773 03bf 2C       		.byte	0x2c
 3774 03c0 12       		.uleb128 0x12
 3775 03c1 5F756200 		.ascii	"_ub\000"
 3776 03c5 0A       		.byte	0xa
 3777 03c6 CE       		.byte	0xce
 3778 03c7 FC020000 		.4byte	0x2fc
 3779 03cb 30       		.byte	0x30
 3780 03cc 12       		.uleb128 0x12
 3781 03cd 5F757000 		.ascii	"_up\000"
 3782 03d1 0A       		.byte	0xa
 3783 03d2 CF       		.byte	0xcf
 3784 03d3 21030000 		.4byte	0x321
 3785 03d7 38       		.byte	0x38
 3786 03d8 12       		.uleb128 0x12
 3787 03d9 5F757200 		.ascii	"_ur\000"
 3788 03dd 0A       		.byte	0xa
 3789 03de D0       		.byte	0xd0
 3790 03df 2C000000 		.4byte	0x2c
 3791 03e3 3C       		.byte	0x3c
 3792 03e4 0E       		.uleb128 0xe
 3793 03e5 DD170000 		.4byte	.LASF62
 3794 03e9 0A       		.byte	0xa
 3795 03ea D3       		.byte	0xd3
 3796 03eb 1F060000 		.4byte	0x61f
 3797 03ef 40       		.byte	0x40
 3798 03f0 0E       		.uleb128 0xe
 3799 03f1 30020000 		.4byte	.LASF63
 3800 03f5 0A       		.byte	0xa
 3801 03f6 D4       		.byte	0xd4
 3802 03f7 2F060000 		.4byte	0x62f
 3803 03fb 43       		.byte	0x43
 3804 03fc 12       		.uleb128 0x12
 3805 03fd 5F6C6200 		.ascii	"_lb\000"
 3806 0401 0A       		.byte	0xa
 3807 0402 D7       		.byte	0xd7
ARM GAS  /tmp/ccqRaZSa.s 			page 68


 3808 0403 FC020000 		.4byte	0x2fc
 3809 0407 44       		.byte	0x44
 3810 0408 0E       		.uleb128 0xe
 3811 0409 CB170000 		.4byte	.LASF64
 3812 040d 0A       		.byte	0xa
 3813 040e DA       		.byte	0xda
 3814 040f 2C000000 		.4byte	0x2c
 3815 0413 4C       		.byte	0x4c
 3816 0414 0E       		.uleb128 0xe
 3817 0415 B1120000 		.4byte	.LASF65
 3818 0419 0A       		.byte	0xa
 3819 041a DB       		.byte	0xdb
 3820 041b C8000000 		.4byte	0xc8
 3821 041f 50       		.byte	0x50
 3822 0420 0E       		.uleb128 0xe
 3823 0421 16040000 		.4byte	.LASF66
 3824 0425 0A       		.byte	0xa
 3825 0426 DE       		.byte	0xde
 3826 0427 6F040000 		.4byte	0x46f
 3827 042b 54       		.byte	0x54
 3828 042c 0E       		.uleb128 0xe
 3829 042d 2A020000 		.4byte	.LASF67
 3830 0431 0A       		.byte	0xa
 3831 0432 E2       		.byte	0xe2
 3832 0433 45010000 		.4byte	0x145
 3833 0437 58       		.byte	0x58
 3834 0438 0E       		.uleb128 0xe
 3835 0439 B8000000 		.4byte	.LASF68
 3836 043d 0A       		.byte	0xa
 3837 043e E4       		.byte	0xe4
 3838 043f 3A010000 		.4byte	0x13a
 3839 0443 5C       		.byte	0x5c
 3840 0444 0E       		.uleb128 0xe
 3841 0445 1D1D0000 		.4byte	.LASF69
 3842 0449 0A       		.byte	0xa
 3843 044a E5       		.byte	0xe5
 3844 044b 2C000000 		.4byte	0x2c
 3845 044f 64       		.byte	0x64
 3846 0450 00       		.byte	0
 3847 0451 16       		.uleb128 0x16
 3848 0452 2C000000 		.4byte	0x2c
 3849 0456 6F040000 		.4byte	0x46f
 3850 045a 17       		.uleb128 0x17
 3851 045b 6F040000 		.4byte	0x46f
 3852 045f 17       		.uleb128 0x17
 3853 0460 50010000 		.4byte	0x150
 3854 0464 17       		.uleb128 0x17
 3855 0465 52010000 		.4byte	0x152
 3856 0469 17       		.uleb128 0x17
 3857 046a 2C000000 		.4byte	0x2c
 3858 046e 00       		.byte	0
 3859 046f 06       		.uleb128 0x6
 3860 0470 04       		.byte	0x4
 3861 0471 7A040000 		.4byte	0x47a
 3862 0475 10       		.uleb128 0x10
 3863 0476 6F040000 		.4byte	0x46f
 3864 047a 18       		.uleb128 0x18
ARM GAS  /tmp/ccqRaZSa.s 			page 69


 3865 047b B6040000 		.4byte	.LASF70
 3866 047f 2804     		.2byte	0x428
 3867 0481 0A       		.byte	0xa
 3868 0482 6002     		.2byte	0x260
 3869 0484 AC050000 		.4byte	0x5ac
 3870 0488 19       		.uleb128 0x19
 3871 0489 020E0000 		.4byte	.LASF71
 3872 048d 0A       		.byte	0xa
 3873 048e 6202     		.2byte	0x262
 3874 0490 2C000000 		.4byte	0x2c
 3875 0494 00       		.byte	0
 3876 0495 19       		.uleb128 0x19
 3877 0496 420B0000 		.4byte	.LASF72
 3878 049a 0A       		.byte	0xa
 3879 049b 6702     		.2byte	0x267
 3880 049d 86060000 		.4byte	0x686
 3881 04a1 04       		.byte	0x4
 3882 04a2 19       		.uleb128 0x19
 3883 04a3 B7070000 		.4byte	.LASF73
 3884 04a7 0A       		.byte	0xa
 3885 04a8 6702     		.2byte	0x267
 3886 04aa 86060000 		.4byte	0x686
 3887 04ae 08       		.byte	0x8
 3888 04af 19       		.uleb128 0x19
 3889 04b0 EB060000 		.4byte	.LASF74
 3890 04b4 0A       		.byte	0xa
 3891 04b5 6702     		.2byte	0x267
 3892 04b7 86060000 		.4byte	0x686
 3893 04bb 0C       		.byte	0xc
 3894 04bc 19       		.uleb128 0x19
 3895 04bd 48010000 		.4byte	.LASF75
 3896 04c1 0A       		.byte	0xa
 3897 04c2 6902     		.2byte	0x269
 3898 04c4 2C000000 		.4byte	0x2c
 3899 04c8 10       		.byte	0x10
 3900 04c9 19       		.uleb128 0x19
 3901 04ca 6D140000 		.4byte	.LASF76
 3902 04ce 0A       		.byte	0xa
 3903 04cf 6A02     		.2byte	0x26a
 3904 04d1 68080000 		.4byte	0x868
 3905 04d5 14       		.byte	0x14
 3906 04d6 19       		.uleb128 0x19
 3907 04d7 BF1B0000 		.4byte	.LASF77
 3908 04db 0A       		.byte	0xa
 3909 04dc 6D02     		.2byte	0x26d
 3910 04de 2C000000 		.4byte	0x2c
 3911 04e2 30       		.byte	0x30
 3912 04e3 19       		.uleb128 0x19
 3913 04e4 691D0000 		.4byte	.LASF78
 3914 04e8 0A       		.byte	0xa
 3915 04e9 6E02     		.2byte	0x26e
 3916 04eb 7D080000 		.4byte	0x87d
 3917 04ef 34       		.byte	0x34
 3918 04f0 19       		.uleb128 0x19
 3919 04f1 091C0000 		.4byte	.LASF79
 3920 04f5 0A       		.byte	0xa
 3921 04f6 7002     		.2byte	0x270
ARM GAS  /tmp/ccqRaZSa.s 			page 70


 3922 04f8 2C000000 		.4byte	0x2c
 3923 04fc 38       		.byte	0x38
 3924 04fd 19       		.uleb128 0x19
 3925 04fe 0A180000 		.4byte	.LASF80
 3926 0502 0A       		.byte	0xa
 3927 0503 7202     		.2byte	0x272
 3928 0505 8E080000 		.4byte	0x88e
 3929 0509 3C       		.byte	0x3c
 3930 050a 19       		.uleb128 0x19
 3931 050b F3060000 		.4byte	.LASF81
 3932 050f 0A       		.byte	0xa
 3933 0510 7502     		.2byte	0x275
 3934 0512 C2010000 		.4byte	0x1c2
 3935 0516 40       		.byte	0x40
 3936 0517 19       		.uleb128 0x19
 3937 0518 DC060000 		.4byte	.LASF82
 3938 051c 0A       		.byte	0xa
 3939 051d 7602     		.2byte	0x276
 3940 051f 2C000000 		.4byte	0x2c
 3941 0523 44       		.byte	0x44
 3942 0524 19       		.uleb128 0x19
 3943 0525 75190000 		.4byte	.LASF83
 3944 0529 0A       		.byte	0xa
 3945 052a 7702     		.2byte	0x277
 3946 052c C2010000 		.4byte	0x1c2
 3947 0530 48       		.byte	0x48
 3948 0531 19       		.uleb128 0x19
 3949 0532 66120000 		.4byte	.LASF84
 3950 0536 0A       		.byte	0xa
 3951 0537 7802     		.2byte	0x278
 3952 0539 94080000 		.4byte	0x894
 3953 053d 4C       		.byte	0x4c
 3954 053e 19       		.uleb128 0x19
 3955 053f C2010000 		.4byte	.LASF85
 3956 0543 0A       		.byte	0xa
 3957 0544 7B02     		.2byte	0x27b
 3958 0546 2C000000 		.4byte	0x2c
 3959 054a 50       		.byte	0x50
 3960 054b 19       		.uleb128 0x19
 3961 054c BB0C0000 		.4byte	.LASF86
 3962 0550 0A       		.byte	0xa
 3963 0551 7C02     		.2byte	0x27c
 3964 0553 52010000 		.4byte	0x152
 3965 0557 54       		.byte	0x54
 3966 0558 19       		.uleb128 0x19
 3967 0559 AA0D0000 		.4byte	.LASF87
 3968 055d 0A       		.byte	0xa
 3969 055e 9F02     		.2byte	0x29f
 3970 0560 46080000 		.4byte	0x846
 3971 0564 58       		.byte	0x58
 3972 0565 1A       		.uleb128 0x1a
 3973 0566 C1000000 		.4byte	.LASF47
 3974 056a 0A       		.byte	0xa
 3975 056b A302     		.2byte	0x2a3
 3976 056d DF020000 		.4byte	0x2df
 3977 0571 4801     		.2byte	0x148
 3978 0573 1A       		.uleb128 0x1a
ARM GAS  /tmp/ccqRaZSa.s 			page 71


 3979 0574 CB160000 		.4byte	.LASF88
 3980 0578 0A       		.byte	0xa
 3981 0579 A402     		.2byte	0x2a4
 3982 057b A1020000 		.4byte	0x2a1
 3983 057f 4C01     		.2byte	0x14c
 3984 0581 1A       		.uleb128 0x1a
 3985 0582 EE010000 		.4byte	.LASF89
 3986 0586 0A       		.byte	0xa
 3987 0587 A802     		.2byte	0x2a8
 3988 0589 A5080000 		.4byte	0x8a5
 3989 058d DC02     		.2byte	0x2dc
 3990 058f 1A       		.uleb128 0x1a
 3991 0590 F7170000 		.4byte	.LASF90
 3992 0594 0A       		.byte	0xa
 3993 0595 AD02     		.2byte	0x2ad
 3994 0597 4B060000 		.4byte	0x64b
 3995 059b E002     		.2byte	0x2e0
 3996 059d 1A       		.uleb128 0x1a
 3997 059e FB040000 		.4byte	.LASF91
 3998 05a2 0A       		.byte	0xa
 3999 05a3 AF02     		.2byte	0x2af
 4000 05a5 B1080000 		.4byte	0x8b1
 4001 05a9 EC02     		.2byte	0x2ec
 4002 05ab 00       		.byte	0
 4003 05ac 06       		.uleb128 0x6
 4004 05ad 04       		.byte	0x4
 4005 05ae 51040000 		.4byte	0x451
 4006 05b2 16       		.uleb128 0x16
 4007 05b3 2C000000 		.4byte	0x2c
 4008 05b7 D0050000 		.4byte	0x5d0
 4009 05bb 17       		.uleb128 0x17
 4010 05bc 6F040000 		.4byte	0x46f
 4011 05c0 17       		.uleb128 0x17
 4012 05c1 50010000 		.4byte	0x150
 4013 05c5 17       		.uleb128 0x17
 4014 05c6 D0050000 		.4byte	0x5d0
 4015 05ca 17       		.uleb128 0x17
 4016 05cb 2C000000 		.4byte	0x2c
 4017 05cf 00       		.byte	0
 4018 05d0 06       		.uleb128 0x6
 4019 05d1 04       		.byte	0x4
 4020 05d2 5F010000 		.4byte	0x15f
 4021 05d6 05       		.uleb128 0x5
 4022 05d7 D0050000 		.4byte	0x5d0
 4023 05db 06       		.uleb128 0x6
 4024 05dc 04       		.byte	0x4
 4025 05dd B2050000 		.4byte	0x5b2
 4026 05e1 16       		.uleb128 0x16
 4027 05e2 D3000000 		.4byte	0xd3
 4028 05e6 FF050000 		.4byte	0x5ff
 4029 05ea 17       		.uleb128 0x17
 4030 05eb 6F040000 		.4byte	0x46f
 4031 05ef 17       		.uleb128 0x17
 4032 05f0 50010000 		.4byte	0x150
 4033 05f4 17       		.uleb128 0x17
 4034 05f5 D3000000 		.4byte	0xd3
 4035 05f9 17       		.uleb128 0x17
ARM GAS  /tmp/ccqRaZSa.s 			page 72


 4036 05fa 2C000000 		.4byte	0x2c
 4037 05fe 00       		.byte	0
 4038 05ff 06       		.uleb128 0x6
 4039 0600 04       		.byte	0x4
 4040 0601 E1050000 		.4byte	0x5e1
 4041 0605 16       		.uleb128 0x16
 4042 0606 2C000000 		.4byte	0x2c
 4043 060a 19060000 		.4byte	0x619
 4044 060e 17       		.uleb128 0x17
 4045 060f 6F040000 		.4byte	0x46f
 4046 0613 17       		.uleb128 0x17
 4047 0614 50010000 		.4byte	0x150
 4048 0618 00       		.byte	0
 4049 0619 06       		.uleb128 0x6
 4050 061a 04       		.byte	0x4
 4051 061b 05060000 		.4byte	0x605
 4052 061f 0B       		.uleb128 0xb
 4053 0620 55000000 		.4byte	0x55
 4054 0624 2F060000 		.4byte	0x62f
 4055 0628 0C       		.uleb128 0xc
 4056 0629 25000000 		.4byte	0x25
 4057 062d 02       		.byte	0x2
 4058 062e 00       		.byte	0
 4059 062f 0B       		.uleb128 0xb
 4060 0630 55000000 		.4byte	0x55
 4061 0634 3F060000 		.4byte	0x63f
 4062 0638 0C       		.uleb128 0xc
 4063 0639 25000000 		.4byte	0x25
 4064 063d 00       		.byte	0
 4065 063e 00       		.byte	0
 4066 063f 08       		.uleb128 0x8
 4067 0640 241E0000 		.4byte	.LASF92
 4068 0644 0A       		.byte	0xa
 4069 0645 1F01     		.2byte	0x11f
 4070 0647 27030000 		.4byte	0x327
 4071 064b 1B       		.uleb128 0x1b
 4072 064c 36160000 		.4byte	.LASF93
 4073 0650 0C       		.byte	0xc
 4074 0651 0A       		.byte	0xa
 4075 0652 2301     		.2byte	0x123
 4076 0654 80060000 		.4byte	0x680
 4077 0658 19       		.uleb128 0x19
 4078 0659 DF0E0000 		.4byte	.LASF27
 4079 065d 0A       		.byte	0xa
 4080 065e 2501     		.2byte	0x125
 4081 0660 80060000 		.4byte	0x680
 4082 0664 00       		.byte	0
 4083 0665 19       		.uleb128 0x19
 4084 0666 CE0D0000 		.4byte	.LASF94
 4085 066a 0A       		.byte	0xa
 4086 066b 2601     		.2byte	0x126
 4087 066d 2C000000 		.4byte	0x2c
 4088 0671 04       		.byte	0x4
 4089 0672 19       		.uleb128 0x19
 4090 0673 67140000 		.4byte	.LASF95
 4091 0677 0A       		.byte	0xa
 4092 0678 2701     		.2byte	0x127
ARM GAS  /tmp/ccqRaZSa.s 			page 73


 4093 067a 86060000 		.4byte	0x686
 4094 067e 08       		.byte	0x8
 4095 067f 00       		.byte	0
 4096 0680 06       		.uleb128 0x6
 4097 0681 04       		.byte	0x4
 4098 0682 4B060000 		.4byte	0x64b
 4099 0686 06       		.uleb128 0x6
 4100 0687 04       		.byte	0x4
 4101 0688 3F060000 		.4byte	0x63f
 4102 068c 1B       		.uleb128 0x1b
 4103 068d 3D1F0000 		.4byte	.LASF96
 4104 0691 0E       		.byte	0xe
 4105 0692 0A       		.byte	0xa
 4106 0693 3F01     		.2byte	0x13f
 4107 0695 C1060000 		.4byte	0x6c1
 4108 0699 19       		.uleb128 0x19
 4109 069a D9110000 		.4byte	.LASF97
 4110 069e 0A       		.byte	0xa
 4111 069f 4001     		.2byte	0x140
 4112 06a1 C1060000 		.4byte	0x6c1
 4113 06a5 00       		.byte	0
 4114 06a6 19       		.uleb128 0x19
 4115 06a7 95090000 		.4byte	.LASF98
 4116 06ab 0A       		.byte	0xa
 4117 06ac 4101     		.2byte	0x141
 4118 06ae C1060000 		.4byte	0x6c1
 4119 06b2 06       		.byte	0x6
 4120 06b3 19       		.uleb128 0x19
 4121 06b4 18030000 		.4byte	.LASF99
 4122 06b8 0A       		.byte	0xa
 4123 06b9 4201     		.2byte	0x142
 4124 06bb 6E000000 		.4byte	0x6e
 4125 06bf 0C       		.byte	0xc
 4126 06c0 00       		.byte	0
 4127 06c1 0B       		.uleb128 0xb
 4128 06c2 6E000000 		.4byte	0x6e
 4129 06c6 D1060000 		.4byte	0x6d1
 4130 06ca 0C       		.uleb128 0xc
 4131 06cb 25000000 		.4byte	0x25
 4132 06cf 02       		.byte	0x2
 4133 06d0 00       		.byte	0
 4134 06d1 1C       		.uleb128 0x1c
 4135 06d2 D0       		.byte	0xd0
 4136 06d3 0A       		.byte	0xa
 4137 06d4 8002     		.2byte	0x280
 4138 06d6 D2070000 		.4byte	0x7d2
 4139 06da 19       		.uleb128 0x19
 4140 06db 59060000 		.4byte	.LASF100
 4141 06df 0A       		.byte	0xa
 4142 06e0 8202     		.2byte	0x282
 4143 06e2 25000000 		.4byte	0x25
 4144 06e6 00       		.byte	0
 4145 06e7 19       		.uleb128 0x19
 4146 06e8 6E110000 		.4byte	.LASF101
 4147 06ec 0A       		.byte	0xa
 4148 06ed 8302     		.2byte	0x283
 4149 06ef 52010000 		.4byte	0x152
ARM GAS  /tmp/ccqRaZSa.s 			page 74


 4150 06f3 04       		.byte	0x4
 4151 06f4 19       		.uleb128 0x19
 4152 06f5 5F130000 		.4byte	.LASF102
 4153 06f9 0A       		.byte	0xa
 4154 06fa 8402     		.2byte	0x284
 4155 06fc D2070000 		.4byte	0x7d2
 4156 0700 08       		.byte	0x8
 4157 0701 19       		.uleb128 0x19
 4158 0702 DC0B0000 		.4byte	.LASF103
 4159 0706 0A       		.byte	0xa
 4160 0707 8502     		.2byte	0x285
 4161 0709 D8010000 		.4byte	0x1d8
 4162 070d 24       		.byte	0x24
 4163 070e 19       		.uleb128 0x19
 4164 070f E01A0000 		.4byte	.LASF104
 4165 0713 0A       		.byte	0xa
 4166 0714 8602     		.2byte	0x286
 4167 0716 2C000000 		.4byte	0x2c
 4168 071a 48       		.byte	0x48
 4169 071b 19       		.uleb128 0x19
 4170 071c AB140000 		.4byte	.LASF105
 4171 0720 0A       		.byte	0xa
 4172 0721 8702     		.2byte	0x287
 4173 0723 AB000000 		.4byte	0xab
 4174 0727 50       		.byte	0x50
 4175 0728 19       		.uleb128 0x19
 4176 0729 AB1E0000 		.4byte	.LASF106
 4177 072d 0A       		.byte	0xa
 4178 072e 8802     		.2byte	0x288
 4179 0730 8C060000 		.4byte	0x68c
 4180 0734 58       		.byte	0x58
 4181 0735 19       		.uleb128 0x19
 4182 0736 EA170000 		.4byte	.LASF107
 4183 073a 0A       		.byte	0xa
 4184 073b 8902     		.2byte	0x289
 4185 073d 3A010000 		.4byte	0x13a
 4186 0741 68       		.byte	0x68
 4187 0742 19       		.uleb128 0x19
 4188 0743 21050000 		.4byte	.LASF108
 4189 0747 0A       		.byte	0xa
 4190 0748 8A02     		.2byte	0x28a
 4191 074a 3A010000 		.4byte	0x13a
 4192 074e 70       		.byte	0x70
 4193 074f 19       		.uleb128 0x19
 4194 0750 2F140000 		.4byte	.LASF109
 4195 0754 0A       		.byte	0xa
 4196 0755 8B02     		.2byte	0x28b
 4197 0757 3A010000 		.4byte	0x13a
 4198 075b 78       		.byte	0x78
 4199 075c 19       		.uleb128 0x19
 4200 075d 29130000 		.4byte	.LASF110
 4201 0761 0A       		.byte	0xa
 4202 0762 8C02     		.2byte	0x28c
 4203 0764 E2070000 		.4byte	0x7e2
 4204 0768 80       		.byte	0x80
 4205 0769 19       		.uleb128 0x19
 4206 076a F90E0000 		.4byte	.LASF111
ARM GAS  /tmp/ccqRaZSa.s 			page 75


 4207 076e 0A       		.byte	0xa
 4208 076f 8D02     		.2byte	0x28d
 4209 0771 F2070000 		.4byte	0x7f2
 4210 0775 88       		.byte	0x88
 4211 0776 19       		.uleb128 0x19
 4212 0777 1F170000 		.4byte	.LASF112
 4213 077b 0A       		.byte	0xa
 4214 077c 8E02     		.2byte	0x28e
 4215 077e 2C000000 		.4byte	0x2c
 4216 0782 A0       		.byte	0xa0
 4217 0783 19       		.uleb128 0x19
 4218 0784 EB0A0000 		.4byte	.LASF113
 4219 0788 0A       		.byte	0xa
 4220 0789 8F02     		.2byte	0x28f
 4221 078b 3A010000 		.4byte	0x13a
 4222 078f A4       		.byte	0xa4
 4223 0790 19       		.uleb128 0x19
 4224 0791 490D0000 		.4byte	.LASF114
 4225 0795 0A       		.byte	0xa
 4226 0796 9002     		.2byte	0x290
 4227 0798 3A010000 		.4byte	0x13a
 4228 079c AC       		.byte	0xac
 4229 079d 19       		.uleb128 0x19
 4230 079e 05080000 		.4byte	.LASF115
 4231 07a2 0A       		.byte	0xa
 4232 07a3 9102     		.2byte	0x291
 4233 07a5 3A010000 		.4byte	0x13a
 4234 07a9 B4       		.byte	0xb4
 4235 07aa 19       		.uleb128 0x19
 4236 07ab 60100000 		.4byte	.LASF116
 4237 07af 0A       		.byte	0xa
 4238 07b0 9202     		.2byte	0x292
 4239 07b2 3A010000 		.4byte	0x13a
 4240 07b6 BC       		.byte	0xbc
 4241 07b7 19       		.uleb128 0x19
 4242 07b8 A3130000 		.4byte	.LASF117
 4243 07bc 0A       		.byte	0xa
 4244 07bd 9302     		.2byte	0x293
 4245 07bf 3A010000 		.4byte	0x13a
 4246 07c3 C4       		.byte	0xc4
 4247 07c4 19       		.uleb128 0x19
 4248 07c5 A9180000 		.4byte	.LASF118
 4249 07c9 0A       		.byte	0xa
 4250 07ca 9402     		.2byte	0x294
 4251 07cc 2C000000 		.4byte	0x2c
 4252 07d0 CC       		.byte	0xcc
 4253 07d1 00       		.byte	0
 4254 07d2 0B       		.uleb128 0xb
 4255 07d3 58010000 		.4byte	0x158
 4256 07d7 E2070000 		.4byte	0x7e2
 4257 07db 0C       		.uleb128 0xc
 4258 07dc 25000000 		.4byte	0x25
 4259 07e0 19       		.byte	0x19
 4260 07e1 00       		.byte	0
 4261 07e2 0B       		.uleb128 0xb
 4262 07e3 58010000 		.4byte	0x158
 4263 07e7 F2070000 		.4byte	0x7f2
ARM GAS  /tmp/ccqRaZSa.s 			page 76


 4264 07eb 0C       		.uleb128 0xc
 4265 07ec 25000000 		.4byte	0x25
 4266 07f0 07       		.byte	0x7
 4267 07f1 00       		.byte	0
 4268 07f2 0B       		.uleb128 0xb
 4269 07f3 58010000 		.4byte	0x158
 4270 07f7 02080000 		.4byte	0x802
 4271 07fb 0C       		.uleb128 0xc
 4272 07fc 25000000 		.4byte	0x25
 4273 0800 17       		.byte	0x17
 4274 0801 00       		.byte	0
 4275 0802 1C       		.uleb128 0x1c
 4276 0803 F0       		.byte	0xf0
 4277 0804 0A       		.byte	0xa
 4278 0805 9902     		.2byte	0x299
 4279 0807 26080000 		.4byte	0x826
 4280 080b 19       		.uleb128 0x19
 4281 080c 9E140000 		.4byte	.LASF119
 4282 0810 0A       		.byte	0xa
 4283 0811 9C02     		.2byte	0x29c
 4284 0813 26080000 		.4byte	0x826
 4285 0817 00       		.byte	0
 4286 0818 19       		.uleb128 0x19
 4287 0819 490B0000 		.4byte	.LASF120
 4288 081d 0A       		.byte	0xa
 4289 081e 9D02     		.2byte	0x29d
 4290 0820 36080000 		.4byte	0x836
 4291 0824 78       		.byte	0x78
 4292 0825 00       		.byte	0
 4293 0826 0B       		.uleb128 0xb
 4294 0827 21030000 		.4byte	0x321
 4295 082b 36080000 		.4byte	0x836
 4296 082f 0C       		.uleb128 0xc
 4297 0830 25000000 		.4byte	0x25
 4298 0834 1D       		.byte	0x1d
 4299 0835 00       		.byte	0
 4300 0836 0B       		.uleb128 0xb
 4301 0837 25000000 		.4byte	0x25
 4302 083b 46080000 		.4byte	0x846
 4303 083f 0C       		.uleb128 0xc
 4304 0840 25000000 		.4byte	0x25
 4305 0844 1D       		.byte	0x1d
 4306 0845 00       		.byte	0
 4307 0846 1D       		.uleb128 0x1d
 4308 0847 F0       		.byte	0xf0
 4309 0848 0A       		.byte	0xa
 4310 0849 7E02     		.2byte	0x27e
 4311 084b 68080000 		.4byte	0x868
 4312 084f 1E       		.uleb128 0x1e
 4313 0850 B6040000 		.4byte	.LASF70
 4314 0854 0A       		.byte	0xa
 4315 0855 9502     		.2byte	0x295
 4316 0857 D1060000 		.4byte	0x6d1
 4317 085b 1E       		.uleb128 0x1e
 4318 085c 46020000 		.4byte	.LASF121
 4319 0860 0A       		.byte	0xa
 4320 0861 9E02     		.2byte	0x29e
ARM GAS  /tmp/ccqRaZSa.s 			page 77


 4321 0863 02080000 		.4byte	0x802
 4322 0867 00       		.byte	0
 4323 0868 0B       		.uleb128 0xb
 4324 0869 58010000 		.4byte	0x158
 4325 086d 78080000 		.4byte	0x878
 4326 0871 0C       		.uleb128 0xc
 4327 0872 25000000 		.4byte	0x25
 4328 0876 18       		.byte	0x18
 4329 0877 00       		.byte	0
 4330 0878 07       		.uleb128 0x7
 4331 0879 FF170000 		.4byte	.LASF123
 4332 087d 06       		.uleb128 0x6
 4333 087e 04       		.byte	0x4
 4334 087f 78080000 		.4byte	0x878
 4335 0883 1F       		.uleb128 0x1f
 4336 0884 8E080000 		.4byte	0x88e
 4337 0888 17       		.uleb128 0x17
 4338 0889 6F040000 		.4byte	0x46f
 4339 088d 00       		.byte	0
 4340 088e 06       		.uleb128 0x6
 4341 088f 04       		.byte	0x4
 4342 0890 83080000 		.4byte	0x883
 4343 0894 06       		.uleb128 0x6
 4344 0895 04       		.byte	0x4
 4345 0896 C2010000 		.4byte	0x1c2
 4346 089a 1F       		.uleb128 0x1f
 4347 089b A5080000 		.4byte	0x8a5
 4348 089f 17       		.uleb128 0x17
 4349 08a0 2C000000 		.4byte	0x2c
 4350 08a4 00       		.byte	0
 4351 08a5 06       		.uleb128 0x6
 4352 08a6 04       		.byte	0x4
 4353 08a7 AB080000 		.4byte	0x8ab
 4354 08ab 06       		.uleb128 0x6
 4355 08ac 04       		.byte	0x4
 4356 08ad 9A080000 		.4byte	0x89a
 4357 08b1 0B       		.uleb128 0xb
 4358 08b2 3F060000 		.4byte	0x63f
 4359 08b6 C1080000 		.4byte	0x8c1
 4360 08ba 0C       		.uleb128 0xc
 4361 08bb 25000000 		.4byte	0x25
 4362 08bf 02       		.byte	0x2
 4363 08c0 00       		.byte	0
 4364 08c1 20       		.uleb128 0x20
 4365 08c2 B0170000 		.4byte	.LASF124
 4366 08c6 0A       		.byte	0xa
 4367 08c7 2E03     		.2byte	0x32e
 4368 08c9 6F040000 		.4byte	0x46f
 4369 08cd 20       		.uleb128 0x20
 4370 08ce 9C1B0000 		.4byte	.LASF125
 4371 08d2 0A       		.byte	0xa
 4372 08d3 2F03     		.2byte	0x32f
 4373 08d5 75040000 		.4byte	0x475
 4374 08d9 04       		.uleb128 0x4
 4375 08da FC0B0000 		.4byte	.LASF126
 4376 08de 0B       		.byte	0xb
 4377 08df 18       		.byte	0x18
ARM GAS  /tmp/ccqRaZSa.s 			page 78


 4378 08e0 4A000000 		.4byte	0x4a
 4379 08e4 10       		.uleb128 0x10
 4380 08e5 D9080000 		.4byte	0x8d9
 4381 08e9 04       		.uleb128 0x4
 4382 08ea 7E010000 		.4byte	.LASF127
 4383 08ee 0B       		.byte	0xb
 4384 08ef 24       		.byte	0x24
 4385 08f0 63000000 		.4byte	0x63
 4386 08f4 04       		.uleb128 0x4
 4387 08f5 F0020000 		.4byte	.LASF128
 4388 08f9 0B       		.byte	0xb
 4389 08fa 2C       		.byte	0x2c
 4390 08fb 75000000 		.4byte	0x75
 4391 08ff 05       		.uleb128 0x5
 4392 0900 F4080000 		.4byte	0x8f4
 4393 0904 04       		.uleb128 0x4
 4394 0905 DA140000 		.4byte	.LASF129
 4395 0909 0B       		.byte	0xb
 4396 090a 30       		.byte	0x30
 4397 090b 87000000 		.4byte	0x87
 4398 090f 05       		.uleb128 0x5
 4399 0910 04090000 		.4byte	0x904
 4400 0914 04       		.uleb128 0x4
 4401 0915 E3080000 		.4byte	.LASF130
 4402 0919 0B       		.byte	0xb
 4403 091a 3C       		.byte	0x3c
 4404 091b A0000000 		.4byte	0xa0
 4405 091f 04       		.uleb128 0x4
 4406 0920 7E0B0000 		.4byte	.LASF131
 4407 0924 0C       		.byte	0xc
 4408 0925 45       		.byte	0x45
 4409 0926 04090000 		.4byte	0x904
 4410 092a 04       		.uleb128 0x4
 4411 092b 12100000 		.4byte	.LASF132
 4412 092f 0C       		.byte	0xc
 4413 0930 48       		.byte	0x48
 4414 0931 D9080000 		.4byte	0x8d9
 4415 0935 04       		.uleb128 0x4
 4416 0936 931B0000 		.4byte	.LASF133
 4417 093a 0C       		.byte	0xc
 4418 093b 49       		.byte	0x49
 4419 093c D9080000 		.4byte	0x8d9
 4420 0940 04       		.uleb128 0x4
 4421 0941 B80F0000 		.4byte	.LASF134
 4422 0945 0C       		.byte	0xc
 4423 0946 4A       		.byte	0x4a
 4424 0947 D9080000 		.4byte	0x8d9
 4425 094b 04       		.uleb128 0x4
 4426 094c 64110000 		.4byte	.LASF135
 4427 0950 0C       		.byte	0xc
 4428 0951 4B       		.byte	0x4b
 4429 0952 D9080000 		.4byte	0x8d9
 4430 0956 04       		.uleb128 0x4
 4431 0957 62050000 		.4byte	.LASF136
 4432 095b 0C       		.byte	0xc
 4433 095c 4C       		.byte	0x4c
 4434 095d 04090000 		.4byte	0x904
ARM GAS  /tmp/ccqRaZSa.s 			page 79


 4435 0961 04       		.uleb128 0x4
 4436 0962 3C000000 		.4byte	.LASF137
 4437 0966 0C       		.byte	0xc
 4438 0967 4D       		.byte	0x4d
 4439 0968 F4080000 		.4byte	0x8f4
 4440 096c 04       		.uleb128 0x4
 4441 096d 34150000 		.4byte	.LASF138
 4442 0971 0C       		.byte	0xc
 4443 0972 4F       		.byte	0x4f
 4444 0973 04090000 		.4byte	0x904
 4445 0977 04       		.uleb128 0x4
 4446 0978 711D0000 		.4byte	.LASF139
 4447 097c 0C       		.byte	0xc
 4448 097d 50       		.byte	0x50
 4449 097e 04090000 		.4byte	0x904
 4450 0982 04       		.uleb128 0x4
 4451 0983 52170000 		.4byte	.LASF140
 4452 0987 0C       		.byte	0xc
 4453 0988 51       		.byte	0x51
 4454 0989 F4080000 		.4byte	0x8f4
 4455 098d 04       		.uleb128 0x4
 4456 098e 04030000 		.4byte	.LASF141
 4457 0992 0D       		.byte	0xd
 4458 0993 33       		.byte	0x33
 4459 0994 04090000 		.4byte	0x904
 4460 0998 05       		.uleb128 0x5
 4461 0999 8D090000 		.4byte	0x98d
 4462 099d 04       		.uleb128 0x4
 4463 099e AB020000 		.4byte	.LASF142
 4464 09a2 0D       		.byte	0xd
 4465 09a3 3F       		.byte	0x3f
 4466 09a4 A8090000 		.4byte	0x9a8
 4467 09a8 11       		.uleb128 0x11
 4468 09a9 E9070000 		.4byte	.LASF143
 4469 09ad 50       		.byte	0x50
 4470 09ae 0E       		.byte	0xe
 4471 09af C2       		.byte	0xc2
 4472 09b0 C60A0000 		.4byte	0xac6
 4473 09b4 0E       		.uleb128 0xe
 4474 09b5 6E0F0000 		.4byte	.LASF144
 4475 09b9 0E       		.byte	0xe
 4476 09ba C3       		.byte	0xc3
 4477 09bb D10A0000 		.4byte	0xad1
 4478 09bf 00       		.byte	0
 4479 09c0 0E       		.uleb128 0xe
 4480 09c1 380C0000 		.4byte	.LASF145
 4481 09c5 0E       		.byte	0xe
 4482 09c6 C5       		.byte	0xc5
 4483 09c7 D10A0000 		.4byte	0xad1
 4484 09cb 04       		.byte	0x4
 4485 09cc 0E       		.uleb128 0xe
 4486 09cd AC0E0000 		.4byte	.LASF146
 4487 09d1 0E       		.byte	0xe
 4488 09d2 C7       		.byte	0xc7
 4489 09d3 56090000 		.4byte	0x956
 4490 09d7 08       		.byte	0x8
 4491 09d8 0E       		.uleb128 0xe
ARM GAS  /tmp/ccqRaZSa.s 			page 80


 4492 09d9 71080000 		.4byte	.LASF147
 4493 09dd 0E       		.byte	0xe
 4494 09de C8       		.byte	0xc8
 4495 09df 45130000 		.4byte	0x1345
 4496 09e3 0C       		.byte	0xc
 4497 09e4 0E       		.uleb128 0xe
 4498 09e5 F8010000 		.4byte	.LASF148
 4499 09e9 0E       		.byte	0xe
 4500 09ea CA       		.byte	0xca
 4501 09eb D10A0000 		.4byte	0xad1
 4502 09ef 10       		.byte	0x10
 4503 09f0 0E       		.uleb128 0xe
 4504 09f1 D41D0000 		.4byte	.LASF149
 4505 09f5 0E       		.byte	0xe
 4506 09f6 CB       		.byte	0xcb
 4507 09f7 D10A0000 		.4byte	0xad1
 4508 09fb 14       		.byte	0x14
 4509 09fc 0E       		.uleb128 0xe
 4510 09fd 021C0000 		.4byte	.LASF150
 4511 0a01 0E       		.byte	0xe
 4512 0a02 D2       		.byte	0xd2
 4513 0a03 D0050000 		.4byte	0x5d0
 4514 0a07 18       		.byte	0x18
 4515 0a08 0E       		.uleb128 0xe
 4516 0a09 47170000 		.4byte	.LASF151
 4517 0a0d 0E       		.byte	0xe
 4518 0a0e D8       		.byte	0xd8
 4519 0a0f 8A150000 		.4byte	0x158a
 4520 0a13 1C       		.byte	0x1c
 4521 0a14 0E       		.uleb128 0xe
 4522 0a15 991F0000 		.4byte	.LASF152
 4523 0a19 0E       		.byte	0xe
 4524 0a1a DD       		.byte	0xdd
 4525 0a1b 35090000 		.4byte	0x935
 4526 0a1f 20       		.byte	0x20
 4527 0a20 0E       		.uleb128 0xe
 4528 0a21 591B0000 		.4byte	.LASF153
 4529 0a25 0E       		.byte	0xe
 4530 0a26 E1       		.byte	0xe1
 4531 0a27 2A090000 		.4byte	0x92a
 4532 0a2b 21       		.byte	0x21
 4533 0a2c 0E       		.uleb128 0xe
 4534 0a2d E5130000 		.4byte	.LASF154
 4535 0a31 0E       		.byte	0xe
 4536 0a32 E6       		.byte	0xe6
 4537 0a33 40090000 		.4byte	0x940
 4538 0a37 22       		.byte	0x22
 4539 0a38 0E       		.uleb128 0xe
 4540 0a39 1E120000 		.4byte	.LASF155
 4541 0a3d 0E       		.byte	0xe
 4542 0a3e EC       		.byte	0xec
 4543 0a3f 4B090000 		.4byte	0x94b
 4544 0a43 23       		.byte	0x23
 4545 0a44 0E       		.uleb128 0xe
 4546 0a45 28120000 		.4byte	.LASF156
 4547 0a49 0E       		.byte	0xe
 4548 0a4a F3       		.byte	0xf3
ARM GAS  /tmp/ccqRaZSa.s 			page 81


 4549 0a4b 98090000 		.4byte	0x998
 4550 0a4f 24       		.byte	0x24
 4551 0a50 21       		.uleb128 0x21
 4552 0a51 705F7500 		.ascii	"p_u\000"
 4553 0a55 0E       		.byte	0xe
 4554 0a56 3101     		.2byte	0x131
 4555 0a58 C5140000 		.4byte	0x14c5
 4556 0a5c 28       		.byte	0x28
 4557 0a5d 19       		.uleb128 0x19
 4558 0a5e 3C040000 		.4byte	.LASF157
 4559 0a62 0E       		.byte	0xe
 4560 0a63 3601     		.2byte	0x136
 4561 0a65 D70A0000 		.4byte	0xad7
 4562 0a69 2C       		.byte	0x2c
 4563 0a6a 19       		.uleb128 0x19
 4564 0a6b 85120000 		.4byte	.LASF158
 4565 0a6f 0E       		.byte	0xe
 4566 0a70 3C01     		.2byte	0x13c
 4567 0a72 FB0A0000 		.4byte	0xafb
 4568 0a76 30       		.byte	0x30
 4569 0a77 19       		.uleb128 0x19
 4570 0a78 53060000 		.4byte	.LASF159
 4571 0a7c 0E       		.byte	0xe
 4572 0a7d 4001     		.2byte	0x140
 4573 0a7f 61090000 		.4byte	0x961
 4574 0a83 38       		.byte	0x38
 4575 0a84 19       		.uleb128 0x19
 4576 0a85 7A190000 		.4byte	.LASF160
 4577 0a89 0E       		.byte	0xe
 4578 0a8a 4601     		.2byte	0x146
 4579 0a8c 6C090000 		.4byte	0x96c
 4580 0a90 3C       		.byte	0x3c
 4581 0a91 19       		.uleb128 0x19
 4582 0a92 7E1B0000 		.4byte	.LASF161
 4583 0a96 0E       		.byte	0xe
 4584 0a97 4D01     		.2byte	0x14d
 4585 0a99 84150000 		.4byte	0x1584
 4586 0a9d 40       		.byte	0x40
 4587 0a9e 19       		.uleb128 0x19
 4588 0a9f 52180000 		.4byte	.LASF162
 4589 0aa3 0E       		.byte	0xe
 4590 0aa4 5101     		.2byte	0x151
 4591 0aa6 56090000 		.4byte	0x956
 4592 0aaa 44       		.byte	0x44
 4593 0aab 19       		.uleb128 0x19
 4594 0aac C00F0000 		.4byte	.LASF163
 4595 0ab0 0E       		.byte	0xe
 4596 0ab1 5801     		.2byte	0x158
 4597 0ab3 50010000 		.4byte	0x150
 4598 0ab7 48       		.byte	0x48
 4599 0ab8 19       		.uleb128 0x19
 4600 0ab9 D6050000 		.4byte	.LASF164
 4601 0abd 0E       		.byte	0xe
 4602 0abe 6201     		.2byte	0x162
 4603 0ac0 2C000000 		.4byte	0x2c
 4604 0ac4 4C       		.byte	0x4c
 4605 0ac5 00       		.byte	0
ARM GAS  /tmp/ccqRaZSa.s 			page 82


 4606 0ac6 04       		.uleb128 0x4
 4607 0ac7 071E0000 		.4byte	.LASF165
 4608 0acb 0D       		.byte	0xd
 4609 0acc 44       		.byte	0x44
 4610 0acd D10A0000 		.4byte	0xad1
 4611 0ad1 06       		.uleb128 0x6
 4612 0ad2 04       		.byte	0x4
 4613 0ad3 9D090000 		.4byte	0x99d
 4614 0ad7 04       		.uleb128 0x4
 4615 0ad8 72040000 		.4byte	.LASF166
 4616 0adc 0D       		.byte	0xd
 4617 0add 49       		.byte	0x49
 4618 0ade E20A0000 		.4byte	0xae2
 4619 0ae2 11       		.uleb128 0x11
 4620 0ae3 A11F0000 		.4byte	.LASF167
 4621 0ae7 04       		.byte	0x4
 4622 0ae8 0E       		.byte	0xe
 4623 0ae9 B0       		.byte	0xb0
 4624 0aea FB0A0000 		.4byte	0xafb
 4625 0aee 0E       		.uleb128 0xe
 4626 0aef 6E0F0000 		.4byte	.LASF144
 4627 0af3 0E       		.byte	0xe
 4628 0af4 B1       		.byte	0xb1
 4629 0af5 D10A0000 		.4byte	0xad1
 4630 0af9 00       		.byte	0
 4631 0afa 00       		.byte	0
 4632 0afb 04       		.uleb128 0x4
 4633 0afc D5130000 		.4byte	.LASF168
 4634 0b00 0D       		.byte	0xd
 4635 0b01 50       		.byte	0x50
 4636 0b02 060B0000 		.4byte	0xb06
 4637 0b06 11       		.uleb128 0x11
 4638 0b07 D0010000 		.4byte	.LASF169
 4639 0b0b 08       		.byte	0x8
 4640 0b0c 0E       		.byte	0xe
 4641 0b0d B7       		.byte	0xb7
 4642 0b0e 2B0B0000 		.4byte	0xb2b
 4643 0b12 0E       		.uleb128 0xe
 4644 0b13 6E0F0000 		.4byte	.LASF144
 4645 0b17 0E       		.byte	0xe
 4646 0b18 B8       		.byte	0xb8
 4647 0b19 D10A0000 		.4byte	0xad1
 4648 0b1d 00       		.byte	0
 4649 0b1e 0E       		.uleb128 0xe
 4650 0b1f 380C0000 		.4byte	.LASF145
 4651 0b23 0E       		.byte	0xe
 4652 0b24 B9       		.byte	0xb9
 4653 0b25 D10A0000 		.4byte	0xad1
 4654 0b29 04       		.byte	0x4
 4655 0b2a 00       		.byte	0
 4656 0b2b 04       		.uleb128 0x4
 4657 0b2c DC070000 		.4byte	.LASF170
 4658 0b30 0D       		.byte	0xd
 4659 0b31 57       		.byte	0x57
 4660 0b32 360B0000 		.4byte	0xb36
 4661 0b36 1B       		.uleb128 0x1b
 4662 0b37 D3180000 		.4byte	.LASF171
ARM GAS  /tmp/ccqRaZSa.s 			page 83


 4663 0b3b 1C       		.byte	0x1c
 4664 0b3c 0E       		.byte	0xe
 4665 0b3d 9001     		.2byte	0x190
 4666 0b3f 920B0000 		.4byte	0xb92
 4667 0b43 19       		.uleb128 0x19
 4668 0b44 2E160000 		.4byte	.LASF172
 4669 0b48 0E       		.byte	0xe
 4670 0b49 9101     		.2byte	0x191
 4671 0b4b FB0A0000 		.4byte	0xafb
 4672 0b4f 00       		.byte	0
 4673 0b50 19       		.uleb128 0x19
 4674 0b51 5D1A0000 		.4byte	.LASF173
 4675 0b55 0E       		.byte	0xe
 4676 0b56 9201     		.2byte	0x192
 4677 0b58 56090000 		.4byte	0x956
 4678 0b5c 08       		.byte	0x8
 4679 0b5d 19       		.uleb128 0x19
 4680 0b5e 700B0000 		.4byte	.LASF174
 4681 0b62 0E       		.byte	0xe
 4682 0b63 9401     		.2byte	0x194
 4683 0b65 45130000 		.4byte	0x1345
 4684 0b69 0C       		.byte	0xc
 4685 0b6a 19       		.uleb128 0x19
 4686 0b6b C9100000 		.4byte	.LASF175
 4687 0b6f 0E       		.byte	0xe
 4688 0b70 9701     		.2byte	0x197
 4689 0b72 D10A0000 		.4byte	0xad1
 4690 0b76 10       		.byte	0x10
 4691 0b77 19       		.uleb128 0x19
 4692 0b78 300C0000 		.4byte	.LASF176
 4693 0b7c 0E       		.byte	0xe
 4694 0b7d 9801     		.2byte	0x198
 4695 0b7f D10A0000 		.4byte	0xad1
 4696 0b83 14       		.byte	0x14
 4697 0b84 19       		.uleb128 0x19
 4698 0b85 F80D0000 		.4byte	.LASF177
 4699 0b89 0E       		.byte	0xe
 4700 0b8a 9B01     		.2byte	0x19b
 4701 0b8c D10A0000 		.4byte	0xad1
 4702 0b90 18       		.byte	0x18
 4703 0b91 00       		.byte	0
 4704 0b92 04       		.uleb128 0x4
 4705 0b93 1C180000 		.4byte	.LASF178
 4706 0b97 0D       		.byte	0xd
 4707 0b98 5C       		.byte	0x5c
 4708 0b99 9D0B0000 		.4byte	0xb9d
 4709 0b9d 06       		.uleb128 0x6
 4710 0b9e 04       		.byte	0x4
 4711 0b9f A30B0000 		.4byte	0xba3
 4712 0ba3 1F       		.uleb128 0x1f
 4713 0ba4 AE0B0000 		.4byte	0xbae
 4714 0ba8 17       		.uleb128 0x17
 4715 0ba9 50010000 		.4byte	0x150
 4716 0bad 00       		.byte	0
 4717 0bae 04       		.uleb128 0x4
 4718 0baf 600B0000 		.4byte	.LASF179
 4719 0bb3 0D       		.byte	0xd
ARM GAS  /tmp/ccqRaZSa.s 			page 84


 4720 0bb4 61       		.byte	0x61
 4721 0bb5 B90B0000 		.4byte	0xbb9
 4722 0bb9 1B       		.uleb128 0x1b
 4723 0bba 481B0000 		.4byte	.LASF180
 4724 0bbe 14       		.byte	0x14
 4725 0bbf 0E       		.byte	0xe
 4726 0bc0 6B01     		.2byte	0x16b
 4727 0bc2 080C0000 		.4byte	0xc08
 4728 0bc6 19       		.uleb128 0x19
 4729 0bc7 760B0000 		.4byte	.LASF181
 4730 0bcb 0E       		.byte	0xe
 4731 0bcc 6C01     		.2byte	0x16c
 4732 0bce 90150000 		.4byte	0x1590
 4733 0bd2 00       		.byte	0
 4734 0bd3 19       		.uleb128 0x19
 4735 0bd4 91070000 		.4byte	.LASF182
 4736 0bd8 0E       		.byte	0xe
 4737 0bd9 6D01     		.2byte	0x16d
 4738 0bdb 90150000 		.4byte	0x1590
 4739 0bdf 04       		.byte	0x4
 4740 0be0 19       		.uleb128 0x19
 4741 0be1 BA110000 		.4byte	.LASF183
 4742 0be5 0E       		.byte	0xe
 4743 0be6 6E01     		.2byte	0x16e
 4744 0be8 8D090000 		.4byte	0x98d
 4745 0bec 08       		.byte	0x8
 4746 0bed 19       		.uleb128 0x19
 4747 0bee 251B0000 		.4byte	.LASF184
 4748 0bf2 0E       		.byte	0xe
 4749 0bf3 6F01     		.2byte	0x16f
 4750 0bf5 920B0000 		.4byte	0xb92
 4751 0bf9 0C       		.byte	0xc
 4752 0bfa 19       		.uleb128 0x19
 4753 0bfb 77080000 		.4byte	.LASF185
 4754 0bff 0E       		.byte	0xe
 4755 0c00 7101     		.2byte	0x171
 4756 0c02 50010000 		.4byte	0x150
 4757 0c06 10       		.byte	0x10
 4758 0c07 00       		.byte	0
 4759 0c08 04       		.uleb128 0x4
 4760 0c09 771C0000 		.4byte	.LASF186
 4761 0c0d 0D       		.byte	0xd
 4762 0c0e 66       		.byte	0x66
 4763 0c0f 130C0000 		.4byte	0xc13
 4764 0c13 1B       		.uleb128 0x1b
 4765 0c14 CA020000 		.4byte	.LASF187
 4766 0c18 10       		.byte	0x10
 4767 0c19 0E       		.byte	0xe
 4768 0c1a 7B01     		.2byte	0x17b
 4769 0c1c 550C0000 		.4byte	0xc55
 4770 0c20 19       		.uleb128 0x19
 4771 0c21 760B0000 		.4byte	.LASF181
 4772 0c25 0E       		.byte	0xe
 4773 0c26 7C01     		.2byte	0x17c
 4774 0c28 90150000 		.4byte	0x1590
 4775 0c2c 00       		.byte	0
 4776 0c2d 19       		.uleb128 0x19
ARM GAS  /tmp/ccqRaZSa.s 			page 85


 4777 0c2e 91070000 		.4byte	.LASF182
 4778 0c32 0E       		.byte	0xe
 4779 0c33 7E01     		.2byte	0x17e
 4780 0c35 90150000 		.4byte	0x1590
 4781 0c39 04       		.byte	0x4
 4782 0c3a 19       		.uleb128 0x19
 4783 0c3b BA110000 		.4byte	.LASF183
 4784 0c3f 0E       		.byte	0xe
 4785 0c40 8001     		.2byte	0x180
 4786 0c42 8D090000 		.4byte	0x98d
 4787 0c46 08       		.byte	0x8
 4788 0c47 19       		.uleb128 0x19
 4789 0c48 FE000000 		.4byte	.LASF188
 4790 0c4c 0E       		.byte	0xe
 4791 0c4d 8201     		.2byte	0x182
 4792 0c4f 98090000 		.4byte	0x998
 4793 0c53 0C       		.byte	0xc
 4794 0c54 00       		.byte	0
 4795 0c55 04       		.uleb128 0x4
 4796 0c56 53080000 		.4byte	.LASF189
 4797 0c5a 0D       		.byte	0xd
 4798 0c5b 6B       		.byte	0x6b
 4799 0c5c 600C0000 		.4byte	0xc60
 4800 0c60 1B       		.uleb128 0x1b
 4801 0c61 02190000 		.4byte	.LASF190
 4802 0c65 04       		.byte	0x4
 4803 0c66 0E       		.byte	0xe
 4804 0c67 A201     		.2byte	0x1a2
 4805 0c69 7B0C0000 		.4byte	0xc7b
 4806 0c6d 19       		.uleb128 0x19
 4807 0c6e B2100000 		.4byte	.LASF191
 4808 0c72 0E       		.byte	0xe
 4809 0c73 AA01     		.2byte	0x1aa
 4810 0c75 D6050000 		.4byte	0x5d6
 4811 0c79 00       		.byte	0
 4812 0c7a 00       		.byte	0
 4813 0c7b 04       		.uleb128 0x4
 4814 0c7c 8F000000 		.4byte	.LASF192
 4815 0c80 0D       		.byte	0xd
 4816 0c81 70       		.byte	0x70
 4817 0c82 860C0000 		.4byte	0xc86
 4818 0c86 18       		.uleb128 0x18
 4819 0c87 4A130000 		.4byte	.LASF193
 4820 0c8b 6802     		.2byte	0x268
 4821 0c8d 0E       		.byte	0xe
 4822 0c8e C201     		.2byte	0x1c2
 4823 0c90 E20C0000 		.4byte	0xce2
 4824 0c94 19       		.uleb128 0x19
 4825 0c95 6C040000 		.4byte	.LASF194
 4826 0c99 0E       		.byte	0xe
 4827 0c9a C601     		.2byte	0x1c6
 4828 0c9c 2B0B0000 		.4byte	0xb2b
 4829 0ca0 00       		.byte	0
 4830 0ca1 19       		.uleb128 0x19
 4831 0ca2 1C040000 		.4byte	.LASF195
 4832 0ca6 0E       		.byte	0xe
 4833 0ca7 CA01     		.2byte	0x1ca
ARM GAS  /tmp/ccqRaZSa.s 			page 86


 4834 0ca9 080C0000 		.4byte	0xc08
 4835 0cad 1C       		.byte	0x1c
 4836 0cae 21       		.uleb128 0x21
 4837 0caf 64626700 		.ascii	"dbg\000"
 4838 0cb3 0E       		.byte	0xe
 4839 0cb4 CE01     		.2byte	0x1ce
 4840 0cb6 550C0000 		.4byte	0xc55
 4841 0cba 2C       		.byte	0x2c
 4842 0cbb 19       		.uleb128 0x19
 4843 0cbc 15140000 		.4byte	.LASF196
 4844 0cc0 0E       		.byte	0xe
 4845 0cc1 D201     		.2byte	0x1d2
 4846 0cc3 9D090000 		.4byte	0x99d
 4847 0cc7 30       		.byte	0x30
 4848 0cc8 21       		.uleb128 0x21
 4849 0cc9 746D00   		.ascii	"tm\000"
 4850 0ccc 0E       		.byte	0xe
 4851 0ccd D701     		.2byte	0x1d7
 4852 0ccf BA140000 		.4byte	0x14ba
 4853 0cd3 80       		.byte	0x80
 4854 0cd4 19       		.uleb128 0x19
 4855 0cd5 F71A0000 		.4byte	.LASF197
 4856 0cd9 0E       		.byte	0xe
 4857 0cda E301     		.2byte	0x1e3
 4858 0cdc 96150000 		.4byte	0x1596
 4859 0ce0 88       		.byte	0x88
 4860 0ce1 00       		.byte	0
 4861 0ce2 0B       		.uleb128 0xb
 4862 0ce3 04090000 		.4byte	0x904
 4863 0ce7 F20C0000 		.4byte	0xcf2
 4864 0ceb 0C       		.uleb128 0xc
 4865 0cec 25000000 		.4byte	0x25
 4866 0cf0 01       		.byte	0x1
 4867 0cf1 00       		.byte	0
 4868 0cf2 0B       		.uleb128 0xb
 4869 0cf3 04090000 		.4byte	0x904
 4870 0cf7 020D0000 		.4byte	0xd02
 4871 0cfb 0C       		.uleb128 0xc
 4872 0cfc 25000000 		.4byte	0x25
 4873 0d00 07       		.byte	0x7
 4874 0d01 00       		.byte	0
 4875 0d02 20       		.uleb128 0x20
 4876 0d03 6B1A0000 		.4byte	.LASF198
 4877 0d07 0F       		.byte	0xf
 4878 0d08 A706     		.2byte	0x6a7
 4879 0d0a FF080000 		.4byte	0x8ff
 4880 0d0e 22       		.uleb128 0x22
 4881 0d0f B9120000 		.4byte	.LASF199
 4882 0d13 10       		.byte	0x10
 4883 0d14 4C       		.byte	0x4c
 4884 0d15 04090000 		.4byte	0x904
 4885 0d19 0D       		.uleb128 0xd
 4886 0d1a 10       		.byte	0x10
 4887 0d1b 11       		.byte	0x11
 4888 0d1c E9       		.byte	0xe9
 4889 0d1d 520D0000 		.4byte	0xd52
 4890 0d21 12       		.uleb128 0x12
ARM GAS  /tmp/ccqRaZSa.s 			page 87


 4891 0d22 54495200 		.ascii	"TIR\000"
 4892 0d26 11       		.byte	0x11
 4893 0d27 EB       		.byte	0xeb
 4894 0d28 0F090000 		.4byte	0x90f
 4895 0d2c 00       		.byte	0
 4896 0d2d 0E       		.uleb128 0xe
 4897 0d2e 5E0E0000 		.4byte	.LASF200
 4898 0d32 11       		.byte	0x11
 4899 0d33 EC       		.byte	0xec
 4900 0d34 0F090000 		.4byte	0x90f
 4901 0d38 04       		.byte	0x4
 4902 0d39 0E       		.uleb128 0xe
 4903 0d3a 07140000 		.4byte	.LASF201
 4904 0d3e 11       		.byte	0x11
 4905 0d3f ED       		.byte	0xed
 4906 0d40 0F090000 		.4byte	0x90f
 4907 0d44 08       		.byte	0x8
 4908 0d45 0E       		.uleb128 0xe
 4909 0d46 2F120000 		.4byte	.LASF202
 4910 0d4a 11       		.byte	0x11
 4911 0d4b EE       		.byte	0xee
 4912 0d4c 0F090000 		.4byte	0x90f
 4913 0d50 0C       		.byte	0xc
 4914 0d51 00       		.byte	0
 4915 0d52 04       		.uleb128 0x4
 4916 0d53 56040000 		.4byte	.LASF203
 4917 0d57 11       		.byte	0x11
 4918 0d58 EF       		.byte	0xef
 4919 0d59 190D0000 		.4byte	0xd19
 4920 0d5d 0D       		.uleb128 0xd
 4921 0d5e 10       		.byte	0x10
 4922 0d5f 11       		.byte	0x11
 4923 0d60 F5       		.byte	0xf5
 4924 0d61 960D0000 		.4byte	0xd96
 4925 0d65 12       		.uleb128 0x12
 4926 0d66 52495200 		.ascii	"RIR\000"
 4927 0d6a 11       		.byte	0x11
 4928 0d6b F7       		.byte	0xf7
 4929 0d6c 0F090000 		.4byte	0x90f
 4930 0d70 00       		.byte	0
 4931 0d71 0E       		.uleb128 0xe
 4932 0d72 B2180000 		.4byte	.LASF204
 4933 0d76 11       		.byte	0x11
 4934 0d77 F8       		.byte	0xf8
 4935 0d78 0F090000 		.4byte	0x90f
 4936 0d7c 04       		.byte	0x4
 4937 0d7d 0E       		.uleb128 0xe
 4938 0d7e 1C150000 		.4byte	.LASF205
 4939 0d82 11       		.byte	0x11
 4940 0d83 F9       		.byte	0xf9
 4941 0d84 0F090000 		.4byte	0x90f
 4942 0d88 08       		.byte	0x8
 4943 0d89 0E       		.uleb128 0xe
 4944 0d8a 40130000 		.4byte	.LASF206
 4945 0d8e 11       		.byte	0x11
 4946 0d8f FA       		.byte	0xfa
 4947 0d90 0F090000 		.4byte	0x90f
ARM GAS  /tmp/ccqRaZSa.s 			page 88


 4948 0d94 0C       		.byte	0xc
 4949 0d95 00       		.byte	0
 4950 0d96 04       		.uleb128 0x4
 4951 0d97 25180000 		.4byte	.LASF207
 4952 0d9b 11       		.byte	0x11
 4953 0d9c FB       		.byte	0xfb
 4954 0d9d 5D0D0000 		.4byte	0xd5d
 4955 0da1 1C       		.uleb128 0x1c
 4956 0da2 08       		.byte	0x8
 4957 0da3 11       		.byte	0x11
 4958 0da4 0101     		.2byte	0x101
 4959 0da6 C50D0000 		.4byte	0xdc5
 4960 0daa 21       		.uleb128 0x21
 4961 0dab 46523100 		.ascii	"FR1\000"
 4962 0daf 11       		.byte	0x11
 4963 0db0 0301     		.2byte	0x103
 4964 0db2 0F090000 		.4byte	0x90f
 4965 0db6 00       		.byte	0
 4966 0db7 21       		.uleb128 0x21
 4967 0db8 46523200 		.ascii	"FR2\000"
 4968 0dbc 11       		.byte	0x11
 4969 0dbd 0401     		.2byte	0x104
 4970 0dbf 0F090000 		.4byte	0x90f
 4971 0dc3 04       		.byte	0x4
 4972 0dc4 00       		.byte	0
 4973 0dc5 08       		.uleb128 0x8
 4974 0dc6 760E0000 		.4byte	.LASF208
 4975 0dca 11       		.byte	0x11
 4976 0dcb 0501     		.2byte	0x105
 4977 0dcd A10D0000 		.4byte	0xda1
 4978 0dd1 23       		.uleb128 0x23
 4979 0dd2 2003     		.2byte	0x320
 4980 0dd4 11       		.byte	0x11
 4981 0dd5 0B01     		.2byte	0x10b
 4982 0dd7 070F0000 		.4byte	0xf07
 4983 0ddb 21       		.uleb128 0x21
 4984 0ddc 4D435200 		.ascii	"MCR\000"
 4985 0de0 11       		.byte	0x11
 4986 0de1 0D01     		.2byte	0x10d
 4987 0de3 0F090000 		.4byte	0x90f
 4988 0de7 00       		.byte	0
 4989 0de8 21       		.uleb128 0x21
 4990 0de9 4D535200 		.ascii	"MSR\000"
 4991 0ded 11       		.byte	0x11
 4992 0dee 0E01     		.2byte	0x10e
 4993 0df0 0F090000 		.4byte	0x90f
 4994 0df4 04       		.byte	0x4
 4995 0df5 21       		.uleb128 0x21
 4996 0df6 54535200 		.ascii	"TSR\000"
 4997 0dfa 11       		.byte	0x11
 4998 0dfb 0F01     		.2byte	0x10f
 4999 0dfd 0F090000 		.4byte	0x90f
 5000 0e01 08       		.byte	0x8
 5001 0e02 19       		.uleb128 0x19
 5002 0e03 070D0000 		.4byte	.LASF209
 5003 0e07 11       		.byte	0x11
 5004 0e08 1001     		.2byte	0x110
ARM GAS  /tmp/ccqRaZSa.s 			page 89


 5005 0e0a 0F090000 		.4byte	0x90f
 5006 0e0e 0C       		.byte	0xc
 5007 0e0f 19       		.uleb128 0x19
 5008 0e10 56150000 		.4byte	.LASF210
 5009 0e14 11       		.byte	0x11
 5010 0e15 1101     		.2byte	0x111
 5011 0e17 0F090000 		.4byte	0x90f
 5012 0e1b 10       		.byte	0x10
 5013 0e1c 21       		.uleb128 0x21
 5014 0e1d 49455200 		.ascii	"IER\000"
 5015 0e21 11       		.byte	0x11
 5016 0e22 1201     		.2byte	0x112
 5017 0e24 0F090000 		.4byte	0x90f
 5018 0e28 14       		.byte	0x14
 5019 0e29 21       		.uleb128 0x21
 5020 0e2a 45535200 		.ascii	"ESR\000"
 5021 0e2e 11       		.byte	0x11
 5022 0e2f 1301     		.2byte	0x113
 5023 0e31 0F090000 		.4byte	0x90f
 5024 0e35 18       		.byte	0x18
 5025 0e36 21       		.uleb128 0x21
 5026 0e37 42545200 		.ascii	"BTR\000"
 5027 0e3b 11       		.byte	0x11
 5028 0e3c 1401     		.2byte	0x114
 5029 0e3e 0F090000 		.4byte	0x90f
 5030 0e42 1C       		.byte	0x1c
 5031 0e43 19       		.uleb128 0x19
 5032 0e44 B5190000 		.4byte	.LASF211
 5033 0e48 11       		.byte	0x11
 5034 0e49 1501     		.2byte	0x115
 5035 0e4b 070F0000 		.4byte	0xf07
 5036 0e4f 20       		.byte	0x20
 5037 0e50 1A       		.uleb128 0x1a
 5038 0e51 460F0000 		.4byte	.LASF212
 5039 0e55 11       		.byte	0x11
 5040 0e56 1601     		.2byte	0x116
 5041 0e58 170F0000 		.4byte	0xf17
 5042 0e5c 8001     		.2byte	0x180
 5043 0e5e 1A       		.uleb128 0x1a
 5044 0e5f A31D0000 		.4byte	.LASF213
 5045 0e63 11       		.byte	0x11
 5046 0e64 1701     		.2byte	0x117
 5047 0e66 270F0000 		.4byte	0xf27
 5048 0e6a B001     		.2byte	0x1b0
 5049 0e6c 1A       		.uleb128 0x1a
 5050 0e6d BF190000 		.4byte	.LASF214
 5051 0e71 11       		.byte	0x11
 5052 0e72 1801     		.2byte	0x118
 5053 0e74 370F0000 		.4byte	0xf37
 5054 0e78 D001     		.2byte	0x1d0
 5055 0e7a 24       		.uleb128 0x24
 5056 0e7b 464D5200 		.ascii	"FMR\000"
 5057 0e7f 11       		.byte	0x11
 5058 0e80 1901     		.2byte	0x119
 5059 0e82 0F090000 		.4byte	0x90f
 5060 0e86 0002     		.2byte	0x200
 5061 0e88 1A       		.uleb128 0x1a
ARM GAS  /tmp/ccqRaZSa.s 			page 90


 5062 0e89 F5080000 		.4byte	.LASF215
 5063 0e8d 11       		.byte	0x11
 5064 0e8e 1A01     		.2byte	0x11a
 5065 0e90 0F090000 		.4byte	0x90f
 5066 0e94 0402     		.2byte	0x204
 5067 0e96 1A       		.uleb128 0x1a
 5068 0e97 C9190000 		.4byte	.LASF216
 5069 0e9b 11       		.byte	0x11
 5070 0e9c 1B01     		.2byte	0x11b
 5071 0e9e 04090000 		.4byte	0x904
 5072 0ea2 0802     		.2byte	0x208
 5073 0ea4 1A       		.uleb128 0x1a
 5074 0ea5 8E1B0000 		.4byte	.LASF217
 5075 0ea9 11       		.byte	0x11
 5076 0eaa 1C01     		.2byte	0x11c
 5077 0eac 0F090000 		.4byte	0x90f
 5078 0eb0 0C02     		.2byte	0x20c
 5079 0eb2 1A       		.uleb128 0x1a
 5080 0eb3 D3190000 		.4byte	.LASF218
 5081 0eb7 11       		.byte	0x11
 5082 0eb8 1D01     		.2byte	0x11d
 5083 0eba 04090000 		.4byte	0x904
 5084 0ebe 1002     		.2byte	0x210
 5085 0ec0 1A       		.uleb128 0x1a
 5086 0ec1 50150000 		.4byte	.LASF219
 5087 0ec5 11       		.byte	0x11
 5088 0ec6 1E01     		.2byte	0x11e
 5089 0ec8 0F090000 		.4byte	0x90f
 5090 0ecc 1402     		.2byte	0x214
 5091 0ece 1A       		.uleb128 0x1a
 5092 0ecf DD190000 		.4byte	.LASF220
 5093 0ed3 11       		.byte	0x11
 5094 0ed4 1F01     		.2byte	0x11f
 5095 0ed6 04090000 		.4byte	0x904
 5096 0eda 1802     		.2byte	0x218
 5097 0edc 1A       		.uleb128 0x1a
 5098 0edd 4C030000 		.4byte	.LASF221
 5099 0ee1 11       		.byte	0x11
 5100 0ee2 2001     		.2byte	0x120
 5101 0ee4 0F090000 		.4byte	0x90f
 5102 0ee8 1C02     		.2byte	0x21c
 5103 0eea 1A       		.uleb128 0x1a
 5104 0eeb E7190000 		.4byte	.LASF222
 5105 0eef 11       		.byte	0x11
 5106 0ef0 2101     		.2byte	0x121
 5107 0ef2 F20C0000 		.4byte	0xcf2
 5108 0ef6 2002     		.2byte	0x220
 5109 0ef8 1A       		.uleb128 0x1a
 5110 0ef9 EB040000 		.4byte	.LASF223
 5111 0efd 11       		.byte	0x11
 5112 0efe 2201     		.2byte	0x122
 5113 0f00 470F0000 		.4byte	0xf47
 5114 0f04 4002     		.2byte	0x240
 5115 0f06 00       		.byte	0
 5116 0f07 0B       		.uleb128 0xb
 5117 0f08 04090000 		.4byte	0x904
 5118 0f0c 170F0000 		.4byte	0xf17
ARM GAS  /tmp/ccqRaZSa.s 			page 91


 5119 0f10 0C       		.uleb128 0xc
 5120 0f11 25000000 		.4byte	0x25
 5121 0f15 57       		.byte	0x57
 5122 0f16 00       		.byte	0
 5123 0f17 0B       		.uleb128 0xb
 5124 0f18 520D0000 		.4byte	0xd52
 5125 0f1c 270F0000 		.4byte	0xf27
 5126 0f20 0C       		.uleb128 0xc
 5127 0f21 25000000 		.4byte	0x25
 5128 0f25 02       		.byte	0x2
 5129 0f26 00       		.byte	0
 5130 0f27 0B       		.uleb128 0xb
 5131 0f28 960D0000 		.4byte	0xd96
 5132 0f2c 370F0000 		.4byte	0xf37
 5133 0f30 0C       		.uleb128 0xc
 5134 0f31 25000000 		.4byte	0x25
 5135 0f35 01       		.byte	0x1
 5136 0f36 00       		.byte	0
 5137 0f37 0B       		.uleb128 0xb
 5138 0f38 04090000 		.4byte	0x904
 5139 0f3c 470F0000 		.4byte	0xf47
 5140 0f40 0C       		.uleb128 0xc
 5141 0f41 25000000 		.4byte	0x25
 5142 0f45 0B       		.byte	0xb
 5143 0f46 00       		.byte	0
 5144 0f47 0B       		.uleb128 0xb
 5145 0f48 C50D0000 		.4byte	0xdc5
 5146 0f4c 570F0000 		.4byte	0xf57
 5147 0f50 0C       		.uleb128 0xc
 5148 0f51 25000000 		.4byte	0x25
 5149 0f55 1B       		.byte	0x1b
 5150 0f56 00       		.byte	0
 5151 0f57 08       		.uleb128 0x8
 5152 0f58 AC0B0000 		.4byte	.LASF224
 5153 0f5c 11       		.byte	0x11
 5154 0f5d 2301     		.2byte	0x123
 5155 0f5f D10D0000 		.4byte	0xdd1
 5156 0f63 1C       		.uleb128 0x1c
 5157 0f64 18       		.byte	0x18
 5158 0f65 11       		.byte	0x11
 5159 0f66 6B01     		.2byte	0x16b
 5160 0f68 BA0F0000 		.4byte	0xfba
 5161 0f6c 21       		.uleb128 0x21
 5162 0f6d 435200   		.ascii	"CR\000"
 5163 0f70 11       		.byte	0x11
 5164 0f71 6D01     		.2byte	0x16d
 5165 0f73 0F090000 		.4byte	0x90f
 5166 0f77 00       		.byte	0
 5167 0f78 19       		.uleb128 0x19
 5168 0f79 D31A0000 		.4byte	.LASF225
 5169 0f7d 11       		.byte	0x11
 5170 0f7e 6E01     		.2byte	0x16e
 5171 0f80 0F090000 		.4byte	0x90f
 5172 0f84 04       		.byte	0x4
 5173 0f85 21       		.uleb128 0x21
 5174 0f86 50415200 		.ascii	"PAR\000"
 5175 0f8a 11       		.byte	0x11
ARM GAS  /tmp/ccqRaZSa.s 			page 92


 5176 0f8b 6F01     		.2byte	0x16f
 5177 0f8d 0F090000 		.4byte	0x90f
 5178 0f91 08       		.byte	0x8
 5179 0f92 19       		.uleb128 0x19
 5180 0f93 1D030000 		.4byte	.LASF226
 5181 0f97 11       		.byte	0x11
 5182 0f98 7001     		.2byte	0x170
 5183 0f9a 0F090000 		.4byte	0x90f
 5184 0f9e 0C       		.byte	0xc
 5185 0f9f 19       		.uleb128 0x19
 5186 0fa0 87060000 		.4byte	.LASF227
 5187 0fa4 11       		.byte	0x11
 5188 0fa5 7101     		.2byte	0x171
 5189 0fa7 0F090000 		.4byte	0x90f
 5190 0fab 10       		.byte	0x10
 5191 0fac 21       		.uleb128 0x21
 5192 0fad 46435200 		.ascii	"FCR\000"
 5193 0fb1 11       		.byte	0x11
 5194 0fb2 7201     		.2byte	0x172
 5195 0fb4 0F090000 		.4byte	0x90f
 5196 0fb8 14       		.byte	0x14
 5197 0fb9 00       		.byte	0
 5198 0fba 08       		.uleb128 0x8
 5199 0fbb 91060000 		.4byte	.LASF228
 5200 0fbf 11       		.byte	0x11
 5201 0fc0 7301     		.2byte	0x173
 5202 0fc2 630F0000 		.4byte	0xf63
 5203 0fc6 0B       		.uleb128 0xb
 5204 0fc7 0F090000 		.4byte	0x90f
 5205 0fcb D60F0000 		.4byte	0xfd6
 5206 0fcf 0C       		.uleb128 0xc
 5207 0fd0 25000000 		.4byte	0x25
 5208 0fd4 01       		.byte	0x1
 5209 0fd5 00       		.byte	0
 5210 0fd6 05       		.uleb128 0x5
 5211 0fd7 C60F0000 		.4byte	0xfc6
 5212 0fdb 0B       		.uleb128 0xb
 5213 0fdc 0F090000 		.4byte	0x90f
 5214 0fe0 EB0F0000 		.4byte	0xfeb
 5215 0fe4 0C       		.uleb128 0xc
 5216 0fe5 25000000 		.4byte	0x25
 5217 0fe9 03       		.byte	0x3
 5218 0fea 00       		.byte	0
 5219 0feb 05       		.uleb128 0x5
 5220 0fec DB0F0000 		.4byte	0xfdb
 5221 0ff0 1C       		.uleb128 0x1c
 5222 0ff1 28       		.byte	0x28
 5223 0ff2 11       		.byte	0x11
 5224 0ff3 3F02     		.2byte	0x23f
 5225 0ff5 7B100000 		.4byte	0x107b
 5226 0ff9 21       		.uleb128 0x21
 5227 0ffa 43523100 		.ascii	"CR1\000"
 5228 0ffe 11       		.byte	0x11
 5229 0fff 4102     		.2byte	0x241
 5230 1001 0F090000 		.4byte	0x90f
 5231 1005 00       		.byte	0
 5232 1006 21       		.uleb128 0x21
ARM GAS  /tmp/ccqRaZSa.s 			page 93


 5233 1007 43523200 		.ascii	"CR2\000"
 5234 100b 11       		.byte	0x11
 5235 100c 4202     		.2byte	0x242
 5236 100e 0F090000 		.4byte	0x90f
 5237 1012 04       		.byte	0x4
 5238 1013 19       		.uleb128 0x19
 5239 1014 B11F0000 		.4byte	.LASF229
 5240 1018 11       		.byte	0x11
 5241 1019 4302     		.2byte	0x243
 5242 101b 0F090000 		.4byte	0x90f
 5243 101f 08       		.byte	0x8
 5244 1020 19       		.uleb128 0x19
 5245 1021 B61F0000 		.4byte	.LASF230
 5246 1025 11       		.byte	0x11
 5247 1026 4402     		.2byte	0x244
 5248 1028 0F090000 		.4byte	0x90f
 5249 102c 0C       		.byte	0xc
 5250 102d 21       		.uleb128 0x21
 5251 102e 445200   		.ascii	"DR\000"
 5252 1031 11       		.byte	0x11
 5253 1032 4502     		.2byte	0x245
 5254 1034 0F090000 		.4byte	0x90f
 5255 1038 10       		.byte	0x10
 5256 1039 21       		.uleb128 0x21
 5257 103a 53523100 		.ascii	"SR1\000"
 5258 103e 11       		.byte	0x11
 5259 103f 4602     		.2byte	0x246
 5260 1041 0F090000 		.4byte	0x90f
 5261 1045 14       		.byte	0x14
 5262 1046 21       		.uleb128 0x21
 5263 1047 53523200 		.ascii	"SR2\000"
 5264 104b 11       		.byte	0x11
 5265 104c 4702     		.2byte	0x247
 5266 104e 0F090000 		.4byte	0x90f
 5267 1052 18       		.byte	0x18
 5268 1053 21       		.uleb128 0x21
 5269 1054 43435200 		.ascii	"CCR\000"
 5270 1058 11       		.byte	0x11
 5271 1059 4802     		.2byte	0x248
 5272 105b 0F090000 		.4byte	0x90f
 5273 105f 1C       		.byte	0x1c
 5274 1060 19       		.uleb128 0x19
 5275 1061 2D040000 		.4byte	.LASF231
 5276 1065 11       		.byte	0x11
 5277 1066 4902     		.2byte	0x249
 5278 1068 0F090000 		.4byte	0x90f
 5279 106c 20       		.byte	0x20
 5280 106d 19       		.uleb128 0x19
 5281 106e 871E0000 		.4byte	.LASF232
 5282 1072 11       		.byte	0x11
 5283 1073 4A02     		.2byte	0x24a
 5284 1075 0F090000 		.4byte	0x90f
 5285 1079 24       		.byte	0x24
 5286 107a 00       		.byte	0
 5287 107b 08       		.uleb128 0x8
 5288 107c C80F0000 		.4byte	.LASF233
 5289 1080 11       		.byte	0x11
ARM GAS  /tmp/ccqRaZSa.s 			page 94


 5290 1081 4B02     		.2byte	0x24b
 5291 1083 F00F0000 		.4byte	0xff0
 5292 1087 1C       		.uleb128 0x1c
 5293 1088 88       		.byte	0x88
 5294 1089 11       		.byte	0x11
 5295 108a 6702     		.2byte	0x267
 5296 108c 16120000 		.4byte	0x1216
 5297 1090 21       		.uleb128 0x21
 5298 1091 435200   		.ascii	"CR\000"
 5299 1094 11       		.byte	0x11
 5300 1095 6902     		.2byte	0x269
 5301 1097 0F090000 		.4byte	0x90f
 5302 109b 00       		.byte	0
 5303 109c 19       		.uleb128 0x19
 5304 109d 14180000 		.4byte	.LASF234
 5305 10a1 11       		.byte	0x11
 5306 10a2 6A02     		.2byte	0x26a
 5307 10a4 0F090000 		.4byte	0x90f
 5308 10a8 04       		.byte	0x4
 5309 10a9 19       		.uleb128 0x19
 5310 10aa 95110000 		.4byte	.LASF235
 5311 10ae 11       		.byte	0x11
 5312 10af 6B02     		.2byte	0x26b
 5313 10b1 0F090000 		.4byte	0x90f
 5314 10b5 08       		.byte	0x8
 5315 10b6 21       		.uleb128 0x21
 5316 10b7 43495200 		.ascii	"CIR\000"
 5317 10bb 11       		.byte	0x11
 5318 10bc 6C02     		.2byte	0x26c
 5319 10be 0F090000 		.4byte	0x90f
 5320 10c2 0C       		.byte	0xc
 5321 10c3 19       		.uleb128 0x19
 5322 10c4 7E1F0000 		.4byte	.LASF236
 5323 10c8 11       		.byte	0x11
 5324 10c9 6D02     		.2byte	0x26d
 5325 10cb 0F090000 		.4byte	0x90f
 5326 10cf 10       		.byte	0x10
 5327 10d0 19       		.uleb128 0x19
 5328 10d1 B7090000 		.4byte	.LASF237
 5329 10d5 11       		.byte	0x11
 5330 10d6 6E02     		.2byte	0x26e
 5331 10d8 0F090000 		.4byte	0x90f
 5332 10dc 14       		.byte	0x14
 5333 10dd 19       		.uleb128 0x19
 5334 10de 3D140000 		.4byte	.LASF238
 5335 10e2 11       		.byte	0x11
 5336 10e3 6F02     		.2byte	0x26f
 5337 10e5 0F090000 		.4byte	0x90f
 5338 10e9 18       		.byte	0x18
 5339 10ea 19       		.uleb128 0x19
 5340 10eb B5190000 		.4byte	.LASF211
 5341 10ef 11       		.byte	0x11
 5342 10f0 7002     		.2byte	0x270
 5343 10f2 04090000 		.4byte	0x904
 5344 10f6 1C       		.byte	0x1c
 5345 10f7 19       		.uleb128 0x19
 5346 10f8 85030000 		.4byte	.LASF239
ARM GAS  /tmp/ccqRaZSa.s 			page 95


 5347 10fc 11       		.byte	0x11
 5348 10fd 7102     		.2byte	0x271
 5349 10ff 0F090000 		.4byte	0x90f
 5350 1103 20       		.byte	0x20
 5351 1104 19       		.uleb128 0x19
 5352 1105 650F0000 		.4byte	.LASF240
 5353 1109 11       		.byte	0x11
 5354 110a 7202     		.2byte	0x272
 5355 110c 0F090000 		.4byte	0x90f
 5356 1110 24       		.byte	0x24
 5357 1111 19       		.uleb128 0x19
 5358 1112 BF190000 		.4byte	.LASF214
 5359 1116 11       		.byte	0x11
 5360 1117 7302     		.2byte	0x273
 5361 1119 E20C0000 		.4byte	0xce2
 5362 111d 28       		.byte	0x28
 5363 111e 19       		.uleb128 0x19
 5364 111f F1100000 		.4byte	.LASF241
 5365 1123 11       		.byte	0x11
 5366 1124 7402     		.2byte	0x274
 5367 1126 0F090000 		.4byte	0x90f
 5368 112a 30       		.byte	0x30
 5369 112b 19       		.uleb128 0x19
 5370 112c 761F0000 		.4byte	.LASF242
 5371 1130 11       		.byte	0x11
 5372 1131 7502     		.2byte	0x275
 5373 1133 0F090000 		.4byte	0x90f
 5374 1137 34       		.byte	0x34
 5375 1138 19       		.uleb128 0x19
 5376 1139 2A100000 		.4byte	.LASF243
 5377 113d 11       		.byte	0x11
 5378 113e 7602     		.2byte	0x276
 5379 1140 0F090000 		.4byte	0x90f
 5380 1144 38       		.byte	0x38
 5381 1145 19       		.uleb128 0x19
 5382 1146 C9190000 		.4byte	.LASF216
 5383 114a 11       		.byte	0x11
 5384 114b 7702     		.2byte	0x277
 5385 114d 04090000 		.4byte	0x904
 5386 1151 3C       		.byte	0x3c
 5387 1152 19       		.uleb128 0x19
 5388 1153 B5160000 		.4byte	.LASF244
 5389 1157 11       		.byte	0x11
 5390 1158 7802     		.2byte	0x278
 5391 115a 0F090000 		.4byte	0x90f
 5392 115e 40       		.byte	0x40
 5393 115f 19       		.uleb128 0x19
 5394 1160 6A050000 		.4byte	.LASF245
 5395 1164 11       		.byte	0x11
 5396 1165 7902     		.2byte	0x279
 5397 1167 0F090000 		.4byte	0x90f
 5398 116b 44       		.byte	0x44
 5399 116c 19       		.uleb128 0x19
 5400 116d D3190000 		.4byte	.LASF218
 5401 1171 11       		.byte	0x11
 5402 1172 7A02     		.2byte	0x27a
 5403 1174 E20C0000 		.4byte	0xce2
ARM GAS  /tmp/ccqRaZSa.s 			page 96


 5404 1178 48       		.byte	0x48
 5405 1179 19       		.uleb128 0x19
 5406 117a A41A0000 		.4byte	.LASF246
 5407 117e 11       		.byte	0x11
 5408 117f 7B02     		.2byte	0x27b
 5409 1181 0F090000 		.4byte	0x90f
 5410 1185 50       		.byte	0x50
 5411 1186 19       		.uleb128 0x19
 5412 1187 67080000 		.4byte	.LASF247
 5413 118b 11       		.byte	0x11
 5414 118c 7C02     		.2byte	0x27c
 5415 118e 0F090000 		.4byte	0x90f
 5416 1192 54       		.byte	0x54
 5417 1193 19       		.uleb128 0x19
 5418 1194 26080000 		.4byte	.LASF248
 5419 1198 11       		.byte	0x11
 5420 1199 7D02     		.2byte	0x27d
 5421 119b 0F090000 		.4byte	0x90f
 5422 119f 58       		.byte	0x58
 5423 11a0 19       		.uleb128 0x19
 5424 11a1 DD190000 		.4byte	.LASF220
 5425 11a5 11       		.byte	0x11
 5426 11a6 7E02     		.2byte	0x27e
 5427 11a8 04090000 		.4byte	0x904
 5428 11ac 5C       		.byte	0x5c
 5429 11ad 19       		.uleb128 0x19
 5430 11ae A70F0000 		.4byte	.LASF249
 5431 11b2 11       		.byte	0x11
 5432 11b3 7F02     		.2byte	0x27f
 5433 11b5 0F090000 		.4byte	0x90f
 5434 11b9 60       		.byte	0x60
 5435 11ba 19       		.uleb128 0x19
 5436 11bb 3A1C0000 		.4byte	.LASF250
 5437 11bf 11       		.byte	0x11
 5438 11c0 8002     		.2byte	0x280
 5439 11c2 0F090000 		.4byte	0x90f
 5440 11c6 64       		.byte	0x64
 5441 11c7 19       		.uleb128 0x19
 5442 11c8 E7190000 		.4byte	.LASF222
 5443 11cc 11       		.byte	0x11
 5444 11cd 8102     		.2byte	0x281
 5445 11cf E20C0000 		.4byte	0xce2
 5446 11d3 68       		.byte	0x68
 5447 11d4 19       		.uleb128 0x19
 5448 11d5 CE180000 		.4byte	.LASF251
 5449 11d9 11       		.byte	0x11
 5450 11da 8202     		.2byte	0x282
 5451 11dc 0F090000 		.4byte	0x90f
 5452 11e0 70       		.byte	0x70
 5453 11e1 21       		.uleb128 0x21
 5454 11e2 43535200 		.ascii	"CSR\000"
 5455 11e6 11       		.byte	0x11
 5456 11e7 8302     		.2byte	0x283
 5457 11e9 0F090000 		.4byte	0x90f
 5458 11ed 74       		.byte	0x74
 5459 11ee 19       		.uleb128 0x19
 5460 11ef F1190000 		.4byte	.LASF252
ARM GAS  /tmp/ccqRaZSa.s 			page 97


 5461 11f3 11       		.byte	0x11
 5462 11f4 8402     		.2byte	0x284
 5463 11f6 E20C0000 		.4byte	0xce2
 5464 11fa 78       		.byte	0x78
 5465 11fb 19       		.uleb128 0x19
 5466 11fc 4C120000 		.4byte	.LASF253
 5467 1200 11       		.byte	0x11
 5468 1201 8502     		.2byte	0x285
 5469 1203 0F090000 		.4byte	0x90f
 5470 1207 80       		.byte	0x80
 5471 1208 19       		.uleb128 0x19
 5472 1209 54130000 		.4byte	.LASF254
 5473 120d 11       		.byte	0x11
 5474 120e 8602     		.2byte	0x286
 5475 1210 0F090000 		.4byte	0x90f
 5476 1214 84       		.byte	0x84
 5477 1215 00       		.byte	0
 5478 1216 08       		.uleb128 0x8
 5479 1217 1C010000 		.4byte	.LASF255
 5480 121b 11       		.byte	0x11
 5481 121c 8802     		.2byte	0x288
 5482 121e 87100000 		.4byte	0x1087
 5483 1222 1C       		.uleb128 0x1c
 5484 1223 24       		.byte	0x24
 5485 1224 11       		.byte	0x11
 5486 1225 DB02     		.2byte	0x2db
 5487 1227 9F120000 		.4byte	0x129f
 5488 122b 21       		.uleb128 0x21
 5489 122c 43523100 		.ascii	"CR1\000"
 5490 1230 11       		.byte	0x11
 5491 1231 DD02     		.2byte	0x2dd
 5492 1233 0F090000 		.4byte	0x90f
 5493 1237 00       		.byte	0
 5494 1238 21       		.uleb128 0x21
 5495 1239 43523200 		.ascii	"CR2\000"
 5496 123d 11       		.byte	0x11
 5497 123e DE02     		.2byte	0x2de
 5498 1240 0F090000 		.4byte	0x90f
 5499 1244 04       		.byte	0x4
 5500 1245 21       		.uleb128 0x21
 5501 1246 535200   		.ascii	"SR\000"
 5502 1249 11       		.byte	0x11
 5503 124a DF02     		.2byte	0x2df
 5504 124c 0F090000 		.4byte	0x90f
 5505 1250 08       		.byte	0x8
 5506 1251 21       		.uleb128 0x21
 5507 1252 445200   		.ascii	"DR\000"
 5508 1255 11       		.byte	0x11
 5509 1256 E002     		.2byte	0x2e0
 5510 1258 0F090000 		.4byte	0x90f
 5511 125c 0C       		.byte	0xc
 5512 125d 19       		.uleb128 0x19
 5513 125e 21060000 		.4byte	.LASF256
 5514 1262 11       		.byte	0x11
 5515 1263 E102     		.2byte	0x2e1
 5516 1265 0F090000 		.4byte	0x90f
 5517 1269 10       		.byte	0x10
ARM GAS  /tmp/ccqRaZSa.s 			page 98


 5518 126a 19       		.uleb128 0x19
 5519 126b 88090000 		.4byte	.LASF257
 5520 126f 11       		.byte	0x11
 5521 1270 E202     		.2byte	0x2e2
 5522 1272 0F090000 		.4byte	0x90f
 5523 1276 14       		.byte	0x14
 5524 1277 19       		.uleb128 0x19
 5525 1278 85080000 		.4byte	.LASF258
 5526 127c 11       		.byte	0x11
 5527 127d E302     		.2byte	0x2e3
 5528 127f 0F090000 		.4byte	0x90f
 5529 1283 18       		.byte	0x18
 5530 1284 19       		.uleb128 0x19
 5531 1285 CB1C0000 		.4byte	.LASF259
 5532 1289 11       		.byte	0x11
 5533 128a E402     		.2byte	0x2e4
 5534 128c 0F090000 		.4byte	0x90f
 5535 1290 1C       		.byte	0x1c
 5536 1291 19       		.uleb128 0x19
 5537 1292 F4050000 		.4byte	.LASF260
 5538 1296 11       		.byte	0x11
 5539 1297 E502     		.2byte	0x2e5
 5540 1299 0F090000 		.4byte	0x90f
 5541 129d 20       		.byte	0x20
 5542 129e 00       		.byte	0
 5543 129f 08       		.uleb128 0x8
 5544 12a0 191B0000 		.4byte	.LASF261
 5545 12a4 11       		.byte	0x11
 5546 12a5 E602     		.2byte	0x2e6
 5547 12a7 22120000 		.4byte	0x1222
 5548 12ab 1C       		.uleb128 0x1c
 5549 12ac 1C       		.byte	0x1c
 5550 12ad 11       		.byte	0x11
 5551 12ae 0903     		.2byte	0x309
 5552 12b0 0E130000 		.4byte	0x130e
 5553 12b4 21       		.uleb128 0x21
 5554 12b5 535200   		.ascii	"SR\000"
 5555 12b8 11       		.byte	0x11
 5556 12b9 0B03     		.2byte	0x30b
 5557 12bb 0F090000 		.4byte	0x90f
 5558 12bf 00       		.byte	0
 5559 12c0 21       		.uleb128 0x21
 5560 12c1 445200   		.ascii	"DR\000"
 5561 12c4 11       		.byte	0x11
 5562 12c5 0C03     		.2byte	0x30c
 5563 12c7 0F090000 		.4byte	0x90f
 5564 12cb 04       		.byte	0x4
 5565 12cc 21       		.uleb128 0x21
 5566 12cd 42525200 		.ascii	"BRR\000"
 5567 12d1 11       		.byte	0x11
 5568 12d2 0D03     		.2byte	0x30d
 5569 12d4 0F090000 		.4byte	0x90f
 5570 12d8 08       		.byte	0x8
 5571 12d9 21       		.uleb128 0x21
 5572 12da 43523100 		.ascii	"CR1\000"
 5573 12de 11       		.byte	0x11
 5574 12df 0E03     		.2byte	0x30e
ARM GAS  /tmp/ccqRaZSa.s 			page 99


 5575 12e1 0F090000 		.4byte	0x90f
 5576 12e5 0C       		.byte	0xc
 5577 12e6 21       		.uleb128 0x21
 5578 12e7 43523200 		.ascii	"CR2\000"
 5579 12eb 11       		.byte	0x11
 5580 12ec 0F03     		.2byte	0x30f
 5581 12ee 0F090000 		.4byte	0x90f
 5582 12f2 10       		.byte	0x10
 5583 12f3 21       		.uleb128 0x21
 5584 12f4 43523300 		.ascii	"CR3\000"
 5585 12f8 11       		.byte	0x11
 5586 12f9 1003     		.2byte	0x310
 5587 12fb 0F090000 		.4byte	0x90f
 5588 12ff 14       		.byte	0x14
 5589 1300 19       		.uleb128 0x19
 5590 1301 2D0D0000 		.4byte	.LASF262
 5591 1305 11       		.byte	0x11
 5592 1306 1103     		.2byte	0x311
 5593 1308 0F090000 		.4byte	0x90f
 5594 130c 18       		.byte	0x18
 5595 130d 00       		.byte	0
 5596 130e 08       		.uleb128 0x8
 5597 130f 201F0000 		.4byte	.LASF263
 5598 1313 11       		.byte	0x11
 5599 1314 1203     		.2byte	0x312
 5600 1316 AB120000 		.4byte	0x12ab
 5601 131a 0B       		.uleb128 0xb
 5602 131b 0F090000 		.4byte	0x90f
 5603 131f 2A130000 		.4byte	0x132a
 5604 1323 0C       		.uleb128 0xc
 5605 1324 25000000 		.4byte	0x25
 5606 1328 0E       		.byte	0xe
 5607 1329 00       		.byte	0
 5608 132a 05       		.uleb128 0x5
 5609 132b 1A130000 		.4byte	0x131a
 5610 132f 04       		.uleb128 0x4
 5611 1330 2B150000 		.4byte	.LASF264
 5612 1334 12       		.byte	0x12
 5613 1335 65       		.byte	0x65
 5614 1336 50010000 		.4byte	0x150
 5615 133a 04       		.uleb128 0x4
 5616 133b 6C070000 		.4byte	.LASF265
 5617 133f 12       		.byte	0x12
 5618 1340 6D       		.byte	0x6d
 5619 1341 14090000 		.4byte	0x914
 5620 1345 11       		.uleb128 0x11
 5621 1346 0A100000 		.4byte	.LASF266
 5622 134a 04       		.byte	0x4
 5623 134b 12       		.byte	0x12
 5624 134c 89       		.byte	0x89
 5625 134d 5E130000 		.4byte	0x135e
 5626 1351 12       		.uleb128 0x12
 5627 1352 72313300 		.ascii	"r13\000"
 5628 1356 12       		.byte	0x12
 5629 1357 8A       		.byte	0x8a
 5630 1358 9F140000 		.4byte	0x149f
 5631 135c 00       		.byte	0
ARM GAS  /tmp/ccqRaZSa.s 			page 100


 5632 135d 00       		.byte	0
 5633 135e 11       		.uleb128 0x11
 5634 135f 09000000 		.4byte	.LASF267
 5635 1363 64       		.byte	0x64
 5636 1364 13       		.byte	0x13
 5637 1365 F4       		.byte	0xf4
 5638 1366 9F140000 		.4byte	0x149f
 5639 136a 12       		.uleb128 0x12
 5640 136b 73313600 		.ascii	"s16\000"
 5641 136f 13       		.byte	0x13
 5642 1370 F6       		.byte	0xf6
 5643 1371 2F130000 		.4byte	0x132f
 5644 1375 00       		.byte	0
 5645 1376 12       		.uleb128 0x12
 5646 1377 73313700 		.ascii	"s17\000"
 5647 137b 13       		.byte	0x13
 5648 137c F7       		.byte	0xf7
 5649 137d 2F130000 		.4byte	0x132f
 5650 1381 04       		.byte	0x4
 5651 1382 12       		.uleb128 0x12
 5652 1383 73313800 		.ascii	"s18\000"
 5653 1387 13       		.byte	0x13
 5654 1388 F8       		.byte	0xf8
 5655 1389 2F130000 		.4byte	0x132f
 5656 138d 08       		.byte	0x8
 5657 138e 12       		.uleb128 0x12
 5658 138f 73313900 		.ascii	"s19\000"
 5659 1393 13       		.byte	0x13
 5660 1394 F9       		.byte	0xf9
 5661 1395 2F130000 		.4byte	0x132f
 5662 1399 0C       		.byte	0xc
 5663 139a 12       		.uleb128 0x12
 5664 139b 73323000 		.ascii	"s20\000"
 5665 139f 13       		.byte	0x13
 5666 13a0 FA       		.byte	0xfa
 5667 13a1 2F130000 		.4byte	0x132f
 5668 13a5 10       		.byte	0x10
 5669 13a6 12       		.uleb128 0x12
 5670 13a7 73323100 		.ascii	"s21\000"
 5671 13ab 13       		.byte	0x13
 5672 13ac FB       		.byte	0xfb
 5673 13ad 2F130000 		.4byte	0x132f
 5674 13b1 14       		.byte	0x14
 5675 13b2 12       		.uleb128 0x12
 5676 13b3 73323200 		.ascii	"s22\000"
 5677 13b7 13       		.byte	0x13
 5678 13b8 FC       		.byte	0xfc
 5679 13b9 2F130000 		.4byte	0x132f
 5680 13bd 18       		.byte	0x18
 5681 13be 12       		.uleb128 0x12
 5682 13bf 73323300 		.ascii	"s23\000"
 5683 13c3 13       		.byte	0x13
 5684 13c4 FD       		.byte	0xfd
 5685 13c5 2F130000 		.4byte	0x132f
 5686 13c9 1C       		.byte	0x1c
 5687 13ca 12       		.uleb128 0x12
 5688 13cb 73323400 		.ascii	"s24\000"
ARM GAS  /tmp/ccqRaZSa.s 			page 101


 5689 13cf 13       		.byte	0x13
 5690 13d0 FE       		.byte	0xfe
 5691 13d1 2F130000 		.4byte	0x132f
 5692 13d5 20       		.byte	0x20
 5693 13d6 12       		.uleb128 0x12
 5694 13d7 73323500 		.ascii	"s25\000"
 5695 13db 13       		.byte	0x13
 5696 13dc FF       		.byte	0xff
 5697 13dd 2F130000 		.4byte	0x132f
 5698 13e1 24       		.byte	0x24
 5699 13e2 21       		.uleb128 0x21
 5700 13e3 73323600 		.ascii	"s26\000"
 5701 13e7 13       		.byte	0x13
 5702 13e8 0001     		.2byte	0x100
 5703 13ea 2F130000 		.4byte	0x132f
 5704 13ee 28       		.byte	0x28
 5705 13ef 21       		.uleb128 0x21
 5706 13f0 73323700 		.ascii	"s27\000"
 5707 13f4 13       		.byte	0x13
 5708 13f5 0101     		.2byte	0x101
 5709 13f7 2F130000 		.4byte	0x132f
 5710 13fb 2C       		.byte	0x2c
 5711 13fc 21       		.uleb128 0x21
 5712 13fd 73323800 		.ascii	"s28\000"
 5713 1401 13       		.byte	0x13
 5714 1402 0201     		.2byte	0x102
 5715 1404 2F130000 		.4byte	0x132f
 5716 1408 30       		.byte	0x30
 5717 1409 21       		.uleb128 0x21
 5718 140a 73323900 		.ascii	"s29\000"
 5719 140e 13       		.byte	0x13
 5720 140f 0301     		.2byte	0x103
 5721 1411 2F130000 		.4byte	0x132f
 5722 1415 34       		.byte	0x34
 5723 1416 21       		.uleb128 0x21
 5724 1417 73333000 		.ascii	"s30\000"
 5725 141b 13       		.byte	0x13
 5726 141c 0401     		.2byte	0x104
 5727 141e 2F130000 		.4byte	0x132f
 5728 1422 38       		.byte	0x38
 5729 1423 21       		.uleb128 0x21
 5730 1424 73333100 		.ascii	"s31\000"
 5731 1428 13       		.byte	0x13
 5732 1429 0501     		.2byte	0x105
 5733 142b 2F130000 		.4byte	0x132f
 5734 142f 3C       		.byte	0x3c
 5735 1430 21       		.uleb128 0x21
 5736 1431 723400   		.ascii	"r4\000"
 5737 1434 13       		.byte	0x13
 5738 1435 0701     		.2byte	0x107
 5739 1437 2F130000 		.4byte	0x132f
 5740 143b 40       		.byte	0x40
 5741 143c 21       		.uleb128 0x21
 5742 143d 723500   		.ascii	"r5\000"
 5743 1440 13       		.byte	0x13
 5744 1441 0801     		.2byte	0x108
 5745 1443 2F130000 		.4byte	0x132f
ARM GAS  /tmp/ccqRaZSa.s 			page 102


 5746 1447 44       		.byte	0x44
 5747 1448 21       		.uleb128 0x21
 5748 1449 723600   		.ascii	"r6\000"
 5749 144c 13       		.byte	0x13
 5750 144d 0901     		.2byte	0x109
 5751 144f 2F130000 		.4byte	0x132f
 5752 1453 48       		.byte	0x48
 5753 1454 21       		.uleb128 0x21
 5754 1455 723700   		.ascii	"r7\000"
 5755 1458 13       		.byte	0x13
 5756 1459 0A01     		.2byte	0x10a
 5757 145b 2F130000 		.4byte	0x132f
 5758 145f 4C       		.byte	0x4c
 5759 1460 21       		.uleb128 0x21
 5760 1461 723800   		.ascii	"r8\000"
 5761 1464 13       		.byte	0x13
 5762 1465 0B01     		.2byte	0x10b
 5763 1467 2F130000 		.4byte	0x132f
 5764 146b 50       		.byte	0x50
 5765 146c 21       		.uleb128 0x21
 5766 146d 723900   		.ascii	"r9\000"
 5767 1470 13       		.byte	0x13
 5768 1471 0C01     		.2byte	0x10c
 5769 1473 2F130000 		.4byte	0x132f
 5770 1477 54       		.byte	0x54
 5771 1478 21       		.uleb128 0x21
 5772 1479 72313000 		.ascii	"r10\000"
 5773 147d 13       		.byte	0x13
 5774 147e 0D01     		.2byte	0x10d
 5775 1480 2F130000 		.4byte	0x132f
 5776 1484 58       		.byte	0x58
 5777 1485 21       		.uleb128 0x21
 5778 1486 72313100 		.ascii	"r11\000"
 5779 148a 13       		.byte	0x13
 5780 148b 0E01     		.2byte	0x10e
 5781 148d 2F130000 		.4byte	0x132f
 5782 1491 5C       		.byte	0x5c
 5783 1492 21       		.uleb128 0x21
 5784 1493 6C7200   		.ascii	"lr\000"
 5785 1496 13       		.byte	0x13
 5786 1497 0F01     		.2byte	0x10f
 5787 1499 2F130000 		.4byte	0x132f
 5788 149d 60       		.byte	0x60
 5789 149e 00       		.byte	0
 5790 149f 06       		.uleb128 0x6
 5791 14a0 04       		.byte	0x4
 5792 14a1 5E130000 		.4byte	0x135e
 5793 14a5 0D       		.uleb128 0xd
 5794 14a6 04       		.byte	0x4
 5795 14a7 14       		.byte	0x14
 5796 14a8 38       		.byte	0x38
 5797 14a9 BA140000 		.4byte	0x14ba
 5798 14ad 0E       		.uleb128 0xe
 5799 14ae 9D1A0000 		.4byte	.LASF268
 5800 14b2 14       		.byte	0x14
 5801 14b3 3C       		.byte	0x3c
 5802 14b4 1F090000 		.4byte	0x91f
ARM GAS  /tmp/ccqRaZSa.s 			page 103


 5803 14b8 00       		.byte	0
 5804 14b9 00       		.byte	0
 5805 14ba 04       		.uleb128 0x4
 5806 14bb 81040000 		.4byte	.LASF269
 5807 14bf 14       		.byte	0x14
 5808 14c0 3D       		.byte	0x3d
 5809 14c1 A5140000 		.4byte	0x14a5
 5810 14c5 09       		.uleb128 0x9
 5811 14c6 04       		.byte	0x4
 5812 14c7 0E       		.byte	0xe
 5813 14c8 FA       		.byte	0xfa
 5814 14c9 22150000 		.4byte	0x1522
 5815 14cd 1E       		.uleb128 0x1e
 5816 14ce 4F0E0000 		.4byte	.LASF270
 5817 14d2 0E       		.byte	0xe
 5818 14d3 0101     		.2byte	0x101
 5819 14d5 61090000 		.4byte	0x961
 5820 14d9 1E       		.uleb128 0x1e
 5821 14da 840C0000 		.4byte	.LASF271
 5822 14de 0E       		.byte	0xe
 5823 14df 0801     		.2byte	0x108
 5824 14e1 61090000 		.4byte	0x961
 5825 14e5 1E       		.uleb128 0x1e
 5826 14e6 3D180000 		.4byte	.LASF272
 5827 14ea 0E       		.byte	0xe
 5828 14eb 0F01     		.2byte	0x10f
 5829 14ed 50010000 		.4byte	0x150
 5830 14f1 1E       		.uleb128 0x1e
 5831 14f2 90140000 		.4byte	.LASF273
 5832 14f6 0E       		.byte	0xe
 5833 14f7 1601     		.2byte	0x116
 5834 14f9 22150000 		.4byte	0x1522
 5835 14fd 1E       		.uleb128 0x1e
 5836 14fe A5000000 		.4byte	.LASF274
 5837 1502 0E       		.byte	0xe
 5838 1503 1E01     		.2byte	0x11e
 5839 1505 4D150000 		.4byte	0x154d
 5840 1509 1E       		.uleb128 0x1e
 5841 150a 66180000 		.4byte	.LASF275
 5842 150e 0E       		.byte	0xe
 5843 150f 2701     		.2byte	0x127
 5844 1511 84150000 		.4byte	0x1584
 5845 1515 1E       		.uleb128 0x1e
 5846 1516 611B0000 		.4byte	.LASF276
 5847 151a 0E       		.byte	0xe
 5848 151b 2F01     		.2byte	0x12f
 5849 151d 6C090000 		.4byte	0x96c
 5850 1521 00       		.byte	0
 5851 1522 06       		.uleb128 0x6
 5852 1523 04       		.byte	0x4
 5853 1524 C60A0000 		.4byte	0xac6
 5854 1528 11       		.uleb128 0x11
 5855 1529 96130000 		.4byte	.LASF277
 5856 152d 0C       		.byte	0xc
 5857 152e 15       		.byte	0x15
 5858 152f 34       		.byte	0x34
 5859 1530 4D150000 		.4byte	0x154d
ARM GAS  /tmp/ccqRaZSa.s 			page 104


 5860 1534 0E       		.uleb128 0xe
 5861 1535 C31C0000 		.4byte	.LASF278
 5862 1539 15       		.byte	0x15
 5863 153a 35       		.byte	0x35
 5864 153b FB0A0000 		.4byte	0xafb
 5865 153f 00       		.byte	0
 5866 1540 0E       		.uleb128 0xe
 5867 1541 D6070000 		.4byte	.LASF279
 5868 1545 15       		.byte	0x15
 5869 1546 37       		.byte	0x37
 5870 1547 82090000 		.4byte	0x982
 5871 154b 08       		.byte	0x8
 5872 154c 00       		.byte	0
 5873 154d 06       		.uleb128 0x6
 5874 154e 04       		.byte	0x4
 5875 154f 28150000 		.4byte	0x1528
 5876 1553 11       		.uleb128 0x11
 5877 1554 9B090000 		.4byte	.LASF280
 5878 1558 10       		.byte	0x10
 5879 1559 16       		.byte	0x16
 5880 155a 39       		.byte	0x39
 5881 155b 84150000 		.4byte	0x1584
 5882 155f 0E       		.uleb128 0xe
 5883 1560 76100000 		.4byte	.LASF281
 5884 1564 16       		.byte	0x16
 5885 1565 3A       		.byte	0x3a
 5886 1566 FB0A0000 		.4byte	0xafb
 5887 156a 00       		.byte	0
 5888 156b 0E       		.uleb128 0xe
 5889 156c A9120000 		.4byte	.LASF282
 5890 1570 16       		.byte	0x16
 5891 1571 3C       		.byte	0x3c
 5892 1572 D10A0000 		.4byte	0xad1
 5893 1576 08       		.byte	0x8
 5894 1577 0E       		.uleb128 0xe
 5895 1578 3A010000 		.4byte	.LASF283
 5896 157c 16       		.byte	0x16
 5897 157d 3E       		.byte	0x3e
 5898 157e C8160000 		.4byte	0x16c8
 5899 1582 0C       		.byte	0xc
 5900 1583 00       		.byte	0
 5901 1584 06       		.uleb128 0x6
 5902 1585 04       		.byte	0x4
 5903 1586 53150000 		.4byte	0x1553
 5904 158a 06       		.uleb128 0x6
 5905 158b 04       		.byte	0x4
 5906 158c 3A130000 		.4byte	0x133a
 5907 1590 06       		.uleb128 0x6
 5908 1591 04       		.byte	0x4
 5909 1592 AE0B0000 		.4byte	0xbae
 5910 1596 0B       		.uleb128 0xb
 5911 1597 3A130000 		.4byte	0x133a
 5912 159b A6150000 		.4byte	0x15a6
 5913 159f 0C       		.uleb128 0xc
 5914 15a0 25000000 		.4byte	0x25
 5915 15a4 3B       		.byte	0x3b
 5916 15a5 00       		.byte	0
ARM GAS  /tmp/ccqRaZSa.s 			page 105


 5917 15a6 25       		.uleb128 0x25
 5918 15a7 636800   		.ascii	"ch\000"
 5919 15aa 0E       		.byte	0xe
 5920 15ab 0902     		.2byte	0x209
 5921 15ad 7B0C0000 		.4byte	0xc7b
 5922 15b1 0D       		.uleb128 0xd
 5923 15b2 16       		.byte	0x16
 5924 15b3 02       		.byte	0x2
 5925 15b4 34       		.byte	0x34
 5926 15b5 92160000 		.4byte	0x1692
 5927 15b9 0E       		.uleb128 0xe
 5928 15ba D31C0000 		.4byte	.LASF284
 5929 15be 02       		.byte	0x2
 5930 15bf 35       		.byte	0x35
 5931 15c0 92160000 		.4byte	0x1692
 5932 15c4 00       		.byte	0
 5933 15c5 0E       		.uleb128 0xe
 5934 15c6 F21E0000 		.4byte	.LASF285
 5935 15ca 02       		.byte	0x2
 5936 15cb 36       		.byte	0x36
 5937 15cc D9080000 		.4byte	0x8d9
 5938 15d0 04       		.byte	0x4
 5939 15d1 0E       		.uleb128 0xe
 5940 15d2 5F020000 		.4byte	.LASF286
 5941 15d6 02       		.byte	0x2
 5942 15d7 37       		.byte	0x37
 5943 15d8 D9080000 		.4byte	0x8d9
 5944 15dc 05       		.byte	0x5
 5945 15dd 0E       		.uleb128 0xe
 5946 15de F0120000 		.4byte	.LASF287
 5947 15e2 02       		.byte	0x2
 5948 15e3 38       		.byte	0x38
 5949 15e4 E9080000 		.4byte	0x8e9
 5950 15e8 06       		.byte	0x6
 5951 15e9 0E       		.uleb128 0xe
 5952 15ea 15000000 		.4byte	.LASF288
 5953 15ee 02       		.byte	0x2
 5954 15ef 39       		.byte	0x39
 5955 15f0 D9080000 		.4byte	0x8d9
 5956 15f4 08       		.byte	0x8
 5957 15f5 0E       		.uleb128 0xe
 5958 15f6 7B110000 		.4byte	.LASF289
 5959 15fa 02       		.byte	0x2
 5960 15fb 3A       		.byte	0x3a
 5961 15fc D9080000 		.4byte	0x8d9
 5962 1600 09       		.byte	0x9
 5963 1601 0E       		.uleb128 0xe
 5964 1602 791E0000 		.4byte	.LASF290
 5965 1606 02       		.byte	0x2
 5966 1607 3B       		.byte	0x3b
 5967 1608 D9080000 		.4byte	0x8d9
 5968 160c 0A       		.byte	0xa
 5969 160d 0E       		.uleb128 0xe
 5970 160e 111D0000 		.4byte	.LASF291
 5971 1612 02       		.byte	0x2
 5972 1613 3C       		.byte	0x3c
 5973 1614 D9080000 		.4byte	0x8d9
ARM GAS  /tmp/ccqRaZSa.s 			page 106


 5974 1618 0B       		.byte	0xb
 5975 1619 0E       		.uleb128 0xe
 5976 161a 5E1C0000 		.4byte	.LASF292
 5977 161e 02       		.byte	0x2
 5978 161f 3D       		.byte	0x3d
 5979 1620 D9080000 		.4byte	0x8d9
 5980 1624 0C       		.byte	0xc
 5981 1625 0E       		.uleb128 0xe
 5982 1626 F90A0000 		.4byte	.LASF293
 5983 162a 02       		.byte	0x2
 5984 162b 3E       		.byte	0x3e
 5985 162c D9080000 		.4byte	0x8d9
 5986 1630 0D       		.byte	0xd
 5987 1631 0E       		.uleb128 0xe
 5988 1632 BD040000 		.4byte	.LASF294
 5989 1636 02       		.byte	0x2
 5990 1637 3F       		.byte	0x3f
 5991 1638 D9080000 		.4byte	0x8d9
 5992 163c 0E       		.byte	0xe
 5993 163d 0E       		.uleb128 0xe
 5994 163e 3F0C0000 		.4byte	.LASF295
 5995 1642 02       		.byte	0x2
 5996 1643 40       		.byte	0x40
 5997 1644 D9080000 		.4byte	0x8d9
 5998 1648 0F       		.byte	0xf
 5999 1649 0E       		.uleb128 0xe
 6000 164a D50D0000 		.4byte	.LASF296
 6001 164e 02       		.byte	0x2
 6002 164f 41       		.byte	0x41
 6003 1650 D9080000 		.4byte	0x8d9
 6004 1654 10       		.byte	0x10
 6005 1655 0E       		.uleb128 0xe
 6006 1656 9C120000 		.4byte	.LASF297
 6007 165a 02       		.byte	0x2
 6008 165b 43       		.byte	0x43
 6009 165c D9080000 		.4byte	0x8d9
 6010 1660 11       		.byte	0x11
 6011 1661 0E       		.uleb128 0xe
 6012 1662 1D020000 		.4byte	.LASF298
 6013 1666 02       		.byte	0x2
 6014 1667 44       		.byte	0x44
 6015 1668 D9080000 		.4byte	0x8d9
 6016 166c 12       		.byte	0x12
 6017 166d 0E       		.uleb128 0xe
 6018 166e 90120000 		.4byte	.LASF299
 6019 1672 02       		.byte	0x2
 6020 1673 45       		.byte	0x45
 6021 1674 D9080000 		.4byte	0x8d9
 6022 1678 13       		.byte	0x13
 6023 1679 0E       		.uleb128 0xe
 6024 167a BC170000 		.4byte	.LASF300
 6025 167e 02       		.byte	0x2
 6026 167f 46       		.byte	0x46
 6027 1680 D9080000 		.4byte	0x8d9
 6028 1684 14       		.byte	0x14
 6029 1685 0E       		.uleb128 0xe
 6030 1686 83000000 		.4byte	.LASF301
ARM GAS  /tmp/ccqRaZSa.s 			page 107


 6031 168a 02       		.byte	0x2
 6032 168b 48       		.byte	0x48
 6033 168c D9080000 		.4byte	0x8d9
 6034 1690 15       		.byte	0x15
 6035 1691 00       		.byte	0
 6036 1692 0B       		.uleb128 0xb
 6037 1693 58010000 		.4byte	0x158
 6038 1697 A2160000 		.4byte	0x16a2
 6039 169b 0C       		.uleb128 0xc
 6040 169c 25000000 		.4byte	0x25
 6041 16a0 03       		.byte	0x3
 6042 16a1 00       		.byte	0
 6043 16a2 04       		.uleb128 0x4
 6044 16a3 F9100000 		.4byte	.LASF302
 6045 16a7 02       		.byte	0x2
 6046 16a8 49       		.byte	0x49
 6047 16a9 B1150000 		.4byte	0x15b1
 6048 16ad 10       		.uleb128 0x10
 6049 16ae A2160000 		.4byte	0x16a2
 6050 16b2 22       		.uleb128 0x22
 6051 16b3 EC080000 		.4byte	.LASF303
 6052 16b7 02       		.byte	0x2
 6053 16b8 6E       		.byte	0x6e
 6054 16b9 AD160000 		.4byte	0x16ad
 6055 16bd 04       		.uleb128 0x4
 6056 16be 6D190000 		.4byte	.LASF304
 6057 16c2 16       		.byte	0x16
 6058 16c3 34       		.byte	0x34
 6059 16c4 53150000 		.4byte	0x1553
 6060 16c8 06       		.uleb128 0x6
 6061 16c9 04       		.byte	0x4
 6062 16ca BD160000 		.4byte	0x16bd
 6063 16ce 04       		.uleb128 0x4
 6064 16cf 5B070000 		.4byte	.LASF305
 6065 16d3 17       		.byte	0x17
 6066 16d4 34       		.byte	0x34
 6067 16d5 D9160000 		.4byte	0x16d9
 6068 16d9 11       		.uleb128 0x11
 6069 16da BF070000 		.4byte	.LASF306
 6070 16de 14       		.byte	0x14
 6071 16df 17       		.byte	0x17
 6072 16e0 39       		.byte	0x39
 6073 16e1 22170000 		.4byte	0x1722
 6074 16e5 0E       		.uleb128 0xe
 6075 16e6 B0010000 		.4byte	.LASF307
 6076 16ea 17       		.byte	0x17
 6077 16eb 3A       		.byte	0x3a
 6078 16ec 22170000 		.4byte	0x1722
 6079 16f0 00       		.byte	0
 6080 16f1 0E       		.uleb128 0xe
 6081 16f2 311A0000 		.4byte	.LASF308
 6082 16f6 17       		.byte	0x17
 6083 16f7 3D       		.byte	0x3d
 6084 16f8 D10A0000 		.4byte	0xad1
 6085 16fc 04       		.byte	0x4
 6086 16fd 0E       		.uleb128 0xe
 6087 16fe B4020000 		.4byte	.LASF309
ARM GAS  /tmp/ccqRaZSa.s 			page 108


 6088 1702 17       		.byte	0x17
 6089 1703 3F       		.byte	0x3f
 6090 1704 6C090000 		.4byte	0x96c
 6091 1708 08       		.byte	0x8
 6092 1709 0E       		.uleb128 0xe
 6093 170a 681B0000 		.4byte	.LASF310
 6094 170e 17       		.byte	0x17
 6095 170f 41       		.byte	0x41
 6096 1710 77090000 		.4byte	0x977
 6097 1714 0C       		.byte	0xc
 6098 1715 0E       		.uleb128 0xe
 6099 1716 700C0000 		.4byte	.LASF311
 6100 171a 17       		.byte	0x17
 6101 171b 43       		.byte	0x43
 6102 171c 77090000 		.4byte	0x977
 6103 1720 10       		.byte	0x10
 6104 1721 00       		.byte	0
 6105 1722 06       		.uleb128 0x6
 6106 1723 04       		.byte	0x4
 6107 1724 CE160000 		.4byte	0x16ce
 6108 1728 11       		.uleb128 0x11
 6109 1729 711B0000 		.4byte	.LASF312
 6110 172d 04       		.byte	0x4
 6111 172e 17       		.byte	0x17
 6112 172f 4A       		.byte	0x4a
 6113 1730 41170000 		.4byte	0x1741
 6114 1734 0E       		.uleb128 0xe
 6115 1735 D81A0000 		.4byte	.LASF313
 6116 1739 17       		.byte	0x17
 6117 173a 4B       		.byte	0x4b
 6118 173b 22170000 		.4byte	0x1722
 6119 173f 00       		.byte	0
 6120 1740 00       		.byte	0
 6121 1741 04       		.uleb128 0x4
 6122 1742 A2110000 		.4byte	.LASF314
 6123 1746 17       		.byte	0x17
 6124 1747 4E       		.byte	0x4e
 6125 1748 28170000 		.4byte	0x1728
 6126 174c 04       		.uleb128 0x4
 6127 174d CD0C0000 		.4byte	.LASF315
 6128 1751 18       		.byte	0x18
 6129 1752 3F       		.byte	0x3f
 6130 1753 57170000 		.4byte	0x1757
 6131 1757 11       		.uleb128 0x11
 6132 1758 B30E0000 		.4byte	.LASF316
 6133 175c 24       		.byte	0x24
 6134 175d 18       		.byte	0x18
 6135 175e 4D       		.byte	0x4d
 6136 175f C4170000 		.4byte	0x17c4
 6137 1763 0E       		.uleb128 0xe
 6138 1764 4C040000 		.4byte	.LASF317
 6139 1768 18       		.byte	0x18
 6140 1769 4E       		.byte	0x4e
 6141 176a FB0A0000 		.4byte	0xafb
 6142 176e 00       		.byte	0
 6143 176f 0E       		.uleb128 0xe
 6144 1770 46140000 		.4byte	.LASF318
ARM GAS  /tmp/ccqRaZSa.s 			page 109


 6145 1774 18       		.byte	0x18
 6146 1775 4F       		.byte	0x4f
 6147 1776 3E000000 		.4byte	0x3e
 6148 177a 08       		.byte	0x8
 6149 177b 0E       		.uleb128 0xe
 6150 177c 5C0F0000 		.4byte	.LASF319
 6151 1780 18       		.byte	0x18
 6152 1781 50       		.byte	0x50
 6153 1782 E6170000 		.4byte	0x17e6
 6154 1786 0C       		.byte	0xc
 6155 1787 0E       		.uleb128 0xe
 6156 1788 B0030000 		.4byte	.LASF320
 6157 178c 18       		.byte	0x18
 6158 178d 51       		.byte	0x51
 6159 178e E6170000 		.4byte	0x17e6
 6160 1792 10       		.byte	0x10
 6161 1793 0E       		.uleb128 0xe
 6162 1794 B4150000 		.4byte	.LASF321
 6163 1798 18       		.byte	0x18
 6164 1799 53       		.byte	0x53
 6165 179a E6170000 		.4byte	0x17e6
 6166 179e 14       		.byte	0x14
 6167 179f 0E       		.uleb128 0xe
 6168 17a0 96140000 		.4byte	.LASF322
 6169 17a4 18       		.byte	0x18
 6170 17a5 54       		.byte	0x54
 6171 17a6 E6170000 		.4byte	0x17e6
 6172 17aa 18       		.byte	0x18
 6173 17ab 0E       		.uleb128 0xe
 6174 17ac 5D180000 		.4byte	.LASF323
 6175 17b0 18       		.byte	0x18
 6176 17b1 55       		.byte	0x55
 6177 17b2 C4170000 		.4byte	0x17c4
 6178 17b6 1C       		.byte	0x1c
 6179 17b7 0E       		.uleb128 0xe
 6180 17b8 5D160000 		.4byte	.LASF324
 6181 17bc 18       		.byte	0x18
 6182 17bd 56       		.byte	0x56
 6183 17be 50010000 		.4byte	0x150
 6184 17c2 20       		.byte	0x20
 6185 17c3 00       		.byte	0
 6186 17c4 04       		.uleb128 0x4
 6187 17c5 7B030000 		.4byte	.LASF325
 6188 17c9 18       		.byte	0x18
 6189 17ca 42       		.byte	0x42
 6190 17cb CF170000 		.4byte	0x17cf
 6191 17cf 06       		.uleb128 0x6
 6192 17d0 04       		.byte	0x4
 6193 17d1 D5170000 		.4byte	0x17d5
 6194 17d5 1F       		.uleb128 0x1f
 6195 17d6 E0170000 		.4byte	0x17e0
 6196 17da 17       		.uleb128 0x17
 6197 17db E0170000 		.4byte	0x17e0
 6198 17df 00       		.byte	0
 6199 17e0 06       		.uleb128 0x6
 6200 17e1 04       		.byte	0x4
 6201 17e2 4C170000 		.4byte	0x174c
ARM GAS  /tmp/ccqRaZSa.s 			page 110


 6202 17e6 06       		.uleb128 0x6
 6203 17e7 04       		.byte	0x4
 6204 17e8 D9080000 		.4byte	0x8d9
 6205 17ec 04       		.uleb128 0x4
 6206 17ed 92040000 		.4byte	.LASF326
 6207 17f1 18       		.byte	0x18
 6208 17f2 64       		.byte	0x64
 6209 17f3 4C170000 		.4byte	0x174c
 6210 17f7 04       		.uleb128 0x4
 6211 17f8 2E1F0000 		.4byte	.LASF327
 6212 17fc 18       		.byte	0x18
 6213 17fd 71       		.byte	0x71
 6214 17fe 4C170000 		.4byte	0x174c
 6215 1802 16       		.uleb128 0x16
 6216 1803 33000000 		.4byte	0x33
 6217 1807 1B180000 		.4byte	0x181b
 6218 180b 17       		.uleb128 0x17
 6219 180c 50010000 		.4byte	0x150
 6220 1810 17       		.uleb128 0x17
 6221 1811 1B180000 		.4byte	0x181b
 6222 1815 17       		.uleb128 0x17
 6223 1816 33000000 		.4byte	0x33
 6224 181a 00       		.byte	0
 6225 181b 06       		.uleb128 0x6
 6226 181c 04       		.byte	0x4
 6227 181d E4080000 		.4byte	0x8e4
 6228 1821 06       		.uleb128 0x6
 6229 1822 04       		.byte	0x4
 6230 1823 02180000 		.4byte	0x1802
 6231 1827 16       		.uleb128 0x16
 6232 1828 33000000 		.4byte	0x33
 6233 182c 40180000 		.4byte	0x1840
 6234 1830 17       		.uleb128 0x17
 6235 1831 50010000 		.4byte	0x150
 6236 1835 17       		.uleb128 0x17
 6237 1836 E6170000 		.4byte	0x17e6
 6238 183a 17       		.uleb128 0x17
 6239 183b 33000000 		.4byte	0x33
 6240 183f 00       		.byte	0
 6241 1840 06       		.uleb128 0x6
 6242 1841 04       		.byte	0x4
 6243 1842 27180000 		.4byte	0x1827
 6244 1846 16       		.uleb128 0x16
 6245 1847 61090000 		.4byte	0x961
 6246 184b 5A180000 		.4byte	0x185a
 6247 184f 17       		.uleb128 0x17
 6248 1850 50010000 		.4byte	0x150
 6249 1854 17       		.uleb128 0x17
 6250 1855 D9080000 		.4byte	0x8d9
 6251 1859 00       		.byte	0
 6252 185a 06       		.uleb128 0x6
 6253 185b 04       		.byte	0x4
 6254 185c 46180000 		.4byte	0x1846
 6255 1860 16       		.uleb128 0x16
 6256 1861 61090000 		.4byte	0x961
 6257 1865 6F180000 		.4byte	0x186f
 6258 1869 17       		.uleb128 0x17
ARM GAS  /tmp/ccqRaZSa.s 			page 111


 6259 186a 50010000 		.4byte	0x150
 6260 186e 00       		.byte	0
 6261 186f 06       		.uleb128 0x6
 6262 1870 04       		.byte	0x4
 6263 1871 60180000 		.4byte	0x1860
 6264 1875 02       		.uleb128 0x2
 6265 1876 04       		.byte	0x4
 6266 1877 04       		.byte	0x4
 6267 1878 35080000 		.4byte	.LASF328
 6268 187c 02       		.uleb128 0x2
 6269 187d 01       		.byte	0x1
 6270 187e 02       		.byte	0x2
 6271 187f AC000000 		.4byte	.LASF329
 6272 1883 0B       		.uleb128 0xb
 6273 1884 D9080000 		.4byte	0x8d9
 6274 1888 93180000 		.4byte	0x1893
 6275 188c 0C       		.uleb128 0xc
 6276 188d 25000000 		.4byte	0x25
 6277 1891 07       		.byte	0x7
 6278 1892 00       		.byte	0
 6279 1893 02       		.uleb128 0x2
 6280 1894 08       		.byte	0x8
 6281 1895 04       		.byte	0x4
 6282 1896 75180000 		.4byte	.LASF330
 6283 189a 1C       		.uleb128 0x1c
 6284 189b 18       		.byte	0x18
 6285 189c 19       		.byte	0x19
 6286 189d 3D05     		.2byte	0x53d
 6287 189f D8180000 		.4byte	0x18d8
 6288 18a3 19       		.uleb128 0x19
 6289 18a4 FB120000 		.4byte	.LASF331
 6290 18a8 19       		.byte	0x19
 6291 18a9 3E05     		.2byte	0x53e
 6292 18ab 04090000 		.4byte	0x904
 6293 18af 00       		.byte	0
 6294 18b0 19       		.uleb128 0x19
 6295 18b1 9A0D0000 		.4byte	.LASF332
 6296 18b5 19       		.byte	0x19
 6297 18b6 3F05     		.2byte	0x53f
 6298 18b8 14090000 		.4byte	0x914
 6299 18bc 04       		.byte	0x4
 6300 18bd 19       		.uleb128 0x19
 6301 18be E2150000 		.4byte	.LASF333
 6302 18c2 19       		.byte	0x19
 6303 18c3 4105     		.2byte	0x541
 6304 18c5 04090000 		.4byte	0x904
 6305 18c9 0C       		.byte	0xc
 6306 18ca 19       		.uleb128 0x19
 6307 18cb 45080000 		.4byte	.LASF334
 6308 18cf 19       		.byte	0x19
 6309 18d0 4205     		.2byte	0x542
 6310 18d2 14090000 		.4byte	0x914
 6311 18d6 10       		.byte	0x10
 6312 18d7 00       		.byte	0
 6313 18d8 08       		.uleb128 0x8
 6314 18d9 6C130000 		.4byte	.LASF335
 6315 18dd 19       		.byte	0x19
ARM GAS  /tmp/ccqRaZSa.s 			page 112


 6316 18de 4305     		.2byte	0x543
 6317 18e0 9A180000 		.4byte	0x189a
 6318 18e4 05       		.uleb128 0x5
 6319 18e5 D8180000 		.4byte	0x18d8
 6320 18e9 20       		.uleb128 0x20
 6321 18ea E3140000 		.4byte	.LASF336
 6322 18ee 1A       		.byte	0x1a
 6323 18ef 6201     		.2byte	0x162
 6324 18f1 7C180000 		.4byte	0x187c
 6325 18f5 20       		.uleb128 0x20
 6326 18f6 180D0000 		.4byte	.LASF337
 6327 18fa 1A       		.byte	0x1a
 6328 18fb 6301     		.2byte	0x163
 6329 18fd E4180000 		.4byte	0x18e4
 6330 1901 0D       		.uleb128 0xd
 6331 1902 0C       		.byte	0xc
 6332 1903 1B       		.byte	0x1b
 6333 1904 DA       		.byte	0xda
 6334 1905 46190000 		.4byte	0x1946
 6335 1909 0E       		.uleb128 0xe
 6336 190a C71E0000 		.4byte	.LASF338
 6337 190e 1B       		.byte	0x1b
 6338 190f DB       		.byte	0xdb
 6339 1910 46190000 		.4byte	0x1946
 6340 1914 00       		.byte	0
 6341 1915 0E       		.uleb128 0xe
 6342 1916 270E0000 		.4byte	.LASF339
 6343 191a 1B       		.byte	0x1b
 6344 191b DC       		.byte	0xdc
 6345 191c 4C190000 		.4byte	0x194c
 6346 1920 04       		.byte	0x4
 6347 1921 0E       		.uleb128 0xe
 6348 1922 8E030000 		.4byte	.LASF340
 6349 1926 1B       		.byte	0x1b
 6350 1927 DD       		.byte	0xdd
 6351 1928 D9080000 		.4byte	0x8d9
 6352 192c 08       		.byte	0x8
 6353 192d 0E       		.uleb128 0xe
 6354 192e 63190000 		.4byte	.LASF341
 6355 1932 1B       		.byte	0x1b
 6356 1933 DF       		.byte	0xdf
 6357 1934 D9080000 		.4byte	0x8d9
 6358 1938 09       		.byte	0x9
 6359 1939 0E       		.uleb128 0xe
 6360 193a E1020000 		.4byte	.LASF342
 6361 193e 1B       		.byte	0x1b
 6362 193f E0       		.byte	0xe0
 6363 1940 D9080000 		.4byte	0x8d9
 6364 1944 0A       		.byte	0xa
 6365 1945 00       		.byte	0
 6366 1946 06       		.uleb128 0x6
 6367 1947 04       		.byte	0x4
 6368 1948 BA0F0000 		.4byte	0xfba
 6369 194c 06       		.uleb128 0x6
 6370 194d 04       		.byte	0x4
 6371 194e 0F090000 		.4byte	0x90f
 6372 1952 04       		.uleb128 0x4
ARM GAS  /tmp/ccqRaZSa.s 			page 113


 6373 1953 3C100000 		.4byte	.LASF343
 6374 1957 1B       		.byte	0x1b
 6375 1958 E1       		.byte	0xe1
 6376 1959 01190000 		.4byte	0x1901
 6377 195d 10       		.uleb128 0x10
 6378 195e 52190000 		.4byte	0x1952
 6379 1962 0B       		.uleb128 0xb
 6380 1963 5D190000 		.4byte	0x195d
 6381 1967 72190000 		.4byte	0x1972
 6382 196b 0C       		.uleb128 0xc
 6383 196c 25000000 		.4byte	0x25
 6384 1970 0F       		.byte	0xf
 6385 1971 00       		.byte	0
 6386 1972 10       		.uleb128 0x10
 6387 1973 62190000 		.4byte	0x1962
 6388 1977 20       		.uleb128 0x20
 6389 1978 0C170000 		.4byte	.LASF344
 6390 197c 1B       		.byte	0x1b
 6391 197d BB01     		.2byte	0x1bb
 6392 197f 72190000 		.4byte	0x1972
 6393 1983 16       		.uleb128 0x16
 6394 1984 61090000 		.4byte	0x961
 6395 1988 9C190000 		.4byte	0x199c
 6396 198c 17       		.uleb128 0x17
 6397 198d 50010000 		.4byte	0x150
 6398 1991 17       		.uleb128 0x17
 6399 1992 D9080000 		.4byte	0x8d9
 6400 1996 17       		.uleb128 0x17
 6401 1997 8D090000 		.4byte	0x98d
 6402 199b 00       		.byte	0
 6403 199c 06       		.uleb128 0x6
 6404 199d 04       		.byte	0x4
 6405 199e 83190000 		.4byte	0x1983
 6406 19a2 16       		.uleb128 0x16
 6407 19a3 61090000 		.4byte	0x961
 6408 19a7 B6190000 		.4byte	0x19b6
 6409 19ab 17       		.uleb128 0x17
 6410 19ac 50010000 		.4byte	0x150
 6411 19b0 17       		.uleb128 0x17
 6412 19b1 8D090000 		.4byte	0x98d
 6413 19b5 00       		.byte	0
 6414 19b6 06       		.uleb128 0x6
 6415 19b7 04       		.byte	0x4
 6416 19b8 A2190000 		.4byte	0x19a2
 6417 19bc 16       		.uleb128 0x16
 6418 19bd 33000000 		.4byte	0x33
 6419 19c1 DA190000 		.4byte	0x19da
 6420 19c5 17       		.uleb128 0x17
 6421 19c6 50010000 		.4byte	0x150
 6422 19ca 17       		.uleb128 0x17
 6423 19cb 1B180000 		.4byte	0x181b
 6424 19cf 17       		.uleb128 0x17
 6425 19d0 33000000 		.4byte	0x33
 6426 19d4 17       		.uleb128 0x17
 6427 19d5 8D090000 		.4byte	0x98d
 6428 19d9 00       		.byte	0
 6429 19da 06       		.uleb128 0x6
ARM GAS  /tmp/ccqRaZSa.s 			page 114


 6430 19db 04       		.byte	0x4
 6431 19dc BC190000 		.4byte	0x19bc
 6432 19e0 16       		.uleb128 0x16
 6433 19e1 33000000 		.4byte	0x33
 6434 19e5 FE190000 		.4byte	0x19fe
 6435 19e9 17       		.uleb128 0x17
 6436 19ea 50010000 		.4byte	0x150
 6437 19ee 17       		.uleb128 0x17
 6438 19ef E6170000 		.4byte	0x17e6
 6439 19f3 17       		.uleb128 0x17
 6440 19f4 33000000 		.4byte	0x33
 6441 19f8 17       		.uleb128 0x17
 6442 19f9 8D090000 		.4byte	0x98d
 6443 19fd 00       		.byte	0
 6444 19fe 06       		.uleb128 0x6
 6445 19ff 04       		.byte	0x4
 6446 1a00 E0190000 		.4byte	0x19e0
 6447 1a04 0D       		.uleb128 0xd
 6448 1a05 04       		.byte	0x4
 6449 1a06 1C       		.byte	0x1c
 6450 1a07 B3       		.byte	0xb3
 6451 1a08 251A0000 		.4byte	0x1a25
 6452 1a0c 12       		.uleb128 0x12
 6453 1a0d 73657400 		.ascii	"set\000"
 6454 1a11 1C       		.byte	0x1c
 6455 1a12 B4       		.byte	0xb4
 6456 1a13 E9080000 		.4byte	0x8e9
 6457 1a17 00       		.byte	0
 6458 1a18 0E       		.uleb128 0xe
 6459 1a19 A10B0000 		.4byte	.LASF345
 6460 1a1d 1C       		.byte	0x1c
 6461 1a1e B5       		.byte	0xb5
 6462 1a1f E9080000 		.4byte	0x8e9
 6463 1a23 02       		.byte	0x2
 6464 1a24 00       		.byte	0
 6465 1a25 09       		.uleb128 0x9
 6466 1a26 04       		.byte	0x4
 6467 1a27 1C       		.byte	0x1c
 6468 1a28 B1       		.byte	0xb1
 6469 1a29 401A0000 		.4byte	0x1a40
 6470 1a2d 26       		.uleb128 0x26
 6471 1a2e 5700     		.ascii	"W\000"
 6472 1a30 1C       		.byte	0x1c
 6473 1a31 B2       		.byte	0xb2
 6474 1a32 04090000 		.4byte	0x904
 6475 1a36 26       		.uleb128 0x26
 6476 1a37 4800     		.ascii	"H\000"
 6477 1a39 1C       		.byte	0x1c
 6478 1a3a B6       		.byte	0xb6
 6479 1a3b 041A0000 		.4byte	0x1a04
 6480 1a3f 00       		.byte	0
 6481 1a40 05       		.uleb128 0x5
 6482 1a41 251A0000 		.4byte	0x1a25
 6483 1a45 0D       		.uleb128 0xd
 6484 1a46 2C       		.byte	0x2c
 6485 1a47 1C       		.byte	0x1c
 6486 1a48 A9       		.byte	0xa9
ARM GAS  /tmp/ccqRaZSa.s 			page 115


 6487 1a49 D21A0000 		.4byte	0x1ad2
 6488 1a4d 0E       		.uleb128 0xe
 6489 1a4e 9D190000 		.4byte	.LASF346
 6490 1a52 1C       		.byte	0x1c
 6491 1a53 AB       		.byte	0xab
 6492 1a54 0F090000 		.4byte	0x90f
 6493 1a58 00       		.byte	0
 6494 1a59 0E       		.uleb128 0xe
 6495 1a5a 84020000 		.4byte	.LASF347
 6496 1a5e 1C       		.byte	0x1c
 6497 1a5f AC       		.byte	0xac
 6498 1a60 0F090000 		.4byte	0x90f
 6499 1a64 04       		.byte	0x4
 6500 1a65 0E       		.uleb128 0xe
 6501 1a66 320D0000 		.4byte	.LASF348
 6502 1a6a 1C       		.byte	0x1c
 6503 1a6b AD       		.byte	0xad
 6504 1a6c 0F090000 		.4byte	0x90f
 6505 1a70 08       		.byte	0x8
 6506 1a71 0E       		.uleb128 0xe
 6507 1a72 E1180000 		.4byte	.LASF349
 6508 1a76 1C       		.byte	0x1c
 6509 1a77 AE       		.byte	0xae
 6510 1a78 0F090000 		.4byte	0x90f
 6511 1a7c 0C       		.byte	0xc
 6512 1a7d 12       		.uleb128 0x12
 6513 1a7e 49445200 		.ascii	"IDR\000"
 6514 1a82 1C       		.byte	0x1c
 6515 1a83 AF       		.byte	0xaf
 6516 1a84 0F090000 		.4byte	0x90f
 6517 1a88 10       		.byte	0x10
 6518 1a89 12       		.uleb128 0x12
 6519 1a8a 4F445200 		.ascii	"ODR\000"
 6520 1a8e 1C       		.byte	0x1c
 6521 1a8f B0       		.byte	0xb0
 6522 1a90 0F090000 		.4byte	0x90f
 6523 1a94 14       		.byte	0x14
 6524 1a95 0E       		.uleb128 0xe
 6525 1a96 37100000 		.4byte	.LASF350
 6526 1a9a 1C       		.byte	0x1c
 6527 1a9b B7       		.byte	0xb7
 6528 1a9c 401A0000 		.4byte	0x1a40
 6529 1aa0 18       		.byte	0x18
 6530 1aa1 0E       		.uleb128 0xe
 6531 1aa2 CB140000 		.4byte	.LASF351
 6532 1aa6 1C       		.byte	0x1c
 6533 1aa7 B8       		.byte	0xb8
 6534 1aa8 0F090000 		.4byte	0x90f
 6535 1aac 1C       		.byte	0x1c
 6536 1aad 0E       		.uleb128 0xe
 6537 1aae AB170000 		.4byte	.LASF352
 6538 1ab2 1C       		.byte	0x1c
 6539 1ab3 B9       		.byte	0xb9
 6540 1ab4 0F090000 		.4byte	0x90f
 6541 1ab8 20       		.byte	0x20
 6542 1ab9 0E       		.uleb128 0xe
 6543 1aba A6170000 		.4byte	.LASF353
ARM GAS  /tmp/ccqRaZSa.s 			page 116


 6544 1abe 1C       		.byte	0x1c
 6545 1abf BA       		.byte	0xba
 6546 1ac0 0F090000 		.4byte	0x90f
 6547 1ac4 24       		.byte	0x24
 6548 1ac5 12       		.uleb128 0x12
 6549 1ac6 42525200 		.ascii	"BRR\000"
 6550 1aca 1C       		.byte	0x1c
 6551 1acb BB       		.byte	0xbb
 6552 1acc 0F090000 		.4byte	0x90f
 6553 1ad0 28       		.byte	0x28
 6554 1ad1 00       		.byte	0
 6555 1ad2 04       		.uleb128 0x4
 6556 1ad3 420E0000 		.4byte	.LASF354
 6557 1ad7 1C       		.byte	0x1c
 6558 1ad8 BC       		.byte	0xbc
 6559 1ad9 451A0000 		.4byte	0x1a45
 6560 1add 0D       		.uleb128 0xd
 6561 1ade 1C       		.byte	0x1c
 6562 1adf 1C       		.byte	0x1c
 6563 1ae0 C1       		.byte	0xc1
 6564 1ae1 3A1B0000 		.4byte	0x1b3a
 6565 1ae5 0E       		.uleb128 0xe
 6566 1ae6 B31C0000 		.4byte	.LASF355
 6567 1aea 1C       		.byte	0x1c
 6568 1aeb C3       		.byte	0xc3
 6569 1aec 04090000 		.4byte	0x904
 6570 1af0 00       		.byte	0
 6571 1af1 0E       		.uleb128 0xe
 6572 1af2 6F020000 		.4byte	.LASF356
 6573 1af6 1C       		.byte	0x1c
 6574 1af7 C5       		.byte	0xc5
 6575 1af8 04090000 		.4byte	0x904
 6576 1afc 04       		.byte	0x4
 6577 1afd 0E       		.uleb128 0xe
 6578 1afe A0010000 		.4byte	.LASF357
 6579 1b02 1C       		.byte	0x1c
 6580 1b03 C7       		.byte	0xc7
 6581 1b04 04090000 		.4byte	0x904
 6582 1b08 08       		.byte	0x8
 6583 1b09 0E       		.uleb128 0xe
 6584 1b0a D81B0000 		.4byte	.LASF358
 6585 1b0e 1C       		.byte	0x1c
 6586 1b0f C9       		.byte	0xc9
 6587 1b10 04090000 		.4byte	0x904
 6588 1b14 0C       		.byte	0xc
 6589 1b15 12       		.uleb128 0x12
 6590 1b16 6F647200 		.ascii	"odr\000"
 6591 1b1a 1C       		.byte	0x1c
 6592 1b1b CB       		.byte	0xcb
 6593 1b1c 04090000 		.4byte	0x904
 6594 1b20 10       		.byte	0x10
 6595 1b21 0E       		.uleb128 0xe
 6596 1b22 4F190000 		.4byte	.LASF359
 6597 1b26 1C       		.byte	0x1c
 6598 1b27 CD       		.byte	0xcd
 6599 1b28 04090000 		.4byte	0x904
 6600 1b2c 14       		.byte	0x14
ARM GAS  /tmp/ccqRaZSa.s 			page 117


 6601 1b2d 0E       		.uleb128 0xe
 6602 1b2e 41190000 		.4byte	.LASF360
 6603 1b32 1C       		.byte	0x1c
 6604 1b33 CF       		.byte	0xcf
 6605 1b34 04090000 		.4byte	0x904
 6606 1b38 18       		.byte	0x18
 6607 1b39 00       		.byte	0
 6608 1b3a 04       		.uleb128 0x4
 6609 1b3b D4160000 		.4byte	.LASF361
 6610 1b3f 1C       		.byte	0x1c
 6611 1b40 D0       		.byte	0xd0
 6612 1b41 DD1A0000 		.4byte	0x1add
 6613 1b45 0D       		.uleb128 0xd
 6614 1b46 FC       		.byte	0xfc
 6615 1b47 1C       		.byte	0x1c
 6616 1b48 D9       		.byte	0xd9
 6617 1b49 BA1B0000 		.4byte	0x1bba
 6618 1b4d 0E       		.uleb128 0xe
 6619 1b4e BC0E0000 		.4byte	.LASF362
 6620 1b52 1C       		.byte	0x1c
 6621 1b53 DC       		.byte	0xdc
 6622 1b54 3A1B0000 		.4byte	0x1b3a
 6623 1b58 00       		.byte	0
 6624 1b59 0E       		.uleb128 0xe
 6625 1b5a 4E020000 		.4byte	.LASF363
 6626 1b5e 1C       		.byte	0x1c
 6627 1b5f E0       		.byte	0xe0
 6628 1b60 3A1B0000 		.4byte	0x1b3a
 6629 1b64 1C       		.byte	0x1c
 6630 1b65 0E       		.uleb128 0xe
 6631 1b66 41010000 		.4byte	.LASF364
 6632 1b6a 1C       		.byte	0x1c
 6633 1b6b E4       		.byte	0xe4
 6634 1b6c 3A1B0000 		.4byte	0x1b3a
 6635 1b70 38       		.byte	0x38
 6636 1b71 0E       		.uleb128 0xe
 6637 1b72 8D0C0000 		.4byte	.LASF365
 6638 1b76 1C       		.byte	0x1c
 6639 1b77 E8       		.byte	0xe8
 6640 1b78 3A1B0000 		.4byte	0x1b3a
 6641 1b7c 54       		.byte	0x54
 6642 1b7d 0E       		.uleb128 0xe
 6643 1b7e 27160000 		.4byte	.LASF366
 6644 1b82 1C       		.byte	0x1c
 6645 1b83 EC       		.byte	0xec
 6646 1b84 3A1B0000 		.4byte	0x1b3a
 6647 1b88 70       		.byte	0x70
 6648 1b89 0E       		.uleb128 0xe
 6649 1b8a 921F0000 		.4byte	.LASF367
 6650 1b8e 1C       		.byte	0x1c
 6651 1b8f F0       		.byte	0xf0
 6652 1b90 3A1B0000 		.4byte	0x1b3a
 6653 1b94 8C       		.byte	0x8c
 6654 1b95 0E       		.uleb128 0xe
 6655 1b96 C0090000 		.4byte	.LASF368
 6656 1b9a 1C       		.byte	0x1c
 6657 1b9b F4       		.byte	0xf4
ARM GAS  /tmp/ccqRaZSa.s 			page 118


 6658 1b9c 3A1B0000 		.4byte	0x1b3a
 6659 1ba0 A8       		.byte	0xa8
 6660 1ba1 0E       		.uleb128 0xe
 6661 1ba2 50140000 		.4byte	.LASF369
 6662 1ba6 1C       		.byte	0x1c
 6663 1ba7 F8       		.byte	0xf8
 6664 1ba8 3A1B0000 		.4byte	0x1b3a
 6665 1bac C4       		.byte	0xc4
 6666 1bad 0E       		.uleb128 0xe
 6667 1bae DC1D0000 		.4byte	.LASF370
 6668 1bb2 1C       		.byte	0x1c
 6669 1bb3 FC       		.byte	0xfc
 6670 1bb4 3A1B0000 		.4byte	0x1b3a
 6671 1bb8 E0       		.byte	0xe0
 6672 1bb9 00       		.byte	0
 6673 1bba 04       		.uleb128 0x4
 6674 1bbb FA080000 		.4byte	.LASF371
 6675 1bbf 1C       		.byte	0x1c
 6676 1bc0 FE       		.byte	0xfe
 6677 1bc1 451B0000 		.4byte	0x1b45
 6678 1bc5 10       		.uleb128 0x10
 6679 1bc6 BA1B0000 		.4byte	0x1bba
 6680 1bca 08       		.uleb128 0x8
 6681 1bcb 57140000 		.4byte	.LASF372
 6682 1bcf 1C       		.byte	0x1c
 6683 1bd0 1B01     		.2byte	0x11b
 6684 1bd2 D61B0000 		.4byte	0x1bd6
 6685 1bd6 06       		.uleb128 0x6
 6686 1bd7 04       		.byte	0x4
 6687 1bd8 D21A0000 		.4byte	0x1ad2
 6688 1bdc 20       		.uleb128 0x20
 6689 1bdd 1E1A0000 		.4byte	.LASF373
 6690 1be1 1C       		.byte	0x1c
 6691 1be2 DA01     		.2byte	0x1da
 6692 1be4 C51B0000 		.4byte	0x1bc5
 6693 1be8 27       		.uleb128 0x27
 6694 1be9 07       		.byte	0x7
 6695 1bea 01       		.byte	0x1
 6696 1beb 55000000 		.4byte	0x55
 6697 1bef 1D       		.byte	0x1d
 6698 1bf0 5F       		.byte	0x5f
 6699 1bf1 141C0000 		.4byte	0x1c14
 6700 1bf5 28       		.uleb128 0x28
 6701 1bf6 1D0C0000 		.4byte	.LASF374
 6702 1bfa 00       		.byte	0
 6703 1bfb 28       		.uleb128 0x28
 6704 1bfc 7A000000 		.4byte	.LASF375
 6705 1c00 01       		.byte	0x1
 6706 1c01 28       		.uleb128 0x28
 6707 1c02 26000000 		.4byte	.LASF376
 6708 1c06 02       		.byte	0x2
 6709 1c07 28       		.uleb128 0x28
 6710 1c08 68150000 		.4byte	.LASF377
 6711 1c0c 03       		.byte	0x3
 6712 1c0d 28       		.uleb128 0x28
 6713 1c0e 3B080000 		.4byte	.LASF378
 6714 1c12 04       		.byte	0x4
ARM GAS  /tmp/ccqRaZSa.s 			page 119


 6715 1c13 00       		.byte	0
 6716 1c14 04       		.uleb128 0x4
 6717 1c15 E0040000 		.4byte	.LASF379
 6718 1c19 1D       		.byte	0x1d
 6719 1c1a 65       		.byte	0x65
 6720 1c1b E81B0000 		.4byte	0x1be8
 6721 1c1f 0D       		.uleb128 0xd
 6722 1c20 08       		.byte	0x8
 6723 1c21 1E       		.byte	0x1e
 6724 1c22 F4       		.byte	0xf4
 6725 1c23 411C0000 		.4byte	0x1c41
 6726 1c27 12       		.uleb128 0x12
 6727 1c28 6D637200 		.ascii	"mcr\000"
 6728 1c2c 1E       		.byte	0x1e
 6729 1c2d FA       		.byte	0xfa
 6730 1c2e 04090000 		.4byte	0x904
 6731 1c32 00       		.byte	0
 6732 1c33 21       		.uleb128 0x21
 6733 1c34 62747200 		.ascii	"btr\000"
 6734 1c38 1E       		.byte	0x1e
 6735 1c39 0001     		.2byte	0x100
 6736 1c3b 04090000 		.4byte	0x904
 6737 1c3f 04       		.byte	0x4
 6738 1c40 00       		.byte	0
 6739 1c41 08       		.uleb128 0x8
 6740 1c42 1D160000 		.4byte	.LASF380
 6741 1c46 1E       		.byte	0x1e
 6742 1c47 0101     		.2byte	0x101
 6743 1c49 1F1C0000 		.4byte	0x1c1f
 6744 1c4d 10       		.uleb128 0x10
 6745 1c4e 411C0000 		.4byte	0x1c41
 6746 1c52 1C       		.uleb128 0x1c
 6747 1c53 30       		.byte	0x30
 6748 1c54 1E       		.byte	0x1e
 6749 1c55 0601     		.2byte	0x106
 6750 1c57 DE1C0000 		.4byte	0x1cde
 6751 1c5b 19       		.uleb128 0x19
 6752 1c5c EA120000 		.4byte	.LASF381
 6753 1c60 1E       		.byte	0x1e
 6754 1c61 0A01     		.2byte	0x10a
 6755 1c63 141C0000 		.4byte	0x1c14
 6756 1c67 00       		.byte	0
 6757 1c68 19       		.uleb128 0x19
 6758 1c69 E3170000 		.4byte	.LASF382
 6759 1c6d 1E       		.byte	0x1e
 6760 1c6e 0E01     		.2byte	0x10e
 6761 1c70 DE1C0000 		.4byte	0x1cde
 6762 1c74 04       		.byte	0x4
 6763 1c75 19       		.uleb128 0x19
 6764 1c76 CE070000 		.4byte	.LASF383
 6765 1c7a 1E       		.byte	0x1e
 6766 1c7b 1201     		.2byte	0x112
 6767 1c7d FB0A0000 		.4byte	0xafb
 6768 1c81 08       		.byte	0x8
 6769 1c82 19       		.uleb128 0x19
 6770 1c83 0D1A0000 		.4byte	.LASF384
 6771 1c87 1E       		.byte	0x1e
ARM GAS  /tmp/ccqRaZSa.s 			page 120


 6772 1c88 1601     		.2byte	0x116
 6773 1c8a FB0A0000 		.4byte	0xafb
 6774 1c8e 10       		.byte	0x10
 6775 1c8f 19       		.uleb128 0x19
 6776 1c90 F4150000 		.4byte	.LASF385
 6777 1c94 1E       		.byte	0x1e
 6778 1c95 2301     		.2byte	0x123
 6779 1c97 41170000 		.4byte	0x1741
 6780 1c9b 18       		.byte	0x18
 6781 1c9c 19       		.uleb128 0x19
 6782 1c9d A9090000 		.4byte	.LASF386
 6783 1ca1 1E       		.byte	0x1e
 6784 1ca2 2A01     		.2byte	0x12a
 6785 1ca4 41170000 		.4byte	0x1741
 6786 1ca8 1C       		.byte	0x1c
 6787 1ca9 19       		.uleb128 0x19
 6788 1caa 210D0000 		.4byte	.LASF387
 6789 1cae 1E       		.byte	0x1e
 6790 1caf 3001     		.2byte	0x130
 6791 1cb1 41170000 		.4byte	0x1741
 6792 1cb5 20       		.byte	0x20
 6793 1cb6 19       		.uleb128 0x19
 6794 1cb7 BE020000 		.4byte	.LASF388
 6795 1cbb 1E       		.byte	0x1e
 6796 1cbc 3501     		.2byte	0x135
 6797 1cbe 41170000 		.4byte	0x1741
 6798 1cc2 24       		.byte	0x24
 6799 1cc3 19       		.uleb128 0x19
 6800 1cc4 84070000 		.4byte	.LASF389
 6801 1cc8 1E       		.byte	0x1e
 6802 1cc9 3901     		.2byte	0x139
 6803 1ccb 41170000 		.4byte	0x1741
 6804 1ccf 28       		.byte	0x28
 6805 1cd0 21       		.uleb128 0x21
 6806 1cd1 63616E00 		.ascii	"can\000"
 6807 1cd5 1E       		.byte	0x1e
 6808 1cd6 3F01     		.2byte	0x13f
 6809 1cd8 E41C0000 		.4byte	0x1ce4
 6810 1cdc 2C       		.byte	0x2c
 6811 1cdd 00       		.byte	0
 6812 1cde 06       		.uleb128 0x6
 6813 1cdf 04       		.byte	0x4
 6814 1ce0 4D1C0000 		.4byte	0x1c4d
 6815 1ce4 06       		.uleb128 0x6
 6816 1ce5 04       		.byte	0x4
 6817 1ce6 570F0000 		.4byte	0xf57
 6818 1cea 08       		.uleb128 0x8
 6819 1ceb 0E030000 		.4byte	.LASF390
 6820 1cef 1E       		.byte	0x1e
 6821 1cf0 4001     		.2byte	0x140
 6822 1cf2 521C0000 		.4byte	0x1c52
 6823 1cf6 20       		.uleb128 0x20
 6824 1cf7 881B0000 		.4byte	.LASF391
 6825 1cfb 1E       		.byte	0x1e
 6826 1cfc 4B01     		.2byte	0x14b
 6827 1cfe EA1C0000 		.4byte	0x1cea
 6828 1d02 20       		.uleb128 0x20
ARM GAS  /tmp/ccqRaZSa.s 			page 121


 6829 1d03 9F080000 		.4byte	.LASF392
 6830 1d07 1E       		.byte	0x1e
 6831 1d08 4F01     		.2byte	0x14f
 6832 1d0a EA1C0000 		.4byte	0x1cea
 6833 1d0e 27       		.uleb128 0x27
 6834 1d0f 07       		.byte	0x7
 6835 1d10 01       		.byte	0x1
 6836 1d11 55000000 		.4byte	0x55
 6837 1d15 1F       		.byte	0x1f
 6838 1d16 4C       		.byte	0x4c
 6839 1d17 401D0000 		.4byte	0x1d40
 6840 1d1b 28       		.uleb128 0x28
 6841 1d1c 4D050000 		.4byte	.LASF393
 6842 1d20 00       		.byte	0
 6843 1d21 28       		.uleb128 0x28
 6844 1d22 E60C0000 		.4byte	.LASF394
 6845 1d26 01       		.byte	0x1
 6846 1d27 28       		.uleb128 0x28
 6847 1d28 CC050000 		.4byte	.LASF395
 6848 1d2c 02       		.byte	0x2
 6849 1d2d 28       		.uleb128 0x28
 6850 1d2e D3030000 		.4byte	.LASF396
 6851 1d32 03       		.byte	0x3
 6852 1d33 28       		.uleb128 0x28
 6853 1d34 9D020000 		.4byte	.LASF397
 6854 1d38 04       		.byte	0x4
 6855 1d39 28       		.uleb128 0x28
 6856 1d3a 7E100000 		.4byte	.LASF398
 6857 1d3e 05       		.byte	0x5
 6858 1d3f 00       		.byte	0
 6859 1d40 04       		.uleb128 0x4
 6860 1d41 0F0F0000 		.4byte	.LASF399
 6861 1d45 1F       		.byte	0x1f
 6862 1d46 53       		.byte	0x53
 6863 1d47 0E1D0000 		.4byte	0x1d0e
 6864 1d4b 08       		.uleb128 0x8
 6865 1d4c 25140000 		.4byte	.LASF400
 6866 1d50 20       		.byte	0x20
 6867 1d51 6A01     		.2byte	0x16a
 6868 1d53 E9080000 		.4byte	0x8e9
 6869 1d57 08       		.uleb128 0x8
 6870 1d58 2A030000 		.4byte	.LASF401
 6871 1d5c 20       		.byte	0x20
 6872 1d5d 6F01     		.2byte	0x16f
 6873 1d5f 04090000 		.4byte	0x904
 6874 1d63 29       		.uleb128 0x29
 6875 1d64 07       		.byte	0x7
 6876 1d65 01       		.byte	0x1
 6877 1d66 55000000 		.4byte	0x55
 6878 1d6a 20       		.byte	0x20
 6879 1d6b 7401     		.2byte	0x174
 6880 1d6d 841D0000 		.4byte	0x1d84
 6881 1d71 28       		.uleb128 0x28
 6882 1d72 E1030000 		.4byte	.LASF402
 6883 1d76 01       		.byte	0x1
 6884 1d77 28       		.uleb128 0x28
 6885 1d78 42000000 		.4byte	.LASF403
ARM GAS  /tmp/ccqRaZSa.s 			page 122


 6886 1d7c 02       		.byte	0x2
 6887 1d7d 28       		.uleb128 0x28
 6888 1d7e F3070000 		.4byte	.LASF404
 6889 1d82 03       		.byte	0x3
 6890 1d83 00       		.byte	0
 6891 1d84 08       		.uleb128 0x8
 6892 1d85 CE1E0000 		.4byte	.LASF405
 6893 1d89 20       		.byte	0x20
 6894 1d8a 7801     		.2byte	0x178
 6895 1d8c 631D0000 		.4byte	0x1d63
 6896 1d90 29       		.uleb128 0x29
 6897 1d91 07       		.byte	0x7
 6898 1d92 01       		.byte	0x1
 6899 1d93 55000000 		.4byte	0x55
 6900 1d97 20       		.byte	0x20
 6901 1d98 7D01     		.2byte	0x17d
 6902 1d9a B11D0000 		.4byte	0x1db1
 6903 1d9e 28       		.uleb128 0x28
 6904 1d9f A7040000 		.4byte	.LASF406
 6905 1da3 01       		.byte	0x1
 6906 1da4 28       		.uleb128 0x28
 6907 1da5 671E0000 		.4byte	.LASF407
 6908 1da9 02       		.byte	0x2
 6909 1daa 28       		.uleb128 0x28
 6910 1dab A5080000 		.4byte	.LASF408
 6911 1daf 03       		.byte	0x3
 6912 1db0 00       		.byte	0
 6913 1db1 08       		.uleb128 0x8
 6914 1db2 89050000 		.4byte	.LASF409
 6915 1db6 20       		.byte	0x20
 6916 1db7 8101     		.2byte	0x181
 6917 1db9 901D0000 		.4byte	0x1d90
 6918 1dbd 1C       		.uleb128 0x1c
 6919 1dbe 0C       		.byte	0xc
 6920 1dbf 20       		.byte	0x20
 6921 1dc0 8601     		.2byte	0x186
 6922 1dc2 EE1D0000 		.4byte	0x1dee
 6923 1dc6 19       		.uleb128 0x19
 6924 1dc7 19050000 		.4byte	.LASF410
 6925 1dcb 20       		.byte	0x20
 6926 1dcc 8801     		.2byte	0x188
 6927 1dce 841D0000 		.4byte	0x1d84
 6928 1dd2 00       		.byte	0
 6929 1dd3 19       		.uleb128 0x19
 6930 1dd4 F8020000 		.4byte	.LASF411
 6931 1dd8 20       		.byte	0x20
 6932 1dd9 8901     		.2byte	0x189
 6933 1ddb 04090000 		.4byte	0x904
 6934 1ddf 04       		.byte	0x4
 6935 1de0 19       		.uleb128 0x19
 6936 1de1 631F0000 		.4byte	.LASF412
 6937 1de5 20       		.byte	0x20
 6938 1de6 8C01     		.2byte	0x18c
 6939 1de8 B11D0000 		.4byte	0x1db1
 6940 1dec 08       		.byte	0x8
 6941 1ded 00       		.byte	0
 6942 1dee 08       		.uleb128 0x8
ARM GAS  /tmp/ccqRaZSa.s 			page 123


 6943 1def 74010000 		.4byte	.LASF413
 6944 1df3 20       		.byte	0x20
 6945 1df4 8E01     		.2byte	0x18e
 6946 1df6 BD1D0000 		.4byte	0x1dbd
 6947 1dfa 10       		.uleb128 0x10
 6948 1dfb EE1D0000 		.4byte	0x1dee
 6949 1dff 08       		.uleb128 0x8
 6950 1e00 C9030000 		.4byte	.LASF414
 6951 1e04 20       		.byte	0x20
 6952 1e05 9301     		.2byte	0x193
 6953 1e07 0B1E0000 		.4byte	0x1e0b
 6954 1e0b 1B       		.uleb128 0x1b
 6955 1e0c C9030000 		.4byte	.LASF414
 6956 1e10 38       		.byte	0x38
 6957 1e11 20       		.byte	0x20
 6958 1e12 9801     		.2byte	0x198
 6959 1e14 A81E0000 		.4byte	0x1ea8
 6960 1e18 19       		.uleb128 0x19
 6961 1e19 EA120000 		.4byte	.LASF381
 6962 1e1d 20       		.byte	0x20
 6963 1e1e 9C01     		.2byte	0x19c
 6964 1e20 401D0000 		.4byte	0x1d40
 6965 1e24 00       		.byte	0
 6966 1e25 19       		.uleb128 0x19
 6967 1e26 E3170000 		.4byte	.LASF382
 6968 1e2a 20       		.byte	0x20
 6969 1e2b A001     		.2byte	0x1a0
 6970 1e2d A81E0000 		.4byte	0x1ea8
 6971 1e31 04       		.byte	0x4
 6972 1e32 19       		.uleb128 0x19
 6973 1e33 E9000000 		.4byte	.LASF415
 6974 1e37 20       		.byte	0x20
 6975 1e38 A401     		.2byte	0x1a4
 6976 1e3a 571D0000 		.4byte	0x1d57
 6977 1e3e 08       		.byte	0x8
 6978 1e3f 19       		.uleb128 0x19
 6979 1e40 860B0000 		.4byte	.LASF416
 6980 1e44 20       		.byte	0x20
 6981 1e45 A901     		.2byte	0x1a9
 6982 1e47 BD160000 		.4byte	0x16bd
 6983 1e4b 0C       		.byte	0xc
 6984 1e4c 19       		.uleb128 0x19
 6985 1e4d A1050000 		.4byte	.LASF417
 6986 1e51 20       		.byte	0x20
 6987 1e52 B201     		.2byte	0x1b2
 6988 1e54 C60A0000 		.4byte	0xac6
 6989 1e58 1C       		.byte	0x1c
 6990 1e59 19       		.uleb128 0x19
 6991 1e5a EF0C0000 		.4byte	.LASF418
 6992 1e5e 20       		.byte	0x20
 6993 1e5f B601     		.2byte	0x1b6
 6994 1e61 4B1D0000 		.4byte	0x1d4b
 6995 1e65 20       		.byte	0x20
 6996 1e66 19       		.uleb128 0x19
 6997 1e67 D2060000 		.4byte	.LASF419
 6998 1e6b 20       		.byte	0x20
 6999 1e6c BA01     		.2byte	0x1ba
ARM GAS  /tmp/ccqRaZSa.s 			page 124


 7000 1e6e 04090000 		.4byte	0x904
 7001 1e72 24       		.byte	0x24
 7002 1e73 19       		.uleb128 0x19
 7003 1e74 23070000 		.4byte	.LASF420
 7004 1e78 20       		.byte	0x20
 7005 1e79 BE01     		.2byte	0x1be
 7006 1e7b 04090000 		.4byte	0x904
 7007 1e7f 28       		.byte	0x28
 7008 1e80 19       		.uleb128 0x19
 7009 1e81 B2000000 		.4byte	.LASF421
 7010 1e85 20       		.byte	0x20
 7011 1e86 C201     		.2byte	0x1c2
 7012 1e88 AE1E0000 		.4byte	0x1eae
 7013 1e8c 2C       		.byte	0x2c
 7014 1e8d 19       		.uleb128 0x19
 7015 1e8e 87010000 		.4byte	.LASF422
 7016 1e92 20       		.byte	0x20
 7017 1e93 C601     		.2byte	0x1c6
 7018 1e95 AE1E0000 		.4byte	0x1eae
 7019 1e99 30       		.byte	0x30
 7020 1e9a 21       		.uleb128 0x21
 7021 1e9b 69326300 		.ascii	"i2c\000"
 7022 1e9f 20       		.byte	0x20
 7023 1ea0 CA01     		.2byte	0x1ca
 7024 1ea2 B41E0000 		.4byte	0x1eb4
 7025 1ea6 34       		.byte	0x34
 7026 1ea7 00       		.byte	0
 7027 1ea8 06       		.uleb128 0x6
 7028 1ea9 04       		.byte	0x4
 7029 1eaa FA1D0000 		.4byte	0x1dfa
 7030 1eae 06       		.uleb128 0x6
 7031 1eaf 04       		.byte	0x4
 7032 1eb0 5D190000 		.4byte	0x195d
 7033 1eb4 06       		.uleb128 0x6
 7034 1eb5 04       		.byte	0x4
 7035 1eb6 7B100000 		.4byte	0x107b
 7036 1eba 20       		.uleb128 0x20
 7037 1ebb 750F0000 		.4byte	.LASF423
 7038 1ebf 20       		.byte	0x20
 7039 1ec0 E401     		.2byte	0x1e4
 7040 1ec2 FF1D0000 		.4byte	0x1dff
 7041 1ec6 27       		.uleb128 0x27
 7042 1ec7 07       		.byte	0x7
 7043 1ec8 01       		.byte	0x1
 7044 1ec9 55000000 		.4byte	0x55
 7045 1ecd 21       		.byte	0x21
 7046 1ece 31       		.byte	0x31
 7047 1ecf F21E0000 		.4byte	0x1ef2
 7048 1ed3 28       		.uleb128 0x28
 7049 1ed4 FC1D0000 		.4byte	.LASF424
 7050 1ed8 00       		.byte	0
 7051 1ed9 28       		.uleb128 0x28
 7052 1eda 46190000 		.4byte	.LASF425
 7053 1ede 01       		.byte	0x1
 7054 1edf 28       		.uleb128 0x28
 7055 1ee0 23040000 		.4byte	.LASF426
 7056 1ee4 02       		.byte	0x2
ARM GAS  /tmp/ccqRaZSa.s 			page 125


 7057 1ee5 28       		.uleb128 0x28
 7058 1ee6 37110000 		.4byte	.LASF427
 7059 1eea 03       		.byte	0x3
 7060 1eeb 28       		.uleb128 0x28
 7061 1eec 11010000 		.4byte	.LASF428
 7062 1ef0 04       		.byte	0x4
 7063 1ef1 00       		.byte	0
 7064 1ef2 04       		.uleb128 0x4
 7065 1ef3 0E1B0000 		.4byte	.LASF429
 7066 1ef7 21       		.byte	0x21
 7067 1ef8 37       		.byte	0x37
 7068 1ef9 C61E0000 		.4byte	0x1ec6
 7069 1efd 04       		.uleb128 0x4
 7070 1efe BC150000 		.4byte	.LASF430
 7071 1f02 21       		.byte	0x21
 7072 1f03 3C       		.byte	0x3c
 7073 1f04 081F0000 		.4byte	0x1f08
 7074 1f08 1B       		.uleb128 0x1b
 7075 1f09 BC150000 		.4byte	.LASF430
 7076 1f0d 18       		.byte	0x18
 7077 1f0e 22       		.byte	0x22
 7078 1f0f 3101     		.2byte	0x131
 7079 1f11 641F0000 		.4byte	0x1f64
 7080 1f15 19       		.uleb128 0x19
 7081 1f16 EA120000 		.4byte	.LASF381
 7082 1f1a 22       		.byte	0x22
 7083 1f1b 3501     		.2byte	0x135
 7084 1f1d F21E0000 		.4byte	0x1ef2
 7085 1f21 00       		.byte	0
 7086 1f22 19       		.uleb128 0x19
 7087 1f23 E3170000 		.4byte	.LASF382
 7088 1f27 22       		.byte	0x22
 7089 1f28 3901     		.2byte	0x139
 7090 1f2a 69210000 		.4byte	0x2169
 7091 1f2e 04       		.byte	0x4
 7092 1f2f 19       		.uleb128 0x19
 7093 1f30 9B0B0000 		.4byte	.LASF431
 7094 1f34 22       		.byte	0x22
 7095 1f35 4101     		.2byte	0x141
 7096 1f37 04090000 		.4byte	0x904
 7097 1f3b 08       		.byte	0x8
 7098 1f3c 21       		.uleb128 0x21
 7099 1f3d 74696D00 		.ascii	"tim\000"
 7100 1f41 22       		.byte	0x22
 7101 1f42 4501     		.2byte	0x145
 7102 1f44 6F210000 		.4byte	0x216f
 7103 1f48 0C       		.byte	0xc
 7104 1f49 19       		.uleb128 0x19
 7105 1f4a FC180000 		.4byte	.LASF432
 7106 1f4e 22       		.byte	0x22
 7107 1f4f 4901     		.2byte	0x149
 7108 1f51 4C190000 		.4byte	0x194c
 7109 1f55 10       		.byte	0x10
 7110 1f56 19       		.uleb128 0x19
 7111 1f57 46040000 		.4byte	.LASF433
 7112 1f5b 22       		.byte	0x22
 7113 1f5c 4D01     		.2byte	0x14d
ARM GAS  /tmp/ccqRaZSa.s 			page 126


 7114 1f5e 4C190000 		.4byte	0x194c
 7115 1f62 14       		.byte	0x14
 7116 1f63 00       		.byte	0
 7117 1f64 04       		.uleb128 0x4
 7118 1f65 9E160000 		.4byte	.LASF434
 7119 1f69 21       		.byte	0x21
 7120 1f6a 43       		.byte	0x43
 7121 1f6b 6F1F0000 		.4byte	0x1f6f
 7122 1f6f 06       		.uleb128 0x6
 7123 1f70 04       		.byte	0x4
 7124 1f71 751F0000 		.4byte	0x1f75
 7125 1f75 1F       		.uleb128 0x1f
 7126 1f76 801F0000 		.4byte	0x1f80
 7127 1f7a 17       		.uleb128 0x17
 7128 1f7b 801F0000 		.4byte	0x1f80
 7129 1f7f 00       		.byte	0
 7130 1f80 06       		.uleb128 0x6
 7131 1f81 04       		.byte	0x4
 7132 1f82 FD1E0000 		.4byte	0x1efd
 7133 1f86 1C       		.uleb128 0x1c
 7134 1f87 60       		.byte	0x60
 7135 1f88 23       		.byte	0x23
 7136 1f89 9E01     		.2byte	0x19e
 7137 1f8b 92200000 		.4byte	0x2092
 7138 1f8f 21       		.uleb128 0x21
 7139 1f90 43523100 		.ascii	"CR1\000"
 7140 1f94 23       		.byte	0x23
 7141 1f95 9F01     		.2byte	0x19f
 7142 1f97 0F090000 		.4byte	0x90f
 7143 1f9b 00       		.byte	0
 7144 1f9c 21       		.uleb128 0x21
 7145 1f9d 43523200 		.ascii	"CR2\000"
 7146 1fa1 23       		.byte	0x23
 7147 1fa2 A001     		.2byte	0x1a0
 7148 1fa4 0F090000 		.4byte	0x90f
 7149 1fa8 04       		.byte	0x4
 7150 1fa9 19       		.uleb128 0x19
 7151 1faa 2D1B0000 		.4byte	.LASF435
 7152 1fae 23       		.byte	0x23
 7153 1faf A101     		.2byte	0x1a1
 7154 1fb1 0F090000 		.4byte	0x90f
 7155 1fb5 08       		.byte	0x8
 7156 1fb6 19       		.uleb128 0x19
 7157 1fb7 62080000 		.4byte	.LASF436
 7158 1fbb 23       		.byte	0x23
 7159 1fbc A201     		.2byte	0x1a2
 7160 1fbe 0F090000 		.4byte	0x90f
 7161 1fc2 0C       		.byte	0xc
 7162 1fc3 21       		.uleb128 0x21
 7163 1fc4 535200   		.ascii	"SR\000"
 7164 1fc7 23       		.byte	0x23
 7165 1fc8 A301     		.2byte	0x1a3
 7166 1fca 0F090000 		.4byte	0x90f
 7167 1fce 10       		.byte	0x10
 7168 1fcf 21       		.uleb128 0x21
 7169 1fd0 45475200 		.ascii	"EGR\000"
 7170 1fd4 23       		.byte	0x23
ARM GAS  /tmp/ccqRaZSa.s 			page 127


 7171 1fd5 A401     		.2byte	0x1a4
 7172 1fd7 0F090000 		.4byte	0x90f
 7173 1fdb 14       		.byte	0x14
 7174 1fdc 19       		.uleb128 0x19
 7175 1fdd 8C1E0000 		.4byte	.LASF437
 7176 1fe1 23       		.byte	0x23
 7177 1fe2 A501     		.2byte	0x1a5
 7178 1fe4 0F090000 		.4byte	0x90f
 7179 1fe8 18       		.byte	0x18
 7180 1fe9 19       		.uleb128 0x19
 7181 1fea 921E0000 		.4byte	.LASF438
 7182 1fee 23       		.byte	0x23
 7183 1fef A601     		.2byte	0x1a6
 7184 1ff1 0F090000 		.4byte	0x90f
 7185 1ff5 1C       		.byte	0x1c
 7186 1ff6 19       		.uleb128 0x19
 7187 1ff7 EF050000 		.4byte	.LASF439
 7188 1ffb 23       		.byte	0x23
 7189 1ffc A701     		.2byte	0x1a7
 7190 1ffe 0F090000 		.4byte	0x90f
 7191 2002 20       		.byte	0x20
 7192 2003 21       		.uleb128 0x21
 7193 2004 434E5400 		.ascii	"CNT\000"
 7194 2008 23       		.byte	0x23
 7195 2009 A801     		.2byte	0x1a8
 7196 200b 0F090000 		.4byte	0x90f
 7197 200f 24       		.byte	0x24
 7198 2010 21       		.uleb128 0x21
 7199 2011 50534300 		.ascii	"PSC\000"
 7200 2015 23       		.byte	0x23
 7201 2016 A901     		.2byte	0x1a9
 7202 2018 0F090000 		.4byte	0x90f
 7203 201c 28       		.byte	0x28
 7204 201d 21       		.uleb128 0x21
 7205 201e 41525200 		.ascii	"ARR\000"
 7206 2022 23       		.byte	0x23
 7207 2023 AA01     		.2byte	0x1aa
 7208 2025 0F090000 		.4byte	0x90f
 7209 2029 2C       		.byte	0x2c
 7210 202a 21       		.uleb128 0x21
 7211 202b 52435200 		.ascii	"RCR\000"
 7212 202f 23       		.byte	0x23
 7213 2030 AB01     		.2byte	0x1ab
 7214 2032 0F090000 		.4byte	0x90f
 7215 2036 30       		.byte	0x30
 7216 2037 21       		.uleb128 0x21
 7217 2038 43435200 		.ascii	"CCR\000"
 7218 203c 23       		.byte	0x23
 7219 203d AC01     		.2byte	0x1ac
 7220 203f EB0F0000 		.4byte	0xfeb
 7221 2043 34       		.byte	0x34
 7222 2044 19       		.uleb128 0x19
 7223 2045 5D010000 		.4byte	.LASF440
 7224 2049 23       		.byte	0x23
 7225 204a AD01     		.2byte	0x1ad
 7226 204c 0F090000 		.4byte	0x90f
 7227 2050 44       		.byte	0x44
ARM GAS  /tmp/ccqRaZSa.s 			page 128


 7228 2051 21       		.uleb128 0x21
 7229 2052 44435200 		.ascii	"DCR\000"
 7230 2056 23       		.byte	0x23
 7231 2057 AE01     		.2byte	0x1ae
 7232 2059 0F090000 		.4byte	0x90f
 7233 205d 48       		.byte	0x48
 7234 205e 19       		.uleb128 0x19
 7235 205f 45130000 		.4byte	.LASF441
 7236 2063 23       		.byte	0x23
 7237 2064 AF01     		.2byte	0x1af
 7238 2066 0F090000 		.4byte	0x90f
 7239 206a 4C       		.byte	0x4c
 7240 206b 21       		.uleb128 0x21
 7241 206c 4F5200   		.ascii	"OR\000"
 7242 206f 23       		.byte	0x23
 7243 2070 B001     		.2byte	0x1b0
 7244 2072 0F090000 		.4byte	0x90f
 7245 2076 50       		.byte	0x50
 7246 2077 19       		.uleb128 0x19
 7247 2078 981E0000 		.4byte	.LASF442
 7248 207c 23       		.byte	0x23
 7249 207d B101     		.2byte	0x1b1
 7250 207f 0F090000 		.4byte	0x90f
 7251 2083 54       		.byte	0x54
 7252 2084 19       		.uleb128 0x19
 7253 2085 A70B0000 		.4byte	.LASF443
 7254 2089 23       		.byte	0x23
 7255 208a B201     		.2byte	0x1b2
 7256 208c D60F0000 		.4byte	0xfd6
 7257 2090 58       		.byte	0x58
 7258 2091 00       		.byte	0
 7259 2092 08       		.uleb128 0x8
 7260 2093 441A0000 		.4byte	.LASF444
 7261 2097 23       		.byte	0x23
 7262 2098 B301     		.2byte	0x1b3
 7263 209a 861F0000 		.4byte	0x1f86
 7264 209e 27       		.uleb128 0x27
 7265 209f 07       		.byte	0x7
 7266 20a0 01       		.byte	0x1
 7267 20a1 55000000 		.4byte	0x55
 7268 20a5 22       		.byte	0x22
 7269 20a6 EE       		.byte	0xee
 7270 20a7 B8200000 		.4byte	0x20b8
 7271 20ab 28       		.uleb128 0x28
 7272 20ac FB060000 		.4byte	.LASF445
 7273 20b0 00       		.byte	0
 7274 20b1 28       		.uleb128 0x28
 7275 20b2 F7160000 		.4byte	.LASF446
 7276 20b6 01       		.byte	0x1
 7277 20b7 00       		.byte	0
 7278 20b8 04       		.uleb128 0x4
 7279 20b9 361D0000 		.4byte	.LASF447
 7280 20bd 22       		.byte	0x22
 7281 20be F1       		.byte	0xf1
 7282 20bf 9E200000 		.4byte	0x209e
 7283 20c3 04       		.uleb128 0x4
 7284 20c4 2C170000 		.4byte	.LASF448
ARM GAS  /tmp/ccqRaZSa.s 			page 129


 7285 20c8 22       		.byte	0x22
 7286 20c9 F6       		.byte	0xf6
 7287 20ca 04090000 		.4byte	0x904
 7288 20ce 27       		.uleb128 0x27
 7289 20cf 07       		.byte	0x7
 7290 20d0 01       		.byte	0x1
 7291 20d1 55000000 		.4byte	0x55
 7292 20d5 22       		.byte	0x22
 7293 20d6 FB       		.byte	0xfb
 7294 20d7 E8200000 		.4byte	0x20e8
 7295 20db 28       		.uleb128 0x28
 7296 20dc 73160000 		.4byte	.LASF449
 7297 20e0 00       		.byte	0
 7298 20e1 28       		.uleb128 0x28
 7299 20e2 781A0000 		.4byte	.LASF450
 7300 20e6 01       		.byte	0x1
 7301 20e7 00       		.byte	0
 7302 20e8 04       		.uleb128 0x4
 7303 20e9 D3040000 		.4byte	.LASF451
 7304 20ed 22       		.byte	0x22
 7305 20ee FE       		.byte	0xfe
 7306 20ef CE200000 		.4byte	0x20ce
 7307 20f3 1C       		.uleb128 0x1c
 7308 20f4 1C       		.byte	0x1c
 7309 20f5 22       		.byte	0x22
 7310 20f6 0901     		.2byte	0x109
 7311 20f8 58210000 		.4byte	0x2158
 7312 20fc 19       		.uleb128 0x19
 7313 20fd E6060000 		.4byte	.LASF452
 7314 2101 22       		.byte	0x22
 7315 2102 0D01     		.2byte	0x10d
 7316 2104 B8200000 		.4byte	0x20b8
 7317 2108 00       		.byte	0
 7318 2109 19       		.uleb128 0x19
 7319 210a 2B1E0000 		.4byte	.LASF453
 7320 210e 22       		.byte	0x22
 7321 210f 1301     		.2byte	0x113
 7322 2111 C3200000 		.4byte	0x20c3
 7323 2115 04       		.byte	0x4
 7324 2116 19       		.uleb128 0x19
 7325 2117 89100000 		.4byte	.LASF454
 7326 211b 22       		.byte	0x22
 7327 211c 1701     		.2byte	0x117
 7328 211e 641F0000 		.4byte	0x1f64
 7329 2122 08       		.byte	0x8
 7330 2123 19       		.uleb128 0x19
 7331 2124 050F0000 		.4byte	.LASF455
 7332 2128 22       		.byte	0x22
 7333 2129 1B01     		.2byte	0x11b
 7334 212b 641F0000 		.4byte	0x1f64
 7335 212f 0C       		.byte	0xc
 7336 2130 19       		.uleb128 0x19
 7337 2131 D7080000 		.4byte	.LASF456
 7338 2135 22       		.byte	0x22
 7339 2136 1F01     		.2byte	0x11f
 7340 2138 641F0000 		.4byte	0x1f64
 7341 213c 10       		.byte	0x10
ARM GAS  /tmp/ccqRaZSa.s 			page 130


 7342 213d 19       		.uleb128 0x19
 7343 213e 9F0F0000 		.4byte	.LASF457
 7344 2142 22       		.byte	0x22
 7345 2143 2501     		.2byte	0x125
 7346 2145 E8200000 		.4byte	0x20e8
 7347 2149 14       		.byte	0x14
 7348 214a 19       		.uleb128 0x19
 7349 214b 520B0000 		.4byte	.LASF458
 7350 214f 22       		.byte	0x22
 7351 2150 2B01     		.2byte	0x12b
 7352 2152 04090000 		.4byte	0x904
 7353 2156 18       		.byte	0x18
 7354 2157 00       		.byte	0
 7355 2158 08       		.uleb128 0x8
 7356 2159 C6150000 		.4byte	.LASF459
 7357 215d 22       		.byte	0x22
 7358 215e 2C01     		.2byte	0x12c
 7359 2160 F3200000 		.4byte	0x20f3
 7360 2164 10       		.uleb128 0x10
 7361 2165 58210000 		.4byte	0x2158
 7362 2169 06       		.uleb128 0x6
 7363 216a 04       		.byte	0x4
 7364 216b 64210000 		.4byte	0x2164
 7365 216f 06       		.uleb128 0x6
 7366 2170 04       		.byte	0x4
 7367 2171 92200000 		.4byte	0x2092
 7368 2175 20       		.uleb128 0x20
 7369 2176 580D0000 		.4byte	.LASF460
 7370 217a 22       		.byte	0x22
 7371 217b 8A01     		.2byte	0x18a
 7372 217d FD1E0000 		.4byte	0x1efd
 7373 2181 20       		.uleb128 0x20
 7374 2182 760D0000 		.4byte	.LASF461
 7375 2186 22       		.byte	0x22
 7376 2187 9601     		.2byte	0x196
 7377 2189 FD1E0000 		.4byte	0x1efd
 7378 218d 27       		.uleb128 0x27
 7379 218e 07       		.byte	0x7
 7380 218f 01       		.byte	0x1
 7381 2190 55000000 		.4byte	0x55
 7382 2194 24       		.byte	0x24
 7383 2195 55       		.byte	0x55
 7384 2196 AD210000 		.4byte	0x21ad
 7385 219a 28       		.uleb128 0x28
 7386 219b 58050000 		.4byte	.LASF462
 7387 219f 00       		.byte	0
 7388 21a0 28       		.uleb128 0x28
 7389 21a1 C60B0000 		.4byte	.LASF463
 7390 21a5 01       		.byte	0x1
 7391 21a6 28       		.uleb128 0x28
 7392 21a7 BB1F0000 		.4byte	.LASF464
 7393 21ab 02       		.byte	0x2
 7394 21ac 00       		.byte	0
 7395 21ad 04       		.uleb128 0x4
 7396 21ae D0140000 		.4byte	.LASF465
 7397 21b2 24       		.byte	0x24
 7398 21b3 59       		.byte	0x59
ARM GAS  /tmp/ccqRaZSa.s 			page 131


 7399 21b4 8D210000 		.4byte	0x218d
 7400 21b8 04       		.uleb128 0x4
 7401 21b9 141C0000 		.4byte	.LASF466
 7402 21bd 24       		.byte	0x24
 7403 21be 5E       		.byte	0x5e
 7404 21bf C3210000 		.4byte	0x21c3
 7405 21c3 13       		.uleb128 0x13
 7406 21c4 141C0000 		.4byte	.LASF466
 7407 21c8 5801     		.2byte	0x158
 7408 21ca 24       		.byte	0x24
 7409 21cb 78       		.byte	0x78
 7410 21cc 30220000 		.4byte	0x2230
 7411 21d0 12       		.uleb128 0x12
 7412 21d1 766D7400 		.ascii	"vmt\000"
 7413 21d5 24       		.byte	0x24
 7414 21d6 7A       		.byte	0x7a
 7415 21d7 EA220000 		.4byte	0x22ea
 7416 21db 00       		.byte	0
 7417 21dc 0E       		.uleb128 0xe
 7418 21dd 20000000 		.4byte	.LASF467
 7419 21e1 24       		.byte	0x24
 7420 21e2 7B       		.byte	0x7b
 7421 21e3 41170000 		.4byte	0x1741
 7422 21e7 04       		.byte	0x4
 7423 21e8 0E       		.uleb128 0xe
 7424 21e9 EA120000 		.4byte	.LASF381
 7425 21ed 24       		.byte	0x24
 7426 21ee 7B       		.byte	0x7b
 7427 21ef AD210000 		.4byte	0x21ad
 7428 21f3 08       		.byte	0x8
 7429 21f4 0E       		.uleb128 0xe
 7430 21f5 B6140000 		.4byte	.LASF468
 7431 21f9 24       		.byte	0x24
 7432 21fa 7B       		.byte	0x7b
 7433 21fb EC170000 		.4byte	0x17ec
 7434 21ff 0C       		.byte	0xc
 7435 2200 0E       		.uleb128 0xe
 7436 2201 B10F0000 		.4byte	.LASF469
 7437 2205 24       		.byte	0x24
 7438 2206 7B       		.byte	0x7b
 7439 2207 F7170000 		.4byte	0x17f7
 7440 220b 30       		.byte	0x30
 7441 220c 12       		.uleb128 0x12
 7442 220d 696200   		.ascii	"ib\000"
 7443 2210 24       		.byte	0x24
 7444 2211 7B       		.byte	0x7b
 7445 2212 F0220000 		.4byte	0x22f0
 7446 2216 54       		.byte	0x54
 7447 2217 12       		.uleb128 0x12
 7448 2218 6F6200   		.ascii	"ob\000"
 7449 221b 24       		.byte	0x24
 7450 221c 7B       		.byte	0x7b
 7451 221d F0220000 		.4byte	0x22f0
 7452 2221 D4       		.byte	0xd4
 7453 2222 14       		.uleb128 0x14
 7454 2223 57160000 		.4byte	.LASF470
 7455 2227 24       		.byte	0x24
ARM GAS  /tmp/ccqRaZSa.s 			page 132


 7456 2228 7B       		.byte	0x7b
 7457 2229 00230000 		.4byte	0x2300
 7458 222d 5401     		.2byte	0x154
 7459 222f 00       		.byte	0
 7460 2230 25       		.uleb128 0x25
 7461 2231 53443100 		.ascii	"SD1\000"
 7462 2235 25       		.byte	0x25
 7463 2236 0F01     		.2byte	0x10f
 7464 2238 B8210000 		.4byte	0x21b8
 7465 223c 25       		.uleb128 0x25
 7466 223d 53443200 		.ascii	"SD2\000"
 7467 2241 25       		.byte	0x25
 7468 2242 1201     		.2byte	0x112
 7469 2244 B8210000 		.4byte	0x21b8
 7470 2248 25       		.uleb128 0x25
 7471 2249 53443300 		.ascii	"SD3\000"
 7472 224d 25       		.byte	0x25
 7473 224e 1501     		.2byte	0x115
 7474 2250 B8210000 		.4byte	0x21b8
 7475 2254 25       		.uleb128 0x25
 7476 2255 53443400 		.ascii	"SD4\000"
 7477 2259 25       		.byte	0x25
 7478 225a 1801     		.2byte	0x118
 7479 225c B8210000 		.4byte	0x21b8
 7480 2260 25       		.uleb128 0x25
 7481 2261 53443500 		.ascii	"SD5\000"
 7482 2265 25       		.byte	0x25
 7483 2266 1B01     		.2byte	0x11b
 7484 2268 B8210000 		.4byte	0x21b8
 7485 226c 25       		.uleb128 0x25
 7486 226d 53443600 		.ascii	"SD6\000"
 7487 2271 25       		.byte	0x25
 7488 2272 1E01     		.2byte	0x11e
 7489 2274 B8210000 		.4byte	0x21b8
 7490 2278 11       		.uleb128 0x11
 7491 2279 7C0D0000 		.4byte	.LASF471
 7492 227d 20       		.byte	0x20
 7493 227e 24       		.byte	0x24
 7494 227f 6D       		.byte	0x6d
 7495 2280 E5220000 		.4byte	0x22e5
 7496 2284 0E       		.uleb128 0xe
 7497 2285 A5140000 		.4byte	.LASF472
 7498 2289 24       		.byte	0x24
 7499 228a 6E       		.byte	0x6e
 7500 228b 21180000 		.4byte	0x1821
 7501 228f 00       		.byte	0
 7502 2290 0E       		.uleb128 0xe
 7503 2291 52010000 		.4byte	.LASF473
 7504 2295 24       		.byte	0x24
 7505 2296 6E       		.byte	0x6e
 7506 2297 40180000 		.4byte	0x1840
 7507 229b 04       		.byte	0x4
 7508 229c 12       		.uleb128 0x12
 7509 229d 70757400 		.ascii	"put\000"
 7510 22a1 24       		.byte	0x24
 7511 22a2 6E       		.byte	0x6e
 7512 22a3 5A180000 		.4byte	0x185a
ARM GAS  /tmp/ccqRaZSa.s 			page 133


 7513 22a7 08       		.byte	0x8
 7514 22a8 12       		.uleb128 0x12
 7515 22a9 67657400 		.ascii	"get\000"
 7516 22ad 24       		.byte	0x24
 7517 22ae 6E       		.byte	0x6e
 7518 22af 6F180000 		.4byte	0x186f
 7519 22b3 0C       		.byte	0xc
 7520 22b4 0E       		.uleb128 0xe
 7521 22b5 5F110000 		.4byte	.LASF474
 7522 22b9 24       		.byte	0x24
 7523 22ba 6E       		.byte	0x6e
 7524 22bb 9C190000 		.4byte	0x199c
 7525 22bf 10       		.byte	0x10
 7526 22c0 0E       		.uleb128 0xe
 7527 22c1 78140000 		.4byte	.LASF475
 7528 22c5 24       		.byte	0x24
 7529 22c6 6E       		.byte	0x6e
 7530 22c7 B6190000 		.4byte	0x19b6
 7531 22cb 14       		.byte	0x14
 7532 22cc 0E       		.uleb128 0xe
 7533 22cd E11C0000 		.4byte	.LASF476
 7534 22d1 24       		.byte	0x24
 7535 22d2 6E       		.byte	0x6e
 7536 22d3 DA190000 		.4byte	0x19da
 7537 22d7 18       		.byte	0x18
 7538 22d8 0E       		.uleb128 0xe
 7539 22d9 9C100000 		.4byte	.LASF477
 7540 22dd 24       		.byte	0x24
 7541 22de 6E       		.byte	0x6e
 7542 22df FE190000 		.4byte	0x19fe
 7543 22e3 1C       		.byte	0x1c
 7544 22e4 00       		.byte	0
 7545 22e5 10       		.uleb128 0x10
 7546 22e6 78220000 		.4byte	0x2278
 7547 22ea 06       		.uleb128 0x6
 7548 22eb 04       		.byte	0x4
 7549 22ec E5220000 		.4byte	0x22e5
 7550 22f0 0B       		.uleb128 0xb
 7551 22f1 D9080000 		.4byte	0x8d9
 7552 22f5 00230000 		.4byte	0x2300
 7553 22f9 0C       		.uleb128 0xc
 7554 22fa 25000000 		.4byte	0x25
 7555 22fe 7F       		.byte	0x7f
 7556 22ff 00       		.byte	0
 7557 2300 06       		.uleb128 0x6
 7558 2301 04       		.byte	0x4
 7559 2302 0E130000 		.4byte	0x130e
 7560 2306 27       		.uleb128 0x27
 7561 2307 07       		.byte	0x7
 7562 2308 01       		.byte	0x1
 7563 2309 55000000 		.4byte	0x55
 7564 230d 26       		.byte	0x26
 7565 230e 46       		.byte	0x46
 7566 230f 32230000 		.4byte	0x2332
 7567 2313 28       		.uleb128 0x28
 7568 2314 B9050000 		.4byte	.LASF478
 7569 2318 00       		.byte	0
ARM GAS  /tmp/ccqRaZSa.s 			page 134


 7570 2319 28       		.uleb128 0x28
 7571 231a 36020000 		.4byte	.LASF479
 7572 231e 01       		.byte	0x1
 7573 231f 28       		.uleb128 0x28
 7574 2320 7E1D0000 		.4byte	.LASF480
 7575 2324 02       		.byte	0x2
 7576 2325 28       		.uleb128 0x28
 7577 2326 510F0000 		.4byte	.LASF481
 7578 232a 03       		.byte	0x3
 7579 232b 28       		.uleb128 0x28
 7580 232c BC100000 		.4byte	.LASF482
 7581 2330 04       		.byte	0x4
 7582 2331 00       		.byte	0
 7583 2332 04       		.uleb128 0x4
 7584 2333 8B020000 		.4byte	.LASF483
 7585 2337 26       		.byte	0x26
 7586 2338 4C       		.byte	0x4c
 7587 2339 06230000 		.4byte	0x2306
 7588 233d 08       		.uleb128 0x8
 7589 233e B91C0000 		.4byte	.LASF484
 7590 2342 27       		.byte	0x27
 7591 2343 9601     		.2byte	0x196
 7592 2345 49230000 		.4byte	0x2349
 7593 2349 1B       		.uleb128 0x1b
 7594 234a B91C0000 		.4byte	.LASF484
 7595 234e 30       		.byte	0x30
 7596 234f 27       		.byte	0x27
 7597 2350 BA01     		.2byte	0x1ba
 7598 2352 CC230000 		.4byte	0x23cc
 7599 2356 19       		.uleb128 0x19
 7600 2357 EA120000 		.4byte	.LASF381
 7601 235b 27       		.byte	0x27
 7602 235c BE01     		.2byte	0x1be
 7603 235e 32230000 		.4byte	0x2332
 7604 2362 00       		.byte	0
 7605 2363 19       		.uleb128 0x19
 7606 2364 E3170000 		.4byte	.LASF382
 7607 2368 27       		.byte	0x27
 7608 2369 C201     		.2byte	0x1c2
 7609 236b 3E240000 		.4byte	0x243e
 7610 236f 04       		.byte	0x4
 7611 2370 19       		.uleb128 0x19
 7612 2371 A1050000 		.4byte	.LASF417
 7613 2375 27       		.byte	0x27
 7614 2376 C701     		.2byte	0x1c7
 7615 2378 C60A0000 		.4byte	0xac6
 7616 237c 08       		.byte	0x8
 7617 237d 19       		.uleb128 0x19
 7618 237e 860B0000 		.4byte	.LASF416
 7619 2382 27       		.byte	0x27
 7620 2383 CD01     		.2byte	0x1cd
 7621 2385 BD160000 		.4byte	0x16bd
 7622 2389 0C       		.byte	0xc
 7623 238a 21       		.uleb128 0x21
 7624 238b 73706900 		.ascii	"spi\000"
 7625 238f 27       		.byte	0x27
 7626 2390 D601     		.2byte	0x1d6
ARM GAS  /tmp/ccqRaZSa.s 			page 135


 7627 2392 44240000 		.4byte	0x2444
 7628 2396 1C       		.byte	0x1c
 7629 2397 19       		.uleb128 0x19
 7630 2398 B2000000 		.4byte	.LASF421
 7631 239c 27       		.byte	0x27
 7632 239d DA01     		.2byte	0x1da
 7633 239f AE1E0000 		.4byte	0x1eae
 7634 23a3 20       		.byte	0x20
 7635 23a4 19       		.uleb128 0x19
 7636 23a5 87010000 		.4byte	.LASF422
 7637 23a9 27       		.byte	0x27
 7638 23aa DE01     		.2byte	0x1de
 7639 23ac AE1E0000 		.4byte	0x1eae
 7640 23b0 24       		.byte	0x24
 7641 23b1 19       		.uleb128 0x19
 7642 23b2 D2060000 		.4byte	.LASF419
 7643 23b6 27       		.byte	0x27
 7644 23b7 E201     		.2byte	0x1e2
 7645 23b9 04090000 		.4byte	0x904
 7646 23bd 28       		.byte	0x28
 7647 23be 19       		.uleb128 0x19
 7648 23bf 23070000 		.4byte	.LASF420
 7649 23c3 27       		.byte	0x27
 7650 23c4 E601     		.2byte	0x1e6
 7651 23c6 04090000 		.4byte	0x904
 7652 23ca 2C       		.byte	0x2c
 7653 23cb 00       		.byte	0
 7654 23cc 08       		.uleb128 0x8
 7655 23cd F0000000 		.4byte	.LASF485
 7656 23d1 27       		.byte	0x27
 7657 23d2 9E01     		.2byte	0x19e
 7658 23d4 D8230000 		.4byte	0x23d8
 7659 23d8 06       		.uleb128 0x6
 7660 23d9 04       		.byte	0x4
 7661 23da DE230000 		.4byte	0x23de
 7662 23de 1F       		.uleb128 0x1f
 7663 23df E9230000 		.4byte	0x23e9
 7664 23e3 17       		.uleb128 0x17
 7665 23e4 E9230000 		.4byte	0x23e9
 7666 23e8 00       		.byte	0
 7667 23e9 06       		.uleb128 0x6
 7668 23ea 04       		.byte	0x4
 7669 23eb 3D230000 		.4byte	0x233d
 7670 23ef 1C       		.uleb128 0x1c
 7671 23f0 0C       		.byte	0xc
 7672 23f1 27       		.byte	0x27
 7673 23f2 A301     		.2byte	0x1a3
 7674 23f4 2D240000 		.4byte	0x242d
 7675 23f8 19       		.uleb128 0x19
 7676 23f9 99070000 		.4byte	.LASF486
 7677 23fd 27       		.byte	0x27
 7678 23fe A701     		.2byte	0x1a7
 7679 2400 CC230000 		.4byte	0x23cc
 7680 2404 00       		.byte	0
 7681 2405 19       		.uleb128 0x19
 7682 2406 F51D0000 		.4byte	.LASF487
 7683 240a 27       		.byte	0x27
ARM GAS  /tmp/ccqRaZSa.s 			page 136


 7684 240b AC01     		.2byte	0x1ac
 7685 240d CA1B0000 		.4byte	0x1bca
 7686 2411 04       		.byte	0x4
 7687 2412 19       		.uleb128 0x19
 7688 2413 1D070000 		.4byte	.LASF488
 7689 2417 27       		.byte	0x27
 7690 2418 B001     		.2byte	0x1b0
 7691 241a E9080000 		.4byte	0x8e9
 7692 241e 08       		.byte	0x8
 7693 241f 21       		.uleb128 0x21
 7694 2420 63723100 		.ascii	"cr1\000"
 7695 2424 27       		.byte	0x27
 7696 2425 B401     		.2byte	0x1b4
 7697 2427 E9080000 		.4byte	0x8e9
 7698 242b 0A       		.byte	0xa
 7699 242c 00       		.byte	0
 7700 242d 08       		.uleb128 0x8
 7701 242e B51B0000 		.4byte	.LASF489
 7702 2432 27       		.byte	0x27
 7703 2433 B501     		.2byte	0x1b5
 7704 2435 EF230000 		.4byte	0x23ef
 7705 2439 10       		.uleb128 0x10
 7706 243a 2D240000 		.4byte	0x242d
 7707 243e 06       		.uleb128 0x6
 7708 243f 04       		.byte	0x4
 7709 2440 39240000 		.4byte	0x2439
 7710 2444 06       		.uleb128 0x6
 7711 2445 04       		.byte	0x4
 7712 2446 9F120000 		.4byte	0x129f
 7713 244a 20       		.uleb128 0x20
 7714 244b C11A0000 		.4byte	.LASF490
 7715 244f 27       		.byte	0x27
 7716 2450 F201     		.2byte	0x1f2
 7717 2452 3D230000 		.4byte	0x233d
 7718 2456 20       		.uleb128 0x20
 7719 2457 7D140000 		.4byte	.LASF491
 7720 245b 27       		.byte	0x27
 7721 245c FA01     		.2byte	0x1fa
 7722 245e 3D230000 		.4byte	0x233d
 7723 2462 04       		.uleb128 0x4
 7724 2463 7B0F0000 		.4byte	.LASF492
 7725 2467 28       		.byte	0x28
 7726 2468 FA       		.byte	0xfa
 7727 2469 6D240000 		.4byte	0x246d
 7728 246d 18       		.uleb128 0x18
 7729 246e 7B0F0000 		.4byte	.LASF492
 7730 2472 8802     		.2byte	0x288
 7731 2474 29       		.byte	0x29
 7732 2475 7701     		.2byte	0x177
 7733 2477 99250000 		.4byte	0x2599
 7734 247b 19       		.uleb128 0x19
 7735 247c EA120000 		.4byte	.LASF381
 7736 2480 29       		.byte	0x29
 7737 2481 7B01     		.2byte	0x17b
 7738 2483 D7250000 		.4byte	0x25d7
 7739 2487 00       		.byte	0
 7740 2488 19       		.uleb128 0x19
ARM GAS  /tmp/ccqRaZSa.s 			page 137


 7741 2489 E3170000 		.4byte	.LASF382
 7742 248d 29       		.byte	0x29
 7743 248e 7F01     		.2byte	0x17f
 7744 2490 272F0000 		.4byte	0x2f27
 7745 2494 04       		.byte	0x4
 7746 2495 19       		.uleb128 0x19
 7747 2496 DE1B0000 		.4byte	.LASF493
 7748 249a 29       		.byte	0x29
 7749 249b 8301     		.2byte	0x183
 7750 249d E9080000 		.4byte	0x8e9
 7751 24a1 08       		.byte	0x8
 7752 24a2 19       		.uleb128 0x19
 7753 24a3 1A1E0000 		.4byte	.LASF494
 7754 24a7 29       		.byte	0x29
 7755 24a8 8701     		.2byte	0x187
 7756 24aa E9080000 		.4byte	0x8e9
 7757 24ae 0A       		.byte	0xa
 7758 24af 21       		.uleb128 0x21
 7759 24b0 65706300 		.ascii	"epc\000"
 7760 24b4 29       		.byte	0x29
 7761 24b5 8B01     		.2byte	0x18b
 7762 24b7 2D2F0000 		.4byte	0x2f2d
 7763 24bb 0C       		.byte	0xc
 7764 24bc 19       		.uleb128 0x19
 7765 24bd B8010000 		.4byte	.LASF495
 7766 24c1 29       		.byte	0x29
 7767 24c2 9201     		.2byte	0x192
 7768 24c4 432F0000 		.4byte	0x2f43
 7769 24c8 1C       		.byte	0x1c
 7770 24c9 19       		.uleb128 0x19
 7771 24ca 260B0000 		.4byte	.LASF496
 7772 24ce 29       		.byte	0x29
 7773 24cf 9901     		.2byte	0x199
 7774 24d1 432F0000 		.4byte	0x2f43
 7775 24d5 28       		.byte	0x28
 7776 24d6 19       		.uleb128 0x19
 7777 24d7 140E0000 		.4byte	.LASF497
 7778 24db 29       		.byte	0x29
 7779 24dc 9D01     		.2byte	0x19d
 7780 24de 49260000 		.4byte	0x2649
 7781 24e2 34       		.byte	0x34
 7782 24e3 19       		.uleb128 0x19
 7783 24e4 6C170000 		.4byte	.LASF498
 7784 24e8 29       		.byte	0x29
 7785 24e9 A101     		.2byte	0x1a1
 7786 24eb E6170000 		.4byte	0x17e6
 7787 24ef 38       		.byte	0x38
 7788 24f0 19       		.uleb128 0x19
 7789 24f1 20140000 		.4byte	.LASF499
 7790 24f5 29       		.byte	0x29
 7791 24f6 A501     		.2byte	0x1a5
 7792 24f8 33000000 		.4byte	0x33
 7793 24fc 3C       		.byte	0x3c
 7794 24fd 19       		.uleb128 0x19
 7795 24fe 5A190000 		.4byte	.LASF500
 7796 2502 29       		.byte	0x29
 7797 2503 A901     		.2byte	0x1a9
ARM GAS  /tmp/ccqRaZSa.s 			page 138


 7798 2505 C9260000 		.4byte	0x26c9
 7799 2509 40       		.byte	0x40
 7800 250a 19       		.uleb128 0x19
 7801 250b B3050000 		.4byte	.LASF501
 7802 250f 29       		.byte	0x29
 7803 2510 AD01     		.2byte	0x1ad
 7804 2512 83180000 		.4byte	0x1883
 7805 2516 44       		.byte	0x44
 7806 2517 19       		.uleb128 0x19
 7807 2518 45120000 		.4byte	.LASF502
 7808 251c 29       		.byte	0x29
 7809 251d B101     		.2byte	0x1b1
 7810 251f E9080000 		.4byte	0x8e9
 7811 2523 4C       		.byte	0x4c
 7812 2524 19       		.uleb128 0x19
 7813 2525 7D120000 		.4byte	.LASF503
 7814 2529 29       		.byte	0x29
 7815 252a B501     		.2byte	0x1b5
 7816 252c D9080000 		.4byte	0x8d9
 7817 2530 4E       		.byte	0x4e
 7818 2531 19       		.uleb128 0x19
 7819 2532 BD160000 		.4byte	.LASF504
 7820 2536 29       		.byte	0x29
 7821 2537 B901     		.2byte	0x1b9
 7822 2539 D9080000 		.4byte	0x8d9
 7823 253d 4F       		.byte	0x4f
 7824 253e 21       		.uleb128 0x21
 7825 253f 6F746700 		.ascii	"otg\000"
 7826 2543 29       		.byte	0x29
 7827 2544 C101     		.2byte	0x1c1
 7828 2546 532F0000 		.4byte	0x2f53
 7829 254a 50       		.byte	0x50
 7830 254b 19       		.uleb128 0x19
 7831 254c 7A0C0000 		.4byte	.LASF505
 7832 2550 29       		.byte	0x29
 7833 2551 C501     		.2byte	0x1c5
 7834 2553 592F0000 		.4byte	0x2f59
 7835 2557 54       		.byte	0x54
 7836 2558 19       		.uleb128 0x19
 7837 2559 641A0000 		.4byte	.LASF506
 7838 255d 29       		.byte	0x29
 7839 255e C901     		.2byte	0x1c9
 7840 2560 04090000 		.4byte	0x904
 7841 2564 58       		.byte	0x58
 7842 2565 19       		.uleb128 0x19
 7843 2566 910B0000 		.4byte	.LASF507
 7844 256a 29       		.byte	0x29
 7845 256b CD01     		.2byte	0x1cd
 7846 256d 04090000 		.4byte	0x904
 7847 2571 5C       		.byte	0x5c
 7848 2572 19       		.uleb128 0x19
 7849 2573 8C060000 		.4byte	.LASF508
 7850 2577 29       		.byte	0x29
 7851 2578 D101     		.2byte	0x1d1
 7852 257a C60A0000 		.4byte	0xac6
 7853 257e 60       		.byte	0x60
 7854 257f 21       		.uleb128 0x21
ARM GAS  /tmp/ccqRaZSa.s 			page 139


 7855 2580 747200   		.ascii	"tr\000"
 7856 2583 29       		.byte	0x29
 7857 2584 D601     		.2byte	0x1d6
 7858 2586 C60A0000 		.4byte	0xac6
 7859 258a 64       		.byte	0x64
 7860 258b 19       		.uleb128 0x19
 7861 258c 9A110000 		.4byte	.LASF509
 7862 2590 29       		.byte	0x29
 7863 2591 DA01     		.2byte	0x1da
 7864 2593 5F2F0000 		.4byte	0x2f5f
 7865 2597 68       		.byte	0x68
 7866 2598 00       		.byte	0
 7867 2599 04       		.uleb128 0x4
 7868 259a 09010000 		.4byte	.LASF510
 7869 259e 28       		.byte	0x28
 7870 259f FF       		.byte	0xff
 7871 25a0 D9080000 		.4byte	0x8d9
 7872 25a4 29       		.uleb128 0x29
 7873 25a5 07       		.byte	0x7
 7874 25a6 01       		.byte	0x1
 7875 25a7 55000000 		.4byte	0x55
 7876 25ab 28       		.byte	0x28
 7877 25ac 0401     		.2byte	0x104
 7878 25ae D7250000 		.4byte	0x25d7
 7879 25b2 28       		.uleb128 0x28
 7880 25b3 B51E0000 		.4byte	.LASF511
 7881 25b7 00       		.byte	0
 7882 25b8 28       		.uleb128 0x28
 7883 25b9 00000000 		.4byte	.LASF512
 7884 25bd 01       		.byte	0x1
 7885 25be 28       		.uleb128 0x28
 7886 25bf 92100000 		.4byte	.LASF513
 7887 25c3 02       		.byte	0x2
 7888 25c4 28       		.uleb128 0x28
 7889 25c5 5B150000 		.4byte	.LASF514
 7890 25c9 03       		.byte	0x3
 7891 25ca 28       		.uleb128 0x28
 7892 25cb AF060000 		.4byte	.LASF515
 7893 25cf 04       		.byte	0x4
 7894 25d0 28       		.uleb128 0x28
 7895 25d1 A51C0000 		.4byte	.LASF516
 7896 25d5 05       		.byte	0x5
 7897 25d6 00       		.byte	0
 7898 25d7 08       		.uleb128 0x8
 7899 25d8 261C0000 		.4byte	.LASF517
 7900 25dc 28       		.byte	0x28
 7901 25dd 0B01     		.2byte	0x10b
 7902 25df A4250000 		.4byte	0x25a4
 7903 25e3 29       		.uleb128 0x29
 7904 25e4 07       		.byte	0x7
 7905 25e5 01       		.byte	0x1
 7906 25e6 55000000 		.4byte	0x55
 7907 25ea 28       		.byte	0x28
 7908 25eb 1001     		.2byte	0x110
 7909 25ed 04260000 		.4byte	0x2604
 7910 25f1 28       		.uleb128 0x28
 7911 25f2 85190000 		.4byte	.LASF518
ARM GAS  /tmp/ccqRaZSa.s 			page 140


 7912 25f6 00       		.byte	0
 7913 25f7 28       		.uleb128 0x28
 7914 25f8 560C0000 		.4byte	.LASF519
 7915 25fc 01       		.byte	0x1
 7916 25fd 28       		.uleb128 0x28
 7917 25fe 3B030000 		.4byte	.LASF520
 7918 2602 02       		.byte	0x2
 7919 2603 00       		.byte	0
 7920 2604 08       		.uleb128 0x8
 7921 2605 76020000 		.4byte	.LASF521
 7922 2609 28       		.byte	0x28
 7923 260a 1401     		.2byte	0x114
 7924 260c E3250000 		.4byte	0x25e3
 7925 2610 29       		.uleb128 0x29
 7926 2611 07       		.byte	0x7
 7927 2612 01       		.byte	0x1
 7928 2613 55000000 		.4byte	0x55
 7929 2617 28       		.byte	0x28
 7930 2618 1901     		.2byte	0x119
 7931 261a 49260000 		.4byte	0x2649
 7932 261e 28       		.uleb128 0x28
 7933 261f 23190000 		.4byte	.LASF522
 7934 2623 00       		.byte	0
 7935 2624 28       		.uleb128 0x28
 7936 2625 090E0000 		.4byte	.LASF523
 7937 2629 01       		.byte	0x1
 7938 262a 28       		.uleb128 0x28
 7939 262b 58170000 		.4byte	.LASF524
 7940 262f 02       		.byte	0x2
 7941 2630 28       		.uleb128 0x28
 7942 2631 15130000 		.4byte	.LASF525
 7943 2635 03       		.byte	0x3
 7944 2636 28       		.uleb128 0x28
 7945 2637 3A120000 		.4byte	.LASF526
 7946 263b 04       		.byte	0x4
 7947 263c 28       		.uleb128 0x28
 7948 263d E50E0000 		.4byte	.LASF527
 7949 2641 05       		.byte	0x5
 7950 2642 28       		.uleb128 0x28
 7951 2643 8C0D0000 		.4byte	.LASF528
 7952 2647 06       		.byte	0x6
 7953 2648 00       		.byte	0
 7954 2649 08       		.uleb128 0x8
 7955 264a 380F0000 		.4byte	.LASF529
 7956 264e 28       		.byte	0x28
 7957 264f 2101     		.2byte	0x121
 7958 2651 10260000 		.4byte	0x2610
 7959 2655 29       		.uleb128 0x29
 7960 2656 07       		.byte	0x7
 7961 2657 01       		.byte	0x1
 7962 2658 55000000 		.4byte	0x55
 7963 265c 28       		.byte	0x28
 7964 265d 2601     		.2byte	0x126
 7965 265f 88260000 		.4byte	0x2688
 7966 2663 28       		.uleb128 0x28
 7967 2664 40150000 		.4byte	.LASF530
 7968 2668 00       		.byte	0
ARM GAS  /tmp/ccqRaZSa.s 			page 141


 7969 2669 28       		.uleb128 0x28
 7970 266a D0150000 		.4byte	.LASF531
 7971 266e 01       		.byte	0x1
 7972 266f 28       		.uleb128 0x28
 7973 2670 4A110000 		.4byte	.LASF532
 7974 2674 02       		.byte	0x2
 7975 2675 28       		.uleb128 0x28
 7976 2676 E5110000 		.4byte	.LASF533
 7977 267a 03       		.byte	0x3
 7978 267b 28       		.uleb128 0x28
 7979 267c C31D0000 		.4byte	.LASF534
 7980 2680 04       		.byte	0x4
 7981 2681 28       		.uleb128 0x28
 7982 2682 D1100000 		.4byte	.LASF535
 7983 2686 05       		.byte	0x5
 7984 2687 00       		.byte	0
 7985 2688 08       		.uleb128 0x8
 7986 2689 01160000 		.4byte	.LASF536
 7987 268d 28       		.byte	0x28
 7988 268e 2D01     		.2byte	0x12d
 7989 2690 55260000 		.4byte	0x2655
 7990 2694 1C       		.uleb128 0x1c
 7991 2695 08       		.byte	0x8
 7992 2696 28       		.byte	0x28
 7993 2697 3201     		.2byte	0x132
 7994 2699 B8260000 		.4byte	0x26b8
 7995 269d 19       		.uleb128 0x19
 7996 269e 6E1F0000 		.4byte	.LASF537
 7997 26a2 28       		.byte	0x28
 7998 26a3 3601     		.2byte	0x136
 7999 26a5 33000000 		.4byte	0x33
 8000 26a9 00       		.byte	0
 8001 26aa 19       		.uleb128 0x19
 8002 26ab BF030000 		.4byte	.LASF538
 8003 26af 28       		.byte	0x28
 8004 26b0 3A01     		.2byte	0x13a
 8005 26b2 1B180000 		.4byte	0x181b
 8006 26b6 04       		.byte	0x4
 8007 26b7 00       		.byte	0
 8008 26b8 08       		.uleb128 0x8
 8009 26b9 52120000 		.4byte	.LASF539
 8010 26bd 28       		.byte	0x28
 8011 26be 3B01     		.2byte	0x13b
 8012 26c0 94260000 		.4byte	0x2694
 8013 26c4 10       		.uleb128 0x10
 8014 26c5 B8260000 		.4byte	0x26b8
 8015 26c9 08       		.uleb128 0x8
 8016 26ca 041F0000 		.4byte	.LASF540
 8017 26ce 28       		.byte	0x28
 8018 26cf 4301     		.2byte	0x143
 8019 26d1 D5260000 		.4byte	0x26d5
 8020 26d5 06       		.uleb128 0x6
 8021 26d6 04       		.byte	0x4
 8022 26d7 DB260000 		.4byte	0x26db
 8023 26db 1F       		.uleb128 0x1f
 8024 26dc E6260000 		.4byte	0x26e6
 8025 26e0 17       		.uleb128 0x17
ARM GAS  /tmp/ccqRaZSa.s 			page 142


 8026 26e1 E6260000 		.4byte	0x26e6
 8027 26e5 00       		.byte	0
 8028 26e6 06       		.uleb128 0x6
 8029 26e7 04       		.byte	0x4
 8030 26e8 62240000 		.4byte	0x2462
 8031 26ec 08       		.uleb128 0x8
 8032 26ed 06040000 		.4byte	.LASF541
 8033 26f1 28       		.byte	0x28
 8034 26f2 4C01     		.2byte	0x14c
 8035 26f4 F8260000 		.4byte	0x26f8
 8036 26f8 06       		.uleb128 0x6
 8037 26f9 04       		.byte	0x4
 8038 26fa FE260000 		.4byte	0x26fe
 8039 26fe 1F       		.uleb128 0x1f
 8040 26ff 0E270000 		.4byte	0x270e
 8041 2703 17       		.uleb128 0x17
 8042 2704 E6260000 		.4byte	0x26e6
 8043 2708 17       		.uleb128 0x17
 8044 2709 99250000 		.4byte	0x2599
 8045 270d 00       		.byte	0
 8046 270e 08       		.uleb128 0x8
 8047 270f 04090000 		.4byte	.LASF542
 8048 2713 28       		.byte	0x28
 8049 2714 5501     		.2byte	0x155
 8050 2716 1A270000 		.4byte	0x271a
 8051 271a 06       		.uleb128 0x6
 8052 271b 04       		.byte	0x4
 8053 271c 20270000 		.4byte	0x2720
 8054 2720 1F       		.uleb128 0x1f
 8055 2721 30270000 		.4byte	0x2730
 8056 2725 17       		.uleb128 0x17
 8057 2726 E6260000 		.4byte	0x26e6
 8058 272a 17       		.uleb128 0x17
 8059 272b 88260000 		.4byte	0x2688
 8060 272f 00       		.byte	0
 8061 2730 08       		.uleb128 0x8
 8062 2731 0C150000 		.4byte	.LASF543
 8063 2735 28       		.byte	0x28
 8064 2736 6101     		.2byte	0x161
 8065 2738 3C270000 		.4byte	0x273c
 8066 273c 06       		.uleb128 0x6
 8067 273d 04       		.byte	0x4
 8068 273e 42270000 		.4byte	0x2742
 8069 2742 16       		.uleb128 0x16
 8070 2743 7C180000 		.4byte	0x187c
 8071 2747 51270000 		.4byte	0x2751
 8072 274b 17       		.uleb128 0x17
 8073 274c E6260000 		.4byte	0x26e6
 8074 2750 00       		.byte	0
 8075 2751 08       		.uleb128 0x8
 8076 2752 E50D0000 		.4byte	.LASF544
 8077 2756 28       		.byte	0x28
 8078 2757 6601     		.2byte	0x166
 8079 2759 5D270000 		.4byte	0x275d
 8080 275d 06       		.uleb128 0x6
 8081 275e 04       		.byte	0x4
 8082 275f 63270000 		.4byte	0x2763
ARM GAS  /tmp/ccqRaZSa.s 			page 143


 8083 2763 16       		.uleb128 0x16
 8084 2764 81270000 		.4byte	0x2781
 8085 2768 81270000 		.4byte	0x2781
 8086 276c 17       		.uleb128 0x17
 8087 276d E6260000 		.4byte	0x26e6
 8088 2771 17       		.uleb128 0x17
 8089 2772 D9080000 		.4byte	0x8d9
 8090 2776 17       		.uleb128 0x17
 8091 2777 D9080000 		.4byte	0x8d9
 8092 277b 17       		.uleb128 0x17
 8093 277c E9080000 		.4byte	0x8e9
 8094 2780 00       		.byte	0
 8095 2781 06       		.uleb128 0x6
 8096 2782 04       		.byte	0x4
 8097 2783 C4260000 		.4byte	0x26c4
 8098 2787 0D       		.uleb128 0xd
 8099 2788 20       		.byte	0x20
 8100 2789 2A       		.byte	0x2a
 8101 278a 35       		.byte	0x35
 8102 278b F0270000 		.4byte	0x27f0
 8103 278f 0E       		.uleb128 0xe
 8104 2790 96020000 		.4byte	.LASF545
 8105 2794 2A       		.byte	0x2a
 8106 2795 36       		.byte	0x36
 8107 2796 0F090000 		.4byte	0x90f
 8108 279a 00       		.byte	0
 8109 279b 0E       		.uleb128 0xe
 8110 279c CE0B0000 		.4byte	.LASF546
 8111 27a0 2A       		.byte	0x2a
 8112 27a1 38       		.byte	0x38
 8113 27a2 0F090000 		.4byte	0x90f
 8114 27a6 04       		.byte	0x4
 8115 27a7 0E       		.uleb128 0xe
 8116 27a8 05020000 		.4byte	.LASF547
 8117 27ac 2A       		.byte	0x2a
 8118 27ad 39       		.byte	0x39
 8119 27ae 0F090000 		.4byte	0x90f
 8120 27b2 08       		.byte	0x8
 8121 27b3 0E       		.uleb128 0xe
 8122 27b4 D4170000 		.4byte	.LASF548
 8123 27b8 2A       		.byte	0x2a
 8124 27b9 3A       		.byte	0x3a
 8125 27ba 0F090000 		.4byte	0x90f
 8126 27be 0C       		.byte	0xc
 8127 27bf 0E       		.uleb128 0xe
 8128 27c0 43110000 		.4byte	.LASF549
 8129 27c4 2A       		.byte	0x2a
 8130 27c5 3C       		.byte	0x3c
 8131 27c6 0F090000 		.4byte	0x90f
 8132 27ca 10       		.byte	0x10
 8133 27cb 0E       		.uleb128 0xe
 8134 27cc 150C0000 		.4byte	.LASF550
 8135 27d0 2A       		.byte	0x2a
 8136 27d1 3E       		.byte	0x3e
 8137 27d2 0F090000 		.4byte	0x90f
 8138 27d6 14       		.byte	0x14
 8139 27d7 0E       		.uleb128 0xe
ARM GAS  /tmp/ccqRaZSa.s 			page 144


 8140 27d8 280C0000 		.4byte	.LASF551
 8141 27dc 2A       		.byte	0x2a
 8142 27dd 3F       		.byte	0x3f
 8143 27de 0F090000 		.4byte	0x90f
 8144 27e2 18       		.byte	0x18
 8145 27e3 0E       		.uleb128 0xe
 8146 27e4 22030000 		.4byte	.LASF552
 8147 27e8 2A       		.byte	0x2a
 8148 27e9 40       		.byte	0x40
 8149 27ea 0F090000 		.4byte	0x90f
 8150 27ee 1C       		.byte	0x1c
 8151 27ef 00       		.byte	0
 8152 27f0 04       		.uleb128 0x4
 8153 27f1 74170000 		.4byte	.LASF553
 8154 27f5 2A       		.byte	0x2a
 8155 27f6 41       		.byte	0x41
 8156 27f7 87270000 		.4byte	0x2787
 8157 27fb 0D       		.uleb128 0xd
 8158 27fc 20       		.byte	0x20
 8159 27fd 2A       		.byte	0x2a
 8160 27fe 46       		.byte	0x46
 8161 27ff 64280000 		.4byte	0x2864
 8162 2803 0E       		.uleb128 0xe
 8163 2804 680C0000 		.4byte	.LASF554
 8164 2808 2A       		.byte	0x2a
 8165 2809 47       		.byte	0x47
 8166 280a 0F090000 		.4byte	0x90f
 8167 280e 00       		.byte	0
 8168 280f 0E       		.uleb128 0xe
 8169 2810 BF0B0000 		.4byte	.LASF555
 8170 2814 2A       		.byte	0x2a
 8171 2815 49       		.byte	0x49
 8172 2816 0F090000 		.4byte	0x90f
 8173 281a 04       		.byte	0x4
 8174 281b 0E       		.uleb128 0xe
 8175 281c 061B0000 		.4byte	.LASF556
 8176 2820 2A       		.byte	0x2a
 8177 2821 4A       		.byte	0x4a
 8178 2822 0F090000 		.4byte	0x90f
 8179 2826 08       		.byte	0x8
 8180 2827 0E       		.uleb128 0xe
 8181 2828 980F0000 		.4byte	.LASF557
 8182 282c 2A       		.byte	0x2a
 8183 282d 4C       		.byte	0x4c
 8184 282e 0F090000 		.4byte	0x90f
 8185 2832 0C       		.byte	0xc
 8186 2833 0E       		.uleb128 0xe
 8187 2834 C0130000 		.4byte	.LASF558
 8188 2838 2A       		.byte	0x2a
 8189 2839 4D       		.byte	0x4d
 8190 283a 0F090000 		.4byte	0x90f
 8191 283e 10       		.byte	0x10
 8192 283f 0E       		.uleb128 0xe
 8193 2840 150C0000 		.4byte	.LASF550
 8194 2844 2A       		.byte	0x2a
 8195 2845 4F       		.byte	0x4f
 8196 2846 0F090000 		.4byte	0x90f
ARM GAS  /tmp/ccqRaZSa.s 			page 145


 8197 284a 14       		.byte	0x14
 8198 284b 0E       		.uleb128 0xe
 8199 284c C4050000 		.4byte	.LASF559
 8200 2850 2A       		.byte	0x2a
 8201 2851 50       		.byte	0x50
 8202 2852 0F090000 		.4byte	0x90f
 8203 2856 18       		.byte	0x18
 8204 2857 0E       		.uleb128 0xe
 8205 2858 EF1A0000 		.4byte	.LASF560
 8206 285c 2A       		.byte	0x2a
 8207 285d 52       		.byte	0x52
 8208 285e 0F090000 		.4byte	0x90f
 8209 2862 1C       		.byte	0x1c
 8210 2863 00       		.byte	0
 8211 2864 04       		.uleb128 0x4
 8212 2865 BA060000 		.4byte	.LASF561
 8213 2869 2A       		.byte	0x2a
 8214 286a 53       		.byte	0x53
 8215 286b FB270000 		.4byte	0x27fb
 8216 286f 0D       		.uleb128 0xd
 8217 2870 20       		.byte	0x20
 8218 2871 2A       		.byte	0x2a
 8219 2872 58       		.byte	0x58
 8220 2873 D8280000 		.4byte	0x28d8
 8221 2877 0E       		.uleb128 0xe
 8222 2878 F7110000 		.4byte	.LASF562
 8223 287c 2A       		.byte	0x2a
 8224 287d 59       		.byte	0x59
 8225 287e 0F090000 		.4byte	0x90f
 8226 2882 00       		.byte	0
 8227 2883 0E       		.uleb128 0xe
 8228 2884 BF0B0000 		.4byte	.LASF555
 8229 2888 2A       		.byte	0x2a
 8230 2889 5B       		.byte	0x5b
 8231 288a 0F090000 		.4byte	0x90f
 8232 288e 04       		.byte	0x4
 8233 288f 0E       		.uleb128 0xe
 8234 2890 C3140000 		.4byte	.LASF563
 8235 2894 2A       		.byte	0x2a
 8236 2895 5C       		.byte	0x5c
 8237 2896 0F090000 		.4byte	0x90f
 8238 289a 08       		.byte	0x8
 8239 289b 0E       		.uleb128 0xe
 8240 289c 980F0000 		.4byte	.LASF557
 8241 28a0 2A       		.byte	0x2a
 8242 28a1 5E       		.byte	0x5e
 8243 28a2 0F090000 		.4byte	0x90f
 8244 28a6 0C       		.byte	0xc
 8245 28a7 0E       		.uleb128 0xe
 8246 28a8 311C0000 		.4byte	.LASF564
 8247 28ac 2A       		.byte	0x2a
 8248 28ad 5F       		.byte	0x5f
 8249 28ae 0F090000 		.4byte	0x90f
 8250 28b2 10       		.byte	0x10
 8251 28b3 0E       		.uleb128 0xe
 8252 28b4 150C0000 		.4byte	.LASF550
 8253 28b8 2A       		.byte	0x2a
ARM GAS  /tmp/ccqRaZSa.s 			page 146


 8254 28b9 61       		.byte	0x61
 8255 28ba 0F090000 		.4byte	0x90f
 8256 28be 14       		.byte	0x14
 8257 28bf 0E       		.uleb128 0xe
 8258 28c0 280C0000 		.4byte	.LASF551
 8259 28c4 2A       		.byte	0x2a
 8260 28c5 62       		.byte	0x62
 8261 28c6 0F090000 		.4byte	0x90f
 8262 28ca 18       		.byte	0x18
 8263 28cb 0E       		.uleb128 0xe
 8264 28cc EF1A0000 		.4byte	.LASF560
 8265 28d0 2A       		.byte	0x2a
 8266 28d1 63       		.byte	0x63
 8267 28d2 0F090000 		.4byte	0x90f
 8268 28d6 1C       		.byte	0x1c
 8269 28d7 00       		.byte	0
 8270 28d8 04       		.uleb128 0x4
 8271 28d9 F4130000 		.4byte	.LASF565
 8272 28dd 2A       		.byte	0x2a
 8273 28de 64       		.byte	0x64
 8274 28df 6F280000 		.4byte	0x286f
 8275 28e3 2A       		.uleb128 0x2a
 8276 28e4 00100100 		.4byte	0x11000
 8277 28e8 2A       		.byte	0x2a
 8278 28e9 69       		.byte	0x69
 8279 28ea C02B0000 		.4byte	0x2bc0
 8280 28ee 0E       		.uleb128 0xe
 8281 28ef FE030000 		.4byte	.LASF566
 8282 28f3 2A       		.byte	0x2a
 8283 28f4 6A       		.byte	0x6a
 8284 28f5 0F090000 		.4byte	0x90f
 8285 28f9 00       		.byte	0
 8286 28fa 0E       		.uleb128 0xe
 8287 28fb 0E0B0000 		.4byte	.LASF567
 8288 28ff 2A       		.byte	0x2a
 8289 2900 6B       		.byte	0x6b
 8290 2901 0F090000 		.4byte	0x90f
 8291 2905 04       		.byte	0x4
 8292 2906 0E       		.uleb128 0xe
 8293 2907 08060000 		.4byte	.LASF568
 8294 290b 2A       		.byte	0x2a
 8295 290c 6C       		.byte	0x6c
 8296 290d 0F090000 		.4byte	0x90f
 8297 2911 08       		.byte	0x8
 8298 2912 0E       		.uleb128 0xe
 8299 2913 181F0000 		.4byte	.LASF569
 8300 2917 2A       		.byte	0x2a
 8301 2918 6D       		.byte	0x6d
 8302 2919 0F090000 		.4byte	0x90f
 8303 291d 0C       		.byte	0xc
 8304 291e 0E       		.uleb128 0xe
 8305 291f A2100000 		.4byte	.LASF570
 8306 2923 2A       		.byte	0x2a
 8307 2924 6E       		.byte	0x6e
 8308 2925 0F090000 		.4byte	0x90f
 8309 2929 10       		.byte	0x10
 8310 292a 0E       		.uleb128 0xe
ARM GAS  /tmp/ccqRaZSa.s 			page 147


 8311 292b E8020000 		.4byte	.LASF571
 8312 292f 2A       		.byte	0x2a
 8313 2930 6F       		.byte	0x6f
 8314 2931 0F090000 		.4byte	0x90f
 8315 2935 14       		.byte	0x14
 8316 2936 0E       		.uleb128 0xe
 8317 2937 96160000 		.4byte	.LASF572
 8318 293b 2A       		.byte	0x2a
 8319 293c 70       		.byte	0x70
 8320 293d 0F090000 		.4byte	0x90f
 8321 2941 18       		.byte	0x18
 8322 2942 0E       		.uleb128 0xe
 8323 2943 6E060000 		.4byte	.LASF573
 8324 2947 2A       		.byte	0x2a
 8325 2948 71       		.byte	0x71
 8326 2949 0F090000 		.4byte	0x90f
 8327 294d 1C       		.byte	0x1c
 8328 294e 0E       		.uleb128 0xe
 8329 294f 66060000 		.4byte	.LASF574
 8330 2953 2A       		.byte	0x2a
 8331 2954 73       		.byte	0x73
 8332 2955 0F090000 		.4byte	0x90f
 8333 2959 20       		.byte	0x20
 8334 295a 0E       		.uleb128 0xe
 8335 295b 4F160000 		.4byte	.LASF575
 8336 295f 2A       		.byte	0x2a
 8337 2960 75       		.byte	0x75
 8338 2961 0F090000 		.4byte	0x90f
 8339 2965 24       		.byte	0x24
 8340 2966 0E       		.uleb128 0xe
 8341 2967 6B000000 		.4byte	.LASF576
 8342 296b 2A       		.byte	0x2a
 8343 296c 76       		.byte	0x76
 8344 296d 0F090000 		.4byte	0x90f
 8345 2971 28       		.byte	0x28
 8346 2972 0E       		.uleb128 0xe
 8347 2973 AC160000 		.4byte	.LASF577
 8348 2977 2A       		.byte	0x2a
 8349 2978 78       		.byte	0x78
 8350 2979 0F090000 		.4byte	0x90f
 8351 297d 2C       		.byte	0x2c
 8352 297e 0E       		.uleb128 0xe
 8353 297f 3A0D0000 		.4byte	.LASF578
 8354 2983 2A       		.byte	0x2a
 8355 2984 7A       		.byte	0x7a
 8356 2985 0F090000 		.4byte	0x90f
 8357 2989 30       		.byte	0x30
 8358 298a 0E       		.uleb128 0xe
 8359 298b ED1D0000 		.4byte	.LASF579
 8360 298f 2A       		.byte	0x2a
 8361 2990 7B       		.byte	0x7b
 8362 2991 0F090000 		.4byte	0x90f
 8363 2995 34       		.byte	0x34
 8364 2996 0E       		.uleb128 0xe
 8365 2997 57010000 		.4byte	.LASF580
 8366 299b 2A       		.byte	0x2a
 8367 299c 7C       		.byte	0x7c
ARM GAS  /tmp/ccqRaZSa.s 			page 148


 8368 299d 0F090000 		.4byte	0x90f
 8369 29a1 38       		.byte	0x38
 8370 29a2 12       		.uleb128 0x12
 8371 29a3 43494400 		.ascii	"CID\000"
 8372 29a7 2A       		.byte	0x2a
 8373 29a8 7D       		.byte	0x7d
 8374 29a9 0F090000 		.4byte	0x90f
 8375 29ad 3C       		.byte	0x3c
 8376 29ae 0E       		.uleb128 0xe
 8377 29af 910E0000 		.4byte	.LASF581
 8378 29b3 2A       		.byte	0x2a
 8379 29b4 7E       		.byte	0x7e
 8380 29b5 D02B0000 		.4byte	0x2bd0
 8381 29b9 40       		.byte	0x40
 8382 29ba 14       		.uleb128 0x14
 8383 29bb F61C0000 		.4byte	.LASF582
 8384 29bf 2A       		.byte	0x2a
 8385 29c0 7F       		.byte	0x7f
 8386 29c1 0F090000 		.4byte	0x90f
 8387 29c5 0001     		.2byte	0x100
 8388 29c7 14       		.uleb128 0x14
 8389 29c8 A8010000 		.4byte	.LASF583
 8390 29cc 2A       		.byte	0x2a
 8391 29cd 81       		.byte	0x81
 8392 29ce 2A130000 		.4byte	0x132a
 8393 29d2 0401     		.2byte	0x104
 8394 29d4 14       		.uleb128 0x14
 8395 29d5 B1110000 		.4byte	.LASF584
 8396 29d9 2A       		.byte	0x2a
 8397 29da 83       		.byte	0x83
 8398 29db E52B0000 		.4byte	0x2be5
 8399 29df 4001     		.2byte	0x140
 8400 29e1 14       		.uleb128 0x14
 8401 29e2 62140000 		.4byte	.LASF585
 8402 29e6 2A       		.byte	0x2a
 8403 29e7 84       		.byte	0x84
 8404 29e8 0F090000 		.4byte	0x90f
 8405 29ec 0004     		.2byte	0x400
 8406 29ee 14       		.uleb128 0x14
 8407 29ef B01E0000 		.4byte	.LASF586
 8408 29f3 2A       		.byte	0x2a
 8409 29f4 85       		.byte	0x85
 8410 29f5 0F090000 		.4byte	0x90f
 8411 29f9 0404     		.2byte	0x404
 8412 29fb 14       		.uleb128 0x14
 8413 29fc 75030000 		.4byte	.LASF587
 8414 2a00 2A       		.byte	0x2a
 8415 2a01 86       		.byte	0x86
 8416 2a02 0F090000 		.4byte	0x90f
 8417 2a06 0804     		.2byte	0x408
 8418 2a08 14       		.uleb128 0x14
 8419 2a09 570B0000 		.4byte	.LASF588
 8420 2a0d 2A       		.byte	0x2a
 8421 2a0e 88       		.byte	0x88
 8422 2a0f 0F090000 		.4byte	0x90f
 8423 2a13 0C04     		.2byte	0x40c
 8424 2a15 14       		.uleb128 0x14
ARM GAS  /tmp/ccqRaZSa.s 			page 149


 8425 2a16 67020000 		.4byte	.LASF589
 8426 2a1a 2A       		.byte	0x2a
 8427 2a1b 89       		.byte	0x89
 8428 2a1c 0F090000 		.4byte	0x90f
 8429 2a20 1004     		.2byte	0x410
 8430 2a22 14       		.uleb128 0x14
 8431 2a23 35030000 		.4byte	.LASF590
 8432 2a27 2A       		.byte	0x2a
 8433 2a28 8B       		.byte	0x8b
 8434 2a29 0F090000 		.4byte	0x90f
 8435 2a2d 1404     		.2byte	0x414
 8436 2a2f 14       		.uleb128 0x14
 8437 2a30 1D0B0000 		.4byte	.LASF591
 8438 2a34 2A       		.byte	0x2a
 8439 2a35 8D       		.byte	0x8d
 8440 2a36 0F090000 		.4byte	0x90f
 8441 2a3a 1804     		.2byte	0x418
 8442 2a3c 14       		.uleb128 0x14
 8443 2a3d 95180000 		.4byte	.LASF592
 8444 2a41 2A       		.byte	0x2a
 8445 2a42 8F       		.byte	0x8f
 8446 2a43 FA2B0000 		.4byte	0x2bfa
 8447 2a47 1C04     		.2byte	0x41c
 8448 2a49 14       		.uleb128 0x14
 8449 2a4a 00020000 		.4byte	.LASF593
 8450 2a4e 2A       		.byte	0x2a
 8451 2a4f 90       		.byte	0x90
 8452 2a50 0F090000 		.4byte	0x90f
 8453 2a54 4004     		.2byte	0x440
 8454 2a56 14       		.uleb128 0x14
 8455 2a57 151A0000 		.4byte	.LASF594
 8456 2a5b 2A       		.byte	0x2a
 8457 2a5c 92       		.byte	0x92
 8458 2a5d 0F2C0000 		.4byte	0x2c0f
 8459 2a61 4404     		.2byte	0x444
 8460 2a63 2B       		.uleb128 0x2b
 8461 2a64 686300   		.ascii	"hc\000"
 8462 2a67 2A       		.byte	0x2a
 8463 2a68 93       		.byte	0x93
 8464 2a69 142C0000 		.4byte	0x2c14
 8465 2a6d 0005     		.2byte	0x500
 8466 2a6f 14       		.uleb128 0x14
 8467 2a70 D7000000 		.4byte	.LASF595
 8468 2a74 2A       		.byte	0x2a
 8469 2a75 94       		.byte	0x94
 8470 2a76 342C0000 		.4byte	0x2c34
 8471 2a7a 0007     		.2byte	0x700
 8472 2a7c 14       		.uleb128 0x14
 8473 2a7d 98190000 		.4byte	.LASF596
 8474 2a81 2A       		.byte	0x2a
 8475 2a82 95       		.byte	0x95
 8476 2a83 0F090000 		.4byte	0x90f
 8477 2a87 0008     		.2byte	0x800
 8478 2a89 14       		.uleb128 0x14
 8479 2a8a B01D0000 		.4byte	.LASF597
 8480 2a8e 2A       		.byte	0x2a
 8481 2a8f 96       		.byte	0x96
ARM GAS  /tmp/ccqRaZSa.s 			page 150


 8482 2a90 0F090000 		.4byte	0x90f
 8483 2a94 0408     		.2byte	0x804
 8484 2a96 14       		.uleb128 0x14
 8485 2a97 32100000 		.4byte	.LASF598
 8486 2a9b 2A       		.byte	0x2a
 8487 2a9c 97       		.byte	0x97
 8488 2a9d 0F090000 		.4byte	0x90f
 8489 2aa1 0808     		.2byte	0x808
 8490 2aa3 14       		.uleb128 0x14
 8491 2aa4 EC030000 		.4byte	.LASF599
 8492 2aa8 2A       		.byte	0x2a
 8493 2aa9 98       		.byte	0x98
 8494 2aaa 0F090000 		.4byte	0x90f
 8495 2aae 0C08     		.2byte	0x80c
 8496 2ab0 14       		.uleb128 0x14
 8497 2ab1 060B0000 		.4byte	.LASF600
 8498 2ab5 2A       		.byte	0x2a
 8499 2ab6 99       		.byte	0x99
 8500 2ab7 0F090000 		.4byte	0x90f
 8501 2abb 1008     		.2byte	0x810
 8502 2abd 14       		.uleb128 0x14
 8503 2abe 321B0000 		.4byte	.LASF601
 8504 2ac2 2A       		.byte	0x2a
 8505 2ac3 9B       		.byte	0x9b
 8506 2ac4 0F090000 		.4byte	0x90f
 8507 2ac8 1408     		.2byte	0x814
 8508 2aca 14       		.uleb128 0x14
 8509 2acb AF1B0000 		.4byte	.LASF602
 8510 2acf 2A       		.byte	0x2a
 8511 2ad0 9D       		.byte	0x9d
 8512 2ad1 0F090000 		.4byte	0x90f
 8513 2ad5 1808     		.2byte	0x818
 8514 2ad7 14       		.uleb128 0x14
 8515 2ad8 12190000 		.4byte	.LASF603
 8516 2adc 2A       		.byte	0x2a
 8517 2add 9F       		.byte	0x9f
 8518 2ade 0F090000 		.4byte	0x90f
 8519 2ae2 1C08     		.2byte	0x81c
 8520 2ae4 14       		.uleb128 0x14
 8521 2ae5 00050000 		.4byte	.LASF604
 8522 2ae9 2A       		.byte	0x2a
 8523 2aea A1       		.byte	0xa1
 8524 2aeb 0F090000 		.4byte	0x90f
 8525 2aef 2008     		.2byte	0x820
 8526 2af1 14       		.uleb128 0x14
 8527 2af2 33040000 		.4byte	.LASF605
 8528 2af6 2A       		.byte	0x2a
 8529 2af7 A2       		.byte	0xa2
 8530 2af8 0F090000 		.4byte	0x90f
 8531 2afc 2408     		.2byte	0x824
 8532 2afe 14       		.uleb128 0x14
 8533 2aff E0000000 		.4byte	.LASF606
 8534 2b03 2A       		.byte	0x2a
 8535 2b04 A3       		.byte	0xa3
 8536 2b05 0F090000 		.4byte	0x90f
 8537 2b09 2808     		.2byte	0x828
 8538 2b0b 14       		.uleb128 0x14
ARM GAS  /tmp/ccqRaZSa.s 			page 151


 8539 2b0c A8050000 		.4byte	.LASF607
 8540 2b10 2A       		.byte	0x2a
 8541 2b11 A5       		.byte	0xa5
 8542 2b12 0F090000 		.4byte	0x90f
 8543 2b16 2C08     		.2byte	0x82c
 8544 2b18 14       		.uleb128 0x14
 8545 2b19 72050000 		.4byte	.LASF608
 8546 2b1d 2A       		.byte	0x2a
 8547 2b1e A7       		.byte	0xa7
 8548 2b1f 0F090000 		.4byte	0x90f
 8549 2b23 3008     		.2byte	0x830
 8550 2b25 14       		.uleb128 0x14
 8551 2b26 4B0C0000 		.4byte	.LASF609
 8552 2b2a 2A       		.byte	0x2a
 8553 2b2b A8       		.byte	0xa8
 8554 2b2c 0F090000 		.4byte	0x90f
 8555 2b30 3408     		.2byte	0x834
 8556 2b32 14       		.uleb128 0x14
 8557 2b33 80050000 		.4byte	.LASF610
 8558 2b37 2A       		.byte	0x2a
 8559 2b38 AA       		.byte	0xaa
 8560 2b39 0F090000 		.4byte	0x90f
 8561 2b3d 3808     		.2byte	0x838
 8562 2b3f 14       		.uleb128 0x14
 8563 2b40 98050000 		.4byte	.LASF611
 8564 2b44 2A       		.byte	0x2a
 8565 2b45 AB       		.byte	0xab
 8566 2b46 0F090000 		.4byte	0x90f
 8567 2b4a 3C08     		.2byte	0x83c
 8568 2b4c 14       		.uleb128 0x14
 8569 2b4d 18060000 		.4byte	.LASF612
 8570 2b51 2A       		.byte	0x2a
 8571 2b52 AC       		.byte	0xac
 8572 2b53 492C0000 		.4byte	0x2c49
 8573 2b57 4008     		.2byte	0x840
 8574 2b59 14       		.uleb128 0x14
 8575 2b5a EB0B0000 		.4byte	.LASF613
 8576 2b5e 2A       		.byte	0x2a
 8577 2b5f AD       		.byte	0xad
 8578 2b60 492C0000 		.4byte	0x2c49
 8579 2b64 8008     		.2byte	0x880
 8580 2b66 14       		.uleb128 0x14
 8581 2b67 850F0000 		.4byte	.LASF614
 8582 2b6b 2A       		.byte	0x2a
 8583 2b6c AE       		.byte	0xae
 8584 2b6d 492C0000 		.4byte	0x2c49
 8585 2b71 C008     		.2byte	0x8c0
 8586 2b73 2B       		.uleb128 0x2b
 8587 2b74 696500   		.ascii	"ie\000"
 8588 2b77 2A       		.byte	0x2a
 8589 2b78 AF       		.byte	0xaf
 8590 2b79 4E2C0000 		.4byte	0x2c4e
 8591 2b7d 0009     		.2byte	0x900
 8592 2b7f 2B       		.uleb128 0x2b
 8593 2b80 6F6500   		.ascii	"oe\000"
 8594 2b83 2A       		.byte	0x2a
 8595 2b84 B0       		.byte	0xb0
ARM GAS  /tmp/ccqRaZSa.s 			page 152


 8596 2b85 5E2C0000 		.4byte	0x2c5e
 8597 2b89 000B     		.2byte	0xb00
 8598 2b8b 14       		.uleb128 0x14
 8599 2b8c 7F090000 		.4byte	.LASF615
 8600 2b90 2A       		.byte	0x2a
 8601 2b91 B1       		.byte	0xb1
 8602 2b92 342C0000 		.4byte	0x2c34
 8603 2b96 000D     		.2byte	0xd00
 8604 2b98 14       		.uleb128 0x14
 8605 2b99 BB1D0000 		.4byte	.LASF616
 8606 2b9d 2A       		.byte	0x2a
 8607 2b9e B2       		.byte	0xb2
 8608 2b9f 0F090000 		.4byte	0x90f
 8609 2ba3 000E     		.2byte	0xe00
 8610 2ba5 14       		.uleb128 0x14
 8611 2ba6 AF0D0000 		.4byte	.LASF617
 8612 2baa 2A       		.byte	0x2a
 8613 2bab B4       		.byte	0xb4
 8614 2bac 7E2C0000 		.4byte	0x2c7e
 8615 2bb0 040E     		.2byte	0xe04
 8616 2bb2 14       		.uleb128 0x14
 8617 2bb3 9E1D0000 		.4byte	.LASF618
 8618 2bb7 2A       		.byte	0x2a
 8619 2bb8 B5       		.byte	0xb5
 8620 2bb9 9A2C0000 		.4byte	0x2c9a
 8621 2bbd 0010     		.2byte	0x1000
 8622 2bbf 00       		.byte	0
 8623 2bc0 0B       		.uleb128 0xb
 8624 2bc1 0F090000 		.4byte	0x90f
 8625 2bc5 D02B0000 		.4byte	0x2bd0
 8626 2bc9 0C       		.uleb128 0xc
 8627 2bca 25000000 		.4byte	0x25
 8628 2bce 2F       		.byte	0x2f
 8629 2bcf 00       		.byte	0
 8630 2bd0 05       		.uleb128 0x5
 8631 2bd1 C02B0000 		.4byte	0x2bc0
 8632 2bd5 0B       		.uleb128 0xb
 8633 2bd6 0F090000 		.4byte	0x90f
 8634 2bda E52B0000 		.4byte	0x2be5
 8635 2bde 0C       		.uleb128 0xc
 8636 2bdf 25000000 		.4byte	0x25
 8637 2be3 AF       		.byte	0xaf
 8638 2be4 00       		.byte	0
 8639 2be5 05       		.uleb128 0x5
 8640 2be6 D52B0000 		.4byte	0x2bd5
 8641 2bea 0B       		.uleb128 0xb
 8642 2beb 0F090000 		.4byte	0x90f
 8643 2bef FA2B0000 		.4byte	0x2bfa
 8644 2bf3 0C       		.uleb128 0xc
 8645 2bf4 25000000 		.4byte	0x25
 8646 2bf8 08       		.byte	0x8
 8647 2bf9 00       		.byte	0
 8648 2bfa 05       		.uleb128 0x5
 8649 2bfb EA2B0000 		.4byte	0x2bea
 8650 2bff 0B       		.uleb128 0xb
 8651 2c00 0F090000 		.4byte	0x90f
 8652 2c04 0F2C0000 		.4byte	0x2c0f
ARM GAS  /tmp/ccqRaZSa.s 			page 153


 8653 2c08 0C       		.uleb128 0xc
 8654 2c09 25000000 		.4byte	0x25
 8655 2c0d 2E       		.byte	0x2e
 8656 2c0e 00       		.byte	0
 8657 2c0f 05       		.uleb128 0x5
 8658 2c10 FF2B0000 		.4byte	0x2bff
 8659 2c14 0B       		.uleb128 0xb
 8660 2c15 F0270000 		.4byte	0x27f0
 8661 2c19 242C0000 		.4byte	0x2c24
 8662 2c1d 0C       		.uleb128 0xc
 8663 2c1e 25000000 		.4byte	0x25
 8664 2c22 0F       		.byte	0xf
 8665 2c23 00       		.byte	0
 8666 2c24 0B       		.uleb128 0xb
 8667 2c25 0F090000 		.4byte	0x90f
 8668 2c29 342C0000 		.4byte	0x2c34
 8669 2c2d 0C       		.uleb128 0xc
 8670 2c2e 25000000 		.4byte	0x25
 8671 2c32 3F       		.byte	0x3f
 8672 2c33 00       		.byte	0
 8673 2c34 05       		.uleb128 0x5
 8674 2c35 242C0000 		.4byte	0x2c24
 8675 2c39 0B       		.uleb128 0xb
 8676 2c3a 0F090000 		.4byte	0x90f
 8677 2c3e 492C0000 		.4byte	0x2c49
 8678 2c42 0C       		.uleb128 0xc
 8679 2c43 25000000 		.4byte	0x25
 8680 2c47 0F       		.byte	0xf
 8681 2c48 00       		.byte	0
 8682 2c49 05       		.uleb128 0x5
 8683 2c4a 392C0000 		.4byte	0x2c39
 8684 2c4e 0B       		.uleb128 0xb
 8685 2c4f 64280000 		.4byte	0x2864
 8686 2c53 5E2C0000 		.4byte	0x2c5e
 8687 2c57 0C       		.uleb128 0xc
 8688 2c58 25000000 		.4byte	0x25
 8689 2c5c 0F       		.byte	0xf
 8690 2c5d 00       		.byte	0
 8691 2c5e 0B       		.uleb128 0xb
 8692 2c5f D8280000 		.4byte	0x28d8
 8693 2c63 6E2C0000 		.4byte	0x2c6e
 8694 2c67 0C       		.uleb128 0xc
 8695 2c68 25000000 		.4byte	0x25
 8696 2c6c 0F       		.byte	0xf
 8697 2c6d 00       		.byte	0
 8698 2c6e 0B       		.uleb128 0xb
 8699 2c6f 0F090000 		.4byte	0x90f
 8700 2c73 7E2C0000 		.4byte	0x2c7e
 8701 2c77 0C       		.uleb128 0xc
 8702 2c78 25000000 		.4byte	0x25
 8703 2c7c 7E       		.byte	0x7e
 8704 2c7d 00       		.byte	0
 8705 2c7e 05       		.uleb128 0x5
 8706 2c7f 6E2C0000 		.4byte	0x2c6e
 8707 2c83 0B       		.uleb128 0xb
 8708 2c84 0F090000 		.4byte	0x90f
 8709 2c88 9A2C0000 		.4byte	0x2c9a
ARM GAS  /tmp/ccqRaZSa.s 			page 154


 8710 2c8c 0C       		.uleb128 0xc
 8711 2c8d 25000000 		.4byte	0x25
 8712 2c91 0F       		.byte	0xf
 8713 2c92 2C       		.uleb128 0x2c
 8714 2c93 25000000 		.4byte	0x25
 8715 2c97 FF03     		.2byte	0x3ff
 8716 2c99 00       		.byte	0
 8717 2c9a 05       		.uleb128 0x5
 8718 2c9b 832C0000 		.4byte	0x2c83
 8719 2c9f 04       		.uleb128 0x4
 8720 2ca0 451F0000 		.4byte	.LASF619
 8721 2ca4 2A       		.byte	0x2a
 8722 2ca5 B6       		.byte	0xb6
 8723 2ca6 E3280000 		.4byte	0x28e3
 8724 2caa 0D       		.uleb128 0xd
 8725 2cab 0C       		.byte	0xc
 8726 2cac 29       		.byte	0x29
 8727 2cad C6       		.byte	0xc6
 8728 2cae D72C0000 		.4byte	0x2cd7
 8729 2cb2 0E       		.uleb128 0xe
 8730 2cb3 77070000 		.4byte	.LASF620
 8731 2cb7 29       		.byte	0x29
 8732 2cb8 C7       		.byte	0xc7
 8733 2cb9 04090000 		.4byte	0x904
 8734 2cbd 00       		.byte	0
 8735 2cbe 0E       		.uleb128 0xe
 8736 2cbf 50090000 		.4byte	.LASF621
 8737 2cc3 29       		.byte	0x29
 8738 2cc4 C8       		.byte	0xc8
 8739 2cc5 04090000 		.4byte	0x904
 8740 2cc9 04       		.byte	0x4
 8741 2cca 0E       		.uleb128 0xe
 8742 2ccb B80D0000 		.4byte	.LASF622
 8743 2ccf 29       		.byte	0x29
 8744 2cd0 C9       		.byte	0xc9
 8745 2cd1 04090000 		.4byte	0x904
 8746 2cd5 08       		.byte	0x8
 8747 2cd6 00       		.byte	0
 8748 2cd7 04       		.uleb128 0x4
 8749 2cd8 6C090000 		.4byte	.LASF623
 8750 2cdc 29       		.byte	0x29
 8751 2cdd CA       		.byte	0xca
 8752 2cde AA2C0000 		.4byte	0x2caa
 8753 2ce2 10       		.uleb128 0x10
 8754 2ce3 D72C0000 		.4byte	0x2cd7
 8755 2ce7 0D       		.uleb128 0xd
 8756 2ce8 04       		.byte	0x4
 8757 2ce9 29       		.byte	0x29
 8758 2cea DD       		.byte	0xdd
 8759 2ceb FC2C0000 		.4byte	0x2cfc
 8760 2cef 0E       		.uleb128 0xe
 8761 2cf0 B51D0000 		.4byte	.LASF624
 8762 2cf4 29       		.byte	0x29
 8763 2cf5 E1       		.byte	0xe1
 8764 2cf6 1B180000 		.4byte	0x181b
 8765 2cfa 00       		.byte	0
 8766 2cfb 00       		.byte	0
ARM GAS  /tmp/ccqRaZSa.s 			page 155


 8767 2cfc 0D       		.uleb128 0xd
 8768 2cfd 04       		.byte	0x4
 8769 2cfe 29       		.byte	0x29
 8770 2cff E3       		.byte	0xe3
 8771 2d00 112D0000 		.4byte	0x2d11
 8772 2d04 0E       		.uleb128 0xe
 8773 2d05 CE070000 		.4byte	.LASF383
 8774 2d09 29       		.byte	0x29
 8775 2d0a E7       		.byte	0xe7
 8776 2d0b 112D0000 		.4byte	0x2d11
 8777 2d0f 00       		.byte	0
 8778 2d10 00       		.byte	0
 8779 2d11 06       		.uleb128 0x6
 8780 2d12 04       		.byte	0x4
 8781 2d13 F7170000 		.4byte	0x17f7
 8782 2d17 09       		.uleb128 0x9
 8783 2d18 04       		.byte	0x4
 8784 2d19 29       		.byte	0x29
 8785 2d1a DC       		.byte	0xdc
 8786 2d1b 362D0000 		.4byte	0x2d36
 8787 2d1f 0A       		.uleb128 0xa
 8788 2d20 3D1A0000 		.4byte	.LASF625
 8789 2d24 29       		.byte	0x29
 8790 2d25 E2       		.byte	0xe2
 8791 2d26 E72C0000 		.4byte	0x2ce7
 8792 2d2a 0A       		.uleb128 0xa
 8793 2d2b 54190000 		.4byte	.LASF626
 8794 2d2f 29       		.byte	0x29
 8795 2d30 E8       		.byte	0xe8
 8796 2d31 FC2C0000 		.4byte	0x2cfc
 8797 2d35 00       		.byte	0
 8798 2d36 0D       		.uleb128 0xd
 8799 2d37 14       		.byte	0x14
 8800 2d38 29       		.byte	0x29
 8801 2d39 CF       		.byte	0xcf
 8802 2d3a 7B2D0000 		.4byte	0x2d7b
 8803 2d3e 0E       		.uleb128 0xe
 8804 2d3f 4A060000 		.4byte	.LASF627
 8805 2d43 29       		.byte	0x29
 8806 2d44 D3       		.byte	0xd3
 8807 2d45 7C180000 		.4byte	0x187c
 8808 2d49 00       		.byte	0
 8809 2d4a 0E       		.uleb128 0xe
 8810 2d4b 6F100000 		.4byte	.LASF628
 8811 2d4f 29       		.byte	0x29
 8812 2d50 D7       		.byte	0xd7
 8813 2d51 33000000 		.4byte	0x33
 8814 2d55 04       		.byte	0x4
 8815 2d56 0E       		.uleb128 0xe
 8816 2d57 401D0000 		.4byte	.LASF629
 8817 2d5b 29       		.byte	0x29
 8818 2d5c DB       		.byte	0xdb
 8819 2d5d 33000000 		.4byte	0x33
 8820 2d61 08       		.byte	0x8
 8821 2d62 0E       		.uleb128 0xe
 8822 2d63 E6060000 		.4byte	.LASF452
 8823 2d67 29       		.byte	0x29
ARM GAS  /tmp/ccqRaZSa.s 			page 156


 8824 2d68 E9       		.byte	0xe9
 8825 2d69 172D0000 		.4byte	0x2d17
 8826 2d6d 0C       		.byte	0xc
 8827 2d6e 0E       		.uleb128 0xe
 8828 2d6f C60D0000 		.4byte	.LASF630
 8829 2d73 29       		.byte	0x29
 8830 2d74 ED       		.byte	0xed
 8831 2d75 33000000 		.4byte	0x33
 8832 2d79 10       		.byte	0x10
 8833 2d7a 00       		.byte	0
 8834 2d7b 04       		.uleb128 0x4
 8835 2d7c 990E0000 		.4byte	.LASF631
 8836 2d80 29       		.byte	0x29
 8837 2d81 EE       		.byte	0xee
 8838 2d82 362D0000 		.4byte	0x2d36
 8839 2d86 1C       		.uleb128 0x1c
 8840 2d87 04       		.byte	0x4
 8841 2d88 29       		.byte	0x29
 8842 2d89 0101     		.2byte	0x101
 8843 2d8b 9D2D0000 		.4byte	0x2d9d
 8844 2d8f 19       		.uleb128 0x19
 8845 2d90 8F090000 		.4byte	.LASF632
 8846 2d94 29       		.byte	0x29
 8847 2d95 0501     		.2byte	0x105
 8848 2d97 E6170000 		.4byte	0x17e6
 8849 2d9b 00       		.byte	0
 8850 2d9c 00       		.byte	0
 8851 2d9d 1C       		.uleb128 0x1c
 8852 2d9e 04       		.byte	0x4
 8853 2d9f 29       		.byte	0x29
 8854 2da0 0701     		.2byte	0x107
 8855 2da2 B42D0000 		.4byte	0x2db4
 8856 2da6 19       		.uleb128 0x19
 8857 2da7 0D1A0000 		.4byte	.LASF384
 8858 2dab 29       		.byte	0x29
 8859 2dac 0B01     		.2byte	0x10b
 8860 2dae B42D0000 		.4byte	0x2db4
 8861 2db2 00       		.byte	0
 8862 2db3 00       		.byte	0
 8863 2db4 06       		.uleb128 0x6
 8864 2db5 04       		.byte	0x4
 8865 2db6 EC170000 		.4byte	0x17ec
 8866 2dba 1D       		.uleb128 0x1d
 8867 2dbb 04       		.byte	0x4
 8868 2dbc 29       		.byte	0x29
 8869 2dbd 0001     		.2byte	0x100
 8870 2dbf DC2D0000 		.4byte	0x2ddc
 8871 2dc3 1E       		.uleb128 0x1e
 8872 2dc4 3D1A0000 		.4byte	.LASF625
 8873 2dc8 29       		.byte	0x29
 8874 2dc9 0601     		.2byte	0x106
 8875 2dcb 862D0000 		.4byte	0x2d86
 8876 2dcf 1E       		.uleb128 0x1e
 8877 2dd0 54190000 		.4byte	.LASF626
 8878 2dd4 29       		.byte	0x29
 8879 2dd5 0C01     		.2byte	0x10c
 8880 2dd7 9D2D0000 		.4byte	0x2d9d
ARM GAS  /tmp/ccqRaZSa.s 			page 157


 8881 2ddb 00       		.byte	0
 8882 2ddc 0D       		.uleb128 0xd
 8883 2ddd 14       		.byte	0x14
 8884 2dde 29       		.byte	0x29
 8885 2ddf F3       		.byte	0xf3
 8886 2de0 232E0000 		.4byte	0x2e23
 8887 2de4 0E       		.uleb128 0xe
 8888 2de5 CA040000 		.4byte	.LASF633
 8889 2de9 29       		.byte	0x29
 8890 2dea F7       		.byte	0xf7
 8891 2deb 7C180000 		.4byte	0x187c
 8892 2def 00       		.byte	0
 8893 2df0 0E       		.uleb128 0xe
 8894 2df1 16110000 		.4byte	.LASF634
 8895 2df5 29       		.byte	0x29
 8896 2df6 FB       		.byte	0xfb
 8897 2df7 33000000 		.4byte	0x33
 8898 2dfb 04       		.byte	0x4
 8899 2dfc 0E       		.uleb128 0xe
 8900 2dfd CC060000 		.4byte	.LASF635
 8901 2e01 29       		.byte	0x29
 8902 2e02 FF       		.byte	0xff
 8903 2e03 33000000 		.4byte	0x33
 8904 2e07 08       		.byte	0x8
 8905 2e08 19       		.uleb128 0x19
 8906 2e09 E6060000 		.4byte	.LASF452
 8907 2e0d 29       		.byte	0x29
 8908 2e0e 0D01     		.2byte	0x10d
 8909 2e10 BA2D0000 		.4byte	0x2dba
 8910 2e14 0C       		.byte	0xc
 8911 2e15 19       		.uleb128 0x19
 8912 2e16 C60D0000 		.4byte	.LASF630
 8913 2e1a 29       		.byte	0x29
 8914 2e1b 1101     		.2byte	0x111
 8915 2e1d 33000000 		.4byte	0x33
 8916 2e21 10       		.byte	0x10
 8917 2e22 00       		.byte	0
 8918 2e23 08       		.uleb128 0x8
 8919 2e24 81180000 		.4byte	.LASF636
 8920 2e28 29       		.byte	0x29
 8921 2e29 1201     		.2byte	0x112
 8922 2e2b DC2D0000 		.4byte	0x2ddc
 8923 2e2f 1C       		.uleb128 0x1c
 8924 2e30 24       		.byte	0x24
 8925 2e31 29       		.byte	0x29
 8926 2e32 1801     		.2byte	0x118
 8927 2e34 BB2E0000 		.4byte	0x2ebb
 8928 2e38 19       		.uleb128 0x19
 8929 2e39 EC130000 		.4byte	.LASF637
 8930 2e3d 29       		.byte	0x29
 8931 2e3e 1C01     		.2byte	0x11c
 8932 2e40 04090000 		.4byte	0x904
 8933 2e44 00       		.byte	0
 8934 2e45 19       		.uleb128 0x19
 8935 2e46 A0070000 		.4byte	.LASF638
 8936 2e4a 29       		.byte	0x29
 8937 2e4b 2701     		.2byte	0x127
ARM GAS  /tmp/ccqRaZSa.s 			page 158


 8938 2e4d EC260000 		.4byte	0x26ec
 8939 2e51 04       		.byte	0x4
 8940 2e52 19       		.uleb128 0x19
 8941 2e53 BD140000 		.4byte	.LASF639
 8942 2e57 29       		.byte	0x29
 8943 2e58 2D01     		.2byte	0x12d
 8944 2e5a EC260000 		.4byte	0x26ec
 8945 2e5e 08       		.byte	0x8
 8946 2e5f 19       		.uleb128 0x19
 8947 2e60 160B0000 		.4byte	.LASF640
 8948 2e64 29       		.byte	0x29
 8949 2e65 3301     		.2byte	0x133
 8950 2e67 EC260000 		.4byte	0x26ec
 8951 2e6b 0C       		.byte	0xc
 8952 2e6c 19       		.uleb128 0x19
 8953 2e6d 871F0000 		.4byte	.LASF641
 8954 2e71 29       		.byte	0x29
 8955 2e72 3901     		.2byte	0x139
 8956 2e74 E9080000 		.4byte	0x8e9
 8957 2e78 10       		.byte	0x10
 8958 2e79 19       		.uleb128 0x19
 8959 2e7a 360E0000 		.4byte	.LASF642
 8960 2e7e 29       		.byte	0x29
 8961 2e7f 3F01     		.2byte	0x13f
 8962 2e81 E9080000 		.4byte	0x8e9
 8963 2e85 12       		.byte	0x12
 8964 2e86 19       		.uleb128 0x19
 8965 2e87 4F1E0000 		.4byte	.LASF643
 8966 2e8b 29       		.byte	0x29
 8967 2e8c 4401     		.2byte	0x144
 8968 2e8e BB2E0000 		.4byte	0x2ebb
 8969 2e92 14       		.byte	0x14
 8970 2e93 19       		.uleb128 0x19
 8971 2e94 C30C0000 		.4byte	.LASF644
 8972 2e98 29       		.byte	0x29
 8973 2e99 4901     		.2byte	0x149
 8974 2e9b C12E0000 		.4byte	0x2ec1
 8975 2e9f 18       		.byte	0x18
 8976 2ea0 19       		.uleb128 0x19
 8977 2ea1 EE0F0000 		.4byte	.LASF645
 8978 2ea5 29       		.byte	0x29
 8979 2ea6 5001     		.2byte	0x150
 8980 2ea8 E9080000 		.4byte	0x8e9
 8981 2eac 1C       		.byte	0x1c
 8982 2ead 19       		.uleb128 0x19
 8983 2eae E31D0000 		.4byte	.LASF646
 8984 2eb2 29       		.byte	0x29
 8985 2eb3 5601     		.2byte	0x156
 8986 2eb5 E6170000 		.4byte	0x17e6
 8987 2eb9 20       		.byte	0x20
 8988 2eba 00       		.byte	0
 8989 2ebb 06       		.uleb128 0x6
 8990 2ebc 04       		.byte	0x4
 8991 2ebd 7B2D0000 		.4byte	0x2d7b
 8992 2ec1 06       		.uleb128 0x6
 8993 2ec2 04       		.byte	0x4
 8994 2ec3 232E0000 		.4byte	0x2e23
ARM GAS  /tmp/ccqRaZSa.s 			page 159


 8995 2ec7 08       		.uleb128 0x8
 8996 2ec8 FB190000 		.4byte	.LASF647
 8997 2ecc 29       		.byte	0x29
 8998 2ecd 5701     		.2byte	0x157
 8999 2ecf 2F2E0000 		.4byte	0x2e2f
 9000 2ed3 10       		.uleb128 0x10
 9001 2ed4 C72E0000 		.4byte	0x2ec7
 9002 2ed8 1C       		.uleb128 0x1c
 9003 2ed9 10       		.byte	0x10
 9004 2eda 29       		.byte	0x29
 9005 2edb 5C01     		.2byte	0x15c
 9006 2edd 162F0000 		.4byte	0x2f16
 9007 2ee1 19       		.uleb128 0x19
 9008 2ee2 F5030000 		.4byte	.LASF648
 9009 2ee6 29       		.byte	0x29
 9010 2ee7 6101     		.2byte	0x161
 9011 2ee9 0E270000 		.4byte	0x270e
 9012 2eed 00       		.byte	0
 9013 2eee 19       		.uleb128 0x19
 9014 2eef 571D0000 		.4byte	.LASF649
 9015 2ef3 29       		.byte	0x29
 9016 2ef4 6601     		.2byte	0x166
 9017 2ef6 51270000 		.4byte	0x2751
 9018 2efa 04       		.byte	0x4
 9019 2efb 19       		.uleb128 0x19
 9020 2efc 4F100000 		.4byte	.LASF650
 9021 2f00 29       		.byte	0x29
 9022 2f01 6C01     		.2byte	0x16c
 9023 2f03 30270000 		.4byte	0x2730
 9024 2f07 08       		.byte	0x8
 9025 2f08 19       		.uleb128 0x19
 9026 2f09 8D010000 		.4byte	.LASF651
 9027 2f0d 29       		.byte	0x29
 9028 2f0e 7001     		.2byte	0x170
 9029 2f10 C9260000 		.4byte	0x26c9
 9030 2f14 0C       		.byte	0xc
 9031 2f15 00       		.byte	0
 9032 2f16 08       		.uleb128 0x8
 9033 2f17 8E0F0000 		.4byte	.LASF652
 9034 2f1b 29       		.byte	0x29
 9035 2f1c 7201     		.2byte	0x172
 9036 2f1e D82E0000 		.4byte	0x2ed8
 9037 2f22 10       		.uleb128 0x10
 9038 2f23 162F0000 		.4byte	0x2f16
 9039 2f27 06       		.uleb128 0x6
 9040 2f28 04       		.byte	0x4
 9041 2f29 222F0000 		.4byte	0x2f22
 9042 2f2d 0B       		.uleb128 0xb
 9043 2f2e 3D2F0000 		.4byte	0x2f3d
 9044 2f32 3D2F0000 		.4byte	0x2f3d
 9045 2f36 0C       		.uleb128 0xc
 9046 2f37 25000000 		.4byte	0x25
 9047 2f3b 03       		.byte	0x3
 9048 2f3c 00       		.byte	0
 9049 2f3d 06       		.uleb128 0x6
 9050 2f3e 04       		.byte	0x4
 9051 2f3f D32E0000 		.4byte	0x2ed3
ARM GAS  /tmp/ccqRaZSa.s 			page 160


 9052 2f43 0B       		.uleb128 0xb
 9053 2f44 50010000 		.4byte	0x150
 9054 2f48 532F0000 		.4byte	0x2f53
 9055 2f4c 0C       		.uleb128 0xc
 9056 2f4d 25000000 		.4byte	0x25
 9057 2f51 02       		.byte	0x2
 9058 2f52 00       		.byte	0
 9059 2f53 06       		.uleb128 0x6
 9060 2f54 04       		.byte	0x4
 9061 2f55 9F2C0000 		.4byte	0x2c9f
 9062 2f59 06       		.uleb128 0x6
 9063 2f5a 04       		.byte	0x4
 9064 2f5b E22C0000 		.4byte	0x2ce2
 9065 2f5f 0B       		.uleb128 0xb
 9066 2f60 3A130000 		.4byte	0x133a
 9067 2f64 6F2F0000 		.4byte	0x2f6f
 9068 2f68 0C       		.uleb128 0xc
 9069 2f69 25000000 		.4byte	0x25
 9070 2f6d 43       		.byte	0x43
 9071 2f6e 00       		.byte	0
 9072 2f6f 20       		.uleb128 0x20
 9073 2f70 74000000 		.4byte	.LASF653
 9074 2f74 29       		.byte	0x29
 9075 2f75 0602     		.2byte	0x206
 9076 2f77 62240000 		.4byte	0x2462
 9077 2f7b 2D       		.uleb128 0x2d
 9078 2f7c 6F2F0000 		.4byte	0x2f6f
 9079 2f80 01       		.byte	0x1
 9080 2f81 2E       		.byte	0x2e
 9081 2f82 05       		.uleb128 0x5
 9082 2f83 03       		.byte	0x3
 9083 2f84 00000000 		.4byte	USBD1
 9084 2f88 09       		.uleb128 0x9
 9085 2f89 14       		.byte	0x14
 9086 2f8a 01       		.byte	0x1
 9087 2f8b 3F       		.byte	0x3f
 9088 2f8c A62F0000 		.4byte	0x2fa6
 9089 2f90 26       		.uleb128 0x26
 9090 2f91 696E00   		.ascii	"in\000"
 9091 2f94 01       		.byte	0x1
 9092 2f95 43       		.byte	0x43
 9093 2f96 7B2D0000 		.4byte	0x2d7b
 9094 2f9a 26       		.uleb128 0x26
 9095 2f9b 6F757400 		.ascii	"out\000"
 9096 2f9f 01       		.byte	0x1
 9097 2fa0 47       		.byte	0x47
 9098 2fa1 232E0000 		.4byte	0x2e23
 9099 2fa5 00       		.byte	0
 9100 2fa6 2E       		.uleb128 0x2e
 9101 2fa7 E7160000 		.4byte	.LASF654
 9102 2fab 01       		.byte	0x1
 9103 2fac 48       		.byte	0x48
 9104 2fad 882F0000 		.4byte	0x2f88
 9105 2fb1 05       		.uleb128 0x5
 9106 2fb2 03       		.byte	0x3
 9107 2fb3 00000000 		.4byte	ep0_state
 9108 2fb7 2E       		.uleb128 0x2e
ARM GAS  /tmp/ccqRaZSa.s 			page 161


 9109 2fb8 16080000 		.4byte	.LASF655
 9110 2fbc 01       		.byte	0x1
 9111 2fbd 4D       		.byte	0x4d
 9112 2fbe 83180000 		.4byte	0x1883
 9113 2fc2 05       		.uleb128 0x5
 9114 2fc3 03       		.byte	0x3
 9115 2fc4 00000000 		.4byte	ep0setup_buffer
 9116 2fc8 2E       		.uleb128 0x2e
 9117 2fc9 55020000 		.4byte	.LASF656
 9118 2fcd 01       		.byte	0x1
 9119 2fce 52       		.byte	0x52
 9120 2fcf D32E0000 		.4byte	0x2ed3
 9121 2fd3 05       		.uleb128 0x5
 9122 2fd4 03       		.byte	0x3
 9123 2fd5 00000000 		.4byte	ep0config
 9124 2fd9 2E       		.uleb128 0x2e
 9125 2fda 2F050000 		.4byte	.LASF657
 9126 2fde 01       		.byte	0x1
 9127 2fdf 60       		.byte	0x60
 9128 2fe0 E22C0000 		.4byte	0x2ce2
 9129 2fe4 05       		.uleb128 0x5
 9130 2fe5 03       		.byte	0x3
 9131 2fe6 00000000 		.4byte	fsparams
 9132 2fea 2F       		.uleb128 0x2f
 9133 2feb 81160000 		.4byte	.LASF661
 9134 2fef 01       		.byte	0x1
 9135 2ff0 0205     		.2byte	0x502
 9136 2ff2 00000000 		.4byte	.LFB292
 9137 2ff6 52030000 		.4byte	.LFE292-.LFB292
 9138 2ffa 01       		.uleb128 0x1
 9139 2ffb 9C       		.byte	0x9c
 9140 2ffc 1A370000 		.4byte	0x371a
 9141 3000 30       		.uleb128 0x30
 9142 3001 7000     		.ascii	"p\000"
 9143 3003 01       		.byte	0x1
 9144 3004 0205     		.2byte	0x502
 9145 3006 50010000 		.4byte	0x150
 9146 300a 00000000 		.4byte	.LLST0
 9147 300e 31       		.uleb128 0x31
 9148 300f 211C0000 		.4byte	.LASF658
 9149 3013 01       		.byte	0x1
 9150 3014 0305     		.2byte	0x503
 9151 3016 E6260000 		.4byte	0x26e6
 9152 301a 1E000000 		.4byte	.LLST1
 9153 301e 31       		.uleb128 0x31
 9154 301f 42170000 		.4byte	.LASF659
 9155 3023 01       		.byte	0x1
 9156 3024 0405     		.2byte	0x504
 9157 3026 532F0000 		.4byte	0x2f53
 9158 302a 3C000000 		.4byte	.LLST2
 9159 302e 32       		.uleb128 0x32
 9160 302f 1C000000 		.4byte	.LBB441
 9161 3033 36030000 		.4byte	.LBE441-.LBB441
 9162 3037 B8360000 		.4byte	0x36b8
 9163 303b 33       		.uleb128 0x33
 9164 303c 657000   		.ascii	"ep\000"
 9165 303f 01       		.byte	0x1
ARM GAS  /tmp/ccqRaZSa.s 			page 162


 9166 3040 0B05     		.2byte	0x50b
 9167 3042 99250000 		.4byte	0x2599
 9168 3046 4F000000 		.4byte	.LLST4
 9169 304a 31       		.uleb128 0x31
 9170 304b AD150000 		.4byte	.LASF660
 9171 304f 01       		.byte	0x1
 9172 3050 0C05     		.2byte	0x50c
 9173 3052 04090000 		.4byte	0x904
 9174 3056 6E000000 		.4byte	.LLST5
 9175 305a 32       		.uleb128 0x32
 9176 305b A0010000 		.4byte	.LBB497
 9177 305f B2010000 		.4byte	.LBE497-.LBB497
 9178 3063 B1330000 		.4byte	0x33b1
 9179 3067 34       		.uleb128 0x34
 9180 3068 27060000 		.4byte	.LASF683
 9181 306c 01       		.byte	0x1
 9182 306d 2005     		.2byte	0x520
 9183 306f 7C180000 		.4byte	0x187c
 9184 3073 35       		.uleb128 0x35
 9185 3074 A3460000 		.4byte	0x46a3
 9186 3078 A0010000 		.4byte	.LBB498
 9187 307c 02000000 		.4byte	.LBE498-.LBB498
 9188 3080 01       		.byte	0x1
 9189 3081 2205     		.2byte	0x522
 9190 3083 BA300000 		.4byte	0x30ba
 9191 3087 36       		.uleb128 0x36
 9192 3088 2E470000 		.4byte	0x472e
 9193 308c A0010000 		.4byte	.LBB499
 9194 3090 02000000 		.4byte	.LBE499-.LBB499
 9195 3094 04       		.byte	0x4
 9196 3095 ED01     		.2byte	0x1ed
 9197 3097 36       		.uleb128 0x36
 9198 3098 52470000 		.4byte	0x4752
 9199 309c A0010000 		.4byte	.LBB500
 9200 30a0 02000000 		.4byte	.LBE500-.LBB500
 9201 30a4 2B       		.byte	0x2b
 9202 30a5 5C01     		.2byte	0x15c
 9203 30a7 37       		.uleb128 0x37
 9204 30a8 5B470000 		.4byte	0x475b
 9205 30ac A0010000 		.4byte	.LBB501
 9206 30b0 02000000 		.4byte	.LBE501-.LBB501
 9207 30b4 13       		.byte	0x13
 9208 30b5 C101     		.2byte	0x1c1
 9209 30b7 00       		.byte	0
 9210 30b8 00       		.byte	0
 9211 30b9 00       		.byte	0
 9212 30ba 35       		.uleb128 0x35
 9213 30bb 9A460000 		.4byte	0x469a
 9214 30bf B6010000 		.4byte	.LBB503
 9215 30c3 08000000 		.4byte	.LBE503-.LBB503
 9216 30c7 01       		.byte	0x1
 9217 30c8 2C05     		.2byte	0x52c
 9218 30ca 0B310000 		.4byte	0x310b
 9219 30ce 36       		.uleb128 0x36
 9220 30cf 13470000 		.4byte	0x4713
 9221 30d3 B6010000 		.4byte	.LBB504
 9222 30d7 08000000 		.4byte	.LBE504-.LBB504
ARM GAS  /tmp/ccqRaZSa.s 			page 163


 9223 30db 04       		.byte	0x4
 9224 30dc F801     		.2byte	0x1f8
 9225 30de 38       		.uleb128 0x38
 9226 30df B6010000 		.4byte	.LBB505
 9227 30e3 08000000 		.4byte	.LBE505-.LBB505
 9228 30e7 36       		.uleb128 0x36
 9229 30e8 49470000 		.4byte	0x4749
 9230 30ec B6010000 		.4byte	.LBB506
 9231 30f0 08000000 		.4byte	.LBE506-.LBB506
 9232 30f4 2B       		.byte	0x2b
 9233 30f5 7301     		.2byte	0x173
 9234 30f7 37       		.uleb128 0x37
 9235 30f8 64470000 		.4byte	0x4764
 9236 30fc B6010000 		.4byte	.LBB507
 9237 3100 08000000 		.4byte	.LBE507-.LBB507
 9238 3104 13       		.byte	0x13
 9239 3105 CF01     		.2byte	0x1cf
 9240 3107 00       		.byte	0
 9241 3108 00       		.byte	0
 9242 3109 00       		.byte	0
 9243 310a 00       		.byte	0
 9244 310b 39       		.uleb128 0x39
 9245 310c AD420000 		.4byte	0x42ad
 9246 3110 BE010000 		.4byte	.LBB509
 9247 3114 C0000000 		.4byte	.Ldebug_ranges0+0xc0
 9248 3118 01       		.byte	0x1
 9249 3119 2E05     		.2byte	0x52e
 9250 311b 1C330000 		.4byte	0x331c
 9251 311f 3A       		.uleb128 0x3a
 9252 3120 CA420000 		.4byte	0x42ca
 9253 3124 3B       		.uleb128 0x3b
 9254 3125 BE420000 		.4byte	0x42be
 9255 3129 AF000000 		.4byte	.LLST30
 9256 312d 3C       		.uleb128 0x3c
 9257 312e D5420000 		.4byte	0x42d5
 9258 3132 C0000000 		.4byte	.Ldebug_ranges0+0xc0
 9259 3136 3D       		.uleb128 0x3d
 9260 3137 D6420000 		.4byte	0x42d6
 9261 313b CD000000 		.4byte	.LLST31
 9262 313f 39       		.uleb128 0x39
 9263 3140 1E440000 		.4byte	0x441e
 9264 3144 0C020000 		.4byte	.LBB511
 9265 3148 D8000000 		.4byte	.Ldebug_ranges0+0xd8
 9266 314c 01       		.byte	0x1
 9267 314d E601     		.2byte	0x1e6
 9268 314f CB320000 		.4byte	0x32cb
 9269 3153 3B       		.uleb128 0x3b
 9270 3154 40440000 		.4byte	0x4440
 9271 3158 01010000 		.4byte	.LLST32
 9272 315c 3B       		.uleb128 0x3b
 9273 315d 35440000 		.4byte	0x4435
 9274 3161 2A010000 		.4byte	.LLST33
 9275 3165 3A       		.uleb128 0x3a
 9276 3166 2A440000 		.4byte	0x442a
 9277 316a 3E       		.uleb128 0x3e
 9278 316b D8000000 		.4byte	.Ldebug_ranges0+0xd8
 9279 316f 3D       		.uleb128 0x3d
ARM GAS  /tmp/ccqRaZSa.s 			page 164


 9280 3170 49440000 		.4byte	0x4449
 9281 3174 3E010000 		.4byte	.LLST34
 9282 3178 3F       		.uleb128 0x3f
 9283 3179 54440000 		.4byte	0x4454
 9284 317d F8000000 		.4byte	.Ldebug_ranges0+0xf8
 9285 3181 E1310000 		.4byte	0x31e1
 9286 3185 3D       		.uleb128 0x3d
 9287 3186 55440000 		.4byte	0x4455
 9288 318a 8A010000 		.4byte	.LLST35
 9289 318e 40       		.uleb128 0x40
 9290 318f 5E440000 		.4byte	0x445e
 9291 3193 3D       		.uleb128 0x3d
 9292 3194 67440000 		.4byte	0x4467
 9293 3198 9D010000 		.4byte	.LLST36
 9294 319c 3C       		.uleb128 0x3c
 9295 319d 71440000 		.4byte	0x4471
 9296 31a1 18010000 		.4byte	.Ldebug_ranges0+0x118
 9297 31a5 3D       		.uleb128 0x3d
 9298 31a6 72440000 		.4byte	0x4472
 9299 31aa D5010000 		.4byte	.LLST37
 9300 31ae 3D       		.uleb128 0x3d
 9301 31af 7E440000 		.4byte	0x447e
 9302 31b3 4A020000 		.4byte	.LLST38
 9303 31b7 41       		.uleb128 0x41
 9304 31b8 B9440000 		.4byte	0x44b9
 9305 31bc 2E020000 		.4byte	.LBB515
 9306 31c0 38010000 		.4byte	.Ldebug_ranges0+0x138
 9307 31c4 01       		.byte	0x1
 9308 31c5 0601     		.2byte	0x106
 9309 31c7 3B       		.uleb128 0x3b
 9310 31c8 DF440000 		.4byte	0x44df
 9311 31cc 89020000 		.4byte	.LLST39
 9312 31d0 3B       		.uleb128 0x3b
 9313 31d1 D4440000 		.4byte	0x44d4
 9314 31d5 A7020000 		.4byte	.LLST40
 9315 31d9 3A       		.uleb128 0x3a
 9316 31da C9440000 		.4byte	0x44c9
 9317 31de 00       		.byte	0
 9318 31df 00       		.byte	0
 9319 31e0 00       		.byte	0
 9320 31e1 35       		.uleb128 0x35
 9321 31e2 A3460000 		.4byte	0x46a3
 9322 31e6 4E020000 		.4byte	.LBB521
 9323 31ea 02000000 		.4byte	.LBE521-.LBB521
 9324 31ee 01       		.byte	0x1
 9325 31ef 2001     		.2byte	0x120
 9326 31f1 28320000 		.4byte	0x3228
 9327 31f5 36       		.uleb128 0x36
 9328 31f6 2E470000 		.4byte	0x472e
 9329 31fa 4E020000 		.4byte	.LBB522
 9330 31fe 02000000 		.4byte	.LBE522-.LBB522
 9331 3202 04       		.byte	0x4
 9332 3203 ED01     		.2byte	0x1ed
 9333 3205 36       		.uleb128 0x36
 9334 3206 52470000 		.4byte	0x4752
 9335 320a 4E020000 		.4byte	.LBB523
 9336 320e 02000000 		.4byte	.LBE523-.LBB523
ARM GAS  /tmp/ccqRaZSa.s 			page 165


 9337 3212 2B       		.byte	0x2b
 9338 3213 5C01     		.2byte	0x15c
 9339 3215 37       		.uleb128 0x37
 9340 3216 5B470000 		.4byte	0x475b
 9341 321a 4E020000 		.4byte	.LBB524
 9342 321e 02000000 		.4byte	.LBE524-.LBB524
 9343 3222 13       		.byte	0x13
 9344 3223 C101     		.2byte	0x1c1
 9345 3225 00       		.byte	0
 9346 3226 00       		.byte	0
 9347 3227 00       		.byte	0
 9348 3228 35       		.uleb128 0x35
 9349 3229 F5450000 		.4byte	0x45f5
 9350 322d 56020000 		.4byte	.LBB526
 9351 3231 06000000 		.4byte	.LBE526-.LBB526
 9352 3235 01       		.byte	0x1
 9353 3236 2201     		.2byte	0x122
 9354 3238 5E320000 		.4byte	0x325e
 9355 323c 3B       		.uleb128 0x3b
 9356 323d 0E460000 		.4byte	0x460e
 9357 3241 D2020000 		.4byte	.LLST41
 9358 3245 3B       		.uleb128 0x3b
 9359 3246 02460000 		.4byte	0x4602
 9360 324a E6020000 		.4byte	.LLST42
 9361 324e 42       		.uleb128 0x42
 9362 324f 5C020000 		.4byte	.LVL76
 9363 3253 5A4B0000 		.4byte	0x4b5a
 9364 3257 43       		.uleb128 0x43
 9365 3258 01       		.uleb128 0x1
 9366 3259 51       		.byte	0x51
 9367 325a 01       		.uleb128 0x1
 9368 325b 30       		.byte	0x30
 9369 325c 00       		.byte	0
 9370 325d 00       		.byte	0
 9371 325e 35       		.uleb128 0x35
 9372 325f 65460000 		.4byte	0x4665
 9373 3263 5C020000 		.4byte	.LBB528
 9374 3267 04000000 		.4byte	.LBE528-.LBB528
 9375 326b 01       		.byte	0x1
 9376 326c 2301     		.2byte	0x123
 9377 326e 7C320000 		.4byte	0x327c
 9378 3272 44       		.uleb128 0x44
 9379 3273 60020000 		.4byte	.LVL77
 9380 3277 654B0000 		.4byte	0x4b65
 9381 327b 00       		.byte	0
 9382 327c 36       		.uleb128 0x36
 9383 327d 9A460000 		.4byte	0x469a
 9384 3281 60020000 		.4byte	.LBB530
 9385 3285 06000000 		.4byte	.LBE530-.LBB530
 9386 3289 01       		.byte	0x1
 9387 328a 2401     		.2byte	0x124
 9388 328c 36       		.uleb128 0x36
 9389 328d 13470000 		.4byte	0x4713
 9390 3291 60020000 		.4byte	.LBB531
 9391 3295 06000000 		.4byte	.LBE531-.LBB531
 9392 3299 04       		.byte	0x4
 9393 329a F801     		.2byte	0x1f8
ARM GAS  /tmp/ccqRaZSa.s 			page 166


 9394 329c 38       		.uleb128 0x38
 9395 329d 60020000 		.4byte	.LBB532
 9396 32a1 06000000 		.4byte	.LBE532-.LBB532
 9397 32a5 36       		.uleb128 0x36
 9398 32a6 49470000 		.4byte	0x4749
 9399 32aa 60020000 		.4byte	.LBB533
 9400 32ae 06000000 		.4byte	.LBE533-.LBB533
 9401 32b2 2B       		.byte	0x2b
 9402 32b3 7301     		.2byte	0x173
 9403 32b5 37       		.uleb128 0x37
 9404 32b6 64470000 		.4byte	0x4764
 9405 32ba 60020000 		.4byte	.LBB534
 9406 32be 06000000 		.4byte	.LBE534-.LBB534
 9407 32c2 13       		.byte	0x13
 9408 32c3 CF01     		.2byte	0x1cf
 9409 32c5 00       		.byte	0
 9410 32c6 00       		.byte	0
 9411 32c7 00       		.byte	0
 9412 32c8 00       		.byte	0
 9413 32c9 00       		.byte	0
 9414 32ca 00       		.byte	0
 9415 32cb 36       		.uleb128 0x36
 9416 32cc 8D440000 		.4byte	0x448d
 9417 32d0 F8020000 		.4byte	.LBB541
 9418 32d4 1C000000 		.4byte	.LBE541-.LBB541
 9419 32d8 01       		.byte	0x1
 9420 32d9 EC01     		.2byte	0x1ec
 9421 32db 3B       		.uleb128 0x3b
 9422 32dc AF440000 		.4byte	0x44af
 9423 32e0 F9020000 		.4byte	.LLST43
 9424 32e4 3B       		.uleb128 0x3b
 9425 32e5 A4440000 		.4byte	0x44a4
 9426 32e9 0C030000 		.4byte	.LLST44
 9427 32ed 3A       		.uleb128 0x3a
 9428 32ee 99440000 		.4byte	0x4499
 9429 32f2 45       		.uleb128 0x45
 9430 32f3 B9440000 		.4byte	0x44b9
 9431 32f7 FA020000 		.4byte	.LBB543
 9432 32fb 1A000000 		.4byte	.LBE543-.LBB543
 9433 32ff 01       		.byte	0x1
 9434 3300 EB       		.byte	0xeb
 9435 3301 3B       		.uleb128 0x3b
 9436 3302 DF440000 		.4byte	0x44df
 9437 3306 20030000 		.4byte	.LLST45
 9438 330a 3B       		.uleb128 0x3b
 9439 330b D4440000 		.4byte	0x44d4
 9440 330f 42030000 		.4byte	.LLST46
 9441 3313 3A       		.uleb128 0x3a
 9442 3314 C9440000 		.4byte	0x44c9
 9443 3318 00       		.byte	0
 9444 3319 00       		.byte	0
 9445 331a 00       		.byte	0
 9446 331b 00       		.byte	0
 9447 331c 39       		.uleb128 0x39
 9448 331d A3460000 		.4byte	0x46a3
 9449 3321 9A020000 		.4byte	.LBB547
 9450 3325 50010000 		.4byte	.Ldebug_ranges0+0x150
ARM GAS  /tmp/ccqRaZSa.s 			page 167


 9451 3329 01       		.byte	0x1
 9452 332a 3005     		.2byte	0x530
 9453 332c 63330000 		.4byte	0x3363
 9454 3330 41       		.uleb128 0x41
 9455 3331 2E470000 		.4byte	0x472e
 9456 3335 9A020000 		.4byte	.LBB548
 9457 3339 50010000 		.4byte	.Ldebug_ranges0+0x150
 9458 333d 04       		.byte	0x4
 9459 333e ED01     		.2byte	0x1ed
 9460 3340 41       		.uleb128 0x41
 9461 3341 52470000 		.4byte	0x4752
 9462 3345 9A020000 		.4byte	.LBB549
 9463 3349 50010000 		.4byte	.Ldebug_ranges0+0x150
 9464 334d 2B       		.byte	0x2b
 9465 334e 5C01     		.2byte	0x15c
 9466 3350 46       		.uleb128 0x46
 9467 3351 5B470000 		.4byte	0x475b
 9468 3355 9A020000 		.4byte	.LBB550
 9469 3359 50010000 		.4byte	.Ldebug_ranges0+0x150
 9470 335d 13       		.byte	0x13
 9471 335e C101     		.2byte	0x1c1
 9472 3360 00       		.byte	0
 9473 3361 00       		.byte	0
 9474 3362 00       		.byte	0
 9475 3363 36       		.uleb128 0x36
 9476 3364 9A460000 		.4byte	0x469a
 9477 3368 B4020000 		.4byte	.LBB560
 9478 336c 0C000000 		.4byte	.LBE560-.LBB560
 9479 3370 01       		.byte	0x1
 9480 3371 3405     		.2byte	0x534
 9481 3373 36       		.uleb128 0x36
 9482 3374 13470000 		.4byte	0x4713
 9483 3378 B4020000 		.4byte	.LBB561
 9484 337c 0C000000 		.4byte	.LBE561-.LBB561
 9485 3380 04       		.byte	0x4
 9486 3381 F801     		.2byte	0x1f8
 9487 3383 38       		.uleb128 0x38
 9488 3384 B4020000 		.4byte	.LBB562
 9489 3388 0C000000 		.4byte	.LBE562-.LBB562
 9490 338c 36       		.uleb128 0x36
 9491 338d 49470000 		.4byte	0x4749
 9492 3391 B4020000 		.4byte	.LBB563
 9493 3395 0C000000 		.4byte	.LBE563-.LBB563
 9494 3399 2B       		.byte	0x2b
 9495 339a 7301     		.2byte	0x173
 9496 339c 37       		.uleb128 0x37
 9497 339d 64470000 		.4byte	0x4764
 9498 33a1 B4020000 		.4byte	.LBB564
 9499 33a5 0C000000 		.4byte	.LBE564-.LBB564
 9500 33a9 13       		.byte	0x13
 9501 33aa CF01     		.2byte	0x1cf
 9502 33ac 00       		.byte	0
 9503 33ad 00       		.byte	0
 9504 33ae 00       		.byte	0
 9505 33af 00       		.byte	0
 9506 33b0 00       		.byte	0
 9507 33b1 39       		.uleb128 0x39
ARM GAS  /tmp/ccqRaZSa.s 			page 168


 9508 33b2 47460000 		.4byte	0x4647
 9509 33b6 32000000 		.4byte	.LBB442
 9510 33ba 18000000 		.4byte	.Ldebug_ranges0+0x18
 9511 33be 01       		.byte	0x1
 9512 33bf 1205     		.2byte	0x512
 9513 33c1 DC330000 		.4byte	0x33dc
 9514 33c5 3A       		.uleb128 0x3a
 9515 33c6 58460000 		.4byte	0x4658
 9516 33ca 42       		.uleb128 0x42
 9517 33cb 40000000 		.4byte	.LVL5
 9518 33cf 714B0000 		.4byte	0x4b71
 9519 33d3 43       		.uleb128 0x43
 9520 33d4 01       		.uleb128 0x1
 9521 33d5 50       		.byte	0x50
 9522 33d6 03       		.uleb128 0x3
 9523 33d7 91       		.byte	0x91
 9524 33d8 54       		.sleb128 -44
 9525 33d9 06       		.byte	0x6
 9526 33da 00       		.byte	0
 9527 33db 00       		.byte	0
 9528 33dc 35       		.uleb128 0x35
 9529 33dd 9A460000 		.4byte	0x469a
 9530 33e1 40000000 		.4byte	.LBB446
 9531 33e5 02000000 		.4byte	.LBE446-.LBB446
 9532 33e9 01       		.byte	0x1
 9533 33ea 1405     		.2byte	0x514
 9534 33ec 2D340000 		.4byte	0x342d
 9535 33f0 36       		.uleb128 0x36
 9536 33f1 13470000 		.4byte	0x4713
 9537 33f5 40000000 		.4byte	.LBB447
 9538 33f9 02000000 		.4byte	.LBE447-.LBB447
 9539 33fd 04       		.byte	0x4
 9540 33fe F801     		.2byte	0x1f8
 9541 3400 38       		.uleb128 0x38
 9542 3401 40000000 		.4byte	.LBB448
 9543 3405 02000000 		.4byte	.LBE448-.LBB448
 9544 3409 36       		.uleb128 0x36
 9545 340a 49470000 		.4byte	0x4749
 9546 340e 40000000 		.4byte	.LBB449
 9547 3412 02000000 		.4byte	.LBE449-.LBB449
 9548 3416 2B       		.byte	0x2b
 9549 3417 7301     		.2byte	0x173
 9550 3419 37       		.uleb128 0x37
 9551 341a 64470000 		.4byte	0x4764
 9552 341e 40000000 		.4byte	.LBB450
 9553 3422 02000000 		.4byte	.LBE450-.LBB450
 9554 3426 13       		.byte	0x13
 9555 3427 CF01     		.2byte	0x1cf
 9556 3429 00       		.byte	0
 9557 342a 00       		.byte	0
 9558 342b 00       		.byte	0
 9559 342c 00       		.byte	0
 9560 342d 39       		.uleb128 0x39
 9561 342e E2420000 		.4byte	0x42e2
 9562 3432 4E000000 		.4byte	.LBB452
 9563 3436 30000000 		.4byte	.Ldebug_ranges0+0x30
 9564 343a 01       		.byte	0x1
ARM GAS  /tmp/ccqRaZSa.s 			page 169


 9565 343b 1B05     		.2byte	0x51b
 9566 343d 74360000 		.4byte	0x3674
 9567 3441 3B       		.uleb128 0x3b
 9568 3442 EF420000 		.4byte	0x42ef
 9569 3446 79030000 		.4byte	.LLST6
 9570 344a 3E       		.uleb128 0x3e
 9571 344b 30000000 		.4byte	.Ldebug_ranges0+0x30
 9572 344f 3D       		.uleb128 0x3d
 9573 3450 FB420000 		.4byte	0x42fb
 9574 3454 97030000 		.4byte	.LLST7
 9575 3458 3D       		.uleb128 0x3d
 9576 3459 07430000 		.4byte	0x4307
 9577 345d B5030000 		.4byte	.LLST8
 9578 3461 3D       		.uleb128 0x3d
 9579 3462 13430000 		.4byte	0x4313
 9580 3466 E6030000 		.4byte	.LLST9
 9581 346a 39       		.uleb128 0x39
 9582 346b 96430000 		.4byte	0x4396
 9583 346f 70000000 		.4byte	.LBB454
 9584 3473 58000000 		.4byte	.Ldebug_ranges0+0x58
 9585 3477 01       		.byte	0x1
 9586 3478 A701     		.2byte	0x1a7
 9587 347a B2340000 		.4byte	0x34b2
 9588 347e 3B       		.uleb128 0x3b
 9589 347f C5430000 		.4byte	0x43c5
 9590 3483 26040000 		.4byte	.LLST10
 9591 3487 3A       		.uleb128 0x3a
 9592 3488 BB430000 		.4byte	0x43bb
 9593 348c 3B       		.uleb128 0x3b
 9594 348d AF430000 		.4byte	0x43af
 9595 3491 5C040000 		.4byte	.LLST11
 9596 3495 3B       		.uleb128 0x3b
 9597 3496 A3430000 		.4byte	0x43a3
 9598 349a 6F040000 		.4byte	.LLST12
 9599 349e 3C       		.uleb128 0x3c
 9600 349f D1430000 		.4byte	0x43d1
 9601 34a3 70000000 		.4byte	.Ldebug_ranges0+0x70
 9602 34a7 3D       		.uleb128 0x3d
 9603 34a8 D2430000 		.4byte	0x43d2
 9604 34ac 90040000 		.4byte	.LLST13
 9605 34b0 00       		.byte	0
 9606 34b1 00       		.byte	0
 9607 34b2 39       		.uleb128 0x39
 9608 34b3 96430000 		.4byte	0x4396
 9609 34b7 C2000000 		.4byte	.LBB461
 9610 34bb 90000000 		.4byte	.Ldebug_ranges0+0x90
 9611 34bf 01       		.byte	0x1
 9612 34c0 B401     		.2byte	0x1b4
 9613 34c2 FE340000 		.4byte	0x34fe
 9614 34c6 3B       		.uleb128 0x3b
 9615 34c7 C5430000 		.4byte	0x43c5
 9616 34cb AE040000 		.4byte	.LLST14
 9617 34cf 3B       		.uleb128 0x3b
 9618 34d0 BB430000 		.4byte	0x43bb
 9619 34d4 E9040000 		.4byte	.LLST15
 9620 34d8 3B       		.uleb128 0x3b
 9621 34d9 AF430000 		.4byte	0x43af
ARM GAS  /tmp/ccqRaZSa.s 			page 170


 9622 34dd 2C050000 		.4byte	.LLST16
 9623 34e1 3B       		.uleb128 0x3b
 9624 34e2 A3430000 		.4byte	0x43a3
 9625 34e6 56050000 		.4byte	.LLST17
 9626 34ea 3C       		.uleb128 0x3c
 9627 34eb D1430000 		.4byte	0x43d1
 9628 34ef A8000000 		.4byte	.Ldebug_ranges0+0xa8
 9629 34f3 3D       		.uleb128 0x3d
 9630 34f4 D2430000 		.4byte	0x43d2
 9631 34f8 8D050000 		.4byte	.LLST18
 9632 34fc 00       		.byte	0
 9633 34fd 00       		.byte	0
 9634 34fe 36       		.uleb128 0x36
 9635 34ff 1F430000 		.4byte	0x431f
 9636 3503 30010000 		.4byte	.LBB467
 9637 3507 70000000 		.4byte	.LBE467-.LBB467
 9638 350b 01       		.byte	0x1
 9639 350c AF01     		.2byte	0x1af
 9640 350e 3B       		.uleb128 0x3b
 9641 350f 44430000 		.4byte	0x4344
 9642 3513 AB050000 		.4byte	.LLST19
 9643 3517 3B       		.uleb128 0x3b
 9644 3518 38430000 		.4byte	0x4338
 9645 351c BE050000 		.4byte	.LLST20
 9646 3520 3B       		.uleb128 0x3b
 9647 3521 2C430000 		.4byte	0x432c
 9648 3525 D2050000 		.4byte	.LLST21
 9649 3529 38       		.uleb128 0x38
 9650 352a 30010000 		.4byte	.LBB468
 9651 352e 70000000 		.4byte	.LBE468-.LBB468
 9652 3532 3D       		.uleb128 0x3d
 9653 3533 4E430000 		.4byte	0x434e
 9654 3537 F3050000 		.4byte	.LLST22
 9655 353b 47       		.uleb128 0x47
 9656 353c 5A430000 		.4byte	0x435a
 9657 3540 3A010000 		.4byte	.LBB469
 9658 3544 48000000 		.4byte	.LBE469-.LBB469
 9659 3548 88350000 		.4byte	0x3588
 9660 354c 3D       		.uleb128 0x3d
 9661 354d 5B430000 		.4byte	0x435b
 9662 3551 29060000 		.4byte	.LLST23
 9663 3555 3D       		.uleb128 0x3d
 9664 3556 65430000 		.4byte	0x4365
 9665 355a 3C060000 		.4byte	.LLST24
 9666 355e 3D       		.uleb128 0x3d
 9667 355f 6F430000 		.4byte	0x436f
 9668 3563 50060000 		.4byte	.LLST25
 9669 3567 48       		.uleb128 0x48
 9670 3568 7A430000 		.4byte	0x437a
 9671 356c 40010000 		.4byte	.LBB470
 9672 3570 0A000000 		.4byte	.LBE470-.LBB470
 9673 3574 3D       		.uleb128 0x3d
 9674 3575 7B430000 		.4byte	0x437b
 9675 3579 76060000 		.4byte	.LLST26
 9676 357d 3D       		.uleb128 0x3d
 9677 357e 87430000 		.4byte	0x4387
 9678 3582 76060000 		.4byte	.LLST26
ARM GAS  /tmp/ccqRaZSa.s 			page 171


 9679 3586 00       		.byte	0
 9680 3587 00       		.byte	0
 9681 3588 35       		.uleb128 0x35
 9682 3589 A3460000 		.4byte	0x46a3
 9683 358d 82010000 		.4byte	.LBB471
 9684 3591 02000000 		.4byte	.LBE471-.LBB471
 9685 3595 01       		.byte	0x1
 9686 3596 8F01     		.2byte	0x18f
 9687 3598 CF350000 		.4byte	0x35cf
 9688 359c 36       		.uleb128 0x36
 9689 359d 2E470000 		.4byte	0x472e
 9690 35a1 82010000 		.4byte	.LBB472
 9691 35a5 02000000 		.4byte	.LBE472-.LBB472
 9692 35a9 04       		.byte	0x4
 9693 35aa ED01     		.2byte	0x1ed
 9694 35ac 36       		.uleb128 0x36
 9695 35ad 52470000 		.4byte	0x4752
 9696 35b1 82010000 		.4byte	.LBB473
 9697 35b5 02000000 		.4byte	.LBE473-.LBB473
 9698 35b9 2B       		.byte	0x2b
 9699 35ba 5C01     		.2byte	0x15c
 9700 35bc 37       		.uleb128 0x37
 9701 35bd 5B470000 		.4byte	0x475b
 9702 35c1 82010000 		.4byte	.LBB474
 9703 35c5 02000000 		.4byte	.LBE474-.LBB474
 9704 35c9 13       		.byte	0x13
 9705 35ca C101     		.2byte	0x1c1
 9706 35cc 00       		.byte	0
 9707 35cd 00       		.byte	0
 9708 35ce 00       		.byte	0
 9709 35cf 35       		.uleb128 0x35
 9710 35d0 F5450000 		.4byte	0x45f5
 9711 35d4 8A010000 		.4byte	.LBB476
 9712 35d8 06000000 		.4byte	.LBE476-.LBB476
 9713 35dc 01       		.byte	0x1
 9714 35dd 9101     		.2byte	0x191
 9715 35df 05360000 		.4byte	0x3605
 9716 35e3 3B       		.uleb128 0x3b
 9717 35e4 0E460000 		.4byte	0x460e
 9718 35e8 8A060000 		.4byte	.LLST28
 9719 35ec 3B       		.uleb128 0x3b
 9720 35ed 02460000 		.4byte	0x4602
 9721 35f1 9E060000 		.4byte	.LLST29
 9722 35f5 42       		.uleb128 0x42
 9723 35f6 90010000 		.4byte	.LVL56
 9724 35fa 5A4B0000 		.4byte	0x4b5a
 9725 35fe 43       		.uleb128 0x43
 9726 35ff 01       		.uleb128 0x1
 9727 3600 51       		.byte	0x51
 9728 3601 01       		.uleb128 0x1
 9729 3602 30       		.byte	0x30
 9730 3603 00       		.byte	0
 9731 3604 00       		.byte	0
 9732 3605 35       		.uleb128 0x35
 9733 3606 65460000 		.4byte	0x4665
 9734 360a 90010000 		.4byte	.LBB478
 9735 360e 04000000 		.4byte	.LBE478-.LBB478
ARM GAS  /tmp/ccqRaZSa.s 			page 172


 9736 3612 01       		.byte	0x1
 9737 3613 9201     		.2byte	0x192
 9738 3615 23360000 		.4byte	0x3623
 9739 3619 44       		.uleb128 0x44
 9740 361a 94010000 		.4byte	.LVL57
 9741 361e 654B0000 		.4byte	0x4b65
 9742 3622 00       		.byte	0
 9743 3623 36       		.uleb128 0x36
 9744 3624 9A460000 		.4byte	0x469a
 9745 3628 94010000 		.4byte	.LBB480
 9746 362c 0C000000 		.4byte	.LBE480-.LBB480
 9747 3630 01       		.byte	0x1
 9748 3631 9301     		.2byte	0x193
 9749 3633 36       		.uleb128 0x36
 9750 3634 13470000 		.4byte	0x4713
 9751 3638 94010000 		.4byte	.LBB481
 9752 363c 0C000000 		.4byte	.LBE481-.LBB481
 9753 3640 04       		.byte	0x4
 9754 3641 F801     		.2byte	0x1f8
 9755 3643 38       		.uleb128 0x38
 9756 3644 94010000 		.4byte	.LBB482
 9757 3648 0C000000 		.4byte	.LBE482-.LBB482
 9758 364c 36       		.uleb128 0x36
 9759 364d 49470000 		.4byte	0x4749
 9760 3651 94010000 		.4byte	.LBB483
 9761 3655 0C000000 		.4byte	.LBE483-.LBB483
 9762 3659 2B       		.byte	0x2b
 9763 365a 7301     		.2byte	0x173
 9764 365c 37       		.uleb128 0x37
 9765 365d 64470000 		.4byte	0x4764
 9766 3661 94010000 		.4byte	.LBB484
 9767 3665 0C000000 		.4byte	.LBE484-.LBB484
 9768 3669 13       		.byte	0x13
 9769 366a CF01     		.2byte	0x1cf
 9770 366c 00       		.byte	0
 9771 366d 00       		.byte	0
 9772 366e 00       		.byte	0
 9773 366f 00       		.byte	0
 9774 3670 00       		.byte	0
 9775 3671 00       		.byte	0
 9776 3672 00       		.byte	0
 9777 3673 00       		.byte	0
 9778 3674 36       		.uleb128 0x36
 9779 3675 A3460000 		.4byte	0x46a3
 9780 3679 1C010000 		.4byte	.LBB491
 9781 367d 04000000 		.4byte	.LBE491-.LBB491
 9782 3681 01       		.byte	0x1
 9783 3682 3705     		.2byte	0x537
 9784 3684 36       		.uleb128 0x36
 9785 3685 2E470000 		.4byte	0x472e
 9786 3689 1C010000 		.4byte	.LBB492
 9787 368d 04000000 		.4byte	.LBE492-.LBB492
 9788 3691 04       		.byte	0x4
 9789 3692 ED01     		.2byte	0x1ed
 9790 3694 36       		.uleb128 0x36
 9791 3695 52470000 		.4byte	0x4752
 9792 3699 1C010000 		.4byte	.LBB493
ARM GAS  /tmp/ccqRaZSa.s 			page 173


 9793 369d 04000000 		.4byte	.LBE493-.LBB493
 9794 36a1 2B       		.byte	0x2b
 9795 36a2 5C01     		.2byte	0x15c
 9796 36a4 37       		.uleb128 0x37
 9797 36a5 5B470000 		.4byte	0x475b
 9798 36a9 1C010000 		.4byte	.LBB494
 9799 36ad 04000000 		.4byte	.LBE494-.LBB494
 9800 36b1 13       		.byte	0x13
 9801 36b2 C101     		.2byte	0x1c1
 9802 36b4 00       		.byte	0
 9803 36b5 00       		.byte	0
 9804 36b6 00       		.byte	0
 9805 36b7 00       		.byte	0
 9806 36b8 39       		.uleb128 0x39
 9807 36b9 AC460000 		.4byte	0x46ac
 9808 36bd 04000000 		.4byte	.LBB432
 9809 36c1 00000000 		.4byte	.Ldebug_ranges0+0
 9810 36c5 01       		.byte	0x1
 9811 36c6 0705     		.2byte	0x507
 9812 36c8 D6360000 		.4byte	0x36d6
 9813 36cc 3B       		.uleb128 0x3b
 9814 36cd B8460000 		.4byte	0x46b8
 9815 36d1 B1060000 		.4byte	.LLST3
 9816 36d5 00       		.byte	0
 9817 36d6 36       		.uleb128 0x36
 9818 36d7 A3460000 		.4byte	0x46a3
 9819 36db 10000000 		.4byte	.LBB436
 9820 36df 0C000000 		.4byte	.LBE436-.LBB436
 9821 36e3 01       		.byte	0x1
 9822 36e4 0905     		.2byte	0x509
 9823 36e6 36       		.uleb128 0x36
 9824 36e7 2E470000 		.4byte	0x472e
 9825 36eb 10000000 		.4byte	.LBB437
 9826 36ef 0C000000 		.4byte	.LBE437-.LBB437
 9827 36f3 04       		.byte	0x4
 9828 36f4 ED01     		.2byte	0x1ed
 9829 36f6 36       		.uleb128 0x36
 9830 36f7 52470000 		.4byte	0x4752
 9831 36fb 10000000 		.4byte	.LBB438
 9832 36ff 0C000000 		.4byte	.LBE438-.LBB438
 9833 3703 2B       		.byte	0x2b
 9834 3704 5C01     		.2byte	0x15c
 9835 3706 37       		.uleb128 0x37
 9836 3707 5B470000 		.4byte	0x475b
 9837 370b 10000000 		.4byte	.LBB439
 9838 370f 0C000000 		.4byte	.LBE439-.LBB439
 9839 3713 13       		.byte	0x13
 9840 3714 C101     		.2byte	0x1c1
 9841 3716 00       		.byte	0
 9842 3717 00       		.byte	0
 9843 3718 00       		.byte	0
 9844 3719 00       		.byte	0
 9845 371a 2F       		.uleb128 0x2f
 9846 371b 310B0000 		.4byte	.LASF662
 9847 371f 01       		.byte	0x1
 9848 3720 F204     		.2byte	0x4f2
 9849 3722 00000000 		.4byte	.LFB291
ARM GAS  /tmp/ccqRaZSa.s 			page 174


 9850 3726 14000000 		.4byte	.LFE291-.LFB291
 9851 372a 01       		.uleb128 0x1
 9852 372b 9C       		.byte	0x9c
 9853 372c 4E370000 		.4byte	0x374e
 9854 3730 49       		.uleb128 0x49
 9855 3731 211C0000 		.4byte	.LASF658
 9856 3735 01       		.byte	0x1
 9857 3736 F204     		.2byte	0x4f2
 9858 3738 E6260000 		.4byte	0x26e6
 9859 373c 01       		.uleb128 0x1
 9860 373d 50       		.byte	0x50
 9861 373e 30       		.uleb128 0x30
 9862 373f 657000   		.ascii	"ep\000"
 9863 3742 01       		.byte	0x1
 9864 3743 F204     		.2byte	0x4f2
 9865 3745 99250000 		.4byte	0x2599
 9866 3749 C9060000 		.4byte	.LLST137
 9867 374d 00       		.byte	0
 9868 374e 2F       		.uleb128 0x2f
 9869 374f FF1C0000 		.4byte	.LASF663
 9870 3753 01       		.byte	0x1
 9871 3754 E504     		.2byte	0x4e5
 9872 3756 00000000 		.4byte	.LFB290
 9873 375a 14000000 		.4byte	.LFE290-.LFB290
 9874 375e 01       		.uleb128 0x1
 9875 375f 9C       		.byte	0x9c
 9876 3760 82370000 		.4byte	0x3782
 9877 3764 49       		.uleb128 0x49
 9878 3765 211C0000 		.4byte	.LASF658
 9879 3769 01       		.byte	0x1
 9880 376a E504     		.2byte	0x4e5
 9881 376c E6260000 		.4byte	0x26e6
 9882 3770 01       		.uleb128 0x1
 9883 3771 50       		.byte	0x50
 9884 3772 30       		.uleb128 0x30
 9885 3773 657000   		.ascii	"ep\000"
 9886 3776 01       		.byte	0x1
 9887 3777 E504     		.2byte	0x4e5
 9888 3779 99250000 		.4byte	0x2599
 9889 377d EA060000 		.4byte	.LLST136
 9890 3781 00       		.byte	0
 9891 3782 2F       		.uleb128 0x2f
 9892 3783 CE0E0000 		.4byte	.LASF664
 9893 3787 01       		.byte	0x1
 9894 3788 D804     		.2byte	0x4d8
 9895 378a 00000000 		.4byte	.LFB289
 9896 378e 14000000 		.4byte	.LFE289-.LFB289
 9897 3792 01       		.uleb128 0x1
 9898 3793 9C       		.byte	0x9c
 9899 3794 B6370000 		.4byte	0x37b6
 9900 3798 49       		.uleb128 0x49
 9901 3799 211C0000 		.4byte	.LASF658
 9902 379d 01       		.byte	0x1
 9903 379e D804     		.2byte	0x4d8
 9904 37a0 E6260000 		.4byte	0x26e6
 9905 37a4 01       		.uleb128 0x1
 9906 37a5 50       		.byte	0x50
ARM GAS  /tmp/ccqRaZSa.s 			page 175


 9907 37a6 30       		.uleb128 0x30
 9908 37a7 657000   		.ascii	"ep\000"
 9909 37aa 01       		.byte	0x1
 9910 37ab D804     		.2byte	0x4d8
 9911 37ad 99250000 		.4byte	0x2599
 9912 37b1 0B070000 		.4byte	.LLST135
 9913 37b5 00       		.byte	0
 9914 37b6 2F       		.uleb128 0x2f
 9915 37b7 511F0000 		.4byte	.LASF665
 9916 37bb 01       		.byte	0x1
 9917 37bc CB04     		.2byte	0x4cb
 9918 37be 00000000 		.4byte	.LFB288
 9919 37c2 14000000 		.4byte	.LFE288-.LFB288
 9920 37c6 01       		.uleb128 0x1
 9921 37c7 9C       		.byte	0x9c
 9922 37c8 EA370000 		.4byte	0x37ea
 9923 37cc 49       		.uleb128 0x49
 9924 37cd 211C0000 		.4byte	.LASF658
 9925 37d1 01       		.byte	0x1
 9926 37d2 CB04     		.2byte	0x4cb
 9927 37d4 E6260000 		.4byte	0x26e6
 9928 37d8 01       		.uleb128 0x1
 9929 37d9 50       		.byte	0x50
 9930 37da 30       		.uleb128 0x30
 9931 37db 657000   		.ascii	"ep\000"
 9932 37de 01       		.byte	0x1
 9933 37df CB04     		.2byte	0x4cb
 9934 37e1 99250000 		.4byte	0x2599
 9935 37e5 2C070000 		.4byte	.LLST134
 9936 37e9 00       		.byte	0
 9937 37ea 4A       		.uleb128 0x4a
 9938 37eb 040C0000 		.4byte	.LASF666
 9939 37ef 01       		.byte	0x1
 9940 37f0 BD04     		.2byte	0x4bd
 9941 37f2 01       		.byte	0x1
 9942 37f3 0F380000 		.4byte	0x380f
 9943 37f7 4B       		.uleb128 0x4b
 9944 37f8 211C0000 		.4byte	.LASF658
 9945 37fc 01       		.byte	0x1
 9946 37fd BD04     		.2byte	0x4bd
 9947 37ff E6260000 		.4byte	0x26e6
 9948 3803 4C       		.uleb128 0x4c
 9949 3804 657000   		.ascii	"ep\000"
 9950 3807 01       		.byte	0x1
 9951 3808 BD04     		.2byte	0x4bd
 9952 380a 99250000 		.4byte	0x2599
 9953 380e 00       		.byte	0
 9954 380f 4A       		.uleb128 0x4a
 9955 3810 C5080000 		.4byte	.LASF667
 9956 3814 01       		.byte	0x1
 9957 3815 B004     		.2byte	0x4b0
 9958 3817 01       		.byte	0x1
 9959 3818 34380000 		.4byte	0x3834
 9960 381c 4B       		.uleb128 0x4b
 9961 381d 211C0000 		.4byte	.LASF658
 9962 3821 01       		.byte	0x1
 9963 3822 B004     		.2byte	0x4b0
ARM GAS  /tmp/ccqRaZSa.s 			page 176


 9964 3824 E6260000 		.4byte	0x26e6
 9965 3828 4C       		.uleb128 0x4c
 9966 3829 657000   		.ascii	"ep\000"
 9967 382c 01       		.byte	0x1
 9968 382d B004     		.2byte	0x4b0
 9969 382f 99250000 		.4byte	0x2599
 9970 3833 00       		.byte	0
 9971 3834 2F       		.uleb128 0x2f
 9972 3835 42070000 		.4byte	.LASF668
 9973 3839 01       		.byte	0x1
 9974 383a 9304     		.2byte	0x493
 9975 383c 00000000 		.4byte	.LFB285
 9976 3840 4C000000 		.4byte	.LFE285-.LFB285
 9977 3844 01       		.uleb128 0x1
 9978 3845 9C       		.byte	0x9c
 9979 3846 90380000 		.4byte	0x3890
 9980 384a 4D       		.uleb128 0x4d
 9981 384b 211C0000 		.4byte	.LASF658
 9982 384f 01       		.byte	0x1
 9983 3850 9304     		.2byte	0x493
 9984 3852 E6260000 		.4byte	0x26e6
 9985 3856 4D070000 		.4byte	.LLST115
 9986 385a 30       		.uleb128 0x30
 9987 385b 657000   		.ascii	"ep\000"
 9988 385e 01       		.byte	0x1
 9989 385f 9304     		.2byte	0x493
 9990 3861 99250000 		.4byte	0x2599
 9991 3865 6E070000 		.4byte	.LLST116
 9992 3869 33       		.uleb128 0x33
 9993 386a 69737000 		.ascii	"isp\000"
 9994 386e 01       		.byte	0x1
 9995 386f 9404     		.2byte	0x494
 9996 3871 BB2E0000 		.4byte	0x2ebb
 9997 3875 9A070000 		.4byte	.LLST117
 9998 3879 3E       		.uleb128 0x3e
 9999 387a 78020000 		.4byte	.Ldebug_ranges0+0x278
 10000 387e 31       		.uleb128 0x31
 10001 387f 13160000 		.4byte	.LASF669
 10002 3883 01       		.byte	0x1
 10003 3884 A104     		.2byte	0x4a1
 10004 3886 04090000 		.4byte	0x904
 10005 388a DB070000 		.4byte	.LLST118
 10006 388e 00       		.byte	0
 10007 388f 00       		.byte	0
 10008 3890 2F       		.uleb128 0x2f
 10009 3891 95150000 		.4byte	.LASF670
 10010 3895 01       		.byte	0x1
 10011 3896 7B04     		.2byte	0x47b
 10012 3898 00000000 		.4byte	.LFB284
 10013 389c 40000000 		.4byte	.LFE284-.LFB284
 10014 38a0 01       		.uleb128 0x1
 10015 38a1 9C       		.byte	0x9c
 10016 38a2 E6380000 		.4byte	0x38e6
 10017 38a6 4D       		.uleb128 0x4d
 10018 38a7 211C0000 		.4byte	.LASF658
 10019 38ab 01       		.byte	0x1
 10020 38ac 7B04     		.2byte	0x47b
ARM GAS  /tmp/ccqRaZSa.s 			page 177


 10021 38ae E6260000 		.4byte	0x26e6
 10022 38b2 FE070000 		.4byte	.LLST105
 10023 38b6 30       		.uleb128 0x30
 10024 38b7 657000   		.ascii	"ep\000"
 10025 38ba 01       		.byte	0x1
 10026 38bb 7B04     		.2byte	0x47b
 10027 38bd 99250000 		.4byte	0x2599
 10028 38c1 1F080000 		.4byte	.LLST106
 10029 38c5 31       		.uleb128 0x31
 10030 38c6 13160000 		.4byte	.LASF669
 10031 38ca 01       		.byte	0x1
 10032 38cb 7C04     		.2byte	0x47c
 10033 38cd 04090000 		.4byte	0x904
 10034 38d1 40080000 		.4byte	.LLST107
 10035 38d5 33       		.uleb128 0x33
 10036 38d6 6F737000 		.ascii	"osp\000"
 10037 38da 01       		.byte	0x1
 10038 38db 7D04     		.2byte	0x47d
 10039 38dd C12E0000 		.4byte	0x2ec1
 10040 38e1 63080000 		.4byte	.LLST108
 10041 38e5 00       		.byte	0
 10042 38e6 2F       		.uleb128 0x2f
 10043 38e7 8C080000 		.4byte	.LASF671
 10044 38eb 01       		.byte	0x1
 10045 38ec 6E04     		.2byte	0x46e
 10046 38ee 00000000 		.4byte	.LFB283
 10047 38f2 12000000 		.4byte	.LFE283-.LFB283
 10048 38f6 01       		.uleb128 0x1
 10049 38f7 9C       		.byte	0x9c
 10050 38f8 28390000 		.4byte	0x3928
 10051 38fc 49       		.uleb128 0x49
 10052 38fd 211C0000 		.4byte	.LASF658
 10053 3901 01       		.byte	0x1
 10054 3902 6E04     		.2byte	0x46e
 10055 3904 E6260000 		.4byte	0x26e6
 10056 3908 01       		.uleb128 0x1
 10057 3909 50       		.byte	0x50
 10058 390a 30       		.uleb128 0x30
 10059 390b 657000   		.ascii	"ep\000"
 10060 390e 01       		.byte	0x1
 10061 390f 6E04     		.2byte	0x46e
 10062 3911 99250000 		.4byte	0x2599
 10063 3915 82080000 		.4byte	.LLST104
 10064 3919 4E       		.uleb128 0x4e
 10065 391a 62756600 		.ascii	"buf\000"
 10066 391e 01       		.byte	0x1
 10067 391f 6E04     		.2byte	0x46e
 10068 3921 E6170000 		.4byte	0x17e6
 10069 3925 01       		.uleb128 0x1
 10070 3926 52       		.byte	0x52
 10071 3927 00       		.byte	0
 10072 3928 4F       		.uleb128 0x4f
 10073 3929 C3110000 		.4byte	.LASF672
 10074 392d 01       		.byte	0x1
 10075 392e 5304     		.2byte	0x453
 10076 3930 04260000 		.4byte	0x2604
 10077 3934 00000000 		.4byte	.LFB282
ARM GAS  /tmp/ccqRaZSa.s 			page 178


 10078 3938 1A000000 		.4byte	.LFE282-.LFB282
 10079 393c 01       		.uleb128 0x1
 10080 393d 9C       		.byte	0x9c
 10081 393e 70390000 		.4byte	0x3970
 10082 3942 4D       		.uleb128 0x4d
 10083 3943 211C0000 		.4byte	.LASF658
 10084 3947 01       		.byte	0x1
 10085 3948 5304     		.2byte	0x453
 10086 394a E6260000 		.4byte	0x26e6
 10087 394e A3080000 		.4byte	.LLST102
 10088 3952 30       		.uleb128 0x30
 10089 3953 657000   		.ascii	"ep\000"
 10090 3956 01       		.byte	0x1
 10091 3957 5304     		.2byte	0x453
 10092 3959 99250000 		.4byte	0x2599
 10093 395d C4080000 		.4byte	.LLST103
 10094 3961 50       		.uleb128 0x50
 10095 3962 63746C00 		.ascii	"ctl\000"
 10096 3966 01       		.byte	0x1
 10097 3967 5404     		.2byte	0x454
 10098 3969 04090000 		.4byte	0x904
 10099 396d 01       		.uleb128 0x1
 10100 396e 53       		.byte	0x53
 10101 396f 00       		.byte	0
 10102 3970 4F       		.uleb128 0x4f
 10103 3971 EB1B0000 		.4byte	.LASF673
 10104 3975 01       		.byte	0x1
 10105 3976 3A04     		.2byte	0x43a
 10106 3978 04260000 		.4byte	0x2604
 10107 397c 00000000 		.4byte	.LFB281
 10108 3980 1A000000 		.4byte	.LFE281-.LFB281
 10109 3984 01       		.uleb128 0x1
 10110 3985 9C       		.byte	0x9c
 10111 3986 B8390000 		.4byte	0x39b8
 10112 398a 4D       		.uleb128 0x4d
 10113 398b 211C0000 		.4byte	.LASF658
 10114 398f 01       		.byte	0x1
 10115 3990 3A04     		.2byte	0x43a
 10116 3992 E6260000 		.4byte	0x26e6
 10117 3996 E5080000 		.4byte	.LLST100
 10118 399a 30       		.uleb128 0x30
 10119 399b 657000   		.ascii	"ep\000"
 10120 399e 01       		.byte	0x1
 10121 399f 3A04     		.2byte	0x43a
 10122 39a1 99250000 		.4byte	0x2599
 10123 39a5 06090000 		.4byte	.LLST101
 10124 39a9 50       		.uleb128 0x50
 10125 39aa 63746C00 		.ascii	"ctl\000"
 10126 39ae 01       		.byte	0x1
 10127 39af 3B04     		.2byte	0x43b
 10128 39b1 04090000 		.4byte	0x904
 10129 39b5 01       		.uleb128 0x1
 10130 39b6 53       		.byte	0x53
 10131 39b7 00       		.byte	0
 10132 39b8 2F       		.uleb128 0x2f
 10133 39b9 1D110000 		.4byte	.LASF674
 10134 39bd 01       		.byte	0x1
ARM GAS  /tmp/ccqRaZSa.s 			page 179


 10135 39be 2504     		.2byte	0x425
 10136 39c0 00000000 		.4byte	.LFB280
 10137 39c4 44000000 		.4byte	.LFE280-.LFB280
 10138 39c8 01       		.uleb128 0x1
 10139 39c9 9C       		.byte	0x9c
 10140 39ca 3D3A0000 		.4byte	0x3a3d
 10141 39ce 4D       		.uleb128 0x4d
 10142 39cf 211C0000 		.4byte	.LASF658
 10143 39d3 01       		.byte	0x1
 10144 39d4 2504     		.2byte	0x425
 10145 39d6 E6260000 		.4byte	0x26e6
 10146 39da 27090000 		.4byte	.LLST95
 10147 39de 35       		.uleb128 0x35
 10148 39df 3D450000 		.4byte	0x453d
 10149 39e3 06000000 		.4byte	.LBB638
 10150 39e7 06000000 		.4byte	.LBE638-.LBB638
 10151 39eb 01       		.byte	0x1
 10152 39ec 2804     		.2byte	0x428
 10153 39ee FD390000 		.4byte	0x39fd
 10154 39f2 3A       		.uleb128 0x3a
 10155 39f3 49450000 		.4byte	0x4549
 10156 39f7 3A       		.uleb128 0x3a
 10157 39f8 49450000 		.4byte	0x4549
 10158 39fc 00       		.byte	0
 10159 39fd 36       		.uleb128 0x36
 10160 39fe A6450000 		.4byte	0x45a6
 10161 3a02 0C000000 		.4byte	.LBB640
 10162 3a06 34000000 		.4byte	.LBE640-.LBB640
 10163 3a0a 01       		.byte	0x1
 10164 3a0b 2B04     		.2byte	0x42b
 10165 3a0d 3B       		.uleb128 0x3b
 10166 3a0e B2450000 		.4byte	0x45b2
 10167 3a12 48090000 		.4byte	.LLST96
 10168 3a16 3B       		.uleb128 0x3b
 10169 3a17 B2450000 		.4byte	0x45b2
 10170 3a1b 69090000 		.4byte	.LLST97
 10171 3a1f 38       		.uleb128 0x38
 10172 3a20 0C000000 		.4byte	.LBB641
 10173 3a24 34000000 		.4byte	.LBE641-.LBB641
 10174 3a28 3D       		.uleb128 0x3d
 10175 3a29 BD450000 		.4byte	0x45bd
 10176 3a2d 8A090000 		.4byte	.LLST98
 10177 3a31 3D       		.uleb128 0x3d
 10178 3a32 C8450000 		.4byte	0x45c8
 10179 3a36 9D090000 		.4byte	.LLST99
 10180 3a3a 00       		.byte	0
 10181 3a3b 00       		.byte	0
 10182 3a3c 00       		.byte	0
 10183 3a3d 2F       		.uleb128 0x2f
 10184 3a3e 881D0000 		.4byte	.LASF675
 10185 3a42 01       		.byte	0x1
 10186 3a43 E503     		.2byte	0x3e5
 10187 3a45 00000000 		.4byte	.LFB279
 10188 3a49 64010000 		.4byte	.LFE279-.LFB279
 10189 3a4d 01       		.uleb128 0x1
 10190 3a4e 9C       		.byte	0x9c
 10191 3a4f 993B0000 		.4byte	0x3b99
ARM GAS  /tmp/ccqRaZSa.s 			page 180


 10192 3a53 4D       		.uleb128 0x4d
 10193 3a54 211C0000 		.4byte	.LASF658
 10194 3a58 01       		.byte	0x1
 10195 3a59 E503     		.2byte	0x3e5
 10196 3a5b E6260000 		.4byte	0x26e6
 10197 3a5f BC090000 		.4byte	.LLST79
 10198 3a63 30       		.uleb128 0x30
 10199 3a64 657000   		.ascii	"ep\000"
 10200 3a67 01       		.byte	0x1
 10201 3a68 E503     		.2byte	0x3e5
 10202 3a6a 99250000 		.4byte	0x2599
 10203 3a6e 010A0000 		.4byte	.LLST80
 10204 3a72 33       		.uleb128 0x33
 10205 3a73 63746C00 		.ascii	"ctl\000"
 10206 3a77 01       		.byte	0x1
 10207 3a78 E603     		.2byte	0x3e6
 10208 3a7a 04090000 		.4byte	0x904
 10209 3a7e 2D0A0000 		.4byte	.LLST81
 10210 3a82 31       		.uleb128 0x31
 10211 3a83 34120000 		.4byte	.LASF676
 10212 3a87 01       		.byte	0x1
 10213 3a88 E603     		.2byte	0x3e6
 10214 3a8a 04090000 		.4byte	0x904
 10215 3a8e 600A0000 		.4byte	.LLST82
 10216 3a92 31       		.uleb128 0x31
 10217 3a93 42170000 		.4byte	.LASF659
 10218 3a97 01       		.byte	0x1
 10219 3a98 E703     		.2byte	0x3e7
 10220 3a9a 532F0000 		.4byte	0x2f53
 10221 3a9e 730A0000 		.4byte	.LLST83
 10222 3aa2 39       		.uleb128 0x39
 10223 3aa3 E9440000 		.4byte	0x44e9
 10224 3aa7 96000000 		.4byte	.LBB624
 10225 3aab 40020000 		.4byte	.Ldebug_ranges0+0x240
 10226 3aaf 01       		.byte	0x1
 10227 3ab0 0E04     		.2byte	0x40e
 10228 3ab2 D83A0000 		.4byte	0x3ad8
 10229 3ab6 3B       		.uleb128 0x3b
 10230 3ab7 F9440000 		.4byte	0x44f9
 10231 3abb C00A0000 		.4byte	.LLST84
 10232 3abf 3B       		.uleb128 0x3b
 10233 3ac0 04450000 		.4byte	0x4504
 10234 3ac4 E10A0000 		.4byte	.LLST85
 10235 3ac8 3E       		.uleb128 0x3e
 10236 3ac9 40020000 		.4byte	.Ldebug_ranges0+0x240
 10237 3acd 3D       		.uleb128 0x3d
 10238 3ace 0F450000 		.4byte	0x450f
 10239 3ad2 F40A0000 		.4byte	.LLST86
 10240 3ad6 00       		.byte	0
 10241 3ad7 00       		.byte	0
 10242 3ad8 35       		.uleb128 0x35
 10243 3ad9 55450000 		.4byte	0x4555
 10244 3add B0000000 		.4byte	.LBB630
 10245 3ae1 0E000000 		.4byte	.LBE630-.LBB630
 10246 3ae5 01       		.byte	0x1
 10247 3ae6 0F04     		.2byte	0x40f
 10248 3ae8 3A3B0000 		.4byte	0x3b3a
ARM GAS  /tmp/ccqRaZSa.s 			page 181


 10249 3aec 3B       		.uleb128 0x3b
 10250 3aed 61450000 		.4byte	0x4561
 10251 3af1 070B0000 		.4byte	.LLST87
 10252 3af5 3B       		.uleb128 0x3b
 10253 3af6 6C450000 		.4byte	0x456c
 10254 3afa 280B0000 		.4byte	.LLST88
 10255 3afe 38       		.uleb128 0x38
 10256 3aff B0000000 		.4byte	.LBB631
 10257 3b03 0E000000 		.4byte	.LBE631-.LBB631
 10258 3b07 3D       		.uleb128 0x3d
 10259 3b08 77450000 		.4byte	0x4577
 10260 3b0c 400B0000 		.4byte	.LLST89
 10261 3b10 45       		.uleb128 0x45
 10262 3b11 6E460000 		.4byte	0x466e
 10263 3b15 B8000000 		.4byte	.LBB632
 10264 3b19 06000000 		.4byte	.LBE632-.LBB632
 10265 3b1d 01       		.byte	0x1
 10266 3b1e A5       		.byte	0xa5
 10267 3b1f 3B       		.uleb128 0x3b
 10268 3b20 7B460000 		.4byte	0x467b
 10269 3b24 640B0000 		.4byte	.LLST90
 10270 3b28 42       		.uleb128 0x42
 10271 3b29 BE000000 		.4byte	.LVL165
 10272 3b2d 7C4B0000 		.4byte	0x4b7c
 10273 3b31 43       		.uleb128 0x43
 10274 3b32 01       		.uleb128 0x1
 10275 3b33 50       		.byte	0x50
 10276 3b34 01       		.uleb128 0x1
 10277 3b35 3C       		.byte	0x3c
 10278 3b36 00       		.byte	0
 10279 3b37 00       		.byte	0
 10280 3b38 00       		.byte	0
 10281 3b39 00       		.byte	0
 10282 3b3a 36       		.uleb128 0x36
 10283 3b3b 55450000 		.4byte	0x4555
 10284 3b3f 10010000 		.4byte	.LBB634
 10285 3b43 12000000 		.4byte	.LBE634-.LBB634
 10286 3b47 01       		.byte	0x1
 10287 3b48 1804     		.2byte	0x418
 10288 3b4a 3B       		.uleb128 0x3b
 10289 3b4b 61450000 		.4byte	0x4561
 10290 3b4f 780B0000 		.4byte	.LLST91
 10291 3b53 3B       		.uleb128 0x3b
 10292 3b54 6C450000 		.4byte	0x456c
 10293 3b58 990B0000 		.4byte	.LLST92
 10294 3b5c 38       		.uleb128 0x38
 10295 3b5d 10010000 		.4byte	.LBB635
 10296 3b61 12000000 		.4byte	.LBE635-.LBB635
 10297 3b65 3D       		.uleb128 0x3d
 10298 3b66 77450000 		.4byte	0x4577
 10299 3b6a B10B0000 		.4byte	.LLST93
 10300 3b6e 45       		.uleb128 0x45
 10301 3b6f 6E460000 		.4byte	0x466e
 10302 3b73 1C010000 		.4byte	.LBB636
 10303 3b77 06000000 		.4byte	.LBE636-.LBB636
 10304 3b7b 01       		.byte	0x1
 10305 3b7c A5       		.byte	0xa5
ARM GAS  /tmp/ccqRaZSa.s 			page 182


 10306 3b7d 3B       		.uleb128 0x3b
 10307 3b7e 7B460000 		.4byte	0x467b
 10308 3b82 D50B0000 		.4byte	.LLST94
 10309 3b86 42       		.uleb128 0x42
 10310 3b87 22010000 		.4byte	.LVL170
 10311 3b8b 7C4B0000 		.4byte	0x4b7c
 10312 3b8f 43       		.uleb128 0x43
 10313 3b90 01       		.uleb128 0x1
 10314 3b91 50       		.byte	0x50
 10315 3b92 01       		.uleb128 0x1
 10316 3b93 3C       		.byte	0x3c
 10317 3b94 00       		.byte	0
 10318 3b95 00       		.byte	0
 10319 3b96 00       		.byte	0
 10320 3b97 00       		.byte	0
 10321 3b98 00       		.byte	0
 10322 3b99 2F       		.uleb128 0x2f
 10323 3b9a 940C0000 		.4byte	.LASF677
 10324 3b9e 01       		.byte	0x1
 10325 3b9f D703     		.2byte	0x3d7
 10326 3ba1 00000000 		.4byte	.LFB278
 10327 3ba5 18000000 		.4byte	.LFE278-.LFB278
 10328 3ba9 01       		.uleb128 0x1
 10329 3baa 9C       		.byte	0x9c
 10330 3bab CC3B0000 		.4byte	0x3bcc
 10331 3baf 49       		.uleb128 0x49
 10332 3bb0 211C0000 		.4byte	.LASF658
 10333 3bb4 01       		.byte	0x1
 10334 3bb5 D703     		.2byte	0x3d7
 10335 3bb7 E6260000 		.4byte	0x26e6
 10336 3bbb 01       		.uleb128 0x1
 10337 3bbc 50       		.byte	0x50
 10338 3bbd 51       		.uleb128 0x51
 10339 3bbe 42170000 		.4byte	.LASF659
 10340 3bc2 01       		.byte	0x1
 10341 3bc3 D803     		.2byte	0x3d8
 10342 3bc5 532F0000 		.4byte	0x2f53
 10343 3bc9 01       		.uleb128 0x1
 10344 3bca 52       		.byte	0x52
 10345 3bcb 00       		.byte	0
 10346 3bcc 2F       		.uleb128 0x2f
 10347 3bcd 87110000 		.4byte	.LASF678
 10348 3bd1 01       		.byte	0x1
 10349 3bd2 A103     		.2byte	0x3a1
 10350 3bd4 00000000 		.4byte	.LFB277
 10351 3bd8 BC000000 		.4byte	.LFE277-.LFB277
 10352 3bdc 01       		.uleb128 0x1
 10353 3bdd 9C       		.byte	0x9c
 10354 3bde 213D0000 		.4byte	0x3d21
 10355 3be2 4D       		.uleb128 0x4d
 10356 3be3 211C0000 		.4byte	.LASF658
 10357 3be7 01       		.byte	0x1
 10358 3be8 A103     		.2byte	0x3a1
 10359 3bea E6260000 		.4byte	0x26e6
 10360 3bee E90B0000 		.4byte	.LLST64
 10361 3bf2 33       		.uleb128 0x33
 10362 3bf3 6900     		.ascii	"i\000"
ARM GAS  /tmp/ccqRaZSa.s 			page 183


 10363 3bf5 01       		.byte	0x1
 10364 3bf6 A203     		.2byte	0x3a2
 10365 3bf8 25000000 		.4byte	0x25
 10366 3bfc 150C0000 		.4byte	.LLST65
 10367 3c00 31       		.uleb128 0x31
 10368 3c01 42170000 		.4byte	.LASF659
 10369 3c05 01       		.byte	0x1
 10370 3c06 A303     		.2byte	0x3a3
 10371 3c08 532F0000 		.4byte	0x2f53
 10372 3c0c 340C0000 		.4byte	.LLST66
 10373 3c10 39       		.uleb128 0x39
 10374 3c11 55450000 		.4byte	0x4555
 10375 3c15 04000000 		.4byte	.LBB608
 10376 3c19 10020000 		.4byte	.Ldebug_ranges0+0x210
 10377 3c1d 01       		.byte	0x1
 10378 3c1e A603     		.2byte	0x3a6
 10379 3c20 6E3C0000 		.4byte	0x3c6e
 10380 3c24 3B       		.uleb128 0x3b
 10381 3c25 61450000 		.4byte	0x4561
 10382 3c29 470C0000 		.4byte	.LLST67
 10383 3c2d 3B       		.uleb128 0x3b
 10384 3c2e 6C450000 		.4byte	0x456c
 10385 3c32 730C0000 		.4byte	.LLST68
 10386 3c36 3E       		.uleb128 0x3e
 10387 3c37 10020000 		.4byte	.Ldebug_ranges0+0x210
 10388 3c3b 3D       		.uleb128 0x3d
 10389 3c3c 77450000 		.4byte	0x4577
 10390 3c40 870C0000 		.4byte	.LLST69
 10391 3c44 45       		.uleb128 0x45
 10392 3c45 6E460000 		.4byte	0x466e
 10393 3c49 12000000 		.4byte	.LBB610
 10394 3c4d 06000000 		.4byte	.LBE610-.LBB610
 10395 3c51 01       		.byte	0x1
 10396 3c52 A5       		.byte	0xa5
 10397 3c53 3B       		.uleb128 0x3b
 10398 3c54 7B460000 		.4byte	0x467b
 10399 3c58 9A0C0000 		.4byte	.LLST70
 10400 3c5c 42       		.uleb128 0x42
 10401 3c5d 18000000 		.4byte	.LVL138
 10402 3c61 7C4B0000 		.4byte	0x4b7c
 10403 3c65 43       		.uleb128 0x43
 10404 3c66 01       		.uleb128 0x1
 10405 3c67 50       		.byte	0x50
 10406 3c68 01       		.uleb128 0x1
 10407 3c69 3C       		.byte	0x3c
 10408 3c6a 00       		.byte	0
 10409 3c6b 00       		.byte	0
 10410 3c6c 00       		.byte	0
 10411 3c6d 00       		.byte	0
 10412 3c6e 35       		.uleb128 0x35
 10413 3c6f 3D450000 		.4byte	0x453d
 10414 3c73 4E000000 		.4byte	.LBB614
 10415 3c77 04000000 		.4byte	.LBE614-.LBB614
 10416 3c7b 01       		.byte	0x1
 10417 3c7c B503     		.2byte	0x3b5
 10418 3c7e 953C0000 		.4byte	0x3c95
 10419 3c82 3B       		.uleb128 0x3b
ARM GAS  /tmp/ccqRaZSa.s 			page 184


 10420 3c83 49450000 		.4byte	0x4549
 10421 3c87 AE0C0000 		.4byte	.LLST71
 10422 3c8b 3B       		.uleb128 0x3b
 10423 3c8c 49450000 		.4byte	0x4549
 10424 3c90 CF0C0000 		.4byte	.LLST72
 10425 3c94 00       		.byte	0
 10426 3c95 35       		.uleb128 0x35
 10427 3c96 83450000 		.4byte	0x4583
 10428 3c9a 58000000 		.4byte	.LBB616
 10429 3c9e 12000000 		.4byte	.LBE616-.LBB616
 10430 3ca2 01       		.byte	0x1
 10431 3ca3 B903     		.2byte	0x3b9
 10432 3ca5 EE3C0000 		.4byte	0x3cee
 10433 3ca9 3B       		.uleb128 0x3b
 10434 3caa 8F450000 		.4byte	0x458f
 10435 3cae F00C0000 		.4byte	.LLST73
 10436 3cb2 38       		.uleb128 0x38
 10437 3cb3 58000000 		.4byte	.LBB617
 10438 3cb7 12000000 		.4byte	.LBE617-.LBB617
 10439 3cbb 3D       		.uleb128 0x3d
 10440 3cbc 9A450000 		.4byte	0x459a
 10441 3cc0 110D0000 		.4byte	.LLST74
 10442 3cc4 45       		.uleb128 0x45
 10443 3cc5 6E460000 		.4byte	0x466e
 10444 3cc9 64000000 		.4byte	.LBB618
 10445 3ccd 06000000 		.4byte	.LBE618-.LBB618
 10446 3cd1 01       		.byte	0x1
 10447 3cd2 9B       		.byte	0x9b
 10448 3cd3 3B       		.uleb128 0x3b
 10449 3cd4 7B460000 		.4byte	0x467b
 10450 3cd8 240D0000 		.4byte	.LLST75
 10451 3cdc 42       		.uleb128 0x42
 10452 3cdd 6A000000 		.4byte	.LVL146
 10453 3ce1 7C4B0000 		.4byte	0x4b7c
 10454 3ce5 43       		.uleb128 0x43
 10455 3ce6 01       		.uleb128 0x1
 10456 3ce7 50       		.byte	0x50
 10457 3ce8 01       		.uleb128 0x1
 10458 3ce9 3C       		.byte	0x3c
 10459 3cea 00       		.byte	0
 10460 3ceb 00       		.byte	0
 10461 3cec 00       		.byte	0
 10462 3ced 00       		.byte	0
 10463 3cee 41       		.uleb128 0x41
 10464 3cef E9440000 		.4byte	0x44e9
 10465 3cf3 A2000000 		.4byte	.LBB620
 10466 3cf7 28020000 		.4byte	.Ldebug_ranges0+0x228
 10467 3cfb 01       		.byte	0x1
 10468 3cfc CC03     		.2byte	0x3cc
 10469 3cfe 3B       		.uleb128 0x3b
 10470 3cff F9440000 		.4byte	0x44f9
 10471 3d03 380D0000 		.4byte	.LLST76
 10472 3d07 3B       		.uleb128 0x3b
 10473 3d08 04450000 		.4byte	0x4504
 10474 3d0c 590D0000 		.4byte	.LLST77
 10475 3d10 3E       		.uleb128 0x3e
 10476 3d11 28020000 		.4byte	.Ldebug_ranges0+0x228
ARM GAS  /tmp/ccqRaZSa.s 			page 185


 10477 3d15 3D       		.uleb128 0x3d
 10478 3d16 0F450000 		.4byte	0x450f
 10479 3d1a 6D0D0000 		.4byte	.LLST78
 10480 3d1e 00       		.byte	0
 10481 3d1f 00       		.byte	0
 10482 3d20 00       		.byte	0
 10483 3d21 2F       		.uleb128 0x2f
 10484 3d22 E1010000 		.4byte	.LASF679
 10485 3d26 01       		.byte	0x1
 10486 3d27 7A03     		.2byte	0x37a
 10487 3d29 00000000 		.4byte	.LFB276
 10488 3d2d 70000000 		.4byte	.LFE276-.LFB276
 10489 3d31 01       		.uleb128 0x1
 10490 3d32 9C       		.byte	0x9c
 10491 3d33 A73D0000 		.4byte	0x3da7
 10492 3d37 4D       		.uleb128 0x4d
 10493 3d38 211C0000 		.4byte	.LASF658
 10494 3d3c 01       		.byte	0x1
 10495 3d3d 7A03     		.2byte	0x37a
 10496 3d3f E6260000 		.4byte	0x26e6
 10497 3d43 8D0D0000 		.4byte	.LLST58
 10498 3d47 31       		.uleb128 0x31
 10499 3d48 42170000 		.4byte	.LASF659
 10500 3d4c 01       		.byte	0x1
 10501 3d4d 7B03     		.2byte	0x37b
 10502 3d4f 532F0000 		.4byte	0x2f53
 10503 3d53 AE0D0000 		.4byte	.LLST59
 10504 3d57 39       		.uleb128 0x39
 10505 3d58 A6450000 		.4byte	0x45a6
 10506 3d5c 0E000000 		.4byte	.LBB602
 10507 3d60 F0010000 		.4byte	.Ldebug_ranges0+0x1f0
 10508 3d64 01       		.byte	0x1
 10509 3d65 8203     		.2byte	0x382
 10510 3d67 963D0000 		.4byte	0x3d96
 10511 3d6b 3B       		.uleb128 0x3b
 10512 3d6c B2450000 		.4byte	0x45b2
 10513 3d70 D20D0000 		.4byte	.LLST60
 10514 3d74 3B       		.uleb128 0x3b
 10515 3d75 B2450000 		.4byte	0x45b2
 10516 3d79 FE0D0000 		.4byte	.LLST61
 10517 3d7d 3E       		.uleb128 0x3e
 10518 3d7e F0010000 		.4byte	.Ldebug_ranges0+0x1f0
 10519 3d82 3D       		.uleb128 0x3d
 10520 3d83 BD450000 		.4byte	0x45bd
 10521 3d87 2A0E0000 		.4byte	.LLST62
 10522 3d8b 3D       		.uleb128 0x3d
 10523 3d8c C8450000 		.4byte	0x45c8
 10524 3d90 3F0E0000 		.4byte	.LLST63
 10525 3d94 00       		.byte	0
 10526 3d95 00       		.byte	0
 10527 3d96 42       		.uleb128 0x42
 10528 3d97 5C000000 		.4byte	.LVL132
 10529 3d9b 884B0000 		.4byte	0x4b88
 10530 3d9f 43       		.uleb128 0x43
 10531 3da0 01       		.uleb128 0x1
 10532 3da1 50       		.byte	0x50
 10533 3da2 02       		.uleb128 0x2
ARM GAS  /tmp/ccqRaZSa.s 			page 186


 10534 3da3 08       		.byte	0x8
 10535 3da4 43       		.byte	0x43
 10536 3da5 00       		.byte	0
 10537 3da6 00       		.byte	0
 10538 3da7 2F       		.uleb128 0x2f
 10539 3da8 D80C0000 		.4byte	.LASF680
 10540 3dac 01       		.byte	0x1
 10541 3dad 1703     		.2byte	0x317
 10542 3daf 00000000 		.4byte	.LFB275
 10543 3db3 14010000 		.4byte	.LFE275-.LFB275
 10544 3db7 01       		.uleb128 0x1
 10545 3db8 9C       		.byte	0x9c
 10546 3db9 243F0000 		.4byte	0x3f24
 10547 3dbd 4D       		.uleb128 0x4d
 10548 3dbe 211C0000 		.4byte	.LASF658
 10549 3dc2 01       		.byte	0x1
 10550 3dc3 1703     		.2byte	0x317
 10551 3dc5 E6260000 		.4byte	0x26e6
 10552 3dc9 5E0E0000 		.4byte	.LLST47
 10553 3dcd 31       		.uleb128 0x31
 10554 3dce 42170000 		.4byte	.LASF659
 10555 3dd2 01       		.byte	0x1
 10556 3dd3 1803     		.2byte	0x318
 10557 3dd5 532F0000 		.4byte	0x2f53
 10558 3dd9 920E0000 		.4byte	.LLST48
 10559 3ddd 39       		.uleb128 0x39
 10560 3dde D2450000 		.4byte	0x45d2
 10561 3de2 2A000000 		.4byte	.LBB584
 10562 3de6 A0010000 		.4byte	.Ldebug_ranges0+0x1a0
 10563 3dea 01       		.byte	0x1
 10564 3deb 4E03     		.2byte	0x34e
 10565 3ded 5F3E0000 		.4byte	0x3e5f
 10566 3df1 3B       		.uleb128 0x3b
 10567 3df2 DE450000 		.4byte	0x45de
 10568 3df6 C10E0000 		.4byte	.LLST49
 10569 3dfa 3E       		.uleb128 0x3e
 10570 3dfb A0010000 		.4byte	.Ldebug_ranges0+0x1a0
 10571 3dff 3D       		.uleb128 0x3d
 10572 3e00 E9450000 		.4byte	0x45e9
 10573 3e04 DF0E0000 		.4byte	.LLST50
 10574 3e08 52       		.uleb128 0x52
 10575 3e09 6E460000 		.4byte	0x466e
 10576 3e0d 2A000000 		.4byte	.LBB586
 10577 3e11 B8010000 		.4byte	.Ldebug_ranges0+0x1b8
 10578 3e15 01       		.byte	0x1
 10579 3e16 76       		.byte	0x76
 10580 3e17 353E0000 		.4byte	0x3e35
 10581 3e1b 3B       		.uleb128 0x3b
 10582 3e1c 7B460000 		.4byte	0x467b
 10583 3e20 F40E0000 		.4byte	.LLST51
 10584 3e24 42       		.uleb128 0x42
 10585 3e25 36000000 		.4byte	.LVL106
 10586 3e29 7C4B0000 		.4byte	0x4b7c
 10587 3e2d 43       		.uleb128 0x43
 10588 3e2e 01       		.uleb128 0x1
 10589 3e2f 50       		.byte	0x50
 10590 3e30 02       		.uleb128 0x2
ARM GAS  /tmp/ccqRaZSa.s 			page 187


 10591 3e31 08       		.byte	0x8
 10592 3e32 20       		.byte	0x20
 10593 3e33 00       		.byte	0
 10594 3e34 00       		.byte	0
 10595 3e35 45       		.uleb128 0x45
 10596 3e36 6E460000 		.4byte	0x466e
 10597 3e3a 40000000 		.4byte	.LBB590
 10598 3e3e 06000000 		.4byte	.LBE590-.LBB590
 10599 3e42 01       		.byte	0x1
 10600 3e43 7D       		.byte	0x7d
 10601 3e44 3B       		.uleb128 0x3b
 10602 3e45 7B460000 		.4byte	0x467b
 10603 3e49 090F0000 		.4byte	.LLST52
 10604 3e4d 42       		.uleb128 0x42
 10605 3e4e 46000000 		.4byte	.LVL108
 10606 3e52 7C4B0000 		.4byte	0x4b7c
 10607 3e56 43       		.uleb128 0x43
 10608 3e57 01       		.uleb128 0x1
 10609 3e58 50       		.byte	0x50
 10610 3e59 01       		.uleb128 0x1
 10611 3e5a 3C       		.byte	0x3c
 10612 3e5b 00       		.byte	0
 10613 3e5c 00       		.byte	0
 10614 3e5d 00       		.byte	0
 10615 3e5e 00       		.byte	0
 10616 3e5f 39       		.uleb128 0x39
 10617 3e60 A6450000 		.4byte	0x45a6
 10618 3e64 54000000 		.4byte	.LBB594
 10619 3e68 D0010000 		.4byte	.Ldebug_ranges0+0x1d0
 10620 3e6c 01       		.byte	0x1
 10621 3e6d 5403     		.2byte	0x354
 10622 3e6f 9E3E0000 		.4byte	0x3e9e
 10623 3e73 3B       		.uleb128 0x3b
 10624 3e74 B2450000 		.4byte	0x45b2
 10625 3e78 290F0000 		.4byte	.LLST53
 10626 3e7c 3B       		.uleb128 0x3b
 10627 3e7d B2450000 		.4byte	0x45b2
 10628 3e81 290F0000 		.4byte	.LLST53
 10629 3e85 3E       		.uleb128 0x3e
 10630 3e86 D0010000 		.4byte	.Ldebug_ranges0+0x1d0
 10631 3e8a 3D       		.uleb128 0x3d
 10632 3e8b BD450000 		.4byte	0x45bd
 10633 3e8f 470F0000 		.4byte	.LLST55
 10634 3e93 3D       		.uleb128 0x3d
 10635 3e94 C8450000 		.4byte	0x45c8
 10636 3e98 5A0F0000 		.4byte	.LLST56
 10637 3e9c 00       		.byte	0
 10638 3e9d 00       		.byte	0
 10639 3e9e 35       		.uleb128 0x35
 10640 3e9f C4460000 		.4byte	0x46c4
 10641 3ea3 F6000000 		.4byte	.LBB600
 10642 3ea7 04000000 		.4byte	.LBE600-.LBB600
 10643 3eab 01       		.byte	0x1
 10644 3eac 6903     		.2byte	0x369
 10645 3eae CF3E0000 		.4byte	0x3ecf
 10646 3eb2 3B       		.uleb128 0x3b
 10647 3eb3 D4460000 		.4byte	0x46d4
ARM GAS  /tmp/ccqRaZSa.s 			page 188


 10648 3eb7 790F0000 		.4byte	.LLST57
 10649 3ebb 38       		.uleb128 0x38
 10650 3ebc F6000000 		.4byte	.LBB601
 10651 3ec0 04000000 		.4byte	.LBE601-.LBB601
 10652 3ec4 44       		.uleb128 0x44
 10653 3ec5 FA000000 		.4byte	.LVL121
 10654 3ec9 934B0000 		.4byte	0x4b93
 10655 3ecd 00       		.byte	0
 10656 3ece 00       		.byte	0
 10657 3ecf 53       		.uleb128 0x53
 10658 3ed0 DE000000 		.4byte	.LVL117
 10659 3ed4 9F4B0000 		.4byte	0x4b9f
 10660 3ed8 E83E0000 		.4byte	0x3ee8
 10661 3edc 43       		.uleb128 0x43
 10662 3edd 01       		.uleb128 0x1
 10663 3ede 50       		.byte	0x50
 10664 3edf 02       		.uleb128 0x2
 10665 3ee0 08       		.byte	0x8
 10666 3ee1 43       		.byte	0x43
 10667 3ee2 43       		.uleb128 0x43
 10668 3ee3 01       		.uleb128 0x1
 10669 3ee4 51       		.byte	0x51
 10670 3ee5 01       		.uleb128 0x1
 10671 3ee6 3E       		.byte	0x3e
 10672 3ee7 00       		.byte	0
 10673 3ee8 53       		.uleb128 0x53
 10674 3ee9 F4000000 		.4byte	.LVL119
 10675 3eed AA4B0000 		.4byte	0x4baa
 10676 3ef1 1A3F0000 		.4byte	0x3f1a
 10677 3ef5 43       		.uleb128 0x43
 10678 3ef6 01       		.uleb128 0x1
 10679 3ef7 50       		.byte	0x50
 10680 3ef8 03       		.uleb128 0x3
 10681 3ef9 75       		.byte	0x75
 10682 3efa E800     		.sleb128 104
 10683 3efc 43       		.uleb128 0x43
 10684 3efd 01       		.uleb128 0x1
 10685 3efe 51       		.byte	0x51
 10686 3eff 03       		.uleb128 0x3
 10687 3f00 0A       		.byte	0xa
 10688 3f01 2002     		.2byte	0x220
 10689 3f03 43       		.uleb128 0x43
 10690 3f04 01       		.uleb128 0x1
 10691 3f05 52       		.byte	0x52
 10692 3f06 02       		.uleb128 0x2
 10693 3f07 08       		.byte	0x8
 10694 3f08 7E       		.byte	0x7e
 10695 3f09 43       		.uleb128 0x43
 10696 3f0a 01       		.uleb128 0x1
 10697 3f0b 53       		.byte	0x53
 10698 3f0c 05       		.uleb128 0x5
 10699 3f0d 03       		.byte	0x3
 10700 3f0e 00000000 		.4byte	usb_lld_pump
 10701 3f12 43       		.uleb128 0x43
 10702 3f13 02       		.uleb128 0x2
 10703 3f14 7D       		.byte	0x7d
 10704 3f15 00       		.sleb128 0
ARM GAS  /tmp/ccqRaZSa.s 			page 189


 10705 3f16 02       		.uleb128 0x2
 10706 3f17 75       		.byte	0x75
 10707 3f18 00       		.sleb128 0
 10708 3f19 00       		.byte	0
 10709 3f1a 44       		.uleb128 0x44
 10710 3f1b FE000000 		.4byte	.LVL122
 10711 3f1f 654B0000 		.4byte	0x4b65
 10712 3f23 00       		.byte	0
 10713 3f24 2F       		.uleb128 0x2f
 10714 3f25 33130000 		.4byte	.LASF681
 10715 3f29 01       		.byte	0x1
 10716 3f2a D902     		.2byte	0x2d9
 10717 3f2c 00000000 		.4byte	.LFB274
 10718 3f30 44000000 		.4byte	.LFE274-.LFB274
 10719 3f34 01       		.uleb128 0x1
 10720 3f35 9C       		.byte	0x9c
 10721 3f36 AB3F0000 		.4byte	0x3fab
 10722 3f3a 54       		.uleb128 0x54
 10723 3f3b 70010000 		.4byte	.Ldebug_ranges0+0x170
 10724 3f3f 9A3F0000 		.4byte	0x3f9a
 10725 3f43 50       		.uleb128 0x50
 10726 3f44 77737000 		.ascii	"wsp\000"
 10727 3f48 01       		.byte	0x1
 10728 3f49 E802     		.2byte	0x2e8
 10729 3f4b 50010000 		.4byte	0x150
 10730 3f4f 06       		.uleb128 0x6
 10731 3f50 03       		.byte	0x3
 10732 3f51 68000000 		.4byte	USBD1+104
 10733 3f55 9F       		.byte	0x9f
 10734 3f56 53       		.uleb128 0x53
 10735 3f57 2A000000 		.4byte	.LVL101
 10736 3f5b B54B0000 		.4byte	0x4bb5
 10737 3f5f 773F0000 		.4byte	0x3f77
 10738 3f63 43       		.uleb128 0x43
 10739 3f64 01       		.uleb128 0x1
 10740 3f65 50       		.byte	0x50
 10741 3f66 03       		.uleb128 0x3
 10742 3f67 74       		.byte	0x74
 10743 3f68 E800     		.sleb128 104
 10744 3f6a 43       		.uleb128 0x43
 10745 3f6b 01       		.uleb128 0x1
 10746 3f6c 51       		.byte	0x51
 10747 3f6d 02       		.uleb128 0x2
 10748 3f6e 75       		.byte	0x75
 10749 3f6f 00       		.sleb128 0
 10750 3f70 43       		.uleb128 0x43
 10751 3f71 01       		.uleb128 0x1
 10752 3f72 52       		.byte	0x52
 10753 3f73 02       		.uleb128 0x2
 10754 3f74 09       		.byte	0x9
 10755 3f75 FF       		.byte	0xff
 10756 3f76 00       		.byte	0
 10757 3f77 55       		.uleb128 0x55
 10758 3f78 3A000000 		.4byte	.LVL102
 10759 3f7c B54B0000 		.4byte	0x4bb5
 10760 3f80 43       		.uleb128 0x43
 10761 3f81 01       		.uleb128 0x1
ARM GAS  /tmp/ccqRaZSa.s 			page 190


 10762 3f82 50       		.byte	0x50
 10763 3f83 05       		.uleb128 0x5
 10764 3f84 03       		.byte	0x3
 10765 3f85 B8000000 		.4byte	.LANCHOR0+184
 10766 3f89 43       		.uleb128 0x43
 10767 3f8a 01       		.uleb128 0x1
 10768 3f8b 51       		.byte	0x51
 10769 3f8c 05       		.uleb128 0x5
 10770 3f8d 03       		.byte	0x3
 10771 3f8e 88020000 		.4byte	.LANCHOR0+648
 10772 3f92 43       		.uleb128 0x43
 10773 3f93 01       		.uleb128 0x1
 10774 3f94 52       		.byte	0x52
 10775 3f95 02       		.uleb128 0x2
 10776 3f96 08       		.byte	0x8
 10777 3f97 55       		.byte	0x55
 10778 3f98 00       		.byte	0
 10779 3f99 00       		.byte	0
 10780 3f9a 42       		.uleb128 0x42
 10781 3f9b 0A000000 		.4byte	.LVL99
 10782 3f9f C04B0000 		.4byte	0x4bc0
 10783 3fa3 43       		.uleb128 0x43
 10784 3fa4 01       		.uleb128 0x1
 10785 3fa5 50       		.byte	0x50
 10786 3fa6 02       		.uleb128 0x2
 10787 3fa7 74       		.byte	0x74
 10788 3fa8 00       		.sleb128 0
 10789 3fa9 00       		.byte	0
 10790 3faa 00       		.byte	0
 10791 3fab 2F       		.uleb128 0x2f
 10792 3fac 2C0E0000 		.4byte	.LASF682
 10793 3fb0 01       		.byte	0x1
 10794 3fb1 B302     		.2byte	0x2b3
 10795 3fb3 00000000 		.4byte	.LFB273
 10796 3fb7 F4000000 		.4byte	.LFE273-.LFB273
 10797 3fbb 01       		.uleb128 0x1
 10798 3fbc 9C       		.byte	0x9c
 10799 3fbd D9410000 		.4byte	0x41d9
 10800 3fc1 39       		.uleb128 0x39
 10801 3fc2 D9410000 		.4byte	0x41d9
 10802 3fc6 02000000 		.4byte	.LBB711
 10803 3fca D0020000 		.4byte	.Ldebug_ranges0+0x2d0
 10804 3fce 01       		.byte	0x1
 10805 3fcf B702     		.2byte	0x2b7
 10806 3fd1 BD410000 		.4byte	0x41bd
 10807 3fd5 3B       		.uleb128 0x3b
 10808 3fd6 E6410000 		.4byte	0x41e6
 10809 3fda 8C0F0000 		.4byte	.LLST125
 10810 3fde 3E       		.uleb128 0x3e
 10811 3fdf D0020000 		.4byte	.Ldebug_ranges0+0x2d0
 10812 3fe3 3D       		.uleb128 0x3d
 10813 3fe4 F2410000 		.4byte	0x41f2
 10814 3fe8 D40F0000 		.4byte	.LLST126
 10815 3fec 3D       		.uleb128 0x3d
 10816 3fed FE410000 		.4byte	0x41fe
 10817 3ff1 FD0F0000 		.4byte	.LLST127
 10818 3ff5 3D       		.uleb128 0x3d
ARM GAS  /tmp/ccqRaZSa.s 			page 191


 10819 3ff6 0A420000 		.4byte	0x420a
 10820 3ffa 3D100000 		.4byte	.LLST128
 10821 3ffe 35       		.uleb128 0x35
 10822 3fff 91460000 		.4byte	0x4691
 10823 4003 60000000 		.4byte	.LBB713
 10824 4007 02000000 		.4byte	.LBE713-.LBB713
 10825 400b 01       		.byte	0x1
 10826 400c 7C02     		.2byte	0x27c
 10827 400e 56400000 		.4byte	0x4056
 10828 4012 36       		.uleb128 0x36
 10829 4013 0A470000 		.4byte	0x470a
 10830 4017 60000000 		.4byte	.LBB714
 10831 401b 02000000 		.4byte	.LBE714-.LBB714
 10832 401f 04       		.byte	0x4
 10833 4020 0302     		.2byte	0x203
 10834 4022 36       		.uleb128 0x36
 10835 4023 40470000 		.4byte	0x4740
 10836 4027 60000000 		.4byte	.LBB715
 10837 402b 02000000 		.4byte	.LBE715-.LBB715
 10838 402f 2B       		.byte	0x2b
 10839 4030 8401     		.2byte	0x184
 10840 4032 36       		.uleb128 0x36
 10841 4033 52470000 		.4byte	0x4752
 10842 4037 60000000 		.4byte	.LBB716
 10843 403b 02000000 		.4byte	.LBE716-.LBB716
 10844 403f 13       		.byte	0x13
 10845 4040 DB01     		.2byte	0x1db
 10846 4042 37       		.uleb128 0x37
 10847 4043 5B470000 		.4byte	0x475b
 10848 4047 60000000 		.4byte	.LBB717
 10849 404b 02000000 		.4byte	.LBE717-.LBB717
 10850 404f 13       		.byte	0x13
 10851 4050 C101     		.2byte	0x1c1
 10852 4052 00       		.byte	0
 10853 4053 00       		.byte	0
 10854 4054 00       		.byte	0
 10855 4055 00       		.byte	0
 10856 4056 39       		.uleb128 0x39
 10857 4057 21460000 		.4byte	0x4621
 10858 405b 64000000 		.4byte	.LBB719
 10859 405f F8020000 		.4byte	.Ldebug_ranges0+0x2f8
 10860 4063 01       		.byte	0x1
 10861 4064 7E02     		.2byte	0x27e
 10862 4066 95400000 		.4byte	0x4095
 10863 406a 3B       		.uleb128 0x3b
 10864 406b 3A460000 		.4byte	0x463a
 10865 406f 71100000 		.4byte	.LLST129
 10866 4073 3B       		.uleb128 0x3b
 10867 4074 2E460000 		.4byte	0x462e
 10868 4078 85100000 		.4byte	.LLST130
 10869 407c 42       		.uleb128 0x42
 10870 407d 72000000 		.4byte	.LVL242
 10871 4081 CC4B0000 		.4byte	0x4bcc
 10872 4085 43       		.uleb128 0x43
 10873 4086 01       		.uleb128 0x1
 10874 4087 50       		.byte	0x50
 10875 4088 05       		.uleb128 0x5
ARM GAS  /tmp/ccqRaZSa.s 			page 192


 10876 4089 03       		.byte	0x3
 10877 408a 60000000 		.4byte	.LANCHOR0+96
 10878 408e 43       		.uleb128 0x43
 10879 408f 01       		.uleb128 0x1
 10880 4090 51       		.byte	0x51
 10881 4091 01       		.uleb128 0x1
 10882 4092 30       		.byte	0x30
 10883 4093 00       		.byte	0
 10884 4094 00       		.byte	0
 10885 4095 35       		.uleb128 0x35
 10886 4096 88460000 		.4byte	0x4688
 10887 409a 72000000 		.4byte	.LBB723
 10888 409e 02000000 		.4byte	.LBE723-.LBB723
 10889 40a2 01       		.byte	0x1
 10890 40a3 7F02     		.2byte	0x27f
 10891 40a5 ED400000 		.4byte	0x40ed
 10892 40a9 36       		.uleb128 0x36
 10893 40aa 01470000 		.4byte	0x4701
 10894 40ae 72000000 		.4byte	.LBB724
 10895 40b2 02000000 		.4byte	.LBE724-.LBB724
 10896 40b6 04       		.byte	0x4
 10897 40b7 0E02     		.2byte	0x20e
 10898 40b9 36       		.uleb128 0x36
 10899 40ba 37470000 		.4byte	0x4737
 10900 40be 72000000 		.4byte	.LBB725
 10901 40c2 02000000 		.4byte	.LBE725-.LBB725
 10902 40c6 2B       		.byte	0x2b
 10903 40c7 9A01     		.2byte	0x19a
 10904 40c9 36       		.uleb128 0x36
 10905 40ca 49470000 		.4byte	0x4749
 10906 40ce 72000000 		.4byte	.LBB726
 10907 40d2 02000000 		.4byte	.LBE726-.LBB726
 10908 40d6 13       		.byte	0x13
 10909 40d7 E601     		.2byte	0x1e6
 10910 40d9 37       		.uleb128 0x37
 10911 40da 64470000 		.4byte	0x4764
 10912 40de 72000000 		.4byte	.LBB727
 10913 40e2 02000000 		.4byte	.LBE727-.LBB727
 10914 40e6 13       		.byte	0x13
 10915 40e7 CF01     		.2byte	0x1cf
 10916 40e9 00       		.byte	0
 10917 40ea 00       		.byte	0
 10918 40eb 00       		.byte	0
 10919 40ec 00       		.byte	0
 10920 40ed 56       		.uleb128 0x56
 10921 40ee 28000000 		.4byte	.LVL236
 10922 40f2 FD400000 		.4byte	0x40fd
 10923 40f6 43       		.uleb128 0x43
 10924 40f7 01       		.uleb128 0x1
 10925 40f8 50       		.byte	0x50
 10926 40f9 02       		.uleb128 0x2
 10927 40fa 76       		.byte	0x76
 10928 40fb 00       		.sleb128 0
 10929 40fc 00       		.byte	0
 10930 40fd 53       		.uleb128 0x53
 10931 40fe 88000000 		.4byte	.LVL246
 10932 4102 D74B0000 		.4byte	0x4bd7
ARM GAS  /tmp/ccqRaZSa.s 			page 193


 10933 4106 11410000 		.4byte	0x4111
 10934 410a 43       		.uleb128 0x43
 10935 410b 01       		.uleb128 0x1
 10936 410c 50       		.byte	0x50
 10937 410d 02       		.uleb128 0x2
 10938 410e 76       		.byte	0x76
 10939 410f 00       		.sleb128 0
 10940 4110 00       		.byte	0
 10941 4111 56       		.uleb128 0x56
 10942 4112 96000000 		.4byte	.LVL247
 10943 4116 27410000 		.4byte	0x4127
 10944 411a 43       		.uleb128 0x43
 10945 411b 01       		.uleb128 0x1
 10946 411c 50       		.byte	0x50
 10947 411d 02       		.uleb128 0x2
 10948 411e 76       		.byte	0x76
 10949 411f 00       		.sleb128 0
 10950 4120 43       		.uleb128 0x43
 10951 4121 01       		.uleb128 0x1
 10952 4122 51       		.byte	0x51
 10953 4123 02       		.uleb128 0x2
 10954 4124 74       		.byte	0x74
 10955 4125 00       		.sleb128 0
 10956 4126 00       		.byte	0
 10957 4127 53       		.uleb128 0x53
 10958 4128 A4000000 		.4byte	.LVL249
 10959 412c 6D470000 		.4byte	0x476d
 10960 4130 3A410000 		.4byte	0x413a
 10961 4134 43       		.uleb128 0x43
 10962 4135 01       		.uleb128 0x1
 10963 4136 50       		.byte	0x50
 10964 4137 01       		.uleb128 0x1
 10965 4138 33       		.byte	0x33
 10966 4139 00       		.byte	0
 10967 413a 53       		.uleb128 0x53
 10968 413b B2000000 		.4byte	.LVL251
 10969 413f D1480000 		.4byte	0x48d1
 10970 4143 4D410000 		.4byte	0x414d
 10971 4147 43       		.uleb128 0x43
 10972 4148 01       		.uleb128 0x1
 10973 4149 50       		.byte	0x50
 10974 414a 01       		.uleb128 0x1
 10975 414b 33       		.byte	0x33
 10976 414c 00       		.byte	0
 10977 414d 53       		.uleb128 0x53
 10978 414e BE000000 		.4byte	.LVL253
 10979 4152 6D470000 		.4byte	0x476d
 10980 4156 60410000 		.4byte	0x4160
 10981 415a 43       		.uleb128 0x43
 10982 415b 01       		.uleb128 0x1
 10983 415c 50       		.byte	0x50
 10984 415d 01       		.uleb128 0x1
 10985 415e 31       		.byte	0x31
 10986 415f 00       		.byte	0
 10987 4160 53       		.uleb128 0x53
 10988 4161 C8000000 		.4byte	.LVL254
 10989 4165 6D470000 		.4byte	0x476d
ARM GAS  /tmp/ccqRaZSa.s 			page 194


 10990 4169 73410000 		.4byte	0x4173
 10991 416d 43       		.uleb128 0x43
 10992 416e 01       		.uleb128 0x1
 10993 416f 50       		.byte	0x50
 10994 4170 01       		.uleb128 0x1
 10995 4171 32       		.byte	0x32
 10996 4172 00       		.byte	0
 10997 4173 53       		.uleb128 0x53
 10998 4174 D0000000 		.4byte	.LVL255
 10999 4178 6D470000 		.4byte	0x476d
 11000 417c 86410000 		.4byte	0x4186
 11001 4180 43       		.uleb128 0x43
 11002 4181 01       		.uleb128 0x1
 11003 4182 50       		.byte	0x50
 11004 4183 01       		.uleb128 0x1
 11005 4184 30       		.byte	0x30
 11006 4185 00       		.byte	0
 11007 4186 53       		.uleb128 0x53
 11008 4187 D8000000 		.4byte	.LVL257
 11009 418b D1480000 		.4byte	0x48d1
 11010 418f 99410000 		.4byte	0x4199
 11011 4193 43       		.uleb128 0x43
 11012 4194 01       		.uleb128 0x1
 11013 4195 50       		.byte	0x50
 11014 4196 01       		.uleb128 0x1
 11015 4197 32       		.byte	0x32
 11016 4198 00       		.byte	0
 11017 4199 53       		.uleb128 0x53
 11018 419a E0000000 		.4byte	.LVL258
 11019 419e D1480000 		.4byte	0x48d1
 11020 41a2 AC410000 		.4byte	0x41ac
 11021 41a6 43       		.uleb128 0x43
 11022 41a7 01       		.uleb128 0x1
 11023 41a8 50       		.byte	0x50
 11024 41a9 01       		.uleb128 0x1
 11025 41aa 31       		.byte	0x31
 11026 41ab 00       		.byte	0
 11027 41ac 42       		.uleb128 0x42
 11028 41ad E8000000 		.4byte	.LVL259
 11029 41b1 D1480000 		.4byte	0x48d1
 11030 41b5 43       		.uleb128 0x43
 11031 41b6 01       		.uleb128 0x1
 11032 41b7 50       		.byte	0x50
 11033 41b8 01       		.uleb128 0x1
 11034 41b9 30       		.byte	0x30
 11035 41ba 00       		.byte	0
 11036 41bb 00       		.byte	0
 11037 41bc 00       		.byte	0
 11038 41bd 57       		.uleb128 0x57
 11039 41be 60000000 		.4byte	.LVL240
 11040 41c2 E34B0000 		.4byte	0x4be3
 11041 41c6 57       		.uleb128 0x57
 11042 41c7 9E000000 		.4byte	.LVL248
 11043 41cb E34B0000 		.4byte	0x4be3
 11044 41cf 57       		.uleb128 0x57
 11045 41d0 AC000000 		.4byte	.LVL250
 11046 41d4 E34B0000 		.4byte	0x4be3
ARM GAS  /tmp/ccqRaZSa.s 			page 195


 11047 41d8 00       		.byte	0
 11048 41d9 58       		.uleb128 0x58
 11049 41da 78130000 		.4byte	.LASF684
 11050 41de 01       		.byte	0x1
 11051 41df 5A02     		.2byte	0x25a
 11052 41e1 01       		.byte	0x1
 11053 41e2 17420000 		.4byte	0x4217
 11054 41e6 4B       		.uleb128 0x4b
 11055 41e7 211C0000 		.4byte	.LASF658
 11056 41eb 01       		.byte	0x1
 11057 41ec 5A02     		.2byte	0x25a
 11058 41ee E6260000 		.4byte	0x26e6
 11059 41f2 34       		.uleb128 0x34
 11060 41f3 42170000 		.4byte	.LASF659
 11061 41f7 01       		.byte	0x1
 11062 41f8 5B02     		.2byte	0x25b
 11063 41fa 532F0000 		.4byte	0x2f53
 11064 41fe 59       		.uleb128 0x59
 11065 41ff 73747300 		.ascii	"sts\000"
 11066 4203 01       		.byte	0x1
 11067 4204 5C02     		.2byte	0x25c
 11068 4206 04090000 		.4byte	0x904
 11069 420a 59       		.uleb128 0x59
 11070 420b 73726300 		.ascii	"src\000"
 11071 420f 01       		.byte	0x1
 11072 4210 5C02     		.2byte	0x25c
 11073 4212 04090000 		.4byte	0x904
 11074 4216 00       		.byte	0
 11075 4217 58       		.uleb128 0x58
 11076 4218 62010000 		.4byte	.LASF685
 11077 421c 01       		.byte	0x1
 11078 421d 3002     		.2byte	0x230
 11079 421f 01       		.byte	0x1
 11080 4220 62420000 		.4byte	0x4262
 11081 4224 4B       		.uleb128 0x4b
 11082 4225 211C0000 		.4byte	.LASF658
 11083 4229 01       		.byte	0x1
 11084 422a 3002     		.2byte	0x230
 11085 422c E6260000 		.4byte	0x26e6
 11086 4230 4C       		.uleb128 0x4c
 11087 4231 657000   		.ascii	"ep\000"
 11088 4234 01       		.byte	0x1
 11089 4235 3002     		.2byte	0x230
 11090 4237 99250000 		.4byte	0x2599
 11091 423b 34       		.uleb128 0x34
 11092 423c 42170000 		.4byte	.LASF659
 11093 4240 01       		.byte	0x1
 11094 4241 3102     		.2byte	0x231
 11095 4243 532F0000 		.4byte	0x2f53
 11096 4247 34       		.uleb128 0x34
 11097 4248 CA010000 		.4byte	.LASF686
 11098 424c 01       		.byte	0x1
 11099 424d 3202     		.2byte	0x232
 11100 424f 04090000 		.4byte	0x904
 11101 4253 5A       		.uleb128 0x5a
 11102 4254 59       		.uleb128 0x59
 11103 4255 6F737000 		.ascii	"osp\000"
ARM GAS  /tmp/ccqRaZSa.s 			page 196


 11104 4259 01       		.byte	0x1
 11105 425a 3F02     		.2byte	0x23f
 11106 425c C12E0000 		.4byte	0x2ec1
 11107 4260 00       		.byte	0
 11108 4261 00       		.byte	0
 11109 4262 58       		.uleb128 0x58
 11110 4263 89170000 		.4byte	.LASF687
 11111 4267 01       		.byte	0x1
 11112 4268 0002     		.2byte	0x200
 11113 426a 01       		.byte	0x1
 11114 426b AD420000 		.4byte	0x42ad
 11115 426f 4B       		.uleb128 0x4b
 11116 4270 211C0000 		.4byte	.LASF658
 11117 4274 01       		.byte	0x1
 11118 4275 0002     		.2byte	0x200
 11119 4277 E6260000 		.4byte	0x26e6
 11120 427b 4C       		.uleb128 0x4c
 11121 427c 657000   		.ascii	"ep\000"
 11122 427f 01       		.byte	0x1
 11123 4280 0002     		.2byte	0x200
 11124 4282 99250000 		.4byte	0x2599
 11125 4286 34       		.uleb128 0x34
 11126 4287 42170000 		.4byte	.LASF659
 11127 428b 01       		.byte	0x1
 11128 428c 0102     		.2byte	0x201
 11129 428e 532F0000 		.4byte	0x2f53
 11130 4292 34       		.uleb128 0x34
 11131 4293 CA010000 		.4byte	.LASF686
 11132 4297 01       		.byte	0x1
 11133 4298 0202     		.2byte	0x202
 11134 429a 04090000 		.4byte	0x904
 11135 429e 5A       		.uleb128 0x5a
 11136 429f 59       		.uleb128 0x59
 11137 42a0 69737000 		.ascii	"isp\000"
 11138 42a4 01       		.byte	0x1
 11139 42a5 0B02     		.2byte	0x20b
 11140 42a7 BB2E0000 		.4byte	0x2ebb
 11141 42ab 00       		.byte	0
 11142 42ac 00       		.byte	0
 11143 42ad 5B       		.uleb128 0x5b
 11144 42ae A80C0000 		.4byte	.LASF695
 11145 42b2 01       		.byte	0x1
 11146 42b3 CC01     		.2byte	0x1cc
 11147 42b5 7C180000 		.4byte	0x187c
 11148 42b9 01       		.byte	0x1
 11149 42ba E2420000 		.4byte	0x42e2
 11150 42be 4B       		.uleb128 0x4b
 11151 42bf 211C0000 		.4byte	.LASF658
 11152 42c3 01       		.byte	0x1
 11153 42c4 CC01     		.2byte	0x1cc
 11154 42c6 E6260000 		.4byte	0x26e6
 11155 42ca 4C       		.uleb128 0x4c
 11156 42cb 657000   		.ascii	"ep\000"
 11157 42ce 01       		.byte	0x1
 11158 42cf CC01     		.2byte	0x1cc
 11159 42d1 99250000 		.4byte	0x2599
 11160 42d5 5A       		.uleb128 0x5a
ARM GAS  /tmp/ccqRaZSa.s 			page 197


 11161 42d6 59       		.uleb128 0x59
 11162 42d7 6E00     		.ascii	"n\000"
 11163 42d9 01       		.byte	0x1
 11164 42da D001     		.2byte	0x1d0
 11165 42dc 04090000 		.4byte	0x904
 11166 42e0 00       		.byte	0
 11167 42e1 00       		.byte	0
 11168 42e2 58       		.uleb128 0x58
 11169 42e3 2C060000 		.4byte	.LASF688
 11170 42e7 01       		.byte	0x1
 11171 42e8 9D01     		.2byte	0x19d
 11172 42ea 01       		.byte	0x1
 11173 42eb 1F430000 		.4byte	0x431f
 11174 42ef 4B       		.uleb128 0x4b
 11175 42f0 211C0000 		.4byte	.LASF658
 11176 42f4 01       		.byte	0x1
 11177 42f5 9D01     		.2byte	0x19d
 11178 42f7 E6260000 		.4byte	0x26e6
 11179 42fb 59       		.uleb128 0x59
 11180 42fc 73747300 		.ascii	"sts\000"
 11181 4300 01       		.byte	0x1
 11182 4301 9E01     		.2byte	0x19e
 11183 4303 04090000 		.4byte	0x904
 11184 4307 59       		.uleb128 0x59
 11185 4308 636E7400 		.ascii	"cnt\000"
 11186 430c 01       		.byte	0x1
 11187 430d 9E01     		.2byte	0x19e
 11188 430f 04090000 		.4byte	0x904
 11189 4313 59       		.uleb128 0x59
 11190 4314 657000   		.ascii	"ep\000"
 11191 4317 01       		.byte	0x1
 11192 4318 9E01     		.2byte	0x19e
 11193 431a 04090000 		.4byte	0x904
 11194 431e 00       		.byte	0
 11195 431f 58       		.uleb128 0x58
 11196 4320 B7180000 		.4byte	.LASF689
 11197 4324 01       		.byte	0x1
 11198 4325 6701     		.2byte	0x167
 11199 4327 01       		.byte	0x1
 11200 4328 96430000 		.4byte	0x4396
 11201 432c 4B       		.uleb128 0x4b
 11202 432d 60120000 		.4byte	.LASF690
 11203 4331 01       		.byte	0x1
 11204 4332 6701     		.2byte	0x167
 11205 4334 4C190000 		.4byte	0x194c
 11206 4338 4C       		.uleb128 0x4c
 11207 4339 69717000 		.ascii	"iqp\000"
 11208 433d 01       		.byte	0x1
 11209 433e 6801     		.2byte	0x168
 11210 4340 B42D0000 		.4byte	0x2db4
 11211 4344 4C       		.uleb128 0x4c
 11212 4345 6E00     		.ascii	"n\000"
 11213 4347 01       		.byte	0x1
 11214 4348 6901     		.2byte	0x169
 11215 434a 33000000 		.4byte	0x33
 11216 434e 34       		.uleb128 0x34
 11217 434f F1160000 		.4byte	.LASF691
ARM GAS  /tmp/ccqRaZSa.s 			page 198


 11218 4353 01       		.byte	0x1
 11219 4354 6A01     		.2byte	0x16a
 11220 4356 33000000 		.4byte	0x33
 11221 435a 5A       		.uleb128 0x5a
 11222 435b 59       		.uleb128 0x59
 11223 435c 7700     		.ascii	"w\000"
 11224 435e 01       		.byte	0x1
 11225 435f 6E01     		.2byte	0x16e
 11226 4361 04090000 		.4byte	0x904
 11227 4365 59       		.uleb128 0x59
 11228 4366 6900     		.ascii	"i\000"
 11229 4368 01       		.byte	0x1
 11230 4369 6E01     		.2byte	0x16e
 11231 436b 04090000 		.4byte	0x904
 11232 436f 59       		.uleb128 0x59
 11233 4370 6E7700   		.ascii	"nw\000"
 11234 4373 01       		.byte	0x1
 11235 4374 6F01     		.2byte	0x16f
 11236 4376 33000000 		.4byte	0x33
 11237 437a 5A       		.uleb128 0x5a
 11238 437b 34       		.uleb128 0x34
 11239 437c C01E0000 		.4byte	.LASF692
 11240 4380 01       		.byte	0x1
 11241 4381 7201     		.2byte	0x172
 11242 4383 33000000 		.4byte	0x33
 11243 4387 34       		.uleb128 0x34
 11244 4388 9E1C0000 		.4byte	.LASF693
 11245 438c 01       		.byte	0x1
 11246 438d 7301     		.2byte	0x173
 11247 438f 04090000 		.4byte	0x904
 11248 4393 00       		.byte	0
 11249 4394 00       		.byte	0
 11250 4395 00       		.byte	0
 11251 4396 58       		.uleb128 0x58
 11252 4397 DA1E0000 		.4byte	.LASF694
 11253 439b 01       		.byte	0x1
 11254 439c 4A01     		.2byte	0x14a
 11255 439e 01       		.byte	0x1
 11256 439f DE430000 		.4byte	0x43de
 11257 43a3 4B       		.uleb128 0x4b
 11258 43a4 60120000 		.4byte	.LASF690
 11259 43a8 01       		.byte	0x1
 11260 43a9 4A01     		.2byte	0x14a
 11261 43ab 4C190000 		.4byte	0x194c
 11262 43af 4C       		.uleb128 0x4c
 11263 43b0 62756600 		.ascii	"buf\000"
 11264 43b4 01       		.byte	0x1
 11265 43b5 4B01     		.2byte	0x14b
 11266 43b7 E6170000 		.4byte	0x17e6
 11267 43bb 4C       		.uleb128 0x4c
 11268 43bc 6E00     		.ascii	"n\000"
 11269 43be 01       		.byte	0x1
 11270 43bf 4C01     		.2byte	0x14c
 11271 43c1 33000000 		.4byte	0x33
 11272 43c5 4C       		.uleb128 0x4c
 11273 43c6 6D617800 		.ascii	"max\000"
 11274 43ca 01       		.byte	0x1
ARM GAS  /tmp/ccqRaZSa.s 			page 199


 11275 43cb 4D01     		.2byte	0x14d
 11276 43cd 33000000 		.4byte	0x33
 11277 43d1 5A       		.uleb128 0x5a
 11278 43d2 59       		.uleb128 0x59
 11279 43d3 7700     		.ascii	"w\000"
 11280 43d5 01       		.byte	0x1
 11281 43d6 5201     		.2byte	0x152
 11282 43d8 04090000 		.4byte	0x904
 11283 43dc 00       		.byte	0
 11284 43dd 00       		.byte	0
 11285 43de 5B       		.uleb128 0x5b
 11286 43df BA080000 		.4byte	.LASF696
 11287 43e3 01       		.byte	0x1
 11288 43e4 3301     		.2byte	0x133
 11289 43e6 E6170000 		.4byte	0x17e6
 11290 43ea 01       		.byte	0x1
 11291 43eb 1E440000 		.4byte	0x441e
 11292 43ef 4B       		.uleb128 0x4b
 11293 43f0 60120000 		.4byte	.LASF690
 11294 43f4 01       		.byte	0x1
 11295 43f5 3301     		.2byte	0x133
 11296 43f7 4C190000 		.4byte	0x194c
 11297 43fb 4C       		.uleb128 0x4c
 11298 43fc 62756600 		.ascii	"buf\000"
 11299 4400 01       		.byte	0x1
 11300 4401 3301     		.2byte	0x133
 11301 4403 E6170000 		.4byte	0x17e6
 11302 4407 4C       		.uleb128 0x4c
 11303 4408 6E00     		.ascii	"n\000"
 11304 440a 01       		.byte	0x1
 11305 440b 3301     		.2byte	0x133
 11306 440d 33000000 		.4byte	0x33
 11307 4411 5A       		.uleb128 0x5a
 11308 4412 59       		.uleb128 0x59
 11309 4413 7700     		.ascii	"w\000"
 11310 4415 01       		.byte	0x1
 11311 4416 3601     		.2byte	0x136
 11312 4418 04090000 		.4byte	0x904
 11313 441c 00       		.byte	0
 11314 441d 00       		.byte	0
 11315 441e 5C       		.uleb128 0x5c
 11316 441f 441C0000 		.4byte	.LASF697
 11317 4423 01       		.byte	0x1
 11318 4424 F7       		.byte	0xf7
 11319 4425 01       		.byte	0x1
 11320 4426 8D440000 		.4byte	0x448d
 11321 442a 5D       		.uleb128 0x5d
 11322 442b 60120000 		.4byte	.LASF690
 11323 442f 01       		.byte	0x1
 11324 4430 F7       		.byte	0xf7
 11325 4431 4C190000 		.4byte	0x194c
 11326 4435 5E       		.uleb128 0x5e
 11327 4436 6F717000 		.ascii	"oqp\000"
 11328 443a 01       		.byte	0x1
 11329 443b F8       		.byte	0xf8
 11330 443c 112D0000 		.4byte	0x2d11
 11331 4440 5E       		.uleb128 0x5e
ARM GAS  /tmp/ccqRaZSa.s 			page 200


 11332 4441 6E00     		.ascii	"n\000"
 11333 4443 01       		.byte	0x1
 11334 4444 F9       		.byte	0xf9
 11335 4445 33000000 		.4byte	0x33
 11336 4449 5F       		.uleb128 0x5f
 11337 444a F1160000 		.4byte	.LASF691
 11338 444e 01       		.byte	0x1
 11339 444f FA       		.byte	0xfa
 11340 4450 33000000 		.4byte	0x33
 11341 4454 5A       		.uleb128 0x5a
 11342 4455 60       		.uleb128 0x60
 11343 4456 7700     		.ascii	"w\000"
 11344 4458 01       		.byte	0x1
 11345 4459 FE       		.byte	0xfe
 11346 445a 04090000 		.4byte	0x904
 11347 445e 60       		.uleb128 0x60
 11348 445f 6900     		.ascii	"i\000"
 11349 4461 01       		.byte	0x1
 11350 4462 FE       		.byte	0xfe
 11351 4463 04090000 		.4byte	0x904
 11352 4467 60       		.uleb128 0x60
 11353 4468 6E7700   		.ascii	"nw\000"
 11354 446b 01       		.byte	0x1
 11355 446c FF       		.byte	0xff
 11356 446d 33000000 		.4byte	0x33
 11357 4471 5A       		.uleb128 0x5a
 11358 4472 34       		.uleb128 0x34
 11359 4473 C01E0000 		.4byte	.LASF692
 11360 4477 01       		.byte	0x1
 11361 4478 0201     		.2byte	0x102
 11362 447a 33000000 		.4byte	0x33
 11363 447e 34       		.uleb128 0x34
 11364 447f 9E1C0000 		.4byte	.LASF693
 11365 4483 01       		.byte	0x1
 11366 4484 0301     		.2byte	0x103
 11367 4486 04090000 		.4byte	0x904
 11368 448a 00       		.byte	0
 11369 448b 00       		.byte	0
 11370 448c 00       		.byte	0
 11371 448d 5C       		.uleb128 0x5c
 11372 448e 95030000 		.4byte	.LASF698
 11373 4492 01       		.byte	0x1
 11374 4493 E7       		.byte	0xe7
 11375 4494 01       		.byte	0x1
 11376 4495 B9440000 		.4byte	0x44b9
 11377 4499 5D       		.uleb128 0x5d
 11378 449a 60120000 		.4byte	.LASF690
 11379 449e 01       		.byte	0x1
 11380 449f E7       		.byte	0xe7
 11381 44a0 4C190000 		.4byte	0x194c
 11382 44a4 5E       		.uleb128 0x5e
 11383 44a5 62756600 		.ascii	"buf\000"
 11384 44a9 01       		.byte	0x1
 11385 44aa E8       		.byte	0xe8
 11386 44ab 1B180000 		.4byte	0x181b
 11387 44af 5E       		.uleb128 0x5e
 11388 44b0 6E00     		.ascii	"n\000"
ARM GAS  /tmp/ccqRaZSa.s 			page 201


 11389 44b2 01       		.byte	0x1
 11390 44b3 E9       		.byte	0xe9
 11391 44b4 33000000 		.4byte	0x33
 11392 44b8 00       		.byte	0
 11393 44b9 61       		.uleb128 0x61
 11394 44ba B4130000 		.4byte	.LASF699
 11395 44be 01       		.byte	0x1
 11396 44bf D2       		.byte	0xd2
 11397 44c0 E6170000 		.4byte	0x17e6
 11398 44c4 01       		.byte	0x1
 11399 44c5 E9440000 		.4byte	0x44e9
 11400 44c9 5D       		.uleb128 0x5d
 11401 44ca 60120000 		.4byte	.LASF690
 11402 44ce 01       		.byte	0x1
 11403 44cf D2       		.byte	0xd2
 11404 44d0 4C190000 		.4byte	0x194c
 11405 44d4 5E       		.uleb128 0x5e
 11406 44d5 62756600 		.ascii	"buf\000"
 11407 44d9 01       		.byte	0x1
 11408 44da D2       		.byte	0xd2
 11409 44db E6170000 		.4byte	0x17e6
 11410 44df 5E       		.uleb128 0x5e
 11411 44e0 6E00     		.ascii	"n\000"
 11412 44e2 01       		.byte	0x1
 11413 44e3 D2       		.byte	0xd2
 11414 44e4 33000000 		.4byte	0x33
 11415 44e8 00       		.byte	0
 11416 44e9 61       		.uleb128 0x61
 11417 44ea 5E0D0000 		.4byte	.LASF700
 11418 44ee 01       		.byte	0x1
 11419 44ef BC       		.byte	0xbc
 11420 44f0 04090000 		.4byte	0x904
 11421 44f4 01       		.byte	0x1
 11422 44f5 28450000 		.4byte	0x4528
 11423 44f9 5D       		.uleb128 0x5d
 11424 44fa 211C0000 		.4byte	.LASF658
 11425 44fe 01       		.byte	0x1
 11426 44ff BC       		.byte	0xbc
 11427 4500 E6260000 		.4byte	0x26e6
 11428 4504 5D       		.uleb128 0x5d
 11429 4505 8C0B0000 		.4byte	.LASF701
 11430 4509 01       		.byte	0x1
 11431 450a BC       		.byte	0xbc
 11432 450b 33000000 		.4byte	0x33
 11433 450f 5F       		.uleb128 0x5f
 11434 4510 9B010000 		.4byte	.LASF702
 11435 4514 01       		.byte	0x1
 11436 4515 BD       		.byte	0xbd
 11437 4516 04090000 		.4byte	0x904
 11438 451a 62       		.uleb128 0x62
 11439 451b 33000000 		.4byte	.LASF703
 11440 451f 38450000 		.4byte	0x4538
 11441 4523 5E0D0000 		.4byte	.LASF700
 11442 4527 00       		.byte	0
 11443 4528 0B       		.uleb128 0xb
 11444 4529 5F010000 		.4byte	0x15f
 11445 452d 38450000 		.4byte	0x4538
ARM GAS  /tmp/ccqRaZSa.s 			page 202


 11446 4531 0C       		.uleb128 0xc
 11447 4532 25000000 		.4byte	0x25
 11448 4536 0D       		.byte	0xd
 11449 4537 00       		.byte	0
 11450 4538 10       		.uleb128 0x10
 11451 4539 28450000 		.4byte	0x4528
 11452 453d 5C       		.uleb128 0x5c
 11453 453e 3A1B0000 		.4byte	.LASF704
 11454 4542 01       		.byte	0x1
 11455 4543 AF       		.byte	0xaf
 11456 4544 01       		.byte	0x1
 11457 4545 55450000 		.4byte	0x4555
 11458 4549 5D       		.uleb128 0x5d
 11459 454a 211C0000 		.4byte	.LASF658
 11460 454e 01       		.byte	0x1
 11461 454f AF       		.byte	0xaf
 11462 4550 E6260000 		.4byte	0x26e6
 11463 4554 00       		.byte	0
 11464 4555 5C       		.uleb128 0x5c
 11465 4556 D40F0000 		.4byte	.LASF705
 11466 455a 01       		.byte	0x1
 11467 455b 9E       		.byte	0x9e
 11468 455c 01       		.byte	0x1
 11469 455d 83450000 		.4byte	0x4583
 11470 4561 5D       		.uleb128 0x5d
 11471 4562 211C0000 		.4byte	.LASF658
 11472 4566 01       		.byte	0x1
 11473 4567 9E       		.byte	0x9e
 11474 4568 E6260000 		.4byte	0x26e6
 11475 456c 5D       		.uleb128 0x5d
 11476 456d A4090000 		.4byte	.LASF706
 11477 4571 01       		.byte	0x1
 11478 4572 9E       		.byte	0x9e
 11479 4573 04090000 		.4byte	0x904
 11480 4577 5F       		.uleb128 0x5f
 11481 4578 42170000 		.4byte	.LASF659
 11482 457c 01       		.byte	0x1
 11483 457d 9F       		.byte	0x9f
 11484 457e 532F0000 		.4byte	0x2f53
 11485 4582 00       		.byte	0
 11486 4583 5C       		.uleb128 0x5c
 11487 4584 461D0000 		.4byte	.LASF707
 11488 4588 01       		.byte	0x1
 11489 4589 94       		.byte	0x94
 11490 458a 01       		.byte	0x1
 11491 458b A6450000 		.4byte	0x45a6
 11492 458f 5D       		.uleb128 0x5d
 11493 4590 211C0000 		.4byte	.LASF658
 11494 4594 01       		.byte	0x1
 11495 4595 94       		.byte	0x94
 11496 4596 E6260000 		.4byte	0x26e6
 11497 459a 5F       		.uleb128 0x5f
 11498 459b 42170000 		.4byte	.LASF659
 11499 459f 01       		.byte	0x1
 11500 45a0 95       		.byte	0x95
 11501 45a1 532F0000 		.4byte	0x2f53
 11502 45a5 00       		.byte	0
ARM GAS  /tmp/ccqRaZSa.s 			page 203


 11503 45a6 5C       		.uleb128 0x5c
 11504 45a7 64160000 		.4byte	.LASF708
 11505 45ab 01       		.byte	0x1
 11506 45ac 84       		.byte	0x84
 11507 45ad 01       		.byte	0x1
 11508 45ae D2450000 		.4byte	0x45d2
 11509 45b2 5D       		.uleb128 0x5d
 11510 45b3 211C0000 		.4byte	.LASF658
 11511 45b7 01       		.byte	0x1
 11512 45b8 84       		.byte	0x84
 11513 45b9 E6260000 		.4byte	0x26e6
 11514 45bd 5F       		.uleb128 0x5f
 11515 45be 42170000 		.4byte	.LASF659
 11516 45c2 01       		.byte	0x1
 11517 45c3 85       		.byte	0x85
 11518 45c4 532F0000 		.4byte	0x2f53
 11519 45c8 60       		.uleb128 0x60
 11520 45c9 6900     		.ascii	"i\000"
 11521 45cb 01       		.byte	0x1
 11522 45cc 86       		.byte	0x86
 11523 45cd 25000000 		.4byte	0x25
 11524 45d1 00       		.byte	0
 11525 45d2 5C       		.uleb128 0x5c
 11526 45d3 5D090000 		.4byte	.LASF709
 11527 45d7 01       		.byte	0x1
 11528 45d8 73       		.byte	0x73
 11529 45d9 01       		.byte	0x1
 11530 45da F5450000 		.4byte	0x45f5
 11531 45de 5D       		.uleb128 0x5d
 11532 45df 211C0000 		.4byte	.LASF658
 11533 45e3 01       		.byte	0x1
 11534 45e4 73       		.byte	0x73
 11535 45e5 E6260000 		.4byte	0x26e6
 11536 45e9 5F       		.uleb128 0x5f
 11537 45ea 42170000 		.4byte	.LASF659
 11538 45ee 01       		.byte	0x1
 11539 45ef 74       		.byte	0x74
 11540 45f0 532F0000 		.4byte	0x2f53
 11541 45f4 00       		.byte	0
 11542 45f5 58       		.uleb128 0x58
 11543 45f6 220F0000 		.4byte	.LASF710
 11544 45fa 04       		.byte	0x4
 11545 45fb 2803     		.2byte	0x328
 11546 45fd 03       		.byte	0x3
 11547 45fe 1B460000 		.4byte	0x461b
 11548 4602 4C       		.uleb128 0x4c
 11549 4603 74717000 		.ascii	"tqp\000"
 11550 4607 04       		.byte	0x4
 11551 4608 2803     		.2byte	0x328
 11552 460a 1B460000 		.4byte	0x461b
 11553 460e 4C       		.uleb128 0x4c
 11554 460f 6D736700 		.ascii	"msg\000"
 11555 4613 04       		.byte	0x4
 11556 4614 2803     		.2byte	0x328
 11557 4616 61090000 		.4byte	0x961
 11558 461a 00       		.byte	0
 11559 461b 06       		.uleb128 0x6
ARM GAS  /tmp/ccqRaZSa.s 			page 204


 11560 461c 04       		.byte	0x4
 11561 461d FB0A0000 		.4byte	0xafb
 11562 4621 58       		.uleb128 0x58
 11563 4622 51030000 		.4byte	.LASF711
 11564 4626 04       		.byte	0x4
 11565 4627 D602     		.2byte	0x2d6
 11566 4629 03       		.byte	0x3
 11567 462a 47460000 		.4byte	0x4647
 11568 462e 4C       		.uleb128 0x4c
 11569 462f 74727000 		.ascii	"trp\000"
 11570 4633 04       		.byte	0x4
 11571 4634 D602     		.2byte	0x2d6
 11572 4636 22150000 		.4byte	0x1522
 11573 463a 4C       		.uleb128 0x4c
 11574 463b 6D736700 		.ascii	"msg\000"
 11575 463f 04       		.byte	0x4
 11576 4640 D602     		.2byte	0x2d6
 11577 4642 61090000 		.4byte	0x961
 11578 4646 00       		.byte	0
 11579 4647 5B       		.uleb128 0x5b
 11580 4648 F40C0000 		.4byte	.LASF712
 11581 464c 04       		.byte	0x4
 11582 464d AE02     		.2byte	0x2ae
 11583 464f 61090000 		.4byte	0x961
 11584 4653 03       		.byte	0x3
 11585 4654 65460000 		.4byte	0x4665
 11586 4658 4C       		.uleb128 0x4c
 11587 4659 74727000 		.ascii	"trp\000"
 11588 465d 04       		.byte	0x4
 11589 465e AE02     		.2byte	0x2ae
 11590 4660 22150000 		.4byte	0x1522
 11591 4664 00       		.byte	0
 11592 4665 63       		.uleb128 0x63
 11593 4666 A3190000 		.4byte	.LASF715
 11594 466a 04       		.byte	0x4
 11595 466b 5602     		.2byte	0x256
 11596 466d 03       		.byte	0x3
 11597 466e 58       		.uleb128 0x58
 11598 466f 351E0000 		.4byte	.LASF713
 11599 4673 04       		.byte	0x4
 11600 4674 3B02     		.2byte	0x23b
 11601 4676 03       		.byte	0x3
 11602 4677 88460000 		.4byte	0x4688
 11603 467b 4B       		.uleb128 0x4b
 11604 467c 3F020000 		.4byte	.LASF714
 11605 4680 04       		.byte	0x4
 11606 4681 3B02     		.2byte	0x23b
 11607 4683 1F090000 		.4byte	0x91f
 11608 4687 00       		.byte	0
 11609 4688 63       		.uleb128 0x63
 11610 4689 38050000 		.4byte	.LASF716
 11611 468d 04       		.byte	0x4
 11612 468e 0C02     		.2byte	0x20c
 11613 4690 03       		.byte	0x3
 11614 4691 63       		.uleb128 0x63
 11615 4692 C9120000 		.4byte	.LASF717
 11616 4696 04       		.byte	0x4
ARM GAS  /tmp/ccqRaZSa.s 			page 205


 11617 4697 0102     		.2byte	0x201
 11618 4699 03       		.byte	0x3
 11619 469a 63       		.uleb128 0x63
 11620 469b C9000000 		.4byte	.LASF718
 11621 469f 04       		.byte	0x4
 11622 46a0 F601     		.2byte	0x1f6
 11623 46a2 03       		.byte	0x3
 11624 46a3 63       		.uleb128 0x63
 11625 46a4 9A170000 		.4byte	.LASF719
 11626 46a8 04       		.byte	0x4
 11627 46a9 EB01     		.2byte	0x1eb
 11628 46ab 03       		.byte	0x3
 11629 46ac 5C       		.uleb128 0x5c
 11630 46ad AE1A0000 		.4byte	.LASF720
 11631 46b1 02       		.byte	0x2
 11632 46b2 84       		.byte	0x84
 11633 46b3 03       		.byte	0x3
 11634 46b4 C4460000 		.4byte	0x46c4
 11635 46b8 5D       		.uleb128 0x5d
 11636 46b9 691C0000 		.4byte	.LASF721
 11637 46bd 02       		.byte	0x2
 11638 46be 84       		.byte	0x84
 11639 46bf D0050000 		.4byte	0x5d0
 11640 46c3 00       		.byte	0
 11641 46c4 61       		.uleb128 0x61
 11642 46c5 0C0D0000 		.4byte	.LASF722
 11643 46c9 05       		.byte	0x5
 11644 46ca F5       		.byte	0xf5
 11645 46cb D10A0000 		.4byte	0xad1
 11646 46cf 03       		.byte	0x3
 11647 46d0 EC460000 		.4byte	0x46ec
 11648 46d4 5E       		.uleb128 0x5e
 11649 46d5 747000   		.ascii	"tp\000"
 11650 46d8 05       		.byte	0x5
 11651 46d9 F5       		.byte	0xf5
 11652 46da D10A0000 		.4byte	0xad1
 11653 46de 62       		.uleb128 0x62
 11654 46df 33000000 		.4byte	.LASF703
 11655 46e3 FC460000 		.4byte	0x46fc
 11656 46e7 0C0D0000 		.4byte	.LASF722
 11657 46eb 00       		.byte	0
 11658 46ec 0B       		.uleb128 0xb
 11659 46ed 5F010000 		.4byte	0x15f
 11660 46f1 FC460000 		.4byte	0x46fc
 11661 46f5 0C       		.uleb128 0xc
 11662 46f6 25000000 		.4byte	0x25
 11663 46fa 0B       		.byte	0xb
 11664 46fb 00       		.byte	0
 11665 46fc 10       		.uleb128 0x10
 11666 46fd EC460000 		.4byte	0x46ec
 11667 4701 63       		.uleb128 0x63
 11668 4702 3C160000 		.4byte	.LASF723
 11669 4706 2B       		.byte	0x2b
 11670 4707 9601     		.2byte	0x196
 11671 4709 03       		.byte	0x3
 11672 470a 63       		.uleb128 0x63
 11673 470b 251D0000 		.4byte	.LASF724
ARM GAS  /tmp/ccqRaZSa.s 			page 206


 11674 470f 2B       		.byte	0x2b
 11675 4710 8201     		.2byte	0x182
 11676 4712 03       		.byte	0x3
 11677 4713 58       		.uleb128 0x58
 11678 4714 C71A0000 		.4byte	.LASF725
 11679 4718 2B       		.byte	0x2b
 11680 4719 6601     		.2byte	0x166
 11681 471b 03       		.byte	0x3
 11682 471c 2E470000 		.4byte	0x472e
 11683 4720 62       		.uleb128 0x62
 11684 4721 33000000 		.4byte	.LASF703
 11685 4725 FC460000 		.4byte	0x46fc
 11686 4729 C71A0000 		.4byte	.LASF725
 11687 472d 00       		.byte	0
 11688 472e 63       		.uleb128 0x63
 11689 472f 0F050000 		.4byte	.LASF726
 11690 4733 2B       		.byte	0x2b
 11691 4734 5A01     		.2byte	0x15a
 11692 4736 03       		.byte	0x3
 11693 4737 63       		.uleb128 0x63
 11694 4738 56000000 		.4byte	.LASF727
 11695 473c 13       		.byte	0x13
 11696 473d E401     		.2byte	0x1e4
 11697 473f 03       		.byte	0x3
 11698 4740 63       		.uleb128 0x63
 11699 4741 03110000 		.4byte	.LASF728
 11700 4745 13       		.byte	0x13
 11701 4746 D901     		.2byte	0x1d9
 11702 4748 03       		.byte	0x3
 11703 4749 63       		.uleb128 0x63
 11704 474a C9130000 		.4byte	.LASF729
 11705 474e 13       		.byte	0x13
 11706 474f CA01     		.2byte	0x1ca
 11707 4751 03       		.byte	0x3
 11708 4752 63       		.uleb128 0x63
 11709 4753 21150000 		.4byte	.LASF730
 11710 4757 13       		.byte	0x13
 11711 4758 BC01     		.2byte	0x1bc
 11712 475a 03       		.byte	0x3
 11713 475b 63       		.uleb128 0x63
 11714 475c FA050000 		.4byte	.LASF731
 11715 4760 03       		.byte	0x3
 11716 4761 5401     		.2byte	0x154
 11717 4763 03       		.byte	0x3
 11718 4764 63       		.uleb128 0x63
 11719 4765 83140000 		.4byte	.LASF732
 11720 4769 03       		.byte	0x3
 11721 476a 4901     		.2byte	0x149
 11722 476c 03       		.byte	0x3
 11723 476d 64       		.uleb128 0x64
 11724 476e 17420000 		.4byte	0x4217
 11725 4772 00000000 		.4byte	.LFB300
 11726 4776 94000000 		.4byte	.LFE300-.LFB300
 11727 477a 01       		.uleb128 0x1
 11728 477b 9C       		.byte	0x9c
 11729 477c D1480000 		.4byte	0x48d1
 11730 4780 3B       		.uleb128 0x3b
ARM GAS  /tmp/ccqRaZSa.s 			page 207


 11731 4781 30420000 		.4byte	0x4230
 11732 4785 9D100000 		.4byte	.LLST109
 11733 4789 3D       		.uleb128 0x3d
 11734 478a 3B420000 		.4byte	0x423b
 11735 478e BE100000 		.4byte	.LLST110
 11736 4792 3D       		.uleb128 0x3d
 11737 4793 47420000 		.4byte	0x4247
 11738 4797 DC100000 		.4byte	.LLST111
 11739 479b 65       		.uleb128 0x65
 11740 479c 24420000 		.4byte	0x4224
 11741 47a0 06       		.uleb128 0x6
 11742 47a1 03       		.byte	0x3
 11743 47a2 00000000 		.4byte	USBD1
 11744 47a6 9F       		.byte	0x9f
 11745 47a7 3F       		.uleb128 0x3f
 11746 47a8 53420000 		.4byte	0x4253
 11747 47ac 60020000 		.4byte	.Ldebug_ranges0+0x260
 11748 47b0 BE480000 		.4byte	0x48be
 11749 47b4 3D       		.uleb128 0x3d
 11750 47b5 54420000 		.4byte	0x4254
 11751 47b9 FA100000 		.4byte	.LLST112
 11752 47bd 35       		.uleb128 0x35
 11753 47be 91460000 		.4byte	0x4691
 11754 47c2 76000000 		.4byte	.LBB643
 11755 47c6 08000000 		.4byte	.LBE643-.LBB643
 11756 47ca 01       		.byte	0x1
 11757 47cb 4802     		.2byte	0x248
 11758 47cd 15480000 		.4byte	0x4815
 11759 47d1 36       		.uleb128 0x36
 11760 47d2 0A470000 		.4byte	0x470a
 11761 47d6 76000000 		.4byte	.LBB644
 11762 47da 08000000 		.4byte	.LBE644-.LBB644
 11763 47de 04       		.byte	0x4
 11764 47df 0302     		.2byte	0x203
 11765 47e1 36       		.uleb128 0x36
 11766 47e2 40470000 		.4byte	0x4740
 11767 47e6 76000000 		.4byte	.LBB645
 11768 47ea 08000000 		.4byte	.LBE645-.LBB645
 11769 47ee 2B       		.byte	0x2b
 11770 47ef 8401     		.2byte	0x184
 11771 47f1 36       		.uleb128 0x36
 11772 47f2 52470000 		.4byte	0x4752
 11773 47f6 76000000 		.4byte	.LBB646
 11774 47fa 08000000 		.4byte	.LBE646-.LBB646
 11775 47fe 13       		.byte	0x13
 11776 47ff DB01     		.2byte	0x1db
 11777 4801 37       		.uleb128 0x37
 11778 4802 5B470000 		.4byte	0x475b
 11779 4806 76000000 		.4byte	.LBB647
 11780 480a 08000000 		.4byte	.LBE647-.LBB647
 11781 480e 13       		.byte	0x13
 11782 480f C101     		.2byte	0x1c1
 11783 4811 00       		.byte	0
 11784 4812 00       		.byte	0
 11785 4813 00       		.byte	0
 11786 4814 00       		.byte	0
 11787 4815 35       		.uleb128 0x35
ARM GAS  /tmp/ccqRaZSa.s 			page 208


 11788 4816 0F380000 		.4byte	0x380f
 11789 481a 7E000000 		.4byte	.LBB649
 11790 481e 0C000000 		.4byte	.LBE649-.LBB649
 11791 4822 01       		.byte	0x1
 11792 4823 4902     		.2byte	0x249
 11793 4825 3C480000 		.4byte	0x483c
 11794 4829 3B       		.uleb128 0x3b
 11795 482a 28380000 		.4byte	0x3828
 11796 482e 50110000 		.4byte	.LLST113
 11797 4832 3B       		.uleb128 0x3b
 11798 4833 1C380000 		.4byte	0x381c
 11799 4837 63110000 		.4byte	.LLST114
 11800 483b 00       		.byte	0
 11801 483c 35       		.uleb128 0x35
 11802 483d 88460000 		.4byte	0x4688
 11803 4841 8A000000 		.4byte	.LBB651
 11804 4845 02000000 		.4byte	.LBE651-.LBB651
 11805 4849 01       		.byte	0x1
 11806 484a 4A02     		.2byte	0x24a
 11807 484c 94480000 		.4byte	0x4894
 11808 4850 36       		.uleb128 0x36
 11809 4851 01470000 		.4byte	0x4701
 11810 4855 8A000000 		.4byte	.LBB652
 11811 4859 02000000 		.4byte	.LBE652-.LBB652
 11812 485d 04       		.byte	0x4
 11813 485e 0E02     		.2byte	0x20e
 11814 4860 36       		.uleb128 0x36
 11815 4861 37470000 		.4byte	0x4737
 11816 4865 8A000000 		.4byte	.LBB653
 11817 4869 02000000 		.4byte	.LBE653-.LBB653
 11818 486d 2B       		.byte	0x2b
 11819 486e 9A01     		.2byte	0x19a
 11820 4870 36       		.uleb128 0x36
 11821 4871 49470000 		.4byte	0x4749
 11822 4875 8A000000 		.4byte	.LBB654
 11823 4879 02000000 		.4byte	.LBE654-.LBB654
 11824 487d 13       		.byte	0x13
 11825 487e E601     		.2byte	0x1e6
 11826 4880 37       		.uleb128 0x37
 11827 4881 64470000 		.4byte	0x4764
 11828 4885 8A000000 		.4byte	.LBB655
 11829 4889 02000000 		.4byte	.LBE655-.LBB655
 11830 488d 13       		.byte	0x13
 11831 488e CF01     		.2byte	0x1cf
 11832 4890 00       		.byte	0
 11833 4891 00       		.byte	0
 11834 4892 00       		.byte	0
 11835 4893 00       		.byte	0
 11836 4894 66       		.uleb128 0x66
 11837 4895 66000000 		.4byte	.LVL204
 11838 4899 A7480000 		.4byte	0x48a7
 11839 489d 43       		.uleb128 0x43
 11840 489e 01       		.uleb128 0x1
 11841 489f 50       		.byte	0x50
 11842 48a0 05       		.uleb128 0x5
 11843 48a1 03       		.byte	0x3
 11844 48a2 00000000 		.4byte	.LANCHOR0
ARM GAS  /tmp/ccqRaZSa.s 			page 209


 11845 48a6 00       		.byte	0
 11846 48a7 42       		.uleb128 0x42
 11847 48a8 76000000 		.4byte	.LVL205
 11848 48ac 90380000 		.4byte	0x3890
 11849 48b0 43       		.uleb128 0x43
 11850 48b1 01       		.uleb128 0x1
 11851 48b2 50       		.byte	0x50
 11852 48b3 02       		.uleb128 0x2
 11853 48b4 76       		.byte	0x76
 11854 48b5 00       		.sleb128 0
 11855 48b6 43       		.uleb128 0x43
 11856 48b7 01       		.uleb128 0x1
 11857 48b8 51       		.byte	0x51
 11858 48b9 02       		.uleb128 0x2
 11859 48ba 75       		.byte	0x75
 11860 48bb 00       		.sleb128 0
 11861 48bc 00       		.byte	0
 11862 48bd 00       		.byte	0
 11863 48be 67       		.uleb128 0x67
 11864 48bf 30000000 		.4byte	.LVL198
 11865 48c3 43       		.uleb128 0x43
 11866 48c4 01       		.uleb128 0x1
 11867 48c5 50       		.byte	0x50
 11868 48c6 02       		.uleb128 0x2
 11869 48c7 76       		.byte	0x76
 11870 48c8 00       		.sleb128 0
 11871 48c9 43       		.uleb128 0x43
 11872 48ca 01       		.uleb128 0x1
 11873 48cb 51       		.byte	0x51
 11874 48cc 02       		.uleb128 0x2
 11875 48cd 75       		.byte	0x75
 11876 48ce 00       		.sleb128 0
 11877 48cf 00       		.byte	0
 11878 48d0 00       		.byte	0
 11879 48d1 64       		.uleb128 0x64
 11880 48d2 62420000 		.4byte	0x4262
 11881 48d6 00000000 		.4byte	.LFB299
 11882 48da C0000000 		.4byte	.LFE299-.LFB299
 11883 48de 01       		.uleb128 0x1
 11884 48df 9C       		.byte	0x9c
 11885 48e0 104B0000 		.4byte	0x4b10
 11886 48e4 3B       		.uleb128 0x3b
 11887 48e5 7B420000 		.4byte	0x427b
 11888 48e9 7B110000 		.4byte	.LLST119
 11889 48ed 68       		.uleb128 0x68
 11890 48ee 86420000 		.4byte	0x4286
 11891 48f2 01       		.uleb128 0x1
 11892 48f3 55       		.byte	0x55
 11893 48f4 68       		.uleb128 0x68
 11894 48f5 92420000 		.4byte	0x4292
 11895 48f9 01       		.uleb128 0x1
 11896 48fa 54       		.byte	0x54
 11897 48fb 65       		.uleb128 0x65
 11898 48fc 6F420000 		.4byte	0x426f
 11899 4900 06       		.uleb128 0x6
 11900 4901 03       		.byte	0x3
 11901 4902 00000000 		.4byte	USBD1
ARM GAS  /tmp/ccqRaZSa.s 			page 210


 11902 4906 9F       		.byte	0x9f
 11903 4907 3F       		.uleb128 0x3f
 11904 4908 9E420000 		.4byte	0x429e
 11905 490c 98020000 		.4byte	.Ldebug_ranges0+0x298
 11906 4910 244A0000 		.4byte	0x4a24
 11907 4914 3D       		.uleb128 0x3d
 11908 4915 9F420000 		.4byte	0x429f
 11909 4919 9C110000 		.4byte	.LLST120
 11910 491d 35       		.uleb128 0x35
 11911 491e 91460000 		.4byte	0x4691
 11912 4922 90000000 		.4byte	.LBB662
 11913 4926 02000000 		.4byte	.LBE662-.LBB662
 11914 492a 01       		.byte	0x1
 11915 492b 1402     		.2byte	0x214
 11916 492d 75490000 		.4byte	0x4975
 11917 4931 36       		.uleb128 0x36
 11918 4932 0A470000 		.4byte	0x470a
 11919 4936 90000000 		.4byte	.LBB663
 11920 493a 02000000 		.4byte	.LBE663-.LBB663
 11921 493e 04       		.byte	0x4
 11922 493f 0302     		.2byte	0x203
 11923 4941 36       		.uleb128 0x36
 11924 4942 40470000 		.4byte	0x4740
 11925 4946 90000000 		.4byte	.LBB664
 11926 494a 02000000 		.4byte	.LBE664-.LBB664
 11927 494e 2B       		.byte	0x2b
 11928 494f 8401     		.2byte	0x184
 11929 4951 36       		.uleb128 0x36
 11930 4952 52470000 		.4byte	0x4752
 11931 4956 90000000 		.4byte	.LBB665
 11932 495a 02000000 		.4byte	.LBE665-.LBB665
 11933 495e 13       		.byte	0x13
 11934 495f DB01     		.2byte	0x1db
 11935 4961 37       		.uleb128 0x37
 11936 4962 5B470000 		.4byte	0x475b
 11937 4966 90000000 		.4byte	.LBB666
 11938 496a 02000000 		.4byte	.LBE666-.LBB666
 11939 496e 13       		.byte	0x13
 11940 496f C101     		.2byte	0x1c1
 11941 4971 00       		.byte	0
 11942 4972 00       		.byte	0
 11943 4973 00       		.byte	0
 11944 4974 00       		.byte	0
 11945 4975 35       		.uleb128 0x35
 11946 4976 EA370000 		.4byte	0x37ea
 11947 497a 92000000 		.4byte	.LBB668
 11948 497e 20000000 		.4byte	.LBE668-.LBB668
 11949 4982 01       		.byte	0x1
 11950 4983 1502     		.2byte	0x215
 11951 4985 9C490000 		.4byte	0x499c
 11952 4989 3B       		.uleb128 0x3b
 11953 498a 03380000 		.4byte	0x3803
 11954 498e DC110000 		.4byte	.LLST121
 11955 4992 3B       		.uleb128 0x3b
 11956 4993 F7370000 		.4byte	0x37f7
 11957 4997 EF110000 		.4byte	.LLST122
 11958 499b 00       		.byte	0
ARM GAS  /tmp/ccqRaZSa.s 			page 211


 11959 499c 35       		.uleb128 0x35
 11960 499d 88460000 		.4byte	0x4688
 11961 49a1 B2000000 		.4byte	.LBB670
 11962 49a5 0E000000 		.4byte	.LBE670-.LBB670
 11963 49a9 01       		.byte	0x1
 11964 49aa 1602     		.2byte	0x216
 11965 49ac F4490000 		.4byte	0x49f4
 11966 49b0 36       		.uleb128 0x36
 11967 49b1 01470000 		.4byte	0x4701
 11968 49b5 B2000000 		.4byte	.LBB671
 11969 49b9 0E000000 		.4byte	.LBE671-.LBB671
 11970 49bd 04       		.byte	0x4
 11971 49be 0E02     		.2byte	0x20e
 11972 49c0 36       		.uleb128 0x36
 11973 49c1 37470000 		.4byte	0x4737
 11974 49c5 B2000000 		.4byte	.LBB672
 11975 49c9 0E000000 		.4byte	.LBE672-.LBB672
 11976 49cd 2B       		.byte	0x2b
 11977 49ce 9A01     		.2byte	0x19a
 11978 49d0 36       		.uleb128 0x36
 11979 49d1 49470000 		.4byte	0x4749
 11980 49d5 B2000000 		.4byte	.LBB673
 11981 49d9 0E000000 		.4byte	.LBE673-.LBB673
 11982 49dd 13       		.byte	0x13
 11983 49de E601     		.2byte	0x1e6
 11984 49e0 37       		.uleb128 0x37
 11985 49e1 64470000 		.4byte	0x4764
 11986 49e5 B2000000 		.4byte	.LBB674
 11987 49e9 0E000000 		.4byte	.LBE674-.LBB674
 11988 49ed 13       		.byte	0x13
 11989 49ee CF01     		.2byte	0x1cf
 11990 49f0 00       		.byte	0
 11991 49f1 00       		.byte	0
 11992 49f2 00       		.byte	0
 11993 49f3 00       		.byte	0
 11994 49f4 69       		.uleb128 0x69
 11995 49f5 48000000 		.4byte	.LVL224
 11996 49f9 02       		.uleb128 0x2
 11997 49fa 78       		.byte	0x78
 11998 49fb 00       		.sleb128 0
 11999 49fc 0D4A0000 		.4byte	0x4a0d
 12000 4a00 43       		.uleb128 0x43
 12001 4a01 01       		.uleb128 0x1
 12002 4a02 50       		.byte	0x50
 12003 4a03 02       		.uleb128 0x2
 12004 4a04 76       		.byte	0x76
 12005 4a05 00       		.sleb128 0
 12006 4a06 43       		.uleb128 0x43
 12007 4a07 01       		.uleb128 0x1
 12008 4a08 51       		.byte	0x51
 12009 4a09 02       		.uleb128 0x2
 12010 4a0a 77       		.byte	0x77
 12011 4a0b 00       		.sleb128 0
 12012 4a0c 00       		.byte	0
 12013 4a0d 42       		.uleb128 0x42
 12014 4a0e 90000000 		.4byte	.LVL229
 12015 4a12 34380000 		.4byte	0x3834
ARM GAS  /tmp/ccqRaZSa.s 			page 212


 12016 4a16 43       		.uleb128 0x43
 12017 4a17 01       		.uleb128 0x1
 12018 4a18 50       		.byte	0x50
 12019 4a19 02       		.uleb128 0x2
 12020 4a1a 76       		.byte	0x76
 12021 4a1b 00       		.sleb128 0
 12022 4a1c 43       		.uleb128 0x43
 12023 4a1d 01       		.uleb128 0x1
 12024 4a1e 51       		.byte	0x51
 12025 4a1f 02       		.uleb128 0x2
 12026 4a20 77       		.byte	0x77
 12027 4a21 00       		.sleb128 0
 12028 4a22 00       		.byte	0
 12029 4a23 00       		.byte	0
 12030 4a24 35       		.uleb128 0x35
 12031 4a25 91460000 		.4byte	0x4691
 12032 4a29 5E000000 		.4byte	.LBB676
 12033 4a2d 02000000 		.4byte	.LBE676-.LBB676
 12034 4a31 01       		.byte	0x1
 12035 4a32 2002     		.2byte	0x220
 12036 4a34 7C4A0000 		.4byte	0x4a7c
 12037 4a38 36       		.uleb128 0x36
 12038 4a39 0A470000 		.4byte	0x470a
 12039 4a3d 5E000000 		.4byte	.LBB677
 12040 4a41 02000000 		.4byte	.LBE677-.LBB677
 12041 4a45 04       		.byte	0x4
 12042 4a46 0302     		.2byte	0x203
 12043 4a48 36       		.uleb128 0x36
 12044 4a49 40470000 		.4byte	0x4740
 12045 4a4d 5E000000 		.4byte	.LBB678
 12046 4a51 02000000 		.4byte	.LBE678-.LBB678
 12047 4a55 2B       		.byte	0x2b
 12048 4a56 8401     		.2byte	0x184
 12049 4a58 36       		.uleb128 0x36
 12050 4a59 52470000 		.4byte	0x4752
 12051 4a5d 5E000000 		.4byte	.LBB679
 12052 4a61 02000000 		.4byte	.LBE679-.LBB679
 12053 4a65 13       		.byte	0x13
 12054 4a66 DB01     		.2byte	0x1db
 12055 4a68 37       		.uleb128 0x37
 12056 4a69 5B470000 		.4byte	0x475b
 12057 4a6d 5E000000 		.4byte	.LBB680
 12058 4a71 02000000 		.4byte	.LBE680-.LBB680
 12059 4a75 13       		.byte	0x13
 12060 4a76 C101     		.2byte	0x1c1
 12061 4a78 00       		.byte	0
 12062 4a79 00       		.byte	0
 12063 4a7a 00       		.byte	0
 12064 4a7b 00       		.byte	0
 12065 4a7c 39       		.uleb128 0x39
 12066 4a7d 21460000 		.4byte	0x4621
 12067 4a81 66000000 		.4byte	.LBB682
 12068 4a85 B0020000 		.4byte	.Ldebug_ranges0+0x2b0
 12069 4a89 01       		.byte	0x1
 12070 4a8a 2302     		.2byte	0x223
 12071 4a8c BB4A0000 		.4byte	0x4abb
 12072 4a90 3B       		.uleb128 0x3b
ARM GAS  /tmp/ccqRaZSa.s 			page 213


 12073 4a91 3A460000 		.4byte	0x463a
 12074 4a95 07120000 		.4byte	.LLST123
 12075 4a99 3B       		.uleb128 0x3b
 12076 4a9a 2E460000 		.4byte	0x462e
 12077 4a9e 1B120000 		.4byte	.LLST124
 12078 4aa2 42       		.uleb128 0x42
 12079 4aa3 7A000000 		.4byte	.LVL227
 12080 4aa7 CC4B0000 		.4byte	0x4bcc
 12081 4aab 43       		.uleb128 0x43
 12082 4aac 01       		.uleb128 0x1
 12083 4aad 50       		.byte	0x50
 12084 4aae 05       		.uleb128 0x5
 12085 4aaf 03       		.byte	0x3
 12086 4ab0 60000000 		.4byte	.LANCHOR0+96
 12087 4ab4 43       		.uleb128 0x43
 12088 4ab5 01       		.uleb128 0x1
 12089 4ab6 51       		.byte	0x51
 12090 4ab7 01       		.uleb128 0x1
 12091 4ab8 30       		.byte	0x30
 12092 4ab9 00       		.byte	0
 12093 4aba 00       		.byte	0
 12094 4abb 36       		.uleb128 0x36
 12095 4abc 88460000 		.4byte	0x4688
 12096 4ac0 7A000000 		.4byte	.LBB688
 12097 4ac4 02000000 		.4byte	.LBE688-.LBB688
 12098 4ac8 01       		.byte	0x1
 12099 4ac9 2402     		.2byte	0x224
 12100 4acb 36       		.uleb128 0x36
 12101 4acc 01470000 		.4byte	0x4701
 12102 4ad0 7A000000 		.4byte	.LBB689
 12103 4ad4 02000000 		.4byte	.LBE689-.LBB689
 12104 4ad8 04       		.byte	0x4
 12105 4ad9 0E02     		.2byte	0x20e
 12106 4adb 36       		.uleb128 0x36
 12107 4adc 37470000 		.4byte	0x4737
 12108 4ae0 7A000000 		.4byte	.LBB690
 12109 4ae4 02000000 		.4byte	.LBE690-.LBB690
 12110 4ae8 2B       		.byte	0x2b
 12111 4ae9 9A01     		.2byte	0x19a
 12112 4aeb 36       		.uleb128 0x36
 12113 4aec 49470000 		.4byte	0x4749
 12114 4af0 7A000000 		.4byte	.LBB691
 12115 4af4 02000000 		.4byte	.LBE691-.LBB691
 12116 4af8 13       		.byte	0x13
 12117 4af9 E601     		.2byte	0x1e6
 12118 4afb 37       		.uleb128 0x37
 12119 4afc 64470000 		.4byte	0x4764
 12120 4b00 7A000000 		.4byte	.LBB692
 12121 4b04 02000000 		.4byte	.LBE692-.LBB692
 12122 4b08 13       		.byte	0x13
 12123 4b09 CF01     		.2byte	0x1cf
 12124 4b0b 00       		.byte	0
 12125 4b0c 00       		.byte	0
 12126 4b0d 00       		.byte	0
 12127 4b0e 00       		.byte	0
 12128 4b0f 00       		.byte	0
 12129 4b10 64       		.uleb128 0x64
ARM GAS  /tmp/ccqRaZSa.s 			page 214


 12130 4b11 0F380000 		.4byte	0x380f
 12131 4b15 00000000 		.4byte	.LFB286
 12132 4b19 14000000 		.4byte	.LFE286-.LFB286
 12133 4b1d 01       		.uleb128 0x1
 12134 4b1e 9C       		.byte	0x9c
 12135 4b1f 344B0000 		.4byte	0x4b34
 12136 4b23 65       		.uleb128 0x65
 12137 4b24 1C380000 		.4byte	0x381c
 12138 4b28 01       		.uleb128 0x1
 12139 4b29 50       		.byte	0x50
 12140 4b2a 3B       		.uleb128 0x3b
 12141 4b2b 28380000 		.4byte	0x3828
 12142 4b2f 33120000 		.4byte	.LLST131
 12143 4b33 00       		.byte	0
 12144 4b34 64       		.uleb128 0x64
 12145 4b35 EA370000 		.4byte	0x37ea
 12146 4b39 00000000 		.4byte	.LFB287
 12147 4b3d 2A000000 		.4byte	.LFE287-.LFB287
 12148 4b41 01       		.uleb128 0x1
 12149 4b42 9C       		.byte	0x9c
 12150 4b43 5A4B0000 		.4byte	0x4b5a
 12151 4b47 3B       		.uleb128 0x3b
 12152 4b48 F7370000 		.4byte	0x37f7
 12153 4b4c 54120000 		.4byte	.LLST132
 12154 4b50 3B       		.uleb128 0x3b
 12155 4b51 03380000 		.4byte	0x3803
 12156 4b55 75120000 		.4byte	.LLST133
 12157 4b59 00       		.byte	0
 12158 4b5a 6A       		.uleb128 0x6a
 12159 4b5b 76060000 		.4byte	.LASF733
 12160 4b5f 76060000 		.4byte	.LASF733
 12161 4b63 05       		.byte	0x5
 12162 4b64 94       		.byte	0x94
 12163 4b65 6B       		.uleb128 0x6b
 12164 4b66 72150000 		.4byte	.LASF734
 12165 4b6a 72150000 		.4byte	.LASF734
 12166 4b6e 0E       		.byte	0xe
 12167 4b6f 1702     		.2byte	0x217
 12168 4b71 6A       		.uleb128 0x6a
 12169 4b72 E3100000 		.4byte	.LASF735
 12170 4b76 E3100000 		.4byte	.LASF735
 12171 4b7a 05       		.byte	0x5
 12172 4b7b 8D       		.byte	0x8d
 12173 4b7c 6B       		.uleb128 0x6b
 12174 4b7d 0B020000 		.4byte	.LASF736
 12175 4b81 0B020000 		.4byte	.LASF736
 12176 4b85 2B       		.byte	0x2b
 12177 4b86 1D01     		.2byte	0x11d
 12178 4b88 6A       		.uleb128 0x6a
 12179 4b89 63030000 		.4byte	.LASF737
 12180 4b8d 63030000 		.4byte	.LASF737
 12181 4b91 2C       		.byte	0x2c
 12182 4b92 4F       		.byte	0x4f
 12183 4b93 6B       		.uleb128 0x6b
 12184 4b94 36170000 		.4byte	.LASF738
 12185 4b98 36170000 		.4byte	.LASF738
 12186 4b9c 0E       		.byte	0xe
ARM GAS  /tmp/ccqRaZSa.s 			page 215


 12187 4b9d 1302     		.2byte	0x213
 12188 4b9f 6A       		.uleb128 0x6a
 12189 4ba0 8D1C0000 		.4byte	.LASF739
 12190 4ba4 8D1C0000 		.4byte	.LASF739
 12191 4ba8 2C       		.byte	0x2c
 12192 4ba9 4E       		.byte	0x4e
 12193 4baa 6A       		.uleb128 0x6a
 12194 4bab 70120000 		.4byte	.LASF740
 12195 4baf 70120000 		.4byte	.LASF740
 12196 4bb3 05       		.byte	0x5
 12197 4bb4 87       		.byte	0x87
 12198 4bb5 6A       		.uleb128 0x6a
 12199 4bb6 1A100000 		.4byte	.LASF741
 12200 4bba 1A100000 		.4byte	.LASF741
 12201 4bbe 05       		.byte	0x5
 12202 4bbf 85       		.byte	0x85
 12203 4bc0 6B       		.uleb128 0x6b
 12204 4bc1 DC120000 		.4byte	.LASF742
 12205 4bc5 DC120000 		.4byte	.LASF742
 12206 4bc9 28       		.byte	0x28
 12207 4bca 3702     		.2byte	0x237
 12208 4bcc 6A       		.uleb128 0x6a
 12209 4bcd 501A0000 		.4byte	.LASF743
 12210 4bd1 501A0000 		.4byte	.LASF743
 12211 4bd5 05       		.byte	0x5
 12212 4bd6 8F       		.byte	0x8f
 12213 4bd7 6B       		.uleb128 0x6b
 12214 4bd8 A4060000 		.4byte	.LASF744
 12215 4bdc A4060000 		.4byte	.LASF744
 12216 4be0 28       		.byte	0x28
 12217 4be1 4A02     		.2byte	0x24a
 12218 4be3 6B       		.uleb128 0x6b
 12219 4be4 630E0000 		.4byte	.LASF745
 12220 4be8 630E0000 		.4byte	.LASF745
 12221 4bec 13       		.byte	0x13
 12222 4bed 6601     		.2byte	0x166
 12223 4bef 00       		.byte	0
 12224              		.section	.debug_abbrev,"",%progbits
 12225              	.Ldebug_abbrev0:
 12226 0000 01       		.uleb128 0x1
 12227 0001 11       		.uleb128 0x11
 12228 0002 01       		.byte	0x1
 12229 0003 25       		.uleb128 0x25
 12230 0004 0E       		.uleb128 0xe
 12231 0005 13       		.uleb128 0x13
 12232 0006 0B       		.uleb128 0xb
 12233 0007 03       		.uleb128 0x3
 12234 0008 0E       		.uleb128 0xe
 12235 0009 1B       		.uleb128 0x1b
 12236 000a 0E       		.uleb128 0xe
 12237 000b 55       		.uleb128 0x55
 12238 000c 17       		.uleb128 0x17
 12239 000d 11       		.uleb128 0x11
 12240 000e 01       		.uleb128 0x1
 12241 000f 10       		.uleb128 0x10
 12242 0010 17       		.uleb128 0x17
 12243 0011 00       		.byte	0
ARM GAS  /tmp/ccqRaZSa.s 			page 216


 12244 0012 00       		.byte	0
 12245 0013 02       		.uleb128 0x2
 12246 0014 24       		.uleb128 0x24
 12247 0015 00       		.byte	0
 12248 0016 0B       		.uleb128 0xb
 12249 0017 0B       		.uleb128 0xb
 12250 0018 3E       		.uleb128 0x3e
 12251 0019 0B       		.uleb128 0xb
 12252 001a 03       		.uleb128 0x3
 12253 001b 0E       		.uleb128 0xe
 12254 001c 00       		.byte	0
 12255 001d 00       		.byte	0
 12256 001e 03       		.uleb128 0x3
 12257 001f 24       		.uleb128 0x24
 12258 0020 00       		.byte	0
 12259 0021 0B       		.uleb128 0xb
 12260 0022 0B       		.uleb128 0xb
 12261 0023 3E       		.uleb128 0x3e
 12262 0024 0B       		.uleb128 0xb
 12263 0025 03       		.uleb128 0x3
 12264 0026 08       		.uleb128 0x8
 12265 0027 00       		.byte	0
 12266 0028 00       		.byte	0
 12267 0029 04       		.uleb128 0x4
 12268 002a 16       		.uleb128 0x16
 12269 002b 00       		.byte	0
 12270 002c 03       		.uleb128 0x3
 12271 002d 0E       		.uleb128 0xe
 12272 002e 3A       		.uleb128 0x3a
 12273 002f 0B       		.uleb128 0xb
 12274 0030 3B       		.uleb128 0x3b
 12275 0031 0B       		.uleb128 0xb
 12276 0032 49       		.uleb128 0x49
 12277 0033 13       		.uleb128 0x13
 12278 0034 00       		.byte	0
 12279 0035 00       		.byte	0
 12280 0036 05       		.uleb128 0x5
 12281 0037 35       		.uleb128 0x35
 12282 0038 00       		.byte	0
 12283 0039 49       		.uleb128 0x49
 12284 003a 13       		.uleb128 0x13
 12285 003b 00       		.byte	0
 12286 003c 00       		.byte	0
 12287 003d 06       		.uleb128 0x6
 12288 003e 0F       		.uleb128 0xf
 12289 003f 00       		.byte	0
 12290 0040 0B       		.uleb128 0xb
 12291 0041 0B       		.uleb128 0xb
 12292 0042 49       		.uleb128 0x49
 12293 0043 13       		.uleb128 0x13
 12294 0044 00       		.byte	0
 12295 0045 00       		.byte	0
 12296 0046 07       		.uleb128 0x7
 12297 0047 13       		.uleb128 0x13
 12298 0048 00       		.byte	0
 12299 0049 03       		.uleb128 0x3
 12300 004a 0E       		.uleb128 0xe
ARM GAS  /tmp/ccqRaZSa.s 			page 217


 12301 004b 3C       		.uleb128 0x3c
 12302 004c 19       		.uleb128 0x19
 12303 004d 00       		.byte	0
 12304 004e 00       		.byte	0
 12305 004f 08       		.uleb128 0x8
 12306 0050 16       		.uleb128 0x16
 12307 0051 00       		.byte	0
 12308 0052 03       		.uleb128 0x3
 12309 0053 0E       		.uleb128 0xe
 12310 0054 3A       		.uleb128 0x3a
 12311 0055 0B       		.uleb128 0xb
 12312 0056 3B       		.uleb128 0x3b
 12313 0057 05       		.uleb128 0x5
 12314 0058 49       		.uleb128 0x49
 12315 0059 13       		.uleb128 0x13
 12316 005a 00       		.byte	0
 12317 005b 00       		.byte	0
 12318 005c 09       		.uleb128 0x9
 12319 005d 17       		.uleb128 0x17
 12320 005e 01       		.byte	0x1
 12321 005f 0B       		.uleb128 0xb
 12322 0060 0B       		.uleb128 0xb
 12323 0061 3A       		.uleb128 0x3a
 12324 0062 0B       		.uleb128 0xb
 12325 0063 3B       		.uleb128 0x3b
 12326 0064 0B       		.uleb128 0xb
 12327 0065 01       		.uleb128 0x1
 12328 0066 13       		.uleb128 0x13
 12329 0067 00       		.byte	0
 12330 0068 00       		.byte	0
 12331 0069 0A       		.uleb128 0xa
 12332 006a 0D       		.uleb128 0xd
 12333 006b 00       		.byte	0
 12334 006c 03       		.uleb128 0x3
 12335 006d 0E       		.uleb128 0xe
 12336 006e 3A       		.uleb128 0x3a
 12337 006f 0B       		.uleb128 0xb
 12338 0070 3B       		.uleb128 0x3b
 12339 0071 0B       		.uleb128 0xb
 12340 0072 49       		.uleb128 0x49
 12341 0073 13       		.uleb128 0x13
 12342 0074 00       		.byte	0
 12343 0075 00       		.byte	0
 12344 0076 0B       		.uleb128 0xb
 12345 0077 01       		.uleb128 0x1
 12346 0078 01       		.byte	0x1
 12347 0079 49       		.uleb128 0x49
 12348 007a 13       		.uleb128 0x13
 12349 007b 01       		.uleb128 0x1
 12350 007c 13       		.uleb128 0x13
 12351 007d 00       		.byte	0
 12352 007e 00       		.byte	0
 12353 007f 0C       		.uleb128 0xc
 12354 0080 21       		.uleb128 0x21
 12355 0081 00       		.byte	0
 12356 0082 49       		.uleb128 0x49
 12357 0083 13       		.uleb128 0x13
ARM GAS  /tmp/ccqRaZSa.s 			page 218


 12358 0084 2F       		.uleb128 0x2f
 12359 0085 0B       		.uleb128 0xb
 12360 0086 00       		.byte	0
 12361 0087 00       		.byte	0
 12362 0088 0D       		.uleb128 0xd
 12363 0089 13       		.uleb128 0x13
 12364 008a 01       		.byte	0x1
 12365 008b 0B       		.uleb128 0xb
 12366 008c 0B       		.uleb128 0xb
 12367 008d 3A       		.uleb128 0x3a
 12368 008e 0B       		.uleb128 0xb
 12369 008f 3B       		.uleb128 0x3b
 12370 0090 0B       		.uleb128 0xb
 12371 0091 01       		.uleb128 0x1
 12372 0092 13       		.uleb128 0x13
 12373 0093 00       		.byte	0
 12374 0094 00       		.byte	0
 12375 0095 0E       		.uleb128 0xe
 12376 0096 0D       		.uleb128 0xd
 12377 0097 00       		.byte	0
 12378 0098 03       		.uleb128 0x3
 12379 0099 0E       		.uleb128 0xe
 12380 009a 3A       		.uleb128 0x3a
 12381 009b 0B       		.uleb128 0xb
 12382 009c 3B       		.uleb128 0x3b
 12383 009d 0B       		.uleb128 0xb
 12384 009e 49       		.uleb128 0x49
 12385 009f 13       		.uleb128 0x13
 12386 00a0 38       		.uleb128 0x38
 12387 00a1 0B       		.uleb128 0xb
 12388 00a2 00       		.byte	0
 12389 00a3 00       		.byte	0
 12390 00a4 0F       		.uleb128 0xf
 12391 00a5 0F       		.uleb128 0xf
 12392 00a6 00       		.byte	0
 12393 00a7 0B       		.uleb128 0xb
 12394 00a8 0B       		.uleb128 0xb
 12395 00a9 00       		.byte	0
 12396 00aa 00       		.byte	0
 12397 00ab 10       		.uleb128 0x10
 12398 00ac 26       		.uleb128 0x26
 12399 00ad 00       		.byte	0
 12400 00ae 49       		.uleb128 0x49
 12401 00af 13       		.uleb128 0x13
 12402 00b0 00       		.byte	0
 12403 00b1 00       		.byte	0
 12404 00b2 11       		.uleb128 0x11
 12405 00b3 13       		.uleb128 0x13
 12406 00b4 01       		.byte	0x1
 12407 00b5 03       		.uleb128 0x3
 12408 00b6 0E       		.uleb128 0xe
 12409 00b7 0B       		.uleb128 0xb
 12410 00b8 0B       		.uleb128 0xb
 12411 00b9 3A       		.uleb128 0x3a
 12412 00ba 0B       		.uleb128 0xb
 12413 00bb 3B       		.uleb128 0x3b
 12414 00bc 0B       		.uleb128 0xb
ARM GAS  /tmp/ccqRaZSa.s 			page 219


 12415 00bd 01       		.uleb128 0x1
 12416 00be 13       		.uleb128 0x13
 12417 00bf 00       		.byte	0
 12418 00c0 00       		.byte	0
 12419 00c1 12       		.uleb128 0x12
 12420 00c2 0D       		.uleb128 0xd
 12421 00c3 00       		.byte	0
 12422 00c4 03       		.uleb128 0x3
 12423 00c5 08       		.uleb128 0x8
 12424 00c6 3A       		.uleb128 0x3a
 12425 00c7 0B       		.uleb128 0xb
 12426 00c8 3B       		.uleb128 0x3b
 12427 00c9 0B       		.uleb128 0xb
 12428 00ca 49       		.uleb128 0x49
 12429 00cb 13       		.uleb128 0x13
 12430 00cc 38       		.uleb128 0x38
 12431 00cd 0B       		.uleb128 0xb
 12432 00ce 00       		.byte	0
 12433 00cf 00       		.byte	0
 12434 00d0 13       		.uleb128 0x13
 12435 00d1 13       		.uleb128 0x13
 12436 00d2 01       		.byte	0x1
 12437 00d3 03       		.uleb128 0x3
 12438 00d4 0E       		.uleb128 0xe
 12439 00d5 0B       		.uleb128 0xb
 12440 00d6 05       		.uleb128 0x5
 12441 00d7 3A       		.uleb128 0x3a
 12442 00d8 0B       		.uleb128 0xb
 12443 00d9 3B       		.uleb128 0x3b
 12444 00da 0B       		.uleb128 0xb
 12445 00db 01       		.uleb128 0x1
 12446 00dc 13       		.uleb128 0x13
 12447 00dd 00       		.byte	0
 12448 00de 00       		.byte	0
 12449 00df 14       		.uleb128 0x14
 12450 00e0 0D       		.uleb128 0xd
 12451 00e1 00       		.byte	0
 12452 00e2 03       		.uleb128 0x3
 12453 00e3 0E       		.uleb128 0xe
 12454 00e4 3A       		.uleb128 0x3a
 12455 00e5 0B       		.uleb128 0xb
 12456 00e6 3B       		.uleb128 0x3b
 12457 00e7 0B       		.uleb128 0xb
 12458 00e8 49       		.uleb128 0x49
 12459 00e9 13       		.uleb128 0x13
 12460 00ea 38       		.uleb128 0x38
 12461 00eb 05       		.uleb128 0x5
 12462 00ec 00       		.byte	0
 12463 00ed 00       		.byte	0
 12464 00ee 15       		.uleb128 0x15
 12465 00ef 15       		.uleb128 0x15
 12466 00f0 00       		.byte	0
 12467 00f1 27       		.uleb128 0x27
 12468 00f2 19       		.uleb128 0x19
 12469 00f3 00       		.byte	0
 12470 00f4 00       		.byte	0
 12471 00f5 16       		.uleb128 0x16
ARM GAS  /tmp/ccqRaZSa.s 			page 220


 12472 00f6 15       		.uleb128 0x15
 12473 00f7 01       		.byte	0x1
 12474 00f8 27       		.uleb128 0x27
 12475 00f9 19       		.uleb128 0x19
 12476 00fa 49       		.uleb128 0x49
 12477 00fb 13       		.uleb128 0x13
 12478 00fc 01       		.uleb128 0x1
 12479 00fd 13       		.uleb128 0x13
 12480 00fe 00       		.byte	0
 12481 00ff 00       		.byte	0
 12482 0100 17       		.uleb128 0x17
 12483 0101 05       		.uleb128 0x5
 12484 0102 00       		.byte	0
 12485 0103 49       		.uleb128 0x49
 12486 0104 13       		.uleb128 0x13
 12487 0105 00       		.byte	0
 12488 0106 00       		.byte	0
 12489 0107 18       		.uleb128 0x18
 12490 0108 13       		.uleb128 0x13
 12491 0109 01       		.byte	0x1
 12492 010a 03       		.uleb128 0x3
 12493 010b 0E       		.uleb128 0xe
 12494 010c 0B       		.uleb128 0xb
 12495 010d 05       		.uleb128 0x5
 12496 010e 3A       		.uleb128 0x3a
 12497 010f 0B       		.uleb128 0xb
 12498 0110 3B       		.uleb128 0x3b
 12499 0111 05       		.uleb128 0x5
 12500 0112 01       		.uleb128 0x1
 12501 0113 13       		.uleb128 0x13
 12502 0114 00       		.byte	0
 12503 0115 00       		.byte	0
 12504 0116 19       		.uleb128 0x19
 12505 0117 0D       		.uleb128 0xd
 12506 0118 00       		.byte	0
 12507 0119 03       		.uleb128 0x3
 12508 011a 0E       		.uleb128 0xe
 12509 011b 3A       		.uleb128 0x3a
 12510 011c 0B       		.uleb128 0xb
 12511 011d 3B       		.uleb128 0x3b
 12512 011e 05       		.uleb128 0x5
 12513 011f 49       		.uleb128 0x49
 12514 0120 13       		.uleb128 0x13
 12515 0121 38       		.uleb128 0x38
 12516 0122 0B       		.uleb128 0xb
 12517 0123 00       		.byte	0
 12518 0124 00       		.byte	0
 12519 0125 1A       		.uleb128 0x1a
 12520 0126 0D       		.uleb128 0xd
 12521 0127 00       		.byte	0
 12522 0128 03       		.uleb128 0x3
 12523 0129 0E       		.uleb128 0xe
 12524 012a 3A       		.uleb128 0x3a
 12525 012b 0B       		.uleb128 0xb
 12526 012c 3B       		.uleb128 0x3b
 12527 012d 05       		.uleb128 0x5
 12528 012e 49       		.uleb128 0x49
ARM GAS  /tmp/ccqRaZSa.s 			page 221


 12529 012f 13       		.uleb128 0x13
 12530 0130 38       		.uleb128 0x38
 12531 0131 05       		.uleb128 0x5
 12532 0132 00       		.byte	0
 12533 0133 00       		.byte	0
 12534 0134 1B       		.uleb128 0x1b
 12535 0135 13       		.uleb128 0x13
 12536 0136 01       		.byte	0x1
 12537 0137 03       		.uleb128 0x3
 12538 0138 0E       		.uleb128 0xe
 12539 0139 0B       		.uleb128 0xb
 12540 013a 0B       		.uleb128 0xb
 12541 013b 3A       		.uleb128 0x3a
 12542 013c 0B       		.uleb128 0xb
 12543 013d 3B       		.uleb128 0x3b
 12544 013e 05       		.uleb128 0x5
 12545 013f 01       		.uleb128 0x1
 12546 0140 13       		.uleb128 0x13
 12547 0141 00       		.byte	0
 12548 0142 00       		.byte	0
 12549 0143 1C       		.uleb128 0x1c
 12550 0144 13       		.uleb128 0x13
 12551 0145 01       		.byte	0x1
 12552 0146 0B       		.uleb128 0xb
 12553 0147 0B       		.uleb128 0xb
 12554 0148 3A       		.uleb128 0x3a
 12555 0149 0B       		.uleb128 0xb
 12556 014a 3B       		.uleb128 0x3b
 12557 014b 05       		.uleb128 0x5
 12558 014c 01       		.uleb128 0x1
 12559 014d 13       		.uleb128 0x13
 12560 014e 00       		.byte	0
 12561 014f 00       		.byte	0
 12562 0150 1D       		.uleb128 0x1d
 12563 0151 17       		.uleb128 0x17
 12564 0152 01       		.byte	0x1
 12565 0153 0B       		.uleb128 0xb
 12566 0154 0B       		.uleb128 0xb
 12567 0155 3A       		.uleb128 0x3a
 12568 0156 0B       		.uleb128 0xb
 12569 0157 3B       		.uleb128 0x3b
 12570 0158 05       		.uleb128 0x5
 12571 0159 01       		.uleb128 0x1
 12572 015a 13       		.uleb128 0x13
 12573 015b 00       		.byte	0
 12574 015c 00       		.byte	0
 12575 015d 1E       		.uleb128 0x1e
 12576 015e 0D       		.uleb128 0xd
 12577 015f 00       		.byte	0
 12578 0160 03       		.uleb128 0x3
 12579 0161 0E       		.uleb128 0xe
 12580 0162 3A       		.uleb128 0x3a
 12581 0163 0B       		.uleb128 0xb
 12582 0164 3B       		.uleb128 0x3b
 12583 0165 05       		.uleb128 0x5
 12584 0166 49       		.uleb128 0x49
 12585 0167 13       		.uleb128 0x13
ARM GAS  /tmp/ccqRaZSa.s 			page 222


 12586 0168 00       		.byte	0
 12587 0169 00       		.byte	0
 12588 016a 1F       		.uleb128 0x1f
 12589 016b 15       		.uleb128 0x15
 12590 016c 01       		.byte	0x1
 12591 016d 27       		.uleb128 0x27
 12592 016e 19       		.uleb128 0x19
 12593 016f 01       		.uleb128 0x1
 12594 0170 13       		.uleb128 0x13
 12595 0171 00       		.byte	0
 12596 0172 00       		.byte	0
 12597 0173 20       		.uleb128 0x20
 12598 0174 34       		.uleb128 0x34
 12599 0175 00       		.byte	0
 12600 0176 03       		.uleb128 0x3
 12601 0177 0E       		.uleb128 0xe
 12602 0178 3A       		.uleb128 0x3a
 12603 0179 0B       		.uleb128 0xb
 12604 017a 3B       		.uleb128 0x3b
 12605 017b 05       		.uleb128 0x5
 12606 017c 49       		.uleb128 0x49
 12607 017d 13       		.uleb128 0x13
 12608 017e 3F       		.uleb128 0x3f
 12609 017f 19       		.uleb128 0x19
 12610 0180 3C       		.uleb128 0x3c
 12611 0181 19       		.uleb128 0x19
 12612 0182 00       		.byte	0
 12613 0183 00       		.byte	0
 12614 0184 21       		.uleb128 0x21
 12615 0185 0D       		.uleb128 0xd
 12616 0186 00       		.byte	0
 12617 0187 03       		.uleb128 0x3
 12618 0188 08       		.uleb128 0x8
 12619 0189 3A       		.uleb128 0x3a
 12620 018a 0B       		.uleb128 0xb
 12621 018b 3B       		.uleb128 0x3b
 12622 018c 05       		.uleb128 0x5
 12623 018d 49       		.uleb128 0x49
 12624 018e 13       		.uleb128 0x13
 12625 018f 38       		.uleb128 0x38
 12626 0190 0B       		.uleb128 0xb
 12627 0191 00       		.byte	0
 12628 0192 00       		.byte	0
 12629 0193 22       		.uleb128 0x22
 12630 0194 34       		.uleb128 0x34
 12631 0195 00       		.byte	0
 12632 0196 03       		.uleb128 0x3
 12633 0197 0E       		.uleb128 0xe
 12634 0198 3A       		.uleb128 0x3a
 12635 0199 0B       		.uleb128 0xb
 12636 019a 3B       		.uleb128 0x3b
 12637 019b 0B       		.uleb128 0xb
 12638 019c 49       		.uleb128 0x49
 12639 019d 13       		.uleb128 0x13
 12640 019e 3F       		.uleb128 0x3f
 12641 019f 19       		.uleb128 0x19
 12642 01a0 3C       		.uleb128 0x3c
ARM GAS  /tmp/ccqRaZSa.s 			page 223


 12643 01a1 19       		.uleb128 0x19
 12644 01a2 00       		.byte	0
 12645 01a3 00       		.byte	0
 12646 01a4 23       		.uleb128 0x23
 12647 01a5 13       		.uleb128 0x13
 12648 01a6 01       		.byte	0x1
 12649 01a7 0B       		.uleb128 0xb
 12650 01a8 05       		.uleb128 0x5
 12651 01a9 3A       		.uleb128 0x3a
 12652 01aa 0B       		.uleb128 0xb
 12653 01ab 3B       		.uleb128 0x3b
 12654 01ac 05       		.uleb128 0x5
 12655 01ad 01       		.uleb128 0x1
 12656 01ae 13       		.uleb128 0x13
 12657 01af 00       		.byte	0
 12658 01b0 00       		.byte	0
 12659 01b1 24       		.uleb128 0x24
 12660 01b2 0D       		.uleb128 0xd
 12661 01b3 00       		.byte	0
 12662 01b4 03       		.uleb128 0x3
 12663 01b5 08       		.uleb128 0x8
 12664 01b6 3A       		.uleb128 0x3a
 12665 01b7 0B       		.uleb128 0xb
 12666 01b8 3B       		.uleb128 0x3b
 12667 01b9 05       		.uleb128 0x5
 12668 01ba 49       		.uleb128 0x49
 12669 01bb 13       		.uleb128 0x13
 12670 01bc 38       		.uleb128 0x38
 12671 01bd 05       		.uleb128 0x5
 12672 01be 00       		.byte	0
 12673 01bf 00       		.byte	0
 12674 01c0 25       		.uleb128 0x25
 12675 01c1 34       		.uleb128 0x34
 12676 01c2 00       		.byte	0
 12677 01c3 03       		.uleb128 0x3
 12678 01c4 08       		.uleb128 0x8
 12679 01c5 3A       		.uleb128 0x3a
 12680 01c6 0B       		.uleb128 0xb
 12681 01c7 3B       		.uleb128 0x3b
 12682 01c8 05       		.uleb128 0x5
 12683 01c9 49       		.uleb128 0x49
 12684 01ca 13       		.uleb128 0x13
 12685 01cb 3F       		.uleb128 0x3f
 12686 01cc 19       		.uleb128 0x19
 12687 01cd 3C       		.uleb128 0x3c
 12688 01ce 19       		.uleb128 0x19
 12689 01cf 00       		.byte	0
 12690 01d0 00       		.byte	0
 12691 01d1 26       		.uleb128 0x26
 12692 01d2 0D       		.uleb128 0xd
 12693 01d3 00       		.byte	0
 12694 01d4 03       		.uleb128 0x3
 12695 01d5 08       		.uleb128 0x8
 12696 01d6 3A       		.uleb128 0x3a
 12697 01d7 0B       		.uleb128 0xb
 12698 01d8 3B       		.uleb128 0x3b
 12699 01d9 0B       		.uleb128 0xb
ARM GAS  /tmp/ccqRaZSa.s 			page 224


 12700 01da 49       		.uleb128 0x49
 12701 01db 13       		.uleb128 0x13
 12702 01dc 00       		.byte	0
 12703 01dd 00       		.byte	0
 12704 01de 27       		.uleb128 0x27
 12705 01df 04       		.uleb128 0x4
 12706 01e0 01       		.byte	0x1
 12707 01e1 3E       		.uleb128 0x3e
 12708 01e2 0B       		.uleb128 0xb
 12709 01e3 0B       		.uleb128 0xb
 12710 01e4 0B       		.uleb128 0xb
 12711 01e5 49       		.uleb128 0x49
 12712 01e6 13       		.uleb128 0x13
 12713 01e7 3A       		.uleb128 0x3a
 12714 01e8 0B       		.uleb128 0xb
 12715 01e9 3B       		.uleb128 0x3b
 12716 01ea 0B       		.uleb128 0xb
 12717 01eb 01       		.uleb128 0x1
 12718 01ec 13       		.uleb128 0x13
 12719 01ed 00       		.byte	0
 12720 01ee 00       		.byte	0
 12721 01ef 28       		.uleb128 0x28
 12722 01f0 28       		.uleb128 0x28
 12723 01f1 00       		.byte	0
 12724 01f2 03       		.uleb128 0x3
 12725 01f3 0E       		.uleb128 0xe
 12726 01f4 1C       		.uleb128 0x1c
 12727 01f5 0B       		.uleb128 0xb
 12728 01f6 00       		.byte	0
 12729 01f7 00       		.byte	0
 12730 01f8 29       		.uleb128 0x29
 12731 01f9 04       		.uleb128 0x4
 12732 01fa 01       		.byte	0x1
 12733 01fb 3E       		.uleb128 0x3e
 12734 01fc 0B       		.uleb128 0xb
 12735 01fd 0B       		.uleb128 0xb
 12736 01fe 0B       		.uleb128 0xb
 12737 01ff 49       		.uleb128 0x49
 12738 0200 13       		.uleb128 0x13
 12739 0201 3A       		.uleb128 0x3a
 12740 0202 0B       		.uleb128 0xb
 12741 0203 3B       		.uleb128 0x3b
 12742 0204 05       		.uleb128 0x5
 12743 0205 01       		.uleb128 0x1
 12744 0206 13       		.uleb128 0x13
 12745 0207 00       		.byte	0
 12746 0208 00       		.byte	0
 12747 0209 2A       		.uleb128 0x2a
 12748 020a 13       		.uleb128 0x13
 12749 020b 01       		.byte	0x1
 12750 020c 0B       		.uleb128 0xb
 12751 020d 06       		.uleb128 0x6
 12752 020e 3A       		.uleb128 0x3a
 12753 020f 0B       		.uleb128 0xb
 12754 0210 3B       		.uleb128 0x3b
 12755 0211 0B       		.uleb128 0xb
 12756 0212 01       		.uleb128 0x1
ARM GAS  /tmp/ccqRaZSa.s 			page 225


 12757 0213 13       		.uleb128 0x13
 12758 0214 00       		.byte	0
 12759 0215 00       		.byte	0
 12760 0216 2B       		.uleb128 0x2b
 12761 0217 0D       		.uleb128 0xd
 12762 0218 00       		.byte	0
 12763 0219 03       		.uleb128 0x3
 12764 021a 08       		.uleb128 0x8
 12765 021b 3A       		.uleb128 0x3a
 12766 021c 0B       		.uleb128 0xb
 12767 021d 3B       		.uleb128 0x3b
 12768 021e 0B       		.uleb128 0xb
 12769 021f 49       		.uleb128 0x49
 12770 0220 13       		.uleb128 0x13
 12771 0221 38       		.uleb128 0x38
 12772 0222 05       		.uleb128 0x5
 12773 0223 00       		.byte	0
 12774 0224 00       		.byte	0
 12775 0225 2C       		.uleb128 0x2c
 12776 0226 21       		.uleb128 0x21
 12777 0227 00       		.byte	0
 12778 0228 49       		.uleb128 0x49
 12779 0229 13       		.uleb128 0x13
 12780 022a 2F       		.uleb128 0x2f
 12781 022b 05       		.uleb128 0x5
 12782 022c 00       		.byte	0
 12783 022d 00       		.byte	0
 12784 022e 2D       		.uleb128 0x2d
 12785 022f 34       		.uleb128 0x34
 12786 0230 00       		.byte	0
 12787 0231 47       		.uleb128 0x47
 12788 0232 13       		.uleb128 0x13
 12789 0233 3A       		.uleb128 0x3a
 12790 0234 0B       		.uleb128 0xb
 12791 0235 3B       		.uleb128 0x3b
 12792 0236 0B       		.uleb128 0xb
 12793 0237 02       		.uleb128 0x2
 12794 0238 18       		.uleb128 0x18
 12795 0239 00       		.byte	0
 12796 023a 00       		.byte	0
 12797 023b 2E       		.uleb128 0x2e
 12798 023c 34       		.uleb128 0x34
 12799 023d 00       		.byte	0
 12800 023e 03       		.uleb128 0x3
 12801 023f 0E       		.uleb128 0xe
 12802 0240 3A       		.uleb128 0x3a
 12803 0241 0B       		.uleb128 0xb
 12804 0242 3B       		.uleb128 0x3b
 12805 0243 0B       		.uleb128 0xb
 12806 0244 49       		.uleb128 0x49
 12807 0245 13       		.uleb128 0x13
 12808 0246 02       		.uleb128 0x2
 12809 0247 18       		.uleb128 0x18
 12810 0248 00       		.byte	0
 12811 0249 00       		.byte	0
 12812 024a 2F       		.uleb128 0x2f
 12813 024b 2E       		.uleb128 0x2e
ARM GAS  /tmp/ccqRaZSa.s 			page 226


 12814 024c 01       		.byte	0x1
 12815 024d 3F       		.uleb128 0x3f
 12816 024e 19       		.uleb128 0x19
 12817 024f 03       		.uleb128 0x3
 12818 0250 0E       		.uleb128 0xe
 12819 0251 3A       		.uleb128 0x3a
 12820 0252 0B       		.uleb128 0xb
 12821 0253 3B       		.uleb128 0x3b
 12822 0254 05       		.uleb128 0x5
 12823 0255 27       		.uleb128 0x27
 12824 0256 19       		.uleb128 0x19
 12825 0257 11       		.uleb128 0x11
 12826 0258 01       		.uleb128 0x1
 12827 0259 12       		.uleb128 0x12
 12828 025a 06       		.uleb128 0x6
 12829 025b 40       		.uleb128 0x40
 12830 025c 18       		.uleb128 0x18
 12831 025d 9742     		.uleb128 0x2117
 12832 025f 19       		.uleb128 0x19
 12833 0260 01       		.uleb128 0x1
 12834 0261 13       		.uleb128 0x13
 12835 0262 00       		.byte	0
 12836 0263 00       		.byte	0
 12837 0264 30       		.uleb128 0x30
 12838 0265 05       		.uleb128 0x5
 12839 0266 00       		.byte	0
 12840 0267 03       		.uleb128 0x3
 12841 0268 08       		.uleb128 0x8
 12842 0269 3A       		.uleb128 0x3a
 12843 026a 0B       		.uleb128 0xb
 12844 026b 3B       		.uleb128 0x3b
 12845 026c 05       		.uleb128 0x5
 12846 026d 49       		.uleb128 0x49
 12847 026e 13       		.uleb128 0x13
 12848 026f 02       		.uleb128 0x2
 12849 0270 17       		.uleb128 0x17
 12850 0271 00       		.byte	0
 12851 0272 00       		.byte	0
 12852 0273 31       		.uleb128 0x31
 12853 0274 34       		.uleb128 0x34
 12854 0275 00       		.byte	0
 12855 0276 03       		.uleb128 0x3
 12856 0277 0E       		.uleb128 0xe
 12857 0278 3A       		.uleb128 0x3a
 12858 0279 0B       		.uleb128 0xb
 12859 027a 3B       		.uleb128 0x3b
 12860 027b 05       		.uleb128 0x5
 12861 027c 49       		.uleb128 0x49
 12862 027d 13       		.uleb128 0x13
 12863 027e 02       		.uleb128 0x2
 12864 027f 17       		.uleb128 0x17
 12865 0280 00       		.byte	0
 12866 0281 00       		.byte	0
 12867 0282 32       		.uleb128 0x32
 12868 0283 0B       		.uleb128 0xb
 12869 0284 01       		.byte	0x1
 12870 0285 11       		.uleb128 0x11
ARM GAS  /tmp/ccqRaZSa.s 			page 227


 12871 0286 01       		.uleb128 0x1
 12872 0287 12       		.uleb128 0x12
 12873 0288 06       		.uleb128 0x6
 12874 0289 01       		.uleb128 0x1
 12875 028a 13       		.uleb128 0x13
 12876 028b 00       		.byte	0
 12877 028c 00       		.byte	0
 12878 028d 33       		.uleb128 0x33
 12879 028e 34       		.uleb128 0x34
 12880 028f 00       		.byte	0
 12881 0290 03       		.uleb128 0x3
 12882 0291 08       		.uleb128 0x8
 12883 0292 3A       		.uleb128 0x3a
 12884 0293 0B       		.uleb128 0xb
 12885 0294 3B       		.uleb128 0x3b
 12886 0295 05       		.uleb128 0x5
 12887 0296 49       		.uleb128 0x49
 12888 0297 13       		.uleb128 0x13
 12889 0298 02       		.uleb128 0x2
 12890 0299 17       		.uleb128 0x17
 12891 029a 00       		.byte	0
 12892 029b 00       		.byte	0
 12893 029c 34       		.uleb128 0x34
 12894 029d 34       		.uleb128 0x34
 12895 029e 00       		.byte	0
 12896 029f 03       		.uleb128 0x3
 12897 02a0 0E       		.uleb128 0xe
 12898 02a1 3A       		.uleb128 0x3a
 12899 02a2 0B       		.uleb128 0xb
 12900 02a3 3B       		.uleb128 0x3b
 12901 02a4 05       		.uleb128 0x5
 12902 02a5 49       		.uleb128 0x49
 12903 02a6 13       		.uleb128 0x13
 12904 02a7 00       		.byte	0
 12905 02a8 00       		.byte	0
 12906 02a9 35       		.uleb128 0x35
 12907 02aa 1D       		.uleb128 0x1d
 12908 02ab 01       		.byte	0x1
 12909 02ac 31       		.uleb128 0x31
 12910 02ad 13       		.uleb128 0x13
 12911 02ae 11       		.uleb128 0x11
 12912 02af 01       		.uleb128 0x1
 12913 02b0 12       		.uleb128 0x12
 12914 02b1 06       		.uleb128 0x6
 12915 02b2 58       		.uleb128 0x58
 12916 02b3 0B       		.uleb128 0xb
 12917 02b4 59       		.uleb128 0x59
 12918 02b5 05       		.uleb128 0x5
 12919 02b6 01       		.uleb128 0x1
 12920 02b7 13       		.uleb128 0x13
 12921 02b8 00       		.byte	0
 12922 02b9 00       		.byte	0
 12923 02ba 36       		.uleb128 0x36
 12924 02bb 1D       		.uleb128 0x1d
 12925 02bc 01       		.byte	0x1
 12926 02bd 31       		.uleb128 0x31
 12927 02be 13       		.uleb128 0x13
ARM GAS  /tmp/ccqRaZSa.s 			page 228


 12928 02bf 11       		.uleb128 0x11
 12929 02c0 01       		.uleb128 0x1
 12930 02c1 12       		.uleb128 0x12
 12931 02c2 06       		.uleb128 0x6
 12932 02c3 58       		.uleb128 0x58
 12933 02c4 0B       		.uleb128 0xb
 12934 02c5 59       		.uleb128 0x59
 12935 02c6 05       		.uleb128 0x5
 12936 02c7 00       		.byte	0
 12937 02c8 00       		.byte	0
 12938 02c9 37       		.uleb128 0x37
 12939 02ca 1D       		.uleb128 0x1d
 12940 02cb 00       		.byte	0
 12941 02cc 31       		.uleb128 0x31
 12942 02cd 13       		.uleb128 0x13
 12943 02ce 11       		.uleb128 0x11
 12944 02cf 01       		.uleb128 0x1
 12945 02d0 12       		.uleb128 0x12
 12946 02d1 06       		.uleb128 0x6
 12947 02d2 58       		.uleb128 0x58
 12948 02d3 0B       		.uleb128 0xb
 12949 02d4 59       		.uleb128 0x59
 12950 02d5 05       		.uleb128 0x5
 12951 02d6 00       		.byte	0
 12952 02d7 00       		.byte	0
 12953 02d8 38       		.uleb128 0x38
 12954 02d9 0B       		.uleb128 0xb
 12955 02da 01       		.byte	0x1
 12956 02db 11       		.uleb128 0x11
 12957 02dc 01       		.uleb128 0x1
 12958 02dd 12       		.uleb128 0x12
 12959 02de 06       		.uleb128 0x6
 12960 02df 00       		.byte	0
 12961 02e0 00       		.byte	0
 12962 02e1 39       		.uleb128 0x39
 12963 02e2 1D       		.uleb128 0x1d
 12964 02e3 01       		.byte	0x1
 12965 02e4 31       		.uleb128 0x31
 12966 02e5 13       		.uleb128 0x13
 12967 02e6 52       		.uleb128 0x52
 12968 02e7 01       		.uleb128 0x1
 12969 02e8 55       		.uleb128 0x55
 12970 02e9 17       		.uleb128 0x17
 12971 02ea 58       		.uleb128 0x58
 12972 02eb 0B       		.uleb128 0xb
 12973 02ec 59       		.uleb128 0x59
 12974 02ed 05       		.uleb128 0x5
 12975 02ee 01       		.uleb128 0x1
 12976 02ef 13       		.uleb128 0x13
 12977 02f0 00       		.byte	0
 12978 02f1 00       		.byte	0
 12979 02f2 3A       		.uleb128 0x3a
 12980 02f3 05       		.uleb128 0x5
 12981 02f4 00       		.byte	0
 12982 02f5 31       		.uleb128 0x31
 12983 02f6 13       		.uleb128 0x13
 12984 02f7 00       		.byte	0
ARM GAS  /tmp/ccqRaZSa.s 			page 229


 12985 02f8 00       		.byte	0
 12986 02f9 3B       		.uleb128 0x3b
 12987 02fa 05       		.uleb128 0x5
 12988 02fb 00       		.byte	0
 12989 02fc 31       		.uleb128 0x31
 12990 02fd 13       		.uleb128 0x13
 12991 02fe 02       		.uleb128 0x2
 12992 02ff 17       		.uleb128 0x17
 12993 0300 00       		.byte	0
 12994 0301 00       		.byte	0
 12995 0302 3C       		.uleb128 0x3c
 12996 0303 0B       		.uleb128 0xb
 12997 0304 01       		.byte	0x1
 12998 0305 31       		.uleb128 0x31
 12999 0306 13       		.uleb128 0x13
 13000 0307 55       		.uleb128 0x55
 13001 0308 17       		.uleb128 0x17
 13002 0309 00       		.byte	0
 13003 030a 00       		.byte	0
 13004 030b 3D       		.uleb128 0x3d
 13005 030c 34       		.uleb128 0x34
 13006 030d 00       		.byte	0
 13007 030e 31       		.uleb128 0x31
 13008 030f 13       		.uleb128 0x13
 13009 0310 02       		.uleb128 0x2
 13010 0311 17       		.uleb128 0x17
 13011 0312 00       		.byte	0
 13012 0313 00       		.byte	0
 13013 0314 3E       		.uleb128 0x3e
 13014 0315 0B       		.uleb128 0xb
 13015 0316 01       		.byte	0x1
 13016 0317 55       		.uleb128 0x55
 13017 0318 17       		.uleb128 0x17
 13018 0319 00       		.byte	0
 13019 031a 00       		.byte	0
 13020 031b 3F       		.uleb128 0x3f
 13021 031c 0B       		.uleb128 0xb
 13022 031d 01       		.byte	0x1
 13023 031e 31       		.uleb128 0x31
 13024 031f 13       		.uleb128 0x13
 13025 0320 55       		.uleb128 0x55
 13026 0321 17       		.uleb128 0x17
 13027 0322 01       		.uleb128 0x1
 13028 0323 13       		.uleb128 0x13
 13029 0324 00       		.byte	0
 13030 0325 00       		.byte	0
 13031 0326 40       		.uleb128 0x40
 13032 0327 34       		.uleb128 0x34
 13033 0328 00       		.byte	0
 13034 0329 31       		.uleb128 0x31
 13035 032a 13       		.uleb128 0x13
 13036 032b 00       		.byte	0
 13037 032c 00       		.byte	0
 13038 032d 41       		.uleb128 0x41
 13039 032e 1D       		.uleb128 0x1d
 13040 032f 01       		.byte	0x1
 13041 0330 31       		.uleb128 0x31
ARM GAS  /tmp/ccqRaZSa.s 			page 230


 13042 0331 13       		.uleb128 0x13
 13043 0332 52       		.uleb128 0x52
 13044 0333 01       		.uleb128 0x1
 13045 0334 55       		.uleb128 0x55
 13046 0335 17       		.uleb128 0x17
 13047 0336 58       		.uleb128 0x58
 13048 0337 0B       		.uleb128 0xb
 13049 0338 59       		.uleb128 0x59
 13050 0339 05       		.uleb128 0x5
 13051 033a 00       		.byte	0
 13052 033b 00       		.byte	0
 13053 033c 42       		.uleb128 0x42
 13054 033d 898201   		.uleb128 0x4109
 13055 0340 01       		.byte	0x1
 13056 0341 11       		.uleb128 0x11
 13057 0342 01       		.uleb128 0x1
 13058 0343 31       		.uleb128 0x31
 13059 0344 13       		.uleb128 0x13
 13060 0345 00       		.byte	0
 13061 0346 00       		.byte	0
 13062 0347 43       		.uleb128 0x43
 13063 0348 8A8201   		.uleb128 0x410a
 13064 034b 00       		.byte	0
 13065 034c 02       		.uleb128 0x2
 13066 034d 18       		.uleb128 0x18
 13067 034e 9142     		.uleb128 0x2111
 13068 0350 18       		.uleb128 0x18
 13069 0351 00       		.byte	0
 13070 0352 00       		.byte	0
 13071 0353 44       		.uleb128 0x44
 13072 0354 898201   		.uleb128 0x4109
 13073 0357 00       		.byte	0
 13074 0358 11       		.uleb128 0x11
 13075 0359 01       		.uleb128 0x1
 13076 035a 31       		.uleb128 0x31
 13077 035b 13       		.uleb128 0x13
 13078 035c 00       		.byte	0
 13079 035d 00       		.byte	0
 13080 035e 45       		.uleb128 0x45
 13081 035f 1D       		.uleb128 0x1d
 13082 0360 01       		.byte	0x1
 13083 0361 31       		.uleb128 0x31
 13084 0362 13       		.uleb128 0x13
 13085 0363 11       		.uleb128 0x11
 13086 0364 01       		.uleb128 0x1
 13087 0365 12       		.uleb128 0x12
 13088 0366 06       		.uleb128 0x6
 13089 0367 58       		.uleb128 0x58
 13090 0368 0B       		.uleb128 0xb
 13091 0369 59       		.uleb128 0x59
 13092 036a 0B       		.uleb128 0xb
 13093 036b 00       		.byte	0
 13094 036c 00       		.byte	0
 13095 036d 46       		.uleb128 0x46
 13096 036e 1D       		.uleb128 0x1d
 13097 036f 00       		.byte	0
 13098 0370 31       		.uleb128 0x31
ARM GAS  /tmp/ccqRaZSa.s 			page 231


 13099 0371 13       		.uleb128 0x13
 13100 0372 52       		.uleb128 0x52
 13101 0373 01       		.uleb128 0x1
 13102 0374 55       		.uleb128 0x55
 13103 0375 17       		.uleb128 0x17
 13104 0376 58       		.uleb128 0x58
 13105 0377 0B       		.uleb128 0xb
 13106 0378 59       		.uleb128 0x59
 13107 0379 05       		.uleb128 0x5
 13108 037a 00       		.byte	0
 13109 037b 00       		.byte	0
 13110 037c 47       		.uleb128 0x47
 13111 037d 0B       		.uleb128 0xb
 13112 037e 01       		.byte	0x1
 13113 037f 31       		.uleb128 0x31
 13114 0380 13       		.uleb128 0x13
 13115 0381 11       		.uleb128 0x11
 13116 0382 01       		.uleb128 0x1
 13117 0383 12       		.uleb128 0x12
 13118 0384 06       		.uleb128 0x6
 13119 0385 01       		.uleb128 0x1
 13120 0386 13       		.uleb128 0x13
 13121 0387 00       		.byte	0
 13122 0388 00       		.byte	0
 13123 0389 48       		.uleb128 0x48
 13124 038a 0B       		.uleb128 0xb
 13125 038b 01       		.byte	0x1
 13126 038c 31       		.uleb128 0x31
 13127 038d 13       		.uleb128 0x13
 13128 038e 11       		.uleb128 0x11
 13129 038f 01       		.uleb128 0x1
 13130 0390 12       		.uleb128 0x12
 13131 0391 06       		.uleb128 0x6
 13132 0392 00       		.byte	0
 13133 0393 00       		.byte	0
 13134 0394 49       		.uleb128 0x49
 13135 0395 05       		.uleb128 0x5
 13136 0396 00       		.byte	0
 13137 0397 03       		.uleb128 0x3
 13138 0398 0E       		.uleb128 0xe
 13139 0399 3A       		.uleb128 0x3a
 13140 039a 0B       		.uleb128 0xb
 13141 039b 3B       		.uleb128 0x3b
 13142 039c 05       		.uleb128 0x5
 13143 039d 49       		.uleb128 0x49
 13144 039e 13       		.uleb128 0x13
 13145 039f 02       		.uleb128 0x2
 13146 03a0 18       		.uleb128 0x18
 13147 03a1 00       		.byte	0
 13148 03a2 00       		.byte	0
 13149 03a3 4A       		.uleb128 0x4a
 13150 03a4 2E       		.uleb128 0x2e
 13151 03a5 01       		.byte	0x1
 13152 03a6 3F       		.uleb128 0x3f
 13153 03a7 19       		.uleb128 0x19
 13154 03a8 03       		.uleb128 0x3
 13155 03a9 0E       		.uleb128 0xe
ARM GAS  /tmp/ccqRaZSa.s 			page 232


 13156 03aa 3A       		.uleb128 0x3a
 13157 03ab 0B       		.uleb128 0xb
 13158 03ac 3B       		.uleb128 0x3b
 13159 03ad 05       		.uleb128 0x5
 13160 03ae 27       		.uleb128 0x27
 13161 03af 19       		.uleb128 0x19
 13162 03b0 20       		.uleb128 0x20
 13163 03b1 0B       		.uleb128 0xb
 13164 03b2 01       		.uleb128 0x1
 13165 03b3 13       		.uleb128 0x13
 13166 03b4 00       		.byte	0
 13167 03b5 00       		.byte	0
 13168 03b6 4B       		.uleb128 0x4b
 13169 03b7 05       		.uleb128 0x5
 13170 03b8 00       		.byte	0
 13171 03b9 03       		.uleb128 0x3
 13172 03ba 0E       		.uleb128 0xe
 13173 03bb 3A       		.uleb128 0x3a
 13174 03bc 0B       		.uleb128 0xb
 13175 03bd 3B       		.uleb128 0x3b
 13176 03be 05       		.uleb128 0x5
 13177 03bf 49       		.uleb128 0x49
 13178 03c0 13       		.uleb128 0x13
 13179 03c1 00       		.byte	0
 13180 03c2 00       		.byte	0
 13181 03c3 4C       		.uleb128 0x4c
 13182 03c4 05       		.uleb128 0x5
 13183 03c5 00       		.byte	0
 13184 03c6 03       		.uleb128 0x3
 13185 03c7 08       		.uleb128 0x8
 13186 03c8 3A       		.uleb128 0x3a
 13187 03c9 0B       		.uleb128 0xb
 13188 03ca 3B       		.uleb128 0x3b
 13189 03cb 05       		.uleb128 0x5
 13190 03cc 49       		.uleb128 0x49
 13191 03cd 13       		.uleb128 0x13
 13192 03ce 00       		.byte	0
 13193 03cf 00       		.byte	0
 13194 03d0 4D       		.uleb128 0x4d
 13195 03d1 05       		.uleb128 0x5
 13196 03d2 00       		.byte	0
 13197 03d3 03       		.uleb128 0x3
 13198 03d4 0E       		.uleb128 0xe
 13199 03d5 3A       		.uleb128 0x3a
 13200 03d6 0B       		.uleb128 0xb
 13201 03d7 3B       		.uleb128 0x3b
 13202 03d8 05       		.uleb128 0x5
 13203 03d9 49       		.uleb128 0x49
 13204 03da 13       		.uleb128 0x13
 13205 03db 02       		.uleb128 0x2
 13206 03dc 17       		.uleb128 0x17
 13207 03dd 00       		.byte	0
 13208 03de 00       		.byte	0
 13209 03df 4E       		.uleb128 0x4e
 13210 03e0 05       		.uleb128 0x5
 13211 03e1 00       		.byte	0
 13212 03e2 03       		.uleb128 0x3
ARM GAS  /tmp/ccqRaZSa.s 			page 233


 13213 03e3 08       		.uleb128 0x8
 13214 03e4 3A       		.uleb128 0x3a
 13215 03e5 0B       		.uleb128 0xb
 13216 03e6 3B       		.uleb128 0x3b
 13217 03e7 05       		.uleb128 0x5
 13218 03e8 49       		.uleb128 0x49
 13219 03e9 13       		.uleb128 0x13
 13220 03ea 02       		.uleb128 0x2
 13221 03eb 18       		.uleb128 0x18
 13222 03ec 00       		.byte	0
 13223 03ed 00       		.byte	0
 13224 03ee 4F       		.uleb128 0x4f
 13225 03ef 2E       		.uleb128 0x2e
 13226 03f0 01       		.byte	0x1
 13227 03f1 3F       		.uleb128 0x3f
 13228 03f2 19       		.uleb128 0x19
 13229 03f3 03       		.uleb128 0x3
 13230 03f4 0E       		.uleb128 0xe
 13231 03f5 3A       		.uleb128 0x3a
 13232 03f6 0B       		.uleb128 0xb
 13233 03f7 3B       		.uleb128 0x3b
 13234 03f8 05       		.uleb128 0x5
 13235 03f9 27       		.uleb128 0x27
 13236 03fa 19       		.uleb128 0x19
 13237 03fb 49       		.uleb128 0x49
 13238 03fc 13       		.uleb128 0x13
 13239 03fd 11       		.uleb128 0x11
 13240 03fe 01       		.uleb128 0x1
 13241 03ff 12       		.uleb128 0x12
 13242 0400 06       		.uleb128 0x6
 13243 0401 40       		.uleb128 0x40
 13244 0402 18       		.uleb128 0x18
 13245 0403 9742     		.uleb128 0x2117
 13246 0405 19       		.uleb128 0x19
 13247 0406 01       		.uleb128 0x1
 13248 0407 13       		.uleb128 0x13
 13249 0408 00       		.byte	0
 13250 0409 00       		.byte	0
 13251 040a 50       		.uleb128 0x50
 13252 040b 34       		.uleb128 0x34
 13253 040c 00       		.byte	0
 13254 040d 03       		.uleb128 0x3
 13255 040e 08       		.uleb128 0x8
 13256 040f 3A       		.uleb128 0x3a
 13257 0410 0B       		.uleb128 0xb
 13258 0411 3B       		.uleb128 0x3b
 13259 0412 05       		.uleb128 0x5
 13260 0413 49       		.uleb128 0x49
 13261 0414 13       		.uleb128 0x13
 13262 0415 02       		.uleb128 0x2
 13263 0416 18       		.uleb128 0x18
 13264 0417 00       		.byte	0
 13265 0418 00       		.byte	0
 13266 0419 51       		.uleb128 0x51
 13267 041a 34       		.uleb128 0x34
 13268 041b 00       		.byte	0
 13269 041c 03       		.uleb128 0x3
ARM GAS  /tmp/ccqRaZSa.s 			page 234


 13270 041d 0E       		.uleb128 0xe
 13271 041e 3A       		.uleb128 0x3a
 13272 041f 0B       		.uleb128 0xb
 13273 0420 3B       		.uleb128 0x3b
 13274 0421 05       		.uleb128 0x5
 13275 0422 49       		.uleb128 0x49
 13276 0423 13       		.uleb128 0x13
 13277 0424 02       		.uleb128 0x2
 13278 0425 18       		.uleb128 0x18
 13279 0426 00       		.byte	0
 13280 0427 00       		.byte	0
 13281 0428 52       		.uleb128 0x52
 13282 0429 1D       		.uleb128 0x1d
 13283 042a 01       		.byte	0x1
 13284 042b 31       		.uleb128 0x31
 13285 042c 13       		.uleb128 0x13
 13286 042d 52       		.uleb128 0x52
 13287 042e 01       		.uleb128 0x1
 13288 042f 55       		.uleb128 0x55
 13289 0430 17       		.uleb128 0x17
 13290 0431 58       		.uleb128 0x58
 13291 0432 0B       		.uleb128 0xb
 13292 0433 59       		.uleb128 0x59
 13293 0434 0B       		.uleb128 0xb
 13294 0435 01       		.uleb128 0x1
 13295 0436 13       		.uleb128 0x13
 13296 0437 00       		.byte	0
 13297 0438 00       		.byte	0
 13298 0439 53       		.uleb128 0x53
 13299 043a 898201   		.uleb128 0x4109
 13300 043d 01       		.byte	0x1
 13301 043e 11       		.uleb128 0x11
 13302 043f 01       		.uleb128 0x1
 13303 0440 31       		.uleb128 0x31
 13304 0441 13       		.uleb128 0x13
 13305 0442 01       		.uleb128 0x1
 13306 0443 13       		.uleb128 0x13
 13307 0444 00       		.byte	0
 13308 0445 00       		.byte	0
 13309 0446 54       		.uleb128 0x54
 13310 0447 0B       		.uleb128 0xb
 13311 0448 01       		.byte	0x1
 13312 0449 55       		.uleb128 0x55
 13313 044a 17       		.uleb128 0x17
 13314 044b 01       		.uleb128 0x1
 13315 044c 13       		.uleb128 0x13
 13316 044d 00       		.byte	0
 13317 044e 00       		.byte	0
 13318 044f 55       		.uleb128 0x55
 13319 0450 898201   		.uleb128 0x4109
 13320 0453 01       		.byte	0x1
 13321 0454 11       		.uleb128 0x11
 13322 0455 01       		.uleb128 0x1
 13323 0456 9542     		.uleb128 0x2115
 13324 0458 19       		.uleb128 0x19
 13325 0459 31       		.uleb128 0x31
 13326 045a 13       		.uleb128 0x13
ARM GAS  /tmp/ccqRaZSa.s 			page 235


 13327 045b 00       		.byte	0
 13328 045c 00       		.byte	0
 13329 045d 56       		.uleb128 0x56
 13330 045e 898201   		.uleb128 0x4109
 13331 0461 01       		.byte	0x1
 13332 0462 11       		.uleb128 0x11
 13333 0463 01       		.uleb128 0x1
 13334 0464 01       		.uleb128 0x1
 13335 0465 13       		.uleb128 0x13
 13336 0466 00       		.byte	0
 13337 0467 00       		.byte	0
 13338 0468 57       		.uleb128 0x57
 13339 0469 898201   		.uleb128 0x4109
 13340 046c 00       		.byte	0
 13341 046d 11       		.uleb128 0x11
 13342 046e 01       		.uleb128 0x1
 13343 046f 9542     		.uleb128 0x2115
 13344 0471 19       		.uleb128 0x19
 13345 0472 31       		.uleb128 0x31
 13346 0473 13       		.uleb128 0x13
 13347 0474 00       		.byte	0
 13348 0475 00       		.byte	0
 13349 0476 58       		.uleb128 0x58
 13350 0477 2E       		.uleb128 0x2e
 13351 0478 01       		.byte	0x1
 13352 0479 03       		.uleb128 0x3
 13353 047a 0E       		.uleb128 0xe
 13354 047b 3A       		.uleb128 0x3a
 13355 047c 0B       		.uleb128 0xb
 13356 047d 3B       		.uleb128 0x3b
 13357 047e 05       		.uleb128 0x5
 13358 047f 27       		.uleb128 0x27
 13359 0480 19       		.uleb128 0x19
 13360 0481 20       		.uleb128 0x20
 13361 0482 0B       		.uleb128 0xb
 13362 0483 01       		.uleb128 0x1
 13363 0484 13       		.uleb128 0x13
 13364 0485 00       		.byte	0
 13365 0486 00       		.byte	0
 13366 0487 59       		.uleb128 0x59
 13367 0488 34       		.uleb128 0x34
 13368 0489 00       		.byte	0
 13369 048a 03       		.uleb128 0x3
 13370 048b 08       		.uleb128 0x8
 13371 048c 3A       		.uleb128 0x3a
 13372 048d 0B       		.uleb128 0xb
 13373 048e 3B       		.uleb128 0x3b
 13374 048f 05       		.uleb128 0x5
 13375 0490 49       		.uleb128 0x49
 13376 0491 13       		.uleb128 0x13
 13377 0492 00       		.byte	0
 13378 0493 00       		.byte	0
 13379 0494 5A       		.uleb128 0x5a
 13380 0495 0B       		.uleb128 0xb
 13381 0496 01       		.byte	0x1
 13382 0497 00       		.byte	0
 13383 0498 00       		.byte	0
ARM GAS  /tmp/ccqRaZSa.s 			page 236


 13384 0499 5B       		.uleb128 0x5b
 13385 049a 2E       		.uleb128 0x2e
 13386 049b 01       		.byte	0x1
 13387 049c 03       		.uleb128 0x3
 13388 049d 0E       		.uleb128 0xe
 13389 049e 3A       		.uleb128 0x3a
 13390 049f 0B       		.uleb128 0xb
 13391 04a0 3B       		.uleb128 0x3b
 13392 04a1 05       		.uleb128 0x5
 13393 04a2 27       		.uleb128 0x27
 13394 04a3 19       		.uleb128 0x19
 13395 04a4 49       		.uleb128 0x49
 13396 04a5 13       		.uleb128 0x13
 13397 04a6 20       		.uleb128 0x20
 13398 04a7 0B       		.uleb128 0xb
 13399 04a8 01       		.uleb128 0x1
 13400 04a9 13       		.uleb128 0x13
 13401 04aa 00       		.byte	0
 13402 04ab 00       		.byte	0
 13403 04ac 5C       		.uleb128 0x5c
 13404 04ad 2E       		.uleb128 0x2e
 13405 04ae 01       		.byte	0x1
 13406 04af 03       		.uleb128 0x3
 13407 04b0 0E       		.uleb128 0xe
 13408 04b1 3A       		.uleb128 0x3a
 13409 04b2 0B       		.uleb128 0xb
 13410 04b3 3B       		.uleb128 0x3b
 13411 04b4 0B       		.uleb128 0xb
 13412 04b5 27       		.uleb128 0x27
 13413 04b6 19       		.uleb128 0x19
 13414 04b7 20       		.uleb128 0x20
 13415 04b8 0B       		.uleb128 0xb
 13416 04b9 01       		.uleb128 0x1
 13417 04ba 13       		.uleb128 0x13
 13418 04bb 00       		.byte	0
 13419 04bc 00       		.byte	0
 13420 04bd 5D       		.uleb128 0x5d
 13421 04be 05       		.uleb128 0x5
 13422 04bf 00       		.byte	0
 13423 04c0 03       		.uleb128 0x3
 13424 04c1 0E       		.uleb128 0xe
 13425 04c2 3A       		.uleb128 0x3a
 13426 04c3 0B       		.uleb128 0xb
 13427 04c4 3B       		.uleb128 0x3b
 13428 04c5 0B       		.uleb128 0xb
 13429 04c6 49       		.uleb128 0x49
 13430 04c7 13       		.uleb128 0x13
 13431 04c8 00       		.byte	0
 13432 04c9 00       		.byte	0
 13433 04ca 5E       		.uleb128 0x5e
 13434 04cb 05       		.uleb128 0x5
 13435 04cc 00       		.byte	0
 13436 04cd 03       		.uleb128 0x3
 13437 04ce 08       		.uleb128 0x8
 13438 04cf 3A       		.uleb128 0x3a
 13439 04d0 0B       		.uleb128 0xb
 13440 04d1 3B       		.uleb128 0x3b
ARM GAS  /tmp/ccqRaZSa.s 			page 237


 13441 04d2 0B       		.uleb128 0xb
 13442 04d3 49       		.uleb128 0x49
 13443 04d4 13       		.uleb128 0x13
 13444 04d5 00       		.byte	0
 13445 04d6 00       		.byte	0
 13446 04d7 5F       		.uleb128 0x5f
 13447 04d8 34       		.uleb128 0x34
 13448 04d9 00       		.byte	0
 13449 04da 03       		.uleb128 0x3
 13450 04db 0E       		.uleb128 0xe
 13451 04dc 3A       		.uleb128 0x3a
 13452 04dd 0B       		.uleb128 0xb
 13453 04de 3B       		.uleb128 0x3b
 13454 04df 0B       		.uleb128 0xb
 13455 04e0 49       		.uleb128 0x49
 13456 04e1 13       		.uleb128 0x13
 13457 04e2 00       		.byte	0
 13458 04e3 00       		.byte	0
 13459 04e4 60       		.uleb128 0x60
 13460 04e5 34       		.uleb128 0x34
 13461 04e6 00       		.byte	0
 13462 04e7 03       		.uleb128 0x3
 13463 04e8 08       		.uleb128 0x8
 13464 04e9 3A       		.uleb128 0x3a
 13465 04ea 0B       		.uleb128 0xb
 13466 04eb 3B       		.uleb128 0x3b
 13467 04ec 0B       		.uleb128 0xb
 13468 04ed 49       		.uleb128 0x49
 13469 04ee 13       		.uleb128 0x13
 13470 04ef 00       		.byte	0
 13471 04f0 00       		.byte	0
 13472 04f1 61       		.uleb128 0x61
 13473 04f2 2E       		.uleb128 0x2e
 13474 04f3 01       		.byte	0x1
 13475 04f4 03       		.uleb128 0x3
 13476 04f5 0E       		.uleb128 0xe
 13477 04f6 3A       		.uleb128 0x3a
 13478 04f7 0B       		.uleb128 0xb
 13479 04f8 3B       		.uleb128 0x3b
 13480 04f9 0B       		.uleb128 0xb
 13481 04fa 27       		.uleb128 0x27
 13482 04fb 19       		.uleb128 0x19
 13483 04fc 49       		.uleb128 0x49
 13484 04fd 13       		.uleb128 0x13
 13485 04fe 20       		.uleb128 0x20
 13486 04ff 0B       		.uleb128 0xb
 13487 0500 01       		.uleb128 0x1
 13488 0501 13       		.uleb128 0x13
 13489 0502 00       		.byte	0
 13490 0503 00       		.byte	0
 13491 0504 62       		.uleb128 0x62
 13492 0505 34       		.uleb128 0x34
 13493 0506 00       		.byte	0
 13494 0507 03       		.uleb128 0x3
 13495 0508 0E       		.uleb128 0xe
 13496 0509 49       		.uleb128 0x49
 13497 050a 13       		.uleb128 0x13
ARM GAS  /tmp/ccqRaZSa.s 			page 238


 13498 050b 34       		.uleb128 0x34
 13499 050c 19       		.uleb128 0x19
 13500 050d 1C       		.uleb128 0x1c
 13501 050e 0E       		.uleb128 0xe
 13502 050f 00       		.byte	0
 13503 0510 00       		.byte	0
 13504 0511 63       		.uleb128 0x63
 13505 0512 2E       		.uleb128 0x2e
 13506 0513 00       		.byte	0
 13507 0514 03       		.uleb128 0x3
 13508 0515 0E       		.uleb128 0xe
 13509 0516 3A       		.uleb128 0x3a
 13510 0517 0B       		.uleb128 0xb
 13511 0518 3B       		.uleb128 0x3b
 13512 0519 05       		.uleb128 0x5
 13513 051a 27       		.uleb128 0x27
 13514 051b 19       		.uleb128 0x19
 13515 051c 20       		.uleb128 0x20
 13516 051d 0B       		.uleb128 0xb
 13517 051e 00       		.byte	0
 13518 051f 00       		.byte	0
 13519 0520 64       		.uleb128 0x64
 13520 0521 2E       		.uleb128 0x2e
 13521 0522 01       		.byte	0x1
 13522 0523 31       		.uleb128 0x31
 13523 0524 13       		.uleb128 0x13
 13524 0525 11       		.uleb128 0x11
 13525 0526 01       		.uleb128 0x1
 13526 0527 12       		.uleb128 0x12
 13527 0528 06       		.uleb128 0x6
 13528 0529 40       		.uleb128 0x40
 13529 052a 18       		.uleb128 0x18
 13530 052b 9742     		.uleb128 0x2117
 13531 052d 19       		.uleb128 0x19
 13532 052e 01       		.uleb128 0x1
 13533 052f 13       		.uleb128 0x13
 13534 0530 00       		.byte	0
 13535 0531 00       		.byte	0
 13536 0532 65       		.uleb128 0x65
 13537 0533 05       		.uleb128 0x5
 13538 0534 00       		.byte	0
 13539 0535 31       		.uleb128 0x31
 13540 0536 13       		.uleb128 0x13
 13541 0537 02       		.uleb128 0x2
 13542 0538 18       		.uleb128 0x18
 13543 0539 00       		.byte	0
 13544 053a 00       		.byte	0
 13545 053b 66       		.uleb128 0x66
 13546 053c 898201   		.uleb128 0x4109
 13547 053f 01       		.byte	0x1
 13548 0540 11       		.uleb128 0x11
 13549 0541 01       		.uleb128 0x1
 13550 0542 9542     		.uleb128 0x2115
 13551 0544 19       		.uleb128 0x19
 13552 0545 01       		.uleb128 0x1
 13553 0546 13       		.uleb128 0x13
 13554 0547 00       		.byte	0
ARM GAS  /tmp/ccqRaZSa.s 			page 239


 13555 0548 00       		.byte	0
 13556 0549 67       		.uleb128 0x67
 13557 054a 898201   		.uleb128 0x4109
 13558 054d 01       		.byte	0x1
 13559 054e 11       		.uleb128 0x11
 13560 054f 01       		.uleb128 0x1
 13561 0550 00       		.byte	0
 13562 0551 00       		.byte	0
 13563 0552 68       		.uleb128 0x68
 13564 0553 34       		.uleb128 0x34
 13565 0554 00       		.byte	0
 13566 0555 31       		.uleb128 0x31
 13567 0556 13       		.uleb128 0x13
 13568 0557 02       		.uleb128 0x2
 13569 0558 18       		.uleb128 0x18
 13570 0559 00       		.byte	0
 13571 055a 00       		.byte	0
 13572 055b 69       		.uleb128 0x69
 13573 055c 898201   		.uleb128 0x4109
 13574 055f 01       		.byte	0x1
 13575 0560 11       		.uleb128 0x11
 13576 0561 01       		.uleb128 0x1
 13577 0562 9342     		.uleb128 0x2113
 13578 0564 18       		.uleb128 0x18
 13579 0565 01       		.uleb128 0x1
 13580 0566 13       		.uleb128 0x13
 13581 0567 00       		.byte	0
 13582 0568 00       		.byte	0
 13583 0569 6A       		.uleb128 0x6a
 13584 056a 2E       		.uleb128 0x2e
 13585 056b 00       		.byte	0
 13586 056c 3F       		.uleb128 0x3f
 13587 056d 19       		.uleb128 0x19
 13588 056e 3C       		.uleb128 0x3c
 13589 056f 19       		.uleb128 0x19
 13590 0570 6E       		.uleb128 0x6e
 13591 0571 0E       		.uleb128 0xe
 13592 0572 03       		.uleb128 0x3
 13593 0573 0E       		.uleb128 0xe
 13594 0574 3A       		.uleb128 0x3a
 13595 0575 0B       		.uleb128 0xb
 13596 0576 3B       		.uleb128 0x3b
 13597 0577 0B       		.uleb128 0xb
 13598 0578 00       		.byte	0
 13599 0579 00       		.byte	0
 13600 057a 6B       		.uleb128 0x6b
 13601 057b 2E       		.uleb128 0x2e
 13602 057c 00       		.byte	0
 13603 057d 3F       		.uleb128 0x3f
 13604 057e 19       		.uleb128 0x19
 13605 057f 3C       		.uleb128 0x3c
 13606 0580 19       		.uleb128 0x19
 13607 0581 6E       		.uleb128 0x6e
 13608 0582 0E       		.uleb128 0xe
 13609 0583 03       		.uleb128 0x3
 13610 0584 0E       		.uleb128 0xe
 13611 0585 3A       		.uleb128 0x3a
ARM GAS  /tmp/ccqRaZSa.s 			page 240


 13612 0586 0B       		.uleb128 0xb
 13613 0587 3B       		.uleb128 0x3b
 13614 0588 05       		.uleb128 0x5
 13615 0589 00       		.byte	0
 13616 058a 00       		.byte	0
 13617 058b 00       		.byte	0
 13618              		.section	.debug_loc,"",%progbits
 13619              	.Ldebug_loc0:
 13620              	.LLST0:
 13621 0000 00000000 		.4byte	.LVL0
 13622 0004 1C000000 		.4byte	.LVL4
 13623 0008 0100     		.2byte	0x1
 13624 000a 50       		.byte	0x50
 13625 000b 1C000000 		.4byte	.LVL4
 13626 000f 52030000 		.4byte	.LFE292
 13627 0013 0100     		.2byte	0x1
 13628 0015 55       		.byte	0x55
 13629 0016 00000000 		.4byte	0
 13630 001a 00000000 		.4byte	0
 13631              	.LLST1:
 13632 001e 0A000000 		.4byte	.LVL1
 13633 0022 1C000000 		.4byte	.LVL4
 13634 0026 0100     		.2byte	0x1
 13635 0028 50       		.byte	0x50
 13636 0029 1C000000 		.4byte	.LVL4
 13637 002d 52030000 		.4byte	.LFE292
 13638 0031 0100     		.2byte	0x1
 13639 0033 55       		.byte	0x55
 13640 0034 00000000 		.4byte	0
 13641 0038 00000000 		.4byte	0
 13642              	.LLST2:
 13643 003c 0C000000 		.4byte	.LVL2
 13644 0040 1C000000 		.4byte	.LVL4
 13645 0044 0100     		.2byte	0x1
 13646 0046 55       		.byte	0x55
 13647 0047 00000000 		.4byte	0
 13648 004b 00000000 		.4byte	0
 13649              	.LLST4:
 13650 004f 42000000 		.4byte	.LVL6
 13651 0053 46000000 		.4byte	.LVL7
 13652 0057 0200     		.2byte	0x2
 13653 0059 30       		.byte	0x30
 13654 005a 9F       		.byte	0x9f
 13655 005b 16010000 		.4byte	.LVL41
 13656 005f 20010000 		.4byte	.LVL42
 13657 0063 0100     		.2byte	0x1
 13658 0065 5A       		.byte	0x5a
 13659 0066 00000000 		.4byte	0
 13660 006a 00000000 		.4byte	0
 13661              	.LLST5:
 13662 006e 06010000 		.4byte	.LVL39
 13663 0072 10010000 		.4byte	.LVL40
 13664 0076 0100     		.2byte	0x1
 13665 0078 56       		.byte	0x56
 13666 0079 A0010000 		.4byte	.LVL58
 13667 007d 00020000 		.4byte	.LVL62
 13668 0081 0100     		.2byte	0x1
ARM GAS  /tmp/ccqRaZSa.s 			page 241


 13669 0083 56       		.byte	0x56
 13670 0084 00020000 		.4byte	.LVL62
 13671 0088 AA020000 		.4byte	.LVL83
 13672 008c 0200     		.2byte	0x2
 13673 008e 91       		.byte	0x91
 13674 008f 50       		.sleb128 -48
 13675 0090 C0020000 		.4byte	.LVL84
 13676 0094 26030000 		.4byte	.LVL97
 13677 0098 0200     		.2byte	0x2
 13678 009a 91       		.byte	0x91
 13679 009b 50       		.sleb128 -48
 13680 009c 26030000 		.4byte	.LVL97
 13681 00a0 52030000 		.4byte	.LFE292
 13682 00a4 0100     		.2byte	0x1
 13683 00a6 56       		.byte	0x56
 13684 00a7 00000000 		.4byte	0
 13685 00ab 00000000 		.4byte	0
 13686              	.LLST30:
 13687 00af B8010000 		.4byte	.LVL59
 13688 00b3 9A020000 		.4byte	.LVL82
 13689 00b7 0100     		.2byte	0x1
 13690 00b9 55       		.byte	0x55
 13691 00ba C0020000 		.4byte	.LVL84
 13692 00be 26030000 		.4byte	.LVL97
 13693 00c2 0100     		.2byte	0x1
 13694 00c4 55       		.byte	0x55
 13695 00c5 00000000 		.4byte	0
 13696 00c9 00000000 		.4byte	0
 13697              	.LLST31:
 13698 00cd DC010000 		.4byte	.LVL60
 13699 00d1 E6010000 		.4byte	.LVL61
 13700 00d5 0100     		.2byte	0x1
 13701 00d7 53       		.byte	0x53
 13702 00d8 E6010000 		.4byte	.LVL61
 13703 00dc 6E020000 		.4byte	.LVL79
 13704 00e0 0100     		.2byte	0x1
 13705 00e2 54       		.byte	0x54
 13706 00e3 82020000 		.4byte	.LVL80
 13707 00e7 9A020000 		.4byte	.LVL82
 13708 00eb 0100     		.2byte	0x1
 13709 00ed 54       		.byte	0x54
 13710 00ee C0020000 		.4byte	.LVL84
 13711 00f2 1E030000 		.4byte	.LVL96
 13712 00f6 0100     		.2byte	0x1
 13713 00f8 54       		.byte	0x54
 13714 00f9 00000000 		.4byte	0
 13715 00fd 00000000 		.4byte	0
 13716              	.LLST32:
 13717 0101 0C020000 		.4byte	.LVL63
 13718 0105 66020000 		.4byte	.LVL78
 13719 0109 0100     		.2byte	0x1
 13720 010b 54       		.byte	0x54
 13721 010c C0020000 		.4byte	.LVL84
 13722 0110 F8020000 		.4byte	.LVL88
 13723 0114 0100     		.2byte	0x1
 13724 0116 54       		.byte	0x54
 13725 0117 1A030000 		.4byte	.LVL95
ARM GAS  /tmp/ccqRaZSa.s 			page 242


 13726 011b 1E030000 		.4byte	.LVL96
 13727 011f 0100     		.2byte	0x1
 13728 0121 54       		.byte	0x54
 13729 0122 00000000 		.4byte	0
 13730 0126 00000000 		.4byte	0
 13731              	.LLST33:
 13732 012a 0C020000 		.4byte	.LVL63
 13733 012e 14020000 		.4byte	.LVL64
 13734 0132 0200     		.2byte	0x2
 13735 0134 72       		.byte	0x72
 13736 0135 0C       		.sleb128 12
 13737 0136 00000000 		.4byte	0
 13738 013a 00000000 		.4byte	0
 13739              	.LLST34:
 13740 013e 0C020000 		.4byte	.LVL63
 13741 0142 14020000 		.4byte	.LVL64
 13742 0146 0100     		.2byte	0x1
 13743 0148 54       		.byte	0x54
 13744 0149 14020000 		.4byte	.LVL64
 13745 014d 4E020000 		.4byte	.LVL74
 13746 0151 0100     		.2byte	0x1
 13747 0153 52       		.byte	0x52
 13748 0154 C0020000 		.4byte	.LVL84
 13749 0158 DA020000 		.4byte	.LVL86
 13750 015c 0100     		.2byte	0x1
 13751 015e 52       		.byte	0x52
 13752 015f DA020000 		.4byte	.LVL86
 13753 0163 E2020000 		.4byte	.LVL87
 13754 0167 0300     		.2byte	0x3
 13755 0169 72       		.byte	0x72
 13756 016a 7F       		.sleb128 -1
 13757 016b 9F       		.byte	0x9f
 13758 016c E2020000 		.4byte	.LVL87
 13759 0170 F8020000 		.4byte	.LVL88
 13760 0174 0100     		.2byte	0x1
 13761 0176 52       		.byte	0x52
 13762 0177 1A030000 		.4byte	.LVL95
 13763 017b 1E030000 		.4byte	.LVL96
 13764 017f 0100     		.2byte	0x1
 13765 0181 52       		.byte	0x52
 13766 0182 00000000 		.4byte	0
 13767 0186 00000000 		.4byte	0
 13768              	.LLST35:
 13769 018a CA020000 		.4byte	.LVL85
 13770 018e F8020000 		.4byte	.LVL88
 13771 0192 0100     		.2byte	0x1
 13772 0194 56       		.byte	0x56
 13773 0195 00000000 		.4byte	0
 13774 0199 00000000 		.4byte	0
 13775              	.LLST36:
 13776 019d 14020000 		.4byte	.LVL64
 13777 01a1 16020000 		.4byte	.LVL65
 13778 01a5 0500     		.2byte	0x5
 13779 01a7 72       		.byte	0x72
 13780 01a8 00       		.sleb128 0
 13781 01a9 32       		.byte	0x32
 13782 01aa 25       		.byte	0x25
ARM GAS  /tmp/ccqRaZSa.s 			page 243


 13783 01ab 9F       		.byte	0x9f
 13784 01ac 16020000 		.4byte	.LVL65
 13785 01b0 4E020000 		.4byte	.LVL74
 13786 01b4 0100     		.2byte	0x1
 13787 01b6 57       		.byte	0x57
 13788 01b7 C0020000 		.4byte	.LVL84
 13789 01bb CA020000 		.4byte	.LVL85
 13790 01bf 0100     		.2byte	0x1
 13791 01c1 57       		.byte	0x57
 13792 01c2 1A030000 		.4byte	.LVL95
 13793 01c6 1E030000 		.4byte	.LVL96
 13794 01ca 0100     		.2byte	0x1
 13795 01cc 57       		.byte	0x57
 13796 01cd 00000000 		.4byte	0
 13797 01d1 00000000 		.4byte	0
 13798              	.LLST37:
 13799 01d5 2A020000 		.4byte	.LVL67
 13800 01d9 34020000 		.4byte	.LVL69
 13801 01dd 0100     		.2byte	0x1
 13802 01df 56       		.byte	0x56
 13803 01e0 34020000 		.4byte	.LVL69
 13804 01e4 44020000 		.4byte	.LVL73
 13805 01e8 4D00     		.2byte	0x4d
 13806 01ea 77       		.byte	0x77
 13807 01eb 00       		.sleb128 0
 13808 01ec 7B       		.byte	0x7b
 13809 01ed 00       		.sleb128 0
 13810 01ee 70       		.byte	0x70
 13811 01ef 18       		.sleb128 24
 13812 01f0 06       		.byte	0x6
 13813 01f1 1C       		.byte	0x1c
 13814 01f2 23       		.byte	0x23
 13815 01f3 03       		.uleb128 0x3
 13816 01f4 7B       		.byte	0x7b
 13817 01f5 00       		.sleb128 0
 13818 01f6 70       		.byte	0x70
 13819 01f7 18       		.sleb128 24
 13820 01f8 06       		.byte	0x6
 13821 01f9 1C       		.byte	0x1c
 13822 01fa 7B       		.byte	0x7b
 13823 01fb 00       		.sleb128 0
 13824 01fc 70       		.byte	0x70
 13825 01fd 18       		.sleb128 24
 13826 01fe 06       		.byte	0x6
 13827 01ff 1C       		.byte	0x1c
 13828 0200 30       		.byte	0x30
 13829 0201 2D       		.byte	0x2d
 13830 0202 28       		.byte	0x28
 13831 0203 0100     		.2byte	0x1
 13832 0205 16       		.byte	0x16
 13833 0206 13       		.byte	0x13
 13834 0207 32       		.byte	0x32
 13835 0208 26       		.byte	0x26
 13836 0209 7B       		.byte	0x7b
 13837 020a 00       		.sleb128 0
 13838 020b 70       		.byte	0x70
 13839 020c 18       		.sleb128 24
ARM GAS  /tmp/ccqRaZSa.s 			page 244


 13840 020d 06       		.byte	0x6
 13841 020e 1C       		.byte	0x1c
 13842 020f 23       		.byte	0x23
 13843 0210 03       		.uleb128 0x3
 13844 0211 7B       		.byte	0x7b
 13845 0212 00       		.sleb128 0
 13846 0213 70       		.byte	0x70
 13847 0214 18       		.sleb128 24
 13848 0215 06       		.byte	0x6
 13849 0216 1C       		.byte	0x1c
 13850 0217 7B       		.byte	0x7b
 13851 0218 00       		.sleb128 0
 13852 0219 70       		.byte	0x70
 13853 021a 18       		.sleb128 24
 13854 021b 06       		.byte	0x6
 13855 021c 1C       		.byte	0x1c
 13856 021d 30       		.byte	0x30
 13857 021e 2D       		.byte	0x2d
 13858 021f 28       		.byte	0x28
 13859 0220 0100     		.2byte	0x1
 13860 0222 16       		.byte	0x16
 13861 0223 13       		.byte	0x13
 13862 0224 32       		.byte	0x32
 13863 0225 26       		.byte	0x26
 13864 0226 40       		.byte	0x40
 13865 0227 4B       		.byte	0x4b
 13866 0228 24       		.byte	0x24
 13867 0229 22       		.byte	0x22
 13868 022a 77       		.byte	0x77
 13869 022b 00       		.sleb128 0
 13870 022c 40       		.byte	0x40
 13871 022d 4B       		.byte	0x4b
 13872 022e 24       		.byte	0x24
 13873 022f 22       		.byte	0x22
 13874 0230 2A       		.byte	0x2a
 13875 0231 28       		.byte	0x28
 13876 0232 0100     		.2byte	0x1
 13877 0234 16       		.byte	0x16
 13878 0235 13       		.byte	0x13
 13879 0236 9F       		.byte	0x9f
 13880 0237 1A030000 		.4byte	.LVL95
 13881 023b 1E030000 		.4byte	.LVL96
 13882 023f 0100     		.2byte	0x1
 13883 0241 56       		.byte	0x56
 13884 0242 00000000 		.4byte	0
 13885 0246 00000000 		.4byte	0
 13886              	.LLST38:
 13887 024a 1A020000 		.4byte	.LVL66
 13888 024e 34020000 		.4byte	.LVL69
 13889 0252 0800     		.2byte	0x8
 13890 0254 7B       		.byte	0x7b
 13891 0255 00       		.sleb128 0
 13892 0256 73       		.byte	0x73
 13893 0257 00       		.sleb128 0
 13894 0258 1C       		.byte	0x1c
 13895 0259 34       		.byte	0x34
 13896 025a 1B       		.byte	0x1b
ARM GAS  /tmp/ccqRaZSa.s 			page 245


 13897 025b 9F       		.byte	0x9f
 13898 025c 34020000 		.4byte	.LVL69
 13899 0260 44020000 		.4byte	.LVL73
 13900 0264 0900     		.2byte	0x9
 13901 0266 7B       		.byte	0x7b
 13902 0267 00       		.sleb128 0
 13903 0268 70       		.byte	0x70
 13904 0269 18       		.sleb128 24
 13905 026a 06       		.byte	0x6
 13906 026b 1C       		.byte	0x1c
 13907 026c 34       		.byte	0x34
 13908 026d 1B       		.byte	0x1b
 13909 026e 9F       		.byte	0x9f
 13910 026f 1A030000 		.4byte	.LVL95
 13911 0273 1E030000 		.4byte	.LVL96
 13912 0277 0800     		.2byte	0x8
 13913 0279 7B       		.byte	0x7b
 13914 027a 00       		.sleb128 0
 13915 027b 73       		.byte	0x73
 13916 027c 00       		.sleb128 0
 13917 027d 1C       		.byte	0x1c
 13918 027e 34       		.byte	0x34
 13919 027f 1B       		.byte	0x1b
 13920 0280 9F       		.byte	0x9f
 13921 0281 00000000 		.4byte	0
 13922 0285 00000000 		.4byte	0
 13923              	.LLST39:
 13924 0289 2E020000 		.4byte	.LVL68
 13925 028d 34020000 		.4byte	.LVL69
 13926 0291 0100     		.2byte	0x1
 13927 0293 56       		.byte	0x56
 13928 0294 1A030000 		.4byte	.LVL95
 13929 0298 1E030000 		.4byte	.LVL96
 13930 029c 0100     		.2byte	0x1
 13931 029e 56       		.byte	0x56
 13932 029f 00000000 		.4byte	0
 13933 02a3 00000000 		.4byte	0
 13934              	.LLST40:
 13935 02a7 34020000 		.4byte	.LVL69
 13936 02ab 38020000 		.4byte	.LVL70
 13937 02af 0100     		.2byte	0x1
 13938 02b1 53       		.byte	0x53
 13939 02b2 38020000 		.4byte	.LVL70
 13940 02b6 3C020000 		.4byte	.LVL71
 13941 02ba 0300     		.2byte	0x3
 13942 02bc 73       		.byte	0x73
 13943 02bd 7C       		.sleb128 -4
 13944 02be 9F       		.byte	0x9f
 13945 02bf 3C020000 		.4byte	.LVL71
 13946 02c3 40020000 		.4byte	.LVL72
 13947 02c7 0100     		.2byte	0x1
 13948 02c9 53       		.byte	0x53
 13949 02ca 00000000 		.4byte	0
 13950 02ce 00000000 		.4byte	0
 13951              	.LLST41:
 13952 02d2 56020000 		.4byte	.LVL75
 13953 02d6 5C020000 		.4byte	.LVL76
ARM GAS  /tmp/ccqRaZSa.s 			page 246


 13954 02da 0200     		.2byte	0x2
 13955 02dc 30       		.byte	0x30
 13956 02dd 9F       		.byte	0x9f
 13957 02de 00000000 		.4byte	0
 13958 02e2 00000000 		.4byte	0
 13959              	.LLST42:
 13960 02e6 56020000 		.4byte	.LVL75
 13961 02ea 5B020000 		.4byte	.LVL76-1
 13962 02ee 0100     		.2byte	0x1
 13963 02f0 50       		.byte	0x50
 13964 02f1 00000000 		.4byte	0
 13965 02f5 00000000 		.4byte	0
 13966              	.LLST43:
 13967 02f9 F8020000 		.4byte	.LVL88
 13968 02fd 14030000 		.4byte	.LVL94
 13969 0301 0100     		.2byte	0x1
 13970 0303 54       		.byte	0x54
 13971 0304 00000000 		.4byte	0
 13972 0308 00000000 		.4byte	0
 13973              	.LLST44:
 13974 030c F8020000 		.4byte	.LVL88
 13975 0310 14030000 		.4byte	.LVL94
 13976 0314 0200     		.2byte	0x2
 13977 0316 72       		.byte	0x72
 13978 0317 0C       		.sleb128 12
 13979 0318 00000000 		.4byte	0
 13980 031c 00000000 		.4byte	0
 13981              	.LLST45:
 13982 0320 FA020000 		.4byte	.LVL89
 13983 0324 FC020000 		.4byte	.LVL90
 13984 0328 0500     		.2byte	0x5
 13985 032a 73       		.byte	0x73
 13986 032b 00       		.sleb128 0
 13987 032c 32       		.byte	0x32
 13988 032d 25       		.byte	0x25
 13989 032e 9F       		.byte	0x9f
 13990 032f FC020000 		.4byte	.LVL90
 13991 0333 04030000 		.4byte	.LVL91
 13992 0337 0100     		.2byte	0x1
 13993 0339 53       		.byte	0x53
 13994 033a 00000000 		.4byte	0
 13995 033e 00000000 		.4byte	0
 13996              	.LLST46:
 13997 0342 FA020000 		.4byte	.LVL89
 13998 0346 04030000 		.4byte	.LVL91
 13999 034a 0200     		.2byte	0x2
 14000 034c 72       		.byte	0x72
 14001 034d 0C       		.sleb128 12
 14002 034e 04030000 		.4byte	.LVL91
 14003 0352 08030000 		.4byte	.LVL92
 14004 0356 0100     		.2byte	0x1
 14005 0358 53       		.byte	0x53
 14006 0359 08030000 		.4byte	.LVL92
 14007 035d 0C030000 		.4byte	.LVL93
 14008 0361 0300     		.2byte	0x3
 14009 0363 73       		.byte	0x73
 14010 0364 7C       		.sleb128 -4
ARM GAS  /tmp/ccqRaZSa.s 			page 247


 14011 0365 9F       		.byte	0x9f
 14012 0366 0C030000 		.4byte	.LVL93
 14013 036a 14030000 		.4byte	.LVL94
 14014 036e 0100     		.2byte	0x1
 14015 0370 53       		.byte	0x53
 14016 0371 00000000 		.4byte	0
 14017 0375 00000000 		.4byte	0
 14018              	.LLST6:
 14019 0379 4E000000 		.4byte	.LVL8
 14020 037d FE000000 		.4byte	.LVL38
 14021 0381 0100     		.2byte	0x1
 14022 0383 55       		.byte	0x55
 14023 0384 20010000 		.4byte	.LVL42
 14024 0388 A0010000 		.4byte	.LVL58
 14025 038c 0100     		.2byte	0x1
 14026 038e 55       		.byte	0x55
 14027 038f 00000000 		.4byte	0
 14028 0393 00000000 		.4byte	0
 14029              	.LLST7:
 14030 0397 52000000 		.4byte	.LVL9
 14031 039b 6E000000 		.4byte	.LVL13
 14032 039f 0100     		.2byte	0x1
 14033 03a1 53       		.byte	0x53
 14034 03a2 A6000000 		.4byte	.LVL24
 14035 03a6 B4000000 		.4byte	.LVL26
 14036 03aa 0100     		.2byte	0x1
 14037 03ac 53       		.byte	0x53
 14038 03ad 00000000 		.4byte	0
 14039 03b1 00000000 		.4byte	0
 14040              	.LLST8:
 14041 03b5 62000000 		.4byte	.LVL10
 14042 03b9 6E000000 		.4byte	.LVL13
 14043 03bd 0900     		.2byte	0x9
 14044 03bf 73       		.byte	0x73
 14045 03c0 00       		.sleb128 0
 14046 03c1 34       		.byte	0x34
 14047 03c2 25       		.byte	0x25
 14048 03c3 0A       		.byte	0xa
 14049 03c4 FF07     		.2byte	0x7ff
 14050 03c6 1A       		.byte	0x1a
 14051 03c7 9F       		.byte	0x9f
 14052 03c8 B2000000 		.4byte	.LVL25
 14053 03cc F8000000 		.4byte	.LVL37
 14054 03d0 0100     		.2byte	0x1
 14055 03d2 54       		.byte	0x54
 14056 03d3 20010000 		.4byte	.LVL42
 14057 03d7 A0010000 		.4byte	.LVL58
 14058 03db 0100     		.2byte	0x1
 14059 03dd 54       		.byte	0x54
 14060 03de 00000000 		.4byte	0
 14061 03e2 00000000 		.4byte	0
 14062              	.LLST9:
 14063 03e6 62000000 		.4byte	.LVL10
 14064 03ea 66000000 		.4byte	.LVL11
 14065 03ee 0500     		.2byte	0x5
 14066 03f0 73       		.byte	0x73
 14067 03f1 00       		.sleb128 0
ARM GAS  /tmp/ccqRaZSa.s 			page 248


 14068 03f2 3F       		.byte	0x3f
 14069 03f3 1A       		.byte	0x1a
 14070 03f4 9F       		.byte	0x9f
 14071 03f5 66000000 		.4byte	.LVL11
 14072 03f9 6A000000 		.4byte	.LVL12
 14073 03fd 0100     		.2byte	0x1
 14074 03ff 51       		.byte	0x51
 14075 0400 6A000000 		.4byte	.LVL12
 14076 0404 6E000000 		.4byte	.LVL13
 14077 0408 0500     		.2byte	0x5
 14078 040a 73       		.byte	0x73
 14079 040b 00       		.sleb128 0
 14080 040c 3F       		.byte	0x3f
 14081 040d 1A       		.byte	0x1a
 14082 040e 9F       		.byte	0x9f
 14083 040f B2000000 		.4byte	.LVL25
 14084 0413 B4000000 		.4byte	.LVL26
 14085 0417 0500     		.2byte	0x5
 14086 0419 73       		.byte	0x73
 14087 041a 00       		.sleb128 0
 14088 041b 3F       		.byte	0x3f
 14089 041c 1A       		.byte	0x1a
 14090 041d 9F       		.byte	0x9f
 14091 041e 00000000 		.4byte	0
 14092 0422 00000000 		.4byte	0
 14093              	.LLST10:
 14094 0426 76000000 		.4byte	.LVL14
 14095 042a 7E000000 		.4byte	.LVL16
 14096 042e 0200     		.2byte	0x2
 14097 0430 32       		.byte	0x32
 14098 0431 9F       		.byte	0x9f
 14099 0432 7E000000 		.4byte	.LVL16
 14100 0436 98000000 		.4byte	.LVL22
 14101 043a 0100     		.2byte	0x1
 14102 043c 51       		.byte	0x51
 14103 043d 98000000 		.4byte	.LVL22
 14104 0441 A0000000 		.4byte	.LVL23
 14105 0445 0200     		.2byte	0x2
 14106 0447 30       		.byte	0x30
 14107 0448 9F       		.byte	0x9f
 14108 0449 A0000000 		.4byte	.LVL23
 14109 044d A6000000 		.4byte	.LVL24
 14110 0451 0100     		.2byte	0x1
 14111 0453 51       		.byte	0x51
 14112 0454 00000000 		.4byte	0
 14113 0458 00000000 		.4byte	0
 14114              	.LLST11:
 14115 045c 76000000 		.4byte	.LVL14
 14116 0460 A6000000 		.4byte	.LVL24
 14117 0464 0100     		.2byte	0x1
 14118 0466 54       		.byte	0x54
 14119 0467 00000000 		.4byte	0
 14120 046b 00000000 		.4byte	0
 14121              	.LLST12:
 14122 046f 76000000 		.4byte	.LVL14
 14123 0473 7C000000 		.4byte	.LVL15
 14124 0477 0400     		.2byte	0x4
ARM GAS  /tmp/ccqRaZSa.s 			page 249


 14125 0479 72       		.byte	0x72
 14126 047a 8020     		.sleb128 4096
 14127 047c 9F       		.byte	0x9f
 14128 047d 7C000000 		.4byte	.LVL15
 14129 0481 A6000000 		.4byte	.LVL24
 14130 0485 0100     		.2byte	0x1
 14131 0487 52       		.byte	0x52
 14132 0488 00000000 		.4byte	0
 14133 048c 00000000 		.4byte	0
 14134              	.LLST13:
 14135 0490 80000000 		.4byte	.LVL17
 14136 0494 90000000 		.4byte	.LVL20
 14137 0498 0100     		.2byte	0x1
 14138 049a 56       		.byte	0x56
 14139 049b 92000000 		.4byte	.LVL21
 14140 049f A0000000 		.4byte	.LVL23
 14141 04a3 0100     		.2byte	0x1
 14142 04a5 56       		.byte	0x56
 14143 04a6 00000000 		.4byte	0
 14144 04aa 00000000 		.4byte	0
 14145              	.LLST14:
 14146 04ae C2000000 		.4byte	.LVL27
 14147 04b2 D0000000 		.4byte	.LVL29
 14148 04b6 0700     		.2byte	0x7
 14149 04b8 77       		.byte	0x77
 14150 04b9 04       		.sleb128 4
 14151 04ba 06       		.byte	0x6
 14152 04bb 7C       		.byte	0x7c
 14153 04bc 00       		.sleb128 0
 14154 04bd 1C       		.byte	0x1c
 14155 04be 9F       		.byte	0x9f
 14156 04bf D0000000 		.4byte	.LVL29
 14157 04c3 EE000000 		.4byte	.LVL36
 14158 04c7 0100     		.2byte	0x1
 14159 04c9 56       		.byte	0x56
 14160 04ca 20010000 		.4byte	.LVL42
 14161 04ce 2A010000 		.4byte	.LVL44
 14162 04d2 0200     		.2byte	0x2
 14163 04d4 30       		.byte	0x30
 14164 04d5 9F       		.byte	0x9f
 14165 04d6 2A010000 		.4byte	.LVL44
 14166 04da 30010000 		.4byte	.LVL45
 14167 04de 0100     		.2byte	0x1
 14168 04e0 56       		.byte	0x56
 14169 04e1 00000000 		.4byte	0
 14170 04e5 00000000 		.4byte	0
 14171              	.LLST15:
 14172 04e9 C2000000 		.4byte	.LVL27
 14173 04ed C6000000 		.4byte	.LVL28
 14174 04f1 0100     		.2byte	0x1
 14175 04f3 54       		.byte	0x54
 14176 04f4 DA000000 		.4byte	.LVL31
 14177 04f8 E4000000 		.4byte	.LVL33
 14178 04fc 0100     		.2byte	0x1
 14179 04fe 51       		.byte	0x51
 14180 04ff E4000000 		.4byte	.LVL33
 14181 0503 EA000000 		.4byte	.LVL35
ARM GAS  /tmp/ccqRaZSa.s 			page 250


 14182 0507 0300     		.2byte	0x3
 14183 0509 71       		.byte	0x71
 14184 050a 01       		.sleb128 1
 14185 050b 9F       		.byte	0x9f
 14186 050c 20010000 		.4byte	.LVL42
 14187 0510 26010000 		.4byte	.LVL43
 14188 0514 0300     		.2byte	0x3
 14189 0516 71       		.byte	0x71
 14190 0517 7F       		.sleb128 -1
 14191 0518 9F       		.byte	0x9f
 14192 0519 26010000 		.4byte	.LVL43
 14193 051d 2A010000 		.4byte	.LVL44
 14194 0521 0100     		.2byte	0x1
 14195 0523 53       		.byte	0x53
 14196 0524 00000000 		.4byte	0
 14197 0528 00000000 		.4byte	0
 14198              	.LLST16:
 14199 052c C2000000 		.4byte	.LVL27
 14200 0530 DA000000 		.4byte	.LVL31
 14201 0534 0200     		.2byte	0x2
 14202 0536 77       		.byte	0x77
 14203 0537 0C       		.sleb128 12
 14204 0538 DA000000 		.4byte	.LVL31
 14205 053c EE000000 		.4byte	.LVL36
 14206 0540 0100     		.2byte	0x1
 14207 0542 5E       		.byte	0x5e
 14208 0543 20010000 		.4byte	.LVL42
 14209 0547 30010000 		.4byte	.LVL45
 14210 054b 0100     		.2byte	0x1
 14211 054d 5E       		.byte	0x5e
 14212 054e 00000000 		.4byte	0
 14213 0552 00000000 		.4byte	0
 14214              	.LLST17:
 14215 0556 C2000000 		.4byte	.LVL27
 14216 055a D6000000 		.4byte	.LVL30
 14217 055e 0400     		.2byte	0x4
 14218 0560 72       		.byte	0x72
 14219 0561 8020     		.sleb128 4096
 14220 0563 9F       		.byte	0x9f
 14221 0564 D6000000 		.4byte	.LVL30
 14222 0568 DA000000 		.4byte	.LVL31
 14223 056c 0100     		.2byte	0x1
 14224 056e 52       		.byte	0x52
 14225 056f DA000000 		.4byte	.LVL31
 14226 0573 EE000000 		.4byte	.LVL36
 14227 0577 0100     		.2byte	0x1
 14228 0579 58       		.byte	0x58
 14229 057a 20010000 		.4byte	.LVL42
 14230 057e 30010000 		.4byte	.LVL45
 14231 0582 0100     		.2byte	0x1
 14232 0584 58       		.byte	0x58
 14233 0585 00000000 		.4byte	0
 14234 0589 00000000 		.4byte	0
 14235              	.LLST18:
 14236 058d DE000000 		.4byte	.LVL32
 14237 0591 EE000000 		.4byte	.LVL36
 14238 0595 0100     		.2byte	0x1
ARM GAS  /tmp/ccqRaZSa.s 			page 251


 14239 0597 52       		.byte	0x52
 14240 0598 20010000 		.4byte	.LVL42
 14241 059c 2A010000 		.4byte	.LVL44
 14242 05a0 0100     		.2byte	0x1
 14243 05a2 52       		.byte	0x52
 14244 05a3 00000000 		.4byte	0
 14245 05a7 00000000 		.4byte	0
 14246              	.LLST19:
 14247 05ab 30010000 		.4byte	.LVL45
 14248 05af A0010000 		.4byte	.LVL58
 14249 05b3 0100     		.2byte	0x1
 14250 05b5 54       		.byte	0x54
 14251 05b6 00000000 		.4byte	0
 14252 05ba 00000000 		.4byte	0
 14253              	.LLST20:
 14254 05be 30010000 		.4byte	.LVL45
 14255 05c2 3A010000 		.4byte	.LVL47
 14256 05c6 0200     		.2byte	0x2
 14257 05c8 77       		.byte	0x77
 14258 05c9 0C       		.sleb128 12
 14259 05ca 00000000 		.4byte	0
 14260 05ce 00000000 		.4byte	0
 14261              	.LLST21:
 14262 05d2 30010000 		.4byte	.LVL45
 14263 05d6 38010000 		.4byte	.LVL46
 14264 05da 0400     		.2byte	0x4
 14265 05dc 72       		.byte	0x72
 14266 05dd 8020     		.sleb128 4096
 14267 05df 9F       		.byte	0x9f
 14268 05e0 38010000 		.4byte	.LVL46
 14269 05e4 82010000 		.4byte	.LVL54
 14270 05e8 0100     		.2byte	0x1
 14271 05ea 52       		.byte	0x52
 14272 05eb 00000000 		.4byte	0
 14273 05ef 00000000 		.4byte	0
 14274              	.LLST22:
 14275 05f3 30010000 		.4byte	.LVL45
 14276 05f7 3A010000 		.4byte	.LVL47
 14277 05fb 0100     		.2byte	0x1
 14278 05fd 54       		.byte	0x54
 14279 05fe 3A010000 		.4byte	.LVL47
 14280 0602 56010000 		.4byte	.LVL52
 14281 0606 0100     		.2byte	0x1
 14282 0608 5C       		.byte	0x5c
 14283 0609 56010000 		.4byte	.LVL52
 14284 060d 74010000 		.4byte	.LVL53
 14285 0611 0300     		.2byte	0x3
 14286 0613 7C       		.byte	0x7c
 14287 0614 7F       		.sleb128 -1
 14288 0615 9F       		.byte	0x9f
 14289 0616 74010000 		.4byte	.LVL53
 14290 061a 82010000 		.4byte	.LVL54
 14291 061e 0100     		.2byte	0x1
 14292 0620 5C       		.byte	0x5c
 14293 0621 00000000 		.4byte	0
 14294 0625 00000000 		.4byte	0
 14295              	.LLST23:
ARM GAS  /tmp/ccqRaZSa.s 			page 252


 14296 0629 54010000 		.4byte	.LVL51
 14297 062d 82010000 		.4byte	.LVL54
 14298 0631 0100     		.2byte	0x1
 14299 0633 5E       		.byte	0x5e
 14300 0634 00000000 		.4byte	0
 14301 0638 00000000 		.4byte	0
 14302              	.LLST24:
 14303 063c 54010000 		.4byte	.LVL51
 14304 0640 56010000 		.4byte	.LVL52
 14305 0644 0200     		.2byte	0x2
 14306 0646 30       		.byte	0x30
 14307 0647 9F       		.byte	0x9f
 14308 0648 00000000 		.4byte	0
 14309 064c 00000000 		.4byte	0
 14310              	.LLST25:
 14311 0650 3A010000 		.4byte	.LVL47
 14312 0654 40010000 		.4byte	.LVL48
 14313 0658 0500     		.2byte	0x5
 14314 065a 7C       		.byte	0x7c
 14315 065b 00       		.sleb128 0
 14316 065c 32       		.byte	0x32
 14317 065d 25       		.byte	0x25
 14318 065e 9F       		.byte	0x9f
 14319 065f 4A010000 		.4byte	.LVL49
 14320 0663 50010000 		.4byte	.LVL50
 14321 0667 0500     		.2byte	0x5
 14322 0669 7C       		.byte	0x7c
 14323 066a 00       		.sleb128 0
 14324 066b 32       		.byte	0x32
 14325 066c 25       		.byte	0x25
 14326 066d 9F       		.byte	0x9f
 14327 066e 00000000 		.4byte	0
 14328 0672 00000000 		.4byte	0
 14329              	.LLST26:
 14330 0676 40010000 		.4byte	.LVL48
 14331 067a 50010000 		.4byte	.LVL50
 14332 067e 0200     		.2byte	0x2
 14333 0680 30       		.byte	0x30
 14334 0681 9F       		.byte	0x9f
 14335 0682 00000000 		.4byte	0
 14336 0686 00000000 		.4byte	0
 14337              	.LLST28:
 14338 068a 8A010000 		.4byte	.LVL55
 14339 068e 90010000 		.4byte	.LVL56
 14340 0692 0200     		.2byte	0x2
 14341 0694 30       		.byte	0x30
 14342 0695 9F       		.byte	0x9f
 14343 0696 00000000 		.4byte	0
 14344 069a 00000000 		.4byte	0
 14345              	.LLST29:
 14346 069e 8A010000 		.4byte	.LVL55
 14347 06a2 8F010000 		.4byte	.LVL56-1
 14348 06a6 0100     		.2byte	0x1
 14349 06a8 50       		.byte	0x50
 14350 06a9 00000000 		.4byte	0
 14351 06ad 00000000 		.4byte	0
 14352              	.LLST3:
ARM GAS  /tmp/ccqRaZSa.s 			page 253


 14353 06b1 0C000000 		.4byte	.LVL2
 14354 06b5 0E000000 		.4byte	.LVL3
 14355 06b9 0600     		.2byte	0x6
 14356 06bb 03       		.byte	0x3
 14357 06bc 00000000 		.4byte	.LC0
 14358 06c0 9F       		.byte	0x9f
 14359 06c1 00000000 		.4byte	0
 14360 06c5 00000000 		.4byte	0
 14361              	.LLST137:
 14362 06c9 00000000 		.4byte	.LVL271
 14363 06cd 06000000 		.4byte	.LVL272
 14364 06d1 0100     		.2byte	0x1
 14365 06d3 51       		.byte	0x51
 14366 06d4 06000000 		.4byte	.LVL272
 14367 06d8 14000000 		.4byte	.LFE291
 14368 06dc 0400     		.2byte	0x4
 14369 06de F3       		.byte	0xf3
 14370 06df 01       		.uleb128 0x1
 14371 06e0 51       		.byte	0x51
 14372 06e1 9F       		.byte	0x9f
 14373 06e2 00000000 		.4byte	0
 14374 06e6 00000000 		.4byte	0
 14375              	.LLST136:
 14376 06ea 00000000 		.4byte	.LVL269
 14377 06ee 06000000 		.4byte	.LVL270
 14378 06f2 0100     		.2byte	0x1
 14379 06f4 51       		.byte	0x51
 14380 06f5 06000000 		.4byte	.LVL270
 14381 06f9 14000000 		.4byte	.LFE290
 14382 06fd 0400     		.2byte	0x4
 14383 06ff F3       		.byte	0xf3
 14384 0700 01       		.uleb128 0x1
 14385 0701 51       		.byte	0x51
 14386 0702 9F       		.byte	0x9f
 14387 0703 00000000 		.4byte	0
 14388 0707 00000000 		.4byte	0
 14389              	.LLST135:
 14390 070b 00000000 		.4byte	.LVL267
 14391 070f 06000000 		.4byte	.LVL268
 14392 0713 0100     		.2byte	0x1
 14393 0715 51       		.byte	0x51
 14394 0716 06000000 		.4byte	.LVL268
 14395 071a 14000000 		.4byte	.LFE289
 14396 071e 0400     		.2byte	0x4
 14397 0720 F3       		.byte	0xf3
 14398 0721 01       		.uleb128 0x1
 14399 0722 51       		.byte	0x51
 14400 0723 9F       		.byte	0x9f
 14401 0724 00000000 		.4byte	0
 14402 0728 00000000 		.4byte	0
 14403              	.LLST134:
 14404 072c 00000000 		.4byte	.LVL265
 14405 0730 06000000 		.4byte	.LVL266
 14406 0734 0100     		.2byte	0x1
 14407 0736 51       		.byte	0x51
 14408 0737 06000000 		.4byte	.LVL266
 14409 073b 14000000 		.4byte	.LFE288
ARM GAS  /tmp/ccqRaZSa.s 			page 254


 14410 073f 0400     		.2byte	0x4
 14411 0741 F3       		.byte	0xf3
 14412 0742 01       		.uleb128 0x1
 14413 0743 51       		.byte	0x51
 14414 0744 9F       		.byte	0x9f
 14415 0745 00000000 		.4byte	0
 14416 0749 00000000 		.4byte	0
 14417              	.LLST115:
 14418 074d 00000000 		.4byte	.LVL210
 14419 0751 0C000000 		.4byte	.LVL211
 14420 0755 0100     		.2byte	0x1
 14421 0757 50       		.byte	0x50
 14422 0758 0C000000 		.4byte	.LVL211
 14423 075c 4C000000 		.4byte	.LFE285
 14424 0760 0400     		.2byte	0x4
 14425 0762 F3       		.byte	0xf3
 14426 0763 01       		.uleb128 0x1
 14427 0764 50       		.byte	0x50
 14428 0765 9F       		.byte	0x9f
 14429 0766 00000000 		.4byte	0
 14430 076a 00000000 		.4byte	0
 14431              	.LLST116:
 14432 076e 00000000 		.4byte	.LVL210
 14433 0772 20000000 		.4byte	.LVL214
 14434 0776 0100     		.2byte	0x1
 14435 0778 51       		.byte	0x51
 14436 0779 20000000 		.4byte	.LVL214
 14437 077d 30000000 		.4byte	.LVL216
 14438 0781 0400     		.2byte	0x4
 14439 0783 F3       		.byte	0xf3
 14440 0784 01       		.uleb128 0x1
 14441 0785 51       		.byte	0x51
 14442 0786 9F       		.byte	0x9f
 14443 0787 30000000 		.4byte	.LVL216
 14444 078b 4C000000 		.4byte	.LFE285
 14445 078f 0100     		.2byte	0x1
 14446 0791 51       		.byte	0x51
 14447 0792 00000000 		.4byte	0
 14448 0796 00000000 		.4byte	0
 14449              	.LLST117:
 14450 079a 0C000000 		.4byte	.LVL211
 14451 079e 16000000 		.4byte	.LVL212
 14452 07a2 0100     		.2byte	0x1
 14453 07a4 50       		.byte	0x50
 14454 07a5 16000000 		.4byte	.LVL212
 14455 07a9 1A000000 		.4byte	.LVL213
 14456 07ad 0200     		.2byte	0x2
 14457 07af 74       		.byte	0x74
 14458 07b0 14       		.sleb128 20
 14459 07b1 1A000000 		.4byte	.LVL213
 14460 07b5 20000000 		.4byte	.LVL214
 14461 07b9 0D00     		.2byte	0xd
 14462 07bb 71       		.byte	0x71
 14463 07bc 00       		.sleb128 0
 14464 07bd 32       		.byte	0x32
 14465 07be 24       		.byte	0x24
 14466 07bf F3       		.byte	0xf3
ARM GAS  /tmp/ccqRaZSa.s 			page 255


 14467 07c0 01       		.uleb128 0x1
 14468 07c1 50       		.byte	0x50
 14469 07c2 22       		.byte	0x22
 14470 07c3 23       		.byte	0x23
 14471 07c4 0C       		.uleb128 0xc
 14472 07c5 06       		.byte	0x6
 14473 07c6 23       		.byte	0x23
 14474 07c7 14       		.uleb128 0x14
 14475 07c8 30000000 		.4byte	.LVL216
 14476 07cc 4C000000 		.4byte	.LFE285
 14477 07d0 0100     		.2byte	0x1
 14478 07d2 50       		.byte	0x50
 14479 07d3 00000000 		.4byte	0
 14480 07d7 00000000 		.4byte	0
 14481              	.LLST118:
 14482 07db 16000000 		.4byte	.LVL212
 14483 07df 2A000000 		.4byte	.LVL215
 14484 07e3 1100     		.2byte	0x11
 14485 07e5 70       		.byte	0x70
 14486 07e6 00       		.sleb128 0
 14487 07e7 73       		.byte	0x73
 14488 07e8 00       		.sleb128 0
 14489 07e9 22       		.byte	0x22
 14490 07ea 31       		.byte	0x31
 14491 07eb 1C       		.byte	0x1c
 14492 07ec F7       		.byte	0xf7
 14493 07ed 25       		.uleb128 0x25
 14494 07ee 70       		.byte	0x70
 14495 07ef 00       		.sleb128 0
 14496 07f0 F7       		.byte	0xf7
 14497 07f1 25       		.uleb128 0x25
 14498 07f2 1B       		.byte	0x1b
 14499 07f3 F7       		.byte	0xf7
 14500 07f4 00       		.uleb128 0
 14501 07f5 9F       		.byte	0x9f
 14502 07f6 00000000 		.4byte	0
 14503 07fa 00000000 		.4byte	0
 14504              	.LLST105:
 14505 07fe 00000000 		.4byte	.LVL188
 14506 0802 24000000 		.4byte	.LVL191
 14507 0806 0100     		.2byte	0x1
 14508 0808 50       		.byte	0x50
 14509 0809 24000000 		.4byte	.LVL191
 14510 080d 40000000 		.4byte	.LFE284
 14511 0811 0400     		.2byte	0x4
 14512 0813 F3       		.byte	0xf3
 14513 0814 01       		.uleb128 0x1
 14514 0815 50       		.byte	0x50
 14515 0816 9F       		.byte	0x9f
 14516 0817 00000000 		.4byte	0
 14517 081b 00000000 		.4byte	0
 14518              	.LLST106:
 14519 081f 00000000 		.4byte	.LVL188
 14520 0823 2A000000 		.4byte	.LVL192
 14521 0827 0100     		.2byte	0x1
 14522 0829 51       		.byte	0x51
 14523 082a 2A000000 		.4byte	.LVL192
ARM GAS  /tmp/ccqRaZSa.s 			page 256


 14524 082e 40000000 		.4byte	.LFE284
 14525 0832 0400     		.2byte	0x4
 14526 0834 F3       		.byte	0xf3
 14527 0835 01       		.uleb128 0x1
 14528 0836 51       		.byte	0x51
 14529 0837 9F       		.byte	0x9f
 14530 0838 00000000 		.4byte	0
 14531 083c 00000000 		.4byte	0
 14532              	.LLST107:
 14533 0840 22000000 		.4byte	.LVL190
 14534 0844 3A000000 		.4byte	.LVL193
 14535 0848 1100     		.2byte	0x11
 14536 084a 72       		.byte	0x72
 14537 084b 00       		.sleb128 0
 14538 084c 75       		.byte	0x75
 14539 084d 00       		.sleb128 0
 14540 084e 22       		.byte	0x22
 14541 084f 31       		.byte	0x31
 14542 0850 1C       		.byte	0x1c
 14543 0851 F7       		.byte	0xf7
 14544 0852 25       		.uleb128 0x25
 14545 0853 75       		.byte	0x75
 14546 0854 00       		.sleb128 0
 14547 0855 F7       		.byte	0xf7
 14548 0856 25       		.uleb128 0x25
 14549 0857 1B       		.byte	0x1b
 14550 0858 F7       		.byte	0xf7
 14551 0859 00       		.uleb128 0
 14552 085a 9F       		.byte	0x9f
 14553 085b 00000000 		.4byte	0
 14554 085f 00000000 		.4byte	0
 14555              	.LLST108:
 14556 0863 0A000000 		.4byte	.LVL189
 14557 0867 22000000 		.4byte	.LVL190
 14558 086b 0100     		.2byte	0x1
 14559 086d 55       		.byte	0x55
 14560 086e 22000000 		.4byte	.LVL190
 14561 0872 3A000000 		.4byte	.LVL193
 14562 0876 0200     		.2byte	0x2
 14563 0878 76       		.byte	0x76
 14564 0879 18       		.sleb128 24
 14565 087a 00000000 		.4byte	0
 14566 087e 00000000 		.4byte	0
 14567              	.LLST104:
 14568 0882 00000000 		.4byte	.LVL186
 14569 0886 04000000 		.4byte	.LVL187
 14570 088a 0100     		.2byte	0x1
 14571 088c 51       		.byte	0x51
 14572 088d 04000000 		.4byte	.LVL187
 14573 0891 12000000 		.4byte	.LFE283
 14574 0895 0400     		.2byte	0x4
 14575 0897 F3       		.byte	0xf3
 14576 0898 01       		.uleb128 0x1
 14577 0899 51       		.byte	0x51
 14578 089a 9F       		.byte	0x9f
 14579 089b 00000000 		.4byte	0
 14580 089f 00000000 		.4byte	0
ARM GAS  /tmp/ccqRaZSa.s 			page 257


 14581              	.LLST102:
 14582 08a3 00000000 		.4byte	.LVL182
 14583 08a7 0C000000 		.4byte	.LVL185
 14584 08ab 0100     		.2byte	0x1
 14585 08ad 50       		.byte	0x50
 14586 08ae 0C000000 		.4byte	.LVL185
 14587 08b2 1A000000 		.4byte	.LFE282
 14588 08b6 0400     		.2byte	0x4
 14589 08b8 F3       		.byte	0xf3
 14590 08b9 01       		.uleb128 0x1
 14591 08ba 50       		.byte	0x50
 14592 08bb 9F       		.byte	0x9f
 14593 08bc 00000000 		.4byte	0
 14594 08c0 00000000 		.4byte	0
 14595              	.LLST103:
 14596 08c4 00000000 		.4byte	.LVL182
 14597 08c8 02000000 		.4byte	.LVL183
 14598 08cc 0100     		.2byte	0x1
 14599 08ce 51       		.byte	0x51
 14600 08cf 02000000 		.4byte	.LVL183
 14601 08d3 1A000000 		.4byte	.LFE282
 14602 08d7 0400     		.2byte	0x4
 14603 08d9 F3       		.byte	0xf3
 14604 08da 01       		.uleb128 0x1
 14605 08db 51       		.byte	0x51
 14606 08dc 9F       		.byte	0x9f
 14607 08dd 00000000 		.4byte	0
 14608 08e1 00000000 		.4byte	0
 14609              	.LLST100:
 14610 08e5 00000000 		.4byte	.LVL178
 14611 08e9 0C000000 		.4byte	.LVL181
 14612 08ed 0100     		.2byte	0x1
 14613 08ef 50       		.byte	0x50
 14614 08f0 0C000000 		.4byte	.LVL181
 14615 08f4 1A000000 		.4byte	.LFE281
 14616 08f8 0400     		.2byte	0x4
 14617 08fa F3       		.byte	0xf3
 14618 08fb 01       		.uleb128 0x1
 14619 08fc 50       		.byte	0x50
 14620 08fd 9F       		.byte	0x9f
 14621 08fe 00000000 		.4byte	0
 14622 0902 00000000 		.4byte	0
 14623              	.LLST101:
 14624 0906 00000000 		.4byte	.LVL178
 14625 090a 02000000 		.4byte	.LVL179
 14626 090e 0100     		.2byte	0x1
 14627 0910 51       		.byte	0x51
 14628 0911 02000000 		.4byte	.LVL179
 14629 0915 1A000000 		.4byte	.LFE281
 14630 0919 0400     		.2byte	0x4
 14631 091b F3       		.byte	0xf3
 14632 091c 01       		.uleb128 0x1
 14633 091d 51       		.byte	0x51
 14634 091e 9F       		.byte	0x9f
 14635 091f 00000000 		.4byte	0
 14636 0923 00000000 		.4byte	0
 14637              	.LLST95:
ARM GAS  /tmp/ccqRaZSa.s 			page 258


 14638 0927 00000000 		.4byte	.LVL173
 14639 092b 16000000 		.4byte	.LVL175
 14640 092f 0100     		.2byte	0x1
 14641 0931 50       		.byte	0x50
 14642 0932 16000000 		.4byte	.LVL175
 14643 0936 44000000 		.4byte	.LFE280
 14644 093a 0400     		.2byte	0x4
 14645 093c F3       		.byte	0xf3
 14646 093d 01       		.uleb128 0x1
 14647 093e 50       		.byte	0x50
 14648 093f 9F       		.byte	0x9f
 14649 0940 00000000 		.4byte	0
 14650 0944 00000000 		.4byte	0
 14651              	.LLST96:
 14652 0948 06000000 		.4byte	.LVL174
 14653 094c 16000000 		.4byte	.LVL175
 14654 0950 0100     		.2byte	0x1
 14655 0952 50       		.byte	0x50
 14656 0953 16000000 		.4byte	.LVL175
 14657 0957 44000000 		.4byte	.LFE280
 14658 095b 0400     		.2byte	0x4
 14659 095d F3       		.byte	0xf3
 14660 095e 01       		.uleb128 0x1
 14661 095f 50       		.byte	0x50
 14662 0960 9F       		.byte	0x9f
 14663 0961 00000000 		.4byte	0
 14664 0965 00000000 		.4byte	0
 14665              	.LLST97:
 14666 0969 06000000 		.4byte	.LVL174
 14667 096d 16000000 		.4byte	.LVL175
 14668 0971 0100     		.2byte	0x1
 14669 0973 50       		.byte	0x50
 14670 0974 16000000 		.4byte	.LVL175
 14671 0978 44000000 		.4byte	.LFE280
 14672 097c 0400     		.2byte	0x4
 14673 097e F3       		.byte	0xf3
 14674 097f 01       		.uleb128 0x1
 14675 0980 50       		.byte	0x50
 14676 0981 9F       		.byte	0x9f
 14677 0982 00000000 		.4byte	0
 14678 0986 00000000 		.4byte	0
 14679              	.LLST98:
 14680 098a 06000000 		.4byte	.LVL174
 14681 098e 40000000 		.4byte	.LVL177
 14682 0992 0100     		.2byte	0x1
 14683 0994 55       		.byte	0x55
 14684 0995 00000000 		.4byte	0
 14685 0999 00000000 		.4byte	0
 14686              	.LLST99:
 14687 099d 06000000 		.4byte	.LVL174
 14688 09a1 16000000 		.4byte	.LVL175
 14689 09a5 0200     		.2byte	0x2
 14690 09a7 30       		.byte	0x30
 14691 09a8 9F       		.byte	0x9f
 14692 09a9 16000000 		.4byte	.LVL175
 14693 09ad 40000000 		.4byte	.LVL177
 14694 09b1 0100     		.2byte	0x1
ARM GAS  /tmp/ccqRaZSa.s 			page 259


 14695 09b3 52       		.byte	0x52
 14696 09b4 00000000 		.4byte	0
 14697 09b8 00000000 		.4byte	0
 14698              	.LLST79:
 14699 09bc 00000000 		.4byte	.LVL154
 14700 09c0 BA000000 		.4byte	.LVL164
 14701 09c4 0100     		.2byte	0x1
 14702 09c6 50       		.byte	0x50
 14703 09c7 BA000000 		.4byte	.LVL164
 14704 09cb E6000000 		.4byte	.LVL166
 14705 09cf 0400     		.2byte	0x4
 14706 09d1 F3       		.byte	0xf3
 14707 09d2 01       		.uleb128 0x1
 14708 09d3 50       		.byte	0x50
 14709 09d4 9F       		.byte	0x9f
 14710 09d5 E6000000 		.4byte	.LVL166
 14711 09d9 1E010000 		.4byte	.LVL169
 14712 09dd 0100     		.2byte	0x1
 14713 09df 50       		.byte	0x50
 14714 09e0 1E010000 		.4byte	.LVL169
 14715 09e4 44010000 		.4byte	.LVL171
 14716 09e8 0400     		.2byte	0x4
 14717 09ea F3       		.byte	0xf3
 14718 09eb 01       		.uleb128 0x1
 14719 09ec 50       		.byte	0x50
 14720 09ed 9F       		.byte	0x9f
 14721 09ee 44010000 		.4byte	.LVL171
 14722 09f2 64010000 		.4byte	.LFE279
 14723 09f6 0100     		.2byte	0x1
 14724 09f8 50       		.byte	0x50
 14725 09f9 00000000 		.4byte	0
 14726 09fd 00000000 		.4byte	0
 14727              	.LLST80:
 14728 0a01 00000000 		.4byte	.LVL154
 14729 0a05 26000000 		.4byte	.LVL156
 14730 0a09 0100     		.2byte	0x1
 14731 0a0b 51       		.byte	0x51
 14732 0a0c 26000000 		.4byte	.LVL156
 14733 0a10 44010000 		.4byte	.LVL171
 14734 0a14 0400     		.2byte	0x4
 14735 0a16 F3       		.byte	0xf3
 14736 0a17 01       		.uleb128 0x1
 14737 0a18 51       		.byte	0x51
 14738 0a19 9F       		.byte	0x9f
 14739 0a1a 44010000 		.4byte	.LVL171
 14740 0a1e 64010000 		.4byte	.LFE279
 14741 0a22 0100     		.2byte	0x1
 14742 0a24 51       		.byte	0x51
 14743 0a25 00000000 		.4byte	0
 14744 0a29 00000000 		.4byte	0
 14745              	.LLST81:
 14746 0a2d 30000000 		.4byte	.LVL157
 14747 0a31 44010000 		.4byte	.LVL171
 14748 0a35 0100     		.2byte	0x1
 14749 0a37 59       		.byte	0x59
 14750 0a38 44010000 		.4byte	.LVL171
 14751 0a3c 4A010000 		.4byte	.LVL172
ARM GAS  /tmp/ccqRaZSa.s 			page 260


 14752 0a40 0600     		.2byte	0x6
 14753 0a42 0C       		.byte	0xc
 14754 0a43 00800C10 		.4byte	0x100c8000
 14755 0a47 9F       		.byte	0x9f
 14756 0a48 4A010000 		.4byte	.LVL172
 14757 0a4c 64010000 		.4byte	.LFE279
 14758 0a50 0600     		.2byte	0x6
 14759 0a52 0C       		.byte	0xc
 14760 0a53 00800810 		.4byte	0x10088000
 14761 0a57 9F       		.byte	0x9f
 14762 0a58 00000000 		.4byte	0
 14763 0a5c 00000000 		.4byte	0
 14764              	.LLST82:
 14765 0a60 92000000 		.4byte	.LVL158
 14766 0a64 AA000000 		.4byte	.LVL160
 14767 0a68 0100     		.2byte	0x1
 14768 0a6a 53       		.byte	0x53
 14769 0a6b 00000000 		.4byte	0
 14770 0a6f 00000000 		.4byte	0
 14771              	.LLST83:
 14772 0a73 0E000000 		.4byte	.LVL155
 14773 0a77 BA000000 		.4byte	.LVL164
 14774 0a7b 0300     		.2byte	0x3
 14775 0a7d 70       		.byte	0x70
 14776 0a7e D000     		.sleb128 80
 14777 0a80 BA000000 		.4byte	.LVL164
 14778 0a84 BD000000 		.4byte	.LVL165-1
 14779 0a88 0500     		.2byte	0x5
 14780 0a8a F3       		.byte	0xf3
 14781 0a8b 01       		.uleb128 0x1
 14782 0a8c 50       		.byte	0x50
 14783 0a8d 23       		.byte	0x23
 14784 0a8e 50       		.uleb128 0x50
 14785 0a8f E6000000 		.4byte	.LVL166
 14786 0a93 1E010000 		.4byte	.LVL169
 14787 0a97 0300     		.2byte	0x3
 14788 0a99 70       		.byte	0x70
 14789 0a9a D000     		.sleb128 80
 14790 0a9c 1E010000 		.4byte	.LVL169
 14791 0aa0 21010000 		.4byte	.LVL170-1
 14792 0aa4 0500     		.2byte	0x5
 14793 0aa6 F3       		.byte	0xf3
 14794 0aa7 01       		.uleb128 0x1
 14795 0aa8 50       		.byte	0x50
 14796 0aa9 23       		.byte	0x23
 14797 0aaa 50       		.uleb128 0x50
 14798 0aab 44010000 		.4byte	.LVL171
 14799 0aaf 64010000 		.4byte	.LFE279
 14800 0ab3 0300     		.2byte	0x3
 14801 0ab5 70       		.byte	0x70
 14802 0ab6 D000     		.sleb128 80
 14803 0ab8 00000000 		.4byte	0
 14804 0abc 00000000 		.4byte	0
 14805              	.LLST84:
 14806 0ac0 9E000000 		.4byte	.LVL159
 14807 0ac4 BA000000 		.4byte	.LVL164
 14808 0ac8 0100     		.2byte	0x1
ARM GAS  /tmp/ccqRaZSa.s 			page 261


 14809 0aca 50       		.byte	0x50
 14810 0acb BA000000 		.4byte	.LVL164
 14811 0acf E6000000 		.4byte	.LVL166
 14812 0ad3 0400     		.2byte	0x4
 14813 0ad5 F3       		.byte	0xf3
 14814 0ad6 01       		.uleb128 0x1
 14815 0ad7 50       		.byte	0x50
 14816 0ad8 9F       		.byte	0x9f
 14817 0ad9 00000000 		.4byte	0
 14818 0add 00000000 		.4byte	0
 14819              	.LLST85:
 14820 0ae1 9E000000 		.4byte	.LVL159
 14821 0ae5 AA000000 		.4byte	.LVL160
 14822 0ae9 0100     		.2byte	0x1
 14823 0aeb 53       		.byte	0x53
 14824 0aec 00000000 		.4byte	0
 14825 0af0 00000000 		.4byte	0
 14826              	.LLST86:
 14827 0af4 9E000000 		.4byte	.LVL159
 14828 0af8 AE000000 		.4byte	.LVL161
 14829 0afc 0100     		.2byte	0x1
 14830 0afe 56       		.byte	0x56
 14831 0aff 00000000 		.4byte	0
 14832 0b03 00000000 		.4byte	0
 14833              	.LLST87:
 14834 0b07 B0000000 		.4byte	.LVL162
 14835 0b0b BA000000 		.4byte	.LVL164
 14836 0b0f 0100     		.2byte	0x1
 14837 0b11 50       		.byte	0x50
 14838 0b12 BA000000 		.4byte	.LVL164
 14839 0b16 E6000000 		.4byte	.LVL166
 14840 0b1a 0400     		.2byte	0x4
 14841 0b1c F3       		.byte	0xf3
 14842 0b1d 01       		.uleb128 0x1
 14843 0b1e 50       		.byte	0x50
 14844 0b1f 9F       		.byte	0x9f
 14845 0b20 00000000 		.4byte	0
 14846 0b24 00000000 		.4byte	0
 14847              	.LLST88:
 14848 0b28 B0000000 		.4byte	.LVL162
 14849 0b2c BE000000 		.4byte	.LVL165
 14850 0b30 0600     		.2byte	0x6
 14851 0b32 75       		.byte	0x75
 14852 0b33 00       		.sleb128 0
 14853 0b34 08       		.byte	0x8
 14854 0b35 FF       		.byte	0xff
 14855 0b36 1A       		.byte	0x1a
 14856 0b37 9F       		.byte	0x9f
 14857 0b38 00000000 		.4byte	0
 14858 0b3c 00000000 		.4byte	0
 14859              	.LLST89:
 14860 0b40 B0000000 		.4byte	.LVL162
 14861 0b44 BA000000 		.4byte	.LVL164
 14862 0b48 0300     		.2byte	0x3
 14863 0b4a 70       		.byte	0x70
 14864 0b4b D000     		.sleb128 80
 14865 0b4d BA000000 		.4byte	.LVL164
ARM GAS  /tmp/ccqRaZSa.s 			page 262


 14866 0b51 BD000000 		.4byte	.LVL165-1
 14867 0b55 0500     		.2byte	0x5
 14868 0b57 F3       		.byte	0xf3
 14869 0b58 01       		.uleb128 0x1
 14870 0b59 50       		.byte	0x50
 14871 0b5a 23       		.byte	0x23
 14872 0b5b 50       		.uleb128 0x50
 14873 0b5c 00000000 		.4byte	0
 14874 0b60 00000000 		.4byte	0
 14875              	.LLST90:
 14876 0b64 B8000000 		.4byte	.LVL163
 14877 0b68 BE000000 		.4byte	.LVL165
 14878 0b6c 0200     		.2byte	0x2
 14879 0b6e 3C       		.byte	0x3c
 14880 0b6f 9F       		.byte	0x9f
 14881 0b70 00000000 		.4byte	0
 14882 0b74 00000000 		.4byte	0
 14883              	.LLST91:
 14884 0b78 10010000 		.4byte	.LVL167
 14885 0b7c 1E010000 		.4byte	.LVL169
 14886 0b80 0100     		.2byte	0x1
 14887 0b82 50       		.byte	0x50
 14888 0b83 1E010000 		.4byte	.LVL169
 14889 0b87 44010000 		.4byte	.LVL171
 14890 0b8b 0400     		.2byte	0x4
 14891 0b8d F3       		.byte	0xf3
 14892 0b8e 01       		.uleb128 0x1
 14893 0b8f 50       		.byte	0x50
 14894 0b90 9F       		.byte	0x9f
 14895 0b91 00000000 		.4byte	0
 14896 0b95 00000000 		.4byte	0
 14897              	.LLST92:
 14898 0b99 10010000 		.4byte	.LVL167
 14899 0b9d 22010000 		.4byte	.LVL170
 14900 0ba1 0600     		.2byte	0x6
 14901 0ba3 75       		.byte	0x75
 14902 0ba4 00       		.sleb128 0
 14903 0ba5 08       		.byte	0x8
 14904 0ba6 FF       		.byte	0xff
 14905 0ba7 1A       		.byte	0x1a
 14906 0ba8 9F       		.byte	0x9f
 14907 0ba9 00000000 		.4byte	0
 14908 0bad 00000000 		.4byte	0
 14909              	.LLST93:
 14910 0bb1 10010000 		.4byte	.LVL167
 14911 0bb5 1E010000 		.4byte	.LVL169
 14912 0bb9 0300     		.2byte	0x3
 14913 0bbb 70       		.byte	0x70
 14914 0bbc D000     		.sleb128 80
 14915 0bbe 1E010000 		.4byte	.LVL169
 14916 0bc2 21010000 		.4byte	.LVL170-1
 14917 0bc6 0500     		.2byte	0x5
 14918 0bc8 F3       		.byte	0xf3
 14919 0bc9 01       		.uleb128 0x1
 14920 0bca 50       		.byte	0x50
 14921 0bcb 23       		.byte	0x23
 14922 0bcc 50       		.uleb128 0x50
ARM GAS  /tmp/ccqRaZSa.s 			page 263


 14923 0bcd 00000000 		.4byte	0
 14924 0bd1 00000000 		.4byte	0
 14925              	.LLST94:
 14926 0bd5 18010000 		.4byte	.LVL168
 14927 0bd9 22010000 		.4byte	.LVL170
 14928 0bdd 0200     		.2byte	0x2
 14929 0bdf 3C       		.byte	0x3c
 14930 0be0 9F       		.byte	0x9f
 14931 0be1 00000000 		.4byte	0
 14932 0be5 00000000 		.4byte	0
 14933              	.LLST64:
 14934 0be9 00000000 		.4byte	.LVL133
 14935 0bed 14000000 		.4byte	.LVL137
 14936 0bf1 0100     		.2byte	0x1
 14937 0bf3 50       		.byte	0x50
 14938 0bf4 14000000 		.4byte	.LVL137
 14939 0bf8 B2000000 		.4byte	.LVL151
 14940 0bfc 0100     		.2byte	0x1
 14941 0bfe 56       		.byte	0x56
 14942 0bff B2000000 		.4byte	.LVL151
 14943 0c03 BC000000 		.4byte	.LFE277
 14944 0c07 0400     		.2byte	0x4
 14945 0c09 F3       		.byte	0xf3
 14946 0c0a 01       		.uleb128 0x1
 14947 0c0b 50       		.byte	0x50
 14948 0c0c 9F       		.byte	0x9f
 14949 0c0d 00000000 		.4byte	0
 14950 0c11 00000000 		.4byte	0
 14951              	.LLST65:
 14952 0c15 2A000000 		.4byte	.LVL139
 14953 0c19 34000000 		.4byte	.LVL140
 14954 0c1d 0200     		.2byte	0x2
 14955 0c1f 30       		.byte	0x30
 14956 0c20 9F       		.byte	0x9f
 14957 0c21 34000000 		.4byte	.LVL140
 14958 0c25 50000000 		.4byte	.LVL143
 14959 0c29 0100     		.2byte	0x1
 14960 0c2b 53       		.byte	0x53
 14961 0c2c 00000000 		.4byte	0
 14962 0c30 00000000 		.4byte	0
 14963              	.LLST66:
 14964 0c34 04000000 		.4byte	.LVL134
 14965 0c38 B2000000 		.4byte	.LVL151
 14966 0c3c 0100     		.2byte	0x1
 14967 0c3e 55       		.byte	0x55
 14968 0c3f 00000000 		.4byte	0
 14969 0c43 00000000 		.4byte	0
 14970              	.LLST67:
 14971 0c47 08000000 		.4byte	.LVL135
 14972 0c4b 14000000 		.4byte	.LVL137
 14973 0c4f 0100     		.2byte	0x1
 14974 0c51 50       		.byte	0x50
 14975 0c52 14000000 		.4byte	.LVL137
 14976 0c56 B2000000 		.4byte	.LVL151
 14977 0c5a 0100     		.2byte	0x1
 14978 0c5c 56       		.byte	0x56
 14979 0c5d B2000000 		.4byte	.LVL151
ARM GAS  /tmp/ccqRaZSa.s 			page 264


 14980 0c61 BC000000 		.4byte	.LFE277
 14981 0c65 0400     		.2byte	0x4
 14982 0c67 F3       		.byte	0xf3
 14983 0c68 01       		.uleb128 0x1
 14984 0c69 50       		.byte	0x50
 14985 0c6a 9F       		.byte	0x9f
 14986 0c6b 00000000 		.4byte	0
 14987 0c6f 00000000 		.4byte	0
 14988              	.LLST68:
 14989 0c73 08000000 		.4byte	.LVL135
 14990 0c77 18000000 		.4byte	.LVL138
 14991 0c7b 0200     		.2byte	0x2
 14992 0c7d 30       		.byte	0x30
 14993 0c7e 9F       		.byte	0x9f
 14994 0c7f 00000000 		.4byte	0
 14995 0c83 00000000 		.4byte	0
 14996              	.LLST69:
 14997 0c87 08000000 		.4byte	.LVL135
 14998 0c8b 18000000 		.4byte	.LVL138
 14999 0c8f 0100     		.2byte	0x1
 15000 0c91 55       		.byte	0x55
 15001 0c92 00000000 		.4byte	0
 15002 0c96 00000000 		.4byte	0
 15003              	.LLST70:
 15004 0c9a 12000000 		.4byte	.LVL136
 15005 0c9e 18000000 		.4byte	.LVL138
 15006 0ca2 0200     		.2byte	0x2
 15007 0ca4 3C       		.byte	0x3c
 15008 0ca5 9F       		.byte	0x9f
 15009 0ca6 00000000 		.4byte	0
 15010 0caa 00000000 		.4byte	0
 15011              	.LLST71:
 15012 0cae 4E000000 		.4byte	.LVL142
 15013 0cb2 B2000000 		.4byte	.LVL151
 15014 0cb6 0100     		.2byte	0x1
 15015 0cb8 56       		.byte	0x56
 15016 0cb9 B2000000 		.4byte	.LVL151
 15017 0cbd BC000000 		.4byte	.LFE277
 15018 0cc1 0400     		.2byte	0x4
 15019 0cc3 F3       		.byte	0xf3
 15020 0cc4 01       		.uleb128 0x1
 15021 0cc5 50       		.byte	0x50
 15022 0cc6 9F       		.byte	0x9f
 15023 0cc7 00000000 		.4byte	0
 15024 0ccb 00000000 		.4byte	0
 15025              	.LLST72:
 15026 0ccf 4E000000 		.4byte	.LVL142
 15027 0cd3 B2000000 		.4byte	.LVL151
 15028 0cd7 0100     		.2byte	0x1
 15029 0cd9 56       		.byte	0x56
 15030 0cda B2000000 		.4byte	.LVL151
 15031 0cde BC000000 		.4byte	.LFE277
 15032 0ce2 0400     		.2byte	0x4
 15033 0ce4 F3       		.byte	0xf3
 15034 0ce5 01       		.uleb128 0x1
 15035 0ce6 50       		.byte	0x50
 15036 0ce7 9F       		.byte	0x9f
ARM GAS  /tmp/ccqRaZSa.s 			page 265


 15037 0ce8 00000000 		.4byte	0
 15038 0cec 00000000 		.4byte	0
 15039              	.LLST73:
 15040 0cf0 56000000 		.4byte	.LVL144
 15041 0cf4 B2000000 		.4byte	.LVL151
 15042 0cf8 0100     		.2byte	0x1
 15043 0cfa 56       		.byte	0x56
 15044 0cfb B2000000 		.4byte	.LVL151
 15045 0cff BC000000 		.4byte	.LFE277
 15046 0d03 0400     		.2byte	0x4
 15047 0d05 F3       		.byte	0xf3
 15048 0d06 01       		.uleb128 0x1
 15049 0d07 50       		.byte	0x50
 15050 0d08 9F       		.byte	0x9f
 15051 0d09 00000000 		.4byte	0
 15052 0d0d 00000000 		.4byte	0
 15053              	.LLST74:
 15054 0d11 56000000 		.4byte	.LVL144
 15055 0d15 69000000 		.4byte	.LVL146-1
 15056 0d19 0100     		.2byte	0x1
 15057 0d1b 52       		.byte	0x52
 15058 0d1c 00000000 		.4byte	0
 15059 0d20 00000000 		.4byte	0
 15060              	.LLST75:
 15061 0d24 64000000 		.4byte	.LVL145
 15062 0d28 6A000000 		.4byte	.LVL146
 15063 0d2c 0200     		.2byte	0x2
 15064 0d2e 3C       		.byte	0x3c
 15065 0d2f 9F       		.byte	0x9f
 15066 0d30 00000000 		.4byte	0
 15067 0d34 00000000 		.4byte	0
 15068              	.LLST76:
 15069 0d38 A2000000 		.4byte	.LVL147
 15070 0d3c B2000000 		.4byte	.LVL151
 15071 0d40 0100     		.2byte	0x1
 15072 0d42 56       		.byte	0x56
 15073 0d43 B2000000 		.4byte	.LVL151
 15074 0d47 BC000000 		.4byte	.LFE277
 15075 0d4b 0400     		.2byte	0x4
 15076 0d4d F3       		.byte	0xf3
 15077 0d4e 01       		.uleb128 0x1
 15078 0d4f 50       		.byte	0x50
 15079 0d50 9F       		.byte	0x9f
 15080 0d51 00000000 		.4byte	0
 15081 0d55 00000000 		.4byte	0
 15082              	.LLST77:
 15083 0d59 A2000000 		.4byte	.LVL147
 15084 0d5d AE000000 		.4byte	.LVL150
 15085 0d61 0200     		.2byte	0x2
 15086 0d63 40       		.byte	0x40
 15087 0d64 9F       		.byte	0x9f
 15088 0d65 00000000 		.4byte	0
 15089 0d69 00000000 		.4byte	0
 15090              	.LLST78:
 15091 0d6d A4000000 		.4byte	.LVL148
 15092 0d71 AC000000 		.4byte	.LVL149
 15093 0d75 0100     		.2byte	0x1
ARM GAS  /tmp/ccqRaZSa.s 			page 266


 15094 0d77 53       		.byte	0x53
 15095 0d78 AC000000 		.4byte	.LVL149
 15096 0d7c AE000000 		.4byte	.LVL150
 15097 0d80 0300     		.2byte	0x3
 15098 0d82 76       		.byte	0x76
 15099 0d83 D800     		.sleb128 88
 15100 0d85 00000000 		.4byte	0
 15101 0d89 00000000 		.4byte	0
 15102              	.LLST58:
 15103 0d8d 00000000 		.4byte	.LVL123
 15104 0d91 58000000 		.4byte	.LVL131
 15105 0d95 0100     		.2byte	0x1
 15106 0d97 50       		.byte	0x50
 15107 0d98 58000000 		.4byte	.LVL131
 15108 0d9c 70000000 		.4byte	.LFE276
 15109 0da0 0400     		.2byte	0x4
 15110 0da2 F3       		.byte	0xf3
 15111 0da3 01       		.uleb128 0x1
 15112 0da4 50       		.byte	0x50
 15113 0da5 9F       		.byte	0x9f
 15114 0da6 00000000 		.4byte	0
 15115 0daa 00000000 		.4byte	0
 15116              	.LLST59:
 15117 0dae 00000000 		.4byte	.LVL123
 15118 0db2 58000000 		.4byte	.LVL131
 15119 0db6 0300     		.2byte	0x3
 15120 0db8 70       		.byte	0x70
 15121 0db9 D000     		.sleb128 80
 15122 0dbb 58000000 		.4byte	.LVL131
 15123 0dbf 5B000000 		.4byte	.LVL132-1
 15124 0dc3 0500     		.2byte	0x5
 15125 0dc5 F3       		.byte	0xf3
 15126 0dc6 01       		.uleb128 0x1
 15127 0dc7 50       		.byte	0x50
 15128 0dc8 23       		.byte	0x23
 15129 0dc9 50       		.uleb128 0x50
 15130 0dca 00000000 		.4byte	0
 15131 0dce 00000000 		.4byte	0
 15132              	.LLST60:
 15133 0dd2 0C000000 		.4byte	.LVL124
 15134 0dd6 54000000 		.4byte	.LVL129
 15135 0dda 0100     		.2byte	0x1
 15136 0ddc 50       		.byte	0x50
 15137 0ddd 56000000 		.4byte	.LVL130
 15138 0de1 58000000 		.4byte	.LVL131
 15139 0de5 0100     		.2byte	0x1
 15140 0de7 50       		.byte	0x50
 15141 0de8 58000000 		.4byte	.LVL131
 15142 0dec 70000000 		.4byte	.LFE276
 15143 0df0 0400     		.2byte	0x4
 15144 0df2 F3       		.byte	0xf3
 15145 0df3 01       		.uleb128 0x1
 15146 0df4 50       		.byte	0x50
 15147 0df5 9F       		.byte	0x9f
 15148 0df6 00000000 		.4byte	0
 15149 0dfa 00000000 		.4byte	0
 15150              	.LLST61:
ARM GAS  /tmp/ccqRaZSa.s 			page 267


 15151 0dfe 0C000000 		.4byte	.LVL124
 15152 0e02 54000000 		.4byte	.LVL129
 15153 0e06 0100     		.2byte	0x1
 15154 0e08 50       		.byte	0x50
 15155 0e09 56000000 		.4byte	.LVL130
 15156 0e0d 58000000 		.4byte	.LVL131
 15157 0e11 0100     		.2byte	0x1
 15158 0e13 50       		.byte	0x50
 15159 0e14 58000000 		.4byte	.LVL131
 15160 0e18 70000000 		.4byte	.LFE276
 15161 0e1c 0400     		.2byte	0x4
 15162 0e1e F3       		.byte	0xf3
 15163 0e1f 01       		.uleb128 0x1
 15164 0e20 50       		.byte	0x50
 15165 0e21 9F       		.byte	0x9f
 15166 0e22 00000000 		.4byte	0
 15167 0e26 00000000 		.4byte	0
 15168              	.LLST62:
 15169 0e2a 0C000000 		.4byte	.LVL124
 15170 0e2e 46000000 		.4byte	.LVL128
 15171 0e32 0300     		.2byte	0x3
 15172 0e34 70       		.byte	0x70
 15173 0e35 D000     		.sleb128 80
 15174 0e37 00000000 		.4byte	0
 15175 0e3b 00000000 		.4byte	0
 15176              	.LLST63:
 15177 0e3f 0C000000 		.4byte	.LVL124
 15178 0e43 18000000 		.4byte	.LVL125
 15179 0e47 0200     		.2byte	0x2
 15180 0e49 30       		.byte	0x30
 15181 0e4a 9F       		.byte	0x9f
 15182 0e4b 18000000 		.4byte	.LVL125
 15183 0e4f 40000000 		.4byte	.LVL127
 15184 0e53 0100     		.2byte	0x1
 15185 0e55 51       		.byte	0x51
 15186 0e56 00000000 		.4byte	0
 15187 0e5a 00000000 		.4byte	0
 15188              	.LLST47:
 15189 0e5e 00000000 		.4byte	.LVL103
 15190 0e62 18000000 		.4byte	.LVL104
 15191 0e66 0100     		.2byte	0x1
 15192 0e68 50       		.byte	0x50
 15193 0e69 18000000 		.4byte	.LVL104
 15194 0e6d C0000000 		.4byte	.LVL115
 15195 0e71 0100     		.2byte	0x1
 15196 0e73 55       		.byte	0x55
 15197 0e74 C0000000 		.4byte	.LVL115
 15198 0e78 CE000000 		.4byte	.LVL116
 15199 0e7c 0100     		.2byte	0x1
 15200 0e7e 50       		.byte	0x50
 15201 0e7f CE000000 		.4byte	.LVL116
 15202 0e83 14010000 		.4byte	.LFE275
 15203 0e87 0100     		.2byte	0x1
 15204 0e89 55       		.byte	0x55
 15205 0e8a 00000000 		.4byte	0
 15206 0e8e 00000000 		.4byte	0
 15207              	.LLST48:
ARM GAS  /tmp/ccqRaZSa.s 			page 268


 15208 0e92 00000000 		.4byte	.LVL103
 15209 0e96 18000000 		.4byte	.LVL104
 15210 0e9a 0300     		.2byte	0x3
 15211 0e9c 70       		.byte	0x70
 15212 0e9d D000     		.sleb128 80
 15213 0e9f C0000000 		.4byte	.LVL115
 15214 0ea3 CE000000 		.4byte	.LVL116
 15215 0ea7 0300     		.2byte	0x3
 15216 0ea9 70       		.byte	0x70
 15217 0eaa D000     		.sleb128 80
 15218 0eac CE000000 		.4byte	.LVL116
 15219 0eb0 DD000000 		.4byte	.LVL117-1
 15220 0eb4 0300     		.2byte	0x3
 15221 0eb6 75       		.byte	0x75
 15222 0eb7 D000     		.sleb128 80
 15223 0eb9 00000000 		.4byte	0
 15224 0ebd 00000000 		.4byte	0
 15225              	.LLST49:
 15226 0ec1 32000000 		.4byte	.LVL105
 15227 0ec5 C0000000 		.4byte	.LVL115
 15228 0ec9 0100     		.2byte	0x1
 15229 0ecb 55       		.byte	0x55
 15230 0ecc E2000000 		.4byte	.LVL118
 15231 0ed0 14010000 		.4byte	.LFE275
 15232 0ed4 0100     		.2byte	0x1
 15233 0ed6 55       		.byte	0x55
 15234 0ed7 00000000 		.4byte	0
 15235 0edb 00000000 		.4byte	0
 15236              	.LLST50:
 15237 0edf 32000000 		.4byte	.LVL105
 15238 0ee3 35000000 		.4byte	.LVL106-1
 15239 0ee7 0300     		.2byte	0x3
 15240 0ee9 75       		.byte	0x75
 15241 0eea D000     		.sleb128 80
 15242 0eec 00000000 		.4byte	0
 15243 0ef0 00000000 		.4byte	0
 15244              	.LLST51:
 15245 0ef4 32000000 		.4byte	.LVL105
 15246 0ef8 36000000 		.4byte	.LVL106
 15247 0efc 0300     		.2byte	0x3
 15248 0efe 08       		.byte	0x8
 15249 0eff 20       		.byte	0x20
 15250 0f00 9F       		.byte	0x9f
 15251 0f01 00000000 		.4byte	0
 15252 0f05 00000000 		.4byte	0
 15253              	.LLST52:
 15254 0f09 40000000 		.4byte	.LVL107
 15255 0f0d C0000000 		.4byte	.LVL115
 15256 0f11 0200     		.2byte	0x2
 15257 0f13 3C       		.byte	0x3c
 15258 0f14 9F       		.byte	0x9f
 15259 0f15 E2000000 		.4byte	.LVL118
 15260 0f19 14010000 		.4byte	.LFE275
 15261 0f1d 0200     		.2byte	0x2
 15262 0f1f 3C       		.byte	0x3c
 15263 0f20 9F       		.byte	0x9f
 15264 0f21 00000000 		.4byte	0
ARM GAS  /tmp/ccqRaZSa.s 			page 269


 15265 0f25 00000000 		.4byte	0
 15266              	.LLST53:
 15267 0f29 50000000 		.4byte	.LVL109
 15268 0f2d C0000000 		.4byte	.LVL115
 15269 0f31 0100     		.2byte	0x1
 15270 0f33 55       		.byte	0x55
 15271 0f34 E2000000 		.4byte	.LVL118
 15272 0f38 14010000 		.4byte	.LFE275
 15273 0f3c 0100     		.2byte	0x1
 15274 0f3e 55       		.byte	0x55
 15275 0f3f 00000000 		.4byte	0
 15276 0f43 00000000 		.4byte	0
 15277              	.LLST55:
 15278 0f47 50000000 		.4byte	.LVL109
 15279 0f4b 8E000000 		.4byte	.LVL113
 15280 0f4f 0100     		.2byte	0x1
 15281 0f51 57       		.byte	0x57
 15282 0f52 00000000 		.4byte	0
 15283 0f56 00000000 		.4byte	0
 15284              	.LLST56:
 15285 0f5a 50000000 		.4byte	.LVL109
 15286 0f5e 60000000 		.4byte	.LVL110
 15287 0f62 0200     		.2byte	0x2
 15288 0f64 30       		.byte	0x30
 15289 0f65 9F       		.byte	0x9f
 15290 0f66 60000000 		.4byte	.LVL110
 15291 0f6a 8A000000 		.4byte	.LVL112
 15292 0f6e 0100     		.2byte	0x1
 15293 0f70 51       		.byte	0x51
 15294 0f71 00000000 		.4byte	0
 15295 0f75 00000000 		.4byte	0
 15296              	.LLST57:
 15297 0f79 F6000000 		.4byte	.LVL120
 15298 0f7d F9000000 		.4byte	.LVL121-1
 15299 0f81 0100     		.2byte	0x1
 15300 0f83 50       		.byte	0x50
 15301 0f84 00000000 		.4byte	0
 15302 0f88 00000000 		.4byte	0
 15303              	.LLST125:
 15304 0f8c 00000000 		.4byte	.LVL232
 15305 0f90 58000000 		.4byte	.LVL239
 15306 0f94 0600     		.2byte	0x6
 15307 0f96 03       		.byte	0x3
 15308 0f97 00000000 		.4byte	USBD1
 15309 0f9b 9F       		.byte	0x9f
 15310 0f9c 60000000 		.4byte	.LVL240
 15311 0fa0 96000000 		.4byte	.LVL247
 15312 0fa4 0600     		.2byte	0x6
 15313 0fa6 03       		.byte	0x3
 15314 0fa7 00000000 		.4byte	USBD1
 15315 0fab 9F       		.byte	0x9f
 15316 0fac 9E000000 		.4byte	.LVL248
 15317 0fb0 A4000000 		.4byte	.LVL249
 15318 0fb4 0600     		.2byte	0x6
 15319 0fb6 03       		.byte	0x3
 15320 0fb7 00000000 		.4byte	USBD1
 15321 0fbb 9F       		.byte	0x9f
ARM GAS  /tmp/ccqRaZSa.s 			page 270


 15322 0fbc AC000000 		.4byte	.LVL250
 15323 0fc0 F4000000 		.4byte	.LFE273
 15324 0fc4 0600     		.2byte	0x6
 15325 0fc6 03       		.byte	0x3
 15326 0fc7 00000000 		.4byte	USBD1
 15327 0fcb 9F       		.byte	0x9f
 15328 0fcc 00000000 		.4byte	0
 15329 0fd0 00000000 		.4byte	0
 15330              	.LLST126:
 15331 0fd4 06000000 		.4byte	.LVL233
 15332 0fd8 32000000 		.4byte	.LVL237
 15333 0fdc 0100     		.2byte	0x1
 15334 0fde 55       		.byte	0x55
 15335 0fdf 60000000 		.4byte	.LVL240
 15336 0fe3 7A000000 		.4byte	.LVL243
 15337 0fe7 0100     		.2byte	0x1
 15338 0fe9 55       		.byte	0x55
 15339 0fea 7E000000 		.4byte	.LVL244
 15340 0fee 96000000 		.4byte	.LVL247
 15341 0ff2 0100     		.2byte	0x1
 15342 0ff4 55       		.byte	0x55
 15343 0ff5 00000000 		.4byte	0
 15344 0ff9 00000000 		.4byte	0
 15345              	.LLST127:
 15346 0ffd 08000000 		.4byte	.LVL234
 15347 1001 46000000 		.4byte	.LVL238
 15348 1005 0100     		.2byte	0x1
 15349 1007 54       		.byte	0x54
 15350 1008 60000000 		.4byte	.LVL240
 15351 100c 80000000 		.4byte	.LVL245
 15352 1010 0100     		.2byte	0x1
 15353 1012 54       		.byte	0x54
 15354 1013 80000000 		.4byte	.LVL245
 15355 1017 87000000 		.4byte	.LVL246-1
 15356 101b 0200     		.2byte	0x2
 15357 101d 75       		.byte	0x75
 15358 101e 14       		.sleb128 20
 15359 101f AC000000 		.4byte	.LVL250
 15360 1023 B4000000 		.4byte	.LVL252
 15361 1027 0100     		.2byte	0x1
 15362 1029 54       		.byte	0x54
 15363 102a D2000000 		.4byte	.LVL256
 15364 102e F4000000 		.4byte	.LFE273
 15365 1032 0100     		.2byte	0x1
 15366 1034 54       		.byte	0x54
 15367 1035 00000000 		.4byte	0
 15368 1039 00000000 		.4byte	0
 15369              	.LLST128:
 15370 103d 32000000 		.4byte	.LVL237
 15371 1041 58000000 		.4byte	.LVL239
 15372 1045 0100     		.2byte	0x1
 15373 1047 55       		.byte	0x55
 15374 1048 7A000000 		.4byte	.LVL243
 15375 104c 7E000000 		.4byte	.LVL244
 15376 1050 0100     		.2byte	0x1
 15377 1052 55       		.byte	0x55
 15378 1053 9E000000 		.4byte	.LVL248
ARM GAS  /tmp/ccqRaZSa.s 			page 271


 15379 1057 A4000000 		.4byte	.LVL249
 15380 105b 0100     		.2byte	0x1
 15381 105d 55       		.byte	0x55
 15382 105e AC000000 		.4byte	.LVL250
 15383 1062 F4000000 		.4byte	.LFE273
 15384 1066 0100     		.2byte	0x1
 15385 1068 55       		.byte	0x55
 15386 1069 00000000 		.4byte	0
 15387 106d 00000000 		.4byte	0
 15388              	.LLST129:
 15389 1071 6C000000 		.4byte	.LVL241
 15390 1075 72000000 		.4byte	.LVL242
 15391 1079 0200     		.2byte	0x2
 15392 107b 30       		.byte	0x30
 15393 107c 9F       		.byte	0x9f
 15394 107d 00000000 		.4byte	0
 15395 1081 00000000 		.4byte	0
 15396              	.LLST130:
 15397 1085 6C000000 		.4byte	.LVL241
 15398 1089 72000000 		.4byte	.LVL242
 15399 108d 0600     		.2byte	0x6
 15400 108f 03       		.byte	0x3
 15401 1090 60000000 		.4byte	USBD1+96
 15402 1094 9F       		.byte	0x9f
 15403 1095 00000000 		.4byte	0
 15404 1099 00000000 		.4byte	0
 15405              	.LLST109:
 15406 109d 00000000 		.4byte	.LVL194
 15407 10a1 18000000 		.4byte	.LVL197
 15408 10a5 0100     		.2byte	0x1
 15409 10a7 50       		.byte	0x50
 15410 10a8 18000000 		.4byte	.LVL197
 15411 10ac 94000000 		.4byte	.LFE300
 15412 10b0 0400     		.2byte	0x4
 15413 10b2 F3       		.byte	0xf3
 15414 10b3 01       		.uleb128 0x1
 15415 10b4 50       		.byte	0x50
 15416 10b5 9F       		.byte	0x9f
 15417 10b6 00000000 		.4byte	0
 15418 10ba 00000000 		.4byte	0
 15419              	.LLST110:
 15420 10be 08000000 		.4byte	.LVL195
 15421 10c2 64000000 		.4byte	.LVL203
 15422 10c6 0100     		.2byte	0x1
 15423 10c8 57       		.byte	0x57
 15424 10c9 66000000 		.4byte	.LVL204
 15425 10cd 90000000 		.4byte	.LVL209
 15426 10d1 0100     		.2byte	0x1
 15427 10d3 57       		.byte	0x57
 15428 10d4 00000000 		.4byte	0
 15429 10d8 00000000 		.4byte	0
 15430              	.LLST111:
 15431 10dc 12000000 		.4byte	.LVL196
 15432 10e0 50000000 		.4byte	.LVL201
 15433 10e4 0100     		.2byte	0x1
 15434 10e6 54       		.byte	0x54
 15435 10e7 66000000 		.4byte	.LVL204
ARM GAS  /tmp/ccqRaZSa.s 			page 272


 15436 10eb 90000000 		.4byte	.LVL209
 15437 10ef 0100     		.2byte	0x1
 15438 10f1 54       		.byte	0x54
 15439 10f2 00000000 		.4byte	0
 15440 10f6 00000000 		.4byte	0
 15441              	.LLST112:
 15442 10fa 44000000 		.4byte	.LVL199
 15443 10fe 4E000000 		.4byte	.LVL200
 15444 1102 0100     		.2byte	0x1
 15445 1104 53       		.byte	0x53
 15446 1105 4E000000 		.4byte	.LVL200
 15447 1109 5E000000 		.4byte	.LVL202
 15448 110d 0200     		.2byte	0x2
 15449 110f 71       		.byte	0x71
 15450 1110 18       		.sleb128 24
 15451 1111 5E000000 		.4byte	.LVL202
 15452 1115 64000000 		.4byte	.LVL203
 15453 1119 0C00     		.2byte	0xc
 15454 111b 71       		.byte	0x71
 15455 111c 00       		.sleb128 0
 15456 111d 32       		.byte	0x32
 15457 111e 24       		.byte	0x24
 15458 111f 76       		.byte	0x76
 15459 1120 00       		.sleb128 0
 15460 1121 22       		.byte	0x22
 15461 1122 23       		.byte	0x23
 15462 1123 0C       		.uleb128 0xc
 15463 1124 06       		.byte	0x6
 15464 1125 23       		.byte	0x23
 15465 1126 18       		.uleb128 0x18
 15466 1127 64000000 		.4byte	.LVL203
 15467 112b 65000000 		.4byte	.LVL204-1
 15468 112f 0C00     		.2byte	0xc
 15469 1131 71       		.byte	0x71
 15470 1132 00       		.sleb128 0
 15471 1133 32       		.byte	0x32
 15472 1134 24       		.byte	0x24
 15473 1135 70       		.byte	0x70
 15474 1136 00       		.sleb128 0
 15475 1137 22       		.byte	0x22
 15476 1138 23       		.byte	0x23
 15477 1139 0C       		.uleb128 0xc
 15478 113a 06       		.byte	0x6
 15479 113b 23       		.byte	0x23
 15480 113c 18       		.uleb128 0x18
 15481 113d 66000000 		.4byte	.LVL204
 15482 1141 75000000 		.4byte	.LVL205-1
 15483 1145 0100     		.2byte	0x1
 15484 1147 53       		.byte	0x53
 15485 1148 00000000 		.4byte	0
 15486 114c 00000000 		.4byte	0
 15487              	.LLST113:
 15488 1150 78000000 		.4byte	.LVL206
 15489 1154 7E000000 		.4byte	.LVL207
 15490 1158 0100     		.2byte	0x1
 15491 115a 55       		.byte	0x55
 15492 115b 00000000 		.4byte	0
ARM GAS  /tmp/ccqRaZSa.s 			page 273


 15493 115f 00000000 		.4byte	0
 15494              	.LLST114:
 15495 1163 78000000 		.4byte	.LVL206
 15496 1167 8A000000 		.4byte	.LVL208
 15497 116b 0600     		.2byte	0x6
 15498 116d 03       		.byte	0x3
 15499 116e 00000000 		.4byte	USBD1
 15500 1172 9F       		.byte	0x9f
 15501 1173 00000000 		.4byte	0
 15502 1177 00000000 		.4byte	0
 15503              	.LLST119:
 15504 117b 00000000 		.4byte	.LVL217
 15505 117f 2C000000 		.4byte	.LVL221
 15506 1183 0100     		.2byte	0x1
 15507 1185 50       		.byte	0x50
 15508 1186 2C000000 		.4byte	.LVL221
 15509 118a C0000000 		.4byte	.LFE299
 15510 118e 0400     		.2byte	0x4
 15511 1190 F3       		.byte	0xf3
 15512 1191 01       		.uleb128 0x1
 15513 1192 50       		.byte	0x50
 15514 1193 9F       		.byte	0x9f
 15515 1194 00000000 		.4byte	0
 15516 1198 00000000 		.4byte	0
 15517              	.LLST120:
 15518 119c 2A000000 		.4byte	.LVL220
 15519 11a0 34000000 		.4byte	.LVL222
 15520 11a4 0100     		.2byte	0x1
 15521 11a6 53       		.byte	0x53
 15522 11a7 34000000 		.4byte	.LVL222
 15523 11ab 44000000 		.4byte	.LVL223
 15524 11af 0200     		.2byte	0x2
 15525 11b1 71       		.byte	0x71
 15526 11b2 14       		.sleb128 20
 15527 11b3 44000000 		.4byte	.LVL223
 15528 11b7 47000000 		.4byte	.LVL224-1
 15529 11bb 0C00     		.2byte	0xc
 15530 11bd 71       		.byte	0x71
 15531 11be 00       		.sleb128 0
 15532 11bf 32       		.byte	0x32
 15533 11c0 24       		.byte	0x24
 15534 11c1 76       		.byte	0x76
 15535 11c2 00       		.sleb128 0
 15536 11c3 22       		.byte	0x22
 15537 11c4 23       		.byte	0x23
 15538 11c5 0C       		.uleb128 0xc
 15539 11c6 06       		.byte	0x6
 15540 11c7 23       		.byte	0x23
 15541 11c8 14       		.uleb128 0x14
 15542 11c9 80000000 		.4byte	.LVL228
 15543 11cd 8F000000 		.4byte	.LVL229-1
 15544 11d1 0100     		.2byte	0x1
 15545 11d3 53       		.byte	0x53
 15546 11d4 00000000 		.4byte	0
 15547 11d8 00000000 		.4byte	0
 15548              	.LLST121:
 15549 11dc 92000000 		.4byte	.LVL230
ARM GAS  /tmp/ccqRaZSa.s 			page 274


 15550 11e0 B2000000 		.4byte	.LVL231
 15551 11e4 0100     		.2byte	0x1
 15552 11e6 57       		.byte	0x57
 15553 11e7 00000000 		.4byte	0
 15554 11eb 00000000 		.4byte	0
 15555              	.LLST122:
 15556 11ef 92000000 		.4byte	.LVL230
 15557 11f3 B2000000 		.4byte	.LVL231
 15558 11f7 0600     		.2byte	0x6
 15559 11f9 03       		.byte	0x3
 15560 11fa 00000000 		.4byte	USBD1
 15561 11fe 9F       		.byte	0x9f
 15562 11ff 00000000 		.4byte	0
 15563 1203 00000000 		.4byte	0
 15564              	.LLST123:
 15565 1207 70000000 		.4byte	.LVL226
 15566 120b 7A000000 		.4byte	.LVL227
 15567 120f 0200     		.2byte	0x2
 15568 1211 30       		.byte	0x30
 15569 1212 9F       		.byte	0x9f
 15570 1213 00000000 		.4byte	0
 15571 1217 00000000 		.4byte	0
 15572              	.LLST124:
 15573 121b 70000000 		.4byte	.LVL226
 15574 121f 7A000000 		.4byte	.LVL227
 15575 1223 0600     		.2byte	0x6
 15576 1225 03       		.byte	0x3
 15577 1226 60000000 		.4byte	USBD1+96
 15578 122a 9F       		.byte	0x9f
 15579 122b 00000000 		.4byte	0
 15580 122f 00000000 		.4byte	0
 15581              	.LLST131:
 15582 1233 00000000 		.4byte	.LVL260
 15583 1237 06000000 		.4byte	.LVL261
 15584 123b 0100     		.2byte	0x1
 15585 123d 51       		.byte	0x51
 15586 123e 06000000 		.4byte	.LVL261
 15587 1242 14000000 		.4byte	.LFE286
 15588 1246 0400     		.2byte	0x4
 15589 1248 F3       		.byte	0xf3
 15590 1249 01       		.uleb128 0x1
 15591 124a 51       		.byte	0x51
 15592 124b 9F       		.byte	0x9f
 15593 124c 00000000 		.4byte	0
 15594 1250 00000000 		.4byte	0
 15595              	.LLST132:
 15596 1254 00000000 		.4byte	.LVL262
 15597 1258 0E000000 		.4byte	.LVL263
 15598 125c 0100     		.2byte	0x1
 15599 125e 50       		.byte	0x50
 15600 125f 0E000000 		.4byte	.LVL263
 15601 1263 2A000000 		.4byte	.LFE287
 15602 1267 0400     		.2byte	0x4
 15603 1269 F3       		.byte	0xf3
 15604 126a 01       		.uleb128 0x1
 15605 126b 50       		.byte	0x50
 15606 126c 9F       		.byte	0x9f
ARM GAS  /tmp/ccqRaZSa.s 			page 275


 15607 126d 00000000 		.4byte	0
 15608 1271 00000000 		.4byte	0
 15609              	.LLST133:
 15610 1275 00000000 		.4byte	.LVL262
 15611 1279 22000000 		.4byte	.LVL264
 15612 127d 0100     		.2byte	0x1
 15613 127f 51       		.byte	0x51
 15614 1280 22000000 		.4byte	.LVL264
 15615 1284 2A000000 		.4byte	.LFE287
 15616 1288 0400     		.2byte	0x4
 15617 128a F3       		.byte	0xf3
 15618 128b 01       		.uleb128 0x1
 15619 128c 51       		.byte	0x51
 15620 128d 9F       		.byte	0x9f
 15621 128e 00000000 		.4byte	0
 15622 1292 00000000 		.4byte	0
 15623              		.section	.debug_aranges,"",%progbits
 15624 0000 C4000000 		.4byte	0xc4
 15625 0004 0200     		.2byte	0x2
 15626 0006 00000000 		.4byte	.Ldebug_info0
 15627 000a 04       		.byte	0x4
 15628 000b 00       		.byte	0
 15629 000c 0000     		.2byte	0
 15630 000e 0000     		.2byte	0
 15631 0010 00000000 		.4byte	.LFB292
 15632 0014 52030000 		.4byte	.LFE292-.LFB292
 15633 0018 00000000 		.4byte	.LFB274
 15634 001c 44000000 		.4byte	.LFE274-.LFB274
 15635 0020 00000000 		.4byte	.LFB275
 15636 0024 14010000 		.4byte	.LFE275-.LFB275
 15637 0028 00000000 		.4byte	.LFB276
 15638 002c 70000000 		.4byte	.LFE276-.LFB276
 15639 0030 00000000 		.4byte	.LFB277
 15640 0034 BC000000 		.4byte	.LFE277-.LFB277
 15641 0038 00000000 		.4byte	.LFB278
 15642 003c 18000000 		.4byte	.LFE278-.LFB278
 15643 0040 00000000 		.4byte	.LFB279
 15644 0044 64010000 		.4byte	.LFE279-.LFB279
 15645 0048 00000000 		.4byte	.LFB280
 15646 004c 44000000 		.4byte	.LFE280-.LFB280
 15647 0050 00000000 		.4byte	.LFB281
 15648 0054 1A000000 		.4byte	.LFE281-.LFB281
 15649 0058 00000000 		.4byte	.LFB282
 15650 005c 1A000000 		.4byte	.LFE282-.LFB282
 15651 0060 00000000 		.4byte	.LFB283
 15652 0064 12000000 		.4byte	.LFE283-.LFB283
 15653 0068 00000000 		.4byte	.LFB284
 15654 006c 40000000 		.4byte	.LFE284-.LFB284
 15655 0070 00000000 		.4byte	.LFB300
 15656 0074 94000000 		.4byte	.LFE300-.LFB300
 15657 0078 00000000 		.4byte	.LFB285
 15658 007c 4C000000 		.4byte	.LFE285-.LFB285
 15659 0080 00000000 		.4byte	.LFB299
 15660 0084 C0000000 		.4byte	.LFE299-.LFB299
 15661 0088 00000000 		.4byte	.LFB273
 15662 008c F4000000 		.4byte	.LFE273-.LFB273
 15663 0090 00000000 		.4byte	.LFB286
ARM GAS  /tmp/ccqRaZSa.s 			page 276


 15664 0094 14000000 		.4byte	.LFE286-.LFB286
 15665 0098 00000000 		.4byte	.LFB287
 15666 009c 2A000000 		.4byte	.LFE287-.LFB287
 15667 00a0 00000000 		.4byte	.LFB288
 15668 00a4 14000000 		.4byte	.LFE288-.LFB288
 15669 00a8 00000000 		.4byte	.LFB289
 15670 00ac 14000000 		.4byte	.LFE289-.LFB289
 15671 00b0 00000000 		.4byte	.LFB290
 15672 00b4 14000000 		.4byte	.LFE290-.LFB290
 15673 00b8 00000000 		.4byte	.LFB291
 15674 00bc 14000000 		.4byte	.LFE291-.LFB291
 15675 00c0 00000000 		.4byte	0
 15676 00c4 00000000 		.4byte	0
 15677              		.section	.debug_ranges,"",%progbits
 15678              	.Ldebug_ranges0:
 15679 0000 04000000 		.4byte	.LBB432
 15680 0004 0A000000 		.4byte	.LBE432
 15681 0008 0C000000 		.4byte	.LBB435
 15682 000c 0E000000 		.4byte	.LBE435
 15683 0010 00000000 		.4byte	0
 15684 0014 00000000 		.4byte	0
 15685 0018 32000000 		.4byte	.LBB442
 15686 001c 34000000 		.4byte	.LBE442
 15687 0020 3C000000 		.4byte	.LBB445
 15688 0024 40000000 		.4byte	.LBE445
 15689 0028 00000000 		.4byte	0
 15690 002c 00000000 		.4byte	0
 15691 0030 4E000000 		.4byte	.LBB452
 15692 0034 F2000000 		.4byte	.LBE452
 15693 0038 F6000000 		.4byte	.LBB489
 15694 003c F8000000 		.4byte	.LBE489
 15695 0040 FA000000 		.4byte	.LBB490
 15696 0044 FC000000 		.4byte	.LBE490
 15697 0048 20010000 		.4byte	.LBB496
 15698 004c A0010000 		.4byte	.LBE496
 15699 0050 00000000 		.4byte	0
 15700 0054 00000000 		.4byte	0
 15701 0058 70000000 		.4byte	.LBB454
 15702 005c 74000000 		.4byte	.LBE454
 15703 0060 76000000 		.4byte	.LBB460
 15704 0064 A6000000 		.4byte	.LBE460
 15705 0068 00000000 		.4byte	0
 15706 006c 00000000 		.4byte	0
 15707 0070 7E000000 		.4byte	.LBB456
 15708 0074 8C000000 		.4byte	.LBE456
 15709 0078 90000000 		.4byte	.LBB457
 15710 007c 98000000 		.4byte	.LBE457
 15711 0080 9E000000 		.4byte	.LBB458
 15712 0084 A0000000 		.4byte	.LBE458
 15713 0088 00000000 		.4byte	0
 15714 008c 00000000 		.4byte	0
 15715 0090 C2000000 		.4byte	.LBB461
 15716 0094 EE000000 		.4byte	.LBE461
 15717 0098 20010000 		.4byte	.LBB466
 15718 009c 30010000 		.4byte	.LBE466
 15719 00a0 00000000 		.4byte	0
 15720 00a4 00000000 		.4byte	0
ARM GAS  /tmp/ccqRaZSa.s 			page 277


 15721 00a8 DA000000 		.4byte	.LBB463
 15722 00ac EA000000 		.4byte	.LBE463
 15723 00b0 26010000 		.4byte	.LBB464
 15724 00b4 2A010000 		.4byte	.LBE464
 15725 00b8 00000000 		.4byte	0
 15726 00bc 00000000 		.4byte	0
 15727 00c0 BE010000 		.4byte	.LBB509
 15728 00c4 9A020000 		.4byte	.LBE509
 15729 00c8 C0020000 		.4byte	.LBB566
 15730 00cc 26030000 		.4byte	.LBE566
 15731 00d0 00000000 		.4byte	0
 15732 00d4 00000000 		.4byte	0
 15733 00d8 0C020000 		.4byte	.LBB511
 15734 00dc 66020000 		.4byte	.LBE511
 15735 00e0 C0020000 		.4byte	.LBB540
 15736 00e4 F8020000 		.4byte	.LBE540
 15737 00e8 1A030000 		.4byte	.LBB545
 15738 00ec 22030000 		.4byte	.LBE545
 15739 00f0 00000000 		.4byte	0
 15740 00f4 00000000 		.4byte	0
 15741 00f8 12020000 		.4byte	.LBB513
 15742 00fc 4A020000 		.4byte	.LBE513
 15743 0100 C0020000 		.4byte	.LBB536
 15744 0104 F2020000 		.4byte	.LBE536
 15745 0108 1A030000 		.4byte	.LBB537
 15746 010c 22030000 		.4byte	.LBE537
 15747 0110 00000000 		.4byte	0
 15748 0114 00000000 		.4byte	0
 15749 0118 12020000 		.4byte	.LBB514
 15750 011c 14020000 		.4byte	.LBE514
 15751 0120 1A020000 		.4byte	.LBB519
 15752 0124 4A020000 		.4byte	.LBE519
 15753 0128 1A030000 		.4byte	.LBB520
 15754 012c 22030000 		.4byte	.LBE520
 15755 0130 00000000 		.4byte	0
 15756 0134 00000000 		.4byte	0
 15757 0138 2E020000 		.4byte	.LBB515
 15758 013c 40020000 		.4byte	.LBE515
 15759 0140 1A030000 		.4byte	.LBB518
 15760 0144 22030000 		.4byte	.LBE518
 15761 0148 00000000 		.4byte	0
 15762 014c 00000000 		.4byte	0
 15763 0150 9A020000 		.4byte	.LBB547
 15764 0154 9C020000 		.4byte	.LBE547
 15765 0158 26030000 		.4byte	.LBB567
 15766 015c 28030000 		.4byte	.LBE567
 15767 0160 3C030000 		.4byte	.LBB568
 15768 0164 3E030000 		.4byte	.LBE568
 15769 0168 00000000 		.4byte	0
 15770 016c 00000000 		.4byte	0
 15771 0170 0A000000 		.4byte	.LBB569
 15772 0174 0E000000 		.4byte	.LBE569
 15773 0178 16000000 		.4byte	.LBB570
 15774 017c 1C000000 		.4byte	.LBE570
 15775 0180 20000000 		.4byte	.LBB571
 15776 0184 22000000 		.4byte	.LBE571
 15777 0188 26000000 		.4byte	.LBB572
ARM GAS  /tmp/ccqRaZSa.s 			page 278


 15778 018c 32000000 		.4byte	.LBE572
 15779 0190 36000000 		.4byte	.LBB573
 15780 0194 44000000 		.4byte	.LBE573
 15781 0198 00000000 		.4byte	0
 15782 019c 00000000 		.4byte	0
 15783 01a0 2A000000 		.4byte	.LBB584
 15784 01a4 2C000000 		.4byte	.LBE584
 15785 01a8 32000000 		.4byte	.LBB593
 15786 01ac 4C000000 		.4byte	.LBE593
 15787 01b0 00000000 		.4byte	0
 15788 01b4 00000000 		.4byte	0
 15789 01b8 2A000000 		.4byte	.LBB586
 15790 01bc 2C000000 		.4byte	.LBE586
 15791 01c0 32000000 		.4byte	.LBB589
 15792 01c4 36000000 		.4byte	.LBE589
 15793 01c8 00000000 		.4byte	0
 15794 01cc 00000000 		.4byte	0
 15795 01d0 54000000 		.4byte	.LBB594
 15796 01d4 58000000 		.4byte	.LBE594
 15797 01d8 5A000000 		.4byte	.LBB598
 15798 01dc 82000000 		.4byte	.LBE598
 15799 01e0 86000000 		.4byte	.LBB599
 15800 01e4 8E000000 		.4byte	.LBE599
 15801 01e8 00000000 		.4byte	0
 15802 01ec 00000000 		.4byte	0
 15803 01f0 0E000000 		.4byte	.LBB602
 15804 01f4 3A000000 		.4byte	.LBE602
 15805 01f8 3C000000 		.4byte	.LBB606
 15806 01fc 40000000 		.4byte	.LBE606
 15807 0200 42000000 		.4byte	.LBB607
 15808 0204 46000000 		.4byte	.LBE607
 15809 0208 00000000 		.4byte	0
 15810 020c 00000000 		.4byte	0
 15811 0210 04000000 		.4byte	.LBB608
 15812 0214 06000000 		.4byte	.LBE608
 15813 0218 08000000 		.4byte	.LBB613
 15814 021c 18000000 		.4byte	.LBE613
 15815 0220 00000000 		.4byte	0
 15816 0224 00000000 		.4byte	0
 15817 0228 A2000000 		.4byte	.LBB620
 15818 022c A8000000 		.4byte	.LBE620
 15819 0230 AC000000 		.4byte	.LBB623
 15820 0234 AE000000 		.4byte	.LBE623
 15821 0238 00000000 		.4byte	0
 15822 023c 00000000 		.4byte	0
 15823 0240 96000000 		.4byte	.LBB624
 15824 0244 98000000 		.4byte	.LBE624
 15825 0248 A2000000 		.4byte	.LBB628
 15826 024c A6000000 		.4byte	.LBE628
 15827 0250 AA000000 		.4byte	.LBB629
 15828 0254 AE000000 		.4byte	.LBE629
 15829 0258 00000000 		.4byte	0
 15830 025c 00000000 		.4byte	0
 15831 0260 3C000000 		.4byte	.LBB642
 15832 0264 60000000 		.4byte	.LBE642
 15833 0268 64000000 		.4byte	.LBB657
 15834 026c 8C000000 		.4byte	.LBE657
ARM GAS  /tmp/ccqRaZSa.s 			page 279


 15835 0270 00000000 		.4byte	0
 15836 0274 00000000 		.4byte	0
 15837 0278 12000000 		.4byte	.LBB658
 15838 027c 16000000 		.4byte	.LBE658
 15839 0280 1A000000 		.4byte	.LBB659
 15840 0284 2E000000 		.4byte	.LBE659
 15841 0288 30000000 		.4byte	.LBB660
 15842 028c 3A000000 		.4byte	.LBE660
 15843 0290 00000000 		.4byte	0
 15844 0294 00000000 		.4byte	0
 15845 0298 22000000 		.4byte	.LBB661
 15846 029c 48000000 		.4byte	.LBE661
 15847 02a0 80000000 		.4byte	.LBB694
 15848 02a4 C0000000 		.4byte	.LBE694
 15849 02a8 00000000 		.4byte	0
 15850 02ac 00000000 		.4byte	0
 15851 02b0 66000000 		.4byte	.LBB682
 15852 02b4 68000000 		.4byte	.LBE682
 15853 02b8 72000000 		.4byte	.LBB686
 15854 02bc 74000000 		.4byte	.LBE686
 15855 02c0 76000000 		.4byte	.LBB687
 15856 02c4 7A000000 		.4byte	.LBE687
 15857 02c8 00000000 		.4byte	0
 15858 02cc 00000000 		.4byte	0
 15859 02d0 02000000 		.4byte	.LBB711
 15860 02d4 58000000 		.4byte	.LBE711
 15861 02d8 60000000 		.4byte	.LBB732
 15862 02dc 96000000 		.4byte	.LBE732
 15863 02e0 9E000000 		.4byte	.LBB733
 15864 02e4 A4000000 		.4byte	.LBE733
 15865 02e8 AC000000 		.4byte	.LBB734
 15866 02ec F4000000 		.4byte	.LBE734
 15867 02f0 00000000 		.4byte	0
 15868 02f4 00000000 		.4byte	0
 15869 02f8 64000000 		.4byte	.LBB719
 15870 02fc 66000000 		.4byte	.LBE719
 15871 0300 6C000000 		.4byte	.LBB722
 15872 0304 72000000 		.4byte	.LBE722
 15873 0308 00000000 		.4byte	0
 15874 030c 00000000 		.4byte	0
 15875 0310 00000000 		.4byte	.LFB292
 15876 0314 52030000 		.4byte	.LFE292
 15877 0318 00000000 		.4byte	.LFB274
 15878 031c 44000000 		.4byte	.LFE274
 15879 0320 00000000 		.4byte	.LFB275
 15880 0324 14010000 		.4byte	.LFE275
 15881 0328 00000000 		.4byte	.LFB276
 15882 032c 70000000 		.4byte	.LFE276
 15883 0330 00000000 		.4byte	.LFB277
 15884 0334 BC000000 		.4byte	.LFE277
 15885 0338 00000000 		.4byte	.LFB278
 15886 033c 18000000 		.4byte	.LFE278
 15887 0340 00000000 		.4byte	.LFB279
 15888 0344 64010000 		.4byte	.LFE279
 15889 0348 00000000 		.4byte	.LFB280
 15890 034c 44000000 		.4byte	.LFE280
 15891 0350 00000000 		.4byte	.LFB281
ARM GAS  /tmp/ccqRaZSa.s 			page 280


 15892 0354 1A000000 		.4byte	.LFE281
 15893 0358 00000000 		.4byte	.LFB282
 15894 035c 1A000000 		.4byte	.LFE282
 15895 0360 00000000 		.4byte	.LFB283
 15896 0364 12000000 		.4byte	.LFE283
 15897 0368 00000000 		.4byte	.LFB284
 15898 036c 40000000 		.4byte	.LFE284
 15899 0370 00000000 		.4byte	.LFB300
 15900 0374 94000000 		.4byte	.LFE300
 15901 0378 00000000 		.4byte	.LFB285
 15902 037c 4C000000 		.4byte	.LFE285
 15903 0380 00000000 		.4byte	.LFB299
 15904 0384 C0000000 		.4byte	.LFE299
 15905 0388 00000000 		.4byte	.LFB273
 15906 038c F4000000 		.4byte	.LFE273
 15907 0390 00000000 		.4byte	.LFB286
 15908 0394 14000000 		.4byte	.LFE286
 15909 0398 00000000 		.4byte	.LFB287
 15910 039c 2A000000 		.4byte	.LFE287
 15911 03a0 00000000 		.4byte	.LFB288
 15912 03a4 14000000 		.4byte	.LFE288
 15913 03a8 00000000 		.4byte	.LFB289
 15914 03ac 14000000 		.4byte	.LFE289
 15915 03b0 00000000 		.4byte	.LFB290
 15916 03b4 14000000 		.4byte	.LFE290
 15917 03b8 00000000 		.4byte	.LFB291
 15918 03bc 14000000 		.4byte	.LFE291
 15919 03c0 00000000 		.4byte	0
 15920 03c4 00000000 		.4byte	0
 15921              		.section	.debug_line,"",%progbits
 15922              	.Ldebug_line0:
 15923 0000 5F0B0000 		.section	.debug_str,"MS",%progbits,1
 15923      02002A05 
 15923      00000201 
 15923      FB0E0D00 
 15923      01010101 
 15924              	.LASF512:
 15925 0000 5553425F 		.ascii	"USB_STOP\000"
 15925      53544F50 
 15925      00
 15926              	.LASF267:
 15927 0009 706F7274 		.ascii	"port_intctx\000"
 15927      5F696E74 
 15927      63747800 
 15928              	.LASF288:
 15929 0015 63685F70 		.ascii	"ch_ptrsize\000"
 15929      74727369 
 15929      7A6500
 15930              	.LASF467:
 15931 0020 6576656E 		.ascii	"event\000"
 15931      7400
 15932              	.LASF376:
 15933 0026 43414E5F 		.ascii	"CAN_STARTING\000"
 15933      53544152 
 15933      54494E47 
 15933      00
 15934              	.LASF703:
ARM GAS  /tmp/ccqRaZSa.s 			page 281


 15935 0033 5F5F6675 		.ascii	"__func__\000"
 15935      6E635F5F 
 15935      00
 15936              	.LASF137:
 15937 003c 6D73675F 		.ascii	"msg_t\000"
 15937      7400
 15938              	.LASF403:
 15939 0042 4F504D4F 		.ascii	"OPMODE_SMBUS_DEVICE\000"
 15939      44455F53 
 15939      4D425553 
 15939      5F444556 
 15939      49434500 
 15940              	.LASF727:
 15941 0056 706F7274 		.ascii	"port_unlock_from_isr\000"
 15941      5F756E6C 
 15941      6F636B5F 
 15941      66726F6D 
 15941      5F697372 
 15942              	.LASF576:
 15943 006b 44494550 		.ascii	"DIEPTXF0\000"
 15943      54584630 
 15943      00
 15944              	.LASF653:
 15945 0074 55534244 		.ascii	"USBD1\000"
 15945      3100
 15946              	.LASF375:
 15947 007a 43414E5F 		.ascii	"CAN_STOP\000"
 15947      53544F50 
 15947      00
 15948              	.LASF301:
 15949 0083 63665F6F 		.ascii	"cf_off_time\000"
 15949      66665F74 
 15949      696D6500 
 15950              	.LASF192:
 15951 008f 63685F73 		.ascii	"ch_system_t\000"
 15951      79737465 
 15951      6D5F7400 
 15952              	.LASF3:
 15953 009b 5F5F7569 		.ascii	"__uint8_t\000"
 15953      6E74385F 
 15953      7400
 15954              	.LASF274:
 15955 00a5 77747365 		.ascii	"wtsemp\000"
 15955      6D7000
 15956              	.LASF329:
 15957 00ac 5F426F6F 		.ascii	"_Bool\000"
 15957      6C00
 15958              	.LASF421:
 15959 00b2 646D6172 		.ascii	"dmarx\000"
 15959      7800
 15960              	.LASF68:
 15961 00b8 5F6D6273 		.ascii	"_mbstate\000"
 15961      74617465 
 15961      00
 15962              	.LASF47:
 15963 00c1 5F617465 		.ascii	"_atexit\000"
 15963      78697400 
ARM GAS  /tmp/ccqRaZSa.s 			page 282


 15964              	.LASF718:
 15965 00c9 6F73616C 		.ascii	"osalSysUnlock\000"
 15965      53797355 
 15965      6E6C6F63 
 15965      6B00
 15966              	.LASF595:
 15967 00d7 72657376 		.ascii	"resvd700\000"
 15967      64373030 
 15967      00
 15968              	.LASF606:
 15969 00e0 44564255 		.ascii	"DVBUSDIS\000"
 15969      53444953 
 15969      00
 15970              	.LASF415:
 15971 00e9 6572726F 		.ascii	"errors\000"
 15971      727300
 15972              	.LASF485:
 15973 00f0 73706963 		.ascii	"spicallback_t\000"
 15973      616C6C62 
 15973      61636B5F 
 15973      7400
 15974              	.LASF188:
 15975 00fe 76745F73 		.ascii	"vt_systime\000"
 15975      79737469 
 15975      6D6500
 15976              	.LASF510:
 15977 0109 75736265 		.ascii	"usbep_t\000"
 15977      705F7400 
 15978              	.LASF428:
 15979 0111 4943555F 		.ascii	"ICU_ACTIVE\000"
 15979      41435449 
 15979      564500
 15980              	.LASF255:
 15981 011c 5243435F 		.ascii	"RCC_TypeDef\000"
 15981      54797065 
 15981      44656600 
 15982              	.LASF37:
 15983 0128 5F5F746D 		.ascii	"__tm_mon\000"
 15983      5F6D6F6E 
 15983      00
 15984              	.LASF45:
 15985 0131 5F666E74 		.ascii	"_fntypes\000"
 15985      79706573 
 15985      00
 15986              	.LASF283:
 15987 013a 6D5F6E65 		.ascii	"m_next\000"
 15987      787400
 15988              	.LASF364:
 15989 0141 50434461 		.ascii	"PCData\000"
 15989      746100
 15990              	.LASF75:
 15991 0148 5F696E63 		.ascii	"_inc\000"
 15991      00
 15992              	.LASF48:
 15993 014d 5F696E64 		.ascii	"_ind\000"
 15993      00
 15994              	.LASF473:
ARM GAS  /tmp/ccqRaZSa.s 			page 283


 15995 0152 72656164 		.ascii	"read\000"
 15995      00
 15996              	.LASF580:
 15997 0157 47434346 		.ascii	"GCCFG\000"
 15997      4700
 15998              	.LASF440:
 15999 015d 42445452 		.ascii	"BDTR\000"
 15999      00
 16000              	.LASF685:
 16001 0162 6F74675F 		.ascii	"otg_epout_handler\000"
 16001      65706F75 
 16001      745F6861 
 16001      6E646C65 
 16001      7200
 16002              	.LASF413:
 16003 0174 49324343 		.ascii	"I2CConfig\000"
 16003      6F6E6669 
 16003      6700
 16004              	.LASF127:
 16005 017e 75696E74 		.ascii	"uint16_t\000"
 16005      31365F74 
 16005      00
 16006              	.LASF422:
 16007 0187 646D6174 		.ascii	"dmatx\000"
 16007      7800
 16008              	.LASF651:
 16009 018d 736F665F 		.ascii	"sof_cb\000"
 16009      636200
 16010              	.LASF54:
 16011 0194 5F666C61 		.ascii	"_flags\000"
 16011      677300
 16012              	.LASF702:
 16013 019b 6E657874 		.ascii	"next\000"
 16013      00
 16014              	.LASF357:
 16015 01a0 6F737065 		.ascii	"ospeedr\000"
 16015      65647200 
 16016              	.LASF583:
 16017 01a8 44494550 		.ascii	"DIEPTXF\000"
 16017      54584600 
 16018              	.LASF307:
 16019 01b0 656C5F6E 		.ascii	"el_next\000"
 16019      65787400 
 16020              	.LASF495:
 16021 01b8 696E5F70 		.ascii	"in_params\000"
 16021      6172616D 
 16021      7300
 16022              	.LASF85:
 16023 01c2 5F637674 		.ascii	"_cvtlen\000"
 16023      6C656E00 
 16024              	.LASF686:
 16025 01ca 6570696E 		.ascii	"epint\000"
 16025      7400
 16026              	.LASF169:
 16027 01d0 63685F74 		.ascii	"ch_threads_queue\000"
 16027      68726561 
 16027      64735F71 
ARM GAS  /tmp/ccqRaZSa.s 			page 284


 16027      75657565 
 16027      00
 16028              	.LASF679:
 16029 01e1 7573625F 		.ascii	"usb_lld_stop\000"
 16029      6C6C645F 
 16029      73746F70 
 16029      00
 16030              	.LASF89:
 16031 01ee 5F736967 		.ascii	"_sig_func\000"
 16031      5F66756E 
 16031      6300
 16032              	.LASF148:
 16033 01f8 705F6E65 		.ascii	"p_newer\000"
 16033      77657200 
 16034              	.LASF593:
 16035 0200 48505254 		.ascii	"HPRT\000"
 16035      00
 16036              	.LASF547:
 16037 0205 4843494E 		.ascii	"HCINT\000"
 16037      5400
 16038              	.LASF736:
 16039 020b 63685379 		.ascii	"chSysPolledDelayX\000"
 16039      73506F6C 
 16039      6C656444 
 16039      656C6179 
 16039      5800
 16040              	.LASF298:
 16041 021d 63665F6F 		.ascii	"cf_off_flags\000"
 16041      66665F66 
 16041      6C616773 
 16041      00
 16042              	.LASF67:
 16043 022a 5F6C6F63 		.ascii	"_lock\000"
 16043      6B00
 16044              	.LASF63:
 16045 0230 5F6E6275 		.ascii	"_nbuf\000"
 16045      6600
 16046              	.LASF479:
 16047 0236 5350495F 		.ascii	"SPI_STOP\000"
 16047      53544F50 
 16047      00
 16048              	.LASF714:
 16049 023f 6379636C 		.ascii	"cycles\000"
 16049      657300
 16050              	.LASF121:
 16051 0246 5F756E75 		.ascii	"_unused\000"
 16051      73656400 
 16052              	.LASF363:
 16053 024e 50424461 		.ascii	"PBData\000"
 16053      746100
 16054              	.LASF656:
 16055 0255 65703063 		.ascii	"ep0config\000"
 16055      6F6E6669 
 16055      6700
 16056              	.LASF286:
 16057 025f 63685F73 		.ascii	"ch_size\000"
 16057      697A6500 
ARM GAS  /tmp/ccqRaZSa.s 			page 285


 16058              	.LASF589:
 16059 0267 48505458 		.ascii	"HPTXSTS\000"
 16059      53545300 
 16060              	.LASF356:
 16061 026f 6F747970 		.ascii	"otyper\000"
 16061      657200
 16062              	.LASF521:
 16063 0276 75736265 		.ascii	"usbepstatus_t\000"
 16063      70737461 
 16063      7475735F 
 16063      7400
 16064              	.LASF347:
 16065 0284 4F545950 		.ascii	"OTYPER\000"
 16065      455200
 16066              	.LASF483:
 16067 028b 73706973 		.ascii	"spistate_t\000"
 16067      74617465 
 16067      5F7400
 16068              	.LASF545:
 16069 0296 48434348 		.ascii	"HCCHAR\000"
 16069      415200
 16070              	.LASF397:
 16071 029d 4932435F 		.ascii	"I2C_ACTIVE_RX\000"
 16071      41435449 
 16071      56455F52 
 16071      5800
 16072              	.LASF142:
 16073 02ab 74687265 		.ascii	"thread_t\000"
 16073      61645F74 
 16073      00
 16074              	.LASF309:
 16075 02b4 656C5F65 		.ascii	"el_events\000"
 16075      76656E74 
 16075      7300
 16076              	.LASF388:
 16077 02be 736C6565 		.ascii	"sleep_event\000"
 16077      705F6576 
 16077      656E7400 
 16078              	.LASF187:
 16079 02ca 63685F76 		.ascii	"ch_virtual_timers_list\000"
 16079      69727475 
 16079      616C5F74 
 16079      696D6572 
 16079      735F6C69 
 16080              	.LASF342:
 16081 02e1 76656374 		.ascii	"vector\000"
 16081      6F7200
 16082              	.LASF571:
 16083 02e8 47494E54 		.ascii	"GINTSTS\000"
 16083      53545300 
 16084              	.LASF128:
 16085 02f0 696E7433 		.ascii	"int32_t\000"
 16085      325F7400 
 16086              	.LASF411:
 16087 02f8 636C6F63 		.ascii	"clock_speed\000"
 16087      6B5F7370 
 16087      65656400 
ARM GAS  /tmp/ccqRaZSa.s 			page 286


 16088              	.LASF141:
 16089 0304 73797374 		.ascii	"systime_t\000"
 16089      696D655F 
 16089      7400
 16090              	.LASF390:
 16091 030e 43414E44 		.ascii	"CANDriver\000"
 16091      72697665 
 16091      7200
 16092              	.LASF99:
 16093 0318 5F616464 		.ascii	"_add\000"
 16093      00
 16094              	.LASF226:
 16095 031d 4D304152 		.ascii	"M0AR\000"
 16095      00
 16096              	.LASF552:
 16097 0322 72657376 		.ascii	"resvd1c\000"
 16097      64316300 
 16098              	.LASF401:
 16099 032a 69326366 		.ascii	"i2cflags_t\000"
 16099      6C616773 
 16099      5F7400
 16100              	.LASF590:
 16101 0335 4841494E 		.ascii	"HAINT\000"
 16101      5400
 16102              	.LASF520:
 16103 033b 45505F53 		.ascii	"EP_STATUS_ACTIVE\000"
 16103      54415455 
 16103      535F4143 
 16103      54495645 
 16103      00
 16104              	.LASF221:
 16105 034c 46413152 		.ascii	"FA1R\000"
 16105      00
 16106              	.LASF711:
 16107 0351 6F73616C 		.ascii	"osalThreadResumeI\000"
 16107      54687265 
 16107      61645265 
 16107      73756D65 
 16107      4900
 16108              	.LASF737:
 16109 0363 6E766963 		.ascii	"nvicDisableVector\000"
 16109      44697361 
 16109      626C6556 
 16109      6563746F 
 16109      7200
 16110              	.LASF587:
 16111 0375 48464E55 		.ascii	"HFNUM\000"
 16111      4D00
 16112              	.LASF325:
 16113 037b 716E6F74 		.ascii	"qnotify_t\000"
 16113      6966795F 
 16113      7400
 16114              	.LASF239:
 16115 0385 41504231 		.ascii	"APB1RSTR\000"
 16115      52535452 
 16115      00
 16116              	.LASF340:
ARM GAS  /tmp/ccqRaZSa.s 			page 287


 16117 038e 69736869 		.ascii	"ishift\000"
 16117      667400
 16118              	.LASF698:
 16119 0395 6F74675F 		.ascii	"otg_fifo_write_from_buffer\000"
 16119      6669666F 
 16119      5F777269 
 16119      74655F66 
 16119      726F6D5F 
 16120              	.LASF320:
 16121 03b0 715F746F 		.ascii	"q_top\000"
 16121      7000
 16122              	.LASF56:
 16123 03b6 5F6C6266 		.ascii	"_lbfsize\000"
 16123      73697A65 
 16123      00
 16124              	.LASF538:
 16125 03bf 75645F73 		.ascii	"ud_string\000"
 16125      7472696E 
 16125      6700
 16126              	.LASF414:
 16127 03c9 49324344 		.ascii	"I2CDriver\000"
 16127      72697665 
 16127      7200
 16128              	.LASF396:
 16129 03d3 4932435F 		.ascii	"I2C_ACTIVE_TX\000"
 16129      41435449 
 16129      56455F54 
 16129      5800
 16130              	.LASF402:
 16131 03e1 4F504D4F 		.ascii	"OPMODE_I2C\000"
 16131      44455F49 
 16131      324300
 16132              	.LASF599:
 16133 03ec 72657376 		.ascii	"resvd80C\000"
 16133      64383043 
 16133      00
 16134              	.LASF648:
 16135 03f5 6576656E 		.ascii	"event_cb\000"
 16135      745F6362 
 16135      00
 16136              	.LASF566:
 16137 03fe 474F5447 		.ascii	"GOTGCTL\000"
 16137      43544C00 
 16138              	.LASF541:
 16139 0406 75736265 		.ascii	"usbepcallback_t\000"
 16139      7063616C 
 16139      6C626163 
 16139      6B5F7400 
 16140              	.LASF66:
 16141 0416 5F646174 		.ascii	"_data\000"
 16141      6100
 16142              	.LASF195:
 16143 041c 76746C69 		.ascii	"vtlist\000"
 16143      737400
 16144              	.LASF426:
 16145 0423 4943555F 		.ascii	"ICU_READY\000"
 16145      52454144 
ARM GAS  /tmp/ccqRaZSa.s 			page 288


 16145      5900
 16146              	.LASF231:
 16147 042d 54524953 		.ascii	"TRISE\000"
 16147      4500
 16148              	.LASF605:
 16149 0433 72657376 		.ascii	"resvd824\000"
 16149      64383234 
 16149      00
 16150              	.LASF157:
 16151 043c 705F7761 		.ascii	"p_waiting\000"
 16151      6974696E 
 16151      6700
 16152              	.LASF433:
 16153 0446 70636372 		.ascii	"pccrp\000"
 16153      7000
 16154              	.LASF317:
 16155 044c 715F7761 		.ascii	"q_waiting\000"
 16155      6974696E 
 16155      6700
 16156              	.LASF203:
 16157 0456 43414E5F 		.ascii	"CAN_TxMailBox_TypeDef\000"
 16157      54784D61 
 16157      696C426F 
 16157      785F5479 
 16157      70654465 
 16158              	.LASF194:
 16159 046c 726C6973 		.ascii	"rlist\000"
 16159      7400
 16160              	.LASF166:
 16161 0472 74687265 		.ascii	"threads_list_t\000"
 16161      6164735F 
 16161      6C697374 
 16161      5F7400
 16162              	.LASF269:
 16163 0481 746D5F63 		.ascii	"tm_calibration_t\000"
 16163      616C6962 
 16163      72617469 
 16163      6F6E5F74 
 16163      00
 16164              	.LASF326:
 16165 0492 696E7075 		.ascii	"input_queue_t\000"
 16165      745F7175 
 16165      6575655F 
 16165      7400
 16166              	.LASF122:
 16167 04a0 5F5F6C6F 		.ascii	"__lock\000"
 16167      636B00
 16168              	.LASF406:
 16169 04a7 5354445F 		.ascii	"STD_DUTY_CYCLE\000"
 16169      44555459 
 16169      5F435943 
 16169      4C4500
 16170              	.LASF70:
 16171 04b6 5F726565 		.ascii	"_reent\000"
 16171      6E7400
 16172              	.LASF294:
 16173 04bd 63665F6F 		.ascii	"cf_off_older\000"
ARM GAS  /tmp/ccqRaZSa.s 			page 289


 16173      66665F6F 
 16173      6C646572 
 16173      00
 16174              	.LASF633:
 16175 04ca 72787175 		.ascii	"rxqueued\000"
 16175      65756564 
 16175      00
 16176              	.LASF451:
 16177 04d3 69637563 		.ascii	"icuchannel_t\000"
 16177      68616E6E 
 16177      656C5F74 
 16177      00
 16178              	.LASF379:
 16179 04e0 63616E73 		.ascii	"canstate_t\000"
 16179      74617465 
 16179      5F7400
 16180              	.LASF223:
 16181 04eb 7346696C 		.ascii	"sFilterRegister\000"
 16181      74657252 
 16181      65676973 
 16181      74657200 
 16182              	.LASF91:
 16183 04fb 5F5F7366 		.ascii	"__sf\000"
 16183      00
 16184              	.LASF604:
 16185 0500 72657376 		.ascii	"resvd820\000"
 16185      64383230 
 16185      00
 16186              	.LASF51:
 16187 0509 5F626173 		.ascii	"_base\000"
 16187      6500
 16188              	.LASF726:
 16189 050f 63685379 		.ascii	"chSysLock\000"
 16189      734C6F63 
 16189      6B00
 16190              	.LASF410:
 16191 0519 6F705F6D 		.ascii	"op_mode\000"
 16191      6F646500 
 16192              	.LASF108:
 16193 0521 5F6D6274 		.ascii	"_mbtowc_state\000"
 16193      6F77635F 
 16193      73746174 
 16193      6500
 16194              	.LASF657:
 16195 052f 66737061 		.ascii	"fsparams\000"
 16195      72616D73 
 16195      00
 16196              	.LASF716:
 16197 0538 6F73616C 		.ascii	"osalSysUnlockFromISR\000"
 16197      53797355 
 16197      6E6C6F63 
 16197      6B46726F 
 16197      6D495352 
 16198              	.LASF393:
 16199 054d 4932435F 		.ascii	"I2C_UNINIT\000"
 16199      554E494E 
 16199      495400
ARM GAS  /tmp/ccqRaZSa.s 			page 290


 16200              	.LASF462:
 16201 0558 53445F55 		.ascii	"SD_UNINIT\000"
 16201      4E494E49 
 16201      5400
 16202              	.LASF136:
 16203 0562 74707269 		.ascii	"tprio_t\000"
 16203      6F5F7400 
 16204              	.LASF245:
 16205 056a 41504232 		.ascii	"APB2ENR\000"
 16205      454E5200 
 16206              	.LASF608:
 16207 0572 72657376 		.ascii	"resvd830\000"
 16207      64383330 
 16207      00
 16208              	.LASF32:
 16209 057b 5F5F746D 		.ascii	"__tm\000"
 16209      00
 16210              	.LASF610:
 16211 0580 72657376 		.ascii	"resvd838\000"
 16211      64383338 
 16211      00
 16212              	.LASF409:
 16213 0589 69326364 		.ascii	"i2cdutycycle_t\000"
 16213      75747963 
 16213      79636C65 
 16213      5F7400
 16214              	.LASF611:
 16215 0598 72657376 		.ascii	"resvd83C\000"
 16215      64383343 
 16215      00
 16216              	.LASF417:
 16217 05a1 74687265 		.ascii	"thread\000"
 16217      616400
 16218              	.LASF607:
 16219 05a8 44564255 		.ascii	"DVBUSPULSE\000"
 16219      5350554C 
 16219      534500
 16220              	.LASF501:
 16221 05b3 73657475 		.ascii	"setup\000"
 16221      7000
 16222              	.LASF478:
 16223 05b9 5350495F 		.ascii	"SPI_UNINIT\000"
 16223      554E494E 
 16223      495400
 16224              	.LASF559:
 16225 05c4 44545846 		.ascii	"DTXFSTS\000"
 16225      53545300 
 16226              	.LASF395:
 16227 05cc 4932435F 		.ascii	"I2C_READY\000"
 16227      52454144 
 16227      5900
 16228              	.LASF164:
 16229 05d6 6D6F746F 		.ascii	"motor_selected\000"
 16229      725F7365 
 16229      6C656374 
 16229      656400
 16230              	.LASF40:
ARM GAS  /tmp/ccqRaZSa.s 			page 291


 16231 05e5 5F5F746D 		.ascii	"__tm_yday\000"
 16231      5F796461 
 16231      7900
 16232              	.LASF439:
 16233 05ef 43434552 		.ascii	"CCER\000"
 16233      00
 16234              	.LASF260:
 16235 05f4 49325350 		.ascii	"I2SPR\000"
 16235      5200
 16236              	.LASF731:
 16237 05fa 5F5F6469 		.ascii	"__disable_irq\000"
 16237      7361626C 
 16237      655F6972 
 16237      7100
 16238              	.LASF568:
 16239 0608 47414842 		.ascii	"GAHBCFG\000"
 16239      43464700 
 16240              	.LASF15:
 16241 0610 5F4C4F43 		.ascii	"_LOCK_T\000"
 16241      4B5F5400 
 16242              	.LASF612:
 16243 0618 72657376 		.ascii	"resvd840\000"
 16243      64383430 
 16243      00
 16244              	.LASF256:
 16245 0621 43524350 		.ascii	"CRCPR\000"
 16245      5200
 16246              	.LASF683:
 16247 0627 646F6E65 		.ascii	"done\000"
 16247      00
 16248              	.LASF688:
 16249 062c 6F74675F 		.ascii	"otg_rxfifo_handler\000"
 16249      72786669 
 16249      666F5F68 
 16249      616E646C 
 16249      657200
 16250              	.LASF6:
 16251 063f 5F5F7569 		.ascii	"__uint16_t\000"
 16251      6E743136 
 16251      5F7400
 16252              	.LASF627:
 16253 064a 74787175 		.ascii	"txqueued\000"
 16253      65756564 
 16253      00
 16254              	.LASF159:
 16255 0653 705F6D73 		.ascii	"p_msg\000"
 16255      6700
 16256              	.LASF100:
 16257 0659 5F756E75 		.ascii	"_unused_rand\000"
 16257      7365645F 
 16257      72616E64 
 16257      00
 16258              	.LASF574:
 16259 0666 47525853 		.ascii	"GRXSTSP\000"
 16259      54535000 
 16260              	.LASF573:
 16261 066e 47525853 		.ascii	"GRXSTSR\000"
ARM GAS  /tmp/ccqRaZSa.s 			page 292


 16261      54535200 
 16262              	.LASF733:
 16263 0676 63685468 		.ascii	"chThdDequeueAllI\000"
 16263      64446571 
 16263      75657565 
 16263      416C6C49 
 16263      00
 16264              	.LASF227:
 16265 0687 4D314152 		.ascii	"M1AR\000"
 16265      00
 16266              	.LASF508:
 16267 068c 77616974 		.ascii	"wait\000"
 16267      00
 16268              	.LASF228:
 16269 0691 444D415F 		.ascii	"DMA_Stream_TypeDef\000"
 16269      53747265 
 16269      616D5F54 
 16269      79706544 
 16269      656600
 16270              	.LASF744:
 16271 06a4 5F757362 		.ascii	"_usb_reset\000"
 16271      5F726573 
 16271      657400
 16272              	.LASF515:
 16273 06af 5553425F 		.ascii	"USB_ACTIVE\000"
 16273      41435449 
 16273      564500
 16274              	.LASF561:
 16275 06ba 73746D33 		.ascii	"stm32_otg_in_ep_t\000"
 16275      325F6F74 
 16275      675F696E 
 16275      5F65705F 
 16275      7400
 16276              	.LASF635:
 16277 06cc 7278636E 		.ascii	"rxcnt\000"
 16277      7400
 16278              	.LASF419:
 16279 06d2 7278646D 		.ascii	"rxdmamode\000"
 16279      616D6F64 
 16279      6500
 16280              	.LASF82:
 16281 06dc 5F726573 		.ascii	"_result_k\000"
 16281      756C745F 
 16281      6B00
 16282              	.LASF452:
 16283 06e6 6D6F6465 		.ascii	"mode\000"
 16283      00
 16284              	.LASF74:
 16285 06eb 5F737464 		.ascii	"_stderr\000"
 16285      65727200 
 16286              	.LASF81:
 16287 06f3 5F726573 		.ascii	"_result\000"
 16287      756C7400 
 16288              	.LASF445:
 16289 06fb 4943555F 		.ascii	"ICU_INPUT_ACTIVE_HIGH\000"
 16289      494E5055 
 16289      545F4143 
ARM GAS  /tmp/ccqRaZSa.s 			page 293


 16289      54495645 
 16289      5F484947 
 16290              	.LASF44:
 16291 0711 5F64736F 		.ascii	"_dso_handle\000"
 16291      5F68616E 
 16291      646C6500 
 16292              	.LASF488:
 16293 071d 73737061 		.ascii	"sspad\000"
 16293      6400
 16294              	.LASF420:
 16295 0723 7478646D 		.ascii	"txdmamode\000"
 16295      616D6F64 
 16295      6500
 16296              	.LASF39:
 16297 072d 5F5F746D 		.ascii	"__tm_wday\000"
 16297      5F776461 
 16297      7900
 16298              	.LASF41:
 16299 0737 5F5F746D 		.ascii	"__tm_isdst\000"
 16299      5F697364 
 16299      737400
 16300              	.LASF668:
 16301 0742 7573625F 		.ascii	"usb_lld_prepare_transmit\000"
 16301      6C6C645F 
 16301      70726570 
 16301      6172655F 
 16301      7472616E 
 16302              	.LASF305:
 16303 075b 6576656E 		.ascii	"event_listener_t\000"
 16303      745F6C69 
 16303      7374656E 
 16303      65725F74 
 16303      00
 16304              	.LASF265:
 16305 076c 73746B61 		.ascii	"stkalign_t\000"
 16305      6C69676E 
 16305      5F7400
 16306              	.LASF620:
 16307 0777 72785F66 		.ascii	"rx_fifo_size\000"
 16307      69666F5F 
 16307      73697A65 
 16307      00
 16308              	.LASF389:
 16309 0784 77616B65 		.ascii	"wakeup_event\000"
 16309      75705F65 
 16309      76656E74 
 16309      00
 16310              	.LASF182:
 16311 0791 76745F70 		.ascii	"vt_prev\000"
 16311      72657600 
 16312              	.LASF486:
 16313 0799 656E645F 		.ascii	"end_cb\000"
 16313      636200
 16314              	.LASF638:
 16315 07a0 73657475 		.ascii	"setup_cb\000"
 16315      705F6362 
 16315      00
ARM GAS  /tmp/ccqRaZSa.s 			page 294


 16316              	.LASF4:
 16317 07a9 756E7369 		.ascii	"unsigned char\000"
 16317      676E6564 
 16317      20636861 
 16317      7200
 16318              	.LASF73:
 16319 07b7 5F737464 		.ascii	"_stdout\000"
 16319      6F757400 
 16320              	.LASF306:
 16321 07bf 6576656E 		.ascii	"event_listener\000"
 16321      745F6C69 
 16321      7374656E 
 16321      657200
 16322              	.LASF383:
 16323 07ce 74787175 		.ascii	"txqueue\000"
 16323      65756500 
 16324              	.LASF279:
 16325 07d6 735F636E 		.ascii	"s_cnt\000"
 16325      7400
 16326              	.LASF170:
 16327 07dc 72656164 		.ascii	"ready_list_t\000"
 16327      795F6C69 
 16327      73745F74 
 16327      00
 16328              	.LASF143:
 16329 07e9 63685F74 		.ascii	"ch_thread\000"
 16329      68726561 
 16329      6400
 16330              	.LASF404:
 16331 07f3 4F504D4F 		.ascii	"OPMODE_SMBUS_HOST\000"
 16331      44455F53 
 16331      4D425553 
 16331      5F484F53 
 16331      5400
 16332              	.LASF115:
 16333 0805 5F6D6273 		.ascii	"_mbsrtowcs_state\000"
 16333      72746F77 
 16333      63735F73 
 16333      74617465 
 16333      00
 16334              	.LASF655:
 16335 0816 65703073 		.ascii	"ep0setup_buffer\000"
 16335      65747570 
 16335      5F627566 
 16335      66657200 
 16336              	.LASF248:
 16337 0826 41484233 		.ascii	"AHB3LPENR\000"
 16337      4C50454E 
 16337      5200
 16338              	.LASF30:
 16339 0830 5F776473 		.ascii	"_wds\000"
 16339      00
 16340              	.LASF328:
 16341 0835 666C6F61 		.ascii	"float\000"
 16341      7400
 16342              	.LASF378:
 16343 083b 43414E5F 		.ascii	"CAN_SLEEP\000"
ARM GAS  /tmp/ccqRaZSa.s 			page 295


 16343      534C4545 
 16343      5000
 16344              	.LASF334:
 16345 0845 72756E74 		.ascii	"runtime\000"
 16345      696D6500 
 16346              	.LASF52:
 16347 084d 5F73697A 		.ascii	"_size\000"
 16347      6500
 16348              	.LASF189:
 16349 0853 73797374 		.ascii	"system_debug_t\000"
 16349      656D5F64 
 16349      65627567 
 16349      5F7400
 16350              	.LASF436:
 16351 0862 44494552 		.ascii	"DIER\000"
 16351      00
 16352              	.LASF247:
 16353 0867 41484232 		.ascii	"AHB2LPENR\000"
 16353      4C50454E 
 16353      5200
 16354              	.LASF147:
 16355 0871 705F6374 		.ascii	"p_ctx\000"
 16355      7800
 16356              	.LASF185:
 16357 0877 76745F70 		.ascii	"vt_par\000"
 16357      617200
 16358              	.LASF59:
 16359 087e 5F777269 		.ascii	"_write\000"
 16359      746500
 16360              	.LASF258:
 16361 0885 54584352 		.ascii	"TXCRCR\000"
 16361      435200
 16362              	.LASF671:
 16363 088c 7573625F 		.ascii	"usb_lld_read_setup\000"
 16363      6C6C645F 
 16363      72656164 
 16363      5F736574 
 16363      757000
 16364              	.LASF392:
 16365 089f 43414E44 		.ascii	"CAND2\000"
 16365      3200
 16366              	.LASF408:
 16367 08a5 46415354 		.ascii	"FAST_DUTY_CYCLE_16_9\000"
 16367      5F445554 
 16367      595F4359 
 16367      434C455F 
 16367      31365F39 
 16368              	.LASF696:
 16369 08ba 6F74675F 		.ascii	"otg_do_pop\000"
 16369      646F5F70 
 16369      6F7000
 16370              	.LASF667:
 16371 08c5 7573625F 		.ascii	"usb_lld_start_out\000"
 16371      6C6C645F 
 16371      73746172 
 16371      745F6F75 
 16371      7400
ARM GAS  /tmp/ccqRaZSa.s 			page 296


 16372              	.LASF456:
 16373 08d7 6F766572 		.ascii	"overflow_cb\000"
 16373      666C6F77 
 16373      5F636200 
 16374              	.LASF130:
 16375 08e3 75696E74 		.ascii	"uint64_t\000"
 16375      36345F74 
 16375      00
 16376              	.LASF303:
 16377 08ec 63685F64 		.ascii	"ch_debug\000"
 16377      65627567 
 16377      00
 16378              	.LASF215:
 16379 08f5 464D3152 		.ascii	"FM1R\000"
 16379      00
 16380              	.LASF371:
 16381 08fa 50414C43 		.ascii	"PALConfig\000"
 16381      6F6E6669 
 16381      6700
 16382              	.LASF542:
 16383 0904 75736265 		.ascii	"usbeventcb_t\000"
 16383      76656E74 
 16383      63625F74 
 16383      00
 16384              	.LASF38:
 16385 0911 5F5F746D 		.ascii	"__tm_year\000"
 16385      5F796561 
 16385      7200
 16386              	.LASF747:
 16387 091b 43686962 		.ascii	"ChibiOS_3.0.5/os/hal/ports/STM32/LLD/OTGv1/usb_lld."
 16387      694F535F 
 16387      332E302E 
 16387      352F6F73 
 16387      2F68616C 
 16388 094e 6300     		.ascii	"c\000"
 16389              	.LASF621:
 16390 0950 6F74675F 		.ascii	"otg_ram_size\000"
 16390      72616D5F 
 16390      73697A65 
 16390      00
 16391              	.LASF709:
 16392 095d 6F74675F 		.ascii	"otg_core_reset\000"
 16392      636F7265 
 16392      5F726573 
 16392      657400
 16393              	.LASF623:
 16394 096c 73746D33 		.ascii	"stm32_otg_params_t\000"
 16394      325F6F74 
 16394      675F7061 
 16394      72616D73 
 16394      5F7400
 16395              	.LASF615:
 16396 097f 72657376 		.ascii	"resvdD00\000"
 16396      64443030 
 16396      00
 16397              	.LASF257:
 16398 0988 52584352 		.ascii	"RXCRCR\000"
ARM GAS  /tmp/ccqRaZSa.s 			page 297


 16398      435200
 16399              	.LASF632:
 16400 098f 72786275 		.ascii	"rxbuf\000"
 16400      6600
 16401              	.LASF98:
 16402 0995 5F6D756C 		.ascii	"_mult\000"
 16402      7400
 16403              	.LASF280:
 16404 099b 63685F6D 		.ascii	"ch_mutex\000"
 16404      75746578 
 16404      00
 16405              	.LASF706:
 16406 09a4 6669666F 		.ascii	"fifo\000"
 16406      00
 16407              	.LASF386:
 16408 09a9 7478656D 		.ascii	"txempty_event\000"
 16408      7074795F 
 16408      6576656E 
 16408      7400
 16409              	.LASF237:
 16410 09b7 41484232 		.ascii	"AHB2RSTR\000"
 16410      52535452 
 16410      00
 16411              	.LASF368:
 16412 09c0 50474461 		.ascii	"PGData\000"
 16412      746100
 16413              	.LASF746:
 16414 09c7 474E5520 		.ascii	"GNU C99 7.3.1 20180622 (release) [ARM/embedded-7-br"
 16414      43393920 
 16414      372E332E 
 16414      31203230 
 16414      31383036 
 16415 09fa 616E6368 		.ascii	"anch revision 261907] -mcpu=cortex-m4 -mfloat-abi=h"
 16415      20726576 
 16415      6973696F 
 16415      6E203236 
 16415      31393037 
 16416 0a2d 61726420 		.ascii	"ard -mfpu=fpv4-sp-d16 -mno-thumb-interwork -mthumb "
 16416      2D6D6670 
 16416      753D6670 
 16416      76342D73 
 16416      702D6431 
 16417 0a60 2D676764 		.ascii	"-ggdb -O2 -std=gnu99 -fomit-frame-pointer -falign-f"
 16417      62202D4F 
 16417      32202D73 
 16417      74643D67 
 16417      6E753939 
 16418 0a93 756E6374 		.ascii	"unctions=16 -ffunction-sections -fdata-sections -fn"
 16418      696F6E73 
 16418      3D313620 
 16418      2D666675 
 16418      6E637469 
 16419 0ac6 6F2D636F 		.ascii	"o-common -fsingle-precision-constant\000"
 16419      6D6D6F6E 
 16419      202D6673 
 16419      696E676C 
 16419      652D7072 
ARM GAS  /tmp/ccqRaZSa.s 			page 298


 16420              	.LASF113:
 16421 0aeb 5F6D6272 		.ascii	"_mbrlen_state\000"
 16421      6C656E5F 
 16421      73746174 
 16421      6500
 16422              	.LASF293:
 16423 0af9 63665F6F 		.ascii	"cf_off_newer\000"
 16423      66665F6E 
 16423      65776572 
 16423      00
 16424              	.LASF600:
 16425 0b06 44494550 		.ascii	"DIEPMSK\000"
 16425      4D534B00 
 16426              	.LASF567:
 16427 0b0e 474F5447 		.ascii	"GOTGINT\000"
 16427      494E5400 
 16428              	.LASF640:
 16429 0b16 6F75745F 		.ascii	"out_cb\000"
 16429      636200
 16430              	.LASF591:
 16431 0b1d 4841494E 		.ascii	"HAINTMSK\000"
 16431      544D534B 
 16431      00
 16432              	.LASF496:
 16433 0b26 6F75745F 		.ascii	"out_params\000"
 16433      70617261 
 16433      6D7300
 16434              	.LASF662:
 16435 0b31 7573625F 		.ascii	"usb_lld_clear_in\000"
 16435      6C6C645F 
 16435      636C6561 
 16435      725F696E 
 16435      00
 16436              	.LASF72:
 16437 0b42 5F737464 		.ascii	"_stdin\000"
 16437      696E00
 16438              	.LASF120:
 16439 0b49 5F6E6D61 		.ascii	"_nmalloc\000"
 16439      6C6C6F63 
 16439      00
 16440              	.LASF458:
 16441 0b52 64696572 		.ascii	"dier\000"
 16441      00
 16442              	.LASF588:
 16443 0b57 72657376 		.ascii	"resvd40C\000"
 16443      64343043 
 16443      00
 16444              	.LASF179:
 16445 0b60 76697274 		.ascii	"virtual_timer_t\000"
 16445      75616C5F 
 16445      74696D65 
 16445      725F7400 
 16446              	.LASF174:
 16447 0b70 725F6374 		.ascii	"r_ctx\000"
 16447      7800
 16448              	.LASF181:
 16449 0b76 76745F6E 		.ascii	"vt_next\000"
ARM GAS  /tmp/ccqRaZSa.s 			page 299


 16449      65787400 
 16450              	.LASF131:
 16451 0b7e 7274636E 		.ascii	"rtcnt_t\000"
 16451      745F7400 
 16452              	.LASF416:
 16453 0b86 6D757465 		.ascii	"mutex\000"
 16453      7800
 16454              	.LASF701:
 16455 0b8c 73697A65 		.ascii	"size\000"
 16455      00
 16456              	.LASF507:
 16457 0b91 74787065 		.ascii	"txpending\000"
 16457      6E64696E 
 16457      6700
 16458              	.LASF431:
 16459 0b9b 636C6F63 		.ascii	"clock\000"
 16459      6B00
 16460              	.LASF345:
 16461 0ba1 636C6561 		.ascii	"clear\000"
 16461      7200
 16462              	.LASF443:
 16463 0ba7 43435852 		.ascii	"CCXR\000"
 16463      00
 16464              	.LASF224:
 16465 0bac 43414E5F 		.ascii	"CAN_TypeDef\000"
 16465      54797065 
 16465      44656600 
 16466              	.LASF16:
 16467 0bb8 5F6F6666 		.ascii	"_off_t\000"
 16467      5F7400
 16468              	.LASF555:
 16469 0bbf 72657376 		.ascii	"resvd4\000"
 16469      643400
 16470              	.LASF463:
 16471 0bc6 53445F53 		.ascii	"SD_STOP\000"
 16471      544F5000 
 16472              	.LASF546:
 16473 0bce 72657376 		.ascii	"resvd8\000"
 16473      643800
 16474              	.LASF2:
 16475 0bd5 73697A65 		.ascii	"size_t\000"
 16475      5F7400
 16476              	.LASF103:
 16477 0bdc 5F6C6F63 		.ascii	"_localtime_buf\000"
 16477      616C7469 
 16477      6D655F62 
 16477      756600
 16478              	.LASF613:
 16479 0beb 72657376 		.ascii	"resvd880\000"
 16479      64383830 
 16479      00
 16480              	.LASF21:
 16481 0bf4 5F5F636F 		.ascii	"__count\000"
 16481      756E7400 
 16482              	.LASF126:
 16483 0bfc 75696E74 		.ascii	"uint8_t\000"
 16483      385F7400 
ARM GAS  /tmp/ccqRaZSa.s 			page 300


 16484              	.LASF666:
 16485 0c04 7573625F 		.ascii	"usb_lld_start_in\000"
 16485      6C6C645F 
 16485      73746172 
 16485      745F696E 
 16485      00
 16486              	.LASF550:
 16487 0c15 72657376 		.ascii	"resvd14\000"
 16487      64313400 
 16488              	.LASF374:
 16489 0c1d 43414E5F 		.ascii	"CAN_UNINIT\000"
 16489      554E494E 
 16489      495400
 16490              	.LASF551:
 16491 0c28 72657376 		.ascii	"resvd18\000"
 16491      64313800 
 16492              	.LASF176:
 16493 0c30 725F6F6C 		.ascii	"r_older\000"
 16493      64657200 
 16494              	.LASF145:
 16495 0c38 705F7072 		.ascii	"p_prev\000"
 16495      657600
 16496              	.LASF295:
 16497 0c3f 63665F6F 		.ascii	"cf_off_name\000"
 16497      66665F6E 
 16497      616D6500 
 16498              	.LASF609:
 16499 0c4b 44494550 		.ascii	"DIEPEMPMSK\000"
 16499      454D504D 
 16499      534B00
 16500              	.LASF519:
 16501 0c56 45505F53 		.ascii	"EP_STATUS_STALLED\000"
 16501      54415455 
 16501      535F5354 
 16501      414C4C45 
 16501      4400
 16502              	.LASF554:
 16503 0c68 44494550 		.ascii	"DIEPCTL\000"
 16503      43544C00 
 16504              	.LASF311:
 16505 0c70 656C5F77 		.ascii	"el_wflags\000"
 16505      666C6167 
 16505      7300
 16506              	.LASF505:
 16507 0c7a 6F746770 		.ascii	"otgparams\000"
 16507      6172616D 
 16507      7300
 16508              	.LASF271:
 16509 0c84 65786974 		.ascii	"exitcode\000"
 16509      636F6465 
 16509      00
 16510              	.LASF365:
 16511 0c8d 50444461 		.ascii	"PDData\000"
 16511      746100
 16512              	.LASF677:
 16513 0c94 7573625F 		.ascii	"usb_lld_set_address\000"
 16513      6C6C645F 
ARM GAS  /tmp/ccqRaZSa.s 			page 301


 16513      7365745F 
 16513      61646472 
 16513      65737300 
 16514              	.LASF695:
 16515 0ca8 6F74675F 		.ascii	"otg_txfifo_handler\000"
 16515      74786669 
 16515      666F5F68 
 16515      616E646C 
 16515      657200
 16516              	.LASF86:
 16517 0cbb 5F637674 		.ascii	"_cvtbuf\000"
 16517      62756600 
 16518              	.LASF644:
 16519 0cc3 6F75745F 		.ascii	"out_state\000"
 16519      73746174 
 16519      6500
 16520              	.LASF315:
 16521 0ccd 696F5F71 		.ascii	"io_queue_t\000"
 16521      75657565 
 16521      5F7400
 16522              	.LASF680:
 16523 0cd8 7573625F 		.ascii	"usb_lld_start\000"
 16523      6C6C645F 
 16523      73746172 
 16523      7400
 16524              	.LASF394:
 16525 0ce6 4932435F 		.ascii	"I2C_STOP\000"
 16525      53544F50 
 16525      00
 16526              	.LASF418:
 16527 0cef 61646472 		.ascii	"addr\000"
 16527      00
 16528              	.LASF712:
 16529 0cf4 6F73616C 		.ascii	"osalThreadSuspendS\000"
 16529      54687265 
 16529      61645375 
 16529      7370656E 
 16529      645300
 16530              	.LASF209:
 16531 0d07 52463052 		.ascii	"RF0R\000"
 16531      00
 16532              	.LASF722:
 16533 0d0c 63685468 		.ascii	"chThdStartI\000"
 16533      64537461 
 16533      72744900 
 16534              	.LASF337:
 16535 0d18 675F6261 		.ascii	"g_backup\000"
 16535      636B7570 
 16535      00
 16536              	.LASF387:
 16537 0d21 6572726F 		.ascii	"error_event\000"
 16537      725F6576 
 16537      656E7400 
 16538              	.LASF262:
 16539 0d2d 47545052 		.ascii	"GTPR\000"
 16539      00
 16540              	.LASF348:
ARM GAS  /tmp/ccqRaZSa.s 			page 302


 16541 0d32 4F535045 		.ascii	"OSPEEDR\000"
 16541      45445200 
 16542              	.LASF578:
 16543 0d3a 72657376 		.ascii	"resvd30\000"
 16543      64333000 
 16544              	.LASF20:
 16545 0d42 5F5F7763 		.ascii	"__wchb\000"
 16545      686200
 16546              	.LASF114:
 16547 0d49 5F6D6272 		.ascii	"_mbrtowc_state\000"
 16547      746F7763 
 16547      5F737461 
 16547      746500
 16548              	.LASF460:
 16549 0d58 49435544 		.ascii	"ICUD4\000"
 16549      3400
 16550              	.LASF700:
 16551 0d5e 6F74675F 		.ascii	"otg_ram_alloc\000"
 16551      72616D5F 
 16551      616C6C6F 
 16551      6300
 16552              	.LASF35:
 16553 0d6c 5F5F746D 		.ascii	"__tm_hour\000"
 16553      5F686F75 
 16553      7200
 16554              	.LASF461:
 16555 0d76 49435544 		.ascii	"ICUD9\000"
 16555      3900
 16556              	.LASF471:
 16557 0d7c 53657269 		.ascii	"SerialDriverVMT\000"
 16557      616C4472 
 16557      69766572 
 16557      564D5400 
 16558              	.LASF528:
 16559 0d8c 5553425F 		.ascii	"USB_EP0_ERROR\000"
 16559      4550305F 
 16559      4552524F 
 16559      5200
 16560              	.LASF332:
 16561 0d9a 6F646F6D 		.ascii	"odometer\000"
 16561      65746572 
 16561      00
 16562              	.LASF18:
 16563 0da3 77696E74 		.ascii	"wint_t\000"
 16563      5F7400
 16564              	.LASF87:
 16565 0daa 5F6E6577 		.ascii	"_new\000"
 16565      00
 16566              	.LASF617:
 16567 0daf 72657376 		.ascii	"resvdE04\000"
 16567      64453034 
 16567      00
 16568              	.LASF622:
 16569 0db8 6E756D5F 		.ascii	"num_endpoints\000"
 16569      656E6470 
 16569      6F696E74 
 16569      7300
ARM GAS  /tmp/ccqRaZSa.s 			page 303


 16570              	.LASF630:
 16571 0dc6 746F7473 		.ascii	"totsize\000"
 16571      697A6500 
 16572              	.LASF94:
 16573 0dce 5F6E696F 		.ascii	"_niobs\000"
 16573      627300
 16574              	.LASF296:
 16575 0dd5 63665F6F 		.ascii	"cf_off_stklimit\000"
 16575      66665F73 
 16575      746B6C69 
 16575      6D697400 
 16576              	.LASF544:
 16577 0de5 75736267 		.ascii	"usbgetdescriptor_t\000"
 16577      65746465 
 16577      73637269 
 16577      70746F72 
 16577      5F7400
 16578              	.LASF177:
 16579 0df8 725F6375 		.ascii	"r_current\000"
 16579      7272656E 
 16579      7400
 16580              	.LASF71:
 16581 0e02 5F657272 		.ascii	"_errno\000"
 16581      6E6F00
 16582              	.LASF523:
 16583 0e09 5553425F 		.ascii	"USB_EP0_TX\000"
 16583      4550305F 
 16583      545800
 16584              	.LASF497:
 16585 0e14 65703073 		.ascii	"ep0state\000"
 16585      74617465 
 16585      00
 16586              	.LASF36:
 16587 0e1d 5F5F746D 		.ascii	"__tm_mday\000"
 16587      5F6D6461 
 16587      7900
 16588              	.LASF339:
 16589 0e27 69666372 		.ascii	"ifcr\000"
 16589      00
 16590              	.LASF682:
 16591 0e2c 56656374 		.ascii	"Vector14C\000"
 16591      6F723134 
 16591      4300
 16592              	.LASF642:
 16593 0e36 6F75745F 		.ascii	"out_maxsize\000"
 16593      6D617873 
 16593      697A6500 
 16594              	.LASF354:
 16595 0e42 73746D33 		.ascii	"stm32_gpio_t\000"
 16595      325F6770 
 16595      696F5F74 
 16595      00
 16596              	.LASF270:
 16597 0e4f 7264796D 		.ascii	"rdymsg\000"
 16597      736700
 16598              	.LASF43:
 16599 0e56 5F666E61 		.ascii	"_fnargs\000"
ARM GAS  /tmp/ccqRaZSa.s 			page 304


 16599      72677300 
 16600              	.LASF200:
 16601 0e5e 54445452 		.ascii	"TDTR\000"
 16601      00
 16602              	.LASF745:
 16603 0e63 5F706F72 		.ascii	"_port_irq_epilogue\000"
 16603      745F6972 
 16603      715F6570 
 16603      696C6F67 
 16603      756500
 16604              	.LASF208:
 16605 0e76 43414E5F 		.ascii	"CAN_FilterRegister_TypeDef\000"
 16605      46696C74 
 16605      65725265 
 16605      67697374 
 16605      65725F54 
 16606              	.LASF581:
 16607 0e91 72657376 		.ascii	"resvd58\000"
 16607      64353800 
 16608              	.LASF631:
 16609 0e99 55534249 		.ascii	"USBInEndpointState\000"
 16609      6E456E64 
 16609      706F696E 
 16609      74537461 
 16609      746500
 16610              	.LASF146:
 16611 0eac 705F7072 		.ascii	"p_prio\000"
 16611      696F00
 16612              	.LASF316:
 16613 0eb3 696F5F71 		.ascii	"io_queue\000"
 16613      75657565 
 16613      00
 16614              	.LASF362:
 16615 0ebc 50414461 		.ascii	"PAData\000"
 16615      746100
 16616              	.LASF13:
 16617 0ec3 5F5F7569 		.ascii	"__uint64_t\000"
 16617      6E743634 
 16617      5F7400
 16618              	.LASF664:
 16619 0ece 7573625F 		.ascii	"usb_lld_stall_in\000"
 16619      6C6C645F 
 16619      7374616C 
 16619      6C5F696E 
 16619      00
 16620              	.LASF27:
 16621 0edf 5F6E6578 		.ascii	"_next\000"
 16621      7400
 16622              	.LASF527:
 16623 0ee5 5553425F 		.ascii	"USB_EP0_SENDING_STS\000"
 16623      4550305F 
 16623      53454E44 
 16623      494E475F 
 16623      53545300 
 16624              	.LASF111:
 16625 0ef9 5F736967 		.ascii	"_signal_buf\000"
 16625      6E616C5F 
ARM GAS  /tmp/ccqRaZSa.s 			page 305


 16625      62756600 
 16626              	.LASF455:
 16627 0f05 70657269 		.ascii	"period_cb\000"
 16627      6F645F63 
 16627      6200
 16628              	.LASF399:
 16629 0f0f 69326373 		.ascii	"i2cstate_t\000"
 16629      74617465 
 16629      5F7400
 16630              	.LASF57:
 16631 0f1a 5F636F6F 		.ascii	"_cookie\000"
 16631      6B696500 
 16632              	.LASF710:
 16633 0f22 6F73616C 		.ascii	"osalThreadDequeueAllI\000"
 16633      54687265 
 16633      61644465 
 16633      71756575 
 16633      65416C6C 
 16634              	.LASF529:
 16635 0f38 75736265 		.ascii	"usbep0state_t\000"
 16635      70307374 
 16635      6174655F 
 16635      7400
 16636              	.LASF212:
 16637 0f46 7354784D 		.ascii	"sTxMailBox\000"
 16637      61696C42 
 16637      6F7800
 16638              	.LASF481:
 16639 0f51 5350495F 		.ascii	"SPI_ACTIVE\000"
 16639      41435449 
 16639      564500
 16640              	.LASF319:
 16641 0f5c 715F6275 		.ascii	"q_buffer\000"
 16641      66666572 
 16641      00
 16642              	.LASF240:
 16643 0f65 41504232 		.ascii	"APB2RSTR\000"
 16643      52535452 
 16643      00
 16644              	.LASF144:
 16645 0f6e 705F6E65 		.ascii	"p_next\000"
 16645      787400
 16646              	.LASF423:
 16647 0f75 49324344 		.ascii	"I2CD2\000"
 16647      3200
 16648              	.LASF492:
 16649 0f7b 55534244 		.ascii	"USBDriver\000"
 16649      72697665 
 16649      7200
 16650              	.LASF614:
 16651 0f85 72657376 		.ascii	"resvd8C0\000"
 16651      64384330 
 16651      00
 16652              	.LASF652:
 16653 0f8e 55534243 		.ascii	"USBConfig\000"
 16653      6F6E6669 
 16653      6700
ARM GAS  /tmp/ccqRaZSa.s 			page 306


 16654              	.LASF557:
 16655 0f98 72657376 		.ascii	"resvdC\000"
 16655      644300
 16656              	.LASF457:
 16657 0f9f 6368616E 		.ascii	"channel\000"
 16657      6E656C00 
 16658              	.LASF249:
 16659 0fa7 41504231 		.ascii	"APB1LPENR\000"
 16659      4C50454E 
 16659      5200
 16660              	.LASF469:
 16661 0fb1 6F717565 		.ascii	"oqueue\000"
 16661      756500
 16662              	.LASF134:
 16663 0fb8 74726566 		.ascii	"trefs_t\000"
 16663      735F7400 
 16664              	.LASF163:
 16665 0fc0 705F6D70 		.ascii	"p_mpool\000"
 16665      6F6F6C00 
 16666              	.LASF233:
 16667 0fc8 4932435F 		.ascii	"I2C_TypeDef\000"
 16667      54797065 
 16667      44656600 
 16668              	.LASF705:
 16669 0fd4 6F74675F 		.ascii	"otg_txfifo_flush\000"
 16669      74786669 
 16669      666F5F66 
 16669      6C757368 
 16669      00
 16670              	.LASF33:
 16671 0fe5 5F5F746D 		.ascii	"__tm_sec\000"
 16671      5F736563 
 16671      00
 16672              	.LASF645:
 16673 0fee 696E5F6D 		.ascii	"in_multiplier\000"
 16673      756C7469 
 16673      706C6965 
 16673      7200
 16674              	.LASF42:
 16675 0ffc 5F6F6E5F 		.ascii	"_on_exit_args\000"
 16675      65786974 
 16675      5F617267 
 16675      7300
 16676              	.LASF266:
 16677 100a 636F6E74 		.ascii	"context\000"
 16677      65787400 
 16678              	.LASF132:
 16679 1012 746D6F64 		.ascii	"tmode_t\000"
 16679      655F7400 
 16680              	.LASF741:
 16681 101a 5F746872 		.ascii	"_thread_memfill\000"
 16681      6561645F 
 16681      6D656D66 
 16681      696C6C00 
 16682              	.LASF243:
 16683 102a 41484233 		.ascii	"AHB3ENR\000"
 16683      454E5200 
ARM GAS  /tmp/ccqRaZSa.s 			page 307


 16684              	.LASF598:
 16685 1032 44535453 		.ascii	"DSTS\000"
 16685      00
 16686              	.LASF350:
 16687 1037 42535252 		.ascii	"BSRR\000"
 16687      00
 16688              	.LASF343:
 16689 103c 73746D33 		.ascii	"stm32_dma_stream_t\000"
 16689      325F646D 
 16689      615F7374 
 16689      7265616D 
 16689      5F7400
 16690              	.LASF650:
 16691 104f 72657175 		.ascii	"requests_hook_cb\000"
 16691      65737473 
 16691      5F686F6F 
 16691      6B5F6362 
 16691      00
 16692              	.LASF116:
 16693 1060 5F776372 		.ascii	"_wcrtomb_state\000"
 16693      746F6D62 
 16693      5F737461 
 16693      746500
 16694              	.LASF628:
 16695 106f 74787369 		.ascii	"txsize\000"
 16695      7A6500
 16696              	.LASF281:
 16697 1076 6D5F7175 		.ascii	"m_queue\000"
 16697      65756500 
 16698              	.LASF398:
 16699 107e 4932435F 		.ascii	"I2C_LOCKED\000"
 16699      4C4F434B 
 16699      454400
 16700              	.LASF454:
 16701 1089 77696474 		.ascii	"width_cb\000"
 16701      685F6362 
 16701      00
 16702              	.LASF513:
 16703 1092 5553425F 		.ascii	"USB_READY\000"
 16703      52454144 
 16703      5900
 16704              	.LASF477:
 16705 109c 72656164 		.ascii	"readt\000"
 16705      7400
 16706              	.LASF570:
 16707 10a2 47525354 		.ascii	"GRSTCTL\000"
 16707      43544C00 
 16708              	.LASF26:
 16709 10aa 5F5F554C 		.ascii	"__ULong\000"
 16709      6F6E6700 
 16710              	.LASF191:
 16711 10b2 70616E69 		.ascii	"panic_msg\000"
 16711      635F6D73 
 16711      6700
 16712              	.LASF482:
 16713 10bc 5350495F 		.ascii	"SPI_COMPLETE\000"
 16713      434F4D50 
ARM GAS  /tmp/ccqRaZSa.s 			page 308


 16713      4C455445 
 16713      00
 16714              	.LASF175:
 16715 10c9 725F6E65 		.ascii	"r_newer\000"
 16715      77657200 
 16716              	.LASF535:
 16717 10d1 5553425F 		.ascii	"USB_EVENT_STALLED\000"
 16717      4556454E 
 16717      545F5354 
 16717      414C4C45 
 16717      4400
 16718              	.LASF735:
 16719 10e3 63685468 		.ascii	"chThdSuspendS\000"
 16719      64537573 
 16719      70656E64 
 16719      5300
 16720              	.LASF241:
 16721 10f1 41484231 		.ascii	"AHB1ENR\000"
 16721      454E5200 
 16722              	.LASF302:
 16723 10f9 63686465 		.ascii	"chdebug_t\000"
 16723      6275675F 
 16723      7400
 16724              	.LASF728:
 16725 1103 706F7274 		.ascii	"port_lock_from_isr\000"
 16725      5F6C6F63 
 16725      6B5F6672 
 16725      6F6D5F69 
 16725      737200
 16726              	.LASF634:
 16727 1116 72787369 		.ascii	"rxsize\000"
 16727      7A6500
 16728              	.LASF674:
 16729 111d 7573625F 		.ascii	"usb_lld_disable_endpoints\000"
 16729      6C6C645F 
 16729      64697361 
 16729      626C655F 
 16729      656E6470 
 16730              	.LASF427:
 16731 1137 4943555F 		.ascii	"ICU_WAITING\000"
 16731      57414954 
 16731      494E4700 
 16732              	.LASF549:
 16733 1143 48435453 		.ascii	"HCTSIZ\000"
 16733      495A00
 16734              	.LASF532:
 16735 114a 5553425F 		.ascii	"USB_EVENT_CONFIGURED\000"
 16735      4556454E 
 16735      545F434F 
 16735      4E464947 
 16735      55524544 
 16736              	.LASF474:
 16737 115f 70757474 		.ascii	"putt\000"
 16737      00
 16738              	.LASF135:
 16739 1164 74736C69 		.ascii	"tslices_t\000"
 16739      6365735F 
ARM GAS  /tmp/ccqRaZSa.s 			page 309


 16739      7400
 16740              	.LASF101:
 16741 116e 5F737472 		.ascii	"_strtok_last\000"
 16741      746F6B5F 
 16741      6C617374 
 16741      00
 16742              	.LASF289:
 16743 117b 63685F74 		.ascii	"ch_timesize\000"
 16743      696D6573 
 16743      697A6500 
 16744              	.LASF678:
 16745 1187 7573625F 		.ascii	"usb_lld_reset\000"
 16745      6C6C645F 
 16745      72657365 
 16745      7400
 16746              	.LASF235:
 16747 1195 43464752 		.ascii	"CFGR\000"
 16747      00
 16748              	.LASF509:
 16749 119a 77615F70 		.ascii	"wa_pump\000"
 16749      756D7000 
 16750              	.LASF314:
 16751 11a2 6576656E 		.ascii	"event_source_t\000"
 16751      745F736F 
 16751      75726365 
 16751      5F7400
 16752              	.LASF584:
 16753 11b1 72657376 		.ascii	"resvd140\000"
 16753      64313430 
 16753      00
 16754              	.LASF183:
 16755 11ba 76745F64 		.ascii	"vt_delta\000"
 16755      656C7461 
 16755      00
 16756              	.LASF672:
 16757 11c3 7573625F 		.ascii	"usb_lld_get_status_in\000"
 16757      6C6C645F 
 16757      6765745F 
 16757      73746174 
 16757      75735F69 
 16758              	.LASF97:
 16759 11d9 5F736565 		.ascii	"_seed\000"
 16759      6400
 16760              	.LASF60:
 16761 11df 5F736565 		.ascii	"_seek\000"
 16761      6B00
 16762              	.LASF533:
 16763 11e5 5553425F 		.ascii	"USB_EVENT_SUSPEND\000"
 16763      4556454E 
 16763      545F5355 
 16763      5350454E 
 16763      4400
 16764              	.LASF562:
 16765 11f7 444F4550 		.ascii	"DOEPCTL\000"
 16765      43544C00 
 16766              	.LASF7:
 16767 11ff 73686F72 		.ascii	"short unsigned int\000"
ARM GAS  /tmp/ccqRaZSa.s 			page 310


 16767      7420756E 
 16767      7369676E 
 16767      65642069 
 16767      6E7400
 16768              	.LASF1:
 16769 1212 7369676E 		.ascii	"signed char\000"
 16769      65642063 
 16769      68617200 
 16770              	.LASF155:
 16771 121e 705F7072 		.ascii	"p_preempt\000"
 16771      65656D70 
 16771      7400
 16772              	.LASF156:
 16773 1228 705F7469 		.ascii	"p_time\000"
 16773      6D6500
 16774              	.LASF202:
 16775 122f 54444852 		.ascii	"TDHR\000"
 16775      00
 16776              	.LASF676:
 16777 1234 6673697A 		.ascii	"fsize\000"
 16777      6500
 16778              	.LASF526:
 16779 123a 5553425F 		.ascii	"USB_EP0_RX\000"
 16779      4550305F 
 16779      525800
 16780              	.LASF502:
 16781 1245 73746174 		.ascii	"status\000"
 16781      757300
 16782              	.LASF253:
 16783 124c 53534347 		.ascii	"SSCGR\000"
 16783      5200
 16784              	.LASF539:
 16785 1252 55534244 		.ascii	"USBDescriptor\000"
 16785      65736372 
 16785      6970746F 
 16785      7200
 16786              	.LASF690:
 16787 1260 6669666F 		.ascii	"fifop\000"
 16787      7000
 16788              	.LASF84:
 16789 1266 5F667265 		.ascii	"_freelist\000"
 16789      656C6973 
 16789      7400
 16790              	.LASF740:
 16791 1270 63685468 		.ascii	"chThdCreateI\000"
 16791      64437265 
 16791      61746549 
 16791      00
 16792              	.LASF503:
 16793 127d 61646472 		.ascii	"address\000"
 16793      65737300 
 16794              	.LASF158:
 16795 1285 705F6D73 		.ascii	"p_msgqueue\000"
 16795      67717565 
 16795      756500
 16796              	.LASF299:
 16797 1290 63665F6F 		.ascii	"cf_off_refs\000"
ARM GAS  /tmp/ccqRaZSa.s 			page 311


 16797      66665F72 
 16797      65667300 
 16798              	.LASF297:
 16799 129c 63665F6F 		.ascii	"cf_off_state\000"
 16799      66665F73 
 16799      74617465 
 16799      00
 16800              	.LASF282:
 16801 12a9 6D5F6F77 		.ascii	"m_owner\000"
 16801      6E657200 
 16802              	.LASF65:
 16803 12b1 5F6F6666 		.ascii	"_offset\000"
 16803      73657400 
 16804              	.LASF199:
 16805 12b9 53797374 		.ascii	"SystemCoreClock\000"
 16805      656D436F 
 16805      7265436C 
 16805      6F636B00 
 16806              	.LASF717:
 16807 12c9 6F73616C 		.ascii	"osalSysLockFromISR\000"
 16807      5379734C 
 16807      6F636B46 
 16807      726F6D49 
 16807      535200
 16808              	.LASF742:
 16809 12dc 7573624F 		.ascii	"usbObjectInit\000"
 16809      626A6563 
 16809      74496E69 
 16809      7400
 16810              	.LASF381:
 16811 12ea 73746174 		.ascii	"state\000"
 16811      6500
 16812              	.LASF287:
 16813 12f0 63685F76 		.ascii	"ch_version\000"
 16813      65727369 
 16813      6F6E00
 16814              	.LASF331:
 16815 12fb 6F646F6D 		.ascii	"odometer_init_flag\000"
 16815      65746572 
 16815      5F696E69 
 16815      745F666C 
 16815      616700
 16816              	.LASF50:
 16817 130e 5F5F7362 		.ascii	"__sbuf\000"
 16817      756600
 16818              	.LASF525:
 16819 1315 5553425F 		.ascii	"USB_EP0_WAITING_STS\000"
 16819      4550305F 
 16819      57414954 
 16819      494E475F 
 16819      53545300 
 16820              	.LASF110:
 16821 1329 5F6C3634 		.ascii	"_l64a_buf\000"
 16821      615F6275 
 16821      6600
 16822              	.LASF681:
 16823 1333 7573625F 		.ascii	"usb_lld_init\000"
ARM GAS  /tmp/ccqRaZSa.s 			page 312


 16823      6C6C645F 
 16823      696E6974 
 16823      00
 16824              	.LASF206:
 16825 1340 52444852 		.ascii	"RDHR\000"
 16825      00
 16826              	.LASF441:
 16827 1345 444D4152 		.ascii	"DMAR\000"
 16827      00
 16828              	.LASF193:
 16829 134a 63685F73 		.ascii	"ch_system\000"
 16829      79737465 
 16829      6D00
 16830              	.LASF254:
 16831 1354 504C4C49 		.ascii	"PLLI2SCFGR\000"
 16831      32534346 
 16831      475200
 16832              	.LASF102:
 16833 135f 5F617363 		.ascii	"_asctime_buf\000"
 16833      74696D65 
 16833      5F627566 
 16833      00
 16834              	.LASF335:
 16835 136c 6261636B 		.ascii	"backup_data\000"
 16835      75705F64 
 16835      61746100 
 16836              	.LASF684:
 16837 1378 7573625F 		.ascii	"usb_lld_serve_interrupt\000"
 16837      6C6C645F 
 16837      73657276 
 16837      655F696E 
 16837      74657272 
 16838              	.LASF19:
 16839 1390 5F5F7763 		.ascii	"__wch\000"
 16839      6800
 16840              	.LASF277:
 16841 1396 63685F73 		.ascii	"ch_semaphore\000"
 16841      656D6170 
 16841      686F7265 
 16841      00
 16842              	.LASF117:
 16843 13a3 5F776373 		.ascii	"_wcsrtombs_state\000"
 16843      72746F6D 
 16843      62735F73 
 16843      74617465 
 16843      00
 16844              	.LASF699:
 16845 13b4 6F74675F 		.ascii	"otg_do_push\000"
 16845      646F5F70 
 16845      75736800 
 16846              	.LASF558:
 16847 13c0 44494550 		.ascii	"DIEPTSIZ\000"
 16847      5453495A 
 16847      00
 16848              	.LASF729:
 16849 13c9 706F7274 		.ascii	"port_unlock\000"
 16849      5F756E6C 
ARM GAS  /tmp/ccqRaZSa.s 			page 313


 16849      6F636B00 
 16850              	.LASF168:
 16851 13d5 74687265 		.ascii	"threads_queue_t\000"
 16851      6164735F 
 16851      71756575 
 16851      655F7400 
 16852              	.LASF154:
 16853 13e5 705F7265 		.ascii	"p_refs\000"
 16853      667300
 16854              	.LASF637:
 16855 13ec 65705F6D 		.ascii	"ep_mode\000"
 16855      6F646500 
 16856              	.LASF565:
 16857 13f4 73746D33 		.ascii	"stm32_otg_out_ep_t\000"
 16857      325F6F74 
 16857      675F6F75 
 16857      745F6570 
 16857      5F7400
 16858              	.LASF201:
 16859 1407 54444C52 		.ascii	"TDLR\000"
 16859      00
 16860              	.LASF9:
 16861 140c 6C6F6E67 		.ascii	"long int\000"
 16861      20696E74 
 16861      00
 16862              	.LASF196:
 16863 1415 6D61696E 		.ascii	"mainthread\000"
 16863      74687265 
 16863      616400
 16864              	.LASF499:
 16865 1420 6570306E 		.ascii	"ep0n\000"
 16865      00
 16866              	.LASF400:
 16867 1425 69326361 		.ascii	"i2caddr_t\000"
 16867      6464725F 
 16867      7400
 16868              	.LASF109:
 16869 142f 5F776374 		.ascii	"_wctomb_state\000"
 16869      6F6D625F 
 16869      73746174 
 16869      6500
 16870              	.LASF238:
 16871 143d 41484233 		.ascii	"AHB3RSTR\000"
 16871      52535452 
 16871      00
 16872              	.LASF318:
 16873 1446 715F636F 		.ascii	"q_counter\000"
 16873      756E7465 
 16873      7200
 16874              	.LASF369:
 16875 1450 50484461 		.ascii	"PHData\000"
 16875      746100
 16876              	.LASF372:
 16877 1457 696F706F 		.ascii	"ioportid_t\000"
 16877      72746964 
 16877      5F7400
 16878              	.LASF585:
ARM GAS  /tmp/ccqRaZSa.s 			page 314


 16879 1462 48434647 		.ascii	"HCFG\000"
 16879      00
 16880              	.LASF95:
 16881 1467 5F696F62 		.ascii	"_iobs\000"
 16881      7300
 16882              	.LASF76:
 16883 146d 5F656D65 		.ascii	"_emergency\000"
 16883      7267656E 
 16883      637900
 16884              	.LASF475:
 16885 1478 67657474 		.ascii	"gett\000"
 16885      00
 16886              	.LASF491:
 16887 147d 53504944 		.ascii	"SPID3\000"
 16887      3300
 16888              	.LASF732:
 16889 1483 5F5F656E 		.ascii	"__enable_irq\000"
 16889      61626C65 
 16889      5F697271 
 16889      00
 16890              	.LASF273:
 16891 1490 77747472 		.ascii	"wttrp\000"
 16891      7000
 16892              	.LASF322:
 16893 1496 715F7264 		.ascii	"q_rdptr\000"
 16893      70747200 
 16894              	.LASF119:
 16895 149e 5F6E6578 		.ascii	"_nextf\000"
 16895      746600
 16896              	.LASF472:
 16897 14a5 77726974 		.ascii	"write\000"
 16897      6500
 16898              	.LASF105:
 16899 14ab 5F72616E 		.ascii	"_rand_next\000"
 16899      645F6E65 
 16899      787400
 16900              	.LASF468:
 16901 14b6 69717565 		.ascii	"iqueue\000"
 16901      756500
 16902              	.LASF639:
 16903 14bd 696E5F63 		.ascii	"in_cb\000"
 16903      6200
 16904              	.LASF563:
 16905 14c3 444F4550 		.ascii	"DOEPINT\000"
 16905      494E5400 
 16906              	.LASF351:
 16907 14cb 4C434B52 		.ascii	"LCKR\000"
 16907      00
 16908              	.LASF465:
 16909 14d0 73647374 		.ascii	"sdstate_t\000"
 16909      6174655F 
 16909      7400
 16910              	.LASF129:
 16911 14da 75696E74 		.ascii	"uint32_t\000"
 16911      33325F74 
 16911      00
 16912              	.LASF336:
ARM GAS  /tmp/ccqRaZSa.s 			page 315


 16913 14e3 636F6E66 		.ascii	"conf_general_permanent_nrf_found\000"
 16913      5F67656E 
 16913      6572616C 
 16913      5F706572 
 16913      6D616E65 
 16914              	.LASF28:
 16915 1504 5F6D6178 		.ascii	"_maxwds\000"
 16915      77647300 
 16916              	.LASF543:
 16917 150c 75736272 		.ascii	"usbreqhandler_t\000"
 16917      65716861 
 16917      6E646C65 
 16917      725F7400 
 16918              	.LASF205:
 16919 151c 52444C52 		.ascii	"RDLR\000"
 16919      00
 16920              	.LASF730:
 16921 1521 706F7274 		.ascii	"port_lock\000"
 16921      5F6C6F63 
 16921      6B00
 16922              	.LASF264:
 16923 152b 72656761 		.ascii	"regarm_t\000"
 16923      726D5F74 
 16923      00
 16924              	.LASF138:
 16925 1534 6576656E 		.ascii	"eventmask_t\000"
 16925      746D6173 
 16925      6B5F7400 
 16926              	.LASF530:
 16927 1540 5553425F 		.ascii	"USB_EVENT_RESET\000"
 16927      4556454E 
 16927      545F5245 
 16927      53455400 
 16928              	.LASF219:
 16929 1550 46464131 		.ascii	"FFA1R\000"
 16929      5200
 16930              	.LASF210:
 16931 1556 52463152 		.ascii	"RF1R\000"
 16931      00
 16932              	.LASF514:
 16933 155b 5553425F 		.ascii	"USB_SELECTED\000"
 16933      53454C45 
 16933      43544544 
 16933      00
 16934              	.LASF377:
 16935 1568 43414E5F 		.ascii	"CAN_READY\000"
 16935      52454144 
 16935      5900
 16936              	.LASF734:
 16937 1572 63685363 		.ascii	"chSchRescheduleS\000"
 16937      68526573 
 16937      63686564 
 16937      756C6553 
 16937      00
 16938              	.LASF11:
 16939 1583 6C6F6E67 		.ascii	"long unsigned int\000"
 16939      20756E73 
ARM GAS  /tmp/ccqRaZSa.s 			page 316


 16939      69676E65 
 16939      6420696E 
 16939      7400
 16940              	.LASF670:
 16941 1595 7573625F 		.ascii	"usb_lld_prepare_receive\000"
 16941      6C6C645F 
 16941      70726570 
 16941      6172655F 
 16941      72656365 
 16942              	.LASF660:
 16943 15ad 65706D61 		.ascii	"epmask\000"
 16943      736B00
 16944              	.LASF321:
 16945 15b4 715F7772 		.ascii	"q_wrptr\000"
 16945      70747200 
 16946              	.LASF430:
 16947 15bc 49435544 		.ascii	"ICUDriver\000"
 16947      72697665 
 16947      7200
 16948              	.LASF459:
 16949 15c6 49435543 		.ascii	"ICUConfig\000"
 16949      6F6E6669 
 16949      6700
 16950              	.LASF531:
 16951 15d0 5553425F 		.ascii	"USB_EVENT_ADDRESS\000"
 16951      4556454E 
 16951      545F4144 
 16951      44524553 
 16951      5300
 16952              	.LASF333:
 16953 15e2 72756E74 		.ascii	"runtime_init_flag\000"
 16953      696D655F 
 16953      696E6974 
 16953      5F666C61 
 16953      6700
 16954              	.LASF385:
 16955 15f4 72786675 		.ascii	"rxfull_event\000"
 16955      6C6C5F65 
 16955      76656E74 
 16955      00
 16956              	.LASF536:
 16957 1601 75736265 		.ascii	"usbevent_t\000"
 16957      76656E74 
 16957      5F7400
 16958              	.LASF61:
 16959 160c 5F636C6F 		.ascii	"_close\000"
 16959      736500
 16960              	.LASF669:
 16961 1613 70636E74 		.ascii	"pcnt\000"
 16961      00
 16962              	.LASF25:
 16963 1618 63686172 		.ascii	"char\000"
 16963      00
 16964              	.LASF380:
 16965 161d 43414E43 		.ascii	"CANConfig\000"
 16965      6F6E6669 
 16965      6700
ARM GAS  /tmp/ccqRaZSa.s 			page 317


 16966              	.LASF366:
 16967 1627 50454461 		.ascii	"PEData\000"
 16967      746100
 16968              	.LASF172:
 16969 162e 725F7175 		.ascii	"r_queue\000"
 16969      65756500 
 16970              	.LASF93:
 16971 1636 5F676C75 		.ascii	"_glue\000"
 16971      6500
 16972              	.LASF723:
 16973 163c 63685379 		.ascii	"chSysUnlockFromISR\000"
 16973      73556E6C 
 16973      6F636B46 
 16973      726F6D49 
 16973      535200
 16974              	.LASF575:
 16975 164f 47525846 		.ascii	"GRXFSIZ\000"
 16975      53495A00 
 16976              	.LASF470:
 16977 1657 75736172 		.ascii	"usart\000"
 16977      7400
 16978              	.LASF324:
 16979 165d 715F6C69 		.ascii	"q_link\000"
 16979      6E6B00
 16980              	.LASF708:
 16981 1664 6F74675F 		.ascii	"otg_disable_ep\000"
 16981      64697361 
 16981      626C655F 
 16981      657000
 16982              	.LASF449:
 16983 1673 4943555F 		.ascii	"ICU_CHANNEL_1\000"
 16983      4348414E 
 16983      4E454C5F 
 16983      3100
 16984              	.LASF661:
 16985 1681 7573625F 		.ascii	"usb_lld_pump\000"
 16985      6C6C645F 
 16985      70756D70 
 16985      00
 16986              	.LASF31:
 16987 168e 5F426967 		.ascii	"_Bigint\000"
 16987      696E7400 
 16988              	.LASF572:
 16989 1696 47494E54 		.ascii	"GINTMSK\000"
 16989      4D534B00 
 16990              	.LASF434:
 16991 169e 69637563 		.ascii	"icucallback_t\000"
 16991      616C6C62 
 16991      61636B5F 
 16991      7400
 16992              	.LASF577:
 16993 16ac 484E5054 		.ascii	"HNPTXSTS\000"
 16993      58535453 
 16993      00
 16994              	.LASF244:
 16995 16b5 41504231 		.ascii	"APB1ENR\000"
 16995      454E5200 
ARM GAS  /tmp/ccqRaZSa.s 			page 318


 16996              	.LASF504:
 16997 16bd 636F6E66 		.ascii	"configuration\000"
 16997      69677572 
 16997      6174696F 
 16997      6E00
 16998              	.LASF88:
 16999 16cb 5F617465 		.ascii	"_atexit0\000"
 16999      78697430 
 16999      00
 17000              	.LASF361:
 17001 16d4 73746D33 		.ascii	"stm32_gpio_setup_t\000"
 17001      325F6770 
 17001      696F5F73 
 17001      65747570 
 17001      5F7400
 17002              	.LASF654:
 17003 16e7 6570305F 		.ascii	"ep0_state\000"
 17003      73746174 
 17003      6500
 17004              	.LASF691:
 17005 16f1 6E746F67 		.ascii	"ntogo\000"
 17005      6F00
 17006              	.LASF446:
 17007 16f7 4943555F 		.ascii	"ICU_INPUT_ACTIVE_LOW\000"
 17007      494E5055 
 17007      545F4143 
 17007      54495645 
 17007      5F4C4F57 
 17008              	.LASF344:
 17009 170c 5F73746D 		.ascii	"_stm32_dma_streams\000"
 17009      33325F64 
 17009      6D615F73 
 17009      74726561 
 17009      6D7300
 17010              	.LASF112:
 17011 171f 5F676574 		.ascii	"_getdate_err\000"
 17011      64617465 
 17011      5F657272 
 17011      00
 17012              	.LASF448:
 17013 172c 69637566 		.ascii	"icufreq_t\000"
 17013      7265715F 
 17013      7400
 17014              	.LASF738:
 17015 1736 63685363 		.ascii	"chSchReadyI\000"
 17015      68526561 
 17015      64794900 
 17016              	.LASF659:
 17017 1742 6F746770 		.ascii	"otgp\000"
 17017      00
 17018              	.LASF151:
 17019 1747 705F7374 		.ascii	"p_stklimit\000"
 17019      6B6C696D 
 17019      697400
 17020              	.LASF140:
 17021 1752 636E745F 		.ascii	"cnt_t\000"
 17021      7400
ARM GAS  /tmp/ccqRaZSa.s 			page 319


 17022              	.LASF524:
 17023 1758 5553425F 		.ascii	"USB_EP0_WAITING_TX0\000"
 17023      4550305F 
 17023      57414954 
 17023      494E475F 
 17023      54583000 
 17024              	.LASF498:
 17025 176c 6570306E 		.ascii	"ep0next\000"
 17025      65787400 
 17026              	.LASF553:
 17027 1774 73746D33 		.ascii	"stm32_otg_host_chn_t\000"
 17027      325F6F74 
 17027      675F686F 
 17027      73745F63 
 17027      686E5F74 
 17028              	.LASF687:
 17029 1789 6F74675F 		.ascii	"otg_epin_handler\000"
 17029      6570696E 
 17029      5F68616E 
 17029      646C6572 
 17029      00
 17030              	.LASF719:
 17031 179a 6F73616C 		.ascii	"osalSysLock\000"
 17031      5379734C 
 17031      6F636B00 
 17032              	.LASF353:
 17033 17a6 41465248 		.ascii	"AFRH\000"
 17033      00
 17034              	.LASF352:
 17035 17ab 4146524C 		.ascii	"AFRL\000"
 17035      00
 17036              	.LASF124:
 17037 17b0 5F696D70 		.ascii	"_impure_ptr\000"
 17037      7572655F 
 17037      70747200 
 17038              	.LASF300:
 17039 17bc 63665F6F 		.ascii	"cf_off_preempt\000"
 17039      66665F70 
 17039      7265656D 
 17039      707400
 17040              	.LASF64:
 17041 17cb 5F626C6B 		.ascii	"_blksize\000"
 17041      73697A65 
 17041      00
 17042              	.LASF548:
 17043 17d4 4843494E 		.ascii	"HCINTMSK\000"
 17043      544D534B 
 17043      00
 17044              	.LASF62:
 17045 17dd 5F756275 		.ascii	"_ubuf\000"
 17045      6600
 17046              	.LASF382:
 17047 17e3 636F6E66 		.ascii	"config\000"
 17047      696700
 17048              	.LASF107:
 17049 17ea 5F6D626C 		.ascii	"_mblen_state\000"
 17049      656E5F73 
ARM GAS  /tmp/ccqRaZSa.s 			page 320


 17049      74617465 
 17049      00
 17050              	.LASF90:
 17051 17f7 5F5F7367 		.ascii	"__sglue\000"
 17051      6C756500 
 17052              	.LASF123:
 17053 17ff 5F5F6C6F 		.ascii	"__locale_t\000"
 17053      63616C65 
 17053      5F7400
 17054              	.LASF80:
 17055 180a 5F5F636C 		.ascii	"__cleanup\000"
 17055      65616E75 
 17055      7000
 17056              	.LASF234:
 17057 1814 504C4C43 		.ascii	"PLLCFGR\000"
 17057      46475200 
 17058              	.LASF178:
 17059 181c 76746675 		.ascii	"vtfunc_t\000"
 17059      6E635F74 
 17059      00
 17060              	.LASF207:
 17061 1825 43414E5F 		.ascii	"CAN_FIFOMailBox_TypeDef\000"
 17061      4649464F 
 17061      4D61696C 
 17061      426F785F 
 17061      54797065 
 17062              	.LASF272:
 17063 183d 77746F62 		.ascii	"wtobjp\000"
 17063      6A7000
 17064              	.LASF17:
 17065 1844 5F66706F 		.ascii	"_fpos_t\000"
 17065      735F7400 
 17066              	.LASF55:
 17067 184c 5F66696C 		.ascii	"_file\000"
 17067      6500
 17068              	.LASF162:
 17069 1852 705F7265 		.ascii	"p_realprio\000"
 17069      616C7072 
 17069      696F00
 17070              	.LASF323:
 17071 185d 715F6E6F 		.ascii	"q_notify\000"
 17071      74696679 
 17071      00
 17072              	.LASF275:
 17073 1866 77746D74 		.ascii	"wtmtxp\000"
 17073      787000
 17074              	.LASF53:
 17075 186d 5F5F7346 		.ascii	"__sFILE\000"
 17075      494C4500 
 17076              	.LASF330:
 17077 1875 646F7562 		.ascii	"double\000"
 17077      6C6500
 17078              	.LASF49:
 17079 187c 5F666E73 		.ascii	"_fns\000"
 17079      00
 17080              	.LASF636:
 17081 1881 5553424F 		.ascii	"USBOutEndpointState\000"
ARM GAS  /tmp/ccqRaZSa.s 			page 321


 17081      7574456E 
 17081      64706F69 
 17081      6E745374 
 17081      61746500 
 17082              	.LASF592:
 17083 1895 72657376 		.ascii	"resvd41C\000"
 17083      64343143 
 17083      00
 17084              	.LASF23:
 17085 189e 5F6D6273 		.ascii	"_mbstate_t\000"
 17085      74617465 
 17085      5F7400
 17086              	.LASF118:
 17087 18a9 5F685F65 		.ascii	"_h_errno\000"
 17087      72726E6F 
 17087      00
 17088              	.LASF204:
 17089 18b2 52445452 		.ascii	"RDTR\000"
 17089      00
 17090              	.LASF689:
 17091 18b7 6F74675F 		.ascii	"otg_fifo_read_to_queue\000"
 17091      6669666F 
 17091      5F726561 
 17091      645F746F 
 17091      5F717565 
 17092              	.LASF251:
 17093 18ce 42444352 		.ascii	"BDCR\000"
 17093      00
 17094              	.LASF171:
 17095 18d3 63685F72 		.ascii	"ch_ready_list\000"
 17095      65616479 
 17095      5F6C6973 
 17095      7400
 17096              	.LASF349:
 17097 18e1 50555044 		.ascii	"PUPDR\000"
 17097      5200
 17098              	.LASF8:
 17099 18e7 5F5F696E 		.ascii	"__int32_t\000"
 17099      7433325F 
 17099      7400
 17100              	.LASF10:
 17101 18f1 5F5F7569 		.ascii	"__uint32_t\000"
 17101      6E743332 
 17101      5F7400
 17102              	.LASF432:
 17103 18fc 77636372 		.ascii	"wccrp\000"
 17103      7000
 17104              	.LASF190:
 17105 1902 63685F73 		.ascii	"ch_system_debug\000"
 17105      79737465 
 17105      6D5F6465 
 17105      62756700 
 17106              	.LASF603:
 17107 1912 4441494E 		.ascii	"DAINTMSK\000"
 17107      544D534B 
 17107      00
 17108              	.LASF22:
ARM GAS  /tmp/ccqRaZSa.s 			page 322


 17109 191b 5F5F7661 		.ascii	"__value\000"
 17109      6C756500 
 17110              	.LASF522:
 17111 1923 5553425F 		.ascii	"USB_EP0_WAITING_SETUP\000"
 17111      4550305F 
 17111      57414954 
 17111      494E475F 
 17111      53455455 
 17112              	.LASF46:
 17113 1939 5F69735F 		.ascii	"_is_cxa\000"
 17113      63786100 
 17114              	.LASF360:
 17115 1941 61667268 		.ascii	"afrh\000"
 17115      00
 17116              	.LASF425:
 17117 1946 4943555F 		.ascii	"ICU_STOP\000"
 17117      53544F50 
 17117      00
 17118              	.LASF359:
 17119 194f 6166726C 		.ascii	"afrl\000"
 17119      00
 17120              	.LASF626:
 17121 1954 71756575 		.ascii	"queue\000"
 17121      6500
 17122              	.LASF500:
 17123 195a 65703065 		.ascii	"ep0endcb\000"
 17123      6E646362 
 17123      00
 17124              	.LASF341:
 17125 1963 73656C66 		.ascii	"selfindex\000"
 17125      696E6465 
 17125      7800
 17126              	.LASF304:
 17127 196d 6D757465 		.ascii	"mutex_t\000"
 17127      785F7400 
 17128              	.LASF83:
 17129 1975 5F703573 		.ascii	"_p5s\000"
 17129      00
 17130              	.LASF160:
 17131 197a 705F6570 		.ascii	"p_epending\000"
 17131      656E6469 
 17131      6E6700
 17132              	.LASF518:
 17133 1985 45505F53 		.ascii	"EP_STATUS_DISABLED\000"
 17133      54415455 
 17133      535F4449 
 17133      5341424C 
 17133      454400
 17134              	.LASF596:
 17135 1998 44434647 		.ascii	"DCFG\000"
 17135      00
 17136              	.LASF346:
 17137 199d 4D4F4445 		.ascii	"MODER\000"
 17137      5200
 17138              	.LASF715:
 17139 19a3 6F73616C 		.ascii	"osalOsRescheduleS\000"
 17139      4F735265 
ARM GAS  /tmp/ccqRaZSa.s 			page 323


 17139      73636865 
 17139      64756C65 
 17139      5300
 17140              	.LASF211:
 17141 19b5 52455345 		.ascii	"RESERVED0\000"
 17141      52564544 
 17141      3000
 17142              	.LASF214:
 17143 19bf 52455345 		.ascii	"RESERVED1\000"
 17143      52564544 
 17143      3100
 17144              	.LASF216:
 17145 19c9 52455345 		.ascii	"RESERVED2\000"
 17145      52564544 
 17145      3200
 17146              	.LASF218:
 17147 19d3 52455345 		.ascii	"RESERVED3\000"
 17147      52564544 
 17147      3300
 17148              	.LASF220:
 17149 19dd 52455345 		.ascii	"RESERVED4\000"
 17149      52564544 
 17149      3400
 17150              	.LASF222:
 17151 19e7 52455345 		.ascii	"RESERVED5\000"
 17151      52564544 
 17151      3500
 17152              	.LASF252:
 17153 19f1 52455345 		.ascii	"RESERVED6\000"
 17153      52564544 
 17153      3600
 17154              	.LASF647:
 17155 19fb 55534245 		.ascii	"USBEndpointConfig\000"
 17155      6E64706F 
 17155      696E7443 
 17155      6F6E6669 
 17155      6700
 17156              	.LASF384:
 17157 1a0d 72787175 		.ascii	"rxqueue\000"
 17157      65756500 
 17158              	.LASF594:
 17159 1a15 72657376 		.ascii	"resvd444\000"
 17159      64343434 
 17159      00
 17160              	.LASF373:
 17161 1a1e 70616C5F 		.ascii	"pal_default_config\000"
 17161      64656661 
 17161      756C745F 
 17161      636F6E66 
 17161      696700
 17162              	.LASF308:
 17163 1a31 656C5F6C 		.ascii	"el_listener\000"
 17163      69737465 
 17163      6E657200 
 17164              	.LASF625:
 17165 1a3d 6C696E65 		.ascii	"linear\000"
 17165      617200
ARM GAS  /tmp/ccqRaZSa.s 			page 324


 17166              	.LASF444:
 17167 1a44 73746D33 		.ascii	"stm32_tim_t\000"
 17167      325F7469 
 17167      6D5F7400 
 17168              	.LASF743:
 17169 1a50 63685468 		.ascii	"chThdResumeI\000"
 17169      64526573 
 17169      756D6549 
 17169      00
 17170              	.LASF173:
 17171 1a5d 725F7072 		.ascii	"r_prio\000"
 17171      696F00
 17172              	.LASF506:
 17173 1a64 706D6E65 		.ascii	"pmnext\000"
 17173      787400
 17174              	.LASF198:
 17175 1a6b 49544D5F 		.ascii	"ITM_RxBuffer\000"
 17175      52784275 
 17175      66666572 
 17175      00
 17176              	.LASF450:
 17177 1a78 4943555F 		.ascii	"ICU_CHANNEL_2\000"
 17177      4348414E 
 17177      4E454C5F 
 17177      3200
 17178              	.LASF14:
 17179 1a86 6C6F6E67 		.ascii	"long long unsigned int\000"
 17179      206C6F6E 
 17179      6720756E 
 17179      7369676E 
 17179      65642069 
 17180              	.LASF268:
 17181 1a9d 6F666673 		.ascii	"offset\000"
 17181      657400
 17182              	.LASF246:
 17183 1aa4 41484231 		.ascii	"AHB1LPENR\000"
 17183      4C50454E 
 17183      5200
 17184              	.LASF720:
 17185 1aae 63685265 		.ascii	"chRegSetThreadName\000"
 17185      67536574 
 17185      54687265 
 17185      61644E61 
 17185      6D6500
 17186              	.LASF490:
 17187 1ac1 53504944 		.ascii	"SPID1\000"
 17187      3100
 17188              	.LASF725:
 17189 1ac7 63685379 		.ascii	"chSysUnlock\000"
 17189      73556E6C 
 17189      6F636B00 
 17190              	.LASF225:
 17191 1ad3 4E445452 		.ascii	"NDTR\000"
 17191      00
 17192              	.LASF313:
 17193 1ad8 65735F6E 		.ascii	"es_next\000"
 17193      65787400 
ARM GAS  /tmp/ccqRaZSa.s 			page 325


 17194              	.LASF104:
 17195 1ae0 5F67616D 		.ascii	"_gamma_signgam\000"
 17195      6D615F73 
 17195      69676E67 
 17195      616D00
 17196              	.LASF560:
 17197 1aef 72657376 		.ascii	"resvd1C\000"
 17197      64314300 
 17198              	.LASF197:
 17199 1af7 69646C65 		.ascii	"idle_thread_wa\000"
 17199      5F746872 
 17199      6561645F 
 17199      776100
 17200              	.LASF556:
 17201 1b06 44494550 		.ascii	"DIEPINT\000"
 17201      494E5400 
 17202              	.LASF429:
 17203 1b0e 69637573 		.ascii	"icustate_t\000"
 17203      74617465 
 17203      5F7400
 17204              	.LASF261:
 17205 1b19 5350495F 		.ascii	"SPI_TypeDef\000"
 17205      54797065 
 17205      44656600 
 17206              	.LASF184:
 17207 1b25 76745F66 		.ascii	"vt_func\000"
 17207      756E6300 
 17208              	.LASF435:
 17209 1b2d 534D4352 		.ascii	"SMCR\000"
 17209      00
 17210              	.LASF601:
 17211 1b32 444F4550 		.ascii	"DOEPMSK\000"
 17211      4D534B00 
 17212              	.LASF704:
 17213 1b3a 6F74675F 		.ascii	"otg_ram_reset\000"
 17213      72616D5F 
 17213      72657365 
 17213      7400
 17214              	.LASF180:
 17215 1b48 63685F76 		.ascii	"ch_virtual_timer\000"
 17215      69727475 
 17215      616C5F74 
 17215      696D6572 
 17215      00
 17216              	.LASF153:
 17217 1b59 705F666C 		.ascii	"p_flags\000"
 17217      61677300 
 17218              	.LASF276:
 17219 1b61 65776D61 		.ascii	"ewmask\000"
 17219      736B00
 17220              	.LASF310:
 17221 1b68 656C5F66 		.ascii	"el_flags\000"
 17221      6C616773 
 17221      00
 17222              	.LASF312:
 17223 1b71 6576656E 		.ascii	"event_source\000"
 17223      745F736F 
ARM GAS  /tmp/ccqRaZSa.s 			page 326


 17223      75726365 
 17223      00
 17224              	.LASF161:
 17225 1b7e 705F6D74 		.ascii	"p_mtxlist\000"
 17225      786C6973 
 17225      7400
 17226              	.LASF391:
 17227 1b88 43414E44 		.ascii	"CAND1\000"
 17227      3100
 17228              	.LASF217:
 17229 1b8e 46533152 		.ascii	"FS1R\000"
 17229      00
 17230              	.LASF133:
 17231 1b93 74737461 		.ascii	"tstate_t\000"
 17231      74655F74 
 17231      00
 17232              	.LASF125:
 17233 1b9c 5F676C6F 		.ascii	"_global_impure_ptr\000"
 17233      62616C5F 
 17233      696D7075 
 17233      72655F70 
 17233      747200
 17234              	.LASF602:
 17235 1baf 4441494E 		.ascii	"DAINT\000"
 17235      5400
 17236              	.LASF489:
 17237 1bb5 53504943 		.ascii	"SPIConfig\000"
 17237      6F6E6669 
 17237      6700
 17238              	.LASF77:
 17239 1bbf 5F756E73 		.ascii	"_unspecified_locale_info\000"
 17239      70656369 
 17239      66696564 
 17239      5F6C6F63 
 17239      616C655F 
 17240              	.LASF358:
 17241 1bd8 70757064 		.ascii	"pupdr\000"
 17241      7200
 17242              	.LASF493:
 17243 1bde 7472616E 		.ascii	"transmitting\000"
 17243      736D6974 
 17243      74696E67 
 17243      00
 17244              	.LASF673:
 17245 1beb 7573625F 		.ascii	"usb_lld_get_status_out\000"
 17245      6C6C645F 
 17245      6765745F 
 17245      73746174 
 17245      75735F6F 
 17246              	.LASF150:
 17247 1c02 705F6E61 		.ascii	"p_name\000"
 17247      6D6500
 17248              	.LASF79:
 17249 1c09 5F5F7364 		.ascii	"__sdidinit\000"
 17249      6964696E 
 17249      697400
 17250              	.LASF466:
ARM GAS  /tmp/ccqRaZSa.s 			page 327


 17251 1c14 53657269 		.ascii	"SerialDriver\000"
 17251      616C4472 
 17251      69766572 
 17251      00
 17252              	.LASF658:
 17253 1c21 75736270 		.ascii	"usbp\000"
 17253      00
 17254              	.LASF517:
 17255 1c26 75736273 		.ascii	"usbstate_t\000"
 17255      74617465 
 17255      5F7400
 17256              	.LASF564:
 17257 1c31 444F4550 		.ascii	"DOEPTSIZ\000"
 17257      5453495A 
 17257      00
 17258              	.LASF250:
 17259 1c3a 41504232 		.ascii	"APB2LPENR\000"
 17259      4C50454E 
 17259      5200
 17260              	.LASF697:
 17261 1c44 6F74675F 		.ascii	"otg_fifo_write_from_queue\000"
 17261      6669666F 
 17261      5F777269 
 17261      74655F66 
 17261      726F6D5F 
 17262              	.LASF292:
 17263 1c5e 63665F6F 		.ascii	"cf_off_ctx\000"
 17263      66665F63 
 17263      747800
 17264              	.LASF721:
 17265 1c69 6E616D65 		.ascii	"name\000"
 17265      00
 17266              	.LASF24:
 17267 1c6e 5F666C6F 		.ascii	"_flock_t\000"
 17267      636B5F74 
 17267      00
 17268              	.LASF186:
 17269 1c77 76697274 		.ascii	"virtual_timers_list_t\000"
 17269      75616C5F 
 17269      74696D65 
 17269      72735F6C 
 17269      6973745F 
 17270              	.LASF739:
 17271 1c8d 6E766963 		.ascii	"nvicEnableVector\000"
 17271      456E6162 
 17271      6C655665 
 17271      63746F72 
 17271      00
 17272              	.LASF693:
 17273 1c9e 6E773265 		.ascii	"nw2end\000"
 17273      6E6400
 17274              	.LASF516:
 17275 1ca5 5553425F 		.ascii	"USB_SUSPENDED\000"
 17275      53555350 
 17275      454E4445 
 17275      4400
 17276              	.LASF355:
ARM GAS  /tmp/ccqRaZSa.s 			page 328


 17277 1cb3 6D6F6465 		.ascii	"moder\000"
 17277      7200
 17278              	.LASF484:
 17279 1cb9 53504944 		.ascii	"SPIDriver\000"
 17279      72697665 
 17279      7200
 17280              	.LASF278:
 17281 1cc3 735F7175 		.ascii	"s_queue\000"
 17281      65756500 
 17282              	.LASF259:
 17283 1ccb 49325343 		.ascii	"I2SCFGR\000"
 17283      46475200 
 17284              	.LASF284:
 17285 1cd3 63685F69 		.ascii	"ch_identifier\000"
 17285      64656E74 
 17285      69666965 
 17285      7200
 17286              	.LASF476:
 17287 1ce1 77726974 		.ascii	"writet\000"
 17287      657400
 17288              	.LASF12:
 17289 1ce8 6C6F6E67 		.ascii	"long long int\000"
 17289      206C6F6E 
 17289      6720696E 
 17289      7400
 17290              	.LASF582:
 17291 1cf6 48505458 		.ascii	"HPTXFSIZ\000"
 17291      4653495A 
 17291      00
 17292              	.LASF663:
 17293 1cff 7573625F 		.ascii	"usb_lld_clear_out\000"
 17293      6C6C645F 
 17293      636C6561 
 17293      725F6F75 
 17293      7400
 17294              	.LASF291:
 17295 1d11 63665F6F 		.ascii	"cf_off_prio\000"
 17295      66665F70 
 17295      72696F00 
 17296              	.LASF69:
 17297 1d1d 5F666C61 		.ascii	"_flags2\000"
 17297      67733200 
 17298              	.LASF724:
 17299 1d25 63685379 		.ascii	"chSysLockFromISR\000"
 17299      734C6F63 
 17299      6B46726F 
 17299      6D495352 
 17299      00
 17300              	.LASF447:
 17301 1d36 6963756D 		.ascii	"icumode_t\000"
 17301      6F64655F 
 17301      7400
 17302              	.LASF629:
 17303 1d40 7478636E 		.ascii	"txcnt\000"
 17303      7400
 17304              	.LASF707:
 17305 1d46 6F74675F 		.ascii	"otg_rxfifo_flush\000"
ARM GAS  /tmp/ccqRaZSa.s 			page 329


 17305      72786669 
 17305      666F5F66 
 17305      6C757368 
 17305      00
 17306              	.LASF649:
 17307 1d57 6765745F 		.ascii	"get_descriptor_cb\000"
 17307      64657363 
 17307      72697074 
 17307      6F725F63 
 17307      6200
 17308              	.LASF78:
 17309 1d69 5F6C6F63 		.ascii	"_locale\000"
 17309      616C6500 
 17310              	.LASF139:
 17311 1d71 6576656E 		.ascii	"eventflags_t\000"
 17311      74666C61 
 17311      67735F74 
 17311      00
 17312              	.LASF480:
 17313 1d7e 5350495F 		.ascii	"SPI_READY\000"
 17313      52454144 
 17313      5900
 17314              	.LASF675:
 17315 1d88 7573625F 		.ascii	"usb_lld_init_endpoint\000"
 17315      6C6C645F 
 17315      696E6974 
 17315      5F656E64 
 17315      706F696E 
 17316              	.LASF618:
 17317 1d9e 4649464F 		.ascii	"FIFO\000"
 17317      00
 17318              	.LASF213:
 17319 1da3 73464946 		.ascii	"sFIFOMailBox\000"
 17319      4F4D6169 
 17319      6C426F78 
 17319      00
 17320              	.LASF597:
 17321 1db0 4443544C 		.ascii	"DCTL\000"
 17321      00
 17322              	.LASF624:
 17323 1db5 74786275 		.ascii	"txbuf\000"
 17323      6600
 17324              	.LASF616:
 17325 1dbb 50434743 		.ascii	"PCGCCTL\000"
 17325      43544C00 
 17326              	.LASF534:
 17327 1dc3 5553425F 		.ascii	"USB_EVENT_WAKEUP\000"
 17327      4556454E 
 17327      545F5741 
 17327      4B455550 
 17327      00
 17328              	.LASF149:
 17329 1dd4 705F6F6C 		.ascii	"p_older\000"
 17329      64657200 
 17330              	.LASF370:
 17331 1ddc 50494461 		.ascii	"PIData\000"
 17331      746100
ARM GAS  /tmp/ccqRaZSa.s 			page 330


 17332              	.LASF646:
 17333 1de3 73657475 		.ascii	"setup_buf\000"
 17333      705F6275 
 17333      6600
 17334              	.LASF579:
 17335 1ded 72657376 		.ascii	"resvd34\000"
 17335      64333400 
 17336              	.LASF487:
 17337 1df5 7373706F 		.ascii	"ssport\000"
 17337      727400
 17338              	.LASF424:
 17339 1dfc 4943555F 		.ascii	"ICU_UNINIT\000"
 17339      554E494E 
 17339      495400
 17340              	.LASF165:
 17341 1e07 74687265 		.ascii	"thread_reference_t\000"
 17341      61645F72 
 17341      65666572 
 17341      656E6365 
 17341      5F7400
 17342              	.LASF494:
 17343 1e1a 72656365 		.ascii	"receiving\000"
 17343      6976696E 
 17343      6700
 17344              	.LASF92:
 17345 1e24 5F5F4649 		.ascii	"__FILE\000"
 17345      4C4500
 17346              	.LASF453:
 17347 1e2b 66726571 		.ascii	"frequency\000"
 17347      75656E63 
 17347      7900
 17348              	.LASF713:
 17349 1e35 6F73616C 		.ascii	"osalSysPolledDelayX\000"
 17349      53797350 
 17349      6F6C6C65 
 17349      6444656C 
 17349      61795800 
 17350              	.LASF29:
 17351 1e49 5F736967 		.ascii	"_sign\000"
 17351      6E00
 17352              	.LASF643:
 17353 1e4f 696E5F73 		.ascii	"in_state\000"
 17353      74617465 
 17353      00
 17354              	.LASF34:
 17355 1e58 5F5F746D 		.ascii	"__tm_min\000"
 17355      5F6D696E 
 17355      00
 17356              	.LASF748:
 17357 1e61 2F626C64 		.ascii	"/bldc\000"
 17357      6300
 17358              	.LASF407:
 17359 1e67 46415354 		.ascii	"FAST_DUTY_CYCLE_2\000"
 17359      5F445554 
 17359      595F4359 
 17359      434C455F 
 17359      3200
ARM GAS  /tmp/ccqRaZSa.s 			page 331


 17360              	.LASF290:
 17361 1e79 63685F74 		.ascii	"ch_threadsize\000"
 17361      68726561 
 17361      6473697A 
 17361      6500
 17362              	.LASF232:
 17363 1e87 464C5452 		.ascii	"FLTR\000"
 17363      00
 17364              	.LASF437:
 17365 1e8c 43434D52 		.ascii	"CCMR1\000"
 17365      3100
 17366              	.LASF438:
 17367 1e92 43434D52 		.ascii	"CCMR2\000"
 17367      3200
 17368              	.LASF442:
 17369 1e98 43434D52 		.ascii	"CCMR3\000"
 17369      3300
 17370              	.LASF0:
 17371 1e9e 756E7369 		.ascii	"unsigned int\000"
 17371      676E6564 
 17371      20696E74 
 17371      00
 17372              	.LASF106:
 17373 1eab 5F723438 		.ascii	"_r48\000"
 17373      00
 17374              	.LASF586:
 17375 1eb0 48464952 		.ascii	"HFIR\000"
 17375      00
 17376              	.LASF511:
 17377 1eb5 5553425F 		.ascii	"USB_UNINIT\000"
 17377      554E494E 
 17377      495400
 17378              	.LASF692:
 17379 1ec0 73747265 		.ascii	"streak\000"
 17379      616B00
 17380              	.LASF338:
 17381 1ec7 73747265 		.ascii	"stream\000"
 17381      616D00
 17382              	.LASF405:
 17383 1ece 6932636F 		.ascii	"i2copmode_t\000"
 17383      706D6F64 
 17383      655F7400 
 17384              	.LASF694:
 17385 1eda 6F74675F 		.ascii	"otg_fifo_read_to_buffer\000"
 17385      6669666F 
 17385      5F726561 
 17385      645F746F 
 17385      5F627566 
 17386              	.LASF285:
 17387 1ef2 63685F7A 		.ascii	"ch_zero\000"
 17387      65726F00 
 17388              	.LASF5:
 17389 1efa 73686F72 		.ascii	"short int\000"
 17389      7420696E 
 17389      7400
 17390              	.LASF540:
 17391 1f04 75736263 		.ascii	"usbcallback_t\000"
ARM GAS  /tmp/ccqRaZSa.s 			page 332


 17391      616C6C62 
 17391      61636B5F 
 17391      7400
 17392              	.LASF58:
 17393 1f12 5F726561 		.ascii	"_read\000"
 17393      6400
 17394              	.LASF569:
 17395 1f18 47555342 		.ascii	"GUSBCFG\000"
 17395      43464700 
 17396              	.LASF263:
 17397 1f20 55534152 		.ascii	"USART_TypeDef\000"
 17397      545F5479 
 17397      70654465 
 17397      6600
 17398              	.LASF327:
 17399 1f2e 6F757470 		.ascii	"output_queue_t\000"
 17399      75745F71 
 17399      75657565 
 17399      5F7400
 17400              	.LASF96:
 17401 1f3d 5F72616E 		.ascii	"_rand48\000"
 17401      64343800 
 17402              	.LASF619:
 17403 1f45 73746D33 		.ascii	"stm32_otg_t\000"
 17403      325F6F74 
 17403      675F7400 
 17404              	.LASF665:
 17405 1f51 7573625F 		.ascii	"usb_lld_stall_out\000"
 17405      6C6C645F 
 17405      7374616C 
 17405      6C5F6F75 
 17405      7400
 17406              	.LASF412:
 17407 1f63 64757479 		.ascii	"duty_cycle\000"
 17407      5F637963 
 17407      6C6500
 17408              	.LASF537:
 17409 1f6e 75645F73 		.ascii	"ud_size\000"
 17409      697A6500 
 17410              	.LASF242:
 17411 1f76 41484232 		.ascii	"AHB2ENR\000"
 17411      454E5200 
 17412              	.LASF236:
 17413 1f7e 41484231 		.ascii	"AHB1RSTR\000"
 17413      52535452 
 17413      00
 17414              	.LASF641:
 17415 1f87 696E5F6D 		.ascii	"in_maxsize\000"
 17415      61787369 
 17415      7A6500
 17416              	.LASF367:
 17417 1f92 50464461 		.ascii	"PFData\000"
 17417      746100
 17418              	.LASF152:
 17419 1f99 705F7374 		.ascii	"p_state\000"
 17419      61746500 
 17420              	.LASF167:
ARM GAS  /tmp/ccqRaZSa.s 			page 333


 17421 1fa1 63685F74 		.ascii	"ch_threads_list\000"
 17421      68726561 
 17421      64735F6C 
 17421      69737400 
 17422              	.LASF229:
 17423 1fb1 4F415231 		.ascii	"OAR1\000"
 17423      00
 17424              	.LASF230:
 17425 1fb6 4F415232 		.ascii	"OAR2\000"
 17425      00
 17426              	.LASF464:
 17427 1fbb 53445F52 		.ascii	"SD_READY\000"
 17427      45414459 
 17427      00
 17428              		.ident	"GCC: (GNU Tools for Arm Embedded Processors 7-2018-q3-update) 7.3.1 20180622 (release) [AR
ARM GAS  /tmp/ccqRaZSa.s 			page 334


DEFINED SYMBOLS
                            *ABS*:0000000000000000 usb_lld.c
     /tmp/ccqRaZSa.s:18     .text.usb_lld_pump:0000000000000000 $t
     /tmp/ccqRaZSa.s:26     .text.usb_lld_pump:0000000000000000 usb_lld_pump
     /tmp/ccqRaZSa.s:838    .text.usb_lld_pump:00000000000002b8 $d
     /tmp/ccqRaZSa.s:854    .text.usb_lld_pump:00000000000002c0 $t
     /tmp/ccqRaZSa.s:1014   .text.usb_lld_init:0000000000000000 $t
     /tmp/ccqRaZSa.s:1022   .text.usb_lld_init:0000000000000000 usb_lld_init
     /tmp/ccqRaZSa.s:1088   .text.usb_lld_init:000000000000003c $d
     /tmp/ccqRaZSa.s:1095   .text.usb_lld_start:0000000000000000 $t
     /tmp/ccqRaZSa.s:1103   .text.usb_lld_start:0000000000000000 usb_lld_start
     /tmp/ccqRaZSa.s:1345   .text.usb_lld_start:0000000000000100 $d
     /tmp/ccqRaZSa.s:1354   .text.usb_lld_stop:0000000000000000 $t
     /tmp/ccqRaZSa.s:1362   .text.usb_lld_stop:0000000000000000 usb_lld_stop
     /tmp/ccqRaZSa.s:1476   .text.usb_lld_stop:0000000000000068 $d
     /tmp/ccqRaZSa.s:1482   .text.usb_lld_reset:0000000000000000 $t
     /tmp/ccqRaZSa.s:1490   .text.usb_lld_reset:0000000000000000 usb_lld_reset
     /tmp/ccqRaZSa.s:1666   .text.usb_lld_reset:00000000000000b4 $d
     /tmp/ccqRaZSa.s:1672   .text.usb_lld_set_address:0000000000000000 $t
     /tmp/ccqRaZSa.s:1680   .text.usb_lld_set_address:0000000000000000 usb_lld_set_address
     /tmp/ccqRaZSa.s:1703   .text.usb_lld_init_endpoint:0000000000000000 $t
     /tmp/ccqRaZSa.s:1711   .text.usb_lld_init_endpoint:0000000000000000 usb_lld_init_endpoint
     /tmp/ccqRaZSa.s:1942   .text.usb_lld_init_endpoint:0000000000000150 $d
     /tmp/ccqRaZSa.s:1951   .text.usb_lld_disable_endpoints:0000000000000000 $t
     /tmp/ccqRaZSa.s:1959   .text.usb_lld_disable_endpoints:0000000000000000 usb_lld_disable_endpoints
     /tmp/ccqRaZSa.s:2028   .text.usb_lld_get_status_out:0000000000000000 $t
     /tmp/ccqRaZSa.s:2036   .text.usb_lld_get_status_out:0000000000000000 usb_lld_get_status_out
     /tmp/ccqRaZSa.s:2068   .text.usb_lld_get_status_in:0000000000000000 $t
     /tmp/ccqRaZSa.s:2076   .text.usb_lld_get_status_in:0000000000000000 usb_lld_get_status_in
     /tmp/ccqRaZSa.s:2108   .text.usb_lld_read_setup:0000000000000000 $t
     /tmp/ccqRaZSa.s:2116   .text.usb_lld_read_setup:0000000000000000 usb_lld_read_setup
     /tmp/ccqRaZSa.s:2139   .text.usb_lld_prepare_receive:0000000000000000 $t
     /tmp/ccqRaZSa.s:2147   .text.usb_lld_prepare_receive:0000000000000000 usb_lld_prepare_receive
     /tmp/ccqRaZSa.s:2211   .text.usb_lld_prepare_receive:000000000000003c $d
     /tmp/ccqRaZSa.s:2216   .text.otg_epout_handler.constprop.7:0000000000000000 $t
     /tmp/ccqRaZSa.s:2223   .text.otg_epout_handler.constprop.7:0000000000000000 otg_epout_handler.constprop.7
     /tmp/ccqRaZSa.s:2384   .text.otg_epout_handler.constprop.7:0000000000000090 $d
     /tmp/ccqRaZSa.s:2389   .text.usb_lld_prepare_transmit:0000000000000000 $t
     /tmp/ccqRaZSa.s:2397   .text.usb_lld_prepare_transmit:0000000000000000 usb_lld_prepare_transmit
     /tmp/ccqRaZSa.s:2476   .text.otg_epin_handler.constprop.8:0000000000000000 $t
     /tmp/ccqRaZSa.s:2483   .text.otg_epin_handler.constprop.8:0000000000000000 otg_epin_handler.constprop.8
     /tmp/ccqRaZSa.s:2699   .text.otg_epin_handler.constprop.8:00000000000000b8 $d
     /tmp/ccqRaZSa.s:2712   .text.Vector14C:0000000000000000 $t
     /tmp/ccqRaZSa.s:2720   .text.Vector14C:0000000000000000 Vector14C
     /tmp/ccqRaZSa.s:3009   .text.Vector14C:00000000000000ec $d
     /tmp/ccqRaZSa.s:3017   .text.usb_lld_start_out:0000000000000000 $t
     /tmp/ccqRaZSa.s:3025   .text.usb_lld_start_out:0000000000000000 usb_lld_start_out
     /tmp/ccqRaZSa.s:3046   .text.usb_lld_start_in:0000000000000000 $t
     /tmp/ccqRaZSa.s:3054   .text.usb_lld_start_in:0000000000000000 usb_lld_start_in
     /tmp/ccqRaZSa.s:3093   .text.usb_lld_stall_out:0000000000000000 $t
     /tmp/ccqRaZSa.s:3101   .text.usb_lld_stall_out:0000000000000000 usb_lld_stall_out
     /tmp/ccqRaZSa.s:3122   .text.usb_lld_stall_in:0000000000000000 $t
     /tmp/ccqRaZSa.s:3130   .text.usb_lld_stall_in:0000000000000000 usb_lld_stall_in
     /tmp/ccqRaZSa.s:3151   .text.usb_lld_clear_out:0000000000000000 $t
     /tmp/ccqRaZSa.s:3159   .text.usb_lld_clear_out:0000000000000000 usb_lld_clear_out
     /tmp/ccqRaZSa.s:3180   .text.usb_lld_clear_in:0000000000000000 $t
     /tmp/ccqRaZSa.s:3188   .text.usb_lld_clear_in:0000000000000000 usb_lld_clear_in
ARM GAS  /tmp/ccqRaZSa.s 			page 335


     /tmp/ccqRaZSa.s:3214   .bss.USBD1:0000000000000000 USBD1
     /tmp/ccqRaZSa.s:3210   .bss.USBD1:0000000000000000 $d
     /tmp/ccqRaZSa.s:3217   .bss.ep0_state:0000000000000000 $d
     /tmp/ccqRaZSa.s:3220   .bss.ep0_state:0000000000000000 ep0_state
     /tmp/ccqRaZSa.s:3223   .bss.ep0setup_buffer:0000000000000000 $d
     /tmp/ccqRaZSa.s:3226   .bss.ep0setup_buffer:0000000000000000 ep0setup_buffer
     /tmp/ccqRaZSa.s:3229   .rodata.ep0config:0000000000000000 $d
     /tmp/ccqRaZSa.s:3233   .rodata.ep0config:0000000000000000 ep0config
     /tmp/ccqRaZSa.s:3246   .rodata.fsparams:0000000000000000 $d
     /tmp/ccqRaZSa.s:3250   .rodata.fsparams:0000000000000000 fsparams
     /tmp/ccqRaZSa.s:3255   .rodata.usb_lld_pump.str1.4:0000000000000000 $d

UNDEFINED SYMBOLS
chThdSuspendS
chThdDequeueAllI
chSchRescheduleS
ch
usbObjectInit
_thread_memfill
chSysPolledDelayX
nvicEnableVector
chThdCreateI
chSchReadyI
nvicDisableVector
chThdResumeI
_port_irq_epilogue
_usb_reset
_usb_ep0setup
_usb_ep0in
_usb_ep0out
