ARM GAS  /tmp/ccqRaZSa.s 			page 1


   1              		.cpu cortex-m4
   2              		.eabi_attribute 27, 1
   3              		.eabi_attribute 28, 1
   4              		.eabi_attribute 20, 1
   5              		.eabi_attribute 21, 1
   6              		.eabi_attribute 23, 3
   7              		.eabi_attribute 24, 1
   8              		.eabi_attribute 25, 1
   9              		.eabi_attribute 26, 1
  10              		.eabi_attribute 30, 2
  11              		.eabi_attribute 34, 1
  12              		.eabi_attribute 18, 4
  13              		.file	"usb_lld.c"
  14              		.text
  15              	.Ltext0:
  16              		.cfi_sections	.debug_frame
  17              		.section	.text.usb_lld_pump,"ax",%progbits
  18              		.align	1
  19              		.p2align 4,,15
  20              		.global	usb_lld_pump
  21              		.syntax unified
  22              		.thumb
  23              		.thumb_func
  24              		.fpu fpv4-sp-d16
  25              		.type	usb_lld_pump, %function
  26              	usb_lld_pump:
  27              	.LFB292:
  28              		.file 1 "ChibiOS_3.0.5/os/hal/ports/STM32/LLD/OTGv1/usb_lld.c"
  29              		.loc 1 1282 0
  30              		.cfi_startproc
  31              		@ args = 0, pretend = 0, frame = 24
  32              		@ frame_needed = 0, uses_anonymous_args = 0
  33              	.LVL0:
  34 0000 2DE9F04F 		push	{r4, r5, r6, r7, r8, r9, r10, fp, lr}
  35              		.cfi_def_cfa_offset 36
  36              		.cfi_offset 4, -36
  37              		.cfi_offset 5, -32
  38              		.cfi_offset 6, -28
  39              		.cfi_offset 7, -24
  40              		.cfi_offset 8, -20
  41              		.cfi_offset 9, -16
  42              		.cfi_offset 10, -12
  43              		.cfi_offset 11, -8
  44              		.cfi_offset 14, -4
  45              	.LBB432:
  46              	.LBB433:
  47              		.file 2 "ChibiOS_3.0.5/os/rt/include/chregistry.h"
  48              		.loc 2 135 0
  49 0004 AC4B     		ldr	r3, .L115
  50 0006 AD4A     		ldr	r2, .L115+4
  51 0008 9B69     		ldr	r3, [r3, #24]
  52              	.LVL1:
  53              	.LBE433:
  54              	.LBE432:
  55              		.loc 1 1284 0
  56 000a 056D     		ldr	r5, [r0, #80]
  57              	.LVL2:
ARM GAS  /tmp/ccqRaZSa.s 			page 2


  58              	.LBB435:
  59              	.LBB434:
  60              		.loc 2 135 0
  61 000c 9A61     		str	r2, [r3, #24]
  62              	.LVL3:
  63              	.LBE434:
  64              	.LBE435:
  65              		.loc 1 1282 0
  66 000e 87B0     		sub	sp, sp, #28
  67              		.cfi_def_cfa_offset 64
  68              	.LBB436:
  69              	.LBB437:
  70              	.LBB438:
  71              	.LBB439:
  72              	.LBB440:
  73              		.file 3 "ChibiOS_3.0.5/os/ext/CMSIS/include/core_cmFunc.h"
  74              		.loc 3 342 0
  75              		.syntax unified
  76              	@ 342 "ChibiOS_3.0.5/os/ext/CMSIS/include/core_cmFunc.h" 1
  77 0010 72B6     		cpsid i
  78              	@ 0 "" 2
  79              		.thumb
  80              		.syntax unified
  81 0012 00F16003 		add	r3, r0, #96
  82 0016 A946     		mov	r9, r5
  83 0018 0593     		str	r3, [sp, #20]
  84 001a 0546     		mov	r5, r0
  85              	.LVL4:
  86              	.L51:
  87              	.LBE440:
  88              	.LBE439:
  89              	.LBE438:
  90              	.LBE437:
  91              	.LBE436:
  92              	.LBB441:
  93              		.loc 1 1295 0
  94 001c 2B78     		ldrb	r3, [r5]	@ zero_extendqisi2
  95 001e 012B     		cmp	r3, #1
  96 0020 05D0     		beq	.L2
  97              		.loc 1 1295 0 is_stmt 0 discriminator 1
  98 0022 EB6D     		ldr	r3, [r5, #92]
  99 0024 63B9     		cbnz	r3, .L3
 100              		.loc 1 1296 0 is_stmt 1
 101 0026 D9F81430 		ldr	r3, [r9, #20]
 102 002a DA06     		lsls	r2, r3, #27
 103 002c 08D4     		bmi	.L3
 104              	.L2:
 105              		.loc 1 1297 0
 106 002e D9F81830 		ldr	r3, [r9, #24]
 107              	.LBB442:
 108              	.LBB443:
 109              		.file 4 "ChibiOS_3.0.5/os/hal/osal/rt/osal.h"
 110              		.loc 4 688 0
 111 0032 0598     		ldr	r0, [sp, #20]
 112              	.LBE443:
 113              	.LBE442:
 114              		.loc 1 1297 0
ARM GAS  /tmp/ccqRaZSa.s 			page 3


 115 0034 43F01003 		orr	r3, r3, #16
 116 0038 C9F81830 		str	r3, [r9, #24]
 117              	.LBB445:
 118              	.LBB444:
 119              		.loc 4 688 0
 120 003c FFF7FEFF 		bl	chThdSuspendS
 121              	.LVL5:
 122              	.L3:
 123              	.LBE444:
 124              	.LBE445:
 125              	.LBB446:
 126              	.LBB447:
 127              	.LBB448:
 128              	.LBB449:
 129              	.LBB450:
 130              	.LBB451:
 131              		.loc 3 331 0
 132              		.syntax unified
 133              	@ 331 "ChibiOS_3.0.5/os/ext/CMSIS/include/core_cmFunc.h" 1
 134 0040 62B6     		cpsie i
 135              	@ 0 "" 2
 136              	.LVL6:
 137              		.thumb
 138              		.syntax unified
 139              	.LBE451:
 140              	.LBE450:
 141              	.LBE449:
 142              	.LBE448:
 143              	.LBE447:
 144              	.LBE446:
 145              		.loc 1 1303 0
 146 0042 4FF0000A 		mov	r10, #0
 147              	.LVL7:
 148              	.L5:
 149              		.loc 1 1306 0
 150 0046 D9F81430 		ldr	r3, [r9, #20]
 151 004a DB06     		lsls	r3, r3, #27
 152 004c 57D5     		bpl	.L108
 153              	.L25:
 154              	.LVL8:
 155              	.LBB452:
 156              	.LBB453:
 157              		.loc 1 416 0
 158 004e 2A6D     		ldr	r2, [r5, #80]
 159 0050 136A     		ldr	r3, [r2, #32]
 160              	.LVL9:
 161              		.loc 1 417 0
 162 0052 03F4F011 		and	r1, r3, #1966080
 163 0056 B1F5802F 		cmp	r1, #262144
 164 005a 24D0     		beq	.L6
 165 005c B1F5402F 		cmp	r1, #786432
 166 0060 F1D1     		bne	.L5
 167              	.LVL10:
 168              		.loc 1 422 0
 169 0062 03F00F01 		and	r1, r3, #15
 170              	.LVL11:
 171              		.loc 1 423 0
ARM GAS  /tmp/ccqRaZSa.s 			page 4


 172 0066 05EB8101 		add	r1, r5, r1, lsl #2
 173              	.LVL12:
 174              		.loc 1 421 0
 175 006a C3F30A13 		ubfx	r3, r3, #4, #11
 176              	.LVL13:
 177              		.loc 1 423 0
 178 006e C968     		ldr	r1, [r1, #12]
 179              	.LBB454:
 180              	.LBB455:
 181              		.loc 1 335 0
 182 0070 0333     		adds	r3, r3, #3
 183              		.loc 1 337 0
 184 0072 9B08     		lsrs	r3, r3, #2
 185              	.LBE455:
 186              	.LBE454:
 187              		.loc 1 423 0
 188 0074 0C6A     		ldr	r4, [r1, #32]
 189              	.LVL14:
 190              	.LBB460:
 191              	.LBB459:
 192              		.loc 1 337 0
 193 0076 E6D0     		beq	.L5
 194 0078 02F58052 		add	r2, r2, #4096
 195              	.LVL15:
 196              		.loc 1 336 0
 197 007c 0221     		movs	r1, #2
 198              	.LVL16:
 199              	.LBB456:
 200              		.loc 1 338 0
 201 007e 1668     		ldr	r6, [r2]
 202              	.LVL17:
 203 0080 581E     		subs	r0, r3, #1
 204              		.loc 1 339 0
 205 0082 49B1     		cbz	r1, .L109
 206              	.L10:
 207              		.loc 1 344 0
 208 0084 0346     		mov	r3, r0
 209              		.loc 1 342 0
 210 0086 44F8046B 		str	r6, [r4], #4
 211              	.LVL18:
 212              		.loc 1 344 0
 213 008a 0139     		subs	r1, r1, #1
 214              	.LVL19:
 215              	.LBE456:
 216              		.loc 1 337 0
 217 008c 002B     		cmp	r3, #0
 218 008e DAD0     		beq	.L5
 219              	.LVL20:
 220              	.L107:
 221              	.LBB457:
 222              		.loc 1 338 0
 223 0090 1668     		ldr	r6, [r2]
 224              	.LVL21:
 225 0092 581E     		subs	r0, r3, #1
 226              		.loc 1 339 0
 227 0094 0029     		cmp	r1, #0
 228 0096 F5D1     		bne	.L10
ARM GAS  /tmp/ccqRaZSa.s 			page 5


 229              	.L109:
 230              	.LVL22:
 231              	.LBE457:
 232              		.loc 1 337 0
 233 0098 0028     		cmp	r0, #0
 234 009a D4D0     		beq	.L5
 235 009c 023B     		subs	r3, r3, #2
 236              	.LBB458:
 237              		.loc 1 338 0
 238 009e 1068     		ldr	r0, [r2]
 239              	.LVL23:
 240              	.LBE458:
 241              		.loc 1 337 0
 242 00a0 002B     		cmp	r3, #0
 243 00a2 F5D1     		bne	.L107
 244 00a4 CFE7     		b	.L5
 245              	.LVL24:
 246              	.L6:
 247              	.LBE459:
 248              	.LBE460:
 249              		.loc 1 428 0
 250 00a6 03F00F06 		and	r6, r3, #15
 251 00aa 05EB8606 		add	r6, r5, r6, lsl #2
 252              		.loc 1 427 0
 253 00ae C3F30A14 		ubfx	r4, r3, #4, #11
 254              	.LVL25:
 255              		.loc 1 429 0
 256 00b2 F368     		ldr	r3, [r6, #12]
 257              	.LVL26:
 258 00b4 9F69     		ldr	r7, [r3, #24]
 259 00b6 3B78     		ldrb	r3, [r7]	@ zero_extendqisi2
 260 00b8 F868     		ldr	r0, [r7, #12]
 261 00ba 002B     		cmp	r3, #0
 262 00bc 38D1     		bne	.L110
 263              		.loc 1 440 0
 264 00be D7E9011C 		ldrd	r1, ip, [r7, #4]
 265              	.LVL27:
 266              	.LBB461:
 267              	.LBB462:
 268              		.loc 1 336 0
 269 00c2 CE1C     		adds	r6, r1, #3
 270              		.loc 1 335 0
 271 00c4 E11C     		adds	r1, r4, #3
 272              	.LVL28:
 273              		.loc 1 336 0
 274 00c6 A6EB0C06 		sub	r6, r6, ip
 275              		.loc 1 337 0
 276 00ca 8908     		lsrs	r1, r1, #2
 277              		.loc 1 336 0
 278 00cc 4FEA9606 		lsr	r6, r6, #2
 279              	.LVL29:
 280              		.loc 1 337 0
 281 00d0 0DD0     		beq	.L21
 282 00d2 02F58052 		add	r2, r2, #4096
 283              	.LVL30:
 284 00d6 8646     		mov	lr, r0
 285 00d8 9046     		mov	r8, r2
ARM GAS  /tmp/ccqRaZSa.s 			page 6


 286              	.LVL31:
 287              	.L24:
 288              	.LBB463:
 289              		.loc 1 338 0
 290 00da D8F80020 		ldr	r2, [r8]
 291              	.LVL32:
 292 00de 4B1E     		subs	r3, r1, #1
 293              		.loc 1 339 0
 294 00e0 F6B1     		cbz	r6, .L111
 295              		.loc 1 344 0
 296 00e2 1946     		mov	r1, r3
 297              	.LVL33:
 298              		.loc 1 342 0
 299 00e4 4EF8042B 		str	r2, [lr], #4
 300              	.LVL34:
 301              		.loc 1 344 0
 302 00e8 013E     		subs	r6, r6, #1
 303              	.LVL35:
 304              	.LBE463:
 305              		.loc 1 337 0
 306 00ea 0029     		cmp	r1, #0
 307 00ec F5D1     		bne	.L24
 308              	.LVL36:
 309              	.L21:
 310              	.LBE462:
 311              	.LBE461:
 312              		.loc 1 441 0
 313 00ee 2044     		add	r0, r0, r4
 314 00f0 F860     		str	r0, [r7, #12]
 315              	.L20:
 316              	.LBE453:
 317              	.LBE452:
 318              		.loc 1 1306 0
 319 00f2 D9F81430 		ldr	r3, [r9, #20]
 320              	.LBB489:
 321              	.LBB486:
 322              		.loc 1 443 0
 323 00f6 6444     		add	r4, r4, ip
 324              	.LVL37:
 325              	.LBE486:
 326              	.LBE489:
 327              		.loc 1 1306 0
 328 00f8 DB06     		lsls	r3, r3, #27
 329              	.LBB490:
 330              	.LBB487:
 331              		.loc 1 443 0
 332 00fa BC60     		str	r4, [r7, #8]
 333              	.LBE487:
 334              	.LBE490:
 335              		.loc 1 1306 0
 336 00fc A7D4     		bmi	.L25
 337              	.LVL38:
 338              	.L108:
 339              		.loc 1 1311 0
 340 00fe EB6D     		ldr	r3, [r5, #92]
 341              		.loc 1 1310 0
 342 0100 0122     		movs	r2, #1
ARM GAS  /tmp/ccqRaZSa.s 			page 7


 343 0102 02FA0AF6 		lsl	r6, r2, r10
 344              	.LVL39:
 345              		.loc 1 1311 0
 346 0106 1E42     		tst	r6, r3
 347 0108 4AD1     		bne	.L100
 348 010a 0AEB0203 		add	r3, r10, r2
 349 010e 0293     		str	r3, [sp, #8]
 350              	.LVL40:
 351              	.L26:
 352              		.loc 1 1303 0 discriminator 2
 353 0110 6B6D     		ldr	r3, [r5, #84]
 354 0112 9DF808A0 		ldrb	r10, [sp, #8]	@ zero_extendqisi2
 355              	.LVL41:
 356 0116 9B68     		ldr	r3, [r3, #8]
 357 0118 9A45     		cmp	r10, r3
 358 011a 94D9     		bls	.L5
 359              	.LBB491:
 360              	.LBB492:
 361              	.LBB493:
 362              	.LBB494:
 363              	.LBB495:
 364              		.loc 3 342 0
 365              		.syntax unified
 366              	@ 342 "ChibiOS_3.0.5/os/ext/CMSIS/include/core_cmFunc.h" 1
 367 011c 72B6     		cpsid i
 368              	@ 0 "" 2
 369              		.thumb
 370              		.syntax unified
 371 011e 7DE7     		b	.L51
 372              	.LVL42:
 373              	.L111:
 374              	.LBE495:
 375              	.LBE494:
 376              	.LBE493:
 377              	.LBE492:
 378              	.LBE491:
 379              	.LBB496:
 380              	.LBB488:
 381              	.LBB466:
 382              	.LBB465:
 383              		.loc 1 337 0
 384 0120 002B     		cmp	r3, #0
 385 0122 E4D0     		beq	.L21
 386 0124 0239     		subs	r1, r1, #2
 387              	.LVL43:
 388              	.LBB464:
 389              		.loc 1 338 0
 390 0126 D8F80030 		ldr	r3, [r8]
 391              	.LVL44:
 392              	.LBE464:
 393              		.loc 1 337 0
 394 012a 0029     		cmp	r1, #0
 395 012c D5D1     		bne	.L24
 396 012e DEE7     		b	.L21
 397              	.LVL45:
 398              	.L110:
 399              	.LBE465:
ARM GAS  /tmp/ccqRaZSa.s 			page 8


 400              	.LBE466:
 401              	.LBB467:
 402              	.LBB468:
 403              		.loc 1 365 0
 404 0130 3CB3     		cbz	r4, .L14
 405 0132 4169     		ldr	r1, [r0, #20]
 406 0134 02F58052 		add	r2, r2, #4096
 407              	.LVL46:
 408 0138 A446     		mov	ip, r4
 409              	.LVL47:
 410              	.L15:
 411              	.LBB469:
 412              		.loc 1 369 0
 413 013a BCF1030F 		cmp	ip, #3
 414 013e 07D9     		bls	.L16
 415              	.LVL48:
 416              	.L112:
 417              	.LBB470:
 418              		.loc 1 375 0
 419 0140 0369     		ldr	r3, [r0, #16]
 420 0142 8B42     		cmp	r3, r1
 421 0144 04D8     		bhi	.L16
 422              		.loc 1 376 0
 423 0146 C168     		ldr	r1, [r0, #12]
 424 0148 4161     		str	r1, [r0, #20]
 425              	.LVL49:
 426              	.LBE470:
 427              		.loc 1 369 0
 428 014a BCF1030F 		cmp	ip, #3
 429 014e F7D8     		bhi	.L112
 430              	.LVL50:
 431              	.L16:
 432              		.loc 1 387 0
 433 0150 D2F800E0 		ldr	lr, [r2]
 434              	.LVL51:
 435 0154 0023     		movs	r3, #0
 436              	.LVL52:
 437              	.L19:
 438              		.loc 1 390 0
 439 0156 2EFA03F7 		lsr	r7, lr, r3
 440 015a 01F10108 		add	r8, r1, #1
 441 015e C0F81480 		str	r8, [r0, #20]
 442 0162 0F70     		strb	r7, [r1]
 443              		.loc 1 391 0
 444 0164 D0E90417 		ldrd	r1, r7, [r0, #16]
 445 0168 8F42     		cmp	r7, r1
 446              		.loc 1 392 0
 447 016a 24BF     		itt	cs
 448 016c C168     		ldrcs	r1, [r0, #12]
 449 016e 4161     		strcs	r1, [r0, #20]
 450              		.loc 1 389 0
 451 0170 BCF1010C 		subs	ip, ip, #1
 452              	.LVL53:
 453 0174 03F10803 		add	r3, r3, #8
 454 0178 03D0     		beq	.L14
 455 017a 202B     		cmp	r3, #32
 456 017c 4169     		ldr	r1, [r0, #20]
ARM GAS  /tmp/ccqRaZSa.s 			page 9


 457 017e EAD1     		bne	.L19
 458 0180 DBE7     		b	.L15
 459              	.LVL54:
 460              	.L14:
 461              	.LBE469:
 462              	.LBB471:
 463              	.LBB472:
 464              	.LBB473:
 465              	.LBB474:
 466              	.LBB475:
 467              		.loc 3 342 0
 468              		.syntax unified
 469              	@ 342 "ChibiOS_3.0.5/os/ext/CMSIS/include/core_cmFunc.h" 1
 470 0182 72B6     		cpsid i
 471              	@ 0 "" 2
 472              		.thumb
 473              		.syntax unified
 474              	.LBE475:
 475              	.LBE474:
 476              	.LBE473:
 477              	.LBE472:
 478              	.LBE471:
 479              		.loc 1 400 0
 480 0184 8368     		ldr	r3, [r0, #8]
 481 0186 2344     		add	r3, r3, r4
 482 0188 8360     		str	r3, [r0, #8]
 483              	.LVL55:
 484              	.LBB476:
 485              	.LBB477:
 486              		.loc 4 810 0
 487 018a 0021     		movs	r1, #0
 488 018c FFF7FEFF 		bl	chThdDequeueAllI
 489              	.LVL56:
 490              	.LBE477:
 491              	.LBE476:
 492              	.LBB478:
 493              	.LBB479:
 494              		.loc 4 600 0
 495 0190 FFF7FEFF 		bl	chSchRescheduleS
 496              	.LVL57:
 497              	.LBE479:
 498              	.LBE478:
 499              	.LBB480:
 500              	.LBB481:
 501              	.LBB482:
 502              	.LBB483:
 503              	.LBB484:
 504              	.LBB485:
 505              		.loc 3 331 0
 506              		.syntax unified
 507              	@ 331 "ChibiOS_3.0.5/os/ext/CMSIS/include/core_cmFunc.h" 1
 508 0194 62B6     		cpsie i
 509              	@ 0 "" 2
 510              		.thumb
 511              		.syntax unified
 512 0196 F368     		ldr	r3, [r6, #12]
 513 0198 9F69     		ldr	r7, [r3, #24]
ARM GAS  /tmp/ccqRaZSa.s 			page 10


 514 019a D7F808C0 		ldr	ip, [r7, #8]
 515 019e A8E7     		b	.L20
 516              	.LVL58:
 517              	.L100:
 518              	.LBE485:
 519              	.LBE484:
 520              	.LBE483:
 521              	.LBE482:
 522              	.LBE481:
 523              	.LBE480:
 524              	.LBE468:
 525              	.LBE467:
 526              	.LBE488:
 527              	.LBE496:
 528              	.LBB497:
 529              	.LBB498:
 530              	.LBB499:
 531              	.LBB500:
 532              	.LBB501:
 533              	.LBB502:
 534              		.loc 3 342 0
 535              		.syntax unified
 536              	@ 342 "ChibiOS_3.0.5/os/ext/CMSIS/include/core_cmFunc.h" 1
 537 01a0 72B6     		cpsid i
 538              	@ 0 "" 2
 539              		.thumb
 540              		.syntax unified
 541              	.LBE502:
 542              	.LBE501:
 543              	.LBE500:
 544              	.LBE499:
 545              	.LBE498:
 546              		.loc 1 1322 0
 547 01a2 D9F80820 		ldr	r2, [r9, #8]
 548              		.loc 1 1323 0
 549 01a6 EB6D     		ldr	r3, [r5, #92]
 550              		.loc 1 1322 0
 551 01a8 22F00102 		bic	r2, r2, #1
 552              		.loc 1 1323 0
 553 01ac 23EA0603 		bic	r3, r3, r6
 554              		.loc 1 1322 0
 555 01b0 C9F80820 		str	r2, [r9, #8]
 556              		.loc 1 1323 0
 557 01b4 EB65     		str	r3, [r5, #92]
 558              	.LBB503:
 559              	.LBB504:
 560              	.LBB505:
 561              	.LBB506:
 562              	.LBB507:
 563              	.LBB508:
 564              		.loc 3 331 0
 565              		.syntax unified
 566              	@ 331 "ChibiOS_3.0.5/os/ext/CMSIS/include/core_cmFunc.h" 1
 567 01b6 62B6     		cpsie i
 568              	@ 0 "" 2
 569              	.LVL59:
 570              		.thumb
ARM GAS  /tmp/ccqRaZSa.s 			page 11


 571              		.syntax unified
 572 01b8 05EB8A03 		add	r3, r5, r10, lsl #2
 573 01bc 1F46     		mov	r7, r3
 574              	.LBE508:
 575              	.LBE507:
 576              	.LBE506:
 577              	.LBE505:
 578              	.LBE504:
 579              	.LBE503:
 580              	.LBB509:
 581              	.LBB510:
 582              		.loc 1 467 0
 583 01be D968     		ldr	r1, [r3, #12]
 584 01c0 4A69     		ldr	r2, [r1, #20]
 585 01c2 D2E90130 		ldrd	r3, r0, [r2, #4]
 586 01c6 9842     		cmp	r0, r3
 587 01c8 80F0AD80 		bcs	.L113
 588              		.loc 1 477 0
 589 01cc D5F850E0 		ldr	lr, [r5, #80]
 590              		.loc 1 472 0
 591 01d0 0C8A     		ldrh	r4, [r1, #16]
 592              		.loc 1 477 0
 593 01d2 4FEA4A18 		lsl	r8, r10, #5
 594 01d6 0EEB080C 		add	ip, lr, r8
 595              		.loc 1 471 0
 596 01da 1B1A     		subs	r3, r3, r0
 597              	.LVL60:
 598              		.loc 1 477 0
 599 01dc DCF81809 		ldr	r0, [ip, #2328]
 600 01e0 9C42     		cmp	r4, r3
 601 01e2 28BF     		it	cs
 602 01e4 1C46     		movcs	r4, r3
 603              	.LVL61:
 604 01e6 83B2     		uxth	r3, r0
 605 01e8 B4EB830F 		cmp	r4, r3, lsl #2
 606 01ec 00F2A680 		bhi	.L29
 607 01f0 0AF10103 		add	r3, r10, #1
 608 01f4 0293     		str	r3, [sp, #8]
 609 01f6 1B03     		lsls	r3, r3, #12
 610 01f8 CDE90396 		strd	r9, r6, [sp, #12]
 611 01fc 0193     		str	r3, [sp, #4]
 612 01fe B946     		mov	r9, r7
 613              	.LVL62:
 614              	.L30:
 615 0200 019E     		ldr	r6, [sp, #4]
 616              		.loc 1 484 0
 617 0202 1378     		ldrb	r3, [r2]	@ zero_extendqisi2
 618 0204 D068     		ldr	r0, [r2, #12]
 619 0206 B644     		add	lr, lr, r6
 620 0208 002B     		cmp	r3, #0
 621 020a 75D0     		beq	.L33
 622              	.LVL63:
 623              	.LBB511:
 624              	.LBB512:
 625              		.loc 1 253 0
 626 020c FCB1     		cbz	r4, .L34
 627 020e D0F810B0 		ldr	fp, [r0, #16]
ARM GAS  /tmp/ccqRaZSa.s 			page 12


 628              	.LBB513:
 629              	.LBB514:
 630              		.loc 1 259 0
 631 0212 2246     		mov	r2, r4
 632              	.LVL64:
 633              	.L44:
 634              	.LBE514:
 635              		.loc 1 257 0
 636 0214 9708     		lsrs	r7, r2, #2
 637              	.LVL65:
 638 0216 8369     		ldr	r3, [r0, #24]
 639 0218 55D0     		beq	.L35
 640              	.LVL66:
 641              	.LBB519:
 642              		.loc 1 259 0
 643 021a BBEB0301 		subs	r1, fp, r3
 644 021e 48BF     		it	mi
 645 0220 0331     		addmi	r1, r1, #3
 646 0222 8E10     		asrs	r6, r1, #2
 647              		.loc 1 261 0
 648 0224 BE42     		cmp	r6, r7
 649 0226 28BF     		it	cs
 650 0228 3E46     		movcs	r6, r7
 651              	.LVL67:
 652 022a B100     		lsls	r1, r6, #2
 653 022c 521A     		subs	r2, r2, r1
 654              	.LVL68:
 655              	.LBB515:
 656              	.LBB516:
 657              		.loc 1 212 0
 658 022e 002E     		cmp	r6, #0
 659 0230 73D0     		beq	.L54
 660 0232 1944     		add	r1, r1, r3
 661              	.LVL69:
 662              	.L38:
 663              		.loc 1 215 0
 664 0234 53F8046B 		ldr	r6, [r3], #4
 665              	.LVL70:
 666 0238 CEF80060 		str	r6, [lr]
 667              	.LVL71:
 668              		.loc 1 212 0
 669 023c 8B42     		cmp	r3, r1
 670 023e F9D1     		bne	.L38
 671              	.LVL72:
 672              	.L37:
 673              	.LBE516:
 674              	.LBE515:
 675              		.loc 1 263 0
 676 0240 5945     		cmp	r1, fp
 677              		.loc 1 262 0
 678 0242 8161     		str	r1, [r0, #24]
 679              	.LVL73:
 680              		.loc 1 263 0
 681 0244 3CD3     		bcc	.L39
 682              		.loc 1 264 0
 683 0246 C368     		ldr	r3, [r0, #12]
 684 0248 8361     		str	r3, [r0, #24]
ARM GAS  /tmp/ccqRaZSa.s 			page 13


 685              	.LBE519:
 686              	.LBE513:
 687              		.loc 1 253 0
 688 024a 002A     		cmp	r2, #0
 689 024c E2D1     		bne	.L44
 690              	.LVL74:
 691              	.L34:
 692              	.LBB521:
 693              	.LBB522:
 694              	.LBB523:
 695              	.LBB524:
 696              	.LBB525:
 697              		.loc 3 342 0
 698              		.syntax unified
 699              	@ 342 "ChibiOS_3.0.5/os/ext/CMSIS/include/core_cmFunc.h" 1
 700 024e 72B6     		cpsid i
 701              	@ 0 "" 2
 702              		.thumb
 703              		.syntax unified
 704              	.LBE525:
 705              	.LBE524:
 706              	.LBE523:
 707              	.LBE522:
 708              	.LBE521:
 709              		.loc 1 289 0
 710 0250 8368     		ldr	r3, [r0, #8]
 711 0252 2344     		add	r3, r3, r4
 712 0254 8360     		str	r3, [r0, #8]
 713              	.LVL75:
 714              	.LBB526:
 715              	.LBB527:
 716              		.loc 4 810 0
 717 0256 0021     		movs	r1, #0
 718 0258 FFF7FEFF 		bl	chThdDequeueAllI
 719              	.LVL76:
 720              	.LBE527:
 721              	.LBE526:
 722              	.LBB528:
 723              	.LBB529:
 724              		.loc 4 600 0
 725 025c FFF7FEFF 		bl	chSchRescheduleS
 726              	.LVL77:
 727              	.LBE529:
 728              	.LBE528:
 729              	.LBB530:
 730              	.LBB531:
 731              	.LBB532:
 732              	.LBB533:
 733              	.LBB534:
 734              	.LBB535:
 735              		.loc 3 331 0
 736              		.syntax unified
 737              	@ 331 "ChibiOS_3.0.5/os/ext/CMSIS/include/core_cmFunc.h" 1
 738 0260 62B6     		cpsie i
 739              	@ 0 "" 2
 740              		.thumb
 741              		.syntax unified
ARM GAS  /tmp/ccqRaZSa.s 			page 14


 742 0262 D9F80C10 		ldr	r1, [r9, #12]
 743              	.LVL78:
 744              	.L45:
 745              	.LBE535:
 746              	.LBE534:
 747              	.LBE533:
 748              	.LBE532:
 749              	.LBE531:
 750              	.LBE530:
 751              	.LBE512:
 752              	.LBE511:
 753              		.loc 1 500 0
 754 0266 4A69     		ldr	r2, [r1, #20]
 755              		.loc 1 467 0
 756 0268 D2E90103 		ldrd	r0, r3, [r2, #4]
 757              		.loc 1 500 0
 758 026c 1C44     		add	r4, r4, r3
 759              	.LVL79:
 760              		.loc 1 467 0
 761 026e A042     		cmp	r0, r4
 762              		.loc 1 500 0
 763 0270 9460     		str	r4, [r2, #8]
 764              		.loc 1 467 0
 765 0272 54D9     		bls	.L114
 766              		.loc 1 477 0
 767 0274 D5F850E0 		ldr	lr, [r5, #80]
 768              		.loc 1 472 0
 769 0278 B1F810C0 		ldrh	ip, [r1, #16]
 770              		.loc 1 477 0
 771 027c 0EEB080A 		add	r10, lr, r8
 772              		.loc 1 471 0
 773 0280 041B     		subs	r4, r0, r4
 774              	.LVL80:
 775              		.loc 1 477 0
 776 0282 DAF81839 		ldr	r3, [r10, #2328]
 777 0286 6445     		cmp	r4, ip
 778 0288 28BF     		it	cs
 779 028a 6446     		movcs	r4, ip
 780              	.LVL81:
 781 028c 9BB2     		uxth	r3, r3
 782 028e B4EB830F 		cmp	r4, r3, lsl #2
 783 0292 B5D9     		bls	.L30
 784 0294 DDE90396 		ldrd	r9, r6, [sp, #12]
 785              		.loc 1 478 0
 786 0298 0022     		movs	r2, #0
 787              	.LVL82:
 788              	.L32:
 789              	.LBE510:
 790              	.LBE509:
 791              	.LBB547:
 792              	.LBB548:
 793              	.LBB549:
 794              	.LBB550:
 795              	.LBB551:
 796              		.loc 3 342 0
 797              		.syntax unified
 798              	@ 342 "ChibiOS_3.0.5/os/ext/CMSIS/include/core_cmFunc.h" 1
ARM GAS  /tmp/ccqRaZSa.s 			page 15


 799 029a 72B6     		cpsid i
 800              	@ 0 "" 2
 801              		.thumb
 802              		.syntax unified
 803              	.LBE551:
 804              	.LBE550:
 805              	.LBE549:
 806              	.LBE548:
 807              	.LBE547:
 808              		.loc 1 1329 0
 809 029c D9F80830 		ldr	r3, [r9, #8]
 810 02a0 43F00103 		orr	r3, r3, #1
 811 02a4 C9F80830 		str	r3, [r9, #8]
 812              		.loc 1 1330 0
 813 02a8 22B9     		cbnz	r2, .L28
 814              	.LVL83:
 815              	.L31:
 816              		.loc 1 1331 0
 817 02aa D9F83438 		ldr	r3, [r9, #2100]
 818 02ae 1E43     		orrs	r6, r6, r3
 819 02b0 C9F83468 		str	r6, [r9, #2100]
 820              	.L28:
 821              	.LBB560:
 822              	.LBB561:
 823              	.LBB562:
 824              	.LBB563:
 825              	.LBB564:
 826              	.LBB565:
 827              		.loc 3 331 0
 828              		.syntax unified
 829              	@ 331 "ChibiOS_3.0.5/os/ext/CMSIS/include/core_cmFunc.h" 1
 830 02b4 62B6     		cpsie i
 831              	@ 0 "" 2
 832              		.thumb
 833              		.syntax unified
 834 02b6 2BE7     		b	.L26
 835              	.L116:
 836              		.align	2
 837              	.L115:
 838 02b8 00000000 		.word	ch
 839 02bc 00000000 		.word	.LC0
 840              	.LVL84:
 841              	.L39:
 842              	.LBE565:
 843              	.LBE564:
 844              	.LBE563:
 845              	.LBE562:
 846              	.LBE561:
 847              	.LBE560:
 848              	.LBB566:
 849              	.LBB546:
 850              	.LBB540:
 851              	.LBB538:
 852              	.LBB536:
 853              		.loc 1 271 0
 854 02c0 002A     		cmp	r2, #0
 855 02c2 C4D0     		beq	.L34
ARM GAS  /tmp/ccqRaZSa.s 			page 16


 856 02c4 0B46     		mov	r3, r1
 857              	.L35:
 858 02c6 0021     		movs	r1, #0
 859 02c8 0E46     		mov	r6, r1
 860              	.LVL85:
 861              	.L43:
 862              		.loc 1 278 0
 863 02ca 5F1C     		adds	r7, r3, #1
 864 02cc 8761     		str	r7, [r0, #24]
 865 02ce 1B78     		ldrb	r3, [r3]	@ zero_extendqisi2
 866              		.loc 1 279 0
 867 02d0 5F45     		cmp	r7, fp
 868              		.loc 1 278 0
 869 02d2 03FA01F3 		lsl	r3, r3, r1
 870 02d6 46EA0306 		orr	r6, r6, r3
 871              	.LVL86:
 872              		.loc 1 280 0
 873 02da 24BF     		itt	cs
 874 02dc C368     		ldrcs	r3, [r0, #12]
 875 02de 8361     		strcs	r3, [r0, #24]
 876              		.loc 1 277 0
 877 02e0 013A     		subs	r2, r2, #1
 878              	.LVL87:
 879 02e2 04D0     		beq	.L42
 880 02e4 1829     		cmp	r1, #24
 881 02e6 02D0     		beq	.L42
 882 02e8 0831     		adds	r1, r1, #8
 883 02ea 8369     		ldr	r3, [r0, #24]
 884 02ec EDE7     		b	.L43
 885              	.L42:
 886              		.loc 1 284 0
 887 02ee CEF80060 		str	r6, [lr]
 888              	.LBE536:
 889              		.loc 1 253 0
 890 02f2 002A     		cmp	r2, #0
 891 02f4 8ED1     		bne	.L44
 892 02f6 AAE7     		b	.L34
 893              	.LVL88:
 894              	.L33:
 895              	.LBE538:
 896              	.LBE540:
 897              	.LBB541:
 898              	.LBB542:
 899              		.loc 1 235 0
 900 02f8 E31C     		adds	r3, r4, #3
 901              	.LVL89:
 902              	.LBB543:
 903              	.LBB544:
 904              		.loc 1 212 0
 905 02fa 9B08     		lsrs	r3, r3, #2
 906              	.LVL90:
 907 02fc 0AD0     		beq	.L46
 908 02fe 00EB8301 		add	r1, r0, r3, lsl #2
 909 0302 0346     		mov	r3, r0
 910              	.LVL91:
 911              	.L47:
 912              		.loc 1 215 0
ARM GAS  /tmp/ccqRaZSa.s 			page 17


 913 0304 53F8046B 		ldr	r6, [r3], #4
 914              	.LVL92:
 915 0308 CEF80060 		str	r6, [lr]
 916              	.LVL93:
 917              		.loc 1 212 0
 918 030c 8B42     		cmp	r3, r1
 919 030e F9D1     		bne	.L47
 920 0310 D9F80C10 		ldr	r1, [r9, #12]
 921              	.LVL94:
 922              	.L46:
 923              	.LBE544:
 924              	.LBE543:
 925              	.LBE542:
 926              	.LBE541:
 927              		.loc 1 495 0
 928 0314 2044     		add	r0, r0, r4
 929 0316 D060     		str	r0, [r2, #12]
 930 0318 A5E7     		b	.L45
 931              	.LVL95:
 932              	.L54:
 933              	.LBB545:
 934              	.LBB539:
 935              	.LBB537:
 936              	.LBB520:
 937              	.LBB518:
 938              	.LBB517:
 939              		.loc 1 212 0
 940 031a 1946     		mov	r1, r3
 941 031c 90E7     		b	.L37
 942              	.LVL96:
 943              	.L114:
 944 031e DDE90396 		ldrd	r9, r6, [sp, #12]
 945              	.LBE517:
 946              	.LBE518:
 947              	.LBE520:
 948              	.LBE537:
 949              	.LBE539:
 950              	.LBE545:
 951              		.loc 1 468 0
 952 0322 0122     		movs	r2, #1
 953 0324 B9E7     		b	.L32
 954              	.LVL97:
 955              	.L113:
 956              	.LBE546:
 957              	.LBE566:
 958              	.LBB567:
 959              	.LBB558:
 960              	.LBB556:
 961              	.LBB554:
 962              	.LBB552:
 963              		.loc 3 342 0
 964              		.syntax unified
 965              	@ 342 "ChibiOS_3.0.5/os/ext/CMSIS/include/core_cmFunc.h" 1
 966 0326 72B6     		cpsid i
 967              	@ 0 "" 2
 968              		.thumb
 969              		.syntax unified
ARM GAS  /tmp/ccqRaZSa.s 			page 18


 970              	.LBE552:
 971              	.LBE554:
 972              	.LBE556:
 973              	.LBE558:
 974              	.LBE567:
 975              		.loc 1 1329 0
 976 0328 D9F80830 		ldr	r3, [r9, #8]
 977 032c 0AF10102 		add	r2, r10, #1
 978 0330 43F00103 		orr	r3, r3, #1
 979 0334 0292     		str	r2, [sp, #8]
 980 0336 C9F80830 		str	r3, [r9, #8]
 981 033a BBE7     		b	.L28
 982              	.LVL98:
 983              	.L29:
 984              	.LBB568:
 985              	.LBB559:
 986              	.LBB557:
 987              	.LBB555:
 988              	.LBB553:
 989              		.loc 3 342 0
 990              		.syntax unified
 991              	@ 342 "ChibiOS_3.0.5/os/ext/CMSIS/include/core_cmFunc.h" 1
 992 033c 72B6     		cpsid i
 993              	@ 0 "" 2
 994              		.thumb
 995              		.syntax unified
 996              	.LBE553:
 997              	.LBE555:
 998              	.LBE557:
 999              	.LBE559:
 1000              	.LBE568:
 1001              		.loc 1 1329 0
 1002 033e D9F80830 		ldr	r3, [r9, #8]
 1003 0342 0AF10102 		add	r2, r10, #1
 1004 0346 43F00103 		orr	r3, r3, #1
 1005 034a 0292     		str	r2, [sp, #8]
 1006 034c C9F80830 		str	r3, [r9, #8]
 1007 0350 ABE7     		b	.L31
 1008              	.LBE497:
 1009              	.LBE441:
 1010              		.cfi_endproc
 1011              	.LFE292:
 1012              		.size	usb_lld_pump, .-usb_lld_pump
 1013 0352 00BF     		.section	.text.usb_lld_init,"ax",%progbits
 1014              		.align	1
 1015              		.p2align 4,,15
 1016              		.global	usb_lld_init
 1017              		.syntax unified
 1018              		.thumb
 1019              		.thumb_func
 1020              		.fpu fpv4-sp-d16
 1021              		.type	usb_lld_init, %function
 1022              	usb_lld_init:
 1023              	.LFB274:
 1024              		.loc 1 729 0
 1025              		.cfi_startproc
 1026              		@ args = 0, pretend = 0, frame = 0
ARM GAS  /tmp/ccqRaZSa.s 			page 19


 1027              		@ frame_needed = 0, uses_anonymous_args = 0
 1028 0000 38B5     		push	{r3, r4, r5, lr}
 1029              		.cfi_def_cfa_offset 16
 1030              		.cfi_offset 3, -16
 1031              		.cfi_offset 4, -12
 1032              		.cfi_offset 5, -8
 1033              		.cfi_offset 14, -4
 1034              		.loc 1 733 0
 1035 0002 0E4C     		ldr	r4, .L119
 1036 0004 2046     		mov	r0, r4
 1037 0006 FFF7FEFF 		bl	usbObjectInit
 1038              	.LVL99:
 1039              	.LBB569:
 1040              		.loc 1 745 0
 1041 000a 04F1B805 		add	r5, r4, #184
 1042              	.LBE569:
 1043              		.loc 1 735 0
 1044 000e 4FF0A043 		mov	r3, #1342177280
 1045              		.loc 1 736 0
 1046 0012 0B4A     		ldr	r2, .L119+4
 1047              		.loc 1 735 0
 1048 0014 2365     		str	r3, [r4, #80]
 1049              	.LBB570:
 1050              		.loc 1 745 0
 1051 0016 2946     		mov	r1, r5
 1052 0018 04F16800 		add	r0, r4, #104
 1053              	.LBE570:
 1054              		.loc 1 734 0
 1055 001c 0023     		movs	r3, #0
 1056              		.loc 1 736 0
 1057 001e 6265     		str	r2, [r4, #84]
 1058              	.LBB571:
 1059              		.loc 1 745 0
 1060 0020 FF22     		movs	r2, #255
 1061              	.LBE571:
 1062              		.loc 1 739 0
 1063 0022 C4E91833 		strd	r3, r3, [r4, #96]
 1064              	.LVL100:
 1065              	.LBB572:
 1066              		.loc 1 745 0
 1067 0026 FFF7FEFF 		bl	_thread_memfill
 1068              	.LVL101:
 1069              		.loc 1 748 0
 1070 002a 2846     		mov	r0, r5
 1071 002c 04F52271 		add	r1, r4, #648
 1072 0030 5522     		movs	r2, #85
 1073              	.LBE572:
 1074              		.loc 1 779 0
 1075 0032 BDE83840 		pop	{r3, r4, r5, lr}
 1076              		.cfi_restore 14
 1077              		.cfi_restore 5
 1078              		.cfi_restore 4
 1079              		.cfi_restore 3
 1080              		.cfi_def_cfa_offset 0
 1081              	.LBB573:
 1082              		.loc 1 748 0
 1083 0036 FFF7FEBF 		b	_thread_memfill
ARM GAS  /tmp/ccqRaZSa.s 			page 20


 1084              	.LVL102:
 1085              	.L120:
 1086 003a 00BF     		.align	2
 1087              	.L119:
 1088 003c 00000000 		.word	.LANCHOR0
 1089 0040 00000000 		.word	.LANCHOR1
 1090              	.LBE573:
 1091              		.cfi_endproc
 1092              	.LFE274:
 1093              		.size	usb_lld_init, .-usb_lld_init
 1094              		.section	.text.usb_lld_start,"ax",%progbits
 1095              		.align	1
 1096              		.p2align 4,,15
 1097              		.global	usb_lld_start
 1098              		.syntax unified
 1099              		.thumb
 1100              		.thumb_func
 1101              		.fpu fpv4-sp-d16
 1102              		.type	usb_lld_start, %function
 1103              	usb_lld_start:
 1104              	.LFB275:
 1105              		.loc 1 791 0
 1106              		.cfi_startproc
 1107              		@ args = 0, pretend = 0, frame = 0
 1108              		@ frame_needed = 0, uses_anonymous_args = 0
 1109              	.LVL103:
 1110              		.loc 1 794 0
 1111 0000 0378     		ldrb	r3, [r0]	@ zero_extendqisi2
 1112 0002 012B     		cmp	r3, #1
 1113 0004 00D0     		beq	.L138
 1114 0006 7047     		bx	lr
 1115              	.L138:
 1116              		.loc 1 791 0
 1117 0008 F0B5     		push	{r4, r5, r6, r7, lr}
 1118              		.cfi_def_cfa_offset 20
 1119              		.cfi_offset 4, -20
 1120              		.cfi_offset 5, -16
 1121              		.cfi_offset 6, -12
 1122              		.cfi_offset 7, -8
 1123              		.cfi_offset 14, -4
 1124              		.loc 1 798 0
 1125 000a 3D4B     		ldr	r3, .L142
 1126              		.loc 1 792 0
 1127 000c 066D     		ldr	r6, [r0, #80]
 1128              		.loc 1 798 0
 1129 000e 9842     		cmp	r0, r3
 1130              		.loc 1 791 0
 1131 0010 83B0     		sub	sp, sp, #12
 1132              		.cfi_def_cfa_offset 32
 1133 0012 0546     		mov	r5, r0
 1134              		.loc 1 798 0
 1135 0014 54D0     		beq	.L139
 1136              		.loc 1 792 0
 1137 0016 3446     		mov	r4, r6
 1138              	.LVL104:
 1139              	.L123:
 1140              		.loc 1 824 0
ARM GAS  /tmp/ccqRaZSa.s 			page 21


 1141 0018 0023     		movs	r3, #0
 1142              		.loc 1 829 0
 1143 001a 3A4A     		ldr	r2, .L142+4
 1144              		.loc 1 824 0
 1145 001c EB65     		str	r3, [r5, #92]
 1146              		.loc 1 832 0
 1147 001e 3A49     		ldr	r1, .L142+8
 1148              		.loc 1 829 0
 1149 0020 F260     		str	r2, [r6, #12]
 1150              		.loc 1 839 0
 1151 0022 4FF43412 		mov	r2, #2949120
 1152              		.loc 1 832 0
 1153 0026 C6F80018 		str	r1, [r6, #2048]
 1154              	.LBB584:
 1155              	.LBB585:
 1156              	.LBB586:
 1157              	.LBB587:
 1158              		.loc 4 573 0
 1159 002a 2020     		movs	r0, #32
 1160              	.LBE587:
 1161              	.LBE586:
 1162              	.LBE585:
 1163              	.LBE584:
 1164              		.loc 1 835 0
 1165 002c C6F8003E 		str	r3, [r6, #3584]
 1166              		.loc 1 839 0
 1167 0030 B263     		str	r2, [r6, #56]
 1168              	.LVL105:
 1169              	.LBB593:
 1170              	.LBB592:
 1171              	.LBB589:
 1172              	.LBB588:
 1173              		.loc 4 573 0
 1174 0032 FFF7FEFF 		bl	chSysPolledDelayX
 1175              	.LVL106:
 1176              	.LBE588:
 1177              	.LBE589:
 1178              		.loc 1 121 0
 1179 0036 0123     		movs	r3, #1
 1180 0038 2361     		str	r3, [r4, #16]
 1181              	.L124:
 1182              		.loc 1 122 0
 1183 003a 2369     		ldr	r3, [r4, #16]
 1184 003c DB07     		lsls	r3, r3, #31
 1185 003e FCD4     		bmi	.L124
 1186              	.LVL107:
 1187              	.LBB590:
 1188              	.LBB591:
 1189              		.loc 4 573 0
 1190 0040 0C20     		movs	r0, #12
 1191 0042 FFF7FEFF 		bl	chSysPolledDelayX
 1192              	.LVL108:
 1193              	.L125:
 1194              	.LBE591:
 1195              	.LBE590:
 1196              		.loc 1 128 0
 1197 0046 2369     		ldr	r3, [r4, #16]
ARM GAS  /tmp/ccqRaZSa.s 			page 22


 1198 0048 002B     		cmp	r3, #0
 1199 004a FCDA     		bge	.L125
 1200              	.LBE592:
 1201              	.LBE593:
 1202              		.loc 1 852 0
 1203 004c D5E91473 		ldrd	r7, r3, [r5, #80]
 1204              	.LVL109:
 1205 0050 9C68     		ldr	r4, [r3, #8]
 1206              		.loc 1 849 0
 1207 0052 0023     		movs	r3, #0
 1208              	.LBB594:
 1209              	.LBB595:
 1210              		.loc 1 136 0
 1211 0054 1946     		mov	r1, r3
 1212 0056 0134     		adds	r4, r4, #1
 1213              	.LBE595:
 1214              	.LBE594:
 1215              		.loc 1 849 0
 1216 0058 B360     		str	r3, [r6, #8]
 1217              	.LBB598:
 1218              	.LBB596:
 1219              		.loc 1 137 0
 1220 005a 1A46     		mov	r2, r3
 1221              		.loc 1 139 0
 1222 005c 4FF0FF30 		mov	r0, #-1
 1223              	.LVL110:
 1224              	.L126:
 1225 0060 07EB4113 		add	r3, r7, r1, lsl #5
 1226              		.loc 1 136 0
 1227 0064 0131     		adds	r1, r1, #1
 1228              	.LVL111:
 1229 0066 A142     		cmp	r1, r4
 1230              		.loc 1 137 0
 1231 0068 C3F80029 		str	r2, [r3, #2304]
 1232              		.loc 1 138 0
 1233 006c C3F81029 		str	r2, [r3, #2320]
 1234              		.loc 1 139 0
 1235 0070 C3F80809 		str	r0, [r3, #2312]
 1236              		.loc 1 141 0
 1237 0074 C3F8002B 		str	r2, [r3, #2816]
 1238              		.loc 1 142 0
 1239 0078 C3F8102B 		str	r2, [r3, #2832]
 1240              		.loc 1 143 0
 1241 007c C3F8080B 		str	r0, [r3, #2824]
 1242              		.loc 1 136 0
 1243 0080 EED1     		bne	.L126
 1244              	.LBE596:
 1245              	.LBE598:
 1246              		.loc 1 859 0
 1247 0082 6B68     		ldr	r3, [r5, #4]
 1248 0084 DB68     		ldr	r3, [r3, #12]
 1249              	.LBB599:
 1250              	.LBB597:
 1251              		.loc 1 145 0
 1252 0086 4FF00111 		mov	r1, #65537
 1253              	.LVL112:
 1254 008a C7F81C18 		str	r1, [r7, #2076]
ARM GAS  /tmp/ccqRaZSa.s 			page 23


 1255              	.LVL113:
 1256              	.LBE597:
 1257              	.LBE599:
 1258              		.loc 1 856 0
 1259 008e C6F81028 		str	r2, [r6, #2064]
 1260              		.loc 1 857 0
 1261 0092 C6F81428 		str	r2, [r6, #2068]
 1262              		.loc 1 858 0
 1263 0096 C6F81C28 		str	r2, [r6, #2076]
 1264              		.loc 1 859 0
 1265 009a 6BB1     		cbz	r3, .L140
 1266              		.loc 1 863 0
 1267 009c 43F20803 		movw	r3, #12296
 1268 00a0 B361     		str	r3, [r6, #24]
 1269              	.L128:
 1270              		.loc 1 869 0
 1271 00a2 6B6E     		ldr	r3, [r5, #100]
 1272              		.loc 1 865 0
 1273 00a4 4FF0FF32 		mov	r2, #-1
 1274 00a8 7261     		str	r2, [r6, #20]
 1275              		.loc 1 869 0
 1276 00aa D3B1     		cbz	r3, .L141
 1277              	.L129:
 1278              		.loc 1 879 0
 1279 00ac B368     		ldr	r3, [r6, #8]
 1280 00ae 43F00103 		orr	r3, r3, #1
 1281 00b2 B360     		str	r3, [r6, #8]
 1282              		.loc 1 881 0
 1283 00b4 03B0     		add	sp, sp, #12
 1284              		.cfi_remember_state
 1285              		.cfi_def_cfa_offset 20
 1286              		@ sp needed
 1287 00b6 F0BD     		pop	{r4, r5, r6, r7, pc}
 1288              	.LVL114:
 1289              	.L140:
 1290              		.cfi_restore_state
 1291              		.loc 1 860 0
 1292 00b8 4FF44053 		mov	r3, #12288
 1293 00bc B361     		str	r3, [r6, #24]
 1294 00be F0E7     		b	.L128
 1295              	.LVL115:
 1296              	.L139:
 1297              		.loc 1 800 0
 1298 00c0 124B     		ldr	r3, .L142+12
 1299 00c2 5A6B     		ldr	r2, [r3, #52]
 1300 00c4 42F08002 		orr	r2, r2, #128
 1301 00c8 5A63     		str	r2, [r3, #52]
 1302              		.loc 1 801 0
 1303 00ca 5A69     		ldr	r2, [r3, #20]
 1304 00cc 0020     		movs	r0, #0
 1305              	.LVL116:
 1306 00ce 42F08002 		orr	r2, r2, #128
 1307 00d2 5A61     		str	r2, [r3, #20]
 1308              		.loc 1 804 0
 1309 00d4 0E21     		movs	r1, #14
 1310              		.loc 1 801 0
 1311 00d6 5861     		str	r0, [r3, #20]
ARM GAS  /tmp/ccqRaZSa.s 			page 24


 1312              		.loc 1 804 0
 1313 00d8 4320     		movs	r0, #67
 1314 00da FFF7FEFF 		bl	nvicEnableVector
 1315              	.LVL117:
 1316 00de 2C6D     		ldr	r4, [r5, #80]
 1317 00e0 9AE7     		b	.L123
 1318              	.LVL118:
 1319              	.L141:
 1320              		.loc 1 870 0
 1321 00e2 0B4B     		ldr	r3, .L142+16
 1322 00e4 0095     		str	r5, [sp]
 1323 00e6 7E22     		movs	r2, #126
 1324 00e8 4FF40871 		mov	r1, #544
 1325 00ec 05F16800 		add	r0, r5, #104
 1326 00f0 FFF7FEFF 		bl	chThdCreateI
 1327              	.LVL119:
 1328 00f4 6866     		str	r0, [r5, #100]
 1329              	.LVL120:
 1330              	.LBB600:
 1331              	.LBB601:
 1332              		.file 5 "ChibiOS_3.0.5/os/rt/include/chthreads.h"
 1333              		.loc 5 249 0
 1334 00f6 FFF7FEFF 		bl	chSchReadyI
 1335              	.LVL121:
 1336              	.LBE601:
 1337              	.LBE600:
 1338              		.loc 1 874 0
 1339 00fa FFF7FEFF 		bl	chSchRescheduleS
 1340              	.LVL122:
 1341 00fe D5E7     		b	.L129
 1342              	.L143:
 1343              		.align	2
 1344              	.L142:
 1345 0100 00000000 		.word	.LANCHOR0
 1346 0104 40140040 		.word	1073747008
 1347 0108 03002002 		.word	35651587
 1348 010c 00380240 		.word	1073887232
 1349 0110 00000000 		.word	usb_lld_pump
 1350              		.cfi_endproc
 1351              	.LFE275:
 1352              		.size	usb_lld_start, .-usb_lld_start
 1353              		.section	.text.usb_lld_stop,"ax",%progbits
 1354              		.align	1
 1355              		.p2align 4,,15
 1356              		.global	usb_lld_stop
 1357              		.syntax unified
 1358              		.thumb
 1359              		.thumb_func
 1360              		.fpu fpv4-sp-d16
 1361              		.type	usb_lld_stop, %function
 1362              	usb_lld_stop:
 1363              	.LFB276:
 1364              		.loc 1 890 0
 1365              		.cfi_startproc
 1366              		@ args = 0, pretend = 0, frame = 0
 1367              		@ frame_needed = 0, uses_anonymous_args = 0
 1368              	.LVL123:
ARM GAS  /tmp/ccqRaZSa.s 			page 25


 1369              		.loc 1 894 0
 1370 0000 0378     		ldrb	r3, [r0]	@ zero_extendqisi2
 1371 0002 012B     		cmp	r3, #1
 1372 0004 26D0     		beq	.L151
 1373              		.loc 1 890 0
 1374 0006 70B5     		push	{r4, r5, r6, lr}
 1375              		.cfi_def_cfa_offset 16
 1376              		.cfi_offset 4, -16
 1377              		.cfi_offset 5, -12
 1378              		.cfi_offset 6, -8
 1379              		.cfi_offset 14, -4
 1380              		.loc 1 891 0
 1381 0008 D0E91453 		ldrd	r5, r3, [r0, #80]
 1382              	.LVL124:
 1383 000c 9E68     		ldr	r6, [r3, #8]
 1384              	.LBB602:
 1385              	.LBB603:
 1386              		.loc 1 136 0
 1387 000e 0021     		movs	r1, #0
 1388 0010 0136     		adds	r6, r6, #1
 1389              		.loc 1 137 0
 1390 0012 0A46     		mov	r2, r1
 1391              		.loc 1 139 0
 1392 0014 4FF0FF34 		mov	r4, #-1
 1393              	.LVL125:
 1394              	.L147:
 1395 0018 05EB4113 		add	r3, r5, r1, lsl #5
 1396              		.loc 1 136 0
 1397 001c 0131     		adds	r1, r1, #1
 1398              	.LVL126:
 1399 001e B142     		cmp	r1, r6
 1400              		.loc 1 137 0
 1401 0020 C3F80029 		str	r2, [r3, #2304]
 1402              		.loc 1 138 0
 1403 0024 C3F81029 		str	r2, [r3, #2320]
 1404              		.loc 1 139 0
 1405 0028 C3F80849 		str	r4, [r3, #2312]
 1406              		.loc 1 141 0
 1407 002c C3F8002B 		str	r2, [r3, #2816]
 1408              		.loc 1 142 0
 1409 0030 C3F8102B 		str	r2, [r3, #2832]
 1410              		.loc 1 143 0
 1411 0034 C3F8084B 		str	r4, [r3, #2824]
 1412              		.loc 1 136 0
 1413 0038 EED1     		bne	.L147
 1414              	.LBE603:
 1415              	.LBE602:
 1416              		.loc 1 907 0
 1417 003a 0B4B     		ldr	r3, .L155
 1418              	.LBB606:
 1419              	.LBB604:
 1420              		.loc 1 145 0
 1421 003c 4FF00111 		mov	r1, #65537
 1422              	.LVL127:
 1423              	.LBE604:
 1424              	.LBE606:
 1425              		.loc 1 907 0
ARM GAS  /tmp/ccqRaZSa.s 			page 26


 1426 0040 9842     		cmp	r0, r3
 1427              	.LBB607:
 1428              	.LBB605:
 1429              		.loc 1 145 0
 1430 0042 C5F81C18 		str	r1, [r5, #2076]
 1431              	.LVL128:
 1432              	.LBE605:
 1433              	.LBE607:
 1434              		.loc 1 900 0
 1435 0046 C265     		str	r2, [r0, #92]
 1436              		.loc 1 902 0
 1437 0048 C5F81C28 		str	r2, [r5, #2076]
 1438              		.loc 1 903 0
 1439 004c AA60     		str	r2, [r5, #8]
 1440              		.loc 1 904 0
 1441 004e AA63     		str	r2, [r5, #56]
 1442              		.loc 1 907 0
 1443 0050 01D0     		beq	.L154
 1444              		.loc 1 920 0
 1445 0052 70BD     		pop	{r4, r5, r6, pc}
 1446              	.LVL129:
 1447              	.L151:
 1448              		.cfi_def_cfa_offset 0
 1449              		.cfi_restore 4
 1450              		.cfi_restore 5
 1451              		.cfi_restore 6
 1452              		.cfi_restore 14
 1453 0054 7047     		bx	lr
 1454              	.LVL130:
 1455              	.L154:
 1456              		.cfi_def_cfa_offset 16
 1457              		.cfi_offset 4, -16
 1458              		.cfi_offset 5, -12
 1459              		.cfi_offset 6, -8
 1460              		.cfi_offset 14, -4
 1461              		.loc 1 908 0
 1462 0056 4320     		movs	r0, #67
 1463              	.LVL131:
 1464 0058 FFF7FEFF 		bl	nvicDisableVector
 1465              	.LVL132:
 1466              		.loc 1 909 0
 1467 005c 034A     		ldr	r2, .L155+4
 1468 005e 536B     		ldr	r3, [r2, #52]
 1469 0060 23F08003 		bic	r3, r3, #128
 1470 0064 5363     		str	r3, [r2, #52]
 1471              		.loc 1 920 0
 1472 0066 70BD     		pop	{r4, r5, r6, pc}
 1473              	.L156:
 1474              		.align	2
 1475              	.L155:
 1476 0068 00000000 		.word	.LANCHOR0
 1477 006c 00380240 		.word	1073887232
 1478              		.cfi_endproc
 1479              	.LFE276:
 1480              		.size	usb_lld_stop, .-usb_lld_stop
 1481              		.section	.text.usb_lld_reset,"ax",%progbits
 1482              		.align	1
ARM GAS  /tmp/ccqRaZSa.s 			page 27


 1483              		.p2align 4,,15
 1484              		.global	usb_lld_reset
 1485              		.syntax unified
 1486              		.thumb
 1487              		.thumb_func
 1488              		.fpu fpv4-sp-d16
 1489              		.type	usb_lld_reset, %function
 1490              	usb_lld_reset:
 1491              	.LFB277:
 1492              		.loc 1 929 0
 1493              		.cfi_startproc
 1494              		@ args = 0, pretend = 0, frame = 0
 1495              		@ frame_needed = 0, uses_anonymous_args = 0
 1496              	.LVL133:
 1497 0000 F8B5     		push	{r3, r4, r5, r6, r7, lr}
 1498              		.cfi_def_cfa_offset 24
 1499              		.cfi_offset 3, -24
 1500              		.cfi_offset 4, -20
 1501              		.cfi_offset 5, -16
 1502              		.cfi_offset 6, -12
 1503              		.cfi_offset 7, -8
 1504              		.cfi_offset 14, -4
 1505              		.loc 1 931 0
 1506 0002 056D     		ldr	r5, [r0, #80]
 1507              	.LVL134:
 1508              	.LBB608:
 1509              	.LBB609:
 1510              		.loc 1 161 0
 1511 0004 2023     		movs	r3, #32
 1512              	.LBE609:
 1513              	.LBE608:
 1514              		.loc 1 929 0
 1515 0006 0646     		mov	r6, r0
 1516              	.LVL135:
 1517              	.LBB613:
 1518              	.LBB612:
 1519              		.loc 1 161 0
 1520 0008 2B61     		str	r3, [r5, #16]
 1521              	.L158:
 1522              		.loc 1 162 0
 1523 000a 2C69     		ldr	r4, [r5, #16]
 1524 000c 14F02004 		ands	r4, r4, #32
 1525 0010 FBD1     		bne	.L158
 1526              	.LVL136:
 1527              	.LBB610:
 1528              	.LBB611:
 1529              		.loc 4 573 0
 1530 0012 0C20     		movs	r0, #12
 1531              	.LVL137:
 1532 0014 FFF7FEFF 		bl	chSysPolledDelayX
 1533              	.LVL138:
 1534              	.LBE611:
 1535              	.LBE610:
 1536              	.LBE612:
 1537              	.LBE613:
 1538              		.loc 1 941 0
 1539 0018 776D     		ldr	r7, [r6, #84]
ARM GAS  /tmp/ccqRaZSa.s 			page 28


 1540              		.loc 1 937 0
 1541 001a C5F83448 		str	r4, [r5, #2100]
 1542 001e BA68     		ldr	r2, [r7, #8]
 1543              		.loc 1 938 0
 1544 0020 4FF00111 		mov	r1, #65537
 1545              		.loc 1 941 0
 1546 0024 2346     		mov	r3, r4
 1547              		.loc 1 938 0
 1548 0026 C5F81C18 		str	r1, [r5, #2076]
 1549              	.LVL139:
 1550 002a 541C     		adds	r4, r2, #1
 1551              		.loc 1 942 0
 1552 002c 4FF00060 		mov	r0, #134217728
 1553              		.loc 1 944 0
 1554 0030 4FF0FF31 		mov	r1, #-1
 1555              	.LVL140:
 1556              	.L159:
 1557 0034 05EB4312 		add	r2, r5, r3, lsl #5
 1558              		.loc 1 941 0 discriminator 3
 1559 0038 0133     		adds	r3, r3, #1
 1560              	.LVL141:
 1561 003a 9C42     		cmp	r4, r3
 1562              		.loc 1 942 0 discriminator 3
 1563 003c C2F80009 		str	r0, [r2, #2304]
 1564              		.loc 1 943 0 discriminator 3
 1565 0040 C2F8000B 		str	r0, [r2, #2816]
 1566              		.loc 1 944 0 discriminator 3
 1567 0044 C2F80819 		str	r1, [r2, #2312]
 1568              		.loc 1 945 0 discriminator 3
 1569 0048 C2F8081B 		str	r1, [r2, #2824]
 1570              		.loc 1 941 0 discriminator 3
 1571 004c F2D1     		bne	.L159
 1572              	.LVL142:
 1573              	.LBB614:
 1574              	.LBB615:
 1575              		.loc 1 177 0
 1576 004e 3B68     		ldr	r3, [r7]
 1577              	.LVL143:
 1578 0050 B365     		str	r3, [r6, #88]
 1579              	.LBE615:
 1580              	.LBE614:
 1581              		.loc 1 952 0
 1582 0052 3B68     		ldr	r3, [r7]
 1583              		.loc 1 953 0
 1584 0054 326D     		ldr	r2, [r6, #80]
 1585              	.LVL144:
 1586              		.loc 1 952 0
 1587 0056 6B62     		str	r3, [r5, #36]
 1588              	.LBB616:
 1589              	.LBB617:
 1590              		.loc 1 151 0
 1591 0058 1023     		movs	r3, #16
 1592 005a 1361     		str	r3, [r2, #16]
 1593              	.L160:
 1594              		.loc 1 152 0
 1595 005c 1469     		ldr	r4, [r2, #16]
 1596 005e 14F01004 		ands	r4, r4, #16
ARM GAS  /tmp/ccqRaZSa.s 			page 29


 1597 0062 FBD1     		bne	.L160
 1598              	.LVL145:
 1599              	.LBB618:
 1600              	.LBB619:
 1601              		.loc 4 573 0
 1602 0064 0C20     		movs	r0, #12
 1603 0066 FFF7FEFF 		bl	chSysPolledDelayX
 1604              	.LVL146:
 1605              	.LBE619:
 1606              	.LBE618:
 1607              	.LBE617:
 1608              	.LBE616:
 1609              		.loc 1 956 0
 1610 006a D5F80038 		ldr	r3, [r5, #2048]
 1611              		.loc 1 966 0
 1612 006e 114A     		ldr	r2, .L165
 1613              		.loc 1 964 0
 1614 0070 1149     		ldr	r1, .L165+4
 1615              		.loc 1 956 0
 1616 0072 23F4FE63 		bic	r3, r3, #2032
 1617 0076 C5F80038 		str	r3, [r5, #2048]
 1618              		.loc 1 959 0
 1619 007a AB69     		ldr	r3, [r5, #24]
 1620 007c 43F44023 		orr	r3, r3, #786432
 1621 0080 43F01003 		orr	r3, r3, #16
 1622 0084 AB61     		str	r3, [r5, #24]
 1623              		.loc 1 960 0
 1624 0086 0923     		movs	r3, #9
 1625 0088 C5F81038 		str	r3, [r5, #2064]
 1626              		.loc 1 961 0
 1627 008c C5F81438 		str	r3, [r5, #2068]
 1628              		.loc 1 964 0
 1629 0090 F160     		str	r1, [r6, #12]
 1630              		.loc 1 965 0
 1631 0092 C5F8104B 		str	r4, [r5, #2832]
 1632              		.loc 1 966 0
 1633 0096 C5F8002B 		str	r2, [r5, #2816]
 1634              		.loc 1 968 0
 1635 009a C5F81049 		str	r4, [r5, #2320]
 1636              		.loc 1 969 0
 1637 009e C5F80029 		str	r2, [r5, #2304]
 1638              	.LVL147:
 1639              	.LBB620:
 1640              	.LBB621:
 1641              		.loc 1 191 0
 1642 00a2 B36D     		ldr	r3, [r6, #88]
 1643              	.LVL148:
 1644              		.loc 1 192 0
 1645 00a4 03F11002 		add	r2, r3, #16
 1646              	.LBE621:
 1647              	.LBE620:
 1648              		.loc 1 971 0
 1649 00a8 43F48013 		orr	r3, r3, #1048576
 1650              	.LVL149:
 1651              	.LBB623:
 1652              	.LBB622:
 1653              		.loc 1 192 0
ARM GAS  /tmp/ccqRaZSa.s 			page 30


 1654 00ac B265     		str	r2, [r6, #88]
 1655              	.LVL150:
 1656              	.LBE622:
 1657              	.LBE623:
 1658              		.loc 1 971 0
 1659 00ae AB62     		str	r3, [r5, #40]
 1660              		.loc 1 974 0
 1661 00b0 F8BD     		pop	{r3, r4, r5, r6, r7, pc}
 1662              	.LVL151:
 1663              	.L166:
 1664 00b2 00BF     		.align	2
 1665              	.L165:
 1666 00b4 40800010 		.word	268468288
 1667 00b8 00000000 		.word	.LANCHOR2
 1668              		.cfi_endproc
 1669              	.LFE277:
 1670              		.size	usb_lld_reset, .-usb_lld_reset
 1671              		.section	.text.usb_lld_set_address,"ax",%progbits
 1672              		.align	1
 1673              		.p2align 4,,15
 1674              		.global	usb_lld_set_address
 1675              		.syntax unified
 1676              		.thumb
 1677              		.thumb_func
 1678              		.fpu fpv4-sp-d16
 1679              		.type	usb_lld_set_address, %function
 1680              	usb_lld_set_address:
 1681              	.LFB278:
 1682              		.loc 1 983 0
 1683              		.cfi_startproc
 1684              		@ args = 0, pretend = 0, frame = 0
 1685              		@ frame_needed = 0, uses_anonymous_args = 0
 1686              		@ link register save eliminated.
 1687              	.LVL152:
 1688              		.loc 1 984 0
 1689 0000 026D     		ldr	r2, [r0, #80]
 1690              	.LVL153:
 1691              		.loc 1 986 0
 1692 0002 90F84E10 		ldrb	r1, [r0, #78]	@ zero_extendqisi2
 1693 0006 D2F80038 		ldr	r3, [r2, #2048]
 1694 000a 23F4FE63 		bic	r3, r3, #2032
 1695 000e 43EA0113 		orr	r3, r3, r1, lsl #4
 1696 0012 C2F80038 		str	r3, [r2, #2048]
 1697              		.loc 1 987 0
 1698 0016 7047     		bx	lr
 1699              		.cfi_endproc
 1700              	.LFE278:
 1701              		.size	usb_lld_set_address, .-usb_lld_set_address
 1702              		.section	.text.usb_lld_init_endpoint,"ax",%progbits
 1703              		.align	1
 1704              		.p2align 4,,15
 1705              		.global	usb_lld_init_endpoint
 1706              		.syntax unified
 1707              		.thumb
 1708              		.thumb_func
 1709              		.fpu fpv4-sp-d16
 1710              		.type	usb_lld_init_endpoint, %function
ARM GAS  /tmp/ccqRaZSa.s 			page 31


 1711              	usb_lld_init_endpoint:
 1712              	.LFB279:
 1713              		.loc 1 997 0
 1714              		.cfi_startproc
 1715              		@ args = 0, pretend = 0, frame = 0
 1716              		@ frame_needed = 0, uses_anonymous_args = 0
 1717              	.LVL154:
 1718 0000 2DE9F843 		push	{r3, r4, r5, r6, r7, r8, r9, lr}
 1719              		.cfi_def_cfa_offset 32
 1720              		.cfi_offset 3, -32
 1721              		.cfi_offset 4, -28
 1722              		.cfi_offset 5, -24
 1723              		.cfi_offset 6, -20
 1724              		.cfi_offset 7, -16
 1725              		.cfi_offset 8, -12
 1726              		.cfi_offset 9, -8
 1727              		.cfi_offset 14, -4
 1728 0004 0FFA81F8 		sxth	r8, r1
 1729 0008 00EB8807 		add	r7, r0, r8, lsl #2
 1730              		.loc 1 997 0
 1731 000c 0D46     		mov	r5, r1
 1732              	.LVL155:
 1733              		.loc 1 1002 0
 1734 000e FB68     		ldr	r3, [r7, #12]
 1735 0010 1A68     		ldr	r2, [r3]
 1736 0012 02F00302 		and	r2, r2, #3
 1737 0016 022A     		cmp	r2, #2
 1738 0018 00F09780 		beq	.L170
 1739 001c 032A     		cmp	r2, #3
 1740 001e 00F09180 		beq	.L171
 1741              		.loc 1 1004 0
 1742 0022 4B4C     		ldr	r4, .L184
 1743 0024 4B49     		ldr	r1, .L184+4
 1744              	.LVL156:
 1745 0026 012A     		cmp	r2, #1
 1746 0028 0CBF     		ite	eq
 1747 002a A146     		moveq	r9, r4
 1748 002c 8946     		movne	r9, r1
 1749              	.L172:
 1750              		.loc 1 999 0
 1751 002e 046D     		ldr	r4, [r0, #80]
 1752              	.LVL157:
 1753              		.loc 1 1021 0
 1754 0030 DE68     		ldr	r6, [r3, #12]
 1755              		.loc 1 1020 0
 1756 0032 6901     		lsls	r1, r5, #5
 1757 0034 6218     		adds	r2, r4, r1
 1758 0036 4FF0000C 		mov	ip, #0
 1759 003a C2F810CB 		str	ip, [r2, #2832]
 1760 003e 05F11002 		add	r2, r5, #16
 1761 0042 4FF0010C 		mov	ip, #1
 1762 0046 0CFA02F2 		lsl	r2, ip, r2
 1763              		.loc 1 1021 0
 1764 004a 002E     		cmp	r6, #0
 1765 004c 4BD0     		beq	.L173
 1766              		.loc 1 1022 0
 1767 004e B3F812C0 		ldrh	ip, [r3, #18]
ARM GAS  /tmp/ccqRaZSa.s 			page 32


 1768 0052 05F15806 		add	r6, r5, #88
 1769 0056 7601     		lsls	r6, r6, #5
 1770 0058 4CEA090C 		orr	ip, ip, r9
 1771 005c 44F806C0 		str	ip, [r4, r6]
 1772              		.loc 1 1023 0
 1773 0060 D4F81C68 		ldr	r6, [r4, #2076]
 1774 0064 3243     		orrs	r2, r2, r6
 1775 0066 C4F81C28 		str	r2, [r4, #2076]
 1776              	.L174:
 1777              		.loc 1 1031 0
 1778 006a 6618     		adds	r6, r4, r1
 1779              		.loc 1 1032 0
 1780 006c D3F808C0 		ldr	ip, [r3, #8]
 1781              		.loc 1 1031 0
 1782 0070 0022     		movs	r2, #0
 1783 0072 A901     		lsls	r1, r5, #6
 1784 0074 C6F81029 		str	r2, [r6, #2320]
 1785 0078 41F02001 		orr	r1, r1, #32
 1786 007c 6A1E     		subs	r2, r5, #1
 1787              		.loc 1 1032 0
 1788 007e BCF1000F 		cmp	ip, #0
 1789 0082 3FD0     		beq	.L175
 1790              		.loc 1 1035 0
 1791 0084 B3F81CC0 		ldrh	ip, [r3, #28]
 1792              		.loc 1 1034 0
 1793 0088 1E8A     		ldrh	r6, [r3, #16]
 1794              		.loc 1 1035 0
 1795 008a BCF1010F 		cmp	ip, #1
 1796              		.loc 1 1034 0
 1797 008e 4FEA9603 		lsr	r3, r6, #2
 1798              	.LVL158:
 1799              		.loc 1 1037 0
 1800 0092 02F14002 		add	r2, r2, #64
 1801              	.LBB624:
 1802              	.LBB625:
 1803              		.loc 1 191 0
 1804 0096 866D     		ldr	r6, [r0, #88]
 1805              	.LBE625:
 1806              	.LBE624:
 1807              		.loc 1 1036 0
 1808 0098 88BF     		it	hi
 1809 009a 0CFB03F3 		mulhi	r3, ip, r3
 1810              	.LVL159:
 1811              		.loc 1 1037 0
 1812 009e 04EB8202 		add	r2, r4, r2, lsl #2
 1813              	.LBB628:
 1814              	.LBB626:
 1815              		.loc 1 192 0
 1816 00a2 03EB060C 		add	ip, r3, r6
 1817              	.LBE626:
 1818              	.LBE628:
 1819              		.loc 1 1037 0
 1820 00a6 46EA0343 		orr	r3, r6, r3, lsl #16
 1821              	.LVL160:
 1822              	.LBB629:
 1823              	.LBB627:
 1824              		.loc 1 192 0
ARM GAS  /tmp/ccqRaZSa.s 			page 33


 1825 00aa C0F858C0 		str	ip, [r0, #88]
 1826              	.LVL161:
 1827              	.LBE627:
 1828              	.LBE629:
 1829              		.loc 1 1037 0
 1830 00ae 5360     		str	r3, [r2, #4]
 1831              	.LVL162:
 1832              	.LBB630:
 1833              	.LBB631:
 1834              		.loc 1 161 0
 1835 00b0 2161     		str	r1, [r4, #16]
 1836              	.L177:
 1837              		.loc 1 162 0
 1838 00b2 2369     		ldr	r3, [r4, #16]
 1839 00b4 9A06     		lsls	r2, r3, #26
 1840 00b6 FCD4     		bmi	.L177
 1841              	.LVL163:
 1842              	.LBB632:
 1843              	.LBB633:
 1844              		.loc 4 573 0
 1845 00b8 0C20     		movs	r0, #12
 1846              	.LVL164:
 1847 00ba FFF7FEFF 		bl	chSysPolledDelayX
 1848              	.LVL165:
 1849              	.LBE633:
 1850              	.LBE632:
 1851              	.LBE631:
 1852              	.LBE630:
 1853              		.loc 1 1043 0
 1854 00be FB68     		ldr	r3, [r7, #12]
 1855 00c0 1A8A     		ldrh	r2, [r3, #16]
 1856              		.loc 1 1041 0
 1857 00c2 05F14803 		add	r3, r5, #72
 1858              		.loc 1 1042 0
 1859 00c6 42EA8552 		orr	r2, r2, r5, lsl #22
 1860              		.loc 1 1041 0
 1861 00ca 5B01     		lsls	r3, r3, #5
 1862              		.loc 1 1042 0
 1863 00cc 42EA0902 		orr	r2, r2, r9
 1864              		.loc 1 1041 0
 1865 00d0 E250     		str	r2, [r4, r3]
 1866              		.loc 1 1044 0
 1867 00d2 0121     		movs	r1, #1
 1868 00d4 D4F81C38 		ldr	r3, [r4, #2076]
 1869 00d8 01FA05F5 		lsl	r5, r1, r5
 1870 00dc 1D43     		orrs	r5, r5, r3
 1871 00de C4F81C58 		str	r5, [r4, #2076]
 1872              		.loc 1 1052 0
 1873 00e2 BDE8F883 		pop	{r3, r4, r5, r6, r7, r8, r9, pc}
 1874              	.LVL166:
 1875              	.L173:
 1876 00e6 04EB481C 		add	ip, r4, r8, lsl #5
 1877              		.loc 1 1026 0
 1878 00ea DCF8006B 		ldr	r6, [ip, #2816]
 1879 00ee 26F40046 		bic	r6, r6, #32768
 1880 00f2 CCF8006B 		str	r6, [ip, #2816]
 1881              		.loc 1 1027 0
ARM GAS  /tmp/ccqRaZSa.s 			page 34


 1882 00f6 D4F81C68 		ldr	r6, [r4, #2076]
 1883 00fa 26EA0202 		bic	r2, r6, r2
 1884 00fe C4F81C28 		str	r2, [r4, #2076]
 1885 0102 B2E7     		b	.L174
 1886              	.L175:
 1887              		.loc 1 1047 0
 1888 0104 05F13F03 		add	r3, r5, #63
 1889 0108 04EB8303 		add	r3, r4, r3, lsl #2
 1890 010c 124A     		ldr	r2, .L184+8
 1891 010e 5A60     		str	r2, [r3, #4]
 1892              	.LVL167:
 1893              	.LBB634:
 1894              	.LBB635:
 1895              		.loc 1 161 0
 1896 0110 2161     		str	r1, [r4, #16]
 1897              	.L179:
 1898              		.loc 1 162 0
 1899 0112 2369     		ldr	r3, [r4, #16]
 1900 0114 9B06     		lsls	r3, r3, #26
 1901 0116 FCD4     		bmi	.L179
 1902              	.LVL168:
 1903 0118 04EB4818 		add	r8, r4, r8, lsl #5
 1904              	.LBB636:
 1905              	.LBB637:
 1906              		.loc 4 573 0
 1907 011c 0C20     		movs	r0, #12
 1908              	.LVL169:
 1909 011e FFF7FEFF 		bl	chSysPolledDelayX
 1910              	.LVL170:
 1911              	.LBE637:
 1912              	.LBE636:
 1913              	.LBE635:
 1914              	.LBE634:
 1915              		.loc 1 1049 0
 1916 0122 D8F80039 		ldr	r3, [r8, #2304]
 1917 0126 23F40043 		bic	r3, r3, #32768
 1918 012a C8F80039 		str	r3, [r8, #2304]
 1919              		.loc 1 1050 0
 1920 012e D4F81C38 		ldr	r3, [r4, #2076]
 1921 0132 0121     		movs	r1, #1
 1922 0134 01FA05F5 		lsl	r5, r1, r5
 1923 0138 23EA0505 		bic	r5, r3, r5
 1924 013c C4F81C58 		str	r5, [r4, #2076]
 1925              		.loc 1 1052 0
 1926 0140 BDE8F883 		pop	{r3, r4, r5, r6, r7, r8, r9, pc}
 1927              	.LVL171:
 1928              	.L171:
 1929              		.loc 1 1013 0
 1930 0144 DFF81490 		ldr	r9, .L184+12
 1931              		.loc 1 1014 0
 1932 0148 71E7     		b	.L172
 1933              	.LVL172:
 1934              	.L170:
 1935              		.loc 1 1010 0
 1936 014a DFF81490 		ldr	r9, .L184+16
 1937              		.loc 1 1011 0
 1938 014e 6EE7     		b	.L172
ARM GAS  /tmp/ccqRaZSa.s 			page 35


 1939              	.L185:
 1940              		.align	2
 1941              	.L184:
 1942 0150 00800410 		.word	268730368
 1943 0154 00800010 		.word	268468224
 1944 0158 00040002 		.word	33555456
 1945 015c 00800C10 		.word	269254656
 1946 0160 00800810 		.word	268992512
 1947              		.cfi_endproc
 1948              	.LFE279:
 1949              		.size	usb_lld_init_endpoint, .-usb_lld_init_endpoint
 1950              		.section	.text.usb_lld_disable_endpoints,"ax",%progbits
 1951              		.align	1
 1952              		.p2align 4,,15
 1953              		.global	usb_lld_disable_endpoints
 1954              		.syntax unified
 1955              		.thumb
 1956              		.thumb_func
 1957              		.fpu fpv4-sp-d16
 1958              		.type	usb_lld_disable_endpoints, %function
 1959              	usb_lld_disable_endpoints:
 1960              	.LFB280:
 1961              		.loc 1 1061 0
 1962              		.cfi_startproc
 1963              		@ args = 0, pretend = 0, frame = 0
 1964              		@ frame_needed = 0, uses_anonymous_args = 0
 1965              		@ link register save eliminated.
 1966              	.LVL173:
 1967 0000 30B4     		push	{r4, r5}
 1968              		.cfi_def_cfa_offset 8
 1969              		.cfi_offset 4, -8
 1970              		.cfi_offset 5, -4
 1971              		.loc 1 1067 0
 1972 0002 D0E91453 		ldrd	r5, r3, [r0, #80]
 1973              	.LVL174:
 1974              	.LBB638:
 1975              	.LBB639:
 1976              		.loc 1 177 0
 1977 0006 1968     		ldr	r1, [r3]
 1978 0008 8165     		str	r1, [r0, #88]
 1979 000a 9C68     		ldr	r4, [r3, #8]
 1980              	.LBE639:
 1981              	.LBE638:
 1982              	.LBB640:
 1983              	.LBB641:
 1984              		.loc 1 136 0
 1985 000c 0022     		movs	r2, #0
 1986              		.loc 1 137 0
 1987 000e 1146     		mov	r1, r2
 1988 0010 0134     		adds	r4, r4, #1
 1989              		.loc 1 139 0
 1990 0012 4FF0FF30 		mov	r0, #-1
 1991              	.LVL175:
 1992              	.L187:
 1993 0016 05EB4213 		add	r3, r5, r2, lsl #5
 1994              		.loc 1 136 0
 1995 001a 0132     		adds	r2, r2, #1
ARM GAS  /tmp/ccqRaZSa.s 			page 36


 1996              	.LVL176:
 1997 001c A242     		cmp	r2, r4
 1998              		.loc 1 137 0
 1999 001e C3F80019 		str	r1, [r3, #2304]
 2000              		.loc 1 138 0
 2001 0022 C3F81019 		str	r1, [r3, #2320]
 2002              		.loc 1 139 0
 2003 0026 C3F80809 		str	r0, [r3, #2312]
 2004              		.loc 1 141 0
 2005 002a C3F8001B 		str	r1, [r3, #2816]
 2006              		.loc 1 142 0
 2007 002e C3F8101B 		str	r1, [r3, #2832]
 2008              		.loc 1 143 0
 2009 0032 C3F8080B 		str	r0, [r3, #2824]
 2010              		.loc 1 136 0
 2011 0036 EED1     		bne	.L187
 2012              		.loc 1 145 0
 2013 0038 4FF00113 		mov	r3, #65537
 2014 003c C5F81C38 		str	r3, [r5, #2076]
 2015              	.LVL177:
 2016              	.LBE641:
 2017              	.LBE640:
 2018              		.loc 1 1068 0
 2019 0040 30BC     		pop	{r4, r5}
 2020              		.cfi_restore 5
 2021              		.cfi_restore 4
 2022              		.cfi_def_cfa_offset 0
 2023 0042 7047     		bx	lr
 2024              		.cfi_endproc
 2025              	.LFE280:
 2026              		.size	usb_lld_disable_endpoints, .-usb_lld_disable_endpoints
 2027              		.section	.text.usb_lld_get_status_out,"ax",%progbits
 2028              		.align	1
 2029              		.p2align 4,,15
 2030              		.global	usb_lld_get_status_out
 2031              		.syntax unified
 2032              		.thumb
 2033              		.thumb_func
 2034              		.fpu fpv4-sp-d16
 2035              		.type	usb_lld_get_status_out, %function
 2036              	usb_lld_get_status_out:
 2037              	.LFB281:
 2038              		.loc 1 1082 0
 2039              		.cfi_startproc
 2040              		@ args = 0, pretend = 0, frame = 0
 2041              		@ frame_needed = 0, uses_anonymous_args = 0
 2042              		@ link register save eliminated.
 2043              	.LVL178:
 2044              		.loc 1 1087 0
 2045 0000 5831     		adds	r1, r1, #88
 2046              	.LVL179:
 2047 0002 036D     		ldr	r3, [r0, #80]
 2048 0004 4901     		lsls	r1, r1, #5
 2049 0006 5B58     		ldr	r3, [r3, r1]
 2050              	.LVL180:
 2051              		.loc 1 1088 0
 2052 0008 13F40040 		ands	r0, r3, #32768
ARM GAS  /tmp/ccqRaZSa.s 			page 37


 2053              	.LVL181:
 2054 000c 04D0     		beq	.L191
 2055              		.loc 1 1090 0
 2056 000e 13F4001F 		tst	r3, #2097152
 2057              		.loc 1 1092 0
 2058 0012 14BF     		ite	ne
 2059 0014 0120     		movne	r0, #1
 2060 0016 0220     		moveq	r0, #2
 2061              	.L191:
 2062              		.loc 1 1093 0
 2063 0018 7047     		bx	lr
 2064              		.cfi_endproc
 2065              	.LFE281:
 2066              		.size	usb_lld_get_status_out, .-usb_lld_get_status_out
 2067 001a 00BF     		.section	.text.usb_lld_get_status_in,"ax",%progbits
 2068              		.align	1
 2069              		.p2align 4,,15
 2070              		.global	usb_lld_get_status_in
 2071              		.syntax unified
 2072              		.thumb
 2073              		.thumb_func
 2074              		.fpu fpv4-sp-d16
 2075              		.type	usb_lld_get_status_in, %function
 2076              	usb_lld_get_status_in:
 2077              	.LFB282:
 2078              		.loc 1 1107 0
 2079              		.cfi_startproc
 2080              		@ args = 0, pretend = 0, frame = 0
 2081              		@ frame_needed = 0, uses_anonymous_args = 0
 2082              		@ link register save eliminated.
 2083              	.LVL182:
 2084              		.loc 1 1112 0
 2085 0000 4831     		adds	r1, r1, #72
 2086              	.LVL183:
 2087 0002 036D     		ldr	r3, [r0, #80]
 2088 0004 4901     		lsls	r1, r1, #5
 2089 0006 5B58     		ldr	r3, [r3, r1]
 2090              	.LVL184:
 2091              		.loc 1 1113 0
 2092 0008 13F40040 		ands	r0, r3, #32768
 2093              	.LVL185:
 2094 000c 04D0     		beq	.L195
 2095              		.loc 1 1115 0
 2096 000e 13F4001F 		tst	r3, #2097152
 2097              		.loc 1 1117 0
 2098 0012 14BF     		ite	ne
 2099 0014 0120     		movne	r0, #1
 2100 0016 0220     		moveq	r0, #2
 2101              	.L195:
 2102              		.loc 1 1118 0
 2103 0018 7047     		bx	lr
 2104              		.cfi_endproc
 2105              	.LFE282:
 2106              		.size	usb_lld_get_status_in, .-usb_lld_get_status_in
 2107 001a 00BF     		.section	.text.usb_lld_read_setup,"ax",%progbits
 2108              		.align	1
 2109              		.p2align 4,,15
ARM GAS  /tmp/ccqRaZSa.s 			page 38


 2110              		.global	usb_lld_read_setup
 2111              		.syntax unified
 2112              		.thumb
 2113              		.thumb_func
 2114              		.fpu fpv4-sp-d16
 2115              		.type	usb_lld_read_setup, %function
 2116              	usb_lld_read_setup:
 2117              	.LFB283:
 2118              		.loc 1 1134 0
 2119              		.cfi_startproc
 2120              		@ args = 0, pretend = 0, frame = 0
 2121              		@ frame_needed = 0, uses_anonymous_args = 0
 2122              		@ link register save eliminated.
 2123              	.LVL186:
 2124              		.loc 1 1136 0
 2125 0000 00EB8101 		add	r1, r0, r1, lsl #2
 2126              	.LVL187:
 2127 0004 CB68     		ldr	r3, [r1, #12]
 2128 0006 1B6A     		ldr	r3, [r3, #32]
 2129 0008 1968     		ldr	r1, [r3]	@ unaligned
 2130 000a 5B68     		ldr	r3, [r3, #4]	@ unaligned
 2131 000c 5360     		str	r3, [r2, #4]	@ unaligned
 2132 000e 1160     		str	r1, [r2]	@ unaligned
 2133              		.loc 1 1137 0
 2134 0010 7047     		bx	lr
 2135              		.cfi_endproc
 2136              	.LFE283:
 2137              		.size	usb_lld_read_setup, .-usb_lld_read_setup
 2138 0012 00BF     		.section	.text.usb_lld_prepare_receive,"ax",%progbits
 2139              		.align	1
 2140              		.p2align 4,,15
 2141              		.global	usb_lld_prepare_receive
 2142              		.syntax unified
 2143              		.thumb
 2144              		.thumb_func
 2145              		.fpu fpv4-sp-d16
 2146              		.type	usb_lld_prepare_receive, %function
 2147              	usb_lld_prepare_receive:
 2148              	.LFB284:
 2149              		.loc 1 1147 0
 2150              		.cfi_startproc
 2151              		@ args = 0, pretend = 0, frame = 0
 2152              		@ frame_needed = 0, uses_anonymous_args = 0
 2153              		@ link register save eliminated.
 2154              	.LVL188:
 2155              		.loc 1 1149 0
 2156 0000 00EB8103 		add	r3, r0, r1, lsl #2
 2157              		.loc 1 1147 0
 2158 0004 70B4     		push	{r4, r5, r6}
 2159              		.cfi_def_cfa_offset 12
 2160              		.cfi_offset 4, -12
 2161              		.cfi_offset 5, -8
 2162              		.cfi_offset 6, -4
 2163              		.loc 1 1149 0
 2164 0006 DE68     		ldr	r6, [r3, #12]
 2165 0008 B569     		ldr	r5, [r6, #24]
 2166              	.LVL189:
ARM GAS  /tmp/ccqRaZSa.s 			page 39


 2167              		.loc 1 1152 0
 2168 000a 6A68     		ldr	r2, [r5, #4]
 2169 000c 2A61     		str	r2, [r5, #16]
 2170              		.loc 1 1153 0
 2171 000e 29B9     		cbnz	r1, .L204
 2172              		.loc 1 1153 0 is_stmt 0 discriminator 1
 2173 0010 402A     		cmp	r2, #64
 2174 0012 03D9     		bls	.L204
 2175              		.loc 1 1154 0 is_stmt 1
 2176 0014 4022     		movs	r2, #64
 2177 0016 094C     		ldr	r4, .L205
 2178 0018 6A60     		str	r2, [r5, #4]
 2179 001a 01E0     		b	.L201
 2180              	.L204:
 2181 001c 42F0C044 		orr	r4, r2, #1610612736
 2182              	.L201:
 2183              		.loc 1 1156 0
 2184 0020 758A     		ldrh	r5, [r6, #18]
 2185              	.LVL190:
 2186              		.loc 1 1158 0
 2187 0022 006D     		ldr	r0, [r0, #80]
 2188              	.LVL191:
 2189              		.loc 1 1156 0
 2190 0024 6B1E     		subs	r3, r5, #1
 2191              		.loc 1 1158 0
 2192 0026 00EB4111 		add	r1, r0, r1, lsl #5
 2193              	.LVL192:
 2194              		.loc 1 1156 0
 2195 002a 1344     		add	r3, r3, r2
 2196 002c B3FBF5F3 		udiv	r3, r3, r5
 2197              		.loc 1 1158 0
 2198 0030 44EAC343 		orr	r3, r4, r3, lsl #19
 2199 0034 C1F8103B 		str	r3, [r1, #2832]
 2200              		.loc 1 1161 0
 2201 0038 70BC     		pop	{r4, r5, r6}
 2202              		.cfi_restore 6
 2203              		.cfi_restore 5
 2204              		.cfi_restore 4
 2205              		.cfi_def_cfa_offset 0
 2206              	.LVL193:
 2207 003a 7047     		bx	lr
 2208              	.L206:
 2209              		.align	2
 2210              	.L205:
 2211 003c 40000060 		.word	1610612800
 2212              		.cfi_endproc
 2213              	.LFE284:
 2214              		.size	usb_lld_prepare_receive, .-usb_lld_prepare_receive
 2215              		.section	.text.otg_epout_handler.constprop.7,"ax",%progbits
 2216              		.align	1
 2217              		.p2align 4,,15
 2218              		.syntax unified
 2219              		.thumb
 2220              		.thumb_func
 2221              		.fpu fpv4-sp-d16
 2222              		.type	otg_epout_handler.constprop.7, %function
 2223              	otg_epout_handler.constprop.7:
ARM GAS  /tmp/ccqRaZSa.s 			page 40


 2224              	.LFB300:
 2225              		.loc 1 560 0
 2226              		.cfi_startproc
 2227              		@ args = 0, pretend = 0, frame = 0
 2228              		@ frame_needed = 0, uses_anonymous_args = 0
 2229              	.LVL194:
 2230 0000 2DE9F041 		push	{r4, r5, r6, r7, r8, lr}
 2231              		.cfi_def_cfa_offset 24
 2232              		.cfi_offset 4, -24
 2233              		.cfi_offset 5, -20
 2234              		.cfi_offset 6, -16
 2235              		.cfi_offset 7, -12
 2236              		.cfi_offset 8, -8
 2237              		.cfi_offset 14, -4
 2238              		.loc 1 561 0
 2239 0004 224E     		ldr	r6, .L225
 2240 0006 376D     		ldr	r7, [r6, #80]
 2241              	.LVL195:
 2242              		.loc 1 562 0
 2243 0008 07EB4013 		add	r3, r7, r0, lsl #5
 2244              		.loc 1 560 0
 2245 000c 0546     		mov	r5, r0
 2246              		.loc 1 562 0
 2247 000e D3F8084B 		ldr	r4, [r3, #2824]
 2248              	.LVL196:
 2249              		.loc 1 565 0
 2250 0012 C3F8084B 		str	r4, [r3, #2824]
 2251              		.loc 1 567 0
 2252 0016 2007     		lsls	r0, r4, #28
 2253              	.LVL197:
 2254 0018 0AD5     		bpl	.L208
 2255 001a D7F81438 		ldr	r3, [r7, #2068]
 2256 001e 1907     		lsls	r1, r3, #28
 2257 0020 06D5     		bpl	.L208
 2258              		.loc 1 570 0
 2259 0022 06EB8503 		add	r3, r6, r5, lsl #2
 2260 0026 2946     		mov	r1, r5
 2261 0028 DB68     		ldr	r3, [r3, #12]
 2262 002a 3046     		mov	r0, r6
 2263 002c 5B68     		ldr	r3, [r3, #4]
 2264 002e 9847     		blx	r3
 2265              	.LVL198:
 2266              	.L208:
 2267              		.loc 1 573 0
 2268 0030 E207     		lsls	r2, r4, #31
 2269 0032 2BD5     		bpl	.L207
 2270 0034 D7F81438 		ldr	r3, [r7, #2068]
 2271 0038 DB07     		lsls	r3, r3, #31
 2272 003a 27D5     		bpl	.L207
 2273              	.LBB642:
 2274              		.loc 1 575 0
 2275 003c 06EB8503 		add	r3, r6, r5, lsl #2
 2276 0040 D968     		ldr	r1, [r3, #12]
 2277 0042 8B69     		ldr	r3, [r1, #24]
 2278              	.LVL199:
 2279              		.loc 1 577 0
 2280 0044 5868     		ldr	r0, [r3, #4]
ARM GAS  /tmp/ccqRaZSa.s 			page 41


 2281 0046 1A69     		ldr	r2, [r3, #16]
 2282 0048 9042     		cmp	r0, r2
 2283 004a 0CD3     		bcc	.L224
 2284              		.loc 1 590 0
 2285 004c 7389     		ldrh	r3, [r6, #10]
 2286              	.LVL200:
 2287 004e CC68     		ldr	r4, [r1, #12]
 2288              	.LVL201:
 2289 0050 0F48     		ldr	r0, .L225
 2290 0052 0122     		movs	r2, #1
 2291 0054 AA40     		lsls	r2, r2, r5
 2292 0056 23EA0203 		bic	r3, r3, r2
 2293 005a 7381     		strh	r3, [r6, #10]	@ movhi
 2294 005c 2946     		mov	r1, r5
 2295              	.LVL202:
 2296 005e 2346     		mov	r3, r4
 2297              	.LBE642:
 2298              		.loc 1 593 0
 2299 0060 BDE8F041 		pop	{r4, r5, r6, r7, r8, lr}
 2300              		.cfi_remember_state
 2301              		.cfi_restore 14
 2302              		.cfi_restore 8
 2303              		.cfi_restore 7
 2304              		.cfi_restore 6
 2305              		.cfi_restore 5
 2306              		.cfi_restore 4
 2307              		.cfi_def_cfa_offset 0
 2308              	.LVL203:
 2309              	.LBB657:
 2310              		.loc 1 590 0
 2311 0064 1847     		bx	r3	@ indirect register sibling call
 2312              	.LVL204:
 2313              	.L224:
 2314              		.cfi_restore_state
 2315              		.loc 1 581 0
 2316 0066 121A     		subs	r2, r2, r0
 2317              		.loc 1 582 0
 2318 0068 0021     		movs	r1, #0
 2319 006a C3E90121 		strd	r2, r1, [r3, #4]
 2320              		.loc 1 583 0
 2321 006e 0848     		ldr	r0, .L225
 2322 0070 2946     		mov	r1, r5
 2323 0072 FFF7FEFF 		bl	usb_lld_prepare_receive
 2324              	.LVL205:
 2325              	.LBB643:
 2326              	.LBB644:
 2327              	.LBB645:
 2328              	.LBB646:
 2329              	.LBB647:
 2330              	.LBB648:
 2331              		.loc 3 342 0
 2332              		.syntax unified
 2333              	@ 342 "ChibiOS_3.0.5/os/ext/CMSIS/include/core_cmFunc.h" 1
 2334 0076 72B6     		cpsid i
 2335              	@ 0 "" 2
 2336              	.LVL206:
 2337              		.thumb
ARM GAS  /tmp/ccqRaZSa.s 			page 42


 2338              		.syntax unified
 2339 0078 336D     		ldr	r3, [r6, #80]
 2340 007a 03EB4515 		add	r5, r3, r5, lsl #5
 2341              	.LVL207:
 2342              	.LBE648:
 2343              	.LBE647:
 2344              	.LBE646:
 2345              	.LBE645:
 2346              	.LBE644:
 2347              	.LBE643:
 2348              	.LBB649:
 2349              	.LBB650:
 2350              		.loc 1 1202 0
 2351 007e D5F8003B 		ldr	r3, [r5, #2816]
 2352 0082 43F08063 		orr	r3, r3, #67108864
 2353 0086 C5F8003B 		str	r3, [r5, #2816]
 2354              	.LVL208:
 2355              	.LBE650:
 2356              	.LBE649:
 2357              	.LBB651:
 2358              	.LBB652:
 2359              	.LBB653:
 2360              	.LBB654:
 2361              	.LBB655:
 2362              	.LBB656:
 2363              		.loc 3 331 0
 2364              		.syntax unified
 2365              	@ 331 "ChibiOS_3.0.5/os/ext/CMSIS/include/core_cmFunc.h" 1
 2366 008a 62B6     		cpsie i
 2367              	@ 0 "" 2
 2368              		.thumb
 2369              		.syntax unified
 2370              	.L207:
 2371              	.LBE656:
 2372              	.LBE655:
 2373              	.LBE654:
 2374              	.LBE653:
 2375              	.LBE652:
 2376              	.LBE651:
 2377              	.LBE657:
 2378              		.loc 1 593 0
 2379 008c BDE8F081 		pop	{r4, r5, r6, r7, r8, pc}
 2380              	.LVL209:
 2381              	.L226:
 2382              		.align	2
 2383              	.L225:
 2384 0090 00000000 		.word	.LANCHOR0
 2385              		.cfi_endproc
 2386              	.LFE300:
 2387              		.size	otg_epout_handler.constprop.7, .-otg_epout_handler.constprop.7
 2388              		.section	.text.usb_lld_prepare_transmit,"ax",%progbits
 2389              		.align	1
 2390              		.p2align 4,,15
 2391              		.global	usb_lld_prepare_transmit
 2392              		.syntax unified
 2393              		.thumb
 2394              		.thumb_func
ARM GAS  /tmp/ccqRaZSa.s 			page 43


 2395              		.fpu fpv4-sp-d16
 2396              		.type	usb_lld_prepare_transmit, %function
 2397              	usb_lld_prepare_transmit:
 2398              	.LFB285:
 2399              		.loc 1 1171 0
 2400              		.cfi_startproc
 2401              		@ args = 0, pretend = 0, frame = 0
 2402              		@ frame_needed = 0, uses_anonymous_args = 0
 2403              		@ link register save eliminated.
 2404              	.LVL210:
 2405              		.loc 1 1172 0
 2406 0000 00EB8103 		add	r3, r0, r1, lsl #2
 2407              		.loc 1 1171 0
 2408 0004 10B4     		push	{r4}
 2409              		.cfi_def_cfa_offset 4
 2410              		.cfi_offset 4, -4
 2411              		.loc 1 1172 0
 2412 0006 DC68     		ldr	r4, [r3, #12]
 2413 0008 026D     		ldr	r2, [r0, #80]
 2414 000a 6069     		ldr	r0, [r4, #20]
 2415              	.LVL211:
 2416              		.loc 1 1175 0
 2417 000c 4368     		ldr	r3, [r0, #4]
 2418 000e 0361     		str	r3, [r0, #16]
 2419              		.loc 1 1176 0
 2420 0010 9BB1     		cbz	r3, .L232
 2421              	.LBB658:
 2422              		.loc 1 1181 0
 2423 0012 69B1     		cbz	r1, .L233
 2424              	.L230:
 2425              		.loc 1 1185 0
 2426 0014 208A     		ldrh	r0, [r4, #16]
 2427              	.LVL212:
 2428              	.LBE658:
 2429              		.loc 1 1190 0
 2430 0016 5DF8044B 		ldr	r4, [sp], #4
 2431              		.cfi_remember_state
 2432              		.cfi_restore 4
 2433              		.cfi_def_cfa_offset 0
 2434              	.LVL213:
 2435              	.LBB659:
 2436              		.loc 1 1187 0
 2437 001a 02EB4112 		add	r2, r2, r1, lsl #5
 2438              		.loc 1 1185 0
 2439 001e 411E     		subs	r1, r0, #1
 2440              	.LVL214:
 2441 0020 1944     		add	r1, r1, r3
 2442 0022 B1FBF0F1 		udiv	r1, r1, r0
 2443              		.loc 1 1187 0
 2444 0026 43EAC143 		orr	r3, r3, r1, lsl #19
 2445              	.LVL215:
 2446 002a C2F81039 		str	r3, [r2, #2320]
 2447              	.LBE659:
 2448              		.loc 1 1190 0
 2449 002e 7047     		bx	lr
 2450              	.LVL216:
 2451              	.L233:
ARM GAS  /tmp/ccqRaZSa.s 			page 44


 2452              		.cfi_restore_state
 2453              	.LBB660:
 2454              		.loc 1 1181 0 discriminator 1
 2455 0030 402B     		cmp	r3, #64
 2456              		.loc 1 1182 0 discriminator 1
 2457 0032 84BF     		itt	hi
 2458 0034 4023     		movhi	r3, #64
 2459 0036 4360     		strhi	r3, [r0, #4]
 2460 0038 ECE7     		b	.L230
 2461              	.L232:
 2462              	.LBE660:
 2463              		.loc 1 1178 0
 2464 003a 02EB4112 		add	r2, r2, r1, lsl #5
 2465 003e 4FF40023 		mov	r3, #524288
 2466 0042 C2F81039 		str	r3, [r2, #2320]
 2467              		.loc 1 1190 0
 2468 0046 5DF8044B 		ldr	r4, [sp], #4
 2469              		.cfi_restore 4
 2470              		.cfi_def_cfa_offset 0
 2471 004a 7047     		bx	lr
 2472              		.cfi_endproc
 2473              	.LFE285:
 2474              		.size	usb_lld_prepare_transmit, .-usb_lld_prepare_transmit
 2475              		.section	.text.otg_epin_handler.constprop.8,"ax",%progbits
 2476              		.align	1
 2477              		.p2align 4,,15
 2478              		.syntax unified
 2479              		.thumb
 2480              		.thumb_func
 2481              		.fpu fpv4-sp-d16
 2482              		.type	otg_epin_handler.constprop.8, %function
 2483              	otg_epin_handler.constprop.8:
 2484              	.LFB299:
 2485              		.loc 1 512 0
 2486              		.cfi_startproc
 2487              		@ args = 0, pretend = 0, frame = 0
 2488              		@ frame_needed = 0, uses_anonymous_args = 0
 2489              	.LVL217:
 2490 0000 2DE9F041 		push	{r4, r5, r6, r7, r8, lr}
 2491              		.cfi_def_cfa_offset 24
 2492              		.cfi_offset 4, -24
 2493              		.cfi_offset 5, -20
 2494              		.cfi_offset 6, -16
 2495              		.cfi_offset 7, -12
 2496              		.cfi_offset 8, -8
 2497              		.cfi_offset 14, -4
 2498              		.loc 1 513 0
 2499 0004 2C4E     		ldr	r6, .L253
 2500 0006 356D     		ldr	r5, [r6, #80]
 2501              	.LVL218:
 2502              		.loc 1 514 0
 2503 0008 05EB4013 		add	r3, r5, r0, lsl #5
 2504              		.loc 1 512 0
 2505 000c 0746     		mov	r7, r0
 2506              		.loc 1 514 0
 2507 000e D3F80849 		ldr	r4, [r3, #2312]
 2508              	.LVL219:
ARM GAS  /tmp/ccqRaZSa.s 			page 45


 2509              		.loc 1 516 0
 2510 0012 C3F80849 		str	r4, [r3, #2312]
 2511              		.loc 1 521 0
 2512 0016 E107     		lsls	r1, r4, #31
 2513 0018 16D5     		bpl	.L235
 2514 001a D5F81038 		ldr	r3, [r5, #2064]
 2515 001e DA07     		lsls	r2, r3, #31
 2516 0020 12D5     		bpl	.L235
 2517              	.LBB661:
 2518              		.loc 1 523 0
 2519 0022 06EB8003 		add	r3, r6, r0, lsl #2
 2520 0026 D968     		ldr	r1, [r3, #12]
 2521 0028 4B69     		ldr	r3, [r1, #20]
 2522              	.LVL220:
 2523              		.loc 1 525 0
 2524 002a 5868     		ldr	r0, [r3, #4]
 2525              	.LVL221:
 2526 002c 1A69     		ldr	r2, [r3, #16]
 2527 002e 9042     		cmp	r0, r2
 2528 0030 26D3     		bcc	.L251
 2529              		.loc 1 538 0
 2530 0032 3389     		ldrh	r3, [r6, #8]
 2531              	.LVL222:
 2532 0034 D1F80880 		ldr	r8, [r1, #8]
 2533 0038 0122     		movs	r2, #1
 2534 003a BA40     		lsls	r2, r2, r7
 2535 003c 23EA0203 		bic	r3, r3, r2
 2536 0040 3381     		strh	r3, [r6, #8]	@ movhi
 2537 0042 3946     		mov	r1, r7
 2538              	.LVL223:
 2539 0044 3046     		mov	r0, r6
 2540 0046 C047     		blx	r8
 2541              	.LVL224:
 2542              	.L235:
 2543              	.LBE661:
 2544              		.loc 1 541 0
 2545 0048 2306     		lsls	r3, r4, #24
 2546 004a 06D5     		bpl	.L234
 2547              		.loc 1 542 0
 2548 004c 0123     		movs	r3, #1
 2549 004e D5F83428 		ldr	r2, [r5, #2100]
 2550 0052 03FA07F7 		lsl	r7, r3, r7
 2551              		.loc 1 541 0
 2552 0056 1742     		tst	r7, r2
 2553 0058 01D1     		bne	.L252
 2554              	.L234:
 2555              		.loc 1 550 0
 2556 005a BDE8F081 		pop	{r4, r5, r6, r7, r8, pc}
 2557              	.LVL225:
 2558              	.L252:
 2559              	.LBB676:
 2560              	.LBB677:
 2561              	.LBB678:
 2562              	.LBB679:
 2563              	.LBB680:
 2564              	.LBB681:
 2565              		.loc 3 342 0
ARM GAS  /tmp/ccqRaZSa.s 			page 46


 2566              		.syntax unified
 2567              	@ 342 "ChibiOS_3.0.5/os/ext/CMSIS/include/core_cmFunc.h" 1
 2568 005e 72B6     		cpsid i
 2569              	@ 0 "" 2
 2570              		.thumb
 2571              		.syntax unified
 2572              	.LBE681:
 2573              	.LBE680:
 2574              	.LBE679:
 2575              	.LBE678:
 2576              	.LBE677:
 2577              	.LBE676:
 2578              		.loc 1 546 0
 2579 0060 D5F83428 		ldr	r2, [r5, #2100]
 2580              		.loc 1 545 0
 2581 0064 F36D     		ldr	r3, [r6, #92]
 2582              	.LBB682:
 2583              	.LBB683:
 2584              		.loc 4 728 0
 2585 0066 1548     		ldr	r0, .L253+4
 2586              	.LBE683:
 2587              	.LBE682:
 2588              		.loc 1 546 0
 2589 0068 22EA0702 		bic	r2, r2, r7
 2590 006c C5F83428 		str	r2, [r5, #2100]
 2591              	.LVL226:
 2592              		.loc 1 545 0
 2593 0070 1F43     		orrs	r7, r7, r3
 2594              	.LBB686:
 2595              	.LBB684:
 2596              		.loc 4 728 0
 2597 0072 0021     		movs	r1, #0
 2598              	.LBE684:
 2599              	.LBE686:
 2600              		.loc 1 545 0
 2601 0074 F765     		str	r7, [r6, #92]
 2602              	.LBB687:
 2603              	.LBB685:
 2604              		.loc 4 728 0
 2605 0076 FFF7FEFF 		bl	chThdResumeI
 2606              	.LVL227:
 2607              	.LBE685:
 2608              	.LBE687:
 2609              	.LBB688:
 2610              	.LBB689:
 2611              	.LBB690:
 2612              	.LBB691:
 2613              	.LBB692:
 2614              	.LBB693:
 2615              		.loc 3 331 0
 2616              		.syntax unified
 2617              	@ 331 "ChibiOS_3.0.5/os/ext/CMSIS/include/core_cmFunc.h" 1
 2618 007a 62B6     		cpsie i
 2619              	@ 0 "" 2
 2620              		.thumb
 2621              		.syntax unified
 2622              	.LBE693:
ARM GAS  /tmp/ccqRaZSa.s 			page 47


 2623              	.LBE692:
 2624              	.LBE691:
 2625              	.LBE690:
 2626              	.LBE689:
 2627              	.LBE688:
 2628              		.loc 1 550 0
 2629 007c BDE8F081 		pop	{r4, r5, r6, r7, r8, pc}
 2630              	.LVL228:
 2631              	.L251:
 2632              	.LBB694:
 2633              		.loc 1 529 0
 2634 0080 121A     		subs	r2, r2, r0
 2635              		.loc 1 530 0
 2636 0082 0021     		movs	r1, #0
 2637 0084 C3E90121 		strd	r2, r1, [r3, #4]
 2638              		.loc 1 531 0
 2639 0088 3046     		mov	r0, r6
 2640 008a 3946     		mov	r1, r7
 2641 008c FFF7FEFF 		bl	usb_lld_prepare_transmit
 2642              	.LVL229:
 2643              	.LBB662:
 2644              	.LBB663:
 2645              	.LBB664:
 2646              	.LBB665:
 2647              	.LBB666:
 2648              	.LBB667:
 2649              		.loc 3 342 0
 2650              		.syntax unified
 2651              	@ 342 "ChibiOS_3.0.5/os/ext/CMSIS/include/core_cmFunc.h" 1
 2652 0090 72B6     		cpsid i
 2653              	@ 0 "" 2
 2654              	.LVL230:
 2655              		.thumb
 2656              		.syntax unified
 2657              	.LBE667:
 2658              	.LBE666:
 2659              	.LBE665:
 2660              	.LBE664:
 2661              	.LBE663:
 2662              	.LBE662:
 2663              	.LBB668:
 2664              	.LBB669:
 2665              		.loc 1 1215 0
 2666 0092 326D     		ldr	r2, [r6, #80]
 2667 0094 02EB4710 		add	r0, r2, r7, lsl #5
 2668              		.loc 1 1216 0
 2669 0098 0123     		movs	r3, #1
 2670              		.loc 1 1215 0
 2671 009a D0F80019 		ldr	r1, [r0, #2304]
 2672 009e 41F00441 		orr	r1, r1, #-2080374784
 2673 00a2 C0F80019 		str	r1, [r0, #2304]
 2674              		.loc 1 1216 0
 2675 00a6 D2F83418 		ldr	r1, [r2, #2100]
 2676 00aa BB40     		lsls	r3, r3, r7
 2677 00ac 0B43     		orrs	r3, r3, r1
 2678 00ae C2F83438 		str	r3, [r2, #2100]
 2679              	.LVL231:
ARM GAS  /tmp/ccqRaZSa.s 			page 48


 2680              	.LBE669:
 2681              	.LBE668:
 2682              	.LBB670:
 2683              	.LBB671:
 2684              	.LBB672:
 2685              	.LBB673:
 2686              	.LBB674:
 2687              	.LBB675:
 2688              		.loc 3 331 0
 2689              		.syntax unified
 2690              	@ 331 "ChibiOS_3.0.5/os/ext/CMSIS/include/core_cmFunc.h" 1
 2691 00b2 62B6     		cpsie i
 2692              	@ 0 "" 2
 2693              		.thumb
 2694              		.syntax unified
 2695 00b4 C8E7     		b	.L235
 2696              	.L254:
 2697 00b6 00BF     		.align	2
 2698              	.L253:
 2699 00b8 00000000 		.word	.LANCHOR0
 2700 00bc 60000000 		.word	.LANCHOR0+96
 2701              	.LBE675:
 2702              	.LBE674:
 2703              	.LBE673:
 2704              	.LBE672:
 2705              	.LBE671:
 2706              	.LBE670:
 2707              	.LBE694:
 2708              		.cfi_endproc
 2709              	.LFE299:
 2710              		.size	otg_epin_handler.constprop.8, .-otg_epin_handler.constprop.8
 2711              		.section	.text.Vector14C,"ax",%progbits
 2712              		.align	1
 2713              		.p2align 4,,15
 2714              		.global	Vector14C
 2715              		.syntax unified
 2716              		.thumb
 2717              		.thumb_func
 2718              		.fpu fpv4-sp-d16
 2719              		.type	Vector14C, %function
 2720              	Vector14C:
 2721              	.LFB273:
 2722              		.loc 1 691 0
 2723              		.cfi_startproc
 2724              		@ args = 0, pretend = 0, frame = 0
 2725              		@ frame_needed = 0, uses_anonymous_args = 0
 2726              	.LVL232:
 2727 0000 70B5     		push	{r4, r5, r6, lr}
 2728              		.cfi_def_cfa_offset 16
 2729              		.cfi_offset 4, -16
 2730              		.cfi_offset 5, -12
 2731              		.cfi_offset 6, -8
 2732              		.cfi_offset 14, -4
 2733              	.LBB711:
 2734              	.LBB712:
 2735              		.loc 1 603 0
 2736 0002 3A4E     		ldr	r6, .L324
ARM GAS  /tmp/ccqRaZSa.s 			page 49


 2737 0004 356D     		ldr	r5, [r6, #80]
 2738              	.LVL233:
 2739              		.loc 1 606 0
 2740 0006 6C69     		ldr	r4, [r5, #20]
 2741              	.LVL234:
 2742              		.loc 1 607 0
 2743 0008 AB69     		ldr	r3, [r5, #24]
 2744 000a 1C40     		ands	r4, r4, r3
 2745              	.LVL235:
 2746              		.loc 1 611 0
 2747 000c E104     		lsls	r1, r4, #19
 2748              		.loc 1 608 0
 2749 000e 6C61     		str	r4, [r5, #20]
 2750              		.loc 1 611 0
 2751 0010 35D4     		bmi	.L312
 2752              		.loc 1 623 0
 2753 0012 A204     		lsls	r2, r4, #18
 2754              		.loc 1 624 0
 2755 0014 48BF     		it	mi
 2756 0016 D5F80838 		ldrmi	r3, [r5, #2056]
 2757              		.loc 1 628 0
 2758 001a 2307     		lsls	r3, r4, #28
 2759 001c 04D5     		bpl	.L260
 2760              		.loc 1 629 0
 2761 001e 7368     		ldr	r3, [r6, #4]
 2762 0020 DB68     		ldr	r3, [r3, #12]
 2763 0022 0BB1     		cbz	r3, .L260
 2764 0024 3148     		ldr	r0, .L324
 2765 0026 9847     		blx	r3
 2766              	.LVL236:
 2767              	.L260:
 2768              		.loc 1 633 0
 2769 0028 E606     		lsls	r6, r4, #27
 2770 002a 19D4     		bmi	.L313
 2771              		.loc 1 644 0
 2772 002c 6003     		lsls	r0, r4, #13
 2773              		.loc 1 643 0
 2774 002e D5F81858 		ldr	r5, [r5, #2072]
 2775              	.LVL237:
 2776              		.loc 1 644 0
 2777 0032 07D5     		bpl	.L263
 2778              	.L322:
 2779              		.loc 1 645 0
 2780 0034 E907     		lsls	r1, r5, #31
 2781 0036 54D4     		bmi	.L314
 2782              	.L264:
 2783              		.loc 1 647 0
 2784 0038 AA07     		lsls	r2, r5, #30
 2785 003a 4ED4     		bmi	.L315
 2786              	.L265:
 2787              		.loc 1 649 0
 2788 003c 6B07     		lsls	r3, r5, #29
 2789 003e 48D4     		bmi	.L316
 2790              	.L266:
 2791              		.loc 1 651 0
 2792 0040 2E07     		lsls	r6, r5, #28
 2793 0042 33D4     		bmi	.L317
ARM GAS  /tmp/ccqRaZSa.s 			page 50


 2794              	.L263:
 2795              		.loc 1 660 0
 2796 0044 2403     		lsls	r4, r4, #12
 2797              	.LVL238:
 2798 0046 07D5     		bpl	.L258
 2799              	.L323:
 2800              		.loc 1 661 0
 2801 0048 E803     		lsls	r0, r5, #15
 2802 004a 3ED4     		bmi	.L318
 2803              	.L269:
 2804              		.loc 1 663 0
 2805 004c A903     		lsls	r1, r5, #14
 2806 004e 33D4     		bmi	.L319
 2807              		.loc 1 665 0
 2808 0050 6A03     		lsls	r2, r5, #13
 2809 0052 36D4     		bmi	.L320
 2810              	.L271:
 2811              		.loc 1 667 0
 2812 0054 2B03     		lsls	r3, r5, #12
 2813 0056 22D4     		bmi	.L321
 2814              	.LVL239:
 2815              	.L258:
 2816              	.LBE712:
 2817              	.LBE711:
 2818              		.loc 1 698 0
 2819 0058 BDE87040 		pop	{r4, r5, r6, lr}
 2820              		.cfi_remember_state
 2821              		.cfi_restore 14
 2822              		.cfi_restore 6
 2823              		.cfi_restore 5
 2824              		.cfi_restore 4
 2825              		.cfi_def_cfa_offset 0
 2826              		.loc 1 697 0
 2827 005c FFF7FEBF 		b	_port_irq_epilogue
 2828              	.LVL240:
 2829              	.L313:
 2830              		.cfi_restore_state
 2831              	.LBB732:
 2832              	.LBB729:
 2833              	.LBB713:
 2834              	.LBB714:
 2835              	.LBB715:
 2836              	.LBB716:
 2837              	.LBB717:
 2838              	.LBB718:
 2839              		.loc 3 342 0
 2840              		.syntax unified
 2841              	@ 342 "ChibiOS_3.0.5/os/ext/CMSIS/include/core_cmFunc.h" 1
 2842 0060 72B6     		cpsid i
 2843              	@ 0 "" 2
 2844              		.thumb
 2845              		.syntax unified
 2846              	.LBE718:
 2847              	.LBE717:
 2848              	.LBE716:
 2849              	.LBE715:
 2850              	.LBE714:
ARM GAS  /tmp/ccqRaZSa.s 			page 51


 2851              	.LBE713:
 2852              		.loc 1 637 0
 2853 0062 AB69     		ldr	r3, [r5, #24]
 2854              	.LBB719:
 2855              	.LBB720:
 2856              		.loc 4 728 0
 2857 0064 2248     		ldr	r0, .L324+4
 2858              	.LBE720:
 2859              	.LBE719:
 2860              		.loc 1 637 0
 2861 0066 23F01003 		bic	r3, r3, #16
 2862 006a AB61     		str	r3, [r5, #24]
 2863              	.LVL241:
 2864              	.LBB722:
 2865              	.LBB721:
 2866              		.loc 4 728 0
 2867 006c 0021     		movs	r1, #0
 2868 006e FFF7FEFF 		bl	chThdResumeI
 2869              	.LVL242:
 2870              	.LBE721:
 2871              	.LBE722:
 2872              	.LBB723:
 2873              	.LBB724:
 2874              	.LBB725:
 2875              	.LBB726:
 2876              	.LBB727:
 2877              	.LBB728:
 2878              		.loc 3 331 0
 2879              		.syntax unified
 2880              	@ 331 "ChibiOS_3.0.5/os/ext/CMSIS/include/core_cmFunc.h" 1
 2881 0072 62B6     		cpsie i
 2882              	@ 0 "" 2
 2883              		.thumb
 2884              		.syntax unified
 2885              	.LBE728:
 2886              	.LBE727:
 2887              	.LBE726:
 2888              	.LBE725:
 2889              	.LBE724:
 2890              	.LBE723:
 2891              		.loc 1 644 0
 2892 0074 6003     		lsls	r0, r4, #13
 2893              		.loc 1 643 0
 2894 0076 D5F81858 		ldr	r5, [r5, #2072]
 2895              	.LVL243:
 2896              		.loc 1 644 0
 2897 007a E3D5     		bpl	.L263
 2898 007c DAE7     		b	.L322
 2899              	.LVL244:
 2900              	.L312:
 2901              		.loc 1 614 0
 2902 007e 0024     		movs	r4, #0
 2903              	.LVL245:
 2904              		.loc 1 617 0
 2905 0080 3046     		mov	r0, r6
 2906              		.loc 1 614 0
 2907 0082 F465     		str	r4, [r6, #92]
ARM GAS  /tmp/ccqRaZSa.s 			page 52


 2908              		.loc 1 617 0
 2909 0084 FFF7FEFF 		bl	_usb_reset
 2910              	.LVL246:
 2911              		.loc 1 618 0
 2912 0088 7368     		ldr	r3, [r6, #4]
 2913 008a 1B68     		ldr	r3, [r3]
 2914 008c 002B     		cmp	r3, #0
 2915 008e E3D0     		beq	.L258
 2916 0090 2146     		mov	r1, r4
 2917 0092 3046     		mov	r0, r6
 2918 0094 9847     		blx	r3
 2919              	.LVL247:
 2920              	.LBE729:
 2921              	.LBE732:
 2922              		.loc 1 698 0
 2923 0096 BDE87040 		pop	{r4, r5, r6, lr}
 2924              		.cfi_remember_state
 2925              		.cfi_restore 14
 2926              		.cfi_restore 6
 2927              		.cfi_restore 5
 2928              		.cfi_restore 4
 2929              		.cfi_def_cfa_offset 0
 2930              		.loc 1 697 0
 2931 009a FFF7FEBF 		b	_port_irq_epilogue
 2932              	.LVL248:
 2933              	.L321:
 2934              		.cfi_restore_state
 2935              	.LBB733:
 2936              	.LBB730:
 2937              		.loc 1 668 0
 2938 009e 0320     		movs	r0, #3
 2939 00a0 FFF7FEFF 		bl	otg_epout_handler.constprop.7
 2940              	.LVL249:
 2941              	.LBE730:
 2942              	.LBE733:
 2943              		.loc 1 698 0
 2944 00a4 BDE87040 		pop	{r4, r5, r6, lr}
 2945              		.cfi_remember_state
 2946              		.cfi_restore 14
 2947              		.cfi_restore 6
 2948              		.cfi_restore 5
 2949              		.cfi_restore 4
 2950              		.cfi_def_cfa_offset 0
 2951              		.loc 1 697 0
 2952 00a8 FFF7FEBF 		b	_port_irq_epilogue
 2953              	.LVL250:
 2954              	.L317:
 2955              		.cfi_restore_state
 2956              	.LBB734:
 2957              	.LBB731:
 2958              		.loc 1 652 0
 2959 00ac 0320     		movs	r0, #3
 2960 00ae FFF7FEFF 		bl	otg_epin_handler.constprop.8
 2961              	.LVL251:
 2962              		.loc 1 660 0
 2963 00b2 2403     		lsls	r4, r4, #12
 2964              	.LVL252:
ARM GAS  /tmp/ccqRaZSa.s 			page 53


 2965 00b4 D0D5     		bpl	.L258
 2966 00b6 C7E7     		b	.L323
 2967              	.L319:
 2968              		.loc 1 664 0
 2969 00b8 0120     		movs	r0, #1
 2970 00ba FFF7FEFF 		bl	otg_epout_handler.constprop.7
 2971              	.LVL253:
 2972              		.loc 1 665 0
 2973 00be 6A03     		lsls	r2, r5, #13
 2974 00c0 C8D5     		bpl	.L271
 2975              	.L320:
 2976              		.loc 1 666 0
 2977 00c2 0220     		movs	r0, #2
 2978 00c4 FFF7FEFF 		bl	otg_epout_handler.constprop.7
 2979              	.LVL254:
 2980 00c8 C4E7     		b	.L271
 2981              	.L318:
 2982              		.loc 1 662 0
 2983 00ca 0020     		movs	r0, #0
 2984 00cc FFF7FEFF 		bl	otg_epout_handler.constprop.7
 2985              	.LVL255:
 2986 00d0 BCE7     		b	.L269
 2987              	.LVL256:
 2988              	.L316:
 2989              		.loc 1 650 0
 2990 00d2 0220     		movs	r0, #2
 2991 00d4 FFF7FEFF 		bl	otg_epin_handler.constprop.8
 2992              	.LVL257:
 2993 00d8 B2E7     		b	.L266
 2994              	.L315:
 2995              		.loc 1 648 0
 2996 00da 0120     		movs	r0, #1
 2997 00dc FFF7FEFF 		bl	otg_epin_handler.constprop.8
 2998              	.LVL258:
 2999 00e0 ACE7     		b	.L265
 3000              	.L314:
 3001              		.loc 1 646 0
 3002 00e2 0020     		movs	r0, #0
 3003 00e4 FFF7FEFF 		bl	otg_epin_handler.constprop.8
 3004              	.LVL259:
 3005 00e8 A6E7     		b	.L264
 3006              	.L325:
 3007 00ea 00BF     		.align	2
 3008              	.L324:
 3009 00ec 00000000 		.word	.LANCHOR0
 3010 00f0 60000000 		.word	.LANCHOR0+96
 3011              	.LBE731:
 3012              	.LBE734:
 3013              		.cfi_endproc
 3014              	.LFE273:
 3015              		.size	Vector14C, .-Vector14C
 3016              		.section	.text.usb_lld_start_out,"ax",%progbits
 3017              		.align	1
 3018              		.p2align 4,,15
 3019              		.global	usb_lld_start_out
 3020              		.syntax unified
 3021              		.thumb
ARM GAS  /tmp/ccqRaZSa.s 			page 54


 3022              		.thumb_func
 3023              		.fpu fpv4-sp-d16
 3024              		.type	usb_lld_start_out, %function
 3025              	usb_lld_start_out:
 3026              	.LFB286:
 3027              		.loc 1 1200 0
 3028              		.cfi_startproc
 3029              		@ args = 0, pretend = 0, frame = 0
 3030              		@ frame_needed = 0, uses_anonymous_args = 0
 3031              		@ link register save eliminated.
 3032              	.LVL260:
 3033 0000 036D     		ldr	r3, [r0, #80]
 3034 0002 03EB4111 		add	r1, r3, r1, lsl #5
 3035              	.LVL261:
 3036              		.loc 1 1202 0
 3037 0006 D1F8003B 		ldr	r3, [r1, #2816]
 3038 000a 43F08063 		orr	r3, r3, #67108864
 3039 000e C1F8003B 		str	r3, [r1, #2816]
 3040              		.loc 1 1203 0
 3041 0012 7047     		bx	lr
 3042              		.cfi_endproc
 3043              	.LFE286:
 3044              		.size	usb_lld_start_out, .-usb_lld_start_out
 3045              		.section	.text.usb_lld_start_in,"ax",%progbits
 3046              		.align	1
 3047              		.p2align 4,,15
 3048              		.global	usb_lld_start_in
 3049              		.syntax unified
 3050              		.thumb
 3051              		.thumb_func
 3052              		.fpu fpv4-sp-d16
 3053              		.type	usb_lld_start_in, %function
 3054              	usb_lld_start_in:
 3055              	.LFB287:
 3056              		.loc 1 1213 0
 3057              		.cfi_startproc
 3058              		@ args = 0, pretend = 0, frame = 0
 3059              		@ frame_needed = 0, uses_anonymous_args = 0
 3060              		@ link register save eliminated.
 3061              	.LVL262:
 3062              		.loc 1 1215 0
 3063 0000 026D     		ldr	r2, [r0, #80]
 3064              		.loc 1 1213 0
 3065 0002 10B4     		push	{r4}
 3066              		.cfi_def_cfa_offset 4
 3067              		.cfi_offset 4, -4
 3068 0004 02EB4114 		add	r4, r2, r1, lsl #5
 3069              		.loc 1 1216 0
 3070 0008 0123     		movs	r3, #1
 3071              		.loc 1 1215 0
 3072 000a D4F80009 		ldr	r0, [r4, #2304]
 3073              	.LVL263:
 3074 000e 40F00440 		orr	r0, r0, #-2080374784
 3075 0012 C4F80009 		str	r0, [r4, #2304]
 3076              		.loc 1 1216 0
 3077 0016 D2F83408 		ldr	r0, [r2, #2100]
 3078              		.loc 1 1217 0
ARM GAS  /tmp/ccqRaZSa.s 			page 55


 3079 001a 5DF8044B 		ldr	r4, [sp], #4
 3080              		.cfi_restore 4
 3081              		.cfi_def_cfa_offset 0
 3082              		.loc 1 1216 0
 3083 001e 03FA01F1 		lsl	r1, r3, r1
 3084              	.LVL264:
 3085 0022 0143     		orrs	r1, r1, r0
 3086 0024 C2F83418 		str	r1, [r2, #2100]
 3087              		.loc 1 1217 0
 3088 0028 7047     		bx	lr
 3089              		.cfi_endproc
 3090              	.LFE287:
 3091              		.size	usb_lld_start_in, .-usb_lld_start_in
 3092 002a 00BF     		.section	.text.usb_lld_stall_out,"ax",%progbits
 3093              		.align	1
 3094              		.p2align 4,,15
 3095              		.global	usb_lld_stall_out
 3096              		.syntax unified
 3097              		.thumb
 3098              		.thumb_func
 3099              		.fpu fpv4-sp-d16
 3100              		.type	usb_lld_stall_out, %function
 3101              	usb_lld_stall_out:
 3102              	.LFB288:
 3103              		.loc 1 1227 0
 3104              		.cfi_startproc
 3105              		@ args = 0, pretend = 0, frame = 0
 3106              		@ frame_needed = 0, uses_anonymous_args = 0
 3107              		@ link register save eliminated.
 3108              	.LVL265:
 3109 0000 036D     		ldr	r3, [r0, #80]
 3110 0002 03EB4111 		add	r1, r3, r1, lsl #5
 3111              	.LVL266:
 3112              		.loc 1 1229 0
 3113 0006 D1F8003B 		ldr	r3, [r1, #2816]
 3114 000a 43F40013 		orr	r3, r3, #2097152
 3115 000e C1F8003B 		str	r3, [r1, #2816]
 3116              		.loc 1 1230 0
 3117 0012 7047     		bx	lr
 3118              		.cfi_endproc
 3119              	.LFE288:
 3120              		.size	usb_lld_stall_out, .-usb_lld_stall_out
 3121              		.section	.text.usb_lld_stall_in,"ax",%progbits
 3122              		.align	1
 3123              		.p2align 4,,15
 3124              		.global	usb_lld_stall_in
 3125              		.syntax unified
 3126              		.thumb
 3127              		.thumb_func
 3128              		.fpu fpv4-sp-d16
 3129              		.type	usb_lld_stall_in, %function
 3130              	usb_lld_stall_in:
 3131              	.LFB289:
 3132              		.loc 1 1240 0
 3133              		.cfi_startproc
 3134              		@ args = 0, pretend = 0, frame = 0
 3135              		@ frame_needed = 0, uses_anonymous_args = 0
ARM GAS  /tmp/ccqRaZSa.s 			page 56


 3136              		@ link register save eliminated.
 3137              	.LVL267:
 3138 0000 036D     		ldr	r3, [r0, #80]
 3139 0002 03EB4111 		add	r1, r3, r1, lsl #5
 3140              	.LVL268:
 3141              		.loc 1 1242 0
 3142 0006 D1F80039 		ldr	r3, [r1, #2304]
 3143 000a 43F40013 		orr	r3, r3, #2097152
 3144 000e C1F80039 		str	r3, [r1, #2304]
 3145              		.loc 1 1243 0
 3146 0012 7047     		bx	lr
 3147              		.cfi_endproc
 3148              	.LFE289:
 3149              		.size	usb_lld_stall_in, .-usb_lld_stall_in
 3150              		.section	.text.usb_lld_clear_out,"ax",%progbits
 3151              		.align	1
 3152              		.p2align 4,,15
 3153              		.global	usb_lld_clear_out
 3154              		.syntax unified
 3155              		.thumb
 3156              		.thumb_func
 3157              		.fpu fpv4-sp-d16
 3158              		.type	usb_lld_clear_out, %function
 3159              	usb_lld_clear_out:
 3160              	.LFB290:
 3161              		.loc 1 1253 0
 3162              		.cfi_startproc
 3163              		@ args = 0, pretend = 0, frame = 0
 3164              		@ frame_needed = 0, uses_anonymous_args = 0
 3165              		@ link register save eliminated.
 3166              	.LVL269:
 3167 0000 036D     		ldr	r3, [r0, #80]
 3168 0002 03EB4111 		add	r1, r3, r1, lsl #5
 3169              	.LVL270:
 3170              		.loc 1 1255 0
 3171 0006 D1F8003B 		ldr	r3, [r1, #2816]
 3172 000a 23F40013 		bic	r3, r3, #2097152
 3173 000e C1F8003B 		str	r3, [r1, #2816]
 3174              		.loc 1 1256 0
 3175 0012 7047     		bx	lr
 3176              		.cfi_endproc
 3177              	.LFE290:
 3178              		.size	usb_lld_clear_out, .-usb_lld_clear_out
 3179              		.section	.text.usb_lld_clear_in,"ax",%progbits
 3180              		.align	1
 3181              		.p2align 4,,15
 3182              		.global	usb_lld_clear_in
 3183              		.syntax unified
 3184              		.thumb
 3185              		.thumb_func
 3186              		.fpu fpv4-sp-d16
 3187              		.type	usb_lld_clear_in, %function
 3188              	usb_lld_clear_in:
 3189              	.LFB291:
 3190              		.loc 1 1266 0
 3191              		.cfi_startproc
 3192              		@ args = 0, pretend = 0, frame = 0
ARM GAS  /tmp/ccqRaZSa.s 			page 57


 3193              		@ frame_needed = 0, uses_anonymous_args = 0
 3194              		@ link register save eliminated.
 3195              	.LVL271:
 3196 0000 036D     		ldr	r3, [r0, #80]
 3197 0002 03EB4111 		add	r1, r3, r1, lsl #5
 3198              	.LVL272:
 3199              		.loc 1 1268 0
 3200 0006 D1F80039 		ldr	r3, [r1, #2304]
 3201 000a 23F40013 		bic	r3, r3, #2097152
 3202 000e C1F80039 		str	r3, [r1, #2304]
 3203              		.loc 1 1269 0
 3204 0012 7047     		bx	lr
 3205              		.cfi_endproc
 3206              	.LFE291:
 3207              		.size	usb_lld_clear_in, .-usb_lld_clear_in
 3208              		.global	USBD1
 3209              		.section	.bss.USBD1,"aw",%nobits
 3210              		.align	3
 3211              		.set	.LANCHOR0,. + 0
 3212              		.type	USBD1, %object
 3213              		.size	USBD1, 648
 3214              	USBD1:
 3215 0000 00000000 		.space	648
 3215      00000000 
 3215      00000000 
 3215      00000000 
 3215      00000000 
 3216              		.section	.bss.ep0_state,"aw",%nobits
 3217              		.align	2
 3218              		.type	ep0_state, %object
 3219              		.size	ep0_state, 20
 3220              	ep0_state:
 3221 0000 00000000 		.space	20
 3221      00000000 
 3221      00000000 
 3221      00000000 
 3221      00000000 
 3222              		.section	.bss.ep0setup_buffer,"aw",%nobits
 3223              		.align	2
 3224              		.type	ep0setup_buffer, %object
 3225              		.size	ep0setup_buffer, 8
 3226              	ep0setup_buffer:
 3227 0000 00000000 		.space	8
 3227      00000000 
 3228              		.section	.rodata.ep0config,"a",%progbits
 3229              		.align	2
 3230              		.set	.LANCHOR2,. + 0
 3231              		.type	ep0config, %object
 3232              		.size	ep0config, 36
 3233              	ep0config:
 3234 0000 00000000 		.word	0
 3235 0004 00000000 		.word	_usb_ep0setup
 3236 0008 00000000 		.word	_usb_ep0in
 3237 000c 00000000 		.word	_usb_ep0out
 3238 0010 4000     		.short	64
 3239 0012 4000     		.short	64
 3240 0014 00000000 		.word	ep0_state
ARM GAS  /tmp/ccqRaZSa.s 			page 58


 3241 0018 00000000 		.word	ep0_state
 3242 001c 0100     		.short	1
 3243 001e 0000     		.space	2
 3244 0020 00000000 		.word	ep0setup_buffer
 3245              		.section	.rodata.fsparams,"a",%progbits
 3246              		.align	2
 3247              		.set	.LANCHOR1,. + 0
 3248              		.type	fsparams, %object
 3249              		.size	fsparams, 12
 3250              	fsparams:
 3251 0000 00010000 		.word	256
 3252 0004 40010000 		.word	320
 3253 0008 03000000 		.word	3
 3254              		.section	.rodata.usb_lld_pump.str1.4,"aMS",%progbits,1
 3255              		.align	2
 3256              	.LC0:
 3257 0000 7573625F 		.ascii	"usb_lld_pump\000"
 3257      6C6C645F 
 3257      70756D70 
 3257      00
 3258              		.text
 3259              	.Letext0:
 3260              		.file 6 "/usr/lib/gcc/arm-none-eabi/7.3.1/include/stddef.h"
 3261              		.file 7 "/usr/arm-none-eabi/include/machine/_default_types.h"
 3262              		.file 8 "/usr/arm-none-eabi/include/sys/lock.h"
 3263              		.file 9 "/usr/arm-none-eabi/include/sys/_types.h"
 3264              		.file 10 "/usr/arm-none-eabi/include/sys/reent.h"
 3265              		.file 11 "/usr/arm-none-eabi/include/sys/_stdint.h"
 3266              		.file 12 "ChibiOS_3.0.5/os/rt/ports/ARMCMx/compilers/GCC/chtypes.h"
 3267              		.file 13 "ChibiOS_3.0.5/os/rt/include/chsystypes.h"
 3268              		.file 14 "ChibiOS_3.0.5/os/rt/include/chschd.h"
 3269              		.file 15 "ChibiOS_3.0.5/os/ext/CMSIS/include/core_cm4.h"
 3270              		.file 16 "ChibiOS_3.0.5/os/ext/CMSIS/ST/system_stm32f4xx.h"
 3271              		.file 17 "ChibiOS_3.0.5/os/ext/CMSIS/ST/stm32f407xx.h"
 3272              		.file 18 "ChibiOS_3.0.5/os/rt/ports/ARMCMx/chcore.h"
 3273              		.file 19 "ChibiOS_3.0.5/os/rt/ports/ARMCMx/chcore_v7m.h"
 3274              		.file 20 "ChibiOS_3.0.5/os/rt/include/chtm.h"
 3275              		.file 21 "ChibiOS_3.0.5/os/rt/include/chsem.h"
 3276              		.file 22 "ChibiOS_3.0.5/os/rt/include/chmtx.h"
 3277              		.file 23 "ChibiOS_3.0.5/os/rt/include/chevents.h"
 3278              		.file 24 "ChibiOS_3.0.5/os/rt/include/chqueues.h"
 3279              		.file 25 "./datatypes.h"
 3280              		.file 26 "./conf_general.h"
 3281              		.file 27 "ChibiOS_3.0.5/os/hal/ports/STM32/STM32F4xx/stm32_dma.h"
 3282              		.file 28 "ChibiOS_3.0.5/os/hal/ports/STM32/LLD/GPIOv2/pal_lld.h"
 3283              		.file 29 "ChibiOS_3.0.5/os/hal/include/can.h"
 3284              		.file 30 "ChibiOS_3.0.5/os/hal/ports/STM32/LLD/can_lld.h"
 3285              		.file 31 "ChibiOS_3.0.5/os/hal/include/i2c.h"
 3286              		.file 32 "ChibiOS_3.0.5/os/hal/ports/STM32/LLD/I2Cv1/i2c_lld.h"
 3287              		.file 33 "ChibiOS_3.0.5/os/hal/include/icu.h"
 3288              		.file 34 "ChibiOS_3.0.5/os/hal/ports/STM32/LLD/TIMv1/icu_lld.h"
 3289              		.file 35 "ChibiOS_3.0.5/os/hal/ports/STM32/LLD/TIMv1/stm32_tim.h"
 3290              		.file 36 "ChibiOS_3.0.5/os/hal/include/serial.h"
 3291              		.file 37 "ChibiOS_3.0.5/os/hal/ports/STM32/LLD/USARTv1/serial_lld.h"
 3292              		.file 38 "ChibiOS_3.0.5/os/hal/include/spi.h"
 3293              		.file 39 "ChibiOS_3.0.5/os/hal/ports/STM32/LLD/SPIv1/spi_lld.h"
 3294              		.file 40 "ChibiOS_3.0.5/os/hal/include/usb.h"
ARM GAS  /tmp/ccqRaZSa.s 			page 59


 3295              		.file 41 "ChibiOS_3.0.5/os/hal/ports/STM32/LLD/OTGv1/usb_lld.h"
 3296              		.file 42 "ChibiOS_3.0.5/os/hal/ports/STM32/LLD/OTGv1/stm32_otg.h"
 3297              		.file 43 "ChibiOS_3.0.5/os/rt/include/chsys.h"
 3298              		.file 44 "ChibiOS_3.0.5/os/hal/ports/common/ARMCMx/nvic.h"