ARM GAS  /tmp/cc6hROox.s 			page 1


   1              		.cpu cortex-m4
   2              		.eabi_attribute 27, 1
   3              		.eabi_attribute 28, 1
   4              		.eabi_attribute 20, 1
   5              		.eabi_attribute 21, 1
   6              		.eabi_attribute 23, 3
   7              		.eabi_attribute 24, 1
   8              		.eabi_attribute 25, 1
   9              		.eabi_attribute 26, 1
  10              		.eabi_attribute 30, 2
  11              		.eabi_attribute 34, 1
  12              		.eabi_attribute 18, 4
  13              		.file	"utils.c"
  14              		.text
  15              	.Ltext0:
  16              		.cfi_sections	.debug_frame
  17              		.section	.text.uint16_cmp_func,"ax",%progbits
  18              		.align	1
  19              		.p2align 4,,15
  20              		.syntax unified
  21              		.thumb
  22              		.thumb_func
  23              		.fpu fpv4-sp-d16
  24              		.type	uint16_cmp_func, %function
  25              	uint16_cmp_func:
  26              	.LFB295:
  27              		.file 1 "utils.c"
  28              		.loc 1 817 0
  29              		.cfi_startproc
  30              		@ args = 0, pretend = 0, frame = 0
  31              		@ frame_needed = 0, uses_anonymous_args = 0
  32              		@ link register save eliminated.
  33              	.LVL0:
  34              		.loc 1 818 0
  35 0000 0088     		ldrh	r0, [r0]
  36              	.LVL1:
  37 0002 0B88     		ldrh	r3, [r1]
  38              		.loc 1 819 0
  39 0004 C01A     		subs	r0, r0, r3
  40 0006 7047     		bx	lr
  41              		.cfi_endproc
  42              	.LFE295:
  43              		.size	uint16_cmp_func, .-uint16_cmp_func
  44              		.section	.text.utils_step_towards,"ax",%progbits
  45              		.align	1
  46              		.p2align 4,,15
  47              		.global	utils_step_towards
  48              		.syntax unified
  49              		.thumb
  50              		.thumb_func
  51              		.fpu fpv4-sp-d16
  52              		.type	utils_step_towards, %function
  53              	utils_step_towards:
  54              	.LFB256:
  55              		.loc 1 32 0
  56              		.cfi_startproc
  57              		@ args = 0, pretend = 0, frame = 0
ARM GAS  /tmp/cc6hROox.s 			page 2


  58              		@ frame_needed = 0, uses_anonymous_args = 0
  59              		@ link register save eliminated.
  60              	.LVL2:
  61              		.loc 1 33 0
  62 0000 D0ED007A 		vldr.32	s15, [r0]
  63 0004 F4EEC07A 		vcmpe.f32	s15, s0
  64 0008 F1EE10FA 		vmrs	APSR_nzcv, FPSCR
  65 000c 09D5     		bpl	.L15
  66              		.loc 1 34 0
  67 000e 77EEA07A 		vadd.f32	s15, s15, s1
  68 0012 F4EEC07A 		vcmpe.f32	s15, s0
  69 0016 F1EE10FA 		vmrs	APSR_nzcv, FPSCR
  70 001a 0AD5     		bpl	.L6
  71              	.L16:
  72              		.loc 1 41 0
  73 001c C0ED007A 		vstr.32	s15, [r0]
  74              	.L3:
  75              		.loc 1 46 0
  76 0020 7047     		bx	lr
  77              	.L15:
  78              		.loc 1 39 0
  79 0022 FDDD     		ble	.L3
  80              		.loc 1 40 0
  81 0024 77EEE07A 		vsub.f32	s15, s15, s1
  82 0028 F4EEC07A 		vcmpe.f32	s15, s0
  83 002c F1EE10FA 		vmrs	APSR_nzcv, FPSCR
  84 0030 F4DC     		bgt	.L16
  85              	.L6:
  86              		.loc 1 37 0
  87 0032 80ED000A 		vstr.32	s0, [r0]
  88 0036 7047     		bx	lr
  89              		.cfi_endproc
  90              	.LFE256:
  91              		.size	utils_step_towards, .-utils_step_towards
  92              		.section	.text.utils_calc_ratio,"ax",%progbits
  93              		.align	1
  94              		.p2align 4,,15
  95              		.global	utils_calc_ratio
  96              		.syntax unified
  97              		.thumb
  98              		.thumb_func
  99              		.fpu fpv4-sp-d16
 100              		.type	utils_calc_ratio, %function
 101              	utils_calc_ratio:
 102              	.LFB257:
 103              		.loc 1 48 0
 104              		.cfi_startproc
 105              		@ args = 0, pretend = 0, frame = 0
 106              		@ frame_needed = 0, uses_anonymous_args = 0
 107              		@ link register save eliminated.
 108              	.LVL3:
 109              		.loc 1 49 0
 110 0000 31EE401A 		vsub.f32	s2, s2, s0
 111              	.LVL4:
 112 0004 30EEC00A 		vsub.f32	s0, s1, s0
 113              	.LVL5:
 114              		.loc 1 50 0
ARM GAS  /tmp/cc6hROox.s 			page 3


 115 0008 81EE000A 		vdiv.f32	s0, s2, s0
 116 000c 7047     		bx	lr
 117              		.cfi_endproc
 118              	.LFE257:
 119              		.size	utils_calc_ratio, .-utils_calc_ratio
 120 000e 00BF     		.section	.text.utils_norm_angle,"ax",%progbits
 121              		.align	1
 122              		.p2align 4,,15
 123              		.global	utils_norm_angle
 124              		.syntax unified
 125              		.thumb
 126              		.thumb_func
 127              		.fpu fpv4-sp-d16
 128              		.type	utils_norm_angle, %function
 129              	utils_norm_angle:
 130              	.LFB258:
 131              		.loc 1 58 0
 132              		.cfi_startproc
 133              		@ args = 0, pretend = 0, frame = 0
 134              		@ frame_needed = 0, uses_anonymous_args = 0
 135              	.LVL6:
 136 0000 10B5     		push	{r4, lr}
 137              		.cfi_def_cfa_offset 8
 138              		.cfi_offset 4, -8
 139              		.cfi_offset 14, -4
 140 0002 2DED028B 		vpush.64	{d8}
 141              		.cfi_def_cfa_offset 16
 142              		.cfi_offset 80, -16
 143              		.cfi_offset 81, -12
 144              		.loc 1 59 0
 145 0006 9FED0A8A 		vldr.32	s16, .L23
 146 000a 90ED000A 		vldr.32	s0, [r0]
 147 000e F0EE480A 		vmov.f32	s1, s16
 148              		.loc 1 58 0
 149 0012 0446     		mov	r4, r0
 150              		.loc 1 59 0
 151 0014 FFF7FEFF 		bl	fmodf
 152              	.LVL7:
 153              		.loc 1 61 0
 154 0018 B5EEC00A 		vcmpe.f32	s0, #0
 155 001c F1EE10FA 		vmrs	APSR_nzcv, FPSCR
 156              		.loc 1 62 0
 157 0020 48BF     		it	mi
 158 0022 30EE080A 		vaddmi.f32	s0, s0, s16
 159              		.loc 1 64 0
 160 0026 BDEC028B 		vldm	sp!, {d8}
 161              		.cfi_restore 80
 162              		.cfi_restore 81
 163              		.cfi_def_cfa_offset 8
 164              		.loc 1 62 0
 165 002a 84ED000A 		vstr.32	s0, [r4]
 166              		.loc 1 64 0
 167 002e 10BD     		pop	{r4, pc}
 168              	.LVL8:
 169              	.L24:
 170              		.align	2
 171              	.L23:
ARM GAS  /tmp/cc6hROox.s 			page 4


 172 0030 0000B443 		.word	1135869952
 173              		.cfi_endproc
 174              	.LFE258:
 175              		.size	utils_norm_angle, .-utils_norm_angle
 176              		.section	.text.utils_norm_angle_rad,"ax",%progbits
 177              		.align	1
 178              		.p2align 4,,15
 179              		.global	utils_norm_angle_rad
 180              		.syntax unified
 181              		.thumb
 182              		.thumb_func
 183              		.fpu fpv4-sp-d16
 184              		.type	utils_norm_angle_rad, %function
 185              	utils_norm_angle_rad:
 186              	.LFB259:
 187              		.loc 1 75 0
 188              		.cfi_startproc
 189              		@ args = 0, pretend = 0, frame = 0
 190              		@ frame_needed = 0, uses_anonymous_args = 0
 191              		@ link register save eliminated.
 192              	.LVL9:
 193              		.loc 1 76 0
 194 0000 D0ED007A 		vldr.32	s15, [r0]
 195 0004 9FED127A 		vldr.32	s14, .L34
 196 0008 F4EEC77A 		vcmpe.f32	s15, s14
 197 000c F1EE10FA 		vmrs	APSR_nzcv, FPSCR
 198 0010 0AD5     		bpl	.L26
 199              		.loc 1 77 0
 200 0012 DFED106A 		vldr.32	s13, .L34+4
 201              	.L28:
 202 0016 77EEA67A 		vadd.f32	s15, s15, s13
 203              		.loc 1 76 0
 204 001a F4EEC77A 		vcmpe.f32	s15, s14
 205 001e F1EE10FA 		vmrs	APSR_nzcv, FPSCR
 206 0022 F8D4     		bmi	.L28
 207 0024 C0ED007A 		vstr.32	s15, [r0]
 208              	.L26:
 209              		.loc 1 80 0
 210 0028 9FED0B7A 		vldr.32	s14, .L34+8
 211 002c F4EEC77A 		vcmpe.f32	s15, s14
 212 0030 F1EE10FA 		vmrs	APSR_nzcv, FPSCR
 213 0034 0ADD     		ble	.L25
 214              		.loc 1 81 0
 215 0036 DFED076A 		vldr.32	s13, .L34+4
 216              	.L31:
 217 003a 77EEE67A 		vsub.f32	s15, s15, s13
 218              		.loc 1 80 0
 219 003e F4EEC77A 		vcmpe.f32	s15, s14
 220 0042 F1EE10FA 		vmrs	APSR_nzcv, FPSCR
 221 0046 F8DC     		bgt	.L31
 222 0048 C0ED007A 		vstr.32	s15, [r0]
 223              	.L25:
 224              		.loc 1 83 0
 225 004c 7047     		bx	lr
 226              	.L35:
 227 004e 00BF     		.align	2
 228              	.L34:
ARM GAS  /tmp/cc6hROox.s 			page 5


 229 0050 DB0F49C0 		.word	3226013659
 230 0054 DB0FC940 		.word	1086918619
 231 0058 DB0F4940 		.word	1078530011
 232              		.cfi_endproc
 233              	.LFE259:
 234              		.size	utils_norm_angle_rad, .-utils_norm_angle_rad
 235              		.section	.text.utils_truncate_number,"ax",%progbits
 236              		.align	1
 237              		.p2align 4,,15
 238              		.global	utils_truncate_number
 239              		.syntax unified
 240              		.thumb
 241              		.thumb_func
 242              		.fpu fpv4-sp-d16
 243              		.type	utils_truncate_number, %function
 244              	utils_truncate_number:
 245              	.LFB260:
 246              		.loc 1 85 0
 247              		.cfi_startproc
 248              		@ args = 0, pretend = 0, frame = 0
 249              		@ frame_needed = 0, uses_anonymous_args = 0
 250              		@ link register save eliminated.
 251              	.LVL10:
 252              		.loc 1 88 0
 253 0000 D0ED007A 		vldr.32	s15, [r0]
 254 0004 F4EEE07A 		vcmpe.f32	s15, s1
 255 0008 F1EE10FA 		vmrs	APSR_nzcv, FPSCR
 256 000c 09DC     		bgt	.L46
 257              		.loc 1 91 0
 258 000e F4EEC07A 		vcmpe.f32	s15, s0
 259 0012 F1EE10FA 		vmrs	APSR_nzcv, FPSCR
 260              		.loc 1 92 0
 261 0016 46BF     		itte	mi
 262 0018 80ED000A 		vstrmi.32	s0, [r0]
 263              	.LVL11:
 264              		.loc 1 93 0
 265 001c 0120     		movmi	r0, #1
 266              	.LVL12:
 267              		.loc 1 86 0
 268 001e 0020     		movpl	r0, #0
 269              	.LVL13:
 270              		.loc 1 97 0
 271 0020 7047     		bx	lr
 272              	.LVL14:
 273              	.L46:
 274              		.loc 1 89 0
 275 0022 C0ED000A 		vstr.32	s1, [r0]
 276              	.LVL15:
 277              		.loc 1 90 0
 278 0026 0120     		movs	r0, #1
 279              	.LVL16:
 280 0028 7047     		bx	lr
 281              		.cfi_endproc
 282              	.LFE260:
 283              		.size	utils_truncate_number, .-utils_truncate_number
 284              		.section	.text.utils_truncate_number_int,"ax",%progbits
 285              		.align	1
ARM GAS  /tmp/cc6hROox.s 			page 6


 286              		.p2align 4,,15
 287              		.global	utils_truncate_number_int
 288              		.syntax unified
 289              		.thumb
 290              		.thumb_func
 291              		.fpu fpv4-sp-d16
 292              		.type	utils_truncate_number_int, %function
 293              	utils_truncate_number_int:
 294              	.LFB261:
 295              		.loc 1 99 0
 296              		.cfi_startproc
 297              		@ args = 0, pretend = 0, frame = 0
 298              		@ frame_needed = 0, uses_anonymous_args = 0
 299              		@ link register save eliminated.
 300              	.LVL17:
 301              		.loc 1 102 0
 302 0000 0368     		ldr	r3, [r0]
 303 0002 9342     		cmp	r3, r2
 304 0004 05DC     		bgt	.L51
 305              		.loc 1 105 0
 306 0006 8B42     		cmp	r3, r1
 307              		.loc 1 106 0
 308 0008 BABF     		itte	lt
 309 000a 0160     		strlt	r1, [r0]
 310              	.LVL18:
 311              		.loc 1 107 0
 312 000c 0120     		movlt	r0, #1
 313              	.LVL19:
 314              		.loc 1 100 0
 315 000e 0020     		movge	r0, #0
 316              	.LVL20:
 317              		.loc 1 111 0
 318 0010 7047     		bx	lr
 319              	.LVL21:
 320              	.L51:
 321              		.loc 1 103 0
 322 0012 0260     		str	r2, [r0]
 323              	.LVL22:
 324              		.loc 1 104 0
 325 0014 0120     		movs	r0, #1
 326              	.LVL23:
 327 0016 7047     		bx	lr
 328              		.cfi_endproc
 329              	.LFE261:
 330              		.size	utils_truncate_number_int, .-utils_truncate_number_int
 331              		.section	.text.utils_truncate_number_abs,"ax",%progbits
 332              		.align	1
 333              		.p2align 4,,15
 334              		.global	utils_truncate_number_abs
 335              		.syntax unified
 336              		.thumb
 337              		.thumb_func
 338              		.fpu fpv4-sp-d16
 339              		.type	utils_truncate_number_abs, %function
 340              	utils_truncate_number_abs:
 341              	.LFB262:
 342              		.loc 1 113 0
ARM GAS  /tmp/cc6hROox.s 			page 7


 343              		.cfi_startproc
 344              		@ args = 0, pretend = 0, frame = 0
 345              		@ frame_needed = 0, uses_anonymous_args = 0
 346              		@ link register save eliminated.
 347              	.LVL24:
 348              		.loc 1 116 0
 349 0000 D0ED007A 		vldr.32	s15, [r0]
 350 0004 F4EEC07A 		vcmpe.f32	s15, s0
 351 0008 F1EE10FA 		vmrs	APSR_nzcv, FPSCR
 352 000c 06DC     		bgt	.L62
 353              		.loc 1 119 0
 354 000e B1EE400A 		vneg.f32	s0, s0
 355              	.LVL25:
 356 0012 F4EEC07A 		vcmpe.f32	s15, s0
 357 0016 F1EE10FA 		vmrs	APSR_nzcv, FPSCR
 358 001a 03D5     		bpl	.L61
 359              	.L62:
 360              		.loc 1 120 0
 361 001c 80ED000A 		vstr.32	s0, [r0]
 362              	.LVL26:
 363              		.loc 1 121 0
 364 0020 0120     		movs	r0, #1
 365              	.LVL27:
 366 0022 7047     		bx	lr
 367              	.LVL28:
 368              	.L61:
 369              		.loc 1 114 0
 370 0024 0020     		movs	r0, #0
 371              	.LVL29:
 372              		.loc 1 125 0
 373 0026 7047     		bx	lr
 374              		.cfi_endproc
 375              	.LFE262:
 376              		.size	utils_truncate_number_abs, .-utils_truncate_number_abs
 377              		.section	.text.utils_map,"ax",%progbits
 378              		.align	1
 379              		.p2align 4,,15
 380              		.global	utils_map
 381              		.syntax unified
 382              		.thumb
 383              		.thumb_func
 384              		.fpu fpv4-sp-d16
 385              		.type	utils_map, %function
 386              	utils_map:
 387              	.LFB263:
 388              		.loc 1 127 0
 389              		.cfi_startproc
 390              		@ args = 0, pretend = 0, frame = 0
 391              		@ frame_needed = 0, uses_anonymous_args = 0
 392              		@ link register save eliminated.
 393              	.LVL30:
 394              		.loc 1 128 0
 395 0000 30EE600A 		vsub.f32	s0, s0, s1
 396              	.LVL31:
 397 0004 32EE612A 		vsub.f32	s4, s4, s3
 398              	.LVL32:
 399 0008 31EE601A 		vsub.f32	s2, s2, s1
ARM GAS  /tmp/cc6hROox.s 			page 8


 400              	.LVL33:
 401 000c 20EE022A 		vmul.f32	s4, s0, s4
 402 0010 82EE010A 		vdiv.f32	s0, s4, s2
 403              		.loc 1 129 0
 404 0014 30EE210A 		vadd.f32	s0, s0, s3
 405 0018 7047     		bx	lr
 406              		.cfi_endproc
 407              	.LFE263:
 408              		.size	utils_map, .-utils_map
 409 001a 00BF     		.section	.text.utils_map_int,"ax",%progbits
 410              		.align	1
 411              		.p2align 4,,15
 412              		.global	utils_map_int
 413              		.syntax unified
 414              		.thumb
 415              		.thumb_func
 416              		.fpu fpv4-sp-d16
 417              		.type	utils_map_int, %function
 418              	utils_map_int:
 419              	.LFB264:
 420              		.loc 1 131 0
 421              		.cfi_startproc
 422              		@ args = 4, pretend = 0, frame = 0
 423              		@ frame_needed = 0, uses_anonymous_args = 0
 424              		@ link register save eliminated.
 425              	.LVL34:
 426 0000 10B4     		push	{r4}
 427              		.cfi_def_cfa_offset 4
 428              		.cfi_offset 4, -4
 429              		.loc 1 131 0
 430 0002 019C     		ldr	r4, [sp, #4]
 431              		.loc 1 132 0
 432 0004 401A     		subs	r0, r0, r1
 433              	.LVL35:
 434 0006 E41A     		subs	r4, r4, r3
 435 0008 04FB00F4 		mul	r4, r4, r0
 436 000c 521A     		subs	r2, r2, r1
 437              	.LVL36:
 438 000e 94FBF2F0 		sdiv	r0, r4, r2
 439              		.loc 1 133 0
 440 0012 5DF8044B 		ldr	r4, [sp], #4
 441              		.cfi_restore 4
 442              		.cfi_def_cfa_offset 0
 443              	.LVL37:
 444 0016 1844     		add	r0, r0, r3
 445 0018 7047     		bx	lr
 446              		.cfi_endproc
 447              	.LFE264:
 448              		.size	utils_map_int, .-utils_map_int
 449              		.section	.text.utils_deadband,"ax",%progbits
 450              		.align	1
 451              		.p2align 4,,15
 452              		.global	utils_deadband
 453              		.syntax unified
 454              		.thumb
 455              		.thumb_func
 456              		.fpu fpv4-sp-d16
ARM GAS  /tmp/cc6hROox.s 			page 9


 457              		.type	utils_deadband, %function
 458              	utils_deadband:
 459              	.LFB265:
 460              		.loc 1 139 0
 461              		.cfi_startproc
 462              		@ args = 0, pretend = 0, frame = 0
 463              		@ frame_needed = 0, uses_anonymous_args = 0
 464              		@ link register save eliminated.
 465              	.LVL38:
 466              		.loc 1 140 0
 467 0000 90ED007A 		vldr.32	s14, [r0]
 468 0004 F0EEC77A 		vabs.f32	s15, s14
 469 0008 F4EEC07A 		vcmpe.f32	s15, s0
 470 000c F1EE10FA 		vmrs	APSR_nzcv, FPSCR
 471 0010 17D4     		bmi	.L76
 472              	.LBB32:
 473              		.loc 1 143 0
 474 0012 30EEC00A 		vsub.f32	s0, s1, s0
 475              	.LVL39:
 476 0016 F7EE007A 		vmov.f32	s15, #1.0e+0
 477 001a C0EE806A 		vdiv.f32	s13, s1, s0
 478              	.LVL40:
 479              		.loc 1 144 0
 480 001e B5EEC07A 		vcmpe.f32	s14, #0
 481 0022 77EEE67A 		vsub.f32	s15, s15, s13
 482 0026 F1EE10FA 		vmrs	APSR_nzcv, FPSCR
 483 002a 67EEA07A 		vmul.f32	s15, s15, s1
 484              		.loc 1 147 0
 485 002e D6BF     		itet	le
 486 0030 E7EE667A 		vfmsle.f32	s15, s14, s13
 487              		.loc 1 145 0
 488 0034 E7EE267A 		vfmagt.f32	s15, s14, s13
 489              		.loc 1 147 0
 490 0038 F1EE677A 		vnegle.f32	s15, s15
 491 003c C0ED007A 		vstr.32	s15, [r0]
 492              	.LBE32:
 493              		.loc 1 150 0
 494 0040 7047     		bx	lr
 495              	.LVL41:
 496              	.L76:
 497              		.loc 1 141 0
 498 0042 0023     		movs	r3, #0
 499 0044 0360     		str	r3, [r0]	@ float
 500 0046 7047     		bx	lr
 501              		.cfi_endproc
 502              	.LFE265:
 503              		.size	utils_deadband, .-utils_deadband
 504              		.section	.text.utils_angle_difference,"ax",%progbits
 505              		.align	1
 506              		.p2align 4,,15
 507              		.global	utils_angle_difference
 508              		.syntax unified
 509              		.thumb
 510              		.thumb_func
 511              		.fpu fpv4-sp-d16
 512              		.type	utils_angle_difference, %function
 513              	utils_angle_difference:
ARM GAS  /tmp/cc6hROox.s 			page 10


 514              	.LFB266:
 515              		.loc 1 161 0
 516              		.cfi_startproc
 517              		@ args = 0, pretend = 0, frame = 0
 518              		@ frame_needed = 0, uses_anonymous_args = 0
 519              		@ link register save eliminated.
 520              	.LVL42:
 521              		.loc 1 176 0
 522 0000 30EE600A 		vsub.f32	s0, s0, s1
 523              	.LVL43:
 524              		.loc 1 177 0
 525 0004 DFED107A 		vldr.32	s15, .L86
 526 0008 B4EEE70A 		vcmpe.f32	s0, s15
 527 000c F1EE10FA 		vmrs	APSR_nzcv, FPSCR
 528 0010 08D5     		bpl	.L78
 529 0012 9FED0E7A 		vldr.32	s14, .L86+4
 530              	.L80:
 531              		.loc 1 177 0 is_stmt 0 discriminator 2
 532 0016 30EE070A 		vadd.f32	s0, s0, s14
 533              	.LVL44:
 534 001a B4EEE70A 		vcmpe.f32	s0, s15
 535 001e F1EE10FA 		vmrs	APSR_nzcv, FPSCR
 536 0022 F8D4     		bmi	.L80
 537              	.L78:
 538              		.loc 1 178 0 is_stmt 1
 539 0024 DFED0A7A 		vldr.32	s15, .L86+8
 540 0028 B4EEE70A 		vcmpe.f32	s0, s15
 541 002c F1EE10FA 		vmrs	APSR_nzcv, FPSCR
 542 0030 08DD     		ble	.L77
 543 0032 9FED067A 		vldr.32	s14, .L86+4
 544              	.L83:
 545              		.loc 1 178 0 is_stmt 0 discriminator 2
 546 0036 30EE470A 		vsub.f32	s0, s0, s14
 547              	.LVL45:
 548 003a B4EEE70A 		vcmpe.f32	s0, s15
 549 003e F1EE10FA 		vmrs	APSR_nzcv, FPSCR
 550 0042 F8DC     		bgt	.L83
 551              	.L77:
 552              		.loc 1 180 0 is_stmt 1
 553 0044 7047     		bx	lr
 554              	.L87:
 555 0046 00BF     		.align	2
 556              	.L86:
 557 0048 000034C3 		.word	3274964992
 558 004c 0000B443 		.word	1135869952
 559 0050 00003443 		.word	1127481344
 560              		.cfi_endproc
 561              	.LFE266:
 562              		.size	utils_angle_difference, .-utils_angle_difference
 563              		.section	.text.utils_angle_difference_rad,"ax",%progbits
 564              		.align	1
 565              		.p2align 4,,15
 566              		.global	utils_angle_difference_rad
 567              		.syntax unified
 568              		.thumb
 569              		.thumb_func
 570              		.fpu fpv4-sp-d16
ARM GAS  /tmp/cc6hROox.s 			page 11


 571              		.type	utils_angle_difference_rad, %function
 572              	utils_angle_difference_rad:
 573              	.LFB267:
 574              		.loc 1 191 0
 575              		.cfi_startproc
 576              		@ args = 0, pretend = 0, frame = 0
 577              		@ frame_needed = 0, uses_anonymous_args = 0
 578              		@ link register save eliminated.
 579              	.LVL46:
 580              		.loc 1 192 0
 581 0000 30EE600A 		vsub.f32	s0, s0, s1
 582              	.LVL47:
 583              		.loc 1 193 0
 584 0004 DFED107A 		vldr.32	s15, .L97
 585 0008 B4EEE70A 		vcmpe.f32	s0, s15
 586 000c F1EE10FA 		vmrs	APSR_nzcv, FPSCR
 587 0010 08D5     		bpl	.L89
 588 0012 9FED0E7A 		vldr.32	s14, .L97+4
 589              	.L91:
 590              		.loc 1 193 0 is_stmt 0 discriminator 2
 591 0016 30EE070A 		vadd.f32	s0, s0, s14
 592              	.LVL48:
 593 001a B4EEE70A 		vcmpe.f32	s0, s15
 594 001e F1EE10FA 		vmrs	APSR_nzcv, FPSCR
 595 0022 F8D4     		bmi	.L91
 596              	.L89:
 597              		.loc 1 194 0 is_stmt 1
 598 0024 DFED0A7A 		vldr.32	s15, .L97+8
 599 0028 B4EEE70A 		vcmpe.f32	s0, s15
 600 002c F1EE10FA 		vmrs	APSR_nzcv, FPSCR
 601 0030 08DD     		ble	.L88
 602 0032 9FED067A 		vldr.32	s14, .L97+4
 603              	.L94:
 604              		.loc 1 194 0 is_stmt 0 discriminator 2
 605 0036 30EE470A 		vsub.f32	s0, s0, s14
 606              	.LVL49:
 607 003a B4EEE70A 		vcmpe.f32	s0, s15
 608 003e F1EE10FA 		vmrs	APSR_nzcv, FPSCR
 609 0042 F8DC     		bgt	.L94
 610              	.L88:
 611              		.loc 1 196 0 is_stmt 1
 612 0044 7047     		bx	lr
 613              	.L98:
 614 0046 00BF     		.align	2
 615              	.L97:
 616 0048 DB0F49C0 		.word	3226013659
 617 004c DB0FC940 		.word	1086918619
 618 0050 DB0F4940 		.word	1078530011
 619              		.cfi_endproc
 620              	.LFE267:
 621              		.size	utils_angle_difference_rad, .-utils_angle_difference_rad
 622              		.section	.text.utils_middle_of_3,"ax",%progbits
 623              		.align	1
 624              		.p2align 4,,15
 625              		.global	utils_middle_of_3
 626              		.syntax unified
 627              		.thumb
ARM GAS  /tmp/cc6hROox.s 			page 12


 628              		.thumb_func
 629              		.fpu fpv4-sp-d16
 630              		.type	utils_middle_of_3, %function
 631              	utils_middle_of_3:
 632              	.LFB269:
 633              		.loc 1 242 0
 634              		.cfi_startproc
 635              		@ args = 0, pretend = 0, frame = 0
 636              		@ frame_needed = 0, uses_anonymous_args = 0
 637              		@ link register save eliminated.
 638              	.LVL50:
 639              		.loc 1 245 0
 640 0000 B4EEE00A 		vcmpe.f32	s0, s1
 641 0004 F1EE10FA 		vmrs	APSR_nzcv, FPSCR
 642 0008 0ED8     		bhi	.L124
 643              		.loc 1 245 0 is_stmt 0 discriminator 1
 644 000a B4EEC10A 		vcmpe.f32	s0, s2
 645 000e F1EE10FA 		vmrs	APSR_nzcv, FPSCR
 646 0012 1FD8     		bhi	.L125
 647              		.loc 1 246 0 is_stmt 1
 648 0014 F4EEC10A 		vcmpe.f32	s1, s2
 649 0018 F1EE10FA 		vmrs	APSR_nzcv, FPSCR
 650 001c 8CBF     		ite	hi
 651 001e B0EE410A 		vmovhi.f32	s0, s2
 652 0022 B0EE600A 		vmovls.f32	s0, s1
 653              	.LVL51:
 654 0026 7047     		bx	lr
 655              	.LVL52:
 656              	.L124:
 657              		.loc 1 247 0
 658 0028 0CDB     		blt	.L106
 659              		.loc 1 247 0 is_stmt 0 discriminator 1
 660 002a F4EEC10A 		vcmpe.f32	s1, s2
 661 002e F1EE10FA 		vmrs	APSR_nzcv, FPSCR
 662 0032 07D8     		bhi	.L106
 663              	.L112:
 664              		.loc 1 248 0 is_stmt 1
 665 0034 B4EEC10A 		vcmpe.f32	s0, s2
 666 0038 F1EE10FA 		vmrs	APSR_nzcv, FPSCR
 667              		.loc 1 246 0
 668 003c 88BF     		it	hi
 669 003e B0EE410A 		vmovhi.f32	s0, s2
 670              	.LVL53:
 671 0042 7047     		bx	lr
 672              	.LVL54:
 673              	.L106:
 674              		.loc 1 250 0
 675 0044 B4EEE00A 		vcmpe.f32	s0, s1
 676 0048 F1EE10FA 		vmrs	APSR_nzcv, FPSCR
 677 004c 88BF     		it	hi
 678 004e B0EE600A 		vmovhi.f32	s0, s1
 679              	.LVL55:
 680 0052 7047     		bx	lr
 681              	.LVL56:
 682              	.L125:
 683              		.loc 1 247 0
 684 0054 B4EEE00A 		vcmpe.f32	s0, s1
ARM GAS  /tmp/cc6hROox.s 			page 13


 685 0058 F1EE10FA 		vmrs	APSR_nzcv, FPSCR
 686 005c 04DB     		blt	.L99
 687 005e F4EEC10A 		vcmpe.f32	s1, s2
 688 0062 F1EE10FA 		vmrs	APSR_nzcv, FPSCR
 689 0066 E5D9     		bls	.L112
 690              	.L99:
 691              		.loc 1 253 0
 692 0068 7047     		bx	lr
 693              		.cfi_endproc
 694              	.LFE269:
 695              		.size	utils_middle_of_3, .-utils_middle_of_3
 696 006a 00BF     		.section	.text.utils_middle_of_3_int,"ax",%progbits
 697              		.align	1
 698              		.p2align 4,,15
 699              		.global	utils_middle_of_3_int
 700              		.syntax unified
 701              		.thumb
 702              		.thumb_func
 703              		.fpu fpv4-sp-d16
 704              		.type	utils_middle_of_3_int, %function
 705              	utils_middle_of_3_int:
 706              	.LFB270:
 707              		.loc 1 270 0
 708              		.cfi_startproc
 709              		@ args = 0, pretend = 0, frame = 0
 710              		@ frame_needed = 0, uses_anonymous_args = 0
 711              		@ link register save eliminated.
 712              	.LVL57:
 713              		.loc 1 273 0
 714 0000 8842     		cmp	r0, r1
 715 0002 05DD     		ble	.L133
 716              	.L128:
 717              		.loc 1 275 0 discriminator 1
 718 0004 9142     		cmp	r1, r2
 719 0006 0BDD     		ble	.L134
 720              		.loc 1 278 0
 721 0008 8842     		cmp	r0, r1
 722 000a A8BF     		it	ge
 723 000c 0846     		movge	r0, r1
 724              	.LVL58:
 725              		.loc 1 281 0
 726 000e 7047     		bx	lr
 727              	.LVL59:
 728              	.L133:
 729              		.loc 1 273 0 discriminator 1
 730 0010 9042     		cmp	r0, r2
 731 0012 09DD     		ble	.L135
 732              		.loc 1 275 0
 733 0014 8842     		cmp	r0, r1
 734 0016 F5DA     		bge	.L128
 735              		.loc 1 278 0
 736 0018 8842     		cmp	r0, r1
 737 001a A8BF     		it	ge
 738 001c 0846     		movge	r0, r1
 739              	.LVL60:
 740              		.loc 1 281 0
 741 001e 7047     		bx	lr
ARM GAS  /tmp/cc6hROox.s 			page 14


 742              	.LVL61:
 743              	.L134:
 744              		.loc 1 276 0
 745 0020 9042     		cmp	r0, r2
 746 0022 A8BF     		it	ge
 747 0024 1046     		movge	r0, r2
 748              	.LVL62:
 749 0026 7047     		bx	lr
 750              	.LVL63:
 751              	.L135:
 752              		.loc 1 274 0
 753 0028 9142     		cmp	r1, r2
 754 002a A8BF     		it	ge
 755 002c 1146     		movge	r1, r2
 756              	.LVL64:
 757 002e 0846     		mov	r0, r1
 758              	.LVL65:
 759 0030 7047     		bx	lr
 760              		.cfi_endproc
 761              	.LFE270:
 762              		.size	utils_middle_of_3_int, .-utils_middle_of_3_int
 763 0032 00BF     		.section	.text.utils_fast_inv_sqrt,"ax",%progbits
 764              		.align	1
 765              		.p2align 4,,15
 766              		.global	utils_fast_inv_sqrt
 767              		.syntax unified
 768              		.thumb
 769              		.thumb_func
 770              		.fpu fpv4-sp-d16
 771              		.type	utils_fast_inv_sqrt, %function
 772              	utils_fast_inv_sqrt:
 773              	.LFB271:
 774              		.loc 1 285 0
 775              		.cfi_startproc
 776              		@ args = 0, pretend = 0, frame = 0
 777              		@ frame_needed = 0, uses_anonymous_args = 0
 778              		@ link register save eliminated.
 779              	.LVL66:
 780              		.loc 1 294 0
 781 0000 10EE102A 		vmov	r2, s0	@ int
 782              		.loc 1 293 0
 783 0004 084B     		ldr	r3, .L137
 784              		.loc 1 291 0
 785 0006 B6EE007A 		vmov.f32	s14, #5.0e-1
 786              		.loc 1 294 0
 787 000a A3EB6203 		sub	r3, r3, r2, asr #1
 788              	.LVL67:
 789 000e 07EE903A 		vmov	s15, r3	@ int
 790              		.loc 1 291 0
 791 0012 20EE077A 		vmul.f32	s14, s0, s14
 792              	.LVL68:
 793              		.loc 1 294 0
 794 0016 B7EE080A 		vmov.f32	s0, #1.5e+0
 795              	.LVL69:
 796 001a 27EE277A 		vmul.f32	s14, s14, s15
 797              	.LVL70:
 798 001e A7EEC70A 		vfms.f32	s0, s15, s14
ARM GAS  /tmp/cc6hROox.s 			page 15


 799              		.loc 1 296 0
 800 0022 20EE270A 		vmul.f32	s0, s0, s15
 801 0026 7047     		bx	lr
 802              	.L138:
 803              		.align	2
 804              	.L137:
 805 0028 DF59375F 		.word	1597463007
 806              		.cfi_endproc
 807              	.LFE271:
 808              		.size	utils_fast_inv_sqrt, .-utils_fast_inv_sqrt
 809              		.section	.text.utils_fast_atan2,"ax",%progbits
 810              		.align	1
 811              		.p2align 4,,15
 812              		.global	utils_fast_atan2
 813              		.syntax unified
 814              		.thumb
 815              		.thumb_func
 816              		.fpu fpv4-sp-d16
 817              		.type	utils_fast_atan2, %function
 818              	utils_fast_atan2:
 819              	.LFB272:
 820              		.loc 1 312 0
 821              		.cfi_startproc
 822              		@ args = 0, pretend = 0, frame = 0
 823              		@ frame_needed = 0, uses_anonymous_args = 0
 824              		@ link register save eliminated.
 825              	.LVL71:
 826              		.loc 1 313 0
 827 0000 DFED226A 		vldr.32	s13, .L150
 828 0004 F0EEC07A 		vabs.f32	s15, s0
 829 0008 77EEA67A 		vadd.f32	s15, s15, s13
 830              	.LVL72:
 831              		.loc 1 316 0
 832 000c F5EEC00A 		vcmpe.f32	s1, #0
 833 0010 F1EE10FA 		vmrs	APSR_nzcv, FPSCR
 834              		.loc 1 312 0
 835 0014 B0EE407A 		vmov.f32	s14, s0
 836 0018 77EEA05A 		vadd.f32	s11, s15, s1
 837              		.loc 1 316 0
 838 001c 22DB     		blt	.L149
 839              	.LBB33:
 840              		.loc 1 317 0
 841 001e 70EEE70A 		vsub.f32	s1, s1, s15
 842              	.LVL73:
 843              		.loc 1 319 0
 844 0022 9FED1B5A 		vldr.32	s10, .L150+4
 845 0026 9FED1B6A 		vldr.32	s12, .L150+8
 846 002a DFED1B7A 		vldr.32	s15, .L150+12
 847              	.LVL74:
 848              		.loc 1 317 0
 849 002e C0EEA56A 		vdiv.f32	s13, s1, s11
 850              	.LVL75:
 851              		.loc 1 318 0
 852 0032 66EEA65A 		vmul.f32	s11, s13, s13
 853              	.LVL76:
 854              		.loc 1 319 0
 855 0036 A5EE856A 		vfma.f32	s12, s11, s10
ARM GAS  /tmp/cc6hROox.s 			page 16


 856 003a E6EE267A 		vfma.f32	s15, s12, s13
 857 003e B0EE670A 		vmov.f32	s0, s15
 858              	.LVL77:
 859              	.L142:
 860              	.LBE33:
 861              		.loc 1 326 0
 862 0042 DFED167A 		vldr.32	s15, .L150+16
 863 0046 B4EE400A 		vcmp.f32	s0, s0
 864 004a F1EE10FA 		vmrs	APSR_nzcv, FPSCR
 865              		.loc 1 328 0
 866 004e B4EEE77A 		vcmpe.f32	s14, s15
 867              		.loc 1 326 0
 868 0052 18BF     		it	ne
 869 0054 B0EE670A 		vmovne.f32	s0, s15
 870              	.LVL78:
 871              		.loc 1 328 0
 872 0058 F1EE10FA 		vmrs	APSR_nzcv, FPSCR
 873              		.loc 1 329 0
 874 005c 48BF     		it	mi
 875 005e B1EE400A 		vnegmi.f32	s0, s0
 876              	.LVL79:
 877              		.loc 1 333 0
 878 0062 7047     		bx	lr
 879              	.LVL80:
 880              	.L149:
 881              	.LBB34:
 882              		.loc 1 321 0
 883 0064 77EEE00A 		vsub.f32	s1, s15, s1
 884              	.LVL81:
 885              		.loc 1 323 0
 886 0068 9FED095A 		vldr.32	s10, .L150+4
 887 006c 9FED096A 		vldr.32	s12, .L150+8
 888 0070 DFED0B7A 		vldr.32	s15, .L150+20
 889              	.LVL82:
 890              		.loc 1 321 0
 891 0074 C5EEA06A 		vdiv.f32	s13, s11, s1
 892              	.LVL83:
 893              		.loc 1 322 0
 894 0078 66EEA65A 		vmul.f32	s11, s13, s13
 895              	.LVL84:
 896              		.loc 1 323 0
 897 007c A5EE856A 		vfma.f32	s12, s11, s10
 898 0080 E6EE267A 		vfma.f32	s15, s12, s13
 899 0084 B0EE670A 		vmov.f32	s0, s15
 900              	.LVL85:
 901 0088 DBE7     		b	.L142
 902              	.L151:
 903 008a 00BF     		.align	2
 904              	.L150:
 905 008c 08E53C1E 		.word	507307272
 906 0090 DE02493E 		.word	1044972254
 907 0094 B1507BBF 		.word	3212529841
 908 0098 DB0F493F 		.word	1061752795
 909 009c 00000000 		.word	0
 910 00a0 E4CB1640 		.word	1075235812
 911              	.LBE34:
 912              		.cfi_endproc
ARM GAS  /tmp/cc6hROox.s 			page 17


 913              	.LFE272:
 914              		.size	utils_fast_atan2, .-utils_fast_atan2
 915              		.section	.text.utils_saturate_vector_2d,"ax",%progbits
 916              		.align	1
 917              		.p2align 4,,15
 918              		.global	utils_saturate_vector_2d
 919              		.syntax unified
 920              		.thumb
 921              		.thumb_func
 922              		.fpu fpv4-sp-d16
 923              		.type	utils_saturate_vector_2d, %function
 924              	utils_saturate_vector_2d:
 925              	.LFB273:
 926              		.loc 1 350 0
 927              		.cfi_startproc
 928              		@ args = 0, pretend = 0, frame = 8
 929              		@ frame_needed = 0, uses_anonymous_args = 0
 930              	.LVL86:
 931              		.loc 1 352 0
 932 0000 D1ED007A 		vldr.32	s15, [r1]
 933 0004 90ED007A 		vldr.32	s14, [r0]
 934              		.loc 1 350 0
 935 0008 10B5     		push	{r4, lr}
 936              		.cfi_def_cfa_offset 8
 937              		.cfi_offset 4, -8
 938              		.cfi_offset 14, -4
 939              		.loc 1 352 0
 940 000a 67EEA77A 		vmul.f32	s15, s15, s15
 941              		.loc 1 350 0
 942 000e 2DED028B 		vpush.64	{d8}
 943              		.cfi_def_cfa_offset 16
 944              		.cfi_offset 80, -16
 945              		.cfi_offset 81, -12
 946              		.loc 1 352 0
 947 0012 E7EE077A 		vfma.f32	s15, s14, s14
 948              		.loc 1 350 0
 949 0016 82B0     		sub	sp, sp, #8
 950              		.cfi_def_cfa_offset 24
 951              		.loc 1 350 0
 952 0018 0446     		mov	r4, r0
 953 001a F0EE408A 		vmov.f32	s17, s0
 954 001e F5EE407A 		vcmp.f32	s15, #0
 955 0022 F1EE10FA 		vmrs	APSR_nzcv, FPSCR
 956              		.loc 1 352 0
 957 0026 B1EEE78A 		vsqrt.f32	s16, s15
 958 002a 27D4     		bmi	.L163
 959              	.LVL87:
 960              	.L153:
 961              		.loc 1 355 0
 962 002c DFED177A 		vldr.32	s15, .L164
 963              		.loc 1 356 0
 964 0030 B4EE678A 		vcmp.f32	s16, s15
 965 0034 F1EE10FA 		vmrs	APSR_nzcv, FPSCR
 966 0038 48BF     		it	mi
 967 003a B0EE678A 		vmovmi.f32	s16, s15
 968              	.LVL88:
 969              		.loc 1 353 0
ARM GAS  /tmp/cc6hROox.s 			page 18


 970 003e B0EEE80A 		vabs.f32	s0, s17
 971              	.LVL89:
 972              		.loc 1 359 0
 973 0042 B4EEC08A 		vcmpe.f32	s16, s0
 974 0046 F1EE10FA 		vmrs	APSR_nzcv, FPSCR
 975 004a 12DD     		ble	.L161
 976              	.LBB35:
 977              		.loc 1 360 0
 978 004c C0EE086A 		vdiv.f32	s13, s0, s16
 979              	.LVL90:
 980              		.loc 1 363 0
 981 0050 0120     		movs	r0, #1
 982              		.loc 1 361 0
 983 0052 94ED007A 		vldr.32	s14, [r4]
 984 0056 27EE267A 		vmul.f32	s14, s14, s13
 985 005a 84ED007A 		vstr.32	s14, [r4]
 986              		.loc 1 362 0
 987 005e D1ED007A 		vldr.32	s15, [r1]
 988 0062 67EEA67A 		vmul.f32	s15, s15, s13
 989 0066 C1ED007A 		vstr.32	s15, [r1]
 990              	.LVL91:
 991              	.LBE35:
 992              		.loc 1 367 0
 993 006a 02B0     		add	sp, sp, #8
 994              		.cfi_remember_state
 995              		.cfi_def_cfa_offset 16
 996              		@ sp needed
 997 006c BDEC028B 		vldm	sp!, {d8}
 998              		.cfi_restore 80
 999              		.cfi_restore 81
 1000              		.cfi_def_cfa_offset 8
 1001              	.LVL92:
 1002 0070 10BD     		pop	{r4, pc}
 1003              	.LVL93:
 1004              	.L161:
 1005              		.cfi_restore_state
 1006              		.loc 1 351 0
 1007 0072 0020     		movs	r0, #0
 1008              	.LVL94:
 1009              		.loc 1 367 0
 1010 0074 02B0     		add	sp, sp, #8
 1011              		.cfi_remember_state
 1012              		.cfi_def_cfa_offset 16
 1013              		@ sp needed
 1014 0076 BDEC028B 		vldm	sp!, {d8}
 1015              		.cfi_restore 80
 1016              		.cfi_restore 81
 1017              		.cfi_def_cfa_offset 8
 1018              	.LVL95:
 1019 007a 10BD     		pop	{r4, pc}
 1020              	.LVL96:
 1021              	.L163:
 1022              		.cfi_restore_state
 1023              		.loc 1 352 0
 1024 007c B0EE670A 		vmov.f32	s0, s15
 1025              	.LVL97:
 1026 0080 0191     		str	r1, [sp, #4]
ARM GAS  /tmp/cc6hROox.s 			page 19


 1027 0082 FFF7FEFF 		bl	sqrtf
 1028              	.LVL98:
 1029 0086 0199     		ldr	r1, [sp, #4]
 1030 0088 D0E7     		b	.L153
 1031              	.L165:
 1032 008a 00BF     		.align	2
 1033              	.L164:
 1034 008c FFE6DB2E 		.word	786163455
 1035              		.cfi_endproc
 1036              	.LFE273:
 1037              		.size	utils_saturate_vector_2d, .-utils_saturate_vector_2d
 1038              		.section	.text.utils_fast_sincos,"ax",%progbits
 1039              		.align	1
 1040              		.p2align 4,,15
 1041              		.global	utils_fast_sincos
 1042              		.syntax unified
 1043              		.thumb
 1044              		.thumb_func
 1045              		.fpu fpv4-sp-d16
 1046              		.type	utils_fast_sincos, %function
 1047              	utils_fast_sincos:
 1048              	.LFB274:
 1049              		.loc 1 384 0
 1050              		.cfi_startproc
 1051              		@ args = 0, pretend = 0, frame = 0
 1052              		@ frame_needed = 0, uses_anonymous_args = 0
 1053              		@ link register save eliminated.
 1054              	.LVL99:
 1055              		.loc 1 386 0
 1056 0000 DFED2C7A 		vldr.32	s15, .L188
 1057 0004 B4EEE70A 		vcmpe.f32	s0, s15
 1058 0008 F1EE10FA 		vmrs	APSR_nzcv, FPSCR
 1059 000c 08D5     		bpl	.L167
 1060              		.loc 1 387 0
 1061 000e 9FED2A7A 		vldr.32	s14, .L188+4
 1062              	.L169:
 1063 0012 30EE070A 		vadd.f32	s0, s0, s14
 1064              	.LVL100:
 1065              		.loc 1 386 0
 1066 0016 B4EEE70A 		vcmpe.f32	s0, s15
 1067 001a F1EE10FA 		vmrs	APSR_nzcv, FPSCR
 1068 001e F8D4     		bmi	.L169
 1069              	.L167:
 1070              		.loc 1 390 0
 1071 0020 DFED267A 		vldr.32	s15, .L188+8
 1072 0024 B4EEE70A 		vcmpe.f32	s0, s15
 1073 0028 F1EE10FA 		vmrs	APSR_nzcv, FPSCR
 1074 002c 08DD     		ble	.L170
 1075              		.loc 1 391 0
 1076 002e 9FED227A 		vldr.32	s14, .L188+4
 1077              	.L172:
 1078 0032 30EE470A 		vsub.f32	s0, s0, s14
 1079              	.LVL101:
 1080              		.loc 1 390 0
 1081 0036 B4EEE70A 		vcmpe.f32	s0, s15
 1082 003a F1EE10FA 		vmrs	APSR_nzcv, FPSCR
 1083 003e F8DC     		bgt	.L172
ARM GAS  /tmp/cc6hROox.s 			page 20


 1084              	.L170:
 1085 0040 9FED1F7A 		vldr.32	s14, .L188+12
 1086 0044 DFED1F7A 		vldr.32	s15, .L188+16
 1087 0048 20EE077A 		vmul.f32	s14, s0, s14
 1088 004c 60EE277A 		vmul.f32	s15, s0, s15
 1089 0050 27EE007A 		vmul.f32	s14, s14, s0
 1090              		.loc 1 395 0
 1091 0054 B5EEC00A 		vcmpe.f32	s0, #0
 1092 0058 F1EE10FA 		vmrs	APSR_nzcv, FPSCR
 1093              		.loc 1 396 0
 1094 005c 4CBF     		ite	mi
 1095 005e 77EE877A 		vaddmi.f32	s15, s15, s14
 1096              		.loc 1 398 0
 1097 0062 77EEC77A 		vsubpl.f32	s15, s15, s14
 1098              		.loc 1 402 0
 1099 0066 9FED187A 		vldr.32	s14, .L188+20
 1100              		.loc 1 398 0
 1101 006a C0ED007A 		vstr.32	s15, [r0]
 1102              		.loc 1 402 0
 1103 006e 30EE070A 		vadd.f32	s0, s0, s14
 1104              	.LVL102:
 1105              		.loc 1 404 0
 1106 0072 DFED127A 		vldr.32	s15, .L188+8
 1107 0076 9FED137A 		vldr.32	s14, .L188+16
 1108 007a B4EEE70A 		vcmpe.f32	s0, s15
 1109 007e F1EE10FA 		vmrs	APSR_nzcv, FPSCR
 1110              		.loc 1 405 0
 1111 0082 C4BF     		itt	gt
 1112 0084 DFED0C7A 		vldrgt.32	s15, .L188+4
 1113 0088 30EE670A 		vsubgt.f32	s0, s0, s15
 1114              	.LVL103:
 1115 008c DFED0C7A 		vldr.32	s15, .L188+12
 1116 0090 60EE277A 		vmul.f32	s15, s0, s15
 1117 0094 20EE077A 		vmul.f32	s14, s0, s14
 1118 0098 67EE807A 		vmul.f32	s15, s15, s0
 1119              		.loc 1 408 0
 1120 009c B5EEC00A 		vcmpe.f32	s0, #0
 1121 00a0 F1EE10FA 		vmrs	APSR_nzcv, FPSCR
 1122              		.loc 1 409 0
 1123 00a4 4CBF     		ite	mi
 1124 00a6 77EE277A 		vaddmi.f32	s15, s14, s15
 1125              		.loc 1 411 0
 1126 00aa 77EE677A 		vsubpl.f32	s15, s14, s15
 1127 00ae C1ED007A 		vstr.32	s15, [r1]
 1128              		.loc 1 413 0
 1129 00b2 7047     		bx	lr
 1130              	.L189:
 1131              		.align	2
 1132              	.L188:
 1133 00b4 DB0F49C0 		.word	3226013659
 1134 00b8 DB0FC940 		.word	1086918619
 1135 00bc DB0F4940 		.word	1078530011
 1136 00c0 7B81CF3E 		.word	1053786491
 1137 00c4 83F9A23F 		.word	1067645315
 1138 00c8 DB0FC93F 		.word	1070141403
 1139              		.cfi_endproc
 1140              	.LFE274:
ARM GAS  /tmp/cc6hROox.s 			page 21


 1141              		.size	utils_fast_sincos, .-utils_fast_sincos
 1142              		.section	.text.utils_fast_sincos_better,"ax",%progbits
 1143              		.align	1
 1144              		.p2align 4,,15
 1145              		.global	utils_fast_sincos_better
 1146              		.syntax unified
 1147              		.thumb
 1148              		.thumb_func
 1149              		.fpu fpv4-sp-d16
 1150              		.type	utils_fast_sincos_better, %function
 1151              	utils_fast_sincos_better:
 1152              	.LFB275:
 1153              		.loc 1 430 0
 1154              		.cfi_startproc
 1155              		@ args = 0, pretend = 0, frame = 0
 1156              		@ frame_needed = 0, uses_anonymous_args = 0
 1157              		@ link register save eliminated.
 1158              	.LVL104:
 1159              		.loc 1 432 0
 1160 0000 DFED3D7A 		vldr.32	s15, .L234
 1161 0004 B4EEE70A 		vcmpe.f32	s0, s15
 1162 0008 F1EE10FA 		vmrs	APSR_nzcv, FPSCR
 1163 000c 08D5     		bpl	.L191
 1164              		.loc 1 433 0
 1165 000e 9FED3B7A 		vldr.32	s14, .L234+4
 1166              	.L193:
 1167 0012 30EE070A 		vadd.f32	s0, s0, s14
 1168              	.LVL105:
 1169              		.loc 1 432 0
 1170 0016 B4EEE70A 		vcmpe.f32	s0, s15
 1171 001a F1EE10FA 		vmrs	APSR_nzcv, FPSCR
 1172 001e F8D4     		bmi	.L193
 1173              	.L191:
 1174              		.loc 1 436 0
 1175 0020 DFED377A 		vldr.32	s15, .L234+8
 1176 0024 B4EEE70A 		vcmpe.f32	s0, s15
 1177 0028 F1EE10FA 		vmrs	APSR_nzcv, FPSCR
 1178 002c 08DD     		ble	.L194
 1179              		.loc 1 437 0
 1180 002e 9FED337A 		vldr.32	s14, .L234+4
 1181              	.L196:
 1182 0032 30EE470A 		vsub.f32	s0, s0, s14
 1183              	.LVL106:
 1184              		.loc 1 436 0
 1185 0036 B4EEE70A 		vcmpe.f32	s0, s15
 1186 003a F1EE10FA 		vmrs	APSR_nzcv, FPSCR
 1187 003e F8DC     		bgt	.L196
 1188              	.L194:
 1189 0040 9FED307A 		vldr.32	s14, .L234+12
 1190 0044 DFED307A 		vldr.32	s15, .L234+16
 1191 0048 20EE077A 		vmul.f32	s14, s0, s14
 1192 004c 60EE277A 		vmul.f32	s15, s0, s15
 1193 0050 27EE007A 		vmul.f32	s14, s14, s0
 1194              		.loc 1 441 0
 1195 0054 B5EEC00A 		vcmpe.f32	s0, #0
 1196 0058 F1EE10FA 		vmrs	APSR_nzcv, FPSCR
 1197              		.loc 1 442 0
ARM GAS  /tmp/cc6hROox.s 			page 22


 1198 005c 4CBF     		ite	mi
 1199 005e 77EE877A 		vaddmi.f32	s15, s15, s14
 1200              		.loc 1 450 0
 1201 0062 77EEC77A 		vsubpl.f32	s15, s15, s14
 1202              		.loc 1 455 0
 1203 0066 9FED297A 		vldr.32	s14, .L234+20
 1204              		.loc 1 450 0
 1205 006a C0ED007A 		vstr.32	s15, [r0]
 1206              		.loc 1 452 0
 1207 006e F5EEC07A 		vcmpe.f32	s15, #0
 1208 0072 F1EE10FA 		vmrs	APSR_nzcv, FPSCR
 1209              		.loc 1 453 0
 1210 0076 F0EE676A 		vmov.f32	s13, s15
 1211 007a 4CBF     		ite	mi
 1212 007c D7EEE76A 		vfnmami.f32	s13, s15, s15
 1213              		.loc 1 455 0
 1214 0080 D7EEA76A 		vfnmspl.f32	s13, s15, s15
 1215 0084 E6EE877A 		vfma.f32	s15, s13, s14
 1216              		.loc 1 460 0
 1217 0088 9FED217A 		vldr.32	s14, .L234+24
 1218              		.loc 1 455 0
 1219 008c C0ED007A 		vstr.32	s15, [r0]
 1220              		.loc 1 460 0
 1221 0090 30EE070A 		vadd.f32	s0, s0, s14
 1222              	.LVL107:
 1223              		.loc 1 461 0
 1224 0094 DFED1A7A 		vldr.32	s15, .L234+8
 1225 0098 9FED1A7A 		vldr.32	s14, .L234+12
 1226 009c B4EEE70A 		vcmpe.f32	s0, s15
 1227 00a0 F1EE10FA 		vmrs	APSR_nzcv, FPSCR
 1228              		.loc 1 462 0
 1229 00a4 C4BF     		itt	gt
 1230 00a6 DFED157A 		vldrgt.32	s15, .L234+4
 1231 00aa 30EE670A 		vsubgt.f32	s0, s0, s15
 1232              	.LVL108:
 1233 00ae DFED167A 		vldr.32	s15, .L234+16
 1234 00b2 20EE077A 		vmul.f32	s14, s0, s14
 1235 00b6 60EE277A 		vmul.f32	s15, s0, s15
 1236 00ba 27EE007A 		vmul.f32	s14, s14, s0
 1237              		.loc 1 465 0
 1238 00be B5EEC00A 		vcmpe.f32	s0, #0
 1239 00c2 F1EE10FA 		vmrs	APSR_nzcv, FPSCR
 1240              		.loc 1 466 0
 1241 00c6 4CBF     		ite	mi
 1242 00c8 77EE877A 		vaddmi.f32	s15, s15, s14
 1243              		.loc 1 474 0
 1244 00cc 77EEC77A 		vsubpl.f32	s15, s15, s14
 1245              		.loc 1 479 0
 1246 00d0 9FED0E7A 		vldr.32	s14, .L234+20
 1247              		.loc 1 474 0
 1248 00d4 C1ED007A 		vstr.32	s15, [r1]
 1249              		.loc 1 476 0
 1250 00d8 F5EEC07A 		vcmpe.f32	s15, #0
 1251              		.loc 1 477 0
 1252 00dc F0EE676A 		vmov.f32	s13, s15
 1253              		.loc 1 476 0
 1254 00e0 F1EE10FA 		vmrs	APSR_nzcv, FPSCR
ARM GAS  /tmp/cc6hROox.s 			page 23


 1255              		.loc 1 477 0
 1256 00e4 4CBF     		ite	mi
 1257 00e6 D7EEE76A 		vfnmami.f32	s13, s15, s15
 1258              		.loc 1 479 0
 1259 00ea D7EEA76A 		vfnmspl.f32	s13, s15, s15
 1260 00ee E6EE877A 		vfma.f32	s15, s13, s14
 1261 00f2 C1ED007A 		vstr.32	s15, [r1]
 1262              		.loc 1 482 0
 1263 00f6 7047     		bx	lr
 1264              	.L235:
 1265              		.align	2
 1266              	.L234:
 1267 00f8 DB0F49C0 		.word	3226013659
 1268 00fc DB0FC940 		.word	1086918619
 1269 0100 DB0F4940 		.word	1078530011
 1270 0104 7B81CF3E 		.word	1053786491
 1271 0108 83F9A23F 		.word	1067645315
 1272 010c 6666663E 		.word	1046898278
 1273 0110 DB0FC93F 		.word	1070141403
 1274              		.cfi_endproc
 1275              	.LFE275:
 1276              		.size	utils_fast_sincos_better, .-utils_fast_sincos_better
 1277              		.section	.text.utils_avg_angles_rad_fast,"ax",%progbits
 1278              		.align	1
 1279              		.p2align 4,,15
 1280              		.global	utils_avg_angles_rad_fast
 1281              		.syntax unified
 1282              		.thumb
 1283              		.thumb_func
 1284              		.fpu fpv4-sp-d16
 1285              		.type	utils_avg_angles_rad_fast, %function
 1286              	utils_avg_angles_rad_fast:
 1287              	.LFB268:
 1288              		.loc 1 213 0
 1289              		.cfi_startproc
 1290              		@ args = 0, pretend = 0, frame = 8
 1291              		@ frame_needed = 0, uses_anonymous_args = 0
 1292              	.LVL109:
 1293 0000 10B5     		push	{r4, lr}
 1294              		.cfi_def_cfa_offset 8
 1295              		.cfi_offset 4, -8
 1296              		.cfi_offset 14, -4
 1297              	.LBB36:
 1298              		.loc 1 217 0
 1299 0002 141E     		subs	r4, r2, #0
 1300              	.LBE36:
 1301              		.loc 1 213 0
 1302 0004 82B0     		sub	sp, sp, #8
 1303              		.cfi_def_cfa_offset 16
 1304              		.loc 1 215 0
 1305 0006 DFED150A 		vldr.32	s1, .L242
 1306              	.LBB39:
 1307              		.loc 1 217 0
 1308 000a 1EDD     		ble	.L239
 1309 000c 0346     		mov	r3, r0
 1310              	.LBE39:
 1311              		.loc 1 214 0
ARM GAS  /tmp/cc6hROox.s 			page 24


 1312 000e B0EE606A 		vmov.f32	s12, s1
 1313 0012 00EB8404 		add	r4, r0, r4, lsl #2
 1314 0016 0A46     		mov	r2, r1
 1315              	.LVL110:
 1316              	.L238:
 1317              	.LBB40:
 1318              	.LBB37:
 1319              		.loc 1 219 0 discriminator 3
 1320 0018 B3EC010A 		vldmia.32	r3!, {s0}
 1321 001c 01A9     		add	r1, sp, #4
 1322 001e 6846     		mov	r0, sp
 1323 0020 FFF7FEFF 		bl	utils_fast_sincos_better
 1324              	.LVL111:
 1325              		.loc 1 220 0 discriminator 3
 1326 0024 DDED006A 		vldr.32	s13, [sp]
 1327 0028 F2EC017A 		vldmia.32	r2!, {s15}
 1328              		.loc 1 221 0 discriminator 3
 1329 002c 9DED017A 		vldr.32	s14, [sp, #4]
 1330              	.LBE37:
 1331              		.loc 1 217 0 discriminator 3
 1332 0030 A342     		cmp	r3, r4
 1333              	.LBB38:
 1334              		.loc 1 220 0 discriminator 3
 1335 0032 A7EEA66A 		vfma.f32	s12, s15, s13
 1336              	.LVL112:
 1337              		.loc 1 221 0 discriminator 3
 1338 0036 E7EE870A 		vfma.f32	s1, s15, s14
 1339              	.LVL113:
 1340              	.LBE38:
 1341              		.loc 1 217 0 discriminator 3
 1342 003a EDD1     		bne	.L238
 1343              	.LBE40:
 1344              		.loc 1 224 0
 1345 003c B0EE460A 		vmov.f32	s0, s12
 1346              		.loc 1 225 0
 1347 0040 02B0     		add	sp, sp, #8
 1348              		.cfi_remember_state
 1349              		.cfi_def_cfa_offset 8
 1350              		@ sp needed
 1351 0042 BDE81040 		pop	{r4, lr}
 1352              		.cfi_restore 14
 1353              		.cfi_restore 4
 1354              		.cfi_def_cfa_offset 0
 1355              		.loc 1 224 0
 1356 0046 FFF7FEBF 		b	utils_fast_atan2
 1357              	.LVL114:
 1358              	.L239:
 1359              		.cfi_restore_state
 1360              		.loc 1 214 0
 1361 004a B0EE606A 		vmov.f32	s12, s1
 1362              		.loc 1 224 0
 1363 004e B0EE460A 		vmov.f32	s0, s12
 1364              		.loc 1 225 0
 1365 0052 02B0     		add	sp, sp, #8
 1366              		.cfi_def_cfa_offset 8
 1367              		@ sp needed
 1368 0054 BDE81040 		pop	{r4, lr}
ARM GAS  /tmp/cc6hROox.s 			page 25


 1369              		.cfi_restore 14
 1370              		.cfi_restore 4
 1371              		.cfi_def_cfa_offset 0
 1372              		.loc 1 224 0
 1373 0058 FFF7FEBF 		b	utils_fast_atan2
 1374              	.LVL115:
 1375              	.L243:
 1376              		.align	2
 1377              	.L242:
 1378 005c 00000000 		.word	0
 1379              		.cfi_endproc
 1380              	.LFE268:
 1381              		.size	utils_avg_angles_rad_fast, .-utils_avg_angles_rad_fast
 1382              		.section	.text.utils_min_abs,"ax",%progbits
 1383              		.align	1
 1384              		.p2align 4,,15
 1385              		.global	utils_min_abs
 1386              		.syntax unified
 1387              		.thumb
 1388              		.thumb_func
 1389              		.fpu fpv4-sp-d16
 1390              		.type	utils_min_abs, %function
 1391              	utils_min_abs:
 1392              	.LFB276:
 1393              		.loc 1 496 0
 1394              		.cfi_startproc
 1395              		@ args = 0, pretend = 0, frame = 0
 1396              		@ frame_needed = 0, uses_anonymous_args = 0
 1397              		@ link register save eliminated.
 1398              	.LVL116:
 1399              		.loc 1 498 0
 1400 0000 B0EEC07A 		vabs.f32	s14, s0
 1401 0004 F0EEE07A 		vabs.f32	s15, s1
 1402 0008 B4EEE77A 		vcmpe.f32	s14, s15
 1403 000c F1EE10FA 		vmrs	APSR_nzcv, FPSCR
 1404              		.loc 1 505 0
 1405 0010 58BF     		it	pl
 1406 0012 B0EE600A 		vmovpl.f32	s0, s1
 1407              	.LVL117:
 1408 0016 7047     		bx	lr
 1409              		.cfi_endproc
 1410              	.LFE276:
 1411              		.size	utils_min_abs, .-utils_min_abs
 1412              		.section	.text.utils_max_abs,"ax",%progbits
 1413              		.align	1
 1414              		.p2align 4,,15
 1415              		.global	utils_max_abs
 1416              		.syntax unified
 1417              		.thumb
 1418              		.thumb_func
 1419              		.fpu fpv4-sp-d16
 1420              		.type	utils_max_abs, %function
 1421              	utils_max_abs:
 1422              	.LFB277:
 1423              		.loc 1 519 0
 1424              		.cfi_startproc
 1425              		@ args = 0, pretend = 0, frame = 0
ARM GAS  /tmp/cc6hROox.s 			page 26


 1426              		@ frame_needed = 0, uses_anonymous_args = 0
 1427              		@ link register save eliminated.
 1428              	.LVL118:
 1429              		.loc 1 521 0
 1430 0000 B0EEC07A 		vabs.f32	s14, s0
 1431 0004 F0EEE07A 		vabs.f32	s15, s1
 1432 0008 B4EEE77A 		vcmpe.f32	s14, s15
 1433 000c F1EE10FA 		vmrs	APSR_nzcv, FPSCR
 1434              		.loc 1 528 0
 1435 0010 D8BF     		it	le
 1436 0012 B0EE600A 		vmovle.f32	s0, s1
 1437              	.LVL119:
 1438 0016 7047     		bx	lr
 1439              		.cfi_endproc
 1440              	.LFE277:
 1441              		.size	utils_max_abs, .-utils_max_abs
 1442              		.section	.text.utils_byte_to_binary,"ax",%progbits
 1443              		.align	1
 1444              		.p2align 4,,15
 1445              		.global	utils_byte_to_binary
 1446              		.syntax unified
 1447              		.thumb
 1448              		.thumb_func
 1449              		.fpu fpv4-sp-d16
 1450              		.type	utils_byte_to_binary, %function
 1451              	utils_byte_to_binary:
 1452              	.LFB278:
 1453              		.loc 1 539 0
 1454              		.cfi_startproc
 1455              		@ args = 0, pretend = 0, frame = 0
 1456              		@ frame_needed = 0, uses_anonymous_args = 0
 1457              	.LVL120:
 1458 0000 2DE9F047 		push	{r4, r5, r6, r7, r8, r9, r10, lr}
 1459              		.cfi_def_cfa_offset 32
 1460              		.cfi_offset 4, -32
 1461              		.cfi_offset 5, -28
 1462              		.cfi_offset 6, -24
 1463              		.cfi_offset 7, -20
 1464              		.cfi_offset 8, -16
 1465              		.cfi_offset 9, -12
 1466              		.cfi_offset 10, -8
 1467              		.cfi_offset 14, -4
 1468              		.loc 1 540 0
 1469 0004 0023     		movs	r3, #0
 1470              		.loc 1 544 0
 1471 0006 DFF830A0 		ldr	r10, .L256
 1472 000a DFF83090 		ldr	r9, .L256+4
 1473              		.loc 1 540 0
 1474 000e 0B70     		strb	r3, [r1]
 1475              	.LVL121:
 1476              		.loc 1 539 0
 1477 0010 0E46     		mov	r6, r1
 1478 0012 8046     		mov	r8, r0
 1479              		.loc 1 540 0
 1480 0014 0825     		movs	r5, #8
 1481              		.loc 1 543 0
 1482 0016 8024     		movs	r4, #128
ARM GAS  /tmp/cc6hROox.s 			page 27


 1483              	.LVL122:
 1484              	.L252:
 1485              		.loc 1 544 0
 1486 0018 34EA0803 		bics	r3, r4, r8
 1487 001c 3046     		mov	r0, r6
 1488 001e 0CBF     		ite	eq
 1489 0020 5746     		moveq	r7, r10
 1490 0022 4F46     		movne	r7, r9
 1491 0024 FFF7FEFF 		bl	strlen
 1492              	.LVL123:
 1493 0028 3B88     		ldrh	r3, [r7]
 1494 002a 3352     		strh	r3, [r6, r0]	@ unaligned
 1495              		.loc 1 543 0
 1496 002c 013D     		subs	r5, r5, #1
 1497 002e 4FEA6404 		asr	r4, r4, #1
 1498              	.LVL124:
 1499 0032 F1D1     		bne	.L252
 1500              		.loc 1 546 0
 1501 0034 BDE8F087 		pop	{r4, r5, r6, r7, r8, r9, r10, pc}
 1502              	.LVL125:
 1503              	.L257:
 1504              		.align	2
 1505              	.L256:
 1506 0038 00000000 		.word	.LC0
 1507 003c 04000000 		.word	.LC1
 1508              		.cfi_endproc
 1509              	.LFE278:
 1510              		.size	utils_byte_to_binary, .-utils_byte_to_binary
 1511              		.section	.text.utils_throttle_curve,"ax",%progbits
 1512              		.align	1
 1513              		.p2align 4,,15
 1514              		.global	utils_throttle_curve
 1515              		.syntax unified
 1516              		.thumb
 1517              		.thumb_func
 1518              		.fpu fpv4-sp-d16
 1519              		.type	utils_throttle_curve, %function
 1520              	utils_throttle_curve:
 1521              	.LFB279:
 1522              		.loc 1 548 0
 1523              		.cfi_startproc
 1524              		@ args = 0, pretend = 0, frame = 8
 1525              		@ frame_needed = 0, uses_anonymous_args = 0
 1526              	.LVL126:
 1527 0000 00B5     		push	{lr}
 1528              		.cfi_def_cfa_offset 4
 1529              		.cfi_offset 14, -4
 1530              		.loc 1 551 0
 1531 0002 FFEE007A 		vmov.f32	s15, #-1.0e+0
 1532              		.loc 1 548 0
 1533 0006 2DED048B 		vpush.64	{d8, d9}
 1534              		.cfi_def_cfa_offset 20
 1535              		.cfi_offset 80, -20
 1536              		.cfi_offset 81, -16
 1537              		.cfi_offset 82, -12
 1538              		.cfi_offset 83, -8
 1539              		.loc 1 551 0
ARM GAS  /tmp/cc6hROox.s 			page 28


 1540 000a B4EEE70A 		vcmpe.f32	s0, s15
 1541 000e F1EE10FA 		vmrs	APSR_nzcv, FPSCR
 1542              		.loc 1 548 0
 1543 0012 83B0     		sub	sp, sp, #12
 1544              		.cfi_def_cfa_offset 32
 1545              		.loc 1 551 0
 1546 0014 2DD4     		bmi	.L272
 1547 0016 B0EE408A 		vmov.f32	s16, s0
 1548              		.loc 1 555 0
 1549 001a B7EE000A 		vmov.f32	s0, #1.0e+0
 1550              	.LVL127:
 1551 001e B4EEC08A 		vcmpe.f32	s16, s0
 1552 0022 F1EE10FA 		vmrs	APSR_nzcv, FPSCR
 1553              		.loc 1 556 0
 1554 0026 C8BF     		it	gt
 1555 0028 B0EE408A 		vmovgt.f32	s16, s0
 1556              	.LVL128:
 1557              		.loc 1 555 0
 1558 002c 40F38480 		ble	.L283
 1559              	.LVL129:
 1560              	.L259:
 1561              		.loc 1 570 0
 1562 0030 78B9     		cbnz	r0, .L261
 1563              		.loc 1 571 0
 1564 0032 F5EEC00A 		vcmpe.f32	s1, #0
 1565 0036 F1EE10FA 		vmrs	APSR_nzcv, FPSCR
 1566 003a 21DB     		blt	.L279
 1567              		.loc 1 572 0
 1568 003c F7EE008A 		vmov.f32	s17, #1.0e+0
 1569 0040 70EEA80A 		vadd.f32	s1, s1, s17
 1570              	.LVL130:
 1571 0044 38EEC00A 		vsub.f32	s0, s17, s0
 1572 0048 FFF7FEFF 		bl	powf
 1573              	.LVL131:
 1574 004c 38EEC00A 		vsub.f32	s0, s17, s0
 1575              	.LVL132:
 1576 0050 03E0     		b	.L264
 1577              	.LVL133:
 1578              	.L261:
 1579              		.loc 1 576 0
 1580 0052 0128     		cmp	r0, #1
 1581 0054 1BD0     		beq	.L284
 1582              		.loc 1 586 0
 1583 0056 0228     		cmp	r0, #2
 1584 0058 42D0     		beq	.L285
 1585              	.LVL134:
 1586              	.L264:
 1587              		.loc 1 596 0
 1588 005a B5EEC08A 		vcmpe.f32	s16, #0
 1589 005e F1EE10FA 		vmrs	APSR_nzcv, FPSCR
 1590              		.loc 1 597 0
 1591 0062 48BF     		it	mi
 1592 0064 B1EE400A 		vnegmi.f32	s0, s0
 1593              	.LVL135:
 1594              		.loc 1 601 0
 1595 0068 03B0     		add	sp, sp, #12
 1596              		.cfi_remember_state
ARM GAS  /tmp/cc6hROox.s 			page 29


 1597              		.cfi_def_cfa_offset 20
 1598              		@ sp needed
 1599 006a BDEC048B 		vldm	sp!, {d8-d9}
 1600              		.cfi_restore 82
 1601              		.cfi_restore 83
 1602              		.cfi_restore 80
 1603              		.cfi_restore 81
 1604              		.cfi_def_cfa_offset 4
 1605 006e 5DF804FB 		ldr	pc, [sp], #4
 1606              	.LVL136:
 1607              	.L272:
 1608              		.cfi_restore_state
 1609              		.loc 1 565 0
 1610 0072 F0EE410A 		vmov.f32	s1, s2
 1611              	.LVL137:
 1612              		.loc 1 552 0
 1613 0076 B0EE678A 		vmov.f32	s16, s15
 1614              		.loc 1 559 0
 1615 007a B7EE000A 		vmov.f32	s0, #1.0e+0
 1616              	.LVL138:
 1617 007e D7E7     		b	.L259
 1618              	.LVL139:
 1619              	.L279:
 1620              		.loc 1 574 0
 1621 0080 F7EE007A 		vmov.f32	s15, #1.0e+0
 1622 0084 77EEE00A 		vsub.f32	s1, s15, s1
 1623              	.LVL140:
 1624 0088 FFF7FEFF 		bl	powf
 1625              	.LVL141:
 1626 008c E5E7     		b	.L264
 1627              	.LVL142:
 1628              	.L284:
 1629              		.loc 1 577 0
 1630 008e DFED2F7A 		vldr.32	s15, .L286
 1631 0092 B0EEE07A 		vabs.f32	s14, s1
 1632 0096 B4EEE77A 		vcmpe.f32	s14, s15
 1633 009a F1EE10FA 		vmrs	APSR_nzcv, FPSCR
 1634 009e DCD4     		bmi	.L264
 1635              		.loc 1 580 0
 1636 00a0 F5EEC00A 		vcmpe.f32	s1, #0
 1637 00a4 F1EE10FA 		vmrs	APSR_nzcv, FPSCR
 1638 00a8 31DB     		blt	.L280
 1639              		.loc 1 581 0
 1640 00aa F7EE008A 		vmov.f32	s17, #1.0e+0
 1641 00ae 38EEC00A 		vsub.f32	s0, s17, s0
 1642 00b2 CDED010A 		vstr.32	s1, [sp, #4]	@ int
 1643 00b6 20EE200A 		vmul.f32	s0, s0, s1
 1644 00ba FFF7FEFF 		bl	expf
 1645              	.LVL143:
 1646 00be DDED010A 		vldr.32	s1, [sp, #4]	@ int
 1647 00c2 B0EE409A 		vmov.f32	s18, s0
 1648 00c6 B0EE600A 		vmov.f32	s0, s1
 1649 00ca FFF7FEFF 		bl	expf
 1650              	.LVL144:
 1651 00ce 79EE687A 		vsub.f32	s15, s18, s17
 1652 00d2 30EE687A 		vsub.f32	s14, s0, s17
 1653 00d6 87EE870A 		vdiv.f32	s0, s15, s14
ARM GAS  /tmp/cc6hROox.s 			page 30


 1654 00da 38EEC00A 		vsub.f32	s0, s17, s0
 1655              	.LVL145:
 1656 00de BCE7     		b	.L264
 1657              	.LVL146:
 1658              	.L285:
 1659              		.loc 1 587 0
 1660 00e0 F5EEC00A 		vcmpe.f32	s1, #0
 1661 00e4 F7EE007A 		vmov.f32	s15, #1.0e+0
 1662 00e8 F1EE10FA 		vmrs	APSR_nzcv, FPSCR
 1663 00ec 37EEC07A 		vsub.f32	s14, s15, s0
 1664 00f0 08DB     		blt	.L281
 1665              		.loc 1 588 0
 1666 00f2 F0EE676A 		vmov.f32	s13, s15
 1667 00f6 E0EE806A 		vfma.f32	s13, s1, s0
 1668 00fa 87EE260A 		vdiv.f32	s0, s14, s13
 1669 00fe 37EEC00A 		vsub.f32	s0, s15, s0
 1670              	.LVL147:
 1671 0102 AAE7     		b	.L264
 1672              	.LVL148:
 1673              	.L281:
 1674              		.loc 1 590 0
 1675 0104 E0EEC77A 		vfms.f32	s15, s1, s14
 1676 0108 80EE270A 		vdiv.f32	s0, s0, s15
 1677              	.LVL149:
 1678 010c A5E7     		b	.L264
 1679              	.LVL150:
 1680              	.L280:
 1681              		.loc 1 583 0
 1682 010e F1EE608A 		vneg.f32	s17, s1
 1683 0112 28EE800A 		vmul.f32	s0, s17, s0
 1684 0116 FFF7FEFF 		bl	expf
 1685              	.LVL151:
 1686 011a B0EE409A 		vmov.f32	s18, s0
 1687 011e B0EE680A 		vmov.f32	s0, s17
 1688 0122 FFF7FEFF 		bl	expf
 1689              	.LVL152:
 1690 0126 F7EE007A 		vmov.f32	s15, #1.0e+0
 1691 012a 30EE677A 		vsub.f32	s14, s0, s15
 1692 012e 39EE679A 		vsub.f32	s18, s18, s15
 1693 0132 89EE070A 		vdiv.f32	s0, s18, s14
 1694              	.LVL153:
 1695 0136 90E7     		b	.L264
 1696              	.LVL154:
 1697              	.L283:
 1698              		.loc 1 565 0
 1699 0138 B5EEC08A 		vcmpe.f32	s16, #0
 1700 013c F1EE10FA 		vmrs	APSR_nzcv, FPSCR
 1701 0140 B8BF     		it	lt
 1702 0142 F0EE410A 		vmovlt.f32	s1, s2
 1703              	.LVL155:
 1704              		.loc 1 559 0
 1705 0146 B0EEC80A 		vabs.f32	s0, s16
 1706              	.LVL156:
 1707 014a 71E7     		b	.L259
 1708              	.L287:
 1709              		.align	2
 1710              	.L286:
ARM GAS  /tmp/cc6hROox.s 			page 31


 1711 014c FFE6DB2E 		.word	786163455
 1712              		.cfi_endproc
 1713              	.LFE279:
 1714              		.size	utils_throttle_curve, .-utils_throttle_curve
 1715              		.section	.text.utils_sys_lock_cnt,"ax",%progbits
 1716              		.align	1
 1717              		.p2align 4,,15
 1718              		.global	utils_sys_lock_cnt
 1719              		.syntax unified
 1720              		.thumb
 1721              		.thumb_func
 1722              		.fpu fpv4-sp-d16
 1723              		.type	utils_sys_lock_cnt, %function
 1724              	utils_sys_lock_cnt:
 1725              	.LFB280:
 1726              		.loc 1 609 0
 1727              		.cfi_startproc
 1728              		@ args = 0, pretend = 0, frame = 0
 1729              		@ frame_needed = 0, uses_anonymous_args = 0
 1730              		@ link register save eliminated.
 1731              		.loc 1 610 0
 1732 0000 034B     		ldr	r3, .L290
 1733 0002 1A68     		ldr	r2, [r3]
 1734 0004 02B9     		cbnz	r2, .L289
 1735              	.LBB41:
 1736              	.LBB42:
 1737              	.LBB43:
 1738              	.LBB44:
 1739              		.file 2 "ChibiOS_3.0.5/os/ext/CMSIS/include/core_cmFunc.h"
 1740              		.loc 2 342 0
 1741              		.syntax unified
 1742              	@ 342 "ChibiOS_3.0.5/os/ext/CMSIS/include/core_cmFunc.h" 1
 1743 0006 72B6     		cpsid i
 1744              	@ 0 "" 2
 1745              		.thumb
 1746              		.syntax unified
 1747              	.L289:
 1748              	.LBE44:
 1749              	.LBE43:
 1750              	.LBE42:
 1751              	.LBE41:
 1752              		.loc 1 613 0
 1753 0008 1A68     		ldr	r2, [r3]
 1754 000a 0132     		adds	r2, r2, #1
 1755 000c 1A60     		str	r2, [r3]
 1756              		.loc 1 614 0
 1757 000e 7047     		bx	lr
 1758              	.L291:
 1759              		.align	2
 1760              	.L290:
 1761 0010 00000000 		.word	.LANCHOR0
 1762              		.cfi_endproc
 1763              	.LFE280:
 1764              		.size	utils_sys_lock_cnt, .-utils_sys_lock_cnt
 1765              		.section	.text.utils_sys_unlock_cnt,"ax",%progbits
 1766              		.align	1
 1767              		.p2align 4,,15
ARM GAS  /tmp/cc6hROox.s 			page 32


 1768              		.global	utils_sys_unlock_cnt
 1769              		.syntax unified
 1770              		.thumb
 1771              		.thumb_func
 1772              		.fpu fpv4-sp-d16
 1773              		.type	utils_sys_unlock_cnt, %function
 1774              	utils_sys_unlock_cnt:
 1775              	.LFB281:
 1776              		.loc 1 622 0
 1777              		.cfi_startproc
 1778              		@ args = 0, pretend = 0, frame = 0
 1779              		@ frame_needed = 0, uses_anonymous_args = 0
 1780              		@ link register save eliminated.
 1781              		.loc 1 623 0
 1782 0000 044B     		ldr	r3, .L296
 1783 0002 1A68     		ldr	r2, [r3]
 1784 0004 2AB1     		cbz	r2, .L292
 1785              		.loc 1 624 0
 1786 0006 1A68     		ldr	r2, [r3]
 1787 0008 013A     		subs	r2, r2, #1
 1788 000a 1A60     		str	r2, [r3]
 1789              		.loc 1 625 0
 1790 000c 1B68     		ldr	r3, [r3]
 1791 000e 03B9     		cbnz	r3, .L292
 1792              	.LBB45:
 1793              	.LBB46:
 1794              	.LBB47:
 1795              	.LBB48:
 1796              	.LBB49:
 1797              		.loc 2 331 0
 1798              		.syntax unified
 1799              	@ 331 "ChibiOS_3.0.5/os/ext/CMSIS/include/core_cmFunc.h" 1
 1800 0010 62B6     		cpsie i
 1801              	@ 0 "" 2
 1802              		.thumb
 1803              		.syntax unified
 1804              	.L292:
 1805              	.LBE49:
 1806              	.LBE48:
 1807              	.LBE47:
 1808              	.LBE46:
 1809              	.LBE45:
 1810              		.loc 1 629 0
 1811 0012 7047     		bx	lr
 1812              	.L297:
 1813              		.align	2
 1814              	.L296:
 1815 0014 00000000 		.word	.LANCHOR0
 1816              		.cfi_endproc
 1817              	.LFE281:
 1818              		.size	utils_sys_unlock_cnt, .-utils_sys_unlock_cnt
 1819              		.section	.text.utils_crc32c,"ax",%progbits
 1820              		.align	1
 1821              		.p2align 4,,15
 1822              		.global	utils_crc32c
 1823              		.syntax unified
 1824              		.thumb
ARM GAS  /tmp/cc6hROox.s 			page 33


 1825              		.thumb_func
 1826              		.fpu fpv4-sp-d16
 1827              		.type	utils_crc32c, %function
 1828              	utils_crc32c:
 1829              	.LFB282:
 1830              		.loc 1 631 0
 1831              		.cfi_startproc
 1832              		@ args = 0, pretend = 0, frame = 0
 1833              		@ frame_needed = 0, uses_anonymous_args = 0
 1834              		@ link register save eliminated.
 1835              	.LVL157:
 1836              	.LBB50:
 1837              		.loc 1 634 0
 1838 0000 A9B1     		cbz	r1, .L302
 1839              	.LBE50:
 1840              		.loc 1 631 0
 1841 0002 30B4     		push	{r4, r5}
 1842              		.cfi_def_cfa_offset 8
 1843              		.cfi_offset 4, -8
 1844              		.cfi_offset 5, -4
 1845 0004 451E     		subs	r5, r0, #1
 1846              	.LBB58:
 1847              	.LBB51:
 1848              	.LBB52:
 1849              	.LBB53:
 1850              		.loc 1 640 0
 1851 0006 0B4C     		ldr	r4, .L309
 1852 0008 2944     		add	r1, r1, r5
 1853              	.LVL158:
 1854              	.LBE53:
 1855              	.LBE52:
 1856              	.LBE51:
 1857              	.LBE58:
 1858              		.loc 1 632 0
 1859 000a 4FF0FF30 		mov	r0, #-1
 1860              	.LVL159:
 1861              	.L301:
 1862              	.LBB59:
 1863              	.LBB57:
 1864              		.loc 1 635 0
 1865 000e 15F8013F 		ldrb	r3, [r5, #1]!	@ zero_extendqisi2
 1866              	.LVL160:
 1867              		.loc 1 636 0
 1868 0012 0822     		movs	r2, #8
 1869 0014 5840     		eors	r0, r0, r3
 1870              	.LVL161:
 1871              	.L300:
 1872              	.LBB56:
 1873              	.LBB54:
 1874              		.loc 1 639 0 discriminator 3
 1875 0016 40F30003 		sbfx	r3, r0, #0, #1
 1876              		.loc 1 640 0 discriminator 3
 1877 001a 2340     		ands	r3, r3, r4
 1878              	.LBE54:
 1879              		.loc 1 638 0 discriminator 3
 1880 001c 013A     		subs	r2, r2, #1
 1881              	.LVL162:
ARM GAS  /tmp/cc6hROox.s 			page 34


 1882              	.LBB55:
 1883              		.loc 1 640 0 discriminator 3
 1884 001e 83EA5000 		eor	r0, r3, r0, lsr #1
 1885              	.LVL163:
 1886              	.LBE55:
 1887              		.loc 1 638 0 discriminator 3
 1888 0022 F8D1     		bne	.L300
 1889              	.LVL164:
 1890              	.LBE56:
 1891              	.LBE57:
 1892              		.loc 1 634 0 discriminator 2
 1893 0024 A942     		cmp	r1, r5
 1894 0026 F2D1     		bne	.L301
 1895 0028 C043     		mvns	r0, r0
 1896              	.LVL165:
 1897              	.LBE59:
 1898              		.loc 1 645 0
 1899 002a 30BC     		pop	{r4, r5}
 1900              		.cfi_restore 5
 1901              		.cfi_restore 4
 1902              		.cfi_def_cfa_offset 0
 1903              	.LVL166:
 1904 002c 7047     		bx	lr
 1905              	.LVL167:
 1906              	.L302:
 1907              	.LBB60:
 1908              		.loc 1 634 0
 1909 002e 0846     		mov	r0, r1
 1910              	.LVL168:
 1911              	.LBE60:
 1912              		.loc 1 645 0
 1913 0030 7047     		bx	lr
 1914              	.L310:
 1915 0032 00BF     		.align	2
 1916              	.L309:
 1917 0034 783BF682 		.word	-2097792136
 1918              		.cfi_endproc
 1919              	.LFE282:
 1920              		.size	utils_crc32c, .-utils_crc32c
 1921              		.section	.text.utils_fft32_bin0,"ax",%progbits
 1922              		.align	1
 1923              		.p2align 4,,15
 1924              		.global	utils_fft32_bin0
 1925              		.syntax unified
 1926              		.thumb
 1927              		.thumb_func
 1928              		.fpu fpv4-sp-d16
 1929              		.type	utils_fft32_bin0, %function
 1930              	utils_fft32_bin0:
 1931              	.LFB283:
 1932              		.loc 1 648 0
 1933              		.cfi_startproc
 1934              		@ args = 0, pretend = 0, frame = 0
 1935              		@ frame_needed = 0, uses_anonymous_args = 0
 1936              		@ link register save eliminated.
 1937              	.LVL169:
 1938              		.loc 1 649 0
ARM GAS  /tmp/cc6hROox.s 			page 35


 1939 0000 0023     		movs	r3, #0
 1940 0002 0B60     		str	r3, [r1]	@ float
 1941              		.loc 1 650 0
 1942 0004 1360     		str	r3, [r2]	@ float
 1943              	.LVL170:
 1944 0006 D1ED007A 		vldr.32	s15, [r1]
 1945 000a 00F18003 		add	r3, r0, #128
 1946              	.LVL171:
 1947              	.L312:
 1948              	.LBB61:
 1949              		.loc 1 653 0 discriminator 3
 1950 000e B0EC017A 		vldmia.32	r0!, {s14}
 1951 0012 77EE877A 		vadd.f32	s15, s15, s14
 1952              		.loc 1 652 0 discriminator 3
 1953 0016 9842     		cmp	r0, r3
 1954              		.loc 1 653 0 discriminator 3
 1955 0018 C1ED007A 		vstr.32	s15, [r1]
 1956              		.loc 1 652 0 discriminator 3
 1957 001c F7D1     		bne	.L312
 1958              	.LBE61:
 1959              		.loc 1 656 0
 1960 001e 9FED037A 		vldr.32	s14, .L314
 1961 0022 67EE877A 		vmul.f32	s15, s15, s14
 1962 0026 C1ED007A 		vstr.32	s15, [r1]
 1963              		.loc 1 657 0
 1964 002a 7047     		bx	lr
 1965              	.L315:
 1966              		.align	2
 1967              	.L314:
 1968 002c 0000003D 		.word	1023410176
 1969              		.cfi_endproc
 1970              	.LFE283:
 1971              		.size	utils_fft32_bin0, .-utils_fft32_bin0
 1972              		.section	.text.utils_fft32_bin1,"ax",%progbits
 1973              		.align	1
 1974              		.p2align 4,,15
 1975              		.global	utils_fft32_bin1
 1976              		.syntax unified
 1977              		.thumb
 1978              		.thumb_func
 1979              		.fpu fpv4-sp-d16
 1980              		.type	utils_fft32_bin1, %function
 1981              	utils_fft32_bin1:
 1982              	.LFB284:
 1983              		.loc 1 659 0
 1984              		.cfi_startproc
 1985              		@ args = 0, pretend = 0, frame = 0
 1986              		@ frame_needed = 0, uses_anonymous_args = 0
 1987              		@ link register save eliminated.
 1988              	.LVL172:
 1989              		.loc 1 660 0
 1990 0000 DFED1A7A 		vldr.32	s15, .L322
 1991 0004 1A4B     		ldr	r3, .L322+4
 1992 0006 C1ED007A 		vstr.32	s15, [r1]
 1993              		.loc 1 659 0
 1994 000a 30B4     		push	{r4, r5}
 1995              		.cfi_def_cfa_offset 8
ARM GAS  /tmp/cc6hROox.s 			page 36


 1996              		.cfi_offset 4, -8
 1997              		.cfi_offset 5, -4
 1998              		.loc 1 661 0
 1999 000c F0EE676A 		vmov.f32	s13, s15
 2000 0010 184C     		ldr	r4, .L322+8
 2001 0012 C2ED007A 		vstr.32	s15, [r2]
 2002              	.LVL173:
 2003 0016 03F17C05 		add	r5, r3, #124
 2004 001a B7EE007A 		vmov.f32	s14, #1.0e+0
 2005 001e 03E0     		b	.L318
 2006              	.LVL174:
 2007              	.L321:
 2008 0020 B3EC017A 		vldmia.32	r3!, {s14}
 2009 0024 F4EC016A 		vldmia.32	r4!, {s13}
 2010              	.L318:
 2011              	.LBB62:
 2012              		.loc 1 663 0 discriminator 3
 2013 0028 90ED006A 		vldr.32	s12, [r0]
 2014 002c D1ED007A 		vldr.32	s15, [r1]
 2015 0030 E6EE077A 		vfma.f32	s15, s12, s14
 2016              		.loc 1 662 0 discriminator 3
 2017 0034 AB42     		cmp	r3, r5
 2018              		.loc 1 663 0 discriminator 3
 2019 0036 C1ED007A 		vstr.32	s15, [r1]
 2020              		.loc 1 664 0 discriminator 3
 2021 003a B0EC017A 		vldmia.32	r0!, {s14}
 2022 003e D2ED007A 		vldr.32	s15, [r2]
 2023 0042 E7EE667A 		vfms.f32	s15, s14, s13
 2024 0046 C2ED007A 		vstr.32	s15, [r2]
 2025              		.loc 1 662 0 discriminator 3
 2026 004a E9D1     		bne	.L321
 2027              	.LBE62:
 2028              		.loc 1 666 0
 2029 004c 91ED007A 		vldr.32	s14, [r1]
 2030 0050 DFED096A 		vldr.32	s13, .L322+12
 2031 0054 27EE267A 		vmul.f32	s14, s14, s13
 2032              		.loc 1 668 0
 2033 0058 30BC     		pop	{r4, r5}
 2034              		.cfi_restore 5
 2035              		.cfi_restore 4
 2036              		.cfi_def_cfa_offset 0
 2037              		.loc 1 666 0
 2038 005a 81ED007A 		vstr.32	s14, [r1]
 2039              		.loc 1 667 0
 2040 005e D2ED007A 		vldr.32	s15, [r2]
 2041 0062 67EEA67A 		vmul.f32	s15, s15, s13
 2042 0066 C2ED007A 		vstr.32	s15, [r2]
 2043              		.loc 1 668 0
 2044 006a 7047     		bx	lr
 2045              	.L323:
 2046              		.align	2
 2047              	.L322:
 2048 006c 00000000 		.word	0
 2049 0070 04000000 		.word	.LANCHOR1+4
 2050 0074 04000000 		.word	.LANCHOR2+4
 2051 0078 0000003D 		.word	1023410176
 2052              		.cfi_endproc
ARM GAS  /tmp/cc6hROox.s 			page 37


 2053              	.LFE284:
 2054              		.size	utils_fft32_bin1, .-utils_fft32_bin1
 2055              		.section	.text.utils_fft32_bin2,"ax",%progbits
 2056              		.align	1
 2057              		.p2align 4,,15
 2058              		.global	utils_fft32_bin2
 2059              		.syntax unified
 2060              		.thumb
 2061              		.thumb_func
 2062              		.fpu fpv4-sp-d16
 2063              		.type	utils_fft32_bin2, %function
 2064              	utils_fft32_bin2:
 2065              	.LFB285:
 2066              		.loc 1 670 0
 2067              		.cfi_startproc
 2068              		@ args = 0, pretend = 0, frame = 0
 2069              		@ frame_needed = 0, uses_anonymous_args = 0
 2070              		@ link register save eliminated.
 2071              	.LVL175:
 2072              		.loc 1 671 0
 2073 0000 DFED1A7A 		vldr.32	s15, .L330
 2074 0004 1A4B     		ldr	r3, .L330+4
 2075 0006 C1ED007A 		vstr.32	s15, [r1]
 2076              		.loc 1 670 0
 2077 000a 30B4     		push	{r4, r5}
 2078              		.cfi_def_cfa_offset 8
 2079              		.cfi_offset 4, -8
 2080              		.cfi_offset 5, -4
 2081              		.loc 1 672 0
 2082 000c F0EE676A 		vmov.f32	s13, s15
 2083 0010 184C     		ldr	r4, .L330+8
 2084 0012 C2ED007A 		vstr.32	s15, [r2]
 2085              	.LVL176:
 2086 0016 03F17C05 		add	r5, r3, #124
 2087 001a B7EE007A 		vmov.f32	s14, #1.0e+0
 2088 001e 03E0     		b	.L326
 2089              	.LVL177:
 2090              	.L329:
 2091 0020 B3EC017A 		vldmia.32	r3!, {s14}
 2092 0024 F4EC016A 		vldmia.32	r4!, {s13}
 2093              	.L326:
 2094              	.LBB63:
 2095              		.loc 1 674 0 discriminator 3
 2096 0028 90ED006A 		vldr.32	s12, [r0]
 2097 002c D1ED007A 		vldr.32	s15, [r1]
 2098 0030 E6EE077A 		vfma.f32	s15, s12, s14
 2099              		.loc 1 673 0 discriminator 3
 2100 0034 AB42     		cmp	r3, r5
 2101              		.loc 1 674 0 discriminator 3
 2102 0036 C1ED007A 		vstr.32	s15, [r1]
 2103              		.loc 1 675 0 discriminator 3
 2104 003a B0EC017A 		vldmia.32	r0!, {s14}
 2105 003e D2ED007A 		vldr.32	s15, [r2]
 2106 0042 E7EE667A 		vfms.f32	s15, s14, s13
 2107 0046 C2ED007A 		vstr.32	s15, [r2]
 2108              		.loc 1 673 0 discriminator 3
 2109 004a E9D1     		bne	.L329
ARM GAS  /tmp/cc6hROox.s 			page 38


 2110              	.LBE63:
 2111              		.loc 1 677 0
 2112 004c 91ED007A 		vldr.32	s14, [r1]
 2113 0050 DFED096A 		vldr.32	s13, .L330+12
 2114 0054 27EE267A 		vmul.f32	s14, s14, s13
 2115              		.loc 1 679 0
 2116 0058 30BC     		pop	{r4, r5}
 2117              		.cfi_restore 5
 2118              		.cfi_restore 4
 2119              		.cfi_def_cfa_offset 0
 2120              		.loc 1 677 0
 2121 005a 81ED007A 		vstr.32	s14, [r1]
 2122              		.loc 1 678 0
 2123 005e D2ED007A 		vldr.32	s15, [r2]
 2124 0062 67EEA67A 		vmul.f32	s15, s15, s13
 2125 0066 C2ED007A 		vstr.32	s15, [r2]
 2126              		.loc 1 679 0
 2127 006a 7047     		bx	lr
 2128              	.L331:
 2129              		.align	2
 2130              	.L330:
 2131 006c 00000000 		.word	0
 2132 0070 04000000 		.word	.LANCHOR3+4
 2133 0074 04000000 		.word	.LANCHOR4+4
 2134 0078 0000003D 		.word	1023410176
 2135              		.cfi_endproc
 2136              	.LFE285:
 2137              		.size	utils_fft32_bin2, .-utils_fft32_bin2
 2138              		.section	.text.utils_fft16_bin0,"ax",%progbits
 2139              		.align	1
 2140              		.p2align 4,,15
 2141              		.global	utils_fft16_bin0
 2142              		.syntax unified
 2143              		.thumb
 2144              		.thumb_func
 2145              		.fpu fpv4-sp-d16
 2146              		.type	utils_fft16_bin0, %function
 2147              	utils_fft16_bin0:
 2148              	.LFB286:
 2149              		.loc 1 681 0
 2150              		.cfi_startproc
 2151              		@ args = 0, pretend = 0, frame = 0
 2152              		@ frame_needed = 0, uses_anonymous_args = 0
 2153              		@ link register save eliminated.
 2154              	.LVL178:
 2155              		.loc 1 682 0
 2156 0000 0023     		movs	r3, #0
 2157 0002 0B60     		str	r3, [r1]	@ float
 2158              		.loc 1 683 0
 2159 0004 1360     		str	r3, [r2]	@ float
 2160              	.LVL179:
 2161 0006 D1ED007A 		vldr.32	s15, [r1]
 2162 000a 00F14003 		add	r3, r0, #64
 2163              	.LVL180:
 2164              	.L333:
 2165              	.LBB64:
 2166              		.loc 1 686 0 discriminator 3
ARM GAS  /tmp/cc6hROox.s 			page 39


 2167 000e B0EC017A 		vldmia.32	r0!, {s14}
 2168 0012 77EE877A 		vadd.f32	s15, s15, s14
 2169              		.loc 1 685 0 discriminator 3
 2170 0016 9842     		cmp	r0, r3
 2171              		.loc 1 686 0 discriminator 3
 2172 0018 C1ED007A 		vstr.32	s15, [r1]
 2173              		.loc 1 685 0 discriminator 3
 2174 001c F7D1     		bne	.L333
 2175              	.LBE64:
 2176              		.loc 1 689 0
 2177 001e 9FED037A 		vldr.32	s14, .L335
 2178 0022 67EE877A 		vmul.f32	s15, s15, s14
 2179 0026 C1ED007A 		vstr.32	s15, [r1]
 2180              		.loc 1 690 0
 2181 002a 7047     		bx	lr
 2182              	.L336:
 2183              		.align	2
 2184              	.L335:
 2185 002c 0000803D 		.word	1031798784
 2186              		.cfi_endproc
 2187              	.LFE286:
 2188              		.size	utils_fft16_bin0, .-utils_fft16_bin0
 2189              		.section	.text.utils_fft16_bin1,"ax",%progbits
 2190              		.align	1
 2191              		.p2align 4,,15
 2192              		.global	utils_fft16_bin1
 2193              		.syntax unified
 2194              		.thumb
 2195              		.thumb_func
 2196              		.fpu fpv4-sp-d16
 2197              		.type	utils_fft16_bin1, %function
 2198              	utils_fft16_bin1:
 2199              	.LFB287:
 2200              		.loc 1 692 0
 2201              		.cfi_startproc
 2202              		@ args = 0, pretend = 0, frame = 0
 2203              		@ frame_needed = 0, uses_anonymous_args = 0
 2204              		@ link register save eliminated.
 2205              	.LVL181:
 2206              		.loc 1 693 0
 2207 0000 DFED1C7A 		vldr.32	s15, .L343
 2208 0004 1C4B     		ldr	r3, .L343+4
 2209 0006 C1ED007A 		vstr.32	s15, [r1]
 2210              		.loc 1 692 0
 2211 000a 30B4     		push	{r4, r5}
 2212              		.cfi_def_cfa_offset 8
 2213              		.cfi_offset 4, -8
 2214              		.cfi_offset 5, -4
 2215              		.loc 1 694 0
 2216 000c B0EE676A 		vmov.f32	s12, s15
 2217 0010 1A4C     		ldr	r4, .L343+8
 2218 0012 C2ED007A 		vstr.32	s15, [r2]
 2219              	.LVL182:
 2220 0016 03F18005 		add	r5, r3, #128
 2221 001a F7EE006A 		vmov.f32	s13, #1.0e+0
 2222 001e 03E0     		b	.L339
 2223              	.LVL183:
ARM GAS  /tmp/cc6hROox.s 			page 40


 2224              	.L342:
 2225 0020 53ED026A 		vldr.32	s13, [r3, #-8]
 2226 0024 14ED026A 		vldr.32	s12, [r4, #-8]
 2227              	.L339:
 2228              	.LBB65:
 2229              		.loc 1 696 0 discriminator 3
 2230 0028 90ED007A 		vldr.32	s14, [r0]
 2231 002c D1ED007A 		vldr.32	s15, [r1]
 2232 0030 E7EE267A 		vfma.f32	s15, s14, s13
 2233 0034 0833     		adds	r3, r3, #8
 2234              		.loc 1 695 0 discriminator 3
 2235 0036 9D42     		cmp	r5, r3
 2236 0038 04F10804 		add	r4, r4, #8
 2237              		.loc 1 696 0 discriminator 3
 2238 003c C1ED007A 		vstr.32	s15, [r1]
 2239              		.loc 1 697 0 discriminator 3
 2240 0040 B0EC017A 		vldmia.32	r0!, {s14}
 2241 0044 D2ED007A 		vldr.32	s15, [r2]
 2242 0048 E7EE467A 		vfms.f32	s15, s14, s12
 2243 004c C2ED007A 		vstr.32	s15, [r2]
 2244              		.loc 1 695 0 discriminator 3
 2245 0050 E6D1     		bne	.L342
 2246              	.LBE65:
 2247              		.loc 1 699 0
 2248 0052 91ED007A 		vldr.32	s14, [r1]
 2249 0056 DFED0A6A 		vldr.32	s13, .L343+12
 2250 005a 27EE267A 		vmul.f32	s14, s14, s13
 2251              		.loc 1 701 0
 2252 005e 30BC     		pop	{r4, r5}
 2253              		.cfi_restore 5
 2254              		.cfi_restore 4
 2255              		.cfi_def_cfa_offset 0
 2256              		.loc 1 699 0
 2257 0060 81ED007A 		vstr.32	s14, [r1]
 2258              		.loc 1 700 0
 2259 0064 D2ED007A 		vldr.32	s15, [r2]
 2260 0068 67EEA67A 		vmul.f32	s15, s15, s13
 2261 006c C2ED007A 		vstr.32	s15, [r2]
 2262              		.loc 1 701 0
 2263 0070 7047     		bx	lr
 2264              	.L344:
 2265 0072 00BF     		.align	2
 2266              	.L343:
 2267 0074 00000000 		.word	0
 2268 0078 08000000 		.word	.LANCHOR1+8
 2269 007c 08000000 		.word	.LANCHOR2+8
 2270 0080 0000803D 		.word	1031798784
 2271              		.cfi_endproc
 2272              	.LFE287:
 2273              		.size	utils_fft16_bin1, .-utils_fft16_bin1
 2274              		.section	.text.utils_fft16_bin2,"ax",%progbits
 2275              		.align	1
 2276              		.p2align 4,,15
 2277              		.global	utils_fft16_bin2
 2278              		.syntax unified
 2279              		.thumb
 2280              		.thumb_func
ARM GAS  /tmp/cc6hROox.s 			page 41


 2281              		.fpu fpv4-sp-d16
 2282              		.type	utils_fft16_bin2, %function
 2283              	utils_fft16_bin2:
 2284              	.LFB288:
 2285              		.loc 1 703 0
 2286              		.cfi_startproc
 2287              		@ args = 0, pretend = 0, frame = 0
 2288              		@ frame_needed = 0, uses_anonymous_args = 0
 2289              		@ link register save eliminated.
 2290              	.LVL184:
 2291              		.loc 1 704 0
 2292 0000 DFED1C7A 		vldr.32	s15, .L351
 2293 0004 1C4B     		ldr	r3, .L351+4
 2294 0006 C1ED007A 		vstr.32	s15, [r1]
 2295              		.loc 1 703 0
 2296 000a 30B4     		push	{r4, r5}
 2297              		.cfi_def_cfa_offset 8
 2298              		.cfi_offset 4, -8
 2299              		.cfi_offset 5, -4
 2300              		.loc 1 705 0
 2301 000c B0EE676A 		vmov.f32	s12, s15
 2302 0010 1A4C     		ldr	r4, .L351+8
 2303 0012 C2ED007A 		vstr.32	s15, [r2]
 2304              	.LVL185:
 2305 0016 03F18005 		add	r5, r3, #128
 2306 001a F7EE006A 		vmov.f32	s13, #1.0e+0
 2307 001e 03E0     		b	.L347
 2308              	.LVL186:
 2309              	.L350:
 2310 0020 53ED026A 		vldr.32	s13, [r3, #-8]
 2311 0024 14ED026A 		vldr.32	s12, [r4, #-8]
 2312              	.L347:
 2313              	.LBB66:
 2314              		.loc 1 707 0 discriminator 3
 2315 0028 90ED007A 		vldr.32	s14, [r0]
 2316 002c D1ED007A 		vldr.32	s15, [r1]
 2317 0030 E7EE267A 		vfma.f32	s15, s14, s13
 2318 0034 0833     		adds	r3, r3, #8
 2319              		.loc 1 706 0 discriminator 3
 2320 0036 9D42     		cmp	r5, r3
 2321 0038 04F10804 		add	r4, r4, #8
 2322              		.loc 1 707 0 discriminator 3
 2323 003c C1ED007A 		vstr.32	s15, [r1]
 2324              		.loc 1 708 0 discriminator 3
 2325 0040 B0EC017A 		vldmia.32	r0!, {s14}
 2326 0044 D2ED007A 		vldr.32	s15, [r2]
 2327 0048 E7EE467A 		vfms.f32	s15, s14, s12
 2328 004c C2ED007A 		vstr.32	s15, [r2]
 2329              		.loc 1 706 0 discriminator 3
 2330 0050 E6D1     		bne	.L350
 2331              	.LBE66:
 2332              		.loc 1 710 0
 2333 0052 91ED007A 		vldr.32	s14, [r1]
 2334 0056 DFED0A6A 		vldr.32	s13, .L351+12
 2335 005a 27EE267A 		vmul.f32	s14, s14, s13
 2336              		.loc 1 712 0
 2337 005e 30BC     		pop	{r4, r5}
ARM GAS  /tmp/cc6hROox.s 			page 42


 2338              		.cfi_restore 5
 2339              		.cfi_restore 4
 2340              		.cfi_def_cfa_offset 0
 2341              		.loc 1 710 0
 2342 0060 81ED007A 		vstr.32	s14, [r1]
 2343              		.loc 1 711 0
 2344 0064 D2ED007A 		vldr.32	s15, [r2]
 2345 0068 67EEA67A 		vmul.f32	s15, s15, s13
 2346 006c C2ED007A 		vstr.32	s15, [r2]
 2347              		.loc 1 712 0
 2348 0070 7047     		bx	lr
 2349              	.L352:
 2350 0072 00BF     		.align	2
 2351              	.L351:
 2352 0074 00000000 		.word	0
 2353 0078 08000000 		.word	.LANCHOR3+8
 2354 007c 08000000 		.word	.LANCHOR4+8
 2355 0080 0000803D 		.word	1031798784
 2356              		.cfi_endproc
 2357              	.LFE288:
 2358              		.size	utils_fft16_bin2, .-utils_fft16_bin2
 2359              		.section	.text.utils_fft8_bin0,"ax",%progbits
 2360              		.align	1
 2361              		.p2align 4,,15
 2362              		.global	utils_fft8_bin0
 2363              		.syntax unified
 2364              		.thumb
 2365              		.thumb_func
 2366              		.fpu fpv4-sp-d16
 2367              		.type	utils_fft8_bin0, %function
 2368              	utils_fft8_bin0:
 2369              	.LFB289:
 2370              		.loc 1 714 0
 2371              		.cfi_startproc
 2372              		@ args = 0, pretend = 0, frame = 0
 2373              		@ frame_needed = 0, uses_anonymous_args = 0
 2374              		@ link register save eliminated.
 2375              	.LVL187:
 2376              		.loc 1 715 0
 2377 0000 0023     		movs	r3, #0
 2378 0002 0B60     		str	r3, [r1]	@ float
 2379              		.loc 1 716 0
 2380 0004 1360     		str	r3, [r2]	@ float
 2381              	.LVL188:
 2382 0006 D1ED007A 		vldr.32	s15, [r1]
 2383 000a 00F12003 		add	r3, r0, #32
 2384              	.LVL189:
 2385              	.L354:
 2386              	.LBB67:
 2387              		.loc 1 719 0 discriminator 3
 2388 000e B0EC017A 		vldmia.32	r0!, {s14}
 2389 0012 77EE877A 		vadd.f32	s15, s15, s14
 2390              		.loc 1 718 0 discriminator 3
 2391 0016 9842     		cmp	r0, r3
 2392              		.loc 1 719 0 discriminator 3
 2393 0018 C1ED007A 		vstr.32	s15, [r1]
 2394              		.loc 1 718 0 discriminator 3
ARM GAS  /tmp/cc6hROox.s 			page 43


 2395 001c F7D1     		bne	.L354
 2396              	.LBE67:
 2397              		.loc 1 722 0
 2398 001e B4EE007A 		vmov.f32	s14, #1.25e-1
 2399 0022 67EE877A 		vmul.f32	s15, s15, s14
 2400 0026 C1ED007A 		vstr.32	s15, [r1]
 2401              		.loc 1 723 0
 2402 002a 7047     		bx	lr
 2403              		.cfi_endproc
 2404              	.LFE289:
 2405              		.size	utils_fft8_bin0, .-utils_fft8_bin0
 2406              		.section	.text.utils_fft8_bin1,"ax",%progbits
 2407              		.align	1
 2408              		.p2align 4,,15
 2409              		.global	utils_fft8_bin1
 2410              		.syntax unified
 2411              		.thumb
 2412              		.thumb_func
 2413              		.fpu fpv4-sp-d16
 2414              		.type	utils_fft8_bin1, %function
 2415              	utils_fft8_bin1:
 2416              	.LFB290:
 2417              		.loc 1 725 0
 2418              		.cfi_startproc
 2419              		@ args = 0, pretend = 0, frame = 0
 2420              		@ frame_needed = 0, uses_anonymous_args = 0
 2421              		@ link register save eliminated.
 2422              	.LVL190:
 2423              		.loc 1 726 0
 2424 0000 DFED1B7A 		vldr.32	s15, .L362
 2425 0004 1B4B     		ldr	r3, .L362+4
 2426 0006 C1ED007A 		vstr.32	s15, [r1]
 2427              		.loc 1 725 0
 2428 000a 30B4     		push	{r4, r5}
 2429              		.cfi_def_cfa_offset 8
 2430              		.cfi_offset 4, -8
 2431              		.cfi_offset 5, -4
 2432              		.loc 1 727 0
 2433 000c F0EE676A 		vmov.f32	s13, s15
 2434 0010 194C     		ldr	r4, .L362+8
 2435 0012 C2ED007A 		vstr.32	s15, [r2]
 2436              	.LVL191:
 2437 0016 00F12005 		add	r5, r0, #32
 2438 001a B7EE007A 		vmov.f32	s14, #1.0e+0
 2439 001e 03E0     		b	.L358
 2440              	.LVL192:
 2441              	.L361:
 2442 0020 14ED047A 		vldr.32	s14, [r4, #-16]
 2443 0024 53ED046A 		vldr.32	s13, [r3, #-16]
 2444              	.L358:
 2445              	.LBB68:
 2446              		.loc 1 729 0 discriminator 3
 2447 0028 90ED006A 		vldr.32	s12, [r0]
 2448 002c D1ED007A 		vldr.32	s15, [r1]
 2449 0030 E6EE077A 		vfma.f32	s15, s12, s14
 2450 0034 1034     		adds	r4, r4, #16
 2451 0036 1033     		adds	r3, r3, #16
ARM GAS  /tmp/cc6hROox.s 			page 44


 2452 0038 C1ED007A 		vstr.32	s15, [r1]
 2453              		.loc 1 730 0 discriminator 3
 2454 003c B0EC017A 		vldmia.32	r0!, {s14}
 2455 0040 D2ED007A 		vldr.32	s15, [r2]
 2456 0044 E7EE667A 		vfms.f32	s15, s14, s13
 2457              		.loc 1 728 0 discriminator 3
 2458 0048 8542     		cmp	r5, r0
 2459              		.loc 1 730 0 discriminator 3
 2460 004a C2ED007A 		vstr.32	s15, [r2]
 2461              		.loc 1 728 0 discriminator 3
 2462 004e E7D1     		bne	.L361
 2463              	.LBE68:
 2464              		.loc 1 732 0
 2465 0050 91ED007A 		vldr.32	s14, [r1]
 2466 0054 F4EE006A 		vmov.f32	s13, #1.25e-1
 2467 0058 27EE267A 		vmul.f32	s14, s14, s13
 2468              		.loc 1 734 0
 2469 005c 30BC     		pop	{r4, r5}
 2470              		.cfi_restore 5
 2471              		.cfi_restore 4
 2472              		.cfi_def_cfa_offset 0
 2473              	.LVL193:
 2474              		.loc 1 732 0
 2475 005e 81ED007A 		vstr.32	s14, [r1]
 2476              		.loc 1 733 0
 2477 0062 D2ED007A 		vldr.32	s15, [r2]
 2478 0066 67EEA67A 		vmul.f32	s15, s15, s13
 2479 006a C2ED007A 		vstr.32	s15, [r2]
 2480              		.loc 1 734 0
 2481 006e 7047     		bx	lr
 2482              	.L363:
 2483              		.align	2
 2484              	.L362:
 2485 0070 00000000 		.word	0
 2486 0074 10000000 		.word	.LANCHOR2+16
 2487 0078 10000000 		.word	.LANCHOR1+16
 2488              		.cfi_endproc
 2489              	.LFE290:
 2490              		.size	utils_fft8_bin1, .-utils_fft8_bin1
 2491              		.section	.text.utils_fft8_bin2,"ax",%progbits
 2492              		.align	1
 2493              		.p2align 4,,15
 2494              		.global	utils_fft8_bin2
 2495              		.syntax unified
 2496              		.thumb
 2497              		.thumb_func
 2498              		.fpu fpv4-sp-d16
 2499              		.type	utils_fft8_bin2, %function
 2500              	utils_fft8_bin2:
 2501              	.LFB291:
 2502              		.loc 1 736 0
 2503              		.cfi_startproc
 2504              		@ args = 0, pretend = 0, frame = 0
 2505              		@ frame_needed = 0, uses_anonymous_args = 0
 2506              		@ link register save eliminated.
 2507              	.LVL194:
 2508              		.loc 1 737 0
ARM GAS  /tmp/cc6hROox.s 			page 45


 2509 0000 DFED1B7A 		vldr.32	s15, .L370
 2510 0004 1B4B     		ldr	r3, .L370+4
 2511 0006 C1ED007A 		vstr.32	s15, [r1]
 2512              		.loc 1 736 0
 2513 000a 30B4     		push	{r4, r5}
 2514              		.cfi_def_cfa_offset 8
 2515              		.cfi_offset 4, -8
 2516              		.cfi_offset 5, -4
 2517              		.loc 1 738 0
 2518 000c F0EE676A 		vmov.f32	s13, s15
 2519 0010 194C     		ldr	r4, .L370+8
 2520 0012 C2ED007A 		vstr.32	s15, [r2]
 2521              	.LVL195:
 2522 0016 00F12005 		add	r5, r0, #32
 2523 001a B7EE007A 		vmov.f32	s14, #1.0e+0
 2524 001e 03E0     		b	.L366
 2525              	.LVL196:
 2526              	.L369:
 2527 0020 14ED047A 		vldr.32	s14, [r4, #-16]
 2528 0024 53ED046A 		vldr.32	s13, [r3, #-16]
 2529              	.L366:
 2530              	.LBB69:
 2531              		.loc 1 740 0 discriminator 3
 2532 0028 90ED006A 		vldr.32	s12, [r0]
 2533 002c D1ED007A 		vldr.32	s15, [r1]
 2534 0030 E6EE077A 		vfma.f32	s15, s12, s14
 2535 0034 1034     		adds	r4, r4, #16
 2536 0036 1033     		adds	r3, r3, #16
 2537 0038 C1ED007A 		vstr.32	s15, [r1]
 2538              		.loc 1 741 0 discriminator 3
 2539 003c B0EC017A 		vldmia.32	r0!, {s14}
 2540 0040 D2ED007A 		vldr.32	s15, [r2]
 2541 0044 E7EE667A 		vfms.f32	s15, s14, s13
 2542              		.loc 1 739 0 discriminator 3
 2543 0048 8542     		cmp	r5, r0
 2544              		.loc 1 741 0 discriminator 3
 2545 004a C2ED007A 		vstr.32	s15, [r2]
 2546              		.loc 1 739 0 discriminator 3
 2547 004e E7D1     		bne	.L369
 2548              	.LBE69:
 2549              		.loc 1 743 0
 2550 0050 91ED007A 		vldr.32	s14, [r1]
 2551 0054 F4EE006A 		vmov.f32	s13, #1.25e-1
 2552 0058 27EE267A 		vmul.f32	s14, s14, s13
 2553              		.loc 1 745 0
 2554 005c 30BC     		pop	{r4, r5}
 2555              		.cfi_restore 5
 2556              		.cfi_restore 4
 2557              		.cfi_def_cfa_offset 0
 2558              	.LVL197:
 2559              		.loc 1 743 0
 2560 005e 81ED007A 		vstr.32	s14, [r1]
 2561              		.loc 1 744 0
 2562 0062 D2ED007A 		vldr.32	s15, [r2]
 2563 0066 67EEA67A 		vmul.f32	s15, s15, s13
 2564 006a C2ED007A 		vstr.32	s15, [r2]
 2565              		.loc 1 745 0
ARM GAS  /tmp/cc6hROox.s 			page 46


 2566 006e 7047     		bx	lr
 2567              	.L371:
 2568              		.align	2
 2569              	.L370:
 2570 0070 00000000 		.word	0
 2571 0074 10000000 		.word	.LANCHOR4+16
 2572 0078 10000000 		.word	.LANCHOR3+16
 2573              		.cfi_endproc
 2574              	.LFE291:
 2575              		.size	utils_fft8_bin2, .-utils_fft8_bin2
 2576              		.section	.text.utils_second_motor_id,"ax",%progbits
 2577              		.align	1
 2578              		.p2align 4,,15
 2579              		.global	utils_second_motor_id
 2580              		.syntax unified
 2581              		.thumb
 2582              		.thumb_func
 2583              		.fpu fpv4-sp-d16
 2584              		.type	utils_second_motor_id, %function
 2585              	utils_second_motor_id:
 2586              	.LFB292:
 2587              		.loc 1 753 0
 2588              		.cfi_startproc
 2589              		@ args = 0, pretend = 0, frame = 0
 2590              		@ frame_needed = 0, uses_anonymous_args = 0
 2591              		@ link register save eliminated.
 2592              		.loc 1 763 0
 2593 0000 0020     		movs	r0, #0
 2594 0002 7047     		bx	lr
 2595              		.cfi_endproc
 2596              	.LFE292:
 2597              		.size	utils_second_motor_id, .-utils_second_motor_id
 2598              		.section	.text.utils_read_hall,"ax",%progbits
 2599              		.align	1
 2600              		.p2align 4,,15
 2601              		.global	utils_read_hall
 2602              		.syntax unified
 2603              		.thumb
 2604              		.thumb_func
 2605              		.fpu fpv4-sp-d16
 2606              		.type	utils_read_hall, %function
 2607              	utils_read_hall:
 2608              	.LFB293:
 2609              		.loc 1 778 0
 2610              		.cfi_startproc
 2611              		@ args = 0, pretend = 0, frame = 0
 2612              		@ frame_needed = 0, uses_anonymous_args = 0
 2613              		@ link register save eliminated.
 2614              	.LVL198:
 2615              		.loc 1 779 0
 2616 0000 4900     		lsls	r1, r1, #1
 2617              	.LVL199:
 2618              		.loc 1 778 0
 2619 0002 F0B4     		push	{r4, r5, r6, r7}
 2620              		.cfi_def_cfa_offset 16
 2621              		.cfi_offset 4, -16
 2622              		.cfi_offset 5, -12
ARM GAS  /tmp/cc6hROox.s 			page 47


 2623              		.cfi_offset 6, -8
 2624              		.cfi_offset 7, -4
 2625              		.loc 1 779 0
 2626 0004 4F1C     		adds	r7, r1, #1
 2627              	.LVL200:
 2628              		.loc 1 782 0
 2629 0006 07EBD777 		add	r7, r7, r7, lsr #31
 2630              	.LVL201:
 2631 000a 7F10     		asrs	r7, r7, #1
 2632              	.LVL202:
 2633              		.loc 1 784 0
 2634 000c 20B3     		cbz	r0, .L379
 2635              		.loc 1 781 0
 2636 000e 0023     		movs	r3, #0
 2637              		.loc 1 786 0
 2638 0010 DFF874C0 		ldr	ip, .L383
 2639              		.loc 1 781 0
 2640 0014 1A46     		mov	r2, r3
 2641 0016 1846     		mov	r0, r3
 2642              	.LVL203:
 2643              	.L375:
 2644              		.loc 1 786 0
 2645 0018 DCF81060 		ldr	r6, [ip, #16]
 2646              		.loc 1 787 0
 2647 001c DCF81050 		ldr	r5, [ip, #16]
 2648              		.loc 1 788 0
 2649 0020 DCF81040 		ldr	r4, [ip, #16]
 2650              		.loc 1 787 0
 2651 0024 C5F3C015 		ubfx	r5, r5, #7, #1
 2652              		.loc 1 785 0
 2653 0028 0139     		subs	r1, r1, #1
 2654              	.LVL204:
 2655              		.loc 1 786 0
 2656 002a C6F38016 		ubfx	r6, r6, #6, #1
 2657              		.loc 1 788 0
 2658 002e C4F30024 		ubfx	r4, r4, #8, #1
 2659              		.loc 1 787 0
 2660 0032 2A44     		add	r2, r2, r5
 2661              	.LVL205:
 2662              		.loc 1 785 0
 2663 0034 4D1C     		adds	r5, r1, #1
 2664              		.loc 1 786 0
 2665 0036 3044     		add	r0, r0, r6
 2666              	.LVL206:
 2667              		.loc 1 788 0
 2668 0038 2344     		add	r3, r3, r4
 2669              	.LVL207:
 2670              		.loc 1 785 0
 2671 003a EDD1     		bne	.L375
 2672              	.L376:
 2673              		.loc 1 798 0
 2674 003c B842     		cmp	r0, r7
 2675 003e CCBF     		ite	gt
 2676 0040 0120     		movgt	r0, #1
 2677              	.LVL208:
 2678 0042 0020     		movle	r0, #0
 2679 0044 BA42     		cmp	r2, r7
ARM GAS  /tmp/cc6hROox.s 			page 48


 2680 0046 C8BF     		it	gt
 2681 0048 40F00200 		orrgt	r0, r0, #2
 2682 004c BB42     		cmp	r3, r7
 2683 004e C8BF     		it	gt
 2684 0050 40F00400 		orrgt	r0, r0, #4
 2685              		.loc 1 799 0
 2686 0054 F0BC     		pop	{r4, r5, r6, r7}
 2687              		.cfi_remember_state
 2688              		.cfi_restore 7
 2689              		.cfi_restore 6
 2690              		.cfi_restore 5
 2691              		.cfi_restore 4
 2692              		.cfi_def_cfa_offset 0
 2693              	.LVL209:
 2694 0056 7047     		bx	lr
 2695              	.LVL210:
 2696              	.L379:
 2697              		.cfi_restore_state
 2698              		.loc 1 792 0
 2699 0058 DFF82CC0 		ldr	ip, .L383
 2700              		.loc 1 781 0
 2701 005c 0346     		mov	r3, r0
 2702 005e 0246     		mov	r2, r0
 2703              	.LVL211:
 2704              	.L374:
 2705              		.loc 1 792 0
 2706 0060 DCF81060 		ldr	r6, [ip, #16]
 2707              		.loc 1 793 0
 2708 0064 DCF81050 		ldr	r5, [ip, #16]
 2709              		.loc 1 794 0
 2710 0068 DCF81040 		ldr	r4, [ip, #16]
 2711              		.loc 1 791 0
 2712 006c 0139     		subs	r1, r1, #1
 2713              	.LVL212:
 2714              		.loc 1 794 0
 2715 006e C4F30024 		ubfx	r4, r4, #8, #1
 2716              		.loc 1 792 0
 2717 0072 C6F38016 		ubfx	r6, r6, #6, #1
 2718              		.loc 1 793 0
 2719 0076 C5F3C015 		ubfx	r5, r5, #7, #1
 2720              		.loc 1 794 0
 2721 007a 2344     		add	r3, r3, r4
 2722              	.LVL213:
 2723              		.loc 1 791 0
 2724 007c 4C1C     		adds	r4, r1, #1
 2725              		.loc 1 792 0
 2726 007e 3044     		add	r0, r0, r6
 2727              	.LVL214:
 2728              		.loc 1 793 0
 2729 0080 2A44     		add	r2, r2, r5
 2730              	.LVL215:
 2731              		.loc 1 791 0
 2732 0082 EDD1     		bne	.L374
 2733 0084 DAE7     		b	.L376
 2734              	.L384:
 2735 0086 00BF     		.align	2
 2736              	.L383:
ARM GAS  /tmp/cc6hROox.s 			page 49


 2737 0088 00080240 		.word	1073874944
 2738              		.cfi_endproc
 2739              	.LFE293:
 2740              		.size	utils_read_hall, .-utils_read_hall
 2741              		.section	.text.utils_batt_liion_norm_v_to_capacity,"ax",%progbits
 2742              		.align	1
 2743              		.p2align 4,,15
 2744              		.global	utils_batt_liion_norm_v_to_capacity
 2745              		.syntax unified
 2746              		.thumb
 2747              		.thumb_func
 2748              		.fpu fpv4-sp-d16
 2749              		.type	utils_batt_liion_norm_v_to_capacity, %function
 2750              	utils_batt_liion_norm_v_to_capacity:
 2751              	.LFB294:
 2752              		.loc 1 803 0
 2753              		.cfi_startproc
 2754              		@ args = 0, pretend = 0, frame = 0
 2755              		@ frame_needed = 0, uses_anonymous_args = 0
 2756              		@ link register save eliminated.
 2757              	.LVL216:
 2758              	.LBB70:
 2759              	.LBB71:
 2760              		.loc 1 88 0
 2761 0000 F7EE007A 		vmov.f32	s15, #1.0e+0
 2762 0004 B4EEE70A 		vcmpe.f32	s0, s15
 2763 0008 F1EE10FA 		vmrs	APSR_nzcv, FPSCR
 2764 000c 02DD     		ble	.L389
 2765 000e 9FED150A 		vldr.32	s0, .L390
 2766              	.LVL217:
 2767 0012 7047     		bx	lr
 2768              	.LVL218:
 2769              	.L389:
 2770              		.loc 1 91 0
 2771 0014 B5EEC00A 		vcmpe.f32	s0, #0
 2772 0018 F1EE10FA 		vmrs	APSR_nzcv, FPSCR
 2773 001c 1ED4     		bmi	.L388
 2774 001e 20EE007A 		vmul.f32	s14, s0, s0
 2775 0022 DFED113A 		vldr.32	s7, .L390+4
 2776 0026 DFED114A 		vldr.32	s9, .L390+8
 2777 002a 9FED115A 		vldr.32	s10, .L390+12
 2778 002e DFED115A 		vldr.32	s11, .L390+16
 2779 0032 9FED116A 		vldr.32	s12, .L390+20
 2780 0036 60EE076A 		vmul.f32	s13, s0, s14
 2781 003a 60EE267A 		vmul.f32	s15, s0, s13
 2782 003e 20EE274A 		vmul.f32	s8, s0, s15
 2783 0042 67EEA37A 		vmul.f32	s15, s15, s7
 2784 0046 E4EE247A 		vfma.f32	s15, s8, s9
 2785 004a E6EE857A 		vfma.f32	s15, s13, s10
 2786 004e E7EE257A 		vfma.f32	s15, s14, s11
 2787 0052 E0EE067A 		vfma.f32	s15, s0, s12
 2788 0056 B0EE670A 		vmov.f32	s0, s15
 2789              	.LVL219:
 2790 005a 7047     		bx	lr
 2791              	.LVL220:
 2792              	.L388:
 2793 005c 9FED070A 		vldr.32	s0, .L390+24
ARM GAS  /tmp/cc6hROox.s 			page 50


 2794              	.LVL221:
 2795              	.LBE71:
 2796              	.LBE70:
 2797              		.loc 1 815 0
 2798 0060 7047     		bx	lr
 2799              	.L391:
 2800 0062 00BF     		.align	2
 2801              	.L390:
 2802 0064 F0E47F3F 		.word	1065346288
 2803 0068 249CAF40 		.word	1085250596
 2804 006c 81B43EC0 		.word	3225334913
 2805 0070 121560C0 		.word	3227522322
 2806 0074 C87CD63F 		.word	1071021256
 2807 0078 1761A23E 		.word	1050829079
 2808 007c 00000000 		.word	0
 2809              		.cfi_endproc
 2810              	.LFE294:
 2811              		.size	utils_batt_liion_norm_v_to_capacity, .-utils_batt_liion_norm_v_to_capacity
 2812              		.section	.text.utils_median_filter_uint16_run,"ax",%progbits
 2813              		.align	1
 2814              		.p2align 4,,15
 2815              		.global	utils_median_filter_uint16_run
 2816              		.syntax unified
 2817              		.thumb
 2818              		.thumb_func
 2819              		.fpu fpv4-sp-d16
 2820              		.type	utils_median_filter_uint16_run, %function
 2821              	utils_median_filter_uint16_run:
 2822              	.LFB296:
 2823              		.loc 1 822 0
 2824              		.cfi_startproc
 2825              		@ args = 0, pretend = 0, frame = 0
 2826              		@ frame_needed = 1, uses_anonymous_args = 0
 2827              	.LVL222:
 2828 0000 F8B5     		push	{r3, r4, r5, r6, r7, lr}
 2829              		.cfi_def_cfa_offset 24
 2830              		.cfi_offset 3, -24
 2831              		.cfi_offset 4, -20
 2832              		.cfi_offset 5, -16
 2833              		.cfi_offset 6, -12
 2834              		.cfi_offset 7, -8
 2835              		.cfi_offset 14, -4
 2836 0002 1446     		mov	r4, r2
 2837              		.loc 1 825 0
 2838 0004 5200     		lsls	r2, r2, #1
 2839              	.LVL223:
 2840              		.loc 1 823 0
 2841 0006 D1F800C0 		ldr	ip, [r1]
 2842              		.loc 1 825 0
 2843 000a 02F10805 		add	r5, r2, #8
 2844              		.loc 1 822 0
 2845 000e 0E46     		mov	r6, r1
 2846              		.loc 1 825 0
 2847 0010 25F00705 		bic	r5, r5, #7
 2848              		.loc 1 822 0
 2849 0014 0146     		mov	r1, r0
 2850              	.LVL224:
ARM GAS  /tmp/cc6hROox.s 			page 51


 2851 0016 00AF     		add	r7, sp, #0
 2852              		.cfi_def_cfa_register 7
 2853              		.loc 1 823 0
 2854 0018 0CF10100 		add	r0, ip, #1
 2855              	.LVL225:
 2856              		.loc 1 825 0
 2857 001c ADEB050D 		sub	sp, sp, r5
 2858              		.loc 1 823 0
 2859 0020 21F81C30 		strh	r3, [r1, ip, lsl #1]	@ movhi
 2860              		.loc 1 824 0
 2861 0024 B0FBF4F3 		udiv	r3, r0, r4
 2862              	.LVL226:
 2863              		.loc 1 825 0
 2864 0028 6D46     		mov	r5, sp
 2865              		.loc 1 824 0
 2866 002a 04FB1303 		mls	r3, r4, r3, r0
 2867 002e 3360     		str	r3, [r6]
 2868              	.LVL227:
 2869              		.loc 1 826 0
 2870 0030 2846     		mov	r0, r5
 2871 0032 FFF7FEFF 		bl	memcpy
 2872              	.LVL228:
 2873              		.loc 1 827 0
 2874 0036 2846     		mov	r0, r5
 2875 0038 2146     		mov	r1, r4
 2876 003a 044B     		ldr	r3, .L394
 2877 003c 0222     		movs	r2, #2
 2878              		.loc 1 828 0
 2879 003e 6408     		lsrs	r4, r4, #1
 2880              	.LVL229:
 2881              		.loc 1 827 0
 2882 0040 FFF7FEFF 		bl	qsort
 2883              	.LVL230:
 2884              		.loc 1 829 0
 2885 0044 35F81400 		ldrh	r0, [r5, r4, lsl #1]
 2886 0048 BD46     		mov	sp, r7
 2887              		.cfi_def_cfa_register 13
 2888              		@ sp needed
 2889 004a F8BD     		pop	{r3, r4, r5, r6, r7, pc}
 2890              	.LVL231:
 2891              	.L395:
 2892              		.align	2
 2893              	.L394:
 2894 004c 00000000 		.word	uint16_cmp_func
 2895              		.cfi_endproc
 2896              	.LFE296:
 2897              		.size	utils_median_filter_uint16_run, .-utils_median_filter_uint16_run
 2898              		.section	.text.utils_hw_type_to_string,"ax",%progbits
 2899              		.align	1
 2900              		.p2align 4,,15
 2901              		.global	utils_hw_type_to_string
 2902              		.syntax unified
 2903              		.thumb
 2904              		.thumb_func
 2905              		.fpu fpv4-sp-d16
 2906              		.type	utils_hw_type_to_string, %function
 2907              	utils_hw_type_to_string:
ARM GAS  /tmp/cc6hROox.s 			page 52


 2908              	.LFB297:
 2909              		.loc 1 831 0
 2910              		.cfi_startproc
 2911              		@ args = 0, pretend = 0, frame = 0
 2912              		@ frame_needed = 0, uses_anonymous_args = 0
 2913              		@ link register save eliminated.
 2914              	.LVL232:
 2915 0000 0228     		cmp	r0, #2
 2916 0002 9ABF     		itte	ls
 2917 0004 024B     		ldrls	r3, .L399
 2918 0006 53F82000 		ldrls	r0, [r3, r0, lsl #2]
 2919              	.LVL233:
 2920              		.loc 1 831 0
 2921 000a 0248     		ldrhi	r0, .L399+4
 2922              		.loc 1 838 0
 2923 000c 7047     		bx	lr
 2924              	.L400:
 2925 000e 00BF     		.align	2
 2926              	.L399:
 2927 0010 00000000 		.word	.LANCHOR5
 2928 0014 00000000 		.word	.LC2
 2929              		.cfi_endproc
 2930              	.LFE297:
 2931              		.size	utils_hw_type_to_string, .-utils_hw_type_to_string
 2932              		.section	.text.utils_check_min_stack_left,"ax",%progbits
 2933              		.align	1
 2934              		.p2align 4,,15
 2935              		.global	utils_check_min_stack_left
 2936              		.syntax unified
 2937              		.thumb
 2938              		.thumb_func
 2939              		.fpu fpv4-sp-d16
 2940              		.type	utils_check_min_stack_left, %function
 2941              	utils_check_min_stack_left:
 2942              	.LFB298:
 2943              		.loc 1 843 0
 2944              		.cfi_startproc
 2945              		@ args = 0, pretend = 0, frame = 0
 2946              		@ frame_needed = 0, uses_anonymous_args = 0
 2947              		@ link register save eliminated.
 2948              	.LVL234:
 2949              		.loc 1 844 0
 2950 0000 C369     		ldr	r3, [r0, #28]
 2951              	.LVL235:
 2952              		.loc 1 846 0
 2953 0002 0020     		movs	r0, #0
 2954              	.LVL236:
 2955 0004 03E0     		b	.L403
 2956              	.LVL237:
 2957              	.L405:
 2958 0006 0430     		adds	r0, r0, #4
 2959              	.LVL238:
 2960              		.loc 1 847 0
 2961 0008 B0F5005F 		cmp	r0, #8192
 2962 000c 04D0     		beq	.L401
 2963              	.L403:
 2964              	.LVL239:
ARM GAS  /tmp/cc6hROox.s 			page 53


 2965              		.loc 1 848 0
 2966 000e 53F8042B 		ldr	r2, [r3], #4
 2967              	.LVL240:
 2968 0012 B2F1553F 		cmp	r2, #1431655765
 2969 0016 F6D0     		beq	.L405
 2970              	.LVL241:
 2971              	.L401:
 2972              		.loc 1 855 0
 2973 0018 7047     		bx	lr
 2974              		.cfi_endproc
 2975              	.LFE298:
 2976              		.size	utils_check_min_stack_left, .-utils_check_min_stack_left
 2977 001a 00BF     		.section	.text.utils_stack_left_now,"ax",%progbits
 2978              		.align	1
 2979              		.p2align 4,,15
 2980              		.global	utils_stack_left_now
 2981              		.syntax unified
 2982              		.thumb
 2983              		.thumb_func
 2984              		.fpu fpv4-sp-d16
 2985              		.type	utils_stack_left_now, %function
 2986              	utils_stack_left_now:
 2987              	.LFB299:
 2988              		.loc 1 860 0
 2989              		.cfi_startproc
 2990              		@ args = 0, pretend = 0, frame = 0
 2991              		@ frame_needed = 0, uses_anonymous_args = 0
 2992              		@ link register save eliminated.
 2993              	.LBB72:
 2994              	.LBB73:
 2995              		.loc 2 428 0
 2996              		.syntax unified
 2997              	@ 428 "ChibiOS_3.0.5/os/ext/CMSIS/include/core_cmFunc.h" 1
 2998 0000 EFF30983 		MRS r3, psp
 2999              	
 3000              	@ 0 "" 2
 3001              	.LVL242:
 3002              		.thumb
 3003              		.syntax unified
 3004              	.LBE73:
 3005              	.LBE72:
 3006              	.LBB74:
 3007              	.LBB75:
 3008              		.file 3 "ChibiOS_3.0.5/os/rt/include/chthreads.h"
 3009              		.loc 3 176 0
 3010 0004 024A     		ldr	r2, .L407
 3011              	.LBE75:
 3012              	.LBE74:
 3013              		.loc 1 862 0
 3014 0006 9269     		ldr	r2, [r2, #24]
 3015 0008 D069     		ldr	r0, [r2, #28]
 3016 000a 643B     		subs	r3, r3, #100
 3017              	.LVL243:
 3018              		.loc 1 863 0
 3019 000c 181A     		subs	r0, r3, r0
 3020 000e 7047     		bx	lr
 3021              	.L408:
ARM GAS  /tmp/cc6hROox.s 			page 54


 3022              		.align	2
 3023              	.L407:
 3024 0010 00000000 		.word	ch
 3025              		.cfi_endproc
 3026              	.LFE299:
 3027              		.size	utils_stack_left_now, .-utils_stack_left_now
 3028              		.global	utils_tab_cos_32_2
 3029              		.global	utils_tab_cos_32_1
 3030              		.global	utils_tab_sin_32_2
 3031              		.global	utils_tab_sin_32_1
 3032              		.section	.bss.sys_lock_cnt,"aw",%nobits
 3033              		.align	2
 3034              		.set	.LANCHOR0,. + 0
 3035              		.type	sys_lock_cnt, %object
 3036              		.size	sys_lock_cnt, 4
 3037              	sys_lock_cnt:
 3038 0000 00000000 		.space	4
 3039              		.section	.rodata.CSWTCH.105,"a",%progbits
 3040              		.align	2
 3041              		.set	.LANCHOR5,. + 0
 3042              		.type	CSWTCH.105, %object
 3043              		.size	CSWTCH.105, 12
 3044              	CSWTCH.105:
 3045 0000 00000000 		.word	.LC3
 3046 0004 10000000 		.word	.LC4
 3047 0008 24000000 		.word	.LC5
 3048              		.section	.rodata.str1.4,"aMS",%progbits,1
 3049              		.align	2
 3050              	.LC3:
 3051 0000 48575F54 		.ascii	"HW_TYPE_VESC\000"
 3051      5950455F 
 3051      56455343 
 3051      00
 3052 000d 000000   		.space	3
 3053              	.LC4:
 3054 0010 48575F54 		.ascii	"HW_TYPE_VESC_BMS\000"
 3054      5950455F 
 3054      56455343 
 3054      5F424D53 
 3054      00
 3055 0021 000000   		.space	3
 3056              	.LC5:
 3057 0024 48575F54 		.ascii	"HW_TYPE_CUSTOM_MODULE\000"
 3057      5950455F 
 3057      43555354 
 3057      4F4D5F4D 
 3057      4F44554C 
 3058              		.section	.rodata.utils_byte_to_binary.str1.4,"aMS",%progbits,1
 3059              		.align	2
 3060              	.LC0:
 3061 0000 3100     		.ascii	"1\000"
 3062 0002 0000     		.space	2
 3063              	.LC1:
 3064 0004 3000     		.ascii	"0\000"
 3065              		.section	.rodata.utils_hw_type_to_string.str1.4,"aMS",%progbits,1
 3066              		.align	2
 3067              	.LC2:
ARM GAS  /tmp/cc6hROox.s 			page 55


 3068 0000 4641554C 		.ascii	"FAULT_HARDWARE\000"
 3068      545F4841 
 3068      52445741 
 3068      524500
 3069              		.section	.rodata.utils_tab_cos_32_1,"a",%progbits
 3070              		.align	2
 3071              		.set	.LANCHOR1,. + 0
 3072              		.type	utils_tab_cos_32_1, %object
 3073              		.size	utils_tab_cos_32_1, 128
 3074              	utils_tab_cos_32_1:
 3075 0000 0000803F 		.word	1065353216
 3076 0004 BA147B3F 		.word	1065030842
 3077 0008 66836C3F 		.word	1064076134
 3078 000c 38DB543F 		.word	1062525752
 3079 0010 F704353F 		.word	1060439287
 3080 0014 D6390E3F 		.word	1057896918
 3081 0018 07EFC33E 		.word	1053028103
 3082 001c ACC5473E 		.word	1044891052
 3083 0020 00000000 		.word	0
 3084 0024 ACC547BE 		.word	3192374700
 3085 0028 07EFC3BE 		.word	3200511751
 3086 002c D6390EBF 		.word	3205380566
 3087 0030 F70435BF 		.word	3207922935
 3088 0034 38DB54BF 		.word	3210009400
 3089 0038 66836CBF 		.word	3211559782
 3090 003c BA147BBF 		.word	3212514490
 3091 0040 000080BF 		.word	3212836864
 3092 0044 BA147BBF 		.word	3212514490
 3093 0048 66836CBF 		.word	3211559782
 3094 004c 38DB54BF 		.word	3210009400
 3095 0050 F70435BF 		.word	3207922935
 3096 0054 D6390EBF 		.word	3205380566
 3097 0058 07EFC3BE 		.word	3200511751
 3098 005c ACC547BE 		.word	3192374700
 3099 0060 00000080 		.word	2147483648
 3100 0064 ACC5473E 		.word	1044891052
 3101 0068 07EFC33E 		.word	1053028103
 3102 006c D6390E3F 		.word	1057896918
 3103 0070 F704353F 		.word	1060439287
 3104 0074 38DB543F 		.word	1062525752
 3105 0078 66836C3F 		.word	1064076134
 3106 007c BA147B3F 		.word	1065030842
 3107              		.section	.rodata.utils_tab_cos_32_2,"a",%progbits
 3108              		.align	2
 3109              		.set	.LANCHOR3,. + 0
 3110              		.type	utils_tab_cos_32_2, %object
 3111              		.size	utils_tab_cos_32_2, 128
 3112              	utils_tab_cos_32_2:
 3113 0000 0000803F 		.word	1065353216
 3114 0004 66836C3F 		.word	1064076134
 3115 0008 F704353F 		.word	1060439287
 3116 000c 07EFC33E 		.word	1053028103
 3117 0010 00000000 		.word	0
 3118 0014 07EFC3BE 		.word	3200511751
 3119 0018 F70435BF 		.word	3207922935
 3120 001c 66836CBF 		.word	3211559782
 3121 0020 000080BF 		.word	3212836864
ARM GAS  /tmp/cc6hROox.s 			page 56


 3122 0024 66836CBF 		.word	3211559782
 3123 0028 F70435BF 		.word	3207922935
 3124 002c 07EFC3BE 		.word	3200511751
 3125 0030 00000080 		.word	2147483648
 3126 0034 07EFC33E 		.word	1053028103
 3127 0038 F704353F 		.word	1060439287
 3128 003c 66836C3F 		.word	1064076134
 3129 0040 0000803F 		.word	1065353216
 3130 0044 66836C3F 		.word	1064076134
 3131 0048 F704353F 		.word	1060439287
 3132 004c 07EFC33E 		.word	1053028103
 3133 0050 00000000 		.word	0
 3134 0054 07EFC3BE 		.word	3200511751
 3135 0058 F70435BF 		.word	3207922935
 3136 005c 66836CBF 		.word	3211559782
 3137 0060 000080BF 		.word	3212836864
 3138 0064 66836CBF 		.word	3211559782
 3139 0068 F70435BF 		.word	3207922935
 3140 006c 07EFC3BE 		.word	3200511751
 3141 0070 00000080 		.word	2147483648
 3142 0074 07EFC33E 		.word	1053028103
 3143 0078 F704353F 		.word	1060439287
 3144 007c 66836C3F 		.word	1064076134
 3145              		.section	.rodata.utils_tab_sin_32_1,"a",%progbits
 3146              		.align	2
 3147              		.set	.LANCHOR2,. + 0
 3148              		.type	utils_tab_sin_32_1, %object
 3149              		.size	utils_tab_sin_32_1, 128
 3150              	utils_tab_sin_32_1:
 3151 0000 00000000 		.word	0
 3152 0004 ACC5473E 		.word	1044891052
 3153 0008 07EFC33E 		.word	1053028103
 3154 000c D6390E3F 		.word	1057896918
 3155 0010 F704353F 		.word	1060439287
 3156 0014 38DB543F 		.word	1062525752
 3157 0018 66836C3F 		.word	1064076134
 3158 001c BA147B3F 		.word	1065030842
 3159 0020 0000803F 		.word	1065353216
 3160 0024 BA147B3F 		.word	1065030842
 3161 0028 66836C3F 		.word	1064076134
 3162 002c 38DB543F 		.word	1062525752
 3163 0030 F704353F 		.word	1060439287
 3164 0034 D6390E3F 		.word	1057896918
 3165 0038 07EFC33E 		.word	1053028103
 3166 003c ACC5473E 		.word	1044891052
 3167 0040 00000000 		.word	0
 3168 0044 ACC547BE 		.word	3192374700
 3169 0048 07EFC3BE 		.word	3200511751
 3170 004c D6390EBF 		.word	3205380566
 3171 0050 F70435BF 		.word	3207922935
 3172 0054 38DB54BF 		.word	3210009400
 3173 0058 66836CBF 		.word	3211559782
 3174 005c BA147BBF 		.word	3212514490
 3175 0060 000080BF 		.word	3212836864
 3176 0064 BA147BBF 		.word	3212514490
 3177 0068 66836CBF 		.word	3211559782
 3178 006c 38DB54BF 		.word	3210009400
ARM GAS  /tmp/cc6hROox.s 			page 57


 3179 0070 F70435BF 		.word	3207922935
 3180 0074 D6390EBF 		.word	3205380566
 3181 0078 07EFC3BE 		.word	3200511751
 3182 007c ACC547BE 		.word	3192374700
 3183              		.section	.rodata.utils_tab_sin_32_2,"a",%progbits
 3184              		.align	2
 3185              		.set	.LANCHOR4,. + 0
 3186              		.type	utils_tab_sin_32_2, %object
 3187              		.size	utils_tab_sin_32_2, 128
 3188              	utils_tab_sin_32_2:
 3189 0000 00000000 		.word	0
 3190 0004 07EFC33E 		.word	1053028103
 3191 0008 F704353F 		.word	1060439287
 3192 000c 66836C3F 		.word	1064076134
 3193 0010 0000803F 		.word	1065353216
 3194 0014 66836C3F 		.word	1064076134
 3195 0018 F704353F 		.word	1060439287
 3196 001c 07EFC33E 		.word	1053028103
 3197 0020 00000000 		.word	0
 3198 0024 07EFC3BE 		.word	3200511751
 3199 0028 F70435BF 		.word	3207922935
 3200 002c 66836CBF 		.word	3211559782
 3201 0030 000080BF 		.word	3212836864
 3202 0034 66836CBF 		.word	3211559782
 3203 0038 F70435BF 		.word	3207922935
 3204 003c 07EFC3BE 		.word	3200511751
 3205 0040 00000080 		.word	2147483648
 3206 0044 07EFC33E 		.word	1053028103
 3207 0048 F704353F 		.word	1060439287
 3208 004c 66836C3F 		.word	1064076134
 3209 0050 0000803F 		.word	1065353216
 3210 0054 66836C3F 		.word	1064076134
 3211 0058 F704353F 		.word	1060439287
 3212 005c 07EFC33E 		.word	1053028103
 3213 0060 00000000 		.word	0
 3214 0064 07EFC3BE 		.word	3200511751
 3215 0068 F70435BF 		.word	3207922935
 3216 006c 66836CBF 		.word	3211559782
 3217 0070 000080BF 		.word	3212836864
 3218 0074 66836CBF 		.word	3211559782
 3219 0078 F70435BF 		.word	3207922935
 3220 007c 07EFC3BE 		.word	3200511751
 3221              		.text
 3222              	.Letext0:
 3223              		.file 4 "/usr/arm-none-eabi/include/machine/_default_types.h"
 3224              		.file 5 "/usr/arm-none-eabi/include/sys/_stdint.h"
 3225              		.file 6 "/usr/lib/gcc/arm-none-eabi/7.3.1/include/stddef.h"
 3226              		.file 7 "ChibiOS_3.0.5/os/rt/ports/ARMCMx/compilers/GCC/chtypes.h"
 3227              		.file 8 "ChibiOS_3.0.5/os/rt/include/chsystypes.h"
 3228              		.file 9 "ChibiOS_3.0.5/os/rt/include/chschd.h"
 3229              		.file 10 "ChibiOS_3.0.5/os/ext/CMSIS/include/core_cm4.h"
 3230              		.file 11 "ChibiOS_3.0.5/os/ext/CMSIS/ST/system_stm32f4xx.h"
 3231              		.file 12 "ChibiOS_3.0.5/os/ext/CMSIS/ST/stm32f407xx.h"
 3232              		.file 13 "ChibiOS_3.0.5/os/rt/ports/ARMCMx/chcore.h"
 3233              		.file 14 "ChibiOS_3.0.5/os/rt/ports/ARMCMx/chcore_v7m.h"
 3234              		.file 15 "ChibiOS_3.0.5/os/rt/include/chtm.h"
 3235              		.file 16 "ChibiOS_3.0.5/os/rt/include/chsem.h"
ARM GAS  /tmp/cc6hROox.s 			page 58


 3236              		.file 17 "ChibiOS_3.0.5/os/rt/include/chmtx.h"
 3237              		.file 18 "ChibiOS_3.0.5/os/rt/include/chregistry.h"
 3238              		.file 19 "ChibiOS_3.0.5/os/rt/include/chevents.h"
 3239              		.file 20 "ChibiOS_3.0.5/os/rt/include/chqueues.h"
 3240              		.file 21 "datatypes.h"
 3241              		.file 22 "utils.h"
 3242              		.file 23 "./conf_general.h"
 3243              		.file 24 "ChibiOS_3.0.5/os/hal/ports/STM32/STM32F4xx/stm32_dma.h"
 3244              		.file 25 "ChibiOS_3.0.5/os/hal/ports/STM32/LLD/GPIOv2/pal_lld.h"
 3245              		.file 26 "ChibiOS_3.0.5/os/hal/include/can.h"
 3246              		.file 27 "ChibiOS_3.0.5/os/hal/ports/STM32/LLD/can_lld.h"
 3247              		.file 28 "ChibiOS_3.0.5/os/hal/include/i2c.h"
 3248              		.file 29 "ChibiOS_3.0.5/os/hal/ports/STM32/LLD/I2Cv1/i2c_lld.h"
 3249              		.file 30 "ChibiOS_3.0.5/os/hal/include/icu.h"
 3250              		.file 31 "ChibiOS_3.0.5/os/hal/ports/STM32/LLD/TIMv1/icu_lld.h"
 3251              		.file 32 "ChibiOS_3.0.5/os/hal/ports/STM32/LLD/TIMv1/stm32_tim.h"
 3252              		.file 33 "ChibiOS_3.0.5/os/hal/include/serial.h"
 3253              		.file 34 "ChibiOS_3.0.5/os/hal/ports/STM32/LLD/USARTv1/serial_lld.h"
 3254              		.file 35 "ChibiOS_3.0.5/os/hal/include/spi.h"
 3255              		.file 36 "ChibiOS_3.0.5/os/hal/ports/STM32/LLD/SPIv1/spi_lld.h"
 3256              		.file 37 "ChibiOS_3.0.5/os/hal/include/usb.h"
 3257              		.file 38 "ChibiOS_3.0.5/os/hal/ports/STM32/LLD/OTGv1/usb_lld.h"
 3258              		.file 39 "ChibiOS_3.0.5/os/hal/ports/STM32/LLD/OTGv1/stm32_otg.h"
 3259              		.file 40 "/usr/arm-none-eabi/include/sys/lock.h"
 3260              		.file 41 "/usr/arm-none-eabi/include/sys/_types.h"
 3261              		.file 42 "/usr/arm-none-eabi/include/sys/reent.h"
 3262              		.file 43 "/usr/arm-none-eabi/include/math.h"
 3263              		.file 44 "/usr/arm-none-eabi/include/stdlib.h"
 3264              		.file 45 "ChibiOS_3.0.5/os/rt/include/chsys.h"
 3265              		.file 46 "<built-in>"