ARM GAS  /tmp/ccYL2KmX.s 			page 1


   1              		.cpu cortex-m4
   2              		.eabi_attribute 27, 1
   3              		.eabi_attribute 28, 1
   4              		.eabi_attribute 20, 1
   5              		.eabi_attribute 21, 1
   6              		.eabi_attribute 23, 3
   7              		.eabi_attribute 24, 1
   8              		.eabi_attribute 25, 1
   9              		.eabi_attribute 26, 1
  10              		.eabi_attribute 30, 2
  11              		.eabi_attribute 34, 1
  12              		.eabi_attribute 18, 4
  13              		.file	"virtual_motor.c"
  14              		.text
  15              	.Ltext0:
  16              		.cfi_sections	.debug_frame
  17              		.section	.text.terminal_cmd_disconnect_virtual_motor,"ax",%progbits
  18              		.align	1
  19              		.p2align 4,,15
  20              		.syntax unified
  21              		.thumb
  22              		.thumb_func
  23              		.fpu fpv4-sp-d16
  24              		.type	terminal_cmd_disconnect_virtual_motor, %function
  25              	terminal_cmd_disconnect_virtual_motor:
  26              	.LFB234:
  27              		.file 1 "virtual_motor.c"
  28              		.loc 1 437 0
  29              		.cfi_startproc
  30              		@ args = 0, pretend = 0, frame = 24
  31              		@ frame_needed = 0, uses_anonymous_args = 0
  32              	.LVL0:
  33 0000 70B5     		push	{r4, r5, r6, lr}
  34              		.cfi_def_cfa_offset 16
  35              		.cfi_offset 4, -16
  36              		.cfi_offset 5, -12
  37              		.cfi_offset 6, -8
  38              		.cfi_offset 14, -4
  39              	.LBB8:
  40              	.LBB9:
  41              		.loc 1 253 0
  42 0002 2D4C     		ldr	r4, .L15
  43 0004 94F83C30 		ldrb	r3, [r4, #60]	@ zero_extendqisi2
  44              	.LBE9:
  45              	.LBE8:
  46              		.loc 1 437 0
  47 0008 86B0     		sub	sp, sp, #24
  48              		.cfi_def_cfa_offset 40
  49              	.LBB13:
  50              	.LBB11:
  51              		.loc 1 253 0
  52 000a 3BB9     		cbnz	r3, .L14
  53              	.LVL1:
  54              	.L2:
  55              	.LBE11:
  56              	.LBE13:
  57              		.loc 1 442 0
ARM GAS  /tmp/ccYL2KmX.s 			page 2


  58 000c 2B48     		ldr	r0, .L15+4
  59 000e FFF7FEFF 		bl	commands_printf
  60              	.LVL2:
  61              		.loc 1 443 0
  62 0012 2B48     		ldr	r0, .L15+8
  63 0014 FFF7FEFF 		bl	commands_printf
  64              	.LVL3:
  65              		.loc 1 444 0
  66 0018 06B0     		add	sp, sp, #24
  67              		.cfi_remember_state
  68              		.cfi_def_cfa_offset 16
  69              		@ sp needed
  70 001a 70BD     		pop	{r4, r5, r6, pc}
  71              	.LVL4:
  72              	.L14:
  73              		.cfi_restore_state
  74              	.LBB14:
  75              	.LBB12:
  76              	.LBB10:
  77              		.loc 1 254 0
  78 001c 9FED290A 		vldr.32	s0, .L15+12
  79 0020 FFF7FEFF 		bl	mcpwm_foc_set_current
  80              	.LVL5:
  81              		.loc 1 257 0
  82 0024 0025     		movs	r5, #0
  83              		.loc 1 260 0
  84 0026 2849     		ldr	r1, .L15+16
  85 0028 284A     		ldr	r2, .L15+20
  86 002a 294B     		ldr	r3, .L15+24
  87              		.loc 1 257 0
  88 002c 84F83C50 		strb	r5, [r4, #60]
  89              		.loc 1 260 0
  90 0030 91ED000A 		vldr.32	s0, [r1]
  91 0034 D2ED000A 		vldr.32	s1, [r2]
  92 0038 93ED001A 		vldr.32	s2, [r3]
  93 003c FFF7FEFF 		bl	mcpwm_foc_set_current_offsets
  94              	.LVL6:
  95              		.loc 1 267 0
  96 0040 0126     		movs	r6, #1
  97              		.loc 1 270 0
  98 0042 4FF05062 		mov	r2, #218103808
  99              		.loc 1 272 0
 100 0046 0623     		movs	r3, #6
 101              		.loc 1 269 0
 102 0048 4FF00054 		mov	r4, #536870912
 103              		.loc 1 274 0
 104 004c 6946     		mov	r1, sp
 105 004e 2148     		ldr	r0, .L15+28
 106              		.loc 1 272 0
 107 0050 8DF81430 		strb	r3, [sp, #20]
 108              		.loc 1 270 0
 109 0054 CDE90242 		strd	r4, r2, [sp, #8]
 110              		.loc 1 266 0
 111 0058 0095     		str	r5, [sp]
 112              		.loc 1 268 0
 113 005a 8DF80550 		strb	r5, [sp, #5]
 114              		.loc 1 271 0
ARM GAS  /tmp/ccYL2KmX.s 			page 3


 115 005e 0495     		str	r5, [sp, #16]
 116              		.loc 1 267 0
 117 0060 8DF80460 		strb	r6, [sp, #4]
 118              		.loc 1 274 0
 119 0064 FFF7FEFF 		bl	ADC_Init
 120              	.LVL7:
 121              		.loc 1 276 0
 122 0068 1B4B     		ldr	r3, .L15+32
 123 006a 1B68     		ldr	r3, [r3]
 124 006c 93F82C21 		ldrb	r2, [r3, #300]	@ zero_extendqisi2
 125 0070 B242     		cmp	r2, r6
 126 0072 CBD1     		bne	.L2
 127              		.loc 1 277 0
 128 0074 93F82822 		ldrb	r2, [r3, #552]	@ zero_extendqisi2
 129 0078 013A     		subs	r2, r2, #1
 130 007a 032A     		cmp	r2, #3
 131 007c C6D8     		bhi	.L2
 132 007e DFE802F0 		tbb	[pc, r2]
 133              	.L5:
 134 0082 15       		.byte	(.L4-.L5)/2
 135 0083 12       		.byte	(.L6-.L5)/2
 136 0084 0F       		.byte	(.L7-.L5)/2
 137 0085 02       		.byte	(.L8-.L5)/2
 138              		.p2align 1
 139              	.L8:
 140              		.loc 1 291 0
 141 0086 93ED340A 		vldr.32	s0, [r3, #208]
 142 008a D3ED330A 		vldr.32	s1, [r3, #204]
 143 008e 93ED361A 		vldr.32	s2, [r3, #216]
 144 0092 D3ED351A 		vldr.32	s3, [r3, #212]
 145 0096 93ED372A 		vldr.32	s4, [r3, #220]
 146 009a FFF7FEFF 		bl	encoder_init_sincos
 147              	.LVL8:
 148 009e B5E7     		b	.L2
 149              	.L7:
 150              		.loc 1 287 0
 151 00a0 FFF7FEFF 		bl	encoder_init_ad2s1205_spi
 152              	.LVL9:
 153 00a4 B2E7     		b	.L2
 154              	.L6:
 155              		.loc 1 283 0
 156 00a6 FFF7FEFF 		bl	encoder_init_as5047p_spi
 157              	.LVL10:
 158 00aa AFE7     		b	.L2
 159              	.L4:
 160              		.loc 1 279 0
 161 00ac D3F82402 		ldr	r0, [r3, #548]
 162 00b0 FFF7FEFF 		bl	encoder_init_abi
 163              	.LVL11:
 164 00b4 AAE7     		b	.L2
 165              	.L16:
 166 00b6 00BF     		.align	2
 167              	.L15:
 168 00b8 00000000 		.word	.LANCHOR0
 169 00bc 00000000 		.word	.LC0
 170 00c0 1C000000 		.word	.LC1
 171 00c4 00000000 		.word	0
ARM GAS  /tmp/ccYL2KmX.s 			page 4


 172 00c8 00000000 		.word	.LANCHOR1
 173 00cc 00000000 		.word	.LANCHOR2
 174 00d0 00000000 		.word	.LANCHOR3
 175 00d4 00200140 		.word	1073815552
 176 00d8 00000000 		.word	.LANCHOR4
 177              	.LBE10:
 178              	.LBE12:
 179              	.LBE14:
 180              		.cfi_endproc
 181              	.LFE234:
 182              		.size	terminal_cmd_disconnect_virtual_motor, .-terminal_cmd_disconnect_virtual_motor
 183              		.section	.text.terminal_cmd_connect_virtual_motor,"ax",%progbits
 184              		.align	1
 185              		.p2align 4,,15
 186              		.syntax unified
 187              		.thumb
 188              		.thumb_func
 189              		.fpu fpv4-sp-d16
 190              		.type	terminal_cmd_connect_virtual_motor, %function
 191              	terminal_cmd_connect_virtual_motor:
 192              	.LFB233:
 193              		.loc 1 416 0
 194              		.cfi_startproc
 195              		@ args = 0, pretend = 0, frame = 40
 196              		@ frame_needed = 0, uses_anonymous_args = 0
 197              	.LVL12:
 198 0000 2DE9F041 		push	{r4, r5, r6, r7, r8, lr}
 199              		.cfi_def_cfa_offset 24
 200              		.cfi_offset 4, -24
 201              		.cfi_offset 5, -20
 202              		.cfi_offset 6, -16
 203              		.cfi_offset 7, -12
 204              		.cfi_offset 8, -8
 205              		.cfi_offset 14, -4
 206 0004 2DED028B 		vpush.64	{d8}
 207              		.cfi_def_cfa_offset 32
 208              		.cfi_offset 80, -32
 209              		.cfi_offset 81, -28
 210              		.loc 1 417 0
 211 0008 0428     		cmp	r0, #4
 212              		.loc 1 416 0
 213 000a 8AB0     		sub	sp, sp, #40
 214              		.cfi_def_cfa_offset 72
 215              		.loc 1 417 0
 216 000c 07D0     		beq	.L26
 217              		.loc 1 430 0
 218 000e 5248     		ldr	r0, .L27
 219              	.LVL13:
 220 0010 FFF7FEFF 		bl	commands_printf
 221              	.LVL14:
 222              		.loc 1 432 0
 223 0014 0AB0     		add	sp, sp, #40
 224              		.cfi_remember_state
 225              		.cfi_def_cfa_offset 32
 226              		@ sp needed
 227 0016 BDEC028B 		vldm	sp!, {d8}
 228              		.cfi_restore 80
ARM GAS  /tmp/ccYL2KmX.s 			page 5


 229              		.cfi_restore 81
 230              		.cfi_def_cfa_offset 24
 231 001a BDE8F081 		pop	{r4, r5, r6, r7, r8, pc}
 232              	.LVL15:
 233              	.L26:
 234              		.cfi_restore_state
 235 001e 0D46     		mov	r5, r1
 236              	.LVL16:
 237              	.LBB21:
 238              	.LBB22:
 239              		.loc 1 422 0
 240 0020 01AA     		add	r2, sp, #4
 241 0022 4E49     		ldr	r1, .L27+4
 242              	.LVL17:
 243 0024 6868     		ldr	r0, [r5, #4]
 244              	.LVL18:
 245              	.LBB23:
 246              	.LBB24:
 247              		.loc 1 180 0
 248 0026 4E4C     		ldr	r4, .L27+8
 249              	.LBE24:
 250              	.LBE23:
 251              		.loc 1 422 0
 252 0028 FFF7FEFF 		bl	sscanf
 253              	.LVL19:
 254              		.loc 1 423 0
 255 002c 02AA     		add	r2, sp, #8
 256 002e 4B49     		ldr	r1, .L27+4
 257 0030 A868     		ldr	r0, [r5, #8]
 258 0032 FFF7FEFF 		bl	sscanf
 259              	.LVL20:
 260              		.loc 1 424 0
 261 0036 03AA     		add	r2, sp, #12
 262 0038 E868     		ldr	r0, [r5, #12]
 263 003a 4849     		ldr	r1, .L27+4
 264 003c FFF7FEFF 		bl	sscanf
 265              	.LVL21:
 266              	.LBB30:
 267              	.LBB26:
 268              		.loc 1 180 0
 269 0040 94F83C20 		ldrb	r2, [r4, #60]	@ zero_extendqisi2
 270              	.LBE26:
 271              	.LBE30:
 272              		.loc 1 426 0
 273 0044 019F     		ldr	r7, [sp, #4]	@ float
 274 0046 DDF80880 		ldr	r8, [sp, #8]	@ float
 275 004a 9DED038A 		vldr.32	s16, [sp, #12]
 276              	.LVL22:
 277              	.LBB31:
 278              	.LBB27:
 279              		.loc 1 180 0
 280 004e 02F0FF06 		and	r6, r2, #255
 281 0052 002A     		cmp	r2, #0
 282 0054 3FD0     		beq	.L24
 283 0056 434D     		ldr	r5, .L27+12
 284              	.LVL23:
 285              	.L19:
ARM GAS  /tmp/ccYL2KmX.s 			page 6


 286              		.loc 1 229 0
 287 0058 DFED436A 		vldr.32	s13, .L27+16
 288 005c 9FED437A 		vldr.32	s14, .L27+20
 289              		.loc 1 227 0
 290 0060 0123     		movs	r3, #1
 291 0062 EB82     		strh	r3, [r5, #22]	@ movhi
 292              		.loc 1 229 0
 293 0064 EB8A     		ldrh	r3, [r5, #22]
 294 0066 07EE903A 		vmov	s15, r3	@ int
 295              	.LVL24:
 296 006a F8EE677A 		vcvt.f32.u32	s15, s15
 297 006e 67EEA67A 		vmul.f32	s15, s15, s13
 298 0072 67EE877A 		vmul.f32	s15, s15, s14
 299              		.loc 1 230 0
 300 0076 F5EE407A 		vcmp.f32	s15, #0
 301 007a F1EE10FA 		vmrs	APSR_nzcv, FPSCR
 302 007e 10D0     		beq	.L21
 303              		.loc 1 231 0
 304 0080 EB8A     		ldrh	r3, [r5, #22]
 305              	.LVL25:
 306 0082 07EE903A 		vmov	s15, r3	@ int
 307 0086 F8EE677A 		vcvt.f32.u32	s15, s15
 308 008a 67EEA67A 		vmul.f32	s15, s15, s13
 309 008e 67EE877A 		vmul.f32	s15, s15, s14
 310 0092 88EE277A 		vdiv.f32	s14, s16, s15
 311 0096 FCEEC77A 		vcvt.u32.f32	s15, s14
 312 009a 17EE903A 		vmov	r3, s15	@ int
 313 009e 9BB2     		uxth	r3, r3
 314 00a0 EB82     		strh	r3, [r5, #22]	@ movhi
 315              	.L21:
 316              		.loc 1 235 0
 317 00a2 BDEEC88A 		vcvt.s32.f32	s16, s16
 318              	.LVL26:
 319              		.loc 1 240 0
 320 00a6 0123     		movs	r3, #1
 321              		.loc 1 235 0
 322 00a8 84ED028A 		vstr.32	s16, [r4, #8]	@ int
 323              		.loc 1 236 0
 324 00ac C4F80480 		str	r8, [r4, #4]	@ float
 325              		.loc 1 237 0
 326 00b0 D4ED006A 		vldr.32	s13, [r4]
 327 00b4 94ED017A 		vldr.32	s14, [r4, #4]
 328              	.LBE27:
 329              	.LBE31:
 330              		.loc 1 427 0
 331 00b8 2D48     		ldr	r0, .L27+24
 332              	.LBB32:
 333              	.LBB28:
 334              		.loc 1 237 0
 335 00ba C6EE877A 		vdiv.f32	s15, s13, s14
 336 00be C4ED107A 		vstr.32	s15, [r4, #64]
 337              		.loc 1 238 0
 338 00c2 6764     		str	r7, [r4, #68]	@ float
 339              		.loc 1 240 0
 340 00c4 84F83C30 		strb	r3, [r4, #60]
 341              	.LVL27:
 342              	.LBE28:
ARM GAS  /tmp/ccYL2KmX.s 			page 7


 343              	.LBE32:
 344              		.loc 1 427 0
 345 00c8 FFF7FEFF 		bl	commands_printf
 346              	.LVL28:
 347              	.LBE22:
 348              	.LBE21:
 349              		.loc 1 432 0
 350 00cc 0AB0     		add	sp, sp, #40
 351              		.cfi_remember_state
 352              		.cfi_def_cfa_offset 32
 353              		@ sp needed
 354 00ce BDEC028B 		vldm	sp!, {d8}
 355              		.cfi_restore 80
 356              		.cfi_restore 81
 357              		.cfi_def_cfa_offset 24
 358 00d2 BDE8F081 		pop	{r4, r5, r6, r7, r8, pc}
 359              	.LVL29:
 360              	.L24:
 361              		.cfi_restore_state
 362              	.LBB35:
 363              	.LBB34:
 364              	.LBB33:
 365              	.LBB29:
 366              	.LBB25:
 367              		.loc 1 182 0
 368 00d6 9FED270A 		vldr.32	s0, .L27+28
 369              		.loc 1 205 0
 370 00da 224D     		ldr	r5, .L27+12
 371              	.LVL30:
 372              		.loc 1 182 0
 373 00dc FFF7FEFF 		bl	mcpwm_foc_set_current
 374              	.LVL31:
 375              		.loc 1 187 0
 376 00e0 0122     		movs	r2, #1
 377              		.loc 1 192 0
 378 00e2 0623     		movs	r3, #6
 379              		.loc 1 194 0
 380 00e4 04A9     		add	r1, sp, #16
 381 00e6 2448     		ldr	r0, .L27+32
 382              		.loc 1 187 0
 383 00e8 8DF81420 		strb	r2, [sp, #20]
 384              		.loc 1 192 0
 385 00ec 8DF82430 		strb	r3, [sp, #36]
 386              		.loc 1 186 0
 387 00f0 0496     		str	r6, [sp, #16]
 388              		.loc 1 188 0
 389 00f2 8DF81560 		strb	r6, [sp, #21]
 390              		.loc 1 190 0
 391 00f6 CDE90666 		strd	r6, r6, [sp, #24]
 392              		.loc 1 191 0
 393 00fa 0896     		str	r6, [sp, #32]
 394              		.loc 1 194 0
 395 00fc FFF7FEFF 		bl	ADC_Init
 396              	.LVL32:
 397              		.loc 1 197 0
 398 0100 1E4A     		ldr	r2, .L27+36
 399 0102 1F49     		ldr	r1, .L27+40
ARM GAS  /tmp/ccYL2KmX.s 			page 8


 400 0104 1F48     		ldr	r0, .L27+44
 401 0106 3346     		mov	r3, r6
 402 0108 FFF7FEFF 		bl	mcpwm_foc_get_current_offsets
 403              	.LVL33:
 404              		.loc 1 202 0
 405 010c 9FED1E1A 		vldr.32	s2, .L27+48
 406 0110 F0EE410A 		vmov.f32	s1, s2
 407 0114 B0EE410A 		vmov.f32	s0, s2
 408 0118 FFF7FEFF 		bl	mcpwm_foc_set_current_offsets
 409              	.LVL34:
 410              		.loc 1 205 0
 411 011c 4FF40063 		mov	r3, #2048
 412 0120 2B82     		strh	r3, [r5, #16]	@ movhi
 413              		.loc 1 206 0
 414 0122 6B82     		strh	r3, [r5, #18]	@ movhi
 415              		.loc 1 217 0
 416 0124 FFF7FEFF 		bl	mcpwm_foc_get_phase
 417              	.LVL35:
 418 0128 DFED187A 		vldr.32	s15, .L27+52
 419 012c 20EE270A 		vmul.f32	s0, s0, s15
 420              		.loc 1 218 0
 421 0130 04F13801 		add	r1, r4, #56
 422              		.loc 1 217 0
 423 0134 84ED0C0A 		vstr.32	s0, [r4, #48]
 424              		.loc 1 218 0
 425 0138 94ED0C0A 		vldr.32	s0, [r4, #48]
 426 013c 04F13400 		add	r0, r4, #52
 427 0140 FFF7FEFF 		bl	utils_fast_sincos_better
 428              	.LVL36:
 429              		.loc 1 221 0
 430 0144 124B     		ldr	r3, .L27+56
 431 0146 1B68     		ldr	r3, [r3]
 432 0148 93F82C31 		ldrb	r3, [r3, #300]	@ zero_extendqisi2
 433 014c 012B     		cmp	r3, #1
 434 014e 83D1     		bne	.L19
 435              		.loc 1 222 0
 436 0150 FFF7FEFF 		bl	encoder_deinit
 437              	.LVL37:
 438 0154 80E7     		b	.L19
 439              	.L28:
 440 0156 00BF     		.align	2
 441              	.L27:
 442 0158 1C000000 		.word	.LC4
 443 015c 00000000 		.word	.LC2
 444 0160 00000000 		.word	.LANCHOR0
 445 0164 00000000 		.word	ADC_Value
 446 0168 6740533A 		.word	978534503
 447 016c ABAA5E42 		.word	1113500331
 448 0170 04000000 		.word	.LC3
 449 0174 00000000 		.word	0
 450 0178 00200140 		.word	1073815552
 451 017c 00000000 		.word	.LANCHOR3
 452 0180 00000000 		.word	.LANCHOR2
 453 0184 00000000 		.word	.LANCHOR1
 454 0188 00000045 		.word	1157627904
 455 018c 35FA8E3C 		.word	1016003125
 456 0190 00000000 		.word	.LANCHOR4
ARM GAS  /tmp/ccYL2KmX.s 			page 9


 457              	.LBE25:
 458              	.LBE29:
 459              	.LBE33:
 460              	.LBE34:
 461              	.LBE35:
 462              		.cfi_endproc
 463              	.LFE233:
 464              		.size	terminal_cmd_connect_virtual_motor, .-terminal_cmd_connect_virtual_motor
 465              		.section	.text.virtual_motor_set_configuration,"ax",%progbits
 466              		.align	1
 467              		.p2align 4,,15
 468              		.global	virtual_motor_set_configuration
 469              		.syntax unified
 470              		.thumb
 471              		.thumb_func
 472              		.fpu fpv4-sp-d16
 473              		.type	virtual_motor_set_configuration, %function
 474              	virtual_motor_set_configuration:
 475              	.LFB223:
 476              		.loc 1 122 0
 477              		.cfi_startproc
 478              		@ args = 0, pretend = 0, frame = 0
 479              		@ frame_needed = 0, uses_anonymous_args = 0
 480              		@ link register save eliminated.
 481              	.LVL38:
 482              		.loc 1 126 0
 483 0000 90F85422 		ldrb	r2, [r0, #596]	@ zero_extendqisi2
 484 0004 1B4B     		ldr	r3, .L35
 485              		.loc 1 123 0
 486 0006 1C49     		ldr	r1, .L35+4
 487              		.loc 1 126 0
 488 0008 5208     		lsrs	r2, r2, #1
 489 000a DA60     		str	r2, [r3, #12]
 490              		.loc 1 127 0
 491 000c D3ED037A 		vldr.32	s15, [r3, #12]	@ int
 492              		.loc 1 123 0
 493 0010 0860     		str	r0, [r1]
 494              		.loc 1 127 0
 495 0012 F8EEE77A 		vcvt.f32.s32	s15, s15
 496 0016 B7EE087A 		vmov.f32	s14, #1.5e+0
 497 001a 67EE877A 		vmul.f32	s15, s15, s14
 498              		.loc 1 135 0
 499 001e F7EE006A 		vmov.f32	s13, #1.0e+0
 500              		.loc 1 127 0
 501 0022 C3ED047A 		vstr.32	s15, [r3, #16]
 502              		.loc 1 135 0
 503 0026 90ED2E7A 		vldr.32	s14, [r0, #184]
 504 002a C6EE877A 		vdiv.f32	s15, s13, s14
 505 002e C3ED007A 		vstr.32	s15, [r3]
 506              		.loc 1 138 0
 507 0032 D0ED397A 		vldr.32	s15, [r0, #228]
 508 0036 F5EEC07A 		vcmpe.f32	s15, #0
 509 003a F1EE10FA 		vmrs	APSR_nzcv, FPSCR
 510 003e 12DD     		ble	.L34
 511              		.loc 1 139 0
 512 0040 D0ED387A 		vldr.32	s15, [r0, #224]
 513 0044 D0ED396A 		vldr.32	s13, [r0, #228]
ARM GAS  /tmp/ccYL2KmX.s 			page 10


 514 0048 B6EE007A 		vmov.f32	s14, #5.0e-1
 515 004c E6EE877A 		vfma.f32	s15, s13, s14
 516 0050 C3ED067A 		vstr.32	s15, [r3, #24]
 517              		.loc 1 140 0
 518 0054 D0ED387A 		vldr.32	s15, [r0, #224]
 519 0058 D0ED396A 		vldr.32	s13, [r0, #228]
 520 005c E6EEC77A 		vfms.f32	s15, s13, s14
 521 0060 C3ED057A 		vstr.32	s15, [r3, #20]
 522 0064 7047     		bx	lr
 523              	.L34:
 524              	.LVL39:
 525              	.LBB38:
 526              	.LBB39:
 527              		.loc 1 142 0
 528 0066 D0F8E020 		ldr	r2, [r0, #224]	@ float
 529 006a 9A61     		str	r2, [r3, #24]	@ float
 530              		.loc 1 143 0
 531 006c D0F8E020 		ldr	r2, [r0, #224]	@ float
 532 0070 5A61     		str	r2, [r3, #20]	@ float
 533              	.LBE39:
 534              	.LBE38:
 535              		.loc 1 145 0
 536 0072 7047     		bx	lr
 537              	.L36:
 538              		.align	2
 539              	.L35:
 540 0074 00000000 		.word	.LANCHOR0
 541 0078 00000000 		.word	.LANCHOR4
 542              		.cfi_endproc
 543              	.LFE223:
 544              		.size	virtual_motor_set_configuration, .-virtual_motor_set_configuration
 545              		.section	.text.virtual_motor_init,"ax",%progbits
 546              		.align	1
 547              		.p2align 4,,15
 548              		.global	virtual_motor_init
 549              		.syntax unified
 550              		.thumb
 551              		.thumb_func
 552              		.fpu fpv4-sp-d16
 553              		.type	virtual_motor_init, %function
 554              	virtual_motor_init:
 555              	.LFB222:
 556              		.loc 1 86 0
 557              		.cfi_startproc
 558              		@ args = 0, pretend = 0, frame = 0
 559              		@ frame_needed = 0, uses_anonymous_args = 0
 560              	.LVL40:
 561 0000 70B5     		push	{r4, r5, r6, lr}
 562              		.cfi_def_cfa_offset 16
 563              		.cfi_offset 4, -16
 564              		.cfi_offset 5, -12
 565              		.cfi_offset 6, -8
 566              		.cfi_offset 14, -4
 567              		.loc 1 91 0
 568 0002 114C     		ldr	r4, .L39
 569              		.loc 1 88 0
 570 0004 FFF7FEFF 		bl	virtual_motor_set_configuration
ARM GAS  /tmp/ccYL2KmX.s 			page 11


 571              	.LVL41:
 572              		.loc 1 93 0
 573 0008 0025     		movs	r5, #0
 574              		.loc 1 91 0
 575 000a 0026     		movs	r6, #0
 576              		.loc 1 109 0
 577 000c 0F4B     		ldr	r3, .L39+4
 578 000e 104A     		ldr	r2, .L39+8
 579 0010 1049     		ldr	r1, .L39+12
 580 0012 1148     		ldr	r0, .L39+16
 581              	.LVL42:
 582              		.loc 1 91 0
 583 0014 84F83C60 		strb	r6, [r4, #60]
 584              		.loc 1 93 0
 585 0018 A562     		str	r5, [r4, #40]	@ float
 586              		.loc 1 94 0
 587 001a 2565     		str	r5, [r4, #80]	@ float
 588              		.loc 1 95 0
 589 001c 6565     		str	r5, [r4, #84]	@ float
 590              		.loc 1 96 0
 591 001e A565     		str	r5, [r4, #88]	@ float
 592              		.loc 1 97 0
 593 0020 E566     		str	r5, [r4, #108]	@ float
 594              		.loc 1 98 0
 595 0022 2567     		str	r5, [r4, #112]	@ float
 596              		.loc 1 99 0
 597 0024 6567     		str	r5, [r4, #116]	@ float
 598              		.loc 1 100 0
 599 0026 E562     		str	r5, [r4, #44]	@ float
 600              		.loc 1 101 0
 601 0028 A564     		str	r5, [r4, #72]	@ float
 602              		.loc 1 102 0
 603 002a E564     		str	r5, [r4, #76]	@ float
 604              		.loc 1 103 0
 605 002c 6566     		str	r5, [r4, #100]	@ float
 606              		.loc 1 104 0
 607 002e A566     		str	r5, [r4, #104]	@ float
 608              		.loc 1 105 0
 609 0030 2562     		str	r5, [r4, #32]	@ float
 610              		.loc 1 106 0
 611 0032 6562     		str	r5, [r4, #36]	@ float
 612              		.loc 1 109 0
 613 0034 FFF7FEFF 		bl	terminal_register_command_callback
 614              	.LVL43:
 615              		.loc 1 115 0
 616 0038 3246     		mov	r2, r6
 617 003a 084B     		ldr	r3, .L39+20
 618 003c 0849     		ldr	r1, .L39+24
 619 003e 0948     		ldr	r0, .L39+28
 620              		.loc 1 120 0
 621 0040 BDE87040 		pop	{r4, r5, r6, lr}
 622              		.cfi_restore 14
 623              		.cfi_restore 6
 624              		.cfi_restore 5
 625              		.cfi_restore 4
 626              		.cfi_def_cfa_offset 0
 627              		.loc 1 115 0
ARM GAS  /tmp/ccYL2KmX.s 			page 12


 628 0044 FFF7FEBF 		b	terminal_register_command_callback
 629              	.LVL44:
 630              	.L40:
 631              		.align	2
 632              	.L39:
 633 0048 00000000 		.word	.LANCHOR0
 634 004c 00000000 		.word	terminal_cmd_connect_virtual_motor
 635 0050 00000000 		.word	.LC5
 636 0054 10000000 		.word	.LC6
 637 0058 28000000 		.word	.LC7
 638 005c 00000000 		.word	terminal_cmd_disconnect_virtual_motor
 639 0060 40000000 		.word	.LC8
 640 0064 5C000000 		.word	.LC9
 641              		.cfi_endproc
 642              	.LFE222:
 643              		.size	virtual_motor_init, .-virtual_motor_init
 644              		.section	.text.virtual_motor_int_handler,"ax",%progbits
 645              		.align	1
 646              		.p2align 4,,15
 647              		.global	virtual_motor_int_handler
 648              		.syntax unified
 649              		.thumb
 650              		.thumb_func
 651              		.fpu fpv4-sp-d16
 652              		.type	virtual_motor_int_handler, %function
 653              	virtual_motor_int_handler:
 654              	.LFB224:
 655              		.loc 1 150 0
 656              		.cfi_startproc
 657              		@ args = 0, pretend = 0, frame = 0
 658              		@ frame_needed = 0, uses_anonymous_args = 0
 659              	.LVL45:
 660 0000 38B5     		push	{r3, r4, r5, lr}
 661              		.cfi_def_cfa_offset 16
 662              		.cfi_offset 3, -16
 663              		.cfi_offset 4, -12
 664              		.cfi_offset 5, -8
 665              		.cfi_offset 14, -4
 666              		.loc 1 151 0
 667 0002 D94C     		ldr	r4, .L53
 668 0004 94F83C30 		ldrb	r3, [r4, #60]	@ zero_extendqisi2
 669              		.loc 1 150 0
 670 0008 2DED028B 		vpush.64	{d8}
 671              		.cfi_def_cfa_offset 24
 672              		.cfi_offset 80, -24
 673              		.cfi_offset 81, -20
 674              		.loc 1 151 0
 675 000c 13B9     		cbnz	r3, .L52
 676              		.loc 1 155 0
 677 000e BDEC028B 		vldm	sp!, {d8}
 678              		.cfi_remember_state
 679              		.cfi_restore 80
 680              		.cfi_restore 81
 681              		.cfi_def_cfa_offset 16
 682 0012 38BD     		pop	{r3, r4, r5, pc}
 683              	.L52:
 684              		.cfi_restore_state
ARM GAS  /tmp/ccYL2KmX.s 			page 13


 685              		.loc 1 152 0
 686 0014 94ED118A 		vldr.32	s16, [r4, #68]
 687              	.LBB48:
 688              	.LBB49:
 689              	.LBB50:
 690              		.loc 1 325 0
 691 0018 D4ED0E6A 		vldr.32	s13, [r4, #56]
 692 001c 94ED0D7A 		vldr.32	s14, [r4, #52]
 693              		.loc 1 333 0
 694 0020 D24D     		ldr	r5, .L53+4
 695              		.loc 1 325 0
 696 0022 20EE877A 		vmul.f32	s14, s1, s14
 697 0026 F0EE407A 		vmov.f32	s15, s0
 698              	.LVL46:
 699 002a A7EEA67A 		vfma.f32	s14, s15, s13
 700              		.loc 1 333 0
 701 002e 2B68     		ldr	r3, [r5]
 702              		.loc 1 338 0
 703 0030 2046     		mov	r0, r4
 704              		.loc 1 325 0
 705 0032 84ED177A 		vstr.32	s14, [r4, #92]
 706              		.loc 1 326 0
 707 0036 D4ED0E6A 		vldr.32	s13, [r4, #56]
 708 003a 94ED0D7A 		vldr.32	s14, [r4, #52]
 709              		.loc 1 346 0
 710 003e 9FEDCC0A 		vldr.32	s0, .L53+8
 711              	.LVL47:
 712              		.loc 1 326 0
 713 0042 67EE677A 		vnmul.f32	s15, s14, s15
 714              	.LVL48:
 715 0046 E0EEA67A 		vfma.f32	s15, s1, s13
 716 004a C4ED187A 		vstr.32	s15, [r4, #96]
 717              		.loc 1 329 0
 718 004e D4ED177A 		vldr.32	s15, [r4, #92]
 719              		.loc 1 330 0
 720 0052 94ED0B3A 		vldr.32	s6, [r4, #44]
 721              		.loc 1 331 0
 722 0056 94ED037A 		vldr.32	s14, [r4, #12]	@ int
 723              		.loc 1 332 0
 724 005a D4ED063A 		vldr.32	s7, [r4, #24]
 725 005e 94ED094A 		vldr.32	s8, [r4, #36]
 726              		.loc 1 333 0
 727 0062 D3ED3A4A 		vldr.32	s9, [r3, #232]
 728 0066 94ED075A 		vldr.32	s10, [r4, #28]
 729              		.loc 1 334 0
 730 006a D4ED005A 		vldr.32	s11, [r4]
 731 006e 94ED056A 		vldr.32	s12, [r4, #20]
 732              		.loc 1 329 0
 733 0072 D4ED086A 		vldr.32	s13, [r4, #32]
 734              		.loc 1 330 0
 735 0076 B8EEC77A 		vcvt.f32.s32	s14, s14
 736 007a 27EE037A 		vmul.f32	s14, s14, s6
 737              		.loc 1 331 0
 738 007e 27EE237A 		vmul.f32	s14, s14, s7
 739              		.loc 1 329 0
 740 0082 E7EE047A 		vfma.f32	s15, s14, s8
 741              		.loc 1 332 0
ARM GAS  /tmp/ccYL2KmX.s 			page 14


 742 0086 E4EEC57A 		vfms.f32	s15, s9, s10
 743              		.loc 1 334 0
 744 008a 67EEA57A 		vmul.f32	s15, s15, s11
 745 008e 87EE867A 		vdiv.f32	s14, s15, s12
 746              		.loc 1 329 0
 747 0092 77EE267A 		vadd.f32	s15, s14, s13
 748 0096 C4ED087A 		vstr.32	s15, [r4, #32]
 749              		.loc 1 335 0
 750 009a D4ED087A 		vldr.32	s15, [r4, #32]
 751 009e 93ED3B6A 		vldr.32	s12, [r3, #236]
 752 00a2 D4ED056A 		vldr.32	s13, [r4, #20]
 753 00a6 86EE267A 		vdiv.f32	s14, s12, s13
 754 00aa 77EEC77A 		vsub.f32	s15, s15, s14
 755 00ae C4ED077A 		vstr.32	s15, [r4, #28]
 756              		.loc 1 338 0
 757 00b2 D4ED187A 		vldr.32	s15, [r4, #96]
 758              		.loc 1 339 0
 759 00b6 94ED0B6A 		vldr.32	s12, [r4, #44]
 760              		.loc 1 340 0
 761 00ba D4ED036A 		vldr.32	s13, [r4, #12]	@ int
 762              		.loc 1 341 0
 763 00be D4ED052A 		vldr.32	s5, [r4, #20]
 764 00c2 94ED073A 		vldr.32	s6, [r4, #28]
 765 00c6 93ED3B7A 		vldr.32	s14, [r3, #236]
 766              		.loc 1 342 0
 767 00ca D3ED3A3A 		vldr.32	s7, [r3, #232]
 768 00ce 94ED094A 		vldr.32	s8, [r4, #36]
 769              		.loc 1 343 0
 770 00d2 D4ED004A 		vldr.32	s9, [r4]
 771 00d6 94ED065A 		vldr.32	s10, [r4, #24]
 772              		.loc 1 338 0
 773 00da D4ED095A 		vldr.32	s11, [r4, #36]
 774              		.loc 1 341 0
 775 00de A2EE837A 		vfma.f32	s14, s5, s6
 776              		.loc 1 339 0
 777 00e2 F8EEE66A 		vcvt.f32.s32	s13, s13
 778              		.loc 1 338 0
 779 00e6 66EE666A 		vnmul.f32	s13, s12, s13
 780 00ea E6EE877A 		vfma.f32	s15, s13, s14
 781              		.loc 1 341 0
 782 00ee E3EEC47A 		vfms.f32	s15, s7, s8
 783              		.loc 1 343 0
 784 00f2 67EEA47A 		vmul.f32	s15, s15, s9
 785 00f6 87EE857A 		vdiv.f32	s14, s15, s10
 786              		.loc 1 338 0
 787 00fa 77EE257A 		vadd.f32	s15, s14, s11
 788 00fe 17EE903A 		vmov	r3, s15
 789 0102 40F8243F 		str	r3, [r0, #36]!	@ float
 790              		.loc 1 346 0
 791 0106 FFF7FEFF 		bl	utils_truncate_number_abs
 792              	.LVL49:
 793              		.loc 1 347 0
 794 010a 9FED990A 		vldr.32	s0, .L53+8
 795 010e 04F11C00 		add	r0, r4, #28
 796 0112 FFF7FEFF 		bl	utils_truncate_number_abs
 797              	.LVL50:
 798              	.LBE50:
ARM GAS  /tmp/ccYL2KmX.s 			page 15


 799              	.LBE49:
 800              	.LBB51:
 801              	.LBB52:
 802              		.loc 1 355 0
 803 0116 2B68     		ldr	r3, [r5]
 804 0118 D4ED045A 		vldr.32	s11, [r4, #16]
 805 011c D3ED3B7A 		vldr.32	s15, [r3, #236]
 806              		.loc 1 356 0
 807 0120 94ED056A 		vldr.32	s12, [r4, #20]
 808 0124 D4ED064A 		vldr.32	s9, [r4, #24]
 809              		.loc 1 357 0
 810 0128 94ED075A 		vldr.32	s10, [r4, #28]
 811 012c D4ED096A 		vldr.32	s13, [r4, #36]
 812              		.loc 1 365 0
 813 0130 9FED907A 		vldr.32	s14, .L53+12
 814              		.loc 1 356 0
 815 0134 36EE646A 		vsub.f32	s12, s12, s9
 816              		.loc 1 355 0
 817 0138 E6EE057A 		vfma.f32	s15, s12, s10
 818 013c 67EEA57A 		vmul.f32	s15, s15, s11
 819              		.loc 1 357 0
 820 0140 67EEA67A 		vmul.f32	s15, s15, s13
 821              		.loc 1 355 0
 822 0144 C4ED0A7A 		vstr.32	s15, [r4, #40]
 823              		.loc 1 359 0
 824 0148 94ED106A 		vldr.32	s12, [r4, #64]
 825 014c D4ED0A6A 		vldr.32	s13, [r4, #40]
 826 0150 D4ED0B7A 		vldr.32	s15, [r4, #44]
 827 0154 76EEC86A 		vsub.f32	s13, s13, s16
 828 0158 E6EE267A 		vfma.f32	s15, s12, s13
 829 015c C4ED0B7A 		vstr.32	s15, [r4, #44]
 830              		.loc 1 362 0
 831 0160 94ED0B6A 		vldr.32	s12, [r4, #44]
 832 0164 D4ED006A 		vldr.32	s13, [r4]
 833 0168 D4ED0C7A 		vldr.32	s15, [r4, #48]
 834 016c E6EE267A 		vfma.f32	s15, s12, s13
 835 0170 C4ED0C7A 		vstr.32	s15, [r4, #48]
 836              		.loc 1 365 0
 837 0174 D4ED0C7A 		vldr.32	s15, [r4, #48]
 838 0178 F4EEC77A 		vcmpe.f32	s15, s14
 839 017c F1EE10FA 		vmrs	APSR_nzcv, FPSCR
 840 0180 0EDD     		ble	.L43
 841              		.loc 1 366 0
 842 0182 DFED7D6A 		vldr.32	s13, .L53+16
 843              	.L45:
 844 0186 D4ED0C7A 		vldr.32	s15, [r4, #48]
 845 018a 77EEE67A 		vsub.f32	s15, s15, s13
 846 018e C4ED0C7A 		vstr.32	s15, [r4, #48]
 847              		.loc 1 365 0
 848 0192 D4ED0C7A 		vldr.32	s15, [r4, #48]
 849 0196 F4EEC77A 		vcmpe.f32	s15, s14
 850 019a F1EE10FA 		vmrs	APSR_nzcv, FPSCR
 851 019e F2DC     		bgt	.L45
 852              	.L43:
 853              		.loc 1 369 0
 854 01a0 D4ED0C7A 		vldr.32	s15, [r4, #48]
 855 01a4 9FED757A 		vldr.32	s14, .L53+20
ARM GAS  /tmp/ccYL2KmX.s 			page 16


 856 01a8 F4EEC77A 		vcmpe.f32	s15, s14
 857 01ac F1EE10FA 		vmrs	APSR_nzcv, FPSCR
 858 01b0 0ED5     		bpl	.L46
 859              		.loc 1 370 0
 860 01b2 DFED716A 		vldr.32	s13, .L53+16
 861              	.L48:
 862 01b6 D4ED0C7A 		vldr.32	s15, [r4, #48]
 863 01ba 77EEA67A 		vadd.f32	s15, s15, s13
 864 01be C4ED0C7A 		vstr.32	s15, [r4, #48]
 865              		.loc 1 369 0
 866 01c2 D4ED0C7A 		vldr.32	s15, [r4, #48]
 867 01c6 F4EEC77A 		vcmpe.f32	s15, s14
 868 01ca F1EE10FA 		vmrs	APSR_nzcv, FPSCR
 869 01ce F2D4     		bmi	.L48
 870              	.L46:
 871              	.LVL51:
 872              	.LBE52:
 873              	.LBE51:
 874              	.LBB53:
 875              	.LBB54:
 876              		.loc 1 378 0
 877 01d0 6B49     		ldr	r1, .L53+24
 878 01d2 94ED0C0A 		vldr.32	s0, [r4, #48]
 879 01d6 081F     		subs	r0, r1, #4
 880 01d8 FFF7FEFF 		bl	utils_fast_sincos_better
 881              	.LVL52:
 882              		.loc 1 382 0
 883 01dc D4ED0E3A 		vldr.32	s7, [r4, #56]
 884 01e0 94ED074A 		vldr.32	s8, [r4, #28]
 885              		.loc 1 383 0
 886 01e4 D4ED0D4A 		vldr.32	s9, [r4, #52]
 887 01e8 D4ED096A 		vldr.32	s13, [r4, #36]
 888              		.loc 1 394 0
 889 01ec 9FED657A 		vldr.32	s14, .L53+28
 890              		.loc 1 402 0
 891 01f0 9FED655A 		vldr.32	s10, .L53+32
 892 01f4 DFED657A 		vldr.32	s15, .L53+36
 893 01f8 654A     		ldr	r2, .L53+40
 894              		.loc 1 408 0
 895 01fa DFED665A 		vldr.32	s11, .L53+44
 896 01fe 9FED666A 		vldr.32	s12, .L53+48
 897              		.loc 1 382 0
 898 0202 66EEE46A 		vnmul.f32	s13, s13, s9
 899              		.loc 1 394 0
 900 0206 FEEE004A 		vmov.f32	s9, #-5.0e-1
 901              		.loc 1 382 0
 902 020a E3EE846A 		vfma.f32	s13, s7, s8
 903              	.LBE54:
 904              	.LBE53:
 905              	.LBE48:
 906              		.loc 1 153 0
 907 020e 0021     		movs	r1, #0
 908 0210 0846     		mov	r0, r1
 909              	.LBB59:
 910              	.LBB57:
 911              	.LBB55:
 912              		.loc 1 382 0
ARM GAS  /tmp/ccYL2KmX.s 			page 17


 913 0212 C4ED196A 		vstr.32	s13, [r4, #100]
 914              		.loc 1 384 0
 915 0216 D4ED0E3A 		vldr.32	s7, [r4, #56]
 916 021a 94ED094A 		vldr.32	s8, [r4, #36]
 917              		.loc 1 385 0
 918 021e D4ED0D6A 		vldr.32	s13, [r4, #52]
 919 0222 94ED073A 		vldr.32	s6, [r4, #28]
 920 0226 66EE836A 		vmul.f32	s13, s13, s6
 921              		.loc 1 384 0
 922 022a E3EE846A 		vfma.f32	s13, s7, s8
 923 022e C4ED1A6A 		vstr.32	s13, [r4, #104]
 924              		.loc 1 387 0
 925 0232 D4ED0E3A 		vldr.32	s7, [r4, #56]
 926 0236 94ED174A 		vldr.32	s8, [r4, #92]
 927              		.loc 1 388 0
 928 023a 94ED0D3A 		vldr.32	s6, [r4, #52]
 929 023e D4ED186A 		vldr.32	s13, [r4, #96]
 930              		.loc 1 387 0
 931 0242 66EEC36A 		vnmul.f32	s13, s13, s6
 932 0246 E3EE846A 		vfma.f32	s13, s7, s8
 933 024a C4ED126A 		vstr.32	s13, [r4, #72]
 934              		.loc 1 389 0
 935 024e D4ED0E3A 		vldr.32	s7, [r4, #56]
 936 0252 94ED184A 		vldr.32	s8, [r4, #96]
 937              		.loc 1 390 0
 938 0256 D4ED0D6A 		vldr.32	s13, [r4, #52]
 939 025a 94ED173A 		vldr.32	s6, [r4, #92]
 940 025e 66EE836A 		vmul.f32	s13, s13, s6
 941              		.loc 1 389 0
 942 0262 E3EE846A 		vfma.f32	s13, s7, s8
 943 0266 C4ED136A 		vstr.32	s13, [r4, #76]
 944              		.loc 1 393 0
 945 026a 636E     		ldr	r3, [r4, #100]	@ float
 946 026c E366     		str	r3, [r4, #108]	@ float
 947              		.loc 1 394 0
 948 026e 94ED194A 		vldr.32	s8, [r4, #100]
 949 0272 D4ED1A6A 		vldr.32	s13, [r4, #104]
 950 0276 66EE876A 		vmul.f32	s13, s13, s14
 951 027a E4EE246A 		vfma.f32	s13, s8, s9
 952 027e C4ED1C6A 		vstr.32	s13, [r4, #112]
 953              		.loc 1 395 0
 954 0282 94ED194A 		vldr.32	s8, [r4, #100]
 955 0286 D4ED1A6A 		vldr.32	s13, [r4, #104]
 956 028a 67EE666A 		vnmul.f32	s13, s14, s13
 957 028e E4EE246A 		vfma.f32	s13, s8, s9
 958 0292 C4ED1D6A 		vstr.32	s13, [r4, #116]
 959              		.loc 1 397 0
 960 0296 A36C     		ldr	r3, [r4, #72]	@ float
 961 0298 2365     		str	r3, [r4, #80]	@ float
 962              		.loc 1 398 0
 963 029a 94ED124A 		vldr.32	s8, [r4, #72]
 964 029e D4ED136A 		vldr.32	s13, [r4, #76]
 965 02a2 66EE876A 		vmul.f32	s13, s13, s14
 966 02a6 E4EE246A 		vfma.f32	s13, s8, s9
 967 02aa C4ED156A 		vstr.32	s13, [r4, #84]
 968              		.loc 1 399 0
 969 02ae D4ED126A 		vldr.32	s13, [r4, #72]
ARM GAS  /tmp/ccYL2KmX.s 			page 18


 970 02b2 94ED134A 		vldr.32	s8, [r4, #76]
 971 02b6 27EE447A 		vnmul.f32	s14, s14, s8
 972              	.LBE55:
 973              	.LBE57:
 974              	.LBE59:
 975              		.loc 1 155 0
 976 02ba BDEC028B 		vldm	sp!, {d8}
 977              		.cfi_restore 80
 978              		.cfi_restore 81
 979              		.cfi_def_cfa_offset 16
 980              	.LVL53:
 981              	.LBB60:
 982              	.LBB58:
 983              	.LBB56:
 984              		.loc 1 399 0
 985 02be A6EEA47A 		vfma.f32	s14, s13, s9
 986 02c2 84ED167A 		vstr.32	s14, [r4, #88]
 987              		.loc 1 402 0
 988 02c6 D4ED1B6A 		vldr.32	s13, [r4, #108]
 989 02ca 86EE857A 		vdiv.f32	s14, s13, s10
 990 02ce 37EE277A 		vadd.f32	s14, s14, s15
 991 02d2 BCEEC77A 		vcvt.u32.f32	s14, s14
 992 02d6 17EE103A 		vmov	r3, s14	@ int
 993 02da 9BB2     		uxth	r3, r3
 994 02dc D380     		strh	r3, [r2, #6]	@ movhi
 995              		.loc 1 403 0
 996 02de D4ED1C6A 		vldr.32	s13, [r4, #112]
 997 02e2 86EE857A 		vdiv.f32	s14, s13, s10
 998 02e6 37EE277A 		vadd.f32	s14, s14, s15
 999 02ea BCEEC77A 		vcvt.u32.f32	s14, s14
 1000 02ee 17EE103A 		vmov	r3, s14	@ int
 1001 02f2 9BB2     		uxth	r3, r3
 1002 02f4 1381     		strh	r3, [r2, #8]	@ movhi
 1003              		.loc 1 405 0
 1004 02f6 D4ED1D6A 		vldr.32	s13, [r4, #116]
 1005 02fa 86EE857A 		vdiv.f32	s14, s13, s10
 1006              		.loc 1 408 0
 1007 02fe F0EE676A 		vmov.f32	s13, s15
 1008              		.loc 1 405 0
 1009 0302 37EE277A 		vadd.f32	s14, s14, s15
 1010 0306 BCEEC77A 		vcvt.u32.f32	s14, s14
 1011 030a 17EE103A 		vmov	r3, s14	@ int
 1012 030e 9BB2     		uxth	r3, r3
 1013 0310 5381     		strh	r3, [r2, #10]	@ movhi
 1014              		.loc 1 408 0
 1015 0312 94ED147A 		vldr.32	s14, [r4, #80]
 1016 0316 27EE257A 		vmul.f32	s14, s14, s11
 1017 031a E7EE066A 		vfma.f32	s13, s14, s12
 1018 031e BCEEE67A 		vcvt.u32.f32	s14, s13
 1019              		.loc 1 409 0
 1020 0322 F0EE676A 		vmov.f32	s13, s15
 1021              		.loc 1 408 0
 1022 0326 17EE103A 		vmov	r3, s14	@ int
 1023 032a 9BB2     		uxth	r3, r3
 1024 032c 1380     		strh	r3, [r2]	@ movhi
 1025              		.loc 1 409 0
 1026 032e 94ED157A 		vldr.32	s14, [r4, #84]
ARM GAS  /tmp/ccYL2KmX.s 			page 19


 1027 0332 27EE257A 		vmul.f32	s14, s14, s11
 1028 0336 E7EE066A 		vfma.f32	s13, s14, s12
 1029 033a BCEEE67A 		vcvt.u32.f32	s14, s13
 1030 033e 17EE103A 		vmov	r3, s14	@ int
 1031 0342 9BB2     		uxth	r3, r3
 1032 0344 5380     		strh	r3, [r2, #2]	@ movhi
 1033              		.loc 1 410 0
 1034 0346 94ED167A 		vldr.32	s14, [r4, #88]
 1035 034a 67EE255A 		vmul.f32	s11, s14, s11
 1036 034e E5EE867A 		vfma.f32	s15, s11, s12
 1037 0352 FCEEE77A 		vcvt.u32.f32	s15, s15
 1038 0356 17EE903A 		vmov	r3, s15	@ int
 1039 035a 9BB2     		uxth	r3, r3
 1040 035c 9380     		strh	r3, [r2, #4]	@ movhi
 1041              	.LVL54:
 1042              	.LBE56:
 1043              	.LBE58:
 1044              	.LBE60:
 1045              		.loc 1 155 0
 1046 035e BDE83840 		pop	{r3, r4, r5, lr}
 1047              		.cfi_restore 14
 1048              		.cfi_restore 5
 1049              		.cfi_restore 4
 1050              		.cfi_restore 3
 1051              		.cfi_def_cfa_offset 0
 1052              		.loc 1 153 0
 1053 0362 FFF7FEBF 		b	mcpwm_foc_adc_int_handler
 1054              	.LVL55:
 1055              	.L54:
 1056 0366 00BF     		.align	2
 1057              	.L53:
 1058 0368 00000000 		.word	.LANCHOR0
 1059 036c 00000000 		.word	.LANCHOR4
 1060 0370 40088444 		.word	1149503552
 1061 0374 DB0F4940 		.word	1078530011
 1062 0378 DB0FC940 		.word	1086918619
 1063 037c DB0F49C0 		.word	3226013659
 1064 0380 38000000 		.word	.LANCHOR0+56
 1065 0384 D7B35D3F 		.word	1063105495
 1066 0388 4008043F 		.word	1057228864
 1067 038c 00000045 		.word	1157627904
 1068 0390 00000000 		.word	ADC_Value
 1069 0394 6429933C 		.word	1016277348
 1070 0398 CA269B44 		.word	1151018698
 1071              		.cfi_endproc
 1072              	.LFE224:
 1073              		.size	virtual_motor_int_handler, .-virtual_motor_int_handler
 1074              		.section	.text.virtual_motor_is_connected,"ax",%progbits
 1075              		.align	1
 1076              		.p2align 4,,15
 1077              		.global	virtual_motor_is_connected
 1078              		.syntax unified
 1079              		.thumb
 1080              		.thumb_func
 1081              		.fpu fpv4-sp-d16
 1082              		.type	virtual_motor_is_connected, %function
 1083              	virtual_motor_is_connected:
ARM GAS  /tmp/ccYL2KmX.s 			page 20


 1084              	.LFB225:
 1085              		.loc 1 157 0
 1086              		.cfi_startproc
 1087              		@ args = 0, pretend = 0, frame = 0
 1088              		@ frame_needed = 0, uses_anonymous_args = 0
 1089              		@ link register save eliminated.
 1090              		.loc 1 158 0
 1091 0000 014B     		ldr	r3, .L56
 1092 0002 93F83C00 		ldrb	r0, [r3, #60]	@ zero_extendqisi2
 1093              		.loc 1 159 0
 1094 0006 7047     		bx	lr
 1095              	.L57:
 1096              		.align	2
 1097              	.L56:
 1098 0008 00000000 		.word	.LANCHOR0
 1099              		.cfi_endproc
 1100              	.LFE225:
 1101              		.size	virtual_motor_is_connected, .-virtual_motor_is_connected
 1102              		.section	.text.virtual_motor_get_angle_deg,"ax",%progbits
 1103              		.align	1
 1104              		.p2align 4,,15
 1105              		.global	virtual_motor_get_angle_deg
 1106              		.syntax unified
 1107              		.thumb
 1108              		.thumb_func
 1109              		.fpu fpv4-sp-d16
 1110              		.type	virtual_motor_get_angle_deg, %function
 1111              	virtual_motor_get_angle_deg:
 1112              	.LFB226:
 1113              		.loc 1 161 0
 1114              		.cfi_startproc
 1115              		@ args = 0, pretend = 0, frame = 0
 1116              		@ frame_needed = 0, uses_anonymous_args = 0
 1117              		@ link register save eliminated.
 1118              		.loc 1 162 0
 1119 0000 034B     		ldr	r3, .L59
 1120 0002 DFED047A 		vldr.32	s15, .L59+4
 1121 0006 93ED0C0A 		vldr.32	s0, [r3, #48]
 1122              		.loc 1 163 0
 1123 000a 20EE270A 		vmul.f32	s0, s0, s15
 1124 000e 7047     		bx	lr
 1125              	.L60:
 1126              		.align	2
 1127              	.L59:
 1128 0010 00000000 		.word	.LANCHOR0
 1129 0014 E02E6542 		.word	1113927392
 1130              		.cfi_endproc
 1131              	.LFE226:
 1132              		.size	virtual_motor_get_angle_deg, .-virtual_motor_get_angle_deg
 1133              		.section	.bss.m_conf,"aw",%nobits
 1134              		.align	2
 1135              		.set	.LANCHOR4,. + 0
 1136              		.type	m_conf, %object
 1137              		.size	m_conf, 4
 1138              	m_conf:
 1139 0000 00000000 		.space	4
 1140              		.section	.bss.m_curr0_offset_backup,"aw",%nobits
ARM GAS  /tmp/ccYL2KmX.s 			page 21


 1141              		.align	2
 1142              		.set	.LANCHOR1,. + 0
 1143              		.type	m_curr0_offset_backup, %object
 1144              		.size	m_curr0_offset_backup, 4
 1145              	m_curr0_offset_backup:
 1146 0000 00000000 		.space	4
 1147              		.section	.bss.m_curr1_offset_backup,"aw",%nobits
 1148              		.align	2
 1149              		.set	.LANCHOR2,. + 0
 1150              		.type	m_curr1_offset_backup, %object
 1151              		.size	m_curr1_offset_backup, 4
 1152              	m_curr1_offset_backup:
 1153 0000 00000000 		.space	4
 1154              		.section	.bss.m_curr2_offset_backup,"aw",%nobits
 1155              		.align	2
 1156              		.set	.LANCHOR3,. + 0
 1157              		.type	m_curr2_offset_backup, %object
 1158              		.size	m_curr2_offset_backup, 4
 1159              	m_curr2_offset_backup:
 1160 0000 00000000 		.space	4
 1161              		.section	.bss.virtual_motor,"aw",%nobits
 1162              		.align	2
 1163              		.set	.LANCHOR0,. + 0
 1164              		.type	virtual_motor, %object
 1165              		.size	virtual_motor, 120
 1166              	virtual_motor:
 1167 0000 00000000 		.space	120
 1167      00000000 
 1167      00000000 
 1167      00000000 
 1167      00000000 
 1168              		.section	.rodata.terminal_cmd_connect_virtual_motor.str1.4,"aMS",%progbits,1
 1169              		.align	2
 1170              	.LC2:
 1171 0000 256600   		.ascii	"%f\000"
 1172 0003 00       		.space	1
 1173              	.LC3:
 1174 0004 76697274 		.ascii	"virtual motor connected\000"
 1174      75616C20 
 1174      6D6F746F 
 1174      7220636F 
 1174      6E6E6563 
 1175              	.LC4:
 1176 001c 61726775 		.ascii	"arguments should be 3\000"
 1176      6D656E74 
 1176      73207368 
 1176      6F756C64 
 1176      20626520 
 1177              		.section	.rodata.terminal_cmd_disconnect_virtual_motor.str1.4,"aMS",%progbits,1
 1178              		.align	2
 1179              	.LC0:
 1180 0000 76697274 		.ascii	"virtual motor disconnected\000"
 1180      75616C20 
 1180      6D6F746F 
 1180      72206469 
 1180      73636F6E 
 1181 001b 00       		.space	1
ARM GAS  /tmp/ccYL2KmX.s 			page 22


 1182              	.LC1:
 1183 001c 2000     		.ascii	" \000"
 1184              		.section	.rodata.virtual_motor_init.str1.4,"aMS",%progbits,1
 1185              		.align	2
 1186              	.LC5:
 1187 0000 5B6D6C5D 		.ascii	"[ml][J][Vbus]\000"
 1187      5B4A5D5B 
 1187      56627573 
 1187      5D00
 1188 000e 0000     		.space	2
 1189              	.LC6:
 1190 0010 636F6E6E 		.ascii	"connects virtual motor\000"
 1190      65637473 
 1190      20766972 
 1190      7475616C 
 1190      206D6F74 
 1191 0027 00       		.space	1
 1192              	.LC7:
 1193 0028 636F6E6E 		.ascii	"connect_virtual_motor\000"
 1193      6563745F 
 1193      76697274 
 1193      75616C5F 
 1193      6D6F746F 
 1194 003e 0000     		.space	2
 1195              	.LC8:
 1196 0040 64697363 		.ascii	"disconnect virtual motor\000"
 1196      6F6E6E65 
 1196      63742076 
 1196      69727475 
 1196      616C206D 
 1197 0059 000000   		.space	3
 1198              	.LC9:
 1199 005c 64697363 		.ascii	"disconnect_virtual_motor\000"
 1199      6F6E6E65 
 1199      63745F76 
 1199      69727475 
 1199      616C5F6D 
 1200              		.text
 1201              	.Letext0:
 1202              		.file 2 "/usr/arm-none-eabi/include/machine/_default_types.h"
 1203              		.file 3 "/usr/arm-none-eabi/include/sys/_stdint.h"
 1204              		.file 4 "/usr/lib/gcc/arm-none-eabi/7.3.1/include/stddef.h"
 1205              		.file 5 "ChibiOS_3.0.5/os/rt/ports/ARMCMx/compilers/GCC/chtypes.h"
 1206              		.file 6 "ChibiOS_3.0.5/os/rt/include/chsystypes.h"
 1207              		.file 7 "ChibiOS_3.0.5/os/rt/include/chschd.h"
 1208              		.file 8 "ChibiOS_3.0.5/os/ext/CMSIS/include/core_cm4.h"
 1209              		.file 9 "ChibiOS_3.0.5/os/ext/CMSIS/ST/system_stm32f4xx.h"
 1210              		.file 10 "ChibiOS_3.0.5/os/ext/CMSIS/ST/stm32f407xx.h"
 1211              		.file 11 "ChibiOS_3.0.5/os/ext/CMSIS/ST/stm32f4xx.h"
 1212              		.file 12 "ChibiOS_3.0.5/os/rt/ports/ARMCMx/chcore.h"
 1213              		.file 13 "ChibiOS_3.0.5/os/rt/ports/ARMCMx/chcore_v7m.h"
 1214              		.file 14 "ChibiOS_3.0.5/os/rt/include/chtm.h"
 1215              		.file 15 "ChibiOS_3.0.5/os/rt/include/chsem.h"
 1216              		.file 16 "ChibiOS_3.0.5/os/rt/include/chmtx.h"
 1217              		.file 17 "ChibiOS_3.0.5/os/rt/include/chregistry.h"
 1218              		.file 18 "datatypes.h"
 1219              		.file 19 "ChibiOS_3.0.5/ext/stdperiph_stm32f4/inc/stm32f4xx_adc.h"
ARM GAS  /tmp/ccYL2KmX.s 			page 23


 1220              		.file 20 "conf_general.h"
 1221              		.file 21 "mc_interface.h"
 1222              		.file 22 "utils.h"
 1223              		.file 23 "/usr/arm-none-eabi/include/sys/lock.h"
 1224              		.file 24 "/usr/arm-none-eabi/include/sys/_types.h"
 1225              		.file 25 "/usr/arm-none-eabi/include/sys/reent.h"
 1226              		.file 26 "/usr/arm-none-eabi/include/math.h"
 1227              		.file 27 "commands.h"
 1228              		.file 28 "mcpwm_foc.h"
 1229              		.file 29 "encoder.h"
 1230              		.file 30 "terminal.h"
 1231              		.file 31 "/usr/arm-none-eabi/include/stdio.h"